68K GAS   			page 1


   1               	
   2               	.file"cfe_tbl_task_cmds.c"
   3               	.text
   4               	.Ltext0:
   5               	.cfi_sections.debug_frame
   6               	.section.rodata
   7               	.LC0:
   8 0000 556E 6162 	.string"Unable to send Hk Packet (Status=0x%08X)"
   8      6C65 2074 
   8      6F20 7365 
   8      6E64 2048 
   8      6B20 5061 
   9               	.LC1:
  10 0029 4346 455F 	.string"CFE_TBL:HkCmd-Unable to update timestamp in dump file '%s'\n"
  10      5442 4C3A 
  10      486B 436D 
  10      642D 556E 
  10      6162 6C65 
  11               	.LC2:
  12 0065 4346 455F 	.string"CFE_TBL:HkCmd-Unable to open dump file '%s' to update timestamp\n"
  12      5442 4C3A 
  12      486B 436D 
  12      642D 556E 
  12      6162 6C65 
  13               	.text
  14               	.align2
  15               	.globlCFE_TBL_HousekeepingCmd
  16               	.typeCFE_TBL_HousekeepingCmd, @function
  17               	CFE_TBL_HousekeepingCmd:
  18               	.LFB59:
  19               	.file 1 "/home/simulink/cFS_FreeRTOS_seL4/cfe/fsw/cfe-core/src/tbl/cfe_tbl_task_cmds.c"
   1:/home/simulink/cFS_FreeRTOS_seL4/cfe/fsw/cfe-core/src/tbl/cfe_tbl_task_cmds.c **** /*
   2:/home/simulink/cFS_FreeRTOS_seL4/cfe/fsw/cfe-core/src/tbl/cfe_tbl_task_cmds.c **** ** $Id: cfe_tbl_task_cmds.c 1.15 2014/08/22 16:30:24GMT-05:00 lwalling Exp  $
   3:/home/simulink/cFS_FreeRTOS_seL4/cfe/fsw/cfe-core/src/tbl/cfe_tbl_task_cmds.c **** **
   4:/home/simulink/cFS_FreeRTOS_seL4/cfe/fsw/cfe-core/src/tbl/cfe_tbl_task_cmds.c **** **      Copyright (c) 2004-2012, United States government as represented by the 
   5:/home/simulink/cFS_FreeRTOS_seL4/cfe/fsw/cfe-core/src/tbl/cfe_tbl_task_cmds.c **** **      administrator of the National Aeronautics Space Administration.  
   6:/home/simulink/cFS_FreeRTOS_seL4/cfe/fsw/cfe-core/src/tbl/cfe_tbl_task_cmds.c **** **      All rights reserved. This software(cFE) was created at NASA's Goddard 
   7:/home/simulink/cFS_FreeRTOS_seL4/cfe/fsw/cfe-core/src/tbl/cfe_tbl_task_cmds.c **** **      Space Flight Center pursuant to government contracts.
   8:/home/simulink/cFS_FreeRTOS_seL4/cfe/fsw/cfe-core/src/tbl/cfe_tbl_task_cmds.c **** **
   9:/home/simulink/cFS_FreeRTOS_seL4/cfe/fsw/cfe-core/src/tbl/cfe_tbl_task_cmds.c **** **      This is governed by the NASA Open Source Agreement and may be used, 
  10:/home/simulink/cFS_FreeRTOS_seL4/cfe/fsw/cfe-core/src/tbl/cfe_tbl_task_cmds.c **** **      distributed and modified only pursuant to the terms of that agreement.
  11:/home/simulink/cFS_FreeRTOS_seL4/cfe/fsw/cfe-core/src/tbl/cfe_tbl_task_cmds.c **** **  
  12:/home/simulink/cFS_FreeRTOS_seL4/cfe/fsw/cfe-core/src/tbl/cfe_tbl_task_cmds.c **** **
  13:/home/simulink/cFS_FreeRTOS_seL4/cfe/fsw/cfe-core/src/tbl/cfe_tbl_task_cmds.c **** ** Subsystem: cFE TBL Task Command Processing Functions
  14:/home/simulink/cFS_FreeRTOS_seL4/cfe/fsw/cfe-core/src/tbl/cfe_tbl_task_cmds.c **** **
  15:/home/simulink/cFS_FreeRTOS_seL4/cfe/fsw/cfe-core/src/tbl/cfe_tbl_task_cmds.c **** ** Author: David Kobe (the Hammers Company, Inc.)
  16:/home/simulink/cFS_FreeRTOS_seL4/cfe/fsw/cfe-core/src/tbl/cfe_tbl_task_cmds.c **** **
  17:/home/simulink/cFS_FreeRTOS_seL4/cfe/fsw/cfe-core/src/tbl/cfe_tbl_task_cmds.c **** ** Notes:
  18:/home/simulink/cFS_FreeRTOS_seL4/cfe/fsw/cfe-core/src/tbl/cfe_tbl_task_cmds.c **** **
  19:/home/simulink/cFS_FreeRTOS_seL4/cfe/fsw/cfe-core/src/tbl/cfe_tbl_task_cmds.c **** ** $Log: cfe_tbl_task_cmds.c  $
  20:/home/simulink/cFS_FreeRTOS_seL4/cfe/fsw/cfe-core/src/tbl/cfe_tbl_task_cmds.c **** ** Revision 1.15 2014/08/22 16:30:24GMT-05:00 lwalling 
  21:/home/simulink/cFS_FreeRTOS_seL4/cfe/fsw/cfe-core/src/tbl/cfe_tbl_task_cmds.c **** ** Change signed loop counters to unsigned
  22:/home/simulink/cFS_FreeRTOS_seL4/cfe/fsw/cfe-core/src/tbl/cfe_tbl_task_cmds.c **** ** Revision 1.14 2014/06/09 10:28:32EDT lwalling 
  23:/home/simulink/cFS_FreeRTOS_seL4/cfe/fsw/cfe-core/src/tbl/cfe_tbl_task_cmds.c **** ** Store name of last table loaded in housekeeping, modify comments when storing last table updated
  24:/home/simulink/cFS_FreeRTOS_seL4/cfe/fsw/cfe-core/src/tbl/cfe_tbl_task_cmds.c **** ** Revision 1.13 2012/02/22 15:13:33EST lwalling 
  25:/home/simulink/cFS_FreeRTOS_seL4/cfe/fsw/cfe-core/src/tbl/cfe_tbl_task_cmds.c **** ** Remove obsolete TODO comments
  26:/home/simulink/cFS_FreeRTOS_seL4/cfe/fsw/cfe-core/src/tbl/cfe_tbl_task_cmds.c **** ** Revision 1.12 2012/01/18 16:32:20EST jmdagost 
68K GAS   			page 2


  27:/home/simulink/cFS_FreeRTOS_seL4/cfe/fsw/cfe-core/src/tbl/cfe_tbl_task_cmds.c **** ** Updated no-op event msg to include cFE version numbers.
  28:/home/simulink/cFS_FreeRTOS_seL4/cfe/fsw/cfe-core/src/tbl/cfe_tbl_task_cmds.c **** ** Revision 1.11 2012/01/13 12:17:40EST acudmore 
  29:/home/simulink/cFS_FreeRTOS_seL4/cfe/fsw/cfe-core/src/tbl/cfe_tbl_task_cmds.c **** ** Changed license text to reflect open source
  30:/home/simulink/cFS_FreeRTOS_seL4/cfe/fsw/cfe-core/src/tbl/cfe_tbl_task_cmds.c **** ** Revision 1.10 2011/11/14 17:59:52EST lwalling 
  31:/home/simulink/cFS_FreeRTOS_seL4/cfe/fsw/cfe-core/src/tbl/cfe_tbl_task_cmds.c **** ** Event EID mentioned in previous log entry should have been CFE_TBL_LOAD_EXCEEDS_SIZE_ERR_EID
  32:/home/simulink/cFS_FreeRTOS_seL4/cfe/fsw/cfe-core/src/tbl/cfe_tbl_task_cmds.c **** ** Revision 1.9 2011/11/14 17:43:02EST lwalling 
  33:/home/simulink/cFS_FreeRTOS_seL4/cfe/fsw/cfe-core/src/tbl/cfe_tbl_task_cmds.c **** ** Modified event text and argument list for CFE_TBL_FILE_INCOMPLETE_ERR_EID
  34:/home/simulink/cFS_FreeRTOS_seL4/cfe/fsw/cfe-core/src/tbl/cfe_tbl_task_cmds.c **** ** Revision 1.8 2010/10/27 16:36:49EDT dkobe 
  35:/home/simulink/cFS_FreeRTOS_seL4/cfe/fsw/cfe-core/src/tbl/cfe_tbl_task_cmds.c **** ** Added computation and reporting of Table CRCs to table load and registry reporting commands
  36:/home/simulink/cFS_FreeRTOS_seL4/cfe/fsw/cfe-core/src/tbl/cfe_tbl_task_cmds.c **** ** Revision 1.7 2010/10/27 13:57:56EDT dkobe 
  37:/home/simulink/cFS_FreeRTOS_seL4/cfe/fsw/cfe-core/src/tbl/cfe_tbl_task_cmds.c **** ** Added calls to send notification messages when table commands are processed.
  38:/home/simulink/cFS_FreeRTOS_seL4/cfe/fsw/cfe-core/src/tbl/cfe_tbl_task_cmds.c **** ** Revision 1.6 2010/10/25 15:00:30EDT jmdagost 
  39:/home/simulink/cFS_FreeRTOS_seL4/cfe/fsw/cfe-core/src/tbl/cfe_tbl_task_cmds.c **** ** Corrected bad apostrophe in prologue.
  40:/home/simulink/cFS_FreeRTOS_seL4/cfe/fsw/cfe-core/src/tbl/cfe_tbl_task_cmds.c **** ** Revision 1.5 2010/10/04 15:18:54EDT jmdagost 
  41:/home/simulink/cFS_FreeRTOS_seL4/cfe/fsw/cfe-core/src/tbl/cfe_tbl_task_cmds.c **** ** Cleaned up copyright symbol.
  42:/home/simulink/cFS_FreeRTOS_seL4/cfe/fsw/cfe-core/src/tbl/cfe_tbl_task_cmds.c **** ** Revision 1.4 2009/06/10 09:20:11EDT acudmore 
  43:/home/simulink/cFS_FreeRTOS_seL4/cfe/fsw/cfe-core/src/tbl/cfe_tbl_task_cmds.c **** ** Changed OS_Mem* and OS_BSP* calls to CFE_PSP_* calls
  44:/home/simulink/cFS_FreeRTOS_seL4/cfe/fsw/cfe-core/src/tbl/cfe_tbl_task_cmds.c **** ** Revision 1.3 2008/12/08 16:10:56EST dkobe 
  45:/home/simulink/cFS_FreeRTOS_seL4/cfe/fsw/cfe-core/src/tbl/cfe_tbl_task_cmds.c **** ** Correcting errors generated during detailed design document generation
  46:/home/simulink/cFS_FreeRTOS_seL4/cfe/fsw/cfe-core/src/tbl/cfe_tbl_task_cmds.c **** ** Revision 1.2 2008/07/29 14:05:34EDT dkobe 
  47:/home/simulink/cFS_FreeRTOS_seL4/cfe/fsw/cfe-core/src/tbl/cfe_tbl_task_cmds.c **** ** Removed redundant FileCreateTimeSecs and FileCreateTimeSubSecs fields
  48:/home/simulink/cFS_FreeRTOS_seL4/cfe/fsw/cfe-core/src/tbl/cfe_tbl_task_cmds.c **** ** Revision 1.1 2008/04/17 08:05:36EDT ruperera 
  49:/home/simulink/cFS_FreeRTOS_seL4/cfe/fsw/cfe-core/src/tbl/cfe_tbl_task_cmds.c **** ** Initial revision
  50:/home/simulink/cFS_FreeRTOS_seL4/cfe/fsw/cfe-core/src/tbl/cfe_tbl_task_cmds.c **** ** Member added to project c:/MKSDATA/MKS-REPOSITORY/MKS-CFE-PROJECT/fsw/cfe-core/src/tbl/project.p
  51:/home/simulink/cFS_FreeRTOS_seL4/cfe/fsw/cfe-core/src/tbl/cfe_tbl_task_cmds.c **** ** Revision 1.43 2007/09/12 16:06:11EDT David Kobe (dlkobe) 
  52:/home/simulink/cFS_FreeRTOS_seL4/cfe/fsw/cfe-core/src/tbl/cfe_tbl_task_cmds.c **** ** Moved the definitions of CFE_ES_CRC_xx to the cfe_mission_cfg.h file and deleted TBL Services
  53:/home/simulink/cFS_FreeRTOS_seL4/cfe/fsw/cfe-core/src/tbl/cfe_tbl_task_cmds.c **** ** CRC #define statement.
  54:/home/simulink/cFS_FreeRTOS_seL4/cfe/fsw/cfe-core/src/tbl/cfe_tbl_task_cmds.c **** ** Revision 1.42 2007/07/07 09:20:35EDT dlkobe 
  55:/home/simulink/cFS_FreeRTOS_seL4/cfe/fsw/cfe-core/src/tbl/cfe_tbl_task_cmds.c **** ** Added check for pending load in Load Cmd Processing
  56:/home/simulink/cFS_FreeRTOS_seL4/cfe/fsw/cfe-core/src/tbl/cfe_tbl_task_cmds.c **** ** Revision 1.41 2007/07/07 07:51:10EDT dlkobe 
  57:/home/simulink/cFS_FreeRTOS_seL4/cfe/fsw/cfe-core/src/tbl/cfe_tbl_task_cmds.c **** ** Added CFE_TBL_ASSUMED_VALID_INFO_EID event message
  58:/home/simulink/cFS_FreeRTOS_seL4/cfe/fsw/cfe-core/src/tbl/cfe_tbl_task_cmds.c **** ** Revision 1.40 2007/07/05 15:38:36EDT dlkobe 
  59:/home/simulink/cFS_FreeRTOS_seL4/cfe/fsw/cfe-core/src/tbl/cfe_tbl_task_cmds.c **** ** Added Critical Table Flag to Registry Dump/Tlm Cmds
  60:/home/simulink/cFS_FreeRTOS_seL4/cfe/fsw/cfe-core/src/tbl/cfe_tbl_task_cmds.c **** **
  61:/home/simulink/cFS_FreeRTOS_seL4/cfe/fsw/cfe-core/src/tbl/cfe_tbl_task_cmds.c **** */
  62:/home/simulink/cFS_FreeRTOS_seL4/cfe/fsw/cfe-core/src/tbl/cfe_tbl_task_cmds.c **** 
  63:/home/simulink/cFS_FreeRTOS_seL4/cfe/fsw/cfe-core/src/tbl/cfe_tbl_task_cmds.c **** 
  64:/home/simulink/cFS_FreeRTOS_seL4/cfe/fsw/cfe-core/src/tbl/cfe_tbl_task_cmds.c **** /*
  65:/home/simulink/cFS_FreeRTOS_seL4/cfe/fsw/cfe-core/src/tbl/cfe_tbl_task_cmds.c **** ** Required header files
  66:/home/simulink/cFS_FreeRTOS_seL4/cfe/fsw/cfe-core/src/tbl/cfe_tbl_task_cmds.c **** */
  67:/home/simulink/cFS_FreeRTOS_seL4/cfe/fsw/cfe-core/src/tbl/cfe_tbl_task_cmds.c **** #include "cfe_version.h"
  68:/home/simulink/cFS_FreeRTOS_seL4/cfe/fsw/cfe-core/src/tbl/cfe_tbl_task_cmds.c **** #include "cfe_evs.h"
  69:/home/simulink/cFS_FreeRTOS_seL4/cfe/fsw/cfe-core/src/tbl/cfe_tbl_task_cmds.c **** #include "cfe_es.h"
  70:/home/simulink/cFS_FreeRTOS_seL4/cfe/fsw/cfe-core/src/tbl/cfe_tbl_task_cmds.c **** #include "cfe_sb.h"
  71:/home/simulink/cFS_FreeRTOS_seL4/cfe/fsw/cfe-core/src/tbl/cfe_tbl_task_cmds.c **** #include "cfe_fs.h"
  72:/home/simulink/cFS_FreeRTOS_seL4/cfe/fsw/cfe-core/src/tbl/cfe_tbl_task_cmds.c **** #include "cfe_psp.h"
  73:/home/simulink/cFS_FreeRTOS_seL4/cfe/fsw/cfe-core/src/tbl/cfe_tbl_task_cmds.c **** #include "cfe_tbl_internal.h"
  74:/home/simulink/cFS_FreeRTOS_seL4/cfe/fsw/cfe-core/src/tbl/cfe_tbl_task_cmds.c **** #include "cfe_tbl_events.h"
  75:/home/simulink/cFS_FreeRTOS_seL4/cfe/fsw/cfe-core/src/tbl/cfe_tbl_task_cmds.c **** #include "cfe_tbl_msg.h"
  76:/home/simulink/cFS_FreeRTOS_seL4/cfe/fsw/cfe-core/src/tbl/cfe_tbl_task_cmds.c **** #include "cfe_tbl_task_cmds.h"
  77:/home/simulink/cFS_FreeRTOS_seL4/cfe/fsw/cfe-core/src/tbl/cfe_tbl_task_cmds.c **** #include <string.h>
  78:/home/simulink/cFS_FreeRTOS_seL4/cfe/fsw/cfe-core/src/tbl/cfe_tbl_task_cmds.c **** 
  79:/home/simulink/cFS_FreeRTOS_seL4/cfe/fsw/cfe-core/src/tbl/cfe_tbl_task_cmds.c **** 
  80:/home/simulink/cFS_FreeRTOS_seL4/cfe/fsw/cfe-core/src/tbl/cfe_tbl_task_cmds.c **** /*******************************************************************
  81:/home/simulink/cFS_FreeRTOS_seL4/cfe/fsw/cfe-core/src/tbl/cfe_tbl_task_cmds.c **** **
  82:/home/simulink/cFS_FreeRTOS_seL4/cfe/fsw/cfe-core/src/tbl/cfe_tbl_task_cmds.c **** ** CFE_TBL_HousekeepingCmd() -- Process Housekeeping Request Message
  83:/home/simulink/cFS_FreeRTOS_seL4/cfe/fsw/cfe-core/src/tbl/cfe_tbl_task_cmds.c **** **
68K GAS   			page 3


  84:/home/simulink/cFS_FreeRTOS_seL4/cfe/fsw/cfe-core/src/tbl/cfe_tbl_task_cmds.c **** ** NOTE: For complete prolog information, see 'cfe_tbl_task_cmds.h'
  85:/home/simulink/cFS_FreeRTOS_seL4/cfe/fsw/cfe-core/src/tbl/cfe_tbl_task_cmds.c **** ********************************************************************/
  86:/home/simulink/cFS_FreeRTOS_seL4/cfe/fsw/cfe-core/src/tbl/cfe_tbl_task_cmds.c **** 
  87:/home/simulink/cFS_FreeRTOS_seL4/cfe/fsw/cfe-core/src/tbl/cfe_tbl_task_cmds.c **** CFE_TBL_CmdProcRet_t CFE_TBL_HousekeepingCmd( const CFE_SB_MsgPayloadPtr_t  Payload )
  88:/home/simulink/cFS_FreeRTOS_seL4/cfe/fsw/cfe-core/src/tbl/cfe_tbl_task_cmds.c **** {
  20               	.loc 1 88 0
  21               	.cfi_startproc
  22 0000 4FEF FFE8 	lea (-24,%sp),%sp
  23               	.cfi_def_cfa_offset 28
  24 0004 2F02      	move.l %d2,-(%sp)
  25               	.cfi_def_cfa_offset 32
  26               	.cfi_offset 2, -32
  89:/home/simulink/cFS_FreeRTOS_seL4/cfe/fsw/cfe-core/src/tbl/cfe_tbl_task_cmds.c ****     int32                     Status;
  90:/home/simulink/cFS_FreeRTOS_seL4/cfe/fsw/cfe-core/src/tbl/cfe_tbl_task_cmds.c ****     uint32                    i;
  91:/home/simulink/cFS_FreeRTOS_seL4/cfe/fsw/cfe-core/src/tbl/cfe_tbl_task_cmds.c ****     CFE_TBL_DumpControl_t    *DumpCtrlPtr;
  92:/home/simulink/cFS_FreeRTOS_seL4/cfe/fsw/cfe-core/src/tbl/cfe_tbl_task_cmds.c ****     CFE_TIME_SysTime_t        DumpTime;
  93:/home/simulink/cFS_FreeRTOS_seL4/cfe/fsw/cfe-core/src/tbl/cfe_tbl_task_cmds.c ****     int32                     FileDescriptor;
  94:/home/simulink/cFS_FreeRTOS_seL4/cfe/fsw/cfe-core/src/tbl/cfe_tbl_task_cmds.c ****     
  95:/home/simulink/cFS_FreeRTOS_seL4/cfe/fsw/cfe-core/src/tbl/cfe_tbl_task_cmds.c ****     /*
  96:/home/simulink/cFS_FreeRTOS_seL4/cfe/fsw/cfe-core/src/tbl/cfe_tbl_task_cmds.c ****     ** Collect housekeeping data from Table Services
  97:/home/simulink/cFS_FreeRTOS_seL4/cfe/fsw/cfe-core/src/tbl/cfe_tbl_task_cmds.c ****     */
  98:/home/simulink/cFS_FreeRTOS_seL4/cfe/fsw/cfe-core/src/tbl/cfe_tbl_task_cmds.c ****     CFE_TBL_GetHkData();
  27               	.loc 1 98 0
  28 0006 4EB9 0000 	jsr CFE_TBL_GetHkData
  28      0000 
  99:/home/simulink/cFS_FreeRTOS_seL4/cfe/fsw/cfe-core/src/tbl/cfe_tbl_task_cmds.c **** 
 100:/home/simulink/cFS_FreeRTOS_seL4/cfe/fsw/cfe-core/src/tbl/cfe_tbl_task_cmds.c ****     /*
 101:/home/simulink/cFS_FreeRTOS_seL4/cfe/fsw/cfe-core/src/tbl/cfe_tbl_task_cmds.c ****     ** Send housekeeping telemetry packet
 102:/home/simulink/cFS_FreeRTOS_seL4/cfe/fsw/cfe-core/src/tbl/cfe_tbl_task_cmds.c ****     */
 103:/home/simulink/cFS_FreeRTOS_seL4/cfe/fsw/cfe-core/src/tbl/cfe_tbl_task_cmds.c ****     CFE_SB_TimeStampMsg((CFE_SB_Msg_t *) &CFE_TBL_TaskData.HkPacket);
  29               	.loc 1 103 0
  30 000c 4879 0000 	pea CFE_TBL_TaskData+8
  30      0000 
  31               	.cfi_def_cfa_offset 36
  32 0012 4EB9 0000 	jsr CFE_SB_TimeStampMsg
  32      0000 
  33 0018 588F      	addq.l #4,%sp
  34               	.cfi_def_cfa_offset 32
 104:/home/simulink/cFS_FreeRTOS_seL4/cfe/fsw/cfe-core/src/tbl/cfe_tbl_task_cmds.c ****     Status = CFE_SB_SendMsg((CFE_SB_Msg_t *) &CFE_TBL_TaskData.HkPacket);
  35               	.loc 1 104 0
  36 001a 4879 0000 	pea CFE_TBL_TaskData+8
  36      0000 
  37               	.cfi_def_cfa_offset 36
  38 0020 4EB9 0000 	jsr CFE_SB_SendMsg
  38      0000 
  39 0026 588F      	addq.l #4,%sp
  40               	.cfi_def_cfa_offset 32
  41 0028 2F40 0014 	move.l %d0,20(%sp)
 105:/home/simulink/cFS_FreeRTOS_seL4/cfe/fsw/cfe-core/src/tbl/cfe_tbl_task_cmds.c **** 
 106:/home/simulink/cFS_FreeRTOS_seL4/cfe/fsw/cfe-core/src/tbl/cfe_tbl_task_cmds.c ****     if (Status != CFE_SUCCESS)
  42               	.loc 1 106 0
  43 002c 4AAF 0014 	tst.l 20(%sp)
  44 0030 671E      	jeq .L2
 107:/home/simulink/cFS_FreeRTOS_seL4/cfe/fsw/cfe-core/src/tbl/cfe_tbl_task_cmds.c ****     {
 108:/home/simulink/cFS_FreeRTOS_seL4/cfe/fsw/cfe-core/src/tbl/cfe_tbl_task_cmds.c ****         CFE_EVS_SendEvent(CFE_TBL_FAIL_HK_SEND_ERR_EID,
  45               	.loc 1 108 0
  46 0032 202F 0014 	move.l 20(%sp),%d0
68K GAS   			page 4


  47 0036 2F00      	move.l %d0,-(%sp)
  48               	.cfi_def_cfa_offset 36
  49 0038 4879 0000 	pea .LC0
  49      0000 
  50               	.cfi_def_cfa_offset 40
  51 003e 4878 0003 	pea 3.w
  52               	.cfi_def_cfa_offset 44
  53 0042 4878 0038 	pea 56.w
  54               	.cfi_def_cfa_offset 48
  55 0046 4EB9 0000 	jsr CFE_EVS_SendEvent
  55      0000 
  56 004c 4FEF 0010 	lea (16,%sp),%sp
  57               	.cfi_def_cfa_offset 32
  58               	.L2:
 109:/home/simulink/cFS_FreeRTOS_seL4/cfe/fsw/cfe-core/src/tbl/cfe_tbl_task_cmds.c ****                           CFE_EVS_ERROR,
 110:/home/simulink/cFS_FreeRTOS_seL4/cfe/fsw/cfe-core/src/tbl/cfe_tbl_task_cmds.c ****                           "Unable to send Hk Packet (Status=0x%08X)",
 111:/home/simulink/cFS_FreeRTOS_seL4/cfe/fsw/cfe-core/src/tbl/cfe_tbl_task_cmds.c ****                           (unsigned int)Status);
 112:/home/simulink/cFS_FreeRTOS_seL4/cfe/fsw/cfe-core/src/tbl/cfe_tbl_task_cmds.c ****     }
 113:/home/simulink/cFS_FreeRTOS_seL4/cfe/fsw/cfe-core/src/tbl/cfe_tbl_task_cmds.c **** 
 114:/home/simulink/cFS_FreeRTOS_seL4/cfe/fsw/cfe-core/src/tbl/cfe_tbl_task_cmds.c ****     /* If a table's registry entry has been requested for telemetry, then pack it and send it */
 115:/home/simulink/cFS_FreeRTOS_seL4/cfe/fsw/cfe-core/src/tbl/cfe_tbl_task_cmds.c ****     if (CFE_TBL_TaskData.HkTlmTblRegIndex != CFE_TBL_NOT_FOUND)
  59               	.loc 1 115 0
  60 0050 3039 0000 	move.w CFE_TBL_TaskData+524,%d0
  60      0000 
  61 0056 3040      	move.w %d0,%a0
  62 0058 70FF      	moveq #-1,%d0
  63 005a B088      	cmp.l %a0,%d0
  64 005c 672A      	jeq .L3
 116:/home/simulink/cFS_FreeRTOS_seL4/cfe/fsw/cfe-core/src/tbl/cfe_tbl_task_cmds.c ****     {
 117:/home/simulink/cFS_FreeRTOS_seL4/cfe/fsw/cfe-core/src/tbl/cfe_tbl_task_cmds.c ****         CFE_TBL_GetTblRegData();
  65               	.loc 1 117 0
  66 005e 4EB9 0000 	jsr CFE_TBL_GetTblRegData
  66      0000 
 118:/home/simulink/cFS_FreeRTOS_seL4/cfe/fsw/cfe-core/src/tbl/cfe_tbl_task_cmds.c **** 
 119:/home/simulink/cFS_FreeRTOS_seL4/cfe/fsw/cfe-core/src/tbl/cfe_tbl_task_cmds.c ****         /*
 120:/home/simulink/cFS_FreeRTOS_seL4/cfe/fsw/cfe-core/src/tbl/cfe_tbl_task_cmds.c ****         ** Send Table Registry Info Packet
 121:/home/simulink/cFS_FreeRTOS_seL4/cfe/fsw/cfe-core/src/tbl/cfe_tbl_task_cmds.c ****         */
 122:/home/simulink/cFS_FreeRTOS_seL4/cfe/fsw/cfe-core/src/tbl/cfe_tbl_task_cmds.c ****         CFE_SB_TimeStampMsg((CFE_SB_Msg_t *) &CFE_TBL_TaskData.TblRegPacket);
  67               	.loc 1 122 0
  68 0064 4879 0000 	pea CFE_TBL_TaskData+304
  68      0000 
  69               	.cfi_def_cfa_offset 36
  70 006a 4EB9 0000 	jsr CFE_SB_TimeStampMsg
  70      0000 
  71 0070 588F      	addq.l #4,%sp
  72               	.cfi_def_cfa_offset 32
 123:/home/simulink/cFS_FreeRTOS_seL4/cfe/fsw/cfe-core/src/tbl/cfe_tbl_task_cmds.c ****         CFE_SB_SendMsg((CFE_SB_Msg_t *) &CFE_TBL_TaskData.TblRegPacket);
  73               	.loc 1 123 0
  74 0072 4879 0000 	pea CFE_TBL_TaskData+304
  74      0000 
  75               	.cfi_def_cfa_offset 36
  76 0078 4EB9 0000 	jsr CFE_SB_SendMsg
  76      0000 
  77 007e 588F      	addq.l #4,%sp
  78               	.cfi_def_cfa_offset 32
 124:/home/simulink/cFS_FreeRTOS_seL4/cfe/fsw/cfe-core/src/tbl/cfe_tbl_task_cmds.c **** 
 125:/home/simulink/cFS_FreeRTOS_seL4/cfe/fsw/cfe-core/src/tbl/cfe_tbl_task_cmds.c ****         /* Once the data has been sent, clear the index so that we don't send it again and again */
68K GAS   			page 5


 126:/home/simulink/cFS_FreeRTOS_seL4/cfe/fsw/cfe-core/src/tbl/cfe_tbl_task_cmds.c ****         CFE_TBL_TaskData.HkTlmTblRegIndex = CFE_TBL_NOT_FOUND;
  79               	.loc 1 126 0
  80 0080 72FF      	moveq #-1,%d1
  81 0082 33C1 0000 	move.w %d1,CFE_TBL_TaskData+524
  81      0000 
  82               	.L3:
 127:/home/simulink/cFS_FreeRTOS_seL4/cfe/fsw/cfe-core/src/tbl/cfe_tbl_task_cmds.c ****     }
 128:/home/simulink/cFS_FreeRTOS_seL4/cfe/fsw/cfe-core/src/tbl/cfe_tbl_task_cmds.c ****     
 129:/home/simulink/cFS_FreeRTOS_seL4/cfe/fsw/cfe-core/src/tbl/cfe_tbl_task_cmds.c ****     /* Check to see if there are any dump-only table dumps pending */
 130:/home/simulink/cFS_FreeRTOS_seL4/cfe/fsw/cfe-core/src/tbl/cfe_tbl_task_cmds.c ****     for (i=0; i < CFE_TBL_MAX_SIMULTANEOUS_LOADS; i++)
  83               	.loc 1 130 0
  84 0088 42AF 0018 	clr.l 24(%sp)
  85 008c 6000 016E 	jra .L4
  86               	.L9:
 131:/home/simulink/cFS_FreeRTOS_seL4/cfe/fsw/cfe-core/src/tbl/cfe_tbl_task_cmds.c ****     {
 132:/home/simulink/cFS_FreeRTOS_seL4/cfe/fsw/cfe-core/src/tbl/cfe_tbl_task_cmds.c ****         if (CFE_TBL_TaskData.DumpControlBlocks[i].State == CFE_TBL_DUMP_PERFORMED)
  87               	.loc 1 132 0
  88 0090 202F 0018 	move.l 24(%sp),%d0
  89 0094 7238      	moveq #56,%d1
  90 0096 4C01 0800 	muls.l %d1,%d0
  91 009a 41F9 0000 	lea CFE_TBL_TaskData+576928,%a0
  91      0000 
  92 00a0 2030 0800 	move.l (%a0,%d0.l),%d0
  93 00a4 7202      	moveq #2,%d1
  94 00a6 B280      	cmp.l %d0,%d1
  95 00a8 6600 014E 	jne .L5
 133:/home/simulink/cFS_FreeRTOS_seL4/cfe/fsw/cfe-core/src/tbl/cfe_tbl_task_cmds.c ****         {
 134:/home/simulink/cFS_FreeRTOS_seL4/cfe/fsw/cfe-core/src/tbl/cfe_tbl_task_cmds.c ****         	DumpCtrlPtr = &CFE_TBL_TaskData.DumpControlBlocks[i];
  96               	.loc 1 134 0
  97 00ac 202F 0018 	move.l 24(%sp),%d0
  98 00b0 7238      	moveq #56,%d1
  99 00b2 4C01 0800 	muls.l %d1,%d0
 100 00b6 0680 0008 	add.l #576928,%d0
 100      CDA0 
 101 00bc 2200      	move.l %d0,%d1
 102 00be 0681 0000 	add.l #CFE_TBL_TaskData,%d1
 102      0000 
 103 00c4 2F41 0010 	move.l %d1,16(%sp)
 135:/home/simulink/cFS_FreeRTOS_seL4/cfe/fsw/cfe-core/src/tbl/cfe_tbl_task_cmds.c ****             Status = CFE_TBL_DumpToFile(DumpCtrlPtr->DumpBufferPtr->DataSource,
 104               	.loc 1 135 0
 105 00c8 206F 0010 	move.l 16(%sp),%a0
 106 00cc 2428 0004 	move.l 4(%a0),%d2
 136:/home/simulink/cFS_FreeRTOS_seL4/cfe/fsw/cfe-core/src/tbl/cfe_tbl_task_cmds.c ****                                         DumpCtrlPtr->TableName,
 137:/home/simulink/cFS_FreeRTOS_seL4/cfe/fsw/cfe-core/src/tbl/cfe_tbl_task_cmds.c ****                                         DumpCtrlPtr->DumpBufferPtr->BufferPtr,
 107               	.loc 1 137 0
 108 00d0 206F 0010 	move.l 16(%sp),%a0
 109 00d4 2068 0008 	move.l 8(%a0),%a0
 110 00d8 2250      	move.l (%a0),%a1
 136:/home/simulink/cFS_FreeRTOS_seL4/cfe/fsw/cfe-core/src/tbl/cfe_tbl_task_cmds.c ****                                         DumpCtrlPtr->TableName,
 111               	.loc 1 136 0
 112 00da 222F 0010 	move.l 16(%sp),%d1
 113 00de 0681 0000 	add.l #16,%d1
 113      0010 
 135:/home/simulink/cFS_FreeRTOS_seL4/cfe/fsw/cfe-core/src/tbl/cfe_tbl_task_cmds.c ****             Status = CFE_TBL_DumpToFile(DumpCtrlPtr->DumpBufferPtr->DataSource,
 114               	.loc 1 135 0
 115 00e4 206F 0010 	move.l 16(%sp),%a0
 116 00e8 2028 0008 	move.l 8(%a0),%d0
68K GAS   			page 6


 117 00ec 0680 0000 	add.l #18,%d0
 117      0012 
 118 00f2 2F02      	move.l %d2,-(%sp)
 119               	.cfi_def_cfa_offset 36
 120 00f4 2F09      	move.l %a1,-(%sp)
 121               	.cfi_def_cfa_offset 40
 122 00f6 2F01      	move.l %d1,-(%sp)
 123               	.cfi_def_cfa_offset 44
 124 00f8 2F00      	move.l %d0,-(%sp)
 125               	.cfi_def_cfa_offset 48
 126 00fa 4EB9 0000 	jsr CFE_TBL_DumpToFile
 126      0000 
 127 0100 4FEF 0010 	lea (16,%sp),%sp
 128               	.cfi_def_cfa_offset 32
 129 0104 2F40 0014 	move.l %d0,20(%sp)
 138:/home/simulink/cFS_FreeRTOS_seL4/cfe/fsw/cfe-core/src/tbl/cfe_tbl_task_cmds.c ****                                         DumpCtrlPtr->Size);
 139:/home/simulink/cFS_FreeRTOS_seL4/cfe/fsw/cfe-core/src/tbl/cfe_tbl_task_cmds.c ****                                 
 140:/home/simulink/cFS_FreeRTOS_seL4/cfe/fsw/cfe-core/src/tbl/cfe_tbl_task_cmds.c ****             /* If dump file was successfully written, update the file header so that the timestamp 
 141:/home/simulink/cFS_FreeRTOS_seL4/cfe/fsw/cfe-core/src/tbl/cfe_tbl_task_cmds.c ****             /* is the time of the actual capturing of the data, NOT the time when it was written to
 142:/home/simulink/cFS_FreeRTOS_seL4/cfe/fsw/cfe-core/src/tbl/cfe_tbl_task_cmds.c ****             if (Status == CFE_TBL_INC_CMD_CTR)
 130               	.loc 1 142 0
 131 0108 7001      	moveq #1,%d0
 132 010a B0AF 0014 	cmp.l 20(%sp),%d0
 133 010e 6600 00B6 	jne .L6
 143:/home/simulink/cFS_FreeRTOS_seL4/cfe/fsw/cfe-core/src/tbl/cfe_tbl_task_cmds.c ****             {
 144:/home/simulink/cFS_FreeRTOS_seL4/cfe/fsw/cfe-core/src/tbl/cfe_tbl_task_cmds.c ****                 DumpTime.Seconds = DumpCtrlPtr->DumpBufferPtr->FileCreateTimeSecs;
 134               	.loc 1 144 0
 135 0112 206F 0010 	move.l 16(%sp),%a0
 136 0116 2068 0008 	move.l 8(%a0),%a0
 137 011a 2028 0004 	move.l 4(%a0),%d0
 138 011e 2F40 0004 	move.l %d0,4(%sp)
 145:/home/simulink/cFS_FreeRTOS_seL4/cfe/fsw/cfe-core/src/tbl/cfe_tbl_task_cmds.c ****                 DumpTime.Subseconds = DumpCtrlPtr->DumpBufferPtr->FileCreateTimeSubSecs;
 139               	.loc 1 145 0
 140 0122 206F 0010 	move.l 16(%sp),%a0
 141 0126 2068 0008 	move.l 8(%a0),%a0
 142 012a 2028 0008 	move.l 8(%a0),%d0
 143 012e 2F40 0008 	move.l %d0,8(%sp)
 146:/home/simulink/cFS_FreeRTOS_seL4/cfe/fsw/cfe-core/src/tbl/cfe_tbl_task_cmds.c ****             
 147:/home/simulink/cFS_FreeRTOS_seL4/cfe/fsw/cfe-core/src/tbl/cfe_tbl_task_cmds.c ****                 FileDescriptor = OS_open(DumpCtrlPtr->DumpBufferPtr->DataSource, OS_READ_WRITE, 0);
 144               	.loc 1 147 0
 145 0132 206F 0010 	move.l 16(%sp),%a0
 146 0136 2028 0008 	move.l 8(%a0),%d0
 147 013a 0680 0000 	add.l #18,%d0
 147      0012 
 148 0140 42A7      	clr.l -(%sp)
 149               	.cfi_def_cfa_offset 36
 150 0142 4878 0002 	pea 2.w
 151               	.cfi_def_cfa_offset 40
 152 0146 2F00      	move.l %d0,-(%sp)
 153               	.cfi_def_cfa_offset 44
 154 0148 4EB9 0000 	jsr OS_open
 154      0000 
 155 014e 4FEF 000C 	lea (12,%sp),%sp
 156               	.cfi_def_cfa_offset 32
 157 0152 2F40 000C 	move.l %d0,12(%sp)
 148:/home/simulink/cFS_FreeRTOS_seL4/cfe/fsw/cfe-core/src/tbl/cfe_tbl_task_cmds.c **** 
 149:/home/simulink/cFS_FreeRTOS_seL4/cfe/fsw/cfe-core/src/tbl/cfe_tbl_task_cmds.c ****                 if (FileDescriptor >= 0)
68K GAS   			page 7


 158               	.loc 1 149 0
 159 0156 4AAF 000C 	tst.l 12(%sp)
 160 015a 6D4C      	jlt .L7
 150:/home/simulink/cFS_FreeRTOS_seL4/cfe/fsw/cfe-core/src/tbl/cfe_tbl_task_cmds.c ****                 {
 151:/home/simulink/cFS_FreeRTOS_seL4/cfe/fsw/cfe-core/src/tbl/cfe_tbl_task_cmds.c ****                     Status = CFE_FS_SetTimestamp(FileDescriptor, DumpTime);
 161               	.loc 1 151 0
 162 015c 2F2F 0008 	move.l 8(%sp),-(%sp)
 163 0160 2F2F 0008 	move.l 8(%sp),-(%sp)
 164               	.cfi_def_cfa_offset 40
 165 0164 2F2F 0014 	move.l 20(%sp),-(%sp)
 166               	.cfi_def_cfa_offset 44
 167 0168 4EB9 0000 	jsr CFE_FS_SetTimestamp
 167      0000 
 168 016e 4FEF 000C 	lea (12,%sp),%sp
 169               	.cfi_def_cfa_offset 32
 170 0172 2F40 0014 	move.l %d0,20(%sp)
 152:/home/simulink/cFS_FreeRTOS_seL4/cfe/fsw/cfe-core/src/tbl/cfe_tbl_task_cmds.c ****                     
 153:/home/simulink/cFS_FreeRTOS_seL4/cfe/fsw/cfe-core/src/tbl/cfe_tbl_task_cmds.c ****                     if (Status != OS_FS_SUCCESS)
 171               	.loc 1 153 0
 172 0176 4AAF 0014 	tst.l 20(%sp)
 173 017a 671E      	jeq .L8
 154:/home/simulink/cFS_FreeRTOS_seL4/cfe/fsw/cfe-core/src/tbl/cfe_tbl_task_cmds.c ****                     {
 155:/home/simulink/cFS_FreeRTOS_seL4/cfe/fsw/cfe-core/src/tbl/cfe_tbl_task_cmds.c ****                         CFE_ES_WriteToSysLog("CFE_TBL:HkCmd-Unable to update timestamp in dump file
 156:/home/simulink/cFS_FreeRTOS_seL4/cfe/fsw/cfe-core/src/tbl/cfe_tbl_task_cmds.c ****                                              DumpCtrlPtr->DumpBufferPtr->DataSource);
 174               	.loc 1 156 0
 175 017c 206F 0010 	move.l 16(%sp),%a0
 176 0180 2028 0008 	move.l 8(%a0),%d0
 177 0184 0680 0000 	add.l #18,%d0
 177      0012 
 155:/home/simulink/cFS_FreeRTOS_seL4/cfe/fsw/cfe-core/src/tbl/cfe_tbl_task_cmds.c ****                                              DumpCtrlPtr->DumpBufferPtr->DataSource);
 178               	.loc 1 155 0
 179 018a 2F00      	move.l %d0,-(%sp)
 180               	.cfi_def_cfa_offset 36
 181 018c 4879 0000 	pea .LC1
 181      0000 
 182               	.cfi_def_cfa_offset 40
 183 0192 4EB9 0000 	jsr CFE_ES_WriteToSysLog
 183      0000 
 184 0198 508F      	addq.l #8,%sp
 185               	.cfi_def_cfa_offset 32
 186               	.L8:
 157:/home/simulink/cFS_FreeRTOS_seL4/cfe/fsw/cfe-core/src/tbl/cfe_tbl_task_cmds.c ****                     }
 158:/home/simulink/cFS_FreeRTOS_seL4/cfe/fsw/cfe-core/src/tbl/cfe_tbl_task_cmds.c ****                     
 159:/home/simulink/cFS_FreeRTOS_seL4/cfe/fsw/cfe-core/src/tbl/cfe_tbl_task_cmds.c ****                     OS_close(FileDescriptor);
 187               	.loc 1 159 0
 188 019a 2F2F 000C 	move.l 12(%sp),-(%sp)
 189               	.cfi_def_cfa_offset 36
 190 019e 4EB9 0000 	jsr OS_close
 190      0000 
 191 01a4 588F      	addq.l #4,%sp
 192               	.cfi_def_cfa_offset 32
 193 01a6 601E      	jra .L6
 194               	.L7:
 160:/home/simulink/cFS_FreeRTOS_seL4/cfe/fsw/cfe-core/src/tbl/cfe_tbl_task_cmds.c ****                 }
 161:/home/simulink/cFS_FreeRTOS_seL4/cfe/fsw/cfe-core/src/tbl/cfe_tbl_task_cmds.c ****                 else
 162:/home/simulink/cFS_FreeRTOS_seL4/cfe/fsw/cfe-core/src/tbl/cfe_tbl_task_cmds.c ****                 {
 163:/home/simulink/cFS_FreeRTOS_seL4/cfe/fsw/cfe-core/src/tbl/cfe_tbl_task_cmds.c ****                     CFE_ES_WriteToSysLog("CFE_TBL:HkCmd-Unable to open dump file '%s' to update tim
68K GAS   			page 8


 164:/home/simulink/cFS_FreeRTOS_seL4/cfe/fsw/cfe-core/src/tbl/cfe_tbl_task_cmds.c ****                                          DumpCtrlPtr->DumpBufferPtr->DataSource);
 195               	.loc 1 164 0
 196 01a8 206F 0010 	move.l 16(%sp),%a0
 197 01ac 2028 0008 	move.l 8(%a0),%d0
 198 01b0 0680 0000 	add.l #18,%d0
 198      0012 
 163:/home/simulink/cFS_FreeRTOS_seL4/cfe/fsw/cfe-core/src/tbl/cfe_tbl_task_cmds.c ****                                          DumpCtrlPtr->DumpBufferPtr->DataSource);
 199               	.loc 1 163 0
 200 01b6 2F00      	move.l %d0,-(%sp)
 201               	.cfi_def_cfa_offset 36
 202 01b8 4879 0000 	pea .LC2
 202      0000 
 203               	.cfi_def_cfa_offset 40
 204 01be 4EB9 0000 	jsr CFE_ES_WriteToSysLog
 204      0000 
 205 01c4 508F      	addq.l #8,%sp
 206               	.cfi_def_cfa_offset 32
 207               	.L6:
 165:/home/simulink/cFS_FreeRTOS_seL4/cfe/fsw/cfe-core/src/tbl/cfe_tbl_task_cmds.c ****                 }
 166:/home/simulink/cFS_FreeRTOS_seL4/cfe/fsw/cfe-core/src/tbl/cfe_tbl_task_cmds.c ****             }       
 167:/home/simulink/cFS_FreeRTOS_seL4/cfe/fsw/cfe-core/src/tbl/cfe_tbl_task_cmds.c ****                         
 168:/home/simulink/cFS_FreeRTOS_seL4/cfe/fsw/cfe-core/src/tbl/cfe_tbl_task_cmds.c ****             /* Free the shared working buffer */
 169:/home/simulink/cFS_FreeRTOS_seL4/cfe/fsw/cfe-core/src/tbl/cfe_tbl_task_cmds.c ****             CFE_TBL_TaskData.LoadBuffs[DumpCtrlPtr->RegRecPtr->LoadInProgress].Taken = FALSE;
 208               	.loc 1 169 0
 209 01c6 206F 0010 	move.l 16(%sp),%a0
 210 01ca 2068 000C 	move.l 12(%a0),%a0
 211 01ce 2028 00C8 	move.l 200(%a0),%d0
 212 01d2 7254      	moveq #84,%d1
 213 01d4 4C01 0800 	muls.l %d1,%d0
 214 01d8 41F9 0000 	lea CFE_TBL_TaskData+556,%a0
 214      0000 
 215 01de 4201      	clr.b %d1
 216 01e0 1181 0800 	move.b %d1,(%a0,%d0.l)
 170:/home/simulink/cFS_FreeRTOS_seL4/cfe/fsw/cfe-core/src/tbl/cfe_tbl_task_cmds.c ****             DumpCtrlPtr->RegRecPtr->LoadInProgress = CFE_TBL_NO_LOAD_IN_PROGRESS;
 217               	.loc 1 170 0
 218 01e4 206F 0010 	move.l 16(%sp),%a0
 219 01e8 2068 000C 	move.l 12(%a0),%a0
 220 01ec 70FF      	moveq #-1,%d0
 221 01ee 2140 00C8 	move.l %d0,200(%a0)
 171:/home/simulink/cFS_FreeRTOS_seL4/cfe/fsw/cfe-core/src/tbl/cfe_tbl_task_cmds.c ****             
 172:/home/simulink/cFS_FreeRTOS_seL4/cfe/fsw/cfe-core/src/tbl/cfe_tbl_task_cmds.c ****             /* Free the Dump Control Block for later use */
 173:/home/simulink/cFS_FreeRTOS_seL4/cfe/fsw/cfe-core/src/tbl/cfe_tbl_task_cmds.c ****             DumpCtrlPtr->State = CFE_TBL_DUMP_FREE;       
 222               	.loc 1 173 0
 223 01f2 206F 0010 	move.l 16(%sp),%a0
 224 01f6 4290      	clr.l (%a0)
 225               	.L5:
 130:/home/simulink/cFS_FreeRTOS_seL4/cfe/fsw/cfe-core/src/tbl/cfe_tbl_task_cmds.c ****     {
 226               	.loc 1 130 0 discriminator 2
 227 01f8 52AF 0018 	addq.l #1,24(%sp)
 228               	.L4:
 130:/home/simulink/cFS_FreeRTOS_seL4/cfe/fsw/cfe-core/src/tbl/cfe_tbl_task_cmds.c ****     {
 229               	.loc 1 130 0 is_stmt 0 discriminator 1
 230 01fc 7203      	moveq #3,%d1
 231 01fe B2AF 0018 	cmp.l 24(%sp),%d1
 232 0202 6400 FE8C 	jcc .L9
 174:/home/simulink/cFS_FreeRTOS_seL4/cfe/fsw/cfe-core/src/tbl/cfe_tbl_task_cmds.c ****         }
 175:/home/simulink/cFS_FreeRTOS_seL4/cfe/fsw/cfe-core/src/tbl/cfe_tbl_task_cmds.c ****     }
68K GAS   			page 9


 176:/home/simulink/cFS_FreeRTOS_seL4/cfe/fsw/cfe-core/src/tbl/cfe_tbl_task_cmds.c **** 
 177:/home/simulink/cFS_FreeRTOS_seL4/cfe/fsw/cfe-core/src/tbl/cfe_tbl_task_cmds.c ****     return CFE_TBL_DONT_INC_CTR;
 233               	.loc 1 177 0 is_stmt 1
 234 0206 4280      	clr.l %d0
 178:/home/simulink/cFS_FreeRTOS_seL4/cfe/fsw/cfe-core/src/tbl/cfe_tbl_task_cmds.c **** 
 179:/home/simulink/cFS_FreeRTOS_seL4/cfe/fsw/cfe-core/src/tbl/cfe_tbl_task_cmds.c **** } /* End of CFE_TBL_HousekeepingCmd() */
 235               	.loc 1 179 0
 236 0208 241F      	move.l (%sp)+,%d2
 237 020a 4FEF 0018 	lea (24,%sp),%sp
 238 020e 4E75      	rts
 239               	.cfi_endproc
 240               	.LFE59:
 241               	.sizeCFE_TBL_HousekeepingCmd, .-CFE_TBL_HousekeepingCmd
 242               	.align2
 243               	.globlCFE_TBL_GetHkData
 244               	.typeCFE_TBL_GetHkData, @function
 245               	CFE_TBL_GetHkData:
 246               	.LFB60:
 180:/home/simulink/cFS_FreeRTOS_seL4/cfe/fsw/cfe-core/src/tbl/cfe_tbl_task_cmds.c **** 
 181:/home/simulink/cFS_FreeRTOS_seL4/cfe/fsw/cfe-core/src/tbl/cfe_tbl_task_cmds.c **** 
 182:/home/simulink/cFS_FreeRTOS_seL4/cfe/fsw/cfe-core/src/tbl/cfe_tbl_task_cmds.c **** /*******************************************************************
 183:/home/simulink/cFS_FreeRTOS_seL4/cfe/fsw/cfe-core/src/tbl/cfe_tbl_task_cmds.c **** **
 184:/home/simulink/cFS_FreeRTOS_seL4/cfe/fsw/cfe-core/src/tbl/cfe_tbl_task_cmds.c **** ** CFE_TBL_GetHkData() -- Collect data and store it into the Housekeeping Message
 185:/home/simulink/cFS_FreeRTOS_seL4/cfe/fsw/cfe-core/src/tbl/cfe_tbl_task_cmds.c **** **
 186:/home/simulink/cFS_FreeRTOS_seL4/cfe/fsw/cfe-core/src/tbl/cfe_tbl_task_cmds.c **** ** NOTE: For complete prolog information, see prototype above
 187:/home/simulink/cFS_FreeRTOS_seL4/cfe/fsw/cfe-core/src/tbl/cfe_tbl_task_cmds.c **** ********************************************************************/
 188:/home/simulink/cFS_FreeRTOS_seL4/cfe/fsw/cfe-core/src/tbl/cfe_tbl_task_cmds.c **** 
 189:/home/simulink/cFS_FreeRTOS_seL4/cfe/fsw/cfe-core/src/tbl/cfe_tbl_task_cmds.c **** void CFE_TBL_GetHkData(void)
 190:/home/simulink/cFS_FreeRTOS_seL4/cfe/fsw/cfe-core/src/tbl/cfe_tbl_task_cmds.c **** {
 247               	.loc 1 190 0
 248               	.cfi_startproc
 249 0210 4FEF FFF4 	lea (-12,%sp),%sp
 250               	.cfi_def_cfa_offset 16
 251 0214 2F02      	move.l %d2,-(%sp)
 252               	.cfi_def_cfa_offset 20
 253               	.cfi_offset 2, -20
 191:/home/simulink/cFS_FreeRTOS_seL4/cfe/fsw/cfe-core/src/tbl/cfe_tbl_task_cmds.c ****     uint32 i;
 192:/home/simulink/cFS_FreeRTOS_seL4/cfe/fsw/cfe-core/src/tbl/cfe_tbl_task_cmds.c ****     uint16 Count;
 193:/home/simulink/cFS_FreeRTOS_seL4/cfe/fsw/cfe-core/src/tbl/cfe_tbl_task_cmds.c ****     CFE_TBL_ValidationResult_t *ValPtr = NULL;
 254               	.loc 1 193 0
 255 0216 42AF 0004 	clr.l 4(%sp)
 194:/home/simulink/cFS_FreeRTOS_seL4/cfe/fsw/cfe-core/src/tbl/cfe_tbl_task_cmds.c **** 
 195:/home/simulink/cFS_FreeRTOS_seL4/cfe/fsw/cfe-core/src/tbl/cfe_tbl_task_cmds.c ****     /* Copy command counter data */
 196:/home/simulink/cFS_FreeRTOS_seL4/cfe/fsw/cfe-core/src/tbl/cfe_tbl_task_cmds.c ****     CFE_TBL_TaskData.HkPacket.Payload.CmdCounter = CFE_TBL_TaskData.CmdCounter;
 256               	.loc 1 196 0
 257 021a 1039 0000 	move.b CFE_TBL_TaskData,%d0
 257      0000 
 258 0220 13C0 0000 	move.b %d0,CFE_TBL_TaskData+20
 258      0000 
 197:/home/simulink/cFS_FreeRTOS_seL4/cfe/fsw/cfe-core/src/tbl/cfe_tbl_task_cmds.c ****     CFE_TBL_TaskData.HkPacket.Payload.ErrCounter = CFE_TBL_TaskData.ErrCounter;
 259               	.loc 1 197 0
 260 0226 1039 0000 	move.b CFE_TBL_TaskData+1,%d0
 260      0000 
 261 022c 13C0 0000 	move.b %d0,CFE_TBL_TaskData+21
 261      0000 
 198:/home/simulink/cFS_FreeRTOS_seL4/cfe/fsw/cfe-core/src/tbl/cfe_tbl_task_cmds.c ****     CFE_TBL_TaskData.HkPacket.Payload.FailedValCtr = CFE_TBL_TaskData.FailedValCtr;
 262               	.loc 1 198 0
68K GAS   			page 10


 263 0232 1039 0000 	move.b CFE_TBL_TaskData+3,%d0
 263      0000 
 264 0238 13C0 0000 	move.b %d0,CFE_TBL_TaskData+78
 264      0000 
 199:/home/simulink/cFS_FreeRTOS_seL4/cfe/fsw/cfe-core/src/tbl/cfe_tbl_task_cmds.c ****     CFE_TBL_TaskData.HkPacket.Payload.NumLoadPending = 0;
 265               	.loc 1 199 0
 266 023e 4240      	clr.w %d0
 267 0240 33C0 0000 	move.w %d0,CFE_TBL_TaskData+24
 267      0000 
 200:/home/simulink/cFS_FreeRTOS_seL4/cfe/fsw/cfe-core/src/tbl/cfe_tbl_task_cmds.c ****     CFE_SB_SET_MEMADDR(CFE_TBL_TaskData.HkPacket.Payload.MemPoolHandle, CFE_TBL_TaskData.Buf.PoolHd
 268               	.loc 1 200 0
 269 0246 2039 0000 	move.l CFE_TBL_TaskData+52076,%d0
 269      0000 
 270 024c 23C0 0000 	move.l %d0,CFE_TBL_TaskData+84
 270      0000 
 201:/home/simulink/cFS_FreeRTOS_seL4/cfe/fsw/cfe-core/src/tbl/cfe_tbl_task_cmds.c **** 
 202:/home/simulink/cFS_FreeRTOS_seL4/cfe/fsw/cfe-core/src/tbl/cfe_tbl_task_cmds.c ****     /* Determine the number of tables currently registered and Number of Load Pending Tables */
 203:/home/simulink/cFS_FreeRTOS_seL4/cfe/fsw/cfe-core/src/tbl/cfe_tbl_task_cmds.c ****     Count = 0;
 271               	.loc 1 203 0
 272 0252 4241      	clr.w %d1
 273 0254 3F41 000A 	move.w %d1,10(%sp)
 204:/home/simulink/cFS_FreeRTOS_seL4/cfe/fsw/cfe-core/src/tbl/cfe_tbl_task_cmds.c ****     for (i=0; i<CFE_TBL_MAX_NUM_TABLES; i++)
 274               	.loc 1 204 0
 275 0258 42AF 000C 	clr.l 12(%sp)
 276 025c 6058      	jra .L12
 277               	.L14:
 205:/home/simulink/cFS_FreeRTOS_seL4/cfe/fsw/cfe-core/src/tbl/cfe_tbl_task_cmds.c ****     {
 206:/home/simulink/cFS_FreeRTOS_seL4/cfe/fsw/cfe-core/src/tbl/cfe_tbl_task_cmds.c ****         if (CFE_TBL_TaskData.Registry[i].OwnerAppId != CFE_TBL_NOT_OWNED)
 278               	.loc 1 206 0
 279 025e 202F 000C 	move.l 12(%sp),%d0
 280 0262 243C 0000 	move.l #336,%d2
 280      0150 
 281 0268 4C02 0800 	muls.l %d2,%d0
 282 026c 41F9 0000 	lea CFE_TBL_TaskData+4972,%a0
 282      0000 
 283 0272 2030 0800 	move.l (%a0,%d0.l),%d0
 284 0276 72FF      	moveq #-1,%d1
 285 0278 B280      	cmp.l %d0,%d1
 286 027a 6736      	jeq .L13
 207:/home/simulink/cFS_FreeRTOS_seL4/cfe/fsw/cfe-core/src/tbl/cfe_tbl_task_cmds.c ****         {
 208:/home/simulink/cFS_FreeRTOS_seL4/cfe/fsw/cfe-core/src/tbl/cfe_tbl_task_cmds.c ****             Count++;
 287               	.loc 1 208 0
 288 027c 302F 000A 	move.w 10(%sp),%d0
 289 0280 5280      	addq.l #1,%d0
 290 0282 3F40 000A 	move.w %d0,10(%sp)
 209:/home/simulink/cFS_FreeRTOS_seL4/cfe/fsw/cfe-core/src/tbl/cfe_tbl_task_cmds.c **** 
 210:/home/simulink/cFS_FreeRTOS_seL4/cfe/fsw/cfe-core/src/tbl/cfe_tbl_task_cmds.c ****             if (CFE_TBL_TaskData.Registry[i].LoadPending)
 291               	.loc 1 210 0
 292 0286 202F 000C 	move.l 12(%sp),%d0
 293 028a 243C 0000 	move.l #336,%d2
 293      0150 
 294 0290 4C02 0800 	muls.l %d2,%d0
 295 0294 41F9 0000 	lea CFE_TBL_TaskData+5196,%a0
 295      0000 
 296 029a 1030 0800 	move.b (%a0,%d0.l),%d0
 297 029e 4A00      	tst.b %d0
 298 02a0 6710      	jeq .L13
68K GAS   			page 11


 211:/home/simulink/cFS_FreeRTOS_seL4/cfe/fsw/cfe-core/src/tbl/cfe_tbl_task_cmds.c ****             {
 212:/home/simulink/cFS_FreeRTOS_seL4/cfe/fsw/cfe-core/src/tbl/cfe_tbl_task_cmds.c ****                 CFE_TBL_TaskData.HkPacket.Payload.NumLoadPending++;
 299               	.loc 1 212 0
 300 02a2 3039 0000 	move.w CFE_TBL_TaskData+24,%d0
 300      0000 
 301 02a8 5280      	addq.l #1,%d0
 302 02aa 3000      	move.w %d0,%d0
 303 02ac 33C0 0000 	move.w %d0,CFE_TBL_TaskData+24
 303      0000 
 304               	.L13:
 204:/home/simulink/cFS_FreeRTOS_seL4/cfe/fsw/cfe-core/src/tbl/cfe_tbl_task_cmds.c ****     {
 305               	.loc 1 204 0 discriminator 2
 306 02b2 52AF 000C 	addq.l #1,12(%sp)
 307               	.L12:
 204:/home/simulink/cFS_FreeRTOS_seL4/cfe/fsw/cfe-core/src/tbl/cfe_tbl_task_cmds.c ****     {
 308               	.loc 1 204 0 is_stmt 0 discriminator 1
 309 02b6 707F      	moveq #127,%d0
 310 02b8 B0AF 000C 	cmp.l 12(%sp),%d0
 311 02bc 64A0      	jcc .L14
 213:/home/simulink/cFS_FreeRTOS_seL4/cfe/fsw/cfe-core/src/tbl/cfe_tbl_task_cmds.c ****             }
 214:/home/simulink/cFS_FreeRTOS_seL4/cfe/fsw/cfe-core/src/tbl/cfe_tbl_task_cmds.c ****         }
 215:/home/simulink/cFS_FreeRTOS_seL4/cfe/fsw/cfe-core/src/tbl/cfe_tbl_task_cmds.c ****     }
 216:/home/simulink/cFS_FreeRTOS_seL4/cfe/fsw/cfe-core/src/tbl/cfe_tbl_task_cmds.c ****     CFE_TBL_TaskData.HkPacket.Payload.NumTables = Count;
 312               	.loc 1 216 0 is_stmt 1
 313 02be 41EF 000A 	lea (10,%sp),%a0
 314 02c2 33D0 0000 	move.w (%a0),CFE_TBL_TaskData+22
 314      0000 
 217:/home/simulink/cFS_FreeRTOS_seL4/cfe/fsw/cfe-core/src/tbl/cfe_tbl_task_cmds.c **** 
 218:/home/simulink/cFS_FreeRTOS_seL4/cfe/fsw/cfe-core/src/tbl/cfe_tbl_task_cmds.c ****     /* Determine the number of free shared buffers */
 219:/home/simulink/cFS_FreeRTOS_seL4/cfe/fsw/cfe-core/src/tbl/cfe_tbl_task_cmds.c ****     CFE_TBL_TaskData.HkPacket.Payload.NumFreeSharedBufs = CFE_TBL_MAX_SIMULTANEOUS_LOADS;
 315               	.loc 1 219 0
 316 02c8 7004      	moveq #4,%d0
 317 02ca 13C0 0000 	move.b %d0,CFE_TBL_TaskData+80
 317      0000 
 220:/home/simulink/cFS_FreeRTOS_seL4/cfe/fsw/cfe-core/src/tbl/cfe_tbl_task_cmds.c ****     for (i=0; i<CFE_TBL_MAX_SIMULTANEOUS_LOADS; i++)
 318               	.loc 1 220 0
 319 02d0 42AF 000C 	clr.l 12(%sp)
 320 02d4 602C      	jra .L15
 321               	.L17:
 221:/home/simulink/cFS_FreeRTOS_seL4/cfe/fsw/cfe-core/src/tbl/cfe_tbl_task_cmds.c ****     {
 222:/home/simulink/cFS_FreeRTOS_seL4/cfe/fsw/cfe-core/src/tbl/cfe_tbl_task_cmds.c ****         if (CFE_TBL_TaskData.LoadBuffs[i].Taken)
 322               	.loc 1 222 0
 323 02d6 202F 000C 	move.l 12(%sp),%d0
 324 02da 7254      	moveq #84,%d1
 325 02dc 4C01 0800 	muls.l %d1,%d0
 326 02e0 41F9 0000 	lea CFE_TBL_TaskData+556,%a0
 326      0000 
 327 02e6 1030 0800 	move.b (%a0,%d0.l),%d0
 328 02ea 4A00      	tst.b %d0
 329 02ec 6710      	jeq .L16
 223:/home/simulink/cFS_FreeRTOS_seL4/cfe/fsw/cfe-core/src/tbl/cfe_tbl_task_cmds.c ****         {
 224:/home/simulink/cFS_FreeRTOS_seL4/cfe/fsw/cfe-core/src/tbl/cfe_tbl_task_cmds.c ****             CFE_TBL_TaskData.HkPacket.Payload.NumFreeSharedBufs--;
 330               	.loc 1 224 0
 331 02ee 1039 0000 	move.b CFE_TBL_TaskData+80,%d0
 331      0000 
 332 02f4 5380      	subq.l #1,%d0
 333 02f6 1000      	move.b %d0,%d0
68K GAS   			page 12


 334 02f8 13C0 0000 	move.b %d0,CFE_TBL_TaskData+80
 334      0000 
 335               	.L16:
 220:/home/simulink/cFS_FreeRTOS_seL4/cfe/fsw/cfe-core/src/tbl/cfe_tbl_task_cmds.c ****     {
 336               	.loc 1 220 0 discriminator 2
 337 02fe 52AF 000C 	addq.l #1,12(%sp)
 338               	.L15:
 220:/home/simulink/cFS_FreeRTOS_seL4/cfe/fsw/cfe-core/src/tbl/cfe_tbl_task_cmds.c ****     {
 339               	.loc 1 220 0 is_stmt 0 discriminator 1
 340 0302 7403      	moveq #3,%d2
 341 0304 B4AF 000C 	cmp.l 12(%sp),%d2
 342 0308 64CC      	jcc .L17
 225:/home/simulink/cFS_FreeRTOS_seL4/cfe/fsw/cfe-core/src/tbl/cfe_tbl_task_cmds.c ****         }
 226:/home/simulink/cFS_FreeRTOS_seL4/cfe/fsw/cfe-core/src/tbl/cfe_tbl_task_cmds.c ****     }
 227:/home/simulink/cFS_FreeRTOS_seL4/cfe/fsw/cfe-core/src/tbl/cfe_tbl_task_cmds.c **** 
 228:/home/simulink/cFS_FreeRTOS_seL4/cfe/fsw/cfe-core/src/tbl/cfe_tbl_task_cmds.c ****     /* Locate a completed, but unreported, validation request */
 229:/home/simulink/cFS_FreeRTOS_seL4/cfe/fsw/cfe-core/src/tbl/cfe_tbl_task_cmds.c ****     i=0;
 343               	.loc 1 229 0 is_stmt 1
 344 030a 42AF 000C 	clr.l 12(%sp)
 230:/home/simulink/cFS_FreeRTOS_seL4/cfe/fsw/cfe-core/src/tbl/cfe_tbl_task_cmds.c ****     while ((i < CFE_TBL_MAX_NUM_VALIDATIONS) && (ValPtr == NULL))
 345               	.loc 1 230 0
 346 030e 603C      	jra .L18
 347               	.L21:
 231:/home/simulink/cFS_FreeRTOS_seL4/cfe/fsw/cfe-core/src/tbl/cfe_tbl_task_cmds.c ****     {
 232:/home/simulink/cFS_FreeRTOS_seL4/cfe/fsw/cfe-core/src/tbl/cfe_tbl_task_cmds.c ****         if (CFE_TBL_TaskData.ValidationResults[i].State == CFE_TBL_VALIDATION_PERFORMED)
 348               	.loc 1 232 0
 349 0310 202F 000C 	move.l 12(%sp),%d0
 350 0314 7238      	moveq #56,%d1
 351 0316 4C01 0800 	muls.l %d1,%d0
 352 031a 41F9 0000 	lea CFE_TBL_TaskData+576368,%a0
 352      0000 
 353 0320 2030 0800 	move.l (%a0,%d0.l),%d0
 354 0324 7402      	moveq #2,%d2
 355 0326 B480      	cmp.l %d0,%d2
 356 0328 661E      	jne .L19
 233:/home/simulink/cFS_FreeRTOS_seL4/cfe/fsw/cfe-core/src/tbl/cfe_tbl_task_cmds.c ****         {
 234:/home/simulink/cFS_FreeRTOS_seL4/cfe/fsw/cfe-core/src/tbl/cfe_tbl_task_cmds.c ****             ValPtr = &CFE_TBL_TaskData.ValidationResults[i];
 357               	.loc 1 234 0
 358 032a 202F 000C 	move.l 12(%sp),%d0
 359 032e 7238      	moveq #56,%d1
 360 0330 4C01 0800 	muls.l %d1,%d0
 361 0334 0680 0008 	add.l #576368,%d0
 361      CB70 
 362 033a 2400      	move.l %d0,%d2
 363 033c 0682 0000 	add.l #CFE_TBL_TaskData,%d2
 363      0000 
 364 0342 2F42 0004 	move.l %d2,4(%sp)
 365 0346 6004      	jra .L18
 366               	.L19:
 235:/home/simulink/cFS_FreeRTOS_seL4/cfe/fsw/cfe-core/src/tbl/cfe_tbl_task_cmds.c ****         }
 236:/home/simulink/cFS_FreeRTOS_seL4/cfe/fsw/cfe-core/src/tbl/cfe_tbl_task_cmds.c ****         else
 237:/home/simulink/cFS_FreeRTOS_seL4/cfe/fsw/cfe-core/src/tbl/cfe_tbl_task_cmds.c ****         {
 238:/home/simulink/cFS_FreeRTOS_seL4/cfe/fsw/cfe-core/src/tbl/cfe_tbl_task_cmds.c ****             i++;
 367               	.loc 1 238 0
 368 0348 52AF 000C 	addq.l #1,12(%sp)
 369               	.L18:
 230:/home/simulink/cFS_FreeRTOS_seL4/cfe/fsw/cfe-core/src/tbl/cfe_tbl_task_cmds.c ****     {
68K GAS   			page 13


 370               	.loc 1 230 0
 371 034c 7009      	moveq #9,%d0
 372 034e B0AF 000C 	cmp.l 12(%sp),%d0
 373 0352 6506      	jcs .L20
 230:/home/simulink/cFS_FreeRTOS_seL4/cfe/fsw/cfe-core/src/tbl/cfe_tbl_task_cmds.c ****     {
 374               	.loc 1 230 0 is_stmt 0 discriminator 1
 375 0354 4AAF 0004 	tst.l 4(%sp)
 376 0358 67B6      	jeq .L21
 377               	.L20:
 239:/home/simulink/cFS_FreeRTOS_seL4/cfe/fsw/cfe-core/src/tbl/cfe_tbl_task_cmds.c ****         }
 240:/home/simulink/cFS_FreeRTOS_seL4/cfe/fsw/cfe-core/src/tbl/cfe_tbl_task_cmds.c ****     }
 241:/home/simulink/cFS_FreeRTOS_seL4/cfe/fsw/cfe-core/src/tbl/cfe_tbl_task_cmds.c **** 
 242:/home/simulink/cFS_FreeRTOS_seL4/cfe/fsw/cfe-core/src/tbl/cfe_tbl_task_cmds.c ****     if (ValPtr != NULL)
 378               	.loc 1 242 0 is_stmt 1
 379 035a 4AAF 0004 	tst.l 4(%sp)
 380 035e 6700 00B8 	jeq .L22
 243:/home/simulink/cFS_FreeRTOS_seL4/cfe/fsw/cfe-core/src/tbl/cfe_tbl_task_cmds.c ****     {
 244:/home/simulink/cFS_FreeRTOS_seL4/cfe/fsw/cfe-core/src/tbl/cfe_tbl_task_cmds.c ****         CFE_TBL_TaskData.HkPacket.Payload.LastValCrc = ValPtr->CrcOfTable;
 381               	.loc 1 244 0
 382 0362 206F 0004 	move.l 4(%sp),%a0
 383 0366 2028 0008 	move.l 8(%a0),%d0
 384 036a 23C0 0000 	move.l %d0,CFE_TBL_TaskData+28
 384      0000 
 245:/home/simulink/cFS_FreeRTOS_seL4/cfe/fsw/cfe-core/src/tbl/cfe_tbl_task_cmds.c ****         CFE_TBL_TaskData.HkPacket.Payload.LastValStatus = ValPtr->Result;
 385               	.loc 1 245 0
 386 0370 206F 0004 	move.l 4(%sp),%a0
 387 0374 2028 0004 	move.l 4(%a0),%d0
 388 0378 23C0 0000 	move.l %d0,CFE_TBL_TaskData+32
 388      0000 
 246:/home/simulink/cFS_FreeRTOS_seL4/cfe/fsw/cfe-core/src/tbl/cfe_tbl_task_cmds.c ****         CFE_TBL_TaskData.HkPacket.Payload.ActiveBuffer = ValPtr->ActiveBuffer;
 389               	.loc 1 246 0
 390 037e 206F 0004 	move.l 4(%sp),%a0
 391 0382 1028 000C 	move.b 12(%a0),%d0
 392 0386 13C0 0000 	move.b %d0,CFE_TBL_TaskData+36
 392      0000 
 247:/home/simulink/cFS_FreeRTOS_seL4/cfe/fsw/cfe-core/src/tbl/cfe_tbl_task_cmds.c **** 
 248:/home/simulink/cFS_FreeRTOS_seL4/cfe/fsw/cfe-core/src/tbl/cfe_tbl_task_cmds.c ****         /* Keep track of the number of failed and successful validations */
 249:/home/simulink/cFS_FreeRTOS_seL4/cfe/fsw/cfe-core/src/tbl/cfe_tbl_task_cmds.c ****         if (ValPtr->Result == CFE_SUCCESS)
 393               	.loc 1 249 0
 394 038c 206F 0004 	move.l 4(%sp),%a0
 395 0390 2028 0004 	move.l 4(%a0),%d0
 396 0394 4A80      	tst.l %d0
 397 0396 6612      	jne .L23
 250:/home/simulink/cFS_FreeRTOS_seL4/cfe/fsw/cfe-core/src/tbl/cfe_tbl_task_cmds.c ****         {
 251:/home/simulink/cFS_FreeRTOS_seL4/cfe/fsw/cfe-core/src/tbl/cfe_tbl_task_cmds.c ****             CFE_TBL_TaskData.SuccessValCtr++;
 398               	.loc 1 251 0
 399 0398 1039 0000 	move.b CFE_TBL_TaskData+2,%d0
 399      0000 
 400 039e 5280      	addq.l #1,%d0
 401 03a0 1000      	move.b %d0,%d0
 402 03a2 13C0 0000 	move.b %d0,CFE_TBL_TaskData+2
 402      0000 
 403 03a8 6010      	jra .L24
 404               	.L23:
 252:/home/simulink/cFS_FreeRTOS_seL4/cfe/fsw/cfe-core/src/tbl/cfe_tbl_task_cmds.c ****         }
 253:/home/simulink/cFS_FreeRTOS_seL4/cfe/fsw/cfe-core/src/tbl/cfe_tbl_task_cmds.c ****         else
 254:/home/simulink/cFS_FreeRTOS_seL4/cfe/fsw/cfe-core/src/tbl/cfe_tbl_task_cmds.c ****         {
68K GAS   			page 14


 255:/home/simulink/cFS_FreeRTOS_seL4/cfe/fsw/cfe-core/src/tbl/cfe_tbl_task_cmds.c ****             CFE_TBL_TaskData.FailedValCtr++;
 405               	.loc 1 255 0
 406 03aa 1039 0000 	move.b CFE_TBL_TaskData+3,%d0
 406      0000 
 407 03b0 5280      	addq.l #1,%d0
 408 03b2 1000      	move.b %d0,%d0
 409 03b4 13C0 0000 	move.b %d0,CFE_TBL_TaskData+3
 409      0000 
 410               	.L24:
 256:/home/simulink/cFS_FreeRTOS_seL4/cfe/fsw/cfe-core/src/tbl/cfe_tbl_task_cmds.c ****         }
 257:/home/simulink/cFS_FreeRTOS_seL4/cfe/fsw/cfe-core/src/tbl/cfe_tbl_task_cmds.c **** 
 258:/home/simulink/cFS_FreeRTOS_seL4/cfe/fsw/cfe-core/src/tbl/cfe_tbl_task_cmds.c ****         CFE_SB_MessageStringSet(CFE_TBL_TaskData.HkPacket.Payload.LastValTableName, ValPtr->TableNa
 411               	.loc 1 258 0
 412 03ba 202F 0004 	move.l 4(%sp),%d0
 413 03be 0680 0000 	add.l #13,%d0
 413      000D 
 414 03c4 4878 0028 	pea 40.w
 415               	.cfi_def_cfa_offset 24
 416 03c8 4878 0028 	pea 40.w
 417               	.cfi_def_cfa_offset 28
 418 03cc 2F00      	move.l %d0,-(%sp)
 419               	.cfi_def_cfa_offset 32
 420 03ce 4879 0000 	pea CFE_TBL_TaskData+37
 420      0000 
 421               	.cfi_def_cfa_offset 36
 422 03d4 4EB9 0000 	jsr CFE_SB_MessageStringSet
 422      0000 
 423 03da 4FEF 0010 	lea (16,%sp),%sp
 424               	.cfi_def_cfa_offset 20
 259:/home/simulink/cFS_FreeRTOS_seL4/cfe/fsw/cfe-core/src/tbl/cfe_tbl_task_cmds.c ****                   sizeof(CFE_TBL_TaskData.HkPacket.Payload.LastValTableName), sizeof(ValPtr->TableN
 260:/home/simulink/cFS_FreeRTOS_seL4/cfe/fsw/cfe-core/src/tbl/cfe_tbl_task_cmds.c ****         CFE_TBL_TaskData.ValidationCtr++;
 425               	.loc 1 260 0
 426 03de 3039 0000 	move.w CFE_TBL_TaskData+526,%d0
 426      0000 
 427 03e4 5280      	addq.l #1,%d0
 428 03e6 3000      	move.w %d0,%d0
 429 03e8 33C0 0000 	move.w %d0,CFE_TBL_TaskData+526
 429      0000 
 261:/home/simulink/cFS_FreeRTOS_seL4/cfe/fsw/cfe-core/src/tbl/cfe_tbl_task_cmds.c **** 
 262:/home/simulink/cFS_FreeRTOS_seL4/cfe/fsw/cfe-core/src/tbl/cfe_tbl_task_cmds.c ****         /* Free the Validation Response Block for next time */
 263:/home/simulink/cFS_FreeRTOS_seL4/cfe/fsw/cfe-core/src/tbl/cfe_tbl_task_cmds.c ****         ValPtr->Result = 0;
 430               	.loc 1 263 0
 431 03ee 206F 0004 	move.l 4(%sp),%a0
 432 03f2 42A8 0004 	clr.l 4(%a0)
 264:/home/simulink/cFS_FreeRTOS_seL4/cfe/fsw/cfe-core/src/tbl/cfe_tbl_task_cmds.c ****         ValPtr->CrcOfTable = 0;
 433               	.loc 1 264 0
 434 03f6 206F 0004 	move.l 4(%sp),%a0
 435 03fa 42A8 0008 	clr.l 8(%a0)
 265:/home/simulink/cFS_FreeRTOS_seL4/cfe/fsw/cfe-core/src/tbl/cfe_tbl_task_cmds.c ****         ValPtr->TableName[0] = '\0';
 436               	.loc 1 265 0
 437 03fe 206F 0004 	move.l 4(%sp),%a0
 438 0402 4201      	clr.b %d1
 439 0404 1141 000D 	move.b %d1,13(%a0)
 266:/home/simulink/cFS_FreeRTOS_seL4/cfe/fsw/cfe-core/src/tbl/cfe_tbl_task_cmds.c ****         ValPtr->ActiveBuffer = FALSE;
 440               	.loc 1 266 0
 441 0408 206F 0004 	move.l 4(%sp),%a0
 442 040c 4202      	clr.b %d2
68K GAS   			page 15


 443 040e 1142 000C 	move.b %d2,12(%a0)
 267:/home/simulink/cFS_FreeRTOS_seL4/cfe/fsw/cfe-core/src/tbl/cfe_tbl_task_cmds.c ****         ValPtr->State = CFE_TBL_VALIDATION_FREE;
 444               	.loc 1 267 0
 445 0412 206F 0004 	move.l 4(%sp),%a0
 446 0416 4290      	clr.l (%a0)
 447               	.L22:
 268:/home/simulink/cFS_FreeRTOS_seL4/cfe/fsw/cfe-core/src/tbl/cfe_tbl_task_cmds.c ****     }
 269:/home/simulink/cFS_FreeRTOS_seL4/cfe/fsw/cfe-core/src/tbl/cfe_tbl_task_cmds.c **** 
 270:/home/simulink/cFS_FreeRTOS_seL4/cfe/fsw/cfe-core/src/tbl/cfe_tbl_task_cmds.c ****     CFE_TBL_TaskData.HkPacket.Payload.ValidationCtr  = CFE_TBL_TaskData.ValidationCtr;
 448               	.loc 1 270 0
 449 0418 3039 0000 	move.w CFE_TBL_TaskData+526,%d0
 449      0000 
 450 041e 33C0 0000 	move.w %d0,CFE_TBL_TaskData+26
 450      0000 
 271:/home/simulink/cFS_FreeRTOS_seL4/cfe/fsw/cfe-core/src/tbl/cfe_tbl_task_cmds.c ****     CFE_TBL_TaskData.HkPacket.Payload.SuccessValCtr  = CFE_TBL_TaskData.SuccessValCtr;
 451               	.loc 1 271 0
 452 0424 1039 0000 	move.b CFE_TBL_TaskData+2,%d0
 452      0000 
 453 042a 13C0 0000 	move.b %d0,CFE_TBL_TaskData+77
 453      0000 
 272:/home/simulink/cFS_FreeRTOS_seL4/cfe/fsw/cfe-core/src/tbl/cfe_tbl_task_cmds.c ****     CFE_TBL_TaskData.HkPacket.Payload.FailedValCtr   = CFE_TBL_TaskData.FailedValCtr;
 454               	.loc 1 272 0
 455 0430 1039 0000 	move.b CFE_TBL_TaskData+3,%d0
 455      0000 
 456 0436 13C0 0000 	move.b %d0,CFE_TBL_TaskData+78
 456      0000 
 273:/home/simulink/cFS_FreeRTOS_seL4/cfe/fsw/cfe-core/src/tbl/cfe_tbl_task_cmds.c ****     CFE_TBL_TaskData.HkPacket.Payload.NumValRequests = CFE_TBL_TaskData.NumValRequests;
 457               	.loc 1 273 0
 458 043c 1039 0000 	move.b CFE_TBL_TaskData+4,%d0
 458      0000 
 459 0442 13C0 0000 	move.b %d0,CFE_TBL_TaskData+79
 459      0000 
 274:/home/simulink/cFS_FreeRTOS_seL4/cfe/fsw/cfe-core/src/tbl/cfe_tbl_task_cmds.c ****     
 275:/home/simulink/cFS_FreeRTOS_seL4/cfe/fsw/cfe-core/src/tbl/cfe_tbl_task_cmds.c ****     /* Validate the index of the last table updated before using it */
 276:/home/simulink/cFS_FreeRTOS_seL4/cfe/fsw/cfe-core/src/tbl/cfe_tbl_task_cmds.c ****     if ((CFE_TBL_TaskData.LastTblUpdated >= 0) && 
 460               	.loc 1 276 0
 461 0448 3039 0000 	move.w CFE_TBL_TaskData+6,%d0
 461      0000 
 462 044e 4A40      	tst.w %d0
 463 0450 6D00 009A 	jlt .L26
 277:/home/simulink/cFS_FreeRTOS_seL4/cfe/fsw/cfe-core/src/tbl/cfe_tbl_task_cmds.c ****         (CFE_TBL_TaskData.LastTblUpdated < CFE_TBL_MAX_NUM_TABLES))
 464               	.loc 1 277 0 discriminator 1
 465 0454 3039 0000 	move.w CFE_TBL_TaskData+6,%d0
 465      0000 
 276:/home/simulink/cFS_FreeRTOS_seL4/cfe/fsw/cfe-core/src/tbl/cfe_tbl_task_cmds.c ****         (CFE_TBL_TaskData.LastTblUpdated < CFE_TBL_MAX_NUM_TABLES))
 466               	.loc 1 276 0 discriminator 1
 467 045a 3040      	move.w %d0,%a0
 468 045c 707F      	moveq #127,%d0
 469 045e B088      	cmp.l %a0,%d0
 470 0460 6D00 008A 	jlt .L26
 278:/home/simulink/cFS_FreeRTOS_seL4/cfe/fsw/cfe-core/src/tbl/cfe_tbl_task_cmds.c ****     {
 279:/home/simulink/cFS_FreeRTOS_seL4/cfe/fsw/cfe-core/src/tbl/cfe_tbl_task_cmds.c ****         /* Check to make sure the Registry Entry is still valid */
 280:/home/simulink/cFS_FreeRTOS_seL4/cfe/fsw/cfe-core/src/tbl/cfe_tbl_task_cmds.c ****         if (CFE_TBL_TaskData.Registry[CFE_TBL_TaskData.LastTblUpdated].OwnerAppId != CFE_TBL_NOT_OW
 471               	.loc 1 280 0
 472 0464 3039 0000 	move.w CFE_TBL_TaskData+6,%d0
 472      0000 
 473 046a 48C0      	ext.l %d0
68K GAS   			page 16


 474 046c 223C 0000 	move.l #336,%d1
 474      0150 
 475 0472 4C01 0800 	muls.l %d1,%d0
 476 0476 41F9 0000 	lea CFE_TBL_TaskData+4972,%a0
 476      0000 
 477 047c 2030 0800 	move.l (%a0,%d0.l),%d0
 478 0480 74FF      	moveq #-1,%d2
 479 0482 B480      	cmp.l %d0,%d2
 480 0484 6766      	jeq .L26
 281:/home/simulink/cFS_FreeRTOS_seL4/cfe/fsw/cfe-core/src/tbl/cfe_tbl_task_cmds.c ****         {
 282:/home/simulink/cFS_FreeRTOS_seL4/cfe/fsw/cfe-core/src/tbl/cfe_tbl_task_cmds.c ****             /* Get the time at the last table update */
 283:/home/simulink/cFS_FreeRTOS_seL4/cfe/fsw/cfe-core/src/tbl/cfe_tbl_task_cmds.c ****             CFE_TBL_TaskData.HkPacket.Payload.LastUpdateTime =
 284:/home/simulink/cFS_FreeRTOS_seL4/cfe/fsw/cfe-core/src/tbl/cfe_tbl_task_cmds.c ****               CFE_TBL_TaskData.Registry[CFE_TBL_TaskData.LastTblUpdated].TimeOfLastUpdate;
 481               	.loc 1 284 0
 482 0486 3039 0000 	move.w CFE_TBL_TaskData+6,%d0
 482      0000 
 483 048c 48C0      	ext.l %d0
 283:/home/simulink/cFS_FreeRTOS_seL4/cfe/fsw/cfe-core/src/tbl/cfe_tbl_task_cmds.c ****               CFE_TBL_TaskData.Registry[CFE_TBL_TaskData.LastTblUpdated].TimeOfLastUpdate;
 484               	.loc 1 283 0
 485 048e 223C 0000 	move.l #336,%d1
 485      0150 
 486 0494 4C01 0800 	muls.l %d1,%d0
 487 0498 41F9 0000 	lea CFE_TBL_TaskData+5160,%a0
 487      0000 
 488 049e 2230 0800 	move.l (%a0,%d0.l),%d1
 489 04a2 2430 0804 	move.l 4(%a0,%d0.l),%d2
 490 04a6 23C1 0000 	move.l %d1,CFE_TBL_TaskData+88
 490      0000 
 491 04ac 23C2 0000 	move.l %d2,CFE_TBL_TaskData+92
 491      0000 
 285:/home/simulink/cFS_FreeRTOS_seL4/cfe/fsw/cfe-core/src/tbl/cfe_tbl_task_cmds.c **** 
 286:/home/simulink/cFS_FreeRTOS_seL4/cfe/fsw/cfe-core/src/tbl/cfe_tbl_task_cmds.c ****             /* Get the table name used for the last table update */
 287:/home/simulink/cFS_FreeRTOS_seL4/cfe/fsw/cfe-core/src/tbl/cfe_tbl_task_cmds.c ****             CFE_SB_MessageStringSet(CFE_TBL_TaskData.HkPacket.Payload.LastUpdatedTbl,
 288:/home/simulink/cFS_FreeRTOS_seL4/cfe/fsw/cfe-core/src/tbl/cfe_tbl_task_cmds.c ****                     CFE_TBL_TaskData.Registry[CFE_TBL_TaskData.LastTblUpdated].Name,
 492               	.loc 1 288 0
 493 04b2 3039 0000 	move.w CFE_TBL_TaskData+6,%d0
 493      0000 
 494 04b8 48C0      	ext.l %d0
 495 04ba 243C 0000 	move.l #336,%d2
 495      0150 
 496 04c0 4C02 0800 	muls.l %d2,%d0
 497 04c4 0680 0000 	add.l #5200,%d0
 497      1450 
 498 04ca 0680 0000 	add.l #CFE_TBL_TaskData,%d0
 498      0000 
 499 04d0 5480      	addq.l #2,%d0
 287:/home/simulink/cFS_FreeRTOS_seL4/cfe/fsw/cfe-core/src/tbl/cfe_tbl_task_cmds.c ****                     CFE_TBL_TaskData.Registry[CFE_TBL_TaskData.LastTblUpdated].Name,
 500               	.loc 1 287 0
 501 04d2 4878 0028 	pea 40.w
 502               	.cfi_def_cfa_offset 24
 503 04d6 4878 0028 	pea 40.w
 504               	.cfi_def_cfa_offset 28
 505 04da 2F00      	move.l %d0,-(%sp)
 506               	.cfi_def_cfa_offset 32
 507 04dc 4879 0000 	pea CFE_TBL_TaskData+96
 507      0000 
 508               	.cfi_def_cfa_offset 36
68K GAS   			page 17


 509 04e2 4EB9 0000 	jsr CFE_SB_MessageStringSet
 509      0000 
 510 04e8 4FEF 0010 	lea (16,%sp),%sp
 511               	.cfi_def_cfa_offset 20
 512               	.L26:
 289:/home/simulink/cFS_FreeRTOS_seL4/cfe/fsw/cfe-core/src/tbl/cfe_tbl_task_cmds.c ****                     sizeof(CFE_TBL_TaskData.HkPacket.Payload.LastUpdatedTbl),
 290:/home/simulink/cFS_FreeRTOS_seL4/cfe/fsw/cfe-core/src/tbl/cfe_tbl_task_cmds.c ****                     sizeof(CFE_TBL_TaskData.Registry[CFE_TBL_TaskData.LastTblUpdated].Name));
 291:/home/simulink/cFS_FreeRTOS_seL4/cfe/fsw/cfe-core/src/tbl/cfe_tbl_task_cmds.c ****         }      
 292:/home/simulink/cFS_FreeRTOS_seL4/cfe/fsw/cfe-core/src/tbl/cfe_tbl_task_cmds.c ****     }
 293:/home/simulink/cFS_FreeRTOS_seL4/cfe/fsw/cfe-core/src/tbl/cfe_tbl_task_cmds.c **** }
 513               	.loc 1 293 0
 514 04ec 4E71      	nop
 515 04ee 241F      	move.l (%sp)+,%d2
 516 04f0 4FEF 000C 	lea (12,%sp),%sp
 517 04f4 4E75      	rts
 518               	.cfi_endproc
 519               	.LFE60:
 520               	.sizeCFE_TBL_GetHkData, .-CFE_TBL_GetHkData
 521               	.align2
 522               	.globlCFE_TBL_GetTblRegData
 523               	.typeCFE_TBL_GetTblRegData, @function
 524               	CFE_TBL_GetTblRegData:
 525               	.LFB61:
 294:/home/simulink/cFS_FreeRTOS_seL4/cfe/fsw/cfe-core/src/tbl/cfe_tbl_task_cmds.c **** 
 295:/home/simulink/cFS_FreeRTOS_seL4/cfe/fsw/cfe-core/src/tbl/cfe_tbl_task_cmds.c **** /*******************************************************************
 296:/home/simulink/cFS_FreeRTOS_seL4/cfe/fsw/cfe-core/src/tbl/cfe_tbl_task_cmds.c **** **
 297:/home/simulink/cFS_FreeRTOS_seL4/cfe/fsw/cfe-core/src/tbl/cfe_tbl_task_cmds.c **** ** CFE_TBL_GetTblRegData() -- Convert Table Registry Entry for a Table into a Message
 298:/home/simulink/cFS_FreeRTOS_seL4/cfe/fsw/cfe-core/src/tbl/cfe_tbl_task_cmds.c **** **
 299:/home/simulink/cFS_FreeRTOS_seL4/cfe/fsw/cfe-core/src/tbl/cfe_tbl_task_cmds.c **** ** NOTE: For complete prolog information, see prototype above
 300:/home/simulink/cFS_FreeRTOS_seL4/cfe/fsw/cfe-core/src/tbl/cfe_tbl_task_cmds.c **** ********************************************************************/
 301:/home/simulink/cFS_FreeRTOS_seL4/cfe/fsw/cfe-core/src/tbl/cfe_tbl_task_cmds.c **** 
 302:/home/simulink/cFS_FreeRTOS_seL4/cfe/fsw/cfe-core/src/tbl/cfe_tbl_task_cmds.c **** void CFE_TBL_GetTblRegData(void)
 303:/home/simulink/cFS_FreeRTOS_seL4/cfe/fsw/cfe-core/src/tbl/cfe_tbl_task_cmds.c **** {
 526               	.loc 1 303 0
 527               	.cfi_startproc
 528 04f6 598F      	subq.l #4,%sp
 529               	.cfi_def_cfa_offset 8
 530 04f8 2F02      	move.l %d2,-(%sp)
 531               	.cfi_def_cfa_offset 12
 532               	.cfi_offset 2, -12
 304:/home/simulink/cFS_FreeRTOS_seL4/cfe/fsw/cfe-core/src/tbl/cfe_tbl_task_cmds.c ****     CFE_TBL_RegistryRec_t      *RegRecPtr;
 305:/home/simulink/cFS_FreeRTOS_seL4/cfe/fsw/cfe-core/src/tbl/cfe_tbl_task_cmds.c **** 
 306:/home/simulink/cFS_FreeRTOS_seL4/cfe/fsw/cfe-core/src/tbl/cfe_tbl_task_cmds.c ****     RegRecPtr = &CFE_TBL_TaskData.Registry[CFE_TBL_TaskData.HkTlmTblRegIndex];
 533               	.loc 1 306 0
 534 04fa 3039 0000 	move.w CFE_TBL_TaskData+524,%d0
 534      0000 
 535 0500 48C0      	ext.l %d0
 536 0502 223C 0000 	move.l #336,%d1
 536      0150 
 537 0508 4C01 0800 	muls.l %d1,%d0
 538 050c 0680 0000 	add.l #4972,%d0
 538      136C 
 539 0512 2400      	move.l %d0,%d2
 540 0514 0682 0000 	add.l #CFE_TBL_TaskData,%d2
 540      0000 
 541 051a 2F42 0004 	move.l %d2,4(%sp)
 307:/home/simulink/cFS_FreeRTOS_seL4/cfe/fsw/cfe-core/src/tbl/cfe_tbl_task_cmds.c **** 
68K GAS   			page 18


 308:/home/simulink/cFS_FreeRTOS_seL4/cfe/fsw/cfe-core/src/tbl/cfe_tbl_task_cmds.c ****     CFE_TBL_TaskData.TblRegPacket.Payload.Size = RegRecPtr->Size;
 542               	.loc 1 308 0
 543 051e 206F 0004 	move.l 4(%sp),%a0
 544 0522 2028 0004 	move.l 4(%a0),%d0
 545 0526 23C0 0000 	move.l %d0,CFE_TBL_TaskData+316
 545      0000 
 309:/home/simulink/cFS_FreeRTOS_seL4/cfe/fsw/cfe-core/src/tbl/cfe_tbl_task_cmds.c ****     CFE_SB_SET_MEMADDR(CFE_TBL_TaskData.TblRegPacket.Payload.ActiveBufferAddr,
 546               	.loc 1 309 0
 547 052c 206F 0004 	move.l 4(%sp),%a0
 548 0530 1028 00E5 	move.b 229(%a0),%d0
 549 0534 1000      	move.b %d0,%d0
 550 0536 0280 0000 	and.l #255,%d0
 550      00FF 
 551 053c 222F 0004 	move.l 4(%sp),%d1
 552 0540 7454      	moveq #84,%d2
 553 0542 4C02 0800 	muls.l %d2,%d0
 554 0546 D081      	add.l %d1,%d0
 555 0548 2040      	move.l %d0,%a0
 556 054a 41E8 0010 	lea (16,%a0),%a0
 557 054e 2010      	move.l (%a0),%d0
 558 0550 23C0 0000 	move.l %d0,CFE_TBL_TaskData+324
 558      0000 
 310:/home/simulink/cFS_FreeRTOS_seL4/cfe/fsw/cfe-core/src/tbl/cfe_tbl_task_cmds.c ****           RegRecPtr->Buffers[RegRecPtr->ActiveBufferIndex].BufferPtr);
 311:/home/simulink/cFS_FreeRTOS_seL4/cfe/fsw/cfe-core/src/tbl/cfe_tbl_task_cmds.c **** 
 312:/home/simulink/cFS_FreeRTOS_seL4/cfe/fsw/cfe-core/src/tbl/cfe_tbl_task_cmds.c ****     if (RegRecPtr->DblBuffered)
 559               	.loc 1 312 0
 560 0556 206F 0004 	move.l 4(%sp),%a0
 561 055a 1028 00E2 	move.b 226(%a0),%d0
 562 055e 4A00      	tst.b %d0
 563 0560 6732      	jeq .L28
 313:/home/simulink/cFS_FreeRTOS_seL4/cfe/fsw/cfe-core/src/tbl/cfe_tbl_task_cmds.c ****     {
 314:/home/simulink/cFS_FreeRTOS_seL4/cfe/fsw/cfe-core/src/tbl/cfe_tbl_task_cmds.c ****         /* For a double buffered table, the inactive is the other allocated buffer */
 315:/home/simulink/cFS_FreeRTOS_seL4/cfe/fsw/cfe-core/src/tbl/cfe_tbl_task_cmds.c ****        CFE_SB_SET_MEMADDR(CFE_TBL_TaskData.TblRegPacket.Payload.InactiveBufferAddr,
 564               	.loc 1 315 0
 565 0562 206F 0004 	move.l 4(%sp),%a0
 566 0566 1028 00E5 	move.b 229(%a0),%d0
 567 056a 1000      	move.b %d0,%d0
 568 056c 0280 0000 	and.l #255,%d0
 568      00FF 
 569 0572 7201      	moveq #1,%d1
 570 0574 9280      	sub.l %d0,%d1
 571 0576 2001      	move.l %d1,%d0
 572 0578 222F 0004 	move.l 4(%sp),%d1
 573 057c 7454      	moveq #84,%d2
 574 057e 4C02 0800 	muls.l %d2,%d0
 575 0582 D081      	add.l %d1,%d0
 576 0584 2040      	move.l %d0,%a0
 577 0586 41E8 0010 	lea (16,%a0),%a0
 578 058a 2010      	move.l (%a0),%d0
 579 058c 23C0 0000 	move.l %d0,CFE_TBL_TaskData+328
 579      0000 
 580 0592 6034      	jra .L29
 581               	.L28:
 316:/home/simulink/cFS_FreeRTOS_seL4/cfe/fsw/cfe-core/src/tbl/cfe_tbl_task_cmds.c ****             RegRecPtr->Buffers[(1U-RegRecPtr->ActiveBufferIndex)].BufferPtr);
 317:/home/simulink/cFS_FreeRTOS_seL4/cfe/fsw/cfe-core/src/tbl/cfe_tbl_task_cmds.c ****     }
 318:/home/simulink/cFS_FreeRTOS_seL4/cfe/fsw/cfe-core/src/tbl/cfe_tbl_task_cmds.c ****     else
 319:/home/simulink/cFS_FreeRTOS_seL4/cfe/fsw/cfe-core/src/tbl/cfe_tbl_task_cmds.c ****     {
68K GAS   			page 19


 320:/home/simulink/cFS_FreeRTOS_seL4/cfe/fsw/cfe-core/src/tbl/cfe_tbl_task_cmds.c ****         /* Check to see if an inactive buffer has currently been allocated to the single buffered t
 321:/home/simulink/cFS_FreeRTOS_seL4/cfe/fsw/cfe-core/src/tbl/cfe_tbl_task_cmds.c ****         if (RegRecPtr->LoadInProgress != CFE_TBL_NO_LOAD_IN_PROGRESS)
 582               	.loc 1 321 0
 583 0594 206F 0004 	move.l 4(%sp),%a0
 584 0598 2028 00C8 	move.l 200(%a0),%d0
 585 059c 72FF      	moveq #-1,%d1
 586 059e B280      	cmp.l %d0,%d1
 587 05a0 6720      	jeq .L30
 322:/home/simulink/cFS_FreeRTOS_seL4/cfe/fsw/cfe-core/src/tbl/cfe_tbl_task_cmds.c ****         {
 323:/home/simulink/cFS_FreeRTOS_seL4/cfe/fsw/cfe-core/src/tbl/cfe_tbl_task_cmds.c ****            CFE_SB_SET_MEMADDR(CFE_TBL_TaskData.TblRegPacket.Payload.InactiveBufferAddr,
 588               	.loc 1 323 0
 589 05a2 206F 0004 	move.l 4(%sp),%a0
 590 05a6 2028 00C8 	move.l 200(%a0),%d0
 591 05aa 7454      	moveq #84,%d2
 592 05ac 4C02 0800 	muls.l %d2,%d0
 593 05b0 41F9 0000 	lea CFE_TBL_TaskData+540,%a0
 593      0000 
 594 05b6 2030 0800 	move.l (%a0,%d0.l),%d0
 595 05ba 23C0 0000 	move.l %d0,CFE_TBL_TaskData+328
 595      0000 
 596 05c0 6006      	jra .L29
 597               	.L30:
 324:/home/simulink/cFS_FreeRTOS_seL4/cfe/fsw/cfe-core/src/tbl/cfe_tbl_task_cmds.c ****                 CFE_TBL_TaskData.LoadBuffs[RegRecPtr->LoadInProgress].BufferPtr);
 325:/home/simulink/cFS_FreeRTOS_seL4/cfe/fsw/cfe-core/src/tbl/cfe_tbl_task_cmds.c ****         }
 326:/home/simulink/cFS_FreeRTOS_seL4/cfe/fsw/cfe-core/src/tbl/cfe_tbl_task_cmds.c ****         else
 327:/home/simulink/cFS_FreeRTOS_seL4/cfe/fsw/cfe-core/src/tbl/cfe_tbl_task_cmds.c ****         {
 328:/home/simulink/cFS_FreeRTOS_seL4/cfe/fsw/cfe-core/src/tbl/cfe_tbl_task_cmds.c ****            CFE_TBL_TaskData.TblRegPacket.Payload.InactiveBufferAddr = 0;
 598               	.loc 1 328 0
 599 05c2 42B9 0000 	clr.l CFE_TBL_TaskData+328
 599      0000 
 600               	.L29:
 329:/home/simulink/cFS_FreeRTOS_seL4/cfe/fsw/cfe-core/src/tbl/cfe_tbl_task_cmds.c ****         }
 330:/home/simulink/cFS_FreeRTOS_seL4/cfe/fsw/cfe-core/src/tbl/cfe_tbl_task_cmds.c ****     }
 331:/home/simulink/cFS_FreeRTOS_seL4/cfe/fsw/cfe-core/src/tbl/cfe_tbl_task_cmds.c **** 
 332:/home/simulink/cFS_FreeRTOS_seL4/cfe/fsw/cfe-core/src/tbl/cfe_tbl_task_cmds.c ****     CFE_SB_SET_MEMADDR(CFE_TBL_TaskData.TblRegPacket.Payload.ValidationFuncPtr, RegRecPtr->Validati
 601               	.loc 1 332 0
 602 05c8 206F 0004 	move.l 4(%sp),%a0
 603 05cc 2028 00B8 	move.l 184(%a0),%d0
 604 05d0 23C0 0000 	move.l %d0,CFE_TBL_TaskData+332
 604      0000 
 333:/home/simulink/cFS_FreeRTOS_seL4/cfe/fsw/cfe-core/src/tbl/cfe_tbl_task_cmds.c ****     CFE_TBL_TaskData.TblRegPacket.Payload.TimeOfLastUpdate = RegRecPtr->TimeOfLastUpdate;
 605               	.loc 1 333 0
 606 05d6 206F 0004 	move.l 4(%sp),%a0
 607 05da 2028 00BC 	move.l 188(%a0),%d0
 608 05de 2228 00C0 	move.l 192(%a0),%d1
 609 05e2 23C0 0000 	move.l %d0,CFE_TBL_TaskData+336
 609      0000 
 610 05e8 23C1 0000 	move.l %d1,CFE_TBL_TaskData+340
 610      0000 
 334:/home/simulink/cFS_FreeRTOS_seL4/cfe/fsw/cfe-core/src/tbl/cfe_tbl_task_cmds.c ****     CFE_TBL_TaskData.TblRegPacket.Payload.TableLoadedOnce = RegRecPtr->TableLoadedOnce;
 611               	.loc 1 334 0
 612 05ee 206F 0004 	move.l 4(%sp),%a0
 613 05f2 1028 00DF 	move.b 223(%a0),%d0
 614 05f6 13C0 0000 	move.b %d0,CFE_TBL_TaskData+352
 614      0000 
 335:/home/simulink/cFS_FreeRTOS_seL4/cfe/fsw/cfe-core/src/tbl/cfe_tbl_task_cmds.c ****     CFE_TBL_TaskData.TblRegPacket.Payload.LoadPending = RegRecPtr->LoadPending;
 615               	.loc 1 335 0
68K GAS   			page 20


 616 05fc 206F 0004 	move.l 4(%sp),%a0
 617 0600 1028 00E0 	move.b 224(%a0),%d0
 618 0604 13C0 0000 	move.b %d0,CFE_TBL_TaskData+353
 618      0000 
 336:/home/simulink/cFS_FreeRTOS_seL4/cfe/fsw/cfe-core/src/tbl/cfe_tbl_task_cmds.c ****     CFE_TBL_TaskData.TblRegPacket.Payload.DumpOnly = RegRecPtr->DumpOnly;
 619               	.loc 1 336 0
 620 060a 206F 0004 	move.l 4(%sp),%a0
 621 060e 1028 00E1 	move.b 225(%a0),%d0
 622 0612 13C0 0000 	move.b %d0,CFE_TBL_TaskData+354
 622      0000 
 337:/home/simulink/cFS_FreeRTOS_seL4/cfe/fsw/cfe-core/src/tbl/cfe_tbl_task_cmds.c ****     CFE_TBL_TaskData.TblRegPacket.Payload.DblBuffered = RegRecPtr->DblBuffered;
 623               	.loc 1 337 0
 624 0618 206F 0004 	move.l 4(%sp),%a0
 625 061c 1028 00E2 	move.b 226(%a0),%d0
 626 0620 13C0 0000 	move.b %d0,CFE_TBL_TaskData+355
 626      0000 
 338:/home/simulink/cFS_FreeRTOS_seL4/cfe/fsw/cfe-core/src/tbl/cfe_tbl_task_cmds.c ****     CFE_TBL_TaskData.TblRegPacket.Payload.FileCreateTimeSecs = RegRecPtr->Buffers[RegRecPtr->Active
 627               	.loc 1 338 0
 628 0626 206F 0004 	move.l 4(%sp),%a0
 629 062a 1028 00E5 	move.b 229(%a0),%d0
 630 062e 1000      	move.b %d0,%d0
 631 0630 0280 0000 	and.l #255,%d0
 631      00FF 
 632 0636 222F 0004 	move.l 4(%sp),%d1
 633 063a 7454      	moveq #84,%d2
 634 063c 4C02 0800 	muls.l %d2,%d0
 635 0640 D081      	add.l %d1,%d0
 636 0642 2040      	move.l %d0,%a0
 637 0644 41E8 0014 	lea (20,%a0),%a0
 638 0648 2010      	move.l (%a0),%d0
 639 064a 23C0 0000 	move.l %d0,CFE_TBL_TaskData+344
 639      0000 
 339:/home/simulink/cFS_FreeRTOS_seL4/cfe/fsw/cfe-core/src/tbl/cfe_tbl_task_cmds.c ****     CFE_TBL_TaskData.TblRegPacket.Payload.FileCreateTimeSubSecs = RegRecPtr->Buffers[RegRecPtr->Act
 640               	.loc 1 339 0
 641 0650 206F 0004 	move.l 4(%sp),%a0
 642 0654 1028 00E5 	move.b 229(%a0),%d0
 643 0658 1000      	move.b %d0,%d0
 644 065a 0280 0000 	and.l #255,%d0
 644      00FF 
 645 0660 222F 0004 	move.l 4(%sp),%d1
 646 0664 7454      	moveq #84,%d2
 647 0666 4C02 0800 	muls.l %d2,%d0
 648 066a D081      	add.l %d1,%d0
 649 066c 2040      	move.l %d0,%a0
 650 066e 41E8 0018 	lea (24,%a0),%a0
 651 0672 2010      	move.l (%a0),%d0
 652 0674 23C0 0000 	move.l %d0,CFE_TBL_TaskData+348
 652      0000 
 340:/home/simulink/cFS_FreeRTOS_seL4/cfe/fsw/cfe-core/src/tbl/cfe_tbl_task_cmds.c ****     CFE_TBL_TaskData.TblRegPacket.Payload.Crc = RegRecPtr->Buffers[RegRecPtr->ActiveBufferIndex].Cr
 653               	.loc 1 340 0
 654 067a 206F 0004 	move.l 4(%sp),%a0
 655 067e 1028 00E5 	move.b 229(%a0),%d0
 656 0682 1000      	move.b %d0,%d0
 657 0684 0280 0000 	and.l #255,%d0
 657      00FF 
 658 068a 222F 0004 	move.l 4(%sp),%d1
 659 068e 7454      	moveq #84,%d2
68K GAS   			page 21


 660 0690 4C02 0800 	muls.l %d2,%d0
 661 0694 D081      	add.l %d1,%d0
 662 0696 2040      	move.l %d0,%a0
 663 0698 41E8 001C 	lea (28,%a0),%a0
 664 069c 2010      	move.l (%a0),%d0
 665 069e 23C0 0000 	move.l %d0,CFE_TBL_TaskData+320
 665      0000 
 341:/home/simulink/cFS_FreeRTOS_seL4/cfe/fsw/cfe-core/src/tbl/cfe_tbl_task_cmds.c ****     CFE_TBL_TaskData.TblRegPacket.Payload.Critical = RegRecPtr->CriticalTable;
 666               	.loc 1 341 0
 667 06a4 206F 0004 	move.l 4(%sp),%a0
 668 06a8 1028 00DE 	move.b 222(%a0),%d0
 669 06ac 13C0 0000 	move.b %d0,CFE_TBL_TaskData+480
 669      0000 
 342:/home/simulink/cFS_FreeRTOS_seL4/cfe/fsw/cfe-core/src/tbl/cfe_tbl_task_cmds.c **** 
 343:/home/simulink/cFS_FreeRTOS_seL4/cfe/fsw/cfe-core/src/tbl/cfe_tbl_task_cmds.c ****     CFE_SB_MessageStringSet(CFE_TBL_TaskData.TblRegPacket.Payload.Name, RegRecPtr->Name,
 670               	.loc 1 343 0
 671 06b2 202F 0004 	move.l 4(%sp),%d0
 672 06b6 0680 0000 	add.l #230,%d0
 672      00E6 
 673 06bc 4878 0028 	pea 40.w
 674               	.cfi_def_cfa_offset 16
 675 06c0 4878 0028 	pea 40.w
 676               	.cfi_def_cfa_offset 20
 677 06c4 2F00      	move.l %d0,-(%sp)
 678               	.cfi_def_cfa_offset 24
 679 06c6 4879 0000 	pea CFE_TBL_TaskData+356
 679      0000 
 680               	.cfi_def_cfa_offset 28
 681 06cc 4EB9 0000 	jsr CFE_SB_MessageStringSet
 681      0000 
 682 06d2 4FEF 0010 	lea (16,%sp),%sp
 683               	.cfi_def_cfa_offset 12
 344:/home/simulink/cFS_FreeRTOS_seL4/cfe/fsw/cfe-core/src/tbl/cfe_tbl_task_cmds.c ****             sizeof(CFE_TBL_TaskData.TblRegPacket.Payload.Name), sizeof(RegRecPtr->Name));
 345:/home/simulink/cFS_FreeRTOS_seL4/cfe/fsw/cfe-core/src/tbl/cfe_tbl_task_cmds.c ****     CFE_SB_MessageStringSet(CFE_TBL_TaskData.TblRegPacket.Payload.LastFileLoaded, RegRecPtr->LastFi
 684               	.loc 1 345 0
 685 06d6 202F 0004 	move.l 4(%sp),%d0
 686 06da 0680 0000 	add.l #270,%d0
 686      010E 
 687 06e0 4878 0040 	pea 64.w
 688               	.cfi_def_cfa_offset 16
 689 06e4 4878 0040 	pea 64.w
 690               	.cfi_def_cfa_offset 20
 691 06e8 2F00      	move.l %d0,-(%sp)
 692               	.cfi_def_cfa_offset 24
 693 06ea 4879 0000 	pea CFE_TBL_TaskData+396
 693      0000 
 694               	.cfi_def_cfa_offset 28
 695 06f0 4EB9 0000 	jsr CFE_SB_MessageStringSet
 695      0000 
 696 06f6 4FEF 0010 	lea (16,%sp),%sp
 697               	.cfi_def_cfa_offset 12
 346:/home/simulink/cFS_FreeRTOS_seL4/cfe/fsw/cfe-core/src/tbl/cfe_tbl_task_cmds.c ****             sizeof(CFE_TBL_TaskData.TblRegPacket.Payload.LastFileLoaded), sizeof(RegRecPtr->LastFil
 347:/home/simulink/cFS_FreeRTOS_seL4/cfe/fsw/cfe-core/src/tbl/cfe_tbl_task_cmds.c ****     CFE_ES_GetAppName(CFE_TBL_TaskData.TblRegPacket.Payload.OwnerAppName, RegRecPtr->OwnerAppId,
 698               	.loc 1 347 0
 699 06fa 206F 0004 	move.l 4(%sp),%a0
 700 06fe 2010      	move.l (%a0),%d0
 701 0700 4878 0014 	pea 20.w
68K GAS   			page 22


 702               	.cfi_def_cfa_offset 16
 703 0704 2F00      	move.l %d0,-(%sp)
 704               	.cfi_def_cfa_offset 20
 705 0706 4879 0000 	pea CFE_TBL_TaskData+460
 705      0000 
 706               	.cfi_def_cfa_offset 24
 707 070c 4EB9 0000 	jsr CFE_ES_GetAppName
 707      0000 
 708 0712 4FEF 000C 	lea (12,%sp),%sp
 709               	.cfi_def_cfa_offset 12
 348:/home/simulink/cFS_FreeRTOS_seL4/cfe/fsw/cfe-core/src/tbl/cfe_tbl_task_cmds.c ****             sizeof(CFE_TBL_TaskData.TblRegPacket.Payload.OwnerAppName));
 349:/home/simulink/cFS_FreeRTOS_seL4/cfe/fsw/cfe-core/src/tbl/cfe_tbl_task_cmds.c **** }
 710               	.loc 1 349 0
 711 0716 4E71      	nop
 712 0718 241F      	move.l (%sp)+,%d2
 713 071a 588F      	addq.l #4,%sp
 714 071c 4E75      	rts
 715               	.cfi_endproc
 716               	.LFE61:
 717               	.sizeCFE_TBL_GetTblRegData, .-CFE_TBL_GetTblRegData
 718               	.section.rodata
 719               	.LC3:
 720 00a6 4E6F 2D6F 	.string"No-op command. cFE Version %d.%d.%d.%d"
 720      7020 636F 
 720      6D6D 616E 
 720      642E 2063 
 720      4645 2056 
 721               	.text
 722               	.align2
 723               	.globlCFE_TBL_NoopCmd
 724               	.typeCFE_TBL_NoopCmd, @function
 725               	CFE_TBL_NoopCmd:
 726               	.LFB62:
 350:/home/simulink/cFS_FreeRTOS_seL4/cfe/fsw/cfe-core/src/tbl/cfe_tbl_task_cmds.c **** 
 351:/home/simulink/cFS_FreeRTOS_seL4/cfe/fsw/cfe-core/src/tbl/cfe_tbl_task_cmds.c **** 
 352:/home/simulink/cFS_FreeRTOS_seL4/cfe/fsw/cfe-core/src/tbl/cfe_tbl_task_cmds.c **** /*******************************************************************
 353:/home/simulink/cFS_FreeRTOS_seL4/cfe/fsw/cfe-core/src/tbl/cfe_tbl_task_cmds.c **** **
 354:/home/simulink/cFS_FreeRTOS_seL4/cfe/fsw/cfe-core/src/tbl/cfe_tbl_task_cmds.c **** ** CFE_TBL_NoopCmd() -- Process NO-Op Command Message
 355:/home/simulink/cFS_FreeRTOS_seL4/cfe/fsw/cfe-core/src/tbl/cfe_tbl_task_cmds.c **** **
 356:/home/simulink/cFS_FreeRTOS_seL4/cfe/fsw/cfe-core/src/tbl/cfe_tbl_task_cmds.c **** ** NOTE: For complete prolog information, see 'cfe_tbl_task_cmds.h'
 357:/home/simulink/cFS_FreeRTOS_seL4/cfe/fsw/cfe-core/src/tbl/cfe_tbl_task_cmds.c **** ********************************************************************/
 358:/home/simulink/cFS_FreeRTOS_seL4/cfe/fsw/cfe-core/src/tbl/cfe_tbl_task_cmds.c **** 
 359:/home/simulink/cFS_FreeRTOS_seL4/cfe/fsw/cfe-core/src/tbl/cfe_tbl_task_cmds.c **** CFE_TBL_CmdProcRet_t CFE_TBL_NoopCmd( const CFE_SB_MsgPayloadPtr_t  Payload )
 360:/home/simulink/cFS_FreeRTOS_seL4/cfe/fsw/cfe-core/src/tbl/cfe_tbl_task_cmds.c **** {
 727               	.loc 1 360 0
 728               	.cfi_startproc
 361:/home/simulink/cFS_FreeRTOS_seL4/cfe/fsw/cfe-core/src/tbl/cfe_tbl_task_cmds.c ****     /* Acknowledge receipt of NOOP with Event Message */
 362:/home/simulink/cFS_FreeRTOS_seL4/cfe/fsw/cfe-core/src/tbl/cfe_tbl_task_cmds.c ****     CFE_EVS_SendEvent(CFE_TBL_NOOP_INF_EID, CFE_EVS_INFORMATION, "No-op command. cFE Version %d.%d.
 729               	.loc 1 362 0
 730 071e 42A7      	clr.l -(%sp)
 731               	.cfi_def_cfa_offset 8
 732 0720 42A7      	clr.l -(%sp)
 733               	.cfi_def_cfa_offset 12
 734 0722 4878 0005 	pea 5.w
 735               	.cfi_def_cfa_offset 16
 736 0726 4878 0006 	pea 6.w
 737               	.cfi_def_cfa_offset 20
68K GAS   			page 23


 738 072a 4879 0000 	pea .LC3
 738      0000 
 739               	.cfi_def_cfa_offset 24
 740 0730 4878 0002 	pea 2.w
 741               	.cfi_def_cfa_offset 28
 742 0734 4878 000A 	pea 10.w
 743               	.cfi_def_cfa_offset 32
 744 0738 4EB9 0000 	jsr CFE_EVS_SendEvent
 744      0000 
 745 073e 4FEF 001C 	lea (28,%sp),%sp
 746               	.cfi_def_cfa_offset 4
 363:/home/simulink/cFS_FreeRTOS_seL4/cfe/fsw/cfe-core/src/tbl/cfe_tbl_task_cmds.c ****                       CFE_MAJOR_VERSION,CFE_MINOR_VERSION,CFE_REVISION,CFE_MISSION_REV);
 364:/home/simulink/cFS_FreeRTOS_seL4/cfe/fsw/cfe-core/src/tbl/cfe_tbl_task_cmds.c **** 
 365:/home/simulink/cFS_FreeRTOS_seL4/cfe/fsw/cfe-core/src/tbl/cfe_tbl_task_cmds.c ****     return CFE_TBL_INC_CMD_CTR;
 747               	.loc 1 365 0
 748 0742 7001      	moveq #1,%d0
 366:/home/simulink/cFS_FreeRTOS_seL4/cfe/fsw/cfe-core/src/tbl/cfe_tbl_task_cmds.c **** 
 367:/home/simulink/cFS_FreeRTOS_seL4/cfe/fsw/cfe-core/src/tbl/cfe_tbl_task_cmds.c **** } /* End of CFE_TBL_NoopCmd() */
 749               	.loc 1 367 0
 750 0744 4E75      	rts
 751               	.cfi_endproc
 752               	.LFE62:
 753               	.sizeCFE_TBL_NoopCmd, .-CFE_TBL_NoopCmd
 754               	.section.rodata
 755               	.LC4:
 756 00cd 5265 7365 	.string"Reset Counters command"
 756      7420 436F 
 756      756E 7465 
 756      7273 2063 
 756      6F6D 6D61 
 757               	.text
 758               	.align2
 759               	.globlCFE_TBL_ResetCmd
 760               	.typeCFE_TBL_ResetCmd, @function
 761               	CFE_TBL_ResetCmd:
 762               	.LFB63:
 368:/home/simulink/cFS_FreeRTOS_seL4/cfe/fsw/cfe-core/src/tbl/cfe_tbl_task_cmds.c **** 
 369:/home/simulink/cFS_FreeRTOS_seL4/cfe/fsw/cfe-core/src/tbl/cfe_tbl_task_cmds.c **** 
 370:/home/simulink/cFS_FreeRTOS_seL4/cfe/fsw/cfe-core/src/tbl/cfe_tbl_task_cmds.c **** /*******************************************************************
 371:/home/simulink/cFS_FreeRTOS_seL4/cfe/fsw/cfe-core/src/tbl/cfe_tbl_task_cmds.c **** **
 372:/home/simulink/cFS_FreeRTOS_seL4/cfe/fsw/cfe-core/src/tbl/cfe_tbl_task_cmds.c **** ** CFE_TBL_ResetCmd() -- Process Reset Counters Command Message
 373:/home/simulink/cFS_FreeRTOS_seL4/cfe/fsw/cfe-core/src/tbl/cfe_tbl_task_cmds.c **** **
 374:/home/simulink/cFS_FreeRTOS_seL4/cfe/fsw/cfe-core/src/tbl/cfe_tbl_task_cmds.c **** ** NOTE: For complete prolog information, see 'cfe_tbl_task_cmds.h'
 375:/home/simulink/cFS_FreeRTOS_seL4/cfe/fsw/cfe-core/src/tbl/cfe_tbl_task_cmds.c **** ********************************************************************/
 376:/home/simulink/cFS_FreeRTOS_seL4/cfe/fsw/cfe-core/src/tbl/cfe_tbl_task_cmds.c **** 
 377:/home/simulink/cFS_FreeRTOS_seL4/cfe/fsw/cfe-core/src/tbl/cfe_tbl_task_cmds.c **** CFE_TBL_CmdProcRet_t CFE_TBL_ResetCmd( const CFE_SB_MsgPayloadPtr_t  Payload )
 378:/home/simulink/cFS_FreeRTOS_seL4/cfe/fsw/cfe-core/src/tbl/cfe_tbl_task_cmds.c **** {
 763               	.loc 1 378 0
 764               	.cfi_startproc
 379:/home/simulink/cFS_FreeRTOS_seL4/cfe/fsw/cfe-core/src/tbl/cfe_tbl_task_cmds.c ****     CFE_TBL_TaskData.CmdCounter = 0;
 765               	.loc 1 379 0
 766 0746 4200      	clr.b %d0
 767 0748 13C0 0000 	move.b %d0,CFE_TBL_TaskData
 767      0000 
 380:/home/simulink/cFS_FreeRTOS_seL4/cfe/fsw/cfe-core/src/tbl/cfe_tbl_task_cmds.c ****     CFE_TBL_TaskData.ErrCounter = 0;
 768               	.loc 1 380 0
 769 074e 4200      	clr.b %d0
68K GAS   			page 24


 770 0750 13C0 0000 	move.b %d0,CFE_TBL_TaskData+1
 770      0000 
 381:/home/simulink/cFS_FreeRTOS_seL4/cfe/fsw/cfe-core/src/tbl/cfe_tbl_task_cmds.c ****     CFE_TBL_TaskData.SuccessValCtr = 0;
 771               	.loc 1 381 0
 772 0756 4200      	clr.b %d0
 773 0758 13C0 0000 	move.b %d0,CFE_TBL_TaskData+2
 773      0000 
 382:/home/simulink/cFS_FreeRTOS_seL4/cfe/fsw/cfe-core/src/tbl/cfe_tbl_task_cmds.c ****     CFE_TBL_TaskData.FailedValCtr = 0;
 774               	.loc 1 382 0
 775 075e 4200      	clr.b %d0
 776 0760 13C0 0000 	move.b %d0,CFE_TBL_TaskData+3
 776      0000 
 383:/home/simulink/cFS_FreeRTOS_seL4/cfe/fsw/cfe-core/src/tbl/cfe_tbl_task_cmds.c ****     CFE_TBL_TaskData.NumValRequests = 0;
 777               	.loc 1 383 0
 778 0766 4200      	clr.b %d0
 779 0768 13C0 0000 	move.b %d0,CFE_TBL_TaskData+4
 779      0000 
 384:/home/simulink/cFS_FreeRTOS_seL4/cfe/fsw/cfe-core/src/tbl/cfe_tbl_task_cmds.c ****     CFE_TBL_TaskData.ValidationCtr = 0;
 780               	.loc 1 384 0
 781 076e 4240      	clr.w %d0
 782 0770 33C0 0000 	move.w %d0,CFE_TBL_TaskData+526
 782      0000 
 385:/home/simulink/cFS_FreeRTOS_seL4/cfe/fsw/cfe-core/src/tbl/cfe_tbl_task_cmds.c **** 
 386:/home/simulink/cFS_FreeRTOS_seL4/cfe/fsw/cfe-core/src/tbl/cfe_tbl_task_cmds.c ****     CFE_EVS_SendEvent(CFE_TBL_RESET_INF_EID,
 783               	.loc 1 386 0
 784 0776 4879 0000 	pea .LC4
 784      0000 
 785               	.cfi_def_cfa_offset 8
 786 077c 4878 0001 	pea 1.w
 787               	.cfi_def_cfa_offset 12
 788 0780 4878 000B 	pea 11.w
 789               	.cfi_def_cfa_offset 16
 790 0784 4EB9 0000 	jsr CFE_EVS_SendEvent
 790      0000 
 791 078a 4FEF 000C 	lea (12,%sp),%sp
 792               	.cfi_def_cfa_offset 4
 387:/home/simulink/cFS_FreeRTOS_seL4/cfe/fsw/cfe-core/src/tbl/cfe_tbl_task_cmds.c ****                       CFE_EVS_DEBUG,
 388:/home/simulink/cFS_FreeRTOS_seL4/cfe/fsw/cfe-core/src/tbl/cfe_tbl_task_cmds.c ****                       "Reset Counters command");
 389:/home/simulink/cFS_FreeRTOS_seL4/cfe/fsw/cfe-core/src/tbl/cfe_tbl_task_cmds.c **** 
 390:/home/simulink/cFS_FreeRTOS_seL4/cfe/fsw/cfe-core/src/tbl/cfe_tbl_task_cmds.c ****     return CFE_TBL_DONT_INC_CTR;
 793               	.loc 1 390 0
 794 078e 4280      	clr.l %d0
 391:/home/simulink/cFS_FreeRTOS_seL4/cfe/fsw/cfe-core/src/tbl/cfe_tbl_task_cmds.c **** 
 392:/home/simulink/cFS_FreeRTOS_seL4/cfe/fsw/cfe-core/src/tbl/cfe_tbl_task_cmds.c **** } /* End of CFE_TBL_ResetCmd() */
 795               	.loc 1 392 0
 796 0790 4E75      	rts
 797               	.cfi_endproc
 798               	.LFE63:
 799               	.sizeCFE_TBL_ResetCmd, .-CFE_TBL_ResetCmd
 800               	.section.rodata
 801               	.LC5:
 802 00e4 556E 6162 	.string"Unable to locate '%s' in Table Registry"
 802      6C65 2074 
 802      6F20 6C6F 
 802      6361 7465 
 802      2027 2573 
 803               	.LC6:
68K GAS   			page 25


 804 010c 4174 7465 	.string"Attempted to load DUMP-ONLY table '%s' from '%s'"
 804      6D70 7465 
 804      6420 746F 
 804      206C 6F61 
 804      6420 4455 
 805               	.LC7:
 806 013d 4174 7465 	.string"Attempted to load table '%s' while previous load is still pending"
 806      6D70 7465 
 806      6420 746F 
 806      206C 6F61 
 806      6420 7461 
 807               	.LC8:
 808 017f 4669 6C65 	.string"File '%s' has more data than Tbl Hdr indicates (%d)"
 808      2027 2573 
 808      2720 6861 
 808      7320 6D6F 
 808      7265 2064 
 809               	.LC9:
 810 01b3 5375 6363 	.string"Successful load of '%s' into '%s' working buffer"
 810      6573 7366 
 810      756C 206C 
 810      6F61 6420 
 810      6F66 2027 
 811               	.LC10:
 812 01e4 496E 636F 	.string"Incomplete load of '%s' into '%s' working buffer"
 812      6D70 6C65 
 812      7465 206C 
 812      6F61 6420 
 812      6F66 2027 
 813               	.LC11:
 814 0215 4E6F 2077 	.string"No working buffers available for table '%s'"
 814      6F72 6B69 
 814      6E67 2062 
 814      7566 6665 
 814      7273 2061 
 815               	.LC12:
 816 0241 496E 7465 	.string"Internal Error (Status=0x%08X)"
 816      726E 616C 
 816      2045 7272 
 816      6F72 2028 
 816      5374 6174 
 817               	.LC13:
 818 0260 4361 6E6E 	.string"Cannot load '%s' (%d) at offset %d in '%s' (%d)"
 818      6F74 206C 
 818      6F61 6420 
 818      2725 7327 
 818      2028 2564 
 819               	.LC14:
 820 0290 5461 626C 	.string"Table Hdr in '%s' indicates no data in file"
 820      6520 4864 
 820      7220 696E 
 820      2027 2573 
 820      2720 696E 
 821               	.LC15:
 822 02bc 2725 7327 	.string"'%s' has partial load for uninitialized table '%s'"
 822      2068 6173 
 822      2070 6172 
68K GAS   			page 26


 822      7469 616C 
 822      206C 6F61 
 823               	.LC16:
 824 02ef 556E 6162 	.string"Unable to open file '%s' for table load, Status = 0x%08X"
 824      6C65 2074 
 824      6F20 6F70 
 824      656E 2066 
 824      696C 6520 
 825               	.text
 826               	.align2
 827               	.globlCFE_TBL_LoadCmd
 828               	.typeCFE_TBL_LoadCmd, @function
 829               	CFE_TBL_LoadCmd:
 830               	.LFB64:
 393:/home/simulink/cFS_FreeRTOS_seL4/cfe/fsw/cfe-core/src/tbl/cfe_tbl_task_cmds.c **** 
 394:/home/simulink/cFS_FreeRTOS_seL4/cfe/fsw/cfe-core/src/tbl/cfe_tbl_task_cmds.c **** 
 395:/home/simulink/cFS_FreeRTOS_seL4/cfe/fsw/cfe-core/src/tbl/cfe_tbl_task_cmds.c **** /*******************************************************************
 396:/home/simulink/cFS_FreeRTOS_seL4/cfe/fsw/cfe-core/src/tbl/cfe_tbl_task_cmds.c **** **
 397:/home/simulink/cFS_FreeRTOS_seL4/cfe/fsw/cfe-core/src/tbl/cfe_tbl_task_cmds.c **** ** CFE_TBL_LoadCmd() -- Process Load Table File to Buffer Command Message
 398:/home/simulink/cFS_FreeRTOS_seL4/cfe/fsw/cfe-core/src/tbl/cfe_tbl_task_cmds.c **** **
 399:/home/simulink/cFS_FreeRTOS_seL4/cfe/fsw/cfe-core/src/tbl/cfe_tbl_task_cmds.c **** ** NOTE: For complete prolog information, see 'cfe_tbl_task_cmds.h'
 400:/home/simulink/cFS_FreeRTOS_seL4/cfe/fsw/cfe-core/src/tbl/cfe_tbl_task_cmds.c **** ********************************************************************/
 401:/home/simulink/cFS_FreeRTOS_seL4/cfe/fsw/cfe-core/src/tbl/cfe_tbl_task_cmds.c **** 
 402:/home/simulink/cFS_FreeRTOS_seL4/cfe/fsw/cfe-core/src/tbl/cfe_tbl_task_cmds.c **** CFE_TBL_CmdProcRet_t CFE_TBL_LoadCmd( const CFE_SB_MsgPayloadPtr_t  Payload )
 403:/home/simulink/cFS_FreeRTOS_seL4/cfe/fsw/cfe-core/src/tbl/cfe_tbl_task_cmds.c **** {
 831               	.loc 1 403 0
 832               	.cfi_startproc
 833 0792 4FEF FF30 	lea (-208,%sp),%sp
 834               	.cfi_def_cfa_offset 212
 835 0796 2F0A      	move.l %a2,-(%sp)
 836               	.cfi_def_cfa_offset 216
 837               	.cfi_offset 10, -216
 404:/home/simulink/cFS_FreeRTOS_seL4/cfe/fsw/cfe-core/src/tbl/cfe_tbl_task_cmds.c ****     CFE_TBL_CmdProcRet_t        ReturnCode = CFE_TBL_INC_ERR_CTR;        /* Assume failure */
 838               	.loc 1 404 0
 839 0798 70FF      	moveq #-1,%d0
 840 079a 2F40 00D0 	move.l %d0,208(%sp)
 405:/home/simulink/cFS_FreeRTOS_seL4/cfe/fsw/cfe-core/src/tbl/cfe_tbl_task_cmds.c ****     const CFE_TBL_LoadCmd_Payload_t    *CmdPtr = (const CFE_TBL_LoadCmd_Payload_t *) Payload;
 841               	.loc 1 405 0
 842 079e 2F6F 00D8 	move.l 216(%sp),204(%sp)
 842      00CC 
 406:/home/simulink/cFS_FreeRTOS_seL4/cfe/fsw/cfe-core/src/tbl/cfe_tbl_task_cmds.c ****     CFE_FS_Header_t             StdFileHeader;
 407:/home/simulink/cFS_FreeRTOS_seL4/cfe/fsw/cfe-core/src/tbl/cfe_tbl_task_cmds.c ****     CFE_TBL_File_Hdr_t          TblFileHeader;
 408:/home/simulink/cFS_FreeRTOS_seL4/cfe/fsw/cfe-core/src/tbl/cfe_tbl_task_cmds.c ****     int32                       FileDescriptor;
 409:/home/simulink/cFS_FreeRTOS_seL4/cfe/fsw/cfe-core/src/tbl/cfe_tbl_task_cmds.c ****     int32                       Status;
 410:/home/simulink/cFS_FreeRTOS_seL4/cfe/fsw/cfe-core/src/tbl/cfe_tbl_task_cmds.c ****     CFE_TBL_RegistryRec_t      *RegRecPtr;
 411:/home/simulink/cFS_FreeRTOS_seL4/cfe/fsw/cfe-core/src/tbl/cfe_tbl_task_cmds.c ****     CFE_TBL_LoadBuff_t         *WorkingBufferPtr;
 412:/home/simulink/cFS_FreeRTOS_seL4/cfe/fsw/cfe-core/src/tbl/cfe_tbl_task_cmds.c ****     char                        LoadFilename[OS_MAX_PATH_LEN];
 413:/home/simulink/cFS_FreeRTOS_seL4/cfe/fsw/cfe-core/src/tbl/cfe_tbl_task_cmds.c ****     uint8                       ExtraByte;
 414:/home/simulink/cFS_FreeRTOS_seL4/cfe/fsw/cfe-core/src/tbl/cfe_tbl_task_cmds.c **** 
 415:/home/simulink/cFS_FreeRTOS_seL4/cfe/fsw/cfe-core/src/tbl/cfe_tbl_task_cmds.c ****     /* Make sure all strings are null terminated before attempting to process them */
 416:/home/simulink/cFS_FreeRTOS_seL4/cfe/fsw/cfe-core/src/tbl/cfe_tbl_task_cmds.c ****     CFE_SB_MessageStringGet(LoadFilename, (char *)CmdPtr->LoadFilename, NULL,
 843               	.loc 1 416 0
 844 07a4 202F 00CC 	move.l 204(%sp),%d0
 845 07a8 4878 0040 	pea 64.w
 846               	.cfi_def_cfa_offset 220
 847 07ac 4878 0040 	pea 64.w
 848               	.cfi_def_cfa_offset 224
68K GAS   			page 27


 849 07b0 42A7      	clr.l -(%sp)
 850               	.cfi_def_cfa_offset 228
 851 07b2 2F00      	move.l %d0,-(%sp)
 852               	.cfi_def_cfa_offset 232
 853 07b4 200F      	move.l %sp,%d0
 854 07b6 0680 0000 	add.l #24,%d0
 854      0018 
 855 07bc 2F00      	move.l %d0,-(%sp)
 856               	.cfi_def_cfa_offset 236
 857 07be 4EB9 0000 	jsr CFE_SB_MessageStringGet
 857      0000 
 858 07c4 4FEF 0014 	lea (20,%sp),%sp
 859               	.cfi_def_cfa_offset 216
 417:/home/simulink/cFS_FreeRTOS_seL4/cfe/fsw/cfe-core/src/tbl/cfe_tbl_task_cmds.c ****             OS_MAX_PATH_LEN, sizeof(CmdPtr->LoadFilename));
 418:/home/simulink/cFS_FreeRTOS_seL4/cfe/fsw/cfe-core/src/tbl/cfe_tbl_task_cmds.c **** 
 419:/home/simulink/cFS_FreeRTOS_seL4/cfe/fsw/cfe-core/src/tbl/cfe_tbl_task_cmds.c ****     /* Try to open the specified table file */
 420:/home/simulink/cFS_FreeRTOS_seL4/cfe/fsw/cfe-core/src/tbl/cfe_tbl_task_cmds.c ****     FileDescriptor = OS_open(LoadFilename, OS_READ_ONLY, 0);
 860               	.loc 1 420 0
 861 07c8 42A7      	clr.l -(%sp)
 862               	.cfi_def_cfa_offset 220
 863 07ca 42A7      	clr.l -(%sp)
 864               	.cfi_def_cfa_offset 224
 865 07cc 200F      	move.l %sp,%d0
 866 07ce 0680 0000 	add.l #16,%d0
 866      0010 
 867 07d4 2F00      	move.l %d0,-(%sp)
 868               	.cfi_def_cfa_offset 228
 869 07d6 4EB9 0000 	jsr OS_open
 869      0000 
 870 07dc 4FEF 000C 	lea (12,%sp),%sp
 871               	.cfi_def_cfa_offset 216
 872 07e0 2F40 00C8 	move.l %d0,200(%sp)
 421:/home/simulink/cFS_FreeRTOS_seL4/cfe/fsw/cfe-core/src/tbl/cfe_tbl_task_cmds.c **** 
 422:/home/simulink/cFS_FreeRTOS_seL4/cfe/fsw/cfe-core/src/tbl/cfe_tbl_task_cmds.c ****     if (FileDescriptor >= 0)
 873               	.loc 1 422 0
 874 07e4 4AAF 00C8 	tst.l 200(%sp)
 875 07e8 6D00 0458 	jlt .L36
 423:/home/simulink/cFS_FreeRTOS_seL4/cfe/fsw/cfe-core/src/tbl/cfe_tbl_task_cmds.c ****     {
 424:/home/simulink/cFS_FreeRTOS_seL4/cfe/fsw/cfe-core/src/tbl/cfe_tbl_task_cmds.c ****         Status = CFE_TBL_ReadHeaders(FileDescriptor, &StdFileHeader, &TblFileHeader, &LoadFilename[
 876               	.loc 1 424 0
 877 07ec 200F      	move.l %sp,%d0
 878 07ee 5080      	addq.l #8,%d0
 879 07f0 2F00      	move.l %d0,-(%sp)
 880               	.cfi_def_cfa_offset 220
 881 07f2 200F      	move.l %sp,%d0
 882 07f4 0680 0000 	add.l #80,%d0
 882      0050 
 883 07fa 2F00      	move.l %d0,-(%sp)
 884               	.cfi_def_cfa_offset 224
 885 07fc 200F      	move.l %sp,%d0
 886 07fe 0680 0000 	add.l #136,%d0
 886      0088 
 887 0804 2F00      	move.l %d0,-(%sp)
 888               	.cfi_def_cfa_offset 228
 889 0806 2F2F 00D4 	move.l 212(%sp),-(%sp)
 890               	.cfi_def_cfa_offset 232
 891 080a 4EB9 0000 	jsr CFE_TBL_ReadHeaders
68K GAS   			page 28


 891      0000 
 892 0810 4FEF 0010 	lea (16,%sp),%sp
 893               	.cfi_def_cfa_offset 216
 894 0814 2F40 00C4 	move.l %d0,196(%sp)
 425:/home/simulink/cFS_FreeRTOS_seL4/cfe/fsw/cfe-core/src/tbl/cfe_tbl_task_cmds.c **** 
 426:/home/simulink/cFS_FreeRTOS_seL4/cfe/fsw/cfe-core/src/tbl/cfe_tbl_task_cmds.c ****         if (Status == CFE_SUCCESS)
 895               	.loc 1 426 0
 896 0818 4AAF 00C4 	tst.l 196(%sp)
 897 081c 6600 0416 	jne .L37
 427:/home/simulink/cFS_FreeRTOS_seL4/cfe/fsw/cfe-core/src/tbl/cfe_tbl_task_cmds.c ****         {
 428:/home/simulink/cFS_FreeRTOS_seL4/cfe/fsw/cfe-core/src/tbl/cfe_tbl_task_cmds.c ****             /* Locate specified table in registry */
 429:/home/simulink/cFS_FreeRTOS_seL4/cfe/fsw/cfe-core/src/tbl/cfe_tbl_task_cmds.c ****             Status = CFE_TBL_FindTableInRegistry(TblFileHeader.TableName);
 898               	.loc 1 429 0
 899 0820 200F      	move.l %sp,%d0
 900 0822 0680 0000 	add.l #76,%d0
 900      004C 
 901 0828 0680 0000 	add.l #12,%d0
 901      000C 
 902 082e 2F00      	move.l %d0,-(%sp)
 903               	.cfi_def_cfa_offset 220
 904 0830 4EB9 0000 	jsr CFE_TBL_FindTableInRegistry
 904      0000 
 905 0836 588F      	addq.l #4,%sp
 906               	.cfi_def_cfa_offset 216
 907 0838 3040      	move.w %d0,%a0
 908 083a 2F48 00C4 	move.l %a0,196(%sp)
 430:/home/simulink/cFS_FreeRTOS_seL4/cfe/fsw/cfe-core/src/tbl/cfe_tbl_task_cmds.c **** 
 431:/home/simulink/cFS_FreeRTOS_seL4/cfe/fsw/cfe-core/src/tbl/cfe_tbl_task_cmds.c ****             if (Status == CFE_TBL_NOT_FOUND)
 909               	.loc 1 431 0
 910 083e 70FF      	moveq #-1,%d0
 911 0840 B0AF 00C4 	cmp.l 196(%sp),%d0
 912 0844 662C      	jne .L38
 432:/home/simulink/cFS_FreeRTOS_seL4/cfe/fsw/cfe-core/src/tbl/cfe_tbl_task_cmds.c ****             {
 433:/home/simulink/cFS_FreeRTOS_seL4/cfe/fsw/cfe-core/src/tbl/cfe_tbl_task_cmds.c ****                 CFE_EVS_SendEvent(CFE_TBL_NO_SUCH_TABLE_ERR_EID,
 913               	.loc 1 433 0
 914 0846 200F      	move.l %sp,%d0
 915 0848 0680 0000 	add.l #76,%d0
 915      004C 
 916 084e 0680 0000 	add.l #12,%d0
 916      000C 
 917 0854 2F00      	move.l %d0,-(%sp)
 918               	.cfi_def_cfa_offset 220
 919 0856 4879 0000 	pea .LC5
 919      0000 
 920               	.cfi_def_cfa_offset 224
 921 085c 4878 0003 	pea 3.w
 922               	.cfi_def_cfa_offset 228
 923 0860 4878 0039 	pea 57.w
 924               	.cfi_def_cfa_offset 232
 925 0864 4EB9 0000 	jsr CFE_EVS_SendEvent
 925      0000 
 926 086a 4FEF 0010 	lea (16,%sp),%sp
 927               	.cfi_def_cfa_offset 216
 928 086e 6000 03C4 	jra .L37
 929               	.L38:
 434:/home/simulink/cFS_FreeRTOS_seL4/cfe/fsw/cfe-core/src/tbl/cfe_tbl_task_cmds.c ****                                   CFE_EVS_ERROR,
 435:/home/simulink/cFS_FreeRTOS_seL4/cfe/fsw/cfe-core/src/tbl/cfe_tbl_task_cmds.c ****                                   "Unable to locate '%s' in Table Registry",
68K GAS   			page 29


 436:/home/simulink/cFS_FreeRTOS_seL4/cfe/fsw/cfe-core/src/tbl/cfe_tbl_task_cmds.c ****                                   TblFileHeader.TableName);
 437:/home/simulink/cFS_FreeRTOS_seL4/cfe/fsw/cfe-core/src/tbl/cfe_tbl_task_cmds.c ****             }
 438:/home/simulink/cFS_FreeRTOS_seL4/cfe/fsw/cfe-core/src/tbl/cfe_tbl_task_cmds.c ****             else
 439:/home/simulink/cFS_FreeRTOS_seL4/cfe/fsw/cfe-core/src/tbl/cfe_tbl_task_cmds.c ****             {
 440:/home/simulink/cFS_FreeRTOS_seL4/cfe/fsw/cfe-core/src/tbl/cfe_tbl_task_cmds.c ****                 /* Translate the registry index into a record pointer */
 441:/home/simulink/cFS_FreeRTOS_seL4/cfe/fsw/cfe-core/src/tbl/cfe_tbl_task_cmds.c ****                 RegRecPtr = &CFE_TBL_TaskData.Registry[Status];
 930               	.loc 1 441 0
 931 0872 202F 00C4 	move.l 196(%sp),%d0
 932 0876 223C 0000 	move.l #336,%d1
 932      0150 
 933 087c 4C01 0800 	muls.l %d1,%d0
 934 0880 0680 0000 	add.l #4972,%d0
 934      136C 
 935 0886 2040      	move.l %d0,%a0
 936 0888 D1FC 0000 	add.l #CFE_TBL_TaskData,%a0
 936      0000 
 937 088e 2F48 00C0 	move.l %a0,192(%sp)
 442:/home/simulink/cFS_FreeRTOS_seL4/cfe/fsw/cfe-core/src/tbl/cfe_tbl_task_cmds.c **** 
 443:/home/simulink/cFS_FreeRTOS_seL4/cfe/fsw/cfe-core/src/tbl/cfe_tbl_task_cmds.c ****                 if (RegRecPtr->DumpOnly)
 938               	.loc 1 443 0
 939 0892 206F 00C0 	move.l 192(%sp),%a0
 940 0896 1028 00E1 	move.b 225(%a0),%d0
 941 089a 4A00      	tst.b %d0
 942 089c 6732      	jeq .L39
 444:/home/simulink/cFS_FreeRTOS_seL4/cfe/fsw/cfe-core/src/tbl/cfe_tbl_task_cmds.c ****                 {
 445:/home/simulink/cFS_FreeRTOS_seL4/cfe/fsw/cfe-core/src/tbl/cfe_tbl_task_cmds.c ****                     CFE_EVS_SendEvent(CFE_TBL_LOADING_A_DUMP_ONLY_ERR_EID,
 943               	.loc 1 445 0
 944 089e 200F      	move.l %sp,%d0
 945 08a0 5080      	addq.l #8,%d0
 946 08a2 2F00      	move.l %d0,-(%sp)
 947               	.cfi_def_cfa_offset 220
 948 08a4 200F      	move.l %sp,%d0
 949 08a6 0680 0000 	add.l #80,%d0
 949      0050 
 950 08ac 0680 0000 	add.l #12,%d0
 950      000C 
 951 08b2 2F00      	move.l %d0,-(%sp)
 952               	.cfi_def_cfa_offset 224
 953 08b4 4879 0000 	pea .LC6
 953      0000 
 954               	.cfi_def_cfa_offset 228
 955 08ba 4878 0003 	pea 3.w
 956               	.cfi_def_cfa_offset 232
 957 08be 4878 004F 	pea 79.w
 958               	.cfi_def_cfa_offset 236
 959 08c2 4EB9 0000 	jsr CFE_EVS_SendEvent
 959      0000 
 960 08c8 4FEF 0014 	lea (20,%sp),%sp
 961               	.cfi_def_cfa_offset 216
 962 08cc 6000 0366 	jra .L37
 963               	.L39:
 446:/home/simulink/cFS_FreeRTOS_seL4/cfe/fsw/cfe-core/src/tbl/cfe_tbl_task_cmds.c ****                                       CFE_EVS_ERROR,
 447:/home/simulink/cFS_FreeRTOS_seL4/cfe/fsw/cfe-core/src/tbl/cfe_tbl_task_cmds.c ****                                       "Attempted to load DUMP-ONLY table '%s' from '%s'",
 448:/home/simulink/cFS_FreeRTOS_seL4/cfe/fsw/cfe-core/src/tbl/cfe_tbl_task_cmds.c ****                                       TblFileHeader.TableName, LoadFilename);
 449:/home/simulink/cFS_FreeRTOS_seL4/cfe/fsw/cfe-core/src/tbl/cfe_tbl_task_cmds.c ****                 }
 450:/home/simulink/cFS_FreeRTOS_seL4/cfe/fsw/cfe-core/src/tbl/cfe_tbl_task_cmds.c ****                 else if (RegRecPtr->LoadPending)
 964               	.loc 1 450 0
68K GAS   			page 30


 965 08d0 206F 00C0 	move.l 192(%sp),%a0
 966 08d4 1028 00E0 	move.b 224(%a0),%d0
 967 08d8 4A00      	tst.b %d0
 968 08da 672C      	jeq .L40
 451:/home/simulink/cFS_FreeRTOS_seL4/cfe/fsw/cfe-core/src/tbl/cfe_tbl_task_cmds.c ****                 {
 452:/home/simulink/cFS_FreeRTOS_seL4/cfe/fsw/cfe-core/src/tbl/cfe_tbl_task_cmds.c ****                     CFE_EVS_SendEvent(CFE_TBL_LOADING_PENDING_ERR_EID,
 969               	.loc 1 452 0
 970 08dc 200F      	move.l %sp,%d0
 971 08de 0680 0000 	add.l #76,%d0
 971      004C 
 972 08e4 0680 0000 	add.l #12,%d0
 972      000C 
 973 08ea 2F00      	move.l %d0,-(%sp)
 974               	.cfi_def_cfa_offset 220
 975 08ec 4879 0000 	pea .LC7
 975      0000 
 976               	.cfi_def_cfa_offset 224
 977 08f2 4878 0003 	pea 3.w
 978               	.cfi_def_cfa_offset 228
 979 08f6 4878 0058 	pea 88.w
 980               	.cfi_def_cfa_offset 232
 981 08fa 4EB9 0000 	jsr CFE_EVS_SendEvent
 981      0000 
 982 0900 4FEF 0010 	lea (16,%sp),%sp
 983               	.cfi_def_cfa_offset 216
 984 0904 6000 032E 	jra .L37
 985               	.L40:
 453:/home/simulink/cFS_FreeRTOS_seL4/cfe/fsw/cfe-core/src/tbl/cfe_tbl_task_cmds.c ****                                       CFE_EVS_ERROR,
 454:/home/simulink/cFS_FreeRTOS_seL4/cfe/fsw/cfe-core/src/tbl/cfe_tbl_task_cmds.c ****                                       "Attempted to load table '%s' while previous load is still pe
 455:/home/simulink/cFS_FreeRTOS_seL4/cfe/fsw/cfe-core/src/tbl/cfe_tbl_task_cmds.c ****                                       TblFileHeader.TableName);
 456:/home/simulink/cFS_FreeRTOS_seL4/cfe/fsw/cfe-core/src/tbl/cfe_tbl_task_cmds.c ****                 }
 457:/home/simulink/cFS_FreeRTOS_seL4/cfe/fsw/cfe-core/src/tbl/cfe_tbl_task_cmds.c ****                 else
 458:/home/simulink/cFS_FreeRTOS_seL4/cfe/fsw/cfe-core/src/tbl/cfe_tbl_task_cmds.c ****                 {
 459:/home/simulink/cFS_FreeRTOS_seL4/cfe/fsw/cfe-core/src/tbl/cfe_tbl_task_cmds.c ****                     /* Make sure of the following:                                               */
 460:/home/simulink/cFS_FreeRTOS_seL4/cfe/fsw/cfe-core/src/tbl/cfe_tbl_task_cmds.c ****                     /*    1) If table has not been loaded previously, then make sure the current */
 461:/home/simulink/cFS_FreeRTOS_seL4/cfe/fsw/cfe-core/src/tbl/cfe_tbl_task_cmds.c ****                     /*       load starts with the first byte                                     */
 462:/home/simulink/cFS_FreeRTOS_seL4/cfe/fsw/cfe-core/src/tbl/cfe_tbl_task_cmds.c ****                     /*    2) The number of bytes to load is greater than zero                    */
 463:/home/simulink/cFS_FreeRTOS_seL4/cfe/fsw/cfe-core/src/tbl/cfe_tbl_task_cmds.c ****                     /*    3) The offset plus the number of bytes does not exceed the table size  */
 464:/home/simulink/cFS_FreeRTOS_seL4/cfe/fsw/cfe-core/src/tbl/cfe_tbl_task_cmds.c ****                     if (((RegRecPtr->TableLoadedOnce) || (TblFileHeader.Offset == 0)) &&
 986               	.loc 1 464 0
 987 0908 206F 00C0 	move.l 192(%sp),%a0
 988 090c 1028 00DF 	move.b 223(%a0),%d0
 989 0910 4A00      	tst.b %d0
 990 0912 660A      	jne .L41
 991               	.loc 1 464 0 is_stmt 0 discriminator 2
 992 0914 202F 0050 	move.l 80(%sp),%d0
 993 0918 4A80      	tst.l %d0
 994 091a 6600 025C 	jne .L42
 995               	.L41:
 465:/home/simulink/cFS_FreeRTOS_seL4/cfe/fsw/cfe-core/src/tbl/cfe_tbl_task_cmds.c ****                         (TblFileHeader.NumBytes > 0) &&
 996               	.loc 1 465 0 is_stmt 1 discriminator 3
 997 091e 202F 0054 	move.l 84(%sp),%d0
 464:/home/simulink/cFS_FreeRTOS_seL4/cfe/fsw/cfe-core/src/tbl/cfe_tbl_task_cmds.c ****                         (TblFileHeader.NumBytes > 0) &&
 998               	.loc 1 464 0 discriminator 3
 999 0922 4A80      	tst.l %d0
 1000 0924 6700 0252 	jeq .L42
 466:/home/simulink/cFS_FreeRTOS_seL4/cfe/fsw/cfe-core/src/tbl/cfe_tbl_task_cmds.c ****                         ((TblFileHeader.NumBytes + TblFileHeader.Offset) <= RegRecPtr->Size))
68K GAS   			page 31


 1001               	.loc 1 466 0
 1002 0928 222F 0054 	move.l 84(%sp),%d1
 1003 092c 202F 0050 	move.l 80(%sp),%d0
 1004 0930 D280      	add.l %d0,%d1
 1005 0932 206F 00C0 	move.l 192(%sp),%a0
 1006 0936 2028 0004 	move.l 4(%a0),%d0
 465:/home/simulink/cFS_FreeRTOS_seL4/cfe/fsw/cfe-core/src/tbl/cfe_tbl_task_cmds.c ****                         (TblFileHeader.NumBytes > 0) &&
 1007               	.loc 1 465 0
 1008 093a B081      	cmp.l %d1,%d0
 1009 093c 6500 023A 	jcs .L42
 467:/home/simulink/cFS_FreeRTOS_seL4/cfe/fsw/cfe-core/src/tbl/cfe_tbl_task_cmds.c ****                     {
 468:/home/simulink/cFS_FreeRTOS_seL4/cfe/fsw/cfe-core/src/tbl/cfe_tbl_task_cmds.c ****                         /* Get a working buffer, either a free one or one allocated with previous l
 469:/home/simulink/cFS_FreeRTOS_seL4/cfe/fsw/cfe-core/src/tbl/cfe_tbl_task_cmds.c ****                         Status = CFE_TBL_GetWorkingBuffer(&WorkingBufferPtr, RegRecPtr, FALSE);
 1010               	.loc 1 469 0
 1011 0940 42A7      	clr.l -(%sp)
 1012               	.cfi_def_cfa_offset 220
 1013 0942 2F2F 00C4 	move.l 196(%sp),-(%sp)
 1014               	.cfi_def_cfa_offset 224
 1015 0946 200F      	move.l %sp,%d0
 1016 0948 0680 0000 	add.l #80,%d0
 1016      0050 
 1017 094e 2F00      	move.l %d0,-(%sp)
 1018               	.cfi_def_cfa_offset 228
 1019 0950 4EB9 0000 	jsr CFE_TBL_GetWorkingBuffer
 1019      0000 
 1020 0956 4FEF 000C 	lea (12,%sp),%sp
 1021               	.cfi_def_cfa_offset 216
 1022 095a 2F40 00C4 	move.l %d0,196(%sp)
 470:/home/simulink/cFS_FreeRTOS_seL4/cfe/fsw/cfe-core/src/tbl/cfe_tbl_task_cmds.c **** 
 471:/home/simulink/cFS_FreeRTOS_seL4/cfe/fsw/cfe-core/src/tbl/cfe_tbl_task_cmds.c ****                         if (Status == CFE_SUCCESS)
 1023               	.loc 1 471 0
 1024 095e 4AAF 00C4 	tst.l 196(%sp)
 1025 0962 6600 01BA 	jne .L43
 472:/home/simulink/cFS_FreeRTOS_seL4/cfe/fsw/cfe-core/src/tbl/cfe_tbl_task_cmds.c ****                         {
 473:/home/simulink/cFS_FreeRTOS_seL4/cfe/fsw/cfe-core/src/tbl/cfe_tbl_task_cmds.c ****                             /* Copy data from file into working buffer */
 474:/home/simulink/cFS_FreeRTOS_seL4/cfe/fsw/cfe-core/src/tbl/cfe_tbl_task_cmds.c ****                             Status = OS_read(FileDescriptor,
 1026               	.loc 1 474 0
 1027 0966 202F 0054 	move.l 84(%sp),%d0
 475:/home/simulink/cFS_FreeRTOS_seL4/cfe/fsw/cfe-core/src/tbl/cfe_tbl_task_cmds.c ****                                              &WorkingBufferPtr->BufferPtr[TblFileHeader.Offset],
 1028               	.loc 1 475 0
 1029 096a 206F 0048 	move.l 72(%sp),%a0
 1030 096e 2050      	move.l (%a0),%a0
 1031 0970 222F 0050 	move.l 80(%sp),%d1
 1032 0974 D288      	add.l %a0,%d1
 474:/home/simulink/cFS_FreeRTOS_seL4/cfe/fsw/cfe-core/src/tbl/cfe_tbl_task_cmds.c ****                                              &WorkingBufferPtr->BufferPtr[TblFileHeader.Offset],
 1033               	.loc 1 474 0
 1034 0976 2F00      	move.l %d0,-(%sp)
 1035               	.cfi_def_cfa_offset 220
 1036 0978 2F01      	move.l %d1,-(%sp)
 1037               	.cfi_def_cfa_offset 224
 1038 097a 2F2F 00D0 	move.l 208(%sp),-(%sp)
 1039               	.cfi_def_cfa_offset 228
 1040 097e 4EB9 0000 	jsr OS_read
 1040      0000 
 1041 0984 4FEF 000C 	lea (12,%sp),%sp
 1042               	.cfi_def_cfa_offset 216
 1043 0988 2F40 00C4 	move.l %d0,196(%sp)
68K GAS   			page 32


 476:/home/simulink/cFS_FreeRTOS_seL4/cfe/fsw/cfe-core/src/tbl/cfe_tbl_task_cmds.c ****                                              TblFileHeader.NumBytes);
 477:/home/simulink/cFS_FreeRTOS_seL4/cfe/fsw/cfe-core/src/tbl/cfe_tbl_task_cmds.c ****                                     
 478:/home/simulink/cFS_FreeRTOS_seL4/cfe/fsw/cfe-core/src/tbl/cfe_tbl_task_cmds.c ****                             /* Make sure the appropriate number of bytes were read */
 479:/home/simulink/cFS_FreeRTOS_seL4/cfe/fsw/cfe-core/src/tbl/cfe_tbl_task_cmds.c ****                             if (Status == (int32)TblFileHeader.NumBytes)
 1044               	.loc 1 479 0
 1045 098c 202F 0054 	move.l 84(%sp),%d0
 1046 0990 B0AF 00C4 	cmp.l 196(%sp),%d0
 1047 0994 6600 0152 	jne .L44
 480:/home/simulink/cFS_FreeRTOS_seL4/cfe/fsw/cfe-core/src/tbl/cfe_tbl_task_cmds.c ****                             {
 481:/home/simulink/cFS_FreeRTOS_seL4/cfe/fsw/cfe-core/src/tbl/cfe_tbl_task_cmds.c ****                                 /* Check to ensure the file does not have any extra data at the end
 482:/home/simulink/cFS_FreeRTOS_seL4/cfe/fsw/cfe-core/src/tbl/cfe_tbl_task_cmds.c ****                                 Status = OS_read(FileDescriptor, &ExtraByte, 1);
 1048               	.loc 1 482 0
 1049 0998 4878 0001 	pea 1.w
 1050               	.cfi_def_cfa_offset 220
 1051 099c 200F      	move.l %sp,%d0
 1052 099e 0680 0000 	add.l #11,%d0
 1052      000B 
 1053 09a4 2F00      	move.l %d0,-(%sp)
 1054               	.cfi_def_cfa_offset 224
 1055 09a6 2F2F 00D0 	move.l 208(%sp),-(%sp)
 1056               	.cfi_def_cfa_offset 228
 1057 09aa 4EB9 0000 	jsr OS_read
 1057      0000 
 1058 09b0 4FEF 000C 	lea (12,%sp),%sp
 1059               	.cfi_def_cfa_offset 216
 1060 09b4 2F40 00C4 	move.l %d0,196(%sp)
 483:/home/simulink/cFS_FreeRTOS_seL4/cfe/fsw/cfe-core/src/tbl/cfe_tbl_task_cmds.c **** 
 484:/home/simulink/cFS_FreeRTOS_seL4/cfe/fsw/cfe-core/src/tbl/cfe_tbl_task_cmds.c ****                                 /* If another byte was successfully read, then file contains more d
 485:/home/simulink/cFS_FreeRTOS_seL4/cfe/fsw/cfe-core/src/tbl/cfe_tbl_task_cmds.c ****                                 if (Status == 1)
 1061               	.loc 1 485 0
 1062 09b8 7001      	moveq #1,%d0
 1063 09ba B0AF 00C4 	cmp.l 196(%sp),%d0
 1064 09be 662C      	jne .L45
 486:/home/simulink/cFS_FreeRTOS_seL4/cfe/fsw/cfe-core/src/tbl/cfe_tbl_task_cmds.c ****                                 {
 487:/home/simulink/cFS_FreeRTOS_seL4/cfe/fsw/cfe-core/src/tbl/cfe_tbl_task_cmds.c ****                                     CFE_EVS_SendEvent(CFE_TBL_FILE_TOO_BIG_ERR_EID,
 488:/home/simulink/cFS_FreeRTOS_seL4/cfe/fsw/cfe-core/src/tbl/cfe_tbl_task_cmds.c ****                                                       CFE_EVS_ERROR,
 489:/home/simulink/cFS_FreeRTOS_seL4/cfe/fsw/cfe-core/src/tbl/cfe_tbl_task_cmds.c ****                                                       "File '%s' has more data than Tbl Hdr indicat
 490:/home/simulink/cFS_FreeRTOS_seL4/cfe/fsw/cfe-core/src/tbl/cfe_tbl_task_cmds.c ****                                                       LoadFilename,
 491:/home/simulink/cFS_FreeRTOS_seL4/cfe/fsw/cfe-core/src/tbl/cfe_tbl_task_cmds.c ****                                                       (int)TblFileHeader.NumBytes);
 1065               	.loc 1 491 0
 1066 09c0 202F 0054 	move.l 84(%sp),%d0
 487:/home/simulink/cFS_FreeRTOS_seL4/cfe/fsw/cfe-core/src/tbl/cfe_tbl_task_cmds.c ****                                                       CFE_EVS_ERROR,
 1067               	.loc 1 487 0
 1068 09c4 2F00      	move.l %d0,-(%sp)
 1069               	.cfi_def_cfa_offset 220
 1070 09c6 200F      	move.l %sp,%d0
 1071 09c8 0680 0000 	add.l #12,%d0
 1071      000C 
 1072 09ce 2F00      	move.l %d0,-(%sp)
 1073               	.cfi_def_cfa_offset 224
 1074 09d0 4879 0000 	pea .LC8
 1074      0000 
 1075               	.cfi_def_cfa_offset 228
 1076 09d6 4878 0003 	pea 3.w
 1077               	.cfi_def_cfa_offset 232
 1078 09da 4878 004B 	pea 75.w
 1079               	.cfi_def_cfa_offset 236
68K GAS   			page 33


 1080 09de 4EB9 0000 	jsr CFE_EVS_SendEvent
 1080      0000 
 1081 09e4 4FEF 0014 	lea (20,%sp),%sp
 1082               	.cfi_def_cfa_offset 216
 471:/home/simulink/cFS_FreeRTOS_seL4/cfe/fsw/cfe-core/src/tbl/cfe_tbl_task_cmds.c ****                         {
 1083               	.loc 1 471 0
 1084 09e8 6000 024A 	jra .L37
 1085               	.L45:
 492:/home/simulink/cFS_FreeRTOS_seL4/cfe/fsw/cfe-core/src/tbl/cfe_tbl_task_cmds.c ****                                 }
 493:/home/simulink/cFS_FreeRTOS_seL4/cfe/fsw/cfe-core/src/tbl/cfe_tbl_task_cmds.c ****                                 else /* If error reading file or zero bytes read, assume it was the
 494:/home/simulink/cFS_FreeRTOS_seL4/cfe/fsw/cfe-core/src/tbl/cfe_tbl_task_cmds.c ****                                 {
 495:/home/simulink/cFS_FreeRTOS_seL4/cfe/fsw/cfe-core/src/tbl/cfe_tbl_task_cmds.c ****                                     CFE_EVS_SendEvent(CFE_TBL_FILE_LOADED_INF_EID,
 1086               	.loc 1 495 0
 1087 09ec 200F      	move.l %sp,%d0
 1088 09ee 0680 0000 	add.l #76,%d0
 1088      004C 
 1089 09f4 0680 0000 	add.l #12,%d0
 1089      000C 
 1090 09fa 2F00      	move.l %d0,-(%sp)
 1091               	.cfi_def_cfa_offset 220
 1092 09fc 200F      	move.l %sp,%d0
 1093 09fe 0680 0000 	add.l #12,%d0
 1093      000C 
 1094 0a04 2F00      	move.l %d0,-(%sp)
 1095               	.cfi_def_cfa_offset 224
 1096 0a06 4879 0000 	pea .LC9
 1096      0000 
 1097               	.cfi_def_cfa_offset 228
 1098 0a0c 4878 0002 	pea 2.w
 1099               	.cfi_def_cfa_offset 232
 1100 0a10 4878 000C 	pea 12.w
 1101               	.cfi_def_cfa_offset 236
 1102 0a14 4EB9 0000 	jsr CFE_EVS_SendEvent
 1102      0000 
 1103 0a1a 4FEF 0014 	lea (20,%sp),%sp
 1104               	.cfi_def_cfa_offset 216
 496:/home/simulink/cFS_FreeRTOS_seL4/cfe/fsw/cfe-core/src/tbl/cfe_tbl_task_cmds.c ****                                                       CFE_EVS_INFORMATION,
 497:/home/simulink/cFS_FreeRTOS_seL4/cfe/fsw/cfe-core/src/tbl/cfe_tbl_task_cmds.c ****                                                       "Successful load of '%s' into '%s' working bu
 498:/home/simulink/cFS_FreeRTOS_seL4/cfe/fsw/cfe-core/src/tbl/cfe_tbl_task_cmds.c ****                                                       LoadFilename,
 499:/home/simulink/cFS_FreeRTOS_seL4/cfe/fsw/cfe-core/src/tbl/cfe_tbl_task_cmds.c ****                                                       TblFileHeader.TableName);
 500:/home/simulink/cFS_FreeRTOS_seL4/cfe/fsw/cfe-core/src/tbl/cfe_tbl_task_cmds.c **** 
 501:/home/simulink/cFS_FreeRTOS_seL4/cfe/fsw/cfe-core/src/tbl/cfe_tbl_task_cmds.c ****                                     /* Save file information statistics for later use in registry *
 502:/home/simulink/cFS_FreeRTOS_seL4/cfe/fsw/cfe-core/src/tbl/cfe_tbl_task_cmds.c ****                                     CFE_PSP_MemCpy(WorkingBufferPtr->DataSource, LoadFilename, OS_M
 1105               	.loc 1 502 0
 1106 0a1e 202F 0048 	move.l 72(%sp),%d0
 1107 0a22 0680 0000 	add.l #18,%d0
 1107      0012 
 1108 0a28 4878 0040 	pea 64.w
 1109               	.cfi_def_cfa_offset 220
 1110 0a2c 220F      	move.l %sp,%d1
 1111 0a2e 0681 0000 	add.l #12,%d1
 1111      000C 
 1112 0a34 2F01      	move.l %d1,-(%sp)
 1113               	.cfi_def_cfa_offset 224
 1114 0a36 2F00      	move.l %d0,-(%sp)
 1115               	.cfi_def_cfa_offset 228
 1116 0a38 4EB9 0000 	jsr CFE_PSP_MemCpy
68K GAS   			page 34


 1116      0000 
 1117 0a3e 4FEF 000C 	lea (12,%sp),%sp
 1118               	.cfi_def_cfa_offset 216
 503:/home/simulink/cFS_FreeRTOS_seL4/cfe/fsw/cfe-core/src/tbl/cfe_tbl_task_cmds.c **** 
 504:/home/simulink/cFS_FreeRTOS_seL4/cfe/fsw/cfe-core/src/tbl/cfe_tbl_task_cmds.c ****                                     /* Save file creation time for later storage into Registry */
 505:/home/simulink/cFS_FreeRTOS_seL4/cfe/fsw/cfe-core/src/tbl/cfe_tbl_task_cmds.c ****                                     WorkingBufferPtr->FileCreateTimeSecs = StdFileHeader.TimeSecond
 1119               	.loc 1 505 0
 1120 0a42 206F 0048 	move.l 72(%sp),%a0
 1121 0a46 202F 0098 	move.l 152(%sp),%d0
 1122 0a4a 2140 0004 	move.l %d0,4(%a0)
 506:/home/simulink/cFS_FreeRTOS_seL4/cfe/fsw/cfe-core/src/tbl/cfe_tbl_task_cmds.c ****                                     WorkingBufferPtr->FileCreateTimeSubSecs = StdFileHeader.TimeSub
 1123               	.loc 1 506 0
 1124 0a4e 206F 0048 	move.l 72(%sp),%a0
 1125 0a52 202F 009C 	move.l 156(%sp),%d0
 1126 0a56 2140 0008 	move.l %d0,8(%a0)
 507:/home/simulink/cFS_FreeRTOS_seL4/cfe/fsw/cfe-core/src/tbl/cfe_tbl_task_cmds.c ****                                     
 508:/home/simulink/cFS_FreeRTOS_seL4/cfe/fsw/cfe-core/src/tbl/cfe_tbl_task_cmds.c ****                                     /* Compute the CRC on the specified table buffer */
 509:/home/simulink/cFS_FreeRTOS_seL4/cfe/fsw/cfe-core/src/tbl/cfe_tbl_task_cmds.c ****                                     WorkingBufferPtr->Crc = CFE_ES_CalculateCRC(WorkingBufferPtr->B
 1127               	.loc 1 509 0
 1128 0a5a 206F 00C0 	move.l 192(%sp),%a0
 1129 0a5e 2228 0004 	move.l 4(%a0),%d1
 1130 0a62 206F 0048 	move.l 72(%sp),%a0
 1131 0a66 2010      	move.l (%a0),%d0
 1132 0a68 246F 0048 	move.l 72(%sp),%a2
 1133 0a6c 4878 0002 	pea 2.w
 1134               	.cfi_def_cfa_offset 220
 1135 0a70 42A7      	clr.l -(%sp)
 1136               	.cfi_def_cfa_offset 224
 1137 0a72 2F01      	move.l %d1,-(%sp)
 1138               	.cfi_def_cfa_offset 228
 1139 0a74 2F00      	move.l %d0,-(%sp)
 1140               	.cfi_def_cfa_offset 232
 1141 0a76 4EB9 0000 	jsr CFE_ES_CalculateCRC
 1141      0000 
 1142 0a7c 4FEF 0010 	lea (16,%sp),%sp
 1143               	.cfi_def_cfa_offset 216
 1144 0a80 2540 000C 	move.l %d0,12(%a2)
 510:/home/simulink/cFS_FreeRTOS_seL4/cfe/fsw/cfe-core/src/tbl/cfe_tbl_task_cmds.c ****                                                                                 RegRecPtr->Size,
 511:/home/simulink/cFS_FreeRTOS_seL4/cfe/fsw/cfe-core/src/tbl/cfe_tbl_task_cmds.c ****                                                                                 0,
 512:/home/simulink/cFS_FreeRTOS_seL4/cfe/fsw/cfe-core/src/tbl/cfe_tbl_task_cmds.c ****                                                                                 CFE_ES_DEFAULT_CRC)
 513:/home/simulink/cFS_FreeRTOS_seL4/cfe/fsw/cfe-core/src/tbl/cfe_tbl_task_cmds.c ****                                     
 514:/home/simulink/cFS_FreeRTOS_seL4/cfe/fsw/cfe-core/src/tbl/cfe_tbl_task_cmds.c ****                                     /* Initialize validation flag with TRUE if no Validation Functi
 515:/home/simulink/cFS_FreeRTOS_seL4/cfe/fsw/cfe-core/src/tbl/cfe_tbl_task_cmds.c ****                                     WorkingBufferPtr->Validated = (RegRecPtr->ValidationFuncPtr == 
 1145               	.loc 1 515 0
 1146 0a84 206F 00C0 	move.l 192(%sp),%a0
 1147 0a88 2028 00B8 	move.l 184(%a0),%d0
 1148 0a8c 4A80      	tst.l %d0
 1149 0a8e 57C0      	seq %d0
 1150 0a90 4480      	neg.l %d0
 1151 0a92 1000      	move.b %d0,%d0
 1152 0a94 206F 0048 	move.l 72(%sp),%a0
 1153 0a98 1140 0011 	move.b %d0,17(%a0)
 516:/home/simulink/cFS_FreeRTOS_seL4/cfe/fsw/cfe-core/src/tbl/cfe_tbl_task_cmds.c ****                             
 517:/home/simulink/cFS_FreeRTOS_seL4/cfe/fsw/cfe-core/src/tbl/cfe_tbl_task_cmds.c ****                                     /* Save file information statistics for housekeeping telemetry 
 518:/home/simulink/cFS_FreeRTOS_seL4/cfe/fsw/cfe-core/src/tbl/cfe_tbl_task_cmds.c ****                                     strncpy(CFE_TBL_TaskData.HkPacket.Payload.LastFileLoaded, LoadF
 1154               	.loc 1 518 0
 1155 0a9c 4878 0040 	pea 64.w
68K GAS   			page 35


 1156               	.cfi_def_cfa_offset 220
 1157 0aa0 200F      	move.l %sp,%d0
 1158 0aa2 0680 0000 	add.l #12,%d0
 1158      000C 
 1159 0aa8 2F00      	move.l %d0,-(%sp)
 1160               	.cfi_def_cfa_offset 224
 1161 0aaa 4879 0000 	pea CFE_TBL_TaskData+136
 1161      0000 
 1162               	.cfi_def_cfa_offset 228
 1163 0ab0 4EB9 0000 	jsr strncpy
 1163      0000 
 1164 0ab6 4FEF 000C 	lea (12,%sp),%sp
 1165               	.cfi_def_cfa_offset 216
 519:/home/simulink/cFS_FreeRTOS_seL4/cfe/fsw/cfe-core/src/tbl/cfe_tbl_task_cmds.c ****                                             sizeof(CFE_TBL_TaskData.HkPacket.Payload.LastFileLoaded
 520:/home/simulink/cFS_FreeRTOS_seL4/cfe/fsw/cfe-core/src/tbl/cfe_tbl_task_cmds.c ****                                     strncpy(CFE_TBL_TaskData.HkPacket.Payload.LastTableLoaded, TblF
 1166               	.loc 1 520 0
 1167 0aba 4878 0028 	pea 40.w
 1168               	.cfi_def_cfa_offset 220
 1169 0abe 200F      	move.l %sp,%d0
 1170 0ac0 0680 0000 	add.l #80,%d0
 1170      0050 
 1171 0ac6 0680 0000 	add.l #12,%d0
 1171      000C 
 1172 0acc 2F00      	move.l %d0,-(%sp)
 1173               	.cfi_def_cfa_offset 224
 1174 0ace 4879 0000 	pea CFE_TBL_TaskData+264
 1174      0000 
 1175               	.cfi_def_cfa_offset 228
 1176 0ad4 4EB9 0000 	jsr strncpy
 1176      0000 
 1177 0ada 4FEF 000C 	lea (12,%sp),%sp
 1178               	.cfi_def_cfa_offset 216
 521:/home/simulink/cFS_FreeRTOS_seL4/cfe/fsw/cfe-core/src/tbl/cfe_tbl_task_cmds.c ****                                             sizeof(CFE_TBL_TaskData.HkPacket.Payload.LastTableLoade
 522:/home/simulink/cFS_FreeRTOS_seL4/cfe/fsw/cfe-core/src/tbl/cfe_tbl_task_cmds.c **** 
 523:/home/simulink/cFS_FreeRTOS_seL4/cfe/fsw/cfe-core/src/tbl/cfe_tbl_task_cmds.c ****                                     /* Increment successful command completion counter */
 524:/home/simulink/cFS_FreeRTOS_seL4/cfe/fsw/cfe-core/src/tbl/cfe_tbl_task_cmds.c ****                                     ReturnCode = CFE_TBL_INC_CMD_CTR;
 1179               	.loc 1 524 0
 1180 0ade 7201      	moveq #1,%d1
 1181 0ae0 2F41 00D0 	move.l %d1,208(%sp)
 471:/home/simulink/cFS_FreeRTOS_seL4/cfe/fsw/cfe-core/src/tbl/cfe_tbl_task_cmds.c ****                         {
 1182               	.loc 1 471 0
 1183 0ae4 6000 014E 	jra .L37
 1184               	.L44:
 525:/home/simulink/cFS_FreeRTOS_seL4/cfe/fsw/cfe-core/src/tbl/cfe_tbl_task_cmds.c ****                                 }
 526:/home/simulink/cFS_FreeRTOS_seL4/cfe/fsw/cfe-core/src/tbl/cfe_tbl_task_cmds.c ****                             }
 527:/home/simulink/cFS_FreeRTOS_seL4/cfe/fsw/cfe-core/src/tbl/cfe_tbl_task_cmds.c ****                             else
 528:/home/simulink/cFS_FreeRTOS_seL4/cfe/fsw/cfe-core/src/tbl/cfe_tbl_task_cmds.c ****                             {
 529:/home/simulink/cFS_FreeRTOS_seL4/cfe/fsw/cfe-core/src/tbl/cfe_tbl_task_cmds.c ****                                 /* A file whose header claims has 'x' amount of data but it only ha
 530:/home/simulink/cFS_FreeRTOS_seL4/cfe/fsw/cfe-core/src/tbl/cfe_tbl_task_cmds.c ****                                 /* is considered a fatal error during a load process               
 531:/home/simulink/cFS_FreeRTOS_seL4/cfe/fsw/cfe-core/src/tbl/cfe_tbl_task_cmds.c ****                                 CFE_EVS_SendEvent(CFE_TBL_FILE_INCOMPLETE_ERR_EID,
 1185               	.loc 1 531 0
 1186 0ae8 200F      	move.l %sp,%d0
 1187 0aea 0680 0000 	add.l #76,%d0
 1187      004C 
 1188 0af0 0680 0000 	add.l #12,%d0
 1188      000C 
 1189 0af6 2F00      	move.l %d0,-(%sp)
68K GAS   			page 36


 1190               	.cfi_def_cfa_offset 220
 1191 0af8 200F      	move.l %sp,%d0
 1192 0afa 0680 0000 	add.l #12,%d0
 1192      000C 
 1193 0b00 2F00      	move.l %d0,-(%sp)
 1194               	.cfi_def_cfa_offset 224
 1195 0b02 4879 0000 	pea .LC10
 1195      0000 
 1196               	.cfi_def_cfa_offset 228
 1197 0b08 4878 0003 	pea 3.w
 1198               	.cfi_def_cfa_offset 232
 1199 0b0c 4878 0047 	pea 71.w
 1200               	.cfi_def_cfa_offset 236
 1201 0b10 4EB9 0000 	jsr CFE_EVS_SendEvent
 1201      0000 
 1202 0b16 4FEF 0014 	lea (20,%sp),%sp
 1203               	.cfi_def_cfa_offset 216
 471:/home/simulink/cFS_FreeRTOS_seL4/cfe/fsw/cfe-core/src/tbl/cfe_tbl_task_cmds.c ****                         {
 1204               	.loc 1 471 0
 1205 0b1a 6000 0118 	jra .L37
 1206               	.L43:
 532:/home/simulink/cFS_FreeRTOS_seL4/cfe/fsw/cfe-core/src/tbl/cfe_tbl_task_cmds.c ****                                                   CFE_EVS_ERROR,
 533:/home/simulink/cFS_FreeRTOS_seL4/cfe/fsw/cfe-core/src/tbl/cfe_tbl_task_cmds.c ****                                                   "Incomplete load of '%s' into '%s' working buffer
 534:/home/simulink/cFS_FreeRTOS_seL4/cfe/fsw/cfe-core/src/tbl/cfe_tbl_task_cmds.c ****                                                   LoadFilename,
 535:/home/simulink/cFS_FreeRTOS_seL4/cfe/fsw/cfe-core/src/tbl/cfe_tbl_task_cmds.c ****                                                   TblFileHeader.TableName);
 536:/home/simulink/cFS_FreeRTOS_seL4/cfe/fsw/cfe-core/src/tbl/cfe_tbl_task_cmds.c ****                             }
 537:/home/simulink/cFS_FreeRTOS_seL4/cfe/fsw/cfe-core/src/tbl/cfe_tbl_task_cmds.c ****                         }
 538:/home/simulink/cFS_FreeRTOS_seL4/cfe/fsw/cfe-core/src/tbl/cfe_tbl_task_cmds.c ****                         else if (Status == CFE_TBL_ERR_NO_BUFFER_AVAIL)
 1207               	.loc 1 538 0
 1208 0b1e 207C CC00 	move.l #-872415217,%a0
 1208      000F 
 1209 0b24 B1EF 00C4 	cmp.l 196(%sp),%a0
 1210 0b28 662C      	jne .L49
 539:/home/simulink/cFS_FreeRTOS_seL4/cfe/fsw/cfe-core/src/tbl/cfe_tbl_task_cmds.c ****                         {
 540:/home/simulink/cFS_FreeRTOS_seL4/cfe/fsw/cfe-core/src/tbl/cfe_tbl_task_cmds.c ****                             CFE_EVS_SendEvent(CFE_TBL_NO_WORK_BUFFERS_ERR_EID,
 1211               	.loc 1 540 0
 1212 0b2a 200F      	move.l %sp,%d0
 1213 0b2c 0680 0000 	add.l #76,%d0
 1213      004C 
 1214 0b32 0680 0000 	add.l #12,%d0
 1214      000C 
 1215 0b38 2F00      	move.l %d0,-(%sp)
 1216               	.cfi_def_cfa_offset 220
 1217 0b3a 4879 0000 	pea .LC11
 1217      0000 
 1218               	.cfi_def_cfa_offset 224
 1219 0b40 4878 0003 	pea 3.w
 1220               	.cfi_def_cfa_offset 228
 1221 0b44 4878 003C 	pea 60.w
 1222               	.cfi_def_cfa_offset 232
 1223 0b48 4EB9 0000 	jsr CFE_EVS_SendEvent
 1223      0000 
 1224 0b4e 4FEF 0010 	lea (16,%sp),%sp
 1225               	.cfi_def_cfa_offset 216
 471:/home/simulink/cFS_FreeRTOS_seL4/cfe/fsw/cfe-core/src/tbl/cfe_tbl_task_cmds.c ****                         {
 1226               	.loc 1 471 0
 1227 0b52 6000 00E0 	jra .L37
68K GAS   			page 37


 1228               	.L49:
 541:/home/simulink/cFS_FreeRTOS_seL4/cfe/fsw/cfe-core/src/tbl/cfe_tbl_task_cmds.c ****                                               CFE_EVS_ERROR,
 542:/home/simulink/cFS_FreeRTOS_seL4/cfe/fsw/cfe-core/src/tbl/cfe_tbl_task_cmds.c ****                                               "No working buffers available for table '%s'",
 543:/home/simulink/cFS_FreeRTOS_seL4/cfe/fsw/cfe-core/src/tbl/cfe_tbl_task_cmds.c ****                                               TblFileHeader.TableName);
 544:/home/simulink/cFS_FreeRTOS_seL4/cfe/fsw/cfe-core/src/tbl/cfe_tbl_task_cmds.c ****                         }
 545:/home/simulink/cFS_FreeRTOS_seL4/cfe/fsw/cfe-core/src/tbl/cfe_tbl_task_cmds.c ****                         else
 546:/home/simulink/cFS_FreeRTOS_seL4/cfe/fsw/cfe-core/src/tbl/cfe_tbl_task_cmds.c ****                         {
 547:/home/simulink/cFS_FreeRTOS_seL4/cfe/fsw/cfe-core/src/tbl/cfe_tbl_task_cmds.c ****                             CFE_EVS_SendEvent(CFE_TBL_INTERNAL_ERROR_ERR_EID,
 1229               	.loc 1 547 0
 1230 0b56 202F 00C4 	move.l 196(%sp),%d0
 1231 0b5a 2F00      	move.l %d0,-(%sp)
 1232               	.cfi_def_cfa_offset 220
 1233 0b5c 4879 0000 	pea .LC12
 1233      0000 
 1234               	.cfi_def_cfa_offset 224
 1235 0b62 4878 0003 	pea 3.w
 1236               	.cfi_def_cfa_offset 228
 1237 0b66 4878 003D 	pea 61.w
 1238               	.cfi_def_cfa_offset 232
 1239 0b6a 4EB9 0000 	jsr CFE_EVS_SendEvent
 1239      0000 
 1240 0b70 4FEF 0010 	lea (16,%sp),%sp
 1241               	.cfi_def_cfa_offset 216
 471:/home/simulink/cFS_FreeRTOS_seL4/cfe/fsw/cfe-core/src/tbl/cfe_tbl_task_cmds.c ****                         {
 1242               	.loc 1 471 0
 1243 0b74 6000 00BE 	jra .L37
 1244               	.L42:
 548:/home/simulink/cFS_FreeRTOS_seL4/cfe/fsw/cfe-core/src/tbl/cfe_tbl_task_cmds.c ****                                               CFE_EVS_ERROR,
 549:/home/simulink/cFS_FreeRTOS_seL4/cfe/fsw/cfe-core/src/tbl/cfe_tbl_task_cmds.c ****                                               "Internal Error (Status=0x%08X)",
 550:/home/simulink/cFS_FreeRTOS_seL4/cfe/fsw/cfe-core/src/tbl/cfe_tbl_task_cmds.c ****                                               (unsigned int)Status);
 551:/home/simulink/cFS_FreeRTOS_seL4/cfe/fsw/cfe-core/src/tbl/cfe_tbl_task_cmds.c ****                         }
 552:/home/simulink/cFS_FreeRTOS_seL4/cfe/fsw/cfe-core/src/tbl/cfe_tbl_task_cmds.c ****                     }
 553:/home/simulink/cFS_FreeRTOS_seL4/cfe/fsw/cfe-core/src/tbl/cfe_tbl_task_cmds.c ****                     else
 554:/home/simulink/cFS_FreeRTOS_seL4/cfe/fsw/cfe-core/src/tbl/cfe_tbl_task_cmds.c ****                     {
 555:/home/simulink/cFS_FreeRTOS_seL4/cfe/fsw/cfe-core/src/tbl/cfe_tbl_task_cmds.c ****                         if ((TblFileHeader.NumBytes + TblFileHeader.Offset) > RegRecPtr->Size)
 1245               	.loc 1 555 0
 1246 0b78 222F 0054 	move.l 84(%sp),%d1
 1247 0b7c 202F 0050 	move.l 80(%sp),%d0
 1248 0b80 D280      	add.l %d0,%d1
 1249 0b82 206F 00C0 	move.l 192(%sp),%a0
 1250 0b86 2028 0004 	move.l 4(%a0),%d0
 1251 0b8a B081      	cmp.l %d1,%d0
 1252 0b8c 644C      	jcc .L50
 556:/home/simulink/cFS_FreeRTOS_seL4/cfe/fsw/cfe-core/src/tbl/cfe_tbl_task_cmds.c ****                         {
 557:/home/simulink/cFS_FreeRTOS_seL4/cfe/fsw/cfe-core/src/tbl/cfe_tbl_task_cmds.c ****                             CFE_EVS_SendEvent(CFE_TBL_LOAD_EXCEEDS_SIZE_ERR_EID,
 558:/home/simulink/cFS_FreeRTOS_seL4/cfe/fsw/cfe-core/src/tbl/cfe_tbl_task_cmds.c ****                                               CFE_EVS_ERROR,
 559:/home/simulink/cFS_FreeRTOS_seL4/cfe/fsw/cfe-core/src/tbl/cfe_tbl_task_cmds.c ****                                               "Cannot load '%s' (%d) at offset %d in '%s' (%d)",
 560:/home/simulink/cFS_FreeRTOS_seL4/cfe/fsw/cfe-core/src/tbl/cfe_tbl_task_cmds.c ****                                               LoadFilename, (int)TblFileHeader.NumBytes, (int)TblFi
 561:/home/simulink/cFS_FreeRTOS_seL4/cfe/fsw/cfe-core/src/tbl/cfe_tbl_task_cmds.c ****                                               TblFileHeader.TableName, (int)RegRecPtr->Size);
 1253               	.loc 1 561 0
 1254 0b8e 206F 00C0 	move.l 192(%sp),%a0
 1255 0b92 2028 0004 	move.l 4(%a0),%d0
 560:/home/simulink/cFS_FreeRTOS_seL4/cfe/fsw/cfe-core/src/tbl/cfe_tbl_task_cmds.c ****                                               TblFileHeader.TableName, (int)RegRecPtr->Size);
 1256               	.loc 1 560 0
 1257 0b96 222F 0050 	move.l 80(%sp),%d1
 557:/home/simulink/cFS_FreeRTOS_seL4/cfe/fsw/cfe-core/src/tbl/cfe_tbl_task_cmds.c ****                                               CFE_EVS_ERROR,
 1258               	.loc 1 557 0
68K GAS   			page 38


 1259 0b9a 2041      	move.l %d1,%a0
 560:/home/simulink/cFS_FreeRTOS_seL4/cfe/fsw/cfe-core/src/tbl/cfe_tbl_task_cmds.c ****                                               TblFileHeader.TableName, (int)RegRecPtr->Size);
 1260               	.loc 1 560 0
 1261 0b9c 222F 0054 	move.l 84(%sp),%d1
 557:/home/simulink/cFS_FreeRTOS_seL4/cfe/fsw/cfe-core/src/tbl/cfe_tbl_task_cmds.c ****                                               CFE_EVS_ERROR,
 1262               	.loc 1 557 0
 1263 0ba0 2F00      	move.l %d0,-(%sp)
 1264               	.cfi_def_cfa_offset 220
 1265 0ba2 200F      	move.l %sp,%d0
 1266 0ba4 0680 0000 	add.l #80,%d0
 1266      0050 
 1267 0baa 0680 0000 	add.l #12,%d0
 1267      000C 
 1268 0bb0 2F00      	move.l %d0,-(%sp)
 1269               	.cfi_def_cfa_offset 224
 1270 0bb2 2F08      	move.l %a0,-(%sp)
 1271               	.cfi_def_cfa_offset 228
 1272 0bb4 2F01      	move.l %d1,-(%sp)
 1273               	.cfi_def_cfa_offset 232
 1274 0bb6 200F      	move.l %sp,%d0
 1275 0bb8 0680 0000 	add.l #24,%d0
 1275      0018 
 1276 0bbe 2F00      	move.l %d0,-(%sp)
 1277               	.cfi_def_cfa_offset 236
 1278 0bc0 4879 0000 	pea .LC13
 1278      0000 
 1279               	.cfi_def_cfa_offset 240
 1280 0bc6 4878 0003 	pea 3.w
 1281               	.cfi_def_cfa_offset 244
 1282 0bca 4878 0048 	pea 72.w
 1283               	.cfi_def_cfa_offset 248
 1284 0bce 4EB9 0000 	jsr CFE_EVS_SendEvent
 1284      0000 
 1285 0bd4 4FEF 0020 	lea (32,%sp),%sp
 1286               	.cfi_def_cfa_offset 216
 1287 0bd8 605A      	jra .L37
 1288               	.L50:
 562:/home/simulink/cFS_FreeRTOS_seL4/cfe/fsw/cfe-core/src/tbl/cfe_tbl_task_cmds.c ****                         }
 563:/home/simulink/cFS_FreeRTOS_seL4/cfe/fsw/cfe-core/src/tbl/cfe_tbl_task_cmds.c ****                         else if (TblFileHeader.NumBytes == 0)
 1289               	.loc 1 563 0
 1290 0bda 202F 0054 	move.l 84(%sp),%d0
 1291 0bde 4A80      	tst.l %d0
 1292 0be0 6620      	jne .L51
 564:/home/simulink/cFS_FreeRTOS_seL4/cfe/fsw/cfe-core/src/tbl/cfe_tbl_task_cmds.c ****                         {
 565:/home/simulink/cFS_FreeRTOS_seL4/cfe/fsw/cfe-core/src/tbl/cfe_tbl_task_cmds.c ****                             CFE_EVS_SendEvent(CFE_TBL_ZERO_LENGTH_LOAD_ERR_EID,
 1293               	.loc 1 565 0
 1294 0be2 200F      	move.l %sp,%d0
 1295 0be4 5080      	addq.l #8,%d0
 1296 0be6 2F00      	move.l %d0,-(%sp)
 1297               	.cfi_def_cfa_offset 220
 1298 0be8 4879 0000 	pea .LC14
 1298      0000 
 1299               	.cfi_def_cfa_offset 224
 1300 0bee 4878 0003 	pea 3.w
 1301               	.cfi_def_cfa_offset 228
 1302 0bf2 4878 0049 	pea 73.w
 1303               	.cfi_def_cfa_offset 232
68K GAS   			page 39


 1304 0bf6 4EB9 0000 	jsr CFE_EVS_SendEvent
 1304      0000 
 1305 0bfc 4FEF 0010 	lea (16,%sp),%sp
 1306               	.cfi_def_cfa_offset 216
 1307 0c00 6032      	jra .L37
 1308               	.L51:
 566:/home/simulink/cFS_FreeRTOS_seL4/cfe/fsw/cfe-core/src/tbl/cfe_tbl_task_cmds.c ****                                               CFE_EVS_ERROR,
 567:/home/simulink/cFS_FreeRTOS_seL4/cfe/fsw/cfe-core/src/tbl/cfe_tbl_task_cmds.c ****                                               "Table Hdr in '%s' indicates no data in file",
 568:/home/simulink/cFS_FreeRTOS_seL4/cfe/fsw/cfe-core/src/tbl/cfe_tbl_task_cmds.c ****                                               LoadFilename);
 569:/home/simulink/cFS_FreeRTOS_seL4/cfe/fsw/cfe-core/src/tbl/cfe_tbl_task_cmds.c ****                         }
 570:/home/simulink/cFS_FreeRTOS_seL4/cfe/fsw/cfe-core/src/tbl/cfe_tbl_task_cmds.c ****                         else
 571:/home/simulink/cFS_FreeRTOS_seL4/cfe/fsw/cfe-core/src/tbl/cfe_tbl_task_cmds.c ****                         {
 572:/home/simulink/cFS_FreeRTOS_seL4/cfe/fsw/cfe-core/src/tbl/cfe_tbl_task_cmds.c ****                             CFE_EVS_SendEvent(CFE_TBL_PARTIAL_LOAD_ERR_EID,
 1309               	.loc 1 572 0
 1310 0c02 200F      	move.l %sp,%d0
 1311 0c04 0680 0000 	add.l #76,%d0
 1311      004C 
 1312 0c0a 0680 0000 	add.l #12,%d0
 1312      000C 
 1313 0c10 2F00      	move.l %d0,-(%sp)
 1314               	.cfi_def_cfa_offset 220
 1315 0c12 200F      	move.l %sp,%d0
 1316 0c14 0680 0000 	add.l #12,%d0
 1316      000C 
 1317 0c1a 2F00      	move.l %d0,-(%sp)
 1318               	.cfi_def_cfa_offset 224
 1319 0c1c 4879 0000 	pea .LC15
 1319      0000 
 1320               	.cfi_def_cfa_offset 228
 1321 0c22 4878 0003 	pea 3.w
 1322               	.cfi_def_cfa_offset 232
 1323 0c26 4878 004A 	pea 74.w
 1324               	.cfi_def_cfa_offset 236
 1325 0c2a 4EB9 0000 	jsr CFE_EVS_SendEvent
 1325      0000 
 1326 0c30 4FEF 0014 	lea (20,%sp),%sp
 1327               	.cfi_def_cfa_offset 216
 1328               	.L37:
 573:/home/simulink/cFS_FreeRTOS_seL4/cfe/fsw/cfe-core/src/tbl/cfe_tbl_task_cmds.c ****                                               CFE_EVS_ERROR,
 574:/home/simulink/cFS_FreeRTOS_seL4/cfe/fsw/cfe-core/src/tbl/cfe_tbl_task_cmds.c ****                                               "'%s' has partial load for uninitialized table '%s'",
 575:/home/simulink/cFS_FreeRTOS_seL4/cfe/fsw/cfe-core/src/tbl/cfe_tbl_task_cmds.c ****                                               LoadFilename, TblFileHeader.TableName);
 576:/home/simulink/cFS_FreeRTOS_seL4/cfe/fsw/cfe-core/src/tbl/cfe_tbl_task_cmds.c ****                         }
 577:/home/simulink/cFS_FreeRTOS_seL4/cfe/fsw/cfe-core/src/tbl/cfe_tbl_task_cmds.c ****                     }
 578:/home/simulink/cFS_FreeRTOS_seL4/cfe/fsw/cfe-core/src/tbl/cfe_tbl_task_cmds.c ****                 }
 579:/home/simulink/cFS_FreeRTOS_seL4/cfe/fsw/cfe-core/src/tbl/cfe_tbl_task_cmds.c ****             }
 580:/home/simulink/cFS_FreeRTOS_seL4/cfe/fsw/cfe-core/src/tbl/cfe_tbl_task_cmds.c ****         }  /* No need to issue event messages in response to errors reading headers */
 581:/home/simulink/cFS_FreeRTOS_seL4/cfe/fsw/cfe-core/src/tbl/cfe_tbl_task_cmds.c ****            /* because the function that read the headers will generate messages     */
 582:/home/simulink/cFS_FreeRTOS_seL4/cfe/fsw/cfe-core/src/tbl/cfe_tbl_task_cmds.c **** 
 583:/home/simulink/cFS_FreeRTOS_seL4/cfe/fsw/cfe-core/src/tbl/cfe_tbl_task_cmds.c ****         /* Close the file now that the contents have been read */
 584:/home/simulink/cFS_FreeRTOS_seL4/cfe/fsw/cfe-core/src/tbl/cfe_tbl_task_cmds.c ****         OS_close(FileDescriptor);
 1329               	.loc 1 584 0
 1330 0c34 2F2F 00C8 	move.l 200(%sp),-(%sp)
 1331               	.cfi_def_cfa_offset 220
 1332 0c38 4EB9 0000 	jsr OS_close
 1332      0000 
 1333 0c3e 588F      	addq.l #4,%sp
 1334               	.cfi_def_cfa_offset 216
68K GAS   			page 40


 1335 0c40 6028      	jra .L52
 1336               	.L36:
 585:/home/simulink/cFS_FreeRTOS_seL4/cfe/fsw/cfe-core/src/tbl/cfe_tbl_task_cmds.c ****     }
 586:/home/simulink/cFS_FreeRTOS_seL4/cfe/fsw/cfe-core/src/tbl/cfe_tbl_task_cmds.c ****     else
 587:/home/simulink/cFS_FreeRTOS_seL4/cfe/fsw/cfe-core/src/tbl/cfe_tbl_task_cmds.c ****     {
 588:/home/simulink/cFS_FreeRTOS_seL4/cfe/fsw/cfe-core/src/tbl/cfe_tbl_task_cmds.c ****         /* Error opening specified file */
 589:/home/simulink/cFS_FreeRTOS_seL4/cfe/fsw/cfe-core/src/tbl/cfe_tbl_task_cmds.c ****         CFE_EVS_SendEvent(CFE_TBL_FILE_ACCESS_ERR_EID,
 1337               	.loc 1 589 0
 1338 0c42 202F 00C8 	move.l 200(%sp),%d0
 1339 0c46 2F00      	move.l %d0,-(%sp)
 1340               	.cfi_def_cfa_offset 220
 1341 0c48 200F      	move.l %sp,%d0
 1342 0c4a 0680 0000 	add.l #12,%d0
 1342      000C 
 1343 0c50 2F00      	move.l %d0,-(%sp)
 1344               	.cfi_def_cfa_offset 224
 1345 0c52 4879 0000 	pea .LC16
 1345      0000 
 1346               	.cfi_def_cfa_offset 228
 1347 0c58 4878 0003 	pea 3.w
 1348               	.cfi_def_cfa_offset 232
 1349 0c5c 4878 0035 	pea 53.w
 1350               	.cfi_def_cfa_offset 236
 1351 0c60 4EB9 0000 	jsr CFE_EVS_SendEvent
 1351      0000 
 1352 0c66 4FEF 0014 	lea (20,%sp),%sp
 1353               	.cfi_def_cfa_offset 216
 1354               	.L52:
 590:/home/simulink/cFS_FreeRTOS_seL4/cfe/fsw/cfe-core/src/tbl/cfe_tbl_task_cmds.c ****                           CFE_EVS_ERROR,
 591:/home/simulink/cFS_FreeRTOS_seL4/cfe/fsw/cfe-core/src/tbl/cfe_tbl_task_cmds.c ****                           "Unable to open file '%s' for table load, Status = 0x%08X",
 592:/home/simulink/cFS_FreeRTOS_seL4/cfe/fsw/cfe-core/src/tbl/cfe_tbl_task_cmds.c ****                           LoadFilename, (unsigned int)FileDescriptor);
 593:/home/simulink/cFS_FreeRTOS_seL4/cfe/fsw/cfe-core/src/tbl/cfe_tbl_task_cmds.c ****     }
 594:/home/simulink/cFS_FreeRTOS_seL4/cfe/fsw/cfe-core/src/tbl/cfe_tbl_task_cmds.c **** 
 595:/home/simulink/cFS_FreeRTOS_seL4/cfe/fsw/cfe-core/src/tbl/cfe_tbl_task_cmds.c ****     return ReturnCode;
 1355               	.loc 1 595 0
 1356 0c6a 202F 00D0 	move.l 208(%sp),%d0
 596:/home/simulink/cFS_FreeRTOS_seL4/cfe/fsw/cfe-core/src/tbl/cfe_tbl_task_cmds.c **** 
 597:/home/simulink/cFS_FreeRTOS_seL4/cfe/fsw/cfe-core/src/tbl/cfe_tbl_task_cmds.c **** } /* End of CFE_TBL_LoadCmd() */
 1357               	.loc 1 597 0
 1358 0c6e 245F      	move.l (%sp)+,%a2
 1359 0c70 4FEF 00D0 	lea (208,%sp),%sp
 1360 0c74 4E75      	rts
 1361               	.cfi_endproc
 1362               	.LFE64:
 1363               	.sizeCFE_TBL_LoadCmd, .-CFE_TBL_LoadCmd
 1364               	.section.rodata
 1365               	.LC17:
 1366 0328 4E6F 2049 	.string"No Inactive Buffer for Table '%s' present"
 1366      6E61 6374 
 1366      6976 6520 
 1366      4275 6666 
 1366      6572 2066 
 1367               	.LC18:
 1368 0352 436D 6420 	.string"Cmd for Table '%s' had illegal buffer parameter (0x%08X)"
 1368      666F 7220 
 1368      5461 626C 
 1368      6520 2725 
68K GAS   			page 41


 1368      7327 2068 
 1369               	.LC19:
 1370 038b 546F 6F20 	.string"Too many Dump Only Table Dumps have been requested"
 1370      6D61 6E79 
 1370      2044 756D 
 1370      7020 4F6E 
 1370      6C79 2054 
 1371               	.LC20:
 1372 03be 4120 6475 	.string"A dump for '%s' is already pending"
 1372      6D70 2066 
 1372      6F72 2027 
 1372      2573 2720 
 1372      6973 2061 
 1373               	.text
 1374               	.align2
 1375               	.globlCFE_TBL_DumpCmd
 1376               	.typeCFE_TBL_DumpCmd, @function
 1377               	CFE_TBL_DumpCmd:
 1378               	.LFB65:
 598:/home/simulink/cFS_FreeRTOS_seL4/cfe/fsw/cfe-core/src/tbl/cfe_tbl_task_cmds.c **** 
 599:/home/simulink/cFS_FreeRTOS_seL4/cfe/fsw/cfe-core/src/tbl/cfe_tbl_task_cmds.c **** 
 600:/home/simulink/cFS_FreeRTOS_seL4/cfe/fsw/cfe-core/src/tbl/cfe_tbl_task_cmds.c **** /*******************************************************************
 601:/home/simulink/cFS_FreeRTOS_seL4/cfe/fsw/cfe-core/src/tbl/cfe_tbl_task_cmds.c **** **
 602:/home/simulink/cFS_FreeRTOS_seL4/cfe/fsw/cfe-core/src/tbl/cfe_tbl_task_cmds.c **** ** CFE_TBL_DumpCmd() -- Process Dump Table to File Command Message
 603:/home/simulink/cFS_FreeRTOS_seL4/cfe/fsw/cfe-core/src/tbl/cfe_tbl_task_cmds.c **** **
 604:/home/simulink/cFS_FreeRTOS_seL4/cfe/fsw/cfe-core/src/tbl/cfe_tbl_task_cmds.c **** ** NOTE: For complete prolog information, see 'cfe_tbl_task_cmds.h'
 605:/home/simulink/cFS_FreeRTOS_seL4/cfe/fsw/cfe-core/src/tbl/cfe_tbl_task_cmds.c **** ********************************************************************/
 606:/home/simulink/cFS_FreeRTOS_seL4/cfe/fsw/cfe-core/src/tbl/cfe_tbl_task_cmds.c **** 
 607:/home/simulink/cFS_FreeRTOS_seL4/cfe/fsw/cfe-core/src/tbl/cfe_tbl_task_cmds.c **** CFE_TBL_CmdProcRet_t CFE_TBL_DumpCmd( const CFE_SB_MsgPayloadPtr_t  Payload )
 608:/home/simulink/cFS_FreeRTOS_seL4/cfe/fsw/cfe-core/src/tbl/cfe_tbl_task_cmds.c **** {
 1379               	.loc 1 608 0
 1380               	.cfi_startproc
 1381 0c76 4FEF FF74 	lea (-140,%sp),%sp
 1382               	.cfi_def_cfa_offset 144
 1383 0c7a 2F02      	move.l %d2,-(%sp)
 1384               	.cfi_def_cfa_offset 148
 1385               	.cfi_offset 2, -148
 609:/home/simulink/cFS_FreeRTOS_seL4/cfe/fsw/cfe-core/src/tbl/cfe_tbl_task_cmds.c ****     CFE_TBL_CmdProcRet_t        ReturnCode = CFE_TBL_INC_ERR_CTR;        /* Assume failure */
 1386               	.loc 1 609 0
 1387 0c7c 70FF      	moveq #-1,%d0
 1388 0c7e 2F40 008C 	move.l %d0,140(%sp)
 610:/home/simulink/cFS_FreeRTOS_seL4/cfe/fsw/cfe-core/src/tbl/cfe_tbl_task_cmds.c ****     int16                       RegIndex;
 611:/home/simulink/cFS_FreeRTOS_seL4/cfe/fsw/cfe-core/src/tbl/cfe_tbl_task_cmds.c ****     const CFE_TBL_DumpCmd_Payload_t    *CmdPtr = (const CFE_TBL_DumpCmd_Payload_t *) Payload;
 1389               	.loc 1 611 0
 1390 0c82 2F6F 0094 	move.l 148(%sp),128(%sp)
 1390      0080 
 612:/home/simulink/cFS_FreeRTOS_seL4/cfe/fsw/cfe-core/src/tbl/cfe_tbl_task_cmds.c ****     char                        DumpFilename[OS_MAX_PATH_LEN];
 613:/home/simulink/cFS_FreeRTOS_seL4/cfe/fsw/cfe-core/src/tbl/cfe_tbl_task_cmds.c ****     char                        TableName[CFE_TBL_MAX_FULL_NAME_LEN];
 614:/home/simulink/cFS_FreeRTOS_seL4/cfe/fsw/cfe-core/src/tbl/cfe_tbl_task_cmds.c ****     CFE_TBL_RegistryRec_t      *RegRecPtr;
 615:/home/simulink/cFS_FreeRTOS_seL4/cfe/fsw/cfe-core/src/tbl/cfe_tbl_task_cmds.c ****     void                       *DumpDataAddr = NULL;
 1391               	.loc 1 615 0
 1392 0c88 42AF 0088 	clr.l 136(%sp)
 616:/home/simulink/cFS_FreeRTOS_seL4/cfe/fsw/cfe-core/src/tbl/cfe_tbl_task_cmds.c ****     CFE_TBL_LoadBuff_t         *WorkingBufferPtr;
 617:/home/simulink/cFS_FreeRTOS_seL4/cfe/fsw/cfe-core/src/tbl/cfe_tbl_task_cmds.c ****     int32                       DumpIndex;
 618:/home/simulink/cFS_FreeRTOS_seL4/cfe/fsw/cfe-core/src/tbl/cfe_tbl_task_cmds.c ****     int32                       Status;
 619:/home/simulink/cFS_FreeRTOS_seL4/cfe/fsw/cfe-core/src/tbl/cfe_tbl_task_cmds.c ****     CFE_TBL_DumpControl_t      *DumpCtrlPtr;
 620:/home/simulink/cFS_FreeRTOS_seL4/cfe/fsw/cfe-core/src/tbl/cfe_tbl_task_cmds.c **** 
68K GAS   			page 42


 621:/home/simulink/cFS_FreeRTOS_seL4/cfe/fsw/cfe-core/src/tbl/cfe_tbl_task_cmds.c ****     /* Make sure all strings are null terminated before attempting to process them */
 622:/home/simulink/cFS_FreeRTOS_seL4/cfe/fsw/cfe-core/src/tbl/cfe_tbl_task_cmds.c ****     CFE_SB_MessageStringGet(DumpFilename, (char *)CmdPtr->DumpFilename, NULL,
 1393               	.loc 1 622 0
 1394 0c8c 202F 0080 	move.l 128(%sp),%d0
 1395 0c90 0680 0000 	add.l #42,%d0
 1395      002A 
 1396 0c96 4878 0040 	pea 64.w
 1397               	.cfi_def_cfa_offset 152
 1398 0c9a 4878 0040 	pea 64.w
 1399               	.cfi_def_cfa_offset 156
 1400 0c9e 42A7      	clr.l -(%sp)
 1401               	.cfi_def_cfa_offset 160
 1402 0ca0 2F00      	move.l %d0,-(%sp)
 1403               	.cfi_def_cfa_offset 164
 1404 0ca2 200F      	move.l %sp,%d0
 1405 0ca4 0680 0000 	add.l #64,%d0
 1405      0040 
 1406 0caa 2F00      	move.l %d0,-(%sp)
 1407               	.cfi_def_cfa_offset 168
 1408 0cac 4EB9 0000 	jsr CFE_SB_MessageStringGet
 1408      0000 
 1409 0cb2 4FEF 0014 	lea (20,%sp),%sp
 1410               	.cfi_def_cfa_offset 148
 623:/home/simulink/cFS_FreeRTOS_seL4/cfe/fsw/cfe-core/src/tbl/cfe_tbl_task_cmds.c ****             OS_MAX_PATH_LEN, sizeof(CmdPtr->DumpFilename));
 624:/home/simulink/cFS_FreeRTOS_seL4/cfe/fsw/cfe-core/src/tbl/cfe_tbl_task_cmds.c **** 
 625:/home/simulink/cFS_FreeRTOS_seL4/cfe/fsw/cfe-core/src/tbl/cfe_tbl_task_cmds.c ****     CFE_SB_MessageStringGet(TableName, (char *)CmdPtr->TableName, NULL,
 1411               	.loc 1 625 0
 1412 0cb6 202F 0080 	move.l 128(%sp),%d0
 1413 0cba 5480      	addq.l #2,%d0
 1414 0cbc 4878 0028 	pea 40.w
 1415               	.cfi_def_cfa_offset 152
 1416 0cc0 4878 0028 	pea 40.w
 1417               	.cfi_def_cfa_offset 156
 1418 0cc4 42A7      	clr.l -(%sp)
 1419               	.cfi_def_cfa_offset 160
 1420 0cc6 2F00      	move.l %d0,-(%sp)
 1421               	.cfi_def_cfa_offset 164
 1422 0cc8 200F      	move.l %sp,%d0
 1423 0cca 0680 0000 	add.l #24,%d0
 1423      0018 
 1424 0cd0 2F00      	move.l %d0,-(%sp)
 1425               	.cfi_def_cfa_offset 168
 1426 0cd2 4EB9 0000 	jsr CFE_SB_MessageStringGet
 1426      0000 
 1427 0cd8 4FEF 0014 	lea (20,%sp),%sp
 1428               	.cfi_def_cfa_offset 148
 626:/home/simulink/cFS_FreeRTOS_seL4/cfe/fsw/cfe-core/src/tbl/cfe_tbl_task_cmds.c ****             CFE_TBL_MAX_FULL_NAME_LEN, sizeof(CmdPtr->TableName));
 627:/home/simulink/cFS_FreeRTOS_seL4/cfe/fsw/cfe-core/src/tbl/cfe_tbl_task_cmds.c **** 
 628:/home/simulink/cFS_FreeRTOS_seL4/cfe/fsw/cfe-core/src/tbl/cfe_tbl_task_cmds.c ****     /* Before doing anything, lets make sure the table that is to be dumped exists */
 629:/home/simulink/cFS_FreeRTOS_seL4/cfe/fsw/cfe-core/src/tbl/cfe_tbl_task_cmds.c ****     RegIndex = CFE_TBL_FindTableInRegistry(TableName);
 1429               	.loc 1 629 0
 1430 0cdc 200F      	move.l %sp,%d0
 1431 0cde 5080      	addq.l #8,%d0
 1432 0ce0 2F00      	move.l %d0,-(%sp)
 1433               	.cfi_def_cfa_offset 152
 1434 0ce2 4EB9 0000 	jsr CFE_TBL_FindTableInRegistry
 1434      0000 
68K GAS   			page 43


 1435 0ce8 588F      	addq.l #4,%sp
 1436               	.cfi_def_cfa_offset 148
 1437 0cea 3F40 007E 	move.w %d0,126(%sp)
 630:/home/simulink/cFS_FreeRTOS_seL4/cfe/fsw/cfe-core/src/tbl/cfe_tbl_task_cmds.c **** 
 631:/home/simulink/cFS_FreeRTOS_seL4/cfe/fsw/cfe-core/src/tbl/cfe_tbl_task_cmds.c ****     if (RegIndex != CFE_TBL_NOT_FOUND)
 1438               	.loc 1 631 0
 1439 0cee 306F 007E 	move.w 126(%sp),%a0
 1440 0cf2 72FF      	moveq #-1,%d1
 1441 0cf4 B288      	cmp.l %a0,%d1
 1442 0cf6 6700 02F6 	jeq .L55
 632:/home/simulink/cFS_FreeRTOS_seL4/cfe/fsw/cfe-core/src/tbl/cfe_tbl_task_cmds.c ****     {
 633:/home/simulink/cFS_FreeRTOS_seL4/cfe/fsw/cfe-core/src/tbl/cfe_tbl_task_cmds.c ****         /* Obtain a pointer to registry information about specified table */
 634:/home/simulink/cFS_FreeRTOS_seL4/cfe/fsw/cfe-core/src/tbl/cfe_tbl_task_cmds.c ****         RegRecPtr = &CFE_TBL_TaskData.Registry[RegIndex];
 1443               	.loc 1 634 0
 1444 0cfa 302F 007E 	move.w 126(%sp),%d0
 1445 0cfe 48C0      	ext.l %d0
 1446 0d00 243C 0000 	move.l #336,%d2
 1446      0150 
 1447 0d06 4C02 0800 	muls.l %d2,%d0
 1448 0d0a 0680 0000 	add.l #4972,%d0
 1448      136C 
 1449 0d10 2240      	move.l %d0,%a1
 1450 0d12 D3FC 0000 	add.l #CFE_TBL_TaskData,%a1
 1450      0000 
 1451 0d18 2F49 0078 	move.l %a1,120(%sp)
 635:/home/simulink/cFS_FreeRTOS_seL4/cfe/fsw/cfe-core/src/tbl/cfe_tbl_task_cmds.c **** 
 636:/home/simulink/cFS_FreeRTOS_seL4/cfe/fsw/cfe-core/src/tbl/cfe_tbl_task_cmds.c ****         /* Determine what data is to be dumped */
 637:/home/simulink/cFS_FreeRTOS_seL4/cfe/fsw/cfe-core/src/tbl/cfe_tbl_task_cmds.c ****         if (CmdPtr->ActiveTblFlag == CFE_TBL_ACTIVE_BUFFER)
 1452               	.loc 1 637 0
 1453 0d1c 206F 0080 	move.l 128(%sp),%a0
 1454 0d20 3010      	move.w (%a0),%d0
 1455 0d22 3000      	move.w %d0,%d0
 1456 0d24 0280 0000 	and.l #65535,%d0
 1456      FFFF 
 1457 0d2a 7201      	moveq #1,%d1
 1458 0d2c B280      	cmp.l %d0,%d1
 1459 0d2e 662A      	jne .L56
 638:/home/simulink/cFS_FreeRTOS_seL4/cfe/fsw/cfe-core/src/tbl/cfe_tbl_task_cmds.c ****         {
 639:/home/simulink/cFS_FreeRTOS_seL4/cfe/fsw/cfe-core/src/tbl/cfe_tbl_task_cmds.c ****             DumpDataAddr = RegRecPtr->Buffers[RegRecPtr->ActiveBufferIndex].BufferPtr;
 1460               	.loc 1 639 0
 1461 0d30 206F 0078 	move.l 120(%sp),%a0
 1462 0d34 1028 00E5 	move.b 229(%a0),%d0
 1463 0d38 1000      	move.b %d0,%d0
 1464 0d3a 0280 0000 	and.l #255,%d0
 1464      00FF 
 1465 0d40 222F 0078 	move.l 120(%sp),%d1
 1466 0d44 7454      	moveq #84,%d2
 1467 0d46 4C02 0800 	muls.l %d2,%d0
 1468 0d4a D081      	add.l %d1,%d0
 1469 0d4c 2040      	move.l %d0,%a0
 1470 0d4e 41E8 0010 	lea (16,%a0),%a0
 1471 0d52 2F50 0088 	move.l (%a0),136(%sp)
 1472 0d56 6000 00D4 	jra .L57
 1473               	.L56:
 640:/home/simulink/cFS_FreeRTOS_seL4/cfe/fsw/cfe-core/src/tbl/cfe_tbl_task_cmds.c ****         }
 641:/home/simulink/cFS_FreeRTOS_seL4/cfe/fsw/cfe-core/src/tbl/cfe_tbl_task_cmds.c ****         else if (CmdPtr->ActiveTblFlag == CFE_TBL_INACTIVE_BUFFER)/* Dumping Inactive Buffer */
 1474               	.loc 1 641 0
68K GAS   			page 44


 1475 0d5a 206F 0080 	move.l 128(%sp),%a0
 1476 0d5e 3010      	move.w (%a0),%d0
 1477 0d60 4A40      	tst.w %d0
 1478 0d62 6600 0096 	jne .L58
 642:/home/simulink/cFS_FreeRTOS_seL4/cfe/fsw/cfe-core/src/tbl/cfe_tbl_task_cmds.c ****         {
 643:/home/simulink/cFS_FreeRTOS_seL4/cfe/fsw/cfe-core/src/tbl/cfe_tbl_task_cmds.c ****             /* If this is a double buffered table, locating the inactive buffer is trivial */
 644:/home/simulink/cFS_FreeRTOS_seL4/cfe/fsw/cfe-core/src/tbl/cfe_tbl_task_cmds.c ****             if (RegRecPtr->DblBuffered)
 1479               	.loc 1 644 0
 1480 0d66 206F 0078 	move.l 120(%sp),%a0
 1481 0d6a 1028 00E2 	move.b 226(%a0),%d0
 1482 0d6e 4A00      	tst.b %d0
 1483 0d70 6730      	jeq .L59
 645:/home/simulink/cFS_FreeRTOS_seL4/cfe/fsw/cfe-core/src/tbl/cfe_tbl_task_cmds.c ****             {
 646:/home/simulink/cFS_FreeRTOS_seL4/cfe/fsw/cfe-core/src/tbl/cfe_tbl_task_cmds.c ****                 DumpDataAddr = RegRecPtr->Buffers[(1U-RegRecPtr->ActiveBufferIndex)].BufferPtr;
 1484               	.loc 1 646 0
 1485 0d72 206F 0078 	move.l 120(%sp),%a0
 1486 0d76 1028 00E5 	move.b 229(%a0),%d0
 1487 0d7a 1000      	move.b %d0,%d0
 1488 0d7c 0280 0000 	and.l #255,%d0
 1488      00FF 
 1489 0d82 7201      	moveq #1,%d1
 1490 0d84 9280      	sub.l %d0,%d1
 1491 0d86 2001      	move.l %d1,%d0
 1492 0d88 222F 0078 	move.l 120(%sp),%d1
 1493 0d8c 7454      	moveq #84,%d2
 1494 0d8e 4C02 0800 	muls.l %d2,%d0
 1495 0d92 D081      	add.l %d1,%d0
 1496 0d94 2040      	move.l %d0,%a0
 1497 0d96 41E8 0010 	lea (16,%a0),%a0
 1498 0d9a 2F50 0088 	move.l (%a0),136(%sp)
 1499 0d9e 6000 008C 	jra .L57
 1500               	.L59:
 647:/home/simulink/cFS_FreeRTOS_seL4/cfe/fsw/cfe-core/src/tbl/cfe_tbl_task_cmds.c ****             }
 648:/home/simulink/cFS_FreeRTOS_seL4/cfe/fsw/cfe-core/src/tbl/cfe_tbl_task_cmds.c ****             else
 649:/home/simulink/cFS_FreeRTOS_seL4/cfe/fsw/cfe-core/src/tbl/cfe_tbl_task_cmds.c ****             {
 650:/home/simulink/cFS_FreeRTOS_seL4/cfe/fsw/cfe-core/src/tbl/cfe_tbl_task_cmds.c ****                 /* For single buffered tables, the index to the inactive buffer is kept in 'LoadInP
 651:/home/simulink/cFS_FreeRTOS_seL4/cfe/fsw/cfe-core/src/tbl/cfe_tbl_task_cmds.c ****                 /* Unless this is a table whose address was defined by the owning Application.     
 652:/home/simulink/cFS_FreeRTOS_seL4/cfe/fsw/cfe-core/src/tbl/cfe_tbl_task_cmds.c ****                 if ((RegRecPtr->LoadInProgress != CFE_TBL_NO_LOAD_IN_PROGRESS) && (!RegRecPtr->User
 1501               	.loc 1 652 0
 1502 0da2 206F 0078 	move.l 120(%sp),%a0
 1503 0da6 2028 00C8 	move.l 200(%a0),%d0
 1504 0daa 72FF      	moveq #-1,%d1
 1505 0dac B280      	cmp.l %d0,%d1
 1506 0dae 672A      	jeq .L61
 1507               	.loc 1 652 0 is_stmt 0 discriminator 1
 1508 0db0 206F 0078 	move.l 120(%sp),%a0
 1509 0db4 1028 00E3 	move.b 227(%a0),%d0
 1510 0db8 4A00      	tst.b %d0
 1511 0dba 661E      	jne .L61
 653:/home/simulink/cFS_FreeRTOS_seL4/cfe/fsw/cfe-core/src/tbl/cfe_tbl_task_cmds.c ****                 {
 654:/home/simulink/cFS_FreeRTOS_seL4/cfe/fsw/cfe-core/src/tbl/cfe_tbl_task_cmds.c ****                     DumpDataAddr = CFE_TBL_TaskData.LoadBuffs[RegRecPtr->LoadInProgress].BufferPtr;
 1512               	.loc 1 654 0 is_stmt 1
 1513 0dbc 206F 0078 	move.l 120(%sp),%a0
 1514 0dc0 2028 00C8 	move.l 200(%a0),%d0
 1515 0dc4 7454      	moveq #84,%d2
 1516 0dc6 4C02 0800 	muls.l %d2,%d0
 1517 0dca 41F9 0000 	lea CFE_TBL_TaskData+540,%a0
68K GAS   			page 45


 1517      0000 
 1518 0dd0 43F0 0800 	lea (%a0,%d0.l),%a1
 1519 0dd4 2F51 0088 	move.l (%a1),136(%sp)
 1520 0dd8 6052      	jra .L57
 1521               	.L61:
 655:/home/simulink/cFS_FreeRTOS_seL4/cfe/fsw/cfe-core/src/tbl/cfe_tbl_task_cmds.c ****                 }
 656:/home/simulink/cFS_FreeRTOS_seL4/cfe/fsw/cfe-core/src/tbl/cfe_tbl_task_cmds.c ****                 else
 657:/home/simulink/cFS_FreeRTOS_seL4/cfe/fsw/cfe-core/src/tbl/cfe_tbl_task_cmds.c ****                 {
 658:/home/simulink/cFS_FreeRTOS_seL4/cfe/fsw/cfe-core/src/tbl/cfe_tbl_task_cmds.c ****                     CFE_EVS_SendEvent(CFE_TBL_NO_INACTIVE_BUFFER_ERR_EID,
 1522               	.loc 1 658 0
 1523 0dda 200F      	move.l %sp,%d0
 1524 0ddc 5080      	addq.l #8,%d0
 1525 0dde 2F00      	move.l %d0,-(%sp)
 1526               	.cfi_def_cfa_offset 152
 1527 0de0 4879 0000 	pea .LC17
 1527      0000 
 1528               	.cfi_def_cfa_offset 156
 1529 0de6 4878 0003 	pea 3.w
 1530               	.cfi_def_cfa_offset 160
 1531 0dea 4878 0042 	pea 66.w
 1532               	.cfi_def_cfa_offset 164
 1533 0dee 4EB9 0000 	jsr CFE_EVS_SendEvent
 1533      0000 
 1534 0df4 4FEF 0010 	lea (16,%sp),%sp
 1535               	.cfi_def_cfa_offset 148
 1536 0df8 6032      	jra .L57
 1537               	.L58:
 659:/home/simulink/cFS_FreeRTOS_seL4/cfe/fsw/cfe-core/src/tbl/cfe_tbl_task_cmds.c ****                                       CFE_EVS_ERROR,
 660:/home/simulink/cFS_FreeRTOS_seL4/cfe/fsw/cfe-core/src/tbl/cfe_tbl_task_cmds.c ****                                       "No Inactive Buffer for Table '%s' present",
 661:/home/simulink/cFS_FreeRTOS_seL4/cfe/fsw/cfe-core/src/tbl/cfe_tbl_task_cmds.c ****                                       TableName);
 662:/home/simulink/cFS_FreeRTOS_seL4/cfe/fsw/cfe-core/src/tbl/cfe_tbl_task_cmds.c ****                 }
 663:/home/simulink/cFS_FreeRTOS_seL4/cfe/fsw/cfe-core/src/tbl/cfe_tbl_task_cmds.c ****             }
 664:/home/simulink/cFS_FreeRTOS_seL4/cfe/fsw/cfe-core/src/tbl/cfe_tbl_task_cmds.c ****         }
 665:/home/simulink/cFS_FreeRTOS_seL4/cfe/fsw/cfe-core/src/tbl/cfe_tbl_task_cmds.c ****         else
 666:/home/simulink/cFS_FreeRTOS_seL4/cfe/fsw/cfe-core/src/tbl/cfe_tbl_task_cmds.c ****         {
 667:/home/simulink/cFS_FreeRTOS_seL4/cfe/fsw/cfe-core/src/tbl/cfe_tbl_task_cmds.c ****             CFE_EVS_SendEvent(CFE_TBL_ILLEGAL_BUFF_PARAM_ERR_EID,
 668:/home/simulink/cFS_FreeRTOS_seL4/cfe/fsw/cfe-core/src/tbl/cfe_tbl_task_cmds.c ****                               CFE_EVS_ERROR,
 669:/home/simulink/cFS_FreeRTOS_seL4/cfe/fsw/cfe-core/src/tbl/cfe_tbl_task_cmds.c ****                               "Cmd for Table '%s' had illegal buffer parameter (0x%08X)",
 670:/home/simulink/cFS_FreeRTOS_seL4/cfe/fsw/cfe-core/src/tbl/cfe_tbl_task_cmds.c ****                               TableName, CmdPtr->ActiveTblFlag);
 1538               	.loc 1 670 0
 1539 0dfa 206F 0080 	move.l 128(%sp),%a0
 1540 0dfe 3010      	move.w (%a0),%d0
 667:/home/simulink/cFS_FreeRTOS_seL4/cfe/fsw/cfe-core/src/tbl/cfe_tbl_task_cmds.c ****                               CFE_EVS_ERROR,
 1541               	.loc 1 667 0
 1542 0e00 3000      	move.w %d0,%d0
 1543 0e02 0280 0000 	and.l #65535,%d0
 1543      FFFF 
 1544 0e08 2F00      	move.l %d0,-(%sp)
 1545               	.cfi_def_cfa_offset 152
 1546 0e0a 200F      	move.l %sp,%d0
 1547 0e0c 0680 0000 	add.l #12,%d0
 1547      000C 
 1548 0e12 2F00      	move.l %d0,-(%sp)
 1549               	.cfi_def_cfa_offset 156
 1550 0e14 4879 0000 	pea .LC18
 1550      0000 
 1551               	.cfi_def_cfa_offset 160
68K GAS   			page 46


 1552 0e1a 4878 0003 	pea 3.w
 1553               	.cfi_def_cfa_offset 164
 1554 0e1e 4878 0050 	pea 80.w
 1555               	.cfi_def_cfa_offset 168
 1556 0e22 4EB9 0000 	jsr CFE_EVS_SendEvent
 1556      0000 
 1557 0e28 4FEF 0014 	lea (20,%sp),%sp
 1558               	.cfi_def_cfa_offset 148
 1559               	.L57:
 671:/home/simulink/cFS_FreeRTOS_seL4/cfe/fsw/cfe-core/src/tbl/cfe_tbl_task_cmds.c ****         }
 672:/home/simulink/cFS_FreeRTOS_seL4/cfe/fsw/cfe-core/src/tbl/cfe_tbl_task_cmds.c **** 
 673:/home/simulink/cFS_FreeRTOS_seL4/cfe/fsw/cfe-core/src/tbl/cfe_tbl_task_cmds.c ****         /* If we have located the data to be dumped, then proceed with creating the file and dumpin
 674:/home/simulink/cFS_FreeRTOS_seL4/cfe/fsw/cfe-core/src/tbl/cfe_tbl_task_cmds.c ****         if (DumpDataAddr != NULL)
 1560               	.loc 1 674 0
 1561 0e2c 4AAF 0088 	tst.l 136(%sp)
 1562 0e30 6700 01DA 	jeq .L72
 675:/home/simulink/cFS_FreeRTOS_seL4/cfe/fsw/cfe-core/src/tbl/cfe_tbl_task_cmds.c ****         {
 676:/home/simulink/cFS_FreeRTOS_seL4/cfe/fsw/cfe-core/src/tbl/cfe_tbl_task_cmds.c ****             /* If this is not a dump only table, then we can perform the dump immediately */
 677:/home/simulink/cFS_FreeRTOS_seL4/cfe/fsw/cfe-core/src/tbl/cfe_tbl_task_cmds.c ****             if (!RegRecPtr->DumpOnly)
 1563               	.loc 1 677 0
 1564 0e34 206F 0078 	move.l 120(%sp),%a0
 1565 0e38 1028 00E1 	move.b 225(%a0),%d0
 1566 0e3c 4A00      	tst.b %d0
 1567 0e3e 6634      	jne .L63
 678:/home/simulink/cFS_FreeRTOS_seL4/cfe/fsw/cfe-core/src/tbl/cfe_tbl_task_cmds.c ****             {
 679:/home/simulink/cFS_FreeRTOS_seL4/cfe/fsw/cfe-core/src/tbl/cfe_tbl_task_cmds.c ****                 ReturnCode = CFE_TBL_DumpToFile(DumpFilename, TableName, DumpDataAddr, RegRecPtr->S
 1568               	.loc 1 679 0
 1569 0e40 206F 0078 	move.l 120(%sp),%a0
 1570 0e44 2028 0004 	move.l 4(%a0),%d0
 1571 0e48 2F00      	move.l %d0,-(%sp)
 1572               	.cfi_def_cfa_offset 152
 1573 0e4a 2F2F 008C 	move.l 140(%sp),-(%sp)
 1574               	.cfi_def_cfa_offset 156
 1575 0e4e 200F      	move.l %sp,%d0
 1576 0e50 0680 0000 	add.l #16,%d0
 1576      0010 
 1577 0e56 2F00      	move.l %d0,-(%sp)
 1578               	.cfi_def_cfa_offset 160
 1579 0e58 200F      	move.l %sp,%d0
 1580 0e5a 0680 0000 	add.l #60,%d0
 1580      003C 
 1581 0e60 2F00      	move.l %d0,-(%sp)
 1582               	.cfi_def_cfa_offset 164
 1583 0e62 4EB9 0000 	jsr CFE_TBL_DumpToFile
 1583      0000 
 1584 0e68 4FEF 0010 	lea (16,%sp),%sp
 1585               	.cfi_def_cfa_offset 148
 1586 0e6c 2F40 008C 	move.l %d0,140(%sp)
 1587 0e70 6000 019A 	jra .L72
 1588               	.L63:
 680:/home/simulink/cFS_FreeRTOS_seL4/cfe/fsw/cfe-core/src/tbl/cfe_tbl_task_cmds.c ****             }
 681:/home/simulink/cFS_FreeRTOS_seL4/cfe/fsw/cfe-core/src/tbl/cfe_tbl_task_cmds.c ****             else /* Dump Only tables need to synchronize their dumps with the owner's execution */
 682:/home/simulink/cFS_FreeRTOS_seL4/cfe/fsw/cfe-core/src/tbl/cfe_tbl_task_cmds.c ****             {
 683:/home/simulink/cFS_FreeRTOS_seL4/cfe/fsw/cfe-core/src/tbl/cfe_tbl_task_cmds.c ****                 /* Make sure a dump is not already in progress */
 684:/home/simulink/cFS_FreeRTOS_seL4/cfe/fsw/cfe-core/src/tbl/cfe_tbl_task_cmds.c ****                 if (RegRecPtr->DumpControlIndex == CFE_TBL_NO_DUMP_PENDING)
 1589               	.loc 1 684 0
 1590 0e74 206F 0078 	move.l 120(%sp),%a0
68K GAS   			page 47


 1591 0e78 2028 00D4 	move.l 212(%a0),%d0
 1592 0e7c 72FF      	moveq #-1,%d1
 1593 0e7e B280      	cmp.l %d0,%d1
 1594 0e80 6600 014C 	jne .L64
 685:/home/simulink/cFS_FreeRTOS_seL4/cfe/fsw/cfe-core/src/tbl/cfe_tbl_task_cmds.c ****                 {
 686:/home/simulink/cFS_FreeRTOS_seL4/cfe/fsw/cfe-core/src/tbl/cfe_tbl_task_cmds.c ****                     /* Find a free Dump Control Block */
 687:/home/simulink/cFS_FreeRTOS_seL4/cfe/fsw/cfe-core/src/tbl/cfe_tbl_task_cmds.c ****                     DumpIndex = 0;
 1595               	.loc 1 687 0
 1596 0e84 42AF 0084 	clr.l 132(%sp)
 688:/home/simulink/cFS_FreeRTOS_seL4/cfe/fsw/cfe-core/src/tbl/cfe_tbl_task_cmds.c ****                     while ((DumpIndex < CFE_TBL_MAX_SIMULTANEOUS_LOADS) &&
 1597               	.loc 1 688 0
 1598 0e88 6004      	jra .L65
 1599               	.L67:
 689:/home/simulink/cFS_FreeRTOS_seL4/cfe/fsw/cfe-core/src/tbl/cfe_tbl_task_cmds.c ****                            (CFE_TBL_TaskData.DumpControlBlocks[DumpIndex].State != CFE_TBL_DUMP_FRE
 690:/home/simulink/cFS_FreeRTOS_seL4/cfe/fsw/cfe-core/src/tbl/cfe_tbl_task_cmds.c ****                     {
 691:/home/simulink/cFS_FreeRTOS_seL4/cfe/fsw/cfe-core/src/tbl/cfe_tbl_task_cmds.c ****                         DumpIndex++;
 1600               	.loc 1 691 0
 1601 0e8a 52AF 0084 	addq.l #1,132(%sp)
 1602               	.L65:
 688:/home/simulink/cFS_FreeRTOS_seL4/cfe/fsw/cfe-core/src/tbl/cfe_tbl_task_cmds.c ****                     while ((DumpIndex < CFE_TBL_MAX_SIMULTANEOUS_LOADS) &&
 1603               	.loc 1 688 0
 1604 0e8e 7403      	moveq #3,%d2
 1605 0e90 B4AF 0084 	cmp.l 132(%sp),%d2
 1606 0e94 6D18      	jlt .L66
 689:/home/simulink/cFS_FreeRTOS_seL4/cfe/fsw/cfe-core/src/tbl/cfe_tbl_task_cmds.c ****                            (CFE_TBL_TaskData.DumpControlBlocks[DumpIndex].State != CFE_TBL_DUMP_FRE
 1607               	.loc 1 689 0 discriminator 1
 1608 0e96 202F 0084 	move.l 132(%sp),%d0
 1609 0e9a 7238      	moveq #56,%d1
 1610 0e9c 4C01 0800 	muls.l %d1,%d0
 1611 0ea0 41F9 0000 	lea CFE_TBL_TaskData+576928,%a0
 1611      0000 
 1612 0ea6 2030 0800 	move.l (%a0,%d0.l),%d0
 688:/home/simulink/cFS_FreeRTOS_seL4/cfe/fsw/cfe-core/src/tbl/cfe_tbl_task_cmds.c ****                     while ((DumpIndex < CFE_TBL_MAX_SIMULTANEOUS_LOADS) &&
 1613               	.loc 1 688 0 discriminator 1
 1614 0eaa 4A80      	tst.l %d0
 1615 0eac 66DC      	jne .L67
 1616               	.L66:
 692:/home/simulink/cFS_FreeRTOS_seL4/cfe/fsw/cfe-core/src/tbl/cfe_tbl_task_cmds.c ****                     }
 693:/home/simulink/cFS_FreeRTOS_seL4/cfe/fsw/cfe-core/src/tbl/cfe_tbl_task_cmds.c **** 
 694:/home/simulink/cFS_FreeRTOS_seL4/cfe/fsw/cfe-core/src/tbl/cfe_tbl_task_cmds.c ****                     if (DumpIndex < CFE_TBL_MAX_SIMULTANEOUS_LOADS)
 1617               	.loc 1 694 0
 1618 0eae 7403      	moveq #3,%d2
 1619 0eb0 B4AF 0084 	cmp.l 132(%sp),%d2
 1620 0eb4 6D00 00FE 	jlt .L68
 695:/home/simulink/cFS_FreeRTOS_seL4/cfe/fsw/cfe-core/src/tbl/cfe_tbl_task_cmds.c ****                     {
 696:/home/simulink/cFS_FreeRTOS_seL4/cfe/fsw/cfe-core/src/tbl/cfe_tbl_task_cmds.c ****                         /* Allocate a shared memory buffer for storing the data to be dumped */
 697:/home/simulink/cFS_FreeRTOS_seL4/cfe/fsw/cfe-core/src/tbl/cfe_tbl_task_cmds.c ****                         Status = CFE_TBL_GetWorkingBuffer(&WorkingBufferPtr, RegRecPtr, FALSE);
 1621               	.loc 1 697 0
 1622 0eb8 42A7      	clr.l -(%sp)
 1623               	.cfi_def_cfa_offset 152
 1624 0eba 2F2F 007C 	move.l 124(%sp),-(%sp)
 1625               	.cfi_def_cfa_offset 156
 1626 0ebe 200F      	move.l %sp,%d0
 1627 0ec0 0680 0000 	add.l #12,%d0
 1627      000C 
 1628 0ec6 2F00      	move.l %d0,-(%sp)
 1629               	.cfi_def_cfa_offset 160
68K GAS   			page 48


 1630 0ec8 4EB9 0000 	jsr CFE_TBL_GetWorkingBuffer
 1630      0000 
 1631 0ece 4FEF 000C 	lea (12,%sp),%sp
 1632               	.cfi_def_cfa_offset 148
 1633 0ed2 2F40 0074 	move.l %d0,116(%sp)
 698:/home/simulink/cFS_FreeRTOS_seL4/cfe/fsw/cfe-core/src/tbl/cfe_tbl_task_cmds.c ****                         
 699:/home/simulink/cFS_FreeRTOS_seL4/cfe/fsw/cfe-core/src/tbl/cfe_tbl_task_cmds.c ****                         if (Status == CFE_SUCCESS)
 1634               	.loc 1 699 0
 1635 0ed6 4AAF 0074 	tst.l 116(%sp)
 1636 0eda 6600 00B8 	jne .L69
 700:/home/simulink/cFS_FreeRTOS_seL4/cfe/fsw/cfe-core/src/tbl/cfe_tbl_task_cmds.c ****                         {
 701:/home/simulink/cFS_FreeRTOS_seL4/cfe/fsw/cfe-core/src/tbl/cfe_tbl_task_cmds.c ****                             DumpCtrlPtr = &CFE_TBL_TaskData.DumpControlBlocks[DumpIndex];
 1637               	.loc 1 701 0
 1638 0ede 202F 0084 	move.l 132(%sp),%d0
 1639 0ee2 7238      	moveq #56,%d1
 1640 0ee4 4C01 0800 	muls.l %d1,%d0
 1641 0ee8 0680 0008 	add.l #576928,%d0
 1641      CDA0 
 1642 0eee 2400      	move.l %d0,%d2
 1643 0ef0 0682 0000 	add.l #CFE_TBL_TaskData,%d2
 1643      0000 
 1644 0ef6 2F42 0070 	move.l %d2,112(%sp)
 702:/home/simulink/cFS_FreeRTOS_seL4/cfe/fsw/cfe-core/src/tbl/cfe_tbl_task_cmds.c ****                             DumpCtrlPtr->State = CFE_TBL_DUMP_PENDING;
 1645               	.loc 1 702 0
 1646 0efa 206F 0070 	move.l 112(%sp),%a0
 1647 0efe 20BC 0000 	move.l #1,(%a0)
 1647      0001 
 703:/home/simulink/cFS_FreeRTOS_seL4/cfe/fsw/cfe-core/src/tbl/cfe_tbl_task_cmds.c ****                             DumpCtrlPtr->RegRecPtr = RegRecPtr;
 1648               	.loc 1 703 0
 1649 0f04 206F 0070 	move.l 112(%sp),%a0
 1650 0f08 216F 0078 	move.l 120(%sp),12(%a0)
 1650      000C 
 704:/home/simulink/cFS_FreeRTOS_seL4/cfe/fsw/cfe-core/src/tbl/cfe_tbl_task_cmds.c ****                         
 705:/home/simulink/cFS_FreeRTOS_seL4/cfe/fsw/cfe-core/src/tbl/cfe_tbl_task_cmds.c ****                             /* Save the name of the desired dump filename, table name and size for 
 706:/home/simulink/cFS_FreeRTOS_seL4/cfe/fsw/cfe-core/src/tbl/cfe_tbl_task_cmds.c ****                             DumpCtrlPtr->DumpBufferPtr = WorkingBufferPtr;
 1651               	.loc 1 706 0
 1652 0f0e 202F 0004 	move.l 4(%sp),%d0
 1653 0f12 206F 0070 	move.l 112(%sp),%a0
 1654 0f16 2140 0008 	move.l %d0,8(%a0)
 707:/home/simulink/cFS_FreeRTOS_seL4/cfe/fsw/cfe-core/src/tbl/cfe_tbl_task_cmds.c ****                             CFE_PSP_MemCpy(DumpCtrlPtr->DumpBufferPtr->DataSource, DumpFilename, OS
 1655               	.loc 1 707 0
 1656 0f1a 206F 0070 	move.l 112(%sp),%a0
 1657 0f1e 2028 0008 	move.l 8(%a0),%d0
 1658 0f22 0680 0000 	add.l #18,%d0
 1658      0012 
 1659 0f28 4878 0040 	pea 64.w
 1660               	.cfi_def_cfa_offset 152
 1661 0f2c 220F      	move.l %sp,%d1
 1662 0f2e 0681 0000 	add.l #52,%d1
 1662      0034 
 1663 0f34 2F01      	move.l %d1,-(%sp)
 1664               	.cfi_def_cfa_offset 156
 1665 0f36 2F00      	move.l %d0,-(%sp)
 1666               	.cfi_def_cfa_offset 160
 1667 0f38 4EB9 0000 	jsr CFE_PSP_MemCpy
 1667      0000 
 1668 0f3e 4FEF 000C 	lea (12,%sp),%sp
68K GAS   			page 49


 1669               	.cfi_def_cfa_offset 148
 708:/home/simulink/cFS_FreeRTOS_seL4/cfe/fsw/cfe-core/src/tbl/cfe_tbl_task_cmds.c ****                             CFE_PSP_MemCpy(DumpCtrlPtr->TableName, TableName, CFE_TBL_MAX_FULL_NAME
 1670               	.loc 1 708 0
 1671 0f42 202F 0070 	move.l 112(%sp),%d0
 1672 0f46 0680 0000 	add.l #16,%d0
 1672      0010 
 1673 0f4c 4878 0028 	pea 40.w
 1674               	.cfi_def_cfa_offset 152
 1675 0f50 220F      	move.l %sp,%d1
 1676 0f52 0681 0000 	add.l #12,%d1
 1676      000C 
 1677 0f58 2F01      	move.l %d1,-(%sp)
 1678               	.cfi_def_cfa_offset 156
 1679 0f5a 2F00      	move.l %d0,-(%sp)
 1680               	.cfi_def_cfa_offset 160
 1681 0f5c 4EB9 0000 	jsr CFE_PSP_MemCpy
 1681      0000 
 1682 0f62 4FEF 000C 	lea (12,%sp),%sp
 1683               	.cfi_def_cfa_offset 148
 709:/home/simulink/cFS_FreeRTOS_seL4/cfe/fsw/cfe-core/src/tbl/cfe_tbl_task_cmds.c ****                             DumpCtrlPtr->Size = RegRecPtr->Size;
 1684               	.loc 1 709 0
 1685 0f66 206F 0078 	move.l 120(%sp),%a0
 1686 0f6a 2028 0004 	move.l 4(%a0),%d0
 1687 0f6e 206F 0070 	move.l 112(%sp),%a0
 1688 0f72 2140 0004 	move.l %d0,4(%a0)
 710:/home/simulink/cFS_FreeRTOS_seL4/cfe/fsw/cfe-core/src/tbl/cfe_tbl_task_cmds.c ****                         
 711:/home/simulink/cFS_FreeRTOS_seL4/cfe/fsw/cfe-core/src/tbl/cfe_tbl_task_cmds.c ****                             /* Notify the owning application that a dump is pending */
 712:/home/simulink/cFS_FreeRTOS_seL4/cfe/fsw/cfe-core/src/tbl/cfe_tbl_task_cmds.c ****                             RegRecPtr->DumpControlIndex = DumpIndex;
 1689               	.loc 1 712 0
 1690 0f76 206F 0078 	move.l 120(%sp),%a0
 1691 0f7a 216F 0084 	move.l 132(%sp),212(%a0)
 1691      00D4 
 713:/home/simulink/cFS_FreeRTOS_seL4/cfe/fsw/cfe-core/src/tbl/cfe_tbl_task_cmds.c ****                             
 714:/home/simulink/cFS_FreeRTOS_seL4/cfe/fsw/cfe-core/src/tbl/cfe_tbl_task_cmds.c ****                             /* If application requested notification by message, then do so */
 715:/home/simulink/cFS_FreeRTOS_seL4/cfe/fsw/cfe-core/src/tbl/cfe_tbl_task_cmds.c ****                             CFE_TBL_SendNotificationMsg(RegRecPtr);
 1692               	.loc 1 715 0
 1693 0f80 2F2F 0078 	move.l 120(%sp),-(%sp)
 1694               	.cfi_def_cfa_offset 152
 1695 0f84 4EB9 0000 	jsr CFE_TBL_SendNotificationMsg
 1695      0000 
 1696 0f8a 588F      	addq.l #4,%sp
 1697               	.cfi_def_cfa_offset 148
 716:/home/simulink/cFS_FreeRTOS_seL4/cfe/fsw/cfe-core/src/tbl/cfe_tbl_task_cmds.c ****                             
 717:/home/simulink/cFS_FreeRTOS_seL4/cfe/fsw/cfe-core/src/tbl/cfe_tbl_task_cmds.c ****                             /* Consider the command completed successfully */
 718:/home/simulink/cFS_FreeRTOS_seL4/cfe/fsw/cfe-core/src/tbl/cfe_tbl_task_cmds.c ****                             ReturnCode = CFE_TBL_INC_CMD_CTR;
 1698               	.loc 1 718 0
 1699 0f8c 7001      	moveq #1,%d0
 1700 0f8e 2F40 008C 	move.l %d0,140(%sp)
 1701 0f92 6078      	jra .L72
 1702               	.L69:
 719:/home/simulink/cFS_FreeRTOS_seL4/cfe/fsw/cfe-core/src/tbl/cfe_tbl_task_cmds.c ****                         }
 720:/home/simulink/cFS_FreeRTOS_seL4/cfe/fsw/cfe-core/src/tbl/cfe_tbl_task_cmds.c ****                         else
 721:/home/simulink/cFS_FreeRTOS_seL4/cfe/fsw/cfe-core/src/tbl/cfe_tbl_task_cmds.c ****                         {
 722:/home/simulink/cFS_FreeRTOS_seL4/cfe/fsw/cfe-core/src/tbl/cfe_tbl_task_cmds.c ****                             CFE_EVS_SendEvent(CFE_TBL_NO_WORK_BUFFERS_ERR_EID,
 1703               	.loc 1 722 0
 1704 0f94 200F      	move.l %sp,%d0
 1705 0f96 5080      	addq.l #8,%d0
68K GAS   			page 50


 1706 0f98 2F00      	move.l %d0,-(%sp)
 1707               	.cfi_def_cfa_offset 152
 1708 0f9a 4879 0000 	pea .LC11
 1708      0000 
 1709               	.cfi_def_cfa_offset 156
 1710 0fa0 4878 0003 	pea 3.w
 1711               	.cfi_def_cfa_offset 160
 1712 0fa4 4878 003C 	pea 60.w
 1713               	.cfi_def_cfa_offset 164
 1714 0fa8 4EB9 0000 	jsr CFE_EVS_SendEvent
 1714      0000 
 1715 0fae 4FEF 0010 	lea (16,%sp),%sp
 1716               	.cfi_def_cfa_offset 148
 1717 0fb2 6058      	jra .L72
 1718               	.L68:
 723:/home/simulink/cFS_FreeRTOS_seL4/cfe/fsw/cfe-core/src/tbl/cfe_tbl_task_cmds.c ****                                               CFE_EVS_ERROR,
 724:/home/simulink/cFS_FreeRTOS_seL4/cfe/fsw/cfe-core/src/tbl/cfe_tbl_task_cmds.c ****                                               "No working buffers available for table '%s'",
 725:/home/simulink/cFS_FreeRTOS_seL4/cfe/fsw/cfe-core/src/tbl/cfe_tbl_task_cmds.c ****                                               TableName);
 726:/home/simulink/cFS_FreeRTOS_seL4/cfe/fsw/cfe-core/src/tbl/cfe_tbl_task_cmds.c ****                         }
 727:/home/simulink/cFS_FreeRTOS_seL4/cfe/fsw/cfe-core/src/tbl/cfe_tbl_task_cmds.c ****                     }
 728:/home/simulink/cFS_FreeRTOS_seL4/cfe/fsw/cfe-core/src/tbl/cfe_tbl_task_cmds.c ****                     else
 729:/home/simulink/cFS_FreeRTOS_seL4/cfe/fsw/cfe-core/src/tbl/cfe_tbl_task_cmds.c ****                     {
 730:/home/simulink/cFS_FreeRTOS_seL4/cfe/fsw/cfe-core/src/tbl/cfe_tbl_task_cmds.c ****                         CFE_EVS_SendEvent(CFE_TBL_TOO_MANY_DUMPS_ERR_EID,
 1719               	.loc 1 730 0
 1720 0fb4 4879 0000 	pea .LC19
 1720      0000 
 1721               	.cfi_def_cfa_offset 152
 1722 0fba 4878 0003 	pea 3.w
 1723               	.cfi_def_cfa_offset 156
 1724 0fbe 4878 004C 	pea 76.w
 1725               	.cfi_def_cfa_offset 160
 1726 0fc2 4EB9 0000 	jsr CFE_EVS_SendEvent
 1726      0000 
 1727 0fc8 4FEF 000C 	lea (12,%sp),%sp
 1728               	.cfi_def_cfa_offset 148
 1729 0fcc 603E      	jra .L72
 1730               	.L64:
 731:/home/simulink/cFS_FreeRTOS_seL4/cfe/fsw/cfe-core/src/tbl/cfe_tbl_task_cmds.c ****                                           CFE_EVS_ERROR,
 732:/home/simulink/cFS_FreeRTOS_seL4/cfe/fsw/cfe-core/src/tbl/cfe_tbl_task_cmds.c ****                                           "Too many Dump Only Table Dumps have been requested");
 733:/home/simulink/cFS_FreeRTOS_seL4/cfe/fsw/cfe-core/src/tbl/cfe_tbl_task_cmds.c ****                     }
 734:/home/simulink/cFS_FreeRTOS_seL4/cfe/fsw/cfe-core/src/tbl/cfe_tbl_task_cmds.c ****                 }
 735:/home/simulink/cFS_FreeRTOS_seL4/cfe/fsw/cfe-core/src/tbl/cfe_tbl_task_cmds.c ****                 else
 736:/home/simulink/cFS_FreeRTOS_seL4/cfe/fsw/cfe-core/src/tbl/cfe_tbl_task_cmds.c ****                 {
 737:/home/simulink/cFS_FreeRTOS_seL4/cfe/fsw/cfe-core/src/tbl/cfe_tbl_task_cmds.c ****                     CFE_EVS_SendEvent(CFE_TBL_DUMP_PENDING_ERR_EID,
 1731               	.loc 1 737 0
 1732 0fce 200F      	move.l %sp,%d0
 1733 0fd0 5080      	addq.l #8,%d0
 1734 0fd2 2F00      	move.l %d0,-(%sp)
 1735               	.cfi_def_cfa_offset 152
 1736 0fd4 4879 0000 	pea .LC20
 1736      0000 
 1737               	.cfi_def_cfa_offset 156
 1738 0fda 4878 0003 	pea 3.w
 1739               	.cfi_def_cfa_offset 160
 1740 0fde 4878 004D 	pea 77.w
 1741               	.cfi_def_cfa_offset 164
 1742 0fe2 4EB9 0000 	jsr CFE_EVS_SendEvent
68K GAS   			page 51


 1742      0000 
 1743 0fe8 4FEF 0010 	lea (16,%sp),%sp
 1744               	.cfi_def_cfa_offset 148
 1745 0fec 601E      	jra .L72
 1746               	.L55:
 738:/home/simulink/cFS_FreeRTOS_seL4/cfe/fsw/cfe-core/src/tbl/cfe_tbl_task_cmds.c ****                                       CFE_EVS_ERROR,
 739:/home/simulink/cFS_FreeRTOS_seL4/cfe/fsw/cfe-core/src/tbl/cfe_tbl_task_cmds.c ****                                       "A dump for '%s' is already pending",
 740:/home/simulink/cFS_FreeRTOS_seL4/cfe/fsw/cfe-core/src/tbl/cfe_tbl_task_cmds.c ****                                       TableName);
 741:/home/simulink/cFS_FreeRTOS_seL4/cfe/fsw/cfe-core/src/tbl/cfe_tbl_task_cmds.c ****                 }
 742:/home/simulink/cFS_FreeRTOS_seL4/cfe/fsw/cfe-core/src/tbl/cfe_tbl_task_cmds.c ****             }
 743:/home/simulink/cFS_FreeRTOS_seL4/cfe/fsw/cfe-core/src/tbl/cfe_tbl_task_cmds.c ****         }
 744:/home/simulink/cFS_FreeRTOS_seL4/cfe/fsw/cfe-core/src/tbl/cfe_tbl_task_cmds.c ****     }
 745:/home/simulink/cFS_FreeRTOS_seL4/cfe/fsw/cfe-core/src/tbl/cfe_tbl_task_cmds.c ****     else /* Table could not be found in Registry */
 746:/home/simulink/cFS_FreeRTOS_seL4/cfe/fsw/cfe-core/src/tbl/cfe_tbl_task_cmds.c ****     {
 747:/home/simulink/cFS_FreeRTOS_seL4/cfe/fsw/cfe-core/src/tbl/cfe_tbl_task_cmds.c ****         CFE_EVS_SendEvent(CFE_TBL_NO_SUCH_TABLE_ERR_EID,
 1747               	.loc 1 747 0
 1748 0fee 200F      	move.l %sp,%d0
 1749 0ff0 5080      	addq.l #8,%d0
 1750 0ff2 2F00      	move.l %d0,-(%sp)
 1751               	.cfi_def_cfa_offset 152
 1752 0ff4 4879 0000 	pea .LC5
 1752      0000 
 1753               	.cfi_def_cfa_offset 156
 1754 0ffa 4878 0003 	pea 3.w
 1755               	.cfi_def_cfa_offset 160
 1756 0ffe 4878 0039 	pea 57.w
 1757               	.cfi_def_cfa_offset 164
 1758 1002 4EB9 0000 	jsr CFE_EVS_SendEvent
 1758      0000 
 1759 1008 4FEF 0010 	lea (16,%sp),%sp
 1760               	.cfi_def_cfa_offset 148
 1761               	.L72:
 748:/home/simulink/cFS_FreeRTOS_seL4/cfe/fsw/cfe-core/src/tbl/cfe_tbl_task_cmds.c ****                           CFE_EVS_ERROR,
 749:/home/simulink/cFS_FreeRTOS_seL4/cfe/fsw/cfe-core/src/tbl/cfe_tbl_task_cmds.c ****                           "Unable to locate '%s' in Table Registry",
 750:/home/simulink/cFS_FreeRTOS_seL4/cfe/fsw/cfe-core/src/tbl/cfe_tbl_task_cmds.c ****                           TableName);
 751:/home/simulink/cFS_FreeRTOS_seL4/cfe/fsw/cfe-core/src/tbl/cfe_tbl_task_cmds.c ****     }
 752:/home/simulink/cFS_FreeRTOS_seL4/cfe/fsw/cfe-core/src/tbl/cfe_tbl_task_cmds.c **** 
 753:/home/simulink/cFS_FreeRTOS_seL4/cfe/fsw/cfe-core/src/tbl/cfe_tbl_task_cmds.c ****     return ReturnCode;
 1762               	.loc 1 753 0
 1763 100c 202F 008C 	move.l 140(%sp),%d0
 754:/home/simulink/cFS_FreeRTOS_seL4/cfe/fsw/cfe-core/src/tbl/cfe_tbl_task_cmds.c **** 
 755:/home/simulink/cFS_FreeRTOS_seL4/cfe/fsw/cfe-core/src/tbl/cfe_tbl_task_cmds.c **** } /* End of CFE_TBL_DumpCmd() */
 1764               	.loc 1 755 0
 1765 1010 241F      	move.l (%sp)+,%d2
 1766 1012 4FEF 008C 	lea (140,%sp),%sp
 1767 1016 4E75      	rts
 1768               	.cfi_endproc
 1769               	.LFE65:
 1770               	.sizeCFE_TBL_DumpCmd, .-CFE_TBL_DumpCmd
 1771               	.section.rodata
 1772               	.LC21:
 1773 03e1 5461 626C 	.string"Table Dump Image"
 1773      6520 4475 
 1773      6D70 2049 
 1773      6D61 6765 
 1773      00
 1774               	.LC22:
68K GAS   			page 52


 1775 03f2 5375 6363 	.string"Successfully overwrote '%s' with Table '%s'"
 1775      6573 7366 
 1775      756C 6C79 
 1775      206F 7665 
 1775      7277 726F 
 1776               	.LC23:
 1777 041e 5375 6363 	.string"Successfully dumped Table '%s' to '%s'"
 1777      6573 7366 
 1777      756C 6C79 
 1777      2064 756D 
 1777      7065 6420 
 1778               	.LC24:
 1779 0445 4572 726F 	.string"Error writing Tbl image to '%s', Status=0x%08X"
 1779      7220 7772 
 1779      6974 696E 
 1779      6720 5462 
 1779      6C20 696D 
 1780               	.LC25:
 1781 0474 4572 726F 	.string"Error writing Tbl image File Header to '%s', Status=0x%08X"
 1781      7220 7772 
 1781      6974 696E 
 1781      6720 5462 
 1781      6C20 696D 
 1782               	.LC26:
 1783 04af 4572 726F 	.string"Error writing cFE File Header to '%s', Status=0x%08X"
 1783      7220 7772 
 1783      6974 696E 
 1783      6720 6346 
 1783      4520 4669 
 1784               	.LC27:
 1785 04e4 4572 726F 	.string"Error creating dump file '%s', Status=0x%08X"
 1785      7220 6372 
 1785      6561 7469 
 1785      6E67 2064 
 1785      756D 7020 
 1786               	.text
 1787               	.align2
 1788               	.globlCFE_TBL_DumpToFile
 1789               	.typeCFE_TBL_DumpToFile, @function
 1790               	CFE_TBL_DumpToFile:
 1791               	.LFB66:
 756:/home/simulink/cFS_FreeRTOS_seL4/cfe/fsw/cfe-core/src/tbl/cfe_tbl_task_cmds.c **** 
 757:/home/simulink/cFS_FreeRTOS_seL4/cfe/fsw/cfe-core/src/tbl/cfe_tbl_task_cmds.c **** 
 758:/home/simulink/cFS_FreeRTOS_seL4/cfe/fsw/cfe-core/src/tbl/cfe_tbl_task_cmds.c **** /*******************************************************************
 759:/home/simulink/cFS_FreeRTOS_seL4/cfe/fsw/cfe-core/src/tbl/cfe_tbl_task_cmds.c **** **
 760:/home/simulink/cFS_FreeRTOS_seL4/cfe/fsw/cfe-core/src/tbl/cfe_tbl_task_cmds.c **** ** CFE_TBL_DumpToFile() -- Write table data to a file
 761:/home/simulink/cFS_FreeRTOS_seL4/cfe/fsw/cfe-core/src/tbl/cfe_tbl_task_cmds.c **** **
 762:/home/simulink/cFS_FreeRTOS_seL4/cfe/fsw/cfe-core/src/tbl/cfe_tbl_task_cmds.c **** ** NOTE: For complete prolog information, see prototype above
 763:/home/simulink/cFS_FreeRTOS_seL4/cfe/fsw/cfe-core/src/tbl/cfe_tbl_task_cmds.c **** ********************************************************************/
 764:/home/simulink/cFS_FreeRTOS_seL4/cfe/fsw/cfe-core/src/tbl/cfe_tbl_task_cmds.c **** 
 765:/home/simulink/cFS_FreeRTOS_seL4/cfe/fsw/cfe-core/src/tbl/cfe_tbl_task_cmds.c **** CFE_TBL_CmdProcRet_t CFE_TBL_DumpToFile( const char *DumpFilename, const char *TableName, void *Dum
 766:/home/simulink/cFS_FreeRTOS_seL4/cfe/fsw/cfe-core/src/tbl/cfe_tbl_task_cmds.c **** {
 1792               	.loc 1 766 0
 1793               	.cfi_startproc
 1794 1018 4FEF FF78 	lea (-136,%sp),%sp
 1795               	.cfi_def_cfa_offset 140
 767:/home/simulink/cFS_FreeRTOS_seL4/cfe/fsw/cfe-core/src/tbl/cfe_tbl_task_cmds.c ****     CFE_TBL_CmdProcRet_t        ReturnCode = CFE_TBL_INC_ERR_CTR;        /* Assume failure */
68K GAS   			page 53


 1796               	.loc 1 767 0
 1797 101c 70FF      	moveq #-1,%d0
 1798 101e 2F40 0084 	move.l %d0,132(%sp)
 768:/home/simulink/cFS_FreeRTOS_seL4/cfe/fsw/cfe-core/src/tbl/cfe_tbl_task_cmds.c ****     boolean                     FileExistedPrev = FALSE;
 1799               	.loc 1 768 0
 1800 1022 4201      	clr.b %d1
 1801 1024 1F41 0083 	move.b %d1,131(%sp)
 769:/home/simulink/cFS_FreeRTOS_seL4/cfe/fsw/cfe-core/src/tbl/cfe_tbl_task_cmds.c ****     CFE_FS_Header_t             StdFileHeader;
 770:/home/simulink/cFS_FreeRTOS_seL4/cfe/fsw/cfe-core/src/tbl/cfe_tbl_task_cmds.c ****     CFE_TBL_File_Hdr_t          TblFileHeader;
 771:/home/simulink/cFS_FreeRTOS_seL4/cfe/fsw/cfe-core/src/tbl/cfe_tbl_task_cmds.c ****     int32                       FileDescriptor;
 772:/home/simulink/cFS_FreeRTOS_seL4/cfe/fsw/cfe-core/src/tbl/cfe_tbl_task_cmds.c ****     int32                       Status;
 773:/home/simulink/cFS_FreeRTOS_seL4/cfe/fsw/cfe-core/src/tbl/cfe_tbl_task_cmds.c ****     int32                       EndianCheck = 0x01020304;
 1802               	.loc 1 773 0
 1803 1028 2EBC 0102 	move.l #16909060,(%sp)
 1803      0304 
 774:/home/simulink/cFS_FreeRTOS_seL4/cfe/fsw/cfe-core/src/tbl/cfe_tbl_task_cmds.c ****     
 775:/home/simulink/cFS_FreeRTOS_seL4/cfe/fsw/cfe-core/src/tbl/cfe_tbl_task_cmds.c ****     /* Clear Header of any garbage before copying content */
 776:/home/simulink/cFS_FreeRTOS_seL4/cfe/fsw/cfe-core/src/tbl/cfe_tbl_task_cmds.c ****     CFE_PSP_MemSet(&TblFileHeader, 0, sizeof(CFE_TBL_File_Hdr_t));
 1804               	.loc 1 776 0
 1805 102e 4878 0034 	pea 52.w
 1806               	.cfi_def_cfa_offset 144
 1807 1032 42A7      	clr.l -(%sp)
 1808               	.cfi_def_cfa_offset 148
 1809 1034 200F      	move.l %sp,%d0
 1810 1036 0680 0000 	add.l #12,%d0
 1810      000C 
 1811 103c 2F00      	move.l %d0,-(%sp)
 1812               	.cfi_def_cfa_offset 152
 1813 103e 4EB9 0000 	jsr CFE_PSP_MemSet
 1813      0000 
 1814 1044 4FEF 000C 	lea (12,%sp),%sp
 1815               	.cfi_def_cfa_offset 140
 777:/home/simulink/cFS_FreeRTOS_seL4/cfe/fsw/cfe-core/src/tbl/cfe_tbl_task_cmds.c **** 
 778:/home/simulink/cFS_FreeRTOS_seL4/cfe/fsw/cfe-core/src/tbl/cfe_tbl_task_cmds.c ****     /* Check to see if the dump file already exists */
 779:/home/simulink/cFS_FreeRTOS_seL4/cfe/fsw/cfe-core/src/tbl/cfe_tbl_task_cmds.c ****     FileDescriptor = OS_open(DumpFilename, OS_READ_ONLY, 0);
 1816               	.loc 1 779 0
 1817 1048 42A7      	clr.l -(%sp)
 1818               	.cfi_def_cfa_offset 144
 1819 104a 42A7      	clr.l -(%sp)
 1820               	.cfi_def_cfa_offset 148
 1821 104c 2F2F 0094 	move.l 148(%sp),-(%sp)
 1822               	.cfi_def_cfa_offset 152
 1823 1050 4EB9 0000 	jsr OS_open
 1823      0000 
 1824 1056 4FEF 000C 	lea (12,%sp),%sp
 1825               	.cfi_def_cfa_offset 140
 1826 105a 2F40 007C 	move.l %d0,124(%sp)
 780:/home/simulink/cFS_FreeRTOS_seL4/cfe/fsw/cfe-core/src/tbl/cfe_tbl_task_cmds.c **** 
 781:/home/simulink/cFS_FreeRTOS_seL4/cfe/fsw/cfe-core/src/tbl/cfe_tbl_task_cmds.c ****     if (FileDescriptor >= 0)
 1827               	.loc 1 781 0
 1828 105e 4AAF 007C 	tst.l 124(%sp)
 1829 1062 6D12      	jlt .L75
 782:/home/simulink/cFS_FreeRTOS_seL4/cfe/fsw/cfe-core/src/tbl/cfe_tbl_task_cmds.c ****     {
 783:/home/simulink/cFS_FreeRTOS_seL4/cfe/fsw/cfe-core/src/tbl/cfe_tbl_task_cmds.c ****         FileExistedPrev = TRUE;
 1830               	.loc 1 783 0
 1831 1064 7001      	moveq #1,%d0
 1832 1066 1F40 0083 	move.b %d0,131(%sp)
68K GAS   			page 54


 784:/home/simulink/cFS_FreeRTOS_seL4/cfe/fsw/cfe-core/src/tbl/cfe_tbl_task_cmds.c **** 
 785:/home/simulink/cFS_FreeRTOS_seL4/cfe/fsw/cfe-core/src/tbl/cfe_tbl_task_cmds.c ****         OS_close(FileDescriptor);
 1833               	.loc 1 785 0
 1834 106a 2F2F 007C 	move.l 124(%sp),-(%sp)
 1835               	.cfi_def_cfa_offset 144
 1836 106e 4EB9 0000 	jsr OS_close
 1836      0000 
 1837 1074 588F      	addq.l #4,%sp
 1838               	.cfi_def_cfa_offset 140
 1839               	.L75:
 786:/home/simulink/cFS_FreeRTOS_seL4/cfe/fsw/cfe-core/src/tbl/cfe_tbl_task_cmds.c ****     }
 787:/home/simulink/cFS_FreeRTOS_seL4/cfe/fsw/cfe-core/src/tbl/cfe_tbl_task_cmds.c **** 
 788:/home/simulink/cFS_FreeRTOS_seL4/cfe/fsw/cfe-core/src/tbl/cfe_tbl_task_cmds.c ****     /* Create a new dump file, overwriting anything that may have existed previously */
 789:/home/simulink/cFS_FreeRTOS_seL4/cfe/fsw/cfe-core/src/tbl/cfe_tbl_task_cmds.c ****     FileDescriptor = OS_creat(DumpFilename, OS_WRITE_ONLY);
 1840               	.loc 1 789 0
 1841 1076 4878 0001 	pea 1.w
 1842               	.cfi_def_cfa_offset 144
 1843 107a 2F2F 0090 	move.l 144(%sp),-(%sp)
 1844               	.cfi_def_cfa_offset 148
 1845 107e 4EB9 0000 	jsr OS_creat
 1845      0000 
 1846 1084 508F      	addq.l #8,%sp
 1847               	.cfi_def_cfa_offset 140
 1848 1086 2F40 007C 	move.l %d0,124(%sp)
 790:/home/simulink/cFS_FreeRTOS_seL4/cfe/fsw/cfe-core/src/tbl/cfe_tbl_task_cmds.c **** 
 791:/home/simulink/cFS_FreeRTOS_seL4/cfe/fsw/cfe-core/src/tbl/cfe_tbl_task_cmds.c ****     if (FileDescriptor >= OS_FS_SUCCESS)
 1849               	.loc 1 791 0
 1850 108a 4AAF 007C 	tst.l 124(%sp)
 1851 108e 6D00 01B8 	jlt .L76
 792:/home/simulink/cFS_FreeRTOS_seL4/cfe/fsw/cfe-core/src/tbl/cfe_tbl_task_cmds.c ****     {
 793:/home/simulink/cFS_FreeRTOS_seL4/cfe/fsw/cfe-core/src/tbl/cfe_tbl_task_cmds.c ****         /* Initialize the standard cFE File Header for the Dump File */
 794:/home/simulink/cFS_FreeRTOS_seL4/cfe/fsw/cfe-core/src/tbl/cfe_tbl_task_cmds.c ****         CFE_FS_InitHeader(&StdFileHeader, "Table Dump Image", CFE_FS_TBL_IMG_SUBTYPE);
 1852               	.loc 1 794 0
 1853 1092 4878 0008 	pea 8.w
 1854               	.cfi_def_cfa_offset 144
 1855 1096 4879 0000 	pea .LC21
 1855      0000 
 1856               	.cfi_def_cfa_offset 148
 1857 109c 200F      	move.l %sp,%d0
 1858 109e 0680 0000 	add.l #64,%d0
 1858      0040 
 1859 10a4 2F00      	move.l %d0,-(%sp)
 1860               	.cfi_def_cfa_offset 152
 1861 10a6 4EB9 0000 	jsr CFE_FS_InitHeader
 1861      0000 
 1862 10ac 4FEF 000C 	lea (12,%sp),%sp
 1863               	.cfi_def_cfa_offset 140
 795:/home/simulink/cFS_FreeRTOS_seL4/cfe/fsw/cfe-core/src/tbl/cfe_tbl_task_cmds.c **** 
 796:/home/simulink/cFS_FreeRTOS_seL4/cfe/fsw/cfe-core/src/tbl/cfe_tbl_task_cmds.c ****         /* Output the Standard cFE File Header to the Dump File */
 797:/home/simulink/cFS_FreeRTOS_seL4/cfe/fsw/cfe-core/src/tbl/cfe_tbl_task_cmds.c ****         Status = CFE_FS_WriteHeader(FileDescriptor, &StdFileHeader);
 1864               	.loc 1 797 0
 1865 10b0 200F      	move.l %sp,%d0
 1866 10b2 0680 0000 	add.l #56,%d0
 1866      0038 
 1867 10b8 2F00      	move.l %d0,-(%sp)
 1868               	.cfi_def_cfa_offset 144
 1869 10ba 2F2F 0080 	move.l 128(%sp),-(%sp)
68K GAS   			page 55


 1870               	.cfi_def_cfa_offset 148
 1871 10be 4EB9 0000 	jsr CFE_FS_WriteHeader
 1871      0000 
 1872 10c4 508F      	addq.l #8,%sp
 1873               	.cfi_def_cfa_offset 140
 1874 10c6 2F40 0078 	move.l %d0,120(%sp)
 798:/home/simulink/cFS_FreeRTOS_seL4/cfe/fsw/cfe-core/src/tbl/cfe_tbl_task_cmds.c **** 
 799:/home/simulink/cFS_FreeRTOS_seL4/cfe/fsw/cfe-core/src/tbl/cfe_tbl_task_cmds.c ****         if (Status == sizeof(CFE_FS_Header_t))
 1875               	.loc 1 799 0
 1876 10ca 7240      	moveq #64,%d1
 1877 10cc B2AF 0078 	cmp.l 120(%sp),%d1
 1878 10d0 6600 0146 	jne .L77
 800:/home/simulink/cFS_FreeRTOS_seL4/cfe/fsw/cfe-core/src/tbl/cfe_tbl_task_cmds.c ****         {
 801:/home/simulink/cFS_FreeRTOS_seL4/cfe/fsw/cfe-core/src/tbl/cfe_tbl_task_cmds.c ****             /* Initialize the Table Image Header for the Dump File */
 802:/home/simulink/cFS_FreeRTOS_seL4/cfe/fsw/cfe-core/src/tbl/cfe_tbl_task_cmds.c ****             strncpy(TblFileHeader.TableName, TableName, sizeof(TblFileHeader.TableName));
 1879               	.loc 1 802 0
 1880 10d4 4878 0028 	pea 40.w
 1881               	.cfi_def_cfa_offset 144
 1882 10d8 2F2F 0094 	move.l 148(%sp),-(%sp)
 1883               	.cfi_def_cfa_offset 148
 1884 10dc 200F      	move.l %sp,%d0
 1885 10de 0680 0000 	add.l #12,%d0
 1885      000C 
 1886 10e4 0680 0000 	add.l #12,%d0
 1886      000C 
 1887 10ea 2F00      	move.l %d0,-(%sp)
 1888               	.cfi_def_cfa_offset 152
 1889 10ec 4EB9 0000 	jsr strncpy
 1889      0000 
 1890 10f2 4FEF 000C 	lea (12,%sp),%sp
 1891               	.cfi_def_cfa_offset 140
 803:/home/simulink/cFS_FreeRTOS_seL4/cfe/fsw/cfe-core/src/tbl/cfe_tbl_task_cmds.c ****             TblFileHeader.Offset = 0;
 1892               	.loc 1 803 0
 1893 10f6 42AF 0008 	clr.l 8(%sp)
 804:/home/simulink/cFS_FreeRTOS_seL4/cfe/fsw/cfe-core/src/tbl/cfe_tbl_task_cmds.c ****             TblFileHeader.NumBytes = TblSizeInBytes;
 1894               	.loc 1 804 0
 1895 10fa 2F6F 0098 	move.l 152(%sp),12(%sp)
 1895      000C 
 805:/home/simulink/cFS_FreeRTOS_seL4/cfe/fsw/cfe-core/src/tbl/cfe_tbl_task_cmds.c ****             TblFileHeader.Reserved = 0;
 1896               	.loc 1 805 0
 1897 1100 42AF 0004 	clr.l 4(%sp)
 806:/home/simulink/cFS_FreeRTOS_seL4/cfe/fsw/cfe-core/src/tbl/cfe_tbl_task_cmds.c ****             
 807:/home/simulink/cFS_FreeRTOS_seL4/cfe/fsw/cfe-core/src/tbl/cfe_tbl_task_cmds.c ****             /* Determine if this is a little endian processor */
 808:/home/simulink/cFS_FreeRTOS_seL4/cfe/fsw/cfe-core/src/tbl/cfe_tbl_task_cmds.c ****             if ((*(char *)&EndianCheck) == 0x04)
 1898               	.loc 1 808 0
 1899 1104 204F      	move.l %sp,%a0
 1900 1106 1010      	move.b (%a0),%d0
 1901 1108 49C0      	extb.l %d0
 1902 110a 7204      	moveq #4,%d1
 1903 110c B280      	cmp.l %d0,%d1
 1904 110e 660E      	jne .L78
 809:/home/simulink/cFS_FreeRTOS_seL4/cfe/fsw/cfe-core/src/tbl/cfe_tbl_task_cmds.c ****             {
 810:/home/simulink/cFS_FreeRTOS_seL4/cfe/fsw/cfe-core/src/tbl/cfe_tbl_task_cmds.c ****                 /* If this is a little endian processor, then byte swap the header to a big endian 
 811:/home/simulink/cFS_FreeRTOS_seL4/cfe/fsw/cfe-core/src/tbl/cfe_tbl_task_cmds.c ****                 /* to maintain the cFE Header standards */
 812:/home/simulink/cFS_FreeRTOS_seL4/cfe/fsw/cfe-core/src/tbl/cfe_tbl_task_cmds.c ****                 /* NOTE: FOR THE REMAINDER OF THIS FUNCTION, THE CONTENTS OF THE HEADER IS UNREADAB
 813:/home/simulink/cFS_FreeRTOS_seL4/cfe/fsw/cfe-core/src/tbl/cfe_tbl_task_cmds.c ****                 /*       THIS PROCESSOR!  THE DATA WOULD NEED TO BE SWAPPED BACK BEFORE READING.   
 814:/home/simulink/cFS_FreeRTOS_seL4/cfe/fsw/cfe-core/src/tbl/cfe_tbl_task_cmds.c ****                 CFE_TBL_ByteSwapTblHeader(&TblFileHeader);
68K GAS   			page 56


 1905               	.loc 1 814 0
 1906 1110 200F      	move.l %sp,%d0
 1907 1112 5880      	addq.l #4,%d0
 1908 1114 2F00      	move.l %d0,-(%sp)
 1909               	.cfi_def_cfa_offset 144
 1910 1116 4EB9 0000 	jsr CFE_TBL_ByteSwapTblHeader
 1910      0000 
 1911 111c 588F      	addq.l #4,%sp
 1912               	.cfi_def_cfa_offset 140
 1913               	.L78:
 815:/home/simulink/cFS_FreeRTOS_seL4/cfe/fsw/cfe-core/src/tbl/cfe_tbl_task_cmds.c ****             }
 816:/home/simulink/cFS_FreeRTOS_seL4/cfe/fsw/cfe-core/src/tbl/cfe_tbl_task_cmds.c **** 
 817:/home/simulink/cFS_FreeRTOS_seL4/cfe/fsw/cfe-core/src/tbl/cfe_tbl_task_cmds.c ****             /* Output the Table Image Header to the Dump File */
 818:/home/simulink/cFS_FreeRTOS_seL4/cfe/fsw/cfe-core/src/tbl/cfe_tbl_task_cmds.c ****             Status = OS_write(FileDescriptor, &TblFileHeader, sizeof(CFE_TBL_File_Hdr_t));
 1914               	.loc 1 818 0
 1915 111e 4878 0034 	pea 52.w
 1916               	.cfi_def_cfa_offset 144
 1917 1122 200F      	move.l %sp,%d0
 1918 1124 5080      	addq.l #8,%d0
 1919 1126 2F00      	move.l %d0,-(%sp)
 1920               	.cfi_def_cfa_offset 148
 1921 1128 2F2F 0084 	move.l 132(%sp),-(%sp)
 1922               	.cfi_def_cfa_offset 152
 1923 112c 4EB9 0000 	jsr OS_write
 1923      0000 
 1924 1132 4FEF 000C 	lea (12,%sp),%sp
 1925               	.cfi_def_cfa_offset 140
 1926 1136 2F40 0078 	move.l %d0,120(%sp)
 819:/home/simulink/cFS_FreeRTOS_seL4/cfe/fsw/cfe-core/src/tbl/cfe_tbl_task_cmds.c **** 
 820:/home/simulink/cFS_FreeRTOS_seL4/cfe/fsw/cfe-core/src/tbl/cfe_tbl_task_cmds.c ****             /* Make sure the header was output completely */
 821:/home/simulink/cFS_FreeRTOS_seL4/cfe/fsw/cfe-core/src/tbl/cfe_tbl_task_cmds.c ****             if (Status == sizeof(CFE_TBL_File_Hdr_t))
 1927               	.loc 1 821 0
 1928 113a 7034      	moveq #52,%d0
 1929 113c B0AF 0078 	cmp.l 120(%sp),%d0
 1930 1140 6600 00B2 	jne .L79
 822:/home/simulink/cFS_FreeRTOS_seL4/cfe/fsw/cfe-core/src/tbl/cfe_tbl_task_cmds.c ****             {
 823:/home/simulink/cFS_FreeRTOS_seL4/cfe/fsw/cfe-core/src/tbl/cfe_tbl_task_cmds.c ****                 /* Output the requested data to the dump file */
 824:/home/simulink/cFS_FreeRTOS_seL4/cfe/fsw/cfe-core/src/tbl/cfe_tbl_task_cmds.c ****                 /* Output the active table image data to the dump file */
 825:/home/simulink/cFS_FreeRTOS_seL4/cfe/fsw/cfe-core/src/tbl/cfe_tbl_task_cmds.c ****                 Status = OS_write(FileDescriptor,
 1931               	.loc 1 825 0
 1932 1144 2F2F 0098 	move.l 152(%sp),-(%sp)
 1933               	.cfi_def_cfa_offset 144
 1934 1148 2F2F 0098 	move.l 152(%sp),-(%sp)
 1935               	.cfi_def_cfa_offset 148
 1936 114c 2F2F 0084 	move.l 132(%sp),-(%sp)
 1937               	.cfi_def_cfa_offset 152
 1938 1150 4EB9 0000 	jsr OS_write
 1938      0000 
 1939 1156 4FEF 000C 	lea (12,%sp),%sp
 1940               	.cfi_def_cfa_offset 140
 1941 115a 2F40 0078 	move.l %d0,120(%sp)
 826:/home/simulink/cFS_FreeRTOS_seL4/cfe/fsw/cfe-core/src/tbl/cfe_tbl_task_cmds.c ****                                   DumpDataAddr,
 827:/home/simulink/cFS_FreeRTOS_seL4/cfe/fsw/cfe-core/src/tbl/cfe_tbl_task_cmds.c ****                                   TblSizeInBytes);
 828:/home/simulink/cFS_FreeRTOS_seL4/cfe/fsw/cfe-core/src/tbl/cfe_tbl_task_cmds.c **** 
 829:/home/simulink/cFS_FreeRTOS_seL4/cfe/fsw/cfe-core/src/tbl/cfe_tbl_task_cmds.c ****                 if (Status == (int32)TblSizeInBytes)
 1942               	.loc 1 829 0
 1943 115e 202F 0098 	move.l 152(%sp),%d0
68K GAS   			page 57


 1944 1162 B0AF 0078 	cmp.l 120(%sp),%d0
 1945 1166 6668      	jne .L80
 830:/home/simulink/cFS_FreeRTOS_seL4/cfe/fsw/cfe-core/src/tbl/cfe_tbl_task_cmds.c ****                 {
 831:/home/simulink/cFS_FreeRTOS_seL4/cfe/fsw/cfe-core/src/tbl/cfe_tbl_task_cmds.c ****                     if (FileExistedPrev)
 1946               	.loc 1 831 0
 1947 1168 4A2F 0083 	tst.b 131(%sp)
 1948 116c 6722      	jeq .L81
 832:/home/simulink/cFS_FreeRTOS_seL4/cfe/fsw/cfe-core/src/tbl/cfe_tbl_task_cmds.c ****                     {
 833:/home/simulink/cFS_FreeRTOS_seL4/cfe/fsw/cfe-core/src/tbl/cfe_tbl_task_cmds.c ****                         CFE_EVS_SendEvent(CFE_TBL_OVERWRITE_DUMP_INF_EID,
 1949               	.loc 1 833 0
 1950 116e 2F2F 0090 	move.l 144(%sp),-(%sp)
 1951               	.cfi_def_cfa_offset 144
 1952 1172 2F2F 0090 	move.l 144(%sp),-(%sp)
 1953               	.cfi_def_cfa_offset 148
 1954 1176 4879 0000 	pea .LC22
 1954      0000 
 1955               	.cfi_def_cfa_offset 152
 1956 117c 4878 0002 	pea 2.w
 1957               	.cfi_def_cfa_offset 156
 1958 1180 4878 000D 	pea 13.w
 1959               	.cfi_def_cfa_offset 160
 1960 1184 4EB9 0000 	jsr CFE_EVS_SendEvent
 1960      0000 
 1961 118a 4FEF 0014 	lea (20,%sp),%sp
 1962               	.cfi_def_cfa_offset 140
 1963 118e 6020      	jra .L82
 1964               	.L81:
 834:/home/simulink/cFS_FreeRTOS_seL4/cfe/fsw/cfe-core/src/tbl/cfe_tbl_task_cmds.c ****                                           CFE_EVS_INFORMATION,
 835:/home/simulink/cFS_FreeRTOS_seL4/cfe/fsw/cfe-core/src/tbl/cfe_tbl_task_cmds.c ****                                           "Successfully overwrote '%s' with Table '%s'",
 836:/home/simulink/cFS_FreeRTOS_seL4/cfe/fsw/cfe-core/src/tbl/cfe_tbl_task_cmds.c ****                                           DumpFilename, TableName);
 837:/home/simulink/cFS_FreeRTOS_seL4/cfe/fsw/cfe-core/src/tbl/cfe_tbl_task_cmds.c ****                     }
 838:/home/simulink/cFS_FreeRTOS_seL4/cfe/fsw/cfe-core/src/tbl/cfe_tbl_task_cmds.c ****                     else
 839:/home/simulink/cFS_FreeRTOS_seL4/cfe/fsw/cfe-core/src/tbl/cfe_tbl_task_cmds.c ****                     {
 840:/home/simulink/cFS_FreeRTOS_seL4/cfe/fsw/cfe-core/src/tbl/cfe_tbl_task_cmds.c ****                         CFE_EVS_SendEvent(CFE_TBL_WRITE_DUMP_INF_EID,
 1965               	.loc 1 840 0
 1966 1190 2F2F 008C 	move.l 140(%sp),-(%sp)
 1967               	.cfi_def_cfa_offset 144
 1968 1194 2F2F 0094 	move.l 148(%sp),-(%sp)
 1969               	.cfi_def_cfa_offset 148
 1970 1198 4879 0000 	pea .LC23
 1970      0000 
 1971               	.cfi_def_cfa_offset 152
 1972 119e 4878 0002 	pea 2.w
 1973               	.cfi_def_cfa_offset 156
 1974 11a2 4878 000E 	pea 14.w
 1975               	.cfi_def_cfa_offset 160
 1976 11a6 4EB9 0000 	jsr CFE_EVS_SendEvent
 1976      0000 
 1977 11ac 4FEF 0014 	lea (20,%sp),%sp
 1978               	.cfi_def_cfa_offset 140
 1979               	.L82:
 841:/home/simulink/cFS_FreeRTOS_seL4/cfe/fsw/cfe-core/src/tbl/cfe_tbl_task_cmds.c ****                                           CFE_EVS_INFORMATION,
 842:/home/simulink/cFS_FreeRTOS_seL4/cfe/fsw/cfe-core/src/tbl/cfe_tbl_task_cmds.c ****                                           "Successfully dumped Table '%s' to '%s'",
 843:/home/simulink/cFS_FreeRTOS_seL4/cfe/fsw/cfe-core/src/tbl/cfe_tbl_task_cmds.c ****                                           TableName, DumpFilename);
 844:/home/simulink/cFS_FreeRTOS_seL4/cfe/fsw/cfe-core/src/tbl/cfe_tbl_task_cmds.c ****                     }
 845:/home/simulink/cFS_FreeRTOS_seL4/cfe/fsw/cfe-core/src/tbl/cfe_tbl_task_cmds.c **** 
 846:/home/simulink/cFS_FreeRTOS_seL4/cfe/fsw/cfe-core/src/tbl/cfe_tbl_task_cmds.c ****                     /* Save file information statistics for housekeeping telemetry */
68K GAS   			page 58


 847:/home/simulink/cFS_FreeRTOS_seL4/cfe/fsw/cfe-core/src/tbl/cfe_tbl_task_cmds.c ****                     strncpy(CFE_TBL_TaskData.HkPacket.Payload.LastFileDumped, DumpFilename,
 1980               	.loc 1 847 0
 1981 11b0 4878 0040 	pea 64.w
 1982               	.cfi_def_cfa_offset 144
 1983 11b4 2F2F 0090 	move.l 144(%sp),-(%sp)
 1984               	.cfi_def_cfa_offset 148
 1985 11b8 4879 0000 	pea CFE_TBL_TaskData+200
 1985      0000 
 1986               	.cfi_def_cfa_offset 152
 1987 11be 4EB9 0000 	jsr strncpy
 1987      0000 
 1988 11c4 4FEF 000C 	lea (12,%sp),%sp
 1989               	.cfi_def_cfa_offset 140
 848:/home/simulink/cFS_FreeRTOS_seL4/cfe/fsw/cfe-core/src/tbl/cfe_tbl_task_cmds.c ****                             sizeof(CFE_TBL_TaskData.HkPacket.Payload.LastFileDumped));
 849:/home/simulink/cFS_FreeRTOS_seL4/cfe/fsw/cfe-core/src/tbl/cfe_tbl_task_cmds.c **** 
 850:/home/simulink/cFS_FreeRTOS_seL4/cfe/fsw/cfe-core/src/tbl/cfe_tbl_task_cmds.c ****                     /* Increment Successful Command Counter */
 851:/home/simulink/cFS_FreeRTOS_seL4/cfe/fsw/cfe-core/src/tbl/cfe_tbl_task_cmds.c ****                     ReturnCode = CFE_TBL_INC_CMD_CTR;
 1990               	.loc 1 851 0
 1991 11c8 7201      	moveq #1,%d1
 1992 11ca 2F41 0084 	move.l %d1,132(%sp)
 1993 11ce 606A      	jra .L85
 1994               	.L80:
 852:/home/simulink/cFS_FreeRTOS_seL4/cfe/fsw/cfe-core/src/tbl/cfe_tbl_task_cmds.c ****                 }
 853:/home/simulink/cFS_FreeRTOS_seL4/cfe/fsw/cfe-core/src/tbl/cfe_tbl_task_cmds.c ****                 else
 854:/home/simulink/cFS_FreeRTOS_seL4/cfe/fsw/cfe-core/src/tbl/cfe_tbl_task_cmds.c ****                 {
 855:/home/simulink/cFS_FreeRTOS_seL4/cfe/fsw/cfe-core/src/tbl/cfe_tbl_task_cmds.c ****                     CFE_EVS_SendEvent(CFE_TBL_WRITE_TBL_IMG_ERR_EID,
 1995               	.loc 1 855 0
 1996 11d0 202F 0078 	move.l 120(%sp),%d0
 1997 11d4 2F00      	move.l %d0,-(%sp)
 1998               	.cfi_def_cfa_offset 144
 1999 11d6 2F2F 0090 	move.l 144(%sp),-(%sp)
 2000               	.cfi_def_cfa_offset 148
 2001 11da 4879 0000 	pea .LC24
 2001      0000 
 2002               	.cfi_def_cfa_offset 152
 2003 11e0 4878 0003 	pea 3.w
 2004               	.cfi_def_cfa_offset 156
 2005 11e4 4878 0041 	pea 65.w
 2006               	.cfi_def_cfa_offset 160
 2007 11e8 4EB9 0000 	jsr CFE_EVS_SendEvent
 2007      0000 
 2008 11ee 4FEF 0014 	lea (20,%sp),%sp
 2009               	.cfi_def_cfa_offset 140
 2010 11f2 6046      	jra .L85
 2011               	.L79:
 856:/home/simulink/cFS_FreeRTOS_seL4/cfe/fsw/cfe-core/src/tbl/cfe_tbl_task_cmds.c ****                                       CFE_EVS_ERROR,
 857:/home/simulink/cFS_FreeRTOS_seL4/cfe/fsw/cfe-core/src/tbl/cfe_tbl_task_cmds.c ****                                       "Error writing Tbl image to '%s', Status=0x%08X",
 858:/home/simulink/cFS_FreeRTOS_seL4/cfe/fsw/cfe-core/src/tbl/cfe_tbl_task_cmds.c ****                                       DumpFilename, (unsigned int)Status);
 859:/home/simulink/cFS_FreeRTOS_seL4/cfe/fsw/cfe-core/src/tbl/cfe_tbl_task_cmds.c ****                 }
 860:/home/simulink/cFS_FreeRTOS_seL4/cfe/fsw/cfe-core/src/tbl/cfe_tbl_task_cmds.c ****             }
 861:/home/simulink/cFS_FreeRTOS_seL4/cfe/fsw/cfe-core/src/tbl/cfe_tbl_task_cmds.c ****             else
 862:/home/simulink/cFS_FreeRTOS_seL4/cfe/fsw/cfe-core/src/tbl/cfe_tbl_task_cmds.c ****             {
 863:/home/simulink/cFS_FreeRTOS_seL4/cfe/fsw/cfe-core/src/tbl/cfe_tbl_task_cmds.c ****                 CFE_EVS_SendEvent(CFE_TBL_WRITE_TBL_HDR_ERR_EID,
 2012               	.loc 1 863 0
 2013 11f4 202F 0078 	move.l 120(%sp),%d0
 2014 11f8 2F00      	move.l %d0,-(%sp)
 2015               	.cfi_def_cfa_offset 144
68K GAS   			page 59


 2016 11fa 2F2F 0090 	move.l 144(%sp),-(%sp)
 2017               	.cfi_def_cfa_offset 148
 2018 11fe 4879 0000 	pea .LC25
 2018      0000 
 2019               	.cfi_def_cfa_offset 152
 2020 1204 4878 0003 	pea 3.w
 2021               	.cfi_def_cfa_offset 156
 2022 1208 4878 0040 	pea 64.w
 2023               	.cfi_def_cfa_offset 160
 2024 120c 4EB9 0000 	jsr CFE_EVS_SendEvent
 2024      0000 
 2025 1212 4FEF 0014 	lea (20,%sp),%sp
 2026               	.cfi_def_cfa_offset 140
 2027 1216 6022      	jra .L85
 2028               	.L77:
 864:/home/simulink/cFS_FreeRTOS_seL4/cfe/fsw/cfe-core/src/tbl/cfe_tbl_task_cmds.c ****                                   CFE_EVS_ERROR,
 865:/home/simulink/cFS_FreeRTOS_seL4/cfe/fsw/cfe-core/src/tbl/cfe_tbl_task_cmds.c ****                                   "Error writing Tbl image File Header to '%s', Status=0x%08X",
 866:/home/simulink/cFS_FreeRTOS_seL4/cfe/fsw/cfe-core/src/tbl/cfe_tbl_task_cmds.c ****                                   DumpFilename, (unsigned int)Status);
 867:/home/simulink/cFS_FreeRTOS_seL4/cfe/fsw/cfe-core/src/tbl/cfe_tbl_task_cmds.c ****             }
 868:/home/simulink/cFS_FreeRTOS_seL4/cfe/fsw/cfe-core/src/tbl/cfe_tbl_task_cmds.c ****         }
 869:/home/simulink/cFS_FreeRTOS_seL4/cfe/fsw/cfe-core/src/tbl/cfe_tbl_task_cmds.c ****         else
 870:/home/simulink/cFS_FreeRTOS_seL4/cfe/fsw/cfe-core/src/tbl/cfe_tbl_task_cmds.c ****         {
 871:/home/simulink/cFS_FreeRTOS_seL4/cfe/fsw/cfe-core/src/tbl/cfe_tbl_task_cmds.c ****             CFE_EVS_SendEvent(CFE_TBL_WRITE_CFE_HDR_ERR_EID,
 2029               	.loc 1 871 0
 2030 1218 202F 0078 	move.l 120(%sp),%d0
 2031 121c 2F00      	move.l %d0,-(%sp)
 2032               	.cfi_def_cfa_offset 144
 2033 121e 2F2F 0090 	move.l 144(%sp),-(%sp)
 2034               	.cfi_def_cfa_offset 148
 2035 1222 4879 0000 	pea .LC26
 2035      0000 
 2036               	.cfi_def_cfa_offset 152
 2037 1228 4878 0003 	pea 3.w
 2038               	.cfi_def_cfa_offset 156
 2039 122c 4878 003F 	pea 63.w
 2040               	.cfi_def_cfa_offset 160
 2041 1230 4EB9 0000 	jsr CFE_EVS_SendEvent
 2041      0000 
 2042 1236 4FEF 0014 	lea (20,%sp),%sp
 2043               	.cfi_def_cfa_offset 140
 2044               	.L85:
 872:/home/simulink/cFS_FreeRTOS_seL4/cfe/fsw/cfe-core/src/tbl/cfe_tbl_task_cmds.c ****                               CFE_EVS_ERROR,
 873:/home/simulink/cFS_FreeRTOS_seL4/cfe/fsw/cfe-core/src/tbl/cfe_tbl_task_cmds.c ****                               "Error writing cFE File Header to '%s', Status=0x%08X",
 874:/home/simulink/cFS_FreeRTOS_seL4/cfe/fsw/cfe-core/src/tbl/cfe_tbl_task_cmds.c ****                               DumpFilename, (unsigned int)Status);
 875:/home/simulink/cFS_FreeRTOS_seL4/cfe/fsw/cfe-core/src/tbl/cfe_tbl_task_cmds.c ****         }
 876:/home/simulink/cFS_FreeRTOS_seL4/cfe/fsw/cfe-core/src/tbl/cfe_tbl_task_cmds.c **** 
 877:/home/simulink/cFS_FreeRTOS_seL4/cfe/fsw/cfe-core/src/tbl/cfe_tbl_task_cmds.c ****         /* We are done outputting data to the dump file.  Close it. */
 878:/home/simulink/cFS_FreeRTOS_seL4/cfe/fsw/cfe-core/src/tbl/cfe_tbl_task_cmds.c ****         OS_close(FileDescriptor);
 2045               	.loc 1 878 0
 2046 123a 2F2F 007C 	move.l 124(%sp),-(%sp)
 2047               	.cfi_def_cfa_offset 144
 2048 123e 4EB9 0000 	jsr OS_close
 2048      0000 
 2049 1244 588F      	addq.l #4,%sp
 2050               	.cfi_def_cfa_offset 140
 2051 1246 6022      	jra .L86
 2052               	.L76:
68K GAS   			page 60


 879:/home/simulink/cFS_FreeRTOS_seL4/cfe/fsw/cfe-core/src/tbl/cfe_tbl_task_cmds.c ****     }
 880:/home/simulink/cFS_FreeRTOS_seL4/cfe/fsw/cfe-core/src/tbl/cfe_tbl_task_cmds.c ****     else
 881:/home/simulink/cFS_FreeRTOS_seL4/cfe/fsw/cfe-core/src/tbl/cfe_tbl_task_cmds.c ****     {
 882:/home/simulink/cFS_FreeRTOS_seL4/cfe/fsw/cfe-core/src/tbl/cfe_tbl_task_cmds.c ****         CFE_EVS_SendEvent(CFE_TBL_CREATING_DUMP_FILE_ERR_EID,
 2053               	.loc 1 882 0
 2054 1248 202F 007C 	move.l 124(%sp),%d0
 2055 124c 2F00      	move.l %d0,-(%sp)
 2056               	.cfi_def_cfa_offset 144
 2057 124e 2F2F 0090 	move.l 144(%sp),-(%sp)
 2058               	.cfi_def_cfa_offset 148
 2059 1252 4879 0000 	pea .LC27
 2059      0000 
 2060               	.cfi_def_cfa_offset 152
 2061 1258 4878 0003 	pea 3.w
 2062               	.cfi_def_cfa_offset 156
 2063 125c 4878 003E 	pea 62.w
 2064               	.cfi_def_cfa_offset 160
 2065 1260 4EB9 0000 	jsr CFE_EVS_SendEvent
 2065      0000 
 2066 1266 4FEF 0014 	lea (20,%sp),%sp
 2067               	.cfi_def_cfa_offset 140
 2068               	.L86:
 883:/home/simulink/cFS_FreeRTOS_seL4/cfe/fsw/cfe-core/src/tbl/cfe_tbl_task_cmds.c ****                           CFE_EVS_ERROR,
 884:/home/simulink/cFS_FreeRTOS_seL4/cfe/fsw/cfe-core/src/tbl/cfe_tbl_task_cmds.c ****                           "Error creating dump file '%s', Status=0x%08X",
 885:/home/simulink/cFS_FreeRTOS_seL4/cfe/fsw/cfe-core/src/tbl/cfe_tbl_task_cmds.c ****                           DumpFilename, (unsigned int)FileDescriptor);
 886:/home/simulink/cFS_FreeRTOS_seL4/cfe/fsw/cfe-core/src/tbl/cfe_tbl_task_cmds.c ****     }
 887:/home/simulink/cFS_FreeRTOS_seL4/cfe/fsw/cfe-core/src/tbl/cfe_tbl_task_cmds.c ****     
 888:/home/simulink/cFS_FreeRTOS_seL4/cfe/fsw/cfe-core/src/tbl/cfe_tbl_task_cmds.c ****     return ReturnCode;
 2069               	.loc 1 888 0
 2070 126a 202F 0084 	move.l 132(%sp),%d0
 889:/home/simulink/cFS_FreeRTOS_seL4/cfe/fsw/cfe-core/src/tbl/cfe_tbl_task_cmds.c **** }
 2071               	.loc 1 889 0
 2072 126e 4FEF 0088 	lea (136,%sp),%sp
 2073 1272 4E75      	rts
 2074               	.cfi_endproc
 2075               	.LFE66:
 2076               	.sizeCFE_TBL_DumpToFile, .-CFE_TBL_DumpToFile
 2077               	.section.rodata
 2078               	.LC28:
 2079 0511 5462 6C20 	.string"Tbl Services issued validation request for '%s'"
 2079      5365 7276 
 2079      6963 6573 
 2079      2069 7373 
 2079      7565 6420 
 2080               	.LC29:
 2081 0541 5462 6C20 	.string"Tbl Services assumes '%s' is valid. No Validation Function has been registered"
 2081      5365 7276 
 2081      6963 6573 
 2081      2061 7373 
 2081      756D 6573 
 2082               	.LC30:
 2083 0590 546F 6F20 	.string"Too many Table Validations have been requested"
 2083      6D61 6E79 
 2083      2054 6162 
 2083      6C65 2056 
 2083      616C 6964 
 2084               	.text
68K GAS   			page 61


 2085               	.align2
 2086               	.globlCFE_TBL_ValidateCmd
 2087               	.typeCFE_TBL_ValidateCmd, @function
 2088               	CFE_TBL_ValidateCmd:
 2089               	.LFB67:
 890:/home/simulink/cFS_FreeRTOS_seL4/cfe/fsw/cfe-core/src/tbl/cfe_tbl_task_cmds.c **** 
 891:/home/simulink/cFS_FreeRTOS_seL4/cfe/fsw/cfe-core/src/tbl/cfe_tbl_task_cmds.c **** /*******************************************************************
 892:/home/simulink/cFS_FreeRTOS_seL4/cfe/fsw/cfe-core/src/tbl/cfe_tbl_task_cmds.c **** **
 893:/home/simulink/cFS_FreeRTOS_seL4/cfe/fsw/cfe-core/src/tbl/cfe_tbl_task_cmds.c **** ** CFE_TBL_ValidateCmd() -- Process Validate Table Command Message
 894:/home/simulink/cFS_FreeRTOS_seL4/cfe/fsw/cfe-core/src/tbl/cfe_tbl_task_cmds.c **** **
 895:/home/simulink/cFS_FreeRTOS_seL4/cfe/fsw/cfe-core/src/tbl/cfe_tbl_task_cmds.c **** ** NOTE: For complete prolog information, see 'cfe_tbl_task_cmds.h'
 896:/home/simulink/cFS_FreeRTOS_seL4/cfe/fsw/cfe-core/src/tbl/cfe_tbl_task_cmds.c **** ********************************************************************/
 897:/home/simulink/cFS_FreeRTOS_seL4/cfe/fsw/cfe-core/src/tbl/cfe_tbl_task_cmds.c **** 
 898:/home/simulink/cFS_FreeRTOS_seL4/cfe/fsw/cfe-core/src/tbl/cfe_tbl_task_cmds.c **** CFE_TBL_CmdProcRet_t CFE_TBL_ValidateCmd( const CFE_SB_MsgPayloadPtr_t  Payload )
 899:/home/simulink/cFS_FreeRTOS_seL4/cfe/fsw/cfe-core/src/tbl/cfe_tbl_task_cmds.c **** {
 2090               	.loc 1 899 0
 2091               	.cfi_startproc
 2092 1274 4FEF FFBC 	lea (-68,%sp),%sp
 2093               	.cfi_def_cfa_offset 72
 2094 1278 2F02      	move.l %d2,-(%sp)
 2095               	.cfi_def_cfa_offset 76
 2096               	.cfi_offset 2, -76
 900:/home/simulink/cFS_FreeRTOS_seL4/cfe/fsw/cfe-core/src/tbl/cfe_tbl_task_cmds.c ****     CFE_TBL_CmdProcRet_t         ReturnCode = CFE_TBL_INC_ERR_CTR;        /* Assume failure */
 2097               	.loc 1 900 0
 2098 127a 70FF      	moveq #-1,%d0
 2099 127c 2F40 0044 	move.l %d0,68(%sp)
 901:/home/simulink/cFS_FreeRTOS_seL4/cfe/fsw/cfe-core/src/tbl/cfe_tbl_task_cmds.c ****     int16                        RegIndex;
 902:/home/simulink/cFS_FreeRTOS_seL4/cfe/fsw/cfe-core/src/tbl/cfe_tbl_task_cmds.c ****     const CFE_TBL_ValidateCmd_Payload_t *CmdPtr = (const CFE_TBL_ValidateCmd_Payload_t *) Payload;
 2100               	.loc 1 902 0
 2101 1280 2F6F 004C 	move.l 76(%sp),56(%sp)
 2101      0038 
 903:/home/simulink/cFS_FreeRTOS_seL4/cfe/fsw/cfe-core/src/tbl/cfe_tbl_task_cmds.c ****     CFE_TBL_RegistryRec_t       *RegRecPtr;
 904:/home/simulink/cFS_FreeRTOS_seL4/cfe/fsw/cfe-core/src/tbl/cfe_tbl_task_cmds.c ****     void                        *ValidationDataPtr = NULL;
 2102               	.loc 1 904 0
 2103 1286 42AF 0040 	clr.l 64(%sp)
 905:/home/simulink/cFS_FreeRTOS_seL4/cfe/fsw/cfe-core/src/tbl/cfe_tbl_task_cmds.c ****     char                         TableName[CFE_TBL_MAX_FULL_NAME_LEN];
 906:/home/simulink/cFS_FreeRTOS_seL4/cfe/fsw/cfe-core/src/tbl/cfe_tbl_task_cmds.c ****     uint32                       CrcOfTable;
 907:/home/simulink/cFS_FreeRTOS_seL4/cfe/fsw/cfe-core/src/tbl/cfe_tbl_task_cmds.c ****     int32                        ValIndex;
 908:/home/simulink/cFS_FreeRTOS_seL4/cfe/fsw/cfe-core/src/tbl/cfe_tbl_task_cmds.c **** 
 909:/home/simulink/cFS_FreeRTOS_seL4/cfe/fsw/cfe-core/src/tbl/cfe_tbl_task_cmds.c ****     /* Make sure all strings are null terminated before attempting to process them */
 910:/home/simulink/cFS_FreeRTOS_seL4/cfe/fsw/cfe-core/src/tbl/cfe_tbl_task_cmds.c ****     CFE_SB_MessageStringGet(TableName, (char *)CmdPtr->TableName, NULL,
 2104               	.loc 1 910 0
 2105 128a 202F 0038 	move.l 56(%sp),%d0
 2106 128e 5480      	addq.l #2,%d0
 2107 1290 4878 0028 	pea 40.w
 2108               	.cfi_def_cfa_offset 80
 2109 1294 4878 0028 	pea 40.w
 2110               	.cfi_def_cfa_offset 84
 2111 1298 42A7      	clr.l -(%sp)
 2112               	.cfi_def_cfa_offset 88
 2113 129a 2F00      	move.l %d0,-(%sp)
 2114               	.cfi_def_cfa_offset 92
 2115 129c 200F      	move.l %sp,%d0
 2116 129e 0680 0000 	add.l #20,%d0
 2116      0014 
 2117 12a4 2F00      	move.l %d0,-(%sp)
 2118               	.cfi_def_cfa_offset 96
68K GAS   			page 62


 2119 12a6 4EB9 0000 	jsr CFE_SB_MessageStringGet
 2119      0000 
 2120 12ac 4FEF 0014 	lea (20,%sp),%sp
 2121               	.cfi_def_cfa_offset 76
 911:/home/simulink/cFS_FreeRTOS_seL4/cfe/fsw/cfe-core/src/tbl/cfe_tbl_task_cmds.c ****             CFE_TBL_MAX_FULL_NAME_LEN, sizeof(CmdPtr->TableName));
 912:/home/simulink/cFS_FreeRTOS_seL4/cfe/fsw/cfe-core/src/tbl/cfe_tbl_task_cmds.c **** 
 913:/home/simulink/cFS_FreeRTOS_seL4/cfe/fsw/cfe-core/src/tbl/cfe_tbl_task_cmds.c ****     /* Before doing anything, lets make sure the table that is to be dumped exists */
 914:/home/simulink/cFS_FreeRTOS_seL4/cfe/fsw/cfe-core/src/tbl/cfe_tbl_task_cmds.c ****     RegIndex = CFE_TBL_FindTableInRegistry(TableName);
 2122               	.loc 1 914 0
 2123 12b0 200F      	move.l %sp,%d0
 2124 12b2 5880      	addq.l #4,%d0
 2125 12b4 2F00      	move.l %d0,-(%sp)
 2126               	.cfi_def_cfa_offset 80
 2127 12b6 4EB9 0000 	jsr CFE_TBL_FindTableInRegistry
 2127      0000 
 2128 12bc 588F      	addq.l #4,%sp
 2129               	.cfi_def_cfa_offset 76
 2130 12be 3F40 0036 	move.w %d0,54(%sp)
 915:/home/simulink/cFS_FreeRTOS_seL4/cfe/fsw/cfe-core/src/tbl/cfe_tbl_task_cmds.c **** 
 916:/home/simulink/cFS_FreeRTOS_seL4/cfe/fsw/cfe-core/src/tbl/cfe_tbl_task_cmds.c ****     if (RegIndex != CFE_TBL_NOT_FOUND)
 2131               	.loc 1 916 0
 2132 12c2 306F 0036 	move.w 54(%sp),%a0
 2133 12c6 72FF      	moveq #-1,%d1
 2134 12c8 B288      	cmp.l %a0,%d1
 2135 12ca 6700 02D8 	jeq .L89
 917:/home/simulink/cFS_FreeRTOS_seL4/cfe/fsw/cfe-core/src/tbl/cfe_tbl_task_cmds.c ****     {
 918:/home/simulink/cFS_FreeRTOS_seL4/cfe/fsw/cfe-core/src/tbl/cfe_tbl_task_cmds.c ****         /* Obtain a pointer to registry information about specified table */
 919:/home/simulink/cFS_FreeRTOS_seL4/cfe/fsw/cfe-core/src/tbl/cfe_tbl_task_cmds.c ****         RegRecPtr = &CFE_TBL_TaskData.Registry[RegIndex];
 2136               	.loc 1 919 0
 2137 12ce 302F 0036 	move.w 54(%sp),%d0
 2138 12d2 48C0      	ext.l %d0
 2139 12d4 243C 0000 	move.l #336,%d2
 2139      0150 
 2140 12da 4C02 0800 	muls.l %d2,%d0
 2141 12de 0680 0000 	add.l #4972,%d0
 2141      136C 
 2142 12e4 2240      	move.l %d0,%a1
 2143 12e6 D3FC 0000 	add.l #CFE_TBL_TaskData,%a1
 2143      0000 
 2144 12ec 2F49 0030 	move.l %a1,48(%sp)
 920:/home/simulink/cFS_FreeRTOS_seL4/cfe/fsw/cfe-core/src/tbl/cfe_tbl_task_cmds.c **** 
 921:/home/simulink/cFS_FreeRTOS_seL4/cfe/fsw/cfe-core/src/tbl/cfe_tbl_task_cmds.c ****         /* Determine what data is to be validated */
 922:/home/simulink/cFS_FreeRTOS_seL4/cfe/fsw/cfe-core/src/tbl/cfe_tbl_task_cmds.c ****         if (CmdPtr->ActiveTblFlag == CFE_TBL_ACTIVE_BUFFER)
 2145               	.loc 1 922 0
 2146 12f0 206F 0038 	move.l 56(%sp),%a0
 2147 12f4 3010      	move.w (%a0),%d0
 2148 12f6 3000      	move.w %d0,%d0
 2149 12f8 0280 0000 	and.l #65535,%d0
 2149      FFFF 
 2150 12fe 7201      	moveq #1,%d1
 2151 1300 B280      	cmp.l %d0,%d1
 2152 1302 662A      	jne .L90
 923:/home/simulink/cFS_FreeRTOS_seL4/cfe/fsw/cfe-core/src/tbl/cfe_tbl_task_cmds.c ****         {
 924:/home/simulink/cFS_FreeRTOS_seL4/cfe/fsw/cfe-core/src/tbl/cfe_tbl_task_cmds.c ****             ValidationDataPtr = RegRecPtr->Buffers[RegRecPtr->ActiveBufferIndex].BufferPtr;
 2153               	.loc 1 924 0
 2154 1304 206F 0030 	move.l 48(%sp),%a0
 2155 1308 1028 00E5 	move.b 229(%a0),%d0
68K GAS   			page 63


 2156 130c 1000      	move.b %d0,%d0
 2157 130e 0280 0000 	and.l #255,%d0
 2157      00FF 
 2158 1314 222F 0030 	move.l 48(%sp),%d1
 2159 1318 7454      	moveq #84,%d2
 2160 131a 4C02 0800 	muls.l %d2,%d0
 2161 131e D081      	add.l %d1,%d0
 2162 1320 2040      	move.l %d0,%a0
 2163 1322 41E8 0010 	lea (16,%a0),%a0
 2164 1326 2F50 0040 	move.l (%a0),64(%sp)
 2165 132a 6000 00C2 	jra .L91
 2166               	.L90:
 925:/home/simulink/cFS_FreeRTOS_seL4/cfe/fsw/cfe-core/src/tbl/cfe_tbl_task_cmds.c ****         }
 926:/home/simulink/cFS_FreeRTOS_seL4/cfe/fsw/cfe-core/src/tbl/cfe_tbl_task_cmds.c ****         else if (CmdPtr->ActiveTblFlag == CFE_TBL_INACTIVE_BUFFER) /* Validating Inactive Buffer */
 2167               	.loc 1 926 0
 2168 132e 206F 0038 	move.l 56(%sp),%a0
 2169 1332 3010      	move.w (%a0),%d0
 2170 1334 4A40      	tst.w %d0
 2171 1336 6600 0088 	jne .L92
 927:/home/simulink/cFS_FreeRTOS_seL4/cfe/fsw/cfe-core/src/tbl/cfe_tbl_task_cmds.c ****         {
 928:/home/simulink/cFS_FreeRTOS_seL4/cfe/fsw/cfe-core/src/tbl/cfe_tbl_task_cmds.c ****             /* If this is a double buffered table, locating the inactive buffer is trivial */
 929:/home/simulink/cFS_FreeRTOS_seL4/cfe/fsw/cfe-core/src/tbl/cfe_tbl_task_cmds.c ****             if (RegRecPtr->DblBuffered)
 2172               	.loc 1 929 0
 2173 133a 206F 0030 	move.l 48(%sp),%a0
 2174 133e 1028 00E2 	move.b 226(%a0),%d0
 2175 1342 4A00      	tst.b %d0
 2176 1344 672E      	jeq .L93
 930:/home/simulink/cFS_FreeRTOS_seL4/cfe/fsw/cfe-core/src/tbl/cfe_tbl_task_cmds.c ****             {
 931:/home/simulink/cFS_FreeRTOS_seL4/cfe/fsw/cfe-core/src/tbl/cfe_tbl_task_cmds.c ****                 ValidationDataPtr = RegRecPtr->Buffers[(1U-RegRecPtr->ActiveBufferIndex)].BufferPtr
 2177               	.loc 1 931 0
 2178 1346 206F 0030 	move.l 48(%sp),%a0
 2179 134a 1028 00E5 	move.b 229(%a0),%d0
 2180 134e 1000      	move.b %d0,%d0
 2181 1350 0280 0000 	and.l #255,%d0
 2181      00FF 
 2182 1356 7201      	moveq #1,%d1
 2183 1358 9280      	sub.l %d0,%d1
 2184 135a 2001      	move.l %d1,%d0
 2185 135c 222F 0030 	move.l 48(%sp),%d1
 2186 1360 7454      	moveq #84,%d2
 2187 1362 4C02 0800 	muls.l %d2,%d0
 2188 1366 D081      	add.l %d1,%d0
 2189 1368 2040      	move.l %d0,%a0
 2190 136a 41E8 0010 	lea (16,%a0),%a0
 2191 136e 2F50 0040 	move.l (%a0),64(%sp)
 2192 1372 607A      	jra .L91
 2193               	.L93:
 932:/home/simulink/cFS_FreeRTOS_seL4/cfe/fsw/cfe-core/src/tbl/cfe_tbl_task_cmds.c ****             }
 933:/home/simulink/cFS_FreeRTOS_seL4/cfe/fsw/cfe-core/src/tbl/cfe_tbl_task_cmds.c ****             else
 934:/home/simulink/cFS_FreeRTOS_seL4/cfe/fsw/cfe-core/src/tbl/cfe_tbl_task_cmds.c ****             {
 935:/home/simulink/cFS_FreeRTOS_seL4/cfe/fsw/cfe-core/src/tbl/cfe_tbl_task_cmds.c ****                 /* For single buffered tables, the index to the inactive buffer is kept in 'LoadInP
 936:/home/simulink/cFS_FreeRTOS_seL4/cfe/fsw/cfe-core/src/tbl/cfe_tbl_task_cmds.c ****                 if (RegRecPtr->LoadInProgress != CFE_TBL_NO_LOAD_IN_PROGRESS)
 2194               	.loc 1 936 0
 2195 1374 206F 0030 	move.l 48(%sp),%a0
 2196 1378 2028 00C8 	move.l 200(%a0),%d0
 2197 137c 72FF      	moveq #-1,%d1
 2198 137e B280      	cmp.l %d0,%d1
68K GAS   			page 64


 2199 1380 671E      	jeq .L95
 937:/home/simulink/cFS_FreeRTOS_seL4/cfe/fsw/cfe-core/src/tbl/cfe_tbl_task_cmds.c ****                 {
 938:/home/simulink/cFS_FreeRTOS_seL4/cfe/fsw/cfe-core/src/tbl/cfe_tbl_task_cmds.c ****                     ValidationDataPtr = CFE_TBL_TaskData.LoadBuffs[RegRecPtr->LoadInProgress].Buffe
 2200               	.loc 1 938 0
 2201 1382 206F 0030 	move.l 48(%sp),%a0
 2202 1386 2028 00C8 	move.l 200(%a0),%d0
 2203 138a 7454      	moveq #84,%d2
 2204 138c 4C02 0800 	muls.l %d2,%d0
 2205 1390 41F9 0000 	lea CFE_TBL_TaskData+540,%a0
 2205      0000 
 2206 1396 43F0 0800 	lea (%a0,%d0.l),%a1
 2207 139a 2F51 0040 	move.l (%a1),64(%sp)
 2208 139e 604E      	jra .L91
 2209               	.L95:
 939:/home/simulink/cFS_FreeRTOS_seL4/cfe/fsw/cfe-core/src/tbl/cfe_tbl_task_cmds.c ****                 }
 940:/home/simulink/cFS_FreeRTOS_seL4/cfe/fsw/cfe-core/src/tbl/cfe_tbl_task_cmds.c ****                 else
 941:/home/simulink/cFS_FreeRTOS_seL4/cfe/fsw/cfe-core/src/tbl/cfe_tbl_task_cmds.c ****                 {
 942:/home/simulink/cFS_FreeRTOS_seL4/cfe/fsw/cfe-core/src/tbl/cfe_tbl_task_cmds.c ****                     CFE_EVS_SendEvent(CFE_TBL_NO_INACTIVE_BUFFER_ERR_EID,
 2210               	.loc 1 942 0
 2211 13a0 200F      	move.l %sp,%d0
 2212 13a2 5880      	addq.l #4,%d0
 2213 13a4 2F00      	move.l %d0,-(%sp)
 2214               	.cfi_def_cfa_offset 80
 2215 13a6 4879 0000 	pea .LC17
 2215      0000 
 2216               	.cfi_def_cfa_offset 84
 2217 13ac 4878 0003 	pea 3.w
 2218               	.cfi_def_cfa_offset 88
 2219 13b0 4878 0042 	pea 66.w
 2220               	.cfi_def_cfa_offset 92
 2221 13b4 4EB9 0000 	jsr CFE_EVS_SendEvent
 2221      0000 
 2222 13ba 4FEF 0010 	lea (16,%sp),%sp
 2223               	.cfi_def_cfa_offset 76
 2224 13be 602E      	jra .L91
 2225               	.L92:
 943:/home/simulink/cFS_FreeRTOS_seL4/cfe/fsw/cfe-core/src/tbl/cfe_tbl_task_cmds.c ****                                       CFE_EVS_ERROR,
 944:/home/simulink/cFS_FreeRTOS_seL4/cfe/fsw/cfe-core/src/tbl/cfe_tbl_task_cmds.c ****                                       "No Inactive Buffer for Table '%s' present",
 945:/home/simulink/cFS_FreeRTOS_seL4/cfe/fsw/cfe-core/src/tbl/cfe_tbl_task_cmds.c ****                                       TableName);
 946:/home/simulink/cFS_FreeRTOS_seL4/cfe/fsw/cfe-core/src/tbl/cfe_tbl_task_cmds.c ****                 }
 947:/home/simulink/cFS_FreeRTOS_seL4/cfe/fsw/cfe-core/src/tbl/cfe_tbl_task_cmds.c ****             }
 948:/home/simulink/cFS_FreeRTOS_seL4/cfe/fsw/cfe-core/src/tbl/cfe_tbl_task_cmds.c ****         }
 949:/home/simulink/cFS_FreeRTOS_seL4/cfe/fsw/cfe-core/src/tbl/cfe_tbl_task_cmds.c ****         else
 950:/home/simulink/cFS_FreeRTOS_seL4/cfe/fsw/cfe-core/src/tbl/cfe_tbl_task_cmds.c ****         {
 951:/home/simulink/cFS_FreeRTOS_seL4/cfe/fsw/cfe-core/src/tbl/cfe_tbl_task_cmds.c ****             CFE_EVS_SendEvent(CFE_TBL_ILLEGAL_BUFF_PARAM_ERR_EID,
 952:/home/simulink/cFS_FreeRTOS_seL4/cfe/fsw/cfe-core/src/tbl/cfe_tbl_task_cmds.c ****                               CFE_EVS_ERROR,
 953:/home/simulink/cFS_FreeRTOS_seL4/cfe/fsw/cfe-core/src/tbl/cfe_tbl_task_cmds.c ****                               "Cmd for Table '%s' had illegal buffer parameter (0x%08X)",
 954:/home/simulink/cFS_FreeRTOS_seL4/cfe/fsw/cfe-core/src/tbl/cfe_tbl_task_cmds.c ****                               TableName, CmdPtr->ActiveTblFlag);
 2226               	.loc 1 954 0
 2227 13c0 206F 0038 	move.l 56(%sp),%a0
 2228 13c4 3010      	move.w (%a0),%d0
 951:/home/simulink/cFS_FreeRTOS_seL4/cfe/fsw/cfe-core/src/tbl/cfe_tbl_task_cmds.c ****                               CFE_EVS_ERROR,
 2229               	.loc 1 951 0
 2230 13c6 3000      	move.w %d0,%d0
 2231 13c8 0280 0000 	and.l #65535,%d0
 2231      FFFF 
 2232 13ce 2F00      	move.l %d0,-(%sp)
68K GAS   			page 65


 2233               	.cfi_def_cfa_offset 80
 2234 13d0 200F      	move.l %sp,%d0
 2235 13d2 5080      	addq.l #8,%d0
 2236 13d4 2F00      	move.l %d0,-(%sp)
 2237               	.cfi_def_cfa_offset 84
 2238 13d6 4879 0000 	pea .LC18
 2238      0000 
 2239               	.cfi_def_cfa_offset 88
 2240 13dc 4878 0003 	pea 3.w
 2241               	.cfi_def_cfa_offset 92
 2242 13e0 4878 0050 	pea 80.w
 2243               	.cfi_def_cfa_offset 96
 2244 13e4 4EB9 0000 	jsr CFE_EVS_SendEvent
 2244      0000 
 2245 13ea 4FEF 0014 	lea (20,%sp),%sp
 2246               	.cfi_def_cfa_offset 76
 2247               	.L91:
 955:/home/simulink/cFS_FreeRTOS_seL4/cfe/fsw/cfe-core/src/tbl/cfe_tbl_task_cmds.c ****         }
 956:/home/simulink/cFS_FreeRTOS_seL4/cfe/fsw/cfe-core/src/tbl/cfe_tbl_task_cmds.c **** 
 957:/home/simulink/cFS_FreeRTOS_seL4/cfe/fsw/cfe-core/src/tbl/cfe_tbl_task_cmds.c ****         /* If we have located the data to be validated, then proceed with notifying the application
 958:/home/simulink/cFS_FreeRTOS_seL4/cfe/fsw/cfe-core/src/tbl/cfe_tbl_task_cmds.c ****         /* necessary, and computing the CRC value for the block of memory                          
 959:/home/simulink/cFS_FreeRTOS_seL4/cfe/fsw/cfe-core/src/tbl/cfe_tbl_task_cmds.c ****         if (ValidationDataPtr != NULL)
 2248               	.loc 1 959 0
 2249 13ee 4AAF 0040 	tst.l 64(%sp)
 2250 13f2 6700 01CE 	jeq .L106
 960:/home/simulink/cFS_FreeRTOS_seL4/cfe/fsw/cfe-core/src/tbl/cfe_tbl_task_cmds.c ****         {
 961:/home/simulink/cFS_FreeRTOS_seL4/cfe/fsw/cfe-core/src/tbl/cfe_tbl_task_cmds.c ****             /* Find a free Validation Response Block */
 962:/home/simulink/cFS_FreeRTOS_seL4/cfe/fsw/cfe-core/src/tbl/cfe_tbl_task_cmds.c ****             ValIndex = 0;
 2251               	.loc 1 962 0
 2252 13f6 42AF 003C 	clr.l 60(%sp)
 963:/home/simulink/cFS_FreeRTOS_seL4/cfe/fsw/cfe-core/src/tbl/cfe_tbl_task_cmds.c ****             while ((ValIndex < CFE_TBL_MAX_NUM_VALIDATIONS) &&
 2253               	.loc 1 963 0
 2254 13fa 6004      	jra .L97
 2255               	.L99:
 964:/home/simulink/cFS_FreeRTOS_seL4/cfe/fsw/cfe-core/src/tbl/cfe_tbl_task_cmds.c ****                    (CFE_TBL_TaskData.ValidationResults[ValIndex].State != CFE_TBL_VALIDATION_FREE))
 965:/home/simulink/cFS_FreeRTOS_seL4/cfe/fsw/cfe-core/src/tbl/cfe_tbl_task_cmds.c ****             {
 966:/home/simulink/cFS_FreeRTOS_seL4/cfe/fsw/cfe-core/src/tbl/cfe_tbl_task_cmds.c ****                 ValIndex++;
 2256               	.loc 1 966 0
 2257 13fc 52AF 003C 	addq.l #1,60(%sp)
 2258               	.L97:
 963:/home/simulink/cFS_FreeRTOS_seL4/cfe/fsw/cfe-core/src/tbl/cfe_tbl_task_cmds.c ****             while ((ValIndex < CFE_TBL_MAX_NUM_VALIDATIONS) &&
 2259               	.loc 1 963 0
 2260 1400 7009      	moveq #9,%d0
 2261 1402 B0AF 003C 	cmp.l 60(%sp),%d0
 2262 1406 6D18      	jlt .L98
 964:/home/simulink/cFS_FreeRTOS_seL4/cfe/fsw/cfe-core/src/tbl/cfe_tbl_task_cmds.c ****                    (CFE_TBL_TaskData.ValidationResults[ValIndex].State != CFE_TBL_VALIDATION_FREE))
 2263               	.loc 1 964 0 discriminator 1
 2264 1408 202F 003C 	move.l 60(%sp),%d0
 2265 140c 7238      	moveq #56,%d1
 2266 140e 4C01 0800 	muls.l %d1,%d0
 2267 1412 41F9 0000 	lea CFE_TBL_TaskData+576368,%a0
 2267      0000 
 2268 1418 2030 0800 	move.l (%a0,%d0.l),%d0
 963:/home/simulink/cFS_FreeRTOS_seL4/cfe/fsw/cfe-core/src/tbl/cfe_tbl_task_cmds.c ****             while ((ValIndex < CFE_TBL_MAX_NUM_VALIDATIONS) &&
 2269               	.loc 1 963 0 discriminator 1
 2270 141c 4A80      	tst.l %d0
 2271 141e 66DC      	jne .L99
68K GAS   			page 66


 2272               	.L98:
 967:/home/simulink/cFS_FreeRTOS_seL4/cfe/fsw/cfe-core/src/tbl/cfe_tbl_task_cmds.c ****             }
 968:/home/simulink/cFS_FreeRTOS_seL4/cfe/fsw/cfe-core/src/tbl/cfe_tbl_task_cmds.c **** 
 969:/home/simulink/cFS_FreeRTOS_seL4/cfe/fsw/cfe-core/src/tbl/cfe_tbl_task_cmds.c ****             if (ValIndex < CFE_TBL_MAX_NUM_VALIDATIONS)
 2273               	.loc 1 969 0
 2274 1420 7409      	moveq #9,%d2
 2275 1422 B4AF 003C 	cmp.l 60(%sp),%d2
 2276 1426 6D00 0162 	jlt .L100
 970:/home/simulink/cFS_FreeRTOS_seL4/cfe/fsw/cfe-core/src/tbl/cfe_tbl_task_cmds.c ****             {
 971:/home/simulink/cFS_FreeRTOS_seL4/cfe/fsw/cfe-core/src/tbl/cfe_tbl_task_cmds.c ****                 /* Allocate this Validation Response Block */
 972:/home/simulink/cFS_FreeRTOS_seL4/cfe/fsw/cfe-core/src/tbl/cfe_tbl_task_cmds.c ****                 CFE_TBL_TaskData.ValidationResults[ValIndex].State = CFE_TBL_VALIDATION_PENDING;
 2277               	.loc 1 972 0
 2278 142a 202F 003C 	move.l 60(%sp),%d0
 2279 142e 7238      	moveq #56,%d1
 2280 1430 4C01 0800 	muls.l %d1,%d0
 2281 1434 41F9 0000 	lea CFE_TBL_TaskData+576368,%a0
 2281      0000 
 2282 143a 7401      	moveq #1,%d2
 2283 143c 2182 0800 	move.l %d2,(%a0,%d0.l)
 973:/home/simulink/cFS_FreeRTOS_seL4/cfe/fsw/cfe-core/src/tbl/cfe_tbl_task_cmds.c ****                 CFE_TBL_TaskData.ValidationResults[ValIndex].Result = 0;
 2284               	.loc 1 973 0
 2285 1440 202F 003C 	move.l 60(%sp),%d0
 2286 1444 7238      	moveq #56,%d1
 2287 1446 4C01 0800 	muls.l %d1,%d0
 2288 144a 41F9 0000 	lea CFE_TBL_TaskData+576372,%a0
 2288      0000 
 2289 1450 42B0 0800 	clr.l (%a0,%d0.l)
 974:/home/simulink/cFS_FreeRTOS_seL4/cfe/fsw/cfe-core/src/tbl/cfe_tbl_task_cmds.c ****                 CFE_PSP_MemCpy(CFE_TBL_TaskData.ValidationResults[ValIndex].TableName,
 2290               	.loc 1 974 0
 2291 1454 202F 003C 	move.l 60(%sp),%d0
 2292 1458 7438      	moveq #56,%d2
 2293 145a 4C02 0800 	muls.l %d2,%d0
 2294 145e 0680 0008 	add.l #576380,%d0
 2294      CB7C 
 2295 1464 0680 0000 	add.l #CFE_TBL_TaskData,%d0
 2295      0000 
 2296 146a 2200      	move.l %d0,%d1
 2297 146c 5281      	addq.l #1,%d1
 2298 146e 4878 0028 	pea 40.w
 2299               	.cfi_def_cfa_offset 80
 2300 1472 200F      	move.l %sp,%d0
 2301 1474 5080      	addq.l #8,%d0
 2302 1476 2F00      	move.l %d0,-(%sp)
 2303               	.cfi_def_cfa_offset 84
 2304 1478 2F01      	move.l %d1,-(%sp)
 2305               	.cfi_def_cfa_offset 88
 2306 147a 4EB9 0000 	jsr CFE_PSP_MemCpy
 2306      0000 
 2307 1480 4FEF 000C 	lea (12,%sp),%sp
 2308               	.cfi_def_cfa_offset 76
 975:/home/simulink/cFS_FreeRTOS_seL4/cfe/fsw/cfe-core/src/tbl/cfe_tbl_task_cmds.c ****                           TableName, CFE_TBL_MAX_FULL_NAME_LEN);
 976:/home/simulink/cFS_FreeRTOS_seL4/cfe/fsw/cfe-core/src/tbl/cfe_tbl_task_cmds.c **** 
 977:/home/simulink/cFS_FreeRTOS_seL4/cfe/fsw/cfe-core/src/tbl/cfe_tbl_task_cmds.c ****                 /* Compute the CRC on the specified table buffer */
 978:/home/simulink/cFS_FreeRTOS_seL4/cfe/fsw/cfe-core/src/tbl/cfe_tbl_task_cmds.c ****                 CrcOfTable = CFE_ES_CalculateCRC(ValidationDataPtr,
 2309               	.loc 1 978 0
 2310 1484 206F 0030 	move.l 48(%sp),%a0
 2311 1488 2028 0004 	move.l 4(%a0),%d0
68K GAS   			page 67


 2312 148c 4878 0002 	pea 2.w
 2313               	.cfi_def_cfa_offset 80
 2314 1490 42A7      	clr.l -(%sp)
 2315               	.cfi_def_cfa_offset 84
 2316 1492 2F00      	move.l %d0,-(%sp)
 2317               	.cfi_def_cfa_offset 88
 2318 1494 2F2F 004C 	move.l 76(%sp),-(%sp)
 2319               	.cfi_def_cfa_offset 92
 2320 1498 4EB9 0000 	jsr CFE_ES_CalculateCRC
 2320      0000 
 2321 149e 4FEF 0010 	lea (16,%sp),%sp
 2322               	.cfi_def_cfa_offset 76
 2323 14a2 2F40 002C 	move.l %d0,44(%sp)
 979:/home/simulink/cFS_FreeRTOS_seL4/cfe/fsw/cfe-core/src/tbl/cfe_tbl_task_cmds.c ****                                                  RegRecPtr->Size,
 980:/home/simulink/cFS_FreeRTOS_seL4/cfe/fsw/cfe-core/src/tbl/cfe_tbl_task_cmds.c ****                                                  0,
 981:/home/simulink/cFS_FreeRTOS_seL4/cfe/fsw/cfe-core/src/tbl/cfe_tbl_task_cmds.c ****                                                  CFE_ES_DEFAULT_CRC);
 982:/home/simulink/cFS_FreeRTOS_seL4/cfe/fsw/cfe-core/src/tbl/cfe_tbl_task_cmds.c **** 
 983:/home/simulink/cFS_FreeRTOS_seL4/cfe/fsw/cfe-core/src/tbl/cfe_tbl_task_cmds.c ****                 CFE_TBL_TaskData.ValidationResults[ValIndex].CrcOfTable = CrcOfTable;
 2324               	.loc 1 983 0
 2325 14a6 202F 003C 	move.l 60(%sp),%d0
 2326 14aa 7238      	moveq #56,%d1
 2327 14ac 4C01 0800 	muls.l %d1,%d0
 2328 14b0 41F9 0000 	lea CFE_TBL_TaskData+576376,%a0
 2328      0000 
 2329 14b6 43EF 002C 	lea (44,%sp),%a1
 2330 14ba 2191 0800 	move.l (%a1),(%a0,%d0.l)
 984:/home/simulink/cFS_FreeRTOS_seL4/cfe/fsw/cfe-core/src/tbl/cfe_tbl_task_cmds.c ****                 CFE_TBL_TaskData.ValidationResults[ValIndex].ActiveBuffer = (CmdPtr->ActiveTblFlag 
 2331               	.loc 1 984 0
 2332 14be 206F 0038 	move.l 56(%sp),%a0
 2333 14c2 3010      	move.w (%a0),%d0
 2334 14c4 4A40      	tst.w %d0
 2335 14c6 56C0      	sne %d0
 2336 14c8 4480      	neg.l %d0
 2337 14ca 1000      	move.b %d0,%d0
 2338 14cc 1200      	move.b %d0,%d1
 2339 14ce 202F 003C 	move.l 60(%sp),%d0
 2340 14d2 7438      	moveq #56,%d2
 2341 14d4 4C02 0800 	muls.l %d2,%d0
 2342 14d8 41F9 0000 	lea CFE_TBL_TaskData+576380,%a0
 2342      0000 
 2343 14de 1181 0800 	move.b %d1,(%a0,%d0.l)
 985:/home/simulink/cFS_FreeRTOS_seL4/cfe/fsw/cfe-core/src/tbl/cfe_tbl_task_cmds.c **** 
 986:/home/simulink/cFS_FreeRTOS_seL4/cfe/fsw/cfe-core/src/tbl/cfe_tbl_task_cmds.c ****                 /* If owner has a validation function, then notify the  */
 987:/home/simulink/cFS_FreeRTOS_seL4/cfe/fsw/cfe-core/src/tbl/cfe_tbl_task_cmds.c ****                 /* table owner that there is data to be validated       */
 988:/home/simulink/cFS_FreeRTOS_seL4/cfe/fsw/cfe-core/src/tbl/cfe_tbl_task_cmds.c ****                 if (RegRecPtr->ValidationFuncPtr != NULL)
 2344               	.loc 1 988 0
 2345 14e2 206F 0030 	move.l 48(%sp),%a0
 2346 14e6 2028 00B8 	move.l 184(%a0),%d0
 2347 14ea 4A80      	tst.l %d0
 2348 14ec 6760      	jeq .L101
 989:/home/simulink/cFS_FreeRTOS_seL4/cfe/fsw/cfe-core/src/tbl/cfe_tbl_task_cmds.c ****                 {
 990:/home/simulink/cFS_FreeRTOS_seL4/cfe/fsw/cfe-core/src/tbl/cfe_tbl_task_cmds.c ****                     if (CmdPtr->ActiveTblFlag)
 2349               	.loc 1 990 0
 2350 14ee 206F 0038 	move.l 56(%sp),%a0
 2351 14f2 3010      	move.w (%a0),%d0
 2352 14f4 4A40      	tst.w %d0
 2353 14f6 670C      	jeq .L102
68K GAS   			page 68


 991:/home/simulink/cFS_FreeRTOS_seL4/cfe/fsw/cfe-core/src/tbl/cfe_tbl_task_cmds.c ****                     {
 992:/home/simulink/cFS_FreeRTOS_seL4/cfe/fsw/cfe-core/src/tbl/cfe_tbl_task_cmds.c ****                         RegRecPtr->ValidateActiveIndex = ValIndex;
 2354               	.loc 1 992 0
 2355 14f8 206F 0030 	move.l 48(%sp),%a0
 2356 14fc 216F 003C 	move.l 60(%sp),204(%a0)
 2356      00CC 
 2357 1502 600A      	jra .L103
 2358               	.L102:
 993:/home/simulink/cFS_FreeRTOS_seL4/cfe/fsw/cfe-core/src/tbl/cfe_tbl_task_cmds.c ****                     }
 994:/home/simulink/cFS_FreeRTOS_seL4/cfe/fsw/cfe-core/src/tbl/cfe_tbl_task_cmds.c ****                     else
 995:/home/simulink/cFS_FreeRTOS_seL4/cfe/fsw/cfe-core/src/tbl/cfe_tbl_task_cmds.c ****                     {
 996:/home/simulink/cFS_FreeRTOS_seL4/cfe/fsw/cfe-core/src/tbl/cfe_tbl_task_cmds.c ****                         RegRecPtr->ValidateInactiveIndex = ValIndex;
 2359               	.loc 1 996 0
 2360 1504 206F 0030 	move.l 48(%sp),%a0
 2361 1508 216F 003C 	move.l 60(%sp),208(%a0)
 2361      00D0 
 2362               	.L103:
 997:/home/simulink/cFS_FreeRTOS_seL4/cfe/fsw/cfe-core/src/tbl/cfe_tbl_task_cmds.c ****                     }
 998:/home/simulink/cFS_FreeRTOS_seL4/cfe/fsw/cfe-core/src/tbl/cfe_tbl_task_cmds.c ****                     
 999:/home/simulink/cFS_FreeRTOS_seL4/cfe/fsw/cfe-core/src/tbl/cfe_tbl_task_cmds.c ****                     /* If application requested notification by message, then do so */
1000:/home/simulink/cFS_FreeRTOS_seL4/cfe/fsw/cfe-core/src/tbl/cfe_tbl_task_cmds.c ****                     if (CFE_TBL_SendNotificationMsg(RegRecPtr) == CFE_SUCCESS)
 2363               	.loc 1 1000 0
 2364 150e 2F2F 0030 	move.l 48(%sp),-(%sp)
 2365               	.cfi_def_cfa_offset 80
 2366 1512 4EB9 0000 	jsr CFE_TBL_SendNotificationMsg
 2366      0000 
 2367 1518 588F      	addq.l #4,%sp
 2368               	.cfi_def_cfa_offset 76
 2369 151a 4A80      	tst.l %d0
 2370 151c 661E      	jne .L104
1001:/home/simulink/cFS_FreeRTOS_seL4/cfe/fsw/cfe-core/src/tbl/cfe_tbl_task_cmds.c ****                     {
1002:/home/simulink/cFS_FreeRTOS_seL4/cfe/fsw/cfe-core/src/tbl/cfe_tbl_task_cmds.c ****                         /* Notify ground that validation request has been made */
1003:/home/simulink/cFS_FreeRTOS_seL4/cfe/fsw/cfe-core/src/tbl/cfe_tbl_task_cmds.c ****                         CFE_EVS_SendEvent(CFE_TBL_VAL_REQ_MADE_INF_EID,
 2371               	.loc 1 1003 0
 2372 151e 200F      	move.l %sp,%d0
 2373 1520 5880      	addq.l #4,%d0
 2374 1522 2F00      	move.l %d0,-(%sp)
 2375               	.cfi_def_cfa_offset 80
 2376 1524 4879 0000 	pea .LC28
 2376      0000 
 2377               	.cfi_def_cfa_offset 84
 2378 152a 4878 0001 	pea 1.w
 2379               	.cfi_def_cfa_offset 88
 2380 152e 4878 0010 	pea 16.w
 2381               	.cfi_def_cfa_offset 92
 2382 1532 4EB9 0000 	jsr CFE_EVS_SendEvent
 2382      0000 
 2383 1538 4FEF 0010 	lea (16,%sp),%sp
 2384               	.cfi_def_cfa_offset 76
 2385               	.L104:
1004:/home/simulink/cFS_FreeRTOS_seL4/cfe/fsw/cfe-core/src/tbl/cfe_tbl_task_cmds.c ****                                           CFE_EVS_DEBUG,
1005:/home/simulink/cFS_FreeRTOS_seL4/cfe/fsw/cfe-core/src/tbl/cfe_tbl_task_cmds.c ****                                           "Tbl Services issued validation request for '%s'",
1006:/home/simulink/cFS_FreeRTOS_seL4/cfe/fsw/cfe-core/src/tbl/cfe_tbl_task_cmds.c ****                                           TableName);
1007:/home/simulink/cFS_FreeRTOS_seL4/cfe/fsw/cfe-core/src/tbl/cfe_tbl_task_cmds.c ****                     }
1008:/home/simulink/cFS_FreeRTOS_seL4/cfe/fsw/cfe-core/src/tbl/cfe_tbl_task_cmds.c **** 
1009:/home/simulink/cFS_FreeRTOS_seL4/cfe/fsw/cfe-core/src/tbl/cfe_tbl_task_cmds.c ****                     /* Maintain statistic on number of validation requests given to applications */
1010:/home/simulink/cFS_FreeRTOS_seL4/cfe/fsw/cfe-core/src/tbl/cfe_tbl_task_cmds.c ****                     CFE_TBL_TaskData.NumValRequests++;
68K GAS   			page 69


 2386               	.loc 1 1010 0
 2387 153c 1039 0000 	move.b CFE_TBL_TaskData+4,%d0
 2387      0000 
 2388 1542 5280      	addq.l #1,%d0
 2389 1544 1000      	move.b %d0,%d0
 2390 1546 13C0 0000 	move.b %d0,CFE_TBL_TaskData+4
 2390      0000 
 2391 154c 6034      	jra .L105
 2392               	.L101:
1011:/home/simulink/cFS_FreeRTOS_seL4/cfe/fsw/cfe-core/src/tbl/cfe_tbl_task_cmds.c ****                 }
1012:/home/simulink/cFS_FreeRTOS_seL4/cfe/fsw/cfe-core/src/tbl/cfe_tbl_task_cmds.c ****                 else
1013:/home/simulink/cFS_FreeRTOS_seL4/cfe/fsw/cfe-core/src/tbl/cfe_tbl_task_cmds.c ****                 {
1014:/home/simulink/cFS_FreeRTOS_seL4/cfe/fsw/cfe-core/src/tbl/cfe_tbl_task_cmds.c ****                     /* If there isn't a validation function pointer, then the process is complete  
1015:/home/simulink/cFS_FreeRTOS_seL4/cfe/fsw/cfe-core/src/tbl/cfe_tbl_task_cmds.c ****                     /* By setting this value, we are letting the Housekeeping process recognize it 
1016:/home/simulink/cFS_FreeRTOS_seL4/cfe/fsw/cfe-core/src/tbl/cfe_tbl_task_cmds.c ****                     /* as data to be sent to the ground in telemetry.                              
1017:/home/simulink/cFS_FreeRTOS_seL4/cfe/fsw/cfe-core/src/tbl/cfe_tbl_task_cmds.c ****                     CFE_TBL_TaskData.ValidationResults[ValIndex].State = CFE_TBL_VALIDATION_PERFORM
 2393               	.loc 1 1017 0
 2394 154e 202F 003C 	move.l 60(%sp),%d0
 2395 1552 7238      	moveq #56,%d1
 2396 1554 4C01 0800 	muls.l %d1,%d0
 2397 1558 41F9 0000 	lea CFE_TBL_TaskData+576368,%a0
 2397      0000 
 2398 155e 7402      	moveq #2,%d2
 2399 1560 2182 0800 	move.l %d2,(%a0,%d0.l)
1018:/home/simulink/cFS_FreeRTOS_seL4/cfe/fsw/cfe-core/src/tbl/cfe_tbl_task_cmds.c ****                     
1019:/home/simulink/cFS_FreeRTOS_seL4/cfe/fsw/cfe-core/src/tbl/cfe_tbl_task_cmds.c ****                     CFE_EVS_SendEvent(CFE_TBL_ASSUMED_VALID_INF_EID,
 2400               	.loc 1 1019 0
 2401 1564 200F      	move.l %sp,%d0
 2402 1566 5880      	addq.l #4,%d0
 2403 1568 2F00      	move.l %d0,-(%sp)
 2404               	.cfi_def_cfa_offset 80
 2405 156a 4879 0000 	pea .LC29
 2405      0000 
 2406               	.cfi_def_cfa_offset 84
 2407 1570 4878 0002 	pea 2.w
 2408               	.cfi_def_cfa_offset 88
 2409 1574 4878 0017 	pea 23.w
 2410               	.cfi_def_cfa_offset 92
 2411 1578 4EB9 0000 	jsr CFE_EVS_SendEvent
 2411      0000 
 2412 157e 4FEF 0010 	lea (16,%sp),%sp
 2413               	.cfi_def_cfa_offset 76
 2414               	.L105:
1020:/home/simulink/cFS_FreeRTOS_seL4/cfe/fsw/cfe-core/src/tbl/cfe_tbl_task_cmds.c ****                                       CFE_EVS_INFORMATION,
1021:/home/simulink/cFS_FreeRTOS_seL4/cfe/fsw/cfe-core/src/tbl/cfe_tbl_task_cmds.c ****                                       "Tbl Services assumes '%s' is valid. No Validation Function h
1022:/home/simulink/cFS_FreeRTOS_seL4/cfe/fsw/cfe-core/src/tbl/cfe_tbl_task_cmds.c ****                                       TableName);
1023:/home/simulink/cFS_FreeRTOS_seL4/cfe/fsw/cfe-core/src/tbl/cfe_tbl_task_cmds.c ****                 }
1024:/home/simulink/cFS_FreeRTOS_seL4/cfe/fsw/cfe-core/src/tbl/cfe_tbl_task_cmds.c **** 
1025:/home/simulink/cFS_FreeRTOS_seL4/cfe/fsw/cfe-core/src/tbl/cfe_tbl_task_cmds.c ****                 /* Increment Successful Command Counter */
1026:/home/simulink/cFS_FreeRTOS_seL4/cfe/fsw/cfe-core/src/tbl/cfe_tbl_task_cmds.c ****                 ReturnCode = CFE_TBL_INC_CMD_CTR;
 2415               	.loc 1 1026 0
 2416 1582 7001      	moveq #1,%d0
 2417 1584 2F40 0044 	move.l %d0,68(%sp)
 2418 1588 6038      	jra .L106
 2419               	.L100:
1027:/home/simulink/cFS_FreeRTOS_seL4/cfe/fsw/cfe-core/src/tbl/cfe_tbl_task_cmds.c ****             }
1028:/home/simulink/cFS_FreeRTOS_seL4/cfe/fsw/cfe-core/src/tbl/cfe_tbl_task_cmds.c ****             else
68K GAS   			page 70


1029:/home/simulink/cFS_FreeRTOS_seL4/cfe/fsw/cfe-core/src/tbl/cfe_tbl_task_cmds.c ****             {
1030:/home/simulink/cFS_FreeRTOS_seL4/cfe/fsw/cfe-core/src/tbl/cfe_tbl_task_cmds.c ****                 CFE_EVS_SendEvent(CFE_TBL_TOO_MANY_VALIDATIONS_ERR_EID,
 2420               	.loc 1 1030 0
 2421 158a 4879 0000 	pea .LC30
 2421      0000 
 2422               	.cfi_def_cfa_offset 80
 2423 1590 4878 0003 	pea 3.w
 2424               	.cfi_def_cfa_offset 84
 2425 1594 4878 0043 	pea 67.w
 2426               	.cfi_def_cfa_offset 88
 2427 1598 4EB9 0000 	jsr CFE_EVS_SendEvent
 2427      0000 
 2428 159e 4FEF 000C 	lea (12,%sp),%sp
 2429               	.cfi_def_cfa_offset 76
 2430 15a2 601E      	jra .L106
 2431               	.L89:
1031:/home/simulink/cFS_FreeRTOS_seL4/cfe/fsw/cfe-core/src/tbl/cfe_tbl_task_cmds.c ****                                   CFE_EVS_ERROR,
1032:/home/simulink/cFS_FreeRTOS_seL4/cfe/fsw/cfe-core/src/tbl/cfe_tbl_task_cmds.c ****                                   "Too many Table Validations have been requested");
1033:/home/simulink/cFS_FreeRTOS_seL4/cfe/fsw/cfe-core/src/tbl/cfe_tbl_task_cmds.c ****             }
1034:/home/simulink/cFS_FreeRTOS_seL4/cfe/fsw/cfe-core/src/tbl/cfe_tbl_task_cmds.c ****         }
1035:/home/simulink/cFS_FreeRTOS_seL4/cfe/fsw/cfe-core/src/tbl/cfe_tbl_task_cmds.c ****     }
1036:/home/simulink/cFS_FreeRTOS_seL4/cfe/fsw/cfe-core/src/tbl/cfe_tbl_task_cmds.c ****     else /* Table could not be found in Registry */
1037:/home/simulink/cFS_FreeRTOS_seL4/cfe/fsw/cfe-core/src/tbl/cfe_tbl_task_cmds.c ****     {
1038:/home/simulink/cFS_FreeRTOS_seL4/cfe/fsw/cfe-core/src/tbl/cfe_tbl_task_cmds.c ****         CFE_EVS_SendEvent(CFE_TBL_NO_SUCH_TABLE_ERR_EID,
 2432               	.loc 1 1038 0
 2433 15a4 200F      	move.l %sp,%d0
 2434 15a6 5880      	addq.l #4,%d0
 2435 15a8 2F00      	move.l %d0,-(%sp)
 2436               	.cfi_def_cfa_offset 80
 2437 15aa 4879 0000 	pea .LC5
 2437      0000 
 2438               	.cfi_def_cfa_offset 84
 2439 15b0 4878 0003 	pea 3.w
 2440               	.cfi_def_cfa_offset 88
 2441 15b4 4878 0039 	pea 57.w
 2442               	.cfi_def_cfa_offset 92
 2443 15b8 4EB9 0000 	jsr CFE_EVS_SendEvent
 2443      0000 
 2444 15be 4FEF 0010 	lea (16,%sp),%sp
 2445               	.cfi_def_cfa_offset 76
 2446               	.L106:
1039:/home/simulink/cFS_FreeRTOS_seL4/cfe/fsw/cfe-core/src/tbl/cfe_tbl_task_cmds.c ****                           CFE_EVS_ERROR,
1040:/home/simulink/cFS_FreeRTOS_seL4/cfe/fsw/cfe-core/src/tbl/cfe_tbl_task_cmds.c ****                           "Unable to locate '%s' in Table Registry",
1041:/home/simulink/cFS_FreeRTOS_seL4/cfe/fsw/cfe-core/src/tbl/cfe_tbl_task_cmds.c ****                           TableName);
1042:/home/simulink/cFS_FreeRTOS_seL4/cfe/fsw/cfe-core/src/tbl/cfe_tbl_task_cmds.c ****     }
1043:/home/simulink/cFS_FreeRTOS_seL4/cfe/fsw/cfe-core/src/tbl/cfe_tbl_task_cmds.c **** 
1044:/home/simulink/cFS_FreeRTOS_seL4/cfe/fsw/cfe-core/src/tbl/cfe_tbl_task_cmds.c ****     return ReturnCode;
 2447               	.loc 1 1044 0
 2448 15c2 202F 0044 	move.l 68(%sp),%d0
1045:/home/simulink/cFS_FreeRTOS_seL4/cfe/fsw/cfe-core/src/tbl/cfe_tbl_task_cmds.c **** 
1046:/home/simulink/cFS_FreeRTOS_seL4/cfe/fsw/cfe-core/src/tbl/cfe_tbl_task_cmds.c **** } /* End of CFE_TBL_ValidateCmd() */
 2449               	.loc 1 1046 0
 2450 15c6 241F      	move.l (%sp)+,%d2
 2451 15c8 4FEF 0044 	lea (68,%sp),%sp
 2452 15cc 4E75      	rts
 2453               	.cfi_endproc
 2454               	.LFE67:
68K GAS   			page 71


 2455               	.sizeCFE_TBL_ValidateCmd, .-CFE_TBL_ValidateCmd
 2456               	.section.rodata
 2457               	.LC31:
 2458 05bf 496C 6C65 	.string"Illegal attempt to activate dump-only table '%s'"
 2458      6761 6C20 
 2458      6174 7465 
 2458      6D70 7420 
 2458      746F 2061 
 2459               	.LC32:
 2460 05f0 5462 6C20 	.string"Tbl Services notifying App that '%s' has a load pending"
 2460      5365 7276 
 2460      6963 6573 
 2460      206E 6F74 
 2460      6966 7969 
 2461               	.LC33:
 2462 0628 4361 6E6E 	.string"Cannot activate table '%s'. Inactive image not Validated"
 2462      6F74 2061 
 2462      6374 6976 
 2462      6174 6520 
 2462      7461 626C 
 2463               	.LC34:
 2464 0661 4361 6E6E 	.string"Cannot activate table '%s'. No Inactive image available"
 2464      6F74 2061 
 2464      6374 6976 
 2464      6174 6520 
 2464      7461 626C 
 2465               	.text
 2466               	.align2
 2467               	.globlCFE_TBL_ActivateCmd
 2468               	.typeCFE_TBL_ActivateCmd, @function
 2469               	CFE_TBL_ActivateCmd:
 2470               	.LFB68:
1047:/home/simulink/cFS_FreeRTOS_seL4/cfe/fsw/cfe-core/src/tbl/cfe_tbl_task_cmds.c **** 
1048:/home/simulink/cFS_FreeRTOS_seL4/cfe/fsw/cfe-core/src/tbl/cfe_tbl_task_cmds.c **** 
1049:/home/simulink/cFS_FreeRTOS_seL4/cfe/fsw/cfe-core/src/tbl/cfe_tbl_task_cmds.c **** /*******************************************************************
1050:/home/simulink/cFS_FreeRTOS_seL4/cfe/fsw/cfe-core/src/tbl/cfe_tbl_task_cmds.c **** **
1051:/home/simulink/cFS_FreeRTOS_seL4/cfe/fsw/cfe-core/src/tbl/cfe_tbl_task_cmds.c **** ** CFE_TBL_ActivateCmd() -- Process Activate Table Command Message
1052:/home/simulink/cFS_FreeRTOS_seL4/cfe/fsw/cfe-core/src/tbl/cfe_tbl_task_cmds.c **** **
1053:/home/simulink/cFS_FreeRTOS_seL4/cfe/fsw/cfe-core/src/tbl/cfe_tbl_task_cmds.c **** ** NOTE: For complete prolog information, see 'cfe_tbl_task_cmds.h'
1054:/home/simulink/cFS_FreeRTOS_seL4/cfe/fsw/cfe-core/src/tbl/cfe_tbl_task_cmds.c **** ********************************************************************/
1055:/home/simulink/cFS_FreeRTOS_seL4/cfe/fsw/cfe-core/src/tbl/cfe_tbl_task_cmds.c **** 
1056:/home/simulink/cFS_FreeRTOS_seL4/cfe/fsw/cfe-core/src/tbl/cfe_tbl_task_cmds.c **** CFE_TBL_CmdProcRet_t CFE_TBL_ActivateCmd( const CFE_SB_MsgPayloadPtr_t  Payload )
1057:/home/simulink/cFS_FreeRTOS_seL4/cfe/fsw/cfe-core/src/tbl/cfe_tbl_task_cmds.c **** {
 2471               	.loc 1 1057 0
 2472               	.cfi_startproc
 2473 15ce 4FEF FFC4 	lea (-60,%sp),%sp
 2474               	.cfi_def_cfa_offset 64
 2475 15d2 2F02      	move.l %d2,-(%sp)
 2476               	.cfi_def_cfa_offset 68
 2477               	.cfi_offset 2, -68
1058:/home/simulink/cFS_FreeRTOS_seL4/cfe/fsw/cfe-core/src/tbl/cfe_tbl_task_cmds.c ****     CFE_TBL_CmdProcRet_t         ReturnCode = CFE_TBL_INC_ERR_CTR;        /* Assume failure */
 2478               	.loc 1 1058 0
 2479 15d4 70FF      	moveq #-1,%d0
 2480 15d6 2F40 003C 	move.l %d0,60(%sp)
1059:/home/simulink/cFS_FreeRTOS_seL4/cfe/fsw/cfe-core/src/tbl/cfe_tbl_task_cmds.c ****     int16                        RegIndex;
1060:/home/simulink/cFS_FreeRTOS_seL4/cfe/fsw/cfe-core/src/tbl/cfe_tbl_task_cmds.c ****     const CFE_TBL_ActivateCmd_Payload_t *CmdPtr = (const CFE_TBL_ActivateCmd_Payload_t *) Payload;
 2481               	.loc 1 1060 0
68K GAS   			page 72


 2482 15da 2F6F 0044 	move.l 68(%sp),52(%sp)
 2482      0034 
1061:/home/simulink/cFS_FreeRTOS_seL4/cfe/fsw/cfe-core/src/tbl/cfe_tbl_task_cmds.c ****     char                         TableName[CFE_TBL_MAX_FULL_NAME_LEN];
1062:/home/simulink/cFS_FreeRTOS_seL4/cfe/fsw/cfe-core/src/tbl/cfe_tbl_task_cmds.c ****     CFE_TBL_RegistryRec_t       *RegRecPtr;
1063:/home/simulink/cFS_FreeRTOS_seL4/cfe/fsw/cfe-core/src/tbl/cfe_tbl_task_cmds.c ****     boolean                      ValidationStatus = FALSE;
 2483               	.loc 1 1063 0
 2484 15e0 4201      	clr.b %d1
 2485 15e2 1F41 003B 	move.b %d1,59(%sp)
1064:/home/simulink/cFS_FreeRTOS_seL4/cfe/fsw/cfe-core/src/tbl/cfe_tbl_task_cmds.c **** 
1065:/home/simulink/cFS_FreeRTOS_seL4/cfe/fsw/cfe-core/src/tbl/cfe_tbl_task_cmds.c ****     /* Make sure all strings are null terminated before attempting to process them */
1066:/home/simulink/cFS_FreeRTOS_seL4/cfe/fsw/cfe-core/src/tbl/cfe_tbl_task_cmds.c ****     CFE_SB_MessageStringGet(TableName, (char *)CmdPtr->TableName, NULL,
 2486               	.loc 1 1066 0
 2487 15e6 202F 0034 	move.l 52(%sp),%d0
 2488 15ea 4878 0028 	pea 40.w
 2489               	.cfi_def_cfa_offset 72
 2490 15ee 4878 0028 	pea 40.w
 2491               	.cfi_def_cfa_offset 76
 2492 15f2 42A7      	clr.l -(%sp)
 2493               	.cfi_def_cfa_offset 80
 2494 15f4 2F00      	move.l %d0,-(%sp)
 2495               	.cfi_def_cfa_offset 84
 2496 15f6 200F      	move.l %sp,%d0
 2497 15f8 0680 0000 	add.l #20,%d0
 2497      0014 
 2498 15fe 2F00      	move.l %d0,-(%sp)
 2499               	.cfi_def_cfa_offset 88
 2500 1600 4EB9 0000 	jsr CFE_SB_MessageStringGet
 2500      0000 
 2501 1606 4FEF 0014 	lea (20,%sp),%sp
 2502               	.cfi_def_cfa_offset 68
1067:/home/simulink/cFS_FreeRTOS_seL4/cfe/fsw/cfe-core/src/tbl/cfe_tbl_task_cmds.c ****             CFE_TBL_MAX_FULL_NAME_LEN, sizeof(CmdPtr->TableName));
1068:/home/simulink/cFS_FreeRTOS_seL4/cfe/fsw/cfe-core/src/tbl/cfe_tbl_task_cmds.c **** 
1069:/home/simulink/cFS_FreeRTOS_seL4/cfe/fsw/cfe-core/src/tbl/cfe_tbl_task_cmds.c ****     /* Before doing anything, lets make sure the table that is to be dumped exists */
1070:/home/simulink/cFS_FreeRTOS_seL4/cfe/fsw/cfe-core/src/tbl/cfe_tbl_task_cmds.c ****     RegIndex = CFE_TBL_FindTableInRegistry(TableName);
 2503               	.loc 1 1070 0
 2504 160a 200F      	move.l %sp,%d0
 2505 160c 5880      	addq.l #4,%d0
 2506 160e 2F00      	move.l %d0,-(%sp)
 2507               	.cfi_def_cfa_offset 72
 2508 1610 4EB9 0000 	jsr CFE_TBL_FindTableInRegistry
 2508      0000 
 2509 1616 588F      	addq.l #4,%sp
 2510               	.cfi_def_cfa_offset 68
 2511 1618 3F40 0032 	move.w %d0,50(%sp)
1071:/home/simulink/cFS_FreeRTOS_seL4/cfe/fsw/cfe-core/src/tbl/cfe_tbl_task_cmds.c **** 
1072:/home/simulink/cFS_FreeRTOS_seL4/cfe/fsw/cfe-core/src/tbl/cfe_tbl_task_cmds.c ****     if (RegIndex != CFE_TBL_NOT_FOUND)
 2512               	.loc 1 1072 0
 2513 161c 306F 0032 	move.w 50(%sp),%a0
 2514 1620 74FF      	moveq #-1,%d2
 2515 1622 B488      	cmp.l %a0,%d2
 2516 1624 6700 0156 	jeq .L109
1073:/home/simulink/cFS_FreeRTOS_seL4/cfe/fsw/cfe-core/src/tbl/cfe_tbl_task_cmds.c ****     {
1074:/home/simulink/cFS_FreeRTOS_seL4/cfe/fsw/cfe-core/src/tbl/cfe_tbl_task_cmds.c ****         /* Obtain a pointer to registry information about specified table */
1075:/home/simulink/cFS_FreeRTOS_seL4/cfe/fsw/cfe-core/src/tbl/cfe_tbl_task_cmds.c ****         RegRecPtr = &CFE_TBL_TaskData.Registry[RegIndex];
 2517               	.loc 1 1075 0
 2518 1628 302F 0032 	move.w 50(%sp),%d0
 2519 162c 48C0      	ext.l %d0
68K GAS   			page 73


 2520 162e 223C 0000 	move.l #336,%d1
 2520      0150 
 2521 1634 4C01 0800 	muls.l %d1,%d0
 2522 1638 0680 0000 	add.l #4972,%d0
 2522      136C 
 2523 163e 2400      	move.l %d0,%d2
 2524 1640 0682 0000 	add.l #CFE_TBL_TaskData,%d2
 2524      0000 
 2525 1646 2F42 002C 	move.l %d2,44(%sp)
1076:/home/simulink/cFS_FreeRTOS_seL4/cfe/fsw/cfe-core/src/tbl/cfe_tbl_task_cmds.c ****         
1077:/home/simulink/cFS_FreeRTOS_seL4/cfe/fsw/cfe-core/src/tbl/cfe_tbl_task_cmds.c ****         if (RegRecPtr->DumpOnly)
 2526               	.loc 1 1077 0
 2527 164a 206F 002C 	move.l 44(%sp),%a0
 2528 164e 1028 00E1 	move.b 225(%a0),%d0
 2529 1652 4A00      	tst.b %d0
 2530 1654 6722      	jeq .L110
1078:/home/simulink/cFS_FreeRTOS_seL4/cfe/fsw/cfe-core/src/tbl/cfe_tbl_task_cmds.c ****         {
1079:/home/simulink/cFS_FreeRTOS_seL4/cfe/fsw/cfe-core/src/tbl/cfe_tbl_task_cmds.c ****             CFE_EVS_SendEvent(CFE_TBL_ACTIVATE_DUMP_ONLY_ERR_EID,
 2531               	.loc 1 1079 0
 2532 1656 200F      	move.l %sp,%d0
 2533 1658 5880      	addq.l #4,%d0
 2534 165a 2F00      	move.l %d0,-(%sp)
 2535               	.cfi_def_cfa_offset 72
 2536 165c 4879 0000 	pea .LC31
 2536      0000 
 2537               	.cfi_def_cfa_offset 76
 2538 1662 4878 0003 	pea 3.w
 2539               	.cfi_def_cfa_offset 80
 2540 1666 4878 004E 	pea 78.w
 2541               	.cfi_def_cfa_offset 84
 2542 166a 4EB9 0000 	jsr CFE_EVS_SendEvent
 2542      0000 
 2543 1670 4FEF 0010 	lea (16,%sp),%sp
 2544               	.cfi_def_cfa_offset 68
 2545 1674 6000 0124 	jra .L118
 2546               	.L110:
1080:/home/simulink/cFS_FreeRTOS_seL4/cfe/fsw/cfe-core/src/tbl/cfe_tbl_task_cmds.c ****                               CFE_EVS_ERROR,
1081:/home/simulink/cFS_FreeRTOS_seL4/cfe/fsw/cfe-core/src/tbl/cfe_tbl_task_cmds.c ****                               "Illegal attempt to activate dump-only table '%s'",
1082:/home/simulink/cFS_FreeRTOS_seL4/cfe/fsw/cfe-core/src/tbl/cfe_tbl_task_cmds.c ****                               TableName);
1083:/home/simulink/cFS_FreeRTOS_seL4/cfe/fsw/cfe-core/src/tbl/cfe_tbl_task_cmds.c ****         }
1084:/home/simulink/cFS_FreeRTOS_seL4/cfe/fsw/cfe-core/src/tbl/cfe_tbl_task_cmds.c ****         else if (RegRecPtr->LoadInProgress != CFE_TBL_NO_LOAD_IN_PROGRESS)
 2547               	.loc 1 1084 0
 2548 1678 206F 002C 	move.l 44(%sp),%a0
 2549 167c 2028 00C8 	move.l 200(%a0),%d0
 2550 1680 72FF      	moveq #-1,%d1
 2551 1682 B280      	cmp.l %d0,%d1
 2552 1684 6700 00D6 	jeq .L112
1085:/home/simulink/cFS_FreeRTOS_seL4/cfe/fsw/cfe-core/src/tbl/cfe_tbl_task_cmds.c ****         {
1086:/home/simulink/cFS_FreeRTOS_seL4/cfe/fsw/cfe-core/src/tbl/cfe_tbl_task_cmds.c ****             /* Determine if the inactive buffer has been successfully validated or not */
1087:/home/simulink/cFS_FreeRTOS_seL4/cfe/fsw/cfe-core/src/tbl/cfe_tbl_task_cmds.c ****             if (RegRecPtr->DblBuffered)
 2553               	.loc 1 1087 0
 2554 1688 206F 002C 	move.l 44(%sp),%a0
 2555 168c 1028 00E2 	move.b 226(%a0),%d0
 2556 1690 4A00      	tst.b %d0
 2557 1692 672E      	jeq .L113
1088:/home/simulink/cFS_FreeRTOS_seL4/cfe/fsw/cfe-core/src/tbl/cfe_tbl_task_cmds.c ****             {
1089:/home/simulink/cFS_FreeRTOS_seL4/cfe/fsw/cfe-core/src/tbl/cfe_tbl_task_cmds.c ****                 ValidationStatus = RegRecPtr->Buffers[(1U-RegRecPtr->ActiveBufferIndex)].Validated;
68K GAS   			page 74


 2558               	.loc 1 1089 0
 2559 1694 206F 002C 	move.l 44(%sp),%a0
 2560 1698 1028 00E5 	move.b 229(%a0),%d0
 2561 169c 1000      	move.b %d0,%d0
 2562 169e 0280 0000 	and.l #255,%d0
 2562      00FF 
 2563 16a4 7401      	moveq #1,%d2
 2564 16a6 9480      	sub.l %d0,%d2
 2565 16a8 2002      	move.l %d2,%d0
 2566 16aa 222F 002C 	move.l 44(%sp),%d1
 2567 16ae 7454      	moveq #84,%d2
 2568 16b0 4C02 0800 	muls.l %d2,%d0
 2569 16b4 D081      	add.l %d1,%d0
 2570 16b6 2040      	move.l %d0,%a0
 2571 16b8 41E8 0021 	lea (33,%a0),%a0
 2572 16bc 1F50 003B 	move.b (%a0),59(%sp)
 2573 16c0 601C      	jra .L114
 2574               	.L113:
1090:/home/simulink/cFS_FreeRTOS_seL4/cfe/fsw/cfe-core/src/tbl/cfe_tbl_task_cmds.c ****             }
1091:/home/simulink/cFS_FreeRTOS_seL4/cfe/fsw/cfe-core/src/tbl/cfe_tbl_task_cmds.c ****             else
1092:/home/simulink/cFS_FreeRTOS_seL4/cfe/fsw/cfe-core/src/tbl/cfe_tbl_task_cmds.c ****             {
1093:/home/simulink/cFS_FreeRTOS_seL4/cfe/fsw/cfe-core/src/tbl/cfe_tbl_task_cmds.c ****                 ValidationStatus = CFE_TBL_TaskData.LoadBuffs[RegRecPtr->LoadInProgress].Validated;
 2575               	.loc 1 1093 0
 2576 16c2 206F 002C 	move.l 44(%sp),%a0
 2577 16c6 2028 00C8 	move.l 200(%a0),%d0
 2578 16ca 7254      	moveq #84,%d1
 2579 16cc 4C01 0800 	muls.l %d1,%d0
 2580 16d0 41F9 0000 	lea CFE_TBL_TaskData+557,%a0
 2580      0000 
 2581 16d6 43F0 0800 	lea (%a0,%d0.l),%a1
 2582 16da 1F51 003B 	move.b (%a1),59(%sp)
 2583               	.L114:
1094:/home/simulink/cFS_FreeRTOS_seL4/cfe/fsw/cfe-core/src/tbl/cfe_tbl_task_cmds.c ****             }
1095:/home/simulink/cFS_FreeRTOS_seL4/cfe/fsw/cfe-core/src/tbl/cfe_tbl_task_cmds.c ****             
1096:/home/simulink/cFS_FreeRTOS_seL4/cfe/fsw/cfe-core/src/tbl/cfe_tbl_task_cmds.c ****             if (ValidationStatus == TRUE)
 2584               	.loc 1 1096 0
 2585 16de 4280      	clr.l %d0
 2586 16e0 102F 003B 	move.b 59(%sp),%d0
 2587 16e4 7201      	moveq #1,%d1
 2588 16e6 B280      	cmp.l %d0,%d1
 2589 16e8 6652      	jne .L115
1097:/home/simulink/cFS_FreeRTOS_seL4/cfe/fsw/cfe-core/src/tbl/cfe_tbl_task_cmds.c ****             {
1098:/home/simulink/cFS_FreeRTOS_seL4/cfe/fsw/cfe-core/src/tbl/cfe_tbl_task_cmds.c ****                 CFE_TBL_TaskData.Registry[RegIndex].LoadPending = TRUE;
 2590               	.loc 1 1098 0
 2591 16ea 302F 0032 	move.w 50(%sp),%d0
 2592 16ee 48C0      	ext.l %d0
 2593 16f0 243C 0000 	move.l #336,%d2
 2593      0150 
 2594 16f6 4C02 0800 	muls.l %d2,%d0
 2595 16fa 41F9 0000 	lea CFE_TBL_TaskData+5196,%a0
 2595      0000 
 2596 1700 7201      	moveq #1,%d1
 2597 1702 1181 0800 	move.b %d1,(%a0,%d0.l)
1099:/home/simulink/cFS_FreeRTOS_seL4/cfe/fsw/cfe-core/src/tbl/cfe_tbl_task_cmds.c ****                 
1100:/home/simulink/cFS_FreeRTOS_seL4/cfe/fsw/cfe-core/src/tbl/cfe_tbl_task_cmds.c ****                 /* If application requested notification by message, then do so */
1101:/home/simulink/cFS_FreeRTOS_seL4/cfe/fsw/cfe-core/src/tbl/cfe_tbl_task_cmds.c ****                 if (CFE_TBL_SendNotificationMsg(RegRecPtr) == CFE_SUCCESS)
 2598               	.loc 1 1101 0
68K GAS   			page 75


 2599 1706 2F2F 002C 	move.l 44(%sp),-(%sp)
 2600               	.cfi_def_cfa_offset 72
 2601 170a 4EB9 0000 	jsr CFE_TBL_SendNotificationMsg
 2601      0000 
 2602 1710 588F      	addq.l #4,%sp
 2603               	.cfi_def_cfa_offset 68
 2604 1712 4A80      	tst.l %d0
 2605 1714 661E      	jne .L116
1102:/home/simulink/cFS_FreeRTOS_seL4/cfe/fsw/cfe-core/src/tbl/cfe_tbl_task_cmds.c ****                 {
1103:/home/simulink/cFS_FreeRTOS_seL4/cfe/fsw/cfe-core/src/tbl/cfe_tbl_task_cmds.c ****                     CFE_EVS_SendEvent(CFE_TBL_LOAD_PEND_REQ_INF_EID,
 2606               	.loc 1 1103 0
 2607 1716 200F      	move.l %sp,%d0
 2608 1718 5880      	addq.l #4,%d0
 2609 171a 2F00      	move.l %d0,-(%sp)
 2610               	.cfi_def_cfa_offset 72
 2611 171c 4879 0000 	pea .LC32
 2611      0000 
 2612               	.cfi_def_cfa_offset 76
 2613 1722 4878 0001 	pea 1.w
 2614               	.cfi_def_cfa_offset 80
 2615 1726 4878 0011 	pea 17.w
 2616               	.cfi_def_cfa_offset 84
 2617 172a 4EB9 0000 	jsr CFE_EVS_SendEvent
 2617      0000 
 2618 1730 4FEF 0010 	lea (16,%sp),%sp
 2619               	.cfi_def_cfa_offset 68
 2620               	.L116:
1104:/home/simulink/cFS_FreeRTOS_seL4/cfe/fsw/cfe-core/src/tbl/cfe_tbl_task_cmds.c ****                                       CFE_EVS_DEBUG,
1105:/home/simulink/cFS_FreeRTOS_seL4/cfe/fsw/cfe-core/src/tbl/cfe_tbl_task_cmds.c ****                                       "Tbl Services notifying App that '%s' has a load pending",
1106:/home/simulink/cFS_FreeRTOS_seL4/cfe/fsw/cfe-core/src/tbl/cfe_tbl_task_cmds.c ****                                       TableName);
1107:/home/simulink/cFS_FreeRTOS_seL4/cfe/fsw/cfe-core/src/tbl/cfe_tbl_task_cmds.c ****                 }
1108:/home/simulink/cFS_FreeRTOS_seL4/cfe/fsw/cfe-core/src/tbl/cfe_tbl_task_cmds.c **** 
1109:/home/simulink/cFS_FreeRTOS_seL4/cfe/fsw/cfe-core/src/tbl/cfe_tbl_task_cmds.c ****                 /* Increment Successful Command Counter */
1110:/home/simulink/cFS_FreeRTOS_seL4/cfe/fsw/cfe-core/src/tbl/cfe_tbl_task_cmds.c ****                 ReturnCode = CFE_TBL_INC_CMD_CTR;
 2621               	.loc 1 1110 0
 2622 1734 7401      	moveq #1,%d2
 2623 1736 2F42 003C 	move.l %d2,60(%sp)
 2624 173a 605E      	jra .L118
 2625               	.L115:
1111:/home/simulink/cFS_FreeRTOS_seL4/cfe/fsw/cfe-core/src/tbl/cfe_tbl_task_cmds.c ****             }
1112:/home/simulink/cFS_FreeRTOS_seL4/cfe/fsw/cfe-core/src/tbl/cfe_tbl_task_cmds.c ****             else
1113:/home/simulink/cFS_FreeRTOS_seL4/cfe/fsw/cfe-core/src/tbl/cfe_tbl_task_cmds.c ****             {
1114:/home/simulink/cFS_FreeRTOS_seL4/cfe/fsw/cfe-core/src/tbl/cfe_tbl_task_cmds.c ****                 CFE_EVS_SendEvent(CFE_TBL_UNVALIDATED_ERR_EID,
 2626               	.loc 1 1114 0
 2627 173c 200F      	move.l %sp,%d0
 2628 173e 5880      	addq.l #4,%d0
 2629 1740 2F00      	move.l %d0,-(%sp)
 2630               	.cfi_def_cfa_offset 72
 2631 1742 4879 0000 	pea .LC33
 2631      0000 
 2632               	.cfi_def_cfa_offset 76
 2633 1748 4878 0003 	pea 3.w
 2634               	.cfi_def_cfa_offset 80
 2635 174c 4878 0051 	pea 81.w
 2636               	.cfi_def_cfa_offset 84
 2637 1750 4EB9 0000 	jsr CFE_EVS_SendEvent
 2637      0000 
68K GAS   			page 76


 2638 1756 4FEF 0010 	lea (16,%sp),%sp
 2639               	.cfi_def_cfa_offset 68
 2640 175a 603E      	jra .L118
 2641               	.L112:
1115:/home/simulink/cFS_FreeRTOS_seL4/cfe/fsw/cfe-core/src/tbl/cfe_tbl_task_cmds.c ****                                   CFE_EVS_ERROR,
1116:/home/simulink/cFS_FreeRTOS_seL4/cfe/fsw/cfe-core/src/tbl/cfe_tbl_task_cmds.c ****                                   "Cannot activate table '%s'. Inactive image not Validated",
1117:/home/simulink/cFS_FreeRTOS_seL4/cfe/fsw/cfe-core/src/tbl/cfe_tbl_task_cmds.c ****                                   TableName);
1118:/home/simulink/cFS_FreeRTOS_seL4/cfe/fsw/cfe-core/src/tbl/cfe_tbl_task_cmds.c ****             }
1119:/home/simulink/cFS_FreeRTOS_seL4/cfe/fsw/cfe-core/src/tbl/cfe_tbl_task_cmds.c ****         }
1120:/home/simulink/cFS_FreeRTOS_seL4/cfe/fsw/cfe-core/src/tbl/cfe_tbl_task_cmds.c ****         else
1121:/home/simulink/cFS_FreeRTOS_seL4/cfe/fsw/cfe-core/src/tbl/cfe_tbl_task_cmds.c ****         {
1122:/home/simulink/cFS_FreeRTOS_seL4/cfe/fsw/cfe-core/src/tbl/cfe_tbl_task_cmds.c ****             CFE_EVS_SendEvent(CFE_TBL_ACTIVATE_ERR_EID,
 2642               	.loc 1 1122 0
 2643 175c 200F      	move.l %sp,%d0
 2644 175e 5880      	addq.l #4,%d0
 2645 1760 2F00      	move.l %d0,-(%sp)
 2646               	.cfi_def_cfa_offset 72
 2647 1762 4879 0000 	pea .LC34
 2647      0000 
 2648               	.cfi_def_cfa_offset 76
 2649 1768 4878 0003 	pea 3.w
 2650               	.cfi_def_cfa_offset 80
 2651 176c 4878 0046 	pea 70.w
 2652               	.cfi_def_cfa_offset 84
 2653 1770 4EB9 0000 	jsr CFE_EVS_SendEvent
 2653      0000 
 2654 1776 4FEF 0010 	lea (16,%sp),%sp
 2655               	.cfi_def_cfa_offset 68
 2656 177a 601E      	jra .L118
 2657               	.L109:
1123:/home/simulink/cFS_FreeRTOS_seL4/cfe/fsw/cfe-core/src/tbl/cfe_tbl_task_cmds.c ****                               CFE_EVS_ERROR,
1124:/home/simulink/cFS_FreeRTOS_seL4/cfe/fsw/cfe-core/src/tbl/cfe_tbl_task_cmds.c ****                               "Cannot activate table '%s'. No Inactive image available",
1125:/home/simulink/cFS_FreeRTOS_seL4/cfe/fsw/cfe-core/src/tbl/cfe_tbl_task_cmds.c ****                               TableName);
1126:/home/simulink/cFS_FreeRTOS_seL4/cfe/fsw/cfe-core/src/tbl/cfe_tbl_task_cmds.c ****         }
1127:/home/simulink/cFS_FreeRTOS_seL4/cfe/fsw/cfe-core/src/tbl/cfe_tbl_task_cmds.c ****     }
1128:/home/simulink/cFS_FreeRTOS_seL4/cfe/fsw/cfe-core/src/tbl/cfe_tbl_task_cmds.c ****     else /* Table could not be found in Registry */
1129:/home/simulink/cFS_FreeRTOS_seL4/cfe/fsw/cfe-core/src/tbl/cfe_tbl_task_cmds.c ****     {
1130:/home/simulink/cFS_FreeRTOS_seL4/cfe/fsw/cfe-core/src/tbl/cfe_tbl_task_cmds.c ****         CFE_EVS_SendEvent(CFE_TBL_NO_SUCH_TABLE_ERR_EID,
 2658               	.loc 1 1130 0
 2659 177c 200F      	move.l %sp,%d0
 2660 177e 5880      	addq.l #4,%d0
 2661 1780 2F00      	move.l %d0,-(%sp)
 2662               	.cfi_def_cfa_offset 72
 2663 1782 4879 0000 	pea .LC5
 2663      0000 
 2664               	.cfi_def_cfa_offset 76
 2665 1788 4878 0003 	pea 3.w
 2666               	.cfi_def_cfa_offset 80
 2667 178c 4878 0039 	pea 57.w
 2668               	.cfi_def_cfa_offset 84
 2669 1790 4EB9 0000 	jsr CFE_EVS_SendEvent
 2669      0000 
 2670 1796 4FEF 0010 	lea (16,%sp),%sp
 2671               	.cfi_def_cfa_offset 68
 2672               	.L118:
1131:/home/simulink/cFS_FreeRTOS_seL4/cfe/fsw/cfe-core/src/tbl/cfe_tbl_task_cmds.c ****                           CFE_EVS_ERROR,
1132:/home/simulink/cFS_FreeRTOS_seL4/cfe/fsw/cfe-core/src/tbl/cfe_tbl_task_cmds.c ****                           "Unable to locate '%s' in Table Registry",
68K GAS   			page 77


1133:/home/simulink/cFS_FreeRTOS_seL4/cfe/fsw/cfe-core/src/tbl/cfe_tbl_task_cmds.c ****                           TableName);
1134:/home/simulink/cFS_FreeRTOS_seL4/cfe/fsw/cfe-core/src/tbl/cfe_tbl_task_cmds.c ****     }
1135:/home/simulink/cFS_FreeRTOS_seL4/cfe/fsw/cfe-core/src/tbl/cfe_tbl_task_cmds.c **** 
1136:/home/simulink/cFS_FreeRTOS_seL4/cfe/fsw/cfe-core/src/tbl/cfe_tbl_task_cmds.c ****     return ReturnCode;
 2673               	.loc 1 1136 0
 2674 179a 202F 003C 	move.l 60(%sp),%d0
1137:/home/simulink/cFS_FreeRTOS_seL4/cfe/fsw/cfe-core/src/tbl/cfe_tbl_task_cmds.c **** 
1138:/home/simulink/cFS_FreeRTOS_seL4/cfe/fsw/cfe-core/src/tbl/cfe_tbl_task_cmds.c **** } /* End of CFE_TBL_ActivateCmd() */
 2675               	.loc 1 1138 0
 2676 179e 241F      	move.l (%sp)+,%d2
 2677 17a0 4FEF 003C 	lea (60,%sp),%sp
 2678 17a4 4E75      	rts
 2679               	.cfi_endproc
 2680               	.LFE68:
 2681               	.sizeCFE_TBL_ActivateCmd, .-CFE_TBL_ActivateCmd
 2682               	.section.rodata
 2683               	.LC35:
 2684 0699 2F72 616D 	.string"/ram/cfe_tbl_reg.log"
 2684      2F63 6665 
 2684      5F74 626C 
 2684      5F72 6567 
 2684      2E6C 6F67 
 2685               	.LC36:
 2686 06ae 5461 626C 	.string"Table Registry"
 2686      6520 5265 
 2686      6769 7374 
 2686      7279 00
 2687               	.LC37:
 2688 06bd 2D2D 554E 	.string"--UNOWNED--"
 2688      4F57 4E45 
 2688      442D 2D00 
 2689               	.LC38:
 2690 06c9 5375 6363 	.string"Successfully overwrote '%s' with Table Registry:Size=%d,Entries=%d"
 2690      6573 7366 
 2690      756C 6C79 
 2690      206F 7665 
 2690      7277 726F 
 2691               	.LC39:
 2692 070c 5375 6363 	.string"Successfully dumped Table Registry to '%s':Size=%d,Entries=%d"
 2692      6573 7366 
 2692      756C 6C79 
 2692      2064 756D 
 2692      7065 6420 
 2693               	.LC40:
 2694 074a 4572 726F 	.string"Error writing Registry to '%s', Status=0x%08X"
 2694      7220 7772 
 2694      6974 696E 
 2694      6720 5265 
 2694      6769 7374 
 2695               	.text
 2696               	.align2
 2697               	.globlCFE_TBL_DumpRegCmd
 2698               	.typeCFE_TBL_DumpRegCmd, @function
 2699               	CFE_TBL_DumpRegCmd:
 2700               	.LFB69:
1139:/home/simulink/cFS_FreeRTOS_seL4/cfe/fsw/cfe-core/src/tbl/cfe_tbl_task_cmds.c **** 
1140:/home/simulink/cFS_FreeRTOS_seL4/cfe/fsw/cfe-core/src/tbl/cfe_tbl_task_cmds.c **** 
68K GAS   			page 78


1141:/home/simulink/cFS_FreeRTOS_seL4/cfe/fsw/cfe-core/src/tbl/cfe_tbl_task_cmds.c **** /*******************************************************************
1142:/home/simulink/cFS_FreeRTOS_seL4/cfe/fsw/cfe-core/src/tbl/cfe_tbl_task_cmds.c **** **
1143:/home/simulink/cFS_FreeRTOS_seL4/cfe/fsw/cfe-core/src/tbl/cfe_tbl_task_cmds.c **** ** CFE_TBL_DumpRegCmd() -- Process Dump Table Registry to file Command Message
1144:/home/simulink/cFS_FreeRTOS_seL4/cfe/fsw/cfe-core/src/tbl/cfe_tbl_task_cmds.c **** **
1145:/home/simulink/cFS_FreeRTOS_seL4/cfe/fsw/cfe-core/src/tbl/cfe_tbl_task_cmds.c **** ** NOTE: For complete prolog information, see 'cfe_tbl_task_cmds.h'
1146:/home/simulink/cFS_FreeRTOS_seL4/cfe/fsw/cfe-core/src/tbl/cfe_tbl_task_cmds.c **** ********************************************************************/
1147:/home/simulink/cFS_FreeRTOS_seL4/cfe/fsw/cfe-core/src/tbl/cfe_tbl_task_cmds.c **** 
1148:/home/simulink/cFS_FreeRTOS_seL4/cfe/fsw/cfe-core/src/tbl/cfe_tbl_task_cmds.c **** CFE_TBL_CmdProcRet_t CFE_TBL_DumpRegCmd( const CFE_SB_MsgPayloadPtr_t  Payload )
1149:/home/simulink/cFS_FreeRTOS_seL4/cfe/fsw/cfe-core/src/tbl/cfe_tbl_task_cmds.c **** {
 2701               	.loc 1 1149 0
 2702               	.cfi_startproc
 2703 17a6 4FEF FEB8 	lea (-328,%sp),%sp
 2704               	.cfi_def_cfa_offset 332
 2705 17aa 2F02      	move.l %d2,-(%sp)
 2706               	.cfi_def_cfa_offset 336
 2707               	.cfi_offset 2, -336
1150:/home/simulink/cFS_FreeRTOS_seL4/cfe/fsw/cfe-core/src/tbl/cfe_tbl_task_cmds.c ****     CFE_TBL_CmdProcRet_t        ReturnCode = CFE_TBL_INC_ERR_CTR;        /* Assume failure */
 2708               	.loc 1 1150 0
 2709 17ac 70FF      	moveq #-1,%d0
 2710 17ae 2F40 0148 	move.l %d0,328(%sp)
1151:/home/simulink/cFS_FreeRTOS_seL4/cfe/fsw/cfe-core/src/tbl/cfe_tbl_task_cmds.c ****     boolean                     FileExistedPrev = FALSE;
 2711               	.loc 1 1151 0
 2712 17b2 4201      	clr.b %d1
 2713 17b4 1F41 0147 	move.b %d1,327(%sp)
1152:/home/simulink/cFS_FreeRTOS_seL4/cfe/fsw/cfe-core/src/tbl/cfe_tbl_task_cmds.c ****     CFE_FS_Header_t             StdFileHeader;
1153:/home/simulink/cFS_FreeRTOS_seL4/cfe/fsw/cfe-core/src/tbl/cfe_tbl_task_cmds.c ****     int32                       FileDescriptor;
1154:/home/simulink/cFS_FreeRTOS_seL4/cfe/fsw/cfe-core/src/tbl/cfe_tbl_task_cmds.c ****     int32                       Status;
1155:/home/simulink/cFS_FreeRTOS_seL4/cfe/fsw/cfe-core/src/tbl/cfe_tbl_task_cmds.c ****     int16                       RegIndex=0;
 2714               	.loc 1 1155 0
 2715 17b8 4242      	clr.w %d2
 2716 17ba 3F42 013E 	move.w %d2,318(%sp)
1156:/home/simulink/cFS_FreeRTOS_seL4/cfe/fsw/cfe-core/src/tbl/cfe_tbl_task_cmds.c ****     const CFE_TBL_DumpRegCmd_Payload_t *CmdPtr = (const CFE_TBL_DumpRegCmd_Payload_t *) Payload;
 2717               	.loc 1 1156 0
 2718 17be 2F6F 0150 	move.l 336(%sp),304(%sp)
 2718      0130 
1157:/home/simulink/cFS_FreeRTOS_seL4/cfe/fsw/cfe-core/src/tbl/cfe_tbl_task_cmds.c ****     char                        DumpFilename[OS_MAX_PATH_LEN];
1158:/home/simulink/cFS_FreeRTOS_seL4/cfe/fsw/cfe-core/src/tbl/cfe_tbl_task_cmds.c ****     CFE_TBL_RegistryRec_t      *RegRecPtr;
1159:/home/simulink/cFS_FreeRTOS_seL4/cfe/fsw/cfe-core/src/tbl/cfe_tbl_task_cmds.c ****     CFE_TBL_Handle_t            HandleIterator;
1160:/home/simulink/cFS_FreeRTOS_seL4/cfe/fsw/cfe-core/src/tbl/cfe_tbl_task_cmds.c ****     CFE_TBL_RegDumpRec_t        DumpRecord;
1161:/home/simulink/cFS_FreeRTOS_seL4/cfe/fsw/cfe-core/src/tbl/cfe_tbl_task_cmds.c ****     int32                       FileSize=0;
 2719               	.loc 1 1161 0
 2720 17c4 42AF 0138 	clr.l 312(%sp)
1162:/home/simulink/cFS_FreeRTOS_seL4/cfe/fsw/cfe-core/src/tbl/cfe_tbl_task_cmds.c ****     int32                       NumEntries=0;
 2721               	.loc 1 1162 0
 2722 17c8 42AF 0134 	clr.l 308(%sp)
1163:/home/simulink/cFS_FreeRTOS_seL4/cfe/fsw/cfe-core/src/tbl/cfe_tbl_task_cmds.c **** 
1164:/home/simulink/cFS_FreeRTOS_seL4/cfe/fsw/cfe-core/src/tbl/cfe_tbl_task_cmds.c ****     /* Copy the commanded filename into local buffer to ensure size limitation and to allow for mod
1165:/home/simulink/cFS_FreeRTOS_seL4/cfe/fsw/cfe-core/src/tbl/cfe_tbl_task_cmds.c ****     CFE_SB_MessageStringGet(DumpFilename, (char *)CmdPtr->DumpFilename, CFE_TBL_DEFAULT_REG_DUMP_FI
 2723               	.loc 1 1165 0
 2724 17cc 202F 0130 	move.l 304(%sp),%d0
 2725 17d0 4878 0040 	pea 64.w
 2726               	.cfi_def_cfa_offset 340
 2727 17d4 4878 0040 	pea 64.w
 2728               	.cfi_def_cfa_offset 344
 2729 17d8 4879 0000 	pea .LC35
 2729      0000 
 2730               	.cfi_def_cfa_offset 348
68K GAS   			page 79


 2731 17de 2F00      	move.l %d0,-(%sp)
 2732               	.cfi_def_cfa_offset 352
 2733 17e0 200F      	move.l %sp,%d0
 2734 17e2 0680 0000 	add.l #184,%d0
 2734      00B8 
 2735 17e8 2F00      	move.l %d0,-(%sp)
 2736               	.cfi_def_cfa_offset 356
 2737 17ea 4EB9 0000 	jsr CFE_SB_MessageStringGet
 2737      0000 
 2738 17f0 4FEF 0014 	lea (20,%sp),%sp
 2739               	.cfi_def_cfa_offset 336
1166:/home/simulink/cFS_FreeRTOS_seL4/cfe/fsw/cfe-core/src/tbl/cfe_tbl_task_cmds.c ****             OS_MAX_PATH_LEN, sizeof(CmdPtr->DumpFilename));
1167:/home/simulink/cFS_FreeRTOS_seL4/cfe/fsw/cfe-core/src/tbl/cfe_tbl_task_cmds.c **** 
1168:/home/simulink/cFS_FreeRTOS_seL4/cfe/fsw/cfe-core/src/tbl/cfe_tbl_task_cmds.c ****     /* Check to see if the dump file already exists */
1169:/home/simulink/cFS_FreeRTOS_seL4/cfe/fsw/cfe-core/src/tbl/cfe_tbl_task_cmds.c ****     FileDescriptor = OS_open(DumpFilename, OS_READ_ONLY, 0);
 2740               	.loc 1 1169 0
 2741 17f4 42A7      	clr.l -(%sp)
 2742               	.cfi_def_cfa_offset 340
 2743 17f6 42A7      	clr.l -(%sp)
 2744               	.cfi_def_cfa_offset 344
 2745 17f8 200F      	move.l %sp,%d0
 2746 17fa 0680 0000 	add.l #176,%d0
 2746      00B0 
 2747 1800 2F00      	move.l %d0,-(%sp)
 2748               	.cfi_def_cfa_offset 348
 2749 1802 4EB9 0000 	jsr OS_open
 2749      0000 
 2750 1808 4FEF 000C 	lea (12,%sp),%sp
 2751               	.cfi_def_cfa_offset 336
 2752 180c 2F40 012C 	move.l %d0,300(%sp)
1170:/home/simulink/cFS_FreeRTOS_seL4/cfe/fsw/cfe-core/src/tbl/cfe_tbl_task_cmds.c **** 
1171:/home/simulink/cFS_FreeRTOS_seL4/cfe/fsw/cfe-core/src/tbl/cfe_tbl_task_cmds.c ****     if (FileDescriptor >= 0)
 2753               	.loc 1 1171 0
 2754 1810 4AAF 012C 	tst.l 300(%sp)
 2755 1814 6D12      	jlt .L121
1172:/home/simulink/cFS_FreeRTOS_seL4/cfe/fsw/cfe-core/src/tbl/cfe_tbl_task_cmds.c ****     {
1173:/home/simulink/cFS_FreeRTOS_seL4/cfe/fsw/cfe-core/src/tbl/cfe_tbl_task_cmds.c ****         FileExistedPrev = TRUE;
 2756               	.loc 1 1173 0
 2757 1816 7001      	moveq #1,%d0
 2758 1818 1F40 0147 	move.b %d0,327(%sp)
1174:/home/simulink/cFS_FreeRTOS_seL4/cfe/fsw/cfe-core/src/tbl/cfe_tbl_task_cmds.c **** 
1175:/home/simulink/cFS_FreeRTOS_seL4/cfe/fsw/cfe-core/src/tbl/cfe_tbl_task_cmds.c ****         OS_close(FileDescriptor);
 2759               	.loc 1 1175 0
 2760 181c 2F2F 012C 	move.l 300(%sp),-(%sp)
 2761               	.cfi_def_cfa_offset 340
 2762 1820 4EB9 0000 	jsr OS_close
 2762      0000 
 2763 1826 588F      	addq.l #4,%sp
 2764               	.cfi_def_cfa_offset 336
 2765               	.L121:
1176:/home/simulink/cFS_FreeRTOS_seL4/cfe/fsw/cfe-core/src/tbl/cfe_tbl_task_cmds.c ****     }
1177:/home/simulink/cFS_FreeRTOS_seL4/cfe/fsw/cfe-core/src/tbl/cfe_tbl_task_cmds.c **** 
1178:/home/simulink/cFS_FreeRTOS_seL4/cfe/fsw/cfe-core/src/tbl/cfe_tbl_task_cmds.c ****     /* Create a new dump file, overwriting anything that may have existed previously */
1179:/home/simulink/cFS_FreeRTOS_seL4/cfe/fsw/cfe-core/src/tbl/cfe_tbl_task_cmds.c ****     FileDescriptor = OS_creat(DumpFilename, OS_WRITE_ONLY);
 2766               	.loc 1 1179 0
 2767 1828 4878 0001 	pea 1.w
 2768               	.cfi_def_cfa_offset 340
68K GAS   			page 80


 2769 182c 200F      	move.l %sp,%d0
 2770 182e 0680 0000 	add.l #172,%d0
 2770      00AC 
 2771 1834 2F00      	move.l %d0,-(%sp)
 2772               	.cfi_def_cfa_offset 344
 2773 1836 4EB9 0000 	jsr OS_creat
 2773      0000 
 2774 183c 508F      	addq.l #8,%sp
 2775               	.cfi_def_cfa_offset 336
 2776 183e 2F40 012C 	move.l %d0,300(%sp)
1180:/home/simulink/cFS_FreeRTOS_seL4/cfe/fsw/cfe-core/src/tbl/cfe_tbl_task_cmds.c **** 
1181:/home/simulink/cFS_FreeRTOS_seL4/cfe/fsw/cfe-core/src/tbl/cfe_tbl_task_cmds.c ****     if (FileDescriptor >= OS_FS_SUCCESS)
 2777               	.loc 1 1181 0
 2778 1842 4AAF 012C 	tst.l 300(%sp)
 2779 1846 6D00 040A 	jlt .L122
1182:/home/simulink/cFS_FreeRTOS_seL4/cfe/fsw/cfe-core/src/tbl/cfe_tbl_task_cmds.c ****     {
1183:/home/simulink/cFS_FreeRTOS_seL4/cfe/fsw/cfe-core/src/tbl/cfe_tbl_task_cmds.c ****         /* Initialize the standard cFE File Header for the Dump File */
1184:/home/simulink/cFS_FreeRTOS_seL4/cfe/fsw/cfe-core/src/tbl/cfe_tbl_task_cmds.c ****         CFE_FS_InitHeader(&StdFileHeader, "Table Registry", CFE_FS_TBL_REG_SUBTYPE);
 2780               	.loc 1 1184 0
 2781 184a 4878 0009 	pea 9.w
 2782               	.cfi_def_cfa_offset 340
 2783 184e 4879 0000 	pea .LC36
 2783      0000 
 2784               	.cfi_def_cfa_offset 344
 2785 1854 200F      	move.l %sp,%d0
 2786 1856 0680 0000 	add.l #240,%d0
 2786      00F0 
 2787 185c 2F00      	move.l %d0,-(%sp)
 2788               	.cfi_def_cfa_offset 348
 2789 185e 4EB9 0000 	jsr CFE_FS_InitHeader
 2789      0000 
 2790 1864 4FEF 000C 	lea (12,%sp),%sp
 2791               	.cfi_def_cfa_offset 336
1185:/home/simulink/cFS_FreeRTOS_seL4/cfe/fsw/cfe-core/src/tbl/cfe_tbl_task_cmds.c **** 
1186:/home/simulink/cFS_FreeRTOS_seL4/cfe/fsw/cfe-core/src/tbl/cfe_tbl_task_cmds.c ****         /* Output the Standard cFE File Header to the Dump File */
1187:/home/simulink/cFS_FreeRTOS_seL4/cfe/fsw/cfe-core/src/tbl/cfe_tbl_task_cmds.c ****         Status = CFE_FS_WriteHeader(FileDescriptor, &StdFileHeader);
 2792               	.loc 1 1187 0
 2793 1868 200F      	move.l %sp,%d0
 2794 186a 0680 0000 	add.l #232,%d0
 2794      00E8 
 2795 1870 2F00      	move.l %d0,-(%sp)
 2796               	.cfi_def_cfa_offset 340
 2797 1872 2F2F 0130 	move.l 304(%sp),-(%sp)
 2798               	.cfi_def_cfa_offset 344
 2799 1876 4EB9 0000 	jsr CFE_FS_WriteHeader
 2799      0000 
 2800 187c 508F      	addq.l #8,%sp
 2801               	.cfi_def_cfa_offset 336
 2802 187e 2F40 0140 	move.l %d0,320(%sp)
1188:/home/simulink/cFS_FreeRTOS_seL4/cfe/fsw/cfe-core/src/tbl/cfe_tbl_task_cmds.c ****         
1189:/home/simulink/cFS_FreeRTOS_seL4/cfe/fsw/cfe-core/src/tbl/cfe_tbl_task_cmds.c ****         /* Maintain statistics of amount of data written to file */
1190:/home/simulink/cFS_FreeRTOS_seL4/cfe/fsw/cfe-core/src/tbl/cfe_tbl_task_cmds.c ****         FileSize += Status;
 2803               	.loc 1 1190 0
 2804 1882 222F 0140 	move.l 320(%sp),%d1
 2805 1886 D3AF 0138 	add.l %d1,312(%sp)
1191:/home/simulink/cFS_FreeRTOS_seL4/cfe/fsw/cfe-core/src/tbl/cfe_tbl_task_cmds.c **** 
1192:/home/simulink/cFS_FreeRTOS_seL4/cfe/fsw/cfe-core/src/tbl/cfe_tbl_task_cmds.c ****         if (Status == sizeof(CFE_FS_Header_t))
68K GAS   			page 81


 2806               	.loc 1 1192 0
 2807 188a 7440      	moveq #64,%d2
 2808 188c B4AF 0140 	cmp.l 320(%sp),%d2
 2809 1890 6600 038A 	jne .L123
1193:/home/simulink/cFS_FreeRTOS_seL4/cfe/fsw/cfe-core/src/tbl/cfe_tbl_task_cmds.c ****         {
1194:/home/simulink/cFS_FreeRTOS_seL4/cfe/fsw/cfe-core/src/tbl/cfe_tbl_task_cmds.c ****             Status = sizeof(CFE_TBL_RegDumpRec_t);
 2810               	.loc 1 1194 0
 2811 1894 327C 00A4 	move.w #164,%a1
 2812 1898 2F49 0140 	move.l %a1,320(%sp)
1195:/home/simulink/cFS_FreeRTOS_seL4/cfe/fsw/cfe-core/src/tbl/cfe_tbl_task_cmds.c ****             while ((RegIndex < CFE_TBL_MAX_NUM_TABLES) && (Status == sizeof(CFE_TBL_RegDumpRec_t)))
 2813               	.loc 1 1195 0
 2814 189c 6000 02CC 	jra .L124
 2815               	.L133:
1196:/home/simulink/cFS_FreeRTOS_seL4/cfe/fsw/cfe-core/src/tbl/cfe_tbl_task_cmds.c ****             {
1197:/home/simulink/cFS_FreeRTOS_seL4/cfe/fsw/cfe-core/src/tbl/cfe_tbl_task_cmds.c ****                 /* Make a pointer to simplify code look and to remove redundant indexing into regis
1198:/home/simulink/cFS_FreeRTOS_seL4/cfe/fsw/cfe-core/src/tbl/cfe_tbl_task_cmds.c ****                 RegRecPtr = &CFE_TBL_TaskData.Registry[RegIndex];
 2816               	.loc 1 1198 0
 2817 18a0 302F 013E 	move.w 318(%sp),%d0
 2818 18a4 48C0      	ext.l %d0
 2819 18a6 223C 0000 	move.l #336,%d1
 2819      0150 
 2820 18ac 4C01 0800 	muls.l %d1,%d0
 2821 18b0 0680 0000 	add.l #4972,%d0
 2821      136C 
 2822 18b6 2400      	move.l %d0,%d2
 2823 18b8 0682 0000 	add.l #CFE_TBL_TaskData,%d2
 2823      0000 
 2824 18be 2F42 0128 	move.l %d2,296(%sp)
1199:/home/simulink/cFS_FreeRTOS_seL4/cfe/fsw/cfe-core/src/tbl/cfe_tbl_task_cmds.c **** 
1200:/home/simulink/cFS_FreeRTOS_seL4/cfe/fsw/cfe-core/src/tbl/cfe_tbl_task_cmds.c ****                 /* Check to see if the Registry entry is empty */
1201:/home/simulink/cFS_FreeRTOS_seL4/cfe/fsw/cfe-core/src/tbl/cfe_tbl_task_cmds.c ****                 if ((RegRecPtr->OwnerAppId != CFE_TBL_NOT_OWNED) ||
 2825               	.loc 1 1201 0
 2826 18c2 206F 0128 	move.l 296(%sp),%a0
 2827 18c6 2010      	move.l (%a0),%d0
 2828 18c8 72FF      	moveq #-1,%d1
 2829 18ca B280      	cmp.l %d0,%d1
 2830 18cc 6612      	jne .L125
1202:/home/simulink/cFS_FreeRTOS_seL4/cfe/fsw/cfe-core/src/tbl/cfe_tbl_task_cmds.c ****                     (RegRecPtr->HeadOfAccessList != CFE_TBL_END_OF_LIST))
 2831               	.loc 1 1202 0 discriminator 1
 2832 18ce 206F 0128 	move.l 296(%sp),%a0
 2833 18d2 3028 00C4 	move.w 196(%a0),%d0
1201:/home/simulink/cFS_FreeRTOS_seL4/cfe/fsw/cfe-core/src/tbl/cfe_tbl_task_cmds.c ****                     (RegRecPtr->HeadOfAccessList != CFE_TBL_END_OF_LIST))
 2834               	.loc 1 1201 0 discriminator 1
 2835 18d6 3040      	move.w %d0,%a0
 2836 18d8 74FF      	moveq #-1,%d2
 2837 18da B488      	cmp.l %a0,%d2
 2838 18dc 6700 0280 	jeq .L126
 2839               	.L125:
1203:/home/simulink/cFS_FreeRTOS_seL4/cfe/fsw/cfe-core/src/tbl/cfe_tbl_task_cmds.c ****                 {
1204:/home/simulink/cFS_FreeRTOS_seL4/cfe/fsw/cfe-core/src/tbl/cfe_tbl_task_cmds.c ****                     /* Fill Registry Dump Record with relevant information */
1205:/home/simulink/cFS_FreeRTOS_seL4/cfe/fsw/cfe-core/src/tbl/cfe_tbl_task_cmds.c ****                     DumpRecord.Size             = RegRecPtr->Size;
 2840               	.loc 1 1205 0
 2841 18e0 206F 0128 	move.l 296(%sp),%a0
 2842 18e4 2028 0004 	move.l 4(%a0),%d0
 2843 18e8 2F40 0004 	move.l %d0,4(%sp)
1206:/home/simulink/cFS_FreeRTOS_seL4/cfe/fsw/cfe-core/src/tbl/cfe_tbl_task_cmds.c ****                     DumpRecord.TimeOfLastUpdate = RegRecPtr->TimeOfLastUpdate;
 2844               	.loc 1 1206 0
68K GAS   			page 82


 2845 18ec 206F 0128 	move.l 296(%sp),%a0
 2846 18f0 2028 00BC 	move.l 188(%a0),%d0
 2847 18f4 2228 00C0 	move.l 192(%a0),%d1
 2848 18f8 2F40 0008 	move.l %d0,8(%sp)
 2849 18fc 2F41 000C 	move.l %d1,12(%sp)
1207:/home/simulink/cFS_FreeRTOS_seL4/cfe/fsw/cfe-core/src/tbl/cfe_tbl_task_cmds.c ****                     DumpRecord.LoadInProgress   = RegRecPtr->LoadInProgress;
 2850               	.loc 1 1207 0
 2851 1900 206F 0128 	move.l 296(%sp),%a0
 2852 1904 2028 00C8 	move.l 200(%a0),%d0
 2853 1908 2F40 0014 	move.l %d0,20(%sp)
1208:/home/simulink/cFS_FreeRTOS_seL4/cfe/fsw/cfe-core/src/tbl/cfe_tbl_task_cmds.c ****                     DumpRecord.ValidationFunc   = (RegRecPtr->ValidationFuncPtr != NULL);
 2854               	.loc 1 1208 0
 2855 190c 206F 0128 	move.l 296(%sp),%a0
 2856 1910 2028 00B8 	move.l 184(%a0),%d0
 2857 1914 4A80      	tst.l %d0
 2858 1916 56C0      	sne %d0
 2859 1918 4480      	neg.l %d0
 2860 191a 1000      	move.b %d0,%d0
 2861 191c 1F40 0024 	move.b %d0,36(%sp)
1209:/home/simulink/cFS_FreeRTOS_seL4/cfe/fsw/cfe-core/src/tbl/cfe_tbl_task_cmds.c ****                     DumpRecord.TableLoadedOnce  = RegRecPtr->TableLoadedOnce;
 2862               	.loc 1 1209 0
 2863 1920 206F 0128 	move.l 296(%sp),%a0
 2864 1924 1028 00DF 	move.b 223(%a0),%d0
 2865 1928 1F40 0025 	move.b %d0,37(%sp)
1210:/home/simulink/cFS_FreeRTOS_seL4/cfe/fsw/cfe-core/src/tbl/cfe_tbl_task_cmds.c ****                     DumpRecord.LoadPending      = RegRecPtr->LoadPending;
 2866               	.loc 1 1210 0
 2867 192c 206F 0128 	move.l 296(%sp),%a0
 2868 1930 1028 00E0 	move.b 224(%a0),%d0
 2869 1934 1F40 0026 	move.b %d0,38(%sp)
1211:/home/simulink/cFS_FreeRTOS_seL4/cfe/fsw/cfe-core/src/tbl/cfe_tbl_task_cmds.c ****                     DumpRecord.DumpOnly         = RegRecPtr->DumpOnly;
 2870               	.loc 1 1211 0
 2871 1938 206F 0128 	move.l 296(%sp),%a0
 2872 193c 1028 00E1 	move.b 225(%a0),%d0
 2873 1940 1F40 0027 	move.b %d0,39(%sp)
1212:/home/simulink/cFS_FreeRTOS_seL4/cfe/fsw/cfe-core/src/tbl/cfe_tbl_task_cmds.c ****                     DumpRecord.DblBuffered      = RegRecPtr->DblBuffered;
 2874               	.loc 1 1212 0
 2875 1944 206F 0128 	move.l 296(%sp),%a0
 2876 1948 1028 00E2 	move.b 226(%a0),%d0
 2877 194c 1F40 0028 	move.b %d0,40(%sp)
1213:/home/simulink/cFS_FreeRTOS_seL4/cfe/fsw/cfe-core/src/tbl/cfe_tbl_task_cmds.c ****                     DumpRecord.FileCreateTimeSecs = RegRecPtr->Buffers[RegRecPtr->ActiveBufferIndex
 2878               	.loc 1 1213 0
 2879 1950 206F 0128 	move.l 296(%sp),%a0
 2880 1954 1028 00E5 	move.b 229(%a0),%d0
 2881 1958 1000      	move.b %d0,%d0
 2882 195a 0280 0000 	and.l #255,%d0
 2882      00FF 
 2883 1960 222F 0128 	move.l 296(%sp),%d1
 2884 1964 7454      	moveq #84,%d2
 2885 1966 4C02 0800 	muls.l %d2,%d0
 2886 196a D081      	add.l %d1,%d0
 2887 196c 2040      	move.l %d0,%a0
 2888 196e 41E8 0014 	lea (20,%a0),%a0
 2889 1972 2010      	move.l (%a0),%d0
 2890 1974 2F40 0018 	move.l %d0,24(%sp)
1214:/home/simulink/cFS_FreeRTOS_seL4/cfe/fsw/cfe-core/src/tbl/cfe_tbl_task_cmds.c ****                     DumpRecord.FileCreateTimeSubSecs = RegRecPtr->Buffers[RegRecPtr->ActiveBufferIn
 2891               	.loc 1 1214 0
 2892 1978 206F 0128 	move.l 296(%sp),%a0
68K GAS   			page 83


 2893 197c 1028 00E5 	move.b 229(%a0),%d0
 2894 1980 1000      	move.b %d0,%d0
 2895 1982 0280 0000 	and.l #255,%d0
 2895      00FF 
 2896 1988 222F 0128 	move.l 296(%sp),%d1
 2897 198c 7454      	moveq #84,%d2
 2898 198e 4C02 0800 	muls.l %d2,%d0
 2899 1992 D081      	add.l %d1,%d0
 2900 1994 2040      	move.l %d0,%a0
 2901 1996 41E8 0018 	lea (24,%a0),%a0
 2902 199a 2010      	move.l (%a0),%d0
 2903 199c 2F40 001C 	move.l %d0,28(%sp)
1215:/home/simulink/cFS_FreeRTOS_seL4/cfe/fsw/cfe-core/src/tbl/cfe_tbl_task_cmds.c ****                     DumpRecord.Crc              = RegRecPtr->Buffers[RegRecPtr->ActiveBufferIndex].
 2904               	.loc 1 1215 0
 2905 19a0 206F 0128 	move.l 296(%sp),%a0
 2906 19a4 1028 00E5 	move.b 229(%a0),%d0
 2907 19a8 1000      	move.b %d0,%d0
 2908 19aa 0280 0000 	and.l #255,%d0
 2908      00FF 
 2909 19b0 222F 0128 	move.l 296(%sp),%d1
 2910 19b4 7454      	moveq #84,%d2
 2911 19b6 4C02 0800 	muls.l %d2,%d0
 2912 19ba D081      	add.l %d1,%d0
 2913 19bc 2040      	move.l %d0,%a0
 2914 19be 41E8 001C 	lea (28,%a0),%a0
 2915 19c2 2010      	move.l (%a0),%d0
 2916 19c4 2F40 0020 	move.l %d0,32(%sp)
1216:/home/simulink/cFS_FreeRTOS_seL4/cfe/fsw/cfe-core/src/tbl/cfe_tbl_task_cmds.c ****                     DumpRecord.CriticalTable    = RegRecPtr->CriticalTable;
 2917               	.loc 1 1216 0
 2918 19c8 206F 0128 	move.l 296(%sp),%a0
 2919 19cc 1028 00DE 	move.b 222(%a0),%d0
 2920 19d0 1F40 00A5 	move.b %d0,165(%sp)
1217:/home/simulink/cFS_FreeRTOS_seL4/cfe/fsw/cfe-core/src/tbl/cfe_tbl_task_cmds.c **** 
1218:/home/simulink/cFS_FreeRTOS_seL4/cfe/fsw/cfe-core/src/tbl/cfe_tbl_task_cmds.c ****                     /* Convert LoadInProgress flag into more meaningful information */
1219:/home/simulink/cFS_FreeRTOS_seL4/cfe/fsw/cfe-core/src/tbl/cfe_tbl_task_cmds.c ****                     /* When a load is in progress, identify which buffer is being used as the inact
1220:/home/simulink/cFS_FreeRTOS_seL4/cfe/fsw/cfe-core/src/tbl/cfe_tbl_task_cmds.c ****                     if (DumpRecord.LoadInProgress != CFE_TBL_NO_LOAD_IN_PROGRESS)
 2921               	.loc 1 1220 0
 2922 19d4 202F 0014 	move.l 20(%sp),%d0
 2923 19d8 72FF      	moveq #-1,%d1
 2924 19da B280      	cmp.l %d0,%d1
 2925 19dc 6712      	jeq .L127
1221:/home/simulink/cFS_FreeRTOS_seL4/cfe/fsw/cfe-core/src/tbl/cfe_tbl_task_cmds.c ****                     {
1222:/home/simulink/cFS_FreeRTOS_seL4/cfe/fsw/cfe-core/src/tbl/cfe_tbl_task_cmds.c ****                         if (DumpRecord.DblBuffered)
 2926               	.loc 1 1222 0
 2927 19de 102F 0028 	move.b 40(%sp),%d0
 2928 19e2 4A00      	tst.b %d0
 2929 19e4 670A      	jeq .L127
1223:/home/simulink/cFS_FreeRTOS_seL4/cfe/fsw/cfe-core/src/tbl/cfe_tbl_task_cmds.c ****                         {
1224:/home/simulink/cFS_FreeRTOS_seL4/cfe/fsw/cfe-core/src/tbl/cfe_tbl_task_cmds.c ****                             /* For double buffered tables, the value of LoadInProgress, when a load
1225:/home/simulink/cFS_FreeRTOS_seL4/cfe/fsw/cfe-core/src/tbl/cfe_tbl_task_cmds.c ****                             /* should identify either buffer #0 or buffer #1.  Convert these to enu
1226:/home/simulink/cFS_FreeRTOS_seL4/cfe/fsw/cfe-core/src/tbl/cfe_tbl_task_cmds.c ****                             /* display.  LoadInProgress = -2 means Buffer #1, LoadInProgress = -3 m
1227:/home/simulink/cFS_FreeRTOS_seL4/cfe/fsw/cfe-core/src/tbl/cfe_tbl_task_cmds.c ****                             DumpRecord.LoadInProgress = DumpRecord.LoadInProgress - 3;
 2930               	.loc 1 1227 0
 2931 19e6 202F 0014 	move.l 20(%sp),%d0
 2932 19ea 5780      	subq.l #3,%d0
 2933 19ec 2F40 0014 	move.l %d0,20(%sp)
 2934               	.L127:
68K GAS   			page 84


1228:/home/simulink/cFS_FreeRTOS_seL4/cfe/fsw/cfe-core/src/tbl/cfe_tbl_task_cmds.c ****                         }
1229:/home/simulink/cFS_FreeRTOS_seL4/cfe/fsw/cfe-core/src/tbl/cfe_tbl_task_cmds.c ****                         /* For single buffered tables, the value of LoadInProgress, when a load is 
1230:/home/simulink/cFS_FreeRTOS_seL4/cfe/fsw/cfe-core/src/tbl/cfe_tbl_task_cmds.c ****                         /* indicates which shared buffer is allocated for the inactive buffer.  Sin
1231:/home/simulink/cFS_FreeRTOS_seL4/cfe/fsw/cfe-core/src/tbl/cfe_tbl_task_cmds.c ****                         /* buffers is a platform configuration parameter, then 0 on up merely ident
1232:/home/simulink/cFS_FreeRTOS_seL4/cfe/fsw/cfe-core/src/tbl/cfe_tbl_task_cmds.c ****                         /* No translation is necessary for single buffered tables.                 
1233:/home/simulink/cFS_FreeRTOS_seL4/cfe/fsw/cfe-core/src/tbl/cfe_tbl_task_cmds.c ****                     }
1234:/home/simulink/cFS_FreeRTOS_seL4/cfe/fsw/cfe-core/src/tbl/cfe_tbl_task_cmds.c ****                     
1235:/home/simulink/cFS_FreeRTOS_seL4/cfe/fsw/cfe-core/src/tbl/cfe_tbl_task_cmds.c ****                     /* Zero character arrays to remove garbage text */
1236:/home/simulink/cFS_FreeRTOS_seL4/cfe/fsw/cfe-core/src/tbl/cfe_tbl_task_cmds.c ****                     CFE_PSP_MemSet(DumpRecord.Name, 0, CFE_TBL_MAX_FULL_NAME_LEN);
 2935               	.loc 1 1236 0
 2936 19f0 4878 0028 	pea 40.w
 2937               	.cfi_def_cfa_offset 340
 2938 19f4 42A7      	clr.l -(%sp)
 2939               	.cfi_def_cfa_offset 344
 2940 19f6 200F      	move.l %sp,%d0
 2941 19f8 0680 0000 	add.l #12,%d0
 2941      000C 
 2942 19fe 0680 0000 	add.l #37,%d0
 2942      0025 
 2943 1a04 2F00      	move.l %d0,-(%sp)
 2944               	.cfi_def_cfa_offset 348
 2945 1a06 4EB9 0000 	jsr CFE_PSP_MemSet
 2945      0000 
 2946 1a0c 4FEF 000C 	lea (12,%sp),%sp
 2947               	.cfi_def_cfa_offset 336
1237:/home/simulink/cFS_FreeRTOS_seL4/cfe/fsw/cfe-core/src/tbl/cfe_tbl_task_cmds.c ****                     CFE_PSP_MemSet(DumpRecord.LastFileLoaded, 0, OS_MAX_PATH_LEN);
 2948               	.loc 1 1237 0
 2949 1a10 4878 0040 	pea 64.w
 2950               	.cfi_def_cfa_offset 340
 2951 1a14 42A7      	clr.l -(%sp)
 2952               	.cfi_def_cfa_offset 344
 2953 1a16 200F      	move.l %sp,%d0
 2954 1a18 0680 0000 	add.l #12,%d0
 2954      000C 
 2955 1a1e 0680 0000 	add.l #77,%d0
 2955      004D 
 2956 1a24 2F00      	move.l %d0,-(%sp)
 2957               	.cfi_def_cfa_offset 348
 2958 1a26 4EB9 0000 	jsr CFE_PSP_MemSet
 2958      0000 
 2959 1a2c 4FEF 000C 	lea (12,%sp),%sp
 2960               	.cfi_def_cfa_offset 336
1238:/home/simulink/cFS_FreeRTOS_seL4/cfe/fsw/cfe-core/src/tbl/cfe_tbl_task_cmds.c ****                     CFE_PSP_MemSet(DumpRecord.OwnerAppName, 0, OS_MAX_API_NAME);
 2961               	.loc 1 1238 0
 2962 1a30 4878 0014 	pea 20.w
 2963               	.cfi_def_cfa_offset 340
 2964 1a34 42A7      	clr.l -(%sp)
 2965               	.cfi_def_cfa_offset 344
 2966 1a36 200F      	move.l %sp,%d0
 2967 1a38 0680 0000 	add.l #12,%d0
 2967      000C 
 2968 1a3e 0680 0000 	add.l #141,%d0
 2968      008D 
 2969 1a44 2F00      	move.l %d0,-(%sp)
 2970               	.cfi_def_cfa_offset 348
 2971 1a46 4EB9 0000 	jsr CFE_PSP_MemSet
 2971      0000 
68K GAS   			page 85


 2972 1a4c 4FEF 000C 	lea (12,%sp),%sp
 2973               	.cfi_def_cfa_offset 336
1239:/home/simulink/cFS_FreeRTOS_seL4/cfe/fsw/cfe-core/src/tbl/cfe_tbl_task_cmds.c **** 
1240:/home/simulink/cFS_FreeRTOS_seL4/cfe/fsw/cfe-core/src/tbl/cfe_tbl_task_cmds.c ****                     strncpy(DumpRecord.Name, RegRecPtr->Name, CFE_TBL_MAX_FULL_NAME_LEN);
 2974               	.loc 1 1240 0
 2975 1a50 202F 0128 	move.l 296(%sp),%d0
 2976 1a54 0680 0000 	add.l #230,%d0
 2976      00E6 
 2977 1a5a 4878 0028 	pea 40.w
 2978               	.cfi_def_cfa_offset 340
 2979 1a5e 2F00      	move.l %d0,-(%sp)
 2980               	.cfi_def_cfa_offset 344
 2981 1a60 200F      	move.l %sp,%d0
 2982 1a62 0680 0000 	add.l #12,%d0
 2982      000C 
 2983 1a68 0680 0000 	add.l #37,%d0
 2983      0025 
 2984 1a6e 2F00      	move.l %d0,-(%sp)
 2985               	.cfi_def_cfa_offset 348
 2986 1a70 4EB9 0000 	jsr strncpy
 2986      0000 
 2987 1a76 4FEF 000C 	lea (12,%sp),%sp
 2988               	.cfi_def_cfa_offset 336
1241:/home/simulink/cFS_FreeRTOS_seL4/cfe/fsw/cfe-core/src/tbl/cfe_tbl_task_cmds.c ****                     strncpy(DumpRecord.LastFileLoaded, RegRecPtr->LastFileLoaded, OS_MAX_PATH_LEN);
 2989               	.loc 1 1241 0
 2990 1a7a 202F 0128 	move.l 296(%sp),%d0
 2991 1a7e 0680 0000 	add.l #270,%d0
 2991      010E 
 2992 1a84 4878 0040 	pea 64.w
 2993               	.cfi_def_cfa_offset 340
 2994 1a88 2F00      	move.l %d0,-(%sp)
 2995               	.cfi_def_cfa_offset 344
 2996 1a8a 200F      	move.l %sp,%d0
 2997 1a8c 0680 0000 	add.l #12,%d0
 2997      000C 
 2998 1a92 0680 0000 	add.l #77,%d0
 2998      004D 
 2999 1a98 2F00      	move.l %d0,-(%sp)
 3000               	.cfi_def_cfa_offset 348
 3001 1a9a 4EB9 0000 	jsr strncpy
 3001      0000 
 3002 1aa0 4FEF 000C 	lea (12,%sp),%sp
 3003               	.cfi_def_cfa_offset 336
1242:/home/simulink/cFS_FreeRTOS_seL4/cfe/fsw/cfe-core/src/tbl/cfe_tbl_task_cmds.c **** 
1243:/home/simulink/cFS_FreeRTOS_seL4/cfe/fsw/cfe-core/src/tbl/cfe_tbl_task_cmds.c ****                     /* Walk the access descriptor list to determine the number of users */
1244:/home/simulink/cFS_FreeRTOS_seL4/cfe/fsw/cfe-core/src/tbl/cfe_tbl_task_cmds.c ****                     DumpRecord.NumUsers = 0;
 3004               	.loc 1 1244 0
 3005 1aa4 42AF 0010 	clr.l 16(%sp)
1245:/home/simulink/cFS_FreeRTOS_seL4/cfe/fsw/cfe-core/src/tbl/cfe_tbl_task_cmds.c ****                     HandleIterator = RegRecPtr->HeadOfAccessList;
 3006               	.loc 1 1245 0
 3007 1aa8 206F 0128 	move.l 296(%sp),%a0
 3008 1aac 3F68 00C4 	move.w 196(%a0),316(%sp)
 3008      013C 
1246:/home/simulink/cFS_FreeRTOS_seL4/cfe/fsw/cfe-core/src/tbl/cfe_tbl_task_cmds.c ****                     while (HandleIterator != CFE_TBL_END_OF_LIST)
 3009               	.loc 1 1246 0
 3010 1ab2 6020      	jra .L128
 3011               	.L129:
68K GAS   			page 86


1247:/home/simulink/cFS_FreeRTOS_seL4/cfe/fsw/cfe-core/src/tbl/cfe_tbl_task_cmds.c ****                     {
1248:/home/simulink/cFS_FreeRTOS_seL4/cfe/fsw/cfe-core/src/tbl/cfe_tbl_task_cmds.c ****                         DumpRecord.NumUsers++;
 3012               	.loc 1 1248 0
 3013 1ab4 202F 0010 	move.l 16(%sp),%d0
 3014 1ab8 5280      	addq.l #1,%d0
 3015 1aba 2F40 0010 	move.l %d0,16(%sp)
1249:/home/simulink/cFS_FreeRTOS_seL4/cfe/fsw/cfe-core/src/tbl/cfe_tbl_task_cmds.c ****                         HandleIterator = CFE_TBL_TaskData.Handles[HandleIterator].NextLink;
 3016               	.loc 1 1249 0
 3017 1abe 302F 013C 	move.w 316(%sp),%d0
 3018 1ac2 48C0      	ext.l %d0
 3019 1ac4 E988      	lsl.l #4,%d0
 3020 1ac6 41F9 0000 	lea CFE_TBL_TaskData+884,%a0
 3020      0000 
 3021 1acc 43F0 0800 	lea (%a0,%d0.l),%a1
 3022 1ad0 3F51 013C 	move.w (%a1),316(%sp)
 3023               	.L128:
1246:/home/simulink/cFS_FreeRTOS_seL4/cfe/fsw/cfe-core/src/tbl/cfe_tbl_task_cmds.c ****                     while (HandleIterator != CFE_TBL_END_OF_LIST)
 3024               	.loc 1 1246 0
 3025 1ad4 306F 013C 	move.w 316(%sp),%a0
 3026 1ad8 70FF      	moveq #-1,%d0
 3027 1ada B088      	cmp.l %a0,%d0
 3028 1adc 66D6      	jne .L129
1250:/home/simulink/cFS_FreeRTOS_seL4/cfe/fsw/cfe-core/src/tbl/cfe_tbl_task_cmds.c ****                     }
1251:/home/simulink/cFS_FreeRTOS_seL4/cfe/fsw/cfe-core/src/tbl/cfe_tbl_task_cmds.c **** 
1252:/home/simulink/cFS_FreeRTOS_seL4/cfe/fsw/cfe-core/src/tbl/cfe_tbl_task_cmds.c ****                     /* Determine the name of the owning application */
1253:/home/simulink/cFS_FreeRTOS_seL4/cfe/fsw/cfe-core/src/tbl/cfe_tbl_task_cmds.c ****                     if (RegRecPtr->OwnerAppId != CFE_TBL_NOT_OWNED)
 3029               	.loc 1 1253 0
 3030 1ade 206F 0128 	move.l 296(%sp),%a0
 3031 1ae2 2010      	move.l (%a0),%d0
 3032 1ae4 72FF      	moveq #-1,%d1
 3033 1ae6 B280      	cmp.l %d0,%d1
 3034 1ae8 6728      	jeq .L130
1254:/home/simulink/cFS_FreeRTOS_seL4/cfe/fsw/cfe-core/src/tbl/cfe_tbl_task_cmds.c ****                     {
1255:/home/simulink/cFS_FreeRTOS_seL4/cfe/fsw/cfe-core/src/tbl/cfe_tbl_task_cmds.c ****                         CFE_ES_GetAppName(DumpRecord.OwnerAppName, RegRecPtr->OwnerAppId, OS_MAX_AP
 3035               	.loc 1 1255 0
 3036 1aea 206F 0128 	move.l 296(%sp),%a0
 3037 1aee 2010      	move.l (%a0),%d0
 3038 1af0 4878 0014 	pea 20.w
 3039               	.cfi_def_cfa_offset 340
 3040 1af4 2F00      	move.l %d0,-(%sp)
 3041               	.cfi_def_cfa_offset 344
 3042 1af6 200F      	move.l %sp,%d0
 3043 1af8 0680 0000 	add.l #12,%d0
 3043      000C 
 3044 1afe 0680 0000 	add.l #141,%d0
 3044      008D 
 3045 1b04 2F00      	move.l %d0,-(%sp)
 3046               	.cfi_def_cfa_offset 348
 3047 1b06 4EB9 0000 	jsr CFE_ES_GetAppName
 3047      0000 
 3048 1b0c 4FEF 000C 	lea (12,%sp),%sp
 3049               	.cfi_def_cfa_offset 336
 3050 1b10 6024      	jra .L131
 3051               	.L130:
1256:/home/simulink/cFS_FreeRTOS_seL4/cfe/fsw/cfe-core/src/tbl/cfe_tbl_task_cmds.c ****                     }
1257:/home/simulink/cFS_FreeRTOS_seL4/cfe/fsw/cfe-core/src/tbl/cfe_tbl_task_cmds.c ****                     else
1258:/home/simulink/cFS_FreeRTOS_seL4/cfe/fsw/cfe-core/src/tbl/cfe_tbl_task_cmds.c ****                     {
68K GAS   			page 87


1259:/home/simulink/cFS_FreeRTOS_seL4/cfe/fsw/cfe-core/src/tbl/cfe_tbl_task_cmds.c ****                         strncpy(DumpRecord.OwnerAppName, "--UNOWNED--", OS_MAX_API_NAME);
 3052               	.loc 1 1259 0
 3053 1b12 4878 0014 	pea 20.w
 3054               	.cfi_def_cfa_offset 340
 3055 1b16 4879 0000 	pea .LC37
 3055      0000 
 3056               	.cfi_def_cfa_offset 344
 3057 1b1c 200F      	move.l %sp,%d0
 3058 1b1e 0680 0000 	add.l #12,%d0
 3058      000C 
 3059 1b24 0680 0000 	add.l #141,%d0
 3059      008D 
 3060 1b2a 2F00      	move.l %d0,-(%sp)
 3061               	.cfi_def_cfa_offset 348
 3062 1b2c 4EB9 0000 	jsr strncpy
 3062      0000 
 3063 1b32 4FEF 000C 	lea (12,%sp),%sp
 3064               	.cfi_def_cfa_offset 336
 3065               	.L131:
1260:/home/simulink/cFS_FreeRTOS_seL4/cfe/fsw/cfe-core/src/tbl/cfe_tbl_task_cmds.c ****                     }
1261:/home/simulink/cFS_FreeRTOS_seL4/cfe/fsw/cfe-core/src/tbl/cfe_tbl_task_cmds.c **** 
1262:/home/simulink/cFS_FreeRTOS_seL4/cfe/fsw/cfe-core/src/tbl/cfe_tbl_task_cmds.c ****                     /* Output Registry Dump Record to Registry Dump File */
1263:/home/simulink/cFS_FreeRTOS_seL4/cfe/fsw/cfe-core/src/tbl/cfe_tbl_task_cmds.c ****                     Status = OS_write(FileDescriptor,
 3066               	.loc 1 1263 0
 3067 1b36 4878 00A4 	pea 164.w
 3068               	.cfi_def_cfa_offset 340
 3069 1b3a 200F      	move.l %sp,%d0
 3070 1b3c 5080      	addq.l #8,%d0
 3071 1b3e 2F00      	move.l %d0,-(%sp)
 3072               	.cfi_def_cfa_offset 344
 3073 1b40 2F2F 0134 	move.l 308(%sp),-(%sp)
 3074               	.cfi_def_cfa_offset 348
 3075 1b44 4EB9 0000 	jsr OS_write
 3075      0000 
 3076 1b4a 4FEF 000C 	lea (12,%sp),%sp
 3077               	.cfi_def_cfa_offset 336
 3078 1b4e 2F40 0140 	move.l %d0,320(%sp)
1264:/home/simulink/cFS_FreeRTOS_seL4/cfe/fsw/cfe-core/src/tbl/cfe_tbl_task_cmds.c ****                                       &DumpRecord,
1265:/home/simulink/cFS_FreeRTOS_seL4/cfe/fsw/cfe-core/src/tbl/cfe_tbl_task_cmds.c ****                                       sizeof(CFE_TBL_RegDumpRec_t));
1266:/home/simulink/cFS_FreeRTOS_seL4/cfe/fsw/cfe-core/src/tbl/cfe_tbl_task_cmds.c ****                     
1267:/home/simulink/cFS_FreeRTOS_seL4/cfe/fsw/cfe-core/src/tbl/cfe_tbl_task_cmds.c ****                     FileSize += Status;
 3079               	.loc 1 1267 0
 3080 1b52 242F 0140 	move.l 320(%sp),%d2
 3081 1b56 D5AF 0138 	add.l %d2,312(%sp)
1268:/home/simulink/cFS_FreeRTOS_seL4/cfe/fsw/cfe-core/src/tbl/cfe_tbl_task_cmds.c ****                     NumEntries++;      
 3082               	.loc 1 1268 0
 3083 1b5a 52AF 0134 	addq.l #1,308(%sp)
 3084               	.L126:
1269:/home/simulink/cFS_FreeRTOS_seL4/cfe/fsw/cfe-core/src/tbl/cfe_tbl_task_cmds.c ****                 }
1270:/home/simulink/cFS_FreeRTOS_seL4/cfe/fsw/cfe-core/src/tbl/cfe_tbl_task_cmds.c **** 
1271:/home/simulink/cFS_FreeRTOS_seL4/cfe/fsw/cfe-core/src/tbl/cfe_tbl_task_cmds.c ****                 /* Look at the next entry in the Registry */
1272:/home/simulink/cFS_FreeRTOS_seL4/cfe/fsw/cfe-core/src/tbl/cfe_tbl_task_cmds.c ****                 RegIndex++;
 3085               	.loc 1 1272 0
 3086 1b5e 302F 013E 	move.w 318(%sp),%d0
 3087 1b62 5280      	addq.l #1,%d0
 3088 1b64 3000      	move.w %d0,%d0
 3089 1b66 3F40 013E 	move.w %d0,318(%sp)
68K GAS   			page 88


 3090               	.L124:
1195:/home/simulink/cFS_FreeRTOS_seL4/cfe/fsw/cfe-core/src/tbl/cfe_tbl_task_cmds.c ****             {
 3091               	.loc 1 1195 0
 3092 1b6a 306F 013E 	move.w 318(%sp),%a0
 3093 1b6e 707F      	moveq #127,%d0
 3094 1b70 B088      	cmp.l %a0,%d0
 3095 1b72 6D0E      	jlt .L132
1195:/home/simulink/cFS_FreeRTOS_seL4/cfe/fsw/cfe-core/src/tbl/cfe_tbl_task_cmds.c ****             {
 3096               	.loc 1 1195 0 is_stmt 0 discriminator 1
 3097 1b74 223C 0000 	move.l #164,%d1
 3097      00A4 
 3098 1b7a B2AF 0140 	cmp.l 320(%sp),%d1
 3099 1b7e 6700 FD20 	jeq .L133
 3100               	.L132:
1273:/home/simulink/cFS_FreeRTOS_seL4/cfe/fsw/cfe-core/src/tbl/cfe_tbl_task_cmds.c ****             }
1274:/home/simulink/cFS_FreeRTOS_seL4/cfe/fsw/cfe-core/src/tbl/cfe_tbl_task_cmds.c **** 
1275:/home/simulink/cFS_FreeRTOS_seL4/cfe/fsw/cfe-core/src/tbl/cfe_tbl_task_cmds.c ****             if (Status == sizeof(CFE_TBL_RegDumpRec_t))
 3101               	.loc 1 1275 0 is_stmt 1
 3102 1b82 243C 0000 	move.l #164,%d2
 3102      00A4 
 3103 1b88 B4AF 0140 	cmp.l 320(%sp),%d2
 3104 1b8c 6664      	jne .L134
1276:/home/simulink/cFS_FreeRTOS_seL4/cfe/fsw/cfe-core/src/tbl/cfe_tbl_task_cmds.c ****             {
1277:/home/simulink/cFS_FreeRTOS_seL4/cfe/fsw/cfe-core/src/tbl/cfe_tbl_task_cmds.c ****                 if (FileExistedPrev)
 3105               	.loc 1 1277 0
 3106 1b8e 4A2F 0147 	tst.b 327(%sp)
 3107 1b92 672C      	jeq .L135
1278:/home/simulink/cFS_FreeRTOS_seL4/cfe/fsw/cfe-core/src/tbl/cfe_tbl_task_cmds.c ****                 {
1279:/home/simulink/cFS_FreeRTOS_seL4/cfe/fsw/cfe-core/src/tbl/cfe_tbl_task_cmds.c ****                     CFE_EVS_SendEvent(CFE_TBL_OVERWRITE_REG_DUMP_INF_EID,
 3108               	.loc 1 1279 0
 3109 1b94 2F2F 0134 	move.l 308(%sp),-(%sp)
 3110               	.cfi_def_cfa_offset 340
 3111 1b98 2F2F 013C 	move.l 316(%sp),-(%sp)
 3112               	.cfi_def_cfa_offset 344
 3113 1b9c 200F      	move.l %sp,%d0
 3114 1b9e 0680 0000 	add.l #176,%d0
 3114      00B0 
 3115 1ba4 2F00      	move.l %d0,-(%sp)
 3116               	.cfi_def_cfa_offset 348
 3117 1ba6 4879 0000 	pea .LC38
 3117      0000 
 3118               	.cfi_def_cfa_offset 352
 3119 1bac 4878 0001 	pea 1.w
 3120               	.cfi_def_cfa_offset 356
 3121 1bb0 4878 000F 	pea 15.w
 3122               	.cfi_def_cfa_offset 360
 3123 1bb4 4EB9 0000 	jsr CFE_EVS_SendEvent
 3123      0000 
 3124 1bba 4FEF 0018 	lea (24,%sp),%sp
 3125               	.cfi_def_cfa_offset 336
 3126 1bbe 602A      	jra .L136
 3127               	.L135:
1280:/home/simulink/cFS_FreeRTOS_seL4/cfe/fsw/cfe-core/src/tbl/cfe_tbl_task_cmds.c ****                                       CFE_EVS_DEBUG,
1281:/home/simulink/cFS_FreeRTOS_seL4/cfe/fsw/cfe-core/src/tbl/cfe_tbl_task_cmds.c ****                                       "Successfully overwrote '%s' with Table Registry:Size=%d,Entr
1282:/home/simulink/cFS_FreeRTOS_seL4/cfe/fsw/cfe-core/src/tbl/cfe_tbl_task_cmds.c ****                                       DumpFilename, (int)FileSize, (int)NumEntries);
1283:/home/simulink/cFS_FreeRTOS_seL4/cfe/fsw/cfe-core/src/tbl/cfe_tbl_task_cmds.c ****                 }
1284:/home/simulink/cFS_FreeRTOS_seL4/cfe/fsw/cfe-core/src/tbl/cfe_tbl_task_cmds.c ****                 else
68K GAS   			page 89


1285:/home/simulink/cFS_FreeRTOS_seL4/cfe/fsw/cfe-core/src/tbl/cfe_tbl_task_cmds.c ****                 {
1286:/home/simulink/cFS_FreeRTOS_seL4/cfe/fsw/cfe-core/src/tbl/cfe_tbl_task_cmds.c ****                     CFE_EVS_SendEvent(CFE_TBL_WRITE_REG_DUMP_INF_EID,
 3128               	.loc 1 1286 0
 3129 1bc0 2F2F 0134 	move.l 308(%sp),-(%sp)
 3130               	.cfi_def_cfa_offset 340
 3131 1bc4 2F2F 013C 	move.l 316(%sp),-(%sp)
 3132               	.cfi_def_cfa_offset 344
 3133 1bc8 200F      	move.l %sp,%d0
 3134 1bca 0680 0000 	add.l #176,%d0
 3134      00B0 
 3135 1bd0 2F00      	move.l %d0,-(%sp)
 3136               	.cfi_def_cfa_offset 348
 3137 1bd2 4879 0000 	pea .LC39
 3137      0000 
 3138               	.cfi_def_cfa_offset 352
 3139 1bd8 4878 0001 	pea 1.w
 3140               	.cfi_def_cfa_offset 356
 3141 1bdc 4878 0016 	pea 22.w
 3142               	.cfi_def_cfa_offset 360
 3143 1be0 4EB9 0000 	jsr CFE_EVS_SendEvent
 3143      0000 
 3144 1be6 4FEF 0018 	lea (24,%sp),%sp
 3145               	.cfi_def_cfa_offset 336
 3146               	.L136:
1287:/home/simulink/cFS_FreeRTOS_seL4/cfe/fsw/cfe-core/src/tbl/cfe_tbl_task_cmds.c ****                                       CFE_EVS_DEBUG,
1288:/home/simulink/cFS_FreeRTOS_seL4/cfe/fsw/cfe-core/src/tbl/cfe_tbl_task_cmds.c ****                                       "Successfully dumped Table Registry to '%s':Size=%d,Entries=%
1289:/home/simulink/cFS_FreeRTOS_seL4/cfe/fsw/cfe-core/src/tbl/cfe_tbl_task_cmds.c ****                                       DumpFilename, (int)FileSize, (int)NumEntries);
1290:/home/simulink/cFS_FreeRTOS_seL4/cfe/fsw/cfe-core/src/tbl/cfe_tbl_task_cmds.c ****                 }
1291:/home/simulink/cFS_FreeRTOS_seL4/cfe/fsw/cfe-core/src/tbl/cfe_tbl_task_cmds.c **** 
1292:/home/simulink/cFS_FreeRTOS_seL4/cfe/fsw/cfe-core/src/tbl/cfe_tbl_task_cmds.c ****                 /* Increment Successful Command Counter */
1293:/home/simulink/cFS_FreeRTOS_seL4/cfe/fsw/cfe-core/src/tbl/cfe_tbl_task_cmds.c ****                 ReturnCode = CFE_TBL_INC_CMD_CTR;
 3147               	.loc 1 1293 0
 3148 1bea 7001      	moveq #1,%d0
 3149 1bec 2F40 0148 	move.l %d0,328(%sp)
 3150 1bf0 6052      	jra .L138
 3151               	.L134:
1294:/home/simulink/cFS_FreeRTOS_seL4/cfe/fsw/cfe-core/src/tbl/cfe_tbl_task_cmds.c ****             }
1295:/home/simulink/cFS_FreeRTOS_seL4/cfe/fsw/cfe-core/src/tbl/cfe_tbl_task_cmds.c ****             else
1296:/home/simulink/cFS_FreeRTOS_seL4/cfe/fsw/cfe-core/src/tbl/cfe_tbl_task_cmds.c ****             {
1297:/home/simulink/cFS_FreeRTOS_seL4/cfe/fsw/cfe-core/src/tbl/cfe_tbl_task_cmds.c ****                 CFE_EVS_SendEvent(CFE_TBL_WRITE_TBL_REG_ERR_EID,
 3152               	.loc 1 1297 0
 3153 1bf2 202F 0140 	move.l 320(%sp),%d0
 3154 1bf6 2F00      	move.l %d0,-(%sp)
 3155               	.cfi_def_cfa_offset 340
 3156 1bf8 200F      	move.l %sp,%d0
 3157 1bfa 0680 0000 	add.l #172,%d0
 3157      00AC 
 3158 1c00 2F00      	move.l %d0,-(%sp)
 3159               	.cfi_def_cfa_offset 344
 3160 1c02 4879 0000 	pea .LC40
 3160      0000 
 3161               	.cfi_def_cfa_offset 348
 3162 1c08 4878 0003 	pea 3.w
 3163               	.cfi_def_cfa_offset 352
 3164 1c0c 4878 0044 	pea 68.w
 3165               	.cfi_def_cfa_offset 356
 3166 1c10 4EB9 0000 	jsr CFE_EVS_SendEvent
68K GAS   			page 90


 3166      0000 
 3167 1c16 4FEF 0014 	lea (20,%sp),%sp
 3168               	.cfi_def_cfa_offset 336
 3169 1c1a 6028      	jra .L138
 3170               	.L123:
1298:/home/simulink/cFS_FreeRTOS_seL4/cfe/fsw/cfe-core/src/tbl/cfe_tbl_task_cmds.c ****                                   CFE_EVS_ERROR,
1299:/home/simulink/cFS_FreeRTOS_seL4/cfe/fsw/cfe-core/src/tbl/cfe_tbl_task_cmds.c ****                                   "Error writing Registry to '%s', Status=0x%08X",
1300:/home/simulink/cFS_FreeRTOS_seL4/cfe/fsw/cfe-core/src/tbl/cfe_tbl_task_cmds.c ****                                   DumpFilename, (unsigned int)Status);
1301:/home/simulink/cFS_FreeRTOS_seL4/cfe/fsw/cfe-core/src/tbl/cfe_tbl_task_cmds.c ****             }
1302:/home/simulink/cFS_FreeRTOS_seL4/cfe/fsw/cfe-core/src/tbl/cfe_tbl_task_cmds.c ****         }
1303:/home/simulink/cFS_FreeRTOS_seL4/cfe/fsw/cfe-core/src/tbl/cfe_tbl_task_cmds.c ****         else
1304:/home/simulink/cFS_FreeRTOS_seL4/cfe/fsw/cfe-core/src/tbl/cfe_tbl_task_cmds.c ****         {
1305:/home/simulink/cFS_FreeRTOS_seL4/cfe/fsw/cfe-core/src/tbl/cfe_tbl_task_cmds.c ****             CFE_EVS_SendEvent(CFE_TBL_WRITE_CFE_HDR_ERR_EID,
 3171               	.loc 1 1305 0
 3172 1c1c 202F 0140 	move.l 320(%sp),%d0
 3173 1c20 2F00      	move.l %d0,-(%sp)
 3174               	.cfi_def_cfa_offset 340
 3175 1c22 200F      	move.l %sp,%d0
 3176 1c24 0680 0000 	add.l #172,%d0
 3176      00AC 
 3177 1c2a 2F00      	move.l %d0,-(%sp)
 3178               	.cfi_def_cfa_offset 344
 3179 1c2c 4879 0000 	pea .LC26
 3179      0000 
 3180               	.cfi_def_cfa_offset 348
 3181 1c32 4878 0003 	pea 3.w
 3182               	.cfi_def_cfa_offset 352
 3183 1c36 4878 003F 	pea 63.w
 3184               	.cfi_def_cfa_offset 356
 3185 1c3a 4EB9 0000 	jsr CFE_EVS_SendEvent
 3185      0000 
 3186 1c40 4FEF 0014 	lea (20,%sp),%sp
 3187               	.cfi_def_cfa_offset 336
 3188               	.L138:
1306:/home/simulink/cFS_FreeRTOS_seL4/cfe/fsw/cfe-core/src/tbl/cfe_tbl_task_cmds.c ****                               CFE_EVS_ERROR,
1307:/home/simulink/cFS_FreeRTOS_seL4/cfe/fsw/cfe-core/src/tbl/cfe_tbl_task_cmds.c ****                               "Error writing cFE File Header to '%s', Status=0x%08X",
1308:/home/simulink/cFS_FreeRTOS_seL4/cfe/fsw/cfe-core/src/tbl/cfe_tbl_task_cmds.c ****                               DumpFilename, (unsigned int)Status);
1309:/home/simulink/cFS_FreeRTOS_seL4/cfe/fsw/cfe-core/src/tbl/cfe_tbl_task_cmds.c ****         }
1310:/home/simulink/cFS_FreeRTOS_seL4/cfe/fsw/cfe-core/src/tbl/cfe_tbl_task_cmds.c **** 
1311:/home/simulink/cFS_FreeRTOS_seL4/cfe/fsw/cfe-core/src/tbl/cfe_tbl_task_cmds.c ****         /* We are done outputting data to the dump file.  Close it. */
1312:/home/simulink/cFS_FreeRTOS_seL4/cfe/fsw/cfe-core/src/tbl/cfe_tbl_task_cmds.c ****         OS_close(FileDescriptor);
 3189               	.loc 1 1312 0
 3190 1c44 2F2F 012C 	move.l 300(%sp),-(%sp)
 3191               	.cfi_def_cfa_offset 340
 3192 1c48 4EB9 0000 	jsr OS_close
 3192      0000 
 3193 1c4e 588F      	addq.l #4,%sp
 3194               	.cfi_def_cfa_offset 336
 3195 1c50 6028      	jra .L139
 3196               	.L122:
1313:/home/simulink/cFS_FreeRTOS_seL4/cfe/fsw/cfe-core/src/tbl/cfe_tbl_task_cmds.c ****     }
1314:/home/simulink/cFS_FreeRTOS_seL4/cfe/fsw/cfe-core/src/tbl/cfe_tbl_task_cmds.c ****     else
1315:/home/simulink/cFS_FreeRTOS_seL4/cfe/fsw/cfe-core/src/tbl/cfe_tbl_task_cmds.c ****     {
1316:/home/simulink/cFS_FreeRTOS_seL4/cfe/fsw/cfe-core/src/tbl/cfe_tbl_task_cmds.c ****         CFE_EVS_SendEvent(CFE_TBL_CREATING_DUMP_FILE_ERR_EID,
 3197               	.loc 1 1316 0
 3198 1c52 202F 012C 	move.l 300(%sp),%d0
 3199 1c56 2F00      	move.l %d0,-(%sp)
68K GAS   			page 91


 3200               	.cfi_def_cfa_offset 340
 3201 1c58 200F      	move.l %sp,%d0
 3202 1c5a 0680 0000 	add.l #172,%d0
 3202      00AC 
 3203 1c60 2F00      	move.l %d0,-(%sp)
 3204               	.cfi_def_cfa_offset 344
 3205 1c62 4879 0000 	pea .LC27
 3205      0000 
 3206               	.cfi_def_cfa_offset 348
 3207 1c68 4878 0003 	pea 3.w
 3208               	.cfi_def_cfa_offset 352
 3209 1c6c 4878 003E 	pea 62.w
 3210               	.cfi_def_cfa_offset 356
 3211 1c70 4EB9 0000 	jsr CFE_EVS_SendEvent
 3211      0000 
 3212 1c76 4FEF 0014 	lea (20,%sp),%sp
 3213               	.cfi_def_cfa_offset 336
 3214               	.L139:
1317:/home/simulink/cFS_FreeRTOS_seL4/cfe/fsw/cfe-core/src/tbl/cfe_tbl_task_cmds.c ****                           CFE_EVS_ERROR,
1318:/home/simulink/cFS_FreeRTOS_seL4/cfe/fsw/cfe-core/src/tbl/cfe_tbl_task_cmds.c ****                           "Error creating dump file '%s', Status=0x%08X",
1319:/home/simulink/cFS_FreeRTOS_seL4/cfe/fsw/cfe-core/src/tbl/cfe_tbl_task_cmds.c ****                           DumpFilename, (unsigned int)FileDescriptor);
1320:/home/simulink/cFS_FreeRTOS_seL4/cfe/fsw/cfe-core/src/tbl/cfe_tbl_task_cmds.c ****     }
1321:/home/simulink/cFS_FreeRTOS_seL4/cfe/fsw/cfe-core/src/tbl/cfe_tbl_task_cmds.c **** 
1322:/home/simulink/cFS_FreeRTOS_seL4/cfe/fsw/cfe-core/src/tbl/cfe_tbl_task_cmds.c ****     return ReturnCode;
 3215               	.loc 1 1322 0
 3216 1c7a 202F 0148 	move.l 328(%sp),%d0
1323:/home/simulink/cFS_FreeRTOS_seL4/cfe/fsw/cfe-core/src/tbl/cfe_tbl_task_cmds.c **** 
1324:/home/simulink/cFS_FreeRTOS_seL4/cfe/fsw/cfe-core/src/tbl/cfe_tbl_task_cmds.c **** } /* End of CFE_TBL_DumpRegCmd() */
 3217               	.loc 1 1324 0
 3218 1c7e 241F      	move.l (%sp)+,%d2
 3219 1c80 4FEF 0148 	lea (328,%sp),%sp
 3220 1c84 4E75      	rts
 3221               	.cfi_endproc
 3222               	.LFE69:
 3223               	.sizeCFE_TBL_DumpRegCmd, .-CFE_TBL_DumpRegCmd
 3224               	.section.rodata
 3225               	.LC41:
 3226 0778 5461 626C 	.string"Table Registry entry for '%s' will be telemetered"
 3226      6520 5265 
 3226      6769 7374 
 3226      7279 2065 
 3226      6E74 7279 
 3227               	.text
 3228               	.align2
 3229               	.globlCFE_TBL_TlmRegCmd
 3230               	.typeCFE_TBL_TlmRegCmd, @function
 3231               	CFE_TBL_TlmRegCmd:
 3232               	.LFB70:
1325:/home/simulink/cFS_FreeRTOS_seL4/cfe/fsw/cfe-core/src/tbl/cfe_tbl_task_cmds.c **** 
1326:/home/simulink/cFS_FreeRTOS_seL4/cfe/fsw/cfe-core/src/tbl/cfe_tbl_task_cmds.c **** 
1327:/home/simulink/cFS_FreeRTOS_seL4/cfe/fsw/cfe-core/src/tbl/cfe_tbl_task_cmds.c **** /*******************************************************************
1328:/home/simulink/cFS_FreeRTOS_seL4/cfe/fsw/cfe-core/src/tbl/cfe_tbl_task_cmds.c **** **
1329:/home/simulink/cFS_FreeRTOS_seL4/cfe/fsw/cfe-core/src/tbl/cfe_tbl_task_cmds.c **** ** CFE_TBL_TlmRegCmd() -- Process Telemeter Table Registry Entry Command Message
1330:/home/simulink/cFS_FreeRTOS_seL4/cfe/fsw/cfe-core/src/tbl/cfe_tbl_task_cmds.c **** **
1331:/home/simulink/cFS_FreeRTOS_seL4/cfe/fsw/cfe-core/src/tbl/cfe_tbl_task_cmds.c **** ** NOTE: For complete prolog information, see 'cfe_tbl_task_cmds.h'
1332:/home/simulink/cFS_FreeRTOS_seL4/cfe/fsw/cfe-core/src/tbl/cfe_tbl_task_cmds.c **** ********************************************************************/
1333:/home/simulink/cFS_FreeRTOS_seL4/cfe/fsw/cfe-core/src/tbl/cfe_tbl_task_cmds.c **** 
68K GAS   			page 92


1334:/home/simulink/cFS_FreeRTOS_seL4/cfe/fsw/cfe-core/src/tbl/cfe_tbl_task_cmds.c **** CFE_TBL_CmdProcRet_t CFE_TBL_TlmRegCmd( const CFE_SB_MsgPayloadPtr_t  Payload )
1335:/home/simulink/cFS_FreeRTOS_seL4/cfe/fsw/cfe-core/src/tbl/cfe_tbl_task_cmds.c **** {
 3233               	.loc 1 1335 0
 3234               	.cfi_startproc
 3235 1c86 4FEF FFCC 	lea (-52,%sp),%sp
 3236               	.cfi_def_cfa_offset 56
1336:/home/simulink/cFS_FreeRTOS_seL4/cfe/fsw/cfe-core/src/tbl/cfe_tbl_task_cmds.c ****     CFE_TBL_CmdProcRet_t         ReturnCode = CFE_TBL_INC_ERR_CTR;        /* Assume failure */
 3237               	.loc 1 1336 0
 3238 1c8a 70FF      	moveq #-1,%d0
 3239 1c8c 2F40 0030 	move.l %d0,48(%sp)
1337:/home/simulink/cFS_FreeRTOS_seL4/cfe/fsw/cfe-core/src/tbl/cfe_tbl_task_cmds.c ****     int16                        RegIndex;
1338:/home/simulink/cFS_FreeRTOS_seL4/cfe/fsw/cfe-core/src/tbl/cfe_tbl_task_cmds.c ****     const CFE_TBL_TlmRegCmd_Payload_t   *CmdPtr = (const CFE_TBL_TlmRegCmd_Payload_t *) Payload;
 3240               	.loc 1 1338 0
 3241 1c90 2F6F 0038 	move.l 56(%sp),44(%sp)
 3241      002C 
1339:/home/simulink/cFS_FreeRTOS_seL4/cfe/fsw/cfe-core/src/tbl/cfe_tbl_task_cmds.c ****     char                         TableName[CFE_TBL_MAX_FULL_NAME_LEN];
1340:/home/simulink/cFS_FreeRTOS_seL4/cfe/fsw/cfe-core/src/tbl/cfe_tbl_task_cmds.c **** 
1341:/home/simulink/cFS_FreeRTOS_seL4/cfe/fsw/cfe-core/src/tbl/cfe_tbl_task_cmds.c ****     /* Make sure all strings are null terminated before attempting to process them */
1342:/home/simulink/cFS_FreeRTOS_seL4/cfe/fsw/cfe-core/src/tbl/cfe_tbl_task_cmds.c ****     CFE_SB_MessageStringGet(TableName, (char *)CmdPtr->TableName, NULL,
 3242               	.loc 1 1342 0
 3243 1c96 202F 002C 	move.l 44(%sp),%d0
 3244 1c9a 4878 0028 	pea 40.w
 3245               	.cfi_def_cfa_offset 60
 3246 1c9e 4878 0028 	pea 40.w
 3247               	.cfi_def_cfa_offset 64
 3248 1ca2 42A7      	clr.l -(%sp)
 3249               	.cfi_def_cfa_offset 68
 3250 1ca4 2F00      	move.l %d0,-(%sp)
 3251               	.cfi_def_cfa_offset 72
 3252 1ca6 200F      	move.l %sp,%d0
 3253 1ca8 0680 0000 	add.l #18,%d0
 3253      0012 
 3254 1cae 2F00      	move.l %d0,-(%sp)
 3255               	.cfi_def_cfa_offset 76
 3256 1cb0 4EB9 0000 	jsr CFE_SB_MessageStringGet
 3256      0000 
 3257 1cb6 4FEF 0014 	lea (20,%sp),%sp
 3258               	.cfi_def_cfa_offset 56
1343:/home/simulink/cFS_FreeRTOS_seL4/cfe/fsw/cfe-core/src/tbl/cfe_tbl_task_cmds.c ****             CFE_TBL_MAX_FULL_NAME_LEN, sizeof(CmdPtr->TableName));
1344:/home/simulink/cFS_FreeRTOS_seL4/cfe/fsw/cfe-core/src/tbl/cfe_tbl_task_cmds.c **** 
1345:/home/simulink/cFS_FreeRTOS_seL4/cfe/fsw/cfe-core/src/tbl/cfe_tbl_task_cmds.c ****     /* Before doing anything, lets make sure the table registry entry that is to be telemetered exi
1346:/home/simulink/cFS_FreeRTOS_seL4/cfe/fsw/cfe-core/src/tbl/cfe_tbl_task_cmds.c ****     RegIndex = CFE_TBL_FindTableInRegistry(TableName);
 3259               	.loc 1 1346 0
 3260 1cba 200F      	move.l %sp,%d0
 3261 1cbc 5480      	addq.l #2,%d0
 3262 1cbe 2F00      	move.l %d0,-(%sp)
 3263               	.cfi_def_cfa_offset 60
 3264 1cc0 4EB9 0000 	jsr CFE_TBL_FindTableInRegistry
 3264      0000 
 3265 1cc6 588F      	addq.l #4,%sp
 3266               	.cfi_def_cfa_offset 56
 3267 1cc8 3F40 002A 	move.w %d0,42(%sp)
1347:/home/simulink/cFS_FreeRTOS_seL4/cfe/fsw/cfe-core/src/tbl/cfe_tbl_task_cmds.c **** 
1348:/home/simulink/cFS_FreeRTOS_seL4/cfe/fsw/cfe-core/src/tbl/cfe_tbl_task_cmds.c ****     if (RegIndex != CFE_TBL_NOT_FOUND)
 3268               	.loc 1 1348 0
 3269 1ccc 306F 002A 	move.w 42(%sp),%a0
 3270 1cd0 70FF      	moveq #-1,%d0
68K GAS   			page 93


 3271 1cd2 B088      	cmp.l %a0,%d0
 3272 1cd4 6730      	jeq .L142
1349:/home/simulink/cFS_FreeRTOS_seL4/cfe/fsw/cfe-core/src/tbl/cfe_tbl_task_cmds.c ****     {
1350:/home/simulink/cFS_FreeRTOS_seL4/cfe/fsw/cfe-core/src/tbl/cfe_tbl_task_cmds.c ****         /* Change the index used to identify what data is to be telemetered */
1351:/home/simulink/cFS_FreeRTOS_seL4/cfe/fsw/cfe-core/src/tbl/cfe_tbl_task_cmds.c ****         CFE_TBL_TaskData.HkTlmTblRegIndex = RegIndex;
 3273               	.loc 1 1351 0
 3274 1cd6 41EF 002A 	lea (42,%sp),%a0
 3275 1cda 33D0 0000 	move.w (%a0),CFE_TBL_TaskData+524
 3275      0000 
1352:/home/simulink/cFS_FreeRTOS_seL4/cfe/fsw/cfe-core/src/tbl/cfe_tbl_task_cmds.c **** 
1353:/home/simulink/cFS_FreeRTOS_seL4/cfe/fsw/cfe-core/src/tbl/cfe_tbl_task_cmds.c ****         CFE_EVS_SendEvent(CFE_TBL_TLM_REG_CMD_INF_EID,
 3276               	.loc 1 1353 0
 3277 1ce0 200F      	move.l %sp,%d0
 3278 1ce2 5480      	addq.l #2,%d0
 3279 1ce4 2F00      	move.l %d0,-(%sp)
 3280               	.cfi_def_cfa_offset 60
 3281 1ce6 4879 0000 	pea .LC41
 3281      0000 
 3282               	.cfi_def_cfa_offset 64
 3283 1cec 4878 0001 	pea 1.w
 3284               	.cfi_def_cfa_offset 68
 3285 1cf0 4878 0012 	pea 18.w
 3286               	.cfi_def_cfa_offset 72
 3287 1cf4 4EB9 0000 	jsr CFE_EVS_SendEvent
 3287      0000 
 3288 1cfa 4FEF 0010 	lea (16,%sp),%sp
 3289               	.cfi_def_cfa_offset 56
1354:/home/simulink/cFS_FreeRTOS_seL4/cfe/fsw/cfe-core/src/tbl/cfe_tbl_task_cmds.c ****                           CFE_EVS_DEBUG,
1355:/home/simulink/cFS_FreeRTOS_seL4/cfe/fsw/cfe-core/src/tbl/cfe_tbl_task_cmds.c ****                           "Table Registry entry for '%s' will be telemetered",
1356:/home/simulink/cFS_FreeRTOS_seL4/cfe/fsw/cfe-core/src/tbl/cfe_tbl_task_cmds.c ****                           TableName);
1357:/home/simulink/cFS_FreeRTOS_seL4/cfe/fsw/cfe-core/src/tbl/cfe_tbl_task_cmds.c **** 
1358:/home/simulink/cFS_FreeRTOS_seL4/cfe/fsw/cfe-core/src/tbl/cfe_tbl_task_cmds.c ****         /* Increment Successful Command Counter */
1359:/home/simulink/cFS_FreeRTOS_seL4/cfe/fsw/cfe-core/src/tbl/cfe_tbl_task_cmds.c ****         ReturnCode = CFE_TBL_INC_CMD_CTR;
 3290               	.loc 1 1359 0
 3291 1cfe 7001      	moveq #1,%d0
 3292 1d00 2F40 0030 	move.l %d0,48(%sp)
 3293 1d04 601E      	jra .L143
 3294               	.L142:
1360:/home/simulink/cFS_FreeRTOS_seL4/cfe/fsw/cfe-core/src/tbl/cfe_tbl_task_cmds.c ****     }
1361:/home/simulink/cFS_FreeRTOS_seL4/cfe/fsw/cfe-core/src/tbl/cfe_tbl_task_cmds.c ****     else /* Table could not be found in Registry */
1362:/home/simulink/cFS_FreeRTOS_seL4/cfe/fsw/cfe-core/src/tbl/cfe_tbl_task_cmds.c ****     {
1363:/home/simulink/cFS_FreeRTOS_seL4/cfe/fsw/cfe-core/src/tbl/cfe_tbl_task_cmds.c ****         CFE_EVS_SendEvent(CFE_TBL_NO_SUCH_TABLE_ERR_EID,
 3295               	.loc 1 1363 0
 3296 1d06 200F      	move.l %sp,%d0
 3297 1d08 5480      	addq.l #2,%d0
 3298 1d0a 2F00      	move.l %d0,-(%sp)
 3299               	.cfi_def_cfa_offset 60
 3300 1d0c 4879 0000 	pea .LC5
 3300      0000 
 3301               	.cfi_def_cfa_offset 64
 3302 1d12 4878 0003 	pea 3.w
 3303               	.cfi_def_cfa_offset 68
 3304 1d16 4878 0039 	pea 57.w
 3305               	.cfi_def_cfa_offset 72
 3306 1d1a 4EB9 0000 	jsr CFE_EVS_SendEvent
 3306      0000 
 3307 1d20 4FEF 0010 	lea (16,%sp),%sp
68K GAS   			page 94


 3308               	.cfi_def_cfa_offset 56
 3309               	.L143:
1364:/home/simulink/cFS_FreeRTOS_seL4/cfe/fsw/cfe-core/src/tbl/cfe_tbl_task_cmds.c ****                           CFE_EVS_ERROR,
1365:/home/simulink/cFS_FreeRTOS_seL4/cfe/fsw/cfe-core/src/tbl/cfe_tbl_task_cmds.c ****                           "Unable to locate '%s' in Table Registry",
1366:/home/simulink/cFS_FreeRTOS_seL4/cfe/fsw/cfe-core/src/tbl/cfe_tbl_task_cmds.c ****                           TableName);
1367:/home/simulink/cFS_FreeRTOS_seL4/cfe/fsw/cfe-core/src/tbl/cfe_tbl_task_cmds.c ****     }
1368:/home/simulink/cFS_FreeRTOS_seL4/cfe/fsw/cfe-core/src/tbl/cfe_tbl_task_cmds.c **** 
1369:/home/simulink/cFS_FreeRTOS_seL4/cfe/fsw/cfe-core/src/tbl/cfe_tbl_task_cmds.c ****     return ReturnCode;
 3310               	.loc 1 1369 0
 3311 1d24 202F 0030 	move.l 48(%sp),%d0
1370:/home/simulink/cFS_FreeRTOS_seL4/cfe/fsw/cfe-core/src/tbl/cfe_tbl_task_cmds.c **** 
1371:/home/simulink/cFS_FreeRTOS_seL4/cfe/fsw/cfe-core/src/tbl/cfe_tbl_task_cmds.c **** } /* End of CFE_TBL_TlmRegCmd() */
 3312               	.loc 1 1371 0
 3313 1d28 4FEF 0034 	lea (52,%sp),%sp
 3314 1d2c 4E75      	rts
 3315               	.cfi_endproc
 3316               	.LFE70:
 3317               	.sizeCFE_TBL_TlmRegCmd, .-CFE_TBL_TlmRegCmd
 3318               	.section.rodata
 3319               	.LC42:
 3320 07aa 5461 626C 	.string"Table '%s' is in Critical Table Registry but CDS is not tagged as a table"
 3320      6520 2725 
 3320      7327 2069 
 3320      7320 696E 
 3320      2043 7269 
 3321               	.LC43:
 3322 07f4 4344 5320 	.string"CDS '%s' owning app is still active"
 3322      2725 7327 
 3322      206F 776E 
 3322      696E 6720 
 3322      6170 7020 
 3323               	.LC44:
 3324 0818 556E 6162 	.string"Unable to locate '%s' in CDS Registry"
 3324      6C65 2074 
 3324      6F20 6C6F 
 3324      6361 7465 
 3324      2027 2573 
 3325               	.LC45:
 3326 083e 4572 726F 	.string"Error while deleting '%s' from CDS, See SysLog.(Err=0x%08X)"
 3326      7220 7768 
 3326      696C 6520 
 3326      6465 6C65 
 3326      7469 6E67 
 3327               	.LC46:
 3328 087a 5375 6363 	.string"Successfully removed '%s' from CDS"
 3328      6573 7366 
 3328      756C 6C79 
 3328      2072 656D 
 3328      6F76 6564 
 3329               	.LC47:
 3330 089d 5461 626C 	.string"Table '%s' is not found in Critical Table Registry"
 3330      6520 2725 
 3330      7327 2069 
 3330      7320 6E6F 
 3330      7420 666F 
 3331               	.LC48:
 3332 08d0 2725 7327 	.string"'%s' found in Table Registry. CDS cannot be deleted until table is unregistered"
68K GAS   			page 95


 3332      2066 6F75 
 3332      6E64 2069 
 3332      6E20 5461 
 3332      626C 6520 
 3333               	.text
 3334               	.align2
 3335               	.globlCFE_TBL_DeleteCDSCmd
 3336               	.typeCFE_TBL_DeleteCDSCmd, @function
 3337               	CFE_TBL_DeleteCDSCmd:
 3338               	.LFB71:
1372:/home/simulink/cFS_FreeRTOS_seL4/cfe/fsw/cfe-core/src/tbl/cfe_tbl_task_cmds.c **** 
1373:/home/simulink/cFS_FreeRTOS_seL4/cfe/fsw/cfe-core/src/tbl/cfe_tbl_task_cmds.c **** 
1374:/home/simulink/cFS_FreeRTOS_seL4/cfe/fsw/cfe-core/src/tbl/cfe_tbl_task_cmds.c **** /*******************************************************************
1375:/home/simulink/cFS_FreeRTOS_seL4/cfe/fsw/cfe-core/src/tbl/cfe_tbl_task_cmds.c **** **
1376:/home/simulink/cFS_FreeRTOS_seL4/cfe/fsw/cfe-core/src/tbl/cfe_tbl_task_cmds.c **** ** CFE_TBL_DeleteCDSCmd() -- Process Delete Critical Table's CDS Command Message
1377:/home/simulink/cFS_FreeRTOS_seL4/cfe/fsw/cfe-core/src/tbl/cfe_tbl_task_cmds.c **** **
1378:/home/simulink/cFS_FreeRTOS_seL4/cfe/fsw/cfe-core/src/tbl/cfe_tbl_task_cmds.c **** ** NOTE: For complete prolog information, see 'cfe_tbl_task_cmds.h'
1379:/home/simulink/cFS_FreeRTOS_seL4/cfe/fsw/cfe-core/src/tbl/cfe_tbl_task_cmds.c **** ********************************************************************/
1380:/home/simulink/cFS_FreeRTOS_seL4/cfe/fsw/cfe-core/src/tbl/cfe_tbl_task_cmds.c **** 
1381:/home/simulink/cFS_FreeRTOS_seL4/cfe/fsw/cfe-core/src/tbl/cfe_tbl_task_cmds.c **** CFE_TBL_CmdProcRet_t CFE_TBL_DeleteCDSCmd( const CFE_SB_MsgPayloadPtr_t  Payload )
1382:/home/simulink/cFS_FreeRTOS_seL4/cfe/fsw/cfe-core/src/tbl/cfe_tbl_task_cmds.c **** {
 3339               	.loc 1 1382 0
 3340               	.cfi_startproc
 3341 1d2e 4FEF FFC0 	lea (-64,%sp),%sp
 3342               	.cfi_def_cfa_offset 68
1383:/home/simulink/cFS_FreeRTOS_seL4/cfe/fsw/cfe-core/src/tbl/cfe_tbl_task_cmds.c ****     CFE_TBL_CmdProcRet_t         ReturnCode = CFE_TBL_INC_ERR_CTR;        /* Assume failure */
 3343               	.loc 1 1383 0
 3344 1d32 70FF      	moveq #-1,%d0
 3345 1d34 2F40 003C 	move.l %d0,60(%sp)
1384:/home/simulink/cFS_FreeRTOS_seL4/cfe/fsw/cfe-core/src/tbl/cfe_tbl_task_cmds.c ****     const CFE_TBL_DelCDSCmd_Payload_t   *CmdPtr = (const CFE_TBL_DelCDSCmd_Payload_t *) Payload;
 3346               	.loc 1 1384 0
 3347 1d38 2F6F 0044 	move.l 68(%sp),48(%sp)
 3347      0030 
1385:/home/simulink/cFS_FreeRTOS_seL4/cfe/fsw/cfe-core/src/tbl/cfe_tbl_task_cmds.c ****     char                         TableName[CFE_TBL_MAX_FULL_NAME_LEN];
1386:/home/simulink/cFS_FreeRTOS_seL4/cfe/fsw/cfe-core/src/tbl/cfe_tbl_task_cmds.c ****     CFE_TBL_CritRegRec_t        *CritRegRecPtr = NULL;
 3348               	.loc 1 1386 0
 3349 1d3e 42AF 0038 	clr.l 56(%sp)
1387:/home/simulink/cFS_FreeRTOS_seL4/cfe/fsw/cfe-core/src/tbl/cfe_tbl_task_cmds.c ****     uint32                       i;
1388:/home/simulink/cFS_FreeRTOS_seL4/cfe/fsw/cfe-core/src/tbl/cfe_tbl_task_cmds.c ****     uint32                       RegIndex;
1389:/home/simulink/cFS_FreeRTOS_seL4/cfe/fsw/cfe-core/src/tbl/cfe_tbl_task_cmds.c ****     int32                        Status;
1390:/home/simulink/cFS_FreeRTOS_seL4/cfe/fsw/cfe-core/src/tbl/cfe_tbl_task_cmds.c **** 
1391:/home/simulink/cFS_FreeRTOS_seL4/cfe/fsw/cfe-core/src/tbl/cfe_tbl_task_cmds.c ****     /* Make sure all strings are null terminated before attempting to process them */
1392:/home/simulink/cFS_FreeRTOS_seL4/cfe/fsw/cfe-core/src/tbl/cfe_tbl_task_cmds.c ****     CFE_SB_MessageStringGet(TableName, (char *)CmdPtr->TableName, NULL,
 3350               	.loc 1 1392 0
 3351 1d42 202F 0030 	move.l 48(%sp),%d0
 3352 1d46 4878 0028 	pea 40.w
 3353               	.cfi_def_cfa_offset 72
 3354 1d4a 4878 0028 	pea 40.w
 3355               	.cfi_def_cfa_offset 76
 3356 1d4e 42A7      	clr.l -(%sp)
 3357               	.cfi_def_cfa_offset 80
 3358 1d50 2F00      	move.l %d0,-(%sp)
 3359               	.cfi_def_cfa_offset 84
 3360 1d52 200F      	move.l %sp,%d0
 3361 1d54 0680 0000 	add.l #16,%d0
 3361      0010 
 3362 1d5a 2F00      	move.l %d0,-(%sp)
68K GAS   			page 96


 3363               	.cfi_def_cfa_offset 88
 3364 1d5c 4EB9 0000 	jsr CFE_SB_MessageStringGet
 3364      0000 
 3365 1d62 4FEF 0014 	lea (20,%sp),%sp
 3366               	.cfi_def_cfa_offset 68
1393:/home/simulink/cFS_FreeRTOS_seL4/cfe/fsw/cfe-core/src/tbl/cfe_tbl_task_cmds.c ****             CFE_TBL_MAX_FULL_NAME_LEN, sizeof(CmdPtr->TableName));
1394:/home/simulink/cFS_FreeRTOS_seL4/cfe/fsw/cfe-core/src/tbl/cfe_tbl_task_cmds.c **** 
1395:/home/simulink/cFS_FreeRTOS_seL4/cfe/fsw/cfe-core/src/tbl/cfe_tbl_task_cmds.c ****     /* Before doing anything, lets make sure the table is no longer in the registry */
1396:/home/simulink/cFS_FreeRTOS_seL4/cfe/fsw/cfe-core/src/tbl/cfe_tbl_task_cmds.c ****     /* This would imply that the owning application has been terminated and that it */
1397:/home/simulink/cFS_FreeRTOS_seL4/cfe/fsw/cfe-core/src/tbl/cfe_tbl_task_cmds.c ****     /* is safe to delete the associated critical table image in the CDS. */
1398:/home/simulink/cFS_FreeRTOS_seL4/cfe/fsw/cfe-core/src/tbl/cfe_tbl_task_cmds.c ****     RegIndex = CFE_TBL_FindTableInRegistry(TableName);
 3367               	.loc 1 1398 0
 3368 1d66 200F      	move.l %sp,%d0
 3369 1d68 2F00      	move.l %d0,-(%sp)
 3370               	.cfi_def_cfa_offset 72
 3371 1d6a 4EB9 0000 	jsr CFE_TBL_FindTableInRegistry
 3371      0000 
 3372 1d70 588F      	addq.l #4,%sp
 3373               	.cfi_def_cfa_offset 68
 3374 1d72 3040      	move.w %d0,%a0
 3375 1d74 2F48 002C 	move.l %a0,44(%sp)
1399:/home/simulink/cFS_FreeRTOS_seL4/cfe/fsw/cfe-core/src/tbl/cfe_tbl_task_cmds.c **** 
1400:/home/simulink/cFS_FreeRTOS_seL4/cfe/fsw/cfe-core/src/tbl/cfe_tbl_task_cmds.c ****     if (RegIndex == CFE_TBL_NOT_FOUND)
 3376               	.loc 1 1400 0
 3377 1d78 70FF      	moveq #-1,%d0
 3378 1d7a B0AF 002C 	cmp.l 44(%sp),%d0
 3379 1d7e 6600 0178 	jne .L146
1401:/home/simulink/cFS_FreeRTOS_seL4/cfe/fsw/cfe-core/src/tbl/cfe_tbl_task_cmds.c ****     {
1402:/home/simulink/cFS_FreeRTOS_seL4/cfe/fsw/cfe-core/src/tbl/cfe_tbl_task_cmds.c ****         /* Find table in the Critical Table Registry */
1403:/home/simulink/cFS_FreeRTOS_seL4/cfe/fsw/cfe-core/src/tbl/cfe_tbl_task_cmds.c ****         for (i=0; i<CFE_TBL_MAX_CRITICAL_TABLES; i++)
 3380               	.loc 1 1403 0
 3381 1d82 42AF 0034 	clr.l 52(%sp)
 3382 1d86 604E      	jra .L147
 3383               	.L149:
1404:/home/simulink/cFS_FreeRTOS_seL4/cfe/fsw/cfe-core/src/tbl/cfe_tbl_task_cmds.c ****         {
1405:/home/simulink/cFS_FreeRTOS_seL4/cfe/fsw/cfe-core/src/tbl/cfe_tbl_task_cmds.c ****             if (strncmp(CFE_TBL_TaskData.CritReg[i].Name, TableName, CFE_TBL_MAX_FULL_NAME_LEN) == 
 3384               	.loc 1 1405 0
 3385 1d88 202F 0034 	move.l 52(%sp),%d0
 3386 1d8c EF88      	lsl.l #7,%d0
 3387 1d8e 0680 0000 	add.l #48064,%d0
 3387      BBC0 
 3388 1d94 0680 0000 	add.l #CFE_TBL_TaskData,%d0
 3388      0000 
 3389 1d9a 4878 0028 	pea 40.w
 3390               	.cfi_def_cfa_offset 72
 3391 1d9e 220F      	move.l %sp,%d1
 3392 1da0 5881      	addq.l #4,%d1
 3393 1da2 2F01      	move.l %d1,-(%sp)
 3394               	.cfi_def_cfa_offset 76
 3395 1da4 2F00      	move.l %d0,-(%sp)
 3396               	.cfi_def_cfa_offset 80
 3397 1da6 4EB9 0000 	jsr strncmp
 3397      0000 
 3398 1dac 4FEF 000C 	lea (12,%sp),%sp
 3399               	.cfi_def_cfa_offset 68
 3400 1db0 4A80      	tst.l %d0
 3401 1db2 661E      	jne .L148
68K GAS   			page 97


1406:/home/simulink/cFS_FreeRTOS_seL4/cfe/fsw/cfe-core/src/tbl/cfe_tbl_task_cmds.c ****             {
1407:/home/simulink/cFS_FreeRTOS_seL4/cfe/fsw/cfe-core/src/tbl/cfe_tbl_task_cmds.c ****                 CritRegRecPtr = &CFE_TBL_TaskData.CritReg[i];
 3402               	.loc 1 1407 0
 3403 1db4 202F 0034 	move.l 52(%sp),%d0
 3404 1db8 EF88      	lsl.l #7,%d0
 3405 1dba 0680 0000 	add.l #47980,%d0
 3405      BB6C 
 3406 1dc0 2200      	move.l %d0,%d1
 3407 1dc2 0681 0000 	add.l #CFE_TBL_TaskData,%d1
 3407      0000 
 3408 1dc8 2F41 0038 	move.l %d1,56(%sp)
1408:/home/simulink/cFS_FreeRTOS_seL4/cfe/fsw/cfe-core/src/tbl/cfe_tbl_task_cmds.c ****                 i=CFE_TBL_MAX_CRITICAL_TABLES;
 3409               	.loc 1 1408 0
 3410 1dcc 7020      	moveq #32,%d0
 3411 1dce 2F40 0034 	move.l %d0,52(%sp)
 3412               	.L148:
1403:/home/simulink/cFS_FreeRTOS_seL4/cfe/fsw/cfe-core/src/tbl/cfe_tbl_task_cmds.c ****         {
 3413               	.loc 1 1403 0 discriminator 2
 3414 1dd2 52AF 0034 	addq.l #1,52(%sp)
 3415               	.L147:
1403:/home/simulink/cFS_FreeRTOS_seL4/cfe/fsw/cfe-core/src/tbl/cfe_tbl_task_cmds.c ****         {
 3416               	.loc 1 1403 0 is_stmt 0 discriminator 1
 3417 1dd6 721F      	moveq #31,%d1
 3418 1dd8 B2AF 0034 	cmp.l 52(%sp),%d1
 3419 1ddc 64AA      	jcc .L149
1409:/home/simulink/cFS_FreeRTOS_seL4/cfe/fsw/cfe-core/src/tbl/cfe_tbl_task_cmds.c ****             }
1410:/home/simulink/cFS_FreeRTOS_seL4/cfe/fsw/cfe-core/src/tbl/cfe_tbl_task_cmds.c ****         }
1411:/home/simulink/cFS_FreeRTOS_seL4/cfe/fsw/cfe-core/src/tbl/cfe_tbl_task_cmds.c ****         
1412:/home/simulink/cFS_FreeRTOS_seL4/cfe/fsw/cfe-core/src/tbl/cfe_tbl_task_cmds.c ****         if (CritRegRecPtr != NULL)
 3420               	.loc 1 1412 0 is_stmt 1
 3421 1dde 4AAF 0038 	tst.l 56(%sp)
 3422 1de2 6700 00F6 	jeq .L150
1413:/home/simulink/cFS_FreeRTOS_seL4/cfe/fsw/cfe-core/src/tbl/cfe_tbl_task_cmds.c ****         {
1414:/home/simulink/cFS_FreeRTOS_seL4/cfe/fsw/cfe-core/src/tbl/cfe_tbl_task_cmds.c ****             Status = CFE_ES_DeleteCDS(TableName, TRUE);
 3423               	.loc 1 1414 0
 3424 1de6 4878 0001 	pea 1.w
 3425               	.cfi_def_cfa_offset 72
 3426 1dea 200F      	move.l %sp,%d0
 3427 1dec 5880      	addq.l #4,%d0
 3428 1dee 2F00      	move.l %d0,-(%sp)
 3429               	.cfi_def_cfa_offset 76
 3430 1df0 4EB9 0000 	jsr CFE_ES_DeleteCDS
 3430      0000 
 3431 1df6 508F      	addq.l #8,%sp
 3432               	.cfi_def_cfa_offset 68
 3433 1df8 2F40 0028 	move.l %d0,40(%sp)
1415:/home/simulink/cFS_FreeRTOS_seL4/cfe/fsw/cfe-core/src/tbl/cfe_tbl_task_cmds.c ****         
1416:/home/simulink/cFS_FreeRTOS_seL4/cfe/fsw/cfe-core/src/tbl/cfe_tbl_task_cmds.c ****             if (Status == CFE_ES_CDS_WRONG_TYPE_ERR)
 3434               	.loc 1 1416 0
 3435 1dfc 207C C400 	move.l #-1006632928,%a0
 3435      0020 
 3436 1e02 B1EF 0028 	cmp.l 40(%sp),%a0
 3437 1e06 6620      	jne .L151
1417:/home/simulink/cFS_FreeRTOS_seL4/cfe/fsw/cfe-core/src/tbl/cfe_tbl_task_cmds.c ****             {
1418:/home/simulink/cFS_FreeRTOS_seL4/cfe/fsw/cfe-core/src/tbl/cfe_tbl_task_cmds.c ****                 CFE_EVS_SendEvent(CFE_TBL_NOT_CRITICAL_TBL_ERR_EID,
 3438               	.loc 1 1418 0
 3439 1e08 200F      	move.l %sp,%d0
68K GAS   			page 98


 3440 1e0a 2F00      	move.l %d0,-(%sp)
 3441               	.cfi_def_cfa_offset 72
 3442 1e0c 4879 0000 	pea .LC42
 3442      0000 
 3443               	.cfi_def_cfa_offset 76
 3444 1e12 4878 0003 	pea 3.w
 3445               	.cfi_def_cfa_offset 80
 3446 1e16 4878 0053 	pea 83.w
 3447               	.cfi_def_cfa_offset 84
 3448 1e1a 4EB9 0000 	jsr CFE_EVS_SendEvent
 3448      0000 
 3449 1e20 4FEF 0010 	lea (16,%sp),%sp
 3450               	.cfi_def_cfa_offset 68
 3451 1e24 6000 00EE 	jra .L157
 3452               	.L151:
1419:/home/simulink/cFS_FreeRTOS_seL4/cfe/fsw/cfe-core/src/tbl/cfe_tbl_task_cmds.c ****                                   CFE_EVS_ERROR,
1420:/home/simulink/cFS_FreeRTOS_seL4/cfe/fsw/cfe-core/src/tbl/cfe_tbl_task_cmds.c ****                                   "Table '%s' is in Critical Table Registry but CDS is not tagged a
1421:/home/simulink/cFS_FreeRTOS_seL4/cfe/fsw/cfe-core/src/tbl/cfe_tbl_task_cmds.c ****                                   TableName);
1422:/home/simulink/cFS_FreeRTOS_seL4/cfe/fsw/cfe-core/src/tbl/cfe_tbl_task_cmds.c ****             }
1423:/home/simulink/cFS_FreeRTOS_seL4/cfe/fsw/cfe-core/src/tbl/cfe_tbl_task_cmds.c ****             else if (Status == CFE_ES_CDS_OWNER_ACTIVE_ERR)
 3453               	.loc 1 1423 0
 3454 1e28 203C C400 	move.l #-1006632926,%d0
 3454      0022 
 3455 1e2e B0AF 0028 	cmp.l 40(%sp),%d0
 3456 1e32 6620      	jne .L153
1424:/home/simulink/cFS_FreeRTOS_seL4/cfe/fsw/cfe-core/src/tbl/cfe_tbl_task_cmds.c ****             {
1425:/home/simulink/cFS_FreeRTOS_seL4/cfe/fsw/cfe-core/src/tbl/cfe_tbl_task_cmds.c ****                 CFE_EVS_SendEvent(CFE_TBL_CDS_OWNER_ACTIVE_ERR_EID, CFE_EVS_ERROR,
 3457               	.loc 1 1425 0
 3458 1e34 200F      	move.l %sp,%d0
 3459 1e36 2F00      	move.l %d0,-(%sp)
 3460               	.cfi_def_cfa_offset 72
 3461 1e38 4879 0000 	pea .LC43
 3461      0000 
 3462               	.cfi_def_cfa_offset 76
 3463 1e3e 4878 0003 	pea 3.w
 3464               	.cfi_def_cfa_offset 80
 3465 1e42 4878 0057 	pea 87.w
 3466               	.cfi_def_cfa_offset 84
 3467 1e46 4EB9 0000 	jsr CFE_EVS_SendEvent
 3467      0000 
 3468 1e4c 4FEF 0010 	lea (16,%sp),%sp
 3469               	.cfi_def_cfa_offset 68
 3470 1e50 6000 00C2 	jra .L157
 3471               	.L153:
1426:/home/simulink/cFS_FreeRTOS_seL4/cfe/fsw/cfe-core/src/tbl/cfe_tbl_task_cmds.c ****                                   "CDS '%s' owning app is still active", 
1427:/home/simulink/cFS_FreeRTOS_seL4/cfe/fsw/cfe-core/src/tbl/cfe_tbl_task_cmds.c ****                                   TableName);
1428:/home/simulink/cFS_FreeRTOS_seL4/cfe/fsw/cfe-core/src/tbl/cfe_tbl_task_cmds.c ****             }
1429:/home/simulink/cFS_FreeRTOS_seL4/cfe/fsw/cfe-core/src/tbl/cfe_tbl_task_cmds.c ****             else if (Status == CFE_ES_CDS_NOT_FOUND_ERR)
 3472               	.loc 1 1429 0
 3473 1e54 223C C400 	move.l #-1006632927,%d1
 3473      0021 
 3474 1e5a B2AF 0028 	cmp.l 40(%sp),%d1
 3475 1e5e 6620      	jne .L154
1430:/home/simulink/cFS_FreeRTOS_seL4/cfe/fsw/cfe-core/src/tbl/cfe_tbl_task_cmds.c ****             {
1431:/home/simulink/cFS_FreeRTOS_seL4/cfe/fsw/cfe-core/src/tbl/cfe_tbl_task_cmds.c ****                 CFE_EVS_SendEvent(CFE_TBL_CDS_NOT_FOUND_ERR_EID, CFE_EVS_ERROR,        
 3476               	.loc 1 1431 0
 3477 1e60 200F      	move.l %sp,%d0
68K GAS   			page 99


 3478 1e62 2F00      	move.l %d0,-(%sp)
 3479               	.cfi_def_cfa_offset 72
 3480 1e64 4879 0000 	pea .LC44
 3480      0000 
 3481               	.cfi_def_cfa_offset 76
 3482 1e6a 4878 0003 	pea 3.w
 3483               	.cfi_def_cfa_offset 80
 3484 1e6e 4878 0055 	pea 85.w
 3485               	.cfi_def_cfa_offset 84
 3486 1e72 4EB9 0000 	jsr CFE_EVS_SendEvent
 3486      0000 
 3487 1e78 4FEF 0010 	lea (16,%sp),%sp
 3488               	.cfi_def_cfa_offset 68
 3489 1e7c 6000 0096 	jra .L157
 3490               	.L154:
1432:/home/simulink/cFS_FreeRTOS_seL4/cfe/fsw/cfe-core/src/tbl/cfe_tbl_task_cmds.c ****                                  "Unable to locate '%s' in CDS Registry", TableName);
1433:/home/simulink/cFS_FreeRTOS_seL4/cfe/fsw/cfe-core/src/tbl/cfe_tbl_task_cmds.c ****             }
1434:/home/simulink/cFS_FreeRTOS_seL4/cfe/fsw/cfe-core/src/tbl/cfe_tbl_task_cmds.c ****             else if (Status != CFE_SUCCESS)
 3491               	.loc 1 1434 0
 3492 1e80 4AAF 0028 	tst.l 40(%sp)
 3493 1e84 6726      	jeq .L155
1435:/home/simulink/cFS_FreeRTOS_seL4/cfe/fsw/cfe-core/src/tbl/cfe_tbl_task_cmds.c ****             {
1436:/home/simulink/cFS_FreeRTOS_seL4/cfe/fsw/cfe-core/src/tbl/cfe_tbl_task_cmds.c ****                 CFE_EVS_SendEvent(CFE_TBL_CDS_DELETE_ERR_EID, CFE_EVS_ERROR,
 3494               	.loc 1 1436 0
 3495 1e86 202F 0028 	move.l 40(%sp),%d0
 3496 1e8a 2F00      	move.l %d0,-(%sp)
 3497               	.cfi_def_cfa_offset 72
 3498 1e8c 200F      	move.l %sp,%d0
 3499 1e8e 5880      	addq.l #4,%d0
 3500 1e90 2F00      	move.l %d0,-(%sp)
 3501               	.cfi_def_cfa_offset 76
 3502 1e92 4879 0000 	pea .LC45
 3502      0000 
 3503               	.cfi_def_cfa_offset 80
 3504 1e98 4878 0003 	pea 3.w
 3505               	.cfi_def_cfa_offset 84
 3506 1e9c 4878 0056 	pea 86.w
 3507               	.cfi_def_cfa_offset 88
 3508 1ea0 4EB9 0000 	jsr CFE_EVS_SendEvent
 3508      0000 
 3509 1ea6 4FEF 0014 	lea (20,%sp),%sp
 3510               	.cfi_def_cfa_offset 68
 3511 1eaa 6068      	jra .L157
 3512               	.L155:
1437:/home/simulink/cFS_FreeRTOS_seL4/cfe/fsw/cfe-core/src/tbl/cfe_tbl_task_cmds.c ****                                   "Error while deleting '%s' from CDS, See SysLog.(Err=0x%08X)", 
1438:/home/simulink/cFS_FreeRTOS_seL4/cfe/fsw/cfe-core/src/tbl/cfe_tbl_task_cmds.c ****                                   TableName, (unsigned int)Status);
1439:/home/simulink/cFS_FreeRTOS_seL4/cfe/fsw/cfe-core/src/tbl/cfe_tbl_task_cmds.c ****             }
1440:/home/simulink/cFS_FreeRTOS_seL4/cfe/fsw/cfe-core/src/tbl/cfe_tbl_task_cmds.c ****             else
1441:/home/simulink/cFS_FreeRTOS_seL4/cfe/fsw/cfe-core/src/tbl/cfe_tbl_task_cmds.c ****             {
1442:/home/simulink/cFS_FreeRTOS_seL4/cfe/fsw/cfe-core/src/tbl/cfe_tbl_task_cmds.c ****                 CFE_EVS_SendEvent(CFE_TBL_CDS_DELETED_INFO_EID, CFE_EVS_INFORMATION,
 3513               	.loc 1 1442 0
 3514 1eac 200F      	move.l %sp,%d0
 3515 1eae 2F00      	move.l %d0,-(%sp)
 3516               	.cfi_def_cfa_offset 72
 3517 1eb0 4879 0000 	pea .LC46
 3517      0000 
 3518               	.cfi_def_cfa_offset 76
68K GAS   			page 100


 3519 1eb6 4878 0002 	pea 2.w
 3520               	.cfi_def_cfa_offset 80
 3521 1eba 4878 0026 	pea 38.w
 3522               	.cfi_def_cfa_offset 84
 3523 1ebe 4EB9 0000 	jsr CFE_EVS_SendEvent
 3523      0000 
 3524 1ec4 4FEF 0010 	lea (16,%sp),%sp
 3525               	.cfi_def_cfa_offset 68
1443:/home/simulink/cFS_FreeRTOS_seL4/cfe/fsw/cfe-core/src/tbl/cfe_tbl_task_cmds.c ****                                   "Successfully removed '%s' from CDS", TableName);
1444:/home/simulink/cFS_FreeRTOS_seL4/cfe/fsw/cfe-core/src/tbl/cfe_tbl_task_cmds.c ****                             
1445:/home/simulink/cFS_FreeRTOS_seL4/cfe/fsw/cfe-core/src/tbl/cfe_tbl_task_cmds.c ****                 /* Free the entry in the Critical Table Registry */      
1446:/home/simulink/cFS_FreeRTOS_seL4/cfe/fsw/cfe-core/src/tbl/cfe_tbl_task_cmds.c ****                 CritRegRecPtr->CDSHandle = CFE_ES_CDS_BAD_HANDLE;
 3526               	.loc 1 1446 0
 3527 1ec8 206F 0038 	move.l 56(%sp),%a0
 3528 1ecc 20BC 0000 	move.l #65535,(%a0)
 3528      FFFF 
1447:/home/simulink/cFS_FreeRTOS_seL4/cfe/fsw/cfe-core/src/tbl/cfe_tbl_task_cmds.c ****                      
1448:/home/simulink/cFS_FreeRTOS_seL4/cfe/fsw/cfe-core/src/tbl/cfe_tbl_task_cmds.c ****                 /* Increment Successful Command Counter */
1449:/home/simulink/cFS_FreeRTOS_seL4/cfe/fsw/cfe-core/src/tbl/cfe_tbl_task_cmds.c ****                 ReturnCode = CFE_TBL_INC_CMD_CTR;
 3529               	.loc 1 1449 0
 3530 1ed2 7001      	moveq #1,%d0
 3531 1ed4 2F40 003C 	move.l %d0,60(%sp)
 3532 1ed8 603A      	jra .L157
 3533               	.L150:
1450:/home/simulink/cFS_FreeRTOS_seL4/cfe/fsw/cfe-core/src/tbl/cfe_tbl_task_cmds.c ****             }
1451:/home/simulink/cFS_FreeRTOS_seL4/cfe/fsw/cfe-core/src/tbl/cfe_tbl_task_cmds.c ****         }
1452:/home/simulink/cFS_FreeRTOS_seL4/cfe/fsw/cfe-core/src/tbl/cfe_tbl_task_cmds.c ****         else
1453:/home/simulink/cFS_FreeRTOS_seL4/cfe/fsw/cfe-core/src/tbl/cfe_tbl_task_cmds.c ****         {
1454:/home/simulink/cFS_FreeRTOS_seL4/cfe/fsw/cfe-core/src/tbl/cfe_tbl_task_cmds.c ****             CFE_EVS_SendEvent(CFE_TBL_NOT_IN_CRIT_REG_ERR_EID,
 3534               	.loc 1 1454 0
 3535 1eda 200F      	move.l %sp,%d0
 3536 1edc 2F00      	move.l %d0,-(%sp)
 3537               	.cfi_def_cfa_offset 72
 3538 1ede 4879 0000 	pea .LC47
 3538      0000 
 3539               	.cfi_def_cfa_offset 76
 3540 1ee4 4878 0003 	pea 3.w
 3541               	.cfi_def_cfa_offset 80
 3542 1ee8 4878 0054 	pea 84.w
 3543               	.cfi_def_cfa_offset 84
 3544 1eec 4EB9 0000 	jsr CFE_EVS_SendEvent
 3544      0000 
 3545 1ef2 4FEF 0010 	lea (16,%sp),%sp
 3546               	.cfi_def_cfa_offset 68
 3547 1ef6 601C      	jra .L157
 3548               	.L146:
1455:/home/simulink/cFS_FreeRTOS_seL4/cfe/fsw/cfe-core/src/tbl/cfe_tbl_task_cmds.c ****                               CFE_EVS_ERROR,
1456:/home/simulink/cFS_FreeRTOS_seL4/cfe/fsw/cfe-core/src/tbl/cfe_tbl_task_cmds.c ****                               "Table '%s' is not found in Critical Table Registry",
1457:/home/simulink/cFS_FreeRTOS_seL4/cfe/fsw/cfe-core/src/tbl/cfe_tbl_task_cmds.c ****                               TableName);
1458:/home/simulink/cFS_FreeRTOS_seL4/cfe/fsw/cfe-core/src/tbl/cfe_tbl_task_cmds.c ****         }      
1459:/home/simulink/cFS_FreeRTOS_seL4/cfe/fsw/cfe-core/src/tbl/cfe_tbl_task_cmds.c ****     }
1460:/home/simulink/cFS_FreeRTOS_seL4/cfe/fsw/cfe-core/src/tbl/cfe_tbl_task_cmds.c ****     else /* Table was found in Registry */
1461:/home/simulink/cFS_FreeRTOS_seL4/cfe/fsw/cfe-core/src/tbl/cfe_tbl_task_cmds.c ****     {
1462:/home/simulink/cFS_FreeRTOS_seL4/cfe/fsw/cfe-core/src/tbl/cfe_tbl_task_cmds.c ****         CFE_EVS_SendEvent(CFE_TBL_IN_REGISTRY_ERR_EID,
 3549               	.loc 1 1462 0
 3550 1ef8 200F      	move.l %sp,%d0
 3551 1efa 2F00      	move.l %d0,-(%sp)
68K GAS   			page 101


 3552               	.cfi_def_cfa_offset 72
 3553 1efc 4879 0000 	pea .LC48
 3553      0000 
 3554               	.cfi_def_cfa_offset 76
 3555 1f02 4878 0003 	pea 3.w
 3556               	.cfi_def_cfa_offset 80
 3557 1f06 4878 0052 	pea 82.w
 3558               	.cfi_def_cfa_offset 84
 3559 1f0a 4EB9 0000 	jsr CFE_EVS_SendEvent
 3559      0000 
 3560 1f10 4FEF 0010 	lea (16,%sp),%sp
 3561               	.cfi_def_cfa_offset 68
 3562               	.L157:
1463:/home/simulink/cFS_FreeRTOS_seL4/cfe/fsw/cfe-core/src/tbl/cfe_tbl_task_cmds.c ****                           CFE_EVS_ERROR,
1464:/home/simulink/cFS_FreeRTOS_seL4/cfe/fsw/cfe-core/src/tbl/cfe_tbl_task_cmds.c ****                           "'%s' found in Table Registry. CDS cannot be deleted until table is unreg
1465:/home/simulink/cFS_FreeRTOS_seL4/cfe/fsw/cfe-core/src/tbl/cfe_tbl_task_cmds.c ****                           TableName);
1466:/home/simulink/cFS_FreeRTOS_seL4/cfe/fsw/cfe-core/src/tbl/cfe_tbl_task_cmds.c ****     }
1467:/home/simulink/cFS_FreeRTOS_seL4/cfe/fsw/cfe-core/src/tbl/cfe_tbl_task_cmds.c ****     return ReturnCode;
 3563               	.loc 1 1467 0
 3564 1f14 202F 003C 	move.l 60(%sp),%d0
1468:/home/simulink/cFS_FreeRTOS_seL4/cfe/fsw/cfe-core/src/tbl/cfe_tbl_task_cmds.c **** 
1469:/home/simulink/cFS_FreeRTOS_seL4/cfe/fsw/cfe-core/src/tbl/cfe_tbl_task_cmds.c **** } /* End of CFE_TBL_DeleteCDSCmd() */
 3565               	.loc 1 1469 0
 3566 1f18 4FEF 0040 	lea (64,%sp),%sp
 3567 1f1c 4E75      	rts
 3568               	.cfi_endproc
 3569               	.LFE71:
 3570               	.sizeCFE_TBL_DeleteCDSCmd, .-CFE_TBL_DeleteCDSCmd
 3571               	.section.rodata
 3572               	.LC49:
 3573 0920 4361 6E6E 	.string"Cannot abort load of '%s'. No load started."
 3573      6F74 2061 
 3573      626F 7274 
 3573      206C 6F61 
 3573      6420 6F66 
 3574               	.text
 3575               	.align2
 3576               	.globlCFE_TBL_AbortLoadCmd
 3577               	.typeCFE_TBL_AbortLoadCmd, @function
 3578               	CFE_TBL_AbortLoadCmd:
 3579               	.LFB72:
1470:/home/simulink/cFS_FreeRTOS_seL4/cfe/fsw/cfe-core/src/tbl/cfe_tbl_task_cmds.c **** 
1471:/home/simulink/cFS_FreeRTOS_seL4/cfe/fsw/cfe-core/src/tbl/cfe_tbl_task_cmds.c **** 
1472:/home/simulink/cFS_FreeRTOS_seL4/cfe/fsw/cfe-core/src/tbl/cfe_tbl_task_cmds.c **** /*******************************************************************
1473:/home/simulink/cFS_FreeRTOS_seL4/cfe/fsw/cfe-core/src/tbl/cfe_tbl_task_cmds.c **** **
1474:/home/simulink/cFS_FreeRTOS_seL4/cfe/fsw/cfe-core/src/tbl/cfe_tbl_task_cmds.c **** ** CFE_TBL_AbortLoadCmd() -- Process Abort Load Command Message
1475:/home/simulink/cFS_FreeRTOS_seL4/cfe/fsw/cfe-core/src/tbl/cfe_tbl_task_cmds.c **** **
1476:/home/simulink/cFS_FreeRTOS_seL4/cfe/fsw/cfe-core/src/tbl/cfe_tbl_task_cmds.c **** ** NOTE: For complete prolog information, see 'cfe_tbl_task_cmds.h'
1477:/home/simulink/cFS_FreeRTOS_seL4/cfe/fsw/cfe-core/src/tbl/cfe_tbl_task_cmds.c **** ********************************************************************/
1478:/home/simulink/cFS_FreeRTOS_seL4/cfe/fsw/cfe-core/src/tbl/cfe_tbl_task_cmds.c **** 
1479:/home/simulink/cFS_FreeRTOS_seL4/cfe/fsw/cfe-core/src/tbl/cfe_tbl_task_cmds.c **** CFE_TBL_CmdProcRet_t CFE_TBL_AbortLoadCmd( const CFE_SB_MsgPayloadPtr_t  Payload )
1480:/home/simulink/cFS_FreeRTOS_seL4/cfe/fsw/cfe-core/src/tbl/cfe_tbl_task_cmds.c **** {
 3580               	.loc 1 1480 0
 3581               	.cfi_startproc
 3582 1f1e 4FEF FFC8 	lea (-56,%sp),%sp
 3583               	.cfi_def_cfa_offset 60
1481:/home/simulink/cFS_FreeRTOS_seL4/cfe/fsw/cfe-core/src/tbl/cfe_tbl_task_cmds.c ****     CFE_TBL_CmdProcRet_t         ReturnCode = CFE_TBL_INC_ERR_CTR;        /* Assume failure */
68K GAS   			page 102


 3584               	.loc 1 1481 0
 3585 1f22 70FF      	moveq #-1,%d0
 3586 1f24 2F40 0034 	move.l %d0,52(%sp)
1482:/home/simulink/cFS_FreeRTOS_seL4/cfe/fsw/cfe-core/src/tbl/cfe_tbl_task_cmds.c ****     int16                        RegIndex;
1483:/home/simulink/cFS_FreeRTOS_seL4/cfe/fsw/cfe-core/src/tbl/cfe_tbl_task_cmds.c ****     const CFE_TBL_AbortLdCmd_Payload_t  *CmdPtr = (const CFE_TBL_AbortLdCmd_Payload_t *) Payload;
 3587               	.loc 1 1483 0
 3588 1f28 2F6F 003C 	move.l 60(%sp),48(%sp)
 3588      0030 
1484:/home/simulink/cFS_FreeRTOS_seL4/cfe/fsw/cfe-core/src/tbl/cfe_tbl_task_cmds.c ****     CFE_TBL_RegistryRec_t       *RegRecPtr;
1485:/home/simulink/cFS_FreeRTOS_seL4/cfe/fsw/cfe-core/src/tbl/cfe_tbl_task_cmds.c ****     char                         TableName[CFE_TBL_MAX_FULL_NAME_LEN];
1486:/home/simulink/cFS_FreeRTOS_seL4/cfe/fsw/cfe-core/src/tbl/cfe_tbl_task_cmds.c **** 
1487:/home/simulink/cFS_FreeRTOS_seL4/cfe/fsw/cfe-core/src/tbl/cfe_tbl_task_cmds.c ****     /* Make sure all strings are null terminated before attempting to process them */
1488:/home/simulink/cFS_FreeRTOS_seL4/cfe/fsw/cfe-core/src/tbl/cfe_tbl_task_cmds.c ****     CFE_SB_MessageStringGet(TableName, (char *)CmdPtr->TableName, NULL,
 3589               	.loc 1 1488 0
 3590 1f2e 202F 0030 	move.l 48(%sp),%d0
 3591 1f32 4878 0028 	pea 40.w
 3592               	.cfi_def_cfa_offset 64
 3593 1f36 4878 0028 	pea 40.w
 3594               	.cfi_def_cfa_offset 68
 3595 1f3a 42A7      	clr.l -(%sp)
 3596               	.cfi_def_cfa_offset 72
 3597 1f3c 2F00      	move.l %d0,-(%sp)
 3598               	.cfi_def_cfa_offset 76
 3599 1f3e 200F      	move.l %sp,%d0
 3600 1f40 0680 0000 	add.l #16,%d0
 3600      0010 
 3601 1f46 2F00      	move.l %d0,-(%sp)
 3602               	.cfi_def_cfa_offset 80
 3603 1f48 4EB9 0000 	jsr CFE_SB_MessageStringGet
 3603      0000 
 3604 1f4e 4FEF 0014 	lea (20,%sp),%sp
 3605               	.cfi_def_cfa_offset 60
1489:/home/simulink/cFS_FreeRTOS_seL4/cfe/fsw/cfe-core/src/tbl/cfe_tbl_task_cmds.c ****             CFE_TBL_MAX_FULL_NAME_LEN, sizeof(CmdPtr->TableName));
1490:/home/simulink/cFS_FreeRTOS_seL4/cfe/fsw/cfe-core/src/tbl/cfe_tbl_task_cmds.c **** 
1491:/home/simulink/cFS_FreeRTOS_seL4/cfe/fsw/cfe-core/src/tbl/cfe_tbl_task_cmds.c ****     /* Before doing anything, lets make sure the table registry entry that is to be telemetered exi
1492:/home/simulink/cFS_FreeRTOS_seL4/cfe/fsw/cfe-core/src/tbl/cfe_tbl_task_cmds.c ****     RegIndex = CFE_TBL_FindTableInRegistry(TableName);
 3606               	.loc 1 1492 0
 3607 1f52 200F      	move.l %sp,%d0
 3608 1f54 2F00      	move.l %d0,-(%sp)
 3609               	.cfi_def_cfa_offset 64
 3610 1f56 4EB9 0000 	jsr CFE_TBL_FindTableInRegistry
 3610      0000 
 3611 1f5c 588F      	addq.l #4,%sp
 3612               	.cfi_def_cfa_offset 60
 3613 1f5e 3F40 002E 	move.w %d0,46(%sp)
1493:/home/simulink/cFS_FreeRTOS_seL4/cfe/fsw/cfe-core/src/tbl/cfe_tbl_task_cmds.c **** 
1494:/home/simulink/cFS_FreeRTOS_seL4/cfe/fsw/cfe-core/src/tbl/cfe_tbl_task_cmds.c ****     if (RegIndex != CFE_TBL_NOT_FOUND)
 3614               	.loc 1 1494 0
 3615 1f62 306F 002E 	move.w 46(%sp),%a0
 3616 1f66 72FF      	moveq #-1,%d1
 3617 1f68 B288      	cmp.l %a0,%d1
 3618 1f6a 676E      	jeq .L160
1495:/home/simulink/cFS_FreeRTOS_seL4/cfe/fsw/cfe-core/src/tbl/cfe_tbl_task_cmds.c ****     {
1496:/home/simulink/cFS_FreeRTOS_seL4/cfe/fsw/cfe-core/src/tbl/cfe_tbl_task_cmds.c ****         /* Make a pointer to simplify code look and to remove redundant indexing into registry */
1497:/home/simulink/cFS_FreeRTOS_seL4/cfe/fsw/cfe-core/src/tbl/cfe_tbl_task_cmds.c ****         RegRecPtr = &CFE_TBL_TaskData.Registry[RegIndex];
 3619               	.loc 1 1497 0
 3620 1f6c 302F 002E 	move.w 46(%sp),%d0
68K GAS   			page 103


 3621 1f70 48C0      	ext.l %d0
 3622 1f72 223C 0000 	move.l #336,%d1
 3622      0150 
 3623 1f78 4C01 0800 	muls.l %d1,%d0
 3624 1f7c 0680 0000 	add.l #4972,%d0
 3624      136C 
 3625 1f82 2200      	move.l %d0,%d1
 3626 1f84 0681 0000 	add.l #CFE_TBL_TaskData,%d1
 3626      0000 
 3627 1f8a 2F41 0028 	move.l %d1,40(%sp)
1498:/home/simulink/cFS_FreeRTOS_seL4/cfe/fsw/cfe-core/src/tbl/cfe_tbl_task_cmds.c **** 
1499:/home/simulink/cFS_FreeRTOS_seL4/cfe/fsw/cfe-core/src/tbl/cfe_tbl_task_cmds.c ****         /* Check to make sure a load was in progress before trying to abort it */
1500:/home/simulink/cFS_FreeRTOS_seL4/cfe/fsw/cfe-core/src/tbl/cfe_tbl_task_cmds.c ****         /* NOTE: LoadInProgress contains index of buffer when dumping a dump-only table */
1501:/home/simulink/cFS_FreeRTOS_seL4/cfe/fsw/cfe-core/src/tbl/cfe_tbl_task_cmds.c ****         /* so we must ensure the table is not a dump-only table, otherwise, we would be aborting a 
1502:/home/simulink/cFS_FreeRTOS_seL4/cfe/fsw/cfe-core/src/tbl/cfe_tbl_task_cmds.c ****         if ((RegRecPtr->LoadInProgress != CFE_TBL_NO_LOAD_IN_PROGRESS) && (!RegRecPtr->DumpOnly))
 3628               	.loc 1 1502 0
 3629 1f8e 206F 0028 	move.l 40(%sp),%a0
 3630 1f92 2028 00C8 	move.l 200(%a0),%d0
 3631 1f96 72FF      	moveq #-1,%d1
 3632 1f98 B280      	cmp.l %d0,%d1
 3633 1f9a 6720      	jeq .L161
 3634               	.loc 1 1502 0 is_stmt 0 discriminator 1
 3635 1f9c 206F 0028 	move.l 40(%sp),%a0
 3636 1fa0 1028 00E1 	move.b 225(%a0),%d0
 3637 1fa4 4A00      	tst.b %d0
 3638 1fa6 6614      	jne .L161
1503:/home/simulink/cFS_FreeRTOS_seL4/cfe/fsw/cfe-core/src/tbl/cfe_tbl_task_cmds.c ****         {
1504:/home/simulink/cFS_FreeRTOS_seL4/cfe/fsw/cfe-core/src/tbl/cfe_tbl_task_cmds.c ****             CFE_TBL_AbortLoad(RegRecPtr);
 3639               	.loc 1 1504 0 is_stmt 1
 3640 1fa8 2F2F 0028 	move.l 40(%sp),-(%sp)
 3641               	.cfi_def_cfa_offset 64
 3642 1fac 4EB9 0000 	jsr CFE_TBL_AbortLoad
 3642      0000 
 3643 1fb2 588F      	addq.l #4,%sp
 3644               	.cfi_def_cfa_offset 60
1505:/home/simulink/cFS_FreeRTOS_seL4/cfe/fsw/cfe-core/src/tbl/cfe_tbl_task_cmds.c **** 
1506:/home/simulink/cFS_FreeRTOS_seL4/cfe/fsw/cfe-core/src/tbl/cfe_tbl_task_cmds.c ****             /* Increment Successful Command Counter */
1507:/home/simulink/cFS_FreeRTOS_seL4/cfe/fsw/cfe-core/src/tbl/cfe_tbl_task_cmds.c ****             ReturnCode = CFE_TBL_INC_CMD_CTR;
 3645               	.loc 1 1507 0
 3646 1fb4 7001      	moveq #1,%d0
 3647 1fb6 2F40 0034 	move.l %d0,52(%sp)
 3648 1fba 603A      	jra .L163
 3649               	.L161:
1508:/home/simulink/cFS_FreeRTOS_seL4/cfe/fsw/cfe-core/src/tbl/cfe_tbl_task_cmds.c ****         }
1509:/home/simulink/cFS_FreeRTOS_seL4/cfe/fsw/cfe-core/src/tbl/cfe_tbl_task_cmds.c ****         else
1510:/home/simulink/cFS_FreeRTOS_seL4/cfe/fsw/cfe-core/src/tbl/cfe_tbl_task_cmds.c ****         {
1511:/home/simulink/cFS_FreeRTOS_seL4/cfe/fsw/cfe-core/src/tbl/cfe_tbl_task_cmds.c ****             CFE_EVS_SendEvent(CFE_TBL_LOAD_ABORT_ERR_EID,
 3650               	.loc 1 1511 0
 3651 1fbc 200F      	move.l %sp,%d0
 3652 1fbe 2F00      	move.l %d0,-(%sp)
 3653               	.cfi_def_cfa_offset 64
 3654 1fc0 4879 0000 	pea .LC49
 3654      0000 
 3655               	.cfi_def_cfa_offset 68
 3656 1fc6 4878 0003 	pea 3.w
 3657               	.cfi_def_cfa_offset 72
 3658 1fca 4878 0045 	pea 69.w
68K GAS   			page 104


 3659               	.cfi_def_cfa_offset 76
 3660 1fce 4EB9 0000 	jsr CFE_EVS_SendEvent
 3660      0000 
 3661 1fd4 4FEF 0010 	lea (16,%sp),%sp
 3662               	.cfi_def_cfa_offset 60
 3663 1fd8 601C      	jra .L163
 3664               	.L160:
1512:/home/simulink/cFS_FreeRTOS_seL4/cfe/fsw/cfe-core/src/tbl/cfe_tbl_task_cmds.c ****                               CFE_EVS_ERROR,
1513:/home/simulink/cFS_FreeRTOS_seL4/cfe/fsw/cfe-core/src/tbl/cfe_tbl_task_cmds.c ****                               "Cannot abort load of '%s'. No load started.",
1514:/home/simulink/cFS_FreeRTOS_seL4/cfe/fsw/cfe-core/src/tbl/cfe_tbl_task_cmds.c ****                               TableName);
1515:/home/simulink/cFS_FreeRTOS_seL4/cfe/fsw/cfe-core/src/tbl/cfe_tbl_task_cmds.c ****         }
1516:/home/simulink/cFS_FreeRTOS_seL4/cfe/fsw/cfe-core/src/tbl/cfe_tbl_task_cmds.c ****     }
1517:/home/simulink/cFS_FreeRTOS_seL4/cfe/fsw/cfe-core/src/tbl/cfe_tbl_task_cmds.c ****     else /* Table could not be found in Registry */
1518:/home/simulink/cFS_FreeRTOS_seL4/cfe/fsw/cfe-core/src/tbl/cfe_tbl_task_cmds.c ****     {
1519:/home/simulink/cFS_FreeRTOS_seL4/cfe/fsw/cfe-core/src/tbl/cfe_tbl_task_cmds.c ****         CFE_EVS_SendEvent(CFE_TBL_NO_SUCH_TABLE_ERR_EID,
 3665               	.loc 1 1519 0
 3666 1fda 200F      	move.l %sp,%d0
 3667 1fdc 2F00      	move.l %d0,-(%sp)
 3668               	.cfi_def_cfa_offset 64
 3669 1fde 4879 0000 	pea .LC5
 3669      0000 
 3670               	.cfi_def_cfa_offset 68
 3671 1fe4 4878 0003 	pea 3.w
 3672               	.cfi_def_cfa_offset 72
 3673 1fe8 4878 0039 	pea 57.w
 3674               	.cfi_def_cfa_offset 76
 3675 1fec 4EB9 0000 	jsr CFE_EVS_SendEvent
 3675      0000 
 3676 1ff2 4FEF 0010 	lea (16,%sp),%sp
 3677               	.cfi_def_cfa_offset 60
 3678               	.L163:
1520:/home/simulink/cFS_FreeRTOS_seL4/cfe/fsw/cfe-core/src/tbl/cfe_tbl_task_cmds.c ****                           CFE_EVS_ERROR,
1521:/home/simulink/cFS_FreeRTOS_seL4/cfe/fsw/cfe-core/src/tbl/cfe_tbl_task_cmds.c ****                           "Unable to locate '%s' in Table Registry",
1522:/home/simulink/cFS_FreeRTOS_seL4/cfe/fsw/cfe-core/src/tbl/cfe_tbl_task_cmds.c ****                           TableName);
1523:/home/simulink/cFS_FreeRTOS_seL4/cfe/fsw/cfe-core/src/tbl/cfe_tbl_task_cmds.c ****     }
1524:/home/simulink/cFS_FreeRTOS_seL4/cfe/fsw/cfe-core/src/tbl/cfe_tbl_task_cmds.c **** 
1525:/home/simulink/cFS_FreeRTOS_seL4/cfe/fsw/cfe-core/src/tbl/cfe_tbl_task_cmds.c ****     return ReturnCode;
 3679               	.loc 1 1525 0
 3680 1ff6 202F 0034 	move.l 52(%sp),%d0
1526:/home/simulink/cFS_FreeRTOS_seL4/cfe/fsw/cfe-core/src/tbl/cfe_tbl_task_cmds.c **** 
1527:/home/simulink/cFS_FreeRTOS_seL4/cfe/fsw/cfe-core/src/tbl/cfe_tbl_task_cmds.c **** } /* End of CFE_TBL_AbortLoadCmd() */
 3681               	.loc 1 1527 0
 3682 1ffa 4FEF 0038 	lea (56,%sp),%sp
 3683 1ffe 4E75      	rts
 3684               	.cfi_endproc
 3685               	.LFE72:
 3686               	.sizeCFE_TBL_AbortLoadCmd, .-CFE_TBL_AbortLoadCmd
 3687               	.section.rodata
 3688               	.LC50:
 3689 094c 5461 626C 	.string"Table Load Aborted for '%s'"
 3689      6520 4C6F 
 3689      6164 2041 
 3689      626F 7274 
 3689      6564 2066 
 3690               	.text
 3691               	.align2
 3692               	.globlCFE_TBL_AbortLoad
68K GAS   			page 105


 3693               	.typeCFE_TBL_AbortLoad, @function
 3694               	CFE_TBL_AbortLoad:
 3695               	.LFB73:
1528:/home/simulink/cFS_FreeRTOS_seL4/cfe/fsw/cfe-core/src/tbl/cfe_tbl_task_cmds.c **** 
1529:/home/simulink/cFS_FreeRTOS_seL4/cfe/fsw/cfe-core/src/tbl/cfe_tbl_task_cmds.c **** 
1530:/home/simulink/cFS_FreeRTOS_seL4/cfe/fsw/cfe-core/src/tbl/cfe_tbl_task_cmds.c **** /*******************************************************************
1531:/home/simulink/cFS_FreeRTOS_seL4/cfe/fsw/cfe-core/src/tbl/cfe_tbl_task_cmds.c **** **
1532:/home/simulink/cFS_FreeRTOS_seL4/cfe/fsw/cfe-core/src/tbl/cfe_tbl_task_cmds.c **** ** CFE_TBL_AbortLoad() -- Abort load, free buffers, issue event message
1533:/home/simulink/cFS_FreeRTOS_seL4/cfe/fsw/cfe-core/src/tbl/cfe_tbl_task_cmds.c **** **
1534:/home/simulink/cFS_FreeRTOS_seL4/cfe/fsw/cfe-core/src/tbl/cfe_tbl_task_cmds.c **** ** NOTE: For complete prolog information, see above
1535:/home/simulink/cFS_FreeRTOS_seL4/cfe/fsw/cfe-core/src/tbl/cfe_tbl_task_cmds.c **** ********************************************************************/
1536:/home/simulink/cFS_FreeRTOS_seL4/cfe/fsw/cfe-core/src/tbl/cfe_tbl_task_cmds.c **** 
1537:/home/simulink/cFS_FreeRTOS_seL4/cfe/fsw/cfe-core/src/tbl/cfe_tbl_task_cmds.c **** void CFE_TBL_AbortLoad(CFE_TBL_RegistryRec_t *RegRecPtr)
1538:/home/simulink/cFS_FreeRTOS_seL4/cfe/fsw/cfe-core/src/tbl/cfe_tbl_task_cmds.c **** {
 3696               	.loc 1 1538 0
 3697               	.cfi_startproc
1539:/home/simulink/cFS_FreeRTOS_seL4/cfe/fsw/cfe-core/src/tbl/cfe_tbl_task_cmds.c ****     /* The ground has aborted the load, free the working buffer for another attempt */
1540:/home/simulink/cFS_FreeRTOS_seL4/cfe/fsw/cfe-core/src/tbl/cfe_tbl_task_cmds.c ****     if (!RegRecPtr->DblBuffered)
 3698               	.loc 1 1540 0
 3699 2000 206F 0004 	move.l 4(%sp),%a0
 3700 2004 1028 00E2 	move.b 226(%a0),%d0
 3701 2008 4A00      	tst.b %d0
 3702 200a 661A      	jne .L166
1541:/home/simulink/cFS_FreeRTOS_seL4/cfe/fsw/cfe-core/src/tbl/cfe_tbl_task_cmds.c ****     {
1542:/home/simulink/cFS_FreeRTOS_seL4/cfe/fsw/cfe-core/src/tbl/cfe_tbl_task_cmds.c ****         /* For single buffered tables, freeing shared buffer entails resetting flag */
1543:/home/simulink/cFS_FreeRTOS_seL4/cfe/fsw/cfe-core/src/tbl/cfe_tbl_task_cmds.c ****         CFE_TBL_TaskData.LoadBuffs[RegRecPtr->LoadInProgress].Taken = FALSE;
 3703               	.loc 1 1543 0
 3704 200c 206F 0004 	move.l 4(%sp),%a0
 3705 2010 2028 00C8 	move.l 200(%a0),%d0
 3706 2014 7254      	moveq #84,%d1
 3707 2016 4C01 0800 	muls.l %d1,%d0
 3708 201a 41F9 0000 	lea CFE_TBL_TaskData+556,%a0
 3708      0000 
 3709 2020 4201      	clr.b %d1
 3710 2022 1181 0800 	move.b %d1,(%a0,%d0.l)
 3711               	.L166:
1544:/home/simulink/cFS_FreeRTOS_seL4/cfe/fsw/cfe-core/src/tbl/cfe_tbl_task_cmds.c ****     }
1545:/home/simulink/cFS_FreeRTOS_seL4/cfe/fsw/cfe-core/src/tbl/cfe_tbl_task_cmds.c **** 
1546:/home/simulink/cFS_FreeRTOS_seL4/cfe/fsw/cfe-core/src/tbl/cfe_tbl_task_cmds.c ****     /* For double buffered tables, freeing buffer is simple */
1547:/home/simulink/cFS_FreeRTOS_seL4/cfe/fsw/cfe-core/src/tbl/cfe_tbl_task_cmds.c ****     RegRecPtr->LoadInProgress = CFE_TBL_NO_LOAD_IN_PROGRESS;
 3712               	.loc 1 1547 0
 3713 2026 206F 0004 	move.l 4(%sp),%a0
 3714 202a 70FF      	moveq #-1,%d0
 3715 202c 2140 00C8 	move.l %d0,200(%a0)
1548:/home/simulink/cFS_FreeRTOS_seL4/cfe/fsw/cfe-core/src/tbl/cfe_tbl_task_cmds.c ****     
1549:/home/simulink/cFS_FreeRTOS_seL4/cfe/fsw/cfe-core/src/tbl/cfe_tbl_task_cmds.c ****     /* Make sure the load was not already pending */
1550:/home/simulink/cFS_FreeRTOS_seL4/cfe/fsw/cfe-core/src/tbl/cfe_tbl_task_cmds.c ****     RegRecPtr->LoadPending = FALSE;
 3716               	.loc 1 1550 0
 3717 2030 206F 0004 	move.l 4(%sp),%a0
 3718 2034 4201      	clr.b %d1
 3719 2036 1141 00E0 	move.b %d1,224(%a0)
1551:/home/simulink/cFS_FreeRTOS_seL4/cfe/fsw/cfe-core/src/tbl/cfe_tbl_task_cmds.c **** 
1552:/home/simulink/cFS_FreeRTOS_seL4/cfe/fsw/cfe-core/src/tbl/cfe_tbl_task_cmds.c ****     CFE_EVS_SendEvent(CFE_TBL_LOAD_ABORT_INF_EID,
1553:/home/simulink/cFS_FreeRTOS_seL4/cfe/fsw/cfe-core/src/tbl/cfe_tbl_task_cmds.c ****                       CFE_EVS_INFORMATION,
1554:/home/simulink/cFS_FreeRTOS_seL4/cfe/fsw/cfe-core/src/tbl/cfe_tbl_task_cmds.c ****                       "Table Load Aborted for '%s'",
1555:/home/simulink/cFS_FreeRTOS_seL4/cfe/fsw/cfe-core/src/tbl/cfe_tbl_task_cmds.c ****                       RegRecPtr->Name);
 3720               	.loc 1 1555 0
68K GAS   			page 106


 3721 203a 202F 0004 	move.l 4(%sp),%d0
 3722 203e 0680 0000 	add.l #230,%d0
 3722      00E6 
1552:/home/simulink/cFS_FreeRTOS_seL4/cfe/fsw/cfe-core/src/tbl/cfe_tbl_task_cmds.c ****                       CFE_EVS_INFORMATION,
 3723               	.loc 1 1552 0
 3724 2044 2F00      	move.l %d0,-(%sp)
 3725               	.cfi_def_cfa_offset 8
 3726 2046 4879 0000 	pea .LC50
 3726      0000 
 3727               	.cfi_def_cfa_offset 12
 3728 204c 4878 0002 	pea 2.w
 3729               	.cfi_def_cfa_offset 16
 3730 2050 4878 0015 	pea 21.w
 3731               	.cfi_def_cfa_offset 20
 3732 2054 4EB9 0000 	jsr CFE_EVS_SendEvent
 3732      0000 
 3733 205a 4FEF 0010 	lea (16,%sp),%sp
 3734               	.cfi_def_cfa_offset 4
1556:/home/simulink/cFS_FreeRTOS_seL4/cfe/fsw/cfe-core/src/tbl/cfe_tbl_task_cmds.c **** }
 3735               	.loc 1 1556 0
 3736 205e 4E71      	nop
 3737 2060 4E75      	rts
 3738               	.cfi_endproc
 3739               	.LFE73:
 3740               	.sizeCFE_TBL_AbortLoad, .-CFE_TBL_AbortLoad
 3741               	.Letext0:
 3742               	.file 2 "/home/simulink/cFS_FreeRTOS_seL4/osal/src/os/inc/common_types.h"
 3743               	.file 3 "/home/simulink/cFS_FreeRTOS_seL4/cfe/fsw/cfe-core/src/inc/cfe_time.h"
 3744               	.file 4 "/home/simulink/development/rtems/5/m68k-rtems5/include/machine/_default_types.h"
 3745               	.file 5 "/home/simulink/development/rtems/5/m68k-rtems5/include/machine/_types.h"
 3746               	.file 6 "/home/simulink/development/rtems/5/m68k-rtems5/include/sys/lock.h"
 3747               	.file 7 "/home/simulink/development/rtems/5/m68k-rtems5/include/sys/_types.h"
 3748               	.file 8 "/home/simulink/development/rtems/5/lib/gcc/m68k-rtems5/7.3.0/include/stddef.h"
 3749               	.file 9 "/home/simulink/development/rtems/5/m68k-rtems5/include/sys/reent.h"
 3750               	.file 10 "/home/simulink/development/rtems/5/m68k-rtems5/include/stdlib.h"
 3751               	.file 11 "/home/simulink/development/rtems/5/m68k-rtems5/include/time.h"
 3752               	.file 12 "/home/simulink/cFS_FreeRTOS_seL4/cfe/fsw/cfe-core/src/inc/ccsds.h"
 3753               	.file 13 "/home/simulink/cFS_FreeRTOS_seL4/cfe/fsw/cfe-core/src/inc/cfe_sb.h"
 3754               	.file 14 "/home/simulink/cFS_FreeRTOS_seL4/cfe/fsw/cfe-core/src/inc/cfe_es.h"
 3755               	.file 15 "/home/simulink/cFS_FreeRTOS_seL4/cfe/fsw/cfe-core/src/inc/cfe_fs.h"
 3756               	.file 16 "/home/simulink/cFS_FreeRTOS_seL4/cfe/fsw/cfe-core/src/inc/cfe_tbl.h"
 3757               	.file 17 "/home/simulink/cFS_FreeRTOS_seL4/cfe/fsw/cfe-core/src/inc/cfe_tbl_msg.h"
 3758               	.file 18 "/home/simulink/cFS_FreeRTOS_seL4/cfe/fsw/cfe-core/src/tbl/cfe_tbl_task.h"
 3759               	.file 19 "/home/simulink/cFS_FreeRTOS_seL4/cfe/fsw/cfe-core/src/inc/cfe_tbl_filedef.h"
 3760               	.file 20 "/home/simulink/cFS_FreeRTOS_seL4/cfe/fsw/cfe-core/src/tbl/cfe_tbl_internal.h"
 3761               	.file 21 "/home/simulink/cFS_FreeRTOS_seL4/cfe/fsw/cfe-core/src/tbl/cfe_tbl_task_cmds.h"
 3762               	.section.debug_info,"",@progbits
 3763               	.Ldebug_info0:
 3764 0000 0000 1EC6 	.long0x1ec6
 3765 0004 0004      	.word0x4
 3766 0006 0000 0000 	.long.Ldebug_abbrev0
 3767 000a 04        	.byte0x4
 3768 000b 01        	.uleb128 0x1
 3769 000c 0000 0000 	.long.LASF356
 3770 0010 0C        	.byte0xc
 3771 0011 0000 0000 	.long.LASF357
 3772 0015 0000 0000 	.long.LASF358
68K GAS   			page 107


 3773 0019 0000 0000 	.long.Ltext0
 3774 001d 0000 2062 	.long.Letext0-.Ltext0
 3775 0021 0000 0000 	.long.Ldebug_line0
 3776 0025 02        	.uleb128 0x2
 3777 0026 0000 0000 	.long.LASF2
 3778 002a 02        	.byte0x2
 3779 002b E6        	.byte0xe6
 3780 002c 0000 0030 	.long0x30
 3781 0030 03        	.uleb128 0x3
 3782 0031 01        	.byte0x1
 3783 0032 08        	.byte0x8
 3784 0033 0000 0000 	.long.LASF0
 3785 0037 03        	.uleb128 0x3
 3786 0038 01        	.byte0x1
 3787 0039 06        	.byte0x6
 3788 003a 0000 0000 	.long.LASF1
 3789 003e 02        	.uleb128 0x2
 3790 003f 0000 0000 	.long.LASF3
 3791 0043 02        	.byte0x2
 3792 0044 E8        	.byte0xe8
 3793 0045 0000 0049 	.long0x49
 3794 0049 03        	.uleb128 0x3
 3795 004a 02        	.byte0x2
 3796 004b 05        	.byte0x5
 3797 004c 0000 0000 	.long.LASF4
 3798 0050 02        	.uleb128 0x2
 3799 0051 0000 0000 	.long.LASF5
 3800 0055 02        	.byte0x2
 3801 0056 E9        	.byte0xe9
 3802 0057 0000 005B 	.long0x5b
 3803 005b 03        	.uleb128 0x3
 3804 005c 04        	.byte0x4
 3805 005d 05        	.byte0x5
 3806 005e 0000 0000 	.long.LASF6
 3807 0062 03        	.uleb128 0x3
 3808 0063 08        	.byte0x8
 3809 0064 05        	.byte0x5
 3810 0065 0000 0000 	.long.LASF7
 3811 0069 02        	.uleb128 0x2
 3812 006a 0000 0000 	.long.LASF8
 3813 006e 02        	.byte0x2
 3814 006f EB        	.byte0xeb
 3815 0070 0000 0030 	.long0x30
 3816 0074 02        	.uleb128 0x2
 3817 0075 0000 0000 	.long.LASF9
 3818 0079 02        	.byte0x2
 3819 007a EC        	.byte0xec
 3820 007b 0000 007F 	.long0x7f
 3821 007f 03        	.uleb128 0x3
 3822 0080 02        	.byte0x2
 3823 0081 07        	.byte0x7
 3824 0082 0000 0000 	.long.LASF10
 3825 0086 02        	.uleb128 0x2
 3826 0087 0000 0000 	.long.LASF11
 3827 008b 02        	.byte0x2
 3828 008c ED        	.byte0xed
 3829 008d 0000 0091 	.long0x91
68K GAS   			page 108


 3830 0091 03        	.uleb128 0x3
 3831 0092 04        	.byte0x4
 3832 0093 07        	.byte0x7
 3833 0094 0000 0000 	.long.LASF12
 3834 0098 03        	.uleb128 0x3
 3835 0099 08        	.byte0x8
 3836 009a 07        	.byte0x7
 3837 009b 0000 0000 	.long.LASF13
 3838 009f 02        	.uleb128 0x2
 3839 00a0 0000 0000 	.long.LASF14
 3840 00a4 02        	.byte0x2
 3841 00a5 F0        	.byte0xf0
 3842 00a6 0000 0091 	.long0x91
 3843 00aa 04        	.uleb128 0x4
 3844 00ab 0000 0000 	.long.LASF15
 3845 00af 02        	.byte0x2
 3846 00b0 0131      	.word0x131
 3847 00b2 0000 0025 	.long0x25
 3848 00b6 03        	.uleb128 0x3
 3849 00b7 01        	.byte0x1
 3850 00b8 06        	.byte0x6
 3851 00b9 0000 0000 	.long.LASF16
 3852 00bd 05        	.uleb128 0x5
 3853 00be 0000 00B6 	.long0xb6
 3854 00c2 06        	.uleb128 0x6
 3855 00c3 08        	.byte0x8
 3856 00c4 03        	.byte0x3
 3857 00c5 4D        	.byte0x4d
 3858 00c6 0000 00E3 	.long0xe3
 3859 00ca 07        	.uleb128 0x7
 3860 00cb 0000 0000 	.long.LASF17
 3861 00cf 03        	.byte0x3
 3862 00d0 4F        	.byte0x4f
 3863 00d1 0000 0086 	.long0x86
 3864 00d5 00        	.byte0
 3865 00d6 07        	.uleb128 0x7
 3866 00d7 0000 0000 	.long.LASF18
 3867 00db 03        	.byte0x3
 3868 00dc 50        	.byte0x50
 3869 00dd 0000 0086 	.long0x86
 3870 00e1 04        	.byte0x4
 3871 00e2 00        	.byte0
 3872 00e3 02        	.uleb128 0x2
 3873 00e4 0000 0000 	.long.LASF19
 3874 00e8 03        	.byte0x3
 3875 00e9 51        	.byte0x51
 3876 00ea 0000 00C2 	.long0xc2
 3877 00ee 08        	.uleb128 0x8
 3878 00ef 04        	.byte0x4
 3879 00f0 05        	.byte0x5
 3880 00f1 696E 7400 	.string"int"
 3881 00f5 09        	.uleb128 0x9
 3882 00f6 0000 00B6 	.long0xb6
 3883 00fa 0000 0105 	.long0x105
 3884 00fe 0A        	.uleb128 0xa
 3885 00ff 0000 0091 	.long0x91
 3886 0103 13        	.byte0x13
68K GAS   			page 109


 3887 0104 00        	.byte0
 3888 0105 0B        	.uleb128 0xb
 3889 0106 04        	.byte0x4
 3890 0107 02        	.uleb128 0x2
 3891 0108 0000 0000 	.long.LASF20
 3892 010c 04        	.byte0x4
 3893 010d 67        	.byte0x67
 3894 010e 0000 0062 	.long0x62
 3895 0112 03        	.uleb128 0x3
 3896 0113 08        	.byte0x8
 3897 0114 04        	.byte0x4
 3898 0115 0000 0000 	.long.LASF21
 3899 0119 02        	.uleb128 0x2
 3900 011a 0000 0000 	.long.LASF22
 3901 011e 05        	.byte0x5
 3902 011f 10        	.byte0x10
 3903 0120 0000 0107 	.long0x107
 3904 0124 02        	.uleb128 0x2
 3905 0125 0000 0000 	.long.LASF23
 3906 0129 05        	.byte0x5
 3907 012a 16        	.byte0x16
 3908 012b 0000 0119 	.long0x119
 3909 012f 0C        	.uleb128 0xc
 3910 0130 0000 0000 	.long.LASF27
 3911 0134 08        	.byte0x8
 3912 0135 06        	.byte0x6
 3913 0136 28        	.byte0x28
 3914 0137 0000 0154 	.long0x154
 3915 013b 07        	.uleb128 0x7
 3916 013c 0000 0000 	.long.LASF24
 3917 0140 06        	.byte0x6
 3918 0141 29        	.byte0x29
 3919 0142 0000 0154 	.long0x154
 3920 0146 00        	.byte0
 3921 0147 07        	.uleb128 0x7
 3922 0148 0000 0000 	.long.LASF25
 3923 014c 06        	.byte0x6
 3924 014d 2A        	.byte0x2a
 3925 014e 0000 0154 	.long0x154
 3926 0152 04        	.byte0x4
 3927 0153 00        	.byte0
 3928 0154 03        	.uleb128 0x3
 3929 0155 04        	.byte0x4
 3930 0156 07        	.byte0x7
 3931 0157 0000 0000 	.long.LASF26
 3932 015b 0C        	.uleb128 0xc
 3933 015c 0000 0000 	.long.LASF28
 3934 0160 14        	.byte0x14
 3935 0161 06        	.byte0x6
 3936 0162 2D        	.byte0x2d
 3937 0163 0000 0198 	.long0x198
 3938 0167 07        	.uleb128 0x7
 3939 0168 0000 0000 	.long.LASF29
 3940 016c 06        	.byte0x6
 3941 016d 2E        	.byte0x2e
 3942 016e 0000 012F 	.long0x12f
 3943 0172 00        	.byte0
68K GAS   			page 110


 3944 0173 07        	.uleb128 0x7
 3945 0174 0000 0000 	.long.LASF30
 3946 0178 06        	.byte0x6
 3947 0179 2F        	.byte0x2f
 3948 017a 0000 019D 	.long0x19d
 3949 017e 08        	.byte0x8
 3950 017f 07        	.uleb128 0x7
 3951 0180 0000 0000 	.long.LASF31
 3952 0184 06        	.byte0x6
 3953 0185 30        	.byte0x30
 3954 0186 0000 01A8 	.long0x1a8
 3955 018a 0C        	.byte0xc
 3956 018b 07        	.uleb128 0x7
 3957 018c 0000 0000 	.long.LASF32
 3958 0190 06        	.byte0x6
 3959 0191 31        	.byte0x31
 3960 0192 0000 01AE 	.long0x1ae
 3961 0196 10        	.byte0x10
 3962 0197 00        	.byte0
 3963 0198 0D        	.uleb128 0xd
 3964 0199 0000 0000 	.long.LASF33
 3965 019d 0E        	.uleb128 0xe
 3966 019e 04        	.byte0x4
 3967 019f 0000 0198 	.long0x198
 3968 01a3 0D        	.uleb128 0xd
 3969 01a4 0000 0000 	.long.LASF34
 3970 01a8 0E        	.uleb128 0xe
 3971 01a9 04        	.byte0x4
 3972 01aa 0000 01A3 	.long0x1a3
 3973 01ae 0E        	.uleb128 0xe
 3974 01af 04        	.byte0x4
 3975 01b0 0000 00BD 	.long0xbd
 3976 01b4 0C        	.uleb128 0xc
 3977 01b5 0000 0000 	.long.LASF35
 3978 01b9 14        	.byte0x14
 3979 01ba 06        	.byte0x6
 3980 01bb 34        	.byte0x34
 3981 01bc 0000 01CD 	.long0x1cd
 3982 01c0 07        	.uleb128 0x7
 3983 01c1 0000 0000 	.long.LASF36
 3984 01c5 06        	.byte0x6
 3985 01c6 35        	.byte0x35
 3986 01c7 0000 015B 	.long0x15b
 3987 01cb 00        	.byte0
 3988 01cc 00        	.byte0
 3989 01cd 0C        	.uleb128 0xc
 3990 01ce 0000 0000 	.long.LASF37
 3991 01d2 18        	.byte0x18
 3992 01d3 06        	.byte0x6
 3993 01d4 38        	.byte0x38
 3994 01d5 0000 01F2 	.long0x1f2
 3995 01d9 07        	.uleb128 0x7
 3996 01da 0000 0000 	.long.LASF38
 3997 01de 06        	.byte0x6
 3998 01df 39        	.byte0x39
 3999 01e0 0000 01B4 	.long0x1b4
 4000 01e4 00        	.byte0
68K GAS   			page 111


 4001 01e5 07        	.uleb128 0x7
 4002 01e6 0000 0000 	.long.LASF39
 4003 01ea 06        	.byte0x6
 4004 01eb 3A        	.byte0x3a
 4005 01ec 0000 0154 	.long0x154
 4006 01f0 14        	.byte0x14
 4007 01f1 00        	.byte0
 4008 01f2 04        	.uleb128 0x4
 4009 01f3 0000 0000 	.long.LASF40
 4010 01f7 06        	.byte0x6
 4011 01f8 0171      	.word0x171
 4012 01fa 0000 01CD 	.long0x1cd
 4013 01fe 02        	.uleb128 0x2
 4014 01ff 0000 0000 	.long.LASF41
 4015 0203 07        	.byte0x7
 4016 0204 91        	.byte0x91
 4017 0205 0000 005B 	.long0x5b
 4018 0209 04        	.uleb128 0x4
 4019 020a 0000 0000 	.long.LASF42
 4020 020e 08        	.byte0x8
 4021 020f 0165      	.word0x165
 4022 0211 0000 0154 	.long0x154
 4023 0215 0F        	.uleb128 0xf
 4024 0216 04        	.byte0x4
 4025 0217 07        	.byte0x7
 4026 0218 A6        	.byte0xa6
 4027 0219 0000 0234 	.long0x234
 4028 021d 10        	.uleb128 0x10
 4029 021e 0000 0000 	.long.LASF43
 4030 0222 07        	.byte0x7
 4031 0223 A8        	.byte0xa8
 4032 0224 0000 0209 	.long0x209
 4033 0228 10        	.uleb128 0x10
 4034 0229 0000 0000 	.long.LASF44
 4035 022d 07        	.byte0x7
 4036 022e A9        	.byte0xa9
 4037 022f 0000 0234 	.long0x234
 4038 0233 00        	.byte0
 4039 0234 09        	.uleb128 0x9
 4040 0235 0000 0030 	.long0x30
 4041 0239 0000 0244 	.long0x244
 4042 023d 0A        	.uleb128 0xa
 4043 023e 0000 0091 	.long0x91
 4044 0242 03        	.byte0x3
 4045 0243 00        	.byte0
 4046 0244 06        	.uleb128 0x6
 4047 0245 08        	.byte0x8
 4048 0246 07        	.byte0x7
 4049 0247 A3        	.byte0xa3
 4050 0248 0000 0265 	.long0x265
 4051 024c 07        	.uleb128 0x7
 4052 024d 0000 0000 	.long.LASF45
 4053 0251 07        	.byte0x7
 4054 0252 A5        	.byte0xa5
 4055 0253 0000 00EE 	.long0xee
 4056 0257 00        	.byte0
 4057 0258 07        	.uleb128 0x7
68K GAS   			page 112


 4058 0259 0000 0000 	.long.LASF46
 4059 025d 07        	.byte0x7
 4060 025e AA        	.byte0xaa
 4061 025f 0000 0215 	.long0x215
 4062 0263 04        	.byte0x4
 4063 0264 00        	.byte0
 4064 0265 02        	.uleb128 0x2
 4065 0266 0000 0000 	.long.LASF47
 4066 026a 07        	.byte0x7
 4067 026b AB        	.byte0xab
 4068 026c 0000 0244 	.long0x244
 4069 0270 02        	.uleb128 0x2
 4070 0271 0000 0000 	.long.LASF48
 4071 0275 07        	.byte0x7
 4072 0276 AF        	.byte0xaf
 4073 0277 0000 01F2 	.long0x1f2
 4074 027b 02        	.uleb128 0x2
 4075 027c 0000 0000 	.long.LASF49
 4076 0280 09        	.byte0x9
 4077 0281 16        	.byte0x16
 4078 0282 0000 0091 	.long0x91
 4079 0286 0C        	.uleb128 0xc
 4080 0287 0000 0000 	.long.LASF50
 4081 028b 18        	.byte0x18
 4082 028c 09        	.byte0x9
 4083 028d 2F        	.byte0x2f
 4084 028e 0000 02D9 	.long0x2d9
 4085 0292 07        	.uleb128 0x7
 4086 0293 0000 0000 	.long.LASF51
 4087 0297 09        	.byte0x9
 4088 0298 31        	.byte0x31
 4089 0299 0000 02D9 	.long0x2d9
 4090 029d 00        	.byte0
 4091 029e 11        	.uleb128 0x11
 4092 029f 5F6B 00   	.string"_k"
 4093 02a2 09        	.byte0x9
 4094 02a3 32        	.byte0x32
 4095 02a4 0000 00EE 	.long0xee
 4096 02a8 04        	.byte0x4
 4097 02a9 07        	.uleb128 0x7
 4098 02aa 0000 0000 	.long.LASF52
 4099 02ae 09        	.byte0x9
 4100 02af 32        	.byte0x32
 4101 02b0 0000 00EE 	.long0xee
 4102 02b4 08        	.byte0x8
 4103 02b5 07        	.uleb128 0x7
 4104 02b6 0000 0000 	.long.LASF53
 4105 02ba 09        	.byte0x9
 4106 02bb 32        	.byte0x32
 4107 02bc 0000 00EE 	.long0xee
 4108 02c0 0C        	.byte0xc
 4109 02c1 07        	.uleb128 0x7
 4110 02c2 0000 0000 	.long.LASF54
 4111 02c6 09        	.byte0x9
 4112 02c7 32        	.byte0x32
 4113 02c8 0000 00EE 	.long0xee
 4114 02cc 10        	.byte0x10
68K GAS   			page 113


 4115 02cd 11        	.uleb128 0x11
 4116 02ce 5F78 00   	.string"_x"
 4117 02d1 09        	.byte0x9
 4118 02d2 33        	.byte0x33
 4119 02d3 0000 02DF 	.long0x2df
 4120 02d7 14        	.byte0x14
 4121 02d8 00        	.byte0
 4122 02d9 0E        	.uleb128 0xe
 4123 02da 04        	.byte0x4
 4124 02db 0000 0286 	.long0x286
 4125 02df 09        	.uleb128 0x9
 4126 02e0 0000 027B 	.long0x27b
 4127 02e4 0000 02EF 	.long0x2ef
 4128 02e8 0A        	.uleb128 0xa
 4129 02e9 0000 0091 	.long0x91
 4130 02ed 00        	.byte0
 4131 02ee 00        	.byte0
 4132 02ef 0C        	.uleb128 0xc
 4133 02f0 0000 0000 	.long.LASF55
 4134 02f4 24        	.byte0x24
 4135 02f5 09        	.byte0x9
 4136 02f6 37        	.byte0x37
 4137 02f7 0000 0368 	.long0x368
 4138 02fb 07        	.uleb128 0x7
 4139 02fc 0000 0000 	.long.LASF56
 4140 0300 09        	.byte0x9
 4141 0301 39        	.byte0x39
 4142 0302 0000 00EE 	.long0xee
 4143 0306 00        	.byte0
 4144 0307 07        	.uleb128 0x7
 4145 0308 0000 0000 	.long.LASF57
 4146 030c 09        	.byte0x9
 4147 030d 3A        	.byte0x3a
 4148 030e 0000 00EE 	.long0xee
 4149 0312 04        	.byte0x4
 4150 0313 07        	.uleb128 0x7
 4151 0314 0000 0000 	.long.LASF58
 4152 0318 09        	.byte0x9
 4153 0319 3B        	.byte0x3b
 4154 031a 0000 00EE 	.long0xee
 4155 031e 08        	.byte0x8
 4156 031f 07        	.uleb128 0x7
 4157 0320 0000 0000 	.long.LASF59
 4158 0324 09        	.byte0x9
 4159 0325 3C        	.byte0x3c
 4160 0326 0000 00EE 	.long0xee
 4161 032a 0C        	.byte0xc
 4162 032b 07        	.uleb128 0x7
 4163 032c 0000 0000 	.long.LASF60
 4164 0330 09        	.byte0x9
 4165 0331 3D        	.byte0x3d
 4166 0332 0000 00EE 	.long0xee
 4167 0336 10        	.byte0x10
 4168 0337 07        	.uleb128 0x7
 4169 0338 0000 0000 	.long.LASF61
 4170 033c 09        	.byte0x9
 4171 033d 3E        	.byte0x3e
68K GAS   			page 114


 4172 033e 0000 00EE 	.long0xee
 4173 0342 14        	.byte0x14
 4174 0343 07        	.uleb128 0x7
 4175 0344 0000 0000 	.long.LASF62
 4176 0348 09        	.byte0x9
 4177 0349 3F        	.byte0x3f
 4178 034a 0000 00EE 	.long0xee
 4179 034e 18        	.byte0x18
 4180 034f 07        	.uleb128 0x7
 4181 0350 0000 0000 	.long.LASF63
 4182 0354 09        	.byte0x9
 4183 0355 40        	.byte0x40
 4184 0356 0000 00EE 	.long0xee
 4185 035a 1C        	.byte0x1c
 4186 035b 07        	.uleb128 0x7
 4187 035c 0000 0000 	.long.LASF64
 4188 0360 09        	.byte0x9
 4189 0361 41        	.byte0x41
 4190 0362 0000 00EE 	.long0xee
 4191 0366 20        	.byte0x20
 4192 0367 00        	.byte0
 4193 0368 12        	.uleb128 0x12
 4194 0369 0000 0000 	.long.LASF65
 4195 036d 0108      	.word0x108
 4196 036f 09        	.byte0x9
 4197 0370 4A        	.byte0x4a
 4198 0371 0000 03A8 	.long0x3a8
 4199 0375 07        	.uleb128 0x7
 4200 0376 0000 0000 	.long.LASF66
 4201 037a 09        	.byte0x9
 4202 037b 4B        	.byte0x4b
 4203 037c 0000 03A8 	.long0x3a8
 4204 0380 00        	.byte0
 4205 0381 07        	.uleb128 0x7
 4206 0382 0000 0000 	.long.LASF67
 4207 0386 09        	.byte0x9
 4208 0387 4C        	.byte0x4c
 4209 0388 0000 03A8 	.long0x3a8
 4210 038c 80        	.byte0x80
 4211 038d 13        	.uleb128 0x13
 4212 038e 0000 0000 	.long.LASF68
 4213 0392 09        	.byte0x9
 4214 0393 4E        	.byte0x4e
 4215 0394 0000 027B 	.long0x27b
 4216 0398 0100      	.word0x100
 4217 039a 13        	.uleb128 0x13
 4218 039b 0000 0000 	.long.LASF69
 4219 039f 09        	.byte0x9
 4220 03a0 51        	.byte0x51
 4221 03a1 0000 027B 	.long0x27b
 4222 03a5 0104      	.word0x104
 4223 03a7 00        	.byte0
 4224 03a8 09        	.uleb128 0x9
 4225 03a9 0000 0105 	.long0x105
 4226 03ad 0000 03B8 	.long0x3b8
 4227 03b1 0A        	.uleb128 0xa
 4228 03b2 0000 0091 	.long0x91
68K GAS   			page 115


 4229 03b6 1F        	.byte0x1f
 4230 03b7 00        	.byte0
 4231 03b8 12        	.uleb128 0x12
 4232 03b9 0000 0000 	.long.LASF70
 4233 03bd 0190      	.word0x190
 4234 03bf 09        	.byte0x9
 4235 03c0 5D        	.byte0x5d
 4236 03c1 0000 03F6 	.long0x3f6
 4237 03c5 07        	.uleb128 0x7
 4238 03c6 0000 0000 	.long.LASF51
 4239 03ca 09        	.byte0x9
 4240 03cb 5E        	.byte0x5e
 4241 03cc 0000 03F6 	.long0x3f6
 4242 03d0 00        	.byte0
 4243 03d1 07        	.uleb128 0x7
 4244 03d2 0000 0000 	.long.LASF71
 4245 03d6 09        	.byte0x9
 4246 03d7 5F        	.byte0x5f
 4247 03d8 0000 00EE 	.long0xee
 4248 03dc 04        	.byte0x4
 4249 03dd 07        	.uleb128 0x7
 4250 03de 0000 0000 	.long.LASF72
 4251 03e2 09        	.byte0x9
 4252 03e3 61        	.byte0x61
 4253 03e4 0000 03FC 	.long0x3fc
 4254 03e8 08        	.byte0x8
 4255 03e9 07        	.uleb128 0x7
 4256 03ea 0000 0000 	.long.LASF65
 4257 03ee 09        	.byte0x9
 4258 03ef 62        	.byte0x62
 4259 03f0 0000 0368 	.long0x368
 4260 03f4 88        	.byte0x88
 4261 03f5 00        	.byte0
 4262 03f6 0E        	.uleb128 0xe
 4263 03f7 04        	.byte0x4
 4264 03f8 0000 03B8 	.long0x3b8
 4265 03fc 09        	.uleb128 0x9
 4266 03fd 0000 040C 	.long0x40c
 4267 0401 0000 040C 	.long0x40c
 4268 0405 0A        	.uleb128 0xa
 4269 0406 0000 0091 	.long0x91
 4270 040a 1F        	.byte0x1f
 4271 040b 00        	.byte0
 4272 040c 0E        	.uleb128 0xe
 4273 040d 04        	.byte0x4
 4274 040e 0000 0412 	.long0x412
 4275 0412 14        	.uleb128 0x14
 4276 0413 0C        	.uleb128 0xc
 4277 0414 0000 0000 	.long.LASF73
 4278 0418 08        	.byte0x8
 4279 0419 09        	.byte0x9
 4280 041a 75        	.byte0x75
 4281 041b 0000 0438 	.long0x438
 4282 041f 07        	.uleb128 0x7
 4283 0420 0000 0000 	.long.LASF74
 4284 0424 09        	.byte0x9
 4285 0425 76        	.byte0x76
68K GAS   			page 116


 4286 0426 0000 0438 	.long0x438
 4287 042a 00        	.byte0
 4288 042b 07        	.uleb128 0x7
 4289 042c 0000 0000 	.long.LASF75
 4290 0430 09        	.byte0x9
 4291 0431 77        	.byte0x77
 4292 0432 0000 00EE 	.long0xee
 4293 0436 04        	.byte0x4
 4294 0437 00        	.byte0
 4295 0438 0E        	.uleb128 0xe
 4296 0439 04        	.byte0x4
 4297 043a 0000 0030 	.long0x30
 4298 043e 0C        	.uleb128 0xc
 4299 043f 0000 0000 	.long.LASF76
 4300 0443 80        	.byte0x80
 4301 0444 09        	.byte0x9
 4302 0445 B5        	.byte0xb5
 4303 0446 0000 0568 	.long0x568
 4304 044a 11        	.uleb128 0x11
 4305 044b 5F70 00   	.string"_p"
 4306 044e 09        	.byte0x9
 4307 044f B6        	.byte0xb6
 4308 0450 0000 0438 	.long0x438
 4309 0454 00        	.byte0
 4310 0455 11        	.uleb128 0x11
 4311 0456 5F72 00   	.string"_r"
 4312 0459 09        	.byte0x9
 4313 045a B7        	.byte0xb7
 4314 045b 0000 00EE 	.long0xee
 4315 045f 04        	.byte0x4
 4316 0460 11        	.uleb128 0x11
 4317 0461 5F77 00   	.string"_w"
 4318 0464 09        	.byte0x9
 4319 0465 B8        	.byte0xb8
 4320 0466 0000 00EE 	.long0xee
 4321 046a 08        	.byte0x8
 4322 046b 07        	.uleb128 0x7
 4323 046c 0000 0000 	.long.LASF77
 4324 0470 09        	.byte0x9
 4325 0471 B9        	.byte0xb9
 4326 0472 0000 0049 	.long0x49
 4327 0476 0C        	.byte0xc
 4328 0477 07        	.uleb128 0x7
 4329 0478 0000 0000 	.long.LASF78
 4330 047c 09        	.byte0x9
 4331 047d BA        	.byte0xba
 4332 047e 0000 0049 	.long0x49
 4333 0482 0E        	.byte0xe
 4334 0483 11        	.uleb128 0x11
 4335 0484 5F62 6600 	.string"_bf"
 4336 0488 09        	.byte0x9
 4337 0489 BB        	.byte0xbb
 4338 048a 0000 0413 	.long0x413
 4339 048e 10        	.byte0x10
 4340 048f 07        	.uleb128 0x7
 4341 0490 0000 0000 	.long.LASF79
 4342 0494 09        	.byte0x9
68K GAS   			page 117


 4343 0495 BC        	.byte0xbc
 4344 0496 0000 00EE 	.long0xee
 4345 049a 18        	.byte0x18
 4346 049b 07        	.uleb128 0x7
 4347 049c 0000 0000 	.long.LASF80
 4348 04a0 09        	.byte0x9
 4349 04a1 C3        	.byte0xc3
 4350 04a2 0000 0105 	.long0x105
 4351 04a6 1C        	.byte0x1c
 4352 04a7 07        	.uleb128 0x7
 4353 04a8 0000 0000 	.long.LASF81
 4354 04ac 09        	.byte0x9
 4355 04ad C5        	.byte0xc5
 4356 04ae 0000 069F 	.long0x69f
 4357 04b2 20        	.byte0x20
 4358 04b3 07        	.uleb128 0x7
 4359 04b4 0000 0000 	.long.LASF82
 4360 04b8 09        	.byte0x9
 4361 04b9 C7        	.byte0xc7
 4362 04ba 0000 06C3 	.long0x6c3
 4363 04be 24        	.byte0x24
 4364 04bf 07        	.uleb128 0x7
 4365 04c0 0000 0000 	.long.LASF83
 4366 04c4 09        	.byte0x9
 4367 04c5 CA        	.byte0xca
 4368 04c6 0000 06E7 	.long0x6e7
 4369 04ca 28        	.byte0x28
 4370 04cb 07        	.uleb128 0x7
 4371 04cc 0000 0000 	.long.LASF84
 4372 04d0 09        	.byte0x9
 4373 04d1 CB        	.byte0xcb
 4374 04d2 0000 0701 	.long0x701
 4375 04d6 2C        	.byte0x2c
 4376 04d7 11        	.uleb128 0x11
 4377 04d8 5F75 6200 	.string"_ub"
 4378 04dc 09        	.byte0x9
 4379 04dd CE        	.byte0xce
 4380 04de 0000 0413 	.long0x413
 4381 04e2 30        	.byte0x30
 4382 04e3 11        	.uleb128 0x11
 4383 04e4 5F75 7000 	.string"_up"
 4384 04e8 09        	.byte0x9
 4385 04e9 CF        	.byte0xcf
 4386 04ea 0000 0438 	.long0x438
 4387 04ee 38        	.byte0x38
 4388 04ef 11        	.uleb128 0x11
 4389 04f0 5F75 7200 	.string"_ur"
 4390 04f4 09        	.byte0x9
 4391 04f5 D0        	.byte0xd0
 4392 04f6 0000 00EE 	.long0xee
 4393 04fa 3C        	.byte0x3c
 4394 04fb 07        	.uleb128 0x7
 4395 04fc 0000 0000 	.long.LASF85
 4396 0500 09        	.byte0x9
 4397 0501 D3        	.byte0xd3
 4398 0502 0000 0707 	.long0x707
 4399 0506 40        	.byte0x40
68K GAS   			page 118


 4400 0507 07        	.uleb128 0x7
 4401 0508 0000 0000 	.long.LASF86
 4402 050c 09        	.byte0x9
 4403 050d D4        	.byte0xd4
 4404 050e 0000 0717 	.long0x717
 4405 0512 43        	.byte0x43
 4406 0513 11        	.uleb128 0x11
 4407 0514 5F6C 6200 	.string"_lb"
 4408 0518 09        	.byte0x9
 4409 0519 D7        	.byte0xd7
 4410 051a 0000 0413 	.long0x413
 4411 051e 44        	.byte0x44
 4412 051f 07        	.uleb128 0x7
 4413 0520 0000 0000 	.long.LASF87
 4414 0524 09        	.byte0x9
 4415 0525 DA        	.byte0xda
 4416 0526 0000 00EE 	.long0xee
 4417 052a 4C        	.byte0x4c
 4418 052b 07        	.uleb128 0x7
 4419 052c 0000 0000 	.long.LASF88
 4420 0530 09        	.byte0x9
 4421 0531 DB        	.byte0xdb
 4422 0532 0000 0119 	.long0x119
 4423 0536 50        	.byte0x50
 4424 0537 07        	.uleb128 0x7
 4425 0538 0000 0000 	.long.LASF89
 4426 053c 09        	.byte0x9
 4427 053d DE        	.byte0xde
 4428 053e 0000 0586 	.long0x586
 4429 0542 58        	.byte0x58
 4430 0543 07        	.uleb128 0x7
 4431 0544 0000 0000 	.long.LASF90
 4432 0548 09        	.byte0x9
 4433 0549 E2        	.byte0xe2
 4434 054a 0000 0270 	.long0x270
 4435 054e 5C        	.byte0x5c
 4436 054f 07        	.uleb128 0x7
 4437 0550 0000 0000 	.long.LASF91
 4438 0554 09        	.byte0x9
 4439 0555 E4        	.byte0xe4
 4440 0556 0000 0265 	.long0x265
 4441 055a 74        	.byte0x74
 4442 055b 07        	.uleb128 0x7
 4443 055c 0000 0000 	.long.LASF92
 4444 0560 09        	.byte0x9
 4445 0561 E5        	.byte0xe5
 4446 0562 0000 00EE 	.long0xee
 4447 0566 7C        	.byte0x7c
 4448 0567 00        	.byte0
 4449 0568 15        	.uleb128 0x15
 4450 0569 0000 01FE 	.long0x1fe
 4451 056d 0000 0586 	.long0x586
 4452 0571 16        	.uleb128 0x16
 4453 0572 0000 0586 	.long0x586
 4454 0576 16        	.uleb128 0x16
 4455 0577 0000 0105 	.long0x105
 4456 057b 16        	.uleb128 0x16
68K GAS   			page 119


 4457 057c 0000 0699 	.long0x699
 4458 0580 16        	.uleb128 0x16
 4459 0581 0000 00EE 	.long0xee
 4460 0585 00        	.byte0
 4461 0586 0E        	.uleb128 0xe
 4462 0587 04        	.byte0x4
 4463 0588 0000 0591 	.long0x591
 4464 058c 05        	.uleb128 0x5
 4465 058d 0000 0586 	.long0x586
 4466 0591 17        	.uleb128 0x17
 4467 0592 0000 0000 	.long.LASF93
 4468 0596 0158      	.word0x158
 4469 0598 09        	.byte0x9
 4470 0599 0239      	.word0x239
 4471 059b 0000 0699 	.long0x699
 4472 059f 18        	.uleb128 0x18
 4473 05a0 0000 0000 	.long.LASF94
 4474 05a4 09        	.byte0x9
 4475 05a5 023B      	.word0x23b
 4476 05a7 0000 00EE 	.long0xee
 4477 05ab 00        	.byte0
 4478 05ac 18        	.uleb128 0x18
 4479 05ad 0000 0000 	.long.LASF95
 4480 05b1 09        	.byte0x9
 4481 05b2 0240      	.word0x240
 4482 05b4 0000 076E 	.long0x76e
 4483 05b8 04        	.byte0x4
 4484 05b9 18        	.uleb128 0x18
 4485 05ba 0000 0000 	.long.LASF96
 4486 05be 09        	.byte0x9
 4487 05bf 0240      	.word0x240
 4488 05c1 0000 076E 	.long0x76e
 4489 05c5 08        	.byte0x8
 4490 05c6 18        	.uleb128 0x18
 4491 05c7 0000 0000 	.long.LASF97
 4492 05cb 09        	.byte0x9
 4493 05cc 0240      	.word0x240
 4494 05ce 0000 076E 	.long0x76e
 4495 05d2 0C        	.byte0xc
 4496 05d3 18        	.uleb128 0x18
 4497 05d4 0000 0000 	.long.LASF98
 4498 05d8 09        	.byte0x9
 4499 05d9 0242      	.word0x242
 4500 05db 0000 00EE 	.long0xee
 4501 05df 10        	.byte0x10
 4502 05e0 18        	.uleb128 0x18
 4503 05e1 0000 0000 	.long.LASF99
 4504 05e5 09        	.byte0x9
 4505 05e6 0243      	.word0x243
 4506 05e8 0000 0950 	.long0x950
 4507 05ec 14        	.byte0x14
 4508 05ed 18        	.uleb128 0x18
 4509 05ee 0000 0000 	.long.LASF100
 4510 05f2 09        	.byte0x9
 4511 05f3 0246      	.word0x246
 4512 05f5 0000 00EE 	.long0xee
 4513 05f9 30        	.byte0x30
68K GAS   			page 120


 4514 05fa 18        	.uleb128 0x18
 4515 05fb 0000 0000 	.long.LASF101
 4516 05ff 09        	.byte0x9
 4517 0600 0247      	.word0x247
 4518 0602 0000 0965 	.long0x965
 4519 0606 34        	.byte0x34
 4520 0607 18        	.uleb128 0x18
 4521 0608 0000 0000 	.long.LASF102
 4522 060c 09        	.byte0x9
 4523 060d 0249      	.word0x249
 4524 060f 0000 00EE 	.long0xee
 4525 0613 38        	.byte0x38
 4526 0614 18        	.uleb128 0x18
 4527 0615 0000 0000 	.long.LASF103
 4528 0619 09        	.byte0x9
 4529 061a 024B      	.word0x24b
 4530 061c 0000 0976 	.long0x976
 4531 0620 3C        	.byte0x3c
 4532 0621 18        	.uleb128 0x18
 4533 0622 0000 0000 	.long.LASF104
 4534 0626 09        	.byte0x9
 4535 0627 024E      	.word0x24e
 4536 0629 0000 02D9 	.long0x2d9
 4537 062d 40        	.byte0x40
 4538 062e 18        	.uleb128 0x18
 4539 062f 0000 0000 	.long.LASF105
 4540 0633 09        	.byte0x9
 4541 0634 024F      	.word0x24f
 4542 0636 0000 00EE 	.long0xee
 4543 063a 44        	.byte0x44
 4544 063b 18        	.uleb128 0x18
 4545 063c 0000 0000 	.long.LASF106
 4546 0640 09        	.byte0x9
 4547 0641 0250      	.word0x250
 4548 0643 0000 02D9 	.long0x2d9
 4549 0647 48        	.byte0x48
 4550 0648 18        	.uleb128 0x18
 4551 0649 0000 0000 	.long.LASF107
 4552 064d 09        	.byte0x9
 4553 064e 0251      	.word0x251
 4554 0650 0000 097C 	.long0x97c
 4555 0654 4C        	.byte0x4c
 4556 0655 18        	.uleb128 0x18
 4557 0656 0000 0000 	.long.LASF108
 4558 065a 09        	.byte0x9
 4559 065b 0254      	.word0x254
 4560 065d 0000 00EE 	.long0xee
 4561 0661 50        	.byte0x50
 4562 0662 18        	.uleb128 0x18
 4563 0663 0000 0000 	.long.LASF109
 4564 0667 09        	.byte0x9
 4565 0668 0255      	.word0x255
 4566 066a 0000 0699 	.long0x699
 4567 066e 54        	.byte0x54
 4568 066f 18        	.uleb128 0x18
 4569 0670 0000 0000 	.long.LASF110
 4570 0674 09        	.byte0x9
68K GAS   			page 121


 4571 0675 0278      	.word0x278
 4572 0677 0000 092E 	.long0x92e
 4573 067b 58        	.byte0x58
 4574 067c 19        	.uleb128 0x19
 4575 067d 0000 0000 	.long.LASF111
 4576 0681 09        	.byte0x9
 4577 0682 0281      	.word0x281
 4578 0684 0000 098D 	.long0x98d
 4579 0688 0148      	.word0x148
 4580 068a 19        	.uleb128 0x19
 4581 068b 0000 0000 	.long.LASF112
 4582 068f 09        	.byte0x9
 4583 0690 0286      	.word0x286
 4584 0692 0000 0733 	.long0x733
 4585 0696 014C      	.word0x14c
 4586 0698 00        	.byte0
 4587 0699 0E        	.uleb128 0xe
 4588 069a 04        	.byte0x4
 4589 069b 0000 00B6 	.long0xb6
 4590 069f 0E        	.uleb128 0xe
 4591 06a0 04        	.byte0x4
 4592 06a1 0000 0568 	.long0x568
 4593 06a5 15        	.uleb128 0x15
 4594 06a6 0000 01FE 	.long0x1fe
 4595 06aa 0000 06C3 	.long0x6c3
 4596 06ae 16        	.uleb128 0x16
 4597 06af 0000 0586 	.long0x586
 4598 06b3 16        	.uleb128 0x16
 4599 06b4 0000 0105 	.long0x105
 4600 06b8 16        	.uleb128 0x16
 4601 06b9 0000 01AE 	.long0x1ae
 4602 06bd 16        	.uleb128 0x16
 4603 06be 0000 00EE 	.long0xee
 4604 06c2 00        	.byte0
 4605 06c3 0E        	.uleb128 0xe
 4606 06c4 04        	.byte0x4
 4607 06c5 0000 06A5 	.long0x6a5
 4608 06c9 15        	.uleb128 0x15
 4609 06ca 0000 0124 	.long0x124
 4610 06ce 0000 06E7 	.long0x6e7
 4611 06d2 16        	.uleb128 0x16
 4612 06d3 0000 0586 	.long0x586
 4613 06d7 16        	.uleb128 0x16
 4614 06d8 0000 0105 	.long0x105
 4615 06dc 16        	.uleb128 0x16
 4616 06dd 0000 0124 	.long0x124
 4617 06e1 16        	.uleb128 0x16
 4618 06e2 0000 00EE 	.long0xee
 4619 06e6 00        	.byte0
 4620 06e7 0E        	.uleb128 0xe
 4621 06e8 04        	.byte0x4
 4622 06e9 0000 06C9 	.long0x6c9
 4623 06ed 15        	.uleb128 0x15
 4624 06ee 0000 00EE 	.long0xee
 4625 06f2 0000 0701 	.long0x701
 4626 06f6 16        	.uleb128 0x16
 4627 06f7 0000 0586 	.long0x586
68K GAS   			page 122


 4628 06fb 16        	.uleb128 0x16
 4629 06fc 0000 0105 	.long0x105
 4630 0700 00        	.byte0
 4631 0701 0E        	.uleb128 0xe
 4632 0702 04        	.byte0x4
 4633 0703 0000 06ED 	.long0x6ed
 4634 0707 09        	.uleb128 0x9
 4635 0708 0000 0030 	.long0x30
 4636 070c 0000 0717 	.long0x717
 4637 0710 0A        	.uleb128 0xa
 4638 0711 0000 0091 	.long0x91
 4639 0715 02        	.byte0x2
 4640 0716 00        	.byte0
 4641 0717 09        	.uleb128 0x9
 4642 0718 0000 0030 	.long0x30
 4643 071c 0000 0727 	.long0x727
 4644 0720 0A        	.uleb128 0xa
 4645 0721 0000 0091 	.long0x91
 4646 0725 00        	.byte0
 4647 0726 00        	.byte0
 4648 0727 04        	.uleb128 0x4
 4649 0728 0000 0000 	.long.LASF113
 4650 072c 09        	.byte0x9
 4651 072d 011F      	.word0x11f
 4652 072f 0000 043E 	.long0x43e
 4653 0733 1A        	.uleb128 0x1a
 4654 0734 0000 0000 	.long.LASF114
 4655 0738 0C        	.byte0xc
 4656 0739 09        	.byte0x9
 4657 073a 0123      	.word0x123
 4658 073c 0000 0768 	.long0x768
 4659 0740 18        	.uleb128 0x18
 4660 0741 0000 0000 	.long.LASF51
 4661 0745 09        	.byte0x9
 4662 0746 0125      	.word0x125
 4663 0748 0000 0768 	.long0x768
 4664 074c 00        	.byte0
 4665 074d 18        	.uleb128 0x18
 4666 074e 0000 0000 	.long.LASF115
 4667 0752 09        	.byte0x9
 4668 0753 0126      	.word0x126
 4669 0755 0000 00EE 	.long0xee
 4670 0759 04        	.byte0x4
 4671 075a 18        	.uleb128 0x18
 4672 075b 0000 0000 	.long.LASF116
 4673 075f 09        	.byte0x9
 4674 0760 0127      	.word0x127
 4675 0762 0000 076E 	.long0x76e
 4676 0766 08        	.byte0x8
 4677 0767 00        	.byte0
 4678 0768 0E        	.uleb128 0xe
 4679 0769 04        	.byte0x4
 4680 076a 0000 0733 	.long0x733
 4681 076e 0E        	.uleb128 0xe
 4682 076f 04        	.byte0x4
 4683 0770 0000 0727 	.long0x727
 4684 0774 1A        	.uleb128 0x1a
68K GAS   			page 123


 4685 0775 0000 0000 	.long.LASF117
 4686 0779 0E        	.byte0xe
 4687 077a 09        	.byte0x9
 4688 077b 013F      	.word0x13f
 4689 077d 0000 07A9 	.long0x7a9
 4690 0781 18        	.uleb128 0x18
 4691 0782 0000 0000 	.long.LASF118
 4692 0786 09        	.byte0x9
 4693 0787 0140      	.word0x140
 4694 0789 0000 07A9 	.long0x7a9
 4695 078d 00        	.byte0
 4696 078e 18        	.uleb128 0x18
 4697 078f 0000 0000 	.long.LASF119
 4698 0793 09        	.byte0x9
 4699 0794 0141      	.word0x141
 4700 0796 0000 07A9 	.long0x7a9
 4701 079a 06        	.byte0x6
 4702 079b 18        	.uleb128 0x18
 4703 079c 0000 0000 	.long.LASF120
 4704 07a0 09        	.byte0x9
 4705 07a1 0142      	.word0x142
 4706 07a3 0000 007F 	.long0x7f
 4707 07a7 0C        	.byte0xc
 4708 07a8 00        	.byte0
 4709 07a9 09        	.uleb128 0x9
 4710 07aa 0000 007F 	.long0x7f
 4711 07ae 0000 07B9 	.long0x7b9
 4712 07b2 0A        	.uleb128 0xa
 4713 07b3 0000 0091 	.long0x91
 4714 07b7 02        	.byte0x2
 4715 07b8 00        	.byte0
 4716 07b9 1B        	.uleb128 0x1b
 4717 07ba CC        	.byte0xcc
 4718 07bb 09        	.byte0x9
 4719 07bc 0259      	.word0x259
 4720 07be 0000 08BA 	.long0x8ba
 4721 07c2 18        	.uleb128 0x18
 4722 07c3 0000 0000 	.long.LASF121
 4723 07c7 09        	.byte0x9
 4724 07c8 025B      	.word0x25b
 4725 07ca 0000 0154 	.long0x154
 4726 07ce 00        	.byte0
 4727 07cf 18        	.uleb128 0x18
 4728 07d0 0000 0000 	.long.LASF122
 4729 07d4 09        	.byte0x9
 4730 07d5 025C      	.word0x25c
 4731 07d7 0000 0699 	.long0x699
 4732 07db 04        	.byte0x4
 4733 07dc 18        	.uleb128 0x18
 4734 07dd 0000 0000 	.long.LASF123
 4735 07e1 09        	.byte0x9
 4736 07e2 025D      	.word0x25d
 4737 07e4 0000 08BA 	.long0x8ba
 4738 07e8 08        	.byte0x8
 4739 07e9 18        	.uleb128 0x18
 4740 07ea 0000 0000 	.long.LASF124
 4741 07ee 09        	.byte0x9
68K GAS   			page 124


 4742 07ef 025E      	.word0x25e
 4743 07f1 0000 02EF 	.long0x2ef
 4744 07f5 24        	.byte0x24
 4745 07f6 18        	.uleb128 0x18
 4746 07f7 0000 0000 	.long.LASF125
 4747 07fb 09        	.byte0x9
 4748 07fc 025F      	.word0x25f
 4749 07fe 0000 00EE 	.long0xee
 4750 0802 48        	.byte0x48
 4751 0803 18        	.uleb128 0x18
 4752 0804 0000 0000 	.long.LASF126
 4753 0808 09        	.byte0x9
 4754 0809 0260      	.word0x260
 4755 080b 0000 0098 	.long0x98
 4756 080f 4C        	.byte0x4c
 4757 0810 18        	.uleb128 0x18
 4758 0811 0000 0000 	.long.LASF127
 4759 0815 09        	.byte0x9
 4760 0816 0261      	.word0x261
 4761 0818 0000 0774 	.long0x774
 4762 081c 54        	.byte0x54
 4763 081d 18        	.uleb128 0x18
 4764 081e 0000 0000 	.long.LASF128
 4765 0822 09        	.byte0x9
 4766 0823 0262      	.word0x262
 4767 0825 0000 0265 	.long0x265
 4768 0829 64        	.byte0x64
 4769 082a 18        	.uleb128 0x18
 4770 082b 0000 0000 	.long.LASF129
 4771 082f 09        	.byte0x9
 4772 0830 0263      	.word0x263
 4773 0832 0000 0265 	.long0x265
 4774 0836 6C        	.byte0x6c
 4775 0837 18        	.uleb128 0x18
 4776 0838 0000 0000 	.long.LASF130
 4777 083c 09        	.byte0x9
 4778 083d 0264      	.word0x264
 4779 083f 0000 0265 	.long0x265
 4780 0843 74        	.byte0x74
 4781 0844 18        	.uleb128 0x18
 4782 0845 0000 0000 	.long.LASF131
 4783 0849 09        	.byte0x9
 4784 084a 0265      	.word0x265
 4785 084c 0000 08CA 	.long0x8ca
 4786 0850 7C        	.byte0x7c
 4787 0851 18        	.uleb128 0x18
 4788 0852 0000 0000 	.long.LASF132
 4789 0856 09        	.byte0x9
 4790 0857 0266      	.word0x266
 4791 0859 0000 08DA 	.long0x8da
 4792 085d 84        	.byte0x84
 4793 085e 18        	.uleb128 0x18
 4794 085f 0000 0000 	.long.LASF133
 4795 0863 09        	.byte0x9
 4796 0864 0267      	.word0x267
 4797 0866 0000 00EE 	.long0xee
 4798 086a 9C        	.byte0x9c
68K GAS   			page 125


 4799 086b 18        	.uleb128 0x18
 4800 086c 0000 0000 	.long.LASF134
 4801 0870 09        	.byte0x9
 4802 0871 0268      	.word0x268
 4803 0873 0000 0265 	.long0x265
 4804 0877 A0        	.byte0xa0
 4805 0878 18        	.uleb128 0x18
 4806 0879 0000 0000 	.long.LASF135
 4807 087d 09        	.byte0x9
 4808 087e 0269      	.word0x269
 4809 0880 0000 0265 	.long0x265
 4810 0884 A8        	.byte0xa8
 4811 0885 18        	.uleb128 0x18
 4812 0886 0000 0000 	.long.LASF136
 4813 088a 09        	.byte0x9
 4814 088b 026A      	.word0x26a
 4815 088d 0000 0265 	.long0x265
 4816 0891 B0        	.byte0xb0
 4817 0892 18        	.uleb128 0x18
 4818 0893 0000 0000 	.long.LASF137
 4819 0897 09        	.byte0x9
 4820 0898 026B      	.word0x26b
 4821 089a 0000 0265 	.long0x265
 4822 089e B8        	.byte0xb8
 4823 089f 18        	.uleb128 0x18
 4824 08a0 0000 0000 	.long.LASF138
 4825 08a4 09        	.byte0x9
 4826 08a5 026C      	.word0x26c
 4827 08a7 0000 0265 	.long0x265
 4828 08ab C0        	.byte0xc0
 4829 08ac 18        	.uleb128 0x18
 4830 08ad 0000 0000 	.long.LASF139
 4831 08b1 09        	.byte0x9
 4832 08b2 026D      	.word0x26d
 4833 08b4 0000 00EE 	.long0xee
 4834 08b8 C8        	.byte0xc8
 4835 08b9 00        	.byte0
 4836 08ba 09        	.uleb128 0x9
 4837 08bb 0000 00B6 	.long0xb6
 4838 08bf 0000 08CA 	.long0x8ca
 4839 08c3 0A        	.uleb128 0xa
 4840 08c4 0000 0091 	.long0x91
 4841 08c8 19        	.byte0x19
 4842 08c9 00        	.byte0
 4843 08ca 09        	.uleb128 0x9
 4844 08cb 0000 00B6 	.long0xb6
 4845 08cf 0000 08DA 	.long0x8da
 4846 08d3 0A        	.uleb128 0xa
 4847 08d4 0000 0091 	.long0x91
 4848 08d8 07        	.byte0x7
 4849 08d9 00        	.byte0
 4850 08da 09        	.uleb128 0x9
 4851 08db 0000 00B6 	.long0xb6
 4852 08df 0000 08EA 	.long0x8ea
 4853 08e3 0A        	.uleb128 0xa
 4854 08e4 0000 0091 	.long0x91
 4855 08e8 17        	.byte0x17
68K GAS   			page 126


 4856 08e9 00        	.byte0
 4857 08ea 1B        	.uleb128 0x1b
 4858 08eb F0        	.byte0xf0
 4859 08ec 09        	.byte0x9
 4860 08ed 0272      	.word0x272
 4861 08ef 0000 090E 	.long0x90e
 4862 08f3 18        	.uleb128 0x18
 4863 08f4 0000 0000 	.long.LASF140
 4864 08f8 09        	.byte0x9
 4865 08f9 0275      	.word0x275
 4866 08fb 0000 090E 	.long0x90e
 4867 08ff 00        	.byte0
 4868 0900 18        	.uleb128 0x18
 4869 0901 0000 0000 	.long.LASF141
 4870 0905 09        	.byte0x9
 4871 0906 0276      	.word0x276
 4872 0908 0000 091E 	.long0x91e
 4873 090c 78        	.byte0x78
 4874 090d 00        	.byte0
 4875 090e 09        	.uleb128 0x9
 4876 090f 0000 0438 	.long0x438
 4877 0913 0000 091E 	.long0x91e
 4878 0917 0A        	.uleb128 0xa
 4879 0918 0000 0091 	.long0x91
 4880 091c 1D        	.byte0x1d
 4881 091d 00        	.byte0
 4882 091e 09        	.uleb128 0x9
 4883 091f 0000 0154 	.long0x154
 4884 0923 0000 092E 	.long0x92e
 4885 0927 0A        	.uleb128 0xa
 4886 0928 0000 0091 	.long0x91
 4887 092c 1D        	.byte0x1d
 4888 092d 00        	.byte0
 4889 092e 1C        	.uleb128 0x1c
 4890 092f F0        	.byte0xf0
 4891 0930 09        	.byte0x9
 4892 0931 0257      	.word0x257
 4893 0933 0000 0950 	.long0x950
 4894 0937 1D        	.uleb128 0x1d
 4895 0938 0000 0000 	.long.LASF93
 4896 093c 09        	.byte0x9
 4897 093d 026E      	.word0x26e
 4898 093f 0000 07B9 	.long0x7b9
 4899 0943 1D        	.uleb128 0x1d
 4900 0944 0000 0000 	.long.LASF142
 4901 0948 09        	.byte0x9
 4902 0949 0277      	.word0x277
 4903 094b 0000 08EA 	.long0x8ea
 4904 094f 00        	.byte0
 4905 0950 09        	.uleb128 0x9
 4906 0951 0000 00B6 	.long0xb6
 4907 0955 0000 0960 	.long0x960
 4908 0959 0A        	.uleb128 0xa
 4909 095a 0000 0091 	.long0x91
 4910 095e 18        	.byte0x18
 4911 095f 00        	.byte0
 4912 0960 0D        	.uleb128 0xd
68K GAS   			page 127


 4913 0961 0000 0000 	.long.LASF143
 4914 0965 0E        	.uleb128 0xe
 4915 0966 04        	.byte0x4
 4916 0967 0000 0960 	.long0x960
 4917 096b 1E        	.uleb128 0x1e
 4918 096c 0000 0976 	.long0x976
 4919 0970 16        	.uleb128 0x16
 4920 0971 0000 0586 	.long0x586
 4921 0975 00        	.byte0
 4922 0976 0E        	.uleb128 0xe
 4923 0977 04        	.byte0x4
 4924 0978 0000 096B 	.long0x96b
 4925 097c 0E        	.uleb128 0xe
 4926 097d 04        	.byte0x4
 4927 097e 0000 02D9 	.long0x2d9
 4928 0982 1E        	.uleb128 0x1e
 4929 0983 0000 098D 	.long0x98d
 4930 0987 16        	.uleb128 0x16
 4931 0988 0000 00EE 	.long0xee
 4932 098c 00        	.byte0
 4933 098d 0E        	.uleb128 0xe
 4934 098e 04        	.byte0x4
 4935 098f 0000 0993 	.long0x993
 4936 0993 0E        	.uleb128 0xe
 4937 0994 04        	.byte0x4
 4938 0995 0000 0982 	.long0x982
 4939 0999 09        	.uleb128 0x9
 4940 099a 0000 0727 	.long0x727
 4941 099e 0000 09A9 	.long0x9a9
 4942 09a2 0A        	.uleb128 0xa
 4943 09a3 0000 0091 	.long0x91
 4944 09a7 02        	.byte0x2
 4945 09a8 00        	.byte0
 4946 09a9 1F        	.uleb128 0x1f
 4947 09aa 0000 0000 	.long.LASF144
 4948 09ae 09        	.byte0x9
 4949 09af 028D      	.word0x28d
 4950 09b1 0000 0999 	.long0x999
 4951 09b5 1F        	.uleb128 0x1f
 4952 09b6 0000 0000 	.long.LASF145
 4953 09ba 09        	.byte0x9
 4954 09bb 0307      	.word0x307
 4955 09bd 0000 0586 	.long0x586
 4956 09c1 1F        	.uleb128 0x1f
 4957 09c2 0000 0000 	.long.LASF146
 4958 09c6 09        	.byte0x9
 4959 09c7 0308      	.word0x308
 4960 09c9 0000 058C 	.long0x58c
 4961 09cd 1F        	.uleb128 0x1f
 4962 09ce 0000 0000 	.long.LASF147
 4963 09d2 09        	.byte0x9
 4964 09d3 031A      	.word0x31a
 4965 09d5 0000 03F6 	.long0x3f6
 4966 09d9 20        	.uleb128 0x20
 4967 09da 0000 0000 	.long.LASF148
 4968 09de 0A        	.byte0xa
 4969 09df 63        	.byte0x63
68K GAS   			page 128


 4970 09e0 0000 0699 	.long0x699
 4971 09e4 20        	.uleb128 0x20
 4972 09e5 0000 0000 	.long.LASF149
 4973 09e9 0B        	.byte0xb
 4974 09ea 9A        	.byte0x9a
 4975 09eb 0000 005B 	.long0x5b
 4976 09ef 20        	.uleb128 0x20
 4977 09f0 0000 0000 	.long.LASF150
 4978 09f4 0B        	.byte0xb
 4979 09f5 9B        	.byte0x9b
 4980 09f6 0000 00EE 	.long0xee
 4981 09fa 09        	.uleb128 0x9
 4982 09fb 0000 0699 	.long0x699
 4983 09ff 0000 0A0A 	.long0xa0a
 4984 0a03 0A        	.uleb128 0xa
 4985 0a04 0000 0091 	.long0x91
 4986 0a08 01        	.byte0x1
 4987 0a09 00        	.byte0
 4988 0a0a 20        	.uleb128 0x20
 4989 0a0b 0000 0000 	.long.LASF151
 4990 0a0f 0B        	.byte0xb
 4991 0a10 9E        	.byte0x9e
 4992 0a11 0000 09FA 	.long0x9fa
 4993 0a15 09        	.uleb128 0x9
 4994 0a16 0000 00B6 	.long0xb6
 4995 0a1a 0000 0A25 	.long0xa25
 4996 0a1e 0A        	.uleb128 0xa
 4997 0a1f 0000 0091 	.long0x91
 4998 0a23 1F        	.byte0x1f
 4999 0a24 00        	.byte0
 5000 0a25 09        	.uleb128 0x9
 5001 0a26 0000 00B6 	.long0xb6
 5002 0a2a 0000 0A35 	.long0xa35
 5003 0a2e 0A        	.uleb128 0xa
 5004 0a2f 0000 0091 	.long0x91
 5005 0a33 3F        	.byte0x3f
 5006 0a34 00        	.byte0
 5007 0a35 06        	.uleb128 0x6
 5008 0a36 06        	.byte0x6
 5009 0a37 0C        	.byte0xc
 5010 0a38 58        	.byte0x58
 5011 0a39 0000 0A62 	.long0xa62
 5012 0a3d 07        	.uleb128 0x7
 5013 0a3e 0000 0000 	.long.LASF152
 5014 0a42 0C        	.byte0xc
 5015 0a43 5A        	.byte0x5a
 5016 0a44 0000 0A62 	.long0xa62
 5017 0a48 00        	.byte0
 5018 0a49 07        	.uleb128 0x7
 5019 0a4a 0000 0000 	.long.LASF153
 5020 0a4e 0C        	.byte0xc
 5021 0a4f 61        	.byte0x61
 5022 0a50 0000 0A62 	.long0xa62
 5023 0a54 02        	.byte0x2
 5024 0a55 07        	.uleb128 0x7
 5025 0a56 0000 0000 	.long.LASF154
 5026 0a5a 0C        	.byte0xc
68K GAS   			page 129


 5027 0a5b 66        	.byte0x66
 5028 0a5c 0000 0A62 	.long0xa62
 5029 0a60 04        	.byte0x4
 5030 0a61 00        	.byte0
 5031 0a62 09        	.uleb128 0x9
 5032 0a63 0000 0069 	.long0x69
 5033 0a67 0000 0A72 	.long0xa72
 5034 0a6b 0A        	.uleb128 0xa
 5035 0a6c 0000 0091 	.long0x91
 5036 0a70 01        	.byte0x1
 5037 0a71 00        	.byte0
 5038 0a72 02        	.uleb128 0x2
 5039 0a73 0000 0000 	.long.LASF155
 5040 0a77 0C        	.byte0xc
 5041 0a78 6A        	.byte0x6a
 5042 0a79 0000 0A35 	.long0xa35
 5043 0a7d 09        	.uleb128 0x9
 5044 0a7e 0000 0069 	.long0x69
 5045 0a82 0000 0A8D 	.long0xa8d
 5046 0a86 0A        	.uleb128 0xa
 5047 0a87 0000 0091 	.long0x91
 5048 0a8b 05        	.byte0x5
 5049 0a8c 00        	.byte0
 5050 0a8d 0F        	.uleb128 0xf
 5051 0a8e 08        	.byte0x8
 5052 0a8f 0D        	.byte0xd
 5053 0a90 75        	.byte0x75
 5054 0a91 0000 0AB7 	.long0xab7
 5055 0a95 21        	.uleb128 0x21
 5056 0a96 4864 7200 	.string"Hdr"
 5057 0a9a 0D        	.byte0xd
 5058 0a9b 76        	.byte0x76
 5059 0a9c 0000 0A72 	.long0xa72
 5060 0aa0 10        	.uleb128 0x10
 5061 0aa1 0000 0000 	.long.LASF156
 5062 0aa5 0D        	.byte0xd
 5063 0aa6 77        	.byte0x77
 5064 0aa7 0000 0086 	.long0x86
 5065 0aab 10        	.uleb128 0x10
 5066 0aac 0000 0000 	.long.LASF157
 5067 0ab0 0D        	.byte0xd
 5068 0ab1 78        	.byte0x78
 5069 0ab2 0000 0A7D 	.long0xa7d
 5070 0ab6 00        	.byte0
 5071 0ab7 02        	.uleb128 0x2
 5072 0ab8 0000 0000 	.long.LASF158
 5073 0abc 0D        	.byte0xd
 5074 0abd 79        	.byte0x79
 5075 0abe 0000 0A8D 	.long0xa8d
 5076 0ac2 02        	.uleb128 0x2
 5077 0ac3 0000 0000 	.long.LASF159
 5078 0ac7 0D        	.byte0xd
 5079 0ac8 98        	.byte0x98
 5080 0ac9 0000 0069 	.long0x69
 5081 0acd 0E        	.uleb128 0xe
 5082 0ace 04        	.byte0x4
 5083 0acf 0000 0AB7 	.long0xab7
68K GAS   			page 130


 5084 0ad3 02        	.uleb128 0x2
 5085 0ad4 0000 0000 	.long.LASF160
 5086 0ad8 0D        	.byte0xd
 5087 0ad9 A4        	.byte0xa4
 5088 0ada 0000 0AE3 	.long0xae3
 5089 0ade 05        	.uleb128 0x5
 5090 0adf 0000 0AD3 	.long0xad3
 5091 0ae3 0E        	.uleb128 0xe
 5092 0ae4 04        	.byte0x4
 5093 0ae5 0000 0069 	.long0x69
 5094 0ae9 06        	.uleb128 0x6
 5095 0aea 02        	.byte0x2
 5096 0aeb 0D        	.byte0xd
 5097 0aec B1        	.byte0xb1
 5098 0aed 0000 0B0A 	.long0xb0a
 5099 0af1 07        	.uleb128 0x7
 5100 0af2 0000 0000 	.long.LASF161
 5101 0af6 0D        	.byte0xd
 5102 0af7 B2        	.byte0xb2
 5103 0af8 0000 0069 	.long0x69
 5104 0afc 00        	.byte0
 5105 0afd 07        	.uleb128 0x7
 5106 0afe 0000 0000 	.long.LASF162
 5107 0b02 0D        	.byte0xd
 5108 0b03 B3        	.byte0xb3
 5109 0b04 0000 0069 	.long0x69
 5110 0b08 01        	.byte0x1
 5111 0b09 00        	.byte0
 5112 0b0a 02        	.uleb128 0x2
 5113 0b0b 0000 0000 	.long.LASF163
 5114 0b0f 0D        	.byte0xd
 5115 0b10 B4        	.byte0xb4
 5116 0b11 0000 0AE9 	.long0xae9
 5117 0b15 20        	.uleb128 0x20
 5118 0b16 0000 0000 	.long.LASF164
 5119 0b1a 0D        	.byte0xd
 5120 0b1b B6        	.byte0xb6
 5121 0b1c 0000 0B0A 	.long0xb0a
 5122 0b20 04        	.uleb128 0x4
 5123 0b21 0000 0000 	.long.LASF165
 5124 0b25 0E        	.byte0xe
 5125 0b26 0103      	.word0x103
 5126 0b28 0000 009F 	.long0x9f
 5127 0b2c 04        	.uleb128 0x4
 5128 0b2d 0000 0000 	.long.LASF166
 5129 0b31 0E        	.byte0xe
 5130 0b32 0166      	.word0x166
 5131 0b34 0000 009F 	.long0x9f
 5132 0b38 09        	.uleb128 0x9
 5133 0b39 0000 0069 	.long0x69
 5134 0b3d 0000 0B48 	.long0xb48
 5135 0b41 0A        	.uleb128 0xa
 5136 0b42 0000 0091 	.long0x91
 5137 0b46 07        	.byte0x7
 5138 0b47 00        	.byte0
 5139 0b48 09        	.uleb128 0x9
 5140 0b49 0000 0069 	.long0x69
68K GAS   			page 131


 5141 0b4d 0000 0B58 	.long0xb58
 5142 0b51 0A        	.uleb128 0xa
 5143 0b52 0000 0091 	.long0x91
 5144 0b56 0B        	.byte0xb
 5145 0b57 00        	.byte0
 5146 0b58 06        	.uleb128 0x6
 5147 0b59 40        	.byte0x40
 5148 0b5a 0F        	.byte0xf
 5149 0b5b 8B        	.byte0x8b
 5150 0b5c 0000 0BCD 	.long0xbcd
 5151 0b60 07        	.uleb128 0x7
 5152 0b61 0000 0000 	.long.LASF167
 5153 0b65 0F        	.byte0xf
 5154 0b66 8D        	.byte0x8d
 5155 0b67 0000 0086 	.long0x86
 5156 0b6b 00        	.byte0
 5157 0b6c 07        	.uleb128 0x7
 5158 0b6d 0000 0000 	.long.LASF168
 5159 0b71 0F        	.byte0xf
 5160 0b72 8E        	.byte0x8e
 5161 0b73 0000 0086 	.long0x86
 5162 0b77 04        	.byte0x4
 5163 0b78 07        	.uleb128 0x7
 5164 0b79 0000 0000 	.long.LASF154
 5165 0b7d 0F        	.byte0xf
 5166 0b7e 91        	.byte0x91
 5167 0b7f 0000 0086 	.long0x86
 5168 0b83 08        	.byte0x8
 5169 0b84 07        	.uleb128 0x7
 5170 0b85 0000 0000 	.long.LASF169
 5171 0b89 0F        	.byte0xf
 5172 0b8a 92        	.byte0x92
 5173 0b8b 0000 0086 	.long0x86
 5174 0b8f 0C        	.byte0xc
 5175 0b90 07        	.uleb128 0x7
 5176 0b91 0000 0000 	.long.LASF170
 5177 0b95 0F        	.byte0xf
 5178 0b96 93        	.byte0x93
 5179 0b97 0000 0086 	.long0x86
 5180 0b9b 10        	.byte0x10
 5181 0b9c 07        	.uleb128 0x7
 5182 0b9d 0000 0000 	.long.LASF171
 5183 0ba1 0F        	.byte0xf
 5184 0ba2 94        	.byte0x94
 5185 0ba3 0000 0086 	.long0x86
 5186 0ba7 14        	.byte0x14
 5187 0ba8 07        	.uleb128 0x7
 5188 0ba9 0000 0000 	.long.LASF172
 5189 0bad 0F        	.byte0xf
 5190 0bae 96        	.byte0x96
 5191 0baf 0000 0086 	.long0x86
 5192 0bb3 18        	.byte0x18
 5193 0bb4 07        	.uleb128 0x7
 5194 0bb5 0000 0000 	.long.LASF173
 5195 0bb9 0F        	.byte0xf
 5196 0bba 97        	.byte0x97
 5197 0bbb 0000 0086 	.long0x86
68K GAS   			page 132


 5198 0bbf 1C        	.byte0x1c
 5199 0bc0 07        	.uleb128 0x7
 5200 0bc1 0000 0000 	.long.LASF174
 5201 0bc5 0F        	.byte0xf
 5202 0bc6 99        	.byte0x99
 5203 0bc7 0000 0A15 	.long0xa15
 5204 0bcb 20        	.byte0x20
 5205 0bcc 00        	.byte0
 5206 0bcd 02        	.uleb128 0x2
 5207 0bce 0000 0000 	.long.LASF175
 5208 0bd2 0F        	.byte0xf
 5209 0bd3 9B        	.byte0x9b
 5210 0bd4 0000 0B58 	.long0xb58
 5211 0bd8 02        	.uleb128 0x2
 5212 0bd9 0000 0000 	.long.LASF176
 5213 0bdd 10        	.byte0x10
 5214 0bde 5E        	.byte0x5e
 5215 0bdf 0000 0BE3 	.long0xbe3
 5216 0be3 0E        	.uleb128 0xe
 5217 0be4 04        	.byte0x4
 5218 0be5 0000 0BE9 	.long0xbe9
 5219 0be9 15        	.uleb128 0x15
 5220 0bea 0000 0050 	.long0x50
 5221 0bee 0000 0BF8 	.long0xbf8
 5222 0bf2 16        	.uleb128 0x16
 5223 0bf3 0000 0105 	.long0x105
 5224 0bf7 00        	.byte0
 5225 0bf8 02        	.uleb128 0x2
 5226 0bf9 0000 0000 	.long.LASF177
 5227 0bfd 10        	.byte0x10
 5228 0bfe 60        	.byte0x60
 5229 0bff 0000 003E 	.long0x3e
 5230 0c03 1B        	.uleb128 0x1b
 5231 0c04 40        	.byte0x40
 5232 0c05 11        	.byte0x11
 5233 0c06 021D      	.word0x21d
 5234 0c08 0000 0C1A 	.long0xc1a
 5235 0c0c 18        	.uleb128 0x18
 5236 0c0d 0000 0000 	.long.LASF178
 5237 0c11 11        	.byte0x11
 5238 0c12 021F      	.word0x21f
 5239 0c14 0000 0A25 	.long0xa25
 5240 0c18 00        	.byte0
 5241 0c19 00        	.byte0
 5242 0c1a 04        	.uleb128 0x4
 5243 0c1b 0000 0000 	.long.LASF179
 5244 0c1f 11        	.byte0x11
 5245 0c20 0222      	.word0x222
 5246 0c22 0000 0C03 	.long0xc03
 5247 0c26 05        	.uleb128 0x5
 5248 0c27 0000 0C1A 	.long0xc1a
 5249 0c2b 1B        	.uleb128 0x1b
 5250 0c2c 6A        	.byte0x6a
 5251 0c2d 11        	.byte0x11
 5252 0c2e 022F      	.word0x22f
 5253 0c30 0000 0C5C 	.long0xc5c
 5254 0c34 18        	.uleb128 0x18
68K GAS   			page 133


 5255 0c35 0000 0000 	.long.LASF180
 5256 0c39 11        	.byte0x11
 5257 0c3a 0231      	.word0x231
 5258 0c3c 0000 0074 	.long0x74
 5259 0c40 00        	.byte0
 5260 0c41 18        	.uleb128 0x18
 5261 0c42 0000 0000 	.long.LASF181
 5262 0c46 11        	.byte0x11
 5263 0c47 0237      	.word0x237
 5264 0c49 0000 0C5C 	.long0xc5c
 5265 0c4d 02        	.byte0x2
 5266 0c4e 18        	.uleb128 0x18
 5267 0c4f 0000 0000 	.long.LASF182
 5268 0c53 11        	.byte0x11
 5269 0c54 023A      	.word0x23a
 5270 0c56 0000 0A25 	.long0xa25
 5271 0c5a 2A        	.byte0x2a
 5272 0c5b 00        	.byte0
 5273 0c5c 09        	.uleb128 0x9
 5274 0c5d 0000 00B6 	.long0xb6
 5275 0c61 0000 0C6C 	.long0xc6c
 5276 0c65 0A        	.uleb128 0xa
 5277 0c66 0000 0091 	.long0x91
 5278 0c6a 27        	.byte0x27
 5279 0c6b 00        	.byte0
 5280 0c6c 04        	.uleb128 0x4
 5281 0c6d 0000 0000 	.long.LASF183
 5282 0c71 11        	.byte0x11
 5283 0c72 023D      	.word0x23d
 5284 0c74 0000 0C2B 	.long0xc2b
 5285 0c78 05        	.uleb128 0x5
 5286 0c79 0000 0C6C 	.long0xc6c
 5287 0c7d 1B        	.uleb128 0x1b
 5288 0c7e 2A        	.byte0x2a
 5289 0c7f 11        	.byte0x11
 5290 0c80 024A      	.word0x24a
 5291 0c82 0000 0CA1 	.long0xca1
 5292 0c86 18        	.uleb128 0x18
 5293 0c87 0000 0000 	.long.LASF180
 5294 0c8b 11        	.byte0x11
 5295 0c8c 024C      	.word0x24c
 5296 0c8e 0000 0074 	.long0x74
 5297 0c92 00        	.byte0
 5298 0c93 18        	.uleb128 0x18
 5299 0c94 0000 0000 	.long.LASF181
 5300 0c98 11        	.byte0x11
 5301 0c99 0252      	.word0x252
 5302 0c9b 0000 0C5C 	.long0xc5c
 5303 0c9f 02        	.byte0x2
 5304 0ca0 00        	.byte0
 5305 0ca1 04        	.uleb128 0x4
 5306 0ca2 0000 0000 	.long.LASF184
 5307 0ca6 11        	.byte0x11
 5308 0ca7 0255      	.word0x255
 5309 0ca9 0000 0C7D 	.long0xc7d
 5310 0cad 05        	.uleb128 0x5
 5311 0cae 0000 0CA1 	.long0xca1
68K GAS   			page 134


 5312 0cb2 1B        	.uleb128 0x1b
 5313 0cb3 28        	.byte0x28
 5314 0cb4 11        	.byte0x11
 5315 0cb5 0262      	.word0x262
 5316 0cb7 0000 0CC9 	.long0xcc9
 5317 0cbb 18        	.uleb128 0x18
 5318 0cbc 0000 0000 	.long.LASF181
 5319 0cc0 11        	.byte0x11
 5320 0cc1 0264      	.word0x264
 5321 0cc3 0000 0C5C 	.long0xc5c
 5322 0cc7 00        	.byte0
 5323 0cc8 00        	.byte0
 5324 0cc9 04        	.uleb128 0x4
 5325 0cca 0000 0000 	.long.LASF185
 5326 0cce 11        	.byte0x11
 5327 0ccf 0267      	.word0x267
 5328 0cd1 0000 0CB2 	.long0xcb2
 5329 0cd5 05        	.uleb128 0x5
 5330 0cd6 0000 0CC9 	.long0xcc9
 5331 0cda 1B        	.uleb128 0x1b
 5332 0cdb 40        	.byte0x40
 5333 0cdc 11        	.byte0x11
 5334 0cdd 0274      	.word0x274
 5335 0cdf 0000 0CF1 	.long0xcf1
 5336 0ce3 18        	.uleb128 0x18
 5337 0ce4 0000 0000 	.long.LASF182
 5338 0ce8 11        	.byte0x11
 5339 0ce9 0276      	.word0x276
 5340 0ceb 0000 0A25 	.long0xa25
 5341 0cef 00        	.byte0
 5342 0cf0 00        	.byte0
 5343 0cf1 04        	.uleb128 0x4
 5344 0cf2 0000 0000 	.long.LASF186
 5345 0cf6 11        	.byte0x11
 5346 0cf7 027A      	.word0x27a
 5347 0cf9 0000 0CDA 	.long0xcda
 5348 0cfd 05        	.uleb128 0x5
 5349 0cfe 0000 0CF1 	.long0xcf1
 5350 0d02 1B        	.uleb128 0x1b
 5351 0d03 28        	.byte0x28
 5352 0d04 11        	.byte0x11
 5353 0d05 0287      	.word0x287
 5354 0d07 0000 0D19 	.long0xd19
 5355 0d0b 18        	.uleb128 0x18
 5356 0d0c 0000 0000 	.long.LASF181
 5357 0d10 11        	.byte0x11
 5358 0d11 0289      	.word0x289
 5359 0d13 0000 0C5C 	.long0xc5c
 5360 0d17 00        	.byte0
 5361 0d18 00        	.byte0
 5362 0d19 04        	.uleb128 0x4
 5363 0d1a 0000 0000 	.long.LASF187
 5364 0d1e 11        	.byte0x11
 5365 0d1f 028E      	.word0x28e
 5366 0d21 0000 0D02 	.long0xd02
 5367 0d25 05        	.uleb128 0x5
 5368 0d26 0000 0D19 	.long0xd19
68K GAS   			page 135


 5369 0d2a 1B        	.uleb128 0x1b
 5370 0d2b 28        	.byte0x28
 5371 0d2c 11        	.byte0x11
 5372 0d2d 029B      	.word0x29b
 5373 0d2f 0000 0D41 	.long0xd41
 5374 0d33 18        	.uleb128 0x18
 5375 0d34 0000 0000 	.long.LASF181
 5376 0d38 11        	.byte0x11
 5377 0d39 029D      	.word0x29d
 5378 0d3b 0000 0C5C 	.long0xc5c
 5379 0d3f 00        	.byte0
 5380 0d40 00        	.byte0
 5381 0d41 04        	.uleb128 0x4
 5382 0d42 0000 0000 	.long.LASF188
 5383 0d46 11        	.byte0x11
 5384 0d47 02A2      	.word0x2a2
 5385 0d49 0000 0D2A 	.long0xd2a
 5386 0d4d 05        	.uleb128 0x5
 5387 0d4e 0000 0D41 	.long0xd41
 5388 0d52 1B        	.uleb128 0x1b
 5389 0d53 28        	.byte0x28
 5390 0d54 11        	.byte0x11
 5391 0d55 02AF      	.word0x2af
 5392 0d57 0000 0D69 	.long0xd69
 5393 0d5b 18        	.uleb128 0x18
 5394 0d5c 0000 0000 	.long.LASF181
 5395 0d60 11        	.byte0x11
 5396 0d61 02B1      	.word0x2b1
 5397 0d63 0000 0C5C 	.long0xc5c
 5398 0d67 00        	.byte0
 5399 0d68 00        	.byte0
 5400 0d69 04        	.uleb128 0x4
 5401 0d6a 0000 0000 	.long.LASF189
 5402 0d6e 11        	.byte0x11
 5403 0d6f 02B4      	.word0x2b4
 5404 0d71 0000 0D52 	.long0xd52
 5405 0d75 05        	.uleb128 0x5
 5406 0d76 0000 0D69 	.long0xd69
 5407 0d7a 1B        	.uleb128 0x1b
 5408 0d7b 04        	.byte0x4
 5409 0d7c 11        	.byte0x11
 5410 0d7d 02CA      	.word0x2ca
 5411 0d7f 0000 0D91 	.long0xd91
 5412 0d83 18        	.uleb128 0x18
 5413 0d84 0000 0000 	.long.LASF190
 5414 0d88 11        	.byte0x11
 5415 0d89 02CC      	.word0x2cc
 5416 0d8b 0000 0086 	.long0x86
 5417 0d8f 00        	.byte0
 5418 0d90 00        	.byte0
 5419 0d91 04        	.uleb128 0x4
 5420 0d92 0000 0000 	.long.LASF191
 5421 0d96 11        	.byte0x11
 5422 0d97 02CD      	.word0x2cd
 5423 0d99 0000 0D7A 	.long0xd7a
 5424 0d9d 1B        	.uleb128 0x1b
 5425 0d9e 0C        	.byte0xc
68K GAS   			page 136


 5426 0d9f 11        	.byte0x11
 5427 0da0 02CF      	.word0x2cf
 5428 0da2 0000 0DC1 	.long0xdc1
 5429 0da6 18        	.uleb128 0x18
 5430 0da7 0000 0000 	.long.LASF192
 5431 0dab 11        	.byte0x11
 5432 0dac 02D1      	.word0x2d1
 5433 0dae 0000 0B38 	.long0xb38
 5434 0db2 00        	.byte0
 5435 0db3 18        	.uleb128 0x18
 5436 0db4 0000 0000 	.long.LASF193
 5437 0db8 11        	.byte0x11
 5438 0db9 02D2      	.word0x2d2
 5439 0dbb 0000 0D91 	.long0xd91
 5440 0dbf 08        	.byte0x8
 5441 0dc0 00        	.byte0
 5442 0dc1 04        	.uleb128 0x4
 5443 0dc2 0000 0000 	.long.LASF194
 5444 0dc6 11        	.byte0x11
 5445 0dc7 02D3      	.word0x2d3
 5446 0dc9 0000 0D9D 	.long0xd9d
 5447 0dcd 22        	.uleb128 0x22
 5448 0dce 011C      	.word0x11c
 5449 0dd0 11        	.byte0x11
 5450 0dd1 02DC      	.word0x2dc
 5451 0dd3 0000 0EDC 	.long0xedc
 5452 0dd7 18        	.uleb128 0x18
 5453 0dd8 0000 0000 	.long.LASF195
 5454 0ddc 11        	.byte0x11
 5455 0ddd 02E1      	.word0x2e1
 5456 0ddf 0000 0069 	.long0x69
 5457 0de3 00        	.byte0
 5458 0de4 18        	.uleb128 0x18
 5459 0de5 0000 0000 	.long.LASF196
 5460 0de9 11        	.byte0x11
 5461 0dea 02E3      	.word0x2e3
 5462 0dec 0000 0069 	.long0x69
 5463 0df0 01        	.byte0x1
 5464 0df1 18        	.uleb128 0x18
 5465 0df2 0000 0000 	.long.LASF197
 5466 0df6 11        	.byte0x11
 5467 0df7 02E9      	.word0x2e9
 5468 0df9 0000 0074 	.long0x74
 5469 0dfd 02        	.byte0x2
 5470 0dfe 18        	.uleb128 0x18
 5471 0dff 0000 0000 	.long.LASF198
 5472 0e03 11        	.byte0x11
 5473 0e04 02EB      	.word0x2eb
 5474 0e06 0000 0074 	.long0x74
 5475 0e0a 04        	.byte0x4
 5476 0e0b 18        	.uleb128 0x18
 5477 0e0c 0000 0000 	.long.LASF199
 5478 0e10 11        	.byte0x11
 5479 0e11 02F1      	.word0x2f1
 5480 0e13 0000 0074 	.long0x74
 5481 0e17 06        	.byte0x6
 5482 0e18 18        	.uleb128 0x18
68K GAS   			page 137


 5483 0e19 0000 0000 	.long.LASF200
 5484 0e1d 11        	.byte0x11
 5485 0e1e 02F3      	.word0x2f3
 5486 0e20 0000 0086 	.long0x86
 5487 0e24 08        	.byte0x8
 5488 0e25 18        	.uleb128 0x18
 5489 0e26 0000 0000 	.long.LASF201
 5490 0e2a 11        	.byte0x11
 5491 0e2b 02F5      	.word0x2f5
 5492 0e2d 0000 0050 	.long0x50
 5493 0e31 0C        	.byte0xc
 5494 0e32 18        	.uleb128 0x18
 5495 0e33 0000 0000 	.long.LASF202
 5496 0e37 11        	.byte0x11
 5497 0e38 02F7      	.word0x2f7
 5498 0e3a 0000 00AA 	.long0xaa
 5499 0e3e 10        	.byte0x10
 5500 0e3f 18        	.uleb128 0x18
 5501 0e40 0000 0000 	.long.LASF203
 5502 0e44 11        	.byte0x11
 5503 0e45 02F9      	.word0x2f9
 5504 0e47 0000 0C5C 	.long0xc5c
 5505 0e4b 11        	.byte0x11
 5506 0e4c 18        	.uleb128 0x18
 5507 0e4d 0000 0000 	.long.LASF204
 5508 0e51 11        	.byte0x11
 5509 0e52 02FB      	.word0x2fb
 5510 0e54 0000 0069 	.long0x69
 5511 0e58 39        	.byte0x39
 5512 0e59 18        	.uleb128 0x18
 5513 0e5a 0000 0000 	.long.LASF205
 5514 0e5e 11        	.byte0x11
 5515 0e5f 02FD      	.word0x2fd
 5516 0e61 0000 0069 	.long0x69
 5517 0e65 3A        	.byte0x3a
 5518 0e66 18        	.uleb128 0x18
 5519 0e67 0000 0000 	.long.LASF206
 5520 0e6b 11        	.byte0x11
 5521 0e6c 02FF      	.word0x2ff
 5522 0e6e 0000 0069 	.long0x69
 5523 0e72 3B        	.byte0x3b
 5524 0e73 18        	.uleb128 0x18
 5525 0e74 0000 0000 	.long.LASF207
 5526 0e78 11        	.byte0x11
 5527 0e79 0305      	.word0x305
 5528 0e7b 0000 0069 	.long0x69
 5529 0e7f 3C        	.byte0x3c
 5530 0e80 18        	.uleb128 0x18
 5531 0e81 0000 0000 	.long.LASF208
 5532 0e85 11        	.byte0x11
 5533 0e86 0307      	.word0x307
 5534 0e88 0000 0069 	.long0x69
 5535 0e8c 3D        	.byte0x3d
 5536 0e8d 18        	.uleb128 0x18
 5537 0e8e 0000 0000 	.long.LASF209
 5538 0e92 11        	.byte0x11
 5539 0e93 0309      	.word0x309
68K GAS   			page 138


 5540 0e95 0000 0B20 	.long0xb20
 5541 0e99 40        	.byte0x40
 5542 0e9a 18        	.uleb128 0x18
 5543 0e9b 0000 0000 	.long.LASF210
 5544 0e9f 11        	.byte0x11
 5545 0ea0 030B      	.word0x30b
 5546 0ea2 0000 00E3 	.long0xe3
 5547 0ea6 44        	.byte0x44
 5548 0ea7 18        	.uleb128 0x18
 5549 0ea8 0000 0000 	.long.LASF211
 5550 0eac 11        	.byte0x11
 5551 0ead 030D      	.word0x30d
 5552 0eaf 0000 0C5C 	.long0xc5c
 5553 0eb3 4C        	.byte0x4c
 5554 0eb4 18        	.uleb128 0x18
 5555 0eb5 0000 0000 	.long.LASF212
 5556 0eb9 11        	.byte0x11
 5557 0eba 030F      	.word0x30f
 5558 0ebc 0000 0A25 	.long0xa25
 5559 0ec0 74        	.byte0x74
 5560 0ec1 18        	.uleb128 0x18
 5561 0ec2 0000 0000 	.long.LASF213
 5562 0ec6 11        	.byte0x11
 5563 0ec7 0311      	.word0x311
 5564 0ec9 0000 0A25 	.long0xa25
 5565 0ecd B4        	.byte0xb4
 5566 0ece 18        	.uleb128 0x18
 5567 0ecf 0000 0000 	.long.LASF214
 5568 0ed3 11        	.byte0x11
 5569 0ed4 0313      	.word0x313
 5570 0ed6 0000 0C5C 	.long0xc5c
 5571 0eda F4        	.byte0xf4
 5572 0edb 00        	.byte0
 5573 0edc 04        	.uleb128 0x4
 5574 0edd 0000 0000 	.long.LASF215
 5575 0ee1 11        	.byte0x11
 5576 0ee2 0315      	.word0x315
 5577 0ee4 0000 0DCD 	.long0xdcd
 5578 0ee8 22        	.uleb128 0x22
 5579 0ee9 0128      	.word0x128
 5580 0eeb 11        	.byte0x11
 5581 0eec 0317      	.word0x317
 5582 0eee 0000 0F0D 	.long0xf0d
 5583 0ef2 18        	.uleb128 0x18
 5584 0ef3 0000 0000 	.long.LASF216
 5585 0ef7 11        	.byte0x11
 5586 0ef8 0319      	.word0x319
 5587 0efa 0000 0B48 	.long0xb48
 5588 0efe 00        	.byte0
 5589 0eff 18        	.uleb128 0x18
 5590 0f00 0000 0000 	.long.LASF193
 5591 0f04 11        	.byte0x11
 5592 0f05 031A      	.word0x31a
 5593 0f07 0000 0EDC 	.long0xedc
 5594 0f0b 0C        	.byte0xc
 5595 0f0c 00        	.byte0
 5596 0f0d 04        	.uleb128 0x4
68K GAS   			page 139


 5597 0f0e 0000 0000 	.long.LASF217
 5598 0f12 11        	.byte0x11
 5599 0f13 031B      	.word0x31b
 5600 0f15 0000 0EE8 	.long0xee8
 5601 0f19 1B        	.uleb128 0x1b
 5602 0f1a A8        	.byte0xa8
 5603 0f1b 11        	.byte0x11
 5604 0f1c 0321      	.word0x321
 5605 0f1e 0000 1000 	.long0x1000
 5606 0f22 18        	.uleb128 0x18
 5607 0f23 0000 0000 	.long.LASF218
 5608 0f27 11        	.byte0x11
 5609 0f28 0323      	.word0x323
 5610 0f2a 0000 0086 	.long0x86
 5611 0f2e 00        	.byte0
 5612 0f2f 23        	.uleb128 0x23
 5613 0f30 4372 6300 	.string"Crc"
 5614 0f34 11        	.byte0x11
 5615 0f35 0325      	.word0x325
 5616 0f37 0000 0086 	.long0x86
 5617 0f3b 04        	.byte0x4
 5618 0f3c 18        	.uleb128 0x18
 5619 0f3d 0000 0000 	.long.LASF219
 5620 0f41 11        	.byte0x11
 5621 0f42 0327      	.word0x327
 5622 0f44 0000 009F 	.long0x9f
 5623 0f48 08        	.byte0x8
 5624 0f49 18        	.uleb128 0x18
 5625 0f4a 0000 0000 	.long.LASF220
 5626 0f4e 11        	.byte0x11
 5627 0f4f 0329      	.word0x329
 5628 0f51 0000 009F 	.long0x9f
 5629 0f55 0C        	.byte0xc
 5630 0f56 18        	.uleb128 0x18
 5631 0f57 0000 0000 	.long.LASF221
 5632 0f5b 11        	.byte0x11
 5633 0f5c 032B      	.word0x32b
 5634 0f5e 0000 009F 	.long0x9f
 5635 0f62 10        	.byte0x10
 5636 0f63 18        	.uleb128 0x18
 5637 0f64 0000 0000 	.long.LASF222
 5638 0f68 11        	.byte0x11
 5639 0f69 032D      	.word0x32d
 5640 0f6b 0000 00E3 	.long0xe3
 5641 0f6f 14        	.byte0x14
 5642 0f70 18        	.uleb128 0x18
 5643 0f71 0000 0000 	.long.LASF223
 5644 0f75 11        	.byte0x11
 5645 0f76 032F      	.word0x32f
 5646 0f78 0000 0086 	.long0x86
 5647 0f7c 1C        	.byte0x1c
 5648 0f7d 18        	.uleb128 0x18
 5649 0f7e 0000 0000 	.long.LASF224
 5650 0f82 11        	.byte0x11
 5651 0f83 0331      	.word0x331
 5652 0f85 0000 0086 	.long0x86
 5653 0f89 20        	.byte0x20
68K GAS   			page 140


 5654 0f8a 18        	.uleb128 0x18
 5655 0f8b 0000 0000 	.long.LASF225
 5656 0f8f 11        	.byte0x11
 5657 0f90 0333      	.word0x333
 5658 0f92 0000 00AA 	.long0xaa
 5659 0f96 24        	.byte0x24
 5660 0f97 18        	.uleb128 0x18
 5661 0f98 0000 0000 	.long.LASF226
 5662 0f9c 11        	.byte0x11
 5663 0f9d 0335      	.word0x335
 5664 0f9f 0000 00AA 	.long0xaa
 5665 0fa3 25        	.byte0x25
 5666 0fa4 18        	.uleb128 0x18
 5667 0fa5 0000 0000 	.long.LASF227
 5668 0fa9 11        	.byte0x11
 5669 0faa 0337      	.word0x337
 5670 0fac 0000 00AA 	.long0xaa
 5671 0fb0 26        	.byte0x26
 5672 0fb1 18        	.uleb128 0x18
 5673 0fb2 0000 0000 	.long.LASF228
 5674 0fb6 11        	.byte0x11
 5675 0fb7 0339      	.word0x339
 5676 0fb9 0000 00AA 	.long0xaa
 5677 0fbd 27        	.byte0x27
 5678 0fbe 18        	.uleb128 0x18
 5679 0fbf 0000 0000 	.long.LASF229
 5680 0fc3 11        	.byte0x11
 5681 0fc4 033B      	.word0x33b
 5682 0fc6 0000 0C5C 	.long0xc5c
 5683 0fca 28        	.byte0x28
 5684 0fcb 18        	.uleb128 0x18
 5685 0fcc 0000 0000 	.long.LASF212
 5686 0fd0 11        	.byte0x11
 5687 0fd1 033D      	.word0x33d
 5688 0fd3 0000 0A25 	.long0xa25
 5689 0fd7 50        	.byte0x50
 5690 0fd8 18        	.uleb128 0x18
 5691 0fd9 0000 0000 	.long.LASF230
 5692 0fdd 11        	.byte0x11
 5693 0fde 033F      	.word0x33f
 5694 0fe0 0000 00F5 	.long0xf5
 5695 0fe4 90        	.byte0x90
 5696 0fe5 18        	.uleb128 0x18
 5697 0fe6 0000 0000 	.long.LASF231
 5698 0fea 11        	.byte0x11
 5699 0feb 0341      	.word0x341
 5700 0fed 0000 00AA 	.long0xaa
 5701 0ff1 A4        	.byte0xa4
 5702 0ff2 18        	.uleb128 0x18
 5703 0ff3 0000 0000 	.long.LASF232
 5704 0ff7 11        	.byte0x11
 5705 0ff8 0343      	.word0x343
 5706 0ffa 0000 0069 	.long0x69
 5707 0ffe A5        	.byte0xa5
 5708 0fff 00        	.byte0
 5709 1000 04        	.uleb128 0x4
 5710 1001 0000 0000 	.long.LASF233
68K GAS   			page 141


 5711 1005 11        	.byte0x11
 5712 1006 0345      	.word0x345
 5713 1008 0000 0F19 	.long0xf19
 5714 100c 1B        	.uleb128 0x1b
 5715 100d B4        	.byte0xb4
 5716 100e 11        	.byte0x11
 5717 100f 0347      	.word0x347
 5718 1011 0000 1030 	.long0x1030
 5719 1015 18        	.uleb128 0x18
 5720 1016 0000 0000 	.long.LASF216
 5721 101a 11        	.byte0x11
 5722 101b 0349      	.word0x349
 5723 101d 0000 0B48 	.long0xb48
 5724 1021 00        	.byte0
 5725 1022 18        	.uleb128 0x18
 5726 1023 0000 0000 	.long.LASF193
 5727 1027 11        	.byte0x11
 5728 1028 034A      	.word0x34a
 5729 102a 0000 1000 	.long0x1000
 5730 102e 0C        	.byte0xc
 5731 102f 00        	.byte0
 5732 1030 04        	.uleb128 0x4
 5733 1031 0000 0000 	.long.LASF234
 5734 1035 11        	.byte0x11
 5735 1036 034B      	.word0x34b
 5736 1038 0000 100C 	.long0x100c
 5737 103c 24        	.uleb128 0x24
 5738 103d 07        	.byte0x7
 5739 103e 04        	.byte0x4
 5740 103f 0000 0154 	.long0x154
 5741 1043 12        	.byte0x12
 5742 1044 6D        	.byte0x6d
 5743 1045 0000 105C 	.long0x105c
 5744 1049 25        	.uleb128 0x25
 5745 104a 0000 0000 	.long.LASF235
 5746 104e 00        	.byte0
 5747 104f 25        	.uleb128 0x25
 5748 1050 0000 0000 	.long.LASF236
 5749 1054 01        	.byte0x1
 5750 1055 25        	.uleb128 0x25
 5751 1056 0000 0000 	.long.LASF237
 5752 105a 02        	.byte0x2
 5753 105b 00        	.byte0
 5754 105c 02        	.uleb128 0x2
 5755 105d 0000 0000 	.long.LASF238
 5756 1061 12        	.byte0x12
 5757 1062 71        	.byte0x71
 5758 1063 0000 103C 	.long0x103c
 5759 1067 24        	.uleb128 0x24
 5760 1068 07        	.byte0x7
 5761 1069 04        	.byte0x4
 5762 106a 0000 0154 	.long0x154
 5763 106e 12        	.byte0x12
 5764 106f 78        	.byte0x78
 5765 1070 0000 1087 	.long0x1087
 5766 1074 25        	.uleb128 0x25
 5767 1075 0000 0000 	.long.LASF239
68K GAS   			page 142


 5768 1079 00        	.byte0
 5769 107a 25        	.uleb128 0x25
 5770 107b 0000 0000 	.long.LASF240
 5771 107f 01        	.byte0x1
 5772 1080 25        	.uleb128 0x25
 5773 1081 0000 0000 	.long.LASF241
 5774 1085 02        	.byte0x2
 5775 1086 00        	.byte0
 5776 1087 02        	.uleb128 0x2
 5777 1088 0000 0000 	.long.LASF242
 5778 108c 12        	.byte0x12
 5779 108d 7C        	.byte0x7c
 5780 108e 0000 1067 	.long0x1067
 5781 1092 06        	.uleb128 0x6
 5782 1093 38        	.byte0x38
 5783 1094 12        	.byte0x12
 5784 1095 85        	.byte0x85
 5785 1096 0000 10D7 	.long0x10d7
 5786 109a 07        	.uleb128 0x7
 5787 109b 0000 0000 	.long.LASF243
 5788 109f 12        	.byte0x12
 5789 10a0 87        	.byte0x87
 5790 10a1 0000 105C 	.long0x105c
 5791 10a5 00        	.byte0
 5792 10a6 07        	.uleb128 0x7
 5793 10a7 0000 0000 	.long.LASF244
 5794 10ab 12        	.byte0x12
 5795 10ac 88        	.byte0x88
 5796 10ad 0000 0050 	.long0x50
 5797 10b1 04        	.byte0x4
 5798 10b2 07        	.uleb128 0x7
 5799 10b3 0000 0000 	.long.LASF245
 5800 10b7 12        	.byte0x12
 5801 10b8 89        	.byte0x89
 5802 10b9 0000 0086 	.long0x86
 5803 10bd 08        	.byte0x8
 5804 10be 07        	.uleb128 0x7
 5805 10bf 0000 0000 	.long.LASF202
 5806 10c3 12        	.byte0x12
 5807 10c4 8A        	.byte0x8a
 5808 10c5 0000 00AA 	.long0xaa
 5809 10c9 0C        	.byte0xc
 5810 10ca 07        	.uleb128 0x7
 5811 10cb 0000 0000 	.long.LASF181
 5812 10cf 12        	.byte0x12
 5813 10d0 8B        	.byte0x8b
 5814 10d1 0000 0C5C 	.long0xc5c
 5815 10d5 0D        	.byte0xd
 5816 10d6 00        	.byte0
 5817 10d7 02        	.uleb128 0x2
 5818 10d8 0000 0000 	.long.LASF246
 5819 10dc 12        	.byte0x12
 5820 10dd 8C        	.byte0x8c
 5821 10de 0000 1092 	.long0x1092
 5822 10e2 26        	.uleb128 0x26
 5823 10e3 0008 0004 	.long0x80004
 5824 10e7 12        	.byte0x12
68K GAS   			page 143


 5825 10e8 94        	.byte0x94
 5826 10e9 0000 1106 	.long0x1106
 5827 10ed 07        	.uleb128 0x7
 5828 10ee 0000 0000 	.long.LASF247
 5829 10f2 12        	.byte0x12
 5830 10f3 96        	.byte0x96
 5831 10f4 0000 0B20 	.long0xb20
 5832 10f8 00        	.byte0
 5833 10f9 07        	.uleb128 0x7
 5834 10fa 0000 0000 	.long.LASF248
 5835 10fe 12        	.byte0x12
 5836 10ff 97        	.byte0x97
 5837 1100 0000 1106 	.long0x1106
 5838 1104 04        	.byte0x4
 5839 1105 00        	.byte0
 5840 1106 09        	.uleb128 0x9
 5841 1107 0000 0069 	.long0x69
 5842 110b 0000 1119 	.long0x1119
 5843 110f 27        	.uleb128 0x27
 5844 1110 0000 0091 	.long0x91
 5845 1114 0007 FFFF 	.long0x7ffff
 5846 1118 00        	.byte0
 5847 1119 02        	.uleb128 0x2
 5848 111a 0000 0000 	.long.LASF249
 5849 111e 12        	.byte0x12
 5850 111f 98        	.byte0x98
 5851 1120 0000 10E2 	.long0x10e2
 5852 1124 06        	.uleb128 0x6
 5853 1125 54        	.byte0x54
 5854 1126 12        	.byte0x12
 5855 1127 A2        	.byte0xa2
 5856 1128 0000 1181 	.long0x1181
 5857 112c 07        	.uleb128 0x7
 5858 112d 0000 0000 	.long.LASF250
 5859 1131 12        	.byte0x12
 5860 1132 A4        	.byte0xa4
 5861 1133 0000 0AE3 	.long0xae3
 5862 1137 00        	.byte0
 5863 1138 07        	.uleb128 0x7
 5864 1139 0000 0000 	.long.LASF223
 5865 113d 12        	.byte0x12
 5866 113e A5        	.byte0xa5
 5867 113f 0000 0086 	.long0x86
 5868 1143 04        	.byte0x4
 5869 1144 07        	.uleb128 0x7
 5870 1145 0000 0000 	.long.LASF224
 5871 1149 12        	.byte0x12
 5872 114a A6        	.byte0xa6
 5873 114b 0000 0086 	.long0x86
 5874 114f 08        	.byte0x8
 5875 1150 11        	.uleb128 0x11
 5876 1151 4372 6300 	.string"Crc"
 5877 1155 12        	.byte0x12
 5878 1156 A7        	.byte0xa7
 5879 1157 0000 0086 	.long0x86
 5880 115b 0C        	.byte0xc
 5881 115c 07        	.uleb128 0x7
68K GAS   			page 144


 5882 115d 0000 0000 	.long.LASF251
 5883 1161 12        	.byte0x12
 5884 1162 A8        	.byte0xa8
 5885 1163 0000 00AA 	.long0xaa
 5886 1167 10        	.byte0x10
 5887 1168 07        	.uleb128 0x7
 5888 1169 0000 0000 	.long.LASF252
 5889 116d 12        	.byte0x12
 5890 116e A9        	.byte0xa9
 5891 116f 0000 00AA 	.long0xaa
 5892 1173 11        	.byte0x11
 5893 1174 07        	.uleb128 0x7
 5894 1175 0000 0000 	.long.LASF253
 5895 1179 12        	.byte0x12
 5896 117a AA        	.byte0xaa
 5897 117b 0000 0A25 	.long0xa25
 5898 117f 12        	.byte0x12
 5899 1180 00        	.byte0
 5900 1181 02        	.uleb128 0x2
 5901 1182 0000 0000 	.long.LASF254
 5902 1186 12        	.byte0x12
 5903 1187 AB        	.byte0xab
 5904 1188 0000 1124 	.long0x1124
 5905 118c 06        	.uleb128 0x6
 5906 118d 10        	.byte0x10
 5907 118e 12        	.byte0x12
 5908 118f B6        	.byte0xb6
 5909 1190 0000 11F5 	.long0x11f5
 5910 1194 07        	.uleb128 0x7
 5911 1195 0000 0000 	.long.LASF255
 5912 1199 12        	.byte0x12
 5913 119a B8        	.byte0xb8
 5914 119b 0000 0086 	.long0x86
 5915 119f 00        	.byte0
 5916 11a0 07        	.uleb128 0x7
 5917 11a1 0000 0000 	.long.LASF256
 5918 11a5 12        	.byte0x12
 5919 11a6 B9        	.byte0xb9
 5920 11a7 0000 003E 	.long0x3e
 5921 11ab 04        	.byte0x4
 5922 11ac 07        	.uleb128 0x7
 5923 11ad 0000 0000 	.long.LASF257
 5924 11b1 12        	.byte0x12
 5925 11b2 BA        	.byte0xba
 5926 11b3 0000 0BF8 	.long0xbf8
 5927 11b7 06        	.byte0x6
 5928 11b8 07        	.uleb128 0x7
 5929 11b9 0000 0000 	.long.LASF258
 5930 11bd 12        	.byte0x12
 5931 11be BB        	.byte0xbb
 5932 11bf 0000 0BF8 	.long0xbf8
 5933 11c3 08        	.byte0x8
 5934 11c4 07        	.uleb128 0x7
 5935 11c5 0000 0000 	.long.LASF259
 5936 11c9 12        	.byte0x12
 5937 11ca BC        	.byte0xbc
 5938 11cb 0000 00AA 	.long0xaa
68K GAS   			page 145


 5939 11cf 0A        	.byte0xa
 5940 11d0 07        	.uleb128 0x7
 5941 11d1 0000 0000 	.long.LASF260
 5942 11d5 12        	.byte0x12
 5943 11d6 BD        	.byte0xbd
 5944 11d7 0000 00AA 	.long0xaa
 5945 11db 0B        	.byte0xb
 5946 11dc 07        	.uleb128 0x7
 5947 11dd 0000 0000 	.long.LASF261
 5948 11e1 12        	.byte0x12
 5949 11e2 BE        	.byte0xbe
 5950 11e3 0000 00AA 	.long0xaa
 5951 11e7 0C        	.byte0xc
 5952 11e8 07        	.uleb128 0x7
 5953 11e9 0000 0000 	.long.LASF262
 5954 11ed 12        	.byte0x12
 5955 11ee BF        	.byte0xbf
 5956 11ef 0000 0069 	.long0x69
 5957 11f3 0D        	.byte0xd
 5958 11f4 00        	.byte0
 5959 11f5 02        	.uleb128 0x2
 5960 11f6 0000 0000 	.long.LASF263
 5961 11fa 12        	.byte0x12
 5962 11fb C0        	.byte0xc0
 5963 11fc 0000 118C 	.long0x118c
 5964 1200 28        	.uleb128 0x28
 5965 1201 0150      	.word0x150
 5966 1203 12        	.byte0x12
 5967 1204 C9        	.byte0xc9
 5968 1205 0000 132B 	.long0x132b
 5969 1209 07        	.uleb128 0x7
 5970 120a 0000 0000 	.long.LASF264
 5971 120e 12        	.byte0x12
 5972 120f CB        	.byte0xcb
 5973 1210 0000 0086 	.long0x86
 5974 1214 00        	.byte0
 5975 1215 07        	.uleb128 0x7
 5976 1216 0000 0000 	.long.LASF218
 5977 121a 12        	.byte0x12
 5978 121b CC        	.byte0xcc
 5979 121c 0000 0086 	.long0x86
 5980 1220 04        	.byte0x4
 5981 1221 07        	.uleb128 0x7
 5982 1222 0000 0000 	.long.LASF265
 5983 1226 12        	.byte0x12
 5984 1227 CD        	.byte0xcd
 5985 1228 0000 0086 	.long0x86
 5986 122c 08        	.byte0x8
 5987 122d 07        	.uleb128 0x7
 5988 122e 0000 0000 	.long.LASF266
 5989 1232 12        	.byte0x12
 5990 1233 CE        	.byte0xce
 5991 1234 0000 0086 	.long0x86
 5992 1238 0C        	.byte0xc
 5993 1239 07        	.uleb128 0x7
 5994 123a 0000 0000 	.long.LASF267
 5995 123e 12        	.byte0x12
68K GAS   			page 146


 5996 123f CF        	.byte0xcf
 5997 1240 0000 132B 	.long0x132b
 5998 1244 10        	.byte0x10
 5999 1245 07        	.uleb128 0x7
 6000 1246 0000 0000 	.long.LASF221
 6001 124a 12        	.byte0x12
 6002 124b D0        	.byte0xd0
 6003 124c 0000 0BD8 	.long0xbd8
 6004 1250 B8        	.byte0xb8
 6005 1251 07        	.uleb128 0x7
 6006 1252 0000 0000 	.long.LASF222
 6007 1256 12        	.byte0x12
 6008 1257 D1        	.byte0xd1
 6009 1258 0000 00E3 	.long0xe3
 6010 125c BC        	.byte0xbc
 6011 125d 07        	.uleb128 0x7
 6012 125e 0000 0000 	.long.LASF268
 6013 1262 12        	.byte0x12
 6014 1263 D2        	.byte0xd2
 6015 1264 0000 0BF8 	.long0xbf8
 6016 1268 C4        	.byte0xc4
 6017 1269 07        	.uleb128 0x7
 6018 126a 0000 0000 	.long.LASF269
 6019 126e 12        	.byte0x12
 6020 126f D3        	.byte0xd3
 6021 1270 0000 0050 	.long0x50
 6022 1274 C8        	.byte0xc8
 6023 1275 07        	.uleb128 0x7
 6024 1276 0000 0000 	.long.LASF270
 6025 127a 12        	.byte0x12
 6026 127b D4        	.byte0xd4
 6027 127c 0000 0050 	.long0x50
 6028 1280 CC        	.byte0xcc
 6029 1281 07        	.uleb128 0x7
 6030 1282 0000 0000 	.long.LASF271
 6031 1286 12        	.byte0x12
 6032 1287 D5        	.byte0xd5
 6033 1288 0000 0050 	.long0x50
 6034 128c D0        	.byte0xd0
 6035 128d 07        	.uleb128 0x7
 6036 128e 0000 0000 	.long.LASF272
 6037 1292 12        	.byte0x12
 6038 1293 D6        	.byte0xd6
 6039 1294 0000 0050 	.long0x50
 6040 1298 D4        	.byte0xd4
 6041 1299 07        	.uleb128 0x7
 6042 129a 0000 0000 	.long.LASF273
 6043 129e 12        	.byte0x12
 6044 129f D7        	.byte0xd7
 6045 12a0 0000 0B2C 	.long0xb2c
 6046 12a4 D8        	.byte0xd8
 6047 12a5 07        	.uleb128 0x7
 6048 12a6 0000 0000 	.long.LASF274
 6049 12aa 12        	.byte0x12
 6050 12ab D8        	.byte0xd8
 6051 12ac 0000 0074 	.long0x74
 6052 12b0 DC        	.byte0xdc
68K GAS   			page 147


 6053 12b1 07        	.uleb128 0x7
 6054 12b2 0000 0000 	.long.LASF275
 6055 12b6 12        	.byte0x12
 6056 12b7 D9        	.byte0xd9
 6057 12b8 0000 00AA 	.long0xaa
 6058 12bc DE        	.byte0xde
 6059 12bd 07        	.uleb128 0x7
 6060 12be 0000 0000 	.long.LASF225
 6061 12c2 12        	.byte0x12
 6062 12c3 DA        	.byte0xda
 6063 12c4 0000 00AA 	.long0xaa
 6064 12c8 DF        	.byte0xdf
 6065 12c9 07        	.uleb128 0x7
 6066 12ca 0000 0000 	.long.LASF226
 6067 12ce 12        	.byte0x12
 6068 12cf DB        	.byte0xdb
 6069 12d0 0000 00AA 	.long0xaa
 6070 12d4 E0        	.byte0xe0
 6071 12d5 07        	.uleb128 0x7
 6072 12d6 0000 0000 	.long.LASF227
 6073 12da 12        	.byte0x12
 6074 12db DC        	.byte0xdc
 6075 12dc 0000 00AA 	.long0xaa
 6076 12e0 E1        	.byte0xe1
 6077 12e1 07        	.uleb128 0x7
 6078 12e2 0000 0000 	.long.LASF228
 6079 12e6 12        	.byte0x12
 6080 12e7 DD        	.byte0xdd
 6081 12e8 0000 00AA 	.long0xaa
 6082 12ec E2        	.byte0xe2
 6083 12ed 07        	.uleb128 0x7
 6084 12ee 0000 0000 	.long.LASF276
 6085 12f2 12        	.byte0x12
 6086 12f3 DE        	.byte0xde
 6087 12f4 0000 00AA 	.long0xaa
 6088 12f8 E3        	.byte0xe3
 6089 12f9 07        	.uleb128 0x7
 6090 12fa 0000 0000 	.long.LASF277
 6091 12fe 12        	.byte0x12
 6092 12ff DF        	.byte0xdf
 6093 1300 0000 00AA 	.long0xaa
 6094 1304 E4        	.byte0xe4
 6095 1305 07        	.uleb128 0x7
 6096 1306 0000 0000 	.long.LASF278
 6097 130a 12        	.byte0x12
 6098 130b E1        	.byte0xe1
 6099 130c 0000 0069 	.long0x69
 6100 1310 E5        	.byte0xe5
 6101 1311 07        	.uleb128 0x7
 6102 1312 0000 0000 	.long.LASF229
 6103 1316 12        	.byte0x12
 6104 1317 E2        	.byte0xe2
 6105 1318 0000 0C5C 	.long0xc5c
 6106 131c E6        	.byte0xe6
 6107 131d 13        	.uleb128 0x13
 6108 131e 0000 0000 	.long.LASF212
 6109 1322 12        	.byte0x12
68K GAS   			page 148


 6110 1323 E3        	.byte0xe3
 6111 1324 0000 0A25 	.long0xa25
 6112 1328 010E      	.word0x10e
 6113 132a 00        	.byte0
 6114 132b 09        	.uleb128 0x9
 6115 132c 0000 1181 	.long0x1181
 6116 1330 0000 133B 	.long0x133b
 6117 1334 0A        	.uleb128 0xa
 6118 1335 0000 0091 	.long0x91
 6119 1339 01        	.byte0x1
 6120 133a 00        	.byte0
 6121 133b 02        	.uleb128 0x2
 6122 133c 0000 0000 	.long.LASF279
 6123 1340 12        	.byte0x12
 6124 1341 E4        	.byte0xe4
 6125 1342 0000 1200 	.long0x1200
 6126 1346 06        	.uleb128 0x6
 6127 1347 80        	.byte0x80
 6128 1348 12        	.byte0x12
 6129 1349 ED        	.byte0xed
 6130 134a 0000 13A3 	.long0x13a3
 6131 134e 07        	.uleb128 0x7
 6132 134f 0000 0000 	.long.LASF273
 6133 1353 12        	.byte0x12
 6134 1354 EF        	.byte0xef
 6135 1355 0000 0B2C 	.long0xb2c
 6136 1359 00        	.byte0
 6137 135a 07        	.uleb128 0x7
 6138 135b 0000 0000 	.long.LASF223
 6139 135f 12        	.byte0x12
 6140 1360 F0        	.byte0xf0
 6141 1361 0000 0086 	.long0x86
 6142 1365 04        	.byte0x4
 6143 1366 07        	.uleb128 0x7
 6144 1367 0000 0000 	.long.LASF224
 6145 136b 12        	.byte0x12
 6146 136c F1        	.byte0xf1
 6147 136d 0000 0086 	.long0x86
 6148 1371 08        	.byte0x8
 6149 1372 07        	.uleb128 0x7
 6150 1373 0000 0000 	.long.LASF222
 6151 1377 12        	.byte0x12
 6152 1378 F2        	.byte0xf2
 6153 1379 0000 00E3 	.long0xe3
 6154 137d 0C        	.byte0xc
 6155 137e 07        	.uleb128 0x7
 6156 137f 0000 0000 	.long.LASF212
 6157 1383 12        	.byte0x12
 6158 1384 F3        	.byte0xf3
 6159 1385 0000 0A25 	.long0xa25
 6160 1389 14        	.byte0x14
 6161 138a 07        	.uleb128 0x7
 6162 138b 0000 0000 	.long.LASF229
 6163 138f 12        	.byte0x12
 6164 1390 F4        	.byte0xf4
 6165 1391 0000 0C5C 	.long0xc5c
 6166 1395 54        	.byte0x54
68K GAS   			page 149


 6167 1396 07        	.uleb128 0x7
 6168 1397 0000 0000 	.long.LASF225
 6169 139b 12        	.byte0x12
 6170 139c F5        	.byte0xf5
 6171 139d 0000 00AA 	.long0xaa
 6172 13a1 7C        	.byte0x7c
 6173 13a2 00        	.byte0
 6174 13a3 02        	.uleb128 0x2
 6175 13a4 0000 0000 	.long.LASF280
 6176 13a8 12        	.byte0x12
 6177 13a9 F6        	.byte0xf6
 6178 13aa 0000 1346 	.long0x1346
 6179 13ae 06        	.uleb128 0x6
 6180 13af 38        	.byte0x38
 6181 13b0 12        	.byte0x12
 6182 13b1 FE        	.byte0xfe
 6183 13b2 0000 13F8 	.long0x13f8
 6184 13b6 18        	.uleb128 0x18
 6185 13b7 0000 0000 	.long.LASF243
 6186 13bb 12        	.byte0x12
 6187 13bc 0100      	.word0x100
 6188 13be 0000 1087 	.long0x1087
 6189 13c2 00        	.byte0
 6190 13c3 18        	.uleb128 0x18
 6191 13c4 0000 0000 	.long.LASF218
 6192 13c8 12        	.byte0x12
 6193 13c9 0101      	.word0x101
 6194 13cb 0000 0086 	.long0x86
 6195 13cf 04        	.byte0x4
 6196 13d0 18        	.uleb128 0x18
 6197 13d1 0000 0000 	.long.LASF281
 6198 13d5 12        	.byte0x12
 6199 13d6 0102      	.word0x102
 6200 13d8 0000 13F8 	.long0x13f8
 6201 13dc 08        	.byte0x8
 6202 13dd 18        	.uleb128 0x18
 6203 13de 0000 0000 	.long.LASF282
 6204 13e2 12        	.byte0x12
 6205 13e3 0103      	.word0x103
 6206 13e5 0000 13FE 	.long0x13fe
 6207 13e9 0C        	.byte0xc
 6208 13ea 18        	.uleb128 0x18
 6209 13eb 0000 0000 	.long.LASF181
 6210 13ef 12        	.byte0x12
 6211 13f0 0104      	.word0x104
 6212 13f2 0000 0C5C 	.long0xc5c
 6213 13f6 10        	.byte0x10
 6214 13f7 00        	.byte0
 6215 13f8 0E        	.uleb128 0xe
 6216 13f9 04        	.byte0x4
 6217 13fa 0000 1181 	.long0x1181
 6218 13fe 0E        	.uleb128 0xe
 6219 13ff 04        	.byte0x4
 6220 1400 0000 133B 	.long0x133b
 6221 1404 04        	.uleb128 0x4
 6222 1405 0000 0000 	.long.LASF283
 6223 1409 12        	.byte0x12
68K GAS   			page 150


 6224 140a 0105      	.word0x105
 6225 140c 0000 13AE 	.long0x13ae
 6226 1410 1B        	.uleb128 0x1b
 6227 1411 A4        	.byte0xa4
 6228 1412 12        	.byte0x12
 6229 1413 010E      	.word0x10e
 6230 1415 0000 14EA 	.long0x14ea
 6231 1419 18        	.uleb128 0x18
 6232 141a 0000 0000 	.long.LASF218
 6233 141e 12        	.byte0x12
 6234 141f 0110      	.word0x110
 6235 1421 0000 0086 	.long0x86
 6236 1425 00        	.byte0
 6237 1426 18        	.uleb128 0x18
 6238 1427 0000 0000 	.long.LASF222
 6239 142b 12        	.byte0x12
 6240 142c 0111      	.word0x111
 6241 142e 0000 00E3 	.long0xe3
 6242 1432 04        	.byte0x4
 6243 1433 18        	.uleb128 0x18
 6244 1434 0000 0000 	.long.LASF284
 6245 1438 12        	.byte0x12
 6246 1439 0112      	.word0x112
 6247 143b 0000 0086 	.long0x86
 6248 143f 0C        	.byte0xc
 6249 1440 18        	.uleb128 0x18
 6250 1441 0000 0000 	.long.LASF269
 6251 1445 12        	.byte0x12
 6252 1446 0113      	.word0x113
 6253 1448 0000 0050 	.long0x50
 6254 144c 10        	.byte0x10
 6255 144d 18        	.uleb128 0x18
 6256 144e 0000 0000 	.long.LASF223
 6257 1452 12        	.byte0x12
 6258 1453 0114      	.word0x114
 6259 1455 0000 0086 	.long0x86
 6260 1459 14        	.byte0x14
 6261 145a 18        	.uleb128 0x18
 6262 145b 0000 0000 	.long.LASF224
 6263 145f 12        	.byte0x12
 6264 1460 0115      	.word0x115
 6265 1462 0000 0086 	.long0x86
 6266 1466 18        	.byte0x18
 6267 1467 23        	.uleb128 0x23
 6268 1468 4372 6300 	.string"Crc"
 6269 146c 12        	.byte0x12
 6270 146d 0116      	.word0x116
 6271 146f 0000 0086 	.long0x86
 6272 1473 1C        	.byte0x1c
 6273 1474 18        	.uleb128 0x18
 6274 1475 0000 0000 	.long.LASF285
 6275 1479 12        	.byte0x12
 6276 147a 0117      	.word0x117
 6277 147c 0000 00AA 	.long0xaa
 6278 1480 20        	.byte0x20
 6279 1481 18        	.uleb128 0x18
 6280 1482 0000 0000 	.long.LASF225
68K GAS   			page 151


 6281 1486 12        	.byte0x12
 6282 1487 0118      	.word0x118
 6283 1489 0000 00AA 	.long0xaa
 6284 148d 21        	.byte0x21
 6285 148e 18        	.uleb128 0x18
 6286 148f 0000 0000 	.long.LASF226
 6287 1493 12        	.byte0x12
 6288 1494 0119      	.word0x119
 6289 1496 0000 00AA 	.long0xaa
 6290 149a 22        	.byte0x22
 6291 149b 18        	.uleb128 0x18
 6292 149c 0000 0000 	.long.LASF227
 6293 14a0 12        	.byte0x12
 6294 14a1 011A      	.word0x11a
 6295 14a3 0000 00AA 	.long0xaa
 6296 14a7 23        	.byte0x23
 6297 14a8 18        	.uleb128 0x18
 6298 14a9 0000 0000 	.long.LASF228
 6299 14ad 12        	.byte0x12
 6300 14ae 011B      	.word0x11b
 6301 14b0 0000 00AA 	.long0xaa
 6302 14b4 24        	.byte0x24
 6303 14b5 18        	.uleb128 0x18
 6304 14b6 0000 0000 	.long.LASF229
 6305 14ba 12        	.byte0x12
 6306 14bb 011C      	.word0x11c
 6307 14bd 0000 0C5C 	.long0xc5c
 6308 14c1 25        	.byte0x25
 6309 14c2 18        	.uleb128 0x18
 6310 14c3 0000 0000 	.long.LASF212
 6311 14c7 12        	.byte0x12
 6312 14c8 011D      	.word0x11d
 6313 14ca 0000 0A25 	.long0xa25
 6314 14ce 4D        	.byte0x4d
 6315 14cf 18        	.uleb128 0x18
 6316 14d0 0000 0000 	.long.LASF230
 6317 14d4 12        	.byte0x12
 6318 14d5 011E      	.word0x11e
 6319 14d7 0000 00F5 	.long0xf5
 6320 14db 8D        	.byte0x8d
 6321 14dc 18        	.uleb128 0x18
 6322 14dd 0000 0000 	.long.LASF275
 6323 14e1 12        	.byte0x12
 6324 14e2 011F      	.word0x11f
 6325 14e4 0000 00AA 	.long0xaa
 6326 14e8 A1        	.byte0xa1
 6327 14e9 00        	.byte0
 6328 14ea 04        	.uleb128 0x4
 6329 14eb 0000 0000 	.long.LASF286
 6330 14ef 12        	.byte0x12
 6331 14f0 0120      	.word0x120
 6332 14f2 0000 1410 	.long0x1410
 6333 14f6 29        	.uleb128 0x29
 6334 14f7 0008 CE80 	.long0x8ce80
 6335 14fb 12        	.byte0x12
 6336 14fc 0129      	.word0x129
 6337 14fe 0000 166C 	.long0x166c
68K GAS   			page 152


 6338 1502 18        	.uleb128 0x18
 6339 1503 0000 0000 	.long.LASF195
 6340 1507 12        	.byte0x12
 6341 1508 012E      	.word0x12e
 6342 150a 0000 0069 	.long0x69
 6343 150e 00        	.byte0
 6344 150f 18        	.uleb128 0x18
 6345 1510 0000 0000 	.long.LASF196
 6346 1514 12        	.byte0x12
 6347 1515 012F      	.word0x12f
 6348 1517 0000 0069 	.long0x69
 6349 151b 01        	.byte0x1
 6350 151c 18        	.uleb128 0x18
 6351 151d 0000 0000 	.long.LASF204
 6352 1521 12        	.byte0x12
 6353 1522 0134      	.word0x134
 6354 1524 0000 0069 	.long0x69
 6355 1528 02        	.byte0x2
 6356 1529 18        	.uleb128 0x18
 6357 152a 0000 0000 	.long.LASF205
 6358 152e 12        	.byte0x12
 6359 152f 0135      	.word0x135
 6360 1531 0000 0069 	.long0x69
 6361 1535 03        	.byte0x3
 6362 1536 18        	.uleb128 0x18
 6363 1537 0000 0000 	.long.LASF206
 6364 153b 12        	.byte0x12
 6365 153c 0136      	.word0x136
 6366 153e 0000 0069 	.long0x69
 6367 1542 04        	.byte0x4
 6368 1543 18        	.uleb128 0x18
 6369 1544 0000 0000 	.long.LASF287
 6370 1548 12        	.byte0x12
 6371 1549 013B      	.word0x13b
 6372 154b 0000 003E 	.long0x3e
 6373 154f 06        	.byte0x6
 6374 1550 18        	.uleb128 0x18
 6375 1551 0000 0000 	.long.LASF288
 6376 1555 12        	.byte0x12
 6377 1556 0140      	.word0x140
 6378 1558 0000 0F0D 	.long0xf0d
 6379 155c 08        	.byte0x8
 6380 155d 19        	.uleb128 0x19
 6381 155e 0000 0000 	.long.LASF289
 6382 1562 12        	.byte0x12
 6383 1563 0141      	.word0x141
 6384 1565 0000 1030 	.long0x1030
 6385 1569 0130      	.word0x130
 6386 156b 19        	.uleb128 0x19
 6387 156c 0000 0000 	.long.LASF290
 6388 1570 12        	.byte0x12
 6389 1571 0142      	.word0x142
 6390 1573 0000 0DC1 	.long0xdc1
 6391 1577 01E4      	.word0x1e4
 6392 1579 19        	.uleb128 0x19
 6393 157a 0000 0000 	.long.LASF291
 6394 157e 12        	.byte0x12
68K GAS   			page 153


 6395 157f 0147      	.word0x147
 6396 1581 0000 0ACD 	.long0xacd
 6397 1585 01F0      	.word0x1f0
 6398 1587 19        	.uleb128 0x19
 6399 1588 0000 0000 	.long.LASF292
 6400 158c 12        	.byte0x12
 6401 158d 0148      	.word0x148
 6402 158f 0000 0AC2 	.long0xac2
 6403 1593 01F4      	.word0x1f4
 6404 1595 19        	.uleb128 0x19
 6405 1596 0000 0000 	.long.LASF293
 6406 159a 12        	.byte0x12
 6407 159b 014D      	.word0x14d
 6408 159d 0000 166C 	.long0x166c
 6409 15a1 01F5      	.word0x1f5
 6410 15a3 19        	.uleb128 0x19
 6411 15a4 0000 0000 	.long.LASF294
 6412 15a8 12        	.byte0x12
 6413 15a9 014E      	.word0x14e
 6414 15ab 0000 0074 	.long0x74
 6415 15af 0206      	.word0x206
 6416 15b1 19        	.uleb128 0x19
 6417 15b2 0000 0000 	.long.LASF295
 6418 15b6 12        	.byte0x12
 6419 15b7 014F      	.word0x14f
 6420 15b9 0000 0086 	.long0x86
 6421 15bd 0208      	.word0x208
 6422 15bf 19        	.uleb128 0x19
 6423 15c0 0000 0000 	.long.LASF296
 6424 15c4 12        	.byte0x12
 6425 15c5 0151      	.word0x151
 6426 15c7 0000 003E 	.long0x3e
 6427 15cb 020C      	.word0x20c
 6428 15cd 19        	.uleb128 0x19
 6429 15ce 0000 0000 	.long.LASF199
 6430 15d2 12        	.byte0x12
 6431 15d3 0152      	.word0x152
 6432 15d5 0000 0074 	.long0x74
 6433 15d9 020E      	.word0x20e
 6434 15db 19        	.uleb128 0x19
 6435 15dc 0000 0000 	.long.LASF297
 6436 15e0 12        	.byte0x12
 6437 15e1 0157      	.word0x157
 6438 15e3 0000 0086 	.long0x86
 6439 15e7 0210      	.word0x210
 6440 15e9 19        	.uleb128 0x19
 6441 15ea 0000 0000 	.long.LASF298
 6442 15ee 12        	.byte0x12
 6443 15ef 0158      	.word0x158
 6444 15f1 0000 0086 	.long0x86
 6445 15f5 0214      	.word0x214
 6446 15f7 19        	.uleb128 0x19
 6447 15f8 0000 0000 	.long.LASF299
 6448 15fc 12        	.byte0x12
 6449 15fd 0159      	.word0x159
 6450 15ff 0000 0B2C 	.long0xb2c
 6451 1603 0218      	.word0x218
68K GAS   			page 154


 6452 1605 19        	.uleb128 0x19
 6453 1606 0000 0000 	.long.LASF300
 6454 160a 12        	.byte0x12
 6455 160b 015A      	.word0x15a
 6456 160d 0000 167C 	.long0x167c
 6457 1611 021C      	.word0x21c
 6458 1613 19        	.uleb128 0x19
 6459 1614 0000 0000 	.long.LASF301
 6460 1618 12        	.byte0x12
 6461 1619 015F      	.word0x15f
 6462 161b 0000 168C 	.long0x168c
 6463 161f 036C      	.word0x36c
 6464 1621 19        	.uleb128 0x19
 6465 1622 0000 0000 	.long.LASF302
 6466 1626 12        	.byte0x12
 6467 1627 0160      	.word0x160
 6468 1629 0000 169C 	.long0x169c
 6469 162d 136C      	.word0x136c
 6470 162f 19        	.uleb128 0x19
 6471 1630 0000 0000 	.long.LASF303
 6472 1634 12        	.byte0x12
 6473 1635 0161      	.word0x161
 6474 1637 0000 16AC 	.long0x16ac
 6475 163b BB6C      	.word0xbb6c
 6476 163d 2A        	.uleb128 0x2a
 6477 163e 4275 6600 	.string"Buf"
 6478 1642 12        	.byte0x12
 6479 1643 0162      	.word0x162
 6480 1645 0000 1119 	.long0x1119
 6481 1649 CB6C      	.word0xcb6c
 6482 164b 2B        	.uleb128 0x2b
 6483 164c 0000 0000 	.long.LASF304
 6484 1650 12        	.byte0x12
 6485 1651 0163      	.word0x163
 6486 1653 0000 16BC 	.long0x16bc
 6487 1657 0008 CB70 	.long0x8cb70
 6488 165b 2B        	.uleb128 0x2b
 6489 165c 0000 0000 	.long.LASF305
 6490 1660 12        	.byte0x12
 6491 1661 0164      	.word0x164
 6492 1663 0000 16CC 	.long0x16cc
 6493 1667 0008 CDA0 	.long0x8cda0
 6494 166b 00        	.byte0
 6495 166c 09        	.uleb128 0x9
 6496 166d 0000 00B6 	.long0xb6
 6497 1671 0000 167C 	.long0x167c
 6498 1675 0A        	.uleb128 0xa
 6499 1676 0000 0091 	.long0x91
 6500 167a 0F        	.byte0xf
 6501 167b 00        	.byte0
 6502 167c 09        	.uleb128 0x9
 6503 167d 0000 1181 	.long0x1181
 6504 1681 0000 168C 	.long0x168c
 6505 1685 0A        	.uleb128 0xa
 6506 1686 0000 0091 	.long0x91
 6507 168a 03        	.byte0x3
 6508 168b 00        	.byte0
68K GAS   			page 155


 6509 168c 09        	.uleb128 0x9
 6510 168d 0000 11F5 	.long0x11f5
 6511 1691 0000 169C 	.long0x169c
 6512 1695 0A        	.uleb128 0xa
 6513 1696 0000 0091 	.long0x91
 6514 169a FF        	.byte0xff
 6515 169b 00        	.byte0
 6516 169c 09        	.uleb128 0x9
 6517 169d 0000 133B 	.long0x133b
 6518 16a1 0000 16AC 	.long0x16ac
 6519 16a5 0A        	.uleb128 0xa
 6520 16a6 0000 0091 	.long0x91
 6521 16aa 7F        	.byte0x7f
 6522 16ab 00        	.byte0
 6523 16ac 09        	.uleb128 0x9
 6524 16ad 0000 13A3 	.long0x13a3
 6525 16b1 0000 16BC 	.long0x16bc
 6526 16b5 0A        	.uleb128 0xa
 6527 16b6 0000 0091 	.long0x91
 6528 16ba 1F        	.byte0x1f
 6529 16bb 00        	.byte0
 6530 16bc 09        	.uleb128 0x9
 6531 16bd 0000 10D7 	.long0x10d7
 6532 16c1 0000 16CC 	.long0x16cc
 6533 16c5 0A        	.uleb128 0xa
 6534 16c6 0000 0091 	.long0x91
 6535 16ca 09        	.byte0x9
 6536 16cb 00        	.byte0
 6537 16cc 09        	.uleb128 0x9
 6538 16cd 0000 1404 	.long0x1404
 6539 16d1 0000 16DC 	.long0x16dc
 6540 16d5 0A        	.uleb128 0xa
 6541 16d6 0000 0091 	.long0x91
 6542 16da 03        	.byte0x3
 6543 16db 00        	.byte0
 6544 16dc 04        	.uleb128 0x4
 6545 16dd 0000 0000 	.long.LASF306
 6546 16e1 12        	.byte0x12
 6547 16e2 0166      	.word0x166
 6548 16e4 0000 14F6 	.long0x14f6
 6549 16e8 06        	.uleb128 0x6
 6550 16e9 34        	.byte0x34
 6551 16ea 13        	.byte0x13
 6552 16eb 4C        	.byte0x4c
 6553 16ec 0000 1721 	.long0x1721
 6554 16f0 07        	.uleb128 0x7
 6555 16f1 0000 0000 	.long.LASF307
 6556 16f5 13        	.byte0x13
 6557 16f6 4E        	.byte0x4e
 6558 16f7 0000 0086 	.long0x86
 6559 16fb 00        	.byte0
 6560 16fc 07        	.uleb128 0x7
 6561 16fd 0000 0000 	.long.LASF308
 6562 1701 13        	.byte0x13
 6563 1702 4F        	.byte0x4f
 6564 1703 0000 0086 	.long0x86
 6565 1707 04        	.byte0x4
68K GAS   			page 156


 6566 1708 07        	.uleb128 0x7
 6567 1709 0000 0000 	.long.LASF309
 6568 170d 13        	.byte0x13
 6569 170e 50        	.byte0x50
 6570 170f 0000 0086 	.long0x86
 6571 1713 08        	.byte0x8
 6572 1714 07        	.uleb128 0x7
 6573 1715 0000 0000 	.long.LASF181
 6574 1719 13        	.byte0x13
 6575 171a 51        	.byte0x51
 6576 171b 0000 0C5C 	.long0xc5c
 6577 171f 0C        	.byte0xc
 6578 1720 00        	.byte0
 6579 1721 02        	.uleb128 0x2
 6580 1722 0000 0000 	.long.LASF310
 6581 1726 13        	.byte0x13
 6582 1727 52        	.byte0x52
 6583 1728 0000 16E8 	.long0x16e8
 6584 172c 1F        	.uleb128 0x1f
 6585 172d 0000 0000 	.long.LASF311
 6586 1731 14        	.byte0x14
 6587 1732 02A7      	.word0x2a7
 6588 1734 0000 16DC 	.long0x16dc
 6589 1738 24        	.uleb128 0x24
 6590 1739 05        	.byte0x5
 6591 173a 04        	.byte0x4
 6592 173b 0000 00EE 	.long0xee
 6593 173f 15        	.byte0x15
 6594 1740 38        	.byte0x38
 6595 1741 0000 1758 	.long0x1758
 6596 1745 2C        	.uleb128 0x2c
 6597 1746 0000 0000 	.long.LASF312
 6598 174a 7F        	.sleb128 -1
 6599 174b 25        	.uleb128 0x25
 6600 174c 0000 0000 	.long.LASF313
 6601 1750 00        	.byte0
 6602 1751 25        	.uleb128 0x25
 6603 1752 0000 0000 	.long.LASF314
 6604 1756 01        	.byte0x1
 6605 1757 00        	.byte0
 6606 1758 02        	.uleb128 0x2
 6607 1759 0000 0000 	.long.LASF315
 6608 175d 15        	.byte0x15
 6609 175e 3C        	.byte0x3c
 6610 175f 0000 1738 	.long0x1738
 6611 1763 2D        	.uleb128 0x2d
 6612 1764 0000 0000 	.long.LASF349
 6613 1768 01        	.byte0x1
 6614 1769 0601      	.word0x601
 6615 176b 0000 0000 	.long.LFB73
 6616 176f 0000 0062 	.long.LFE73-.LFB73
 6617 1773 01        	.uleb128 0x1
 6618 1774 9C        	.byte0x9c
 6619 1775 0000 1789 	.long0x1789
 6620 1779 2E        	.uleb128 0x2e
 6621 177a 0000 0000 	.long.LASF282
 6622 177e 01        	.byte0x1
68K GAS   			page 157


 6623 177f 0601      	.word0x601
 6624 1781 0000 13FE 	.long0x13fe
 6625 1785 02        	.uleb128 0x2
 6626 1786 91        	.byte0x91
 6627 1787 00        	.sleb128 0
 6628 1788 00        	.byte0
 6629 1789 2F        	.uleb128 0x2f
 6630 178a 0000 0000 	.long.LASF318
 6631 178e 01        	.byte0x1
 6632 178f 05C7      	.word0x5c7
 6633 1791 0000 1758 	.long0x1758
 6634 1795 0000 0000 	.long.LFB72
 6635 1799 0000 00E2 	.long.LFE72-.LFB72
 6636 179d 01        	.uleb128 0x1
 6637 179e 9C        	.byte0x9c
 6638 179f 0000 17FE 	.long0x17fe
 6639 17a3 2E        	.uleb128 0x2e
 6640 17a4 0000 0000 	.long.LASF193
 6641 17a8 01        	.byte0x1
 6642 17a9 05C7      	.word0x5c7
 6643 17ab 0000 0ADE 	.long0xade
 6644 17af 02        	.uleb128 0x2
 6645 17b0 91        	.byte0x91
 6646 17b1 00        	.sleb128 0
 6647 17b2 30        	.uleb128 0x30
 6648 17b3 0000 0000 	.long.LASF316
 6649 17b7 01        	.byte0x1
 6650 17b8 05C9      	.word0x5c9
 6651 17ba 0000 1758 	.long0x1758
 6652 17be 02        	.uleb128 0x2
 6653 17bf 91        	.byte0x91
 6654 17c0 78        	.sleb128 -8
 6655 17c1 30        	.uleb128 0x30
 6656 17c2 0000 0000 	.long.LASF256
 6657 17c6 01        	.byte0x1
 6658 17c7 05CA      	.word0x5ca
 6659 17c9 0000 003E 	.long0x3e
 6660 17cd 02        	.uleb128 0x2
 6661 17ce 91        	.byte0x91
 6662 17cf 72        	.sleb128 -14
 6663 17d0 30        	.uleb128 0x30
 6664 17d1 0000 0000 	.long.LASF317
 6665 17d5 01        	.byte0x1
 6666 17d6 05CB      	.word0x5cb
 6667 17d8 0000 17FE 	.long0x17fe
 6668 17dc 02        	.uleb128 0x2
 6669 17dd 91        	.byte0x91
 6670 17de 74        	.sleb128 -12
 6671 17df 30        	.uleb128 0x30
 6672 17e0 0000 0000 	.long.LASF282
 6673 17e4 01        	.byte0x1
 6674 17e5 05CC      	.word0x5cc
 6675 17e7 0000 13FE 	.long0x13fe
 6676 17eb 02        	.uleb128 0x2
 6677 17ec 91        	.byte0x91
 6678 17ed 6C        	.sleb128 -20
 6679 17ee 30        	.uleb128 0x30
68K GAS   			page 158


 6680 17ef 0000 0000 	.long.LASF181
 6681 17f3 01        	.byte0x1
 6682 17f4 05CD      	.word0x5cd
 6683 17f6 0000 0C5C 	.long0xc5c
 6684 17fa 02        	.uleb128 0x2
 6685 17fb 91        	.byte0x91
 6686 17fc 44        	.sleb128 -60
 6687 17fd 00        	.byte0
 6688 17fe 0E        	.uleb128 0xe
 6689 17ff 04        	.byte0x4
 6690 1800 0000 0D75 	.long0xd75
 6691 1804 2F        	.uleb128 0x2f
 6692 1805 0000 0000 	.long.LASF319
 6693 1809 01        	.byte0x1
 6694 180a 0565      	.word0x565
 6695 180c 0000 1758 	.long0x1758
 6696 1810 0000 0000 	.long.LFB71
 6697 1814 0000 01F0 	.long.LFE71-.LFB71
 6698 1818 01        	.uleb128 0x1
 6699 1819 9C        	.byte0x9c
 6700 181a 0000 1896 	.long0x1896
 6701 181e 2E        	.uleb128 0x2e
 6702 181f 0000 0000 	.long.LASF193
 6703 1823 01        	.byte0x1
 6704 1824 0565      	.word0x565
 6705 1826 0000 0ADE 	.long0xade
 6706 182a 02        	.uleb128 0x2
 6707 182b 91        	.byte0x91
 6708 182c 00        	.sleb128 0
 6709 182d 30        	.uleb128 0x30
 6710 182e 0000 0000 	.long.LASF316
 6711 1832 01        	.byte0x1
 6712 1833 0567      	.word0x567
 6713 1835 0000 1758 	.long0x1758
 6714 1839 02        	.uleb128 0x2
 6715 183a 91        	.byte0x91
 6716 183b 78        	.sleb128 -8
 6717 183c 30        	.uleb128 0x30
 6718 183d 0000 0000 	.long.LASF317
 6719 1841 01        	.byte0x1
 6720 1842 0568      	.word0x568
 6721 1844 0000 1896 	.long0x1896
 6722 1848 02        	.uleb128 0x2
 6723 1849 91        	.byte0x91
 6724 184a 6C        	.sleb128 -20
 6725 184b 30        	.uleb128 0x30
 6726 184c 0000 0000 	.long.LASF181
 6727 1850 01        	.byte0x1
 6728 1851 0569      	.word0x569
 6729 1853 0000 0C5C 	.long0xc5c
 6730 1857 03        	.uleb128 0x3
 6731 1858 91        	.byte0x91
 6732 1859 BC7F      	.sleb128 -68
 6733 185b 30        	.uleb128 0x30
 6734 185c 0000 0000 	.long.LASF320
 6735 1860 01        	.byte0x1
 6736 1861 056A      	.word0x56a
68K GAS   			page 159


 6737 1863 0000 189C 	.long0x189c
 6738 1867 02        	.uleb128 0x2
 6739 1868 91        	.byte0x91
 6740 1869 74        	.sleb128 -12
 6741 186a 31        	.uleb128 0x31
 6742 186b 6900      	.string"i"
 6743 186d 01        	.byte0x1
 6744 186e 056B      	.word0x56b
 6745 1870 0000 0086 	.long0x86
 6746 1874 02        	.uleb128 0x2
 6747 1875 91        	.byte0x91
 6748 1876 70        	.sleb128 -16
 6749 1877 30        	.uleb128 0x30
 6750 1878 0000 0000 	.long.LASF256
 6751 187c 01        	.byte0x1
 6752 187d 056C      	.word0x56c
 6753 187f 0000 0086 	.long0x86
 6754 1883 02        	.uleb128 0x2
 6755 1884 91        	.byte0x91
 6756 1885 68        	.sleb128 -24
 6757 1886 30        	.uleb128 0x30
 6758 1887 0000 0000 	.long.LASF321
 6759 188b 01        	.byte0x1
 6760 188c 056D      	.word0x56d
 6761 188e 0000 0050 	.long0x50
 6762 1892 02        	.uleb128 0x2
 6763 1893 91        	.byte0x91
 6764 1894 64        	.sleb128 -28
 6765 1895 00        	.byte0
 6766 1896 0E        	.uleb128 0xe
 6767 1897 04        	.byte0x4
 6768 1898 0000 0D4D 	.long0xd4d
 6769 189c 0E        	.uleb128 0xe
 6770 189d 04        	.byte0x4
 6771 189e 0000 13A3 	.long0x13a3
 6772 18a2 2F        	.uleb128 0x2f
 6773 18a3 0000 0000 	.long.LASF322
 6774 18a7 01        	.byte0x1
 6775 18a8 0536      	.word0x536
 6776 18aa 0000 1758 	.long0x1758
 6777 18ae 0000 0000 	.long.LFB70
 6778 18b2 0000 00A8 	.long.LFE70-.LFB70
 6779 18b6 01        	.uleb128 0x1
 6780 18b7 9C        	.byte0x9c
 6781 18b8 0000 1908 	.long0x1908
 6782 18bc 2E        	.uleb128 0x2e
 6783 18bd 0000 0000 	.long.LASF193
 6784 18c1 01        	.byte0x1
 6785 18c2 0536      	.word0x536
 6786 18c4 0000 0ADE 	.long0xade
 6787 18c8 02        	.uleb128 0x2
 6788 18c9 91        	.byte0x91
 6789 18ca 00        	.sleb128 0
 6790 18cb 30        	.uleb128 0x30
 6791 18cc 0000 0000 	.long.LASF316
 6792 18d0 01        	.byte0x1
 6793 18d1 0538      	.word0x538
68K GAS   			page 160


 6794 18d3 0000 1758 	.long0x1758
 6795 18d7 02        	.uleb128 0x2
 6796 18d8 91        	.byte0x91
 6797 18d9 78        	.sleb128 -8
 6798 18da 30        	.uleb128 0x30
 6799 18db 0000 0000 	.long.LASF256
 6800 18df 01        	.byte0x1
 6801 18e0 0539      	.word0x539
 6802 18e2 0000 003E 	.long0x3e
 6803 18e6 02        	.uleb128 0x2
 6804 18e7 91        	.byte0x91
 6805 18e8 72        	.sleb128 -14
 6806 18e9 30        	.uleb128 0x30
 6807 18ea 0000 0000 	.long.LASF317
 6808 18ee 01        	.byte0x1
 6809 18ef 053A      	.word0x53a
 6810 18f1 0000 1908 	.long0x1908
 6811 18f5 02        	.uleb128 0x2
 6812 18f6 91        	.byte0x91
 6813 18f7 74        	.sleb128 -12
 6814 18f8 30        	.uleb128 0x30
 6815 18f9 0000 0000 	.long.LASF181
 6816 18fd 01        	.byte0x1
 6817 18fe 053B      	.word0x53b
 6818 1900 0000 0C5C 	.long0xc5c
 6819 1904 02        	.uleb128 0x2
 6820 1905 91        	.byte0x91
 6821 1906 4A        	.sleb128 -54
 6822 1907 00        	.byte0
 6823 1908 0E        	.uleb128 0xe
 6824 1909 04        	.byte0x4
 6825 190a 0000 0D25 	.long0xd25
 6826 190e 2F        	.uleb128 0x2f
 6827 190f 0000 0000 	.long.LASF323
 6828 1913 01        	.byte0x1
 6829 1914 047C      	.word0x47c
 6830 1916 0000 1758 	.long0x1758
 6831 191a 0000 0000 	.long.LFB69
 6832 191e 0000 04E0 	.long.LFE69-.LFB69
 6833 1922 01        	.uleb128 0x1
 6834 1923 9C        	.byte0x9c
 6835 1924 0000 19FE 	.long0x19fe
 6836 1928 2E        	.uleb128 0x2e
 6837 1929 0000 0000 	.long.LASF193
 6838 192d 01        	.byte0x1
 6839 192e 047C      	.word0x47c
 6840 1930 0000 0ADE 	.long0xade
 6841 1934 02        	.uleb128 0x2
 6842 1935 91        	.byte0x91
 6843 1936 00        	.sleb128 0
 6844 1937 30        	.uleb128 0x30
 6845 1938 0000 0000 	.long.LASF316
 6846 193c 01        	.byte0x1
 6847 193d 047E      	.word0x47e
 6848 193f 0000 1758 	.long0x1758
 6849 1943 02        	.uleb128 0x2
 6850 1944 91        	.byte0x91
68K GAS   			page 161


 6851 1945 78        	.sleb128 -8
 6852 1946 30        	.uleb128 0x30
 6853 1947 0000 0000 	.long.LASF324
 6854 194b 01        	.byte0x1
 6855 194c 047F      	.word0x47f
 6856 194e 0000 00AA 	.long0xaa
 6857 1952 02        	.uleb128 0x2
 6858 1953 91        	.byte0x91
 6859 1954 77        	.sleb128 -9
 6860 1955 30        	.uleb128 0x30
 6861 1956 0000 0000 	.long.LASF325
 6862 195a 01        	.byte0x1
 6863 195b 0480      	.word0x480
 6864 195d 0000 0BCD 	.long0xbcd
 6865 1961 03        	.uleb128 0x3
 6866 1962 91        	.byte0x91
 6867 1963 987F      	.sleb128 -104
 6868 1965 30        	.uleb128 0x30
 6869 1966 0000 0000 	.long.LASF326
 6870 196a 01        	.byte0x1
 6871 196b 0481      	.word0x481
 6872 196d 0000 0050 	.long0x50
 6873 1971 02        	.uleb128 0x2
 6874 1972 91        	.byte0x91
 6875 1973 5C        	.sleb128 -36
 6876 1974 30        	.uleb128 0x30
 6877 1975 0000 0000 	.long.LASF321
 6878 1979 01        	.byte0x1
 6879 197a 0482      	.word0x482
 6880 197c 0000 0050 	.long0x50
 6881 1980 02        	.uleb128 0x2
 6882 1981 91        	.byte0x91
 6883 1982 70        	.sleb128 -16
 6884 1983 30        	.uleb128 0x30
 6885 1984 0000 0000 	.long.LASF256
 6886 1988 01        	.byte0x1
 6887 1989 0483      	.word0x483
 6888 198b 0000 003E 	.long0x3e
 6889 198f 02        	.uleb128 0x2
 6890 1990 91        	.byte0x91
 6891 1991 6E        	.sleb128 -18
 6892 1992 30        	.uleb128 0x30
 6893 1993 0000 0000 	.long.LASF317
 6894 1997 01        	.byte0x1
 6895 1998 0484      	.word0x484
 6896 199a 0000 19FE 	.long0x19fe
 6897 199e 02        	.uleb128 0x2
 6898 199f 91        	.byte0x91
 6899 19a0 60        	.sleb128 -32
 6900 19a1 30        	.uleb128 0x30
 6901 19a2 0000 0000 	.long.LASF182
 6902 19a6 01        	.byte0x1
 6903 19a7 0485      	.word0x485
 6904 19a9 0000 0A25 	.long0xa25
 6905 19ad 03        	.uleb128 0x3
 6906 19ae 91        	.byte0x91
 6907 19af D87E      	.sleb128 -168
68K GAS   			page 162


 6908 19b1 30        	.uleb128 0x30
 6909 19b2 0000 0000 	.long.LASF282
 6910 19b6 01        	.byte0x1
 6911 19b7 0486      	.word0x486
 6912 19b9 0000 13FE 	.long0x13fe
 6913 19bd 02        	.uleb128 0x2
 6914 19be 91        	.byte0x91
 6915 19bf 58        	.sleb128 -40
 6916 19c0 30        	.uleb128 0x30
 6917 19c1 0000 0000 	.long.LASF327
 6918 19c5 01        	.byte0x1
 6919 19c6 0487      	.word0x487
 6920 19c8 0000 0BF8 	.long0xbf8
 6921 19cc 02        	.uleb128 0x2
 6922 19cd 91        	.byte0x91
 6923 19ce 6C        	.sleb128 -20
 6924 19cf 30        	.uleb128 0x30
 6925 19d0 0000 0000 	.long.LASF328
 6926 19d4 01        	.byte0x1
 6927 19d5 0488      	.word0x488
 6928 19d7 0000 14EA 	.long0x14ea
 6929 19db 03        	.uleb128 0x3
 6930 19dc 91        	.byte0x91
 6931 19dd B47D      	.sleb128 -332
 6932 19df 30        	.uleb128 0x30
 6933 19e0 0000 0000 	.long.LASF329
 6934 19e4 01        	.byte0x1
 6935 19e5 0489      	.word0x489
 6936 19e7 0000 0050 	.long0x50
 6937 19eb 02        	.uleb128 0x2
 6938 19ec 91        	.byte0x91
 6939 19ed 68        	.sleb128 -24
 6940 19ee 30        	.uleb128 0x30
 6941 19ef 0000 0000 	.long.LASF330
 6942 19f3 01        	.byte0x1
 6943 19f4 048A      	.word0x48a
 6944 19f6 0000 0050 	.long0x50
 6945 19fa 02        	.uleb128 0x2
 6946 19fb 91        	.byte0x91
 6947 19fc 64        	.sleb128 -28
 6948 19fd 00        	.byte0
 6949 19fe 0E        	.uleb128 0xe
 6950 19ff 04        	.byte0x4
 6951 1a00 0000 0CFD 	.long0xcfd
 6952 1a04 2F        	.uleb128 0x2f
 6953 1a05 0000 0000 	.long.LASF331
 6954 1a09 01        	.byte0x1
 6955 1a0a 0420      	.word0x420
 6956 1a0c 0000 1758 	.long0x1758
 6957 1a10 0000 0000 	.long.LFB68
 6958 1a14 0000 01D8 	.long.LFE68-.LFB68
 6959 1a18 01        	.uleb128 0x1
 6960 1a19 9C        	.byte0x9c
 6961 1a1a 0000 1A88 	.long0x1a88
 6962 1a1e 2E        	.uleb128 0x2e
 6963 1a1f 0000 0000 	.long.LASF193
 6964 1a23 01        	.byte0x1
68K GAS   			page 163


 6965 1a24 0420      	.word0x420
 6966 1a26 0000 0ADE 	.long0xade
 6967 1a2a 02        	.uleb128 0x2
 6968 1a2b 91        	.byte0x91
 6969 1a2c 00        	.sleb128 0
 6970 1a2d 30        	.uleb128 0x30
 6971 1a2e 0000 0000 	.long.LASF316
 6972 1a32 01        	.byte0x1
 6973 1a33 0422      	.word0x422
 6974 1a35 0000 1758 	.long0x1758
 6975 1a39 02        	.uleb128 0x2
 6976 1a3a 91        	.byte0x91
 6977 1a3b 78        	.sleb128 -8
 6978 1a3c 30        	.uleb128 0x30
 6979 1a3d 0000 0000 	.long.LASF256
 6980 1a41 01        	.byte0x1
 6981 1a42 0423      	.word0x423
 6982 1a44 0000 003E 	.long0x3e
 6983 1a48 02        	.uleb128 0x2
 6984 1a49 91        	.byte0x91
 6985 1a4a 6E        	.sleb128 -18
 6986 1a4b 30        	.uleb128 0x30
 6987 1a4c 0000 0000 	.long.LASF317
 6988 1a50 01        	.byte0x1
 6989 1a51 0424      	.word0x424
 6990 1a53 0000 1A88 	.long0x1a88
 6991 1a57 02        	.uleb128 0x2
 6992 1a58 91        	.byte0x91
 6993 1a59 70        	.sleb128 -16
 6994 1a5a 30        	.uleb128 0x30
 6995 1a5b 0000 0000 	.long.LASF181
 6996 1a5f 01        	.byte0x1
 6997 1a60 0425      	.word0x425
 6998 1a62 0000 0C5C 	.long0xc5c
 6999 1a66 02        	.uleb128 0x2
 7000 1a67 91        	.byte0x91
 7001 1a68 40        	.sleb128 -64
 7002 1a69 30        	.uleb128 0x30
 7003 1a6a 0000 0000 	.long.LASF282
 7004 1a6e 01        	.byte0x1
 7005 1a6f 0426      	.word0x426
 7006 1a71 0000 13FE 	.long0x13fe
 7007 1a75 02        	.uleb128 0x2
 7008 1a76 91        	.byte0x91
 7009 1a77 68        	.sleb128 -24
 7010 1a78 30        	.uleb128 0x30
 7011 1a79 0000 0000 	.long.LASF332
 7012 1a7d 01        	.byte0x1
 7013 1a7e 0427      	.word0x427
 7014 1a80 0000 00AA 	.long0xaa
 7015 1a84 02        	.uleb128 0x2
 7016 1a85 91        	.byte0x91
 7017 1a86 77        	.sleb128 -9
 7018 1a87 00        	.byte0
 7019 1a88 0E        	.uleb128 0xe
 7020 1a89 04        	.byte0x4
 7021 1a8a 0000 0CD5 	.long0xcd5
68K GAS   			page 164


 7022 1a8e 2F        	.uleb128 0x2f
 7023 1a8f 0000 0000 	.long.LASF333
 7024 1a93 01        	.byte0x1
 7025 1a94 0382      	.word0x382
 7026 1a96 0000 1758 	.long0x1758
 7027 1a9a 0000 0000 	.long.LFB67
 7028 1a9e 0000 035A 	.long.LFE67-.LFB67
 7029 1aa2 01        	.uleb128 0x1
 7030 1aa3 9C        	.byte0x9c
 7031 1aa4 0000 1B31 	.long0x1b31
 7032 1aa8 2E        	.uleb128 0x2e
 7033 1aa9 0000 0000 	.long.LASF193
 7034 1aad 01        	.byte0x1
 7035 1aae 0382      	.word0x382
 7036 1ab0 0000 0ADE 	.long0xade
 7037 1ab4 02        	.uleb128 0x2
 7038 1ab5 91        	.byte0x91
 7039 1ab6 00        	.sleb128 0
 7040 1ab7 30        	.uleb128 0x30
 7041 1ab8 0000 0000 	.long.LASF316
 7042 1abc 01        	.byte0x1
 7043 1abd 0384      	.word0x384
 7044 1abf 0000 1758 	.long0x1758
 7045 1ac3 02        	.uleb128 0x2
 7046 1ac4 91        	.byte0x91
 7047 1ac5 78        	.sleb128 -8
 7048 1ac6 30        	.uleb128 0x30
 7049 1ac7 0000 0000 	.long.LASF256
 7050 1acb 01        	.byte0x1
 7051 1acc 0385      	.word0x385
 7052 1ace 0000 003E 	.long0x3e
 7053 1ad2 02        	.uleb128 0x2
 7054 1ad3 91        	.byte0x91
 7055 1ad4 6A        	.sleb128 -22
 7056 1ad5 30        	.uleb128 0x30
 7057 1ad6 0000 0000 	.long.LASF317
 7058 1ada 01        	.byte0x1
 7059 1adb 0386      	.word0x386
 7060 1add 0000 1B31 	.long0x1b31
 7061 1ae1 02        	.uleb128 0x2
 7062 1ae2 91        	.byte0x91
 7063 1ae3 6C        	.sleb128 -20
 7064 1ae4 30        	.uleb128 0x30
 7065 1ae5 0000 0000 	.long.LASF282
 7066 1ae9 01        	.byte0x1
 7067 1aea 0387      	.word0x387
 7068 1aec 0000 13FE 	.long0x13fe
 7069 1af0 02        	.uleb128 0x2
 7070 1af1 91        	.byte0x91
 7071 1af2 64        	.sleb128 -28
 7072 1af3 30        	.uleb128 0x30
 7073 1af4 0000 0000 	.long.LASF334
 7074 1af8 01        	.byte0x1
 7075 1af9 0388      	.word0x388
 7076 1afb 0000 0105 	.long0x105
 7077 1aff 02        	.uleb128 0x2
 7078 1b00 91        	.byte0x91
68K GAS   			page 165


 7079 1b01 74        	.sleb128 -12
 7080 1b02 30        	.uleb128 0x30
 7081 1b03 0000 0000 	.long.LASF181
 7082 1b07 01        	.byte0x1
 7083 1b08 0389      	.word0x389
 7084 1b0a 0000 0C5C 	.long0xc5c
 7085 1b0e 03        	.uleb128 0x3
 7086 1b0f 91        	.byte0x91
 7087 1b10 B87F      	.sleb128 -72
 7088 1b12 30        	.uleb128 0x30
 7089 1b13 0000 0000 	.long.LASF245
 7090 1b17 01        	.byte0x1
 7091 1b18 038A      	.word0x38a
 7092 1b1a 0000 0086 	.long0x86
 7093 1b1e 02        	.uleb128 0x2
 7094 1b1f 91        	.byte0x91
 7095 1b20 60        	.sleb128 -32
 7096 1b21 30        	.uleb128 0x30
 7097 1b22 0000 0000 	.long.LASF335
 7098 1b26 01        	.byte0x1
 7099 1b27 038B      	.word0x38b
 7100 1b29 0000 0050 	.long0x50
 7101 1b2d 02        	.uleb128 0x2
 7102 1b2e 91        	.byte0x91
 7103 1b2f 70        	.sleb128 -16
 7104 1b30 00        	.byte0
 7105 1b31 0E        	.uleb128 0xe
 7106 1b32 04        	.byte0x4
 7107 1b33 0000 0CAD 	.long0xcad
 7108 1b37 2F        	.uleb128 0x2f
 7109 1b38 0000 0000 	.long.LASF336
 7110 1b3c 01        	.byte0x1
 7111 1b3d 02FD      	.word0x2fd
 7112 1b3f 0000 1758 	.long0x1758
 7113 1b43 0000 0000 	.long.LFB66
 7114 1b47 0000 025C 	.long.LFE66-.LFB66
 7115 1b4b 01        	.uleb128 0x1
 7116 1b4c 9C        	.byte0x9c
 7117 1b4d 0000 1BFA 	.long0x1bfa
 7118 1b51 2E        	.uleb128 0x2e
 7119 1b52 0000 0000 	.long.LASF182
 7120 1b56 01        	.byte0x1
 7121 1b57 02FD      	.word0x2fd
 7122 1b59 0000 01AE 	.long0x1ae
 7123 1b5d 02        	.uleb128 0x2
 7124 1b5e 91        	.byte0x91
 7125 1b5f 00        	.sleb128 0
 7126 1b60 2E        	.uleb128 0x2e
 7127 1b61 0000 0000 	.long.LASF181
 7128 1b65 01        	.byte0x1
 7129 1b66 02FD      	.word0x2fd
 7130 1b68 0000 01AE 	.long0x1ae
 7131 1b6c 02        	.uleb128 0x2
 7132 1b6d 91        	.byte0x91
 7133 1b6e 04        	.sleb128 4
 7134 1b6f 2E        	.uleb128 0x2e
 7135 1b70 0000 0000 	.long.LASF337
68K GAS   			page 166


 7136 1b74 01        	.byte0x1
 7137 1b75 02FD      	.word0x2fd
 7138 1b77 0000 0105 	.long0x105
 7139 1b7b 02        	.uleb128 0x2
 7140 1b7c 91        	.byte0x91
 7141 1b7d 08        	.sleb128 8
 7142 1b7e 2E        	.uleb128 0x2e
 7143 1b7f 0000 0000 	.long.LASF338
 7144 1b83 01        	.byte0x1
 7145 1b84 02FD      	.word0x2fd
 7146 1b86 0000 0086 	.long0x86
 7147 1b8a 02        	.uleb128 0x2
 7148 1b8b 91        	.byte0x91
 7149 1b8c 0C        	.sleb128 12
 7150 1b8d 30        	.uleb128 0x30
 7151 1b8e 0000 0000 	.long.LASF316
 7152 1b92 01        	.byte0x1
 7153 1b93 02FF      	.word0x2ff
 7154 1b95 0000 1758 	.long0x1758
 7155 1b99 02        	.uleb128 0x2
 7156 1b9a 91        	.byte0x91
 7157 1b9b 78        	.sleb128 -8
 7158 1b9c 30        	.uleb128 0x30
 7159 1b9d 0000 0000 	.long.LASF324
 7160 1ba1 01        	.byte0x1
 7161 1ba2 0300      	.word0x300
 7162 1ba4 0000 00AA 	.long0xaa
 7163 1ba8 02        	.uleb128 0x2
 7164 1ba9 91        	.byte0x91
 7165 1baa 77        	.sleb128 -9
 7166 1bab 30        	.uleb128 0x30
 7167 1bac 0000 0000 	.long.LASF325
 7168 1bb0 01        	.byte0x1
 7169 1bb1 0301      	.word0x301
 7170 1bb3 0000 0BCD 	.long0xbcd
 7171 1bb7 03        	.uleb128 0x3
 7172 1bb8 91        	.byte0x91
 7173 1bb9 AC7F      	.sleb128 -84
 7174 1bbb 30        	.uleb128 0x30
 7175 1bbc 0000 0000 	.long.LASF339
 7176 1bc0 01        	.byte0x1
 7177 1bc1 0302      	.word0x302
 7178 1bc3 0000 1721 	.long0x1721
 7179 1bc7 03        	.uleb128 0x3
 7180 1bc8 91        	.byte0x91
 7181 1bc9 F87E      	.sleb128 -136
 7182 1bcb 30        	.uleb128 0x30
 7183 1bcc 0000 0000 	.long.LASF326
 7184 1bd0 01        	.byte0x1
 7185 1bd1 0303      	.word0x303
 7186 1bd3 0000 0050 	.long0x50
 7187 1bd7 02        	.uleb128 0x2
 7188 1bd8 91        	.byte0x91
 7189 1bd9 70        	.sleb128 -16
 7190 1bda 30        	.uleb128 0x30
 7191 1bdb 0000 0000 	.long.LASF321
 7192 1bdf 01        	.byte0x1
68K GAS   			page 167


 7193 1be0 0304      	.word0x304
 7194 1be2 0000 0050 	.long0x50
 7195 1be6 02        	.uleb128 0x2
 7196 1be7 91        	.byte0x91
 7197 1be8 6C        	.sleb128 -20
 7198 1be9 30        	.uleb128 0x30
 7199 1bea 0000 0000 	.long.LASF340
 7200 1bee 01        	.byte0x1
 7201 1bef 0305      	.word0x305
 7202 1bf1 0000 0050 	.long0x50
 7203 1bf5 03        	.uleb128 0x3
 7204 1bf6 91        	.byte0x91
 7205 1bf7 F47E      	.sleb128 -140
 7206 1bf9 00        	.byte0
 7207 1bfa 2F        	.uleb128 0x2f
 7208 1bfb 0000 0000 	.long.LASF341
 7209 1bff 01        	.byte0x1
 7210 1c00 025F      	.word0x25f
 7211 1c02 0000 1758 	.long0x1758
 7212 1c06 0000 0000 	.long.LFB65
 7213 1c0a 0000 03A2 	.long.LFE65-.LFB65
 7214 1c0e 01        	.uleb128 0x1
 7215 1c0f 9C        	.byte0x9c
 7216 1c10 0000 1CCC 	.long0x1ccc
 7217 1c14 2E        	.uleb128 0x2e
 7218 1c15 0000 0000 	.long.LASF193
 7219 1c19 01        	.byte0x1
 7220 1c1a 025F      	.word0x25f
 7221 1c1c 0000 0ADE 	.long0xade
 7222 1c20 02        	.uleb128 0x2
 7223 1c21 91        	.byte0x91
 7224 1c22 00        	.sleb128 0
 7225 1c23 30        	.uleb128 0x30
 7226 1c24 0000 0000 	.long.LASF316
 7227 1c28 01        	.byte0x1
 7228 1c29 0261      	.word0x261
 7229 1c2b 0000 1758 	.long0x1758
 7230 1c2f 02        	.uleb128 0x2
 7231 1c30 91        	.byte0x91
 7232 1c31 78        	.sleb128 -8
 7233 1c32 30        	.uleb128 0x30
 7234 1c33 0000 0000 	.long.LASF256
 7235 1c37 01        	.byte0x1
 7236 1c38 0262      	.word0x262
 7237 1c3a 0000 003E 	.long0x3e
 7238 1c3e 02        	.uleb128 0x2
 7239 1c3f 91        	.byte0x91
 7240 1c40 6A        	.sleb128 -22
 7241 1c41 30        	.uleb128 0x30
 7242 1c42 0000 0000 	.long.LASF317
 7243 1c46 01        	.byte0x1
 7244 1c47 0263      	.word0x263
 7245 1c49 0000 1CCC 	.long0x1ccc
 7246 1c4d 02        	.uleb128 0x2
 7247 1c4e 91        	.byte0x91
 7248 1c4f 6C        	.sleb128 -20
 7249 1c50 30        	.uleb128 0x30
68K GAS   			page 168


 7250 1c51 0000 0000 	.long.LASF182
 7251 1c55 01        	.byte0x1
 7252 1c56 0264      	.word0x264
 7253 1c58 0000 0A25 	.long0xa25
 7254 1c5c 03        	.uleb128 0x3
 7255 1c5d 91        	.byte0x91
 7256 1c5e 9C7F      	.sleb128 -100
 7257 1c60 30        	.uleb128 0x30
 7258 1c61 0000 0000 	.long.LASF181
 7259 1c65 01        	.byte0x1
 7260 1c66 0265      	.word0x265
 7261 1c68 0000 0C5C 	.long0xc5c
 7262 1c6c 03        	.uleb128 0x3
 7263 1c6d 91        	.byte0x91
 7264 1c6e F47E      	.sleb128 -140
 7265 1c70 30        	.uleb128 0x30
 7266 1c71 0000 0000 	.long.LASF282
 7267 1c75 01        	.byte0x1
 7268 1c76 0266      	.word0x266
 7269 1c78 0000 13FE 	.long0x13fe
 7270 1c7c 02        	.uleb128 0x2
 7271 1c7d 91        	.byte0x91
 7272 1c7e 64        	.sleb128 -28
 7273 1c7f 30        	.uleb128 0x30
 7274 1c80 0000 0000 	.long.LASF337
 7275 1c84 01        	.byte0x1
 7276 1c85 0267      	.word0x267
 7277 1c87 0000 0105 	.long0x105
 7278 1c8b 02        	.uleb128 0x2
 7279 1c8c 91        	.byte0x91
 7280 1c8d 74        	.sleb128 -12
 7281 1c8e 30        	.uleb128 0x30
 7282 1c8f 0000 0000 	.long.LASF342
 7283 1c93 01        	.byte0x1
 7284 1c94 0268      	.word0x268
 7285 1c96 0000 13F8 	.long0x13f8
 7286 1c9a 03        	.uleb128 0x3
 7287 1c9b 91        	.byte0x91
 7288 1c9c F07E      	.sleb128 -144
 7289 1c9e 30        	.uleb128 0x30
 7290 1c9f 0000 0000 	.long.LASF343
 7291 1ca3 01        	.byte0x1
 7292 1ca4 0269      	.word0x269
 7293 1ca6 0000 0050 	.long0x50
 7294 1caa 02        	.uleb128 0x2
 7295 1cab 91        	.byte0x91
 7296 1cac 70        	.sleb128 -16
 7297 1cad 30        	.uleb128 0x30
 7298 1cae 0000 0000 	.long.LASF321
 7299 1cb2 01        	.byte0x1
 7300 1cb3 026A      	.word0x26a
 7301 1cb5 0000 0050 	.long0x50
 7302 1cb9 02        	.uleb128 0x2
 7303 1cba 91        	.byte0x91
 7304 1cbb 60        	.sleb128 -32
 7305 1cbc 30        	.uleb128 0x30
 7306 1cbd 0000 0000 	.long.LASF344
68K GAS   			page 169


 7307 1cc1 01        	.byte0x1
 7308 1cc2 026B      	.word0x26b
 7309 1cc4 0000 1CD2 	.long0x1cd2
 7310 1cc8 02        	.uleb128 0x2
 7311 1cc9 91        	.byte0x91
 7312 1cca 5C        	.sleb128 -36
 7313 1ccb 00        	.byte0
 7314 1ccc 0E        	.uleb128 0xe
 7315 1ccd 04        	.byte0x4
 7316 1cce 0000 0C78 	.long0xc78
 7317 1cd2 0E        	.uleb128 0xe
 7318 1cd3 04        	.byte0x4
 7319 1cd4 0000 1404 	.long0x1404
 7320 1cd8 2F        	.uleb128 0x2f
 7321 1cd9 0000 0000 	.long.LASF345
 7322 1cdd 01        	.byte0x1
 7323 1cde 0192      	.word0x192
 7324 1ce0 0000 1758 	.long0x1758
 7325 1ce4 0000 0000 	.long.LFB64
 7326 1ce8 0000 04E4 	.long.LFE64-.LFB64
 7327 1cec 01        	.uleb128 0x1
 7328 1ced 9C        	.byte0x9c
 7329 1cee 0000 1D9D 	.long0x1d9d
 7330 1cf2 2E        	.uleb128 0x2e
 7331 1cf3 0000 0000 	.long.LASF193
 7332 1cf7 01        	.byte0x1
 7333 1cf8 0192      	.word0x192
 7334 1cfa 0000 0ADE 	.long0xade
 7335 1cfe 02        	.uleb128 0x2
 7336 1cff 91        	.byte0x91
 7337 1d00 00        	.sleb128 0
 7338 1d01 30        	.uleb128 0x30
 7339 1d02 0000 0000 	.long.LASF316
 7340 1d06 01        	.byte0x1
 7341 1d07 0194      	.word0x194
 7342 1d09 0000 1758 	.long0x1758
 7343 1d0d 02        	.uleb128 0x2
 7344 1d0e 91        	.byte0x91
 7345 1d0f 78        	.sleb128 -8
 7346 1d10 30        	.uleb128 0x30
 7347 1d11 0000 0000 	.long.LASF317
 7348 1d15 01        	.byte0x1
 7349 1d16 0195      	.word0x195
 7350 1d18 0000 1D9D 	.long0x1d9d
 7351 1d1c 02        	.uleb128 0x2
 7352 1d1d 91        	.byte0x91
 7353 1d1e 74        	.sleb128 -12
 7354 1d1f 30        	.uleb128 0x30
 7355 1d20 0000 0000 	.long.LASF325
 7356 1d24 01        	.byte0x1
 7357 1d25 0196      	.word0x196
 7358 1d27 0000 0BCD 	.long0xbcd
 7359 1d2b 03        	.uleb128 0x3
 7360 1d2c 91        	.byte0x91
 7361 1d2d A87F      	.sleb128 -88
 7362 1d2f 30        	.uleb128 0x30
 7363 1d30 0000 0000 	.long.LASF339
68K GAS   			page 170


 7364 1d34 01        	.byte0x1
 7365 1d35 0197      	.word0x197
 7366 1d37 0000 1721 	.long0x1721
 7367 1d3b 03        	.uleb128 0x3
 7368 1d3c 91        	.byte0x91
 7369 1d3d F47E      	.sleb128 -140
 7370 1d3f 30        	.uleb128 0x30
 7371 1d40 0000 0000 	.long.LASF326
 7372 1d44 01        	.byte0x1
 7373 1d45 0198      	.word0x198
 7374 1d47 0000 0050 	.long0x50
 7375 1d4b 02        	.uleb128 0x2
 7376 1d4c 91        	.byte0x91
 7377 1d4d 70        	.sleb128 -16
 7378 1d4e 30        	.uleb128 0x30
 7379 1d4f 0000 0000 	.long.LASF321
 7380 1d53 01        	.byte0x1
 7381 1d54 0199      	.word0x199
 7382 1d56 0000 0050 	.long0x50
 7383 1d5a 02        	.uleb128 0x2
 7384 1d5b 91        	.byte0x91
 7385 1d5c 6C        	.sleb128 -20
 7386 1d5d 30        	.uleb128 0x30
 7387 1d5e 0000 0000 	.long.LASF282
 7388 1d62 01        	.byte0x1
 7389 1d63 019A      	.word0x19a
 7390 1d65 0000 13FE 	.long0x13fe
 7391 1d69 02        	.uleb128 0x2
 7392 1d6a 91        	.byte0x91
 7393 1d6b 68        	.sleb128 -24
 7394 1d6c 30        	.uleb128 0x30
 7395 1d6d 0000 0000 	.long.LASF342
 7396 1d71 01        	.byte0x1
 7397 1d72 019B      	.word0x19b
 7398 1d74 0000 13F8 	.long0x13f8
 7399 1d78 03        	.uleb128 0x3
 7400 1d79 91        	.byte0x91
 7401 1d7a F07E      	.sleb128 -144
 7402 1d7c 30        	.uleb128 0x30
 7403 1d7d 0000 0000 	.long.LASF178
 7404 1d81 01        	.byte0x1
 7405 1d82 019C      	.word0x19c
 7406 1d84 0000 0A25 	.long0xa25
 7407 1d88 03        	.uleb128 0x3
 7408 1d89 91        	.byte0x91
 7409 1d8a B07E      	.sleb128 -208
 7410 1d8c 30        	.uleb128 0x30
 7411 1d8d 0000 0000 	.long.LASF346
 7412 1d91 01        	.byte0x1
 7413 1d92 019D      	.word0x19d
 7414 1d94 0000 0069 	.long0x69
 7415 1d98 03        	.uleb128 0x3
 7416 1d99 91        	.byte0x91
 7417 1d9a AF7E      	.sleb128 -209
 7418 1d9c 00        	.byte0
 7419 1d9d 0E        	.uleb128 0xe
 7420 1d9e 04        	.byte0x4
68K GAS   			page 171


 7421 1d9f 0000 0C26 	.long0xc26
 7422 1da3 2F        	.uleb128 0x2f
 7423 1da4 0000 0000 	.long.LASF347
 7424 1da8 01        	.byte0x1
 7425 1da9 0179      	.word0x179
 7426 1dab 0000 1758 	.long0x1758
 7427 1daf 0000 0000 	.long.LFB63
 7428 1db3 0000 004C 	.long.LFE63-.LFB63
 7429 1db7 01        	.uleb128 0x1
 7430 1db8 9C        	.byte0x9c
 7431 1db9 0000 1DCD 	.long0x1dcd
 7432 1dbd 2E        	.uleb128 0x2e
 7433 1dbe 0000 0000 	.long.LASF193
 7434 1dc2 01        	.byte0x1
 7435 1dc3 0179      	.word0x179
 7436 1dc5 0000 0ADE 	.long0xade
 7437 1dc9 02        	.uleb128 0x2
 7438 1dca 91        	.byte0x91
 7439 1dcb 00        	.sleb128 0
 7440 1dcc 00        	.byte0
 7441 1dcd 2F        	.uleb128 0x2f
 7442 1dce 0000 0000 	.long.LASF348
 7443 1dd2 01        	.byte0x1
 7444 1dd3 0167      	.word0x167
 7445 1dd5 0000 1758 	.long0x1758
 7446 1dd9 0000 0000 	.long.LFB62
 7447 1ddd 0000 0028 	.long.LFE62-.LFB62
 7448 1de1 01        	.uleb128 0x1
 7449 1de2 9C        	.byte0x9c
 7450 1de3 0000 1DF7 	.long0x1df7
 7451 1de7 2E        	.uleb128 0x2e
 7452 1de8 0000 0000 	.long.LASF193
 7453 1dec 01        	.byte0x1
 7454 1ded 0167      	.word0x167
 7455 1def 0000 0ADE 	.long0xade
 7456 1df3 02        	.uleb128 0x2
 7457 1df4 91        	.byte0x91
 7458 1df5 00        	.sleb128 0
 7459 1df6 00        	.byte0
 7460 1df7 2D        	.uleb128 0x2d
 7461 1df8 0000 0000 	.long.LASF350
 7462 1dfc 01        	.byte0x1
 7463 1dfd 012E      	.word0x12e
 7464 1dff 0000 0000 	.long.LFB61
 7465 1e03 0000 0228 	.long.LFE61-.LFB61
 7466 1e07 01        	.uleb128 0x1
 7467 1e08 9C        	.byte0x9c
 7468 1e09 0000 1E1D 	.long0x1e1d
 7469 1e0d 30        	.uleb128 0x30
 7470 1e0e 0000 0000 	.long.LASF282
 7471 1e12 01        	.byte0x1
 7472 1e13 0130      	.word0x130
 7473 1e15 0000 13FE 	.long0x13fe
 7474 1e19 02        	.uleb128 0x2
 7475 1e1a 91        	.byte0x91
 7476 1e1b 78        	.sleb128 -8
 7477 1e1c 00        	.byte0
68K GAS   			page 172


 7478 1e1d 32        	.uleb128 0x32
 7479 1e1e 0000 0000 	.long.LASF351
 7480 1e22 01        	.byte0x1
 7481 1e23 BD        	.byte0xbd
 7482 1e24 0000 0000 	.long.LFB60
 7483 1e28 0000 02E6 	.long.LFE60-.LFB60
 7484 1e2c 01        	.uleb128 0x1
 7485 1e2d 9C        	.byte0x9c
 7486 1e2e 0000 1E5B 	.long0x1e5b
 7487 1e32 33        	.uleb128 0x33
 7488 1e33 6900      	.string"i"
 7489 1e35 01        	.byte0x1
 7490 1e36 BF        	.byte0xbf
 7491 1e37 0000 0086 	.long0x86
 7492 1e3b 02        	.uleb128 0x2
 7493 1e3c 91        	.byte0x91
 7494 1e3d 78        	.sleb128 -8
 7495 1e3e 34        	.uleb128 0x34
 7496 1e3f 0000 0000 	.long.LASF352
 7497 1e43 01        	.byte0x1
 7498 1e44 C0        	.byte0xc0
 7499 1e45 0000 0074 	.long0x74
 7500 1e49 02        	.uleb128 0x2
 7501 1e4a 91        	.byte0x91
 7502 1e4b 76        	.sleb128 -10
 7503 1e4c 34        	.uleb128 0x34
 7504 1e4d 0000 0000 	.long.LASF353
 7505 1e51 01        	.byte0x1
 7506 1e52 C1        	.byte0xc1
 7507 1e53 0000 1E5B 	.long0x1e5b
 7508 1e57 02        	.uleb128 0x2
 7509 1e58 91        	.byte0x91
 7510 1e59 70        	.sleb128 -16
 7511 1e5a 00        	.byte0
 7512 1e5b 0E        	.uleb128 0xe
 7513 1e5c 04        	.byte0x4
 7514 1e5d 0000 10D7 	.long0x10d7
 7515 1e61 35        	.uleb128 0x35
 7516 1e62 0000 0000 	.long.LASF354
 7517 1e66 01        	.byte0x1
 7518 1e67 57        	.byte0x57
 7519 1e68 0000 1758 	.long0x1758
 7520 1e6c 0000 0000 	.long.LFB59
 7521 1e70 0000 0210 	.long.LFE59-.LFB59
 7522 1e74 01        	.uleb128 0x1
 7523 1e75 9C        	.byte0x9c
 7524 1e76 36        	.uleb128 0x36
 7525 1e77 0000 0000 	.long.LASF193
 7526 1e7b 01        	.byte0x1
 7527 1e7c 57        	.byte0x57
 7528 1e7d 0000 0ADE 	.long0xade
 7529 1e81 02        	.uleb128 0x2
 7530 1e82 91        	.byte0x91
 7531 1e83 00        	.sleb128 0
 7532 1e84 34        	.uleb128 0x34
 7533 1e85 0000 0000 	.long.LASF321
 7534 1e89 01        	.byte0x1
68K GAS   			page 173


 7535 1e8a 59        	.byte0x59
 7536 1e8b 0000 0050 	.long0x50
 7537 1e8f 02        	.uleb128 0x2
 7538 1e90 91        	.byte0x91
 7539 1e91 74        	.sleb128 -12
 7540 1e92 33        	.uleb128 0x33
 7541 1e93 6900      	.string"i"
 7542 1e95 01        	.byte0x1
 7543 1e96 5A        	.byte0x5a
 7544 1e97 0000 0086 	.long0x86
 7545 1e9b 02        	.uleb128 0x2
 7546 1e9c 91        	.byte0x91
 7547 1e9d 78        	.sleb128 -8
 7548 1e9e 34        	.uleb128 0x34
 7549 1e9f 0000 0000 	.long.LASF344
 7550 1ea3 01        	.byte0x1
 7551 1ea4 5B        	.byte0x5b
 7552 1ea5 0000 1CD2 	.long0x1cd2
 7553 1ea9 02        	.uleb128 0x2
 7554 1eaa 91        	.byte0x91
 7555 1eab 70        	.sleb128 -16
 7556 1eac 34        	.uleb128 0x34
 7557 1ead 0000 0000 	.long.LASF355
 7558 1eb1 01        	.byte0x1
 7559 1eb2 5C        	.byte0x5c
 7560 1eb3 0000 00E3 	.long0xe3
 7561 1eb7 02        	.uleb128 0x2
 7562 1eb8 91        	.byte0x91
 7563 1eb9 64        	.sleb128 -28
 7564 1eba 34        	.uleb128 0x34
 7565 1ebb 0000 0000 	.long.LASF326
 7566 1ebf 01        	.byte0x1
 7567 1ec0 5D        	.byte0x5d
 7568 1ec1 0000 0050 	.long0x50
 7569 1ec5 02        	.uleb128 0x2
 7570 1ec6 91        	.byte0x91
 7571 1ec7 6C        	.sleb128 -20
 7572 1ec8 00        	.byte0
 7573 1ec9 00        	.byte0
 7574               	.section.debug_abbrev,"",@progbits
 7575               	.Ldebug_abbrev0:
 7576 0000 01        	.uleb128 0x1
 7577 0001 11        	.uleb128 0x11
 7578 0002 01        	.byte0x1
 7579 0003 25        	.uleb128 0x25
 7580 0004 0E        	.uleb128 0xe
 7581 0005 13        	.uleb128 0x13
 7582 0006 0B        	.uleb128 0xb
 7583 0007 03        	.uleb128 0x3
 7584 0008 0E        	.uleb128 0xe
 7585 0009 1B        	.uleb128 0x1b
 7586 000a 0E        	.uleb128 0xe
 7587 000b 11        	.uleb128 0x11
 7588 000c 01        	.uleb128 0x1
 7589 000d 12        	.uleb128 0x12
 7590 000e 06        	.uleb128 0x6
 7591 000f 10        	.uleb128 0x10
68K GAS   			page 174


 7592 0010 17        	.uleb128 0x17
 7593 0011 00        	.byte0
 7594 0012 00        	.byte0
 7595 0013 02        	.uleb128 0x2
 7596 0014 16        	.uleb128 0x16
 7597 0015 00        	.byte0
 7598 0016 03        	.uleb128 0x3
 7599 0017 0E        	.uleb128 0xe
 7600 0018 3A        	.uleb128 0x3a
 7601 0019 0B        	.uleb128 0xb
 7602 001a 3B        	.uleb128 0x3b
 7603 001b 0B        	.uleb128 0xb
 7604 001c 49        	.uleb128 0x49
 7605 001d 13        	.uleb128 0x13
 7606 001e 00        	.byte0
 7607 001f 00        	.byte0
 7608 0020 03        	.uleb128 0x3
 7609 0021 24        	.uleb128 0x24
 7610 0022 00        	.byte0
 7611 0023 0B        	.uleb128 0xb
 7612 0024 0B        	.uleb128 0xb
 7613 0025 3E        	.uleb128 0x3e
 7614 0026 0B        	.uleb128 0xb
 7615 0027 03        	.uleb128 0x3
 7616 0028 0E        	.uleb128 0xe
 7617 0029 00        	.byte0
 7618 002a 00        	.byte0
 7619 002b 04        	.uleb128 0x4
 7620 002c 16        	.uleb128 0x16
 7621 002d 00        	.byte0
 7622 002e 03        	.uleb128 0x3
 7623 002f 0E        	.uleb128 0xe
 7624 0030 3A        	.uleb128 0x3a
 7625 0031 0B        	.uleb128 0xb
 7626 0032 3B        	.uleb128 0x3b
 7627 0033 05        	.uleb128 0x5
 7628 0034 49        	.uleb128 0x49
 7629 0035 13        	.uleb128 0x13
 7630 0036 00        	.byte0
 7631 0037 00        	.byte0
 7632 0038 05        	.uleb128 0x5
 7633 0039 26        	.uleb128 0x26
 7634 003a 00        	.byte0
 7635 003b 49        	.uleb128 0x49
 7636 003c 13        	.uleb128 0x13
 7637 003d 00        	.byte0
 7638 003e 00        	.byte0
 7639 003f 06        	.uleb128 0x6
 7640 0040 13        	.uleb128 0x13
 7641 0041 01        	.byte0x1
 7642 0042 0B        	.uleb128 0xb
 7643 0043 0B        	.uleb128 0xb
 7644 0044 3A        	.uleb128 0x3a
 7645 0045 0B        	.uleb128 0xb
 7646 0046 3B        	.uleb128 0x3b
 7647 0047 0B        	.uleb128 0xb
 7648 0048 01        	.uleb128 0x1
68K GAS   			page 175


 7649 0049 13        	.uleb128 0x13
 7650 004a 00        	.byte0
 7651 004b 00        	.byte0
 7652 004c 07        	.uleb128 0x7
 7653 004d 0D        	.uleb128 0xd
 7654 004e 00        	.byte0
 7655 004f 03        	.uleb128 0x3
 7656 0050 0E        	.uleb128 0xe
 7657 0051 3A        	.uleb128 0x3a
 7658 0052 0B        	.uleb128 0xb
 7659 0053 3B        	.uleb128 0x3b
 7660 0054 0B        	.uleb128 0xb
 7661 0055 49        	.uleb128 0x49
 7662 0056 13        	.uleb128 0x13
 7663 0057 38        	.uleb128 0x38
 7664 0058 0B        	.uleb128 0xb
 7665 0059 00        	.byte0
 7666 005a 00        	.byte0
 7667 005b 08        	.uleb128 0x8
 7668 005c 24        	.uleb128 0x24
 7669 005d 00        	.byte0
 7670 005e 0B        	.uleb128 0xb
 7671 005f 0B        	.uleb128 0xb
 7672 0060 3E        	.uleb128 0x3e
 7673 0061 0B        	.uleb128 0xb
 7674 0062 03        	.uleb128 0x3
 7675 0063 08        	.uleb128 0x8
 7676 0064 00        	.byte0
 7677 0065 00        	.byte0
 7678 0066 09        	.uleb128 0x9
 7679 0067 01        	.uleb128 0x1
 7680 0068 01        	.byte0x1
 7681 0069 49        	.uleb128 0x49
 7682 006a 13        	.uleb128 0x13
 7683 006b 01        	.uleb128 0x1
 7684 006c 13        	.uleb128 0x13
 7685 006d 00        	.byte0
 7686 006e 00        	.byte0
 7687 006f 0A        	.uleb128 0xa
 7688 0070 21        	.uleb128 0x21
 7689 0071 00        	.byte0
 7690 0072 49        	.uleb128 0x49
 7691 0073 13        	.uleb128 0x13
 7692 0074 2F        	.uleb128 0x2f
 7693 0075 0B        	.uleb128 0xb
 7694 0076 00        	.byte0
 7695 0077 00        	.byte0
 7696 0078 0B        	.uleb128 0xb
 7697 0079 0F        	.uleb128 0xf
 7698 007a 00        	.byte0
 7699 007b 0B        	.uleb128 0xb
 7700 007c 0B        	.uleb128 0xb
 7701 007d 00        	.byte0
 7702 007e 00        	.byte0
 7703 007f 0C        	.uleb128 0xc
 7704 0080 13        	.uleb128 0x13
 7705 0081 01        	.byte0x1
68K GAS   			page 176


 7706 0082 03        	.uleb128 0x3
 7707 0083 0E        	.uleb128 0xe
 7708 0084 0B        	.uleb128 0xb
 7709 0085 0B        	.uleb128 0xb
 7710 0086 3A        	.uleb128 0x3a
 7711 0087 0B        	.uleb128 0xb
 7712 0088 3B        	.uleb128 0x3b
 7713 0089 0B        	.uleb128 0xb
 7714 008a 01        	.uleb128 0x1
 7715 008b 13        	.uleb128 0x13
 7716 008c 00        	.byte0
 7717 008d 00        	.byte0
 7718 008e 0D        	.uleb128 0xd
 7719 008f 13        	.uleb128 0x13
 7720 0090 00        	.byte0
 7721 0091 03        	.uleb128 0x3
 7722 0092 0E        	.uleb128 0xe
 7723 0093 3C        	.uleb128 0x3c
 7724 0094 19        	.uleb128 0x19
 7725 0095 00        	.byte0
 7726 0096 00        	.byte0
 7727 0097 0E        	.uleb128 0xe
 7728 0098 0F        	.uleb128 0xf
 7729 0099 00        	.byte0
 7730 009a 0B        	.uleb128 0xb
 7731 009b 0B        	.uleb128 0xb
 7732 009c 49        	.uleb128 0x49
 7733 009d 13        	.uleb128 0x13
 7734 009e 00        	.byte0
 7735 009f 00        	.byte0
 7736 00a0 0F        	.uleb128 0xf
 7737 00a1 17        	.uleb128 0x17
 7738 00a2 01        	.byte0x1
 7739 00a3 0B        	.uleb128 0xb
 7740 00a4 0B        	.uleb128 0xb
 7741 00a5 3A        	.uleb128 0x3a
 7742 00a6 0B        	.uleb128 0xb
 7743 00a7 3B        	.uleb128 0x3b
 7744 00a8 0B        	.uleb128 0xb
 7745 00a9 01        	.uleb128 0x1
 7746 00aa 13        	.uleb128 0x13
 7747 00ab 00        	.byte0
 7748 00ac 00        	.byte0
 7749 00ad 10        	.uleb128 0x10
 7750 00ae 0D        	.uleb128 0xd
 7751 00af 00        	.byte0
 7752 00b0 03        	.uleb128 0x3
 7753 00b1 0E        	.uleb128 0xe
 7754 00b2 3A        	.uleb128 0x3a
 7755 00b3 0B        	.uleb128 0xb
 7756 00b4 3B        	.uleb128 0x3b
 7757 00b5 0B        	.uleb128 0xb
 7758 00b6 49        	.uleb128 0x49
 7759 00b7 13        	.uleb128 0x13
 7760 00b8 00        	.byte0
 7761 00b9 00        	.byte0
 7762 00ba 11        	.uleb128 0x11
68K GAS   			page 177


 7763 00bb 0D        	.uleb128 0xd
 7764 00bc 00        	.byte0
 7765 00bd 03        	.uleb128 0x3
 7766 00be 08        	.uleb128 0x8
 7767 00bf 3A        	.uleb128 0x3a
 7768 00c0 0B        	.uleb128 0xb
 7769 00c1 3B        	.uleb128 0x3b
 7770 00c2 0B        	.uleb128 0xb
 7771 00c3 49        	.uleb128 0x49
 7772 00c4 13        	.uleb128 0x13
 7773 00c5 38        	.uleb128 0x38
 7774 00c6 0B        	.uleb128 0xb
 7775 00c7 00        	.byte0
 7776 00c8 00        	.byte0
 7777 00c9 12        	.uleb128 0x12
 7778 00ca 13        	.uleb128 0x13
 7779 00cb 01        	.byte0x1
 7780 00cc 03        	.uleb128 0x3
 7781 00cd 0E        	.uleb128 0xe
 7782 00ce 0B        	.uleb128 0xb
 7783 00cf 05        	.uleb128 0x5
 7784 00d0 3A        	.uleb128 0x3a
 7785 00d1 0B        	.uleb128 0xb
 7786 00d2 3B        	.uleb128 0x3b
 7787 00d3 0B        	.uleb128 0xb
 7788 00d4 01        	.uleb128 0x1
 7789 00d5 13        	.uleb128 0x13
 7790 00d6 00        	.byte0
 7791 00d7 00        	.byte0
 7792 00d8 13        	.uleb128 0x13
 7793 00d9 0D        	.uleb128 0xd
 7794 00da 00        	.byte0
 7795 00db 03        	.uleb128 0x3
 7796 00dc 0E        	.uleb128 0xe
 7797 00dd 3A        	.uleb128 0x3a
 7798 00de 0B        	.uleb128 0xb
 7799 00df 3B        	.uleb128 0x3b
 7800 00e0 0B        	.uleb128 0xb
 7801 00e1 49        	.uleb128 0x49
 7802 00e2 13        	.uleb128 0x13
 7803 00e3 38        	.uleb128 0x38
 7804 00e4 05        	.uleb128 0x5
 7805 00e5 00        	.byte0
 7806 00e6 00        	.byte0
 7807 00e7 14        	.uleb128 0x14
 7808 00e8 15        	.uleb128 0x15
 7809 00e9 00        	.byte0
 7810 00ea 27        	.uleb128 0x27
 7811 00eb 19        	.uleb128 0x19
 7812 00ec 00        	.byte0
 7813 00ed 00        	.byte0
 7814 00ee 15        	.uleb128 0x15
 7815 00ef 15        	.uleb128 0x15
 7816 00f0 01        	.byte0x1
 7817 00f1 27        	.uleb128 0x27
 7818 00f2 19        	.uleb128 0x19
 7819 00f3 49        	.uleb128 0x49
68K GAS   			page 178


 7820 00f4 13        	.uleb128 0x13
 7821 00f5 01        	.uleb128 0x1
 7822 00f6 13        	.uleb128 0x13
 7823 00f7 00        	.byte0
 7824 00f8 00        	.byte0
 7825 00f9 16        	.uleb128 0x16
 7826 00fa 05        	.uleb128 0x5
 7827 00fb 00        	.byte0
 7828 00fc 49        	.uleb128 0x49
 7829 00fd 13        	.uleb128 0x13
 7830 00fe 00        	.byte0
 7831 00ff 00        	.byte0
 7832 0100 17        	.uleb128 0x17
 7833 0101 13        	.uleb128 0x13
 7834 0102 01        	.byte0x1
 7835 0103 03        	.uleb128 0x3
 7836 0104 0E        	.uleb128 0xe
 7837 0105 0B        	.uleb128 0xb
 7838 0106 05        	.uleb128 0x5
 7839 0107 3A        	.uleb128 0x3a
 7840 0108 0B        	.uleb128 0xb
 7841 0109 3B        	.uleb128 0x3b
 7842 010a 05        	.uleb128 0x5
 7843 010b 01        	.uleb128 0x1
 7844 010c 13        	.uleb128 0x13
 7845 010d 00        	.byte0
 7846 010e 00        	.byte0
 7847 010f 18        	.uleb128 0x18
 7848 0110 0D        	.uleb128 0xd
 7849 0111 00        	.byte0
 7850 0112 03        	.uleb128 0x3
 7851 0113 0E        	.uleb128 0xe
 7852 0114 3A        	.uleb128 0x3a
 7853 0115 0B        	.uleb128 0xb
 7854 0116 3B        	.uleb128 0x3b
 7855 0117 05        	.uleb128 0x5
 7856 0118 49        	.uleb128 0x49
 7857 0119 13        	.uleb128 0x13
 7858 011a 38        	.uleb128 0x38
 7859 011b 0B        	.uleb128 0xb
 7860 011c 00        	.byte0
 7861 011d 00        	.byte0
 7862 011e 19        	.uleb128 0x19
 7863 011f 0D        	.uleb128 0xd
 7864 0120 00        	.byte0
 7865 0121 03        	.uleb128 0x3
 7866 0122 0E        	.uleb128 0xe
 7867 0123 3A        	.uleb128 0x3a
 7868 0124 0B        	.uleb128 0xb
 7869 0125 3B        	.uleb128 0x3b
 7870 0126 05        	.uleb128 0x5
 7871 0127 49        	.uleb128 0x49
 7872 0128 13        	.uleb128 0x13
 7873 0129 38        	.uleb128 0x38
 7874 012a 05        	.uleb128 0x5
 7875 012b 00        	.byte0
 7876 012c 00        	.byte0
68K GAS   			page 179


 7877 012d 1A        	.uleb128 0x1a
 7878 012e 13        	.uleb128 0x13
 7879 012f 01        	.byte0x1
 7880 0130 03        	.uleb128 0x3
 7881 0131 0E        	.uleb128 0xe
 7882 0132 0B        	.uleb128 0xb
 7883 0133 0B        	.uleb128 0xb
 7884 0134 3A        	.uleb128 0x3a
 7885 0135 0B        	.uleb128 0xb
 7886 0136 3B        	.uleb128 0x3b
 7887 0137 05        	.uleb128 0x5
 7888 0138 01        	.uleb128 0x1
 7889 0139 13        	.uleb128 0x13
 7890 013a 00        	.byte0
 7891 013b 00        	.byte0
 7892 013c 1B        	.uleb128 0x1b
 7893 013d 13        	.uleb128 0x13
 7894 013e 01        	.byte0x1
 7895 013f 0B        	.uleb128 0xb
 7896 0140 0B        	.uleb128 0xb
 7897 0141 3A        	.uleb128 0x3a
 7898 0142 0B        	.uleb128 0xb
 7899 0143 3B        	.uleb128 0x3b
 7900 0144 05        	.uleb128 0x5
 7901 0145 01        	.uleb128 0x1
 7902 0146 13        	.uleb128 0x13
 7903 0147 00        	.byte0
 7904 0148 00        	.byte0
 7905 0149 1C        	.uleb128 0x1c
 7906 014a 17        	.uleb128 0x17
 7907 014b 01        	.byte0x1
 7908 014c 0B        	.uleb128 0xb
 7909 014d 0B        	.uleb128 0xb
 7910 014e 3A        	.uleb128 0x3a
 7911 014f 0B        	.uleb128 0xb
 7912 0150 3B        	.uleb128 0x3b
 7913 0151 05        	.uleb128 0x5
 7914 0152 01        	.uleb128 0x1
 7915 0153 13        	.uleb128 0x13
 7916 0154 00        	.byte0
 7917 0155 00        	.byte0
 7918 0156 1D        	.uleb128 0x1d
 7919 0157 0D        	.uleb128 0xd
 7920 0158 00        	.byte0
 7921 0159 03        	.uleb128 0x3
 7922 015a 0E        	.uleb128 0xe
 7923 015b 3A        	.uleb128 0x3a
 7924 015c 0B        	.uleb128 0xb
 7925 015d 3B        	.uleb128 0x3b
 7926 015e 05        	.uleb128 0x5
 7927 015f 49        	.uleb128 0x49
 7928 0160 13        	.uleb128 0x13
 7929 0161 00        	.byte0
 7930 0162 00        	.byte0
 7931 0163 1E        	.uleb128 0x1e
 7932 0164 15        	.uleb128 0x15
 7933 0165 01        	.byte0x1
68K GAS   			page 180


 7934 0166 27        	.uleb128 0x27
 7935 0167 19        	.uleb128 0x19
 7936 0168 01        	.uleb128 0x1
 7937 0169 13        	.uleb128 0x13
 7938 016a 00        	.byte0
 7939 016b 00        	.byte0
 7940 016c 1F        	.uleb128 0x1f
 7941 016d 34        	.uleb128 0x34
 7942 016e 00        	.byte0
 7943 016f 03        	.uleb128 0x3
 7944 0170 0E        	.uleb128 0xe
 7945 0171 3A        	.uleb128 0x3a
 7946 0172 0B        	.uleb128 0xb
 7947 0173 3B        	.uleb128 0x3b
 7948 0174 05        	.uleb128 0x5
 7949 0175 49        	.uleb128 0x49
 7950 0176 13        	.uleb128 0x13
 7951 0177 3F        	.uleb128 0x3f
 7952 0178 19        	.uleb128 0x19
 7953 0179 3C        	.uleb128 0x3c
 7954 017a 19        	.uleb128 0x19
 7955 017b 00        	.byte0
 7956 017c 00        	.byte0
 7957 017d 20        	.uleb128 0x20
 7958 017e 34        	.uleb128 0x34
 7959 017f 00        	.byte0
 7960 0180 03        	.uleb128 0x3
 7961 0181 0E        	.uleb128 0xe
 7962 0182 3A        	.uleb128 0x3a
 7963 0183 0B        	.uleb128 0xb
 7964 0184 3B        	.uleb128 0x3b
 7965 0185 0B        	.uleb128 0xb
 7966 0186 49        	.uleb128 0x49
 7967 0187 13        	.uleb128 0x13
 7968 0188 3F        	.uleb128 0x3f
 7969 0189 19        	.uleb128 0x19
 7970 018a 3C        	.uleb128 0x3c
 7971 018b 19        	.uleb128 0x19
 7972 018c 00        	.byte0
 7973 018d 00        	.byte0
 7974 018e 21        	.uleb128 0x21
 7975 018f 0D        	.uleb128 0xd
 7976 0190 00        	.byte0
 7977 0191 03        	.uleb128 0x3
 7978 0192 08        	.uleb128 0x8
 7979 0193 3A        	.uleb128 0x3a
 7980 0194 0B        	.uleb128 0xb
 7981 0195 3B        	.uleb128 0x3b
 7982 0196 0B        	.uleb128 0xb
 7983 0197 49        	.uleb128 0x49
 7984 0198 13        	.uleb128 0x13
 7985 0199 00        	.byte0
 7986 019a 00        	.byte0
 7987 019b 22        	.uleb128 0x22
 7988 019c 13        	.uleb128 0x13
 7989 019d 01        	.byte0x1
 7990 019e 0B        	.uleb128 0xb
68K GAS   			page 181


 7991 019f 05        	.uleb128 0x5
 7992 01a0 3A        	.uleb128 0x3a
 7993 01a1 0B        	.uleb128 0xb
 7994 01a2 3B        	.uleb128 0x3b
 7995 01a3 05        	.uleb128 0x5
 7996 01a4 01        	.uleb128 0x1
 7997 01a5 13        	.uleb128 0x13
 7998 01a6 00        	.byte0
 7999 01a7 00        	.byte0
 8000 01a8 23        	.uleb128 0x23
 8001 01a9 0D        	.uleb128 0xd
 8002 01aa 00        	.byte0
 8003 01ab 03        	.uleb128 0x3
 8004 01ac 08        	.uleb128 0x8
 8005 01ad 3A        	.uleb128 0x3a
 8006 01ae 0B        	.uleb128 0xb
 8007 01af 3B        	.uleb128 0x3b
 8008 01b0 05        	.uleb128 0x5
 8009 01b1 49        	.uleb128 0x49
 8010 01b2 13        	.uleb128 0x13
 8011 01b3 38        	.uleb128 0x38
 8012 01b4 0B        	.uleb128 0xb
 8013 01b5 00        	.byte0
 8014 01b6 00        	.byte0
 8015 01b7 24        	.uleb128 0x24
 8016 01b8 04        	.uleb128 0x4
 8017 01b9 01        	.byte0x1
 8018 01ba 3E        	.uleb128 0x3e
 8019 01bb 0B        	.uleb128 0xb
 8020 01bc 0B        	.uleb128 0xb
 8021 01bd 0B        	.uleb128 0xb
 8022 01be 49        	.uleb128 0x49
 8023 01bf 13        	.uleb128 0x13
 8024 01c0 3A        	.uleb128 0x3a
 8025 01c1 0B        	.uleb128 0xb
 8026 01c2 3B        	.uleb128 0x3b
 8027 01c3 0B        	.uleb128 0xb
 8028 01c4 01        	.uleb128 0x1
 8029 01c5 13        	.uleb128 0x13
 8030 01c6 00        	.byte0
 8031 01c7 00        	.byte0
 8032 01c8 25        	.uleb128 0x25
 8033 01c9 28        	.uleb128 0x28
 8034 01ca 00        	.byte0
 8035 01cb 03        	.uleb128 0x3
 8036 01cc 0E        	.uleb128 0xe
 8037 01cd 1C        	.uleb128 0x1c
 8038 01ce 0B        	.uleb128 0xb
 8039 01cf 00        	.byte0
 8040 01d0 00        	.byte0
 8041 01d1 26        	.uleb128 0x26
 8042 01d2 13        	.uleb128 0x13
 8043 01d3 01        	.byte0x1
 8044 01d4 0B        	.uleb128 0xb
 8045 01d5 06        	.uleb128 0x6
 8046 01d6 3A        	.uleb128 0x3a
 8047 01d7 0B        	.uleb128 0xb
68K GAS   			page 182


 8048 01d8 3B        	.uleb128 0x3b
 8049 01d9 0B        	.uleb128 0xb
 8050 01da 01        	.uleb128 0x1
 8051 01db 13        	.uleb128 0x13
 8052 01dc 00        	.byte0
 8053 01dd 00        	.byte0
 8054 01de 27        	.uleb128 0x27
 8055 01df 21        	.uleb128 0x21
 8056 01e0 00        	.byte0
 8057 01e1 49        	.uleb128 0x49
 8058 01e2 13        	.uleb128 0x13
 8059 01e3 2F        	.uleb128 0x2f
 8060 01e4 06        	.uleb128 0x6
 8061 01e5 00        	.byte0
 8062 01e6 00        	.byte0
 8063 01e7 28        	.uleb128 0x28
 8064 01e8 13        	.uleb128 0x13
 8065 01e9 01        	.byte0x1
 8066 01ea 0B        	.uleb128 0xb
 8067 01eb 05        	.uleb128 0x5
 8068 01ec 3A        	.uleb128 0x3a
 8069 01ed 0B        	.uleb128 0xb
 8070 01ee 3B        	.uleb128 0x3b
 8071 01ef 0B        	.uleb128 0xb
 8072 01f0 01        	.uleb128 0x1
 8073 01f1 13        	.uleb128 0x13
 8074 01f2 00        	.byte0
 8075 01f3 00        	.byte0
 8076 01f4 29        	.uleb128 0x29
 8077 01f5 13        	.uleb128 0x13
 8078 01f6 01        	.byte0x1
 8079 01f7 0B        	.uleb128 0xb
 8080 01f8 06        	.uleb128 0x6
 8081 01f9 3A        	.uleb128 0x3a
 8082 01fa 0B        	.uleb128 0xb
 8083 01fb 3B        	.uleb128 0x3b
 8084 01fc 05        	.uleb128 0x5
 8085 01fd 01        	.uleb128 0x1
 8086 01fe 13        	.uleb128 0x13
 8087 01ff 00        	.byte0
 8088 0200 00        	.byte0
 8089 0201 2A        	.uleb128 0x2a
 8090 0202 0D        	.uleb128 0xd
 8091 0203 00        	.byte0
 8092 0204 03        	.uleb128 0x3
 8093 0205 08        	.uleb128 0x8
 8094 0206 3A        	.uleb128 0x3a
 8095 0207 0B        	.uleb128 0xb
 8096 0208 3B        	.uleb128 0x3b
 8097 0209 05        	.uleb128 0x5
 8098 020a 49        	.uleb128 0x49
 8099 020b 13        	.uleb128 0x13
 8100 020c 38        	.uleb128 0x38
 8101 020d 05        	.uleb128 0x5
 8102 020e 00        	.byte0
 8103 020f 00        	.byte0
 8104 0210 2B        	.uleb128 0x2b
68K GAS   			page 183


 8105 0211 0D        	.uleb128 0xd
 8106 0212 00        	.byte0
 8107 0213 03        	.uleb128 0x3
 8108 0214 0E        	.uleb128 0xe
 8109 0215 3A        	.uleb128 0x3a
 8110 0216 0B        	.uleb128 0xb
 8111 0217 3B        	.uleb128 0x3b
 8112 0218 05        	.uleb128 0x5
 8113 0219 49        	.uleb128 0x49
 8114 021a 13        	.uleb128 0x13
 8115 021b 38        	.uleb128 0x38
 8116 021c 06        	.uleb128 0x6
 8117 021d 00        	.byte0
 8118 021e 00        	.byte0
 8119 021f 2C        	.uleb128 0x2c
 8120 0220 28        	.uleb128 0x28
 8121 0221 00        	.byte0
 8122 0222 03        	.uleb128 0x3
 8123 0223 0E        	.uleb128 0xe
 8124 0224 1C        	.uleb128 0x1c
 8125 0225 0D        	.uleb128 0xd
 8126 0226 00        	.byte0
 8127 0227 00        	.byte0
 8128 0228 2D        	.uleb128 0x2d
 8129 0229 2E        	.uleb128 0x2e
 8130 022a 01        	.byte0x1
 8131 022b 3F        	.uleb128 0x3f
 8132 022c 19        	.uleb128 0x19
 8133 022d 03        	.uleb128 0x3
 8134 022e 0E        	.uleb128 0xe
 8135 022f 3A        	.uleb128 0x3a
 8136 0230 0B        	.uleb128 0xb
 8137 0231 3B        	.uleb128 0x3b
 8138 0232 05        	.uleb128 0x5
 8139 0233 27        	.uleb128 0x27
 8140 0234 19        	.uleb128 0x19
 8141 0235 11        	.uleb128 0x11
 8142 0236 01        	.uleb128 0x1
 8143 0237 12        	.uleb128 0x12
 8144 0238 06        	.uleb128 0x6
 8145 0239 40        	.uleb128 0x40
 8146 023a 18        	.uleb128 0x18
 8147 023b 9642      	.uleb128 0x2116
 8148 023d 19        	.uleb128 0x19
 8149 023e 01        	.uleb128 0x1
 8150 023f 13        	.uleb128 0x13
 8151 0240 00        	.byte0
 8152 0241 00        	.byte0
 8153 0242 2E        	.uleb128 0x2e
 8154 0243 05        	.uleb128 0x5
 8155 0244 00        	.byte0
 8156 0245 03        	.uleb128 0x3
 8157 0246 0E        	.uleb128 0xe
 8158 0247 3A        	.uleb128 0x3a
 8159 0248 0B        	.uleb128 0xb
 8160 0249 3B        	.uleb128 0x3b
 8161 024a 05        	.uleb128 0x5
68K GAS   			page 184


 8162 024b 49        	.uleb128 0x49
 8163 024c 13        	.uleb128 0x13
 8164 024d 02        	.uleb128 0x2
 8165 024e 18        	.uleb128 0x18
 8166 024f 00        	.byte0
 8167 0250 00        	.byte0
 8168 0251 2F        	.uleb128 0x2f
 8169 0252 2E        	.uleb128 0x2e
 8170 0253 01        	.byte0x1
 8171 0254 3F        	.uleb128 0x3f
 8172 0255 19        	.uleb128 0x19
 8173 0256 03        	.uleb128 0x3
 8174 0257 0E        	.uleb128 0xe
 8175 0258 3A        	.uleb128 0x3a
 8176 0259 0B        	.uleb128 0xb
 8177 025a 3B        	.uleb128 0x3b
 8178 025b 05        	.uleb128 0x5
 8179 025c 27        	.uleb128 0x27
 8180 025d 19        	.uleb128 0x19
 8181 025e 49        	.uleb128 0x49
 8182 025f 13        	.uleb128 0x13
 8183 0260 11        	.uleb128 0x11
 8184 0261 01        	.uleb128 0x1
 8185 0262 12        	.uleb128 0x12
 8186 0263 06        	.uleb128 0x6
 8187 0264 40        	.uleb128 0x40
 8188 0265 18        	.uleb128 0x18
 8189 0266 9642      	.uleb128 0x2116
 8190 0268 19        	.uleb128 0x19
 8191 0269 01        	.uleb128 0x1
 8192 026a 13        	.uleb128 0x13
 8193 026b 00        	.byte0
 8194 026c 00        	.byte0
 8195 026d 30        	.uleb128 0x30
 8196 026e 34        	.uleb128 0x34
 8197 026f 00        	.byte0
 8198 0270 03        	.uleb128 0x3
 8199 0271 0E        	.uleb128 0xe
 8200 0272 3A        	.uleb128 0x3a
 8201 0273 0B        	.uleb128 0xb
 8202 0274 3B        	.uleb128 0x3b
 8203 0275 05        	.uleb128 0x5
 8204 0276 49        	.uleb128 0x49
 8205 0277 13        	.uleb128 0x13
 8206 0278 02        	.uleb128 0x2
 8207 0279 18        	.uleb128 0x18
 8208 027a 00        	.byte0
 8209 027b 00        	.byte0
 8210 027c 31        	.uleb128 0x31
 8211 027d 34        	.uleb128 0x34
 8212 027e 00        	.byte0
 8213 027f 03        	.uleb128 0x3
 8214 0280 08        	.uleb128 0x8
 8215 0281 3A        	.uleb128 0x3a
 8216 0282 0B        	.uleb128 0xb
 8217 0283 3B        	.uleb128 0x3b
 8218 0284 05        	.uleb128 0x5
68K GAS   			page 185


 8219 0285 49        	.uleb128 0x49
 8220 0286 13        	.uleb128 0x13
 8221 0287 02        	.uleb128 0x2
 8222 0288 18        	.uleb128 0x18
 8223 0289 00        	.byte0
 8224 028a 00        	.byte0
 8225 028b 32        	.uleb128 0x32
 8226 028c 2E        	.uleb128 0x2e
 8227 028d 01        	.byte0x1
 8228 028e 3F        	.uleb128 0x3f
 8229 028f 19        	.uleb128 0x19
 8230 0290 03        	.uleb128 0x3
 8231 0291 0E        	.uleb128 0xe
 8232 0292 3A        	.uleb128 0x3a
 8233 0293 0B        	.uleb128 0xb
 8234 0294 3B        	.uleb128 0x3b
 8235 0295 0B        	.uleb128 0xb
 8236 0296 27        	.uleb128 0x27
 8237 0297 19        	.uleb128 0x19
 8238 0298 11        	.uleb128 0x11
 8239 0299 01        	.uleb128 0x1
 8240 029a 12        	.uleb128 0x12
 8241 029b 06        	.uleb128 0x6
 8242 029c 40        	.uleb128 0x40
 8243 029d 18        	.uleb128 0x18
 8244 029e 9642      	.uleb128 0x2116
 8245 02a0 19        	.uleb128 0x19
 8246 02a1 01        	.uleb128 0x1
 8247 02a2 13        	.uleb128 0x13
 8248 02a3 00        	.byte0
 8249 02a4 00        	.byte0
 8250 02a5 33        	.uleb128 0x33
 8251 02a6 34        	.uleb128 0x34
 8252 02a7 00        	.byte0
 8253 02a8 03        	.uleb128 0x3
 8254 02a9 08        	.uleb128 0x8
 8255 02aa 3A        	.uleb128 0x3a
 8256 02ab 0B        	.uleb128 0xb
 8257 02ac 3B        	.uleb128 0x3b
 8258 02ad 0B        	.uleb128 0xb
 8259 02ae 49        	.uleb128 0x49
 8260 02af 13        	.uleb128 0x13
 8261 02b0 02        	.uleb128 0x2
 8262 02b1 18        	.uleb128 0x18
 8263 02b2 00        	.byte0
 8264 02b3 00        	.byte0
 8265 02b4 34        	.uleb128 0x34
 8266 02b5 34        	.uleb128 0x34
 8267 02b6 00        	.byte0
 8268 02b7 03        	.uleb128 0x3
 8269 02b8 0E        	.uleb128 0xe
 8270 02b9 3A        	.uleb128 0x3a
 8271 02ba 0B        	.uleb128 0xb
 8272 02bb 3B        	.uleb128 0x3b
 8273 02bc 0B        	.uleb128 0xb
 8274 02bd 49        	.uleb128 0x49
 8275 02be 13        	.uleb128 0x13
68K GAS   			page 186


 8276 02bf 02        	.uleb128 0x2
 8277 02c0 18        	.uleb128 0x18
 8278 02c1 00        	.byte0
 8279 02c2 00        	.byte0
 8280 02c3 35        	.uleb128 0x35
 8281 02c4 2E        	.uleb128 0x2e
 8282 02c5 01        	.byte0x1
 8283 02c6 3F        	.uleb128 0x3f
 8284 02c7 19        	.uleb128 0x19
 8285 02c8 03        	.uleb128 0x3
 8286 02c9 0E        	.uleb128 0xe
 8287 02ca 3A        	.uleb128 0x3a
 8288 02cb 0B        	.uleb128 0xb
 8289 02cc 3B        	.uleb128 0x3b
 8290 02cd 0B        	.uleb128 0xb
 8291 02ce 27        	.uleb128 0x27
 8292 02cf 19        	.uleb128 0x19
 8293 02d0 49        	.uleb128 0x49
 8294 02d1 13        	.uleb128 0x13
 8295 02d2 11        	.uleb128 0x11
 8296 02d3 01        	.uleb128 0x1
 8297 02d4 12        	.uleb128 0x12
 8298 02d5 06        	.uleb128 0x6
 8299 02d6 40        	.uleb128 0x40
 8300 02d7 18        	.uleb128 0x18
 8301 02d8 9642      	.uleb128 0x2116
 8302 02da 19        	.uleb128 0x19
 8303 02db 00        	.byte0
 8304 02dc 00        	.byte0
 8305 02dd 36        	.uleb128 0x36
 8306 02de 05        	.uleb128 0x5
 8307 02df 00        	.byte0
 8308 02e0 03        	.uleb128 0x3
 8309 02e1 0E        	.uleb128 0xe
 8310 02e2 3A        	.uleb128 0x3a
 8311 02e3 0B        	.uleb128 0xb
 8312 02e4 3B        	.uleb128 0x3b
 8313 02e5 0B        	.uleb128 0xb
 8314 02e6 49        	.uleb128 0x49
 8315 02e7 13        	.uleb128 0x13
 8316 02e8 02        	.uleb128 0x2
 8317 02e9 18        	.uleb128 0x18
 8318 02ea 00        	.byte0
 8319 02eb 00        	.byte0
 8320 02ec 00        	.byte0
 8321               	.section.debug_aranges,"",@progbits
 8322 0000 0000 001C 	.long0x1c
 8323 0004 0002      	.word0x2
 8324 0006 0000 0000 	.long.Ldebug_info0
 8325 000a 04        	.byte0x4
 8326 000b 00        	.byte0
 8327 000c 0000      	.word0
 8328 000e 0000      	.word0
 8329 0010 0000 0000 	.long.Ltext0
 8330 0014 0000 2062 	.long.Letext0-.Ltext0
 8331 0018 0000 0000 	.long0
 8332 001c 0000 0000 	.long0
68K GAS   			page 187


 8333               	.section.debug_line,"",@progbits
 8334               	.Ldebug_line0:
 8335 0000 0000 05F6 	.section.debug_str,"MS",@progbits,1
 8335      0002 0000 
 8335      02E9 0201 
 8335      FB0E 0D00 
 8335      0101 0101 
 8336               	.LASF41:
 8337 0000 5F73 7369 	.string"_ssize_t"
 8337      7A65 5F74 
 8337      00
 8338               	.LASF301:
 8339 0009 4861 6E64 	.string"Handles"
 8339      6C65 7300 
 8340               	.LASF334:
 8341 0011 5661 6C69 	.string"ValidationDataPtr"
 8341      6461 7469 
 8341      6F6E 4461 
 8341      7461 5074 
 8341      7200 
 8342               	.LASF143:
 8343 0023 5F5F 6C6F 	.string"__locale_t"
 8343      6361 6C65 
 8343      5F74 00
 8344               	.LASF46:
 8345 002e 5F5F 7661 	.string"__value"
 8345      6C75 6500 
 8346               	.LASF253:
 8347 0036 4461 7461 	.string"DataSource"
 8347      536F 7572 
 8347      6365 00
 8348               	.LASF239:
 8349 0041 4346 455F 	.string"CFE_TBL_DUMP_FREE"
 8349      5442 4C5F 
 8349      4455 4D50 
 8349      5F46 5245 
 8349      4500 
 8350               	.LASF298:
 8351 0053 576F 726B 	.string"WorkBufMutex"
 8351      4275 664D 
 8351      7574 6578 
 8351      00
 8352               	.LASF144:
 8353 0060 5F5F 7366 	.string"__sf"
 8353      00
 8354               	.LASF200:
 8355 0065 4C61 7374 	.string"LastValCrc"
 8355      5661 6C43 
 8355      7263 00
 8356               	.LASF175:
 8357 0070 4346 455F 	.string"CFE_FS_Header_t"
 8357      4653 5F48 
 8357      6561 6465 
 8357      725F 7400 
 8358               	.LASF155:
 8359 0080 4343 5344 	.string"CCSDS_PriHdr_t"
 8359      535F 5072 
68K GAS   			page 188


 8359      6948 6472 
 8359      5F74 00
 8360               	.LASF81:
 8361 008f 5F72 6561 	.string"_read"
 8361      6400 
 8362               	.LASF340:
 8363 0095 456E 6469 	.string"EndianCheck"
 8363      616E 4368 
 8363      6563 6B00 
 8364               	.LASF184:
 8365 00a1 4346 455F 	.string"CFE_TBL_ValidateCmd_Payload_t"
 8365      5442 4C5F 
 8365      5661 6C69 
 8365      6461 7465 
 8365      436D 645F 
 8366               	.LASF82:
 8367 00bf 5F77 7269 	.string"_write"
 8367      7465 00
 8368               	.LASF349:
 8369 00c6 4346 455F 	.string"CFE_TBL_AbortLoad"
 8369      5442 4C5F 
 8369      4162 6F72 
 8369      744C 6F61 
 8369      6400 
 8370               	.LASF152:
 8371 00d8 5374 7265 	.string"StreamId"
 8371      616D 4964 
 8371      00
 8372               	.LASF123:
 8373 00e1 5F61 7363 	.string"_asctime_buf"
 8373      7469 6D65 
 8373      5F62 7566 
 8373      00
 8374               	.LASF291:
 8375 00ee 4D73 6750 	.string"MsgPtr"
 8375      7472 00
 8376               	.LASF108:
 8377 00f5 5F63 7674 	.string"_cvtlen"
 8377      6C65 6E00 
 8378               	.LASF195:
 8379 00fd 436D 6443 	.string"CmdCounter"
 8379      6F75 6E74 
 8379      6572 00
 8380               	.LASF35:
 8381 0108 5F4D 7574 	.string"_Mutex_Control"
 8381      6578 5F43 
 8381      6F6E 7472 
 8381      6F6C 00
 8382               	.LASF147:
 8383 0117 5F67 6C6F 	.string"_global_atexit"
 8383      6261 6C5F 
 8383      6174 6578 
 8383      6974 00
 8384               	.LASF11:
 8385 0126 7569 6E74 	.string"uint32"
 8385      3332 00
 8386               	.LASF142:
68K GAS   			page 189


 8387 012d 5F75 6E75 	.string"_unused"
 8387      7365 6400 
 8388               	.LASF227:
 8389 0135 4475 6D70 	.string"DumpOnly"
 8389      4F6E 6C79 
 8389      00
 8390               	.LASF55:
 8391 013e 5F5F 746D 	.string"__tm"
 8391      00
 8392               	.LASF138:
 8393 0143 5F77 6373 	.string"_wcsrtombs_state"
 8393      7274 6F6D 
 8393      6273 5F73 
 8393      7461 7465 
 8393      00
 8394               	.LASF86:
 8395 0154 5F6E 6275 	.string"_nbuf"
 8395      6600 
 8396               	.LASF56:
 8397 015a 5F5F 746D 	.string"__tm_sec"
 8397      5F73 6563 
 8397      00
 8398               	.LASF34:
 8399 0163 5F54 6872 	.string"_Thread_Control"
 8399      6561 645F 
 8399      436F 6E74 
 8399      726F 6C00 
 8400               	.LASF131:
 8401 0173 5F6C 3634 	.string"_l64a_buf"
 8401      615F 6275 
 8401      6600 
 8402               	.LASF245:
 8403 017d 4372 634F 	.string"CrcOfTable"
 8403      6654 6162 
 8403      6C65 00
 8404               	.LASF241:
 8405 0188 4346 455F 	.string"CFE_TBL_DUMP_PERFORMED"
 8405      5442 4C5F 
 8405      4455 4D50 
 8405      5F50 4552 
 8405      464F 524D 
 8406               	.LASF234:
 8407 019f 4346 455F 	.string"CFE_TBL_TblRegPacket_t"
 8407      5442 4C5F 
 8407      5462 6C52 
 8407      6567 5061 
 8407      636B 6574 
 8408               	.LASF95:
 8409 01b6 5F73 7464 	.string"_stdin"
 8409      696E 00
 8410               	.LASF332:
 8411 01bd 5661 6C69 	.string"ValidationStatus"
 8411      6461 7469 
 8411      6F6E 5374 
 8411      6174 7573 
 8411      00
 8412               	.LASF83:
68K GAS   			page 190


 8413 01ce 5F73 6565 	.string"_seek"
 8413      6B00 
 8414               	.LASF347:
 8415 01d4 4346 455F 	.string"CFE_TBL_ResetCmd"
 8415      5442 4C5F 
 8415      5265 7365 
 8415      7443 6D64 
 8415      00
 8416               	.LASF211:
 8417 01e5 4C61 7374 	.string"LastUpdatedTbl"
 8417      5570 6461 
 8417      7465 6454 
 8417      626C 00
 8418               	.LASF338:
 8419 01f4 5462 6C53 	.string"TblSizeInBytes"
 8419      697A 6549 
 8419      6E42 7974 
 8419      6573 00
 8420               	.LASF119:
 8421 0203 5F6D 756C 	.string"_mult"
 8421      7400 
 8422               	.LASF194:
 8423 0209 4346 455F 	.string"CFE_TBL_NotifyCmd_t"
 8423      5442 4C5F 
 8423      4E6F 7469 
 8423      6679 436D 
 8423      645F 7400 
 8424               	.LASF357:
 8425 021d 2F68 6F6D 	.string"/home/simulink/cFS_FreeRTOS_seL4/cfe/fsw/cfe-core/src/tbl/cfe_tbl_task_cmds.c"
 8425      652F 7369 
 8425      6D75 6C69 
 8425      6E6B 2F63 
 8425      4653 5F46 
 8426               	.LASF345:
 8427 026b 4346 455F 	.string"CFE_TBL_LoadCmd"
 8427      5442 4C5F 
 8427      4C6F 6164 
 8427      436D 6400 
 8428               	.LASF170:
 8429 027b 5072 6F63 	.string"ProcessorID"
 8429      6573 736F 
 8429      7249 4400 
 8430               	.LASF43:
 8431 0287 5F5F 7763 	.string"__wch"
 8431      6800 
 8432               	.LASF343:
 8433 028d 4475 6D70 	.string"DumpIndex"
 8433      496E 6465 
 8433      7800 
 8434               	.LASF78:
 8435 0297 5F66 696C 	.string"_file"
 8435      6500 
 8436               	.LASF65:
 8437 029d 5F6F 6E5F 	.string"_on_exit_args"
 8437      6578 6974 
 8437      5F61 7267 
 8437      7300 
68K GAS   			page 191


 8438               	.LASF319:
 8439 02ab 4346 455F 	.string"CFE_TBL_DeleteCDSCmd"
 8439      5442 4C5F 
 8439      4465 6C65 
 8439      7465 4344 
 8439      5343 6D64 
 8440               	.LASF198:
 8441 02c0 4E75 6D4C 	.string"NumLoadPending"
 8441      6F61 6450 
 8441      656E 6469 
 8441      6E67 00
 8442               	.LASF342:
 8443 02cf 576F 726B 	.string"WorkingBufferPtr"
 8443      696E 6742 
 8443      7566 6665 
 8443      7250 7472 
 8443      00
 8444               	.LASF315:
 8445 02e0 4346 455F 	.string"CFE_TBL_CmdProcRet_t"
 8445      5442 4C5F 
 8445      436D 6450 
 8445      726F 6352 
 8445      6574 5F74 
 8446               	.LASF134:
 8447 02f5 5F6D 6272 	.string"_mbrlen_state"
 8447      6C65 6E5F 
 8447      7374 6174 
 8447      6500 
 8448               	.LASF6:
 8449 0303 6C6F 6E67 	.string"long int"
 8449      2069 6E74 
 8449      00
 8450               	.LASF185:
 8451 030c 4346 455F 	.string"CFE_TBL_ActivateCmd_Payload_t"
 8451      5442 4C5F 
 8451      4163 7469 
 8451      7661 7465 
 8451      436D 645F 
 8452               	.LASF145:
 8453 032a 5F69 6D70 	.string"_impure_ptr"
 8453      7572 655F 
 8453      7074 7200 
 8454               	.LASF316:
 8455 0336 5265 7475 	.string"ReturnCode"
 8455      726E 436F 
 8455      6465 00
 8456               	.LASF105:
 8457 0341 5F72 6573 	.string"_result_k"
 8457      756C 745F 
 8457      6B00 
 8458               	.LASF313:
 8459 034b 4346 455F 	.string"CFE_TBL_DONT_INC_CTR"
 8459      5442 4C5F 
 8459      444F 4E54 
 8459      5F49 4E43 
 8459      5F43 5452 
 8460               	.LASF249:
68K GAS   			page 192


 8461 0360 4346 455F 	.string"CFE_TBL_BufParams_t"
 8461      5442 4C5F 
 8461      4275 6650 
 8461      6172 616D 
 8461      735F 7400 
 8462               	.LASF261:
 8463 0374 5570 6461 	.string"Updated"
 8463      7465 6400 
 8464               	.LASF75:
 8465 037c 5F73 697A 	.string"_size"
 8465      6500 
 8466               	.LASF173:
 8467 0382 5469 6D65 	.string"TimeSubSeconds"
 8467      5375 6253 
 8467      6563 6F6E 
 8467      6473 00
 8468               	.LASF310:
 8469 0391 4346 455F 	.string"CFE_TBL_File_Hdr_t"
 8469      5442 4C5F 
 8469      4669 6C65 
 8469      5F48 6472 
 8469      5F74 00
 8470               	.LASF219:
 8471 03a4 4163 7469 	.string"ActiveBufferAddr"
 8471      7665 4275 
 8471      6666 6572 
 8471      4164 6472 
 8471      00
 8472               	.LASF124:
 8473 03b5 5F6C 6F63 	.string"_localtime_buf"
 8473      616C 7469 
 8473      6D65 5F62 
 8473      7566 00
 8474               	.LASF161:
 8475 03c4 5072 696F 	.string"Priority"
 8475      7269 7479 
 8475      00
 8476               	.LASF248:
 8477 03cd 5061 7274 	.string"Partition"
 8477      6974 696F 
 8477      6E00 
 8478               	.LASF309:
 8479 03d7 4E75 6D42 	.string"NumBytes"
 8479      7974 6573 
 8479      00
 8480               	.LASF318:
 8481 03e0 4346 455F 	.string"CFE_TBL_AbortLoadCmd"
 8481      5442 4C5F 
 8481      4162 6F72 
 8481      744C 6F61 
 8481      6443 6D64 
 8482               	.LASF60:
 8483 03f5 5F5F 746D 	.string"__tm_mon"
 8483      5F6D 6F6E 
 8483      00
 8484               	.LASF293:
 8485 03fe 5069 7065 	.string"PipeName"
68K GAS   			page 193


 8485      4E61 6D65 
 8485      00
 8486               	.LASF244:
 8487 0407 5265 7375 	.string"Result"
 8487      6C74 00
 8488               	.LASF252:
 8489 040e 5661 6C69 	.string"Validated"
 8489      6461 7465 
 8489      6400 
 8490               	.LASF216:
 8491 0418 546C 6D48 	.string"TlmHeader"
 8491      6561 6465 
 8491      7200 
 8492               	.LASF337:
 8493 0422 4475 6D70 	.string"DumpDataAddr"
 8493      4461 7461 
 8493      4164 6472 
 8493      00
 8494               	.LASF218:
 8495 042f 5369 7A65 	.string"Size"
 8495      00
 8496               	.LASF121:
 8497 0434 5F75 6E75 	.string"_unused_rand"
 8497      7365 645F 
 8497      7261 6E64 
 8497      00
 8498               	.LASF1:
 8499 0441 7369 676E 	.string"signed char"
 8499      6564 2063 
 8499      6861 7200 
 8500               	.LASF15:
 8501 044d 626F 6F6C 	.string"boolean"
 8501      6561 6E00 
 8502               	.LASF158:
 8503 0455 4346 455F 	.string"CFE_SB_Msg_t"
 8503      5342 5F4D 
 8503      7367 5F74 
 8503      00
 8504               	.LASF193:
 8505 0462 5061 796C 	.string"Payload"
 8505      6F61 6400 
 8506               	.LASF33:
 8507 046a 5F54 6872 	.string"_Thread_queue_Heads"
 8507      6561 645F 
 8507      7175 6575 
 8507      655F 4865 
 8507      6164 7300 
 8508               	.LASF190:
 8509 047e 5061 7261 	.string"Parameter"
 8509      6D65 7465 
 8509      7200 
 8510               	.LASF189:
 8511 0488 4346 455F 	.string"CFE_TBL_AbortLdCmd_Payload_t"
 8511      5442 4C5F 
 8511      4162 6F72 
 8511      744C 6443 
 8511      6D64 5F50 
68K GAS   			page 194


 8512               	.LASF0:
 8513 04a5 756E 7369 	.string"unsigned char"
 8513      676E 6564 
 8513      2063 6861 
 8513      7200 
 8514               	.LASF267:
 8515 04b3 4275 6666 	.string"Buffers"
 8515      6572 7300 
 8516               	.LASF201:
 8517 04bb 4C61 7374 	.string"LastValStatus"
 8517      5661 6C53 
 8517      7461 7475 
 8517      7300 
 8518               	.LASF100:
 8519 04c9 5F75 6E73 	.string"_unspecified_locale_info"
 8519      7065 6369 
 8519      6669 6564 
 8519      5F6C 6F63 
 8519      616C 655F 
 8520               	.LASF247:
 8521 04e2 506F 6F6C 	.string"PoolHdl"
 8521      4864 6C00 
 8522               	.LASF93:
 8523 04ea 5F72 6565 	.string"_reent"
 8523      6E74 00
 8524               	.LASF146:
 8525 04f1 5F67 6C6F 	.string"_global_impure_ptr"
 8525      6261 6C5F 
 8525      696D 7075 
 8525      7265 5F70 
 8525      7472 00
 8526               	.LASF341:
 8527 0504 4346 455F 	.string"CFE_TBL_DumpCmd"
 8527      5442 4C5F 
 8527      4475 6D70 
 8527      436D 6400 
 8528               	.LASF311:
 8529 0514 4346 455F 	.string"CFE_TBL_TaskData"
 8529      5442 4C5F 
 8529      5461 736B 
 8529      4461 7461 
 8529      00
 8530               	.LASF199:
 8531 0525 5661 6C69 	.string"ValidationCtr"
 8531      6461 7469 
 8531      6F6E 4374 
 8531      7200 
 8532               	.LASF346:
 8533 0533 4578 7472 	.string"ExtraByte"
 8533      6142 7974 
 8533      6500 
 8534               	.LASF179:
 8535 053d 4346 455F 	.string"CFE_TBL_LoadCmd_Payload_t"
 8535      5442 4C5F 
 8535      4C6F 6164 
 8535      436D 645F 
 8535      5061 796C 
68K GAS   			page 195


 8536               	.LASF28:
 8537 0557 5F54 6872 	.string"_Thread_queue_Queue"
 8537      6561 645F 
 8537      7175 6575 
 8537      655F 5175 
 8537      6575 6500 
 8538               	.LASF233:
 8539 056b 4346 455F 	.string"CFE_TBL_TblRegPacket_Payload_t"
 8539      5442 4C5F 
 8539      5462 6C52 
 8539      6567 5061 
 8539      636B 6574 
 8540               	.LASF16:
 8541 058a 6368 6172 	.string"char"
 8541      00
 8542               	.LASF72:
 8543 058f 5F66 6E73 	.string"_fns"
 8543      00
 8544               	.LASF282:
 8545 0594 5265 6752 	.string"RegRecPtr"
 8545      6563 5074 
 8545      7200 
 8546               	.LASF84:
 8547 059e 5F63 6C6F 	.string"_close"
 8547      7365 00
 8548               	.LASF269:
 8549 05a5 4C6F 6164 	.string"LoadInProgress"
 8549      496E 5072 
 8549      6F67 7265 
 8549      7373 00
 8550               	.LASF295:
 8551 05b4 5461 626C 	.string"TableTaskAppId"
 8551      6554 6173 
 8551      6B41 7070 
 8551      4964 00
 8552               	.LASF14:
 8553 05c3 6370 7561 	.string"cpuaddr"
 8553      6464 7200 
 8554               	.LASF27:
 8555 05cb 5F54 6963 	.string"_Ticket_lock_Control"
 8555      6B65 745F 
 8555      6C6F 636B 
 8555      5F43 6F6E 
 8555      7472 6F6C 
 8556               	.LASF192:
 8557 05e0 436D 6448 	.string"CmdHeader"
 8557      6561 6465 
 8557      7200 
 8558               	.LASF226:
 8559 05ea 4C6F 6164 	.string"LoadPending"
 8559      5065 6E64 
 8559      696E 6700 
 8560               	.LASF17:
 8561 05f6 5365 636F 	.string"Seconds"
 8561      6E64 7300 
 8562               	.LASF156:
 8563 05fe 4477 6F72 	.string"Dword"
68K GAS   			page 196


 8563      6400 
 8564               	.LASF166:
 8565 0604 4346 455F 	.string"CFE_ES_CDSHandle_t"
 8565      4553 5F43 
 8565      4453 4861 
 8565      6E64 6C65 
 8565      5F74 00
 8566               	.LASF222:
 8567 0617 5469 6D65 	.string"TimeOfLastUpdate"
 8567      4F66 4C61 
 8567      7374 5570 
 8567      6461 7465 
 8567      00
 8568               	.LASF31:
 8569 0628 5F6F 776E 	.string"_owner"
 8569      6572 00
 8570               	.LASF292:
 8571 062f 436D 6450 	.string"CmdPipe"
 8571      6970 6500 
 8572               	.LASF209:
 8573 0637 4D65 6D50 	.string"MemPoolHandle"
 8573      6F6F 6C48 
 8573      616E 646C 
 8573      6500 
 8574               	.LASF317:
 8575 0645 436D 6450 	.string"CmdPtr"
 8575      7472 00
 8576               	.LASF266:
 8577 064c 4E6F 7469 	.string"NotificationParam"
 8577      6669 6361 
 8577      7469 6F6E 
 8577      5061 7261 
 8577      6D00 
 8578               	.LASF312:
 8579 065e 4346 455F 	.string"CFE_TBL_INC_ERR_CTR"
 8579      5442 4C5F 
 8579      494E 435F 
 8579      4552 525F 
 8579      4354 5200 
 8580               	.LASF286:
 8581 0672 4346 455F 	.string"CFE_TBL_RegDumpRec_t"
 8581      5442 4C5F 
 8581      5265 6744 
 8581      756D 7052 
 8581      6563 5F74 
 8582               	.LASF197:
 8583 0687 4E75 6D54 	.string"NumTables"
 8583      6162 6C65 
 8583      7300 
 8584               	.LASF196:
 8585 0691 4572 7243 	.string"ErrCounter"
 8585      6F75 6E74 
 8585      6572 00
 8586               	.LASF181:
 8587 069c 5461 626C 	.string"TableName"
 8587      654E 616D 
 8587      6500 
68K GAS   			page 197


 8588               	.LASF250:
 8589 06a6 4275 6666 	.string"BufferPtr"
 8589      6572 5074 
 8589      7200 
 8590               	.LASF325:
 8591 06b0 5374 6446 	.string"StdFileHeader"
 8591      696C 6548 
 8591      6561 6465 
 8591      7200 
 8592               	.LASF285:
 8593 06be 5661 6C69 	.string"ValidationFunc"
 8593      6461 7469 
 8593      6F6E 4675 
 8593      6E63 00
 8594               	.LASF151:
 8595 06cd 5F74 7A6E 	.string"_tzname"
 8595      616D 6500 
 8596               	.LASF39:
 8597 06d5 5F6E 6573 	.string"_nest_level"
 8597      745F 6C65 
 8597      7665 6C00 
 8598               	.LASF294:
 8599 06e1 5069 7065 	.string"PipeDepth"
 8599      4465 7074 
 8599      6800 
 8600               	.LASF228:
 8601 06eb 4462 6C42 	.string"DblBuffered"
 8601      7566 6665 
 8601      7265 6400 
 8602               	.LASF80:
 8603 06f7 5F63 6F6F 	.string"_cookie"
 8603      6B69 6500 
 8604               	.LASF186:
 8605 06ff 4346 455F 	.string"CFE_TBL_DumpRegCmd_Payload_t"
 8605      5442 4C5F 
 8605      4475 6D70 
 8605      5265 6743 
 8605      6D64 5F50 
 8606               	.LASF54:
 8607 071c 5F77 6473 	.string"_wds"
 8607      00
 8608               	.LASF182:
 8609 0721 4475 6D70 	.string"DumpFilename"
 8609      4669 6C65 
 8609      6E61 6D65 
 8609      00
 8610               	.LASF322:
 8611 072e 4346 455F 	.string"CFE_TBL_TlmRegCmd"
 8611      5442 4C5F 
 8611      546C 6D52 
 8611      6567 436D 
 8611      6400 
 8612               	.LASF111:
 8613 0740 5F73 6967 	.string"_sig_func"
 8613      5F66 756E 
 8613      6300 
 8614               	.LASF167:
68K GAS   			page 198


 8615 074a 436F 6E74 	.string"ContentType"
 8615      656E 7454 
 8615      7970 6500 
 8616               	.LASF88:
 8617 0756 5F6F 6666 	.string"_offset"
 8617      7365 7400 
 8618               	.LASF237:
 8619 075e 4346 455F 	.string"CFE_TBL_VALIDATION_PERFORMED"
 8619      5442 4C5F 
 8619      5641 4C49 
 8619      4441 5449 
 8619      4F4E 5F50 
 8620               	.LASF109:
 8621 077b 5F63 7674 	.string"_cvtbuf"
 8621      6275 6600 
 8622               	.LASF203:
 8623 0783 4C61 7374 	.string"LastValTableName"
 8623      5661 6C54 
 8623      6162 6C65 
 8623      4E61 6D65 
 8623      00
 8624               	.LASF24:
 8625 0794 5F6E 6578 	.string"_next_ticket"
 8625      745F 7469 
 8625      636B 6574 
 8625      00
 8626               	.LASF296:
 8627 07a1 486B 546C 	.string"HkTlmTblRegIndex"
 8627      6D54 626C 
 8627      5265 6749 
 8627      6E64 6578 
 8627      00
 8628               	.LASF306:
 8629 07b2 4346 455F 	.string"CFE_TBL_TaskData_t"
 8629      5442 4C5F 
 8629      5461 736B 
 8629      4461 7461 
 8629      5F74 00
 8630               	.LASF231:
 8631 07c5 4372 6974 	.string"Critical"
 8631      6963 616C 
 8631      00
 8632               	.LASF326:
 8633 07ce 4669 6C65 	.string"FileDescriptor"
 8633      4465 7363 
 8633      7269 7074 
 8633      6F72 00
 8634               	.LASF106:
 8635 07dd 5F70 3573 	.string"_p5s"
 8635      00
 8636               	.LASF12:
 8637 07e2 6C6F 6E67 	.string"long unsigned int"
 8637      2075 6E73 
 8637      6967 6E65 
 8637      6420 696E 
 8637      7400 
 8638               	.LASF348:
68K GAS   			page 199


 8639 07f4 4346 455F 	.string"CFE_TBL_NoopCmd"
 8639      5442 4C5F 
 8639      4E6F 6F70 
 8639      436D 6400 
 8640               	.LASF255:
 8641 0804 4170 7049 	.string"AppId"
 8641      6400 
 8642               	.LASF76:
 8643 080a 5F5F 7346 	.string"__sFILE"
 8643      494C 4500 
 8644               	.LASF102:
 8645 0812 5F5F 7364 	.string"__sdidinit"
 8645      6964 696E 
 8645      6974 00
 8646               	.LASF92:
 8647 081d 5F66 6C61 	.string"_flags2"
 8647      6773 3200 
 8648               	.LASF299:
 8649 0825 4372 6974 	.string"CritRegHandle"
 8649      5265 6748 
 8649      616E 646C 
 8649      6500 
 8650               	.LASF204:
 8651 0833 5375 6363 	.string"SuccessValCtr"
 8651      6573 7356 
 8651      616C 4374 
 8651      7200 
 8652               	.LASF230:
 8653 0841 4F77 6E65 	.string"OwnerAppName"
 8653      7241 7070 
 8653      4E61 6D65 
 8653      00
 8654               	.LASF350:
 8655 084e 4346 455F 	.string"CFE_TBL_GetTblRegData"
 8655      5442 4C5F 
 8655      4765 7454 
 8655      626C 5265 
 8655      6744 6174 
 8656               	.LASF40:
 8657 0864 5F4C 4F43 	.string"_LOCK_RECURSIVE_T"
 8657      4B5F 5245 
 8657      4355 5253 
 8657      4956 455F 
 8657      5400 
 8658               	.LASF271:
 8659 0876 5661 6C69 	.string"ValidateInactiveIndex"
 8659      6461 7465 
 8659      496E 6163 
 8659      7469 7665 
 8659      496E 6465 
 8660               	.LASF94:
 8661 088c 5F65 7272 	.string"_errno"
 8661      6E6F 00
 8662               	.LASF259:
 8663 0893 5573 6564 	.string"UsedFlag"
 8663      466C 6167 
 8663      00
68K GAS   			page 200


 8664               	.LASF132:
 8665 089c 5F73 6967 	.string"_signal_buf"
 8665      6E61 6C5F 
 8665      6275 6600 
 8666               	.LASF268:
 8667 08a8 4865 6164 	.string"HeadOfAccessList"
 8667      4F66 4163 
 8667      6365 7373 
 8667      4C69 7374 
 8667      00
 8668               	.LASF336:
 8669 08b9 4346 455F 	.string"CFE_TBL_DumpToFile"
 8669      5442 4C5F 
 8669      4475 6D70 
 8669      546F 4669 
 8669      6C65 00
 8670               	.LASF303:
 8671 08cc 4372 6974 	.string"CritReg"
 8671      5265 6700 
 8672               	.LASF328:
 8673 08d4 4475 6D70 	.string"DumpRecord"
 8673      5265 636F 
 8673      7264 00
 8674               	.LASF305:
 8675 08df 4475 6D70 	.string"DumpControlBlocks"
 8675      436F 6E74 
 8675      726F 6C42 
 8675      6C6F 636B 
 8675      7300 
 8676               	.LASF50:
 8677 08f1 5F42 6967 	.string"_Bigint"
 8677      696E 7400 
 8678               	.LASF270:
 8679 08f9 5661 6C69 	.string"ValidateActiveIndex"
 8679      6461 7465 
 8679      4163 7469 
 8679      7665 496E 
 8679      6465 7800 
 8680               	.LASF52:
 8681 090d 5F6D 6178 	.string"_maxwds"
 8681      7764 7300 
 8682               	.LASF103:
 8683 0915 5F5F 636C 	.string"__cleanup"
 8683      6561 6E75 
 8683      7000 
 8684               	.LASF321:
 8685 091f 5374 6174 	.string"Status"
 8685      7573 00
 8686               	.LASF251:
 8687 0926 5461 6B65 	.string"Taken"
 8687      6E00 
 8688               	.LASF284:
 8689 092c 4E75 6D55 	.string"NumUsers"
 8689      7365 7273 
 8689      00
 8690               	.LASF99:
 8691 0935 5F65 6D65 	.string"_emergency"
68K GAS   			page 201


 8691      7267 656E 
 8691      6379 00
 8692               	.LASF344:
 8693 0940 4475 6D70 	.string"DumpCtrlPtr"
 8693      4374 726C 
 8693      5074 7200 
 8694               	.LASF260:
 8695 094c 4C6F 636B 	.string"LockFlag"
 8695      466C 6167 
 8695      00
 8696               	.LASF323:
 8697 0955 4346 455F 	.string"CFE_TBL_DumpRegCmd"
 8697      5442 4C5F 
 8697      4475 6D70 
 8697      5265 6743 
 8697      6D64 00
 8698               	.LASF7:
 8699 0968 6C6F 6E67 	.string"long long int"
 8699      206C 6F6E 
 8699      6720 696E 
 8699      7400 
 8700               	.LASF246:
 8701 0976 4346 455F 	.string"CFE_TBL_ValidationResult_t"
 8701      5442 4C5F 
 8701      5661 6C69 
 8701      6461 7469 
 8701      6F6E 5265 
 8702               	.LASF115:
 8703 0991 5F6E 696F 	.string"_niobs"
 8703      6273 00
 8704               	.LASF279:
 8705 0998 4346 455F 	.string"CFE_TBL_RegistryRec_t"
 8705      5442 4C5F 
 8705      5265 6769 
 8705      7374 7279 
 8705      5265 635F 
 8706               	.LASF112:
 8707 09ae 5F5F 7367 	.string"__sglue"
 8707      6C75 6500 
 8708               	.LASF141:
 8709 09b6 5F6E 6D61 	.string"_nmalloc"
 8709      6C6C 6F63 
 8709      00
 8710               	.LASF125:
 8711 09bf 5F67 616D 	.string"_gamma_signgam"
 8711      6D61 5F73 
 8711      6967 6E67 
 8711      616D 00
 8712               	.LASF187:
 8713 09ce 4346 455F 	.string"CFE_TBL_TlmRegCmd_Payload_t"
 8713      5442 4C5F 
 8713      546C 6D52 
 8713      6567 436D 
 8713      645F 5061 
 8714               	.LASF354:
 8715 09ea 4346 455F 	.string"CFE_TBL_HousekeepingCmd"
 8715      5442 4C5F 
68K GAS   			page 202


 8715      486F 7573 
 8715      656B 6565 
 8715      7069 6E67 
 8716               	.LASF352:
 8717 0a02 436F 756E 	.string"Count"
 8717      7400 
 8718               	.LASF300:
 8719 0a08 4C6F 6164 	.string"LoadBuffs"
 8719      4275 6666 
 8719      7300 
 8720               	.LASF107:
 8721 0a12 5F66 7265 	.string"_freelist"
 8721      656C 6973 
 8721      7400 
 8722               	.LASF178:
 8723 0a1c 4C6F 6164 	.string"LoadFilename"
 8723      4669 6C65 
 8723      6E61 6D65 
 8723      00
 8724               	.LASF116:
 8725 0a29 5F69 6F62 	.string"_iobs"
 8725      7300 
 8726               	.LASF114:
 8727 0a2f 5F67 6C75 	.string"_glue"
 8727      6500 
 8728               	.LASF53:
 8729 0a35 5F73 6967 	.string"_sign"
 8729      6E00 
 8730               	.LASF278:
 8731 0a3b 4163 7469 	.string"ActiveBufferIndex"
 8731      7665 4275 
 8731      6666 6572 
 8731      496E 6465 
 8731      7800 
 8732               	.LASF223:
 8733 0a4d 4669 6C65 	.string"FileCreateTimeSecs"
 8733      4372 6561 
 8733      7465 5469 
 8733      6D65 5365 
 8733      6373 00
 8734               	.LASF26:
 8735 0a60 756E 7369 	.string"unsigned int"
 8735      676E 6564 
 8735      2069 6E74 
 8735      00
 8736               	.LASF149:
 8737 0a6d 5F74 696D 	.string"_timezone"
 8737      657A 6F6E 
 8737      6500 
 8738               	.LASF235:
 8739 0a77 4346 455F 	.string"CFE_TBL_VALIDATION_FREE"
 8739      5442 4C5F 
 8739      5641 4C49 
 8739      4441 5449 
 8739      4F4E 5F46 
 8740               	.LASF242:
 8741 0a8f 4346 455F 	.string"CFE_TBL_DumpState_t"
68K GAS   			page 203


 8741      5442 4C5F 
 8741      4475 6D70 
 8741      5374 6174 
 8741      655F 7400 
 8742               	.LASF139:
 8743 0aa3 5F68 5F65 	.string"_h_errno"
 8743      7272 6E6F 
 8743      00
 8744               	.LASF327:
 8745 0aac 4861 6E64 	.string"HandleIterator"
 8745      6C65 4974 
 8745      6572 6174 
 8745      6F72 00
 8746               	.LASF172:
 8747 0abb 5469 6D65 	.string"TimeSeconds"
 8747      5365 636F 
 8747      6E64 7300 
 8748               	.LASF137:
 8749 0ac7 5F77 6372 	.string"_wcrtomb_state"
 8749      746F 6D62 
 8749      5F73 7461 
 8749      7465 00
 8750               	.LASF307:
 8751 0ad6 5265 7365 	.string"Reserved"
 8751      7276 6564 
 8751      00
 8752               	.LASF59:
 8753 0adf 5F5F 746D 	.string"__tm_mday"
 8753      5F6D 6461 
 8753      7900 
 8754               	.LASF210:
 8755 0ae9 4C61 7374 	.string"LastUpdateTime"
 8755      5570 6461 
 8755      7465 5469 
 8755      6D65 00
 8756               	.LASF110:
 8757 0af8 5F6E 6577 	.string"_new"
 8757      00
 8758               	.LASF32:
 8759 0afd 5F6E 616D 	.string"_name"
 8759      6500 
 8760               	.LASF85:
 8761 0b03 5F75 6275 	.string"_ubuf"
 8761      6600 
 8762               	.LASF162:
 8763 0b09 5265 6C69 	.string"Reliability"
 8763      6162 696C 
 8763      6974 7900 
 8764               	.LASF97:
 8765 0b15 5F73 7464 	.string"_stderr"
 8765      6572 7200 
 8766               	.LASF281:
 8767 0b1d 4475 6D70 	.string"DumpBufferPtr"
 8767      4275 6666 
 8767      6572 5074 
 8767      7200 
 8768               	.LASF277:
68K GAS   			page 204


 8769 0b2b 4E6F 7469 	.string"NotifyByMsg"
 8769      6679 4279 
 8769      4D73 6700 
 8770               	.LASF130:
 8771 0b37 5F77 6374 	.string"_wctomb_state"
 8771      6F6D 625F 
 8771      7374 6174 
 8771      6500 
 8772               	.LASF91:
 8773 0b45 5F6D 6273 	.string"_mbstate"
 8773      7461 7465 
 8773      00
 8774               	.LASF126:
 8775 0b4e 5F72 616E 	.string"_rand_next"
 8775      645F 6E65 
 8775      7874 00
 8776               	.LASF258:
 8777 0b59 4E65 7874 	.string"NextLink"
 8777      4C69 6E6B 
 8777      00
 8778               	.LASF77:
 8779 0b62 5F66 6C61 	.string"_flags"
 8779      6773 00
 8780               	.LASF256:
 8781 0b69 5265 6749 	.string"RegIndex"
 8781      6E64 6578 
 8781      00
 8782               	.LASF351:
 8783 0b72 4346 455F 	.string"CFE_TBL_GetHkData"
 8783      5442 4C5F 
 8783      4765 7448 
 8783      6B44 6174 
 8783      6100 
 8784               	.LASF70:
 8785 0b84 5F61 7465 	.string"_atexit"
 8785      7869 7400 
 8786               	.LASF289:
 8787 0b8c 5462 6C52 	.string"TblRegPacket"
 8787      6567 5061 
 8787      636B 6574 
 8787      00
 8788               	.LASF18:
 8789 0b99 5375 6273 	.string"Subseconds"
 8789      6563 6F6E 
 8789      6473 00
 8790               	.LASF45:
 8791 0ba4 5F5F 636F 	.string"__count"
 8791      756E 7400 
 8792               	.LASF320:
 8793 0bac 4372 6974 	.string"CritRegRecPtr"
 8793      5265 6752 
 8793      6563 5074 
 8793      7200 
 8794               	.LASF221:
 8795 0bba 5661 6C69 	.string"ValidationFuncPtr"
 8795      6461 7469 
 8795      6F6E 4675 
68K GAS   			page 205


 8795      6E63 5074 
 8795      7200 
 8796               	.LASF280:
 8797 0bcc 4346 455F 	.string"CFE_TBL_CritRegRec_t"
 8797      5442 4C5F 
 8797      4372 6974 
 8797      5265 6752 
 8797      6563 5F74 
 8798               	.LASF217:
 8799 0be1 4346 455F 	.string"CFE_TBL_HkPacket_t"
 8799      5442 4C5F 
 8799      486B 5061 
 8799      636B 6574 
 8799      5F74 00
 8800               	.LASF229:
 8801 0bf4 4E61 6D65 	.string"Name"
 8801      00
 8802               	.LASF191:
 8803 0bf9 4346 455F 	.string"CFE_TBL_NotifyCmd_Payload_t"
 8803      5442 4C5F 
 8803      4E6F 7469 
 8803      6679 436D 
 8803      645F 5061 
 8804               	.LASF62:
 8805 0c15 5F5F 746D 	.string"__tm_wday"
 8805      5F77 6461 
 8805      7900 
 8806               	.LASF264:
 8807 0c1f 4F77 6E65 	.string"OwnerAppId"
 8807      7241 7070 
 8807      4964 00
 8808               	.LASF183:
 8809 0c2a 4346 455F 	.string"CFE_TBL_DumpCmd_Payload_t"
 8809      5442 4C5F 
 8809      4475 6D70 
 8809      436D 645F 
 8809      5061 796C 
 8810               	.LASF157:
 8811 0c44 4279 7465 	.string"Byte"
 8811      00
 8812               	.LASF21:
 8813 0c49 6C6F 6E67 	.string"long double"
 8813      2064 6F75 
 8813      626C 6500 
 8814               	.LASF63:
 8815 0c55 5F5F 746D 	.string"__tm_yday"
 8815      5F79 6461 
 8815      7900 
 8816               	.LASF37:
 8817 0c5f 5F4D 7574 	.string"_Mutex_recursive_Control"
 8817      6578 5F72 
 8817      6563 7572 
 8817      7369 7665 
 8817      5F43 6F6E 
 8818               	.LASF30:
 8819 0c78 5F68 6561 	.string"_heads"
 8819      6473 00
68K GAS   			page 206


 8820               	.LASF240:
 8821 0c7f 4346 455F 	.string"CFE_TBL_DUMP_PENDING"
 8821      5442 4C5F 
 8821      4455 4D50 
 8821      5F50 454E 
 8821      4449 4E47 
 8822               	.LASF118:
 8823 0c94 5F73 6565 	.string"_seed"
 8823      6400 
 8824               	.LASF36:
 8825 0c9a 5F51 7565 	.string"_Queue"
 8825      7565 00
 8826               	.LASF308:
 8827 0ca1 4F66 6673 	.string"Offset"
 8827      6574 00
 8828               	.LASF254:
 8829 0ca8 4346 455F 	.string"CFE_TBL_LoadBuff_t"
 8829      5442 4C5F 
 8829      4C6F 6164 
 8829      4275 6666 
 8829      5F74 00
 8830               	.LASF23:
 8831 0cbb 5F66 706F 	.string"_fpos_t"
 8831      735F 7400 
 8832               	.LASF44:
 8833 0cc3 5F5F 7763 	.string"__wchb"
 8833      6862 00
 8834               	.LASF314:
 8835 0cca 4346 455F 	.string"CFE_TBL_INC_CMD_CTR"
 8835      5442 4C5F 
 8835      494E 435F 
 8835      434D 445F 
 8835      4354 5200 
 8836               	.LASF335:
 8837 0cde 5661 6C49 	.string"ValIndex"
 8837      6E64 6578 
 8837      00
 8838               	.LASF287:
 8839 0ce7 4C61 7374 	.string"LastTblUpdated"
 8839      5462 6C55 
 8839      7064 6174 
 8839      6564 00
 8840               	.LASF129:
 8841 0cf6 5F6D 6274 	.string"_mbtowc_state"
 8841      6F77 635F 
 8841      7374 6174 
 8841      6500 
 8842               	.LASF333:
 8843 0d04 4346 455F 	.string"CFE_TBL_ValidateCmd"
 8843      5442 4C5F 
 8843      5661 6C69 
 8843      6461 7465 
 8843      436D 6400 
 8844               	.LASF13:
 8845 0d18 6C6F 6E67 	.string"long long unsigned int"
 8845      206C 6F6E 
 8845      6720 756E 
68K GAS   			page 207


 8845      7369 676E 
 8845      6564 2069 
 8846               	.LASF205:
 8847 0d2f 4661 696C 	.string"FailedValCtr"
 8847      6564 5661 
 8847      6C43 7472 
 8847      00
 8848               	.LASF274:
 8849 0d3c 4E6F 7469 	.string"NotificationCC"
 8849      6669 6361 
 8849      7469 6F6E 
 8849      4343 00
 8850               	.LASF358:
 8851 0d4b 2F68 6F6D 	.string"/home/simulink/cFS_FreeRTOS_seL4/build/cpu1/cfe/tbl"
 8851      652F 7369 
 8851      6D75 6C69 
 8851      6E6B 2F63 
 8851      4653 5F46 
 8852               	.LASF67:
 8853 0d7f 5F64 736F 	.string"_dso_handle"
 8853      5F68 616E 
 8853      646C 6500 
 8854               	.LASF232:
 8855 0d8b 4279 7465 	.string"ByteAlign4"
 8855      416C 6967 
 8855      6E34 00
 8856               	.LASF117:
 8857 0d96 5F72 616E 	.string"_rand48"
 8857      6434 3800 
 8858               	.LASF96:
 8859 0d9e 5F73 7464 	.string"_stdout"
 8859      6F75 7400 
 8860               	.LASF243:
 8861 0da6 5374 6174 	.string"State"
 8861      6500 
 8862               	.LASF207:
 8863 0dac 4E75 6D46 	.string"NumFreeSharedBufs"
 8863      7265 6553 
 8863      6861 7265 
 8863      6442 7566 
 8863      7300 
 8864               	.LASF87:
 8865 0dbe 5F62 6C6B 	.string"_blksize"
 8865      7369 7A65 
 8865      00
 8866               	.LASF304:
 8867 0dc7 5661 6C69 	.string"ValidationResults"
 8867      6461 7469 
 8867      6F6E 5265 
 8867      7375 6C74 
 8867      7300 
 8868               	.LASF275:
 8869 0dd9 4372 6974 	.string"CriticalTable"
 8869      6963 616C 
 8869      5461 626C 
 8869      6500 
 8870               	.LASF74:
68K GAS   			page 208


 8871 0de7 5F62 6173 	.string"_base"
 8871      6500 
 8872               	.LASF122:
 8873 0ded 5F73 7472 	.string"_strtok_last"
 8873      746F 6B5F 
 8873      6C61 7374 
 8873      00
 8874               	.LASF297:
 8875 0dfa 5265 6769 	.string"RegistryMutex"
 8875      7374 7279 
 8875      4D75 7465 
 8875      7800 
 8876               	.LASF135:
 8877 0e08 5F6D 6272 	.string"_mbrtowc_state"
 8877      746F 7763 
 8877      5F73 7461 
 8877      7465 00
 8878               	.LASF48:
 8879 0e17 5F66 6C6F 	.string"_flock_t"
 8879      636B 5F74 
 8879      00
 8880               	.LASF113:
 8881 0e20 5F5F 4649 	.string"__FILE"
 8881      4C45 00
 8882               	.LASF90:
 8883 0e27 5F6C 6F63 	.string"_lock"
 8883      6B00 
 8884               	.LASF339:
 8885 0e2d 5462 6C46 	.string"TblFileHeader"
 8885      696C 6548 
 8885      6561 6465 
 8885      7200 
 8886               	.LASF47:
 8887 0e3b 5F6D 6273 	.string"_mbstate_t"
 8887      7461 7465 
 8887      5F74 00
 8888               	.LASF127:
 8889 0e46 5F72 3438 	.string"_r48"
 8889      00
 8890               	.LASF154:
 8891 0e4b 4C65 6E67 	.string"Length"
 8891      7468 00
 8892               	.LASF42:
 8893 0e52 7769 6E74 	.string"wint_t"
 8893      5F74 00
 8894               	.LASF2:
 8895 0e59 6F73 616C 	.string"osalbool"
 8895      626F 6F6C 
 8895      00
 8896               	.LASF51:
 8897 0e62 5F6E 6578 	.string"_next"
 8897      7400 
 8898               	.LASF89:
 8899 0e68 5F64 6174 	.string"_data"
 8899      6100 
 8900               	.LASF213:
 8901 0e6e 4C61 7374 	.string"LastFileDumped"
68K GAS   			page 209


 8901      4669 6C65 
 8901      4475 6D70 
 8901      6564 00
 8902               	.LASF180:
 8903 0e7d 4163 7469 	.string"ActiveTblFlag"
 8903      7665 5462 
 8903      6C46 6C61 
 8903      6700 
 8904               	.LASF164:
 8905 0e8b 4346 455F 	.string"CFE_SB_Default_Qos"
 8905      5342 5F44 
 8905      6566 6175 
 8905      6C74 5F51 
 8905      6F73 00
 8906               	.LASF283:
 8907 0e9e 4346 455F 	.string"CFE_TBL_DumpControl_t"
 8907      5442 4C5F 
 8907      4475 6D70 
 8907      436F 6E74 
 8907      726F 6C5F 
 8908               	.LASF206:
 8909 0eb4 4E75 6D56 	.string"NumValRequests"
 8909      616C 5265 
 8909      7175 6573 
 8909      7473 00
 8910               	.LASF159:
 8911 0ec3 4346 455F 	.string"CFE_SB_PipeId_t"
 8911      5342 5F50 
 8911      6970 6549 
 8911      645F 7400 
 8912               	.LASF324:
 8913 0ed3 4669 6C65 	.string"FileExistedPrev"
 8913      4578 6973 
 8913      7465 6450 
 8913      7265 7600 
 8914               	.LASF38:
 8915 0ee3 5F4D 7574 	.string"_Mutex"
 8915      6578 00
 8916               	.LASF290:
 8917 0eea 4E6F 7469 	.string"NotifyMsg"
 8917      6679 4D73 
 8917      6700 
 8918               	.LASF276:
 8919 0ef4 5573 6572 	.string"UserDefAddr"
 8919      4465 6641 
 8919      6464 7200 
 8920               	.LASF272:
 8921 0f00 4475 6D70 	.string"DumpControlIndex"
 8921      436F 6E74 
 8921      726F 6C49 
 8921      6E64 6578 
 8921      00
 8922               	.LASF331:
 8923 0f11 4346 455F 	.string"CFE_TBL_ActivateCmd"
 8923      5442 4C5F 
 8923      4163 7469 
 8923      7661 7465 
68K GAS   			page 210


 8923      436D 6400 
 8924               	.LASF160:
 8925 0f25 4346 455F 	.string"CFE_SB_MsgPayloadPtr_t"
 8925      5342 5F4D 
 8925      7367 5061 
 8925      796C 6F61 
 8925      6450 7472 
 8926               	.LASF8:
 8927 0f3c 7569 6E74 	.string"uint8"
 8927      3800 
 8928               	.LASF128:
 8929 0f42 5F6D 626C 	.string"_mblen_state"
 8929      656E 5F73 
 8929      7461 7465 
 8929      00
 8930               	.LASF4:
 8931 0f4f 7368 6F72 	.string"short int"
 8931      7420 696E 
 8931      7400 
 8932               	.LASF302:
 8933 0f59 5265 6769 	.string"Registry"
 8933      7374 7279 
 8933      00
 8934               	.LASF273:
 8935 0f62 4344 5348 	.string"CDSHandle"
 8935      616E 646C 
 8935      6500 
 8936               	.LASF148:
 8937 0f6c 7375 626F 	.string"suboptarg"
 8937      7074 6172 
 8937      6700 
 8938               	.LASF68:
 8939 0f76 5F66 6E74 	.string"_fntypes"
 8939      7970 6573 
 8939      00
 8940               	.LASF215:
 8941 0f7f 4346 455F 	.string"CFE_TBL_HkPacket_Payload_t"
 8941      5442 4C5F 
 8941      486B 5061 
 8941      636B 6574 
 8941      5F50 6179 
 8942               	.LASF61:
 8943 0f9a 5F5F 746D 	.string"__tm_year"
 8943      5F79 6561 
 8943      7200 
 8944               	.LASF202:
 8945 0fa4 4163 7469 	.string"ActiveBuffer"
 8945      7665 4275 
 8945      6666 6572 
 8945      00
 8946               	.LASF188:
 8947 0fb1 4346 455F 	.string"CFE_TBL_DelCDSCmd_Payload_t"
 8947      5442 4C5F 
 8947      4465 6C43 
 8947      4453 436D 
 8947      645F 5061 
 8948               	.LASF353:
68K GAS   			page 211


 8949 0fcd 5661 6C50 	.string"ValPtr"
 8949      7472 00
 8950               	.LASF79:
 8951 0fd4 5F6C 6266 	.string"_lbfsize"
 8951      7369 7A65 
 8951      00
 8952               	.LASF98:
 8953 0fdd 5F69 6E63 	.string"_inc"
 8953      00
 8954               	.LASF71:
 8955 0fe2 5F69 6E64 	.string"_ind"
 8955      00
 8956               	.LASF20:
 8957 0fe7 5F5F 696E 	.string"__int64_t"
 8957      7436 345F 
 8957      7400 
 8958               	.LASF208:
 8959 0ff1 4279 7465 	.string"ByteAlignPad1"
 8959      416C 6967 
 8959      6E50 6164 
 8959      3100 
 8960               	.LASF3:
 8961 0fff 696E 7431 	.string"int16"
 8961      3600 
 8962               	.LASF73:
 8963 1005 5F5F 7362 	.string"__sbuf"
 8963      7566 00
 8964               	.LASF69:
 8965 100c 5F69 735F 	.string"_is_cxa"
 8965      6378 6100 
 8966               	.LASF19:
 8967 1014 4346 455F 	.string"CFE_TIME_SysTime_t"
 8967      5449 4D45 
 8967      5F53 7973 
 8967      5469 6D65 
 8967      5F74 00
 8968               	.LASF140:
 8969 1027 5F6E 6578 	.string"_nextf"
 8969      7466 00
 8970               	.LASF265:
 8971 102e 4E6F 7469 	.string"NotificationMsgId"
 8971      6669 6361 
 8971      7469 6F6E 
 8971      4D73 6749 
 8971      6400 
 8972               	.LASF168:
 8973 1040 5375 6254 	.string"SubType"
 8973      7970 6500 
 8974               	.LASF176:
 8975 1048 4346 455F 	.string"CFE_TBL_CallbackFuncPtr_t"
 8975      5442 4C5F 
 8975      4361 6C6C 
 8975      6261 636B 
 8975      4675 6E63 
 8976               	.LASF257:
 8977 1062 5072 6576 	.string"PrevLink"
 8977      4C69 6E6B 
68K GAS   			page 212


 8977      00
 8978               	.LASF101:
 8979 106b 5F6C 6F63 	.string"_locale"
 8979      616C 6500 
 8980               	.LASF49:
 8981 1073 5F5F 554C 	.string"__ULong"
 8981      6F6E 6700 
 8982               	.LASF214:
 8983 107b 4C61 7374 	.string"LastTableLoaded"
 8983      5461 626C 
 8983      654C 6F61 
 8983      6465 6400 
 8984               	.LASF174:
 8985 108b 4465 7363 	.string"Description"
 8985      7269 7074 
 8985      696F 6E00 
 8986               	.LASF104:
 8987 1097 5F72 6573 	.string"_result"
 8987      756C 7400 
 8988               	.LASF165:
 8989 109f 4346 455F 	.string"CFE_ES_MemHandle_t"
 8989      4553 5F4D 
 8989      656D 4861 
 8989      6E64 6C65 
 8989      5F74 00
 8990               	.LASF29:
 8991 10b2 5F4C 6F63 	.string"_Lock"
 8991      6B00 
 8992               	.LASF25:
 8993 10b8 5F6E 6F77 	.string"_now_serving"
 8993      5F73 6572 
 8993      7669 6E67 
 8993      00
 8994               	.LASF212:
 8995 10c5 4C61 7374 	.string"LastFileLoaded"
 8995      4669 6C65 
 8995      4C6F 6164 
 8995      6564 00
 8996               	.LASF263:
 8997 10d4 4346 455F 	.string"CFE_TBL_AccessDescriptor_t"
 8997      5442 4C5F 
 8997      4163 6365 
 8997      7373 4465 
 8997      7363 7269 
 8998               	.LASF288:
 8999 10ef 486B 5061 	.string"HkPacket"
 8999      636B 6574 
 8999      00
 9000               	.LASF22:
 9001 10f8 5F6F 6666 	.string"_off_t"
 9001      5F74 00
 9002               	.LASF120:
 9003 10ff 5F61 6464 	.string"_add"
 9003      00
 9004               	.LASF220:
 9005 1104 496E 6163 	.string"InactiveBufferAddr"
 9005      7469 7665 
68K GAS   			page 213


 9005      4275 6666 
 9005      6572 4164 
 9005      6472 00
 9006               	.LASF355:
 9007 1117 4475 6D70 	.string"DumpTime"
 9007      5469 6D65 
 9007      00
 9008               	.LASF356:
 9009 1120 474E 5520 	.string"GNU C11 7.3.0 20180125 (RTEMS 5, RSB d2b25d131d55adcb38219f2cd8cbec2436ee78ab, Newlib 3.0.0) -malign-int -mcpu=528x -g -O0 -fomit-frame-pointer"
 9009      4331 3120 
 9009      372E 332E 
 9009      3020 3230 
 9009      3138 3031 
 9010               	.LASF10:
 9011 11b0 7368 6F72 	.string"short unsigned int"
 9011      7420 756E 
 9011      7369 676E 
 9011      6564 2069 
 9011      6E74 00
 9012               	.LASF58:
 9013 11c3 5F5F 746D 	.string"__tm_hour"
 9013      5F68 6F75 
 9013      7200 
 9014               	.LASF169:
 9015 11cd 5370 6163 	.string"SpacecraftID"
 9015      6563 7261 
 9015      6674 4944 
 9015      00
 9016               	.LASF171:
 9017 11da 4170 706C 	.string"ApplicationID"
 9017      6963 6174 
 9017      696F 6E49 
 9017      4400 
 9018               	.LASF5:
 9019 11e8 696E 7433 	.string"int32"
 9019      3200 
 9020               	.LASF153:
 9021 11ee 5365 7175 	.string"Sequence"
 9021      656E 6365 
 9021      00
 9022               	.LASF136:
 9023 11f7 5F6D 6273 	.string"_mbsrtowcs_state"
 9023      7274 6F77 
 9023      6373 5F73 
 9023      7461 7465 
 9023      00
 9024               	.LASF238:
 9025 1208 4346 455F 	.string"CFE_TBL_ValidationState_t"
 9025      5442 4C5F 
 9025      5661 6C69 
 9025      6461 7469 
 9025      6F6E 5374 
 9026               	.LASF329:
 9027 1222 4669 6C65 	.string"FileSize"
 9027      5369 7A65 
 9027      00
 9028               	.LASF225:
68K GAS   			page 214


 9029 122b 5461 626C 	.string"TableLoadedOnce"
 9029      654C 6F61 
 9029      6465 644F 
 9029      6E63 6500 
 9030               	.LASF224:
 9031 123b 4669 6C65 	.string"FileCreateTimeSubSecs"
 9031      4372 6561 
 9031      7465 5469 
 9031      6D65 5375 
 9031      6253 6563 
 9032               	.LASF66:
 9033 1251 5F66 6E61 	.string"_fnargs"
 9033      7267 7300 
 9034               	.LASF64:
 9035 1259 5F5F 746D 	.string"__tm_isdst"
 9035      5F69 7364 
 9035      7374 00
 9036               	.LASF150:
 9037 1264 5F64 6179 	.string"_daylight"
 9037      6C69 6768 
 9037      7400 
 9038               	.LASF177:
 9039 126e 4346 455F 	.string"CFE_TBL_Handle_t"
 9039      5442 4C5F 
 9039      4861 6E64 
 9039      6C65 5F74 
 9039      00
 9040               	.LASF236:
 9041 127f 4346 455F 	.string"CFE_TBL_VALIDATION_PENDING"
 9041      5442 4C5F 
 9041      5641 4C49 
 9041      4441 5449 
 9041      4F4E 5F50 
 9042               	.LASF57:
 9043 129a 5F5F 746D 	.string"__tm_min"
 9043      5F6D 696E 
 9043      00
 9044               	.LASF9:
 9045 12a3 7569 6E74 	.string"uint16"
 9045      3136 00
 9046               	.LASF133:
 9047 12aa 5F67 6574 	.string"_getdate_err"
 9047      6461 7465 
 9047      5F65 7272 
 9047      00
 9048               	.LASF163:
 9049 12b7 4346 455F 	.string"CFE_SB_Qos_t"
 9049      5342 5F51 
 9049      6F73 5F74 
 9049      00
 9050               	.LASF262:
 9051 12c4 4275 6666 	.string"BufferIndex"
 9051      6572 496E 
 9051      6465 7800 
 9052               	.LASF330:
 9053 12d0 4E75 6D45 	.string"NumEntries"
 9053      6E74 7269 
68K GAS   			page 215


 9053      6573 00
 9054               	.ident"GCC: (GNU) 7.3.0 20180125 (RTEMS 5, RSB d2b25d131d55adcb38219f2cd8cbec2436ee78ab, Newlib 3.0.0)"
68K GAS   			page 216


DEFINED SYMBOLS
                            *ABS*:0000000000000000 cfe_tbl_task_cmds.c
    {standard input}:17     .text:0000000000000000 CFE_TBL_HousekeepingCmd
    {standard input}:245    .text:0000000000000210 CFE_TBL_GetHkData
    {standard input}:524    .text:00000000000004f6 CFE_TBL_GetTblRegData
    {standard input}:1790   .text:0000000000001018 CFE_TBL_DumpToFile
    {standard input}:725    .text:000000000000071e CFE_TBL_NoopCmd
    {standard input}:761    .text:0000000000000746 CFE_TBL_ResetCmd
    {standard input}:829    .text:0000000000000792 CFE_TBL_LoadCmd
    {standard input}:1377   .text:0000000000000c76 CFE_TBL_DumpCmd
    {standard input}:2088   .text:0000000000001274 CFE_TBL_ValidateCmd
    {standard input}:2469   .text:00000000000015ce CFE_TBL_ActivateCmd
    {standard input}:2699   .text:00000000000017a6 CFE_TBL_DumpRegCmd
    {standard input}:3231   .text:0000000000001c86 CFE_TBL_TlmRegCmd
    {standard input}:3337   .text:0000000000001d2e CFE_TBL_DeleteCDSCmd
    {standard input}:3578   .text:0000000000001f1e CFE_TBL_AbortLoadCmd
    {standard input}:3694   .text:0000000000002000 CFE_TBL_AbortLoad

UNDEFINED SYMBOLS
CFE_TBL_TaskData
CFE_SB_TimeStampMsg
CFE_SB_SendMsg
CFE_EVS_SendEvent
OS_open
CFE_FS_SetTimestamp
CFE_ES_WriteToSysLog
OS_close
CFE_SB_MessageStringSet
CFE_ES_GetAppName
CFE_SB_MessageStringGet
CFE_TBL_ReadHeaders
CFE_TBL_FindTableInRegistry
CFE_TBL_GetWorkingBuffer
OS_read
CFE_PSP_MemCpy
CFE_ES_CalculateCRC
strncpy
CFE_TBL_SendNotificationMsg
CFE_PSP_MemSet
OS_creat
CFE_FS_InitHeader
CFE_FS_WriteHeader
CFE_TBL_ByteSwapTblHeader
OS_write
strncmp
CFE_ES_DeleteCDS
