68K GAS   			page 1


   1               	
   2               	.file"cfe_tbl_internal.c"
   3               	.text
   4               	.Ltext0:
   5               	.cfi_sections.debug_frame
   6               	.section.rodata
   7               	.LC0:
   8 0000 5442 4C5F 	.string"TBL_REG_MUT"
   8      5245 475F 
   8      4D55 5400 
   9               	.LC1:
  10 000c 4346 455F 	.string"CFE_TBL:Registry mutex creation failed! RC=0x%08x\n"
  10      5442 4C3A 
  10      5265 6769 
  10      7374 7279 
  10      206D 7574 
  11               	.LC2:
  12 003f 5442 4C5F 	.string"TBL_WRK_MUT"
  12      5752 4B5F 
  12      4D55 5400 
  13               	.LC3:
  14 004b 4346 455F 	.string"CFE_TBL:Working buffer mutex creation failed! RC=0x%08x\n"
  14      5442 4C3A 
  14      576F 726B 
  14      696E 6720 
  14      6275 6666 
  15               	.LC4:
  16 0084 4346 455F 	.string"CFE_TBL:InitBuffers PoolCreate fail Status=0x%X\n"
  16      5442 4C3A 
  16      496E 6974 
  16      4275 6666 
  16      6572 7320 
  17               	.LC5:
  18 00b5 4346 455F 	.string"CFE_TBL:InitBuffers GetPoolBuf Fail Index=%d, Status=0x%X\n"
  18      5442 4C3A 
  18      496E 6974 
  18      4275 6666 
  18      6572 7320 
  19               	.LC6:
  20 00f0 4346 455F 	.string"CFE_TBL.CritReg"
  20      5442 4C2E 
  20      4372 6974 
  20      5265 6700 
  21               	.LC7:
  22 0100 4346 455F 	.string"CFE_TBL:EarlyInit-Failed to recover Critical Table Registry (Err=0x%08X)\n"
  22      5442 4C3A 
  22      4561 726C 
  22      7949 6E69 
  22      742D 4661 
  23               	.LC8:
  24 014a 4346 455F 	.string"CFE_TBL:EarlyInit-Failed to create Critical Table Registry (Err=0x%08X)\n"
  24      5442 4C3A 
  24      4561 726C 
  24      7949 6E69 
  24      742D 4661 
  25               	.LC9:
  26 0193 4346 455F 	.string"CFE_TBL:EarlyInit-Failed to save Critical Table Registry (Err=0x%08X)\n"
68K GAS   			page 2


  26      5442 4C3A 
  26      4561 726C 
  26      7949 6E69 
  26      742D 4661 
  27               	.text
  28               	.align2
  29               	.globlCFE_TBL_EarlyInit
  30               	.typeCFE_TBL_EarlyInit, @function
  31               	CFE_TBL_EarlyInit:
  32               	.LFB59:
  33               	.file 1 "/home/simulink/cFS_FreeRTOS_seL4/cfe/fsw/cfe-core/src/tbl/cfe_tbl_internal.c"
   1:/home/simulink/cFS_FreeRTOS_seL4/cfe/fsw/cfe-core/src/tbl/cfe_tbl_internal.c **** /*
   2:/home/simulink/cFS_FreeRTOS_seL4/cfe/fsw/cfe-core/src/tbl/cfe_tbl_internal.c **** ** $Id: cfe_tbl_internal.c 1.15 2014/08/22 16:30:24GMT-05:00 lwalling Exp  $
   3:/home/simulink/cFS_FreeRTOS_seL4/cfe/fsw/cfe-core/src/tbl/cfe_tbl_internal.c **** **
   4:/home/simulink/cFS_FreeRTOS_seL4/cfe/fsw/cfe-core/src/tbl/cfe_tbl_internal.c **** **      Copyright (c) 2004-2012, United States government as represented by the 
   5:/home/simulink/cFS_FreeRTOS_seL4/cfe/fsw/cfe-core/src/tbl/cfe_tbl_internal.c **** **      administrator of the National Aeronautics Space Administration.  
   6:/home/simulink/cFS_FreeRTOS_seL4/cfe/fsw/cfe-core/src/tbl/cfe_tbl_internal.c **** **      All rights reserved. This software(cFE) was created at NASA's Goddard 
   7:/home/simulink/cFS_FreeRTOS_seL4/cfe/fsw/cfe-core/src/tbl/cfe_tbl_internal.c **** **      Space Flight Center pursuant to government contracts.
   8:/home/simulink/cFS_FreeRTOS_seL4/cfe/fsw/cfe-core/src/tbl/cfe_tbl_internal.c **** **
   9:/home/simulink/cFS_FreeRTOS_seL4/cfe/fsw/cfe-core/src/tbl/cfe_tbl_internal.c **** **      This is governed by the NASA Open Source Agreement and may be used, 
  10:/home/simulink/cFS_FreeRTOS_seL4/cfe/fsw/cfe-core/src/tbl/cfe_tbl_internal.c **** **      distributed and modified only pursuant to the terms of that agreement.
  11:/home/simulink/cFS_FreeRTOS_seL4/cfe/fsw/cfe-core/src/tbl/cfe_tbl_internal.c **** **  
  12:/home/simulink/cFS_FreeRTOS_seL4/cfe/fsw/cfe-core/src/tbl/cfe_tbl_internal.c **** **
  13:/home/simulink/cFS_FreeRTOS_seL4/cfe/fsw/cfe-core/src/tbl/cfe_tbl_internal.c **** ** Purpose:  cFE Table Services (TBL) utility function source file
  14:/home/simulink/cFS_FreeRTOS_seL4/cfe/fsw/cfe-core/src/tbl/cfe_tbl_internal.c **** **
  15:/home/simulink/cFS_FreeRTOS_seL4/cfe/fsw/cfe-core/src/tbl/cfe_tbl_internal.c **** ** Author:   D. Kobe/the Hammers Company, Inc.
  16:/home/simulink/cFS_FreeRTOS_seL4/cfe/fsw/cfe-core/src/tbl/cfe_tbl_internal.c **** **
  17:/home/simulink/cFS_FreeRTOS_seL4/cfe/fsw/cfe-core/src/tbl/cfe_tbl_internal.c **** ** Notes:
  18:/home/simulink/cFS_FreeRTOS_seL4/cfe/fsw/cfe-core/src/tbl/cfe_tbl_internal.c **** **
  19:/home/simulink/cFS_FreeRTOS_seL4/cfe/fsw/cfe-core/src/tbl/cfe_tbl_internal.c **** ** $Log: cfe_tbl_internal.c  $
  20:/home/simulink/cFS_FreeRTOS_seL4/cfe/fsw/cfe-core/src/tbl/cfe_tbl_internal.c **** ** Revision 1.15 2014/08/22 16:30:24GMT-05:00 lwalling 
  21:/home/simulink/cFS_FreeRTOS_seL4/cfe/fsw/cfe-core/src/tbl/cfe_tbl_internal.c **** ** Change signed loop counters to unsigned
  22:/home/simulink/cFS_FreeRTOS_seL4/cfe/fsw/cfe-core/src/tbl/cfe_tbl_internal.c **** ** Revision 1.14 2012/02/22 15:13:51EST lwalling 
  23:/home/simulink/cFS_FreeRTOS_seL4/cfe/fsw/cfe-core/src/tbl/cfe_tbl_internal.c **** ** Remove obsolete TODO comments
  24:/home/simulink/cFS_FreeRTOS_seL4/cfe/fsw/cfe-core/src/tbl/cfe_tbl_internal.c **** ** Revision 1.13 2012/01/13 12:17:39EST acudmore 
  25:/home/simulink/cFS_FreeRTOS_seL4/cfe/fsw/cfe-core/src/tbl/cfe_tbl_internal.c **** ** Changed license text to reflect open source
  26:/home/simulink/cFS_FreeRTOS_seL4/cfe/fsw/cfe-core/src/tbl/cfe_tbl_internal.c **** ** Revision 1.12 2012/01/04 17:27:07EST sstrege 
  27:/home/simulink/cFS_FreeRTOS_seL4/cfe/fsw/cfe-core/src/tbl/cfe_tbl_internal.c **** ** Added LockFlag check when checking for inactive buffer use
  28:/home/simulink/cFS_FreeRTOS_seL4/cfe/fsw/cfe-core/src/tbl/cfe_tbl_internal.c **** ** Revision 1.11 2011/12/28 14:02:55EST lwalling 
  29:/home/simulink/cFS_FreeRTOS_seL4/cfe/fsw/cfe-core/src/tbl/cfe_tbl_internal.c **** ** Add validation tests for spacecraft ID and processor ID to CFE_TBL_ReadHeaders()
  30:/home/simulink/cFS_FreeRTOS_seL4/cfe/fsw/cfe-core/src/tbl/cfe_tbl_internal.c **** ** Revision 1.10 2011/09/02 14:58:26EDT jmdagost 
  31:/home/simulink/cFS_FreeRTOS_seL4/cfe/fsw/cfe-core/src/tbl/cfe_tbl_internal.c **** ** Added new-line characters where missing in syslog calls.
  32:/home/simulink/cFS_FreeRTOS_seL4/cfe/fsw/cfe-core/src/tbl/cfe_tbl_internal.c **** ** Revision 1.9 2010/10/27 17:53:29EDT dkobe 
  33:/home/simulink/cFS_FreeRTOS_seL4/cfe/fsw/cfe-core/src/tbl/cfe_tbl_internal.c **** ** Added TableLoadedOnce flag to Critical Table Registry
  34:/home/simulink/cFS_FreeRTOS_seL4/cfe/fsw/cfe-core/src/tbl/cfe_tbl_internal.c **** ** Revision 1.8 2010/10/27 16:36:20EDT dkobe 
  35:/home/simulink/cFS_FreeRTOS_seL4/cfe/fsw/cfe-core/src/tbl/cfe_tbl_internal.c **** ** Added Table CRC computation and maintenance to internal table functions
  36:/home/simulink/cFS_FreeRTOS_seL4/cfe/fsw/cfe-core/src/tbl/cfe_tbl_internal.c **** ** Revision 1.7 2010/10/27 13:56:32EDT dkobe 
  37:/home/simulink/cFS_FreeRTOS_seL4/cfe/fsw/cfe-core/src/tbl/cfe_tbl_internal.c **** ** Added TBL notification registry data and message sending function
  38:/home/simulink/cFS_FreeRTOS_seL4/cfe/fsw/cfe-core/src/tbl/cfe_tbl_internal.c **** ** Revision 1.6 2010/10/25 15:00:32EDT jmdagost 
  39:/home/simulink/cFS_FreeRTOS_seL4/cfe/fsw/cfe-core/src/tbl/cfe_tbl_internal.c **** ** Corrected bad apostrophe in prologue.
  40:/home/simulink/cFS_FreeRTOS_seL4/cfe/fsw/cfe-core/src/tbl/cfe_tbl_internal.c **** ** Revision 1.5 2010/10/04 15:18:52EDT jmdagost 
  41:/home/simulink/cFS_FreeRTOS_seL4/cfe/fsw/cfe-core/src/tbl/cfe_tbl_internal.c **** ** Cleaned up copyright symbol.
  42:/home/simulink/cFS_FreeRTOS_seL4/cfe/fsw/cfe-core/src/tbl/cfe_tbl_internal.c **** ** Revision 1.4 2009/06/10 09:20:06EDT acudmore 
  43:/home/simulink/cFS_FreeRTOS_seL4/cfe/fsw/cfe-core/src/tbl/cfe_tbl_internal.c **** ** Changed OS_Mem* and OS_BSP* calls to CFE_PSP_* calls
  44:/home/simulink/cFS_FreeRTOS_seL4/cfe/fsw/cfe-core/src/tbl/cfe_tbl_internal.c **** ** Revision 1.3 2008/07/29 15:55:15EDT dkobe 
  45:/home/simulink/cFS_FreeRTOS_seL4/cfe/fsw/cfe-core/src/tbl/cfe_tbl_internal.c **** ** Moved CFE_TBL_DumpToBuffer from cfe_tbl_internal.c to cfe_tbl_api.c
  46:/home/simulink/cFS_FreeRTOS_seL4/cfe/fsw/cfe-core/src/tbl/cfe_tbl_internal.c **** ** Revision 1.2 2008/07/29 14:05:35EDT dkobe 
68K GAS   			page 3


  47:/home/simulink/cFS_FreeRTOS_seL4/cfe/fsw/cfe-core/src/tbl/cfe_tbl_internal.c **** ** Removed redundant FileCreateTimeSecs and FileCreateTimeSubSecs fields
  48:/home/simulink/cFS_FreeRTOS_seL4/cfe/fsw/cfe-core/src/tbl/cfe_tbl_internal.c **** ** Revision 1.1 2008/04/17 08:05:34EDT ruperera 
  49:/home/simulink/cFS_FreeRTOS_seL4/cfe/fsw/cfe-core/src/tbl/cfe_tbl_internal.c **** ** Initial revision
  50:/home/simulink/cFS_FreeRTOS_seL4/cfe/fsw/cfe-core/src/tbl/cfe_tbl_internal.c **** ** Member added to project c:/MKSDATA/MKS-REPOSITORY/MKS-CFE-PROJECT/fsw/cfe-core/src/tbl/project.p
  51:/home/simulink/cFS_FreeRTOS_seL4/cfe/fsw/cfe-core/src/tbl/cfe_tbl_internal.c **** ** Revision 1.51 2007/08/07 12:52:42EDT David Kobe (dlkobe) 
  52:/home/simulink/cFS_FreeRTOS_seL4/cfe/fsw/cfe-core/src/tbl/cfe_tbl_internal.c **** ** Modified CFE_ES_GetPoolBuf API's first parameter to be of type uint32**
  53:/home/simulink/cFS_FreeRTOS_seL4/cfe/fsw/cfe-core/src/tbl/cfe_tbl_internal.c **** ** Revision 1.50 2007/07/13 11:27:15EDT dlkobe 
  54:/home/simulink/cFS_FreeRTOS_seL4/cfe/fsw/cfe-core/src/tbl/cfe_tbl_internal.c **** ** Moved prototype for CFE_TBL_UpdateCriticalTblCDS to cfe_tbl_internal.h
  55:/home/simulink/cFS_FreeRTOS_seL4/cfe/fsw/cfe-core/src/tbl/cfe_tbl_internal.c **** ** Revision 1.49 2007/07/03 10:19:17EDT dlkobe 
  56:/home/simulink/cFS_FreeRTOS_seL4/cfe/fsw/cfe-core/src/tbl/cfe_tbl_internal.c **** ** Removed unused CFE_TBL_AddAccessLink function
  57:/home/simulink/cFS_FreeRTOS_seL4/cfe/fsw/cfe-core/src/tbl/cfe_tbl_internal.c **** ** Revision 1.48 2007/06/07 09:34:52EDT dlkobe 
  58:/home/simulink/cFS_FreeRTOS_seL4/cfe/fsw/cfe-core/src/tbl/cfe_tbl_internal.c **** ** Corrected Critical Table CDS Name and CDS Registry Init
  59:/home/simulink/cFS_FreeRTOS_seL4/cfe/fsw/cfe-core/src/tbl/cfe_tbl_internal.c **** ** Revision 1.47 2007/04/30 11:01:16EDT rjmcgraw 
  60:/home/simulink/cFS_FreeRTOS_seL4/cfe/fsw/cfe-core/src/tbl/cfe_tbl_internal.c **** ** Changed EarlyInit to return error when detected
  61:/home/simulink/cFS_FreeRTOS_seL4/cfe/fsw/cfe-core/src/tbl/cfe_tbl_internal.c **** ** Revision 1.46 2007/04/28 16:14:44EDT dlkobe 
  62:/home/simulink/cFS_FreeRTOS_seL4/cfe/fsw/cfe-core/src/tbl/cfe_tbl_internal.c **** ** Changed RegisterCDS call to use internal RegisterCDSEx call
  63:/home/simulink/cFS_FreeRTOS_seL4/cfe/fsw/cfe-core/src/tbl/cfe_tbl_internal.c **** **
  64:/home/simulink/cFS_FreeRTOS_seL4/cfe/fsw/cfe-core/src/tbl/cfe_tbl_internal.c **** **
  65:/home/simulink/cFS_FreeRTOS_seL4/cfe/fsw/cfe-core/src/tbl/cfe_tbl_internal.c **** */
  66:/home/simulink/cFS_FreeRTOS_seL4/cfe/fsw/cfe-core/src/tbl/cfe_tbl_internal.c **** 
  67:/home/simulink/cFS_FreeRTOS_seL4/cfe/fsw/cfe-core/src/tbl/cfe_tbl_internal.c **** 
  68:/home/simulink/cFS_FreeRTOS_seL4/cfe/fsw/cfe-core/src/tbl/cfe_tbl_internal.c **** /*
  69:/home/simulink/cFS_FreeRTOS_seL4/cfe/fsw/cfe-core/src/tbl/cfe_tbl_internal.c **** ** Required header files...
  70:/home/simulink/cFS_FreeRTOS_seL4/cfe/fsw/cfe-core/src/tbl/cfe_tbl_internal.c **** */
  71:/home/simulink/cFS_FreeRTOS_seL4/cfe/fsw/cfe-core/src/tbl/cfe_tbl_internal.c **** #include "cfe_msgids.h"
  72:/home/simulink/cFS_FreeRTOS_seL4/cfe/fsw/cfe-core/src/tbl/cfe_tbl_internal.c **** #include "cfe_tbl_internal.h"
  73:/home/simulink/cFS_FreeRTOS_seL4/cfe/fsw/cfe-core/src/tbl/cfe_tbl_internal.c **** #include "cfe_tbl_events.h"
  74:/home/simulink/cFS_FreeRTOS_seL4/cfe/fsw/cfe-core/src/tbl/cfe_tbl_internal.c **** #include "cfe_error.h"
  75:/home/simulink/cFS_FreeRTOS_seL4/cfe/fsw/cfe-core/src/tbl/cfe_tbl_internal.c **** #include "cfe_es.h"
  76:/home/simulink/cFS_FreeRTOS_seL4/cfe/fsw/cfe-core/src/tbl/cfe_tbl_internal.c **** #include "cfe_evs.h"
  77:/home/simulink/cFS_FreeRTOS_seL4/cfe/fsw/cfe-core/src/tbl/cfe_tbl_internal.c **** #include "cfe_fs.h"
  78:/home/simulink/cFS_FreeRTOS_seL4/cfe/fsw/cfe-core/src/tbl/cfe_tbl_internal.c **** #include "cfe_psp.h"
  79:/home/simulink/cFS_FreeRTOS_seL4/cfe/fsw/cfe-core/src/tbl/cfe_tbl_internal.c **** #include <stdio.h>
  80:/home/simulink/cFS_FreeRTOS_seL4/cfe/fsw/cfe-core/src/tbl/cfe_tbl_internal.c **** #include <string.h>
  81:/home/simulink/cFS_FreeRTOS_seL4/cfe/fsw/cfe-core/src/tbl/cfe_tbl_internal.c **** 
  82:/home/simulink/cFS_FreeRTOS_seL4/cfe/fsw/cfe-core/src/tbl/cfe_tbl_internal.c **** /*******************************************************************
  83:/home/simulink/cFS_FreeRTOS_seL4/cfe/fsw/cfe-core/src/tbl/cfe_tbl_internal.c **** **
  84:/home/simulink/cFS_FreeRTOS_seL4/cfe/fsw/cfe-core/src/tbl/cfe_tbl_internal.c **** ** CFE_TBL_EarlyInit
  85:/home/simulink/cFS_FreeRTOS_seL4/cfe/fsw/cfe-core/src/tbl/cfe_tbl_internal.c **** **
  86:/home/simulink/cFS_FreeRTOS_seL4/cfe/fsw/cfe-core/src/tbl/cfe_tbl_internal.c **** ** NOTE: For complete prolog information, see 'cfe_tbl_internal.h'
  87:/home/simulink/cFS_FreeRTOS_seL4/cfe/fsw/cfe-core/src/tbl/cfe_tbl_internal.c **** ********************************************************************/
  88:/home/simulink/cFS_FreeRTOS_seL4/cfe/fsw/cfe-core/src/tbl/cfe_tbl_internal.c **** /******************************************************************************
  89:/home/simulink/cFS_FreeRTOS_seL4/cfe/fsw/cfe-core/src/tbl/cfe_tbl_internal.c **** **  Function:  CFE_TBL_EarlyInit()
  90:/home/simulink/cFS_FreeRTOS_seL4/cfe/fsw/cfe-core/src/tbl/cfe_tbl_internal.c **** **
  91:/home/simulink/cFS_FreeRTOS_seL4/cfe/fsw/cfe-core/src/tbl/cfe_tbl_internal.c **** **  Purpose:
  92:/home/simulink/cFS_FreeRTOS_seL4/cfe/fsw/cfe-core/src/tbl/cfe_tbl_internal.c **** **    Initialize the Table Services
  93:/home/simulink/cFS_FreeRTOS_seL4/cfe/fsw/cfe-core/src/tbl/cfe_tbl_internal.c **** **
  94:/home/simulink/cFS_FreeRTOS_seL4/cfe/fsw/cfe-core/src/tbl/cfe_tbl_internal.c **** **  Arguments:
  95:/home/simulink/cFS_FreeRTOS_seL4/cfe/fsw/cfe-core/src/tbl/cfe_tbl_internal.c **** **
  96:/home/simulink/cFS_FreeRTOS_seL4/cfe/fsw/cfe-core/src/tbl/cfe_tbl_internal.c **** **  Notes:
  97:/home/simulink/cFS_FreeRTOS_seL4/cfe/fsw/cfe-core/src/tbl/cfe_tbl_internal.c **** **    This function MUST be called before any TBL API's are called.
  98:/home/simulink/cFS_FreeRTOS_seL4/cfe/fsw/cfe-core/src/tbl/cfe_tbl_internal.c **** **
  99:/home/simulink/cFS_FreeRTOS_seL4/cfe/fsw/cfe-core/src/tbl/cfe_tbl_internal.c **** **  Return:
 100:/home/simulink/cFS_FreeRTOS_seL4/cfe/fsw/cfe-core/src/tbl/cfe_tbl_internal.c **** **    none
 101:/home/simulink/cFS_FreeRTOS_seL4/cfe/fsw/cfe-core/src/tbl/cfe_tbl_internal.c **** */
 102:/home/simulink/cFS_FreeRTOS_seL4/cfe/fsw/cfe-core/src/tbl/cfe_tbl_internal.c **** int32 CFE_TBL_EarlyInit (void)
 103:/home/simulink/cFS_FreeRTOS_seL4/cfe/fsw/cfe-core/src/tbl/cfe_tbl_internal.c **** {
68K GAS   			page 4


  34               	.loc 1 103 0
  35               	.cfi_startproc
  36 0000 4FEF FFF4 	lea (-12,%sp),%sp
  37               	.cfi_def_cfa_offset 16
  38 0004 2F02      	move.l %d2,-(%sp)
  39               	.cfi_def_cfa_offset 20
  40               	.cfi_offset 2, -20
 104:/home/simulink/cFS_FreeRTOS_seL4/cfe/fsw/cfe-core/src/tbl/cfe_tbl_internal.c ****     uint16 i;
 105:/home/simulink/cFS_FreeRTOS_seL4/cfe/fsw/cfe-core/src/tbl/cfe_tbl_internal.c ****     uint32 j;
 106:/home/simulink/cFS_FreeRTOS_seL4/cfe/fsw/cfe-core/src/tbl/cfe_tbl_internal.c ****     int32 Status;
 107:/home/simulink/cFS_FreeRTOS_seL4/cfe/fsw/cfe-core/src/tbl/cfe_tbl_internal.c **** 
 108:/home/simulink/cFS_FreeRTOS_seL4/cfe/fsw/cfe-core/src/tbl/cfe_tbl_internal.c **** 
 109:/home/simulink/cFS_FreeRTOS_seL4/cfe/fsw/cfe-core/src/tbl/cfe_tbl_internal.c ****     /* Initialize the Table Registry */
 110:/home/simulink/cFS_FreeRTOS_seL4/cfe/fsw/cfe-core/src/tbl/cfe_tbl_internal.c ****     for(i=0; i < CFE_TBL_MAX_NUM_TABLES; i++)
  41               	.loc 1 110 0
  42 0006 4240      	clr.w %d0
  43 0008 3F40 000E 	move.w %d0,14(%sp)
  44 000c 6030      	jra .L2
  45               	.L3:
 111:/home/simulink/cFS_FreeRTOS_seL4/cfe/fsw/cfe-core/src/tbl/cfe_tbl_internal.c ****     {
 112:/home/simulink/cFS_FreeRTOS_seL4/cfe/fsw/cfe-core/src/tbl/cfe_tbl_internal.c ****         CFE_TBL_InitRegistryRecord(&CFE_TBL_TaskData.Registry[i]);
  46               	.loc 1 112 0 discriminator 3
  47 000e 4280      	clr.l %d0
  48 0010 302F 000E 	move.w 14(%sp),%d0
  49 0014 223C 0000 	move.l #336,%d1
  49      0150 
  50 001a 4C01 0800 	muls.l %d1,%d0
  51 001e 0680 0000 	add.l #4972,%d0
  51      136C 
  52 0024 0680 0000 	add.l #CFE_TBL_TaskData,%d0
  52      0000 
  53 002a 2F00      	move.l %d0,-(%sp)
  54               	.cfi_def_cfa_offset 24
  55 002c 4EB9 0000 	jsr CFE_TBL_InitRegistryRecord
  55      0000 
  56 0032 588F      	addq.l #4,%sp
  57               	.cfi_def_cfa_offset 20
 110:/home/simulink/cFS_FreeRTOS_seL4/cfe/fsw/cfe-core/src/tbl/cfe_tbl_internal.c ****     {
  58               	.loc 1 110 0 discriminator 3
  59 0034 302F 000E 	move.w 14(%sp),%d0
  60 0038 5280      	addq.l #1,%d0
  61 003a 3F40 000E 	move.w %d0,14(%sp)
  62               	.L2:
 110:/home/simulink/cFS_FreeRTOS_seL4/cfe/fsw/cfe-core/src/tbl/cfe_tbl_internal.c ****     {
  63               	.loc 1 110 0 is_stmt 0 discriminator 1
  64 003e 4280      	clr.l %d0
  65 0040 302F 000E 	move.w 14(%sp),%d0
  66 0044 747F      	moveq #127,%d2
  67 0046 B480      	cmp.l %d0,%d2
  68 0048 64C4      	jcc .L3
 113:/home/simulink/cFS_FreeRTOS_seL4/cfe/fsw/cfe-core/src/tbl/cfe_tbl_internal.c ****     }
 114:/home/simulink/cFS_FreeRTOS_seL4/cfe/fsw/cfe-core/src/tbl/cfe_tbl_internal.c **** 
 115:/home/simulink/cFS_FreeRTOS_seL4/cfe/fsw/cfe-core/src/tbl/cfe_tbl_internal.c ****     /* Initialize the Table Access Descriptors */
 116:/home/simulink/cFS_FreeRTOS_seL4/cfe/fsw/cfe-core/src/tbl/cfe_tbl_internal.c ****     for (i=0; i<CFE_TBL_MAX_NUM_HANDLES; i++)
  69               	.loc 1 116 0 is_stmt 1
  70 004a 4240      	clr.w %d0
  71 004c 3F40 000E 	move.w %d0,14(%sp)
68K GAS   			page 5


  72 0050 6000 00BC 	jra .L4
  73               	.L5:
 117:/home/simulink/cFS_FreeRTOS_seL4/cfe/fsw/cfe-core/src/tbl/cfe_tbl_internal.c ****     {
 118:/home/simulink/cFS_FreeRTOS_seL4/cfe/fsw/cfe-core/src/tbl/cfe_tbl_internal.c ****         CFE_TBL_TaskData.Handles[i].AppId = CFE_ES_ERR_APPID;
  74               	.loc 1 118 0 discriminator 3
  75 0054 4280      	clr.l %d0
  76 0056 302F 000E 	move.w 14(%sp),%d0
  77 005a E988      	lsl.l #4,%d0
  78 005c 41F9 0000 	lea CFE_TBL_TaskData+876,%a0
  78      0000 
  79 0062 223C C400 	move.l #-1006632959,%d1
  79      0001 
  80 0068 2181 0800 	move.l %d1,(%a0,%d0.l)
 119:/home/simulink/cFS_FreeRTOS_seL4/cfe/fsw/cfe-core/src/tbl/cfe_tbl_internal.c ****         CFE_TBL_TaskData.Handles[i].RegIndex = 0;
  81               	.loc 1 119 0 discriminator 3
  82 006c 4280      	clr.l %d0
  83 006e 302F 000E 	move.w 14(%sp),%d0
  84 0072 0680 0000 	add.l #55,%d0
  84      0037 
  85 0078 E988      	lsl.l #4,%d0
  86 007a 41F9 0000 	lea CFE_TBL_TaskData,%a0
  86      0000 
  87 0080 4242      	clr.w %d2
  88 0082 3182 0800 	move.w %d2,(%a0,%d0.l)
 120:/home/simulink/cFS_FreeRTOS_seL4/cfe/fsw/cfe-core/src/tbl/cfe_tbl_internal.c ****         CFE_TBL_TaskData.Handles[i].PrevLink = CFE_TBL_END_OF_LIST;
  89               	.loc 1 120 0 discriminator 3
  90 0086 4280      	clr.l %d0
  91 0088 302F 000E 	move.w 14(%sp),%d0
  92 008c 0680 0000 	add.l #55,%d0
  92      0037 
  93 0092 E988      	lsl.l #4,%d0
  94 0094 41F9 0000 	lea CFE_TBL_TaskData+2,%a0
  94      0000 
  95 009a 72FF      	moveq #-1,%d1
  96 009c 3181 0800 	move.w %d1,(%a0,%d0.l)
 121:/home/simulink/cFS_FreeRTOS_seL4/cfe/fsw/cfe-core/src/tbl/cfe_tbl_internal.c ****         CFE_TBL_TaskData.Handles[i].NextLink = CFE_TBL_END_OF_LIST;
  97               	.loc 1 121 0 discriminator 3
  98 00a0 4280      	clr.l %d0
  99 00a2 302F 000E 	move.w 14(%sp),%d0
 100 00a6 E988      	lsl.l #4,%d0
 101 00a8 41F9 0000 	lea CFE_TBL_TaskData+884,%a0
 101      0000 
 102 00ae 74FF      	moveq #-1,%d2
 103 00b0 3182 0800 	move.w %d2,(%a0,%d0.l)
 122:/home/simulink/cFS_FreeRTOS_seL4/cfe/fsw/cfe-core/src/tbl/cfe_tbl_internal.c ****         CFE_TBL_TaskData.Handles[i].UsedFlag = FALSE;
 104               	.loc 1 122 0 discriminator 3
 105 00b4 4280      	clr.l %d0
 106 00b6 302F 000E 	move.w 14(%sp),%d0
 107 00ba E988      	lsl.l #4,%d0
 108 00bc 41F9 0000 	lea CFE_TBL_TaskData+886,%a0
 108      0000 
 109 00c2 4201      	clr.b %d1
 110 00c4 1181 0800 	move.b %d1,(%a0,%d0.l)
 123:/home/simulink/cFS_FreeRTOS_seL4/cfe/fsw/cfe-core/src/tbl/cfe_tbl_internal.c ****         CFE_TBL_TaskData.Handles[i].LockFlag = FALSE;
 111               	.loc 1 123 0 discriminator 3
 112 00c8 4280      	clr.l %d0
 113 00ca 302F 000E 	move.w 14(%sp),%d0
68K GAS   			page 6


 114 00ce E988      	lsl.l #4,%d0
 115 00d0 41F9 0000 	lea CFE_TBL_TaskData+887,%a0
 115      0000 
 116 00d6 4202      	clr.b %d2
 117 00d8 1182 0800 	move.b %d2,(%a0,%d0.l)
 124:/home/simulink/cFS_FreeRTOS_seL4/cfe/fsw/cfe-core/src/tbl/cfe_tbl_internal.c ****         CFE_TBL_TaskData.Handles[i].Updated = FALSE;
 118               	.loc 1 124 0 discriminator 3
 119 00dc 4280      	clr.l %d0
 120 00de 302F 000E 	move.w 14(%sp),%d0
 121 00e2 E988      	lsl.l #4,%d0
 122 00e4 41F9 0000 	lea CFE_TBL_TaskData+888,%a0
 122      0000 
 123 00ea 4201      	clr.b %d1
 124 00ec 1181 0800 	move.b %d1,(%a0,%d0.l)
 125:/home/simulink/cFS_FreeRTOS_seL4/cfe/fsw/cfe-core/src/tbl/cfe_tbl_internal.c ****         CFE_TBL_TaskData.Handles[i].BufferIndex = 0;
 125               	.loc 1 125 0 discriminator 3
 126 00f0 4280      	clr.l %d0
 127 00f2 302F 000E 	move.w 14(%sp),%d0
 128 00f6 E988      	lsl.l #4,%d0
 129 00f8 41F9 0000 	lea CFE_TBL_TaskData+889,%a0
 129      0000 
 130 00fe 4202      	clr.b %d2
 131 0100 1182 0800 	move.b %d2,(%a0,%d0.l)
 116:/home/simulink/cFS_FreeRTOS_seL4/cfe/fsw/cfe-core/src/tbl/cfe_tbl_internal.c ****     {
 132               	.loc 1 116 0 discriminator 3
 133 0104 302F 000E 	move.w 14(%sp),%d0
 134 0108 5280      	addq.l #1,%d0
 135 010a 3F40 000E 	move.w %d0,14(%sp)
 136               	.L4:
 116:/home/simulink/cFS_FreeRTOS_seL4/cfe/fsw/cfe-core/src/tbl/cfe_tbl_internal.c ****     {
 137               	.loc 1 116 0 is_stmt 0 discriminator 1
 138 010e 4280      	clr.l %d0
 139 0110 302F 000E 	move.w 14(%sp),%d0
 140 0114 0C80 0000 	cmp.l #255,%d0
 140      00FF 
 141 011a 6300 FF38 	jls .L5
 126:/home/simulink/cFS_FreeRTOS_seL4/cfe/fsw/cfe-core/src/tbl/cfe_tbl_internal.c ****     }
 127:/home/simulink/cFS_FreeRTOS_seL4/cfe/fsw/cfe-core/src/tbl/cfe_tbl_internal.c **** 
 128:/home/simulink/cFS_FreeRTOS_seL4/cfe/fsw/cfe-core/src/tbl/cfe_tbl_internal.c ****     /* Initialize the Table Validation Results Records */
 129:/home/simulink/cFS_FreeRTOS_seL4/cfe/fsw/cfe-core/src/tbl/cfe_tbl_internal.c ****     for (i=0; i<CFE_TBL_MAX_NUM_VALIDATIONS; i++)
 142               	.loc 1 129 0 is_stmt 1
 143 011e 4240      	clr.w %d0
 144 0120 3F40 000E 	move.w %d0,14(%sp)
 145 0124 607C      	jra .L6
 146               	.L7:
 130:/home/simulink/cFS_FreeRTOS_seL4/cfe/fsw/cfe-core/src/tbl/cfe_tbl_internal.c ****     {
 131:/home/simulink/cFS_FreeRTOS_seL4/cfe/fsw/cfe-core/src/tbl/cfe_tbl_internal.c ****         CFE_TBL_TaskData.ValidationResults[i].State = CFE_TBL_VALIDATION_FREE;
 147               	.loc 1 131 0 discriminator 3
 148 0126 4280      	clr.l %d0
 149 0128 302F 000E 	move.w 14(%sp),%d0
 150 012c 7238      	moveq #56,%d1
 151 012e 4C01 0800 	muls.l %d1,%d0
 152 0132 41F9 0000 	lea CFE_TBL_TaskData+576368,%a0
 152      0000 
 153 0138 42B0 0800 	clr.l (%a0,%d0.l)
 132:/home/simulink/cFS_FreeRTOS_seL4/cfe/fsw/cfe-core/src/tbl/cfe_tbl_internal.c ****         CFE_TBL_TaskData.ValidationResults[i].CrcOfTable = 0;
 154               	.loc 1 132 0 discriminator 3
68K GAS   			page 7


 155 013c 4280      	clr.l %d0
 156 013e 302F 000E 	move.w 14(%sp),%d0
 157 0142 7438      	moveq #56,%d2
 158 0144 4C02 0800 	muls.l %d2,%d0
 159 0148 41F9 0000 	lea CFE_TBL_TaskData+576376,%a0
 159      0000 
 160 014e 42B0 0800 	clr.l (%a0,%d0.l)
 133:/home/simulink/cFS_FreeRTOS_seL4/cfe/fsw/cfe-core/src/tbl/cfe_tbl_internal.c ****         CFE_TBL_TaskData.ValidationResults[i].Result = 0;
 161               	.loc 1 133 0 discriminator 3
 162 0152 4280      	clr.l %d0
 163 0154 302F 000E 	move.w 14(%sp),%d0
 164 0158 7238      	moveq #56,%d1
 165 015a 4C01 0800 	muls.l %d1,%d0
 166 015e 41F9 0000 	lea CFE_TBL_TaskData+576372,%a0
 166      0000 
 167 0164 42B0 0800 	clr.l (%a0,%d0.l)
 134:/home/simulink/cFS_FreeRTOS_seL4/cfe/fsw/cfe-core/src/tbl/cfe_tbl_internal.c ****         CFE_TBL_TaskData.ValidationResults[i].ActiveBuffer = FALSE;
 168               	.loc 1 134 0 discriminator 3
 169 0168 4280      	clr.l %d0
 170 016a 302F 000E 	move.w 14(%sp),%d0
 171 016e 7438      	moveq #56,%d2
 172 0170 4C02 0800 	muls.l %d2,%d0
 173 0174 41F9 0000 	lea CFE_TBL_TaskData+576380,%a0
 173      0000 
 174 017a 4201      	clr.b %d1
 175 017c 1181 0800 	move.b %d1,(%a0,%d0.l)
 135:/home/simulink/cFS_FreeRTOS_seL4/cfe/fsw/cfe-core/src/tbl/cfe_tbl_internal.c ****         CFE_TBL_TaskData.ValidationResults[i].TableName[0] = '\0';
 176               	.loc 1 135 0 discriminator 3
 177 0180 4280      	clr.l %d0
 178 0182 302F 000E 	move.w 14(%sp),%d0
 179 0186 7438      	moveq #56,%d2
 180 0188 4C02 0800 	muls.l %d2,%d0
 181 018c 41F9 0000 	lea CFE_TBL_TaskData+576381,%a0
 181      0000 
 182 0192 4201      	clr.b %d1
 183 0194 1181 0800 	move.b %d1,(%a0,%d0.l)
 129:/home/simulink/cFS_FreeRTOS_seL4/cfe/fsw/cfe-core/src/tbl/cfe_tbl_internal.c ****     {
 184               	.loc 1 129 0 discriminator 3
 185 0198 302F 000E 	move.w 14(%sp),%d0
 186 019c 5280      	addq.l #1,%d0
 187 019e 3F40 000E 	move.w %d0,14(%sp)
 188               	.L6:
 129:/home/simulink/cFS_FreeRTOS_seL4/cfe/fsw/cfe-core/src/tbl/cfe_tbl_internal.c ****     {
 189               	.loc 1 129 0 is_stmt 0 discriminator 1
 190 01a2 4280      	clr.l %d0
 191 01a4 302F 000E 	move.w 14(%sp),%d0
 192 01a8 7409      	moveq #9,%d2
 193 01aa B480      	cmp.l %d0,%d2
 194 01ac 6400 FF78 	jcc .L7
 136:/home/simulink/cFS_FreeRTOS_seL4/cfe/fsw/cfe-core/src/tbl/cfe_tbl_internal.c ****     }
 137:/home/simulink/cFS_FreeRTOS_seL4/cfe/fsw/cfe-core/src/tbl/cfe_tbl_internal.c **** 
 138:/home/simulink/cFS_FreeRTOS_seL4/cfe/fsw/cfe-core/src/tbl/cfe_tbl_internal.c ****     /* Initialize the Dump-Only Table Dump Control Blocks */
 139:/home/simulink/cFS_FreeRTOS_seL4/cfe/fsw/cfe-core/src/tbl/cfe_tbl_internal.c ****     for (i=0; i<CFE_TBL_MAX_SIMULTANEOUS_LOADS; i++)
 195               	.loc 1 139 0 is_stmt 1
 196 01b0 4240      	clr.w %d0
 197 01b2 3F40 000E 	move.w %d0,14(%sp)
 198 01b6 607C      	jra .L8
68K GAS   			page 8


 199               	.L9:
 140:/home/simulink/cFS_FreeRTOS_seL4/cfe/fsw/cfe-core/src/tbl/cfe_tbl_internal.c ****     {
 141:/home/simulink/cFS_FreeRTOS_seL4/cfe/fsw/cfe-core/src/tbl/cfe_tbl_internal.c ****         CFE_TBL_TaskData.DumpControlBlocks[i].State = CFE_TBL_DUMP_FREE;
 200               	.loc 1 141 0 discriminator 3
 201 01b8 4280      	clr.l %d0
 202 01ba 302F 000E 	move.w 14(%sp),%d0
 203 01be 7238      	moveq #56,%d1
 204 01c0 4C01 0800 	muls.l %d1,%d0
 205 01c4 41F9 0000 	lea CFE_TBL_TaskData+576928,%a0
 205      0000 
 206 01ca 42B0 0800 	clr.l (%a0,%d0.l)
 142:/home/simulink/cFS_FreeRTOS_seL4/cfe/fsw/cfe-core/src/tbl/cfe_tbl_internal.c ****         CFE_TBL_TaskData.DumpControlBlocks[i].DumpBufferPtr = NULL;
 207               	.loc 1 142 0 discriminator 3
 208 01ce 4280      	clr.l %d0
 209 01d0 302F 000E 	move.w 14(%sp),%d0
 210 01d4 7438      	moveq #56,%d2
 211 01d6 4C02 0800 	muls.l %d2,%d0
 212 01da 41F9 0000 	lea CFE_TBL_TaskData+576936,%a0
 212      0000 
 213 01e0 42B0 0800 	clr.l (%a0,%d0.l)
 143:/home/simulink/cFS_FreeRTOS_seL4/cfe/fsw/cfe-core/src/tbl/cfe_tbl_internal.c ****         CFE_TBL_TaskData.DumpControlBlocks[i].Size = 0;
 214               	.loc 1 143 0 discriminator 3
 215 01e4 4280      	clr.l %d0
 216 01e6 302F 000E 	move.w 14(%sp),%d0
 217 01ea 7238      	moveq #56,%d1
 218 01ec 4C01 0800 	muls.l %d1,%d0
 219 01f0 41F9 0000 	lea CFE_TBL_TaskData+576932,%a0
 219      0000 
 220 01f6 42B0 0800 	clr.l (%a0,%d0.l)
 144:/home/simulink/cFS_FreeRTOS_seL4/cfe/fsw/cfe-core/src/tbl/cfe_tbl_internal.c ****         CFE_TBL_TaskData.DumpControlBlocks[i].TableName[0] = '\0';
 221               	.loc 1 144 0 discriminator 3
 222 01fa 4280      	clr.l %d0
 223 01fc 302F 000E 	move.w 14(%sp),%d0
 224 0200 7438      	moveq #56,%d2
 225 0202 4C02 0800 	muls.l %d2,%d0
 226 0206 41F9 0000 	lea CFE_TBL_TaskData+576944,%a0
 226      0000 
 227 020c 4201      	clr.b %d1
 228 020e 1181 0800 	move.b %d1,(%a0,%d0.l)
 145:/home/simulink/cFS_FreeRTOS_seL4/cfe/fsw/cfe-core/src/tbl/cfe_tbl_internal.c ****         
 146:/home/simulink/cFS_FreeRTOS_seL4/cfe/fsw/cfe-core/src/tbl/cfe_tbl_internal.c ****         /* Prevent Shared Buffers from being used until successfully allocated */
 147:/home/simulink/cFS_FreeRTOS_seL4/cfe/fsw/cfe-core/src/tbl/cfe_tbl_internal.c ****         CFE_TBL_TaskData.LoadBuffs[i].Taken = TRUE;
 229               	.loc 1 147 0 discriminator 3
 230 0212 4280      	clr.l %d0
 231 0214 302F 000E 	move.w 14(%sp),%d0
 232 0218 7454      	moveq #84,%d2
 233 021a 4C02 0800 	muls.l %d2,%d0
 234 021e 41F9 0000 	lea CFE_TBL_TaskData+556,%a0
 234      0000 
 235 0224 7201      	moveq #1,%d1
 236 0226 1181 0800 	move.b %d1,(%a0,%d0.l)
 139:/home/simulink/cFS_FreeRTOS_seL4/cfe/fsw/cfe-core/src/tbl/cfe_tbl_internal.c ****     {
 237               	.loc 1 139 0 discriminator 3
 238 022a 302F 000E 	move.w 14(%sp),%d0
 239 022e 5280      	addq.l #1,%d0
 240 0230 3F40 000E 	move.w %d0,14(%sp)
 241               	.L8:
68K GAS   			page 9


 139:/home/simulink/cFS_FreeRTOS_seL4/cfe/fsw/cfe-core/src/tbl/cfe_tbl_internal.c ****     {
 242               	.loc 1 139 0 is_stmt 0 discriminator 1
 243 0234 4280      	clr.l %d0
 244 0236 302F 000E 	move.w 14(%sp),%d0
 245 023a 7403      	moveq #3,%d2
 246 023c B480      	cmp.l %d0,%d2
 247 023e 6400 FF78 	jcc .L9
 148:/home/simulink/cFS_FreeRTOS_seL4/cfe/fsw/cfe-core/src/tbl/cfe_tbl_internal.c ****     }
 149:/home/simulink/cFS_FreeRTOS_seL4/cfe/fsw/cfe-core/src/tbl/cfe_tbl_internal.c **** 
 150:/home/simulink/cFS_FreeRTOS_seL4/cfe/fsw/cfe-core/src/tbl/cfe_tbl_internal.c ****     CFE_TBL_TaskData.ValidationCtr = 0;
 248               	.loc 1 150 0 is_stmt 1
 249 0242 4240      	clr.w %d0
 250 0244 33C0 0000 	move.w %d0,CFE_TBL_TaskData+526
 250      0000 
 151:/home/simulink/cFS_FreeRTOS_seL4/cfe/fsw/cfe-core/src/tbl/cfe_tbl_internal.c **** 
 152:/home/simulink/cFS_FreeRTOS_seL4/cfe/fsw/cfe-core/src/tbl/cfe_tbl_internal.c ****     CFE_TBL_TaskData.HkTlmTblRegIndex = CFE_TBL_NOT_FOUND;
 251               	.loc 1 152 0
 252 024a 72FF      	moveq #-1,%d1
 253 024c 33C1 0000 	move.w %d1,CFE_TBL_TaskData+524
 253      0000 
 153:/home/simulink/cFS_FreeRTOS_seL4/cfe/fsw/cfe-core/src/tbl/cfe_tbl_internal.c ****     CFE_TBL_TaskData.LastTblUpdated = CFE_TBL_NOT_FOUND;
 254               	.loc 1 153 0
 255 0252 74FF      	moveq #-1,%d2
 256 0254 33C2 0000 	move.w %d2,CFE_TBL_TaskData+6
 256      0000 
 154:/home/simulink/cFS_FreeRTOS_seL4/cfe/fsw/cfe-core/src/tbl/cfe_tbl_internal.c ****     
 155:/home/simulink/cFS_FreeRTOS_seL4/cfe/fsw/cfe-core/src/tbl/cfe_tbl_internal.c ****     /*
 156:/home/simulink/cFS_FreeRTOS_seL4/cfe/fsw/cfe-core/src/tbl/cfe_tbl_internal.c ****     ** Create table registry access mutex
 157:/home/simulink/cFS_FreeRTOS_seL4/cfe/fsw/cfe-core/src/tbl/cfe_tbl_internal.c ****     */
 158:/home/simulink/cFS_FreeRTOS_seL4/cfe/fsw/cfe-core/src/tbl/cfe_tbl_internal.c ****     Status = OS_MutSemCreate(&CFE_TBL_TaskData.RegistryMutex,
 257               	.loc 1 158 0
 258 025a 42A7      	clr.l -(%sp)
 259               	.cfi_def_cfa_offset 24
 260 025c 4879 0000 	pea .LC0
 260      0000 
 261               	.cfi_def_cfa_offset 28
 262 0262 4879 0000 	pea CFE_TBL_TaskData+528
 262      0000 
 263               	.cfi_def_cfa_offset 32
 264 0268 4EB9 0000 	jsr OS_MutSemCreate
 264      0000 
 265 026e 4FEF 000C 	lea (12,%sp),%sp
 266               	.cfi_def_cfa_offset 20
 267 0272 2F40 0004 	move.l %d0,4(%sp)
 159:/home/simulink/cFS_FreeRTOS_seL4/cfe/fsw/cfe-core/src/tbl/cfe_tbl_internal.c ****                               CFE_TBL_MUT_REG_NAME,
 160:/home/simulink/cFS_FreeRTOS_seL4/cfe/fsw/cfe-core/src/tbl/cfe_tbl_internal.c ****                               CFE_TBL_MUT_REG_VALUE);
 161:/home/simulink/cFS_FreeRTOS_seL4/cfe/fsw/cfe-core/src/tbl/cfe_tbl_internal.c ****     if(Status != OS_SUCCESS)
 268               	.loc 1 161 0
 269 0276 4AAF 0004 	tst.l 4(%sp)
 270 027a 671C      	jeq .L10
 162:/home/simulink/cFS_FreeRTOS_seL4/cfe/fsw/cfe-core/src/tbl/cfe_tbl_internal.c ****     {
 163:/home/simulink/cFS_FreeRTOS_seL4/cfe/fsw/cfe-core/src/tbl/cfe_tbl_internal.c ****       CFE_ES_WriteToSysLog("CFE_TBL:Registry mutex creation failed! RC=0x%08x\n",(unsigned int)Stat
 271               	.loc 1 163 0
 272 027c 202F 0004 	move.l 4(%sp),%d0
 273 0280 2F00      	move.l %d0,-(%sp)
 274               	.cfi_def_cfa_offset 24
 275 0282 4879 0000 	pea .LC1
68K GAS   			page 10


 275      0000 
 276               	.cfi_def_cfa_offset 28
 277 0288 4EB9 0000 	jsr CFE_ES_WriteToSysLog
 277      0000 
 278 028e 508F      	addq.l #8,%sp
 279               	.cfi_def_cfa_offset 20
 164:/home/simulink/cFS_FreeRTOS_seL4/cfe/fsw/cfe-core/src/tbl/cfe_tbl_internal.c ****       return Status;
 280               	.loc 1 164 0
 281 0290 202F 0004 	move.l 4(%sp),%d0
 282 0294 6000 0316 	jra .L11
 283               	.L10:
 165:/home/simulink/cFS_FreeRTOS_seL4/cfe/fsw/cfe-core/src/tbl/cfe_tbl_internal.c ****     }/* end if */                              
 166:/home/simulink/cFS_FreeRTOS_seL4/cfe/fsw/cfe-core/src/tbl/cfe_tbl_internal.c **** 
 167:/home/simulink/cFS_FreeRTOS_seL4/cfe/fsw/cfe-core/src/tbl/cfe_tbl_internal.c ****     /*
 168:/home/simulink/cFS_FreeRTOS_seL4/cfe/fsw/cfe-core/src/tbl/cfe_tbl_internal.c ****     ** Create working buffer access mutex
 169:/home/simulink/cFS_FreeRTOS_seL4/cfe/fsw/cfe-core/src/tbl/cfe_tbl_internal.c ****     */
 170:/home/simulink/cFS_FreeRTOS_seL4/cfe/fsw/cfe-core/src/tbl/cfe_tbl_internal.c ****     Status = OS_MutSemCreate(&CFE_TBL_TaskData.WorkBufMutex,
 284               	.loc 1 170 0
 285 0298 42A7      	clr.l -(%sp)
 286               	.cfi_def_cfa_offset 24
 287 029a 4879 0000 	pea .LC2
 287      0000 
 288               	.cfi_def_cfa_offset 28
 289 02a0 4879 0000 	pea CFE_TBL_TaskData+532
 289      0000 
 290               	.cfi_def_cfa_offset 32
 291 02a6 4EB9 0000 	jsr OS_MutSemCreate
 291      0000 
 292 02ac 4FEF 000C 	lea (12,%sp),%sp
 293               	.cfi_def_cfa_offset 20
 294 02b0 2F40 0004 	move.l %d0,4(%sp)
 171:/home/simulink/cFS_FreeRTOS_seL4/cfe/fsw/cfe-core/src/tbl/cfe_tbl_internal.c ****                               CFE_TBL_MUT_WORK_NAME,
 172:/home/simulink/cFS_FreeRTOS_seL4/cfe/fsw/cfe-core/src/tbl/cfe_tbl_internal.c ****                               CFE_TBL_MUT_WORK_VALUE);
 173:/home/simulink/cFS_FreeRTOS_seL4/cfe/fsw/cfe-core/src/tbl/cfe_tbl_internal.c ****     if(Status != OS_SUCCESS)
 295               	.loc 1 173 0
 296 02b4 4AAF 0004 	tst.l 4(%sp)
 297 02b8 671C      	jeq .L12
 174:/home/simulink/cFS_FreeRTOS_seL4/cfe/fsw/cfe-core/src/tbl/cfe_tbl_internal.c ****     {
 175:/home/simulink/cFS_FreeRTOS_seL4/cfe/fsw/cfe-core/src/tbl/cfe_tbl_internal.c ****       CFE_ES_WriteToSysLog("CFE_TBL:Working buffer mutex creation failed! RC=0x%08x\n",(unsigned in
 298               	.loc 1 175 0
 299 02ba 202F 0004 	move.l 4(%sp),%d0
 300 02be 2F00      	move.l %d0,-(%sp)
 301               	.cfi_def_cfa_offset 24
 302 02c0 4879 0000 	pea .LC3
 302      0000 
 303               	.cfi_def_cfa_offset 28
 304 02c6 4EB9 0000 	jsr CFE_ES_WriteToSysLog
 304      0000 
 305 02cc 508F      	addq.l #8,%sp
 306               	.cfi_def_cfa_offset 20
 176:/home/simulink/cFS_FreeRTOS_seL4/cfe/fsw/cfe-core/src/tbl/cfe_tbl_internal.c ****       return Status;
 307               	.loc 1 176 0
 308 02ce 202F 0004 	move.l 4(%sp),%d0
 309 02d2 6000 02D8 	jra .L11
 310               	.L12:
 177:/home/simulink/cFS_FreeRTOS_seL4/cfe/fsw/cfe-core/src/tbl/cfe_tbl_internal.c ****     }/* end if */
 178:/home/simulink/cFS_FreeRTOS_seL4/cfe/fsw/cfe-core/src/tbl/cfe_tbl_internal.c ****     
68K GAS   			page 11


 179:/home/simulink/cFS_FreeRTOS_seL4/cfe/fsw/cfe-core/src/tbl/cfe_tbl_internal.c ****     /*
 180:/home/simulink/cFS_FreeRTOS_seL4/cfe/fsw/cfe-core/src/tbl/cfe_tbl_internal.c ****     ** Initialize housekeeping packet (clear user data area)...
 181:/home/simulink/cFS_FreeRTOS_seL4/cfe/fsw/cfe-core/src/tbl/cfe_tbl_internal.c ****     */
 182:/home/simulink/cFS_FreeRTOS_seL4/cfe/fsw/cfe-core/src/tbl/cfe_tbl_internal.c ****     CFE_SB_InitMsg(&CFE_TBL_TaskData.HkPacket,
 311               	.loc 1 182 0
 312 02d6 4878 0001 	pea 1.w
 313               	.cfi_def_cfa_offset 24
 314 02da 4878 0128 	pea 296.w
 315               	.cfi_def_cfa_offset 28
 316 02de 4878 0804 	pea 2052.w
 317               	.cfi_def_cfa_offset 32
 318 02e2 4879 0000 	pea CFE_TBL_TaskData+8
 318      0000 
 319               	.cfi_def_cfa_offset 36
 320 02e8 4EB9 0000 	jsr CFE_SB_InitMsg
 320      0000 
 321 02ee 4FEF 0010 	lea (16,%sp),%sp
 322               	.cfi_def_cfa_offset 20
 183:/home/simulink/cFS_FreeRTOS_seL4/cfe/fsw/cfe-core/src/tbl/cfe_tbl_internal.c ****                     CFE_TBL_HK_TLM_MID,
 184:/home/simulink/cFS_FreeRTOS_seL4/cfe/fsw/cfe-core/src/tbl/cfe_tbl_internal.c ****                     sizeof(CFE_TBL_HkPacket_t), TRUE);
 185:/home/simulink/cFS_FreeRTOS_seL4/cfe/fsw/cfe-core/src/tbl/cfe_tbl_internal.c **** 
 186:/home/simulink/cFS_FreeRTOS_seL4/cfe/fsw/cfe-core/src/tbl/cfe_tbl_internal.c ****     /*
 187:/home/simulink/cFS_FreeRTOS_seL4/cfe/fsw/cfe-core/src/tbl/cfe_tbl_internal.c ****     ** Initialize table registry report packet (clear user data area)...
 188:/home/simulink/cFS_FreeRTOS_seL4/cfe/fsw/cfe-core/src/tbl/cfe_tbl_internal.c ****     */
 189:/home/simulink/cFS_FreeRTOS_seL4/cfe/fsw/cfe-core/src/tbl/cfe_tbl_internal.c ****     CFE_SB_InitMsg(&CFE_TBL_TaskData.TblRegPacket,
 323               	.loc 1 189 0
 324 02f2 4878 0001 	pea 1.w
 325               	.cfi_def_cfa_offset 24
 326 02f6 4878 00B4 	pea 180.w
 327               	.cfi_def_cfa_offset 28
 328 02fa 4878 080C 	pea 2060.w
 329               	.cfi_def_cfa_offset 32
 330 02fe 4879 0000 	pea CFE_TBL_TaskData+304
 330      0000 
 331               	.cfi_def_cfa_offset 36
 332 0304 4EB9 0000 	jsr CFE_SB_InitMsg
 332      0000 
 333 030a 4FEF 0010 	lea (16,%sp),%sp
 334               	.cfi_def_cfa_offset 20
 190:/home/simulink/cFS_FreeRTOS_seL4/cfe/fsw/cfe-core/src/tbl/cfe_tbl_internal.c ****                     CFE_TBL_REG_TLM_MID,
 191:/home/simulink/cFS_FreeRTOS_seL4/cfe/fsw/cfe-core/src/tbl/cfe_tbl_internal.c ****                     sizeof(CFE_TBL_TblRegPacket_t), TRUE);
 192:/home/simulink/cFS_FreeRTOS_seL4/cfe/fsw/cfe-core/src/tbl/cfe_tbl_internal.c **** 
 193:/home/simulink/cFS_FreeRTOS_seL4/cfe/fsw/cfe-core/src/tbl/cfe_tbl_internal.c ****     /* Initialize memory partition and allocate shared table buffers. */
 194:/home/simulink/cFS_FreeRTOS_seL4/cfe/fsw/cfe-core/src/tbl/cfe_tbl_internal.c ****     Status = CFE_ES_PoolCreate(&CFE_TBL_TaskData.Buf.PoolHdl,
 335               	.loc 1 194 0
 336 030e 2F3C 0008 	move.l #524288,-(%sp)
 336      0000 
 337               	.cfi_def_cfa_offset 24
 338 0314 4879 0000 	pea CFE_TBL_TaskData+52080
 338      0000 
 339               	.cfi_def_cfa_offset 28
 340 031a 4879 0000 	pea CFE_TBL_TaskData+52076
 340      0000 
 341               	.cfi_def_cfa_offset 32
 342 0320 4EB9 0000 	jsr CFE_ES_PoolCreate
 342      0000 
 343 0326 4FEF 000C 	lea (12,%sp),%sp
68K GAS   			page 12


 344               	.cfi_def_cfa_offset 20
 345 032a 2F40 0004 	move.l %d0,4(%sp)
 195:/home/simulink/cFS_FreeRTOS_seL4/cfe/fsw/cfe-core/src/tbl/cfe_tbl_internal.c ****                                 CFE_TBL_TaskData.Buf.Partition,                               
 196:/home/simulink/cFS_FreeRTOS_seL4/cfe/fsw/cfe-core/src/tbl/cfe_tbl_internal.c ****                                 CFE_TBL_BUF_MEMORY_BYTES);        
 197:/home/simulink/cFS_FreeRTOS_seL4/cfe/fsw/cfe-core/src/tbl/cfe_tbl_internal.c **** 
 198:/home/simulink/cFS_FreeRTOS_seL4/cfe/fsw/cfe-core/src/tbl/cfe_tbl_internal.c ****     if(Status < 0)
 346               	.loc 1 198 0
 347 032e 4AAF 0004 	tst.l 4(%sp)
 348 0332 6C1C      	jge .L13
 199:/home/simulink/cFS_FreeRTOS_seL4/cfe/fsw/cfe-core/src/tbl/cfe_tbl_internal.c ****     {
 200:/home/simulink/cFS_FreeRTOS_seL4/cfe/fsw/cfe-core/src/tbl/cfe_tbl_internal.c ****         CFE_ES_WriteToSysLog("CFE_TBL:InitBuffers PoolCreate fail Status=0x%X\n", (unsigned int)Sta
 349               	.loc 1 200 0
 350 0334 202F 0004 	move.l 4(%sp),%d0
 351 0338 2F00      	move.l %d0,-(%sp)
 352               	.cfi_def_cfa_offset 24
 353 033a 4879 0000 	pea .LC4
 353      0000 
 354               	.cfi_def_cfa_offset 28
 355 0340 4EB9 0000 	jsr CFE_ES_WriteToSysLog
 355      0000 
 356 0346 508F      	addq.l #8,%sp
 357               	.cfi_def_cfa_offset 20
 201:/home/simulink/cFS_FreeRTOS_seL4/cfe/fsw/cfe-core/src/tbl/cfe_tbl_internal.c ****         return Status;
 358               	.loc 1 201 0
 359 0348 202F 0004 	move.l 4(%sp),%d0
 360 034c 6000 025E 	jra .L11
 361               	.L13:
 202:/home/simulink/cFS_FreeRTOS_seL4/cfe/fsw/cfe-core/src/tbl/cfe_tbl_internal.c ****     }
 203:/home/simulink/cFS_FreeRTOS_seL4/cfe/fsw/cfe-core/src/tbl/cfe_tbl_internal.c ****     else
 204:/home/simulink/cFS_FreeRTOS_seL4/cfe/fsw/cfe-core/src/tbl/cfe_tbl_internal.c ****     {
 205:/home/simulink/cFS_FreeRTOS_seL4/cfe/fsw/cfe-core/src/tbl/cfe_tbl_internal.c ****         /* Initialize each of the shared load buffers */
 206:/home/simulink/cFS_FreeRTOS_seL4/cfe/fsw/cfe-core/src/tbl/cfe_tbl_internal.c ****         j=0;
 362               	.loc 1 206 0
 363 0350 42AF 0008 	clr.l 8(%sp)
 364               	.L16:
 207:/home/simulink/cFS_FreeRTOS_seL4/cfe/fsw/cfe-core/src/tbl/cfe_tbl_internal.c ****         do
 208:/home/simulink/cFS_FreeRTOS_seL4/cfe/fsw/cfe-core/src/tbl/cfe_tbl_internal.c ****         {
 209:/home/simulink/cFS_FreeRTOS_seL4/cfe/fsw/cfe-core/src/tbl/cfe_tbl_internal.c ****             /* Allocate memory for shared load buffers */
 210:/home/simulink/cFS_FreeRTOS_seL4/cfe/fsw/cfe-core/src/tbl/cfe_tbl_internal.c ****             Status = CFE_ES_GetPoolBuf((uint32 **)&CFE_TBL_TaskData.LoadBuffs[j].BufferPtr,
 365               	.loc 1 210 0
 366 0354 2239 0000 	move.l CFE_TBL_TaskData+52076,%d1
 366      0000 
 367 035a 202F 0008 	move.l 8(%sp),%d0
 368 035e 7454      	moveq #84,%d2
 369 0360 4C02 0800 	muls.l %d2,%d0
 370 0364 0680 0000 	add.l #540,%d0
 370      021C 
 371 036a 0680 0000 	add.l #CFE_TBL_TaskData,%d0
 371      0000 
 372 0370 4878 4000 	pea 16384.w
 373               	.cfi_def_cfa_offset 24
 374 0374 2F01      	move.l %d1,-(%sp)
 375               	.cfi_def_cfa_offset 28
 376 0376 2F00      	move.l %d0,-(%sp)
 377               	.cfi_def_cfa_offset 32
 378 0378 4EB9 0000 	jsr CFE_ES_GetPoolBuf
 378      0000 
68K GAS   			page 13


 379 037e 4FEF 000C 	lea (12,%sp),%sp
 380               	.cfi_def_cfa_offset 20
 381 0382 2F40 0004 	move.l %d0,4(%sp)
 211:/home/simulink/cFS_FreeRTOS_seL4/cfe/fsw/cfe-core/src/tbl/cfe_tbl_internal.c ****                                        CFE_TBL_TaskData.Buf.PoolHdl,
 212:/home/simulink/cFS_FreeRTOS_seL4/cfe/fsw/cfe-core/src/tbl/cfe_tbl_internal.c ****                                        CFE_TBL_MAX_SNGL_TABLE_SIZE);
 213:/home/simulink/cFS_FreeRTOS_seL4/cfe/fsw/cfe-core/src/tbl/cfe_tbl_internal.c **** 
 214:/home/simulink/cFS_FreeRTOS_seL4/cfe/fsw/cfe-core/src/tbl/cfe_tbl_internal.c ****             if (Status < CFE_TBL_MAX_SNGL_TABLE_SIZE)
 382               	.loc 1 214 0
 383 0386 203C 0000 	move.l #16383,%d0
 383      3FFF 
 384 038c B0AF 0004 	cmp.l 4(%sp),%d0
 385 0390 6D24      	jlt .L14
 215:/home/simulink/cFS_FreeRTOS_seL4/cfe/fsw/cfe-core/src/tbl/cfe_tbl_internal.c ****             {
 216:/home/simulink/cFS_FreeRTOS_seL4/cfe/fsw/cfe-core/src/tbl/cfe_tbl_internal.c ****                 CFE_ES_WriteToSysLog("CFE_TBL:InitBuffers GetPoolBuf Fail Index=%d, Status=0x%X\n",
 386               	.loc 1 216 0
 387 0392 222F 0004 	move.l 4(%sp),%d1
 388 0396 202F 0008 	move.l 8(%sp),%d0
 389 039a 2F01      	move.l %d1,-(%sp)
 390               	.cfi_def_cfa_offset 24
 391 039c 2F00      	move.l %d0,-(%sp)
 392               	.cfi_def_cfa_offset 28
 393 039e 4879 0000 	pea .LC5
 393      0000 
 394               	.cfi_def_cfa_offset 32
 395 03a4 4EB9 0000 	jsr CFE_ES_WriteToSysLog
 395      0000 
 396 03aa 4FEF 000C 	lea (12,%sp),%sp
 397               	.cfi_def_cfa_offset 20
 217:/home/simulink/cFS_FreeRTOS_seL4/cfe/fsw/cfe-core/src/tbl/cfe_tbl_internal.c ****                 return Status;
 398               	.loc 1 217 0
 399 03ae 202F 0004 	move.l 4(%sp),%d0
 400 03b2 6000 01F8 	jra .L11
 401               	.L14:
 218:/home/simulink/cFS_FreeRTOS_seL4/cfe/fsw/cfe-core/src/tbl/cfe_tbl_internal.c ****             }
 219:/home/simulink/cFS_FreeRTOS_seL4/cfe/fsw/cfe-core/src/tbl/cfe_tbl_internal.c ****             else
 220:/home/simulink/cFS_FreeRTOS_seL4/cfe/fsw/cfe-core/src/tbl/cfe_tbl_internal.c ****             {
 221:/home/simulink/cFS_FreeRTOS_seL4/cfe/fsw/cfe-core/src/tbl/cfe_tbl_internal.c ****                 /* The buffer is successfully created, so allow it to be used */
 222:/home/simulink/cFS_FreeRTOS_seL4/cfe/fsw/cfe-core/src/tbl/cfe_tbl_internal.c ****                 CFE_TBL_TaskData.LoadBuffs[j].Taken = FALSE;
 402               	.loc 1 222 0
 403 03b6 202F 0008 	move.l 8(%sp),%d0
 404 03ba 7254      	moveq #84,%d1
 405 03bc 4C01 0800 	muls.l %d1,%d0
 406 03c0 41F9 0000 	lea CFE_TBL_TaskData+556,%a0
 406      0000 
 407 03c6 4202      	clr.b %d2
 408 03c8 1182 0800 	move.b %d2,(%a0,%d0.l)
 223:/home/simulink/cFS_FreeRTOS_seL4/cfe/fsw/cfe-core/src/tbl/cfe_tbl_internal.c ****                 
 224:/home/simulink/cFS_FreeRTOS_seL4/cfe/fsw/cfe-core/src/tbl/cfe_tbl_internal.c ****                 CFE_PSP_MemSet(CFE_TBL_TaskData.LoadBuffs[j].DataSource, 0, OS_MAX_PATH_LEN);
 409               	.loc 1 224 0
 410 03cc 202F 0008 	move.l 8(%sp),%d0
 411 03d0 7254      	moveq #84,%d1
 412 03d2 4C01 0800 	muls.l %d1,%d0
 413 03d6 0680 0000 	add.l #556,%d0
 413      022C 
 414 03dc 0680 0000 	add.l #CFE_TBL_TaskData,%d0
 414      0000 
 415 03e2 5480      	addq.l #2,%d0
68K GAS   			page 14


 416 03e4 4878 0040 	pea 64.w
 417               	.cfi_def_cfa_offset 24
 418 03e8 42A7      	clr.l -(%sp)
 419               	.cfi_def_cfa_offset 28
 420 03ea 2F00      	move.l %d0,-(%sp)
 421               	.cfi_def_cfa_offset 32
 422 03ec 4EB9 0000 	jsr CFE_PSP_MemSet
 422      0000 
 423 03f2 4FEF 000C 	lea (12,%sp),%sp
 424               	.cfi_def_cfa_offset 20
 225:/home/simulink/cFS_FreeRTOS_seL4/cfe/fsw/cfe-core/src/tbl/cfe_tbl_internal.c ****                 CFE_TBL_TaskData.LoadBuffs[j].FileCreateTimeSecs = 0;
 425               	.loc 1 225 0
 426 03f6 202F 0008 	move.l 8(%sp),%d0
 427 03fa 7454      	moveq #84,%d2
 428 03fc 4C02 0800 	muls.l %d2,%d0
 429 0400 41F9 0000 	lea CFE_TBL_TaskData+544,%a0
 429      0000 
 430 0406 42B0 0800 	clr.l (%a0,%d0.l)
 226:/home/simulink/cFS_FreeRTOS_seL4/cfe/fsw/cfe-core/src/tbl/cfe_tbl_internal.c ****                 CFE_TBL_TaskData.LoadBuffs[j].FileCreateTimeSubSecs = 0;
 431               	.loc 1 226 0
 432 040a 202F 0008 	move.l 8(%sp),%d0
 433 040e 7254      	moveq #84,%d1
 434 0410 4C01 0800 	muls.l %d1,%d0
 435 0414 41F9 0000 	lea CFE_TBL_TaskData+548,%a0
 435      0000 
 436 041a 42B0 0800 	clr.l (%a0,%d0.l)
 227:/home/simulink/cFS_FreeRTOS_seL4/cfe/fsw/cfe-core/src/tbl/cfe_tbl_internal.c ****             }
 228:/home/simulink/cFS_FreeRTOS_seL4/cfe/fsw/cfe-core/src/tbl/cfe_tbl_internal.c **** 
 229:/home/simulink/cFS_FreeRTOS_seL4/cfe/fsw/cfe-core/src/tbl/cfe_tbl_internal.c ****             j++;
 437               	.loc 1 229 0
 438 041e 52AF 0008 	addq.l #1,8(%sp)
 230:/home/simulink/cFS_FreeRTOS_seL4/cfe/fsw/cfe-core/src/tbl/cfe_tbl_internal.c ****         } while ((j < CFE_TBL_MAX_SIMULTANEOUS_LOADS) && 
 231:/home/simulink/cFS_FreeRTOS_seL4/cfe/fsw/cfe-core/src/tbl/cfe_tbl_internal.c ****                  (Status >= CFE_TBL_MAX_SNGL_TABLE_SIZE));
 439               	.loc 1 231 0
 440 0422 7403      	moveq #3,%d2
 441 0424 B4AF 0008 	cmp.l 8(%sp),%d2
 442 0428 650E      	jcs .L15
 230:/home/simulink/cFS_FreeRTOS_seL4/cfe/fsw/cfe-core/src/tbl/cfe_tbl_internal.c ****         } while ((j < CFE_TBL_MAX_SIMULTANEOUS_LOADS) && 
 443               	.loc 1 230 0
 444 042a 203C 0000 	move.l #16383,%d0
 444      3FFF 
 445 0430 B0AF 0004 	cmp.l 4(%sp),%d0
 446 0434 6D00 FF1E 	jlt .L16
 447               	.L15:
 232:/home/simulink/cFS_FreeRTOS_seL4/cfe/fsw/cfe-core/src/tbl/cfe_tbl_internal.c ****     }
 233:/home/simulink/cFS_FreeRTOS_seL4/cfe/fsw/cfe-core/src/tbl/cfe_tbl_internal.c ****     
 234:/home/simulink/cFS_FreeRTOS_seL4/cfe/fsw/cfe-core/src/tbl/cfe_tbl_internal.c ****     /* Try to obtain a previous image of the Critical Table Registry from the Critical Data Store *
 235:/home/simulink/cFS_FreeRTOS_seL4/cfe/fsw/cfe-core/src/tbl/cfe_tbl_internal.c ****     Status = CFE_ES_RegisterCDSEx(&CFE_TBL_TaskData.CritRegHandle, 
 448               	.loc 1 235 0
 449 0438 4878 0001 	pea 1.w
 450               	.cfi_def_cfa_offset 24
 451 043c 4879 0000 	pea .LC6
 451      0000 
 452               	.cfi_def_cfa_offset 28
 453 0442 4878 1000 	pea 4096.w
 454               	.cfi_def_cfa_offset 32
 455 0446 4879 0000 	pea CFE_TBL_TaskData+536
68K GAS   			page 15


 455      0000 
 456               	.cfi_def_cfa_offset 36
 457 044c 4EB9 0000 	jsr CFE_ES_RegisterCDSEx
 457      0000 
 458 0452 4FEF 0010 	lea (16,%sp),%sp
 459               	.cfi_def_cfa_offset 20
 460 0456 2F40 0004 	move.l %d0,4(%sp)
 236:/home/simulink/cFS_FreeRTOS_seL4/cfe/fsw/cfe-core/src/tbl/cfe_tbl_internal.c ****                                   (sizeof(CFE_TBL_CritRegRec_t)*CFE_TBL_MAX_CRITICAL_TABLES),
 237:/home/simulink/cFS_FreeRTOS_seL4/cfe/fsw/cfe-core/src/tbl/cfe_tbl_internal.c ****                                   "CFE_TBL.CritReg", TRUE);
 238:/home/simulink/cFS_FreeRTOS_seL4/cfe/fsw/cfe-core/src/tbl/cfe_tbl_internal.c ****                                 
 239:/home/simulink/cFS_FreeRTOS_seL4/cfe/fsw/cfe-core/src/tbl/cfe_tbl_internal.c ****     /* Assume for the moment that nothing is already in the CDS and zero out the Critical Table Reg
 240:/home/simulink/cFS_FreeRTOS_seL4/cfe/fsw/cfe-core/src/tbl/cfe_tbl_internal.c ****     for (i=0; i<CFE_TBL_MAX_CRITICAL_TABLES; i++)
 461               	.loc 1 240 0
 462 045a 4241      	clr.w %d1
 463 045c 3F41 000E 	move.w %d1,14(%sp)
 464 0460 6000 009A 	jra .L17
 465               	.L18:
 241:/home/simulink/cFS_FreeRTOS_seL4/cfe/fsw/cfe-core/src/tbl/cfe_tbl_internal.c ****     {
 242:/home/simulink/cFS_FreeRTOS_seL4/cfe/fsw/cfe-core/src/tbl/cfe_tbl_internal.c ****         CFE_TBL_TaskData.CritReg[i].CDSHandle = CFE_ES_CDS_BAD_HANDLE;
 466               	.loc 1 242 0 discriminator 3
 467 0464 4280      	clr.l %d0
 468 0466 302F 000E 	move.w 14(%sp),%d0
 469 046a EF88      	lsl.l #7,%d0
 470 046c 41F9 0000 	lea CFE_TBL_TaskData+47980,%a0
 470      0000 
 471 0472 243C 0000 	move.l #65535,%d2
 471      FFFF 
 472 0478 2182 0800 	move.l %d2,(%a0,%d0.l)
 243:/home/simulink/cFS_FreeRTOS_seL4/cfe/fsw/cfe-core/src/tbl/cfe_tbl_internal.c ****         CFE_TBL_TaskData.CritReg[i].FileCreateTimeSecs = 0;
 473               	.loc 1 243 0 discriminator 3
 474 047c 4280      	clr.l %d0
 475 047e 302F 000E 	move.w 14(%sp),%d0
 476 0482 EF88      	lsl.l #7,%d0
 477 0484 41F9 0000 	lea CFE_TBL_TaskData+47984,%a0
 477      0000 
 478 048a 42B0 0800 	clr.l (%a0,%d0.l)
 244:/home/simulink/cFS_FreeRTOS_seL4/cfe/fsw/cfe-core/src/tbl/cfe_tbl_internal.c ****         CFE_TBL_TaskData.CritReg[i].FileCreateTimeSubSecs = 0;
 479               	.loc 1 244 0 discriminator 3
 480 048e 4280      	clr.l %d0
 481 0490 302F 000E 	move.w 14(%sp),%d0
 482 0494 EF88      	lsl.l #7,%d0
 483 0496 41F9 0000 	lea CFE_TBL_TaskData+47988,%a0
 483      0000 
 484 049c 42B0 0800 	clr.l (%a0,%d0.l)
 245:/home/simulink/cFS_FreeRTOS_seL4/cfe/fsw/cfe-core/src/tbl/cfe_tbl_internal.c ****         CFE_TBL_TaskData.CritReg[i].LastFileLoaded[0] = '\0';
 485               	.loc 1 245 0 discriminator 3
 486 04a0 4280      	clr.l %d0
 487 04a2 302F 000E 	move.w 14(%sp),%d0
 488 04a6 0680 0000 	add.l #375,%d0
 488      0177 
 489 04ac EF88      	lsl.l #7,%d0
 490 04ae 41F9 0000 	lea CFE_TBL_TaskData,%a0
 490      0000 
 491 04b4 4201      	clr.b %d1
 492 04b6 1181 0800 	move.b %d1,(%a0,%d0.l)
 246:/home/simulink/cFS_FreeRTOS_seL4/cfe/fsw/cfe-core/src/tbl/cfe_tbl_internal.c ****         CFE_TBL_TaskData.CritReg[i].TimeOfLastUpdate.Seconds = 0;
 493               	.loc 1 246 0 discriminator 3
68K GAS   			page 16


 494 04ba 4280      	clr.l %d0
 495 04bc 302F 000E 	move.w 14(%sp),%d0
 496 04c0 EF88      	lsl.l #7,%d0
 497 04c2 41F9 0000 	lea CFE_TBL_TaskData+47992,%a0
 497      0000 
 498 04c8 42B0 0800 	clr.l (%a0,%d0.l)
 247:/home/simulink/cFS_FreeRTOS_seL4/cfe/fsw/cfe-core/src/tbl/cfe_tbl_internal.c ****         CFE_TBL_TaskData.CritReg[i].TimeOfLastUpdate.Subseconds = 0;
 499               	.loc 1 247 0 discriminator 3
 500 04cc 4280      	clr.l %d0
 501 04ce 302F 000E 	move.w 14(%sp),%d0
 502 04d2 EF88      	lsl.l #7,%d0
 503 04d4 41F9 0000 	lea CFE_TBL_TaskData+47996,%a0
 503      0000 
 504 04da 42B0 0800 	clr.l (%a0,%d0.l)
 248:/home/simulink/cFS_FreeRTOS_seL4/cfe/fsw/cfe-core/src/tbl/cfe_tbl_internal.c ****         CFE_TBL_TaskData.CritReg[i].TableLoadedOnce = FALSE;
 505               	.loc 1 248 0 discriminator 3
 506 04de 4280      	clr.l %d0
 507 04e0 302F 000E 	move.w 14(%sp),%d0
 508 04e4 EF88      	lsl.l #7,%d0
 509 04e6 41F9 0000 	lea CFE_TBL_TaskData+48104,%a0
 509      0000 
 510 04ec 4202      	clr.b %d2
 511 04ee 1182 0800 	move.b %d2,(%a0,%d0.l)
 240:/home/simulink/cFS_FreeRTOS_seL4/cfe/fsw/cfe-core/src/tbl/cfe_tbl_internal.c ****     {
 512               	.loc 1 240 0 discriminator 3
 513 04f2 302F 000E 	move.w 14(%sp),%d0
 514 04f6 5280      	addq.l #1,%d0
 515 04f8 3F40 000E 	move.w %d0,14(%sp)
 516               	.L17:
 240:/home/simulink/cFS_FreeRTOS_seL4/cfe/fsw/cfe-core/src/tbl/cfe_tbl_internal.c ****     {
 517               	.loc 1 240 0 is_stmt 0 discriminator 1
 518 04fc 4280      	clr.l %d0
 519 04fe 302F 000E 	move.w 14(%sp),%d0
 520 0502 721F      	moveq #31,%d1
 521 0504 B280      	cmp.l %d0,%d1
 522 0506 6400 FF5C 	jcc .L18
 249:/home/simulink/cFS_FreeRTOS_seL4/cfe/fsw/cfe-core/src/tbl/cfe_tbl_internal.c **** 
 250:/home/simulink/cFS_FreeRTOS_seL4/cfe/fsw/cfe-core/src/tbl/cfe_tbl_internal.c ****     }
 251:/home/simulink/cFS_FreeRTOS_seL4/cfe/fsw/cfe-core/src/tbl/cfe_tbl_internal.c ****     
 252:/home/simulink/cFS_FreeRTOS_seL4/cfe/fsw/cfe-core/src/tbl/cfe_tbl_internal.c ****     if (Status == CFE_ES_CDS_ALREADY_EXISTS)
 523               	.loc 1 252 0 is_stmt 1
 524 050a 243C 4400 	move.l #1140850701,%d2
 524      000D 
 525 0510 B4AF 0004 	cmp.l 4(%sp),%d2
 526 0514 663A      	jne .L19
 253:/home/simulink/cFS_FreeRTOS_seL4/cfe/fsw/cfe-core/src/tbl/cfe_tbl_internal.c ****     {
 254:/home/simulink/cFS_FreeRTOS_seL4/cfe/fsw/cfe-core/src/tbl/cfe_tbl_internal.c ****         /* Try to recover the Critical Table Registry from the CDS */
 255:/home/simulink/cFS_FreeRTOS_seL4/cfe/fsw/cfe-core/src/tbl/cfe_tbl_internal.c ****         Status = CFE_ES_RestoreFromCDS(CFE_TBL_TaskData.CritReg, CFE_TBL_TaskData.CritRegHandle);
 527               	.loc 1 255 0
 528 0516 2039 0000 	move.l CFE_TBL_TaskData+536,%d0
 528      0000 
 529 051c 2F00      	move.l %d0,-(%sp)
 530               	.cfi_def_cfa_offset 24
 531 051e 4879 0000 	pea CFE_TBL_TaskData+47980
 531      0000 
 532               	.cfi_def_cfa_offset 28
 533 0524 4EB9 0000 	jsr CFE_ES_RestoreFromCDS
68K GAS   			page 17


 533      0000 
 534 052a 508F      	addq.l #8,%sp
 535               	.cfi_def_cfa_offset 20
 536 052c 2F40 0004 	move.l %d0,4(%sp)
 256:/home/simulink/cFS_FreeRTOS_seL4/cfe/fsw/cfe-core/src/tbl/cfe_tbl_internal.c ****         
 257:/home/simulink/cFS_FreeRTOS_seL4/cfe/fsw/cfe-core/src/tbl/cfe_tbl_internal.c ****         if (Status != CFE_SUCCESS)
 537               	.loc 1 257 0
 538 0530 4AAF 0004 	tst.l 4(%sp)
 539 0534 6714      	jeq .L20
 258:/home/simulink/cFS_FreeRTOS_seL4/cfe/fsw/cfe-core/src/tbl/cfe_tbl_internal.c ****         {
 259:/home/simulink/cFS_FreeRTOS_seL4/cfe/fsw/cfe-core/src/tbl/cfe_tbl_internal.c ****             /* Note if we were unable to recover error free Critical Table Registry from the CDS */
 260:/home/simulink/cFS_FreeRTOS_seL4/cfe/fsw/cfe-core/src/tbl/cfe_tbl_internal.c ****             CFE_ES_WriteToSysLog("CFE_TBL:EarlyInit-Failed to recover Critical Table Registry (Err=
 540               	.loc 1 260 0
 541 0536 202F 0004 	move.l 4(%sp),%d0
 542 053a 2F00      	move.l %d0,-(%sp)
 543               	.cfi_def_cfa_offset 24
 544 053c 4879 0000 	pea .LC7
 544      0000 
 545               	.cfi_def_cfa_offset 28
 546 0542 4EB9 0000 	jsr CFE_ES_WriteToSysLog
 546      0000 
 547 0548 508F      	addq.l #8,%sp
 548               	.cfi_def_cfa_offset 20
 549               	.L20:
 261:/home/simulink/cFS_FreeRTOS_seL4/cfe/fsw/cfe-core/src/tbl/cfe_tbl_internal.c ****         }
 262:/home/simulink/cFS_FreeRTOS_seL4/cfe/fsw/cfe-core/src/tbl/cfe_tbl_internal.c ****         
 263:/home/simulink/cFS_FreeRTOS_seL4/cfe/fsw/cfe-core/src/tbl/cfe_tbl_internal.c ****         /* Whether we recovered the Critical Table Registry or not, we are successful with initiali
 264:/home/simulink/cFS_FreeRTOS_seL4/cfe/fsw/cfe-core/src/tbl/cfe_tbl_internal.c ****         Status = CFE_SUCCESS;
 550               	.loc 1 264 0
 551 054a 42AF 0004 	clr.l 4(%sp)
 552 054e 6058      	jra .L21
 553               	.L19:
 265:/home/simulink/cFS_FreeRTOS_seL4/cfe/fsw/cfe-core/src/tbl/cfe_tbl_internal.c ****     }
 266:/home/simulink/cFS_FreeRTOS_seL4/cfe/fsw/cfe-core/src/tbl/cfe_tbl_internal.c ****     else if (Status != CFE_SUCCESS)
 554               	.loc 1 266 0
 555 0550 4AAF 0004 	tst.l 4(%sp)
 556 0554 671A      	jeq .L22
 267:/home/simulink/cFS_FreeRTOS_seL4/cfe/fsw/cfe-core/src/tbl/cfe_tbl_internal.c ****     {
 268:/home/simulink/cFS_FreeRTOS_seL4/cfe/fsw/cfe-core/src/tbl/cfe_tbl_internal.c ****         /* Not being able to support Critical Tables is not the end of the world */
 269:/home/simulink/cFS_FreeRTOS_seL4/cfe/fsw/cfe-core/src/tbl/cfe_tbl_internal.c ****         /* Note the problem and move on */
 270:/home/simulink/cFS_FreeRTOS_seL4/cfe/fsw/cfe-core/src/tbl/cfe_tbl_internal.c ****         CFE_ES_WriteToSysLog("CFE_TBL:EarlyInit-Failed to create Critical Table Registry (Err=0x%08
 557               	.loc 1 270 0
 558 0556 202F 0004 	move.l 4(%sp),%d0
 559 055a 2F00      	move.l %d0,-(%sp)
 560               	.cfi_def_cfa_offset 24
 561 055c 4879 0000 	pea .LC8
 561      0000 
 562               	.cfi_def_cfa_offset 28
 563 0562 4EB9 0000 	jsr CFE_ES_WriteToSysLog
 563      0000 
 564 0568 508F      	addq.l #8,%sp
 565               	.cfi_def_cfa_offset 20
 271:/home/simulink/cFS_FreeRTOS_seL4/cfe/fsw/cfe-core/src/tbl/cfe_tbl_internal.c ****         
 272:/home/simulink/cFS_FreeRTOS_seL4/cfe/fsw/cfe-core/src/tbl/cfe_tbl_internal.c ****         /* Failure to support critical tables is not a good enough reason to exit the cFE on start 
 273:/home/simulink/cFS_FreeRTOS_seL4/cfe/fsw/cfe-core/src/tbl/cfe_tbl_internal.c ****         Status = CFE_SUCCESS;
 566               	.loc 1 273 0
 567 056a 42AF 0004 	clr.l 4(%sp)
68K GAS   			page 18


 568 056e 6038      	jra .L21
 569               	.L22:
 274:/home/simulink/cFS_FreeRTOS_seL4/cfe/fsw/cfe-core/src/tbl/cfe_tbl_internal.c ****     }
 275:/home/simulink/cFS_FreeRTOS_seL4/cfe/fsw/cfe-core/src/tbl/cfe_tbl_internal.c ****     else
 276:/home/simulink/cFS_FreeRTOS_seL4/cfe/fsw/cfe-core/src/tbl/cfe_tbl_internal.c ****     {
 277:/home/simulink/cFS_FreeRTOS_seL4/cfe/fsw/cfe-core/src/tbl/cfe_tbl_internal.c ****         /* Save the initial version of the Critical Table Registry in the CDS */
 278:/home/simulink/cFS_FreeRTOS_seL4/cfe/fsw/cfe-core/src/tbl/cfe_tbl_internal.c ****         Status = CFE_ES_CopyToCDS(CFE_TBL_TaskData.CritRegHandle, CFE_TBL_TaskData.CritReg);
 570               	.loc 1 278 0
 571 0570 2039 0000 	move.l CFE_TBL_TaskData+536,%d0
 571      0000 
 572 0576 4879 0000 	pea CFE_TBL_TaskData+47980
 572      0000 
 573               	.cfi_def_cfa_offset 24
 574 057c 2F00      	move.l %d0,-(%sp)
 575               	.cfi_def_cfa_offset 28
 576 057e 4EB9 0000 	jsr CFE_ES_CopyToCDS
 576      0000 
 577 0584 508F      	addq.l #8,%sp
 578               	.cfi_def_cfa_offset 20
 579 0586 2F40 0004 	move.l %d0,4(%sp)
 279:/home/simulink/cFS_FreeRTOS_seL4/cfe/fsw/cfe-core/src/tbl/cfe_tbl_internal.c ****         
 280:/home/simulink/cFS_FreeRTOS_seL4/cfe/fsw/cfe-core/src/tbl/cfe_tbl_internal.c ****         if (Status != CFE_SUCCESS)
 580               	.loc 1 280 0
 581 058a 4AAF 0004 	tst.l 4(%sp)
 582 058e 6718      	jeq .L21
 281:/home/simulink/cFS_FreeRTOS_seL4/cfe/fsw/cfe-core/src/tbl/cfe_tbl_internal.c ****         {
 282:/home/simulink/cFS_FreeRTOS_seL4/cfe/fsw/cfe-core/src/tbl/cfe_tbl_internal.c ****             /* Not being able to support Critical Tables is not the end of the world */
 283:/home/simulink/cFS_FreeRTOS_seL4/cfe/fsw/cfe-core/src/tbl/cfe_tbl_internal.c ****             /* Note the problem and move on */
 284:/home/simulink/cFS_FreeRTOS_seL4/cfe/fsw/cfe-core/src/tbl/cfe_tbl_internal.c ****             CFE_ES_WriteToSysLog("CFE_TBL:EarlyInit-Failed to save Critical Table Registry (Err=0x%
 583               	.loc 1 284 0
 584 0590 202F 0004 	move.l 4(%sp),%d0
 585 0594 2F00      	move.l %d0,-(%sp)
 586               	.cfi_def_cfa_offset 24
 587 0596 4879 0000 	pea .LC9
 587      0000 
 588               	.cfi_def_cfa_offset 28
 589 059c 4EB9 0000 	jsr CFE_ES_WriteToSysLog
 589      0000 
 590 05a2 508F      	addq.l #8,%sp
 591               	.cfi_def_cfa_offset 20
 285:/home/simulink/cFS_FreeRTOS_seL4/cfe/fsw/cfe-core/src/tbl/cfe_tbl_internal.c ****         
 286:/home/simulink/cFS_FreeRTOS_seL4/cfe/fsw/cfe-core/src/tbl/cfe_tbl_internal.c ****             /* Failure to support critical tables is not a good enough reason to exit the cFE on st
 287:/home/simulink/cFS_FreeRTOS_seL4/cfe/fsw/cfe-core/src/tbl/cfe_tbl_internal.c ****             Status = CFE_SUCCESS;
 592               	.loc 1 287 0
 593 05a4 42AF 0004 	clr.l 4(%sp)
 594               	.L21:
 288:/home/simulink/cFS_FreeRTOS_seL4/cfe/fsw/cfe-core/src/tbl/cfe_tbl_internal.c ****         }
 289:/home/simulink/cFS_FreeRTOS_seL4/cfe/fsw/cfe-core/src/tbl/cfe_tbl_internal.c ****     }
 290:/home/simulink/cFS_FreeRTOS_seL4/cfe/fsw/cfe-core/src/tbl/cfe_tbl_internal.c ****     
 291:/home/simulink/cFS_FreeRTOS_seL4/cfe/fsw/cfe-core/src/tbl/cfe_tbl_internal.c ****     return Status;
 595               	.loc 1 291 0
 596 05a8 202F 0004 	move.l 4(%sp),%d0
 597               	.L11:
 292:/home/simulink/cFS_FreeRTOS_seL4/cfe/fsw/cfe-core/src/tbl/cfe_tbl_internal.c ****             
 293:/home/simulink/cFS_FreeRTOS_seL4/cfe/fsw/cfe-core/src/tbl/cfe_tbl_internal.c **** }/* end CFE_TBL_EarlyInit */
 598               	.loc 1 293 0
 599 05ac 241F      	move.l (%sp)+,%d2
68K GAS   			page 19


 600 05ae 4FEF 000C 	lea (12,%sp),%sp
 601 05b2 4E75      	rts
 602               	.cfi_endproc
 603               	.LFE59:
 604               	.sizeCFE_TBL_EarlyInit, .-CFE_TBL_EarlyInit
 605               	.align2
 606               	.globlCFE_TBL_InitRegistryRecord
 607               	.typeCFE_TBL_InitRegistryRecord, @function
 608               	CFE_TBL_InitRegistryRecord:
 609               	.LFB60:
 294:/home/simulink/cFS_FreeRTOS_seL4/cfe/fsw/cfe-core/src/tbl/cfe_tbl_internal.c **** 
 295:/home/simulink/cFS_FreeRTOS_seL4/cfe/fsw/cfe-core/src/tbl/cfe_tbl_internal.c **** 
 296:/home/simulink/cFS_FreeRTOS_seL4/cfe/fsw/cfe-core/src/tbl/cfe_tbl_internal.c **** /*******************************************************************
 297:/home/simulink/cFS_FreeRTOS_seL4/cfe/fsw/cfe-core/src/tbl/cfe_tbl_internal.c **** **
 298:/home/simulink/cFS_FreeRTOS_seL4/cfe/fsw/cfe-core/src/tbl/cfe_tbl_internal.c **** ** CFE_TBL_InitRegistryRecord
 299:/home/simulink/cFS_FreeRTOS_seL4/cfe/fsw/cfe-core/src/tbl/cfe_tbl_internal.c **** **
 300:/home/simulink/cFS_FreeRTOS_seL4/cfe/fsw/cfe-core/src/tbl/cfe_tbl_internal.c **** ** NOTE: For complete prolog information, see 'cfe_tbl_internal.h'
 301:/home/simulink/cFS_FreeRTOS_seL4/cfe/fsw/cfe-core/src/tbl/cfe_tbl_internal.c **** ********************************************************************/
 302:/home/simulink/cFS_FreeRTOS_seL4/cfe/fsw/cfe-core/src/tbl/cfe_tbl_internal.c **** 
 303:/home/simulink/cFS_FreeRTOS_seL4/cfe/fsw/cfe-core/src/tbl/cfe_tbl_internal.c **** 
 304:/home/simulink/cFS_FreeRTOS_seL4/cfe/fsw/cfe-core/src/tbl/cfe_tbl_internal.c **** void CFE_TBL_InitRegistryRecord (CFE_TBL_RegistryRec_t *RegRecPtr)
 305:/home/simulink/cFS_FreeRTOS_seL4/cfe/fsw/cfe-core/src/tbl/cfe_tbl_internal.c **** {
 610               	.loc 1 305 0
 611               	.cfi_startproc
 306:/home/simulink/cFS_FreeRTOS_seL4/cfe/fsw/cfe-core/src/tbl/cfe_tbl_internal.c ****     RegRecPtr->OwnerAppId = CFE_TBL_NOT_OWNED;
 612               	.loc 1 306 0
 613 05b4 206F 0004 	move.l 4(%sp),%a0
 614 05b8 20BC FFFF 	move.l #-1,(%a0)
 614      FFFF 
 307:/home/simulink/cFS_FreeRTOS_seL4/cfe/fsw/cfe-core/src/tbl/cfe_tbl_internal.c ****     RegRecPtr->Size = 0;
 615               	.loc 1 307 0
 616 05be 206F 0004 	move.l 4(%sp),%a0
 617 05c2 42A8 0004 	clr.l 4(%a0)
 308:/home/simulink/cFS_FreeRTOS_seL4/cfe/fsw/cfe-core/src/tbl/cfe_tbl_internal.c ****     RegRecPtr->NotificationMsgId = 0;
 618               	.loc 1 308 0
 619 05c6 206F 0004 	move.l 4(%sp),%a0
 620 05ca 42A8 0008 	clr.l 8(%a0)
 309:/home/simulink/cFS_FreeRTOS_seL4/cfe/fsw/cfe-core/src/tbl/cfe_tbl_internal.c ****     RegRecPtr->NotificationCC = 0;
 621               	.loc 1 309 0
 622 05ce 206F 0004 	move.l 4(%sp),%a0
 623 05d2 4240      	clr.w %d0
 624 05d4 3140 00DC 	move.w %d0,220(%a0)
 310:/home/simulink/cFS_FreeRTOS_seL4/cfe/fsw/cfe-core/src/tbl/cfe_tbl_internal.c ****     RegRecPtr->NotificationParam = 0;
 625               	.loc 1 310 0
 626 05d8 206F 0004 	move.l 4(%sp),%a0
 627 05dc 42A8 000C 	clr.l 12(%a0)
 311:/home/simulink/cFS_FreeRTOS_seL4/cfe/fsw/cfe-core/src/tbl/cfe_tbl_internal.c ****     RegRecPtr->Buffers[0].BufferPtr = NULL;
 628               	.loc 1 311 0
 629 05e0 206F 0004 	move.l 4(%sp),%a0
 630 05e4 42A8 0010 	clr.l 16(%a0)
 312:/home/simulink/cFS_FreeRTOS_seL4/cfe/fsw/cfe-core/src/tbl/cfe_tbl_internal.c ****     RegRecPtr->Buffers[0].FileCreateTimeSecs = 0;
 631               	.loc 1 312 0
 632 05e8 206F 0004 	move.l 4(%sp),%a0
 633 05ec 42A8 0014 	clr.l 20(%a0)
 313:/home/simulink/cFS_FreeRTOS_seL4/cfe/fsw/cfe-core/src/tbl/cfe_tbl_internal.c ****     RegRecPtr->Buffers[0].FileCreateTimeSubSecs = 0;
 634               	.loc 1 313 0
 635 05f0 206F 0004 	move.l 4(%sp),%a0
68K GAS   			page 20


 636 05f4 42A8 0018 	clr.l 24(%a0)
 314:/home/simulink/cFS_FreeRTOS_seL4/cfe/fsw/cfe-core/src/tbl/cfe_tbl_internal.c ****     RegRecPtr->Buffers[0].Crc = 0;
 637               	.loc 1 314 0
 638 05f8 206F 0004 	move.l 4(%sp),%a0
 639 05fc 42A8 001C 	clr.l 28(%a0)
 315:/home/simulink/cFS_FreeRTOS_seL4/cfe/fsw/cfe-core/src/tbl/cfe_tbl_internal.c ****     RegRecPtr->Buffers[0].Taken = FALSE;
 640               	.loc 1 315 0
 641 0600 206F 0004 	move.l 4(%sp),%a0
 642 0604 4200      	clr.b %d0
 643 0606 1140 0020 	move.b %d0,32(%a0)
 316:/home/simulink/cFS_FreeRTOS_seL4/cfe/fsw/cfe-core/src/tbl/cfe_tbl_internal.c ****     RegRecPtr->Buffers[0].DataSource[0] = '\0';
 644               	.loc 1 316 0
 645 060a 206F 0004 	move.l 4(%sp),%a0
 646 060e 4200      	clr.b %d0
 647 0610 1140 0022 	move.b %d0,34(%a0)
 317:/home/simulink/cFS_FreeRTOS_seL4/cfe/fsw/cfe-core/src/tbl/cfe_tbl_internal.c ****     RegRecPtr->Buffers[1].BufferPtr = NULL;
 648               	.loc 1 317 0
 649 0614 206F 0004 	move.l 4(%sp),%a0
 650 0618 42A8 0064 	clr.l 100(%a0)
 318:/home/simulink/cFS_FreeRTOS_seL4/cfe/fsw/cfe-core/src/tbl/cfe_tbl_internal.c ****     RegRecPtr->Buffers[1].FileCreateTimeSecs = 0;
 651               	.loc 1 318 0
 652 061c 206F 0004 	move.l 4(%sp),%a0
 653 0620 42A8 0068 	clr.l 104(%a0)
 319:/home/simulink/cFS_FreeRTOS_seL4/cfe/fsw/cfe-core/src/tbl/cfe_tbl_internal.c ****     RegRecPtr->Buffers[1].FileCreateTimeSubSecs = 0;
 654               	.loc 1 319 0
 655 0624 206F 0004 	move.l 4(%sp),%a0
 656 0628 42A8 006C 	clr.l 108(%a0)
 320:/home/simulink/cFS_FreeRTOS_seL4/cfe/fsw/cfe-core/src/tbl/cfe_tbl_internal.c ****     RegRecPtr->Buffers[1].Crc = 0;
 657               	.loc 1 320 0
 658 062c 206F 0004 	move.l 4(%sp),%a0
 659 0630 42A8 0070 	clr.l 112(%a0)
 321:/home/simulink/cFS_FreeRTOS_seL4/cfe/fsw/cfe-core/src/tbl/cfe_tbl_internal.c ****     RegRecPtr->Buffers[1].Taken = FALSE;
 660               	.loc 1 321 0
 661 0634 206F 0004 	move.l 4(%sp),%a0
 662 0638 4200      	clr.b %d0
 663 063a 1140 0074 	move.b %d0,116(%a0)
 322:/home/simulink/cFS_FreeRTOS_seL4/cfe/fsw/cfe-core/src/tbl/cfe_tbl_internal.c ****     RegRecPtr->Buffers[1].DataSource[0] = '\0';
 664               	.loc 1 322 0
 665 063e 206F 0004 	move.l 4(%sp),%a0
 666 0642 4200      	clr.b %d0
 667 0644 1140 0076 	move.b %d0,118(%a0)
 323:/home/simulink/cFS_FreeRTOS_seL4/cfe/fsw/cfe-core/src/tbl/cfe_tbl_internal.c ****     RegRecPtr->ValidationFuncPtr = NULL;
 668               	.loc 1 323 0
 669 0648 206F 0004 	move.l 4(%sp),%a0
 670 064c 42A8 00B8 	clr.l 184(%a0)
 324:/home/simulink/cFS_FreeRTOS_seL4/cfe/fsw/cfe-core/src/tbl/cfe_tbl_internal.c ****     RegRecPtr->TimeOfLastUpdate.Seconds = 0;
 671               	.loc 1 324 0
 672 0650 206F 0004 	move.l 4(%sp),%a0
 673 0654 42A8 00BC 	clr.l 188(%a0)
 325:/home/simulink/cFS_FreeRTOS_seL4/cfe/fsw/cfe-core/src/tbl/cfe_tbl_internal.c ****     RegRecPtr->TimeOfLastUpdate.Subseconds = 0;
 674               	.loc 1 325 0
 675 0658 206F 0004 	move.l 4(%sp),%a0
 676 065c 42A8 00C0 	clr.l 192(%a0)
 326:/home/simulink/cFS_FreeRTOS_seL4/cfe/fsw/cfe-core/src/tbl/cfe_tbl_internal.c ****     RegRecPtr->HeadOfAccessList = CFE_TBL_END_OF_LIST;
 677               	.loc 1 326 0
 678 0660 206F 0004 	move.l 4(%sp),%a0
 679 0664 70FF      	moveq #-1,%d0
68K GAS   			page 21


 680 0666 3140 00C4 	move.w %d0,196(%a0)
 327:/home/simulink/cFS_FreeRTOS_seL4/cfe/fsw/cfe-core/src/tbl/cfe_tbl_internal.c ****     RegRecPtr->LoadInProgress =  CFE_TBL_NO_LOAD_IN_PROGRESS;
 681               	.loc 1 327 0
 682 066a 206F 0004 	move.l 4(%sp),%a0
 683 066e 70FF      	moveq #-1,%d0
 684 0670 2140 00C8 	move.l %d0,200(%a0)
 328:/home/simulink/cFS_FreeRTOS_seL4/cfe/fsw/cfe-core/src/tbl/cfe_tbl_internal.c ****     RegRecPtr->ValidateActiveIndex = CFE_TBL_NO_VALIDATION_PENDING;
 685               	.loc 1 328 0
 686 0674 206F 0004 	move.l 4(%sp),%a0
 687 0678 70FF      	moveq #-1,%d0
 688 067a 2140 00CC 	move.l %d0,204(%a0)
 329:/home/simulink/cFS_FreeRTOS_seL4/cfe/fsw/cfe-core/src/tbl/cfe_tbl_internal.c ****     RegRecPtr->ValidateInactiveIndex = CFE_TBL_NO_VALIDATION_PENDING;
 689               	.loc 1 329 0
 690 067e 206F 0004 	move.l 4(%sp),%a0
 691 0682 70FF      	moveq #-1,%d0
 692 0684 2140 00D0 	move.l %d0,208(%a0)
 330:/home/simulink/cFS_FreeRTOS_seL4/cfe/fsw/cfe-core/src/tbl/cfe_tbl_internal.c ****     RegRecPtr->CDSHandle = CFE_ES_CDS_BAD_HANDLE;
 693               	.loc 1 330 0
 694 0688 206F 0004 	move.l 4(%sp),%a0
 695 068c 203C 0000 	move.l #65535,%d0
 695      FFFF 
 696 0692 2140 00D8 	move.l %d0,216(%a0)
 331:/home/simulink/cFS_FreeRTOS_seL4/cfe/fsw/cfe-core/src/tbl/cfe_tbl_internal.c ****     RegRecPtr->CriticalTable = FALSE;
 697               	.loc 1 331 0
 698 0696 206F 0004 	move.l 4(%sp),%a0
 699 069a 4200      	clr.b %d0
 700 069c 1140 00DE 	move.b %d0,222(%a0)
 332:/home/simulink/cFS_FreeRTOS_seL4/cfe/fsw/cfe-core/src/tbl/cfe_tbl_internal.c ****     RegRecPtr->TableLoadedOnce = FALSE;
 701               	.loc 1 332 0
 702 06a0 206F 0004 	move.l 4(%sp),%a0
 703 06a4 4200      	clr.b %d0
 704 06a6 1140 00DF 	move.b %d0,223(%a0)
 333:/home/simulink/cFS_FreeRTOS_seL4/cfe/fsw/cfe-core/src/tbl/cfe_tbl_internal.c ****     RegRecPtr->LoadPending = FALSE;
 705               	.loc 1 333 0
 706 06aa 206F 0004 	move.l 4(%sp),%a0
 707 06ae 4200      	clr.b %d0
 708 06b0 1140 00E0 	move.b %d0,224(%a0)
 334:/home/simulink/cFS_FreeRTOS_seL4/cfe/fsw/cfe-core/src/tbl/cfe_tbl_internal.c ****     RegRecPtr->DumpOnly = FALSE;
 709               	.loc 1 334 0
 710 06b4 206F 0004 	move.l 4(%sp),%a0
 711 06b8 4200      	clr.b %d0
 712 06ba 1140 00E1 	move.b %d0,225(%a0)
 335:/home/simulink/cFS_FreeRTOS_seL4/cfe/fsw/cfe-core/src/tbl/cfe_tbl_internal.c ****     RegRecPtr->DumpControlIndex = CFE_TBL_NO_DUMP_PENDING;
 713               	.loc 1 335 0
 714 06be 206F 0004 	move.l 4(%sp),%a0
 715 06c2 70FF      	moveq #-1,%d0
 716 06c4 2140 00D4 	move.l %d0,212(%a0)
 336:/home/simulink/cFS_FreeRTOS_seL4/cfe/fsw/cfe-core/src/tbl/cfe_tbl_internal.c ****     RegRecPtr->UserDefAddr = FALSE;
 717               	.loc 1 336 0
 718 06c8 206F 0004 	move.l 4(%sp),%a0
 719 06cc 4200      	clr.b %d0
 720 06ce 1140 00E3 	move.b %d0,227(%a0)
 337:/home/simulink/cFS_FreeRTOS_seL4/cfe/fsw/cfe-core/src/tbl/cfe_tbl_internal.c ****     RegRecPtr->DblBuffered = FALSE;
 721               	.loc 1 337 0
 722 06d2 206F 0004 	move.l 4(%sp),%a0
 723 06d6 4200      	clr.b %d0
 724 06d8 1140 00E2 	move.b %d0,226(%a0)
68K GAS   			page 22


 338:/home/simulink/cFS_FreeRTOS_seL4/cfe/fsw/cfe-core/src/tbl/cfe_tbl_internal.c ****     RegRecPtr->NotifyByMsg = FALSE;
 725               	.loc 1 338 0
 726 06dc 206F 0004 	move.l 4(%sp),%a0
 727 06e0 4200      	clr.b %d0
 728 06e2 1140 00E4 	move.b %d0,228(%a0)
 339:/home/simulink/cFS_FreeRTOS_seL4/cfe/fsw/cfe-core/src/tbl/cfe_tbl_internal.c ****     RegRecPtr->ActiveBufferIndex = 0;
 729               	.loc 1 339 0
 730 06e6 206F 0004 	move.l 4(%sp),%a0
 731 06ea 4200      	clr.b %d0
 732 06ec 1140 00E5 	move.b %d0,229(%a0)
 340:/home/simulink/cFS_FreeRTOS_seL4/cfe/fsw/cfe-core/src/tbl/cfe_tbl_internal.c ****     RegRecPtr->Name[0] = '\0';
 733               	.loc 1 340 0
 734 06f0 206F 0004 	move.l 4(%sp),%a0
 735 06f4 4200      	clr.b %d0
 736 06f6 1140 00E6 	move.b %d0,230(%a0)
 341:/home/simulink/cFS_FreeRTOS_seL4/cfe/fsw/cfe-core/src/tbl/cfe_tbl_internal.c ****     RegRecPtr->LastFileLoaded[0] = '\0';
 737               	.loc 1 341 0
 738 06fa 206F 0004 	move.l 4(%sp),%a0
 739 06fe 4200      	clr.b %d0
 740 0700 1140 010E 	move.b %d0,270(%a0)
 342:/home/simulink/cFS_FreeRTOS_seL4/cfe/fsw/cfe-core/src/tbl/cfe_tbl_internal.c **** }
 741               	.loc 1 342 0
 742 0704 4E71      	nop
 743 0706 4E75      	rts
 744               	.cfi_endproc
 745               	.LFE60:
 746               	.sizeCFE_TBL_InitRegistryRecord, .-CFE_TBL_InitRegistryRecord
 747               	.section.rodata
 748               	.LC10:
 749 01da 4346 455F 	.string"CFE_TBL:ValidateHandle-Table Handle=%d is > %d\n"
 749      5442 4C3A 
 749      5661 6C69 
 749      6461 7465 
 749      4861 6E64 
 750               	.LC11:
 751 020a 4346 455F 	.string"CFE_TBL:ValidateHandle-Table Handle=%d is for unused Table Handle\n"
 751      5442 4C3A 
 751      5661 6C69 
 751      6461 7465 
 751      4861 6E64 
 752               	.text
 753               	.align2
 754               	.globlCFE_TBL_ValidateHandle
 755               	.typeCFE_TBL_ValidateHandle, @function
 756               	CFE_TBL_ValidateHandle:
 757               	.LFB61:
 343:/home/simulink/cFS_FreeRTOS_seL4/cfe/fsw/cfe-core/src/tbl/cfe_tbl_internal.c **** 
 344:/home/simulink/cFS_FreeRTOS_seL4/cfe/fsw/cfe-core/src/tbl/cfe_tbl_internal.c **** 
 345:/home/simulink/cFS_FreeRTOS_seL4/cfe/fsw/cfe-core/src/tbl/cfe_tbl_internal.c **** /*******************************************************************
 346:/home/simulink/cFS_FreeRTOS_seL4/cfe/fsw/cfe-core/src/tbl/cfe_tbl_internal.c **** **
 347:/home/simulink/cFS_FreeRTOS_seL4/cfe/fsw/cfe-core/src/tbl/cfe_tbl_internal.c **** ** CFE_TBL_ValidateHandle
 348:/home/simulink/cFS_FreeRTOS_seL4/cfe/fsw/cfe-core/src/tbl/cfe_tbl_internal.c **** **
 349:/home/simulink/cFS_FreeRTOS_seL4/cfe/fsw/cfe-core/src/tbl/cfe_tbl_internal.c **** ** NOTE: For complete prolog information, see 'cfe_tbl_internal.h'
 350:/home/simulink/cFS_FreeRTOS_seL4/cfe/fsw/cfe-core/src/tbl/cfe_tbl_internal.c **** ********************************************************************/
 351:/home/simulink/cFS_FreeRTOS_seL4/cfe/fsw/cfe-core/src/tbl/cfe_tbl_internal.c **** 
 352:/home/simulink/cFS_FreeRTOS_seL4/cfe/fsw/cfe-core/src/tbl/cfe_tbl_internal.c **** 
 353:/home/simulink/cFS_FreeRTOS_seL4/cfe/fsw/cfe-core/src/tbl/cfe_tbl_internal.c **** int32 CFE_TBL_ValidateHandle(CFE_TBL_Handle_t TblHandle)
68K GAS   			page 23


 354:/home/simulink/cFS_FreeRTOS_seL4/cfe/fsw/cfe-core/src/tbl/cfe_tbl_internal.c **** {
 758               	.loc 1 354 0
 759               	.cfi_startproc
 760 0708 518F      	subq.l #8,%sp
 761               	.cfi_def_cfa_offset 12
 762 070a 202F 000C 	move.l 12(%sp),%d0
 763 070e 3000      	move.w %d0,%d0
 764 0710 3E80      	move.w %d0,(%sp)
 355:/home/simulink/cFS_FreeRTOS_seL4/cfe/fsw/cfe-core/src/tbl/cfe_tbl_internal.c ****     int32 Status = CFE_SUCCESS;
 765               	.loc 1 355 0
 766 0712 42AF 0004 	clr.l 4(%sp)
 356:/home/simulink/cFS_FreeRTOS_seL4/cfe/fsw/cfe-core/src/tbl/cfe_tbl_internal.c **** 
 357:/home/simulink/cFS_FreeRTOS_seL4/cfe/fsw/cfe-core/src/tbl/cfe_tbl_internal.c ****     /* Is the handle out of range? */
 358:/home/simulink/cFS_FreeRTOS_seL4/cfe/fsw/cfe-core/src/tbl/cfe_tbl_internal.c ****     if (TblHandle >= CFE_TBL_MAX_NUM_HANDLES)
 767               	.loc 1 358 0
 768 0716 3057      	move.w (%sp),%a0
 769 0718 B1FC 0000 	cmp.l #255,%a0
 769      00FF 
 770 071e 6F24      	jle .L25
 359:/home/simulink/cFS_FreeRTOS_seL4/cfe/fsw/cfe-core/src/tbl/cfe_tbl_internal.c ****     {
 360:/home/simulink/cFS_FreeRTOS_seL4/cfe/fsw/cfe-core/src/tbl/cfe_tbl_internal.c ****         Status = CFE_TBL_ERR_INVALID_HANDLE;
 771               	.loc 1 360 0
 772 0720 203C CC00 	move.l #-872415231,%d0
 772      0001 
 773 0726 2F40 0004 	move.l %d0,4(%sp)
 361:/home/simulink/cFS_FreeRTOS_seL4/cfe/fsw/cfe-core/src/tbl/cfe_tbl_internal.c **** 
 362:/home/simulink/cFS_FreeRTOS_seL4/cfe/fsw/cfe-core/src/tbl/cfe_tbl_internal.c ****         CFE_ES_WriteToSysLog("CFE_TBL:ValidateHandle-Table Handle=%d is > %d\n", TblHandle, CFE_TBL
 774               	.loc 1 362 0
 775 072a 3057      	move.w (%sp),%a0
 776 072c 4878 0100 	pea 256.w
 777               	.cfi_def_cfa_offset 16
 778 0730 2F08      	move.l %a0,-(%sp)
 779               	.cfi_def_cfa_offset 20
 780 0732 4879 0000 	pea .LC10
 780      0000 
 781               	.cfi_def_cfa_offset 24
 782 0738 4EB9 0000 	jsr CFE_ES_WriteToSysLog
 782      0000 
 783 073e 4FEF 000C 	lea (12,%sp),%sp
 784               	.cfi_def_cfa_offset 12
 785 0742 6030      	jra .L26
 786               	.L25:
 363:/home/simulink/cFS_FreeRTOS_seL4/cfe/fsw/cfe-core/src/tbl/cfe_tbl_internal.c ****     }
 364:/home/simulink/cFS_FreeRTOS_seL4/cfe/fsw/cfe-core/src/tbl/cfe_tbl_internal.c ****     else
 365:/home/simulink/cFS_FreeRTOS_seL4/cfe/fsw/cfe-core/src/tbl/cfe_tbl_internal.c ****     {
 366:/home/simulink/cFS_FreeRTOS_seL4/cfe/fsw/cfe-core/src/tbl/cfe_tbl_internal.c ****         /* Check to see if the Handle is no longer valid for this Table */
 367:/home/simulink/cFS_FreeRTOS_seL4/cfe/fsw/cfe-core/src/tbl/cfe_tbl_internal.c ****         if (CFE_TBL_TaskData.Handles[TblHandle].UsedFlag == FALSE)
 787               	.loc 1 367 0
 788 0744 3017      	move.w (%sp),%d0
 789 0746 48C0      	ext.l %d0
 790 0748 E988      	lsl.l #4,%d0
 791 074a 41F9 0000 	lea CFE_TBL_TaskData+886,%a0
 791      0000 
 792 0750 1030 0800 	move.b (%a0,%d0.l),%d0
 793 0754 4A00      	tst.b %d0
 794 0756 661C      	jne .L26
 368:/home/simulink/cFS_FreeRTOS_seL4/cfe/fsw/cfe-core/src/tbl/cfe_tbl_internal.c ****         {
68K GAS   			page 24


 369:/home/simulink/cFS_FreeRTOS_seL4/cfe/fsw/cfe-core/src/tbl/cfe_tbl_internal.c ****             Status = CFE_TBL_ERR_INVALID_HANDLE;
 795               	.loc 1 369 0
 796 0758 203C CC00 	move.l #-872415231,%d0
 796      0001 
 797 075e 2F40 0004 	move.l %d0,4(%sp)
 370:/home/simulink/cFS_FreeRTOS_seL4/cfe/fsw/cfe-core/src/tbl/cfe_tbl_internal.c **** 
 371:/home/simulink/cFS_FreeRTOS_seL4/cfe/fsw/cfe-core/src/tbl/cfe_tbl_internal.c ****             CFE_ES_WriteToSysLog("CFE_TBL:ValidateHandle-Table Handle=%d is for unused Table Handle
 798               	.loc 1 371 0
 799 0762 3057      	move.w (%sp),%a0
 800 0764 2F08      	move.l %a0,-(%sp)
 801               	.cfi_def_cfa_offset 16
 802 0766 4879 0000 	pea .LC11
 802      0000 
 803               	.cfi_def_cfa_offset 20
 804 076c 4EB9 0000 	jsr CFE_ES_WriteToSysLog
 804      0000 
 805 0772 508F      	addq.l #8,%sp
 806               	.cfi_def_cfa_offset 12
 807               	.L26:
 372:/home/simulink/cFS_FreeRTOS_seL4/cfe/fsw/cfe-core/src/tbl/cfe_tbl_internal.c ****         }
 373:/home/simulink/cFS_FreeRTOS_seL4/cfe/fsw/cfe-core/src/tbl/cfe_tbl_internal.c ****     }
 374:/home/simulink/cFS_FreeRTOS_seL4/cfe/fsw/cfe-core/src/tbl/cfe_tbl_internal.c ****     return Status;
 808               	.loc 1 374 0
 809 0774 202F 0004 	move.l 4(%sp),%d0
 375:/home/simulink/cFS_FreeRTOS_seL4/cfe/fsw/cfe-core/src/tbl/cfe_tbl_internal.c **** }   /* End of CFE_TBL_ValidateHandle() */
 810               	.loc 1 375 0
 811 0778 508F      	addq.l #8,%sp
 812 077a 4E75      	rts
 813               	.cfi_endproc
 814               	.LFE61:
 815               	.sizeCFE_TBL_ValidateHandle, .-CFE_TBL_ValidateHandle
 816               	.section.rodata
 817               	.LC12:
 818 024d 4346 455F 	.string"CFE_TBL:ValidateAppID-AppId=%d > Max Apps (%d)\n"
 818      5442 4C3A 
 818      5661 6C69 
 818      6461 7465 
 818      4170 7049 
 819               	.LC13:
 820 027d 4346 455F 	.string"CFE_TBL:ValidateAppID-GetAppID failed (Stat=0x%08X)\n"
 820      5442 4C3A 
 820      5661 6C69 
 820      6461 7465 
 820      4170 7049 
 821               	.text
 822               	.align2
 823               	.globlCFE_TBL_ValidateAppID
 824               	.typeCFE_TBL_ValidateAppID, @function
 825               	CFE_TBL_ValidateAppID:
 826               	.LFB62:
 376:/home/simulink/cFS_FreeRTOS_seL4/cfe/fsw/cfe-core/src/tbl/cfe_tbl_internal.c **** 
 377:/home/simulink/cFS_FreeRTOS_seL4/cfe/fsw/cfe-core/src/tbl/cfe_tbl_internal.c **** /*******************************************************************
 378:/home/simulink/cFS_FreeRTOS_seL4/cfe/fsw/cfe-core/src/tbl/cfe_tbl_internal.c **** **
 379:/home/simulink/cFS_FreeRTOS_seL4/cfe/fsw/cfe-core/src/tbl/cfe_tbl_internal.c **** ** CFE_TBL_ValidateAppID
 380:/home/simulink/cFS_FreeRTOS_seL4/cfe/fsw/cfe-core/src/tbl/cfe_tbl_internal.c **** **
 381:/home/simulink/cFS_FreeRTOS_seL4/cfe/fsw/cfe-core/src/tbl/cfe_tbl_internal.c **** ** NOTE: For complete prolog information, see 'cfe_tbl_internal.h'
 382:/home/simulink/cFS_FreeRTOS_seL4/cfe/fsw/cfe-core/src/tbl/cfe_tbl_internal.c **** ********************************************************************/
68K GAS   			page 25


 383:/home/simulink/cFS_FreeRTOS_seL4/cfe/fsw/cfe-core/src/tbl/cfe_tbl_internal.c **** 
 384:/home/simulink/cFS_FreeRTOS_seL4/cfe/fsw/cfe-core/src/tbl/cfe_tbl_internal.c **** int32 CFE_TBL_ValidateAppID(uint32 *AppIdPtr)
 385:/home/simulink/cFS_FreeRTOS_seL4/cfe/fsw/cfe-core/src/tbl/cfe_tbl_internal.c **** {
 827               	.loc 1 385 0
 828               	.cfi_startproc
 829 077c 598F      	subq.l #4,%sp
 830               	.cfi_def_cfa_offset 8
 386:/home/simulink/cFS_FreeRTOS_seL4/cfe/fsw/cfe-core/src/tbl/cfe_tbl_internal.c ****     int32 Status = CFE_ES_GetAppID(AppIdPtr);
 831               	.loc 1 386 0
 832 077e 2F2F 0008 	move.l 8(%sp),-(%sp)
 833               	.cfi_def_cfa_offset 12
 834 0782 4EB9 0000 	jsr CFE_ES_GetAppID
 834      0000 
 835 0788 588F      	addq.l #4,%sp
 836               	.cfi_def_cfa_offset 8
 837 078a 2E80      	move.l %d0,(%sp)
 387:/home/simulink/cFS_FreeRTOS_seL4/cfe/fsw/cfe-core/src/tbl/cfe_tbl_internal.c **** 
 388:/home/simulink/cFS_FreeRTOS_seL4/cfe/fsw/cfe-core/src/tbl/cfe_tbl_internal.c ****     if (Status == CFE_SUCCESS)
 838               	.loc 1 388 0
 839 078c 4A97      	tst.l (%sp)
 840 078e 6630      	jne .L29
 389:/home/simulink/cFS_FreeRTOS_seL4/cfe/fsw/cfe-core/src/tbl/cfe_tbl_internal.c ****     {
 390:/home/simulink/cFS_FreeRTOS_seL4/cfe/fsw/cfe-core/src/tbl/cfe_tbl_internal.c ****         if (*AppIdPtr >= CFE_ES_MAX_APPLICATIONS)
 841               	.loc 1 390 0
 842 0790 206F 0008 	move.l 8(%sp),%a0
 843 0794 2010      	move.l (%a0),%d0
 844 0796 721F      	moveq #31,%d1
 845 0798 B280      	cmp.l %d0,%d1
 846 079a 6436      	jcc .L31
 391:/home/simulink/cFS_FreeRTOS_seL4/cfe/fsw/cfe-core/src/tbl/cfe_tbl_internal.c ****         {
 392:/home/simulink/cFS_FreeRTOS_seL4/cfe/fsw/cfe-core/src/tbl/cfe_tbl_internal.c ****             Status = CFE_TBL_ERR_BAD_APP_ID;
 847               	.loc 1 392 0
 848 079c 2EBC CC00 	move.l #-872415222,(%sp)
 848      000A 
 393:/home/simulink/cFS_FreeRTOS_seL4/cfe/fsw/cfe-core/src/tbl/cfe_tbl_internal.c **** 
 394:/home/simulink/cFS_FreeRTOS_seL4/cfe/fsw/cfe-core/src/tbl/cfe_tbl_internal.c ****             CFE_ES_WriteToSysLog("CFE_TBL:ValidateAppID-AppId=%d > Max Apps (%d)\n",
 395:/home/simulink/cFS_FreeRTOS_seL4/cfe/fsw/cfe-core/src/tbl/cfe_tbl_internal.c ****                                  (int)(*AppIdPtr), CFE_ES_MAX_APPLICATIONS);
 849               	.loc 1 395 0
 850 07a2 206F 0008 	move.l 8(%sp),%a0
 851 07a6 2010      	move.l (%a0),%d0
 394:/home/simulink/cFS_FreeRTOS_seL4/cfe/fsw/cfe-core/src/tbl/cfe_tbl_internal.c ****                                  (int)(*AppIdPtr), CFE_ES_MAX_APPLICATIONS);
 852               	.loc 1 394 0
 853 07a8 4878 0020 	pea 32.w
 854               	.cfi_def_cfa_offset 12
 855 07ac 2F00      	move.l %d0,-(%sp)
 856               	.cfi_def_cfa_offset 16
 857 07ae 4879 0000 	pea .LC12
 857      0000 
 858               	.cfi_def_cfa_offset 20
 859 07b4 4EB9 0000 	jsr CFE_ES_WriteToSysLog
 859      0000 
 860 07ba 4FEF 000C 	lea (12,%sp),%sp
 861               	.cfi_def_cfa_offset 8
 862 07be 6012      	jra .L31
 863               	.L29:
 396:/home/simulink/cFS_FreeRTOS_seL4/cfe/fsw/cfe-core/src/tbl/cfe_tbl_internal.c ****         }
 397:/home/simulink/cFS_FreeRTOS_seL4/cfe/fsw/cfe-core/src/tbl/cfe_tbl_internal.c ****     }
68K GAS   			page 26


 398:/home/simulink/cFS_FreeRTOS_seL4/cfe/fsw/cfe-core/src/tbl/cfe_tbl_internal.c ****     else
 399:/home/simulink/cFS_FreeRTOS_seL4/cfe/fsw/cfe-core/src/tbl/cfe_tbl_internal.c ****     {
 400:/home/simulink/cFS_FreeRTOS_seL4/cfe/fsw/cfe-core/src/tbl/cfe_tbl_internal.c ****         CFE_ES_WriteToSysLog("CFE_TBL:ValidateAppID-GetAppID failed (Stat=0x%08X)\n", (unsigned int
 864               	.loc 1 400 0
 865 07c0 2017      	move.l (%sp),%d0
 866 07c2 2F00      	move.l %d0,-(%sp)
 867               	.cfi_def_cfa_offset 12
 868 07c4 4879 0000 	pea .LC13
 868      0000 
 869               	.cfi_def_cfa_offset 16
 870 07ca 4EB9 0000 	jsr CFE_ES_WriteToSysLog
 870      0000 
 871 07d0 508F      	addq.l #8,%sp
 872               	.cfi_def_cfa_offset 8
 873               	.L31:
 401:/home/simulink/cFS_FreeRTOS_seL4/cfe/fsw/cfe-core/src/tbl/cfe_tbl_internal.c ****     }
 402:/home/simulink/cFS_FreeRTOS_seL4/cfe/fsw/cfe-core/src/tbl/cfe_tbl_internal.c **** 
 403:/home/simulink/cFS_FreeRTOS_seL4/cfe/fsw/cfe-core/src/tbl/cfe_tbl_internal.c ****     return Status;
 874               	.loc 1 403 0
 875 07d2 2017      	move.l (%sp),%d0
 404:/home/simulink/cFS_FreeRTOS_seL4/cfe/fsw/cfe-core/src/tbl/cfe_tbl_internal.c **** }   /* End of CFE_TBL_ValidateAppID() */
 876               	.loc 1 404 0
 877 07d4 588F      	addq.l #4,%sp
 878 07d6 4E75      	rts
 879               	.cfi_endproc
 880               	.LFE62:
 881               	.sizeCFE_TBL_ValidateAppID, .-CFE_TBL_ValidateAppID
 882               	.section.rodata
 883               	.LC14:
 884 02b2 4346 455F 	.string"CFE_TBL:ValidateAccess-App(%d) no access to Tbl Handle=%d (Stat=0x%08X)\n"
 884      5442 4C3A 
 884      5661 6C69 
 884      6461 7465 
 884      4163 6365 
 885               	.LC15:
 886 02fb 4346 455F 	.string"CFE_TBL:ValidateAccess-Invalid Tbl Handle=%d\n"
 886      5442 4C3A 
 886      5661 6C69 
 886      6461 7465 
 886      4163 6365 
 887               	.LC16:
 888 0329 4346 455F 	.string"CFE_TBL:ValidateAccess-Bad AppId=%d\n"
 888      5442 4C3A 
 888      5661 6C69 
 888      6461 7465 
 888      4163 6365 
 889               	.text
 890               	.align2
 891               	.globlCFE_TBL_ValidateAccess
 892               	.typeCFE_TBL_ValidateAccess, @function
 893               	CFE_TBL_ValidateAccess:
 894               	.LFB63:
 405:/home/simulink/cFS_FreeRTOS_seL4/cfe/fsw/cfe-core/src/tbl/cfe_tbl_internal.c **** 
 406:/home/simulink/cFS_FreeRTOS_seL4/cfe/fsw/cfe-core/src/tbl/cfe_tbl_internal.c **** /*******************************************************************
 407:/home/simulink/cFS_FreeRTOS_seL4/cfe/fsw/cfe-core/src/tbl/cfe_tbl_internal.c **** **
 408:/home/simulink/cFS_FreeRTOS_seL4/cfe/fsw/cfe-core/src/tbl/cfe_tbl_internal.c **** ** CFE_TBL_ValidateAccess
 409:/home/simulink/cFS_FreeRTOS_seL4/cfe/fsw/cfe-core/src/tbl/cfe_tbl_internal.c **** **
68K GAS   			page 27


 410:/home/simulink/cFS_FreeRTOS_seL4/cfe/fsw/cfe-core/src/tbl/cfe_tbl_internal.c **** ** NOTE: For complete prolog information, see 'cfe_tbl_internal.h'
 411:/home/simulink/cFS_FreeRTOS_seL4/cfe/fsw/cfe-core/src/tbl/cfe_tbl_internal.c **** ********************************************************************/
 412:/home/simulink/cFS_FreeRTOS_seL4/cfe/fsw/cfe-core/src/tbl/cfe_tbl_internal.c **** 
 413:/home/simulink/cFS_FreeRTOS_seL4/cfe/fsw/cfe-core/src/tbl/cfe_tbl_internal.c **** int32 CFE_TBL_ValidateAccess(CFE_TBL_Handle_t TblHandle, uint32 *AppIdPtr)
 414:/home/simulink/cFS_FreeRTOS_seL4/cfe/fsw/cfe-core/src/tbl/cfe_tbl_internal.c **** {
 895               	.loc 1 414 0
 896               	.cfi_startproc
 897 07d8 518F      	subq.l #8,%sp
 898               	.cfi_def_cfa_offset 12
 899 07da 202F 000C 	move.l 12(%sp),%d0
 900 07de 3000      	move.w %d0,%d0
 901 07e0 3E80      	move.w %d0,(%sp)
 415:/home/simulink/cFS_FreeRTOS_seL4/cfe/fsw/cfe-core/src/tbl/cfe_tbl_internal.c ****     int32 Status = CFE_SUCCESS;
 902               	.loc 1 415 0
 903 07e2 42AF 0004 	clr.l 4(%sp)
 416:/home/simulink/cFS_FreeRTOS_seL4/cfe/fsw/cfe-core/src/tbl/cfe_tbl_internal.c **** 
 417:/home/simulink/cFS_FreeRTOS_seL4/cfe/fsw/cfe-core/src/tbl/cfe_tbl_internal.c ****     /* Check to make sure App ID is legit */
 418:/home/simulink/cFS_FreeRTOS_seL4/cfe/fsw/cfe-core/src/tbl/cfe_tbl_internal.c ****     Status = CFE_TBL_ValidateAppID(AppIdPtr);
 904               	.loc 1 418 0
 905 07e6 2F2F 0010 	move.l 16(%sp),-(%sp)
 906               	.cfi_def_cfa_offset 16
 907 07ea 4EB9 0000 	jsr CFE_TBL_ValidateAppID
 907      0000 
 908 07f0 588F      	addq.l #4,%sp
 909               	.cfi_def_cfa_offset 12
 910 07f2 2F40 0004 	move.l %d0,4(%sp)
 419:/home/simulink/cFS_FreeRTOS_seL4/cfe/fsw/cfe-core/src/tbl/cfe_tbl_internal.c **** 
 420:/home/simulink/cFS_FreeRTOS_seL4/cfe/fsw/cfe-core/src/tbl/cfe_tbl_internal.c ****     if (Status == CFE_SUCCESS)
 911               	.loc 1 420 0
 912 07f6 4AAF 0004 	tst.l 4(%sp)
 913 07fa 666C      	jne .L34
 421:/home/simulink/cFS_FreeRTOS_seL4/cfe/fsw/cfe-core/src/tbl/cfe_tbl_internal.c ****     {
 422:/home/simulink/cFS_FreeRTOS_seL4/cfe/fsw/cfe-core/src/tbl/cfe_tbl_internal.c ****         /* Check table handle validity */
 423:/home/simulink/cFS_FreeRTOS_seL4/cfe/fsw/cfe-core/src/tbl/cfe_tbl_internal.c ****         Status = CFE_TBL_ValidateHandle(TblHandle);
 914               	.loc 1 423 0
 915 07fc 3057      	move.w (%sp),%a0
 916 07fe 2F08      	move.l %a0,-(%sp)
 917               	.cfi_def_cfa_offset 16
 918 0800 4EB9 0000 	jsr CFE_TBL_ValidateHandle
 918      0000 
 919 0806 588F      	addq.l #4,%sp
 920               	.cfi_def_cfa_offset 12
 921 0808 2F40 0004 	move.l %d0,4(%sp)
 424:/home/simulink/cFS_FreeRTOS_seL4/cfe/fsw/cfe-core/src/tbl/cfe_tbl_internal.c **** 
 425:/home/simulink/cFS_FreeRTOS_seL4/cfe/fsw/cfe-core/src/tbl/cfe_tbl_internal.c ****         if (Status == CFE_SUCCESS)
 922               	.loc 1 425 0
 923 080c 4AAF 0004 	tst.l 4(%sp)
 924 0810 6642      	jne .L35
 426:/home/simulink/cFS_FreeRTOS_seL4/cfe/fsw/cfe-core/src/tbl/cfe_tbl_internal.c ****         {
 427:/home/simulink/cFS_FreeRTOS_seL4/cfe/fsw/cfe-core/src/tbl/cfe_tbl_internal.c ****             Status = CFE_TBL_CheckAccessRights(TblHandle, *AppIdPtr);
 925               	.loc 1 427 0
 926 0812 206F 0010 	move.l 16(%sp),%a0
 927 0816 2010      	move.l (%a0),%d0
 928 0818 3057      	move.w (%sp),%a0
 929 081a 2F00      	move.l %d0,-(%sp)
 930               	.cfi_def_cfa_offset 16
 931 081c 2F08      	move.l %a0,-(%sp)
68K GAS   			page 28


 932               	.cfi_def_cfa_offset 20
 933 081e 4EB9 0000 	jsr CFE_TBL_CheckAccessRights
 933      0000 
 934 0824 508F      	addq.l #8,%sp
 935               	.cfi_def_cfa_offset 12
 936 0826 2F40 0004 	move.l %d0,4(%sp)
 428:/home/simulink/cFS_FreeRTOS_seL4/cfe/fsw/cfe-core/src/tbl/cfe_tbl_internal.c **** 
 429:/home/simulink/cFS_FreeRTOS_seL4/cfe/fsw/cfe-core/src/tbl/cfe_tbl_internal.c ****             if (Status != CFE_SUCCESS)
 937               	.loc 1 429 0
 938 082a 4AAF 0004 	tst.l 4(%sp)
 939 082e 674E      	jeq .L38
 430:/home/simulink/cFS_FreeRTOS_seL4/cfe/fsw/cfe-core/src/tbl/cfe_tbl_internal.c ****             {
 431:/home/simulink/cFS_FreeRTOS_seL4/cfe/fsw/cfe-core/src/tbl/cfe_tbl_internal.c ****                 CFE_ES_WriteToSysLog("CFE_TBL:ValidateAccess-App(%d) no access to Tbl Handle=%d (St
 940               	.loc 1 431 0
 941 0830 222F 0004 	move.l 4(%sp),%d1
 942 0834 3057      	move.w (%sp),%a0
 432:/home/simulink/cFS_FreeRTOS_seL4/cfe/fsw/cfe-core/src/tbl/cfe_tbl_internal.c ****                                      (int)(*AppIdPtr), (int)TblHandle, (unsigned int)Status);
 943               	.loc 1 432 0
 944 0836 226F 0010 	move.l 16(%sp),%a1
 945 083a 2011      	move.l (%a1),%d0
 431:/home/simulink/cFS_FreeRTOS_seL4/cfe/fsw/cfe-core/src/tbl/cfe_tbl_internal.c ****                                      (int)(*AppIdPtr), (int)TblHandle, (unsigned int)Status);
 946               	.loc 1 431 0
 947 083c 2F01      	move.l %d1,-(%sp)
 948               	.cfi_def_cfa_offset 16
 949 083e 2F08      	move.l %a0,-(%sp)
 950               	.cfi_def_cfa_offset 20
 951 0840 2F00      	move.l %d0,-(%sp)
 952               	.cfi_def_cfa_offset 24
 953 0842 4879 0000 	pea .LC14
 953      0000 
 954               	.cfi_def_cfa_offset 28
 955 0848 4EB9 0000 	jsr CFE_ES_WriteToSysLog
 955      0000 
 956 084e 4FEF 0010 	lea (16,%sp),%sp
 957               	.cfi_def_cfa_offset 12
 958 0852 602A      	jra .L38
 959               	.L35:
 433:/home/simulink/cFS_FreeRTOS_seL4/cfe/fsw/cfe-core/src/tbl/cfe_tbl_internal.c ****             }
 434:/home/simulink/cFS_FreeRTOS_seL4/cfe/fsw/cfe-core/src/tbl/cfe_tbl_internal.c ****         }
 435:/home/simulink/cFS_FreeRTOS_seL4/cfe/fsw/cfe-core/src/tbl/cfe_tbl_internal.c ****         else
 436:/home/simulink/cFS_FreeRTOS_seL4/cfe/fsw/cfe-core/src/tbl/cfe_tbl_internal.c ****         {
 437:/home/simulink/cFS_FreeRTOS_seL4/cfe/fsw/cfe-core/src/tbl/cfe_tbl_internal.c ****             CFE_ES_WriteToSysLog("CFE_TBL:ValidateAccess-Invalid Tbl Handle=%d\n", (int)TblHandle);
 960               	.loc 1 437 0
 961 0854 3057      	move.w (%sp),%a0
 962 0856 2F08      	move.l %a0,-(%sp)
 963               	.cfi_def_cfa_offset 16
 964 0858 4879 0000 	pea .LC15
 964      0000 
 965               	.cfi_def_cfa_offset 20
 966 085e 4EB9 0000 	jsr CFE_ES_WriteToSysLog
 966      0000 
 967 0864 508F      	addq.l #8,%sp
 968               	.cfi_def_cfa_offset 12
 969 0866 6016      	jra .L38
 970               	.L34:
 438:/home/simulink/cFS_FreeRTOS_seL4/cfe/fsw/cfe-core/src/tbl/cfe_tbl_internal.c ****         }
 439:/home/simulink/cFS_FreeRTOS_seL4/cfe/fsw/cfe-core/src/tbl/cfe_tbl_internal.c ****     }
68K GAS   			page 29


 440:/home/simulink/cFS_FreeRTOS_seL4/cfe/fsw/cfe-core/src/tbl/cfe_tbl_internal.c ****     else
 441:/home/simulink/cFS_FreeRTOS_seL4/cfe/fsw/cfe-core/src/tbl/cfe_tbl_internal.c ****     {
 442:/home/simulink/cFS_FreeRTOS_seL4/cfe/fsw/cfe-core/src/tbl/cfe_tbl_internal.c ****         CFE_ES_WriteToSysLog("CFE_TBL:ValidateAccess-Bad AppId=%d\n", (int)(*AppIdPtr));
 971               	.loc 1 442 0
 972 0868 206F 0010 	move.l 16(%sp),%a0
 973 086c 2010      	move.l (%a0),%d0
 974 086e 2F00      	move.l %d0,-(%sp)
 975               	.cfi_def_cfa_offset 16
 976 0870 4879 0000 	pea .LC16
 976      0000 
 977               	.cfi_def_cfa_offset 20
 978 0876 4EB9 0000 	jsr CFE_ES_WriteToSysLog
 978      0000 
 979 087c 508F      	addq.l #8,%sp
 980               	.cfi_def_cfa_offset 12
 981               	.L38:
 443:/home/simulink/cFS_FreeRTOS_seL4/cfe/fsw/cfe-core/src/tbl/cfe_tbl_internal.c ****     }
 444:/home/simulink/cFS_FreeRTOS_seL4/cfe/fsw/cfe-core/src/tbl/cfe_tbl_internal.c **** 
 445:/home/simulink/cFS_FreeRTOS_seL4/cfe/fsw/cfe-core/src/tbl/cfe_tbl_internal.c ****     return Status;
 982               	.loc 1 445 0
 983 087e 202F 0004 	move.l 4(%sp),%d0
 446:/home/simulink/cFS_FreeRTOS_seL4/cfe/fsw/cfe-core/src/tbl/cfe_tbl_internal.c **** }   /* End of CFE_TBL_ValidateAccess() */
 984               	.loc 1 446 0
 985 0882 508F      	addq.l #8,%sp
 986 0884 4E75      	rts
 987               	.cfi_endproc
 988               	.LFE63:
 989               	.sizeCFE_TBL_ValidateAccess, .-CFE_TBL_ValidateAccess
 990               	.align2
 991               	.globlCFE_TBL_CheckAccessRights
 992               	.typeCFE_TBL_CheckAccessRights, @function
 993               	CFE_TBL_CheckAccessRights:
 994               	.LFB64:
 447:/home/simulink/cFS_FreeRTOS_seL4/cfe/fsw/cfe-core/src/tbl/cfe_tbl_internal.c **** 
 448:/home/simulink/cFS_FreeRTOS_seL4/cfe/fsw/cfe-core/src/tbl/cfe_tbl_internal.c **** 
 449:/home/simulink/cFS_FreeRTOS_seL4/cfe/fsw/cfe-core/src/tbl/cfe_tbl_internal.c **** /*******************************************************************
 450:/home/simulink/cFS_FreeRTOS_seL4/cfe/fsw/cfe-core/src/tbl/cfe_tbl_internal.c **** **
 451:/home/simulink/cFS_FreeRTOS_seL4/cfe/fsw/cfe-core/src/tbl/cfe_tbl_internal.c **** ** CFE_TBL_CheckAccessRights
 452:/home/simulink/cFS_FreeRTOS_seL4/cfe/fsw/cfe-core/src/tbl/cfe_tbl_internal.c **** **
 453:/home/simulink/cFS_FreeRTOS_seL4/cfe/fsw/cfe-core/src/tbl/cfe_tbl_internal.c **** ** NOTE: For complete prolog information, see 'cfe_tbl_internal.h'
 454:/home/simulink/cFS_FreeRTOS_seL4/cfe/fsw/cfe-core/src/tbl/cfe_tbl_internal.c **** ********************************************************************/
 455:/home/simulink/cFS_FreeRTOS_seL4/cfe/fsw/cfe-core/src/tbl/cfe_tbl_internal.c **** 
 456:/home/simulink/cFS_FreeRTOS_seL4/cfe/fsw/cfe-core/src/tbl/cfe_tbl_internal.c **** int32 CFE_TBL_CheckAccessRights(CFE_TBL_Handle_t TblHandle, uint32 ThisAppId)
 457:/home/simulink/cFS_FreeRTOS_seL4/cfe/fsw/cfe-core/src/tbl/cfe_tbl_internal.c **** {
 995               	.loc 1 457 0
 996               	.cfi_startproc
 997 0886 518F      	subq.l #8,%sp
 998               	.cfi_def_cfa_offset 12
 999 0888 202F 000C 	move.l 12(%sp),%d0
 1000 088c 3000      	move.w %d0,%d0
 1001 088e 3E80      	move.w %d0,(%sp)
 458:/home/simulink/cFS_FreeRTOS_seL4/cfe/fsw/cfe-core/src/tbl/cfe_tbl_internal.c ****     int32 Status = CFE_SUCCESS;
 1002               	.loc 1 458 0
 1003 0890 42AF 0004 	clr.l 4(%sp)
 459:/home/simulink/cFS_FreeRTOS_seL4/cfe/fsw/cfe-core/src/tbl/cfe_tbl_internal.c **** 
 460:/home/simulink/cFS_FreeRTOS_seL4/cfe/fsw/cfe-core/src/tbl/cfe_tbl_internal.c ****     if (ThisAppId != CFE_TBL_TaskData.Handles[TblHandle].AppId)
 1004               	.loc 1 460 0
68K GAS   			page 30


 1005 0894 3017      	move.w (%sp),%d0
 1006 0896 48C0      	ext.l %d0
 1007 0898 E988      	lsl.l #4,%d0
 1008 089a 41F9 0000 	lea CFE_TBL_TaskData+876,%a0
 1008      0000 
 1009 08a0 2030 0800 	move.l (%a0,%d0.l),%d0
 1010 08a4 B0AF 0010 	cmp.l 16(%sp),%d0
 1011 08a8 6716      	jeq .L41
 461:/home/simulink/cFS_FreeRTOS_seL4/cfe/fsw/cfe-core/src/tbl/cfe_tbl_internal.c ****     {
 462:/home/simulink/cFS_FreeRTOS_seL4/cfe/fsw/cfe-core/src/tbl/cfe_tbl_internal.c ****         /* The Table Service Task always has access rights so that tables */
 463:/home/simulink/cFS_FreeRTOS_seL4/cfe/fsw/cfe-core/src/tbl/cfe_tbl_internal.c ****         /* can be manipulated via ground command                          */
 464:/home/simulink/cFS_FreeRTOS_seL4/cfe/fsw/cfe-core/src/tbl/cfe_tbl_internal.c ****         if (ThisAppId != CFE_TBL_TaskData.TableTaskAppId)
 1012               	.loc 1 464 0
 1013 08aa 2039 0000 	move.l CFE_TBL_TaskData+520,%d0
 1013      0000 
 1014 08b0 B0AF 0010 	cmp.l 16(%sp),%d0
 1015 08b4 670A      	jeq .L41
 465:/home/simulink/cFS_FreeRTOS_seL4/cfe/fsw/cfe-core/src/tbl/cfe_tbl_internal.c ****         {
 466:/home/simulink/cFS_FreeRTOS_seL4/cfe/fsw/cfe-core/src/tbl/cfe_tbl_internal.c ****             Status = CFE_TBL_ERR_NO_ACCESS;
 1016               	.loc 1 466 0
 1017 08b6 203C CC00 	move.l #-872415224,%d0
 1017      0008 
 1018 08bc 2F40 0004 	move.l %d0,4(%sp)
 1019               	.L41:
 467:/home/simulink/cFS_FreeRTOS_seL4/cfe/fsw/cfe-core/src/tbl/cfe_tbl_internal.c ****         }
 468:/home/simulink/cFS_FreeRTOS_seL4/cfe/fsw/cfe-core/src/tbl/cfe_tbl_internal.c ****     }
 469:/home/simulink/cFS_FreeRTOS_seL4/cfe/fsw/cfe-core/src/tbl/cfe_tbl_internal.c **** 
 470:/home/simulink/cFS_FreeRTOS_seL4/cfe/fsw/cfe-core/src/tbl/cfe_tbl_internal.c ****     return Status;
 1020               	.loc 1 470 0
 1021 08c0 202F 0004 	move.l 4(%sp),%d0
 471:/home/simulink/cFS_FreeRTOS_seL4/cfe/fsw/cfe-core/src/tbl/cfe_tbl_internal.c **** }
 1022               	.loc 1 471 0
 1023 08c4 508F      	addq.l #8,%sp
 1024 08c6 4E75      	rts
 1025               	.cfi_endproc
 1026               	.LFE64:
 1027               	.sizeCFE_TBL_CheckAccessRights, .-CFE_TBL_CheckAccessRights
 1028               	.section.rodata
 1029               	.LC17:
 1030 034e 4346 455F 	.string"CFE_TBL:RemoveAccessLink-PutPoolBuf[0] Fail Stat=0x%08X, Hndl=0x%08lX, Buf=0x%08lX\n"
 1030      5442 4C3A 
 1030      5265 6D6F 
 1030      7665 4163 
 1030      6365 7373 
 1031               	.LC18:
 1032 03a2 4346 455F 	.string"CFE_TBL:RemoveAccessLink-PutPoolBuf[1] Fail Stat=0x%08X, Hndl=0x%08lX, Buf=0x%08lX\n"
 1032      5442 4C3A 
 1032      5265 6D6F 
 1032      7665 4163 
 1032      6365 7373 
 1033               	.text
 1034               	.align2
 1035               	.globlCFE_TBL_RemoveAccessLink
 1036               	.typeCFE_TBL_RemoveAccessLink, @function
 1037               	CFE_TBL_RemoveAccessLink:
 1038               	.LFB65:
 472:/home/simulink/cFS_FreeRTOS_seL4/cfe/fsw/cfe-core/src/tbl/cfe_tbl_internal.c **** 
68K GAS   			page 31


 473:/home/simulink/cFS_FreeRTOS_seL4/cfe/fsw/cfe-core/src/tbl/cfe_tbl_internal.c **** /*******************************************************************
 474:/home/simulink/cFS_FreeRTOS_seL4/cfe/fsw/cfe-core/src/tbl/cfe_tbl_internal.c **** **
 475:/home/simulink/cFS_FreeRTOS_seL4/cfe/fsw/cfe-core/src/tbl/cfe_tbl_internal.c **** ** CFE_TBL_RemoveAccessLink
 476:/home/simulink/cFS_FreeRTOS_seL4/cfe/fsw/cfe-core/src/tbl/cfe_tbl_internal.c **** **
 477:/home/simulink/cFS_FreeRTOS_seL4/cfe/fsw/cfe-core/src/tbl/cfe_tbl_internal.c **** ** NOTE: For complete prolog information, see 'cfe_tbl_internal.h'
 478:/home/simulink/cFS_FreeRTOS_seL4/cfe/fsw/cfe-core/src/tbl/cfe_tbl_internal.c **** ********************************************************************/
 479:/home/simulink/cFS_FreeRTOS_seL4/cfe/fsw/cfe-core/src/tbl/cfe_tbl_internal.c **** 
 480:/home/simulink/cFS_FreeRTOS_seL4/cfe/fsw/cfe-core/src/tbl/cfe_tbl_internal.c **** int32 CFE_TBL_RemoveAccessLink(CFE_TBL_Handle_t TblHandle)
 481:/home/simulink/cFS_FreeRTOS_seL4/cfe/fsw/cfe-core/src/tbl/cfe_tbl_internal.c **** {
 1039               	.loc 1 481 0
 1040               	.cfi_startproc
 1041 08c8 4FEF FFF0 	lea (-16,%sp),%sp
 1042               	.cfi_def_cfa_offset 20
 1043 08cc 202F 0014 	move.l 20(%sp),%d0
 1044 08d0 3000      	move.w %d0,%d0
 1045 08d2 3E80      	move.w %d0,(%sp)
 482:/home/simulink/cFS_FreeRTOS_seL4/cfe/fsw/cfe-core/src/tbl/cfe_tbl_internal.c ****     int32 Status = CFE_SUCCESS;
 1046               	.loc 1 482 0
 1047 08d4 42AF 000C 	clr.l 12(%sp)
 483:/home/simulink/cFS_FreeRTOS_seL4/cfe/fsw/cfe-core/src/tbl/cfe_tbl_internal.c ****     CFE_TBL_AccessDescriptor_t *AccessDescPtr = &CFE_TBL_TaskData.Handles[TblHandle];
 1048               	.loc 1 483 0
 1049 08d8 3017      	move.w (%sp),%d0
 1050 08da 48C0      	ext.l %d0
 1051 08dc E988      	lsl.l #4,%d0
 1052 08de 0680 0000 	add.l #876,%d0
 1052      036C 
 1053 08e4 2200      	move.l %d0,%d1
 1054 08e6 0681 0000 	add.l #CFE_TBL_TaskData,%d1
 1054      0000 
 1055 08ec 2F41 0008 	move.l %d1,8(%sp)
 484:/home/simulink/cFS_FreeRTOS_seL4/cfe/fsw/cfe-core/src/tbl/cfe_tbl_internal.c ****     CFE_TBL_RegistryRec_t      *RegRecPtr     = &CFE_TBL_TaskData.Registry[AccessDescPtr->RegIndex]
 1056               	.loc 1 484 0
 1057 08f0 206F 0008 	move.l 8(%sp),%a0
 1058 08f4 3028 0004 	move.w 4(%a0),%d0
 1059 08f8 48C0      	ext.l %d0
 1060 08fa 223C 0000 	move.l #336,%d1
 1060      0150 
 1061 0900 4C01 0800 	muls.l %d1,%d0
 1062 0904 0680 0000 	add.l #4972,%d0
 1062      136C 
 1063 090a 2200      	move.l %d0,%d1
 1064 090c 0681 0000 	add.l #CFE_TBL_TaskData,%d1
 1064      0000 
 1065 0912 2F41 0004 	move.l %d1,4(%sp)
 485:/home/simulink/cFS_FreeRTOS_seL4/cfe/fsw/cfe-core/src/tbl/cfe_tbl_internal.c **** 
 486:/home/simulink/cFS_FreeRTOS_seL4/cfe/fsw/cfe-core/src/tbl/cfe_tbl_internal.c ****     /* Lock Access to the table while we modify the linked list */
 487:/home/simulink/cFS_FreeRTOS_seL4/cfe/fsw/cfe-core/src/tbl/cfe_tbl_internal.c ****     CFE_TBL_LockRegistry();
 1066               	.loc 1 487 0
 1067 0916 4EB9 0000 	jsr CFE_TBL_LockRegistry
 1067      0000 
 488:/home/simulink/cFS_FreeRTOS_seL4/cfe/fsw/cfe-core/src/tbl/cfe_tbl_internal.c **** 
 489:/home/simulink/cFS_FreeRTOS_seL4/cfe/fsw/cfe-core/src/tbl/cfe_tbl_internal.c ****     /* If we are removing the head of the linked list, then point */
 490:/home/simulink/cFS_FreeRTOS_seL4/cfe/fsw/cfe-core/src/tbl/cfe_tbl_internal.c ****     /* the head pointer to the link after this one                */
 491:/home/simulink/cFS_FreeRTOS_seL4/cfe/fsw/cfe-core/src/tbl/cfe_tbl_internal.c ****     if (AccessDescPtr->PrevLink == CFE_TBL_END_OF_LIST)
 1068               	.loc 1 491 0
 1069 091c 206F 0008 	move.l 8(%sp),%a0
 1070 0920 3028 0006 	move.w 6(%a0),%d0
68K GAS   			page 32


 1071 0924 3040      	move.w %d0,%a0
 1072 0926 70FF      	moveq #-1,%d0
 1073 0928 B088      	cmp.l %a0,%d0
 1074 092a 6642      	jne .L44
 492:/home/simulink/cFS_FreeRTOS_seL4/cfe/fsw/cfe-core/src/tbl/cfe_tbl_internal.c ****     {
 493:/home/simulink/cFS_FreeRTOS_seL4/cfe/fsw/cfe-core/src/tbl/cfe_tbl_internal.c ****         RegRecPtr->HeadOfAccessList = AccessDescPtr->NextLink;
 1075               	.loc 1 493 0
 1076 092c 206F 0008 	move.l 8(%sp),%a0
 1077 0930 3028 0008 	move.w 8(%a0),%d0
 1078 0934 206F 0004 	move.l 4(%sp),%a0
 1079 0938 3140 00C4 	move.w %d0,196(%a0)
 494:/home/simulink/cFS_FreeRTOS_seL4/cfe/fsw/cfe-core/src/tbl/cfe_tbl_internal.c **** 
 495:/home/simulink/cFS_FreeRTOS_seL4/cfe/fsw/cfe-core/src/tbl/cfe_tbl_internal.c ****         /* Update the next link, if there is one, to be the new head of the list */
 496:/home/simulink/cFS_FreeRTOS_seL4/cfe/fsw/cfe-core/src/tbl/cfe_tbl_internal.c ****         if (AccessDescPtr->NextLink != CFE_TBL_END_OF_LIST)
 1080               	.loc 1 496 0
 1081 093c 206F 0008 	move.l 8(%sp),%a0
 1082 0940 3028 0008 	move.w 8(%a0),%d0
 1083 0944 3040      	move.w %d0,%a0
 1084 0946 72FF      	moveq #-1,%d1
 1085 0948 B288      	cmp.l %a0,%d1
 1086 094a 6776      	jeq .L46
 497:/home/simulink/cFS_FreeRTOS_seL4/cfe/fsw/cfe-core/src/tbl/cfe_tbl_internal.c ****         {
 498:/home/simulink/cFS_FreeRTOS_seL4/cfe/fsw/cfe-core/src/tbl/cfe_tbl_internal.c ****             CFE_TBL_TaskData.Handles[AccessDescPtr->NextLink].PrevLink = CFE_TBL_END_OF_LIST;
 1087               	.loc 1 498 0
 1088 094c 206F 0008 	move.l 8(%sp),%a0
 1089 0950 3028 0008 	move.w 8(%a0),%d0
 1090 0954 3040      	move.w %d0,%a0
 1091 0956 2008      	move.l %a0,%d0
 1092 0958 0680 0000 	add.l #55,%d0
 1092      0037 
 1093 095e E988      	lsl.l #4,%d0
 1094 0960 41F9 0000 	lea CFE_TBL_TaskData+2,%a0
 1094      0000 
 1095 0966 72FF      	moveq #-1,%d1
 1096 0968 3181 0800 	move.w %d1,(%a0,%d0.l)
 1097 096c 6054      	jra .L46
 1098               	.L44:
 499:/home/simulink/cFS_FreeRTOS_seL4/cfe/fsw/cfe-core/src/tbl/cfe_tbl_internal.c ****         }
 500:/home/simulink/cFS_FreeRTOS_seL4/cfe/fsw/cfe-core/src/tbl/cfe_tbl_internal.c ****     }
 501:/home/simulink/cFS_FreeRTOS_seL4/cfe/fsw/cfe-core/src/tbl/cfe_tbl_internal.c ****     else /* Access Descriptor is not the head of the list */
 502:/home/simulink/cFS_FreeRTOS_seL4/cfe/fsw/cfe-core/src/tbl/cfe_tbl_internal.c ****     {
 503:/home/simulink/cFS_FreeRTOS_seL4/cfe/fsw/cfe-core/src/tbl/cfe_tbl_internal.c ****         /* Set the next link on the previous link to the next link of the link being removed */
 504:/home/simulink/cFS_FreeRTOS_seL4/cfe/fsw/cfe-core/src/tbl/cfe_tbl_internal.c ****         CFE_TBL_TaskData.Handles[AccessDescPtr->PrevLink].NextLink = AccessDescPtr->NextLink;
 1099               	.loc 1 504 0
 1100 096e 206F 0008 	move.l 8(%sp),%a0
 1101 0972 3028 0006 	move.w 6(%a0),%d0
 1102 0976 48C0      	ext.l %d0
 1103 0978 206F 0008 	move.l 8(%sp),%a0
 1104 097c 3228 0008 	move.w 8(%a0),%d1
 1105 0980 E988      	lsl.l #4,%d0
 1106 0982 41F9 0000 	lea CFE_TBL_TaskData+884,%a0
 1106      0000 
 1107 0988 3181 0800 	move.w %d1,(%a0,%d0.l)
 505:/home/simulink/cFS_FreeRTOS_seL4/cfe/fsw/cfe-core/src/tbl/cfe_tbl_internal.c **** 
 506:/home/simulink/cFS_FreeRTOS_seL4/cfe/fsw/cfe-core/src/tbl/cfe_tbl_internal.c ****         /* If this link is not the end of the list, then complete two way linkage */
 507:/home/simulink/cFS_FreeRTOS_seL4/cfe/fsw/cfe-core/src/tbl/cfe_tbl_internal.c ****         /* by setting the next link's previous link to the previous link of the link being removed 
 508:/home/simulink/cFS_FreeRTOS_seL4/cfe/fsw/cfe-core/src/tbl/cfe_tbl_internal.c ****         if (AccessDescPtr->NextLink != CFE_TBL_END_OF_LIST)
68K GAS   			page 33


 1108               	.loc 1 508 0
 1109 098c 206F 0008 	move.l 8(%sp),%a0
 1110 0990 3028 0008 	move.w 8(%a0),%d0
 1111 0994 3040      	move.w %d0,%a0
 1112 0996 70FF      	moveq #-1,%d0
 1113 0998 B088      	cmp.l %a0,%d0
 1114 099a 6726      	jeq .L46
 509:/home/simulink/cFS_FreeRTOS_seL4/cfe/fsw/cfe-core/src/tbl/cfe_tbl_internal.c ****         {
 510:/home/simulink/cFS_FreeRTOS_seL4/cfe/fsw/cfe-core/src/tbl/cfe_tbl_internal.c ****             CFE_TBL_TaskData.Handles[AccessDescPtr->NextLink].PrevLink = AccessDescPtr->PrevLink;
 1115               	.loc 1 510 0
 1116 099c 206F 0008 	move.l 8(%sp),%a0
 1117 09a0 3028 0008 	move.w 8(%a0),%d0
 1118 09a4 3040      	move.w %d0,%a0
 1119 09a6 226F 0008 	move.l 8(%sp),%a1
 1120 09aa 3229 0006 	move.w 6(%a1),%d1
 1121 09ae 2008      	move.l %a0,%d0
 1122 09b0 0680 0000 	add.l #55,%d0
 1122      0037 
 1123 09b6 E988      	lsl.l #4,%d0
 1124 09b8 41F9 0000 	lea CFE_TBL_TaskData+2,%a0
 1124      0000 
 1125 09be 3181 0800 	move.w %d1,(%a0,%d0.l)
 1126               	.L46:
 511:/home/simulink/cFS_FreeRTOS_seL4/cfe/fsw/cfe-core/src/tbl/cfe_tbl_internal.c ****         }
 512:/home/simulink/cFS_FreeRTOS_seL4/cfe/fsw/cfe-core/src/tbl/cfe_tbl_internal.c ****     }
 513:/home/simulink/cFS_FreeRTOS_seL4/cfe/fsw/cfe-core/src/tbl/cfe_tbl_internal.c **** 
 514:/home/simulink/cFS_FreeRTOS_seL4/cfe/fsw/cfe-core/src/tbl/cfe_tbl_internal.c ****     /* Return the Access Descriptor to the pool */
 515:/home/simulink/cFS_FreeRTOS_seL4/cfe/fsw/cfe-core/src/tbl/cfe_tbl_internal.c ****     AccessDescPtr->UsedFlag = FALSE;
 1127               	.loc 1 515 0
 1128 09c2 206F 0008 	move.l 8(%sp),%a0
 1129 09c6 4201      	clr.b %d1
 1130 09c8 1141 000A 	move.b %d1,10(%a0)
 516:/home/simulink/cFS_FreeRTOS_seL4/cfe/fsw/cfe-core/src/tbl/cfe_tbl_internal.c **** 
 517:/home/simulink/cFS_FreeRTOS_seL4/cfe/fsw/cfe-core/src/tbl/cfe_tbl_internal.c ****     /* If this was the last Access Descriptor for this table, we can free the memory buffers as wel
 518:/home/simulink/cFS_FreeRTOS_seL4/cfe/fsw/cfe-core/src/tbl/cfe_tbl_internal.c ****     if (RegRecPtr->HeadOfAccessList == CFE_TBL_END_OF_LIST)
 1131               	.loc 1 518 0
 1132 09cc 206F 0004 	move.l 4(%sp),%a0
 1133 09d0 3028 00C4 	move.w 196(%a0),%d0
 1134 09d4 3040      	move.w %d0,%a0
 1135 09d6 70FF      	moveq #-1,%d0
 1136 09d8 B088      	cmp.l %a0,%d0
 1137 09da 6600 00FC 	jne .L47
 519:/home/simulink/cFS_FreeRTOS_seL4/cfe/fsw/cfe-core/src/tbl/cfe_tbl_internal.c ****     {
 520:/home/simulink/cFS_FreeRTOS_seL4/cfe/fsw/cfe-core/src/tbl/cfe_tbl_internal.c ****         /* Only free memory that we have allocated.  If the image is User Defined, then don't bothe
 521:/home/simulink/cFS_FreeRTOS_seL4/cfe/fsw/cfe-core/src/tbl/cfe_tbl_internal.c ****         if (RegRecPtr->UserDefAddr == FALSE)
 1138               	.loc 1 521 0
 1139 09de 206F 0004 	move.l 4(%sp),%a0
 1140 09e2 1028 00E3 	move.b 227(%a0),%d0
 1141 09e6 4A00      	tst.b %d0
 1142 09e8 6600 00EE 	jne .L47
 522:/home/simulink/cFS_FreeRTOS_seL4/cfe/fsw/cfe-core/src/tbl/cfe_tbl_internal.c ****         {
 523:/home/simulink/cFS_FreeRTOS_seL4/cfe/fsw/cfe-core/src/tbl/cfe_tbl_internal.c ****             /* Free memory allocated to buffers */
 524:/home/simulink/cFS_FreeRTOS_seL4/cfe/fsw/cfe-core/src/tbl/cfe_tbl_internal.c ****             Status = CFE_ES_PutPoolBuf(CFE_TBL_TaskData.Buf.PoolHdl, (uint32 *)RegRecPtr->Buffers[0
 1143               	.loc 1 524 0
 1144 09ec 206F 0004 	move.l 4(%sp),%a0
 1145 09f0 2228 0010 	move.l 16(%a0),%d1
 1146 09f4 2039 0000 	move.l CFE_TBL_TaskData+52076,%d0
68K GAS   			page 34


 1146      0000 
 1147 09fa 2F01      	move.l %d1,-(%sp)
 1148               	.cfi_def_cfa_offset 24
 1149 09fc 2F00      	move.l %d0,-(%sp)
 1150               	.cfi_def_cfa_offset 28
 1151 09fe 4EB9 0000 	jsr CFE_ES_PutPoolBuf
 1151      0000 
 1152 0a04 508F      	addq.l #8,%sp
 1153               	.cfi_def_cfa_offset 20
 1154 0a06 2F40 000C 	move.l %d0,12(%sp)
 525:/home/simulink/cFS_FreeRTOS_seL4/cfe/fsw/cfe-core/src/tbl/cfe_tbl_internal.c ****             RegRecPtr->Buffers[0].BufferPtr = NULL;
 1155               	.loc 1 525 0
 1156 0a0a 206F 0004 	move.l 4(%sp),%a0
 1157 0a0e 42A8 0010 	clr.l 16(%a0)
 526:/home/simulink/cFS_FreeRTOS_seL4/cfe/fsw/cfe-core/src/tbl/cfe_tbl_internal.c **** 
 527:/home/simulink/cFS_FreeRTOS_seL4/cfe/fsw/cfe-core/src/tbl/cfe_tbl_internal.c ****             if (Status < 0)
 1158               	.loc 1 527 0
 1159 0a12 4AAF 000C 	tst.l 12(%sp)
 1160 0a16 6C2A      	jge .L48
 528:/home/simulink/cFS_FreeRTOS_seL4/cfe/fsw/cfe-core/src/tbl/cfe_tbl_internal.c ****             {
 529:/home/simulink/cFS_FreeRTOS_seL4/cfe/fsw/cfe-core/src/tbl/cfe_tbl_internal.c ****                 CFE_ES_WriteToSysLog("CFE_TBL:RemoveAccessLink-PutPoolBuf[0] Fail Stat=0x%08X, Hndl
 530:/home/simulink/cFS_FreeRTOS_seL4/cfe/fsw/cfe-core/src/tbl/cfe_tbl_internal.c ****                         (unsigned int)Status, (unsigned long)CFE_TBL_TaskData.Buf.PoolHdl, (unsigne
 1161               	.loc 1 530 0
 1162 0a18 206F 0004 	move.l 4(%sp),%a0
 1163 0a1c 2028 0010 	move.l 16(%a0),%d0
 529:/home/simulink/cFS_FreeRTOS_seL4/cfe/fsw/cfe-core/src/tbl/cfe_tbl_internal.c ****                         (unsigned int)Status, (unsigned long)CFE_TBL_TaskData.Buf.PoolHdl, (unsigne
 1164               	.loc 1 529 0
 1165 0a20 2040      	move.l %d0,%a0
 1166               	.loc 1 530 0
 1167 0a22 2239 0000 	move.l CFE_TBL_TaskData+52076,%d1
 1167      0000 
 529:/home/simulink/cFS_FreeRTOS_seL4/cfe/fsw/cfe-core/src/tbl/cfe_tbl_internal.c ****                         (unsigned int)Status, (unsigned long)CFE_TBL_TaskData.Buf.PoolHdl, (unsigne
 1168               	.loc 1 529 0
 1169 0a28 202F 000C 	move.l 12(%sp),%d0
 1170 0a2c 2F08      	move.l %a0,-(%sp)
 1171               	.cfi_def_cfa_offset 24
 1172 0a2e 2F01      	move.l %d1,-(%sp)
 1173               	.cfi_def_cfa_offset 28
 1174 0a30 2F00      	move.l %d0,-(%sp)
 1175               	.cfi_def_cfa_offset 32
 1176 0a32 4879 0000 	pea .LC17
 1176      0000 
 1177               	.cfi_def_cfa_offset 36
 1178 0a38 4EB9 0000 	jsr CFE_ES_WriteToSysLog
 1178      0000 
 1179 0a3e 4FEF 0010 	lea (16,%sp),%sp
 1180               	.cfi_def_cfa_offset 20
 1181               	.L48:
 531:/home/simulink/cFS_FreeRTOS_seL4/cfe/fsw/cfe-core/src/tbl/cfe_tbl_internal.c ****             }
 532:/home/simulink/cFS_FreeRTOS_seL4/cfe/fsw/cfe-core/src/tbl/cfe_tbl_internal.c **** 
 533:/home/simulink/cFS_FreeRTOS_seL4/cfe/fsw/cfe-core/src/tbl/cfe_tbl_internal.c ****             /* If a double buffered table, then free the second buffer as well */
 534:/home/simulink/cFS_FreeRTOS_seL4/cfe/fsw/cfe-core/src/tbl/cfe_tbl_internal.c ****             if (RegRecPtr->DblBuffered)
 1182               	.loc 1 534 0
 1183 0a42 206F 0004 	move.l 4(%sp),%a0
 1184 0a46 1028 00E2 	move.b 226(%a0),%d0
 1185 0a4a 4A00      	tst.b %d0
 1186 0a4c 6758      	jeq .L49
68K GAS   			page 35


 535:/home/simulink/cFS_FreeRTOS_seL4/cfe/fsw/cfe-core/src/tbl/cfe_tbl_internal.c ****             {
 536:/home/simulink/cFS_FreeRTOS_seL4/cfe/fsw/cfe-core/src/tbl/cfe_tbl_internal.c ****                 Status = CFE_ES_PutPoolBuf(CFE_TBL_TaskData.Buf.PoolHdl, (uint32 *)RegRecPtr->Buffe
 1187               	.loc 1 536 0
 1188 0a4e 206F 0004 	move.l 4(%sp),%a0
 1189 0a52 2228 0064 	move.l 100(%a0),%d1
 1190 0a56 2039 0000 	move.l CFE_TBL_TaskData+52076,%d0
 1190      0000 
 1191 0a5c 2F01      	move.l %d1,-(%sp)
 1192               	.cfi_def_cfa_offset 24
 1193 0a5e 2F00      	move.l %d0,-(%sp)
 1194               	.cfi_def_cfa_offset 28
 1195 0a60 4EB9 0000 	jsr CFE_ES_PutPoolBuf
 1195      0000 
 1196 0a66 508F      	addq.l #8,%sp
 1197               	.cfi_def_cfa_offset 20
 1198 0a68 2F40 000C 	move.l %d0,12(%sp)
 537:/home/simulink/cFS_FreeRTOS_seL4/cfe/fsw/cfe-core/src/tbl/cfe_tbl_internal.c ****                 RegRecPtr->Buffers[1].BufferPtr = NULL;
 1199               	.loc 1 537 0
 1200 0a6c 206F 0004 	move.l 4(%sp),%a0
 1201 0a70 42A8 0064 	clr.l 100(%a0)
 538:/home/simulink/cFS_FreeRTOS_seL4/cfe/fsw/cfe-core/src/tbl/cfe_tbl_internal.c **** 
 539:/home/simulink/cFS_FreeRTOS_seL4/cfe/fsw/cfe-core/src/tbl/cfe_tbl_internal.c ****                 if (Status < 0)
 1202               	.loc 1 539 0
 1203 0a74 4AAF 000C 	tst.l 12(%sp)
 1204 0a78 6C5E      	jge .L47
 540:/home/simulink/cFS_FreeRTOS_seL4/cfe/fsw/cfe-core/src/tbl/cfe_tbl_internal.c ****                 {
 541:/home/simulink/cFS_FreeRTOS_seL4/cfe/fsw/cfe-core/src/tbl/cfe_tbl_internal.c ****                     CFE_ES_WriteToSysLog("CFE_TBL:RemoveAccessLink-PutPoolBuf[1] Fail Stat=0x%08X, 
 542:/home/simulink/cFS_FreeRTOS_seL4/cfe/fsw/cfe-core/src/tbl/cfe_tbl_internal.c ****                             (unsigned int)Status, (unsigned long)CFE_TBL_TaskData.Buf.PoolHdl, (uns
 1205               	.loc 1 542 0
 1206 0a7a 206F 0004 	move.l 4(%sp),%a0
 1207 0a7e 2028 0064 	move.l 100(%a0),%d0
 541:/home/simulink/cFS_FreeRTOS_seL4/cfe/fsw/cfe-core/src/tbl/cfe_tbl_internal.c ****                             (unsigned int)Status, (unsigned long)CFE_TBL_TaskData.Buf.PoolHdl, (uns
 1208               	.loc 1 541 0
 1209 0a82 2040      	move.l %d0,%a0
 1210               	.loc 1 542 0
 1211 0a84 2239 0000 	move.l CFE_TBL_TaskData+52076,%d1
 1211      0000 
 541:/home/simulink/cFS_FreeRTOS_seL4/cfe/fsw/cfe-core/src/tbl/cfe_tbl_internal.c ****                             (unsigned int)Status, (unsigned long)CFE_TBL_TaskData.Buf.PoolHdl, (uns
 1212               	.loc 1 541 0
 1213 0a8a 202F 000C 	move.l 12(%sp),%d0
 1214 0a8e 2F08      	move.l %a0,-(%sp)
 1215               	.cfi_def_cfa_offset 24
 1216 0a90 2F01      	move.l %d1,-(%sp)
 1217               	.cfi_def_cfa_offset 28
 1218 0a92 2F00      	move.l %d0,-(%sp)
 1219               	.cfi_def_cfa_offset 32
 1220 0a94 4879 0000 	pea .LC18
 1220      0000 
 1221               	.cfi_def_cfa_offset 36
 1222 0a9a 4EB9 0000 	jsr CFE_ES_WriteToSysLog
 1222      0000 
 1223 0aa0 4FEF 0010 	lea (16,%sp),%sp
 1224               	.cfi_def_cfa_offset 20
 1225 0aa4 6032      	jra .L47
 1226               	.L49:
 543:/home/simulink/cFS_FreeRTOS_seL4/cfe/fsw/cfe-core/src/tbl/cfe_tbl_internal.c ****                 }
 544:/home/simulink/cFS_FreeRTOS_seL4/cfe/fsw/cfe-core/src/tbl/cfe_tbl_internal.c ****             }
68K GAS   			page 36


 545:/home/simulink/cFS_FreeRTOS_seL4/cfe/fsw/cfe-core/src/tbl/cfe_tbl_internal.c ****             else
 546:/home/simulink/cFS_FreeRTOS_seL4/cfe/fsw/cfe-core/src/tbl/cfe_tbl_internal.c ****             {
 547:/home/simulink/cFS_FreeRTOS_seL4/cfe/fsw/cfe-core/src/tbl/cfe_tbl_internal.c ****                 /* If a shared buffer has been allocated to the table, then release it as well */
 548:/home/simulink/cFS_FreeRTOS_seL4/cfe/fsw/cfe-core/src/tbl/cfe_tbl_internal.c ****                 if (RegRecPtr->LoadInProgress != CFE_TBL_NO_LOAD_IN_PROGRESS)
 1227               	.loc 1 548 0
 1228 0aa6 206F 0004 	move.l 4(%sp),%a0
 1229 0aaa 2028 00C8 	move.l 200(%a0),%d0
 1230 0aae 72FF      	moveq #-1,%d1
 1231 0ab0 B280      	cmp.l %d0,%d1
 1232 0ab2 6724      	jeq .L47
 549:/home/simulink/cFS_FreeRTOS_seL4/cfe/fsw/cfe-core/src/tbl/cfe_tbl_internal.c ****                 {
 550:/home/simulink/cFS_FreeRTOS_seL4/cfe/fsw/cfe-core/src/tbl/cfe_tbl_internal.c ****                     /* Free the working buffer */
 551:/home/simulink/cFS_FreeRTOS_seL4/cfe/fsw/cfe-core/src/tbl/cfe_tbl_internal.c ****                     CFE_TBL_TaskData.LoadBuffs[RegRecPtr->LoadInProgress].Taken = FALSE;
 1233               	.loc 1 551 0
 1234 0ab4 206F 0004 	move.l 4(%sp),%a0
 1235 0ab8 2028 00C8 	move.l 200(%a0),%d0
 1236 0abc 7254      	moveq #84,%d1
 1237 0abe 4C01 0800 	muls.l %d1,%d0
 1238 0ac2 41F9 0000 	lea CFE_TBL_TaskData+556,%a0
 1238      0000 
 1239 0ac8 4201      	clr.b %d1
 1240 0aca 1181 0800 	move.b %d1,(%a0,%d0.l)
 552:/home/simulink/cFS_FreeRTOS_seL4/cfe/fsw/cfe-core/src/tbl/cfe_tbl_internal.c ****                     RegRecPtr->LoadInProgress = CFE_TBL_NO_LOAD_IN_PROGRESS;
 1241               	.loc 1 552 0
 1242 0ace 206F 0004 	move.l 4(%sp),%a0
 1243 0ad2 70FF      	moveq #-1,%d0
 1244 0ad4 2140 00C8 	move.l %d0,200(%a0)
 1245               	.L47:
 553:/home/simulink/cFS_FreeRTOS_seL4/cfe/fsw/cfe-core/src/tbl/cfe_tbl_internal.c ****                 }
 554:/home/simulink/cFS_FreeRTOS_seL4/cfe/fsw/cfe-core/src/tbl/cfe_tbl_internal.c ****             }
 555:/home/simulink/cFS_FreeRTOS_seL4/cfe/fsw/cfe-core/src/tbl/cfe_tbl_internal.c ****         }
 556:/home/simulink/cFS_FreeRTOS_seL4/cfe/fsw/cfe-core/src/tbl/cfe_tbl_internal.c ****     }
 557:/home/simulink/cFS_FreeRTOS_seL4/cfe/fsw/cfe-core/src/tbl/cfe_tbl_internal.c **** 
 558:/home/simulink/cFS_FreeRTOS_seL4/cfe/fsw/cfe-core/src/tbl/cfe_tbl_internal.c ****     /* Unlock the registry to allow others to modify it */
 559:/home/simulink/cFS_FreeRTOS_seL4/cfe/fsw/cfe-core/src/tbl/cfe_tbl_internal.c ****     CFE_TBL_UnlockRegistry();
 1246               	.loc 1 559 0
 1247 0ad8 4EB9 0000 	jsr CFE_TBL_UnlockRegistry
 1247      0000 
 560:/home/simulink/cFS_FreeRTOS_seL4/cfe/fsw/cfe-core/src/tbl/cfe_tbl_internal.c **** 
 561:/home/simulink/cFS_FreeRTOS_seL4/cfe/fsw/cfe-core/src/tbl/cfe_tbl_internal.c ****     return Status;
 1248               	.loc 1 561 0
 1249 0ade 202F 000C 	move.l 12(%sp),%d0
 562:/home/simulink/cFS_FreeRTOS_seL4/cfe/fsw/cfe-core/src/tbl/cfe_tbl_internal.c **** }   /* End of CFE_TBL_RemoveAccessLink() */
 1250               	.loc 1 562 0
 1251 0ae2 4FEF 0010 	lea (16,%sp),%sp
 1252 0ae6 4E75      	rts
 1253               	.cfi_endproc
 1254               	.LFE65:
 1255               	.sizeCFE_TBL_RemoveAccessLink, .-CFE_TBL_RemoveAccessLink
 1256               	.section.rodata
 1257               	.LC19:
 1258 03f6 4346 455F 	.string"CFE_TBL:GetAddressInternal-App(%d) attempt to access unowned Tbl Handle=%d\n"
 1258      5442 4C3A 
 1258      4765 7441 
 1258      6464 7265 
 1258      7373 496E 
 1259               	.LC20:
68K GAS   			page 37


 1260 0442 4346 455F 	.string"CFE_TBL:GetAddressInternal-App(%d) does not have access to Tbl Handle=%d\n"
 1260      5442 4C3A 
 1260      4765 7441 
 1260      6464 7265 
 1260      7373 496E 
 1261               	.LC21:
 1262 048c 4346 455F 	.string"CFE_TBL:GetAddressInternal-App(%d) using invalid Tbl Handle=%d\n"
 1262      5442 4C3A 
 1262      4765 7441 
 1262      6464 7265 
 1262      7373 496E 
 1263               	.text
 1264               	.align2
 1265               	.globlCFE_TBL_GetAddressInternal
 1266               	.typeCFE_TBL_GetAddressInternal, @function
 1267               	CFE_TBL_GetAddressInternal:
 1268               	.LFB66:
 563:/home/simulink/cFS_FreeRTOS_seL4/cfe/fsw/cfe-core/src/tbl/cfe_tbl_internal.c **** 
 564:/home/simulink/cFS_FreeRTOS_seL4/cfe/fsw/cfe-core/src/tbl/cfe_tbl_internal.c **** 
 565:/home/simulink/cFS_FreeRTOS_seL4/cfe/fsw/cfe-core/src/tbl/cfe_tbl_internal.c **** /*******************************************************************
 566:/home/simulink/cFS_FreeRTOS_seL4/cfe/fsw/cfe-core/src/tbl/cfe_tbl_internal.c **** **
 567:/home/simulink/cFS_FreeRTOS_seL4/cfe/fsw/cfe-core/src/tbl/cfe_tbl_internal.c **** ** CFE_TBL_GetAddressInternal
 568:/home/simulink/cFS_FreeRTOS_seL4/cfe/fsw/cfe-core/src/tbl/cfe_tbl_internal.c **** **
 569:/home/simulink/cFS_FreeRTOS_seL4/cfe/fsw/cfe-core/src/tbl/cfe_tbl_internal.c **** ** NOTE: For complete prolog information, see 'cfe_tbl_internal.h'
 570:/home/simulink/cFS_FreeRTOS_seL4/cfe/fsw/cfe-core/src/tbl/cfe_tbl_internal.c **** ********************************************************************/
 571:/home/simulink/cFS_FreeRTOS_seL4/cfe/fsw/cfe-core/src/tbl/cfe_tbl_internal.c **** 
 572:/home/simulink/cFS_FreeRTOS_seL4/cfe/fsw/cfe-core/src/tbl/cfe_tbl_internal.c **** 
 573:/home/simulink/cFS_FreeRTOS_seL4/cfe/fsw/cfe-core/src/tbl/cfe_tbl_internal.c **** int32 CFE_TBL_GetAddressInternal(void **TblPtr, CFE_TBL_Handle_t TblHandle, uint32 ThisAppId)
 574:/home/simulink/cFS_FreeRTOS_seL4/cfe/fsw/cfe-core/src/tbl/cfe_tbl_internal.c **** {
 1269               	.loc 1 574 0
 1270               	.cfi_startproc
 1271 0ae8 4FEF FFF0 	lea (-16,%sp),%sp
 1272               	.cfi_def_cfa_offset 20
 1273 0aec 2F02      	move.l %d2,-(%sp)
 1274               	.cfi_def_cfa_offset 24
 1275               	.cfi_offset 2, -24
 1276 0aee 202F 001C 	move.l 28(%sp),%d0
 1277 0af2 3000      	move.w %d0,%d0
 1278 0af4 3F40 0004 	move.w %d0,4(%sp)
 575:/home/simulink/cFS_FreeRTOS_seL4/cfe/fsw/cfe-core/src/tbl/cfe_tbl_internal.c ****     int32   Status = CFE_SUCCESS;
 1279               	.loc 1 575 0
 1280 0af8 42AF 0010 	clr.l 16(%sp)
 576:/home/simulink/cFS_FreeRTOS_seL4/cfe/fsw/cfe-core/src/tbl/cfe_tbl_internal.c ****     CFE_TBL_AccessDescriptor_t *AccessDescPtr;
 577:/home/simulink/cFS_FreeRTOS_seL4/cfe/fsw/cfe-core/src/tbl/cfe_tbl_internal.c ****     CFE_TBL_RegistryRec_t *RegRecPtr;
 578:/home/simulink/cFS_FreeRTOS_seL4/cfe/fsw/cfe-core/src/tbl/cfe_tbl_internal.c **** 
 579:/home/simulink/cFS_FreeRTOS_seL4/cfe/fsw/cfe-core/src/tbl/cfe_tbl_internal.c ****     /* Check table handle validity */
 580:/home/simulink/cFS_FreeRTOS_seL4/cfe/fsw/cfe-core/src/tbl/cfe_tbl_internal.c ****     Status = CFE_TBL_ValidateHandle(TblHandle);
 1281               	.loc 1 580 0
 1282 0afc 306F 0004 	move.w 4(%sp),%a0
 1283 0b00 2F08      	move.l %a0,-(%sp)
 1284               	.cfi_def_cfa_offset 28
 1285 0b02 4EB9 0000 	jsr CFE_TBL_ValidateHandle
 1285      0000 
 1286 0b08 588F      	addq.l #4,%sp
 1287               	.cfi_def_cfa_offset 24
 1288 0b0a 2F40 0010 	move.l %d0,16(%sp)
 581:/home/simulink/cFS_FreeRTOS_seL4/cfe/fsw/cfe-core/src/tbl/cfe_tbl_internal.c **** 
68K GAS   			page 38


 582:/home/simulink/cFS_FreeRTOS_seL4/cfe/fsw/cfe-core/src/tbl/cfe_tbl_internal.c ****     if (Status == CFE_SUCCESS)
 1289               	.loc 1 582 0
 1290 0b0e 4AAF 0010 	tst.l 16(%sp)
 1291 0b12 6600 0116 	jne .L53
 583:/home/simulink/cFS_FreeRTOS_seL4/cfe/fsw/cfe-core/src/tbl/cfe_tbl_internal.c ****     {
 584:/home/simulink/cFS_FreeRTOS_seL4/cfe/fsw/cfe-core/src/tbl/cfe_tbl_internal.c ****         /* Get a pointer to the Access Descriptor */
 585:/home/simulink/cFS_FreeRTOS_seL4/cfe/fsw/cfe-core/src/tbl/cfe_tbl_internal.c ****         AccessDescPtr = &CFE_TBL_TaskData.Handles[TblHandle];
 1292               	.loc 1 585 0
 1293 0b16 302F 0004 	move.w 4(%sp),%d0
 1294 0b1a 48C0      	ext.l %d0
 1295 0b1c E988      	lsl.l #4,%d0
 1296 0b1e 0680 0000 	add.l #876,%d0
 1296      036C 
 1297 0b24 2200      	move.l %d0,%d1
 1298 0b26 0681 0000 	add.l #CFE_TBL_TaskData,%d1
 1298      0000 
 1299 0b2c 2F41 000C 	move.l %d1,12(%sp)
 586:/home/simulink/cFS_FreeRTOS_seL4/cfe/fsw/cfe-core/src/tbl/cfe_tbl_internal.c **** 
 587:/home/simulink/cFS_FreeRTOS_seL4/cfe/fsw/cfe-core/src/tbl/cfe_tbl_internal.c ****         /* Verify that we are allowed access to the table */
 588:/home/simulink/cFS_FreeRTOS_seL4/cfe/fsw/cfe-core/src/tbl/cfe_tbl_internal.c ****         Status = CFE_TBL_CheckAccessRights(TblHandle, ThisAppId);
 1300               	.loc 1 588 0
 1301 0b30 306F 0004 	move.w 4(%sp),%a0
 1302 0b34 2F2F 0020 	move.l 32(%sp),-(%sp)
 1303               	.cfi_def_cfa_offset 28
 1304 0b38 2F08      	move.l %a0,-(%sp)
 1305               	.cfi_def_cfa_offset 32
 1306 0b3a 4EB9 0000 	jsr CFE_TBL_CheckAccessRights
 1306      0000 
 1307 0b40 508F      	addq.l #8,%sp
 1308               	.cfi_def_cfa_offset 24
 1309 0b42 2F40 0010 	move.l %d0,16(%sp)
 589:/home/simulink/cFS_FreeRTOS_seL4/cfe/fsw/cfe-core/src/tbl/cfe_tbl_internal.c **** 
 590:/home/simulink/cFS_FreeRTOS_seL4/cfe/fsw/cfe-core/src/tbl/cfe_tbl_internal.c ****         if (Status == CFE_SUCCESS)
 1310               	.loc 1 590 0
 1311 0b46 4AAF 0010 	tst.l 16(%sp)
 1312 0b4a 6600 00C0 	jne .L54
 591:/home/simulink/cFS_FreeRTOS_seL4/cfe/fsw/cfe-core/src/tbl/cfe_tbl_internal.c ****         {
 592:/home/simulink/cFS_FreeRTOS_seL4/cfe/fsw/cfe-core/src/tbl/cfe_tbl_internal.c ****             /* Get a pointer to the Table Registry entry */
 593:/home/simulink/cFS_FreeRTOS_seL4/cfe/fsw/cfe-core/src/tbl/cfe_tbl_internal.c ****             RegRecPtr = &CFE_TBL_TaskData.Registry[AccessDescPtr->RegIndex];
 1313               	.loc 1 593 0
 1314 0b4e 206F 000C 	move.l 12(%sp),%a0
 1315 0b52 3028 0004 	move.w 4(%a0),%d0
 1316 0b56 48C0      	ext.l %d0
 1317 0b58 243C 0000 	move.l #336,%d2
 1317      0150 
 1318 0b5e 4C02 0800 	muls.l %d2,%d0
 1319 0b62 0680 0000 	add.l #4972,%d0
 1319      136C 
 1320 0b68 2200      	move.l %d0,%d1
 1321 0b6a 0681 0000 	add.l #CFE_TBL_TaskData,%d1
 1321      0000 
 1322 0b70 2F41 0008 	move.l %d1,8(%sp)
 594:/home/simulink/cFS_FreeRTOS_seL4/cfe/fsw/cfe-core/src/tbl/cfe_tbl_internal.c **** 
 595:/home/simulink/cFS_FreeRTOS_seL4/cfe/fsw/cfe-core/src/tbl/cfe_tbl_internal.c ****             /* If table is unowned, then owner must have unregistered it when we weren't looking */
 596:/home/simulink/cFS_FreeRTOS_seL4/cfe/fsw/cfe-core/src/tbl/cfe_tbl_internal.c ****             if (RegRecPtr->OwnerAppId == CFE_TBL_NOT_OWNED)
 1323               	.loc 1 596 0
 1324 0b74 206F 0008 	move.l 8(%sp),%a0
68K GAS   			page 39


 1325 0b78 2010      	move.l (%a0),%d0
 1326 0b7a 74FF      	moveq #-1,%d2
 1327 0b7c B480      	cmp.l %d0,%d2
 1328 0b7e 662A      	jne .L55
 597:/home/simulink/cFS_FreeRTOS_seL4/cfe/fsw/cfe-core/src/tbl/cfe_tbl_internal.c ****             {
 598:/home/simulink/cFS_FreeRTOS_seL4/cfe/fsw/cfe-core/src/tbl/cfe_tbl_internal.c ****                 Status = CFE_TBL_ERR_UNREGISTERED;
 1329               	.loc 1 598 0
 1330 0b80 203C CC00 	move.l #-872415223,%d0
 1330      0009 
 1331 0b86 2F40 0010 	move.l %d0,16(%sp)
 599:/home/simulink/cFS_FreeRTOS_seL4/cfe/fsw/cfe-core/src/tbl/cfe_tbl_internal.c **** 
 600:/home/simulink/cFS_FreeRTOS_seL4/cfe/fsw/cfe-core/src/tbl/cfe_tbl_internal.c ****                 CFE_ES_WriteToSysLog("CFE_TBL:GetAddressInternal-App(%d) attempt to access unowned 
 1332               	.loc 1 600 0
 1333 0b8a 306F 0004 	move.w 4(%sp),%a0
 1334 0b8e 202F 0020 	move.l 32(%sp),%d0
 1335 0b92 2F08      	move.l %a0,-(%sp)
 1336               	.cfi_def_cfa_offset 28
 1337 0b94 2F00      	move.l %d0,-(%sp)
 1338               	.cfi_def_cfa_offset 32
 1339 0b96 4879 0000 	pea .LC19
 1339      0000 
 1340               	.cfi_def_cfa_offset 36
 1341 0b9c 4EB9 0000 	jsr CFE_ES_WriteToSysLog
 1341      0000 
 1342 0ba2 4FEF 000C 	lea (12,%sp),%sp
 1343               	.cfi_def_cfa_offset 24
 1344 0ba6 6000 009E 	jra .L58
 1345               	.L55:
 601:/home/simulink/cFS_FreeRTOS_seL4/cfe/fsw/cfe-core/src/tbl/cfe_tbl_internal.c ****                                      (int)ThisAppId, (int)TblHandle);
 602:/home/simulink/cFS_FreeRTOS_seL4/cfe/fsw/cfe-core/src/tbl/cfe_tbl_internal.c ****             }
 603:/home/simulink/cFS_FreeRTOS_seL4/cfe/fsw/cfe-core/src/tbl/cfe_tbl_internal.c ****             else /* Table Registry Entry is valid */
 604:/home/simulink/cFS_FreeRTOS_seL4/cfe/fsw/cfe-core/src/tbl/cfe_tbl_internal.c ****             {
 605:/home/simulink/cFS_FreeRTOS_seL4/cfe/fsw/cfe-core/src/tbl/cfe_tbl_internal.c ****                 /* Lock the table and return the current pointer */
 606:/home/simulink/cFS_FreeRTOS_seL4/cfe/fsw/cfe-core/src/tbl/cfe_tbl_internal.c ****                 AccessDescPtr->LockFlag = TRUE;
 1346               	.loc 1 606 0
 1347 0baa 206F 000C 	move.l 12(%sp),%a0
 1348 0bae 7201      	moveq #1,%d1
 1349 0bb0 1141 000B 	move.b %d1,11(%a0)
 607:/home/simulink/cFS_FreeRTOS_seL4/cfe/fsw/cfe-core/src/tbl/cfe_tbl_internal.c **** 
 608:/home/simulink/cFS_FreeRTOS_seL4/cfe/fsw/cfe-core/src/tbl/cfe_tbl_internal.c ****                 /* Save the buffer we are using in the access descriptor */
 609:/home/simulink/cFS_FreeRTOS_seL4/cfe/fsw/cfe-core/src/tbl/cfe_tbl_internal.c ****                 /* This is used to ensure that if the buffer becomes inactive while */
 610:/home/simulink/cFS_FreeRTOS_seL4/cfe/fsw/cfe-core/src/tbl/cfe_tbl_internal.c ****                 /* we are using it, no one will modify it until we are done */
 611:/home/simulink/cFS_FreeRTOS_seL4/cfe/fsw/cfe-core/src/tbl/cfe_tbl_internal.c ****                 AccessDescPtr->BufferIndex = RegRecPtr->ActiveBufferIndex;
 1350               	.loc 1 611 0
 1351 0bb4 206F 0008 	move.l 8(%sp),%a0
 1352 0bb8 1028 00E5 	move.b 229(%a0),%d0
 1353 0bbc 206F 000C 	move.l 12(%sp),%a0
 1354 0bc0 1140 000D 	move.b %d0,13(%a0)
 612:/home/simulink/cFS_FreeRTOS_seL4/cfe/fsw/cfe-core/src/tbl/cfe_tbl_internal.c **** 
 613:/home/simulink/cFS_FreeRTOS_seL4/cfe/fsw/cfe-core/src/tbl/cfe_tbl_internal.c ****                 *TblPtr = RegRecPtr->Buffers[AccessDescPtr->BufferIndex].BufferPtr;
 1355               	.loc 1 613 0
 1356 0bc4 206F 000C 	move.l 12(%sp),%a0
 1357 0bc8 1028 000D 	move.b 13(%a0),%d0
 1358 0bcc 1000      	move.b %d0,%d0
 1359 0bce 0280 0000 	and.l #255,%d0
 1359      00FF 
 1360 0bd4 222F 0008 	move.l 8(%sp),%d1
68K GAS   			page 40


 1361 0bd8 7454      	moveq #84,%d2
 1362 0bda 4C02 0800 	muls.l %d2,%d0
 1363 0bde D081      	add.l %d1,%d0
 1364 0be0 2040      	move.l %d0,%a0
 1365 0be2 41E8 0010 	lea (16,%a0),%a0
 1366 0be6 2010      	move.l (%a0),%d0
 1367 0be8 206F 0018 	move.l 24(%sp),%a0
 1368 0bec 2080      	move.l %d0,(%a0)
 614:/home/simulink/cFS_FreeRTOS_seL4/cfe/fsw/cfe-core/src/tbl/cfe_tbl_internal.c **** 
 615:/home/simulink/cFS_FreeRTOS_seL4/cfe/fsw/cfe-core/src/tbl/cfe_tbl_internal.c ****                 /* Return any pending warning or info status indicators */
 616:/home/simulink/cFS_FreeRTOS_seL4/cfe/fsw/cfe-core/src/tbl/cfe_tbl_internal.c ****                 Status = CFE_TBL_GetNextNotification(TblHandle);
 1369               	.loc 1 616 0
 1370 0bee 306F 0004 	move.w 4(%sp),%a0
 1371 0bf2 2F08      	move.l %a0,-(%sp)
 1372               	.cfi_def_cfa_offset 28
 1373 0bf4 4EB9 0000 	jsr CFE_TBL_GetNextNotification
 1373      0000 
 1374 0bfa 588F      	addq.l #4,%sp
 1375               	.cfi_def_cfa_offset 24
 1376 0bfc 2F40 0010 	move.l %d0,16(%sp)
 617:/home/simulink/cFS_FreeRTOS_seL4/cfe/fsw/cfe-core/src/tbl/cfe_tbl_internal.c **** 
 618:/home/simulink/cFS_FreeRTOS_seL4/cfe/fsw/cfe-core/src/tbl/cfe_tbl_internal.c ****                 /* Clear Table Updated Notify Bit so that caller only gets it once */
 619:/home/simulink/cFS_FreeRTOS_seL4/cfe/fsw/cfe-core/src/tbl/cfe_tbl_internal.c ****                 AccessDescPtr->Updated = FALSE;
 1377               	.loc 1 619 0
 1378 0c00 206F 000C 	move.l 12(%sp),%a0
 1379 0c04 4200      	clr.b %d0
 1380 0c06 1140 000C 	move.b %d0,12(%a0)
 1381 0c0a 603A      	jra .L58
 1382               	.L54:
 620:/home/simulink/cFS_FreeRTOS_seL4/cfe/fsw/cfe-core/src/tbl/cfe_tbl_internal.c ****             }
 621:/home/simulink/cFS_FreeRTOS_seL4/cfe/fsw/cfe-core/src/tbl/cfe_tbl_internal.c ****         }
 622:/home/simulink/cFS_FreeRTOS_seL4/cfe/fsw/cfe-core/src/tbl/cfe_tbl_internal.c ****         else
 623:/home/simulink/cFS_FreeRTOS_seL4/cfe/fsw/cfe-core/src/tbl/cfe_tbl_internal.c ****         {
 624:/home/simulink/cFS_FreeRTOS_seL4/cfe/fsw/cfe-core/src/tbl/cfe_tbl_internal.c ****             CFE_ES_WriteToSysLog("CFE_TBL:GetAddressInternal-App(%d) does not have access to Tbl Ha
 1383               	.loc 1 624 0
 1384 0c0c 306F 0004 	move.w 4(%sp),%a0
 1385 0c10 202F 0020 	move.l 32(%sp),%d0
 1386 0c14 2F08      	move.l %a0,-(%sp)
 1387               	.cfi_def_cfa_offset 28
 1388 0c16 2F00      	move.l %d0,-(%sp)
 1389               	.cfi_def_cfa_offset 32
 1390 0c18 4879 0000 	pea .LC20
 1390      0000 
 1391               	.cfi_def_cfa_offset 36
 1392 0c1e 4EB9 0000 	jsr CFE_ES_WriteToSysLog
 1392      0000 
 1393 0c24 4FEF 000C 	lea (12,%sp),%sp
 1394               	.cfi_def_cfa_offset 24
 1395 0c28 601C      	jra .L58
 1396               	.L53:
 625:/home/simulink/cFS_FreeRTOS_seL4/cfe/fsw/cfe-core/src/tbl/cfe_tbl_internal.c ****                                  (int)ThisAppId, (int)TblHandle);
 626:/home/simulink/cFS_FreeRTOS_seL4/cfe/fsw/cfe-core/src/tbl/cfe_tbl_internal.c ****         }
 627:/home/simulink/cFS_FreeRTOS_seL4/cfe/fsw/cfe-core/src/tbl/cfe_tbl_internal.c ****     }
 628:/home/simulink/cFS_FreeRTOS_seL4/cfe/fsw/cfe-core/src/tbl/cfe_tbl_internal.c ****     else
 629:/home/simulink/cFS_FreeRTOS_seL4/cfe/fsw/cfe-core/src/tbl/cfe_tbl_internal.c ****     {
 630:/home/simulink/cFS_FreeRTOS_seL4/cfe/fsw/cfe-core/src/tbl/cfe_tbl_internal.c ****         CFE_ES_WriteToSysLog("CFE_TBL:GetAddressInternal-App(%d) using invalid Tbl Handle=%d\n",
 1397               	.loc 1 630 0
68K GAS   			page 41


 1398 0c2a 306F 0004 	move.w 4(%sp),%a0
 1399 0c2e 202F 0020 	move.l 32(%sp),%d0
 1400 0c32 2F08      	move.l %a0,-(%sp)
 1401               	.cfi_def_cfa_offset 28
 1402 0c34 2F00      	move.l %d0,-(%sp)
 1403               	.cfi_def_cfa_offset 32
 1404 0c36 4879 0000 	pea .LC21
 1404      0000 
 1405               	.cfi_def_cfa_offset 36
 1406 0c3c 4EB9 0000 	jsr CFE_ES_WriteToSysLog
 1406      0000 
 1407 0c42 4FEF 000C 	lea (12,%sp),%sp
 1408               	.cfi_def_cfa_offset 24
 1409               	.L58:
 631:/home/simulink/cFS_FreeRTOS_seL4/cfe/fsw/cfe-core/src/tbl/cfe_tbl_internal.c ****                              (int)ThisAppId, (int)TblHandle);
 632:/home/simulink/cFS_FreeRTOS_seL4/cfe/fsw/cfe-core/src/tbl/cfe_tbl_internal.c ****     }
 633:/home/simulink/cFS_FreeRTOS_seL4/cfe/fsw/cfe-core/src/tbl/cfe_tbl_internal.c **** 
 634:/home/simulink/cFS_FreeRTOS_seL4/cfe/fsw/cfe-core/src/tbl/cfe_tbl_internal.c ****     return Status;
 1410               	.loc 1 634 0
 1411 0c46 202F 0010 	move.l 16(%sp),%d0
 635:/home/simulink/cFS_FreeRTOS_seL4/cfe/fsw/cfe-core/src/tbl/cfe_tbl_internal.c **** }   /* End of CFE_TBL_GetAddressInternal() */
 1412               	.loc 1 635 0
 1413 0c4a 241F      	move.l (%sp)+,%d2
 1414 0c4c 4FEF 0010 	lea (16,%sp),%sp
 1415 0c50 4E75      	rts
 1416               	.cfi_endproc
 1417               	.LFE66:
 1418               	.sizeCFE_TBL_GetAddressInternal, .-CFE_TBL_GetAddressInternal
 1419               	.align2
 1420               	.globlCFE_TBL_GetNextNotification
 1421               	.typeCFE_TBL_GetNextNotification, @function
 1422               	CFE_TBL_GetNextNotification:
 1423               	.LFB67:
 636:/home/simulink/cFS_FreeRTOS_seL4/cfe/fsw/cfe-core/src/tbl/cfe_tbl_internal.c **** 
 637:/home/simulink/cFS_FreeRTOS_seL4/cfe/fsw/cfe-core/src/tbl/cfe_tbl_internal.c **** 
 638:/home/simulink/cFS_FreeRTOS_seL4/cfe/fsw/cfe-core/src/tbl/cfe_tbl_internal.c **** /*******************************************************************
 639:/home/simulink/cFS_FreeRTOS_seL4/cfe/fsw/cfe-core/src/tbl/cfe_tbl_internal.c **** **
 640:/home/simulink/cFS_FreeRTOS_seL4/cfe/fsw/cfe-core/src/tbl/cfe_tbl_internal.c **** ** CFE_TBL_GetNextNotification
 641:/home/simulink/cFS_FreeRTOS_seL4/cfe/fsw/cfe-core/src/tbl/cfe_tbl_internal.c **** **
 642:/home/simulink/cFS_FreeRTOS_seL4/cfe/fsw/cfe-core/src/tbl/cfe_tbl_internal.c **** ** NOTE: For complete prolog information, see 'cfe_tbl_internal.h'
 643:/home/simulink/cFS_FreeRTOS_seL4/cfe/fsw/cfe-core/src/tbl/cfe_tbl_internal.c **** ********************************************************************/
 644:/home/simulink/cFS_FreeRTOS_seL4/cfe/fsw/cfe-core/src/tbl/cfe_tbl_internal.c **** 
 645:/home/simulink/cFS_FreeRTOS_seL4/cfe/fsw/cfe-core/src/tbl/cfe_tbl_internal.c **** int32 CFE_TBL_GetNextNotification(CFE_TBL_Handle_t TblHandle)
 646:/home/simulink/cFS_FreeRTOS_seL4/cfe/fsw/cfe-core/src/tbl/cfe_tbl_internal.c **** {
 1424               	.loc 1 646 0
 1425               	.cfi_startproc
 1426 0c52 4FEF FFF0 	lea (-16,%sp),%sp
 1427               	.cfi_def_cfa_offset 20
 1428 0c56 202F 0014 	move.l 20(%sp),%d0
 1429 0c5a 3000      	move.w %d0,%d0
 1430 0c5c 3E80      	move.w %d0,(%sp)
 647:/home/simulink/cFS_FreeRTOS_seL4/cfe/fsw/cfe-core/src/tbl/cfe_tbl_internal.c ****     int32 Status = CFE_SUCCESS;
 1431               	.loc 1 647 0
 1432 0c5e 42AF 000C 	clr.l 12(%sp)
 648:/home/simulink/cFS_FreeRTOS_seL4/cfe/fsw/cfe-core/src/tbl/cfe_tbl_internal.c ****     CFE_TBL_AccessDescriptor_t *AccessDescPtr = &CFE_TBL_TaskData.Handles[TblHandle];
 1433               	.loc 1 648 0
 1434 0c62 3017      	move.w (%sp),%d0
68K GAS   			page 42


 1435 0c64 48C0      	ext.l %d0
 1436 0c66 E988      	lsl.l #4,%d0
 1437 0c68 0680 0000 	add.l #876,%d0
 1437      036C 
 1438 0c6e 2200      	move.l %d0,%d1
 1439 0c70 0681 0000 	add.l #CFE_TBL_TaskData,%d1
 1439      0000 
 1440 0c76 2F41 0008 	move.l %d1,8(%sp)
 649:/home/simulink/cFS_FreeRTOS_seL4/cfe/fsw/cfe-core/src/tbl/cfe_tbl_internal.c ****     CFE_TBL_RegistryRec_t *RegRecPtr = &CFE_TBL_TaskData.Registry[AccessDescPtr->RegIndex];
 1441               	.loc 1 649 0
 1442 0c7a 206F 0008 	move.l 8(%sp),%a0
 1443 0c7e 3028 0004 	move.w 4(%a0),%d0
 1444 0c82 48C0      	ext.l %d0
 1445 0c84 223C 0000 	move.l #336,%d1
 1445      0150 
 1446 0c8a 4C01 0800 	muls.l %d1,%d0
 1447 0c8e 0680 0000 	add.l #4972,%d0
 1447      136C 
 1448 0c94 2200      	move.l %d0,%d1
 1449 0c96 0681 0000 	add.l #CFE_TBL_TaskData,%d1
 1449      0000 
 1450 0c9c 2F41 0004 	move.l %d1,4(%sp)
 650:/home/simulink/cFS_FreeRTOS_seL4/cfe/fsw/cfe-core/src/tbl/cfe_tbl_internal.c **** 
 651:/home/simulink/cFS_FreeRTOS_seL4/cfe/fsw/cfe-core/src/tbl/cfe_tbl_internal.c ****     if (!RegRecPtr->TableLoadedOnce)
 1451               	.loc 1 651 0
 1452 0ca0 206F 0004 	move.l 4(%sp),%a0
 1453 0ca4 1028 00DF 	move.b 223(%a0),%d0
 1454 0ca8 4A00      	tst.b %d0
 1455 0caa 660C      	jne .L61
 652:/home/simulink/cFS_FreeRTOS_seL4/cfe/fsw/cfe-core/src/tbl/cfe_tbl_internal.c ****     {
 653:/home/simulink/cFS_FreeRTOS_seL4/cfe/fsw/cfe-core/src/tbl/cfe_tbl_internal.c ****         /* If the table has never been loaded, return an error code for the address */
 654:/home/simulink/cFS_FreeRTOS_seL4/cfe/fsw/cfe-core/src/tbl/cfe_tbl_internal.c ****         Status = CFE_TBL_ERR_NEVER_LOADED;
 1456               	.loc 1 654 0
 1457 0cac 203C CC00 	move.l #-872415227,%d0
 1457      0005 
 1458 0cb2 2F40 000C 	move.l %d0,12(%sp)
 1459 0cb6 6016      	jra .L62
 1460               	.L61:
 655:/home/simulink/cFS_FreeRTOS_seL4/cfe/fsw/cfe-core/src/tbl/cfe_tbl_internal.c ****     }
 656:/home/simulink/cFS_FreeRTOS_seL4/cfe/fsw/cfe-core/src/tbl/cfe_tbl_internal.c ****     else if (AccessDescPtr->Updated)
 1461               	.loc 1 656 0
 1462 0cb8 206F 0008 	move.l 8(%sp),%a0
 1463 0cbc 1028 000C 	move.b 12(%a0),%d0
 1464 0cc0 4A00      	tst.b %d0
 1465 0cc2 670A      	jeq .L62
 657:/home/simulink/cFS_FreeRTOS_seL4/cfe/fsw/cfe-core/src/tbl/cfe_tbl_internal.c ****     {
 658:/home/simulink/cFS_FreeRTOS_seL4/cfe/fsw/cfe-core/src/tbl/cfe_tbl_internal.c ****         /* If the table has been updated recently, return the update status */
 659:/home/simulink/cFS_FreeRTOS_seL4/cfe/fsw/cfe-core/src/tbl/cfe_tbl_internal.c ****         Status = CFE_TBL_INFO_UPDATED;
 1466               	.loc 1 659 0
 1467 0cc4 223C 4C00 	move.l #1275068430,%d1
 1467      000E 
 1468 0cca 2F41 000C 	move.l %d1,12(%sp)
 1469               	.L62:
 660:/home/simulink/cFS_FreeRTOS_seL4/cfe/fsw/cfe-core/src/tbl/cfe_tbl_internal.c ****     }
 661:/home/simulink/cFS_FreeRTOS_seL4/cfe/fsw/cfe-core/src/tbl/cfe_tbl_internal.c **** 
 662:/home/simulink/cFS_FreeRTOS_seL4/cfe/fsw/cfe-core/src/tbl/cfe_tbl_internal.c ****     return Status;
 1470               	.loc 1 662 0
68K GAS   			page 43


 1471 0cce 202F 000C 	move.l 12(%sp),%d0
 663:/home/simulink/cFS_FreeRTOS_seL4/cfe/fsw/cfe-core/src/tbl/cfe_tbl_internal.c **** }   /* End of CFE_TBL_GetNextNotification() */
 1472               	.loc 1 663 0
 1473 0cd2 4FEF 0010 	lea (16,%sp),%sp
 1474 0cd6 4E75      	rts
 1475               	.cfi_endproc
 1476               	.LFE67:
 1477               	.sizeCFE_TBL_GetNextNotification, .-CFE_TBL_GetNextNotification
 1478               	.align2
 1479               	.globlCFE_TBL_FindTableInRegistry
 1480               	.typeCFE_TBL_FindTableInRegistry, @function
 1481               	CFE_TBL_FindTableInRegistry:
 1482               	.LFB68:
 664:/home/simulink/cFS_FreeRTOS_seL4/cfe/fsw/cfe-core/src/tbl/cfe_tbl_internal.c **** 
 665:/home/simulink/cFS_FreeRTOS_seL4/cfe/fsw/cfe-core/src/tbl/cfe_tbl_internal.c **** 
 666:/home/simulink/cFS_FreeRTOS_seL4/cfe/fsw/cfe-core/src/tbl/cfe_tbl_internal.c **** /*******************************************************************
 667:/home/simulink/cFS_FreeRTOS_seL4/cfe/fsw/cfe-core/src/tbl/cfe_tbl_internal.c **** **
 668:/home/simulink/cFS_FreeRTOS_seL4/cfe/fsw/cfe-core/src/tbl/cfe_tbl_internal.c **** ** CFE_TBL_FindTableInRegistry
 669:/home/simulink/cFS_FreeRTOS_seL4/cfe/fsw/cfe-core/src/tbl/cfe_tbl_internal.c **** **
 670:/home/simulink/cFS_FreeRTOS_seL4/cfe/fsw/cfe-core/src/tbl/cfe_tbl_internal.c **** ** NOTE: For complete prolog information, see 'cfe_tbl_internal.h'
 671:/home/simulink/cFS_FreeRTOS_seL4/cfe/fsw/cfe-core/src/tbl/cfe_tbl_internal.c **** ********************************************************************/
 672:/home/simulink/cFS_FreeRTOS_seL4/cfe/fsw/cfe-core/src/tbl/cfe_tbl_internal.c **** 
 673:/home/simulink/cFS_FreeRTOS_seL4/cfe/fsw/cfe-core/src/tbl/cfe_tbl_internal.c **** int16 CFE_TBL_FindTableInRegistry(const char *TblName)
 674:/home/simulink/cFS_FreeRTOS_seL4/cfe/fsw/cfe-core/src/tbl/cfe_tbl_internal.c **** {
 1483               	.loc 1 674 0
 1484               	.cfi_startproc
 1485 0cd8 598F      	subq.l #4,%sp
 1486               	.cfi_def_cfa_offset 8
 675:/home/simulink/cFS_FreeRTOS_seL4/cfe/fsw/cfe-core/src/tbl/cfe_tbl_internal.c ****     int16 RegIndx = CFE_TBL_NOT_FOUND;
 1487               	.loc 1 675 0
 1488 0cda 70FF      	moveq #-1,%d0
 1489 0cdc 3F40 0002 	move.w %d0,2(%sp)
 676:/home/simulink/cFS_FreeRTOS_seL4/cfe/fsw/cfe-core/src/tbl/cfe_tbl_internal.c ****     int16 i = -1;
 1490               	.loc 1 676 0
 1491 0ce0 3EBC FFFF 	move.w #-1,(%sp)
 1492               	.L67:
 677:/home/simulink/cFS_FreeRTOS_seL4/cfe/fsw/cfe-core/src/tbl/cfe_tbl_internal.c **** 
 678:/home/simulink/cFS_FreeRTOS_seL4/cfe/fsw/cfe-core/src/tbl/cfe_tbl_internal.c ****     do
 679:/home/simulink/cFS_FreeRTOS_seL4/cfe/fsw/cfe-core/src/tbl/cfe_tbl_internal.c ****     {
 680:/home/simulink/cFS_FreeRTOS_seL4/cfe/fsw/cfe-core/src/tbl/cfe_tbl_internal.c ****         /* Point to next record in the Table Registry */
 681:/home/simulink/cFS_FreeRTOS_seL4/cfe/fsw/cfe-core/src/tbl/cfe_tbl_internal.c ****         i++;
 1493               	.loc 1 681 0
 1494 0ce4 3017      	move.w (%sp),%d0
 1495 0ce6 5280      	addq.l #1,%d0
 1496 0ce8 3000      	move.w %d0,%d0
 1497 0cea 3E80      	move.w %d0,(%sp)
 682:/home/simulink/cFS_FreeRTOS_seL4/cfe/fsw/cfe-core/src/tbl/cfe_tbl_internal.c **** 
 683:/home/simulink/cFS_FreeRTOS_seL4/cfe/fsw/cfe-core/src/tbl/cfe_tbl_internal.c ****         /* Check to see if the record is currently being used */
 684:/home/simulink/cFS_FreeRTOS_seL4/cfe/fsw/cfe-core/src/tbl/cfe_tbl_internal.c ****         if (CFE_TBL_TaskData.Registry[i].OwnerAppId != CFE_TBL_NOT_OWNED)
 1498               	.loc 1 684 0
 1499 0cec 3017      	move.w (%sp),%d0
 1500 0cee 48C0      	ext.l %d0
 1501 0cf0 223C 0000 	move.l #336,%d1
 1501      0150 
 1502 0cf6 4C01 0800 	muls.l %d1,%d0
 1503 0cfa 41F9 0000 	lea CFE_TBL_TaskData+4972,%a0
 1503      0000 
68K GAS   			page 44


 1504 0d00 2030 0800 	move.l (%a0,%d0.l),%d0
 1505 0d04 72FF      	moveq #-1,%d1
 1506 0d06 B280      	cmp.l %d0,%d1
 1507 0d08 6732      	jeq .L65
 685:/home/simulink/cFS_FreeRTOS_seL4/cfe/fsw/cfe-core/src/tbl/cfe_tbl_internal.c ****         {
 686:/home/simulink/cFS_FreeRTOS_seL4/cfe/fsw/cfe-core/src/tbl/cfe_tbl_internal.c ****             /* Perform a case sensitive name comparison */
 687:/home/simulink/cFS_FreeRTOS_seL4/cfe/fsw/cfe-core/src/tbl/cfe_tbl_internal.c ****             if (strcmp(TblName, CFE_TBL_TaskData.Registry[i].Name) == 0)
 1508               	.loc 1 687 0
 1509 0d0a 3017      	move.w (%sp),%d0
 1510 0d0c 48C0      	ext.l %d0
 1511 0d0e 223C 0000 	move.l #336,%d1
 1511      0150 
 1512 0d14 4C01 0800 	muls.l %d1,%d0
 1513 0d18 0680 0000 	add.l #5200,%d0
 1513      1450 
 1514 0d1e 0680 0000 	add.l #CFE_TBL_TaskData,%d0
 1514      0000 
 1515 0d24 5480      	addq.l #2,%d0
 1516 0d26 2F00      	move.l %d0,-(%sp)
 1517               	.cfi_def_cfa_offset 12
 1518 0d28 2F2F 000C 	move.l 12(%sp),-(%sp)
 1519               	.cfi_def_cfa_offset 16
 1520 0d2c 4EB9 0000 	jsr strcmp
 1520      0000 
 1521 0d32 508F      	addq.l #8,%sp
 1522               	.cfi_def_cfa_offset 8
 1523 0d34 4A80      	tst.l %d0
 1524 0d36 6604      	jne .L65
 688:/home/simulink/cFS_FreeRTOS_seL4/cfe/fsw/cfe-core/src/tbl/cfe_tbl_internal.c ****             {
 689:/home/simulink/cFS_FreeRTOS_seL4/cfe/fsw/cfe-core/src/tbl/cfe_tbl_internal.c ****                 /* If the names match, then return the index */
 690:/home/simulink/cFS_FreeRTOS_seL4/cfe/fsw/cfe-core/src/tbl/cfe_tbl_internal.c ****                 RegIndx = i;
 1525               	.loc 1 690 0
 1526 0d38 3F57 0002 	move.w (%sp),2(%sp)
 1527               	.L65:
 691:/home/simulink/cFS_FreeRTOS_seL4/cfe/fsw/cfe-core/src/tbl/cfe_tbl_internal.c ****             }
 692:/home/simulink/cFS_FreeRTOS_seL4/cfe/fsw/cfe-core/src/tbl/cfe_tbl_internal.c ****         }
 693:/home/simulink/cFS_FreeRTOS_seL4/cfe/fsw/cfe-core/src/tbl/cfe_tbl_internal.c ****     } while ( (RegIndx == CFE_TBL_NOT_FOUND) && (i < (CFE_TBL_MAX_NUM_TABLES-1)) );
 1528               	.loc 1 693 0
 1529 0d3c 306F 0002 	move.w 2(%sp),%a0
 1530 0d40 70FF      	moveq #-1,%d0
 1531 0d42 B088      	cmp.l %a0,%d0
 1532 0d44 6608      	jne .L66
 1533               	.loc 1 693 0 is_stmt 0 discriminator 1
 1534 0d46 3057      	move.w (%sp),%a0
 1535 0d48 727E      	moveq #126,%d1
 1536 0d4a B288      	cmp.l %a0,%d1
 1537 0d4c 6C96      	jge .L67
 1538               	.L66:
 694:/home/simulink/cFS_FreeRTOS_seL4/cfe/fsw/cfe-core/src/tbl/cfe_tbl_internal.c **** 
 695:/home/simulink/cFS_FreeRTOS_seL4/cfe/fsw/cfe-core/src/tbl/cfe_tbl_internal.c ****     return RegIndx;
 1539               	.loc 1 695 0 is_stmt 1
 1540 0d4e 302F 0002 	move.w 2(%sp),%d0
 696:/home/simulink/cFS_FreeRTOS_seL4/cfe/fsw/cfe-core/src/tbl/cfe_tbl_internal.c **** }   /* End of CFE_TBL_FindTableInRegistry() */
 1541               	.loc 1 696 0
 1542 0d52 588F      	addq.l #4,%sp
 1543 0d54 4E75      	rts
 1544               	.cfi_endproc
68K GAS   			page 45


 1545               	.LFE68:
 1546               	.sizeCFE_TBL_FindTableInRegistry, .-CFE_TBL_FindTableInRegistry
 1547               	.align2
 1548               	.globlCFE_TBL_FindFreeRegistryEntry
 1549               	.typeCFE_TBL_FindFreeRegistryEntry, @function
 1550               	CFE_TBL_FindFreeRegistryEntry:
 1551               	.LFB69:
 697:/home/simulink/cFS_FreeRTOS_seL4/cfe/fsw/cfe-core/src/tbl/cfe_tbl_internal.c **** 
 698:/home/simulink/cFS_FreeRTOS_seL4/cfe/fsw/cfe-core/src/tbl/cfe_tbl_internal.c **** 
 699:/home/simulink/cFS_FreeRTOS_seL4/cfe/fsw/cfe-core/src/tbl/cfe_tbl_internal.c **** /*******************************************************************
 700:/home/simulink/cFS_FreeRTOS_seL4/cfe/fsw/cfe-core/src/tbl/cfe_tbl_internal.c **** **
 701:/home/simulink/cFS_FreeRTOS_seL4/cfe/fsw/cfe-core/src/tbl/cfe_tbl_internal.c **** ** CFE_TBL_FindFreeRegistryEntry
 702:/home/simulink/cFS_FreeRTOS_seL4/cfe/fsw/cfe-core/src/tbl/cfe_tbl_internal.c **** **
 703:/home/simulink/cFS_FreeRTOS_seL4/cfe/fsw/cfe-core/src/tbl/cfe_tbl_internal.c **** ** NOTE: For complete prolog information, see 'cfe_tbl_internal.h'
 704:/home/simulink/cFS_FreeRTOS_seL4/cfe/fsw/cfe-core/src/tbl/cfe_tbl_internal.c **** ********************************************************************/
 705:/home/simulink/cFS_FreeRTOS_seL4/cfe/fsw/cfe-core/src/tbl/cfe_tbl_internal.c **** 
 706:/home/simulink/cFS_FreeRTOS_seL4/cfe/fsw/cfe-core/src/tbl/cfe_tbl_internal.c **** int16 CFE_TBL_FindFreeRegistryEntry(void)
 707:/home/simulink/cFS_FreeRTOS_seL4/cfe/fsw/cfe-core/src/tbl/cfe_tbl_internal.c **** {
 1552               	.loc 1 707 0
 1553               	.cfi_startproc
 1554 0d56 598F      	subq.l #4,%sp
 1555               	.cfi_def_cfa_offset 8
 708:/home/simulink/cFS_FreeRTOS_seL4/cfe/fsw/cfe-core/src/tbl/cfe_tbl_internal.c ****     int16 RegIndx = CFE_TBL_NOT_FOUND;
 1556               	.loc 1 708 0
 1557 0d58 70FF      	moveq #-1,%d0
 1558 0d5a 3F40 0002 	move.w %d0,2(%sp)
 709:/home/simulink/cFS_FreeRTOS_seL4/cfe/fsw/cfe-core/src/tbl/cfe_tbl_internal.c ****     int16 i = 0;
 1559               	.loc 1 709 0
 1560 0d5e 4257      	clr.w (%sp)
 710:/home/simulink/cFS_FreeRTOS_seL4/cfe/fsw/cfe-core/src/tbl/cfe_tbl_internal.c **** 
 711:/home/simulink/cFS_FreeRTOS_seL4/cfe/fsw/cfe-core/src/tbl/cfe_tbl_internal.c ****     while ( (RegIndx == CFE_TBL_NOT_FOUND) && (i < CFE_TBL_MAX_NUM_TABLES) )
 1561               	.loc 1 711 0
 1562 0d60 604C      	jra .L70
 1563               	.L73:
 712:/home/simulink/cFS_FreeRTOS_seL4/cfe/fsw/cfe-core/src/tbl/cfe_tbl_internal.c ****     {
 713:/home/simulink/cFS_FreeRTOS_seL4/cfe/fsw/cfe-core/src/tbl/cfe_tbl_internal.c ****         /* A Table Registry is only "Free" when there isn't an owner AND */
 714:/home/simulink/cFS_FreeRTOS_seL4/cfe/fsw/cfe-core/src/tbl/cfe_tbl_internal.c ****         /* all other applications are not sharing or locking the table   */
 715:/home/simulink/cFS_FreeRTOS_seL4/cfe/fsw/cfe-core/src/tbl/cfe_tbl_internal.c ****         if ((CFE_TBL_TaskData.Registry[i].OwnerAppId == CFE_TBL_NOT_OWNED) &&
 1564               	.loc 1 715 0
 1565 0d62 3017      	move.w (%sp),%d0
 1566 0d64 48C0      	ext.l %d0
 1567 0d66 223C 0000 	move.l #336,%d1
 1567      0150 
 1568 0d6c 4C01 0800 	muls.l %d1,%d0
 1569 0d70 41F9 0000 	lea CFE_TBL_TaskData+4972,%a0
 1569      0000 
 1570 0d76 2030 0800 	move.l (%a0,%d0.l),%d0
 1571 0d7a 72FF      	moveq #-1,%d1
 1572 0d7c B280      	cmp.l %d0,%d1
 1573 0d7e 6626      	jne .L71
 716:/home/simulink/cFS_FreeRTOS_seL4/cfe/fsw/cfe-core/src/tbl/cfe_tbl_internal.c ****             (CFE_TBL_TaskData.Registry[i].HeadOfAccessList == CFE_TBL_END_OF_LIST))
 1574               	.loc 1 716 0 discriminator 1
 1575 0d80 3017      	move.w (%sp),%d0
 1576 0d82 48C0      	ext.l %d0
 1577 0d84 223C 0000 	move.l #336,%d1
 1577      0150 
 1578 0d8a 4C01 0800 	muls.l %d1,%d0
68K GAS   			page 46


 1579 0d8e 41F9 0000 	lea CFE_TBL_TaskData+5168,%a0
 1579      0000 
 1580 0d94 3030 0800 	move.w (%a0,%d0.l),%d0
 715:/home/simulink/cFS_FreeRTOS_seL4/cfe/fsw/cfe-core/src/tbl/cfe_tbl_internal.c ****             (CFE_TBL_TaskData.Registry[i].HeadOfAccessList == CFE_TBL_END_OF_LIST))
 1581               	.loc 1 715 0 discriminator 1
 1582 0d98 3040      	move.w %d0,%a0
 1583 0d9a 70FF      	moveq #-1,%d0
 1584 0d9c B088      	cmp.l %a0,%d0
 1585 0d9e 6606      	jne .L71
 717:/home/simulink/cFS_FreeRTOS_seL4/cfe/fsw/cfe-core/src/tbl/cfe_tbl_internal.c ****         {
 718:/home/simulink/cFS_FreeRTOS_seL4/cfe/fsw/cfe-core/src/tbl/cfe_tbl_internal.c ****             RegIndx = i;
 1586               	.loc 1 718 0
 1587 0da0 3F57 0002 	move.w (%sp),2(%sp)
 1588 0da4 6008      	jra .L70
 1589               	.L71:
 719:/home/simulink/cFS_FreeRTOS_seL4/cfe/fsw/cfe-core/src/tbl/cfe_tbl_internal.c ****         }
 720:/home/simulink/cFS_FreeRTOS_seL4/cfe/fsw/cfe-core/src/tbl/cfe_tbl_internal.c ****         else
 721:/home/simulink/cFS_FreeRTOS_seL4/cfe/fsw/cfe-core/src/tbl/cfe_tbl_internal.c ****         {
 722:/home/simulink/cFS_FreeRTOS_seL4/cfe/fsw/cfe-core/src/tbl/cfe_tbl_internal.c ****             i++;
 1590               	.loc 1 722 0
 1591 0da6 3017      	move.w (%sp),%d0
 1592 0da8 5280      	addq.l #1,%d0
 1593 0daa 3000      	move.w %d0,%d0
 1594 0dac 3E80      	move.w %d0,(%sp)
 1595               	.L70:
 711:/home/simulink/cFS_FreeRTOS_seL4/cfe/fsw/cfe-core/src/tbl/cfe_tbl_internal.c ****     {
 1596               	.loc 1 711 0
 1597 0dae 306F 0002 	move.w 2(%sp),%a0
 1598 0db2 72FF      	moveq #-1,%d1
 1599 0db4 B288      	cmp.l %a0,%d1
 1600 0db6 6608      	jne .L72
 711:/home/simulink/cFS_FreeRTOS_seL4/cfe/fsw/cfe-core/src/tbl/cfe_tbl_internal.c ****     {
 1601               	.loc 1 711 0 is_stmt 0 discriminator 1
 1602 0db8 3057      	move.w (%sp),%a0
 1603 0dba 707F      	moveq #127,%d0
 1604 0dbc B088      	cmp.l %a0,%d0
 1605 0dbe 6CA2      	jge .L73
 1606               	.L72:
 723:/home/simulink/cFS_FreeRTOS_seL4/cfe/fsw/cfe-core/src/tbl/cfe_tbl_internal.c ****         }
 724:/home/simulink/cFS_FreeRTOS_seL4/cfe/fsw/cfe-core/src/tbl/cfe_tbl_internal.c ****     }
 725:/home/simulink/cFS_FreeRTOS_seL4/cfe/fsw/cfe-core/src/tbl/cfe_tbl_internal.c **** 
 726:/home/simulink/cFS_FreeRTOS_seL4/cfe/fsw/cfe-core/src/tbl/cfe_tbl_internal.c ****     return RegIndx;
 1607               	.loc 1 726 0 is_stmt 1
 1608 0dc0 302F 0002 	move.w 2(%sp),%d0
 727:/home/simulink/cFS_FreeRTOS_seL4/cfe/fsw/cfe-core/src/tbl/cfe_tbl_internal.c **** }   /* End of CFE_TBL_FindFreeRegistryEntry() */
 1609               	.loc 1 727 0
 1610 0dc4 588F      	addq.l #4,%sp
 1611 0dc6 4E75      	rts
 1612               	.cfi_endproc
 1613               	.LFE69:
 1614               	.sizeCFE_TBL_FindFreeRegistryEntry, .-CFE_TBL_FindFreeRegistryEntry
 1615               	.align2
 1616               	.globlCFE_TBL_FindFreeHandle
 1617               	.typeCFE_TBL_FindFreeHandle, @function
 1618               	CFE_TBL_FindFreeHandle:
 1619               	.LFB70:
 728:/home/simulink/cFS_FreeRTOS_seL4/cfe/fsw/cfe-core/src/tbl/cfe_tbl_internal.c **** 
68K GAS   			page 47


 729:/home/simulink/cFS_FreeRTOS_seL4/cfe/fsw/cfe-core/src/tbl/cfe_tbl_internal.c **** 
 730:/home/simulink/cFS_FreeRTOS_seL4/cfe/fsw/cfe-core/src/tbl/cfe_tbl_internal.c **** /*******************************************************************
 731:/home/simulink/cFS_FreeRTOS_seL4/cfe/fsw/cfe-core/src/tbl/cfe_tbl_internal.c **** **
 732:/home/simulink/cFS_FreeRTOS_seL4/cfe/fsw/cfe-core/src/tbl/cfe_tbl_internal.c **** ** CFE_TBL_FindFreeHandle
 733:/home/simulink/cFS_FreeRTOS_seL4/cfe/fsw/cfe-core/src/tbl/cfe_tbl_internal.c **** **
 734:/home/simulink/cFS_FreeRTOS_seL4/cfe/fsw/cfe-core/src/tbl/cfe_tbl_internal.c **** ** NOTE: For complete prolog information, see 'cfe_tbl_internal.h'
 735:/home/simulink/cFS_FreeRTOS_seL4/cfe/fsw/cfe-core/src/tbl/cfe_tbl_internal.c **** ********************************************************************/
 736:/home/simulink/cFS_FreeRTOS_seL4/cfe/fsw/cfe-core/src/tbl/cfe_tbl_internal.c **** 
 737:/home/simulink/cFS_FreeRTOS_seL4/cfe/fsw/cfe-core/src/tbl/cfe_tbl_internal.c **** CFE_TBL_Handle_t CFE_TBL_FindFreeHandle(void)
 738:/home/simulink/cFS_FreeRTOS_seL4/cfe/fsw/cfe-core/src/tbl/cfe_tbl_internal.c **** {
 1620               	.loc 1 738 0
 1621               	.cfi_startproc
 1622 0dc8 598F      	subq.l #4,%sp
 1623               	.cfi_def_cfa_offset 8
 739:/home/simulink/cFS_FreeRTOS_seL4/cfe/fsw/cfe-core/src/tbl/cfe_tbl_internal.c ****     CFE_TBL_Handle_t HandleIndx = CFE_TBL_END_OF_LIST;
 1624               	.loc 1 739 0
 1625 0dca 70FF      	moveq #-1,%d0
 1626 0dcc 3F40 0002 	move.w %d0,2(%sp)
 740:/home/simulink/cFS_FreeRTOS_seL4/cfe/fsw/cfe-core/src/tbl/cfe_tbl_internal.c ****     int16 i = 0;
 1627               	.loc 1 740 0
 1628 0dd0 4257      	clr.w (%sp)
 741:/home/simulink/cFS_FreeRTOS_seL4/cfe/fsw/cfe-core/src/tbl/cfe_tbl_internal.c **** 
 742:/home/simulink/cFS_FreeRTOS_seL4/cfe/fsw/cfe-core/src/tbl/cfe_tbl_internal.c ****     while ((HandleIndx == CFE_TBL_END_OF_LIST) && (i < CFE_TBL_MAX_NUM_HANDLES))
 1629               	.loc 1 742 0
 1630 0dd2 6022      	jra .L76
 1631               	.L79:
 743:/home/simulink/cFS_FreeRTOS_seL4/cfe/fsw/cfe-core/src/tbl/cfe_tbl_internal.c ****     {
 744:/home/simulink/cFS_FreeRTOS_seL4/cfe/fsw/cfe-core/src/tbl/cfe_tbl_internal.c ****         if (CFE_TBL_TaskData.Handles[i].UsedFlag == FALSE)
 1632               	.loc 1 744 0
 1633 0dd4 3017      	move.w (%sp),%d0
 1634 0dd6 48C0      	ext.l %d0
 1635 0dd8 E988      	lsl.l #4,%d0
 1636 0dda 41F9 0000 	lea CFE_TBL_TaskData+886,%a0
 1636      0000 
 1637 0de0 1030 0800 	move.b (%a0,%d0.l),%d0
 1638 0de4 4A00      	tst.b %d0
 1639 0de6 6606      	jne .L77
 745:/home/simulink/cFS_FreeRTOS_seL4/cfe/fsw/cfe-core/src/tbl/cfe_tbl_internal.c ****         {
 746:/home/simulink/cFS_FreeRTOS_seL4/cfe/fsw/cfe-core/src/tbl/cfe_tbl_internal.c ****             HandleIndx = i;
 1640               	.loc 1 746 0
 1641 0de8 3F57 0002 	move.w (%sp),2(%sp)
 1642 0dec 6008      	jra .L76
 1643               	.L77:
 747:/home/simulink/cFS_FreeRTOS_seL4/cfe/fsw/cfe-core/src/tbl/cfe_tbl_internal.c ****         }
 748:/home/simulink/cFS_FreeRTOS_seL4/cfe/fsw/cfe-core/src/tbl/cfe_tbl_internal.c ****         else
 749:/home/simulink/cFS_FreeRTOS_seL4/cfe/fsw/cfe-core/src/tbl/cfe_tbl_internal.c ****         {
 750:/home/simulink/cFS_FreeRTOS_seL4/cfe/fsw/cfe-core/src/tbl/cfe_tbl_internal.c ****             i++;
 1644               	.loc 1 750 0
 1645 0dee 3017      	move.w (%sp),%d0
 1646 0df0 5280      	addq.l #1,%d0
 1647 0df2 3000      	move.w %d0,%d0
 1648 0df4 3E80      	move.w %d0,(%sp)
 1649               	.L76:
 742:/home/simulink/cFS_FreeRTOS_seL4/cfe/fsw/cfe-core/src/tbl/cfe_tbl_internal.c ****     {
 1650               	.loc 1 742 0
 1651 0df6 306F 0002 	move.w 2(%sp),%a0
 1652 0dfa 70FF      	moveq #-1,%d0
68K GAS   			page 48


 1653 0dfc B088      	cmp.l %a0,%d0
 1654 0dfe 660A      	jne .L78
 742:/home/simulink/cFS_FreeRTOS_seL4/cfe/fsw/cfe-core/src/tbl/cfe_tbl_internal.c ****     {
 1655               	.loc 1 742 0 is_stmt 0 discriminator 1
 1656 0e00 3057      	move.w (%sp),%a0
 1657 0e02 B1FC 0000 	cmp.l #255,%a0
 1657      00FF 
 1658 0e08 6FCA      	jle .L79
 1659               	.L78:
 751:/home/simulink/cFS_FreeRTOS_seL4/cfe/fsw/cfe-core/src/tbl/cfe_tbl_internal.c ****         }
 752:/home/simulink/cFS_FreeRTOS_seL4/cfe/fsw/cfe-core/src/tbl/cfe_tbl_internal.c ****     }
 753:/home/simulink/cFS_FreeRTOS_seL4/cfe/fsw/cfe-core/src/tbl/cfe_tbl_internal.c **** 
 754:/home/simulink/cFS_FreeRTOS_seL4/cfe/fsw/cfe-core/src/tbl/cfe_tbl_internal.c ****     return HandleIndx;
 1660               	.loc 1 754 0 is_stmt 1
 1661 0e0a 302F 0002 	move.w 2(%sp),%d0
 755:/home/simulink/cFS_FreeRTOS_seL4/cfe/fsw/cfe-core/src/tbl/cfe_tbl_internal.c **** }   /* End of CFE_TBL_FindFreeHandle() */
 1662               	.loc 1 755 0
 1663 0e0e 588F      	addq.l #4,%sp
 1664 0e10 4E75      	rts
 1665               	.cfi_endproc
 1666               	.LFE70:
 1667               	.sizeCFE_TBL_FindFreeHandle, .-CFE_TBL_FindFreeHandle
 1668               	.section.rodata
 1669               	.LC22:
 1670 04cc 2573 2E25 	.string"%s.%s"
 1670      7300 
 1671               	.text
 1672               	.align2
 1673               	.globlCFE_TBL_FormTableName
 1674               	.typeCFE_TBL_FormTableName, @function
 1675               	CFE_TBL_FormTableName:
 1676               	.LFB71:
 756:/home/simulink/cFS_FreeRTOS_seL4/cfe/fsw/cfe-core/src/tbl/cfe_tbl_internal.c **** 
 757:/home/simulink/cFS_FreeRTOS_seL4/cfe/fsw/cfe-core/src/tbl/cfe_tbl_internal.c **** 
 758:/home/simulink/cFS_FreeRTOS_seL4/cfe/fsw/cfe-core/src/tbl/cfe_tbl_internal.c **** /*******************************************************************
 759:/home/simulink/cFS_FreeRTOS_seL4/cfe/fsw/cfe-core/src/tbl/cfe_tbl_internal.c **** **
 760:/home/simulink/cFS_FreeRTOS_seL4/cfe/fsw/cfe-core/src/tbl/cfe_tbl_internal.c **** ** CFE_TBL_FormTableName
 761:/home/simulink/cFS_FreeRTOS_seL4/cfe/fsw/cfe-core/src/tbl/cfe_tbl_internal.c **** **
 762:/home/simulink/cFS_FreeRTOS_seL4/cfe/fsw/cfe-core/src/tbl/cfe_tbl_internal.c **** ** NOTE: For complete prolog information, see 'cfe_tbl_internal.h'
 763:/home/simulink/cFS_FreeRTOS_seL4/cfe/fsw/cfe-core/src/tbl/cfe_tbl_internal.c **** ********************************************************************/
 764:/home/simulink/cFS_FreeRTOS_seL4/cfe/fsw/cfe-core/src/tbl/cfe_tbl_internal.c **** 
 765:/home/simulink/cFS_FreeRTOS_seL4/cfe/fsw/cfe-core/src/tbl/cfe_tbl_internal.c **** void CFE_TBL_FormTableName(char *FullTblName, const char *TblName, uint32 ThisAppId)
 766:/home/simulink/cFS_FreeRTOS_seL4/cfe/fsw/cfe-core/src/tbl/cfe_tbl_internal.c **** {
 1677               	.loc 1 766 0
 1678               	.cfi_startproc
 1679 0e12 4FEF FFEC 	lea (-20,%sp),%sp
 1680               	.cfi_def_cfa_offset 24
 767:/home/simulink/cFS_FreeRTOS_seL4/cfe/fsw/cfe-core/src/tbl/cfe_tbl_internal.c ****     char AppName[OS_MAX_API_NAME];
 768:/home/simulink/cFS_FreeRTOS_seL4/cfe/fsw/cfe-core/src/tbl/cfe_tbl_internal.c **** 
 769:/home/simulink/cFS_FreeRTOS_seL4/cfe/fsw/cfe-core/src/tbl/cfe_tbl_internal.c ****     CFE_ES_GetAppName(AppName, ThisAppId, OS_MAX_API_NAME);
 1681               	.loc 1 769 0
 1682 0e16 4878 0014 	pea 20.w
 1683               	.cfi_def_cfa_offset 28
 1684 0e1a 2F2F 0024 	move.l 36(%sp),-(%sp)
 1685               	.cfi_def_cfa_offset 32
 1686 0e1e 200F      	move.l %sp,%d0
 1687 0e20 5080      	addq.l #8,%d0
68K GAS   			page 49


 1688 0e22 2F00      	move.l %d0,-(%sp)
 1689               	.cfi_def_cfa_offset 36
 1690 0e24 4EB9 0000 	jsr CFE_ES_GetAppName
 1690      0000 
 1691 0e2a 4FEF 000C 	lea (12,%sp),%sp
 1692               	.cfi_def_cfa_offset 24
 770:/home/simulink/cFS_FreeRTOS_seL4/cfe/fsw/cfe-core/src/tbl/cfe_tbl_internal.c **** 
 771:/home/simulink/cFS_FreeRTOS_seL4/cfe/fsw/cfe-core/src/tbl/cfe_tbl_internal.c ****     /* Ensure that AppName is null terminated */
 772:/home/simulink/cFS_FreeRTOS_seL4/cfe/fsw/cfe-core/src/tbl/cfe_tbl_internal.c ****     AppName[OS_MAX_API_NAME-1] = '\0';
 1693               	.loc 1 772 0
 1694 0e2e 4200      	clr.b %d0
 1695 0e30 1F40 0013 	move.b %d0,19(%sp)
 773:/home/simulink/cFS_FreeRTOS_seL4/cfe/fsw/cfe-core/src/tbl/cfe_tbl_internal.c **** 
 774:/home/simulink/cFS_FreeRTOS_seL4/cfe/fsw/cfe-core/src/tbl/cfe_tbl_internal.c ****     /* Complete formation of processor specific table name */
 775:/home/simulink/cFS_FreeRTOS_seL4/cfe/fsw/cfe-core/src/tbl/cfe_tbl_internal.c ****     sprintf(FullTblName, "%s.%s", AppName, TblName);
 1696               	.loc 1 775 0
 1697 0e34 2F2F 001C 	move.l 28(%sp),-(%sp)
 1698               	.cfi_def_cfa_offset 28
 1699 0e38 200F      	move.l %sp,%d0
 1700 0e3a 5880      	addq.l #4,%d0
 1701 0e3c 2F00      	move.l %d0,-(%sp)
 1702               	.cfi_def_cfa_offset 32
 1703 0e3e 4879 0000 	pea .LC22
 1703      0000 
 1704               	.cfi_def_cfa_offset 36
 1705 0e44 2F2F 0024 	move.l 36(%sp),-(%sp)
 1706               	.cfi_def_cfa_offset 40
 1707 0e48 4EB9 0000 	jsr sprintf
 1707      0000 
 1708 0e4e 4FEF 0010 	lea (16,%sp),%sp
 1709               	.cfi_def_cfa_offset 24
 776:/home/simulink/cFS_FreeRTOS_seL4/cfe/fsw/cfe-core/src/tbl/cfe_tbl_internal.c **** 
 777:/home/simulink/cFS_FreeRTOS_seL4/cfe/fsw/cfe-core/src/tbl/cfe_tbl_internal.c ****     return;
 1710               	.loc 1 777 0
 1711 0e52 4E71      	nop
 778:/home/simulink/cFS_FreeRTOS_seL4/cfe/fsw/cfe-core/src/tbl/cfe_tbl_internal.c **** }   /* End of CFE_TBL_FormTableName() */
 1712               	.loc 1 778 0
 1713 0e54 4FEF 0014 	lea (20,%sp),%sp
 1714 0e58 4E75      	rts
 1715               	.cfi_endproc
 1716               	.LFE71:
 1717               	.sizeCFE_TBL_FormTableName, .-CFE_TBL_FormTableName
 1718               	.align2
 1719               	.globlCFE_TBL_LockRegistry
 1720               	.typeCFE_TBL_LockRegistry, @function
 1721               	CFE_TBL_LockRegistry:
 1722               	.LFB72:
 779:/home/simulink/cFS_FreeRTOS_seL4/cfe/fsw/cfe-core/src/tbl/cfe_tbl_internal.c **** 
 780:/home/simulink/cFS_FreeRTOS_seL4/cfe/fsw/cfe-core/src/tbl/cfe_tbl_internal.c **** 
 781:/home/simulink/cFS_FreeRTOS_seL4/cfe/fsw/cfe-core/src/tbl/cfe_tbl_internal.c **** /*******************************************************************
 782:/home/simulink/cFS_FreeRTOS_seL4/cfe/fsw/cfe-core/src/tbl/cfe_tbl_internal.c **** **
 783:/home/simulink/cFS_FreeRTOS_seL4/cfe/fsw/cfe-core/src/tbl/cfe_tbl_internal.c **** ** CFE_TBL_LockRegistry
 784:/home/simulink/cFS_FreeRTOS_seL4/cfe/fsw/cfe-core/src/tbl/cfe_tbl_internal.c **** **
 785:/home/simulink/cFS_FreeRTOS_seL4/cfe/fsw/cfe-core/src/tbl/cfe_tbl_internal.c **** ** NOTE: For complete prolog information, see 'cfe_tbl_internal.h'
 786:/home/simulink/cFS_FreeRTOS_seL4/cfe/fsw/cfe-core/src/tbl/cfe_tbl_internal.c **** ********************************************************************/
 787:/home/simulink/cFS_FreeRTOS_seL4/cfe/fsw/cfe-core/src/tbl/cfe_tbl_internal.c **** 
 788:/home/simulink/cFS_FreeRTOS_seL4/cfe/fsw/cfe-core/src/tbl/cfe_tbl_internal.c **** int32 CFE_TBL_LockRegistry(void)
68K GAS   			page 50


 789:/home/simulink/cFS_FreeRTOS_seL4/cfe/fsw/cfe-core/src/tbl/cfe_tbl_internal.c **** {
 1723               	.loc 1 789 0
 1724               	.cfi_startproc
 1725 0e5a 598F      	subq.l #4,%sp
 1726               	.cfi_def_cfa_offset 8
 790:/home/simulink/cFS_FreeRTOS_seL4/cfe/fsw/cfe-core/src/tbl/cfe_tbl_internal.c ****     int32   Status;
 791:/home/simulink/cFS_FreeRTOS_seL4/cfe/fsw/cfe-core/src/tbl/cfe_tbl_internal.c **** 
 792:/home/simulink/cFS_FreeRTOS_seL4/cfe/fsw/cfe-core/src/tbl/cfe_tbl_internal.c ****     Status = OS_MutSemTake(CFE_TBL_TaskData.RegistryMutex);
 1727               	.loc 1 792 0
 1728 0e5c 2039 0000 	move.l CFE_TBL_TaskData+528,%d0
 1728      0000 
 1729 0e62 2F00      	move.l %d0,-(%sp)
 1730               	.cfi_def_cfa_offset 12
 1731 0e64 4EB9 0000 	jsr OS_MutSemTake
 1731      0000 
 1732 0e6a 588F      	addq.l #4,%sp
 1733               	.cfi_def_cfa_offset 8
 1734 0e6c 2E80      	move.l %d0,(%sp)
 793:/home/simulink/cFS_FreeRTOS_seL4/cfe/fsw/cfe-core/src/tbl/cfe_tbl_internal.c **** 
 794:/home/simulink/cFS_FreeRTOS_seL4/cfe/fsw/cfe-core/src/tbl/cfe_tbl_internal.c ****     if (Status == OS_SUCCESS)
 1735               	.loc 1 794 0
 1736 0e6e 4A97      	tst.l (%sp)
 1737 0e70 6602      	jne .L84
 795:/home/simulink/cFS_FreeRTOS_seL4/cfe/fsw/cfe-core/src/tbl/cfe_tbl_internal.c ****     {
 796:/home/simulink/cFS_FreeRTOS_seL4/cfe/fsw/cfe-core/src/tbl/cfe_tbl_internal.c ****         Status = CFE_SUCCESS;
 1738               	.loc 1 796 0
 1739 0e72 4297      	clr.l (%sp)
 1740               	.L84:
 797:/home/simulink/cFS_FreeRTOS_seL4/cfe/fsw/cfe-core/src/tbl/cfe_tbl_internal.c **** 
 798:/home/simulink/cFS_FreeRTOS_seL4/cfe/fsw/cfe-core/src/tbl/cfe_tbl_internal.c ****     }
 799:/home/simulink/cFS_FreeRTOS_seL4/cfe/fsw/cfe-core/src/tbl/cfe_tbl_internal.c **** 
 800:/home/simulink/cFS_FreeRTOS_seL4/cfe/fsw/cfe-core/src/tbl/cfe_tbl_internal.c ****     return Status;
 1741               	.loc 1 800 0
 1742 0e74 2017      	move.l (%sp),%d0
 801:/home/simulink/cFS_FreeRTOS_seL4/cfe/fsw/cfe-core/src/tbl/cfe_tbl_internal.c **** 
 802:/home/simulink/cFS_FreeRTOS_seL4/cfe/fsw/cfe-core/src/tbl/cfe_tbl_internal.c **** }   /* End of CFE_TBL_LockRegistry() */
 1743               	.loc 1 802 0
 1744 0e76 588F      	addq.l #4,%sp
 1745 0e78 4E75      	rts
 1746               	.cfi_endproc
 1747               	.LFE72:
 1748               	.sizeCFE_TBL_LockRegistry, .-CFE_TBL_LockRegistry
 1749               	.align2
 1750               	.globlCFE_TBL_UnlockRegistry
 1751               	.typeCFE_TBL_UnlockRegistry, @function
 1752               	CFE_TBL_UnlockRegistry:
 1753               	.LFB73:
 803:/home/simulink/cFS_FreeRTOS_seL4/cfe/fsw/cfe-core/src/tbl/cfe_tbl_internal.c **** 
 804:/home/simulink/cFS_FreeRTOS_seL4/cfe/fsw/cfe-core/src/tbl/cfe_tbl_internal.c **** 
 805:/home/simulink/cFS_FreeRTOS_seL4/cfe/fsw/cfe-core/src/tbl/cfe_tbl_internal.c **** /*******************************************************************
 806:/home/simulink/cFS_FreeRTOS_seL4/cfe/fsw/cfe-core/src/tbl/cfe_tbl_internal.c **** **
 807:/home/simulink/cFS_FreeRTOS_seL4/cfe/fsw/cfe-core/src/tbl/cfe_tbl_internal.c **** ** CFE_TBL_UnlockRegistry
 808:/home/simulink/cFS_FreeRTOS_seL4/cfe/fsw/cfe-core/src/tbl/cfe_tbl_internal.c **** **
 809:/home/simulink/cFS_FreeRTOS_seL4/cfe/fsw/cfe-core/src/tbl/cfe_tbl_internal.c **** ** NOTE: For complete prolog information, see 'cfe_tbl_internal.h'
 810:/home/simulink/cFS_FreeRTOS_seL4/cfe/fsw/cfe-core/src/tbl/cfe_tbl_internal.c **** ********************************************************************/
 811:/home/simulink/cFS_FreeRTOS_seL4/cfe/fsw/cfe-core/src/tbl/cfe_tbl_internal.c **** 
 812:/home/simulink/cFS_FreeRTOS_seL4/cfe/fsw/cfe-core/src/tbl/cfe_tbl_internal.c **** int32 CFE_TBL_UnlockRegistry(void)
68K GAS   			page 51


 813:/home/simulink/cFS_FreeRTOS_seL4/cfe/fsw/cfe-core/src/tbl/cfe_tbl_internal.c **** {
 1754               	.loc 1 813 0
 1755               	.cfi_startproc
 1756 0e7a 598F      	subq.l #4,%sp
 1757               	.cfi_def_cfa_offset 8
 814:/home/simulink/cFS_FreeRTOS_seL4/cfe/fsw/cfe-core/src/tbl/cfe_tbl_internal.c ****     int32   Status;
 815:/home/simulink/cFS_FreeRTOS_seL4/cfe/fsw/cfe-core/src/tbl/cfe_tbl_internal.c **** 
 816:/home/simulink/cFS_FreeRTOS_seL4/cfe/fsw/cfe-core/src/tbl/cfe_tbl_internal.c ****     Status = OS_MutSemGive(CFE_TBL_TaskData.RegistryMutex);
 1758               	.loc 1 816 0
 1759 0e7c 2039 0000 	move.l CFE_TBL_TaskData+528,%d0
 1759      0000 
 1760 0e82 2F00      	move.l %d0,-(%sp)
 1761               	.cfi_def_cfa_offset 12
 1762 0e84 4EB9 0000 	jsr OS_MutSemGive
 1762      0000 
 1763 0e8a 588F      	addq.l #4,%sp
 1764               	.cfi_def_cfa_offset 8
 1765 0e8c 2E80      	move.l %d0,(%sp)
 817:/home/simulink/cFS_FreeRTOS_seL4/cfe/fsw/cfe-core/src/tbl/cfe_tbl_internal.c **** 
 818:/home/simulink/cFS_FreeRTOS_seL4/cfe/fsw/cfe-core/src/tbl/cfe_tbl_internal.c ****     if (Status == OS_SUCCESS)
 1766               	.loc 1 818 0
 1767 0e8e 4A97      	tst.l (%sp)
 1768 0e90 6602      	jne .L87
 819:/home/simulink/cFS_FreeRTOS_seL4/cfe/fsw/cfe-core/src/tbl/cfe_tbl_internal.c ****     {
 820:/home/simulink/cFS_FreeRTOS_seL4/cfe/fsw/cfe-core/src/tbl/cfe_tbl_internal.c ****         Status = CFE_SUCCESS;
 1769               	.loc 1 820 0
 1770 0e92 4297      	clr.l (%sp)
 1771               	.L87:
 821:/home/simulink/cFS_FreeRTOS_seL4/cfe/fsw/cfe-core/src/tbl/cfe_tbl_internal.c **** 
 822:/home/simulink/cFS_FreeRTOS_seL4/cfe/fsw/cfe-core/src/tbl/cfe_tbl_internal.c ****     }
 823:/home/simulink/cFS_FreeRTOS_seL4/cfe/fsw/cfe-core/src/tbl/cfe_tbl_internal.c **** 
 824:/home/simulink/cFS_FreeRTOS_seL4/cfe/fsw/cfe-core/src/tbl/cfe_tbl_internal.c ****     return Status;
 1772               	.loc 1 824 0
 1773 0e94 2017      	move.l (%sp),%d0
 825:/home/simulink/cFS_FreeRTOS_seL4/cfe/fsw/cfe-core/src/tbl/cfe_tbl_internal.c **** 
 826:/home/simulink/cFS_FreeRTOS_seL4/cfe/fsw/cfe-core/src/tbl/cfe_tbl_internal.c **** }   /* End of CFE_TBL_UnlockRegistry() */
 1774               	.loc 1 826 0
 1775 0e96 588F      	addq.l #4,%sp
 1776 0e98 4E75      	rts
 1777               	.cfi_endproc
 1778               	.LFE73:
 1779               	.sizeCFE_TBL_UnlockRegistry, .-CFE_TBL_UnlockRegistry
 1780               	.section.rodata
 1781               	.LC23:
 1782 04d2 4346 455F 	.string"CFE_TBL:GetWorkingBuffer-Inactive Dbl Buff Locked for '%s' by AppId=%d\n"
 1782      5442 4C3A 
 1782      4765 7457 
 1782      6F72 6B69 
 1782      6E67 4275 
 1783               	.LC24:
 1784 051a 4346 455F 	.string"CFE_TBL:GetWorkBuf-Internal error taking WorkBuf Mutex (Status=0x%08X)\n"
 1784      5442 4C3A 
 1784      4765 7457 
 1784      6F72 6B42 
 1784      7566 2D49 
 1785               	.LC25:
 1786 0562 4346 455F 	.string"CFE_TBL:GetWorkingBuffer-All shared buffers are locked\n"
68K GAS   			page 52


 1786      5442 4C3A 
 1786      4765 7457 
 1786      6F72 6B69 
 1786      6E67 4275 
 1787               	.text
 1788               	.align2
 1789               	.globlCFE_TBL_GetWorkingBuffer
 1790               	.typeCFE_TBL_GetWorkingBuffer, @function
 1791               	CFE_TBL_GetWorkingBuffer:
 1792               	.LFB74:
 827:/home/simulink/cFS_FreeRTOS_seL4/cfe/fsw/cfe-core/src/tbl/cfe_tbl_internal.c **** 
 828:/home/simulink/cFS_FreeRTOS_seL4/cfe/fsw/cfe-core/src/tbl/cfe_tbl_internal.c **** 
 829:/home/simulink/cFS_FreeRTOS_seL4/cfe/fsw/cfe-core/src/tbl/cfe_tbl_internal.c **** /*******************************************************************
 830:/home/simulink/cFS_FreeRTOS_seL4/cfe/fsw/cfe-core/src/tbl/cfe_tbl_internal.c **** **
 831:/home/simulink/cFS_FreeRTOS_seL4/cfe/fsw/cfe-core/src/tbl/cfe_tbl_internal.c **** ** CFE_TBL_GetWorkingBuffer
 832:/home/simulink/cFS_FreeRTOS_seL4/cfe/fsw/cfe-core/src/tbl/cfe_tbl_internal.c **** **
 833:/home/simulink/cFS_FreeRTOS_seL4/cfe/fsw/cfe-core/src/tbl/cfe_tbl_internal.c **** ** NOTE: For complete prolog information, see 'cfe_tbl_internal.h'
 834:/home/simulink/cFS_FreeRTOS_seL4/cfe/fsw/cfe-core/src/tbl/cfe_tbl_internal.c **** ********************************************************************/
 835:/home/simulink/cFS_FreeRTOS_seL4/cfe/fsw/cfe-core/src/tbl/cfe_tbl_internal.c **** 
 836:/home/simulink/cFS_FreeRTOS_seL4/cfe/fsw/cfe-core/src/tbl/cfe_tbl_internal.c **** int32 CFE_TBL_GetWorkingBuffer(CFE_TBL_LoadBuff_t **WorkingBufferPtr,
 837:/home/simulink/cFS_FreeRTOS_seL4/cfe/fsw/cfe-core/src/tbl/cfe_tbl_internal.c ****                                CFE_TBL_RegistryRec_t *RegRecPtr,
 838:/home/simulink/cFS_FreeRTOS_seL4/cfe/fsw/cfe-core/src/tbl/cfe_tbl_internal.c ****                                boolean CalledByApp)
 839:/home/simulink/cFS_FreeRTOS_seL4/cfe/fsw/cfe-core/src/tbl/cfe_tbl_internal.c **** {
 1793               	.loc 1 839 0
 1794               	.cfi_startproc
 1795 0e9a 4FEF FFEC 	lea (-20,%sp),%sp
 1796               	.cfi_def_cfa_offset 24
 1797 0e9e 2F02      	move.l %d2,-(%sp)
 1798               	.cfi_def_cfa_offset 28
 1799               	.cfi_offset 2, -28
 1800 0ea0 202F 0024 	move.l 36(%sp),%d0
 1801 0ea4 1000      	move.b %d0,%d0
 1802 0ea6 1F40 0004 	move.b %d0,4(%sp)
 840:/home/simulink/cFS_FreeRTOS_seL4/cfe/fsw/cfe-core/src/tbl/cfe_tbl_internal.c ****     int32   Status = CFE_SUCCESS;
 1803               	.loc 1 840 0
 1804 0eaa 42AF 0014 	clr.l 20(%sp)
 841:/home/simulink/cFS_FreeRTOS_seL4/cfe/fsw/cfe-core/src/tbl/cfe_tbl_internal.c ****     int32   i;
 842:/home/simulink/cFS_FreeRTOS_seL4/cfe/fsw/cfe-core/src/tbl/cfe_tbl_internal.c ****     int32   InactiveBufferIndex;
 843:/home/simulink/cFS_FreeRTOS_seL4/cfe/fsw/cfe-core/src/tbl/cfe_tbl_internal.c ****     CFE_TBL_Handle_t AccessIterator;
 844:/home/simulink/cFS_FreeRTOS_seL4/cfe/fsw/cfe-core/src/tbl/cfe_tbl_internal.c **** 
 845:/home/simulink/cFS_FreeRTOS_seL4/cfe/fsw/cfe-core/src/tbl/cfe_tbl_internal.c ****     /* Initialize return pointer to NULL */
 846:/home/simulink/cFS_FreeRTOS_seL4/cfe/fsw/cfe-core/src/tbl/cfe_tbl_internal.c ****     *WorkingBufferPtr = NULL;
 1805               	.loc 1 846 0
 1806 0eae 206F 001C 	move.l 28(%sp),%a0
 1807 0eb2 4290      	clr.l (%a0)
 847:/home/simulink/cFS_FreeRTOS_seL4/cfe/fsw/cfe-core/src/tbl/cfe_tbl_internal.c **** 
 848:/home/simulink/cFS_FreeRTOS_seL4/cfe/fsw/cfe-core/src/tbl/cfe_tbl_internal.c ****     /* If a load is already in progress, return the previously allocated working buffer */
 849:/home/simulink/cFS_FreeRTOS_seL4/cfe/fsw/cfe-core/src/tbl/cfe_tbl_internal.c ****     if (RegRecPtr->LoadInProgress != CFE_TBL_NO_LOAD_IN_PROGRESS)
 1808               	.loc 1 849 0
 1809 0eb4 206F 0020 	move.l 32(%sp),%a0
 1810 0eb8 2028 00C8 	move.l 200(%a0),%d0
 1811 0ebc 72FF      	moveq #-1,%d1
 1812 0ebe B280      	cmp.l %d0,%d1
 1813 0ec0 6760      	jeq .L90
 850:/home/simulink/cFS_FreeRTOS_seL4/cfe/fsw/cfe-core/src/tbl/cfe_tbl_internal.c ****     {
 851:/home/simulink/cFS_FreeRTOS_seL4/cfe/fsw/cfe-core/src/tbl/cfe_tbl_internal.c ****         if (RegRecPtr->DblBuffered)
 1814               	.loc 1 851 0
68K GAS   			page 53


 1815 0ec2 206F 0020 	move.l 32(%sp),%a0
 1816 0ec6 1028 00E2 	move.b 226(%a0),%d0
 1817 0eca 4A00      	tst.b %d0
 1818 0ecc 6730      	jeq .L91
 852:/home/simulink/cFS_FreeRTOS_seL4/cfe/fsw/cfe-core/src/tbl/cfe_tbl_internal.c ****         {
 853:/home/simulink/cFS_FreeRTOS_seL4/cfe/fsw/cfe-core/src/tbl/cfe_tbl_internal.c ****             *WorkingBufferPtr = &RegRecPtr->Buffers[(1U-RegRecPtr->ActiveBufferIndex)];
 1819               	.loc 1 853 0
 1820 0ece 206F 0020 	move.l 32(%sp),%a0
 1821 0ed2 1028 00E5 	move.b 229(%a0),%d0
 1822 0ed6 1000      	move.b %d0,%d0
 1823 0ed8 0280 0000 	and.l #255,%d0
 1823      00FF 
 1824 0ede 7401      	moveq #1,%d2
 1825 0ee0 9480      	sub.l %d0,%d2
 1826 0ee2 2002      	move.l %d2,%d0
 1827 0ee4 7254      	moveq #84,%d1
 1828 0ee6 4C01 0800 	muls.l %d1,%d0
 1829 0eea 0680 0000 	add.l #16,%d0
 1829      0010 
 1830 0ef0 D0AF 0020 	add.l 32(%sp),%d0
 1831 0ef4 206F 001C 	move.l 28(%sp),%a0
 1832 0ef8 2080      	move.l %d0,(%a0)
 1833 0efa 6000 02A8 	jra .L93
 1834               	.L91:
 854:/home/simulink/cFS_FreeRTOS_seL4/cfe/fsw/cfe-core/src/tbl/cfe_tbl_internal.c ****         }
 855:/home/simulink/cFS_FreeRTOS_seL4/cfe/fsw/cfe-core/src/tbl/cfe_tbl_internal.c ****         else
 856:/home/simulink/cFS_FreeRTOS_seL4/cfe/fsw/cfe-core/src/tbl/cfe_tbl_internal.c ****         {
 857:/home/simulink/cFS_FreeRTOS_seL4/cfe/fsw/cfe-core/src/tbl/cfe_tbl_internal.c ****             *WorkingBufferPtr = &CFE_TBL_TaskData.LoadBuffs[RegRecPtr->LoadInProgress];
 1835               	.loc 1 857 0
 1836 0efe 206F 0020 	move.l 32(%sp),%a0
 1837 0f02 2028 00C8 	move.l 200(%a0),%d0
 1838 0f06 7454      	moveq #84,%d2
 1839 0f08 4C02 0800 	muls.l %d2,%d0
 1840 0f0c 0680 0000 	add.l #540,%d0
 1840      021C 
 1841 0f12 0680 0000 	add.l #CFE_TBL_TaskData,%d0
 1841      0000 
 1842 0f18 206F 001C 	move.l 28(%sp),%a0
 1843 0f1c 2080      	move.l %d0,(%a0)
 1844 0f1e 6000 0284 	jra .L93
 1845               	.L90:
 858:/home/simulink/cFS_FreeRTOS_seL4/cfe/fsw/cfe-core/src/tbl/cfe_tbl_internal.c ****         }
 859:/home/simulink/cFS_FreeRTOS_seL4/cfe/fsw/cfe-core/src/tbl/cfe_tbl_internal.c ****     }
 860:/home/simulink/cFS_FreeRTOS_seL4/cfe/fsw/cfe-core/src/tbl/cfe_tbl_internal.c ****     else
 861:/home/simulink/cFS_FreeRTOS_seL4/cfe/fsw/cfe-core/src/tbl/cfe_tbl_internal.c ****     {
 862:/home/simulink/cFS_FreeRTOS_seL4/cfe/fsw/cfe-core/src/tbl/cfe_tbl_internal.c ****         /* If the table is uninitialized and the function is called by an application (rather than 
 863:/home/simulink/cFS_FreeRTOS_seL4/cfe/fsw/cfe-core/src/tbl/cfe_tbl_internal.c ****         /* by the Table Services application), then use the current active buffer as the working bu
 864:/home/simulink/cFS_FreeRTOS_seL4/cfe/fsw/cfe-core/src/tbl/cfe_tbl_internal.c ****         /* This allows many tasks with many tables to perform the initialization without conflict  
 865:/home/simulink/cFS_FreeRTOS_seL4/cfe/fsw/cfe-core/src/tbl/cfe_tbl_internal.c ****         /* over the accessibility of the shared working buffers.                                   
 866:/home/simulink/cFS_FreeRTOS_seL4/cfe/fsw/cfe-core/src/tbl/cfe_tbl_internal.c ****         if ((RegRecPtr->TableLoadedOnce == FALSE) && (CalledByApp == TRUE))
 1846               	.loc 1 866 0
 1847 0f22 206F 0020 	move.l 32(%sp),%a0
 1848 0f26 1028 00DF 	move.b 223(%a0),%d0
 1849 0f2a 4A00      	tst.b %d0
 1850 0f2c 6656      	jne .L94
 1851               	.loc 1 866 0 is_stmt 0 discriminator 1
 1852 0f2e 4280      	clr.l %d0
68K GAS   			page 54


 1853 0f30 102F 0004 	move.b 4(%sp),%d0
 1854 0f34 7201      	moveq #1,%d1
 1855 0f36 B280      	cmp.l %d0,%d1
 1856 0f38 664A      	jne .L94
 867:/home/simulink/cFS_FreeRTOS_seL4/cfe/fsw/cfe-core/src/tbl/cfe_tbl_internal.c ****         {
 868:/home/simulink/cFS_FreeRTOS_seL4/cfe/fsw/cfe-core/src/tbl/cfe_tbl_internal.c ****             if (RegRecPtr->DblBuffered)
 1857               	.loc 1 868 0 is_stmt 1
 1858 0f3a 206F 0020 	move.l 32(%sp),%a0
 1859 0f3e 1028 00E2 	move.b 226(%a0),%d0
 1860 0f42 4A00      	tst.b %d0
 1861 0f44 672A      	jeq .L95
 869:/home/simulink/cFS_FreeRTOS_seL4/cfe/fsw/cfe-core/src/tbl/cfe_tbl_internal.c ****             {
 870:/home/simulink/cFS_FreeRTOS_seL4/cfe/fsw/cfe-core/src/tbl/cfe_tbl_internal.c ****                 *WorkingBufferPtr = &RegRecPtr->Buffers[RegRecPtr->ActiveBufferIndex];
 1862               	.loc 1 870 0
 1863 0f46 206F 0020 	move.l 32(%sp),%a0
 1864 0f4a 1028 00E5 	move.b 229(%a0),%d0
 1865 0f4e 1000      	move.b %d0,%d0
 1866 0f50 0280 0000 	and.l #255,%d0
 1866      00FF 
 1867 0f56 7454      	moveq #84,%d2
 1868 0f58 4C02 0800 	muls.l %d2,%d0
 1869 0f5c 0680 0000 	add.l #16,%d0
 1869      0010 
 1870 0f62 D0AF 0020 	add.l 32(%sp),%d0
 1871 0f66 206F 001C 	move.l 28(%sp),%a0
 1872 0f6a 2080      	move.l %d0,(%a0)
 868:/home/simulink/cFS_FreeRTOS_seL4/cfe/fsw/cfe-core/src/tbl/cfe_tbl_internal.c ****             {
 1873               	.loc 1 868 0
 1874 0f6c 6000 0236 	jra .L93
 1875               	.L95:
 871:/home/simulink/cFS_FreeRTOS_seL4/cfe/fsw/cfe-core/src/tbl/cfe_tbl_internal.c ****             }
 872:/home/simulink/cFS_FreeRTOS_seL4/cfe/fsw/cfe-core/src/tbl/cfe_tbl_internal.c ****             else
 873:/home/simulink/cFS_FreeRTOS_seL4/cfe/fsw/cfe-core/src/tbl/cfe_tbl_internal.c ****             {
 874:/home/simulink/cFS_FreeRTOS_seL4/cfe/fsw/cfe-core/src/tbl/cfe_tbl_internal.c ****                 *WorkingBufferPtr = &RegRecPtr->Buffers[0];
 1876               	.loc 1 874 0
 1877 0f70 202F 0020 	move.l 32(%sp),%d0
 1878 0f74 0680 0000 	add.l #16,%d0
 1878      0010 
 1879 0f7a 206F 001C 	move.l 28(%sp),%a0
 1880 0f7e 2080      	move.l %d0,(%a0)
 868:/home/simulink/cFS_FreeRTOS_seL4/cfe/fsw/cfe-core/src/tbl/cfe_tbl_internal.c ****             {
 1881               	.loc 1 868 0
 1882 0f80 6000 0222 	jra .L93
 1883               	.L94:
 875:/home/simulink/cFS_FreeRTOS_seL4/cfe/fsw/cfe-core/src/tbl/cfe_tbl_internal.c ****             }
 876:/home/simulink/cFS_FreeRTOS_seL4/cfe/fsw/cfe-core/src/tbl/cfe_tbl_internal.c ****         }
 877:/home/simulink/cFS_FreeRTOS_seL4/cfe/fsw/cfe-core/src/tbl/cfe_tbl_internal.c ****         else
 878:/home/simulink/cFS_FreeRTOS_seL4/cfe/fsw/cfe-core/src/tbl/cfe_tbl_internal.c ****         {
 879:/home/simulink/cFS_FreeRTOS_seL4/cfe/fsw/cfe-core/src/tbl/cfe_tbl_internal.c ****             /* If the table is a double buffered table, then check to make sure the */
 880:/home/simulink/cFS_FreeRTOS_seL4/cfe/fsw/cfe-core/src/tbl/cfe_tbl_internal.c ****             /* inactive buffer has been freed by any Applications that may have been using it */
 881:/home/simulink/cFS_FreeRTOS_seL4/cfe/fsw/cfe-core/src/tbl/cfe_tbl_internal.c ****             if (RegRecPtr->DblBuffered)
 1884               	.loc 1 881 0
 1885 0f84 206F 0020 	move.l 32(%sp),%a0
 1886 0f88 1028 00E2 	move.b 226(%a0),%d0
 1887 0f8c 4A00      	tst.b %d0
 1888 0f8e 6700 00F2 	jeq .L97
 882:/home/simulink/cFS_FreeRTOS_seL4/cfe/fsw/cfe-core/src/tbl/cfe_tbl_internal.c ****             {
68K GAS   			page 55


 883:/home/simulink/cFS_FreeRTOS_seL4/cfe/fsw/cfe-core/src/tbl/cfe_tbl_internal.c ****                 /* Determine the index of the Inactive Buffer Pointer */
 884:/home/simulink/cFS_FreeRTOS_seL4/cfe/fsw/cfe-core/src/tbl/cfe_tbl_internal.c ****                 InactiveBufferIndex = 1 - RegRecPtr->ActiveBufferIndex;
 1889               	.loc 1 884 0
 1890 0f92 206F 0020 	move.l 32(%sp),%a0
 1891 0f96 1028 00E5 	move.b 229(%a0),%d0
 1892 0f9a 1000      	move.b %d0,%d0
 1893 0f9c 0280 0000 	and.l #255,%d0
 1893      00FF 
 1894 0fa2 7201      	moveq #1,%d1
 1895 0fa4 9280      	sub.l %d0,%d1
 1896 0fa6 2F41 0008 	move.l %d1,8(%sp)
 885:/home/simulink/cFS_FreeRTOS_seL4/cfe/fsw/cfe-core/src/tbl/cfe_tbl_internal.c **** 
 886:/home/simulink/cFS_FreeRTOS_seL4/cfe/fsw/cfe-core/src/tbl/cfe_tbl_internal.c ****                 /* Scan the access descriptor table to determine if anyone is still using the inact
 887:/home/simulink/cFS_FreeRTOS_seL4/cfe/fsw/cfe-core/src/tbl/cfe_tbl_internal.c ****                 AccessIterator = RegRecPtr->HeadOfAccessList;
 1897               	.loc 1 887 0
 1898 0faa 206F 0020 	move.l 32(%sp),%a0
 1899 0fae 3F68 00C4 	move.w 196(%a0),14(%sp)
 1899      000E 
 888:/home/simulink/cFS_FreeRTOS_seL4/cfe/fsw/cfe-core/src/tbl/cfe_tbl_internal.c ****                 while ((AccessIterator != CFE_TBL_END_OF_LIST) && (Status == CFE_SUCCESS))
 1900               	.loc 1 888 0
 1901 0fb4 6000 008A 	jra .L98
 1902               	.L101:
 889:/home/simulink/cFS_FreeRTOS_seL4/cfe/fsw/cfe-core/src/tbl/cfe_tbl_internal.c ****                 {
 890:/home/simulink/cFS_FreeRTOS_seL4/cfe/fsw/cfe-core/src/tbl/cfe_tbl_internal.c ****                     if ((CFE_TBL_TaskData.Handles[AccessIterator].BufferIndex == InactiveBufferInde
 1903               	.loc 1 890 0
 1904 0fb8 302F 000E 	move.w 14(%sp),%d0
 1905 0fbc 48C0      	ext.l %d0
 1906 0fbe E988      	lsl.l #4,%d0
 1907 0fc0 41F9 0000 	lea CFE_TBL_TaskData+889,%a0
 1907      0000 
 1908 0fc6 1030 0800 	move.b (%a0,%d0.l),%d0
 1909 0fca 1000      	move.b %d0,%d0
 1910 0fcc 0280 0000 	and.l #255,%d0
 1910      00FF 
 1911 0fd2 B0AF 0008 	cmp.l 8(%sp),%d0
 1912 0fd6 6652      	jne .L99
 891:/home/simulink/cFS_FreeRTOS_seL4/cfe/fsw/cfe-core/src/tbl/cfe_tbl_internal.c **** 		                (CFE_TBL_TaskData.Handles[AccessIterator].LockFlag))
 1913               	.loc 1 891 0 discriminator 1
 1914 0fd8 302F 000E 	move.w 14(%sp),%d0
 1915 0fdc 48C0      	ext.l %d0
 1916 0fde E988      	lsl.l #4,%d0
 1917 0fe0 41F9 0000 	lea CFE_TBL_TaskData+887,%a0
 1917      0000 
 1918 0fe6 1030 0800 	move.b (%a0,%d0.l),%d0
 890:/home/simulink/cFS_FreeRTOS_seL4/cfe/fsw/cfe-core/src/tbl/cfe_tbl_internal.c **** 		                (CFE_TBL_TaskData.Handles[AccessIterator].LockFlag))
 1919               	.loc 1 890 0 discriminator 1
 1920 0fea 4A00      	tst.b %d0
 1921 0fec 673C      	jeq .L99
 892:/home/simulink/cFS_FreeRTOS_seL4/cfe/fsw/cfe-core/src/tbl/cfe_tbl_internal.c ****                     {
 893:/home/simulink/cFS_FreeRTOS_seL4/cfe/fsw/cfe-core/src/tbl/cfe_tbl_internal.c ****                         Status = CFE_TBL_ERR_NO_BUFFER_AVAIL;
 1922               	.loc 1 893 0
 1923 0fee 243C CC00 	move.l #-872415217,%d2
 1923      000F 
 1924 0ff4 2F42 0014 	move.l %d2,20(%sp)
 894:/home/simulink/cFS_FreeRTOS_seL4/cfe/fsw/cfe-core/src/tbl/cfe_tbl_internal.c **** 
 895:/home/simulink/cFS_FreeRTOS_seL4/cfe/fsw/cfe-core/src/tbl/cfe_tbl_internal.c ****                         CFE_ES_WriteToSysLog("CFE_TBL:GetWorkingBuffer-Inactive Dbl Buff Locked for
 896:/home/simulink/cFS_FreeRTOS_seL4/cfe/fsw/cfe-core/src/tbl/cfe_tbl_internal.c ****                                              RegRecPtr->Name, (int)CFE_TBL_TaskData.Handles[AccessI
68K GAS   			page 56


 1925               	.loc 1 896 0
 1926 0ff8 302F 000E 	move.w 14(%sp),%d0
 1927 0ffc 48C0      	ext.l %d0
 1928 0ffe E988      	lsl.l #4,%d0
 1929 1000 41F9 0000 	lea CFE_TBL_TaskData+876,%a0
 1929      0000 
 1930 1006 2030 0800 	move.l (%a0,%d0.l),%d0
 895:/home/simulink/cFS_FreeRTOS_seL4/cfe/fsw/cfe-core/src/tbl/cfe_tbl_internal.c ****                                              RegRecPtr->Name, (int)CFE_TBL_TaskData.Handles[AccessI
 1931               	.loc 1 895 0
 1932 100a 2200      	move.l %d0,%d1
 1933               	.loc 1 896 0
 1934 100c 202F 0020 	move.l 32(%sp),%d0
 1935 1010 0680 0000 	add.l #230,%d0
 1935      00E6 
 895:/home/simulink/cFS_FreeRTOS_seL4/cfe/fsw/cfe-core/src/tbl/cfe_tbl_internal.c ****                                              RegRecPtr->Name, (int)CFE_TBL_TaskData.Handles[AccessI
 1936               	.loc 1 895 0
 1937 1016 2F01      	move.l %d1,-(%sp)
 1938               	.cfi_def_cfa_offset 32
 1939 1018 2F00      	move.l %d0,-(%sp)
 1940               	.cfi_def_cfa_offset 36
 1941 101a 4879 0000 	pea .LC23
 1941      0000 
 1942               	.cfi_def_cfa_offset 40
 1943 1020 4EB9 0000 	jsr CFE_ES_WriteToSysLog
 1943      0000 
 1944 1026 4FEF 000C 	lea (12,%sp),%sp
 1945               	.cfi_def_cfa_offset 28
 1946               	.L99:
 897:/home/simulink/cFS_FreeRTOS_seL4/cfe/fsw/cfe-core/src/tbl/cfe_tbl_internal.c ****                     }
 898:/home/simulink/cFS_FreeRTOS_seL4/cfe/fsw/cfe-core/src/tbl/cfe_tbl_internal.c **** 
 899:/home/simulink/cFS_FreeRTOS_seL4/cfe/fsw/cfe-core/src/tbl/cfe_tbl_internal.c ****                     /* Move to next access descriptor in linked list */
 900:/home/simulink/cFS_FreeRTOS_seL4/cfe/fsw/cfe-core/src/tbl/cfe_tbl_internal.c ****                     AccessIterator = CFE_TBL_TaskData.Handles[AccessIterator].NextLink;
 1947               	.loc 1 900 0
 1948 102a 302F 000E 	move.w 14(%sp),%d0
 1949 102e 48C0      	ext.l %d0
 1950 1030 E988      	lsl.l #4,%d0
 1951 1032 41F9 0000 	lea CFE_TBL_TaskData+884,%a0
 1951      0000 
 1952 1038 43F0 0800 	lea (%a0,%d0.l),%a1
 1953 103c 3F51 000E 	move.w (%a1),14(%sp)
 1954               	.L98:
 888:/home/simulink/cFS_FreeRTOS_seL4/cfe/fsw/cfe-core/src/tbl/cfe_tbl_internal.c ****                 {
 1955               	.loc 1 888 0
 1956 1040 306F 000E 	move.w 14(%sp),%a0
 1957 1044 70FF      	moveq #-1,%d0
 1958 1046 B088      	cmp.l %a0,%d0
 1959 1048 6708      	jeq .L100
 888:/home/simulink/cFS_FreeRTOS_seL4/cfe/fsw/cfe-core/src/tbl/cfe_tbl_internal.c ****                 {
 1960               	.loc 1 888 0 is_stmt 0 discriminator 1
 1961 104a 4AAF 0014 	tst.l 20(%sp)
 1962 104e 6700 FF68 	jeq .L101
 1963               	.L100:
 901:/home/simulink/cFS_FreeRTOS_seL4/cfe/fsw/cfe-core/src/tbl/cfe_tbl_internal.c ****                 }
 902:/home/simulink/cFS_FreeRTOS_seL4/cfe/fsw/cfe-core/src/tbl/cfe_tbl_internal.c **** 
 903:/home/simulink/cFS_FreeRTOS_seL4/cfe/fsw/cfe-core/src/tbl/cfe_tbl_internal.c ****                 /* If buffer is free, then return the pointer to it */
 904:/home/simulink/cFS_FreeRTOS_seL4/cfe/fsw/cfe-core/src/tbl/cfe_tbl_internal.c ****                 if (Status == CFE_SUCCESS)
 1964               	.loc 1 904 0 is_stmt 1
68K GAS   			page 57


 1965 1052 4AAF 0014 	tst.l 20(%sp)
 1966 1056 6600 00FE 	jne .L103
 905:/home/simulink/cFS_FreeRTOS_seL4/cfe/fsw/cfe-core/src/tbl/cfe_tbl_internal.c ****                 {
 906:/home/simulink/cFS_FreeRTOS_seL4/cfe/fsw/cfe-core/src/tbl/cfe_tbl_internal.c ****                     *WorkingBufferPtr = &RegRecPtr->Buffers[InactiveBufferIndex];
 1967               	.loc 1 906 0
 1968 105a 202F 0008 	move.l 8(%sp),%d0
 1969 105e 7254      	moveq #84,%d1
 1970 1060 4C01 0800 	muls.l %d1,%d0
 1971 1064 0680 0000 	add.l #16,%d0
 1971      0010 
 1972 106a D0AF 0020 	add.l 32(%sp),%d0
 1973 106e 206F 001C 	move.l 28(%sp),%a0
 1974 1072 2080      	move.l %d0,(%a0)
 907:/home/simulink/cFS_FreeRTOS_seL4/cfe/fsw/cfe-core/src/tbl/cfe_tbl_internal.c ****                     RegRecPtr->LoadInProgress = InactiveBufferIndex;
 1975               	.loc 1 907 0
 1976 1074 206F 0020 	move.l 32(%sp),%a0
 1977 1078 216F 0008 	move.l 8(%sp),200(%a0)
 1977      00C8 
 1978 107e 6000 00D6 	jra .L103
 1979               	.L97:
 908:/home/simulink/cFS_FreeRTOS_seL4/cfe/fsw/cfe-core/src/tbl/cfe_tbl_internal.c ****                 }
 909:/home/simulink/cFS_FreeRTOS_seL4/cfe/fsw/cfe-core/src/tbl/cfe_tbl_internal.c ****             }
 910:/home/simulink/cFS_FreeRTOS_seL4/cfe/fsw/cfe-core/src/tbl/cfe_tbl_internal.c ****             else /* Single Buffered Table */
 911:/home/simulink/cFS_FreeRTOS_seL4/cfe/fsw/cfe-core/src/tbl/cfe_tbl_internal.c ****             {
 912:/home/simulink/cFS_FreeRTOS_seL4/cfe/fsw/cfe-core/src/tbl/cfe_tbl_internal.c ****                 /* Take Mutex to make sure we are not trying to grab a working buffer that some */
 913:/home/simulink/cFS_FreeRTOS_seL4/cfe/fsw/cfe-core/src/tbl/cfe_tbl_internal.c ****                 /* other application is also trying to grab. */
 914:/home/simulink/cFS_FreeRTOS_seL4/cfe/fsw/cfe-core/src/tbl/cfe_tbl_internal.c ****                 Status = OS_MutSemTake(CFE_TBL_TaskData.WorkBufMutex);
 1980               	.loc 1 914 0
 1981 1082 2039 0000 	move.l CFE_TBL_TaskData+532,%d0
 1981      0000 
 1982 1088 2F00      	move.l %d0,-(%sp)
 1983               	.cfi_def_cfa_offset 32
 1984 108a 4EB9 0000 	jsr OS_MutSemTake
 1984      0000 
 1985 1090 588F      	addq.l #4,%sp
 1986               	.cfi_def_cfa_offset 28
 1987 1092 2F40 0014 	move.l %d0,20(%sp)
 915:/home/simulink/cFS_FreeRTOS_seL4/cfe/fsw/cfe-core/src/tbl/cfe_tbl_internal.c **** 
 916:/home/simulink/cFS_FreeRTOS_seL4/cfe/fsw/cfe-core/src/tbl/cfe_tbl_internal.c ****                 /* Make note of any errors but continue and hope for the best */
 917:/home/simulink/cFS_FreeRTOS_seL4/cfe/fsw/cfe-core/src/tbl/cfe_tbl_internal.c ****                 if (Status != OS_SUCCESS)
 1988               	.loc 1 917 0
 1989 1096 4AAF 0014 	tst.l 20(%sp)
 1990 109a 6714      	jeq .L104
 918:/home/simulink/cFS_FreeRTOS_seL4/cfe/fsw/cfe-core/src/tbl/cfe_tbl_internal.c ****                 {
 919:/home/simulink/cFS_FreeRTOS_seL4/cfe/fsw/cfe-core/src/tbl/cfe_tbl_internal.c ****                     CFE_ES_WriteToSysLog("CFE_TBL:GetWorkBuf-Internal error taking WorkBuf Mutex (S
 1991               	.loc 1 919 0
 1992 109c 202F 0014 	move.l 20(%sp),%d0
 1993 10a0 2F00      	move.l %d0,-(%sp)
 1994               	.cfi_def_cfa_offset 32
 1995 10a2 4879 0000 	pea .LC24
 1995      0000 
 1996               	.cfi_def_cfa_offset 36
 1997 10a8 4EB9 0000 	jsr CFE_ES_WriteToSysLog
 1997      0000 
 1998 10ae 508F      	addq.l #8,%sp
 1999               	.cfi_def_cfa_offset 28
 2000               	.L104:
68K GAS   			page 58


 920:/home/simulink/cFS_FreeRTOS_seL4/cfe/fsw/cfe-core/src/tbl/cfe_tbl_internal.c ****                             (unsigned int)Status);
 921:/home/simulink/cFS_FreeRTOS_seL4/cfe/fsw/cfe-core/src/tbl/cfe_tbl_internal.c ****                 }
 922:/home/simulink/cFS_FreeRTOS_seL4/cfe/fsw/cfe-core/src/tbl/cfe_tbl_internal.c **** 
 923:/home/simulink/cFS_FreeRTOS_seL4/cfe/fsw/cfe-core/src/tbl/cfe_tbl_internal.c ****                 /* Determine if there are any common buffers available */
 924:/home/simulink/cFS_FreeRTOS_seL4/cfe/fsw/cfe-core/src/tbl/cfe_tbl_internal.c ****                 i = 0;
 2001               	.loc 1 924 0
 2002 10b0 42AF 0010 	clr.l 16(%sp)
 925:/home/simulink/cFS_FreeRTOS_seL4/cfe/fsw/cfe-core/src/tbl/cfe_tbl_internal.c ****                 while ((i < CFE_TBL_MAX_SIMULTANEOUS_LOADS) && (CFE_TBL_TaskData.LoadBuffs[i].Taken
 2003               	.loc 1 925 0
 2004 10b4 6004      	jra .L105
 2005               	.L107:
 926:/home/simulink/cFS_FreeRTOS_seL4/cfe/fsw/cfe-core/src/tbl/cfe_tbl_internal.c ****                 {
 927:/home/simulink/cFS_FreeRTOS_seL4/cfe/fsw/cfe-core/src/tbl/cfe_tbl_internal.c ****                     i++;
 2006               	.loc 1 927 0
 2007 10b6 52AF 0010 	addq.l #1,16(%sp)
 2008               	.L105:
 925:/home/simulink/cFS_FreeRTOS_seL4/cfe/fsw/cfe-core/src/tbl/cfe_tbl_internal.c ****                 while ((i < CFE_TBL_MAX_SIMULTANEOUS_LOADS) && (CFE_TBL_TaskData.LoadBuffs[i].Taken
 2009               	.loc 1 925 0
 2010 10ba 7403      	moveq #3,%d2
 2011 10bc B4AF 0010 	cmp.l 16(%sp),%d2
 2012 10c0 6D22      	jlt .L106
 925:/home/simulink/cFS_FreeRTOS_seL4/cfe/fsw/cfe-core/src/tbl/cfe_tbl_internal.c ****                 while ((i < CFE_TBL_MAX_SIMULTANEOUS_LOADS) && (CFE_TBL_TaskData.LoadBuffs[i].Taken
 2013               	.loc 1 925 0 is_stmt 0 discriminator 1
 2014 10c2 202F 0010 	move.l 16(%sp),%d0
 2015 10c6 7254      	moveq #84,%d1
 2016 10c8 4C01 0800 	muls.l %d1,%d0
 2017 10cc 41F9 0000 	lea CFE_TBL_TaskData+556,%a0
 2017      0000 
 2018 10d2 1030 0800 	move.b (%a0,%d0.l),%d0
 2019 10d6 1000      	move.b %d0,%d0
 2020 10d8 0280 0000 	and.l #255,%d0
 2020      00FF 
 2021 10de 7401      	moveq #1,%d2
 2022 10e0 B480      	cmp.l %d0,%d2
 2023 10e2 67D2      	jeq .L107
 2024               	.L106:
 928:/home/simulink/cFS_FreeRTOS_seL4/cfe/fsw/cfe-core/src/tbl/cfe_tbl_internal.c ****                 }
 929:/home/simulink/cFS_FreeRTOS_seL4/cfe/fsw/cfe-core/src/tbl/cfe_tbl_internal.c **** 
 930:/home/simulink/cFS_FreeRTOS_seL4/cfe/fsw/cfe-core/src/tbl/cfe_tbl_internal.c ****                 /* If a free buffer was found, then return the address to the associated shared buf
 931:/home/simulink/cFS_FreeRTOS_seL4/cfe/fsw/cfe-core/src/tbl/cfe_tbl_internal.c ****                 if (i < CFE_TBL_MAX_SIMULTANEOUS_LOADS)
 2025               	.loc 1 931 0 is_stmt 1
 2026 10e4 7003      	moveq #3,%d0
 2027 10e6 B0AF 0010 	cmp.l 16(%sp),%d0
 2028 10ea 6D42      	jlt .L108
 932:/home/simulink/cFS_FreeRTOS_seL4/cfe/fsw/cfe-core/src/tbl/cfe_tbl_internal.c ****                 {
 933:/home/simulink/cFS_FreeRTOS_seL4/cfe/fsw/cfe-core/src/tbl/cfe_tbl_internal.c ****                     CFE_TBL_TaskData.LoadBuffs[i].Taken = TRUE;
 2029               	.loc 1 933 0
 2030 10ec 202F 0010 	move.l 16(%sp),%d0
 2031 10f0 7254      	moveq #84,%d1
 2032 10f2 4C01 0800 	muls.l %d1,%d0
 2033 10f6 41F9 0000 	lea CFE_TBL_TaskData+556,%a0
 2033      0000 
 2034 10fc 7401      	moveq #1,%d2
 2035 10fe 1182 0800 	move.b %d2,(%a0,%d0.l)
 934:/home/simulink/cFS_FreeRTOS_seL4/cfe/fsw/cfe-core/src/tbl/cfe_tbl_internal.c ****                     *WorkingBufferPtr = &CFE_TBL_TaskData.LoadBuffs[i];
 2036               	.loc 1 934 0
 2037 1102 202F 0010 	move.l 16(%sp),%d0
68K GAS   			page 59


 2038 1106 7254      	moveq #84,%d1
 2039 1108 4C01 0800 	muls.l %d1,%d0
 2040 110c 0680 0000 	add.l #540,%d0
 2040      021C 
 2041 1112 0680 0000 	add.l #CFE_TBL_TaskData,%d0
 2041      0000 
 2042 1118 206F 001C 	move.l 28(%sp),%a0
 2043 111c 2080      	move.l %d0,(%a0)
 935:/home/simulink/cFS_FreeRTOS_seL4/cfe/fsw/cfe-core/src/tbl/cfe_tbl_internal.c ****                     RegRecPtr->LoadInProgress = i;
 2044               	.loc 1 935 0
 2045 111e 206F 0020 	move.l 32(%sp),%a0
 2046 1122 216F 0010 	move.l 16(%sp),200(%a0)
 2046      00C8 
 936:/home/simulink/cFS_FreeRTOS_seL4/cfe/fsw/cfe-core/src/tbl/cfe_tbl_internal.c **** 
 937:/home/simulink/cFS_FreeRTOS_seL4/cfe/fsw/cfe-core/src/tbl/cfe_tbl_internal.c ****                     /* Translate OS_SUCCESS into CFE_SUCCESS */
 938:/home/simulink/cFS_FreeRTOS_seL4/cfe/fsw/cfe-core/src/tbl/cfe_tbl_internal.c ****                     Status = CFE_SUCCESS;
 2047               	.loc 1 938 0
 2048 1128 42AF 0014 	clr.l 20(%sp)
 2049 112c 6018      	jra .L109
 2050               	.L108:
 939:/home/simulink/cFS_FreeRTOS_seL4/cfe/fsw/cfe-core/src/tbl/cfe_tbl_internal.c ****                 }
 940:/home/simulink/cFS_FreeRTOS_seL4/cfe/fsw/cfe-core/src/tbl/cfe_tbl_internal.c ****                 else
 941:/home/simulink/cFS_FreeRTOS_seL4/cfe/fsw/cfe-core/src/tbl/cfe_tbl_internal.c ****                 {
 942:/home/simulink/cFS_FreeRTOS_seL4/cfe/fsw/cfe-core/src/tbl/cfe_tbl_internal.c ****                     Status = CFE_TBL_ERR_NO_BUFFER_AVAIL;
 2051               	.loc 1 942 0
 2052 112e 243C CC00 	move.l #-872415217,%d2
 2052      000F 
 2053 1134 2F42 0014 	move.l %d2,20(%sp)
 943:/home/simulink/cFS_FreeRTOS_seL4/cfe/fsw/cfe-core/src/tbl/cfe_tbl_internal.c **** 
 944:/home/simulink/cFS_FreeRTOS_seL4/cfe/fsw/cfe-core/src/tbl/cfe_tbl_internal.c ****                     CFE_ES_WriteToSysLog("CFE_TBL:GetWorkingBuffer-All shared buffers are locked\n"
 2054               	.loc 1 944 0
 2055 1138 4879 0000 	pea .LC25
 2055      0000 
 2056               	.cfi_def_cfa_offset 32
 2057 113e 4EB9 0000 	jsr CFE_ES_WriteToSysLog
 2057      0000 
 2058 1144 588F      	addq.l #4,%sp
 2059               	.cfi_def_cfa_offset 28
 2060               	.L109:
 945:/home/simulink/cFS_FreeRTOS_seL4/cfe/fsw/cfe-core/src/tbl/cfe_tbl_internal.c ****                 }
 946:/home/simulink/cFS_FreeRTOS_seL4/cfe/fsw/cfe-core/src/tbl/cfe_tbl_internal.c **** 
 947:/home/simulink/cFS_FreeRTOS_seL4/cfe/fsw/cfe-core/src/tbl/cfe_tbl_internal.c ****                 /* Allow others to obtain a shared working buffer */
 948:/home/simulink/cFS_FreeRTOS_seL4/cfe/fsw/cfe-core/src/tbl/cfe_tbl_internal.c ****                 OS_MutSemGive(CFE_TBL_TaskData.WorkBufMutex);
 2061               	.loc 1 948 0
 2062 1146 2039 0000 	move.l CFE_TBL_TaskData+532,%d0
 2062      0000 
 2063 114c 2F00      	move.l %d0,-(%sp)
 2064               	.cfi_def_cfa_offset 32
 2065 114e 4EB9 0000 	jsr OS_MutSemGive
 2065      0000 
 2066 1154 588F      	addq.l #4,%sp
 2067               	.cfi_def_cfa_offset 28
 2068               	.L103:
 949:/home/simulink/cFS_FreeRTOS_seL4/cfe/fsw/cfe-core/src/tbl/cfe_tbl_internal.c ****             }
 950:/home/simulink/cFS_FreeRTOS_seL4/cfe/fsw/cfe-core/src/tbl/cfe_tbl_internal.c **** 
 951:/home/simulink/cFS_FreeRTOS_seL4/cfe/fsw/cfe-core/src/tbl/cfe_tbl_internal.c ****             if ((*WorkingBufferPtr) != NULL)
 2069               	.loc 1 951 0
68K GAS   			page 60


 2070 1156 206F 001C 	move.l 28(%sp),%a0
 2071 115a 2010      	move.l (%a0),%d0
 2072 115c 4A80      	tst.l %d0
 2073 115e 6744      	jeq .L93
 952:/home/simulink/cFS_FreeRTOS_seL4/cfe/fsw/cfe-core/src/tbl/cfe_tbl_internal.c ****             {
 953:/home/simulink/cFS_FreeRTOS_seL4/cfe/fsw/cfe-core/src/tbl/cfe_tbl_internal.c ****                 /* In case the file contains a partial table load, get the active buffer contents f
 954:/home/simulink/cFS_FreeRTOS_seL4/cfe/fsw/cfe-core/src/tbl/cfe_tbl_internal.c ****                 CFE_PSP_MemCpy((*WorkingBufferPtr)->BufferPtr,
 2074               	.loc 1 954 0
 2075 1160 206F 0020 	move.l 32(%sp),%a0
 2076 1164 2268 0004 	move.l 4(%a0),%a1
 955:/home/simulink/cFS_FreeRTOS_seL4/cfe/fsw/cfe-core/src/tbl/cfe_tbl_internal.c ****                           RegRecPtr->Buffers[RegRecPtr->ActiveBufferIndex].BufferPtr,
 2077               	.loc 1 955 0
 2078 1168 206F 0020 	move.l 32(%sp),%a0
 2079 116c 1028 00E5 	move.b 229(%a0),%d0
 2080 1170 1000      	move.b %d0,%d0
 2081 1172 0280 0000 	and.l #255,%d0
 2081      00FF 
 2082 1178 222F 0020 	move.l 32(%sp),%d1
 2083 117c 7454      	moveq #84,%d2
 2084 117e 4C02 0800 	muls.l %d2,%d0
 2085 1182 D081      	add.l %d1,%d0
 2086 1184 2040      	move.l %d0,%a0
 2087 1186 41E8 0010 	lea (16,%a0),%a0
 2088 118a 2210      	move.l (%a0),%d1
 954:/home/simulink/cFS_FreeRTOS_seL4/cfe/fsw/cfe-core/src/tbl/cfe_tbl_internal.c ****                           RegRecPtr->Buffers[RegRecPtr->ActiveBufferIndex].BufferPtr,
 2089               	.loc 1 954 0
 2090 118c 206F 001C 	move.l 28(%sp),%a0
 2091 1190 2050      	move.l (%a0),%a0
 2092 1192 2010      	move.l (%a0),%d0
 2093 1194 2F09      	move.l %a1,-(%sp)
 2094               	.cfi_def_cfa_offset 32
 2095 1196 2F01      	move.l %d1,-(%sp)
 2096               	.cfi_def_cfa_offset 36
 2097 1198 2F00      	move.l %d0,-(%sp)
 2098               	.cfi_def_cfa_offset 40
 2099 119a 4EB9 0000 	jsr CFE_PSP_MemCpy
 2099      0000 
 2100 11a0 4FEF 000C 	lea (12,%sp),%sp
 2101               	.cfi_def_cfa_offset 28
 2102               	.L93:
 956:/home/simulink/cFS_FreeRTOS_seL4/cfe/fsw/cfe-core/src/tbl/cfe_tbl_internal.c ****                           RegRecPtr->Size);
 957:/home/simulink/cFS_FreeRTOS_seL4/cfe/fsw/cfe-core/src/tbl/cfe_tbl_internal.c ****             }
 958:/home/simulink/cFS_FreeRTOS_seL4/cfe/fsw/cfe-core/src/tbl/cfe_tbl_internal.c ****         }
 959:/home/simulink/cFS_FreeRTOS_seL4/cfe/fsw/cfe-core/src/tbl/cfe_tbl_internal.c ****     }
 960:/home/simulink/cFS_FreeRTOS_seL4/cfe/fsw/cfe-core/src/tbl/cfe_tbl_internal.c **** 
 961:/home/simulink/cFS_FreeRTOS_seL4/cfe/fsw/cfe-core/src/tbl/cfe_tbl_internal.c **** 
 962:/home/simulink/cFS_FreeRTOS_seL4/cfe/fsw/cfe-core/src/tbl/cfe_tbl_internal.c ****     return Status;
 2103               	.loc 1 962 0
 2104 11a4 202F 0014 	move.l 20(%sp),%d0
 963:/home/simulink/cFS_FreeRTOS_seL4/cfe/fsw/cfe-core/src/tbl/cfe_tbl_internal.c **** 
 964:/home/simulink/cFS_FreeRTOS_seL4/cfe/fsw/cfe-core/src/tbl/cfe_tbl_internal.c **** }   /* End of CFE_TBL_GetWorkingBuffer() */
 2105               	.loc 1 964 0
 2106 11a8 241F      	move.l (%sp)+,%d2
 2107 11aa 4FEF 0014 	lea (20,%sp),%sp
 2108 11ae 4E75      	rts
 2109               	.cfi_endproc
 2110               	.LFE74:
68K GAS   			page 61


 2111               	.sizeCFE_TBL_GetWorkingBuffer, .-CFE_TBL_GetWorkingBuffer
 2112               	.align2
 2113               	.globlCFE_TBL_LoadFromFile
 2114               	.typeCFE_TBL_LoadFromFile, @function
 2115               	CFE_TBL_LoadFromFile:
 2116               	.LFB75:
 965:/home/simulink/cFS_FreeRTOS_seL4/cfe/fsw/cfe-core/src/tbl/cfe_tbl_internal.c **** 
 966:/home/simulink/cFS_FreeRTOS_seL4/cfe/fsw/cfe-core/src/tbl/cfe_tbl_internal.c **** 
 967:/home/simulink/cFS_FreeRTOS_seL4/cfe/fsw/cfe-core/src/tbl/cfe_tbl_internal.c **** /*******************************************************************
 968:/home/simulink/cFS_FreeRTOS_seL4/cfe/fsw/cfe-core/src/tbl/cfe_tbl_internal.c **** **
 969:/home/simulink/cFS_FreeRTOS_seL4/cfe/fsw/cfe-core/src/tbl/cfe_tbl_internal.c **** ** CFE_TBL_LoadFromFile
 970:/home/simulink/cFS_FreeRTOS_seL4/cfe/fsw/cfe-core/src/tbl/cfe_tbl_internal.c **** **
 971:/home/simulink/cFS_FreeRTOS_seL4/cfe/fsw/cfe-core/src/tbl/cfe_tbl_internal.c **** ** NOTE: For complete prolog information, see 'cfe_tbl_internal.h'
 972:/home/simulink/cFS_FreeRTOS_seL4/cfe/fsw/cfe-core/src/tbl/cfe_tbl_internal.c **** ********************************************************************/
 973:/home/simulink/cFS_FreeRTOS_seL4/cfe/fsw/cfe-core/src/tbl/cfe_tbl_internal.c **** 
 974:/home/simulink/cFS_FreeRTOS_seL4/cfe/fsw/cfe-core/src/tbl/cfe_tbl_internal.c **** int32 CFE_TBL_LoadFromFile(CFE_TBL_LoadBuff_t *WorkingBufferPtr,
 975:/home/simulink/cFS_FreeRTOS_seL4/cfe/fsw/cfe-core/src/tbl/cfe_tbl_internal.c ****                            CFE_TBL_RegistryRec_t *RegRecPtr,
 976:/home/simulink/cFS_FreeRTOS_seL4/cfe/fsw/cfe-core/src/tbl/cfe_tbl_internal.c ****                            const char *Filename)
 977:/home/simulink/cFS_FreeRTOS_seL4/cfe/fsw/cfe-core/src/tbl/cfe_tbl_internal.c **** {
 2117               	.loc 1 977 0
 2118               	.cfi_startproc
 2119 11b0 4FEF FF78 	lea (-136,%sp),%sp
 2120               	.cfi_def_cfa_offset 140
 978:/home/simulink/cFS_FreeRTOS_seL4/cfe/fsw/cfe-core/src/tbl/cfe_tbl_internal.c ****     int32                Status = CFE_SUCCESS;
 2121               	.loc 1 978 0
 2122 11b4 42AF 0084 	clr.l 132(%sp)
 979:/home/simulink/cFS_FreeRTOS_seL4/cfe/fsw/cfe-core/src/tbl/cfe_tbl_internal.c ****     CFE_FS_Header_t      StdFileHeader;
 980:/home/simulink/cFS_FreeRTOS_seL4/cfe/fsw/cfe-core/src/tbl/cfe_tbl_internal.c ****     CFE_TBL_File_Hdr_t   TblFileHeader;
 981:/home/simulink/cFS_FreeRTOS_seL4/cfe/fsw/cfe-core/src/tbl/cfe_tbl_internal.c ****     int32                FileDescriptor;
 982:/home/simulink/cFS_FreeRTOS_seL4/cfe/fsw/cfe-core/src/tbl/cfe_tbl_internal.c ****     size_t               FilenameLen = strlen(Filename);
 2123               	.loc 1 982 0
 2124 11b8 2F2F 0094 	move.l 148(%sp),-(%sp)
 2125               	.cfi_def_cfa_offset 144
 2126 11bc 4EB9 0000 	jsr strlen
 2126      0000 
 2127 11c2 588F      	addq.l #4,%sp
 2128               	.cfi_def_cfa_offset 140
 2129 11c4 2F40 0080 	move.l %d0,128(%sp)
 983:/home/simulink/cFS_FreeRTOS_seL4/cfe/fsw/cfe-core/src/tbl/cfe_tbl_internal.c ****     uint32               NumBytes;
 984:/home/simulink/cFS_FreeRTOS_seL4/cfe/fsw/cfe-core/src/tbl/cfe_tbl_internal.c ****     uint8                ExtraByte;
 985:/home/simulink/cFS_FreeRTOS_seL4/cfe/fsw/cfe-core/src/tbl/cfe_tbl_internal.c **** 
 986:/home/simulink/cFS_FreeRTOS_seL4/cfe/fsw/cfe-core/src/tbl/cfe_tbl_internal.c ****     if (FilenameLen > (OS_MAX_PATH_LEN-1))
 2130               	.loc 1 986 0
 2131 11c8 703F      	moveq #63,%d0
 2132 11ca B0AF 0080 	cmp.l 128(%sp),%d0
 2133 11ce 640E      	jcc .L112
 987:/home/simulink/cFS_FreeRTOS_seL4/cfe/fsw/cfe-core/src/tbl/cfe_tbl_internal.c ****     {
 988:/home/simulink/cFS_FreeRTOS_seL4/cfe/fsw/cfe-core/src/tbl/cfe_tbl_internal.c ****         Status = CFE_TBL_ERR_FILENAME_TOO_LONG;
 2134               	.loc 1 988 0
 2135 11d0 203C CC00 	move.l #-872415201,%d0
 2135      001F 
 2136 11d6 2F40 0084 	move.l %d0,132(%sp)
 2137 11da 6000 01CA 	jra .L113
 2138               	.L112:
 989:/home/simulink/cFS_FreeRTOS_seL4/cfe/fsw/cfe-core/src/tbl/cfe_tbl_internal.c ****     }
 990:/home/simulink/cFS_FreeRTOS_seL4/cfe/fsw/cfe-core/src/tbl/cfe_tbl_internal.c ****     else
 991:/home/simulink/cFS_FreeRTOS_seL4/cfe/fsw/cfe-core/src/tbl/cfe_tbl_internal.c ****     {
68K GAS   			page 62


 992:/home/simulink/cFS_FreeRTOS_seL4/cfe/fsw/cfe-core/src/tbl/cfe_tbl_internal.c ****         /* Try to open the specified table file */
 993:/home/simulink/cFS_FreeRTOS_seL4/cfe/fsw/cfe-core/src/tbl/cfe_tbl_internal.c ****         FileDescriptor = OS_open(Filename, OS_READ_ONLY, 0);
 2139               	.loc 1 993 0
 2140 11de 42A7      	clr.l -(%sp)
 2141               	.cfi_def_cfa_offset 144
 2142 11e0 42A7      	clr.l -(%sp)
 2143               	.cfi_def_cfa_offset 148
 2144 11e2 2F2F 009C 	move.l 156(%sp),-(%sp)
 2145               	.cfi_def_cfa_offset 152
 2146 11e6 4EB9 0000 	jsr OS_open
 2146      0000 
 2147 11ec 4FEF 000C 	lea (12,%sp),%sp
 2148               	.cfi_def_cfa_offset 140
 2149 11f0 2F40 007C 	move.l %d0,124(%sp)
 994:/home/simulink/cFS_FreeRTOS_seL4/cfe/fsw/cfe-core/src/tbl/cfe_tbl_internal.c **** 
 995:/home/simulink/cFS_FreeRTOS_seL4/cfe/fsw/cfe-core/src/tbl/cfe_tbl_internal.c ****         if (FileDescriptor >= 0)
 2150               	.loc 1 995 0
 2151 11f4 4AAF 007C 	tst.l 124(%sp)
 2152 11f8 6D00 01A6 	jlt .L114
 996:/home/simulink/cFS_FreeRTOS_seL4/cfe/fsw/cfe-core/src/tbl/cfe_tbl_internal.c ****         {
 997:/home/simulink/cFS_FreeRTOS_seL4/cfe/fsw/cfe-core/src/tbl/cfe_tbl_internal.c ****             Status = CFE_TBL_ReadHeaders(FileDescriptor, &StdFileHeader, &TblFileHeader, Filename);
 2153               	.loc 1 997 0
 2154 11fc 2F2F 0094 	move.l 148(%sp),-(%sp)
 2155               	.cfi_def_cfa_offset 144
 2156 1200 200F      	move.l %sp,%d0
 2157 1202 5080      	addq.l #8,%d0
 2158 1204 2F00      	move.l %d0,-(%sp)
 2159               	.cfi_def_cfa_offset 148
 2160 1206 200F      	move.l %sp,%d0
 2161 1208 0680 0000 	add.l #64,%d0
 2161      0040 
 2162 120e 2F00      	move.l %d0,-(%sp)
 2163               	.cfi_def_cfa_offset 152
 2164 1210 2F2F 0088 	move.l 136(%sp),-(%sp)
 2165               	.cfi_def_cfa_offset 156
 2166 1214 4EB9 0000 	jsr CFE_TBL_ReadHeaders
 2166      0000 
 2167 121a 4FEF 0010 	lea (16,%sp),%sp
 2168               	.cfi_def_cfa_offset 140
 2169 121e 2F40 0084 	move.l %d0,132(%sp)
 998:/home/simulink/cFS_FreeRTOS_seL4/cfe/fsw/cfe-core/src/tbl/cfe_tbl_internal.c **** 
 999:/home/simulink/cFS_FreeRTOS_seL4/cfe/fsw/cfe-core/src/tbl/cfe_tbl_internal.c ****             if (Status == CFE_SUCCESS)
 2170               	.loc 1 999 0
 2171 1222 4AAF 0084 	tst.l 132(%sp)
 2172 1226 6600 016A 	jne .L115
1000:/home/simulink/cFS_FreeRTOS_seL4/cfe/fsw/cfe-core/src/tbl/cfe_tbl_internal.c ****             {
1001:/home/simulink/cFS_FreeRTOS_seL4/cfe/fsw/cfe-core/src/tbl/cfe_tbl_internal.c ****                 /* Verify that the specified file has compatible data for specified table */
1002:/home/simulink/cFS_FreeRTOS_seL4/cfe/fsw/cfe-core/src/tbl/cfe_tbl_internal.c ****                 if (strcmp(RegRecPtr->Name, TblFileHeader.TableName) == 0)
 2173               	.loc 1 1002 0
 2174 122a 222F 0090 	move.l 144(%sp),%d1
 2175 122e 0681 0000 	add.l #230,%d1
 2175      00E6 
 2176 1234 200F      	move.l %sp,%d0
 2177 1236 5880      	addq.l #4,%d0
 2178 1238 0680 0000 	add.l #12,%d0
 2178      000C 
 2179 123e 2F00      	move.l %d0,-(%sp)
68K GAS   			page 63


 2180               	.cfi_def_cfa_offset 144
 2181 1240 2F01      	move.l %d1,-(%sp)
 2182               	.cfi_def_cfa_offset 148
 2183 1242 4EB9 0000 	jsr strcmp
 2183      0000 
 2184 1248 508F      	addq.l #8,%sp
 2185               	.cfi_def_cfa_offset 140
 2186 124a 4A80      	tst.l %d0
 2187 124c 6600 013A 	jne .L116
1003:/home/simulink/cFS_FreeRTOS_seL4/cfe/fsw/cfe-core/src/tbl/cfe_tbl_internal.c ****                 {
1004:/home/simulink/cFS_FreeRTOS_seL4/cfe/fsw/cfe-core/src/tbl/cfe_tbl_internal.c ****                     if ((TblFileHeader.Offset + TblFileHeader.NumBytes) > RegRecPtr->Size)
 2188               	.loc 1 1004 0
 2189 1250 222F 0008 	move.l 8(%sp),%d1
 2190 1254 202F 000C 	move.l 12(%sp),%d0
 2191 1258 D280      	add.l %d0,%d1
 2192 125a 206F 0090 	move.l 144(%sp),%a0
 2193 125e 2028 0004 	move.l 4(%a0),%d0
 2194 1262 B081      	cmp.l %d1,%d0
 2195 1264 640E      	jcc .L117
1005:/home/simulink/cFS_FreeRTOS_seL4/cfe/fsw/cfe-core/src/tbl/cfe_tbl_internal.c ****                     {
1006:/home/simulink/cFS_FreeRTOS_seL4/cfe/fsw/cfe-core/src/tbl/cfe_tbl_internal.c ****                         Status = CFE_TBL_ERR_FILE_TOO_LARGE;
 2196               	.loc 1 1006 0
 2197 1266 203C CC00 	move.l #-872415212,%d0
 2197      0014 
 2198 126c 2F40 0084 	move.l %d0,132(%sp)
 2199 1270 6000 0120 	jra .L115
 2200               	.L117:
1007:/home/simulink/cFS_FreeRTOS_seL4/cfe/fsw/cfe-core/src/tbl/cfe_tbl_internal.c ****                     }
1008:/home/simulink/cFS_FreeRTOS_seL4/cfe/fsw/cfe-core/src/tbl/cfe_tbl_internal.c ****                     else
1009:/home/simulink/cFS_FreeRTOS_seL4/cfe/fsw/cfe-core/src/tbl/cfe_tbl_internal.c ****                     {
1010:/home/simulink/cFS_FreeRTOS_seL4/cfe/fsw/cfe-core/src/tbl/cfe_tbl_internal.c ****                         /* Any Table load that starts beyond the first byte is a "partial load" */
1011:/home/simulink/cFS_FreeRTOS_seL4/cfe/fsw/cfe-core/src/tbl/cfe_tbl_internal.c ****                         /* But a file that starts with the first byte and ends before filling   */
1012:/home/simulink/cFS_FreeRTOS_seL4/cfe/fsw/cfe-core/src/tbl/cfe_tbl_internal.c ****                         /* the whole table is just considered "short".                          */
1013:/home/simulink/cFS_FreeRTOS_seL4/cfe/fsw/cfe-core/src/tbl/cfe_tbl_internal.c ****                         if (TblFileHeader.Offset > 0)
 2201               	.loc 1 1013 0
 2202 1274 202F 0008 	move.l 8(%sp),%d0
 2203 1278 4A80      	tst.l %d0
 2204 127a 670C      	jeq .L119
1014:/home/simulink/cFS_FreeRTOS_seL4/cfe/fsw/cfe-core/src/tbl/cfe_tbl_internal.c ****                         {
1015:/home/simulink/cFS_FreeRTOS_seL4/cfe/fsw/cfe-core/src/tbl/cfe_tbl_internal.c ****                             Status = CFE_TBL_WARN_PARTIAL_LOAD;
 2205               	.loc 1 1015 0
 2206 127c 203C 4C00 	move.l #1275068450,%d0
 2206      0022 
 2207 1282 2F40 0084 	move.l %d0,132(%sp)
 2208 1286 601A      	jra .L120
 2209               	.L119:
1016:/home/simulink/cFS_FreeRTOS_seL4/cfe/fsw/cfe-core/src/tbl/cfe_tbl_internal.c ****                         }
1017:/home/simulink/cFS_FreeRTOS_seL4/cfe/fsw/cfe-core/src/tbl/cfe_tbl_internal.c ****                         else if (TblFileHeader.NumBytes < RegRecPtr->Size)
 2210               	.loc 1 1017 0
 2211 1288 222F 000C 	move.l 12(%sp),%d1
 2212 128c 206F 0090 	move.l 144(%sp),%a0
 2213 1290 2028 0004 	move.l 4(%a0),%d0
 2214 1294 B081      	cmp.l %d1,%d0
 2215 1296 630A      	jls .L120
1018:/home/simulink/cFS_FreeRTOS_seL4/cfe/fsw/cfe-core/src/tbl/cfe_tbl_internal.c ****                         {
1019:/home/simulink/cFS_FreeRTOS_seL4/cfe/fsw/cfe-core/src/tbl/cfe_tbl_internal.c ****                             Status = CFE_TBL_WARN_SHORT_FILE;
 2216               	.loc 1 1019 0
68K GAS   			page 64


 2217 1298 203C 4C00 	move.l #1275068437,%d0
 2217      0015 
 2218 129e 2F40 0084 	move.l %d0,132(%sp)
 2219               	.L120:
1020:/home/simulink/cFS_FreeRTOS_seL4/cfe/fsw/cfe-core/src/tbl/cfe_tbl_internal.c ****                         }
1021:/home/simulink/cFS_FreeRTOS_seL4/cfe/fsw/cfe-core/src/tbl/cfe_tbl_internal.c **** 
1022:/home/simulink/cFS_FreeRTOS_seL4/cfe/fsw/cfe-core/src/tbl/cfe_tbl_internal.c ****                         NumBytes = OS_read(FileDescriptor,
 2220               	.loc 1 1022 0
 2221 12a2 202F 000C 	move.l 12(%sp),%d0
1023:/home/simulink/cFS_FreeRTOS_seL4/cfe/fsw/cfe-core/src/tbl/cfe_tbl_internal.c ****                                            &WorkingBufferPtr->BufferPtr[TblFileHeader.Offset],
 2222               	.loc 1 1023 0
 2223 12a6 206F 008C 	move.l 140(%sp),%a0
 2224 12aa 2050      	move.l (%a0),%a0
 2225 12ac 222F 0008 	move.l 8(%sp),%d1
 2226 12b0 D288      	add.l %a0,%d1
1022:/home/simulink/cFS_FreeRTOS_seL4/cfe/fsw/cfe-core/src/tbl/cfe_tbl_internal.c ****                                            &WorkingBufferPtr->BufferPtr[TblFileHeader.Offset],
 2227               	.loc 1 1022 0
 2228 12b2 2F00      	move.l %d0,-(%sp)
 2229               	.cfi_def_cfa_offset 144
 2230 12b4 2F01      	move.l %d1,-(%sp)
 2231               	.cfi_def_cfa_offset 148
 2232 12b6 2F2F 0084 	move.l 132(%sp),-(%sp)
 2233               	.cfi_def_cfa_offset 152
 2234 12ba 4EB9 0000 	jsr OS_read
 2234      0000 
 2235 12c0 4FEF 000C 	lea (12,%sp),%sp
 2236               	.cfi_def_cfa_offset 140
 2237 12c4 2F40 0078 	move.l %d0,120(%sp)
1024:/home/simulink/cFS_FreeRTOS_seL4/cfe/fsw/cfe-core/src/tbl/cfe_tbl_internal.c ****                                            TblFileHeader.NumBytes);
1025:/home/simulink/cFS_FreeRTOS_seL4/cfe/fsw/cfe-core/src/tbl/cfe_tbl_internal.c **** 
1026:/home/simulink/cFS_FreeRTOS_seL4/cfe/fsw/cfe-core/src/tbl/cfe_tbl_internal.c ****                         if (NumBytes != TblFileHeader.NumBytes)
 2238               	.loc 1 1026 0
 2239 12c8 202F 000C 	move.l 12(%sp),%d0
 2240 12cc B0AF 0078 	cmp.l 120(%sp),%d0
 2241 12d0 670A      	jeq .L121
1027:/home/simulink/cFS_FreeRTOS_seL4/cfe/fsw/cfe-core/src/tbl/cfe_tbl_internal.c ****                         {
1028:/home/simulink/cFS_FreeRTOS_seL4/cfe/fsw/cfe-core/src/tbl/cfe_tbl_internal.c ****                             Status = CFE_TBL_ERR_LOAD_INCOMPLETE;
 2242               	.loc 1 1028 0
 2243 12d2 203C CC00 	move.l #-872415199,%d0
 2243      0021 
 2244 12d8 2F40 0084 	move.l %d0,132(%sp)
 2245               	.L121:
1029:/home/simulink/cFS_FreeRTOS_seL4/cfe/fsw/cfe-core/src/tbl/cfe_tbl_internal.c ****                         }
1030:/home/simulink/cFS_FreeRTOS_seL4/cfe/fsw/cfe-core/src/tbl/cfe_tbl_internal.c ****                         
1031:/home/simulink/cFS_FreeRTOS_seL4/cfe/fsw/cfe-core/src/tbl/cfe_tbl_internal.c ****                         /* Check to see if the file is too large (ie - more data than header claims
1032:/home/simulink/cFS_FreeRTOS_seL4/cfe/fsw/cfe-core/src/tbl/cfe_tbl_internal.c ****                         NumBytes = OS_read(FileDescriptor, &ExtraByte, 1);
 2246               	.loc 1 1032 0
 2247 12dc 4878 0001 	pea 1.w
 2248               	.cfi_def_cfa_offset 144
 2249 12e0 200F      	move.l %sp,%d0
 2250 12e2 5E80      	addq.l #7,%d0
 2251 12e4 2F00      	move.l %d0,-(%sp)
 2252               	.cfi_def_cfa_offset 148
 2253 12e6 2F2F 0084 	move.l 132(%sp),-(%sp)
 2254               	.cfi_def_cfa_offset 152
 2255 12ea 4EB9 0000 	jsr OS_read
 2255      0000 
68K GAS   			page 65


 2256 12f0 4FEF 000C 	lea (12,%sp),%sp
 2257               	.cfi_def_cfa_offset 140
 2258 12f4 2F40 0078 	move.l %d0,120(%sp)
1033:/home/simulink/cFS_FreeRTOS_seL4/cfe/fsw/cfe-core/src/tbl/cfe_tbl_internal.c ****                         
1034:/home/simulink/cFS_FreeRTOS_seL4/cfe/fsw/cfe-core/src/tbl/cfe_tbl_internal.c ****                         /* If successfully read another byte, then file must have too much data */
1035:/home/simulink/cFS_FreeRTOS_seL4/cfe/fsw/cfe-core/src/tbl/cfe_tbl_internal.c ****                         if (NumBytes == 1)
 2259               	.loc 1 1035 0
 2260 12f8 7001      	moveq #1,%d0
 2261 12fa B0AF 0078 	cmp.l 120(%sp),%d0
 2262 12fe 660A      	jne .L122
1036:/home/simulink/cFS_FreeRTOS_seL4/cfe/fsw/cfe-core/src/tbl/cfe_tbl_internal.c ****                         {
1037:/home/simulink/cFS_FreeRTOS_seL4/cfe/fsw/cfe-core/src/tbl/cfe_tbl_internal.c ****                             Status = CFE_TBL_ERR_FILE_TOO_LARGE;
 2263               	.loc 1 1037 0
 2264 1300 203C CC00 	move.l #-872415212,%d0
 2264      0014 
 2265 1306 2F40 0084 	move.l %d0,132(%sp)
 2266               	.L122:
1038:/home/simulink/cFS_FreeRTOS_seL4/cfe/fsw/cfe-core/src/tbl/cfe_tbl_internal.c ****                         }
1039:/home/simulink/cFS_FreeRTOS_seL4/cfe/fsw/cfe-core/src/tbl/cfe_tbl_internal.c **** 
1040:/home/simulink/cFS_FreeRTOS_seL4/cfe/fsw/cfe-core/src/tbl/cfe_tbl_internal.c ****                         CFE_PSP_MemSet(WorkingBufferPtr->DataSource, 0, OS_MAX_PATH_LEN);
 2267               	.loc 1 1040 0
 2268 130a 202F 008C 	move.l 140(%sp),%d0
 2269 130e 0680 0000 	add.l #18,%d0
 2269      0012 
 2270 1314 4878 0040 	pea 64.w
 2271               	.cfi_def_cfa_offset 144
 2272 1318 42A7      	clr.l -(%sp)
 2273               	.cfi_def_cfa_offset 148
 2274 131a 2F00      	move.l %d0,-(%sp)
 2275               	.cfi_def_cfa_offset 152
 2276 131c 4EB9 0000 	jsr CFE_PSP_MemSet
 2276      0000 
 2277 1322 4FEF 000C 	lea (12,%sp),%sp
 2278               	.cfi_def_cfa_offset 140
1041:/home/simulink/cFS_FreeRTOS_seL4/cfe/fsw/cfe-core/src/tbl/cfe_tbl_internal.c ****                         strncpy(WorkingBufferPtr->DataSource, Filename, OS_MAX_PATH_LEN);
 2279               	.loc 1 1041 0
 2280 1326 202F 008C 	move.l 140(%sp),%d0
 2281 132a 0680 0000 	add.l #18,%d0
 2281      0012 
 2282 1330 4878 0040 	pea 64.w
 2283               	.cfi_def_cfa_offset 144
 2284 1334 2F2F 0098 	move.l 152(%sp),-(%sp)
 2285               	.cfi_def_cfa_offset 148
 2286 1338 2F00      	move.l %d0,-(%sp)
 2287               	.cfi_def_cfa_offset 152
 2288 133a 4EB9 0000 	jsr strncpy
 2288      0000 
 2289 1340 4FEF 000C 	lea (12,%sp),%sp
 2290               	.cfi_def_cfa_offset 140
1042:/home/simulink/cFS_FreeRTOS_seL4/cfe/fsw/cfe-core/src/tbl/cfe_tbl_internal.c **** 
1043:/home/simulink/cFS_FreeRTOS_seL4/cfe/fsw/cfe-core/src/tbl/cfe_tbl_internal.c ****                         /* Save file creation time for later storage into Registry */
1044:/home/simulink/cFS_FreeRTOS_seL4/cfe/fsw/cfe-core/src/tbl/cfe_tbl_internal.c ****                         WorkingBufferPtr->FileCreateTimeSecs = StdFileHeader.TimeSeconds;
 2291               	.loc 1 1044 0
 2292 1344 202F 0050 	move.l 80(%sp),%d0
 2293 1348 206F 008C 	move.l 140(%sp),%a0
 2294 134c 2140 0004 	move.l %d0,4(%a0)
1045:/home/simulink/cFS_FreeRTOS_seL4/cfe/fsw/cfe-core/src/tbl/cfe_tbl_internal.c ****                         WorkingBufferPtr->FileCreateTimeSubSecs = StdFileHeader.TimeSubSeconds;
68K GAS   			page 66


 2295               	.loc 1 1045 0
 2296 1350 202F 0054 	move.l 84(%sp),%d0
 2297 1354 206F 008C 	move.l 140(%sp),%a0
 2298 1358 2140 0008 	move.l %d0,8(%a0)
1046:/home/simulink/cFS_FreeRTOS_seL4/cfe/fsw/cfe-core/src/tbl/cfe_tbl_internal.c ****                         
1047:/home/simulink/cFS_FreeRTOS_seL4/cfe/fsw/cfe-core/src/tbl/cfe_tbl_internal.c ****                         /* Compute the CRC on the specified table buffer */
1048:/home/simulink/cFS_FreeRTOS_seL4/cfe/fsw/cfe-core/src/tbl/cfe_tbl_internal.c ****                         WorkingBufferPtr->Crc = CFE_ES_CalculateCRC(WorkingBufferPtr->BufferPtr,
 2299               	.loc 1 1048 0
 2300 135c 206F 0090 	move.l 144(%sp),%a0
 2301 1360 2228 0004 	move.l 4(%a0),%d1
 2302 1364 206F 008C 	move.l 140(%sp),%a0
 2303 1368 2010      	move.l (%a0),%d0
 2304 136a 4878 0002 	pea 2.w
 2305               	.cfi_def_cfa_offset 144
 2306 136e 42A7      	clr.l -(%sp)
 2307               	.cfi_def_cfa_offset 148
 2308 1370 2F01      	move.l %d1,-(%sp)
 2309               	.cfi_def_cfa_offset 152
 2310 1372 2F00      	move.l %d0,-(%sp)
 2311               	.cfi_def_cfa_offset 156
 2312 1374 4EB9 0000 	jsr CFE_ES_CalculateCRC
 2312      0000 
 2313 137a 4FEF 0010 	lea (16,%sp),%sp
 2314               	.cfi_def_cfa_offset 140
 2315 137e 206F 008C 	move.l 140(%sp),%a0
 2316 1382 2140 000C 	move.l %d0,12(%a0)
 2317 1386 600A      	jra .L115
 2318               	.L116:
1049:/home/simulink/cFS_FreeRTOS_seL4/cfe/fsw/cfe-core/src/tbl/cfe_tbl_internal.c ****                                                                     RegRecPtr->Size,
1050:/home/simulink/cFS_FreeRTOS_seL4/cfe/fsw/cfe-core/src/tbl/cfe_tbl_internal.c ****                                                                     0,
1051:/home/simulink/cFS_FreeRTOS_seL4/cfe/fsw/cfe-core/src/tbl/cfe_tbl_internal.c ****                                                                     CFE_ES_DEFAULT_CRC);
1052:/home/simulink/cFS_FreeRTOS_seL4/cfe/fsw/cfe-core/src/tbl/cfe_tbl_internal.c ****                     }
1053:/home/simulink/cFS_FreeRTOS_seL4/cfe/fsw/cfe-core/src/tbl/cfe_tbl_internal.c ****                 }
1054:/home/simulink/cFS_FreeRTOS_seL4/cfe/fsw/cfe-core/src/tbl/cfe_tbl_internal.c ****                 else
1055:/home/simulink/cFS_FreeRTOS_seL4/cfe/fsw/cfe-core/src/tbl/cfe_tbl_internal.c ****                 {
1056:/home/simulink/cFS_FreeRTOS_seL4/cfe/fsw/cfe-core/src/tbl/cfe_tbl_internal.c ****                     Status = CFE_TBL_ERR_FILE_FOR_WRONG_TABLE;
 2319               	.loc 1 1056 0
 2320 1388 203C CC00 	move.l #-872415200,%d0
 2320      0020 
 2321 138e 2F40 0084 	move.l %d0,132(%sp)
 2322               	.L115:
1057:/home/simulink/cFS_FreeRTOS_seL4/cfe/fsw/cfe-core/src/tbl/cfe_tbl_internal.c ****                 }
1058:/home/simulink/cFS_FreeRTOS_seL4/cfe/fsw/cfe-core/src/tbl/cfe_tbl_internal.c ****             }
1059:/home/simulink/cFS_FreeRTOS_seL4/cfe/fsw/cfe-core/src/tbl/cfe_tbl_internal.c **** 
1060:/home/simulink/cFS_FreeRTOS_seL4/cfe/fsw/cfe-core/src/tbl/cfe_tbl_internal.c ****             OS_close(FileDescriptor);
 2323               	.loc 1 1060 0
 2324 1392 2F2F 007C 	move.l 124(%sp),-(%sp)
 2325               	.cfi_def_cfa_offset 144
 2326 1396 4EB9 0000 	jsr OS_close
 2326      0000 
 2327 139c 588F      	addq.l #4,%sp
 2328               	.cfi_def_cfa_offset 140
 2329 139e 6006      	jra .L113
 2330               	.L114:
1061:/home/simulink/cFS_FreeRTOS_seL4/cfe/fsw/cfe-core/src/tbl/cfe_tbl_internal.c ****         }
1062:/home/simulink/cFS_FreeRTOS_seL4/cfe/fsw/cfe-core/src/tbl/cfe_tbl_internal.c ****         else
1063:/home/simulink/cFS_FreeRTOS_seL4/cfe/fsw/cfe-core/src/tbl/cfe_tbl_internal.c ****         {
68K GAS   			page 67


1064:/home/simulink/cFS_FreeRTOS_seL4/cfe/fsw/cfe-core/src/tbl/cfe_tbl_internal.c ****             /* Return error code obtained from OS_open */
1065:/home/simulink/cFS_FreeRTOS_seL4/cfe/fsw/cfe-core/src/tbl/cfe_tbl_internal.c ****             Status = FileDescriptor;
 2331               	.loc 1 1065 0
 2332 13a0 2F6F 007C 	move.l 124(%sp),132(%sp)
 2332      0084 
 2333               	.L113:
1066:/home/simulink/cFS_FreeRTOS_seL4/cfe/fsw/cfe-core/src/tbl/cfe_tbl_internal.c ****         }
1067:/home/simulink/cFS_FreeRTOS_seL4/cfe/fsw/cfe-core/src/tbl/cfe_tbl_internal.c ****     }
1068:/home/simulink/cFS_FreeRTOS_seL4/cfe/fsw/cfe-core/src/tbl/cfe_tbl_internal.c **** 
1069:/home/simulink/cFS_FreeRTOS_seL4/cfe/fsw/cfe-core/src/tbl/cfe_tbl_internal.c ****     return Status;
 2334               	.loc 1 1069 0
 2335 13a6 202F 0084 	move.l 132(%sp),%d0
1070:/home/simulink/cFS_FreeRTOS_seL4/cfe/fsw/cfe-core/src/tbl/cfe_tbl_internal.c **** }
 2336               	.loc 1 1070 0
 2337 13aa 4FEF 0088 	lea (136,%sp),%sp
 2338 13ae 4E75      	rts
 2339               	.cfi_endproc
 2340               	.LFE75:
 2341               	.sizeCFE_TBL_LoadFromFile, .-CFE_TBL_LoadFromFile
 2342               	.section.rodata
 2343               	.LC26:
 2344 059a 4346 455F 	.string"CFE_TBL:UpdateInternal-Unable to update locked table Handle=%d\n"
 2344      5442 4C3A 
 2344      5570 6461 
 2344      7465 496E 
 2344      7465 726E 
 2345               	.text
 2346               	.align2
 2347               	.globlCFE_TBL_UpdateInternal
 2348               	.typeCFE_TBL_UpdateInternal, @function
 2349               	CFE_TBL_UpdateInternal:
 2350               	.LFB76:
1071:/home/simulink/cFS_FreeRTOS_seL4/cfe/fsw/cfe-core/src/tbl/cfe_tbl_internal.c **** 
1072:/home/simulink/cFS_FreeRTOS_seL4/cfe/fsw/cfe-core/src/tbl/cfe_tbl_internal.c **** 
1073:/home/simulink/cFS_FreeRTOS_seL4/cfe/fsw/cfe-core/src/tbl/cfe_tbl_internal.c **** /*******************************************************************
1074:/home/simulink/cFS_FreeRTOS_seL4/cfe/fsw/cfe-core/src/tbl/cfe_tbl_internal.c **** **
1075:/home/simulink/cFS_FreeRTOS_seL4/cfe/fsw/cfe-core/src/tbl/cfe_tbl_internal.c **** ** CFE_TBL_UpdateInternal
1076:/home/simulink/cFS_FreeRTOS_seL4/cfe/fsw/cfe-core/src/tbl/cfe_tbl_internal.c **** **
1077:/home/simulink/cFS_FreeRTOS_seL4/cfe/fsw/cfe-core/src/tbl/cfe_tbl_internal.c **** ** NOTE: For complete prolog information, see 'cfe_tbl_internal.h'
1078:/home/simulink/cFS_FreeRTOS_seL4/cfe/fsw/cfe-core/src/tbl/cfe_tbl_internal.c **** ********************************************************************/
1079:/home/simulink/cFS_FreeRTOS_seL4/cfe/fsw/cfe-core/src/tbl/cfe_tbl_internal.c **** 
1080:/home/simulink/cFS_FreeRTOS_seL4/cfe/fsw/cfe-core/src/tbl/cfe_tbl_internal.c **** int32 CFE_TBL_UpdateInternal( CFE_TBL_Handle_t TblHandle,
1081:/home/simulink/cFS_FreeRTOS_seL4/cfe/fsw/cfe-core/src/tbl/cfe_tbl_internal.c ****                               CFE_TBL_RegistryRec_t *RegRecPtr,
1082:/home/simulink/cFS_FreeRTOS_seL4/cfe/fsw/cfe-core/src/tbl/cfe_tbl_internal.c ****                               CFE_TBL_AccessDescriptor_t *AccessDescPtr )
1083:/home/simulink/cFS_FreeRTOS_seL4/cfe/fsw/cfe-core/src/tbl/cfe_tbl_internal.c **** {
 2351               	.loc 1 1083 0
 2352               	.cfi_startproc
 2353 13b0 4FEF FFF4 	lea (-12,%sp),%sp
 2354               	.cfi_def_cfa_offset 16
 2355 13b4 202F 0010 	move.l 16(%sp),%d0
 2356 13b8 3000      	move.w %d0,%d0
 2357 13ba 3E80      	move.w %d0,(%sp)
1084:/home/simulink/cFS_FreeRTOS_seL4/cfe/fsw/cfe-core/src/tbl/cfe_tbl_internal.c ****     int32 Status = CFE_SUCCESS;
 2358               	.loc 1 1084 0
 2359 13bc 42AF 0008 	clr.l 8(%sp)
1085:/home/simulink/cFS_FreeRTOS_seL4/cfe/fsw/cfe-core/src/tbl/cfe_tbl_internal.c ****     CFE_TBL_Handle_t AccessIterator;
1086:/home/simulink/cFS_FreeRTOS_seL4/cfe/fsw/cfe-core/src/tbl/cfe_tbl_internal.c ****     boolean LockStatus = FALSE;
68K GAS   			page 68


 2360               	.loc 1 1086 0
 2361 13c0 4200      	clr.b %d0
 2362 13c2 1F40 0005 	move.b %d0,5(%sp)
1087:/home/simulink/cFS_FreeRTOS_seL4/cfe/fsw/cfe-core/src/tbl/cfe_tbl_internal.c ****     
1088:/home/simulink/cFS_FreeRTOS_seL4/cfe/fsw/cfe-core/src/tbl/cfe_tbl_internal.c ****     if ((!RegRecPtr->LoadPending) || (RegRecPtr->LoadInProgress == CFE_TBL_NO_LOAD_IN_PROGRESS))
 2363               	.loc 1 1088 0
 2364 13c6 206F 0014 	move.l 20(%sp),%a0
 2365 13ca 1028 00E0 	move.b 224(%a0),%d0
 2366 13ce 4A00      	tst.b %d0
 2367 13d0 670E      	jeq .L125
 2368               	.loc 1 1088 0 is_stmt 0 discriminator 1
 2369 13d2 206F 0014 	move.l 20(%sp),%a0
 2370 13d6 2028 00C8 	move.l 200(%a0),%d0
 2371 13da 72FF      	moveq #-1,%d1
 2372 13dc B280      	cmp.l %d0,%d1
 2373 13de 660E      	jne .L126
 2374               	.L125:
1089:/home/simulink/cFS_FreeRTOS_seL4/cfe/fsw/cfe-core/src/tbl/cfe_tbl_internal.c ****     {
1090:/home/simulink/cFS_FreeRTOS_seL4/cfe/fsw/cfe-core/src/tbl/cfe_tbl_internal.c ****         /* Question: Should calling CFE_TBL_Update on a table with no load pending */
1091:/home/simulink/cFS_FreeRTOS_seL4/cfe/fsw/cfe-core/src/tbl/cfe_tbl_internal.c ****         /* be considered an error?  Currently assuming it is not an error.         */
1092:/home/simulink/cFS_FreeRTOS_seL4/cfe/fsw/cfe-core/src/tbl/cfe_tbl_internal.c ****         Status = CFE_TBL_INFO_NO_UPDATE_PENDING;
 2375               	.loc 1 1092 0 is_stmt 1
 2376 13e0 227C 4C00 	move.l #1275068439,%a1
 2376      0017 
 2377 13e6 2F49 0008 	move.l %a1,8(%sp)
 2378 13ea 6000 0262 	jra .L127
 2379               	.L126:
1093:/home/simulink/cFS_FreeRTOS_seL4/cfe/fsw/cfe-core/src/tbl/cfe_tbl_internal.c ****     }
1094:/home/simulink/cFS_FreeRTOS_seL4/cfe/fsw/cfe-core/src/tbl/cfe_tbl_internal.c ****     else
1095:/home/simulink/cFS_FreeRTOS_seL4/cfe/fsw/cfe-core/src/tbl/cfe_tbl_internal.c ****     {
1096:/home/simulink/cFS_FreeRTOS_seL4/cfe/fsw/cfe-core/src/tbl/cfe_tbl_internal.c ****         if (RegRecPtr->DblBuffered)
 2380               	.loc 1 1096 0
 2381 13ee 206F 0014 	move.l 20(%sp),%a0
 2382 13f2 1028 00E2 	move.b 226(%a0),%d0
 2383 13f6 4A00      	tst.b %d0
 2384 13f8 6700 0088 	jeq .L128
1097:/home/simulink/cFS_FreeRTOS_seL4/cfe/fsw/cfe-core/src/tbl/cfe_tbl_internal.c ****         {
1098:/home/simulink/cFS_FreeRTOS_seL4/cfe/fsw/cfe-core/src/tbl/cfe_tbl_internal.c ****             /* To update a double buffered table only requires a pointer swap */
1099:/home/simulink/cFS_FreeRTOS_seL4/cfe/fsw/cfe-core/src/tbl/cfe_tbl_internal.c ****             RegRecPtr->ActiveBufferIndex = (uint8)RegRecPtr->LoadInProgress;
 2385               	.loc 1 1099 0
 2386 13fc 206F 0014 	move.l 20(%sp),%a0
 2387 1400 2028 00C8 	move.l 200(%a0),%d0
 2388 1404 1000      	move.b %d0,%d0
 2389 1406 206F 0014 	move.l 20(%sp),%a0
 2390 140a 1140 00E5 	move.b %d0,229(%a0)
1100:/home/simulink/cFS_FreeRTOS_seL4/cfe/fsw/cfe-core/src/tbl/cfe_tbl_internal.c **** 
1101:/home/simulink/cFS_FreeRTOS_seL4/cfe/fsw/cfe-core/src/tbl/cfe_tbl_internal.c ****             /* Source description in buffer should already have been updated by either */
1102:/home/simulink/cFS_FreeRTOS_seL4/cfe/fsw/cfe-core/src/tbl/cfe_tbl_internal.c ****             /* the LoadFromFile function or the Load function (when a memory load).    */
1103:/home/simulink/cFS_FreeRTOS_seL4/cfe/fsw/cfe-core/src/tbl/cfe_tbl_internal.c ****             /* However, we need to copy it into active registry area */
1104:/home/simulink/cFS_FreeRTOS_seL4/cfe/fsw/cfe-core/src/tbl/cfe_tbl_internal.c ****             strncpy(RegRecPtr->LastFileLoaded,
1105:/home/simulink/cFS_FreeRTOS_seL4/cfe/fsw/cfe-core/src/tbl/cfe_tbl_internal.c ****                     RegRecPtr->Buffers[RegRecPtr->ActiveBufferIndex].DataSource,
 2391               	.loc 1 1105 0
 2392 140e 206F 0014 	move.l 20(%sp),%a0
 2393 1412 1028 00E5 	move.b 229(%a0),%d0
 2394 1416 1000      	move.b %d0,%d0
 2395 1418 0280 0000 	and.l #255,%d0
 2395      00FF 
68K GAS   			page 69


 2396 141e 7254      	moveq #84,%d1
 2397 1420 4C01 0800 	muls.l %d1,%d0
 2398 1424 0680 0000 	add.l #32,%d0
 2398      0020 
 2399 142a D0AF 0014 	add.l 20(%sp),%d0
 2400 142e 2200      	move.l %d0,%d1
 2401 1430 5481      	addq.l #2,%d1
1104:/home/simulink/cFS_FreeRTOS_seL4/cfe/fsw/cfe-core/src/tbl/cfe_tbl_internal.c ****                     RegRecPtr->Buffers[RegRecPtr->ActiveBufferIndex].DataSource,
 2402               	.loc 1 1104 0
 2403 1432 202F 0014 	move.l 20(%sp),%d0
 2404 1436 0680 0000 	add.l #270,%d0
 2404      010E 
 2405 143c 4878 0040 	pea 64.w
 2406               	.cfi_def_cfa_offset 20
 2407 1440 2F01      	move.l %d1,-(%sp)
 2408               	.cfi_def_cfa_offset 24
 2409 1442 2F00      	move.l %d0,-(%sp)
 2410               	.cfi_def_cfa_offset 28
 2411 1444 4EB9 0000 	jsr strncpy
 2411      0000 
 2412 144a 4FEF 000C 	lea (12,%sp),%sp
 2413               	.cfi_def_cfa_offset 16
1106:/home/simulink/cFS_FreeRTOS_seL4/cfe/fsw/cfe-core/src/tbl/cfe_tbl_internal.c ****                     OS_MAX_PATH_LEN);
1107:/home/simulink/cFS_FreeRTOS_seL4/cfe/fsw/cfe-core/src/tbl/cfe_tbl_internal.c **** 
1108:/home/simulink/cFS_FreeRTOS_seL4/cfe/fsw/cfe-core/src/tbl/cfe_tbl_internal.c ****             CFE_TBL_NotifyTblUsersOfUpdate(RegRecPtr);
 2414               	.loc 1 1108 0
 2415 144e 2F2F 0014 	move.l 20(%sp),-(%sp)
 2416               	.cfi_def_cfa_offset 20
 2417 1452 4EB9 0000 	jsr CFE_TBL_NotifyTblUsersOfUpdate
 2417      0000 
 2418 1458 588F      	addq.l #4,%sp
 2419               	.cfi_def_cfa_offset 16
1109:/home/simulink/cFS_FreeRTOS_seL4/cfe/fsw/cfe-core/src/tbl/cfe_tbl_internal.c ****             
1110:/home/simulink/cFS_FreeRTOS_seL4/cfe/fsw/cfe-core/src/tbl/cfe_tbl_internal.c ****             /* If the table is a critical table, update the appropriate CDS with the new data */
1111:/home/simulink/cFS_FreeRTOS_seL4/cfe/fsw/cfe-core/src/tbl/cfe_tbl_internal.c ****             if (RegRecPtr->CriticalTable == TRUE)
 2420               	.loc 1 1111 0
 2421 145a 206F 0014 	move.l 20(%sp),%a0
 2422 145e 1028 00DE 	move.b 222(%a0),%d0
 2423 1462 1000      	move.b %d0,%d0
 2424 1464 0280 0000 	and.l #255,%d0
 2424      00FF 
 2425 146a 7201      	moveq #1,%d1
 2426 146c B280      	cmp.l %d0,%d1
 2427 146e 6600 01DE 	jne .L127
1112:/home/simulink/cFS_FreeRTOS_seL4/cfe/fsw/cfe-core/src/tbl/cfe_tbl_internal.c ****             {
1113:/home/simulink/cFS_FreeRTOS_seL4/cfe/fsw/cfe-core/src/tbl/cfe_tbl_internal.c ****                 CFE_TBL_UpdateCriticalTblCDS(RegRecPtr);
 2428               	.loc 1 1113 0
 2429 1472 2F2F 0014 	move.l 20(%sp),-(%sp)
 2430               	.cfi_def_cfa_offset 20
 2431 1476 4EB9 0000 	jsr CFE_TBL_UpdateCriticalTblCDS
 2431      0000 
 2432 147c 588F      	addq.l #4,%sp
 2433               	.cfi_def_cfa_offset 16
 2434 147e 6000 01CE 	jra .L127
 2435               	.L128:
1114:/home/simulink/cFS_FreeRTOS_seL4/cfe/fsw/cfe-core/src/tbl/cfe_tbl_internal.c ****             }
1115:/home/simulink/cFS_FreeRTOS_seL4/cfe/fsw/cfe-core/src/tbl/cfe_tbl_internal.c ****         }
68K GAS   			page 70


1116:/home/simulink/cFS_FreeRTOS_seL4/cfe/fsw/cfe-core/src/tbl/cfe_tbl_internal.c ****         else
1117:/home/simulink/cFS_FreeRTOS_seL4/cfe/fsw/cfe-core/src/tbl/cfe_tbl_internal.c ****         {
1118:/home/simulink/cFS_FreeRTOS_seL4/cfe/fsw/cfe-core/src/tbl/cfe_tbl_internal.c ****             /* Check to see if the Table is locked by anyone */
1119:/home/simulink/cFS_FreeRTOS_seL4/cfe/fsw/cfe-core/src/tbl/cfe_tbl_internal.c ****             AccessIterator = RegRecPtr->HeadOfAccessList;
 2436               	.loc 1 1119 0
 2437 1482 206F 0014 	move.l 20(%sp),%a0
 2438 1486 3F68 00C4 	move.w 196(%a0),6(%sp)
 2438      0006 
1120:/home/simulink/cFS_FreeRTOS_seL4/cfe/fsw/cfe-core/src/tbl/cfe_tbl_internal.c ****             while (AccessIterator != CFE_TBL_END_OF_LIST)
 2439               	.loc 1 1120 0
 2440 148c 603C      	jra .L130
 2441               	.L134:
1121:/home/simulink/cFS_FreeRTOS_seL4/cfe/fsw/cfe-core/src/tbl/cfe_tbl_internal.c ****             {
1122:/home/simulink/cFS_FreeRTOS_seL4/cfe/fsw/cfe-core/src/tbl/cfe_tbl_internal.c ****                 LockStatus = (LockStatus || CFE_TBL_TaskData.Handles[AccessIterator].LockFlag);
 2442               	.loc 1 1122 0
 2443 148e 4A2F 0005 	tst.b 5(%sp)
 2444 1492 6616      	jne .L131
 2445               	.loc 1 1122 0 is_stmt 0 discriminator 2
 2446 1494 302F 0006 	move.w 6(%sp),%d0
 2447 1498 48C0      	ext.l %d0
 2448 149a E988      	lsl.l #4,%d0
 2449 149c 41F9 0000 	lea CFE_TBL_TaskData+887,%a0
 2449      0000 
 2450 14a2 1030 0800 	move.b (%a0,%d0.l),%d0
 2451 14a6 4A00      	tst.b %d0
 2452 14a8 6704      	jeq .L132
 2453               	.L131:
 2454               	.loc 1 1122 0 discriminator 3
 2455 14aa 7001      	moveq #1,%d0
 2456 14ac 6002      	jra .L133
 2457               	.L132:
 2458               	.loc 1 1122 0 discriminator 4
 2459 14ae 4280      	clr.l %d0
 2460               	.L133:
 2461               	.loc 1 1122 0 discriminator 6
 2462 14b0 1F40 0005 	move.b %d0,5(%sp)
1123:/home/simulink/cFS_FreeRTOS_seL4/cfe/fsw/cfe-core/src/tbl/cfe_tbl_internal.c **** 
1124:/home/simulink/cFS_FreeRTOS_seL4/cfe/fsw/cfe-core/src/tbl/cfe_tbl_internal.c ****                 AccessIterator = CFE_TBL_TaskData.Handles[AccessIterator].NextLink;
 2463               	.loc 1 1124 0 is_stmt 1 discriminator 6
 2464 14b4 302F 0006 	move.w 6(%sp),%d0
 2465 14b8 48C0      	ext.l %d0
 2466 14ba E988      	lsl.l #4,%d0
 2467 14bc 41F9 0000 	lea CFE_TBL_TaskData+884,%a0
 2467      0000 
 2468 14c2 43F0 0800 	lea (%a0,%d0.l),%a1
 2469 14c6 3F51 0006 	move.w (%a1),6(%sp)
 2470               	.L130:
1120:/home/simulink/cFS_FreeRTOS_seL4/cfe/fsw/cfe-core/src/tbl/cfe_tbl_internal.c ****             {
 2471               	.loc 1 1120 0
 2472 14ca 306F 0006 	move.w 6(%sp),%a0
 2473 14ce 70FF      	moveq #-1,%d0
 2474 14d0 B088      	cmp.l %a0,%d0
 2475 14d2 66BA      	jne .L134
1125:/home/simulink/cFS_FreeRTOS_seL4/cfe/fsw/cfe-core/src/tbl/cfe_tbl_internal.c ****             }
1126:/home/simulink/cFS_FreeRTOS_seL4/cfe/fsw/cfe-core/src/tbl/cfe_tbl_internal.c **** 
1127:/home/simulink/cFS_FreeRTOS_seL4/cfe/fsw/cfe-core/src/tbl/cfe_tbl_internal.c ****             if (LockStatus)
 2476               	.loc 1 1127 0
68K GAS   			page 71


 2477 14d4 4A2F 0005 	tst.b 5(%sp)
 2478 14d8 6720      	jeq .L135
1128:/home/simulink/cFS_FreeRTOS_seL4/cfe/fsw/cfe-core/src/tbl/cfe_tbl_internal.c ****             {
1129:/home/simulink/cFS_FreeRTOS_seL4/cfe/fsw/cfe-core/src/tbl/cfe_tbl_internal.c ****                 Status = CFE_TBL_INFO_TABLE_LOCKED;
 2479               	.loc 1 1129 0
 2480 14da 223C 4C00 	move.l #1275068440,%d1
 2480      0018 
 2481 14e0 2F41 0008 	move.l %d1,8(%sp)
1130:/home/simulink/cFS_FreeRTOS_seL4/cfe/fsw/cfe-core/src/tbl/cfe_tbl_internal.c **** 
1131:/home/simulink/cFS_FreeRTOS_seL4/cfe/fsw/cfe-core/src/tbl/cfe_tbl_internal.c ****                 CFE_ES_WriteToSysLog("CFE_TBL:UpdateInternal-Unable to update locked table Handle=%
 2482               	.loc 1 1131 0
 2483 14e4 3057      	move.w (%sp),%a0
 2484 14e6 2F08      	move.l %a0,-(%sp)
 2485               	.cfi_def_cfa_offset 20
 2486 14e8 4879 0000 	pea .LC26
 2486      0000 
 2487               	.cfi_def_cfa_offset 24
 2488 14ee 4EB9 0000 	jsr CFE_ES_WriteToSysLog
 2488      0000 
 2489 14f4 508F      	addq.l #8,%sp
 2490               	.cfi_def_cfa_offset 16
 2491 14f6 6000 0156 	jra .L127
 2492               	.L135:
1132:/home/simulink/cFS_FreeRTOS_seL4/cfe/fsw/cfe-core/src/tbl/cfe_tbl_internal.c ****             }
1133:/home/simulink/cFS_FreeRTOS_seL4/cfe/fsw/cfe-core/src/tbl/cfe_tbl_internal.c ****             else
1134:/home/simulink/cFS_FreeRTOS_seL4/cfe/fsw/cfe-core/src/tbl/cfe_tbl_internal.c ****             {
1135:/home/simulink/cFS_FreeRTOS_seL4/cfe/fsw/cfe-core/src/tbl/cfe_tbl_internal.c ****                 /* To update a single buffered table requires a memcpy from working buffer */
1136:/home/simulink/cFS_FreeRTOS_seL4/cfe/fsw/cfe-core/src/tbl/cfe_tbl_internal.c ****                 CFE_PSP_MemCpy(RegRecPtr->Buffers[0].BufferPtr,
 2493               	.loc 1 1136 0
 2494 14fa 206F 0014 	move.l 20(%sp),%a0
 2495 14fe 2268 0004 	move.l 4(%a0),%a1
1137:/home/simulink/cFS_FreeRTOS_seL4/cfe/fsw/cfe-core/src/tbl/cfe_tbl_internal.c ****                           CFE_TBL_TaskData.LoadBuffs[RegRecPtr->LoadInProgress].BufferPtr,
 2496               	.loc 1 1137 0
 2497 1502 206F 0014 	move.l 20(%sp),%a0
 2498 1506 2028 00C8 	move.l 200(%a0),%d0
 2499 150a 7254      	moveq #84,%d1
 2500 150c 4C01 0800 	muls.l %d1,%d0
 2501 1510 41F9 0000 	lea CFE_TBL_TaskData+540,%a0
 2501      0000 
 2502 1516 2230 0800 	move.l (%a0,%d0.l),%d1
1136:/home/simulink/cFS_FreeRTOS_seL4/cfe/fsw/cfe-core/src/tbl/cfe_tbl_internal.c ****                           CFE_TBL_TaskData.LoadBuffs[RegRecPtr->LoadInProgress].BufferPtr,
 2503               	.loc 1 1136 0
 2504 151a 206F 0014 	move.l 20(%sp),%a0
 2505 151e 2028 0010 	move.l 16(%a0),%d0
 2506 1522 2F09      	move.l %a1,-(%sp)
 2507               	.cfi_def_cfa_offset 20
 2508 1524 2F01      	move.l %d1,-(%sp)
 2509               	.cfi_def_cfa_offset 24
 2510 1526 2F00      	move.l %d0,-(%sp)
 2511               	.cfi_def_cfa_offset 28
 2512 1528 4EB9 0000 	jsr CFE_PSP_MemCpy
 2512      0000 
 2513 152e 4FEF 000C 	lea (12,%sp),%sp
 2514               	.cfi_def_cfa_offset 16
1138:/home/simulink/cFS_FreeRTOS_seL4/cfe/fsw/cfe-core/src/tbl/cfe_tbl_internal.c ****                           RegRecPtr->Size);
1139:/home/simulink/cFS_FreeRTOS_seL4/cfe/fsw/cfe-core/src/tbl/cfe_tbl_internal.c **** 
1140:/home/simulink/cFS_FreeRTOS_seL4/cfe/fsw/cfe-core/src/tbl/cfe_tbl_internal.c ****                 /* Save source description with active buffer */
68K GAS   			page 72


1141:/home/simulink/cFS_FreeRTOS_seL4/cfe/fsw/cfe-core/src/tbl/cfe_tbl_internal.c ****                 strncpy(RegRecPtr->Buffers[0].DataSource,
1142:/home/simulink/cFS_FreeRTOS_seL4/cfe/fsw/cfe-core/src/tbl/cfe_tbl_internal.c ****                         CFE_TBL_TaskData.LoadBuffs[RegRecPtr->LoadInProgress].DataSource,
 2515               	.loc 1 1142 0
 2516 1532 206F 0014 	move.l 20(%sp),%a0
 2517 1536 2028 00C8 	move.l 200(%a0),%d0
 2518 153a 7254      	moveq #84,%d1
 2519 153c 4C01 0800 	muls.l %d1,%d0
 2520 1540 0680 0000 	add.l #556,%d0
 2520      022C 
 2521 1546 0680 0000 	add.l #CFE_TBL_TaskData,%d0
 2521      0000 
 2522 154c 2200      	move.l %d0,%d1
 2523 154e 5481      	addq.l #2,%d1
1141:/home/simulink/cFS_FreeRTOS_seL4/cfe/fsw/cfe-core/src/tbl/cfe_tbl_internal.c ****                         CFE_TBL_TaskData.LoadBuffs[RegRecPtr->LoadInProgress].DataSource,
 2524               	.loc 1 1141 0
 2525 1550 202F 0014 	move.l 20(%sp),%d0
 2526 1554 0680 0000 	add.l #34,%d0
 2526      0022 
 2527 155a 4878 0040 	pea 64.w
 2528               	.cfi_def_cfa_offset 20
 2529 155e 2F01      	move.l %d1,-(%sp)
 2530               	.cfi_def_cfa_offset 24
 2531 1560 2F00      	move.l %d0,-(%sp)
 2532               	.cfi_def_cfa_offset 28
 2533 1562 4EB9 0000 	jsr strncpy
 2533      0000 
 2534 1568 4FEF 000C 	lea (12,%sp),%sp
 2535               	.cfi_def_cfa_offset 16
1143:/home/simulink/cFS_FreeRTOS_seL4/cfe/fsw/cfe-core/src/tbl/cfe_tbl_internal.c ****                         OS_MAX_PATH_LEN);
1144:/home/simulink/cFS_FreeRTOS_seL4/cfe/fsw/cfe-core/src/tbl/cfe_tbl_internal.c ****                 strncpy(RegRecPtr->LastFileLoaded,
1145:/home/simulink/cFS_FreeRTOS_seL4/cfe/fsw/cfe-core/src/tbl/cfe_tbl_internal.c ****                         CFE_TBL_TaskData.LoadBuffs[RegRecPtr->LoadInProgress].DataSource,
 2536               	.loc 1 1145 0
 2537 156c 206F 0014 	move.l 20(%sp),%a0
 2538 1570 2028 00C8 	move.l 200(%a0),%d0
 2539 1574 7254      	moveq #84,%d1
 2540 1576 4C01 0800 	muls.l %d1,%d0
 2541 157a 0680 0000 	add.l #556,%d0
 2541      022C 
 2542 1580 0680 0000 	add.l #CFE_TBL_TaskData,%d0
 2542      0000 
 2543 1586 2200      	move.l %d0,%d1
 2544 1588 5481      	addq.l #2,%d1
1144:/home/simulink/cFS_FreeRTOS_seL4/cfe/fsw/cfe-core/src/tbl/cfe_tbl_internal.c ****                         CFE_TBL_TaskData.LoadBuffs[RegRecPtr->LoadInProgress].DataSource,
 2545               	.loc 1 1144 0
 2546 158a 202F 0014 	move.l 20(%sp),%d0
 2547 158e 0680 0000 	add.l #270,%d0
 2547      010E 
 2548 1594 4878 0040 	pea 64.w
 2549               	.cfi_def_cfa_offset 20
 2550 1598 2F01      	move.l %d1,-(%sp)
 2551               	.cfi_def_cfa_offset 24
 2552 159a 2F00      	move.l %d0,-(%sp)
 2553               	.cfi_def_cfa_offset 28
 2554 159c 4EB9 0000 	jsr strncpy
 2554      0000 
 2555 15a2 4FEF 000C 	lea (12,%sp),%sp
 2556               	.cfi_def_cfa_offset 16
68K GAS   			page 73


1146:/home/simulink/cFS_FreeRTOS_seL4/cfe/fsw/cfe-core/src/tbl/cfe_tbl_internal.c ****                         OS_MAX_PATH_LEN);
1147:/home/simulink/cFS_FreeRTOS_seL4/cfe/fsw/cfe-core/src/tbl/cfe_tbl_internal.c ****                 
1148:/home/simulink/cFS_FreeRTOS_seL4/cfe/fsw/cfe-core/src/tbl/cfe_tbl_internal.c ****                 /* Save the file creation time from the loaded file into the Table Registry */
1149:/home/simulink/cFS_FreeRTOS_seL4/cfe/fsw/cfe-core/src/tbl/cfe_tbl_internal.c ****                 RegRecPtr->Buffers[0].FileCreateTimeSecs = 
1150:/home/simulink/cFS_FreeRTOS_seL4/cfe/fsw/cfe-core/src/tbl/cfe_tbl_internal.c ****                     CFE_TBL_TaskData.LoadBuffs[RegRecPtr->LoadInProgress].FileCreateTimeSecs;
 2557               	.loc 1 1150 0
 2558 15a6 206F 0014 	move.l 20(%sp),%a0
 2559 15aa 2028 00C8 	move.l 200(%a0),%d0
 2560 15ae 7254      	moveq #84,%d1
 2561 15b0 4C01 0800 	muls.l %d1,%d0
 2562 15b4 41F9 0000 	lea CFE_TBL_TaskData+544,%a0
 2562      0000 
 2563 15ba 2030 0800 	move.l (%a0,%d0.l),%d0
1149:/home/simulink/cFS_FreeRTOS_seL4/cfe/fsw/cfe-core/src/tbl/cfe_tbl_internal.c ****                     CFE_TBL_TaskData.LoadBuffs[RegRecPtr->LoadInProgress].FileCreateTimeSecs;
 2564               	.loc 1 1149 0
 2565 15be 206F 0014 	move.l 20(%sp),%a0
 2566 15c2 2140 0014 	move.l %d0,20(%a0)
1151:/home/simulink/cFS_FreeRTOS_seL4/cfe/fsw/cfe-core/src/tbl/cfe_tbl_internal.c ****                 RegRecPtr->Buffers[0].FileCreateTimeSubSecs = 
1152:/home/simulink/cFS_FreeRTOS_seL4/cfe/fsw/cfe-core/src/tbl/cfe_tbl_internal.c ****                     CFE_TBL_TaskData.LoadBuffs[RegRecPtr->LoadInProgress].FileCreateTimeSubSecs;
 2567               	.loc 1 1152 0
 2568 15c6 206F 0014 	move.l 20(%sp),%a0
 2569 15ca 2028 00C8 	move.l 200(%a0),%d0
 2570 15ce 7254      	moveq #84,%d1
 2571 15d0 4C01 0800 	muls.l %d1,%d0
 2572 15d4 41F9 0000 	lea CFE_TBL_TaskData+548,%a0
 2572      0000 
 2573 15da 2030 0800 	move.l (%a0,%d0.l),%d0
1151:/home/simulink/cFS_FreeRTOS_seL4/cfe/fsw/cfe-core/src/tbl/cfe_tbl_internal.c ****                 RegRecPtr->Buffers[0].FileCreateTimeSubSecs = 
 2574               	.loc 1 1151 0
 2575 15de 206F 0014 	move.l 20(%sp),%a0
 2576 15e2 2140 0018 	move.l %d0,24(%a0)
1153:/home/simulink/cFS_FreeRTOS_seL4/cfe/fsw/cfe-core/src/tbl/cfe_tbl_internal.c ****                 
1154:/home/simulink/cFS_FreeRTOS_seL4/cfe/fsw/cfe-core/src/tbl/cfe_tbl_internal.c ****                 /* Save the previously computed CRC into the new buffer */
1155:/home/simulink/cFS_FreeRTOS_seL4/cfe/fsw/cfe-core/src/tbl/cfe_tbl_internal.c ****                 RegRecPtr->Buffers[0].Crc = CFE_TBL_TaskData.LoadBuffs[RegRecPtr->LoadInProgress].C
 2577               	.loc 1 1155 0
 2578 15e6 206F 0014 	move.l 20(%sp),%a0
 2579 15ea 2028 00C8 	move.l 200(%a0),%d0
 2580 15ee 7254      	moveq #84,%d1
 2581 15f0 4C01 0800 	muls.l %d1,%d0
 2582 15f4 41F9 0000 	lea CFE_TBL_TaskData+552,%a0
 2582      0000 
 2583 15fa 2030 0800 	move.l (%a0,%d0.l),%d0
 2584 15fe 206F 0014 	move.l 20(%sp),%a0
 2585 1602 2140 001C 	move.l %d0,28(%a0)
1156:/home/simulink/cFS_FreeRTOS_seL4/cfe/fsw/cfe-core/src/tbl/cfe_tbl_internal.c **** 
1157:/home/simulink/cFS_FreeRTOS_seL4/cfe/fsw/cfe-core/src/tbl/cfe_tbl_internal.c ****                 /* Free the working buffer */
1158:/home/simulink/cFS_FreeRTOS_seL4/cfe/fsw/cfe-core/src/tbl/cfe_tbl_internal.c ****                 CFE_TBL_TaskData.LoadBuffs[RegRecPtr->LoadInProgress].Taken = FALSE;
 2586               	.loc 1 1158 0
 2587 1606 206F 0014 	move.l 20(%sp),%a0
 2588 160a 2028 00C8 	move.l 200(%a0),%d0
 2589 160e 7254      	moveq #84,%d1
 2590 1610 4C01 0800 	muls.l %d1,%d0
 2591 1614 41F9 0000 	lea CFE_TBL_TaskData+556,%a0
 2591      0000 
 2592 161a 4201      	clr.b %d1
 2593 161c 1181 0800 	move.b %d1,(%a0,%d0.l)
1159:/home/simulink/cFS_FreeRTOS_seL4/cfe/fsw/cfe-core/src/tbl/cfe_tbl_internal.c **** 
68K GAS   			page 74


1160:/home/simulink/cFS_FreeRTOS_seL4/cfe/fsw/cfe-core/src/tbl/cfe_tbl_internal.c ****                 CFE_TBL_NotifyTblUsersOfUpdate(RegRecPtr);
 2594               	.loc 1 1160 0
 2595 1620 2F2F 0014 	move.l 20(%sp),-(%sp)
 2596               	.cfi_def_cfa_offset 20
 2597 1624 4EB9 0000 	jsr CFE_TBL_NotifyTblUsersOfUpdate
 2597      0000 
 2598 162a 588F      	addq.l #4,%sp
 2599               	.cfi_def_cfa_offset 16
1161:/home/simulink/cFS_FreeRTOS_seL4/cfe/fsw/cfe-core/src/tbl/cfe_tbl_internal.c ****             
1162:/home/simulink/cFS_FreeRTOS_seL4/cfe/fsw/cfe-core/src/tbl/cfe_tbl_internal.c ****                 /* If the table is a critical table, update the appropriate CDS with the new data *
1163:/home/simulink/cFS_FreeRTOS_seL4/cfe/fsw/cfe-core/src/tbl/cfe_tbl_internal.c ****                 if (RegRecPtr->CriticalTable == TRUE)
 2600               	.loc 1 1163 0
 2601 162c 206F 0014 	move.l 20(%sp),%a0
 2602 1630 1028 00DE 	move.b 222(%a0),%d0
 2603 1634 1000      	move.b %d0,%d0
 2604 1636 0280 0000 	and.l #255,%d0
 2604      00FF 
 2605 163c 7201      	moveq #1,%d1
 2606 163e B280      	cmp.l %d0,%d1
 2607 1640 660C      	jne .L127
1164:/home/simulink/cFS_FreeRTOS_seL4/cfe/fsw/cfe-core/src/tbl/cfe_tbl_internal.c ****                 {
1165:/home/simulink/cFS_FreeRTOS_seL4/cfe/fsw/cfe-core/src/tbl/cfe_tbl_internal.c ****                     CFE_TBL_UpdateCriticalTblCDS(RegRecPtr);
 2608               	.loc 1 1165 0
 2609 1642 2F2F 0014 	move.l 20(%sp),-(%sp)
 2610               	.cfi_def_cfa_offset 20
 2611 1646 4EB9 0000 	jsr CFE_TBL_UpdateCriticalTblCDS
 2611      0000 
 2612 164c 588F      	addq.l #4,%sp
 2613               	.cfi_def_cfa_offset 16
 2614               	.L127:
1166:/home/simulink/cFS_FreeRTOS_seL4/cfe/fsw/cfe-core/src/tbl/cfe_tbl_internal.c ****                 }
1167:/home/simulink/cFS_FreeRTOS_seL4/cfe/fsw/cfe-core/src/tbl/cfe_tbl_internal.c ****             }
1168:/home/simulink/cFS_FreeRTOS_seL4/cfe/fsw/cfe-core/src/tbl/cfe_tbl_internal.c ****         }
1169:/home/simulink/cFS_FreeRTOS_seL4/cfe/fsw/cfe-core/src/tbl/cfe_tbl_internal.c ****     }
1170:/home/simulink/cFS_FreeRTOS_seL4/cfe/fsw/cfe-core/src/tbl/cfe_tbl_internal.c **** 
1171:/home/simulink/cFS_FreeRTOS_seL4/cfe/fsw/cfe-core/src/tbl/cfe_tbl_internal.c ****     return Status;
 2615               	.loc 1 1171 0
 2616 164e 202F 0008 	move.l 8(%sp),%d0
1172:/home/simulink/cFS_FreeRTOS_seL4/cfe/fsw/cfe-core/src/tbl/cfe_tbl_internal.c **** }   /* End of CFE_TBL_UpdateInternal() */
 2617               	.loc 1 1172 0
 2618 1652 4FEF 000C 	lea (12,%sp),%sp
 2619 1656 4E75      	rts
 2620               	.cfi_endproc
 2621               	.LFE76:
 2622               	.sizeCFE_TBL_UpdateInternal, .-CFE_TBL_UpdateInternal
 2623               	.align2
 2624               	.globlCFE_TBL_NotifyTblUsersOfUpdate
 2625               	.typeCFE_TBL_NotifyTblUsersOfUpdate, @function
 2626               	CFE_TBL_NotifyTblUsersOfUpdate:
 2627               	.LFB77:
1173:/home/simulink/cFS_FreeRTOS_seL4/cfe/fsw/cfe-core/src/tbl/cfe_tbl_internal.c **** 
1174:/home/simulink/cFS_FreeRTOS_seL4/cfe/fsw/cfe-core/src/tbl/cfe_tbl_internal.c **** 
1175:/home/simulink/cFS_FreeRTOS_seL4/cfe/fsw/cfe-core/src/tbl/cfe_tbl_internal.c **** /*******************************************************************
1176:/home/simulink/cFS_FreeRTOS_seL4/cfe/fsw/cfe-core/src/tbl/cfe_tbl_internal.c **** **
1177:/home/simulink/cFS_FreeRTOS_seL4/cfe/fsw/cfe-core/src/tbl/cfe_tbl_internal.c **** ** CFE_TBL_NotifyTblUsersOfUpdate
1178:/home/simulink/cFS_FreeRTOS_seL4/cfe/fsw/cfe-core/src/tbl/cfe_tbl_internal.c **** **
1179:/home/simulink/cFS_FreeRTOS_seL4/cfe/fsw/cfe-core/src/tbl/cfe_tbl_internal.c **** ** NOTE: For complete prolog information, see 'cfe_tbl_internal.h'
68K GAS   			page 75


1180:/home/simulink/cFS_FreeRTOS_seL4/cfe/fsw/cfe-core/src/tbl/cfe_tbl_internal.c **** ********************************************************************/
1181:/home/simulink/cFS_FreeRTOS_seL4/cfe/fsw/cfe-core/src/tbl/cfe_tbl_internal.c **** 
1182:/home/simulink/cFS_FreeRTOS_seL4/cfe/fsw/cfe-core/src/tbl/cfe_tbl_internal.c **** void CFE_TBL_NotifyTblUsersOfUpdate(CFE_TBL_RegistryRec_t *RegRecPtr)
1183:/home/simulink/cFS_FreeRTOS_seL4/cfe/fsw/cfe-core/src/tbl/cfe_tbl_internal.c **** {
 2628               	.loc 1 1183 0
 2629               	.cfi_startproc
 2630 1658 598F      	subq.l #4,%sp
 2631               	.cfi_def_cfa_offset 8
 2632 165a 2F0A      	move.l %a2,-(%sp)
 2633               	.cfi_def_cfa_offset 12
 2634               	.cfi_offset 10, -12
1184:/home/simulink/cFS_FreeRTOS_seL4/cfe/fsw/cfe-core/src/tbl/cfe_tbl_internal.c ****     CFE_TBL_Handle_t AccessIterator;
1185:/home/simulink/cFS_FreeRTOS_seL4/cfe/fsw/cfe-core/src/tbl/cfe_tbl_internal.c ****     
1186:/home/simulink/cFS_FreeRTOS_seL4/cfe/fsw/cfe-core/src/tbl/cfe_tbl_internal.c ****     /* Reset Load in Progress Values */
1187:/home/simulink/cFS_FreeRTOS_seL4/cfe/fsw/cfe-core/src/tbl/cfe_tbl_internal.c ****     RegRecPtr->LoadInProgress = CFE_TBL_NO_LOAD_IN_PROGRESS;
 2635               	.loc 1 1187 0
 2636 165c 206F 000C 	move.l 12(%sp),%a0
 2637 1660 70FF      	moveq #-1,%d0
 2638 1662 2140 00C8 	move.l %d0,200(%a0)
1188:/home/simulink/cFS_FreeRTOS_seL4/cfe/fsw/cfe-core/src/tbl/cfe_tbl_internal.c ****     RegRecPtr->TimeOfLastUpdate = CFE_TIME_GetTime();
 2639               	.loc 1 1188 0
 2640 1666 246F 000C 	move.l 12(%sp),%a2
 2641 166a 4EB9 0000 	jsr CFE_TIME_GetTime
 2641      0000 
 2642 1670 2540 00BC 	move.l %d0,188(%a2)
 2643 1674 2541 00C0 	move.l %d1,192(%a2)
1189:/home/simulink/cFS_FreeRTOS_seL4/cfe/fsw/cfe-core/src/tbl/cfe_tbl_internal.c **** 
1190:/home/simulink/cFS_FreeRTOS_seL4/cfe/fsw/cfe-core/src/tbl/cfe_tbl_internal.c ****     /* Clear notification of pending load (as well as NO LOAD) and notify everyone of update */
1191:/home/simulink/cFS_FreeRTOS_seL4/cfe/fsw/cfe-core/src/tbl/cfe_tbl_internal.c ****     RegRecPtr->LoadPending = FALSE;
 2644               	.loc 1 1191 0
 2645 1678 206F 000C 	move.l 12(%sp),%a0
 2646 167c 4201      	clr.b %d1
 2647 167e 1141 00E0 	move.b %d1,224(%a0)
1192:/home/simulink/cFS_FreeRTOS_seL4/cfe/fsw/cfe-core/src/tbl/cfe_tbl_internal.c ****     RegRecPtr->TableLoadedOnce = TRUE;
 2648               	.loc 1 1192 0
 2649 1682 206F 000C 	move.l 12(%sp),%a0
 2650 1686 7001      	moveq #1,%d0
 2651 1688 1140 00DF 	move.b %d0,223(%a0)
1193:/home/simulink/cFS_FreeRTOS_seL4/cfe/fsw/cfe-core/src/tbl/cfe_tbl_internal.c ****     AccessIterator = RegRecPtr->HeadOfAccessList;
 2652               	.loc 1 1193 0
 2653 168c 206F 000C 	move.l 12(%sp),%a0
 2654 1690 3F68 00C4 	move.w 196(%a0),6(%sp)
 2654      0006 
1194:/home/simulink/cFS_FreeRTOS_seL4/cfe/fsw/cfe-core/src/tbl/cfe_tbl_internal.c ****     while (AccessIterator != CFE_TBL_END_OF_LIST)
 2655               	.loc 1 1194 0
 2656 1696 602A      	jra .L138
 2657               	.L139:
1195:/home/simulink/cFS_FreeRTOS_seL4/cfe/fsw/cfe-core/src/tbl/cfe_tbl_internal.c ****     {
1196:/home/simulink/cFS_FreeRTOS_seL4/cfe/fsw/cfe-core/src/tbl/cfe_tbl_internal.c ****         CFE_TBL_TaskData.Handles[AccessIterator].Updated = TRUE;
 2658               	.loc 1 1196 0
 2659 1698 302F 0006 	move.w 6(%sp),%d0
 2660 169c 48C0      	ext.l %d0
 2661 169e E988      	lsl.l #4,%d0
 2662 16a0 41F9 0000 	lea CFE_TBL_TaskData+888,%a0
 2662      0000 
 2663 16a6 7201      	moveq #1,%d1
 2664 16a8 1181 0800 	move.b %d1,(%a0,%d0.l)
68K GAS   			page 76


1197:/home/simulink/cFS_FreeRTOS_seL4/cfe/fsw/cfe-core/src/tbl/cfe_tbl_internal.c **** 
1198:/home/simulink/cFS_FreeRTOS_seL4/cfe/fsw/cfe-core/src/tbl/cfe_tbl_internal.c ****         AccessIterator = CFE_TBL_TaskData.Handles[AccessIterator].NextLink;
 2665               	.loc 1 1198 0
 2666 16ac 302F 0006 	move.w 6(%sp),%d0
 2667 16b0 48C0      	ext.l %d0
 2668 16b2 E988      	lsl.l #4,%d0
 2669 16b4 41F9 0000 	lea CFE_TBL_TaskData+884,%a0
 2669      0000 
 2670 16ba 43F0 0800 	lea (%a0,%d0.l),%a1
 2671 16be 3F51 0006 	move.w (%a1),6(%sp)
 2672               	.L138:
1194:/home/simulink/cFS_FreeRTOS_seL4/cfe/fsw/cfe-core/src/tbl/cfe_tbl_internal.c ****     {
 2673               	.loc 1 1194 0
 2674 16c2 306F 0006 	move.w 6(%sp),%a0
 2675 16c6 70FF      	moveq #-1,%d0
 2676 16c8 B088      	cmp.l %a0,%d0
 2677 16ca 66CC      	jne .L139
1199:/home/simulink/cFS_FreeRTOS_seL4/cfe/fsw/cfe-core/src/tbl/cfe_tbl_internal.c ****     }
1200:/home/simulink/cFS_FreeRTOS_seL4/cfe/fsw/cfe-core/src/tbl/cfe_tbl_internal.c **** }
 2678               	.loc 1 1200 0
 2679 16cc 4E71      	nop
 2680 16ce 245F      	move.l (%sp)+,%a2
 2681 16d0 588F      	addq.l #4,%sp
 2682 16d2 4E75      	rts
 2683               	.cfi_endproc
 2684               	.LFE77:
 2685               	.sizeCFE_TBL_NotifyTblUsersOfUpdate, .-CFE_TBL_NotifyTblUsersOfUpdate
 2686               	.section.rodata
 2687               	.LC27:
 2688 05da 556E 6162 	.string"Unable to read std header for '%s', Status = 0x%08X"
 2688      6C65 2074 
 2688      6F20 7265 
 2688      6164 2073 
 2688      7464 2068 
 2689               	.LC28:
 2690 060e 4669 6C65 	.string"File '%s' is not a cFE file type, ContentType = 0x%08X"
 2690      2027 2573 
 2690      2720 6973 
 2690      206E 6F74 
 2690      2061 2063 
 2691               	.LC29:
 2692 0645 4669 6C65 	.string"File subtype for '%s' is wrong. Subtype = 0x%08X"
 2692      2073 7562 
 2692      7479 7065 
 2692      2066 6F72 
 2692      2027 2573 
 2693               	.LC30:
 2694 0676 556E 6162 	.string"Unable to read tbl header for '%s', Status = 0x%08X"
 2694      6C65 2074 
 2694      6F20 7265 
 2694      6164 2074 
 2694      626C 2068 
 2695               	.text
 2696               	.align2
 2697               	.globlCFE_TBL_ReadHeaders
 2698               	.typeCFE_TBL_ReadHeaders, @function
 2699               	CFE_TBL_ReadHeaders:
68K GAS   			page 77


 2700               	.LFB78:
1201:/home/simulink/cFS_FreeRTOS_seL4/cfe/fsw/cfe-core/src/tbl/cfe_tbl_internal.c **** 
1202:/home/simulink/cFS_FreeRTOS_seL4/cfe/fsw/cfe-core/src/tbl/cfe_tbl_internal.c **** /*******************************************************************
1203:/home/simulink/cFS_FreeRTOS_seL4/cfe/fsw/cfe-core/src/tbl/cfe_tbl_internal.c **** **
1204:/home/simulink/cFS_FreeRTOS_seL4/cfe/fsw/cfe-core/src/tbl/cfe_tbl_internal.c **** ** CFE_TBL_ReadHeaders
1205:/home/simulink/cFS_FreeRTOS_seL4/cfe/fsw/cfe-core/src/tbl/cfe_tbl_internal.c **** **
1206:/home/simulink/cFS_FreeRTOS_seL4/cfe/fsw/cfe-core/src/tbl/cfe_tbl_internal.c **** ** NOTE: For complete prolog information, see 'cfe_tbl_internal.h'
1207:/home/simulink/cFS_FreeRTOS_seL4/cfe/fsw/cfe-core/src/tbl/cfe_tbl_internal.c **** ********************************************************************/
1208:/home/simulink/cFS_FreeRTOS_seL4/cfe/fsw/cfe-core/src/tbl/cfe_tbl_internal.c **** 
1209:/home/simulink/cFS_FreeRTOS_seL4/cfe/fsw/cfe-core/src/tbl/cfe_tbl_internal.c **** int32 CFE_TBL_ReadHeaders( int32 FileDescriptor,
1210:/home/simulink/cFS_FreeRTOS_seL4/cfe/fsw/cfe-core/src/tbl/cfe_tbl_internal.c ****                            CFE_FS_Header_t *StdFileHeaderPtr,
1211:/home/simulink/cFS_FreeRTOS_seL4/cfe/fsw/cfe-core/src/tbl/cfe_tbl_internal.c ****                            CFE_TBL_File_Hdr_t *TblFileHeaderPtr,
1212:/home/simulink/cFS_FreeRTOS_seL4/cfe/fsw/cfe-core/src/tbl/cfe_tbl_internal.c ****                            const char *LoadFilename )
1213:/home/simulink/cFS_FreeRTOS_seL4/cfe/fsw/cfe-core/src/tbl/cfe_tbl_internal.c **** {
 2701               	.loc 1 1213 0
 2702               	.cfi_startproc
 2703 16d4 518F      	subq.l #8,%sp
 2704               	.cfi_def_cfa_offset 12
1214:/home/simulink/cFS_FreeRTOS_seL4/cfe/fsw/cfe-core/src/tbl/cfe_tbl_internal.c ****     int32 Status;
1215:/home/simulink/cFS_FreeRTOS_seL4/cfe/fsw/cfe-core/src/tbl/cfe_tbl_internal.c ****     int32 EndianCheck = 0x01020304;
 2705               	.loc 1 1215 0
 2706 16d6 2EBC 0102 	move.l #16909060,(%sp)
 2706      0304 
1216:/home/simulink/cFS_FreeRTOS_seL4/cfe/fsw/cfe-core/src/tbl/cfe_tbl_internal.c **** 
1217:/home/simulink/cFS_FreeRTOS_seL4/cfe/fsw/cfe-core/src/tbl/cfe_tbl_internal.c ****     #if (CFE_TBL_VALID_SCID_COUNT > 0)
1218:/home/simulink/cFS_FreeRTOS_seL4/cfe/fsw/cfe-core/src/tbl/cfe_tbl_internal.c ****     static uint32 ListSC[2] = { CFE_TBL_VALID_SCID_1, CFE_TBL_VALID_SCID_2};
1219:/home/simulink/cFS_FreeRTOS_seL4/cfe/fsw/cfe-core/src/tbl/cfe_tbl_internal.c ****     uint32 IndexSC;
1220:/home/simulink/cFS_FreeRTOS_seL4/cfe/fsw/cfe-core/src/tbl/cfe_tbl_internal.c ****     #endif
1221:/home/simulink/cFS_FreeRTOS_seL4/cfe/fsw/cfe-core/src/tbl/cfe_tbl_internal.c ****     
1222:/home/simulink/cFS_FreeRTOS_seL4/cfe/fsw/cfe-core/src/tbl/cfe_tbl_internal.c ****     #if (CFE_TBL_VALID_PRID_COUNT > 0)
1223:/home/simulink/cFS_FreeRTOS_seL4/cfe/fsw/cfe-core/src/tbl/cfe_tbl_internal.c ****     static uint32 ListPR[4] = { CFE_TBL_VALID_PRID_1, CFE_TBL_VALID_PRID_2,
1224:/home/simulink/cFS_FreeRTOS_seL4/cfe/fsw/cfe-core/src/tbl/cfe_tbl_internal.c ****                                 CFE_TBL_VALID_PRID_3, CFE_TBL_VALID_PRID_4};
1225:/home/simulink/cFS_FreeRTOS_seL4/cfe/fsw/cfe-core/src/tbl/cfe_tbl_internal.c ****     uint32 IndexPR;
1226:/home/simulink/cFS_FreeRTOS_seL4/cfe/fsw/cfe-core/src/tbl/cfe_tbl_internal.c ****     #endif
1227:/home/simulink/cFS_FreeRTOS_seL4/cfe/fsw/cfe-core/src/tbl/cfe_tbl_internal.c ****     
1228:/home/simulink/cFS_FreeRTOS_seL4/cfe/fsw/cfe-core/src/tbl/cfe_tbl_internal.c ****     /* Once the file is open, read the headers to determine the target Table */
1229:/home/simulink/cFS_FreeRTOS_seL4/cfe/fsw/cfe-core/src/tbl/cfe_tbl_internal.c ****     Status = CFE_FS_ReadHeader(StdFileHeaderPtr, FileDescriptor);
 2707               	.loc 1 1229 0
 2708 16dc 2F2F 000C 	move.l 12(%sp),-(%sp)
 2709               	.cfi_def_cfa_offset 16
 2710 16e0 2F2F 0014 	move.l 20(%sp),-(%sp)
 2711               	.cfi_def_cfa_offset 20
 2712 16e4 4EB9 0000 	jsr CFE_FS_ReadHeader
 2712      0000 
 2713 16ea 508F      	addq.l #8,%sp
 2714               	.cfi_def_cfa_offset 12
 2715 16ec 2F40 0004 	move.l %d0,4(%sp)
1230:/home/simulink/cFS_FreeRTOS_seL4/cfe/fsw/cfe-core/src/tbl/cfe_tbl_internal.c **** 
1231:/home/simulink/cFS_FreeRTOS_seL4/cfe/fsw/cfe-core/src/tbl/cfe_tbl_internal.c ****     /* Verify successful read of standard cFE File Header */
1232:/home/simulink/cFS_FreeRTOS_seL4/cfe/fsw/cfe-core/src/tbl/cfe_tbl_internal.c ****     if (Status != sizeof(CFE_FS_Header_t))
 2716               	.loc 1 1232 0
 2717 16f0 7040      	moveq #64,%d0
 2718 16f2 B0AF 0004 	cmp.l 4(%sp),%d0
 2719 16f6 6738      	jeq .L141
1233:/home/simulink/cFS_FreeRTOS_seL4/cfe/fsw/cfe-core/src/tbl/cfe_tbl_internal.c ****     {
1234:/home/simulink/cFS_FreeRTOS_seL4/cfe/fsw/cfe-core/src/tbl/cfe_tbl_internal.c ****         CFE_EVS_SendEventWithAppID(CFE_TBL_FILE_STD_HDR_ERR_EID,
 2720               	.loc 1 1234 0
68K GAS   			page 78


 2721 16f8 222F 0004 	move.l 4(%sp),%d1
 2722 16fc 2039 0000 	move.l CFE_TBL_TaskData+520,%d0
 2722      0000 
 2723 1702 2F01      	move.l %d1,-(%sp)
 2724               	.cfi_def_cfa_offset 16
 2725 1704 2F2F 001C 	move.l 28(%sp),-(%sp)
 2726               	.cfi_def_cfa_offset 20
 2727 1708 4879 0000 	pea .LC27
 2727      0000 
 2728               	.cfi_def_cfa_offset 24
 2729 170e 2F00      	move.l %d0,-(%sp)
 2730               	.cfi_def_cfa_offset 28
 2731 1710 4878 0003 	pea 3.w
 2732               	.cfi_def_cfa_offset 32
 2733 1714 4878 0036 	pea 54.w
 2734               	.cfi_def_cfa_offset 36
 2735 1718 4EB9 0000 	jsr CFE_EVS_SendEventWithAppID
 2735      0000 
 2736 171e 4FEF 0018 	lea (24,%sp),%sp
 2737               	.cfi_def_cfa_offset 12
1235:/home/simulink/cFS_FreeRTOS_seL4/cfe/fsw/cfe-core/src/tbl/cfe_tbl_internal.c ****                                    CFE_EVS_ERROR,
1236:/home/simulink/cFS_FreeRTOS_seL4/cfe/fsw/cfe-core/src/tbl/cfe_tbl_internal.c ****                                    CFE_TBL_TaskData.TableTaskAppId,
1237:/home/simulink/cFS_FreeRTOS_seL4/cfe/fsw/cfe-core/src/tbl/cfe_tbl_internal.c ****                                    "Unable to read std header for '%s', Status = 0x%08X",
1238:/home/simulink/cFS_FreeRTOS_seL4/cfe/fsw/cfe-core/src/tbl/cfe_tbl_internal.c ****                                    LoadFilename, (unsigned int)Status);
1239:/home/simulink/cFS_FreeRTOS_seL4/cfe/fsw/cfe-core/src/tbl/cfe_tbl_internal.c **** 
1240:/home/simulink/cFS_FreeRTOS_seL4/cfe/fsw/cfe-core/src/tbl/cfe_tbl_internal.c ****         Status = CFE_TBL_ERR_NO_STD_HEADER;
 2738               	.loc 1 1240 0
 2739 1722 223C CC00 	move.l #-872415203,%d1
 2739      001D 
 2740 1728 2F41 0004 	move.l %d1,4(%sp)
 2741 172c 6000 0110 	jra .L142
 2742               	.L141:
1241:/home/simulink/cFS_FreeRTOS_seL4/cfe/fsw/cfe-core/src/tbl/cfe_tbl_internal.c ****     }
1242:/home/simulink/cFS_FreeRTOS_seL4/cfe/fsw/cfe-core/src/tbl/cfe_tbl_internal.c ****     else
1243:/home/simulink/cFS_FreeRTOS_seL4/cfe/fsw/cfe-core/src/tbl/cfe_tbl_internal.c ****     {
1244:/home/simulink/cFS_FreeRTOS_seL4/cfe/fsw/cfe-core/src/tbl/cfe_tbl_internal.c ****         /* Verify the file type is a cFE compatible file */
1245:/home/simulink/cFS_FreeRTOS_seL4/cfe/fsw/cfe-core/src/tbl/cfe_tbl_internal.c ****         if (StdFileHeaderPtr->ContentType != CFE_FS_FILE_CONTENT_ID)
 2743               	.loc 1 1245 0
 2744 1730 206F 0010 	move.l 16(%sp),%a0
 2745 1734 2010      	move.l (%a0),%d0
 2746 1736 0C80 6346 	cmp.l #1665549617,%d0
 2746      4531 
 2747 173c 673A      	jeq .L143
1246:/home/simulink/cFS_FreeRTOS_seL4/cfe/fsw/cfe-core/src/tbl/cfe_tbl_internal.c ****         {
1247:/home/simulink/cFS_FreeRTOS_seL4/cfe/fsw/cfe-core/src/tbl/cfe_tbl_internal.c ****             CFE_EVS_SendEventWithAppID(CFE_TBL_FILE_TYPE_ERR_EID,
1248:/home/simulink/cFS_FreeRTOS_seL4/cfe/fsw/cfe-core/src/tbl/cfe_tbl_internal.c ****                                        CFE_EVS_ERROR,
1249:/home/simulink/cFS_FreeRTOS_seL4/cfe/fsw/cfe-core/src/tbl/cfe_tbl_internal.c ****                                        CFE_TBL_TaskData.TableTaskAppId,
1250:/home/simulink/cFS_FreeRTOS_seL4/cfe/fsw/cfe-core/src/tbl/cfe_tbl_internal.c ****                                        "File '%s' is not a cFE file type, ContentType = 0x%08X",
1251:/home/simulink/cFS_FreeRTOS_seL4/cfe/fsw/cfe-core/src/tbl/cfe_tbl_internal.c ****                                        LoadFilename, (unsigned int)StdFileHeaderPtr->ContentType);
 2748               	.loc 1 1251 0
 2749 173e 206F 0010 	move.l 16(%sp),%a0
 2750 1742 2210      	move.l (%a0),%d1
1247:/home/simulink/cFS_FreeRTOS_seL4/cfe/fsw/cfe-core/src/tbl/cfe_tbl_internal.c ****                                        CFE_EVS_ERROR,
 2751               	.loc 1 1247 0
 2752 1744 2039 0000 	move.l CFE_TBL_TaskData+520,%d0
 2752      0000 
 2753 174a 2F01      	move.l %d1,-(%sp)
68K GAS   			page 79


 2754               	.cfi_def_cfa_offset 16
 2755 174c 2F2F 001C 	move.l 28(%sp),-(%sp)
 2756               	.cfi_def_cfa_offset 20
 2757 1750 4879 0000 	pea .LC28
 2757      0000 
 2758               	.cfi_def_cfa_offset 24
 2759 1756 2F00      	move.l %d0,-(%sp)
 2760               	.cfi_def_cfa_offset 28
 2761 1758 4878 0003 	pea 3.w
 2762               	.cfi_def_cfa_offset 32
 2763 175c 4878 003A 	pea 58.w
 2764               	.cfi_def_cfa_offset 36
 2765 1760 4EB9 0000 	jsr CFE_EVS_SendEventWithAppID
 2765      0000 
 2766 1766 4FEF 0018 	lea (24,%sp),%sp
 2767               	.cfi_def_cfa_offset 12
1252:/home/simulink/cFS_FreeRTOS_seL4/cfe/fsw/cfe-core/src/tbl/cfe_tbl_internal.c **** 
1253:/home/simulink/cFS_FreeRTOS_seL4/cfe/fsw/cfe-core/src/tbl/cfe_tbl_internal.c ****             Status = CFE_TBL_ERR_BAD_CONTENT_ID;
 2768               	.loc 1 1253 0
 2769 176a 203C CC00 	move.l #-872415210,%d0
 2769      0016 
 2770 1770 2F40 0004 	move.l %d0,4(%sp)
 2771 1774 6000 00C8 	jra .L142
 2772               	.L143:
1254:/home/simulink/cFS_FreeRTOS_seL4/cfe/fsw/cfe-core/src/tbl/cfe_tbl_internal.c ****         }
1255:/home/simulink/cFS_FreeRTOS_seL4/cfe/fsw/cfe-core/src/tbl/cfe_tbl_internal.c ****         else
1256:/home/simulink/cFS_FreeRTOS_seL4/cfe/fsw/cfe-core/src/tbl/cfe_tbl_internal.c ****         {
1257:/home/simulink/cFS_FreeRTOS_seL4/cfe/fsw/cfe-core/src/tbl/cfe_tbl_internal.c ****             /* Verify the SubType to ensure that it is a Table Image File */
1258:/home/simulink/cFS_FreeRTOS_seL4/cfe/fsw/cfe-core/src/tbl/cfe_tbl_internal.c ****             if (StdFileHeaderPtr->SubType != CFE_FS_TBL_IMG_SUBTYPE)
 2773               	.loc 1 1258 0
 2774 1778 206F 0010 	move.l 16(%sp),%a0
 2775 177c 2028 0004 	move.l 4(%a0),%d0
 2776 1780 7208      	moveq #8,%d1
 2777 1782 B280      	cmp.l %d0,%d1
 2778 1784 673A      	jeq .L144
1259:/home/simulink/cFS_FreeRTOS_seL4/cfe/fsw/cfe-core/src/tbl/cfe_tbl_internal.c ****             {
1260:/home/simulink/cFS_FreeRTOS_seL4/cfe/fsw/cfe-core/src/tbl/cfe_tbl_internal.c ****                 CFE_EVS_SendEventWithAppID(CFE_TBL_FILE_SUBTYPE_ERR_EID,
1261:/home/simulink/cFS_FreeRTOS_seL4/cfe/fsw/cfe-core/src/tbl/cfe_tbl_internal.c ****                                            CFE_EVS_ERROR,
1262:/home/simulink/cFS_FreeRTOS_seL4/cfe/fsw/cfe-core/src/tbl/cfe_tbl_internal.c ****                                            CFE_TBL_TaskData.TableTaskAppId,
1263:/home/simulink/cFS_FreeRTOS_seL4/cfe/fsw/cfe-core/src/tbl/cfe_tbl_internal.c ****                                            "File subtype for '%s' is wrong. Subtype = 0x%08X",
1264:/home/simulink/cFS_FreeRTOS_seL4/cfe/fsw/cfe-core/src/tbl/cfe_tbl_internal.c ****                                            LoadFilename, (unsigned int)StdFileHeaderPtr->SubType);
 2779               	.loc 1 1264 0
 2780 1786 206F 0010 	move.l 16(%sp),%a0
 2781 178a 2228 0004 	move.l 4(%a0),%d1
1260:/home/simulink/cFS_FreeRTOS_seL4/cfe/fsw/cfe-core/src/tbl/cfe_tbl_internal.c ****                                            CFE_EVS_ERROR,
 2782               	.loc 1 1260 0
 2783 178e 2039 0000 	move.l CFE_TBL_TaskData+520,%d0
 2783      0000 
 2784 1794 2F01      	move.l %d1,-(%sp)
 2785               	.cfi_def_cfa_offset 16
 2786 1796 2F2F 001C 	move.l 28(%sp),-(%sp)
 2787               	.cfi_def_cfa_offset 20
 2788 179a 4879 0000 	pea .LC29
 2788      0000 
 2789               	.cfi_def_cfa_offset 24
 2790 17a0 2F00      	move.l %d0,-(%sp)
 2791               	.cfi_def_cfa_offset 28
68K GAS   			page 80


 2792 17a2 4878 0003 	pea 3.w
 2793               	.cfi_def_cfa_offset 32
 2794 17a6 4878 003B 	pea 59.w
 2795               	.cfi_def_cfa_offset 36
 2796 17aa 4EB9 0000 	jsr CFE_EVS_SendEventWithAppID
 2796      0000 
 2797 17b0 4FEF 0018 	lea (24,%sp),%sp
 2798               	.cfi_def_cfa_offset 12
1265:/home/simulink/cFS_FreeRTOS_seL4/cfe/fsw/cfe-core/src/tbl/cfe_tbl_internal.c **** 
1266:/home/simulink/cFS_FreeRTOS_seL4/cfe/fsw/cfe-core/src/tbl/cfe_tbl_internal.c ****                 Status = CFE_TBL_ERR_BAD_SUBTYPE_ID;
 2799               	.loc 1 1266 0
 2800 17b4 203C CC00 	move.l #-872415205,%d0
 2800      001B 
 2801 17ba 2F40 0004 	move.l %d0,4(%sp)
 2802 17be 607E      	jra .L142
 2803               	.L144:
1267:/home/simulink/cFS_FreeRTOS_seL4/cfe/fsw/cfe-core/src/tbl/cfe_tbl_internal.c ****             }
1268:/home/simulink/cFS_FreeRTOS_seL4/cfe/fsw/cfe-core/src/tbl/cfe_tbl_internal.c ****             else
1269:/home/simulink/cFS_FreeRTOS_seL4/cfe/fsw/cfe-core/src/tbl/cfe_tbl_internal.c ****             {
1270:/home/simulink/cFS_FreeRTOS_seL4/cfe/fsw/cfe-core/src/tbl/cfe_tbl_internal.c ****                 Status = OS_read(FileDescriptor, TblFileHeaderPtr, sizeof(CFE_TBL_File_Hdr_t));
 2804               	.loc 1 1270 0
 2805 17c0 4878 0034 	pea 52.w
 2806               	.cfi_def_cfa_offset 16
 2807 17c4 2F2F 0018 	move.l 24(%sp),-(%sp)
 2808               	.cfi_def_cfa_offset 20
 2809 17c8 2F2F 0014 	move.l 20(%sp),-(%sp)
 2810               	.cfi_def_cfa_offset 24
 2811 17cc 4EB9 0000 	jsr OS_read
 2811      0000 
 2812 17d2 4FEF 000C 	lea (12,%sp),%sp
 2813               	.cfi_def_cfa_offset 12
 2814 17d6 2F40 0004 	move.l %d0,4(%sp)
1271:/home/simulink/cFS_FreeRTOS_seL4/cfe/fsw/cfe-core/src/tbl/cfe_tbl_internal.c **** 
1272:/home/simulink/cFS_FreeRTOS_seL4/cfe/fsw/cfe-core/src/tbl/cfe_tbl_internal.c ****                 /* Verify successful read of cFE Table File Header */
1273:/home/simulink/cFS_FreeRTOS_seL4/cfe/fsw/cfe-core/src/tbl/cfe_tbl_internal.c ****                 if (Status != sizeof(CFE_TBL_File_Hdr_t))
 2815               	.loc 1 1273 0
 2816 17da 7234      	moveq #52,%d1
 2817 17dc B2AF 0004 	cmp.l 4(%sp),%d1
 2818 17e0 6736      	jeq .L145
1274:/home/simulink/cFS_FreeRTOS_seL4/cfe/fsw/cfe-core/src/tbl/cfe_tbl_internal.c ****                 {
1275:/home/simulink/cFS_FreeRTOS_seL4/cfe/fsw/cfe-core/src/tbl/cfe_tbl_internal.c ****                     CFE_EVS_SendEventWithAppID(CFE_TBL_FILE_TBL_HDR_ERR_EID,
 2819               	.loc 1 1275 0
 2820 17e2 222F 0004 	move.l 4(%sp),%d1
 2821 17e6 2039 0000 	move.l CFE_TBL_TaskData+520,%d0
 2821      0000 
 2822 17ec 2F01      	move.l %d1,-(%sp)
 2823               	.cfi_def_cfa_offset 16
 2824 17ee 2F2F 001C 	move.l 28(%sp),-(%sp)
 2825               	.cfi_def_cfa_offset 20
 2826 17f2 4879 0000 	pea .LC30
 2826      0000 
 2827               	.cfi_def_cfa_offset 24
 2828 17f8 2F00      	move.l %d0,-(%sp)
 2829               	.cfi_def_cfa_offset 28
 2830 17fa 4878 0003 	pea 3.w
 2831               	.cfi_def_cfa_offset 32
 2832 17fe 4878 0037 	pea 55.w
68K GAS   			page 81


 2833               	.cfi_def_cfa_offset 36
 2834 1802 4EB9 0000 	jsr CFE_EVS_SendEventWithAppID
 2834      0000 
 2835 1808 4FEF 0018 	lea (24,%sp),%sp
 2836               	.cfi_def_cfa_offset 12
1276:/home/simulink/cFS_FreeRTOS_seL4/cfe/fsw/cfe-core/src/tbl/cfe_tbl_internal.c ****                                                CFE_EVS_ERROR,
1277:/home/simulink/cFS_FreeRTOS_seL4/cfe/fsw/cfe-core/src/tbl/cfe_tbl_internal.c ****                                                CFE_TBL_TaskData.TableTaskAppId,
1278:/home/simulink/cFS_FreeRTOS_seL4/cfe/fsw/cfe-core/src/tbl/cfe_tbl_internal.c ****                                                "Unable to read tbl header for '%s', Status = 0x%08X
1279:/home/simulink/cFS_FreeRTOS_seL4/cfe/fsw/cfe-core/src/tbl/cfe_tbl_internal.c ****                                                LoadFilename, (unsigned int)Status);
1280:/home/simulink/cFS_FreeRTOS_seL4/cfe/fsw/cfe-core/src/tbl/cfe_tbl_internal.c **** 
1281:/home/simulink/cFS_FreeRTOS_seL4/cfe/fsw/cfe-core/src/tbl/cfe_tbl_internal.c ****                     Status = CFE_TBL_ERR_NO_TBL_HEADER;
 2837               	.loc 1 1281 0
 2838 180c 203C CC00 	move.l #-872415202,%d0
 2838      001E 
 2839 1812 2F40 0004 	move.l %d0,4(%sp)
 2840 1816 6026      	jra .L142
 2841               	.L145:
1282:/home/simulink/cFS_FreeRTOS_seL4/cfe/fsw/cfe-core/src/tbl/cfe_tbl_internal.c ****                 }
1283:/home/simulink/cFS_FreeRTOS_seL4/cfe/fsw/cfe-core/src/tbl/cfe_tbl_internal.c ****                 else
1284:/home/simulink/cFS_FreeRTOS_seL4/cfe/fsw/cfe-core/src/tbl/cfe_tbl_internal.c ****                 {
1285:/home/simulink/cFS_FreeRTOS_seL4/cfe/fsw/cfe-core/src/tbl/cfe_tbl_internal.c ****                     /* All "required" checks have passed and we are pointing at the data */
1286:/home/simulink/cFS_FreeRTOS_seL4/cfe/fsw/cfe-core/src/tbl/cfe_tbl_internal.c ****                     Status = CFE_SUCCESS;
 2842               	.loc 1 1286 0
 2843 1818 42AF 0004 	clr.l 4(%sp)
1287:/home/simulink/cFS_FreeRTOS_seL4/cfe/fsw/cfe-core/src/tbl/cfe_tbl_internal.c **** 
1288:/home/simulink/cFS_FreeRTOS_seL4/cfe/fsw/cfe-core/src/tbl/cfe_tbl_internal.c ****                     if ((*(char *)&EndianCheck) == 0x04)
 2844               	.loc 1 1288 0
 2845 181c 204F      	move.l %sp,%a0
 2846 181e 1010      	move.b (%a0),%d0
 2847 1820 49C0      	extb.l %d0
 2848 1822 7204      	moveq #4,%d1
 2849 1824 B280      	cmp.l %d0,%d1
 2850 1826 660C      	jne .L146
1289:/home/simulink/cFS_FreeRTOS_seL4/cfe/fsw/cfe-core/src/tbl/cfe_tbl_internal.c ****                     {
1290:/home/simulink/cFS_FreeRTOS_seL4/cfe/fsw/cfe-core/src/tbl/cfe_tbl_internal.c ****                         /* If this is a little endian processor, then the standard cFE Table Header
1291:/home/simulink/cFS_FreeRTOS_seL4/cfe/fsw/cfe-core/src/tbl/cfe_tbl_internal.c ****                         /* which is in big endian format, must be swapped so that the data is reada
1292:/home/simulink/cFS_FreeRTOS_seL4/cfe/fsw/cfe-core/src/tbl/cfe_tbl_internal.c ****                         CFE_TBL_ByteSwapTblHeader(TblFileHeaderPtr);
 2851               	.loc 1 1292 0
 2852 1828 2F2F 0014 	move.l 20(%sp),-(%sp)
 2853               	.cfi_def_cfa_offset 16
 2854 182c 4EB9 0000 	jsr CFE_TBL_ByteSwapTblHeader
 2854      0000 
 2855 1832 588F      	addq.l #4,%sp
 2856               	.cfi_def_cfa_offset 12
 2857               	.L146:
1293:/home/simulink/cFS_FreeRTOS_seL4/cfe/fsw/cfe-core/src/tbl/cfe_tbl_internal.c ****                     }
1294:/home/simulink/cFS_FreeRTOS_seL4/cfe/fsw/cfe-core/src/tbl/cfe_tbl_internal.c **** 
1295:/home/simulink/cFS_FreeRTOS_seL4/cfe/fsw/cfe-core/src/tbl/cfe_tbl_internal.c ****                     /*
1296:/home/simulink/cFS_FreeRTOS_seL4/cfe/fsw/cfe-core/src/tbl/cfe_tbl_internal.c ****                      * Ensure termination of all local strings. These were read from a file, so the
1297:/home/simulink/cFS_FreeRTOS_seL4/cfe/fsw/cfe-core/src/tbl/cfe_tbl_internal.c ****                      * must be treated with appropriate care.  This could happen in case the file g
1298:/home/simulink/cFS_FreeRTOS_seL4/cfe/fsw/cfe-core/src/tbl/cfe_tbl_internal.c ****                      * damaged in transit or simply was not written properly to begin with.
1299:/home/simulink/cFS_FreeRTOS_seL4/cfe/fsw/cfe-core/src/tbl/cfe_tbl_internal.c ****                      *
1300:/home/simulink/cFS_FreeRTOS_seL4/cfe/fsw/cfe-core/src/tbl/cfe_tbl_internal.c ****                      * Since the "TblFileHeaderPtr" is a local buffer, this can be done directly.
1301:/home/simulink/cFS_FreeRTOS_seL4/cfe/fsw/cfe-core/src/tbl/cfe_tbl_internal.c ****                      */
1302:/home/simulink/cFS_FreeRTOS_seL4/cfe/fsw/cfe-core/src/tbl/cfe_tbl_internal.c ****                     TblFileHeaderPtr->TableName[sizeof(TblFileHeaderPtr->TableName) - 1] = '\0';
 2858               	.loc 1 1302 0
 2859 1834 206F 0014 	move.l 20(%sp),%a0
68K GAS   			page 82


 2860 1838 4200      	clr.b %d0
 2861 183a 1140 0033 	move.b %d0,51(%a0)
 2862               	.L142:
1303:/home/simulink/cFS_FreeRTOS_seL4/cfe/fsw/cfe-core/src/tbl/cfe_tbl_internal.c **** 
1304:/home/simulink/cFS_FreeRTOS_seL4/cfe/fsw/cfe-core/src/tbl/cfe_tbl_internal.c ****                     /* Verify Spacecraft ID contained in table file header [optional] */
1305:/home/simulink/cFS_FreeRTOS_seL4/cfe/fsw/cfe-core/src/tbl/cfe_tbl_internal.c ****                     #if (CFE_TBL_VALID_SCID_COUNT > 0)
1306:/home/simulink/cFS_FreeRTOS_seL4/cfe/fsw/cfe-core/src/tbl/cfe_tbl_internal.c ****                     if (Status == CFE_SUCCESS)
1307:/home/simulink/cFS_FreeRTOS_seL4/cfe/fsw/cfe-core/src/tbl/cfe_tbl_internal.c ****                     {
1308:/home/simulink/cFS_FreeRTOS_seL4/cfe/fsw/cfe-core/src/tbl/cfe_tbl_internal.c ****                         Status = CFE_TBL_ERR_BAD_SPACECRAFT_ID;
1309:/home/simulink/cFS_FreeRTOS_seL4/cfe/fsw/cfe-core/src/tbl/cfe_tbl_internal.c ****                         for (IndexSC = 0; IndexSC < CFE_TBL_VALID_SCID_COUNT; IndexSC++)
1310:/home/simulink/cFS_FreeRTOS_seL4/cfe/fsw/cfe-core/src/tbl/cfe_tbl_internal.c ****                         {
1311:/home/simulink/cFS_FreeRTOS_seL4/cfe/fsw/cfe-core/src/tbl/cfe_tbl_internal.c ****                             if (StdFileHeaderPtr->SpacecraftID == ListSC[IndexSC])
1312:/home/simulink/cFS_FreeRTOS_seL4/cfe/fsw/cfe-core/src/tbl/cfe_tbl_internal.c ****                             {
1313:/home/simulink/cFS_FreeRTOS_seL4/cfe/fsw/cfe-core/src/tbl/cfe_tbl_internal.c ****                                 Status = CFE_SUCCESS;
1314:/home/simulink/cFS_FreeRTOS_seL4/cfe/fsw/cfe-core/src/tbl/cfe_tbl_internal.c ****                             }
1315:/home/simulink/cFS_FreeRTOS_seL4/cfe/fsw/cfe-core/src/tbl/cfe_tbl_internal.c ****                         }
1316:/home/simulink/cFS_FreeRTOS_seL4/cfe/fsw/cfe-core/src/tbl/cfe_tbl_internal.c **** 
1317:/home/simulink/cFS_FreeRTOS_seL4/cfe/fsw/cfe-core/src/tbl/cfe_tbl_internal.c ****                         if (Status == CFE_TBL_ERR_BAD_SPACECRAFT_ID)
1318:/home/simulink/cFS_FreeRTOS_seL4/cfe/fsw/cfe-core/src/tbl/cfe_tbl_internal.c ****                         {
1319:/home/simulink/cFS_FreeRTOS_seL4/cfe/fsw/cfe-core/src/tbl/cfe_tbl_internal.c ****                             CFE_EVS_SendEventWithAppID(CFE_TBL_SPACECRAFT_ID_ERR_EID,
1320:/home/simulink/cFS_FreeRTOS_seL4/cfe/fsw/cfe-core/src/tbl/cfe_tbl_internal.c ****                                                        CFE_EVS_ERROR,
1321:/home/simulink/cFS_FreeRTOS_seL4/cfe/fsw/cfe-core/src/tbl/cfe_tbl_internal.c ****                                                        CFE_TBL_TaskData.TableTaskAppId,
1322:/home/simulink/cFS_FreeRTOS_seL4/cfe/fsw/cfe-core/src/tbl/cfe_tbl_internal.c ****                                                        "Unable to verify Spacecraft ID for '%s', ID
1323:/home/simulink/cFS_FreeRTOS_seL4/cfe/fsw/cfe-core/src/tbl/cfe_tbl_internal.c ****                                                        LoadFilename, StdFileHeaderPtr->SpacecraftID
1324:/home/simulink/cFS_FreeRTOS_seL4/cfe/fsw/cfe-core/src/tbl/cfe_tbl_internal.c ****                         }
1325:/home/simulink/cFS_FreeRTOS_seL4/cfe/fsw/cfe-core/src/tbl/cfe_tbl_internal.c ****                     }
1326:/home/simulink/cFS_FreeRTOS_seL4/cfe/fsw/cfe-core/src/tbl/cfe_tbl_internal.c ****                     #endif
1327:/home/simulink/cFS_FreeRTOS_seL4/cfe/fsw/cfe-core/src/tbl/cfe_tbl_internal.c **** 
1328:/home/simulink/cFS_FreeRTOS_seL4/cfe/fsw/cfe-core/src/tbl/cfe_tbl_internal.c ****                     /* Verify Processor ID contained in table file header [optional] */
1329:/home/simulink/cFS_FreeRTOS_seL4/cfe/fsw/cfe-core/src/tbl/cfe_tbl_internal.c ****                     #if (CFE_TBL_VALID_PRID_COUNT > 0)
1330:/home/simulink/cFS_FreeRTOS_seL4/cfe/fsw/cfe-core/src/tbl/cfe_tbl_internal.c ****                     if (Status == CFE_SUCCESS)
1331:/home/simulink/cFS_FreeRTOS_seL4/cfe/fsw/cfe-core/src/tbl/cfe_tbl_internal.c ****                     {
1332:/home/simulink/cFS_FreeRTOS_seL4/cfe/fsw/cfe-core/src/tbl/cfe_tbl_internal.c ****                         Status = CFE_TBL_ERR_BAD_PROCESSOR_ID;
1333:/home/simulink/cFS_FreeRTOS_seL4/cfe/fsw/cfe-core/src/tbl/cfe_tbl_internal.c ****                         for (IndexPR = 0; IndexPR < CFE_TBL_VALID_PRID_COUNT; IndexPR++)
1334:/home/simulink/cFS_FreeRTOS_seL4/cfe/fsw/cfe-core/src/tbl/cfe_tbl_internal.c ****                         {
1335:/home/simulink/cFS_FreeRTOS_seL4/cfe/fsw/cfe-core/src/tbl/cfe_tbl_internal.c ****                             if (StdFileHeaderPtr->ProcessorID == ListPR[IndexPR])
1336:/home/simulink/cFS_FreeRTOS_seL4/cfe/fsw/cfe-core/src/tbl/cfe_tbl_internal.c ****                             {
1337:/home/simulink/cFS_FreeRTOS_seL4/cfe/fsw/cfe-core/src/tbl/cfe_tbl_internal.c ****                                 Status = CFE_SUCCESS;
1338:/home/simulink/cFS_FreeRTOS_seL4/cfe/fsw/cfe-core/src/tbl/cfe_tbl_internal.c ****                             }
1339:/home/simulink/cFS_FreeRTOS_seL4/cfe/fsw/cfe-core/src/tbl/cfe_tbl_internal.c ****                         }
1340:/home/simulink/cFS_FreeRTOS_seL4/cfe/fsw/cfe-core/src/tbl/cfe_tbl_internal.c **** 
1341:/home/simulink/cFS_FreeRTOS_seL4/cfe/fsw/cfe-core/src/tbl/cfe_tbl_internal.c ****                         if (Status == CFE_TBL_ERR_BAD_PROCESSOR_ID)
1342:/home/simulink/cFS_FreeRTOS_seL4/cfe/fsw/cfe-core/src/tbl/cfe_tbl_internal.c ****                         {
1343:/home/simulink/cFS_FreeRTOS_seL4/cfe/fsw/cfe-core/src/tbl/cfe_tbl_internal.c ****                             CFE_EVS_SendEventWithAppID(CFE_TBL_PROCESSOR_ID_ERR_EID,
1344:/home/simulink/cFS_FreeRTOS_seL4/cfe/fsw/cfe-core/src/tbl/cfe_tbl_internal.c ****                                                        CFE_EVS_ERROR,
1345:/home/simulink/cFS_FreeRTOS_seL4/cfe/fsw/cfe-core/src/tbl/cfe_tbl_internal.c ****                                                        CFE_TBL_TaskData.TableTaskAppId,
1346:/home/simulink/cFS_FreeRTOS_seL4/cfe/fsw/cfe-core/src/tbl/cfe_tbl_internal.c ****                                                        "Unable to verify Processor ID for '%s', ID 
1347:/home/simulink/cFS_FreeRTOS_seL4/cfe/fsw/cfe-core/src/tbl/cfe_tbl_internal.c ****                                                        LoadFilename, StdFileHeaderPtr->ProcessorID)
1348:/home/simulink/cFS_FreeRTOS_seL4/cfe/fsw/cfe-core/src/tbl/cfe_tbl_internal.c ****                         }
1349:/home/simulink/cFS_FreeRTOS_seL4/cfe/fsw/cfe-core/src/tbl/cfe_tbl_internal.c ****                     }
1350:/home/simulink/cFS_FreeRTOS_seL4/cfe/fsw/cfe-core/src/tbl/cfe_tbl_internal.c ****                     #endif
1351:/home/simulink/cFS_FreeRTOS_seL4/cfe/fsw/cfe-core/src/tbl/cfe_tbl_internal.c ****                 }
1352:/home/simulink/cFS_FreeRTOS_seL4/cfe/fsw/cfe-core/src/tbl/cfe_tbl_internal.c ****             }
1353:/home/simulink/cFS_FreeRTOS_seL4/cfe/fsw/cfe-core/src/tbl/cfe_tbl_internal.c ****         }
1354:/home/simulink/cFS_FreeRTOS_seL4/cfe/fsw/cfe-core/src/tbl/cfe_tbl_internal.c ****     }
1355:/home/simulink/cFS_FreeRTOS_seL4/cfe/fsw/cfe-core/src/tbl/cfe_tbl_internal.c **** 
1356:/home/simulink/cFS_FreeRTOS_seL4/cfe/fsw/cfe-core/src/tbl/cfe_tbl_internal.c ****     return Status;
68K GAS   			page 83


 2863               	.loc 1 1356 0
 2864 183e 202F 0004 	move.l 4(%sp),%d0
1357:/home/simulink/cFS_FreeRTOS_seL4/cfe/fsw/cfe-core/src/tbl/cfe_tbl_internal.c **** }   /* End of CFE_TBL_ReadHeaders() */
 2865               	.loc 1 1357 0
 2866 1842 508F      	addq.l #8,%sp
 2867 1844 4E75      	rts
 2868               	.cfi_endproc
 2869               	.LFE78:
 2870               	.sizeCFE_TBL_ReadHeaders, .-CFE_TBL_ReadHeaders
 2871               	.align2
 2872               	.globlCFE_TBL_ByteSwapTblHeader
 2873               	.typeCFE_TBL_ByteSwapTblHeader, @function
 2874               	CFE_TBL_ByteSwapTblHeader:
 2875               	.LFB79:
1358:/home/simulink/cFS_FreeRTOS_seL4/cfe/fsw/cfe-core/src/tbl/cfe_tbl_internal.c **** 
1359:/home/simulink/cFS_FreeRTOS_seL4/cfe/fsw/cfe-core/src/tbl/cfe_tbl_internal.c **** 
1360:/home/simulink/cFS_FreeRTOS_seL4/cfe/fsw/cfe-core/src/tbl/cfe_tbl_internal.c **** /*******************************************************************
1361:/home/simulink/cFS_FreeRTOS_seL4/cfe/fsw/cfe-core/src/tbl/cfe_tbl_internal.c **** **
1362:/home/simulink/cFS_FreeRTOS_seL4/cfe/fsw/cfe-core/src/tbl/cfe_tbl_internal.c **** ** CFE_TBL_ByteSwapTblHeader
1363:/home/simulink/cFS_FreeRTOS_seL4/cfe/fsw/cfe-core/src/tbl/cfe_tbl_internal.c **** **
1364:/home/simulink/cFS_FreeRTOS_seL4/cfe/fsw/cfe-core/src/tbl/cfe_tbl_internal.c **** ** NOTE: For complete prolog information, see above
1365:/home/simulink/cFS_FreeRTOS_seL4/cfe/fsw/cfe-core/src/tbl/cfe_tbl_internal.c **** ********************************************************************/
1366:/home/simulink/cFS_FreeRTOS_seL4/cfe/fsw/cfe-core/src/tbl/cfe_tbl_internal.c **** 
1367:/home/simulink/cFS_FreeRTOS_seL4/cfe/fsw/cfe-core/src/tbl/cfe_tbl_internal.c **** void CFE_TBL_ByteSwapTblHeader(CFE_TBL_File_Hdr_t *HdrPtr)
1368:/home/simulink/cFS_FreeRTOS_seL4/cfe/fsw/cfe-core/src/tbl/cfe_tbl_internal.c **** {
 2876               	.loc 1 1368 0
 2877               	.cfi_startproc
1369:/home/simulink/cFS_FreeRTOS_seL4/cfe/fsw/cfe-core/src/tbl/cfe_tbl_internal.c ****     CFE_TBL_ByteSwapUint32(&HdrPtr->Reserved);
 2878               	.loc 1 1369 0
 2879 1846 202F 0004 	move.l 4(%sp),%d0
 2880 184a 2F00      	move.l %d0,-(%sp)
 2881               	.cfi_def_cfa_offset 8
 2882 184c 4EB9 0000 	jsr CFE_TBL_ByteSwapUint32
 2882      0000 
 2883 1852 588F      	addq.l #4,%sp
 2884               	.cfi_def_cfa_offset 4
1370:/home/simulink/cFS_FreeRTOS_seL4/cfe/fsw/cfe-core/src/tbl/cfe_tbl_internal.c ****     CFE_TBL_ByteSwapUint32(&HdrPtr->Offset);
 2885               	.loc 1 1370 0
 2886 1854 202F 0004 	move.l 4(%sp),%d0
 2887 1858 5880      	addq.l #4,%d0
 2888 185a 2F00      	move.l %d0,-(%sp)
 2889               	.cfi_def_cfa_offset 8
 2890 185c 4EB9 0000 	jsr CFE_TBL_ByteSwapUint32
 2890      0000 
 2891 1862 588F      	addq.l #4,%sp
 2892               	.cfi_def_cfa_offset 4
1371:/home/simulink/cFS_FreeRTOS_seL4/cfe/fsw/cfe-core/src/tbl/cfe_tbl_internal.c ****     CFE_TBL_ByteSwapUint32(&HdrPtr->NumBytes);
 2893               	.loc 1 1371 0
 2894 1864 202F 0004 	move.l 4(%sp),%d0
 2895 1868 5080      	addq.l #8,%d0
 2896 186a 2F00      	move.l %d0,-(%sp)
 2897               	.cfi_def_cfa_offset 8
 2898 186c 4EB9 0000 	jsr CFE_TBL_ByteSwapUint32
 2898      0000 
 2899 1872 588F      	addq.l #4,%sp
 2900               	.cfi_def_cfa_offset 4
1372:/home/simulink/cFS_FreeRTOS_seL4/cfe/fsw/cfe-core/src/tbl/cfe_tbl_internal.c **** } /* End of CFE_TBL_ByteSwapTblHeader() */
68K GAS   			page 84


 2901               	.loc 1 1372 0
 2902 1874 4E71      	nop
 2903 1876 4E75      	rts
 2904               	.cfi_endproc
 2905               	.LFE79:
 2906               	.sizeCFE_TBL_ByteSwapTblHeader, .-CFE_TBL_ByteSwapTblHeader
 2907               	.align2
 2908               	.globlCFE_TBL_ByteSwapUint32
 2909               	.typeCFE_TBL_ByteSwapUint32, @function
 2910               	CFE_TBL_ByteSwapUint32:
 2911               	.LFB80:
1373:/home/simulink/cFS_FreeRTOS_seL4/cfe/fsw/cfe-core/src/tbl/cfe_tbl_internal.c **** 
1374:/home/simulink/cFS_FreeRTOS_seL4/cfe/fsw/cfe-core/src/tbl/cfe_tbl_internal.c **** 
1375:/home/simulink/cFS_FreeRTOS_seL4/cfe/fsw/cfe-core/src/tbl/cfe_tbl_internal.c **** /*******************************************************************
1376:/home/simulink/cFS_FreeRTOS_seL4/cfe/fsw/cfe-core/src/tbl/cfe_tbl_internal.c **** **
1377:/home/simulink/cFS_FreeRTOS_seL4/cfe/fsw/cfe-core/src/tbl/cfe_tbl_internal.c **** ** CFE_TBL_ByteSwapUint32
1378:/home/simulink/cFS_FreeRTOS_seL4/cfe/fsw/cfe-core/src/tbl/cfe_tbl_internal.c **** **
1379:/home/simulink/cFS_FreeRTOS_seL4/cfe/fsw/cfe-core/src/tbl/cfe_tbl_internal.c **** ** NOTE: For complete prolog information, see above
1380:/home/simulink/cFS_FreeRTOS_seL4/cfe/fsw/cfe-core/src/tbl/cfe_tbl_internal.c **** ********************************************************************/
1381:/home/simulink/cFS_FreeRTOS_seL4/cfe/fsw/cfe-core/src/tbl/cfe_tbl_internal.c **** 
1382:/home/simulink/cFS_FreeRTOS_seL4/cfe/fsw/cfe-core/src/tbl/cfe_tbl_internal.c **** void CFE_TBL_ByteSwapUint32(uint32 *Uint32ToSwapPtr)
1383:/home/simulink/cFS_FreeRTOS_seL4/cfe/fsw/cfe-core/src/tbl/cfe_tbl_internal.c **** {
 2912               	.loc 1 1383 0
 2913               	.cfi_startproc
 2914 1878 4FEF FFF4 	lea (-12,%sp),%sp
 2915               	.cfi_def_cfa_offset 16
1384:/home/simulink/cFS_FreeRTOS_seL4/cfe/fsw/cfe-core/src/tbl/cfe_tbl_internal.c ****     int32 Temp = *Uint32ToSwapPtr;
 2916               	.loc 1 1384 0
 2917 187c 206F 0010 	move.l 16(%sp),%a0
 2918 1880 2010      	move.l (%a0),%d0
 2919 1882 2E80      	move.l %d0,(%sp)
1385:/home/simulink/cFS_FreeRTOS_seL4/cfe/fsw/cfe-core/src/tbl/cfe_tbl_internal.c ****     char *InPtr = (char *)&Temp;
 2920               	.loc 1 1385 0
 2921 1884 41EF 000C 	lea (12,%sp),%a0
 2922 1888 41E8 FFF4 	lea (-12,%a0),%a0
 2923 188c 2F48 0008 	move.l %a0,8(%sp)
1386:/home/simulink/cFS_FreeRTOS_seL4/cfe/fsw/cfe-core/src/tbl/cfe_tbl_internal.c ****     char *OutPtr = (char *)Uint32ToSwapPtr;
 2924               	.loc 1 1386 0
 2925 1890 2F6F 0010 	move.l 16(%sp),4(%sp)
 2925      0004 
1387:/home/simulink/cFS_FreeRTOS_seL4/cfe/fsw/cfe-core/src/tbl/cfe_tbl_internal.c ****     
1388:/home/simulink/cFS_FreeRTOS_seL4/cfe/fsw/cfe-core/src/tbl/cfe_tbl_internal.c ****     OutPtr[0] = InPtr[3];
 2926               	.loc 1 1388 0
 2927 1896 206F 0008 	move.l 8(%sp),%a0
 2928 189a 1028 0003 	move.b 3(%a0),%d0
 2929 189e 206F 0004 	move.l 4(%sp),%a0
 2930 18a2 1080      	move.b %d0,(%a0)
1389:/home/simulink/cFS_FreeRTOS_seL4/cfe/fsw/cfe-core/src/tbl/cfe_tbl_internal.c ****     OutPtr[1] = InPtr[2];
 2931               	.loc 1 1389 0
 2932 18a4 206F 0004 	move.l 4(%sp),%a0
 2933 18a8 5288      	addq.l #1,%a0
 2934 18aa 226F 0008 	move.l 8(%sp),%a1
 2935 18ae 1029 0002 	move.b 2(%a1),%d0
 2936 18b2 1080      	move.b %d0,(%a0)
1390:/home/simulink/cFS_FreeRTOS_seL4/cfe/fsw/cfe-core/src/tbl/cfe_tbl_internal.c ****     OutPtr[2] = InPtr[1];
 2937               	.loc 1 1390 0
 2938 18b4 206F 0004 	move.l 4(%sp),%a0
68K GAS   			page 85


 2939 18b8 5488      	addq.l #2,%a0
 2940 18ba 226F 0008 	move.l 8(%sp),%a1
 2941 18be 1029 0001 	move.b 1(%a1),%d0
 2942 18c2 1080      	move.b %d0,(%a0)
1391:/home/simulink/cFS_FreeRTOS_seL4/cfe/fsw/cfe-core/src/tbl/cfe_tbl_internal.c ****     OutPtr[3] = InPtr[0];    
 2943               	.loc 1 1391 0
 2944 18c4 206F 0004 	move.l 4(%sp),%a0
 2945 18c8 5688      	addq.l #3,%a0
 2946 18ca 226F 0008 	move.l 8(%sp),%a1
 2947 18ce 1011      	move.b (%a1),%d0
 2948 18d0 1080      	move.b %d0,(%a0)
1392:/home/simulink/cFS_FreeRTOS_seL4/cfe/fsw/cfe-core/src/tbl/cfe_tbl_internal.c **** } /* End of CFE_TBL_ByteSwapUint32() */
 2949               	.loc 1 1392 0
 2950 18d2 4E71      	nop
 2951 18d4 4FEF 000C 	lea (12,%sp),%sp
 2952 18d8 4E75      	rts
 2953               	.cfi_endproc
 2954               	.LFE80:
 2955               	.sizeCFE_TBL_ByteSwapUint32, .-CFE_TBL_ByteSwapUint32
 2956               	.align2
 2957               	.globlCFE_TBL_CleanUpApp
 2958               	.typeCFE_TBL_CleanUpApp, @function
 2959               	CFE_TBL_CleanUpApp:
 2960               	.LFB81:
1393:/home/simulink/cFS_FreeRTOS_seL4/cfe/fsw/cfe-core/src/tbl/cfe_tbl_internal.c **** 
1394:/home/simulink/cFS_FreeRTOS_seL4/cfe/fsw/cfe-core/src/tbl/cfe_tbl_internal.c **** /*******************************************************************
1395:/home/simulink/cFS_FreeRTOS_seL4/cfe/fsw/cfe-core/src/tbl/cfe_tbl_internal.c **** **
1396:/home/simulink/cFS_FreeRTOS_seL4/cfe/fsw/cfe-core/src/tbl/cfe_tbl_internal.c **** ** CFE_TBL_CleanUpApp
1397:/home/simulink/cFS_FreeRTOS_seL4/cfe/fsw/cfe-core/src/tbl/cfe_tbl_internal.c **** **
1398:/home/simulink/cFS_FreeRTOS_seL4/cfe/fsw/cfe-core/src/tbl/cfe_tbl_internal.c **** ** NOTE: For complete prolog information, see 'cfe_tbl_internal.h'
1399:/home/simulink/cFS_FreeRTOS_seL4/cfe/fsw/cfe-core/src/tbl/cfe_tbl_internal.c **** ********************************************************************/
1400:/home/simulink/cFS_FreeRTOS_seL4/cfe/fsw/cfe-core/src/tbl/cfe_tbl_internal.c **** 
1401:/home/simulink/cFS_FreeRTOS_seL4/cfe/fsw/cfe-core/src/tbl/cfe_tbl_internal.c **** int32 CFE_TBL_CleanUpApp(uint32 AppId)
1402:/home/simulink/cFS_FreeRTOS_seL4/cfe/fsw/cfe-core/src/tbl/cfe_tbl_internal.c **** {
 2961               	.loc 1 1402 0
 2962               	.cfi_startproc
 2963 18da 4FEF FFF4 	lea (-12,%sp),%sp
 2964               	.cfi_def_cfa_offset 16
1403:/home/simulink/cFS_FreeRTOS_seL4/cfe/fsw/cfe-core/src/tbl/cfe_tbl_internal.c ****     uint32 i;
1404:/home/simulink/cFS_FreeRTOS_seL4/cfe/fsw/cfe-core/src/tbl/cfe_tbl_internal.c ****     CFE_TBL_RegistryRec_t *RegRecPtr = NULL;
 2965               	.loc 1 1404 0
 2966 18de 42AF 0004 	clr.l 4(%sp)
1405:/home/simulink/cFS_FreeRTOS_seL4/cfe/fsw/cfe-core/src/tbl/cfe_tbl_internal.c ****     CFE_TBL_AccessDescriptor_t *AccessDescPtr = NULL;
 2967               	.loc 1 1405 0
 2968 18e2 4297      	clr.l (%sp)
1406:/home/simulink/cFS_FreeRTOS_seL4/cfe/fsw/cfe-core/src/tbl/cfe_tbl_internal.c **** 
1407:/home/simulink/cFS_FreeRTOS_seL4/cfe/fsw/cfe-core/src/tbl/cfe_tbl_internal.c ****     /* Scan Dump Requests to determine if any of the tables that */
1408:/home/simulink/cFS_FreeRTOS_seL4/cfe/fsw/cfe-core/src/tbl/cfe_tbl_internal.c ****     /* were to be dumped will be deleted */
1409:/home/simulink/cFS_FreeRTOS_seL4/cfe/fsw/cfe-core/src/tbl/cfe_tbl_internal.c ****     for (i=0; i<CFE_TBL_MAX_SIMULTANEOUS_LOADS; i++)
 2969               	.loc 1 1409 0
 2970 18e4 42AF 0008 	clr.l 8(%sp)
 2971 18e8 604C      	jra .L151
 2972               	.L153:
1410:/home/simulink/cFS_FreeRTOS_seL4/cfe/fsw/cfe-core/src/tbl/cfe_tbl_internal.c ****     {
1411:/home/simulink/cFS_FreeRTOS_seL4/cfe/fsw/cfe-core/src/tbl/cfe_tbl_internal.c ****         /* Check to see if the table to be dumped is owned by the App to be deleted */
1412:/home/simulink/cFS_FreeRTOS_seL4/cfe/fsw/cfe-core/src/tbl/cfe_tbl_internal.c ****         if ((CFE_TBL_TaskData.DumpControlBlocks[i].State != CFE_TBL_DUMP_FREE) && 
 2973               	.loc 1 1412 0
68K GAS   			page 86


 2974 18ea 202F 0008 	move.l 8(%sp),%d0
 2975 18ee 7238      	moveq #56,%d1
 2976 18f0 4C01 0800 	muls.l %d1,%d0
 2977 18f4 41F9 0000 	lea CFE_TBL_TaskData+576928,%a0
 2977      0000 
 2978 18fa 2030 0800 	move.l (%a0,%d0.l),%d0
 2979 18fe 4A80      	tst.l %d0
 2980 1900 6730      	jeq .L152
1413:/home/simulink/cFS_FreeRTOS_seL4/cfe/fsw/cfe-core/src/tbl/cfe_tbl_internal.c ****            (CFE_TBL_TaskData.DumpControlBlocks[i].RegRecPtr->OwnerAppId == AppId))
 2981               	.loc 1 1413 0 discriminator 1
 2982 1902 202F 0008 	move.l 8(%sp),%d0
 2983 1906 7238      	moveq #56,%d1
 2984 1908 4C01 0800 	muls.l %d1,%d0
 2985 190c 41F9 0000 	lea CFE_TBL_TaskData+576940,%a0
 2985      0000 
 2986 1912 2070 0800 	move.l (%a0,%d0.l),%a0
 2987 1916 2010      	move.l (%a0),%d0
1412:/home/simulink/cFS_FreeRTOS_seL4/cfe/fsw/cfe-core/src/tbl/cfe_tbl_internal.c ****            (CFE_TBL_TaskData.DumpControlBlocks[i].RegRecPtr->OwnerAppId == AppId))
 2988               	.loc 1 1412 0 discriminator 1
 2989 1918 B0AF 0010 	cmp.l 16(%sp),%d0
 2990 191c 6614      	jne .L152
1414:/home/simulink/cFS_FreeRTOS_seL4/cfe/fsw/cfe-core/src/tbl/cfe_tbl_internal.c ****         {
1415:/home/simulink/cFS_FreeRTOS_seL4/cfe/fsw/cfe-core/src/tbl/cfe_tbl_internal.c ****             /* If so, then remove the dump request */
1416:/home/simulink/cFS_FreeRTOS_seL4/cfe/fsw/cfe-core/src/tbl/cfe_tbl_internal.c ****             CFE_TBL_TaskData.DumpControlBlocks[i].State = CFE_TBL_DUMP_FREE;
 2991               	.loc 1 1416 0
 2992 191e 202F 0008 	move.l 8(%sp),%d0
 2993 1922 7238      	moveq #56,%d1
 2994 1924 4C01 0800 	muls.l %d1,%d0
 2995 1928 41F9 0000 	lea CFE_TBL_TaskData+576928,%a0
 2995      0000 
 2996 192e 42B0 0800 	clr.l (%a0,%d0.l)
 2997               	.L152:
1409:/home/simulink/cFS_FreeRTOS_seL4/cfe/fsw/cfe-core/src/tbl/cfe_tbl_internal.c ****     {
 2998               	.loc 1 1409 0 discriminator 2
 2999 1932 52AF 0008 	addq.l #1,8(%sp)
 3000               	.L151:
1409:/home/simulink/cFS_FreeRTOS_seL4/cfe/fsw/cfe-core/src/tbl/cfe_tbl_internal.c ****     {
 3001               	.loc 1 1409 0 is_stmt 0 discriminator 1
 3002 1936 7003      	moveq #3,%d0
 3003 1938 B0AF 0008 	cmp.l 8(%sp),%d0
 3004 193c 64AC      	jcc .L153
1417:/home/simulink/cFS_FreeRTOS_seL4/cfe/fsw/cfe-core/src/tbl/cfe_tbl_internal.c ****         }
1418:/home/simulink/cFS_FreeRTOS_seL4/cfe/fsw/cfe-core/src/tbl/cfe_tbl_internal.c ****     }
1419:/home/simulink/cFS_FreeRTOS_seL4/cfe/fsw/cfe-core/src/tbl/cfe_tbl_internal.c ****     
1420:/home/simulink/cFS_FreeRTOS_seL4/cfe/fsw/cfe-core/src/tbl/cfe_tbl_internal.c ****     /* Scan Access Descriptors to determine if the Application had access to any tables */
1421:/home/simulink/cFS_FreeRTOS_seL4/cfe/fsw/cfe-core/src/tbl/cfe_tbl_internal.c ****     for (i=0; i<CFE_TBL_MAX_NUM_HANDLES; i++)
 3005               	.loc 1 1421 0 is_stmt 1
 3006 193e 42AF 0008 	clr.l 8(%sp)
 3007 1942 6000 0088 	jra .L154
 3008               	.L157:
1422:/home/simulink/cFS_FreeRTOS_seL4/cfe/fsw/cfe-core/src/tbl/cfe_tbl_internal.c ****     {
1423:/home/simulink/cFS_FreeRTOS_seL4/cfe/fsw/cfe-core/src/tbl/cfe_tbl_internal.c ****         /* Check to see if the Handle belongs to the Application being deleted */
1424:/home/simulink/cFS_FreeRTOS_seL4/cfe/fsw/cfe-core/src/tbl/cfe_tbl_internal.c ****         if (CFE_TBL_TaskData.Handles[i].AppId == AppId)
 3009               	.loc 1 1424 0
 3010 1946 202F 0008 	move.l 8(%sp),%d0
 3011 194a E988      	lsl.l #4,%d0
 3012 194c 41F9 0000 	lea CFE_TBL_TaskData+876,%a0
68K GAS   			page 87


 3012      0000 
 3013 1952 2030 0800 	move.l (%a0,%d0.l),%d0
 3014 1956 B0AF 0010 	cmp.l 16(%sp),%d0
 3015 195a 666C      	jne .L155
1425:/home/simulink/cFS_FreeRTOS_seL4/cfe/fsw/cfe-core/src/tbl/cfe_tbl_internal.c ****         {
1426:/home/simulink/cFS_FreeRTOS_seL4/cfe/fsw/cfe-core/src/tbl/cfe_tbl_internal.c ****             /* Delete the handle (and the table, if the App owned it) */
1427:/home/simulink/cFS_FreeRTOS_seL4/cfe/fsw/cfe-core/src/tbl/cfe_tbl_internal.c ****             /* Get a pointer to the relevant Access Descriptor */
1428:/home/simulink/cFS_FreeRTOS_seL4/cfe/fsw/cfe-core/src/tbl/cfe_tbl_internal.c ****             AccessDescPtr = &CFE_TBL_TaskData.Handles[i];
 3016               	.loc 1 1428 0
 3017 195c 202F 0008 	move.l 8(%sp),%d0
 3018 1960 E988      	lsl.l #4,%d0
 3019 1962 0680 0000 	add.l #876,%d0
 3019      036C 
 3020 1968 2200      	move.l %d0,%d1
 3021 196a 0681 0000 	add.l #CFE_TBL_TaskData,%d1
 3021      0000 
 3022 1970 2E81      	move.l %d1,(%sp)
1429:/home/simulink/cFS_FreeRTOS_seL4/cfe/fsw/cfe-core/src/tbl/cfe_tbl_internal.c **** 
1430:/home/simulink/cFS_FreeRTOS_seL4/cfe/fsw/cfe-core/src/tbl/cfe_tbl_internal.c ****             /* Get a pointer to the relevant entry in the registry */
1431:/home/simulink/cFS_FreeRTOS_seL4/cfe/fsw/cfe-core/src/tbl/cfe_tbl_internal.c ****             RegRecPtr = &CFE_TBL_TaskData.Registry[AccessDescPtr->RegIndex];
 3023               	.loc 1 1431 0
 3024 1972 2057      	move.l (%sp),%a0
 3025 1974 3028 0004 	move.w 4(%a0),%d0
 3026 1978 48C0      	ext.l %d0
 3027 197a 223C 0000 	move.l #336,%d1
 3027      0150 
 3028 1980 4C01 0800 	muls.l %d1,%d0
 3029 1984 0680 0000 	add.l #4972,%d0
 3029      136C 
 3030 198a 2200      	move.l %d0,%d1
 3031 198c 0681 0000 	add.l #CFE_TBL_TaskData,%d1
 3031      0000 
 3032 1992 2F41 0004 	move.l %d1,4(%sp)
1432:/home/simulink/cFS_FreeRTOS_seL4/cfe/fsw/cfe-core/src/tbl/cfe_tbl_internal.c **** 
1433:/home/simulink/cFS_FreeRTOS_seL4/cfe/fsw/cfe-core/src/tbl/cfe_tbl_internal.c ****             /* Determine if the Application owned this particular table */
1434:/home/simulink/cFS_FreeRTOS_seL4/cfe/fsw/cfe-core/src/tbl/cfe_tbl_internal.c ****             if (RegRecPtr->OwnerAppId == AppId)
 3033               	.loc 1 1434 0
 3034 1996 206F 0004 	move.l 4(%sp),%a0
 3035 199a 2010      	move.l (%a0),%d0
 3036 199c B0AF 0010 	cmp.l 16(%sp),%d0
 3037 19a0 6614      	jne .L156
1435:/home/simulink/cFS_FreeRTOS_seL4/cfe/fsw/cfe-core/src/tbl/cfe_tbl_internal.c ****             {
1436:/home/simulink/cFS_FreeRTOS_seL4/cfe/fsw/cfe-core/src/tbl/cfe_tbl_internal.c ****                 /* Mark table as free, although, technically, it isn't free until the */
1437:/home/simulink/cFS_FreeRTOS_seL4/cfe/fsw/cfe-core/src/tbl/cfe_tbl_internal.c ****                 /* linked list of Access Descriptors has no links in it.              */
1438:/home/simulink/cFS_FreeRTOS_seL4/cfe/fsw/cfe-core/src/tbl/cfe_tbl_internal.c ****                 /* NOTE: Allocated memory is freed when all Access Links have been    */
1439:/home/simulink/cFS_FreeRTOS_seL4/cfe/fsw/cfe-core/src/tbl/cfe_tbl_internal.c ****                 /*       removed.  This allows Applications to continue to use the    */
1440:/home/simulink/cFS_FreeRTOS_seL4/cfe/fsw/cfe-core/src/tbl/cfe_tbl_internal.c ****                 /*       data until they acknowledge that the table has been removed. */
1441:/home/simulink/cFS_FreeRTOS_seL4/cfe/fsw/cfe-core/src/tbl/cfe_tbl_internal.c ****                 RegRecPtr->OwnerAppId = (uint32)CFE_TBL_NOT_OWNED;
 3038               	.loc 1 1441 0
 3039 19a2 206F 0004 	move.l 4(%sp),%a0
 3040 19a6 20BC FFFF 	move.l #-1,(%a0)
 3040      FFFF 
1442:/home/simulink/cFS_FreeRTOS_seL4/cfe/fsw/cfe-core/src/tbl/cfe_tbl_internal.c **** 
1443:/home/simulink/cFS_FreeRTOS_seL4/cfe/fsw/cfe-core/src/tbl/cfe_tbl_internal.c ****                 /* Remove Table Name */
1444:/home/simulink/cFS_FreeRTOS_seL4/cfe/fsw/cfe-core/src/tbl/cfe_tbl_internal.c ****                 RegRecPtr->Name[0] = '\0';
 3041               	.loc 1 1444 0
 3042 19ac 206F 0004 	move.l 4(%sp),%a0
68K GAS   			page 88


 3043 19b0 4200      	clr.b %d0
 3044 19b2 1140 00E6 	move.b %d0,230(%a0)
 3045               	.L156:
1445:/home/simulink/cFS_FreeRTOS_seL4/cfe/fsw/cfe-core/src/tbl/cfe_tbl_internal.c ****             }
1446:/home/simulink/cFS_FreeRTOS_seL4/cfe/fsw/cfe-core/src/tbl/cfe_tbl_internal.c ****             
1447:/home/simulink/cFS_FreeRTOS_seL4/cfe/fsw/cfe-core/src/tbl/cfe_tbl_internal.c ****             /* Remove the Access Descriptor Link from linked list */
1448:/home/simulink/cFS_FreeRTOS_seL4/cfe/fsw/cfe-core/src/tbl/cfe_tbl_internal.c ****             /* NOTE: If this removes the last access link, then   */
1449:/home/simulink/cFS_FreeRTOS_seL4/cfe/fsw/cfe-core/src/tbl/cfe_tbl_internal.c ****             /*       memory buffers are set free as well.         */
1450:/home/simulink/cFS_FreeRTOS_seL4/cfe/fsw/cfe-core/src/tbl/cfe_tbl_internal.c ****             CFE_TBL_RemoveAccessLink(i);
 3046               	.loc 1 1450 0
 3047 19b6 202F 0008 	move.l 8(%sp),%d0
 3048 19ba 3000      	move.w %d0,%d0
 3049 19bc 3040      	move.w %d0,%a0
 3050 19be 2F08      	move.l %a0,-(%sp)
 3051               	.cfi_def_cfa_offset 20
 3052 19c0 4EB9 0000 	jsr CFE_TBL_RemoveAccessLink
 3052      0000 
 3053 19c6 588F      	addq.l #4,%sp
 3054               	.cfi_def_cfa_offset 16
 3055               	.L155:
1421:/home/simulink/cFS_FreeRTOS_seL4/cfe/fsw/cfe-core/src/tbl/cfe_tbl_internal.c ****     {
 3056               	.loc 1 1421 0 discriminator 2
 3057 19c8 52AF 0008 	addq.l #1,8(%sp)
 3058               	.L154:
1421:/home/simulink/cFS_FreeRTOS_seL4/cfe/fsw/cfe-core/src/tbl/cfe_tbl_internal.c ****     {
 3059               	.loc 1 1421 0 is_stmt 0 discriminator 1
 3060 19cc 223C 0000 	move.l #255,%d1
 3060      00FF 
 3061 19d2 B2AF 0008 	cmp.l 8(%sp),%d1
 3062 19d6 6400 FF6E 	jcc .L157
1451:/home/simulink/cFS_FreeRTOS_seL4/cfe/fsw/cfe-core/src/tbl/cfe_tbl_internal.c ****         }
1452:/home/simulink/cFS_FreeRTOS_seL4/cfe/fsw/cfe-core/src/tbl/cfe_tbl_internal.c ****     }
1453:/home/simulink/cFS_FreeRTOS_seL4/cfe/fsw/cfe-core/src/tbl/cfe_tbl_internal.c **** 
1454:/home/simulink/cFS_FreeRTOS_seL4/cfe/fsw/cfe-core/src/tbl/cfe_tbl_internal.c ****     return CFE_SUCCESS;
 3063               	.loc 1 1454 0 is_stmt 1
 3064 19da 4280      	clr.l %d0
1455:/home/simulink/cFS_FreeRTOS_seL4/cfe/fsw/cfe-core/src/tbl/cfe_tbl_internal.c **** }
 3065               	.loc 1 1455 0
 3066 19dc 4FEF 000C 	lea (12,%sp),%sp
 3067 19e0 4E75      	rts
 3068               	.cfi_endproc
 3069               	.LFE81:
 3070               	.sizeCFE_TBL_CleanUpApp, .-CFE_TBL_CleanUpApp
 3071               	.align2
 3072               	.globlCFE_TBL_FindCriticalTblInfo
 3073               	.typeCFE_TBL_FindCriticalTblInfo, @function
 3074               	CFE_TBL_FindCriticalTblInfo:
 3075               	.LFB82:
1456:/home/simulink/cFS_FreeRTOS_seL4/cfe/fsw/cfe-core/src/tbl/cfe_tbl_internal.c **** 
1457:/home/simulink/cFS_FreeRTOS_seL4/cfe/fsw/cfe-core/src/tbl/cfe_tbl_internal.c **** /*******************************************************************
1458:/home/simulink/cFS_FreeRTOS_seL4/cfe/fsw/cfe-core/src/tbl/cfe_tbl_internal.c **** **
1459:/home/simulink/cFS_FreeRTOS_seL4/cfe/fsw/cfe-core/src/tbl/cfe_tbl_internal.c **** ** CFE_TBL_FindCriticalTblInfo
1460:/home/simulink/cFS_FreeRTOS_seL4/cfe/fsw/cfe-core/src/tbl/cfe_tbl_internal.c **** **
1461:/home/simulink/cFS_FreeRTOS_seL4/cfe/fsw/cfe-core/src/tbl/cfe_tbl_internal.c **** ** NOTE: For complete prolog information, see 'cfe_tbl_internal.h'
1462:/home/simulink/cFS_FreeRTOS_seL4/cfe/fsw/cfe-core/src/tbl/cfe_tbl_internal.c **** ********************************************************************/
1463:/home/simulink/cFS_FreeRTOS_seL4/cfe/fsw/cfe-core/src/tbl/cfe_tbl_internal.c **** 
1464:/home/simulink/cFS_FreeRTOS_seL4/cfe/fsw/cfe-core/src/tbl/cfe_tbl_internal.c **** void CFE_TBL_FindCriticalTblInfo(CFE_TBL_CritRegRec_t **CritRegRecPtr, CFE_ES_CDSHandle_t CDSHandle
68K GAS   			page 89


1465:/home/simulink/cFS_FreeRTOS_seL4/cfe/fsw/cfe-core/src/tbl/cfe_tbl_internal.c **** {
 3076               	.loc 1 1465 0
 3077               	.cfi_startproc
 3078 19e2 598F      	subq.l #4,%sp
 3079               	.cfi_def_cfa_offset 8
1466:/home/simulink/cFS_FreeRTOS_seL4/cfe/fsw/cfe-core/src/tbl/cfe_tbl_internal.c ****     uint32 i;
1467:/home/simulink/cFS_FreeRTOS_seL4/cfe/fsw/cfe-core/src/tbl/cfe_tbl_internal.c ****     
1468:/home/simulink/cFS_FreeRTOS_seL4/cfe/fsw/cfe-core/src/tbl/cfe_tbl_internal.c ****     /* Assume the record is never found */
1469:/home/simulink/cFS_FreeRTOS_seL4/cfe/fsw/cfe-core/src/tbl/cfe_tbl_internal.c ****     *CritRegRecPtr = NULL;
 3080               	.loc 1 1469 0
 3081 19e4 206F 0008 	move.l 8(%sp),%a0
 3082 19e8 4290      	clr.l (%a0)
1470:/home/simulink/cFS_FreeRTOS_seL4/cfe/fsw/cfe-core/src/tbl/cfe_tbl_internal.c ****     
1471:/home/simulink/cFS_FreeRTOS_seL4/cfe/fsw/cfe-core/src/tbl/cfe_tbl_internal.c ****     for (i=0; i<CFE_TBL_MAX_CRITICAL_TABLES; i++)
 3083               	.loc 1 1471 0
 3084 19ea 4297      	clr.l (%sp)
 3085 19ec 602E      	jra .L160
 3086               	.L163:
1472:/home/simulink/cFS_FreeRTOS_seL4/cfe/fsw/cfe-core/src/tbl/cfe_tbl_internal.c ****     {
1473:/home/simulink/cFS_FreeRTOS_seL4/cfe/fsw/cfe-core/src/tbl/cfe_tbl_internal.c ****         if (CFE_TBL_TaskData.CritReg[i].CDSHandle == CDSHandleToFind)
 3087               	.loc 1 1473 0
 3088 19ee 2017      	move.l (%sp),%d0
 3089 19f0 EF88      	lsl.l #7,%d0
 3090 19f2 41F9 0000 	lea CFE_TBL_TaskData+47980,%a0
 3090      0000 
 3091 19f8 2030 0800 	move.l (%a0,%d0.l),%d0
 3092 19fc B0AF 000C 	cmp.l 12(%sp),%d0
 3093 1a00 6618      	jne .L161
1474:/home/simulink/cFS_FreeRTOS_seL4/cfe/fsw/cfe-core/src/tbl/cfe_tbl_internal.c ****         {
1475:/home/simulink/cFS_FreeRTOS_seL4/cfe/fsw/cfe-core/src/tbl/cfe_tbl_internal.c ****             *CritRegRecPtr = &CFE_TBL_TaskData.CritReg[i];
 3094               	.loc 1 1475 0
 3095 1a02 2017      	move.l (%sp),%d0
 3096 1a04 EF88      	lsl.l #7,%d0
 3097 1a06 0680 0000 	add.l #47980,%d0
 3097      BB6C 
 3098 1a0c 0680 0000 	add.l #CFE_TBL_TaskData,%d0
 3098      0000 
 3099 1a12 206F 0008 	move.l 8(%sp),%a0
 3100 1a16 2080      	move.l %d0,(%a0)
1476:/home/simulink/cFS_FreeRTOS_seL4/cfe/fsw/cfe-core/src/tbl/cfe_tbl_internal.c ****             break;
 3101               	.loc 1 1476 0
 3102 1a18 6008      	jra .L162
 3103               	.L161:
1471:/home/simulink/cFS_FreeRTOS_seL4/cfe/fsw/cfe-core/src/tbl/cfe_tbl_internal.c ****     {
 3104               	.loc 1 1471 0 discriminator 2
 3105 1a1a 5297      	addq.l #1,(%sp)
 3106               	.L160:
1471:/home/simulink/cFS_FreeRTOS_seL4/cfe/fsw/cfe-core/src/tbl/cfe_tbl_internal.c ****     {
 3107               	.loc 1 1471 0 is_stmt 0 discriminator 1
 3108 1a1c 701F      	moveq #31,%d0
 3109 1a1e B097      	cmp.l (%sp),%d0
 3110 1a20 64CC      	jcc .L163
 3111               	.L162:
1477:/home/simulink/cFS_FreeRTOS_seL4/cfe/fsw/cfe-core/src/tbl/cfe_tbl_internal.c ****         }
1478:/home/simulink/cFS_FreeRTOS_seL4/cfe/fsw/cfe-core/src/tbl/cfe_tbl_internal.c ****     }
1479:/home/simulink/cFS_FreeRTOS_seL4/cfe/fsw/cfe-core/src/tbl/cfe_tbl_internal.c **** }
 3112               	.loc 1 1479 0 is_stmt 1
68K GAS   			page 90


 3113 1a22 4E71      	nop
 3114 1a24 588F      	addq.l #4,%sp
 3115 1a26 4E75      	rts
 3116               	.cfi_endproc
 3117               	.LFE82:
 3118               	.sizeCFE_TBL_FindCriticalTblInfo, .-CFE_TBL_FindCriticalTblInfo
 3119               	.section.rodata
 3120               	.LC31:
 3121 06aa 4346 455F 	.string"CFE_TBL:UpdateCritTbl-Unable to update Critical Table '%s' in CDS (Err=0x%08X)\n"
 3121      5442 4C3A 
 3121      5570 6461 
 3121      7465 4372 
 3121      6974 5462 
 3122               	.LC32:
 3123 06fa 4346 455F 	.string"CFE_TBL:UpdateCritTbl-Unable to update Critical Table Registry in CDS (Err=0x%08X)\n"
 3123      5442 4C3A 
 3123      5570 6461 
 3123      7465 4372 
 3123      6974 5462 
 3124               	.LC33:
 3125 074e 4346 455F 	.string"CFE_TBL:UpdateCritTbl-Error finding '%s' in Critical Table Registry\n"
 3125      5442 4C3A 
 3125      5570 6461 
 3125      7465 4372 
 3125      6974 5462 
 3126               	.text
 3127               	.align2
 3128               	.globlCFE_TBL_UpdateCriticalTblCDS
 3129               	.typeCFE_TBL_UpdateCriticalTblCDS, @function
 3130               	CFE_TBL_UpdateCriticalTblCDS:
 3131               	.LFB83:
1480:/home/simulink/cFS_FreeRTOS_seL4/cfe/fsw/cfe-core/src/tbl/cfe_tbl_internal.c **** 
1481:/home/simulink/cFS_FreeRTOS_seL4/cfe/fsw/cfe-core/src/tbl/cfe_tbl_internal.c **** 
1482:/home/simulink/cFS_FreeRTOS_seL4/cfe/fsw/cfe-core/src/tbl/cfe_tbl_internal.c **** /*******************************************************************
1483:/home/simulink/cFS_FreeRTOS_seL4/cfe/fsw/cfe-core/src/tbl/cfe_tbl_internal.c **** **
1484:/home/simulink/cFS_FreeRTOS_seL4/cfe/fsw/cfe-core/src/tbl/cfe_tbl_internal.c **** ** CFE_TBL_UpdateCriticalTblCDS
1485:/home/simulink/cFS_FreeRTOS_seL4/cfe/fsw/cfe-core/src/tbl/cfe_tbl_internal.c **** **
1486:/home/simulink/cFS_FreeRTOS_seL4/cfe/fsw/cfe-core/src/tbl/cfe_tbl_internal.c **** ** NOTE: For complete prolog information, see 'cfe_tbl_internal.h'
1487:/home/simulink/cFS_FreeRTOS_seL4/cfe/fsw/cfe-core/src/tbl/cfe_tbl_internal.c **** ********************************************************************/
1488:/home/simulink/cFS_FreeRTOS_seL4/cfe/fsw/cfe-core/src/tbl/cfe_tbl_internal.c **** 
1489:/home/simulink/cFS_FreeRTOS_seL4/cfe/fsw/cfe-core/src/tbl/cfe_tbl_internal.c **** void CFE_TBL_UpdateCriticalTblCDS(CFE_TBL_RegistryRec_t *RegRecPtr)
1490:/home/simulink/cFS_FreeRTOS_seL4/cfe/fsw/cfe-core/src/tbl/cfe_tbl_internal.c **** {
 3132               	.loc 1 1490 0
 3133               	.cfi_startproc
 3134 1a28 518F      	subq.l #8,%sp
 3135               	.cfi_def_cfa_offset 12
 3136 1a2a 2F02      	move.l %d2,-(%sp)
 3137               	.cfi_def_cfa_offset 16
 3138               	.cfi_offset 2, -16
1491:/home/simulink/cFS_FreeRTOS_seL4/cfe/fsw/cfe-core/src/tbl/cfe_tbl_internal.c ****     CFE_TBL_CritRegRec_t *CritRegRecPtr = NULL;
 3139               	.loc 1 1491 0
 3140 1a2c 42AF 0004 	clr.l 4(%sp)
1492:/home/simulink/cFS_FreeRTOS_seL4/cfe/fsw/cfe-core/src/tbl/cfe_tbl_internal.c ****     
1493:/home/simulink/cFS_FreeRTOS_seL4/cfe/fsw/cfe-core/src/tbl/cfe_tbl_internal.c ****     int32 Status = CFE_SUCCESS;
 3141               	.loc 1 1493 0
 3142 1a30 42AF 0008 	clr.l 8(%sp)
1494:/home/simulink/cFS_FreeRTOS_seL4/cfe/fsw/cfe-core/src/tbl/cfe_tbl_internal.c ****     
68K GAS   			page 91


1495:/home/simulink/cFS_FreeRTOS_seL4/cfe/fsw/cfe-core/src/tbl/cfe_tbl_internal.c ****     /* Copy an image of the updated table to the CDS for safekeeping */
1496:/home/simulink/cFS_FreeRTOS_seL4/cfe/fsw/cfe-core/src/tbl/cfe_tbl_internal.c ****     Status = CFE_ES_CopyToCDS(RegRecPtr->CDSHandle, RegRecPtr->Buffers[RegRecPtr->ActiveBufferIndex
 3143               	.loc 1 1496 0
 3144 1a34 206F 0010 	move.l 16(%sp),%a0
 3145 1a38 1028 00E5 	move.b 229(%a0),%d0
 3146 1a3c 1000      	move.b %d0,%d0
 3147 1a3e 0280 0000 	and.l #255,%d0
 3147      00FF 
 3148 1a44 222F 0010 	move.l 16(%sp),%d1
 3149 1a48 7454      	moveq #84,%d2
 3150 1a4a 4C02 0800 	muls.l %d2,%d0
 3151 1a4e D081      	add.l %d1,%d0
 3152 1a50 2040      	move.l %d0,%a0
 3153 1a52 41E8 0010 	lea (16,%a0),%a0
 3154 1a56 2210      	move.l (%a0),%d1
 3155 1a58 206F 0010 	move.l 16(%sp),%a0
 3156 1a5c 2028 00D8 	move.l 216(%a0),%d0
 3157 1a60 2F01      	move.l %d1,-(%sp)
 3158               	.cfi_def_cfa_offset 20
 3159 1a62 2F00      	move.l %d0,-(%sp)
 3160               	.cfi_def_cfa_offset 24
 3161 1a64 4EB9 0000 	jsr CFE_ES_CopyToCDS
 3161      0000 
 3162 1a6a 508F      	addq.l #8,%sp
 3163               	.cfi_def_cfa_offset 16
 3164 1a6c 2F40 0008 	move.l %d0,8(%sp)
1497:/home/simulink/cFS_FreeRTOS_seL4/cfe/fsw/cfe-core/src/tbl/cfe_tbl_internal.c ****     
1498:/home/simulink/cFS_FreeRTOS_seL4/cfe/fsw/cfe-core/src/tbl/cfe_tbl_internal.c ****     if (Status != CFE_SUCCESS)
 3165               	.loc 1 1498 0
 3166 1a70 4AAF 0008 	tst.l 8(%sp)
 3167 1a74 6726      	jeq .L165
1499:/home/simulink/cFS_FreeRTOS_seL4/cfe/fsw/cfe-core/src/tbl/cfe_tbl_internal.c ****     {
1500:/home/simulink/cFS_FreeRTOS_seL4/cfe/fsw/cfe-core/src/tbl/cfe_tbl_internal.c ****         CFE_ES_WriteToSysLog("CFE_TBL:UpdateCritTbl-Unable to update Critical Table '%s' in CDS (Er
 3168               	.loc 1 1500 0
 3169 1a76 222F 0008 	move.l 8(%sp),%d1
1501:/home/simulink/cFS_FreeRTOS_seL4/cfe/fsw/cfe-core/src/tbl/cfe_tbl_internal.c ****                              RegRecPtr->Name, (unsigned int)Status);
 3170               	.loc 1 1501 0
 3171 1a7a 202F 0010 	move.l 16(%sp),%d0
 3172 1a7e 0680 0000 	add.l #230,%d0
 3172      00E6 
1500:/home/simulink/cFS_FreeRTOS_seL4/cfe/fsw/cfe-core/src/tbl/cfe_tbl_internal.c ****                              RegRecPtr->Name, (unsigned int)Status);
 3173               	.loc 1 1500 0
 3174 1a84 2F01      	move.l %d1,-(%sp)
 3175               	.cfi_def_cfa_offset 20
 3176 1a86 2F00      	move.l %d0,-(%sp)
 3177               	.cfi_def_cfa_offset 24
 3178 1a88 4879 0000 	pea .LC31
 3178      0000 
 3179               	.cfi_def_cfa_offset 28
 3180 1a8e 4EB9 0000 	jsr CFE_ES_WriteToSysLog
 3180      0000 
 3181 1a94 4FEF 000C 	lea (12,%sp),%sp
 3182               	.cfi_def_cfa_offset 16
1502:/home/simulink/cFS_FreeRTOS_seL4/cfe/fsw/cfe-core/src/tbl/cfe_tbl_internal.c ****     }
1503:/home/simulink/cFS_FreeRTOS_seL4/cfe/fsw/cfe-core/src/tbl/cfe_tbl_internal.c ****     else
1504:/home/simulink/cFS_FreeRTOS_seL4/cfe/fsw/cfe-core/src/tbl/cfe_tbl_internal.c ****     {
1505:/home/simulink/cFS_FreeRTOS_seL4/cfe/fsw/cfe-core/src/tbl/cfe_tbl_internal.c ****         /* Locate entry in Critical Table Registry */   
68K GAS   			page 92


1506:/home/simulink/cFS_FreeRTOS_seL4/cfe/fsw/cfe-core/src/tbl/cfe_tbl_internal.c ****         CFE_TBL_FindCriticalTblInfo(&CritRegRecPtr, RegRecPtr->CDSHandle);
1507:/home/simulink/cFS_FreeRTOS_seL4/cfe/fsw/cfe-core/src/tbl/cfe_tbl_internal.c ****         if (CritRegRecPtr != NULL)
1508:/home/simulink/cFS_FreeRTOS_seL4/cfe/fsw/cfe-core/src/tbl/cfe_tbl_internal.c ****         {
1509:/home/simulink/cFS_FreeRTOS_seL4/cfe/fsw/cfe-core/src/tbl/cfe_tbl_internal.c ****             /* Save information related to the source of the data stored in the table in Critical T
1510:/home/simulink/cFS_FreeRTOS_seL4/cfe/fsw/cfe-core/src/tbl/cfe_tbl_internal.c ****             CritRegRecPtr->FileCreateTimeSecs = RegRecPtr->Buffers[RegRecPtr->ActiveBufferIndex].Fi
1511:/home/simulink/cFS_FreeRTOS_seL4/cfe/fsw/cfe-core/src/tbl/cfe_tbl_internal.c ****             CritRegRecPtr->FileCreateTimeSubSecs = RegRecPtr->Buffers[RegRecPtr->ActiveBufferIndex]
1512:/home/simulink/cFS_FreeRTOS_seL4/cfe/fsw/cfe-core/src/tbl/cfe_tbl_internal.c ****             strncpy(CritRegRecPtr->LastFileLoaded, RegRecPtr->LastFileLoaded, OS_MAX_PATH_LEN);
1513:/home/simulink/cFS_FreeRTOS_seL4/cfe/fsw/cfe-core/src/tbl/cfe_tbl_internal.c ****             CritRegRecPtr->TimeOfLastUpdate = RegRecPtr->TimeOfLastUpdate;
1514:/home/simulink/cFS_FreeRTOS_seL4/cfe/fsw/cfe-core/src/tbl/cfe_tbl_internal.c ****             CritRegRecPtr->TableLoadedOnce = RegRecPtr->TableLoadedOnce;
1515:/home/simulink/cFS_FreeRTOS_seL4/cfe/fsw/cfe-core/src/tbl/cfe_tbl_internal.c ****             
1516:/home/simulink/cFS_FreeRTOS_seL4/cfe/fsw/cfe-core/src/tbl/cfe_tbl_internal.c ****             /* Update copy of Critical Table Registry in the CDS */
1517:/home/simulink/cFS_FreeRTOS_seL4/cfe/fsw/cfe-core/src/tbl/cfe_tbl_internal.c ****             Status = CFE_ES_CopyToCDS(CFE_TBL_TaskData.CritRegHandle, CFE_TBL_TaskData.CritReg);
1518:/home/simulink/cFS_FreeRTOS_seL4/cfe/fsw/cfe-core/src/tbl/cfe_tbl_internal.c ****             
1519:/home/simulink/cFS_FreeRTOS_seL4/cfe/fsw/cfe-core/src/tbl/cfe_tbl_internal.c ****             if (Status != CFE_SUCCESS)
1520:/home/simulink/cFS_FreeRTOS_seL4/cfe/fsw/cfe-core/src/tbl/cfe_tbl_internal.c ****             {
1521:/home/simulink/cFS_FreeRTOS_seL4/cfe/fsw/cfe-core/src/tbl/cfe_tbl_internal.c ****                 CFE_ES_WriteToSysLog("CFE_TBL:UpdateCritTbl-Unable to update Critical Table Registr
1522:/home/simulink/cFS_FreeRTOS_seL4/cfe/fsw/cfe-core/src/tbl/cfe_tbl_internal.c ****                         (unsigned int)Status);
1523:/home/simulink/cFS_FreeRTOS_seL4/cfe/fsw/cfe-core/src/tbl/cfe_tbl_internal.c ****             }
1524:/home/simulink/cFS_FreeRTOS_seL4/cfe/fsw/cfe-core/src/tbl/cfe_tbl_internal.c ****         }
1525:/home/simulink/cFS_FreeRTOS_seL4/cfe/fsw/cfe-core/src/tbl/cfe_tbl_internal.c ****         else
1526:/home/simulink/cFS_FreeRTOS_seL4/cfe/fsw/cfe-core/src/tbl/cfe_tbl_internal.c ****         {
1527:/home/simulink/cFS_FreeRTOS_seL4/cfe/fsw/cfe-core/src/tbl/cfe_tbl_internal.c ****             CFE_ES_WriteToSysLog("CFE_TBL:UpdateCritTbl-Error finding '%s' in Critical Table Regist
1528:/home/simulink/cFS_FreeRTOS_seL4/cfe/fsw/cfe-core/src/tbl/cfe_tbl_internal.c ****                                  RegRecPtr->Name);
1529:/home/simulink/cFS_FreeRTOS_seL4/cfe/fsw/cfe-core/src/tbl/cfe_tbl_internal.c ****         }
1530:/home/simulink/cFS_FreeRTOS_seL4/cfe/fsw/cfe-core/src/tbl/cfe_tbl_internal.c ****     }
1531:/home/simulink/cFS_FreeRTOS_seL4/cfe/fsw/cfe-core/src/tbl/cfe_tbl_internal.c ****     
1532:/home/simulink/cFS_FreeRTOS_seL4/cfe/fsw/cfe-core/src/tbl/cfe_tbl_internal.c ****     /* Don't bother notifying the caller of the problem since the active table is still legitimate 
1533:/home/simulink/cFS_FreeRTOS_seL4/cfe/fsw/cfe-core/src/tbl/cfe_tbl_internal.c **** }
 3183               	.loc 1 1533 0
 3184 1a98 6000 011A 	jra .L169
 3185               	.L165:
1506:/home/simulink/cFS_FreeRTOS_seL4/cfe/fsw/cfe-core/src/tbl/cfe_tbl_internal.c ****         if (CritRegRecPtr != NULL)
 3186               	.loc 1 1506 0
 3187 1a9c 206F 0010 	move.l 16(%sp),%a0
 3188 1aa0 2028 00D8 	move.l 216(%a0),%d0
 3189 1aa4 2F00      	move.l %d0,-(%sp)
 3190               	.cfi_def_cfa_offset 20
 3191 1aa6 200F      	move.l %sp,%d0
 3192 1aa8 5080      	addq.l #8,%d0
 3193 1aaa 2F00      	move.l %d0,-(%sp)
 3194               	.cfi_def_cfa_offset 24
 3195 1aac 4EB9 0000 	jsr CFE_TBL_FindCriticalTblInfo
 3195      0000 
 3196 1ab2 508F      	addq.l #8,%sp
 3197               	.cfi_def_cfa_offset 16
1507:/home/simulink/cFS_FreeRTOS_seL4/cfe/fsw/cfe-core/src/tbl/cfe_tbl_internal.c ****         {
 3198               	.loc 1 1507 0
 3199 1ab4 202F 0004 	move.l 4(%sp),%d0
 3200 1ab8 4A80      	tst.l %d0
 3201 1aba 6700 00DE 	jeq .L167
1510:/home/simulink/cFS_FreeRTOS_seL4/cfe/fsw/cfe-core/src/tbl/cfe_tbl_internal.c ****             CritRegRecPtr->FileCreateTimeSubSecs = RegRecPtr->Buffers[RegRecPtr->ActiveBufferIndex]
 3202               	.loc 1 1510 0
 3203 1abe 206F 0010 	move.l 16(%sp),%a0
 3204 1ac2 1028 00E5 	move.b 229(%a0),%d0
 3205 1ac6 1000      	move.b %d0,%d0
 3206 1ac8 0280 0000 	and.l #255,%d0
 3206      00FF 
68K GAS   			page 93


 3207 1ace 226F 0004 	move.l 4(%sp),%a1
 3208 1ad2 222F 0010 	move.l 16(%sp),%d1
 3209 1ad6 7454      	moveq #84,%d2
 3210 1ad8 4C02 0800 	muls.l %d2,%d0
 3211 1adc D081      	add.l %d1,%d0
 3212 1ade 2040      	move.l %d0,%a0
 3213 1ae0 41E8 0014 	lea (20,%a0),%a0
 3214 1ae4 2010      	move.l (%a0),%d0
 3215 1ae6 2340 0004 	move.l %d0,4(%a1)
1511:/home/simulink/cFS_FreeRTOS_seL4/cfe/fsw/cfe-core/src/tbl/cfe_tbl_internal.c ****             strncpy(CritRegRecPtr->LastFileLoaded, RegRecPtr->LastFileLoaded, OS_MAX_PATH_LEN);
 3216               	.loc 1 1511 0
 3217 1aea 206F 0010 	move.l 16(%sp),%a0
 3218 1aee 1028 00E5 	move.b 229(%a0),%d0
 3219 1af2 1000      	move.b %d0,%d0
 3220 1af4 0280 0000 	and.l #255,%d0
 3220      00FF 
 3221 1afa 226F 0004 	move.l 4(%sp),%a1
 3222 1afe 222F 0010 	move.l 16(%sp),%d1
 3223 1b02 7454      	moveq #84,%d2
 3224 1b04 4C02 0800 	muls.l %d2,%d0
 3225 1b08 D081      	add.l %d1,%d0
 3226 1b0a 2040      	move.l %d0,%a0
 3227 1b0c 41E8 0018 	lea (24,%a0),%a0
 3228 1b10 2010      	move.l (%a0),%d0
 3229 1b12 2340 0008 	move.l %d0,8(%a1)
1512:/home/simulink/cFS_FreeRTOS_seL4/cfe/fsw/cfe-core/src/tbl/cfe_tbl_internal.c ****             CritRegRecPtr->TimeOfLastUpdate = RegRecPtr->TimeOfLastUpdate;
 3230               	.loc 1 1512 0
 3231 1b16 222F 0010 	move.l 16(%sp),%d1
 3232 1b1a 0681 0000 	add.l #270,%d1
 3232      010E 
 3233 1b20 202F 0004 	move.l 4(%sp),%d0
 3234 1b24 0680 0000 	add.l #20,%d0
 3234      0014 
 3235 1b2a 4878 0040 	pea 64.w
 3236               	.cfi_def_cfa_offset 20
 3237 1b2e 2F01      	move.l %d1,-(%sp)
 3238               	.cfi_def_cfa_offset 24
 3239 1b30 2F00      	move.l %d0,-(%sp)
 3240               	.cfi_def_cfa_offset 28
 3241 1b32 4EB9 0000 	jsr strncpy
 3241      0000 
 3242 1b38 4FEF 000C 	lea (12,%sp),%sp
 3243               	.cfi_def_cfa_offset 16
1513:/home/simulink/cFS_FreeRTOS_seL4/cfe/fsw/cfe-core/src/tbl/cfe_tbl_internal.c ****             CritRegRecPtr->TableLoadedOnce = RegRecPtr->TableLoadedOnce;
 3244               	.loc 1 1513 0
 3245 1b3c 206F 0004 	move.l 4(%sp),%a0
 3246 1b40 226F 0010 	move.l 16(%sp),%a1
 3247 1b44 2029 00BC 	move.l 188(%a1),%d0
 3248 1b48 2229 00C0 	move.l 192(%a1),%d1
 3249 1b4c 2140 000C 	move.l %d0,12(%a0)
 3250 1b50 2141 0010 	move.l %d1,16(%a0)
1514:/home/simulink/cFS_FreeRTOS_seL4/cfe/fsw/cfe-core/src/tbl/cfe_tbl_internal.c ****             
 3251               	.loc 1 1514 0
 3252 1b54 206F 0004 	move.l 4(%sp),%a0
 3253 1b58 226F 0010 	move.l 16(%sp),%a1
 3254 1b5c 1029 00DF 	move.b 223(%a1),%d0
 3255 1b60 1140 007C 	move.b %d0,124(%a0)
68K GAS   			page 94


1517:/home/simulink/cFS_FreeRTOS_seL4/cfe/fsw/cfe-core/src/tbl/cfe_tbl_internal.c ****             
 3256               	.loc 1 1517 0
 3257 1b64 2039 0000 	move.l CFE_TBL_TaskData+536,%d0
 3257      0000 
 3258 1b6a 4879 0000 	pea CFE_TBL_TaskData+47980
 3258      0000 
 3259               	.cfi_def_cfa_offset 20
 3260 1b70 2F00      	move.l %d0,-(%sp)
 3261               	.cfi_def_cfa_offset 24
 3262 1b72 4EB9 0000 	jsr CFE_ES_CopyToCDS
 3262      0000 
 3263 1b78 508F      	addq.l #8,%sp
 3264               	.cfi_def_cfa_offset 16
 3265 1b7a 2F40 0008 	move.l %d0,8(%sp)
1519:/home/simulink/cFS_FreeRTOS_seL4/cfe/fsw/cfe-core/src/tbl/cfe_tbl_internal.c ****             {
 3266               	.loc 1 1519 0
 3267 1b7e 4AAF 0008 	tst.l 8(%sp)
 3268 1b82 6730      	jeq .L169
1521:/home/simulink/cFS_FreeRTOS_seL4/cfe/fsw/cfe-core/src/tbl/cfe_tbl_internal.c ****                         (unsigned int)Status);
 3269               	.loc 1 1521 0
 3270 1b84 202F 0008 	move.l 8(%sp),%d0
 3271 1b88 2F00      	move.l %d0,-(%sp)
 3272               	.cfi_def_cfa_offset 20
 3273 1b8a 4879 0000 	pea .LC32
 3273      0000 
 3274               	.cfi_def_cfa_offset 24
 3275 1b90 4EB9 0000 	jsr CFE_ES_WriteToSysLog
 3275      0000 
 3276 1b96 508F      	addq.l #8,%sp
 3277               	.cfi_def_cfa_offset 16
 3278               	.loc 1 1533 0
 3279 1b98 601A      	jra .L169
 3280               	.L167:
1528:/home/simulink/cFS_FreeRTOS_seL4/cfe/fsw/cfe-core/src/tbl/cfe_tbl_internal.c ****         }
 3281               	.loc 1 1528 0
 3282 1b9a 202F 0010 	move.l 16(%sp),%d0
 3283 1b9e 0680 0000 	add.l #230,%d0
 3283      00E6 
1527:/home/simulink/cFS_FreeRTOS_seL4/cfe/fsw/cfe-core/src/tbl/cfe_tbl_internal.c ****                                  RegRecPtr->Name);
 3284               	.loc 1 1527 0
 3285 1ba4 2F00      	move.l %d0,-(%sp)
 3286               	.cfi_def_cfa_offset 20
 3287 1ba6 4879 0000 	pea .LC33
 3287      0000 
 3288               	.cfi_def_cfa_offset 24
 3289 1bac 4EB9 0000 	jsr CFE_ES_WriteToSysLog
 3289      0000 
 3290 1bb2 508F      	addq.l #8,%sp
 3291               	.cfi_def_cfa_offset 16
 3292               	.L169:
 3293               	.loc 1 1533 0
 3294 1bb4 4E71      	nop
 3295 1bb6 241F      	move.l (%sp)+,%d2
 3296 1bb8 508F      	addq.l #8,%sp
 3297 1bba 4E75      	rts
 3298               	.cfi_endproc
 3299               	.LFE83:
68K GAS   			page 95


 3300               	.sizeCFE_TBL_UpdateCriticalTblCDS, .-CFE_TBL_UpdateCriticalTblCDS
 3301               	.section.rodata
 3302               	.LC34:
 3303 0793 4D61 6E61 	.string"Manage Notification Pkt Error(Status=0x%08X)"
 3303      6765 204E 
 3303      6F74 6966 
 3303      6963 6174 
 3303      696F 6E20 
 3304               	.text
 3305               	.align2
 3306               	.globlCFE_TBL_SendNotificationMsg
 3307               	.typeCFE_TBL_SendNotificationMsg, @function
 3308               	CFE_TBL_SendNotificationMsg:
 3309               	.LFB84:
1534:/home/simulink/cFS_FreeRTOS_seL4/cfe/fsw/cfe-core/src/tbl/cfe_tbl_internal.c **** 
1535:/home/simulink/cFS_FreeRTOS_seL4/cfe/fsw/cfe-core/src/tbl/cfe_tbl_internal.c **** 
1536:/home/simulink/cFS_FreeRTOS_seL4/cfe/fsw/cfe-core/src/tbl/cfe_tbl_internal.c **** /*******************************************************************
1537:/home/simulink/cFS_FreeRTOS_seL4/cfe/fsw/cfe-core/src/tbl/cfe_tbl_internal.c **** **
1538:/home/simulink/cFS_FreeRTOS_seL4/cfe/fsw/cfe-core/src/tbl/cfe_tbl_internal.c **** ** CFE_TBL_SendNotificationMsg
1539:/home/simulink/cFS_FreeRTOS_seL4/cfe/fsw/cfe-core/src/tbl/cfe_tbl_internal.c **** **
1540:/home/simulink/cFS_FreeRTOS_seL4/cfe/fsw/cfe-core/src/tbl/cfe_tbl_internal.c **** ** NOTE: For complete prolog information, see 'cfe_tbl_internal.h'
1541:/home/simulink/cFS_FreeRTOS_seL4/cfe/fsw/cfe-core/src/tbl/cfe_tbl_internal.c **** ********************************************************************/
1542:/home/simulink/cFS_FreeRTOS_seL4/cfe/fsw/cfe-core/src/tbl/cfe_tbl_internal.c **** 
1543:/home/simulink/cFS_FreeRTOS_seL4/cfe/fsw/cfe-core/src/tbl/cfe_tbl_internal.c **** int32 CFE_TBL_SendNotificationMsg(CFE_TBL_RegistryRec_t *RegRecPtr)
1544:/home/simulink/cFS_FreeRTOS_seL4/cfe/fsw/cfe-core/src/tbl/cfe_tbl_internal.c **** {
 3310               	.loc 1 1544 0
 3311               	.cfi_startproc
 3312 1bbc 598F      	subq.l #4,%sp
 3313               	.cfi_def_cfa_offset 8
1545:/home/simulink/cFS_FreeRTOS_seL4/cfe/fsw/cfe-core/src/tbl/cfe_tbl_internal.c ****     int32 Status = CFE_SUCCESS;
 3314               	.loc 1 1545 0
 3315 1bbe 4297      	clr.l (%sp)
1546:/home/simulink/cFS_FreeRTOS_seL4/cfe/fsw/cfe-core/src/tbl/cfe_tbl_internal.c ****     
1547:/home/simulink/cFS_FreeRTOS_seL4/cfe/fsw/cfe-core/src/tbl/cfe_tbl_internal.c ****     /* First, determine if a message should be sent */
1548:/home/simulink/cFS_FreeRTOS_seL4/cfe/fsw/cfe-core/src/tbl/cfe_tbl_internal.c ****     if (RegRecPtr->NotifyByMsg)
 3316               	.loc 1 1548 0
 3317 1bc0 206F 0008 	move.l 8(%sp),%a0
 3318 1bc4 1028 00E4 	move.b 228(%a0),%d0
 3319 1bc8 4A00      	tst.b %d0
 3320 1bca 6700 009A 	jeq .L171
1549:/home/simulink/cFS_FreeRTOS_seL4/cfe/fsw/cfe-core/src/tbl/cfe_tbl_internal.c ****     {
1550:/home/simulink/cFS_FreeRTOS_seL4/cfe/fsw/cfe-core/src/tbl/cfe_tbl_internal.c ****         /*
1551:/home/simulink/cFS_FreeRTOS_seL4/cfe/fsw/cfe-core/src/tbl/cfe_tbl_internal.c ****         ** Initialize notification message packet (clear user data area)...
1552:/home/simulink/cFS_FreeRTOS_seL4/cfe/fsw/cfe-core/src/tbl/cfe_tbl_internal.c ****         */
1553:/home/simulink/cFS_FreeRTOS_seL4/cfe/fsw/cfe-core/src/tbl/cfe_tbl_internal.c ****         CFE_SB_InitMsg(&CFE_TBL_TaskData.NotifyMsg,
1554:/home/simulink/cFS_FreeRTOS_seL4/cfe/fsw/cfe-core/src/tbl/cfe_tbl_internal.c ****                         RegRecPtr->NotificationMsgId,
 3321               	.loc 1 1554 0
 3322 1bce 206F 0008 	move.l 8(%sp),%a0
 3323 1bd2 2028 0008 	move.l 8(%a0),%d0
1553:/home/simulink/cFS_FreeRTOS_seL4/cfe/fsw/cfe-core/src/tbl/cfe_tbl_internal.c ****                         RegRecPtr->NotificationMsgId,
 3324               	.loc 1 1553 0
 3325 1bd6 3000      	move.w %d0,%d0
 3326 1bd8 3000      	move.w %d0,%d0
 3327 1bda 0280 0000 	and.l #65535,%d0
 3327      FFFF 
 3328 1be0 4878 0001 	pea 1.w
 3329               	.cfi_def_cfa_offset 12
68K GAS   			page 96


 3330 1be4 4878 000C 	pea 12.w
 3331               	.cfi_def_cfa_offset 16
 3332 1be8 2F00      	move.l %d0,-(%sp)
 3333               	.cfi_def_cfa_offset 20
 3334 1bea 4879 0000 	pea CFE_TBL_TaskData+484
 3334      0000 
 3335               	.cfi_def_cfa_offset 24
 3336 1bf0 4EB9 0000 	jsr CFE_SB_InitMsg
 3336      0000 
 3337 1bf6 4FEF 0010 	lea (16,%sp),%sp
 3338               	.cfi_def_cfa_offset 8
1555:/home/simulink/cFS_FreeRTOS_seL4/cfe/fsw/cfe-core/src/tbl/cfe_tbl_internal.c ****                         sizeof(CFE_TBL_NotifyCmd_t), TRUE);
1556:/home/simulink/cFS_FreeRTOS_seL4/cfe/fsw/cfe-core/src/tbl/cfe_tbl_internal.c ****         
1557:/home/simulink/cFS_FreeRTOS_seL4/cfe/fsw/cfe-core/src/tbl/cfe_tbl_internal.c ****         /* Set the command code */
1558:/home/simulink/cFS_FreeRTOS_seL4/cfe/fsw/cfe-core/src/tbl/cfe_tbl_internal.c ****         CFE_SB_SetCmdCode((CFE_SB_MsgPtr_t) &CFE_TBL_TaskData.NotifyMsg, RegRecPtr->NotificationCC)
 3339               	.loc 1 1558 0
 3340 1bfa 206F 0008 	move.l 8(%sp),%a0
 3341 1bfe 3028 00DC 	move.w 220(%a0),%d0
 3342 1c02 3000      	move.w %d0,%d0
 3343 1c04 0280 0000 	and.l #65535,%d0
 3343      FFFF 
 3344 1c0a 2F00      	move.l %d0,-(%sp)
 3345               	.cfi_def_cfa_offset 12
 3346 1c0c 4879 0000 	pea CFE_TBL_TaskData+484
 3346      0000 
 3347               	.cfi_def_cfa_offset 16
 3348 1c12 4EB9 0000 	jsr CFE_SB_SetCmdCode
 3348      0000 
 3349 1c18 508F      	addq.l #8,%sp
 3350               	.cfi_def_cfa_offset 8
1559:/home/simulink/cFS_FreeRTOS_seL4/cfe/fsw/cfe-core/src/tbl/cfe_tbl_internal.c ****         
1560:/home/simulink/cFS_FreeRTOS_seL4/cfe/fsw/cfe-core/src/tbl/cfe_tbl_internal.c ****         /* Set the command parameter */
1561:/home/simulink/cFS_FreeRTOS_seL4/cfe/fsw/cfe-core/src/tbl/cfe_tbl_internal.c ****         CFE_TBL_TaskData.NotifyMsg.Payload.Parameter = RegRecPtr->NotificationParam;
 3351               	.loc 1 1561 0
 3352 1c1a 206F 0008 	move.l 8(%sp),%a0
 3353 1c1e 2028 000C 	move.l 12(%a0),%d0
 3354 1c22 23C0 0000 	move.l %d0,CFE_TBL_TaskData+492
 3354      0000 
1562:/home/simulink/cFS_FreeRTOS_seL4/cfe/fsw/cfe-core/src/tbl/cfe_tbl_internal.c ****     
1563:/home/simulink/cFS_FreeRTOS_seL4/cfe/fsw/cfe-core/src/tbl/cfe_tbl_internal.c ****         CFE_SB_TimeStampMsg((CFE_SB_Msg_t *) &CFE_TBL_TaskData.NotifyMsg);
 3355               	.loc 1 1563 0
 3356 1c28 4879 0000 	pea CFE_TBL_TaskData+484
 3356      0000 
 3357               	.cfi_def_cfa_offset 12
 3358 1c2e 4EB9 0000 	jsr CFE_SB_TimeStampMsg
 3358      0000 
 3359 1c34 588F      	addq.l #4,%sp
 3360               	.cfi_def_cfa_offset 8
1564:/home/simulink/cFS_FreeRTOS_seL4/cfe/fsw/cfe-core/src/tbl/cfe_tbl_internal.c ****         Status = CFE_SB_SendMsg((CFE_SB_Msg_t *) &CFE_TBL_TaskData.NotifyMsg);
 3361               	.loc 1 1564 0
 3362 1c36 4879 0000 	pea CFE_TBL_TaskData+484
 3362      0000 
 3363               	.cfi_def_cfa_offset 12
 3364 1c3c 4EB9 0000 	jsr CFE_SB_SendMsg
 3364      0000 
 3365 1c42 588F      	addq.l #4,%sp
 3366               	.cfi_def_cfa_offset 8
68K GAS   			page 97


 3367 1c44 2E80      	move.l %d0,(%sp)
1565:/home/simulink/cFS_FreeRTOS_seL4/cfe/fsw/cfe-core/src/tbl/cfe_tbl_internal.c ****     
1566:/home/simulink/cFS_FreeRTOS_seL4/cfe/fsw/cfe-core/src/tbl/cfe_tbl_internal.c ****         if (Status != CFE_SUCCESS)
 3368               	.loc 1 1566 0
 3369 1c46 4A97      	tst.l (%sp)
 3370 1c48 671C      	jeq .L171
1567:/home/simulink/cFS_FreeRTOS_seL4/cfe/fsw/cfe-core/src/tbl/cfe_tbl_internal.c ****         {
1568:/home/simulink/cFS_FreeRTOS_seL4/cfe/fsw/cfe-core/src/tbl/cfe_tbl_internal.c ****             CFE_EVS_SendEvent(CFE_TBL_FAIL_NOTIFY_SEND_ERR_EID,
 3371               	.loc 1 1568 0
 3372 1c4a 2017      	move.l (%sp),%d0
 3373 1c4c 2F00      	move.l %d0,-(%sp)
 3374               	.cfi_def_cfa_offset 12
 3375 1c4e 4879 0000 	pea .LC34
 3375      0000 
 3376               	.cfi_def_cfa_offset 16
 3377 1c54 4878 0003 	pea 3.w
 3378               	.cfi_def_cfa_offset 20
 3379 1c58 4878 0059 	pea 89.w
 3380               	.cfi_def_cfa_offset 24
 3381 1c5c 4EB9 0000 	jsr CFE_EVS_SendEvent
 3381      0000 
 3382 1c62 4FEF 0010 	lea (16,%sp),%sp
 3383               	.cfi_def_cfa_offset 8
 3384               	.L171:
1569:/home/simulink/cFS_FreeRTOS_seL4/cfe/fsw/cfe-core/src/tbl/cfe_tbl_internal.c ****                               CFE_EVS_ERROR,
1570:/home/simulink/cFS_FreeRTOS_seL4/cfe/fsw/cfe-core/src/tbl/cfe_tbl_internal.c ****                               "Manage Notification Pkt Error(Status=0x%08X)",
1571:/home/simulink/cFS_FreeRTOS_seL4/cfe/fsw/cfe-core/src/tbl/cfe_tbl_internal.c ****                               (unsigned int)Status);
1572:/home/simulink/cFS_FreeRTOS_seL4/cfe/fsw/cfe-core/src/tbl/cfe_tbl_internal.c ****         }
1573:/home/simulink/cFS_FreeRTOS_seL4/cfe/fsw/cfe-core/src/tbl/cfe_tbl_internal.c ****     }
1574:/home/simulink/cFS_FreeRTOS_seL4/cfe/fsw/cfe-core/src/tbl/cfe_tbl_internal.c ****     
1575:/home/simulink/cFS_FreeRTOS_seL4/cfe/fsw/cfe-core/src/tbl/cfe_tbl_internal.c ****     return Status;
 3385               	.loc 1 1575 0
 3386 1c66 2017      	move.l (%sp),%d0
1576:/home/simulink/cFS_FreeRTOS_seL4/cfe/fsw/cfe-core/src/tbl/cfe_tbl_internal.c **** }
 3387               	.loc 1 1576 0
 3388 1c68 588F      	addq.l #4,%sp
 3389 1c6a 4E75      	rts
 3390               	.cfi_endproc
 3391               	.LFE84:
 3392               	.sizeCFE_TBL_SendNotificationMsg, .-CFE_TBL_SendNotificationMsg
 3393               	.Letext0:
 3394               	.file 2 "/home/simulink/cFS_FreeRTOS_seL4/osal/src/os/inc/common_types.h"
 3395               	.file 3 "/home/simulink/cFS_FreeRTOS_seL4/cfe/fsw/cfe-core/src/inc/cfe_time.h"
 3396               	.file 4 "/home/simulink/cFS_FreeRTOS_seL4/cfe/fsw/cfe-core/src/inc/cfe_tbl.h"
 3397               	.file 5 "/home/simulink/development/rtems/5/m68k-rtems5/include/machine/_default_types.h"
 3398               	.file 6 "/home/simulink/development/rtems/5/lib/gcc/m68k-rtems5/7.3.0/include/stddef.h"
 3399               	.file 7 "/home/simulink/development/rtems/5/m68k-rtems5/include/machine/_types.h"
 3400               	.file 8 "/home/simulink/development/rtems/5/m68k-rtems5/include/sys/lock.h"
 3401               	.file 9 "/home/simulink/development/rtems/5/m68k-rtems5/include/sys/_types.h"
 3402               	.file 10 "/home/simulink/development/rtems/5/m68k-rtems5/include/sys/reent.h"
 3403               	.file 11 "/home/simulink/development/rtems/5/m68k-rtems5/include/stdlib.h"
 3404               	.file 12 "/home/simulink/development/rtems/5/m68k-rtems5/include/time.h"
 3405               	.file 13 "/home/simulink/cFS_FreeRTOS_seL4/cfe/fsw/cfe-core/src/inc/cfe_es.h"
 3406               	.file 14 "/home/simulink/cFS_FreeRTOS_seL4/cfe/fsw/cfe-core/src/inc/ccsds.h"
 3407               	.file 15 "/home/simulink/cFS_FreeRTOS_seL4/cfe/fsw/cfe-core/src/inc/cfe_sb.h"
 3408               	.file 16 "/home/simulink/cFS_FreeRTOS_seL4/cfe/fsw/cfe-core/src/inc/cfe_fs.h"
 3409               	.file 17 "/home/simulink/cFS_FreeRTOS_seL4/cfe/fsw/cfe-core/src/inc/cfe_tbl_msg.h"
68K GAS   			page 98


 3410               	.file 18 "/home/simulink/cFS_FreeRTOS_seL4/cfe/fsw/cfe-core/src/tbl/cfe_tbl_task.h"
 3411               	.file 19 "/home/simulink/cFS_FreeRTOS_seL4/cfe/fsw/cfe-core/src/inc/cfe_tbl_filedef.h"
 3412               	.file 20 "/home/simulink/cFS_FreeRTOS_seL4/cfe/fsw/cfe-core/src/tbl/cfe_tbl_internal.h"
 3413               	.section.debug_info,"",@progbits
 3414               	.Ldebug_info0:
 3415 0000 0000 1CE2 	.long0x1ce2
 3416 0004 0004      	.word0x4
 3417 0006 0000 0000 	.long.Ldebug_abbrev0
 3418 000a 04        	.byte0x4
 3419 000b 01        	.uleb128 0x1
 3420 000c 0000 0000 	.long.LASF358
 3421 0010 0C        	.byte0xc
 3422 0011 0000 0000 	.long.LASF359
 3423 0015 0000 0000 	.long.LASF360
 3424 0019 0000 0000 	.long.Ltext0
 3425 001d 0000 1C6C 	.long.Letext0-.Ltext0
 3426 0021 0000 0000 	.long.Ldebug_line0
 3427 0025 02        	.uleb128 0x2
 3428 0026 0000 0000 	.long.LASF2
 3429 002a 02        	.byte0x2
 3430 002b E6        	.byte0xe6
 3431 002c 0000 0030 	.long0x30
 3432 0030 03        	.uleb128 0x3
 3433 0031 01        	.byte0x1
 3434 0032 08        	.byte0x8
 3435 0033 0000 0000 	.long.LASF0
 3436 0037 03        	.uleb128 0x3
 3437 0038 01        	.byte0x1
 3438 0039 06        	.byte0x6
 3439 003a 0000 0000 	.long.LASF1
 3440 003e 02        	.uleb128 0x2
 3441 003f 0000 0000 	.long.LASF3
 3442 0043 02        	.byte0x2
 3443 0044 E8        	.byte0xe8
 3444 0045 0000 0049 	.long0x49
 3445 0049 03        	.uleb128 0x3
 3446 004a 02        	.byte0x2
 3447 004b 05        	.byte0x5
 3448 004c 0000 0000 	.long.LASF4
 3449 0050 02        	.uleb128 0x2
 3450 0051 0000 0000 	.long.LASF5
 3451 0055 02        	.byte0x2
 3452 0056 E9        	.byte0xe9
 3453 0057 0000 005B 	.long0x5b
 3454 005b 03        	.uleb128 0x3
 3455 005c 04        	.byte0x4
 3456 005d 05        	.byte0x5
 3457 005e 0000 0000 	.long.LASF6
 3458 0062 03        	.uleb128 0x3
 3459 0063 08        	.byte0x8
 3460 0064 05        	.byte0x5
 3461 0065 0000 0000 	.long.LASF7
 3462 0069 02        	.uleb128 0x2
 3463 006a 0000 0000 	.long.LASF8
 3464 006e 02        	.byte0x2
 3465 006f EB        	.byte0xeb
 3466 0070 0000 0030 	.long0x30
68K GAS   			page 99


 3467 0074 02        	.uleb128 0x2
 3468 0075 0000 0000 	.long.LASF9
 3469 0079 02        	.byte0x2
 3470 007a EC        	.byte0xec
 3471 007b 0000 007F 	.long0x7f
 3472 007f 03        	.uleb128 0x3
 3473 0080 02        	.byte0x2
 3474 0081 07        	.byte0x7
 3475 0082 0000 0000 	.long.LASF10
 3476 0086 02        	.uleb128 0x2
 3477 0087 0000 0000 	.long.LASF11
 3478 008b 02        	.byte0x2
 3479 008c ED        	.byte0xed
 3480 008d 0000 0091 	.long0x91
 3481 0091 03        	.uleb128 0x3
 3482 0092 04        	.byte0x4
 3483 0093 07        	.byte0x7
 3484 0094 0000 0000 	.long.LASF12
 3485 0098 03        	.uleb128 0x3
 3486 0099 08        	.byte0x8
 3487 009a 07        	.byte0x7
 3488 009b 0000 0000 	.long.LASF13
 3489 009f 02        	.uleb128 0x2
 3490 00a0 0000 0000 	.long.LASF14
 3491 00a4 02        	.byte0x2
 3492 00a5 F0        	.byte0xf0
 3493 00a6 0000 0091 	.long0x91
 3494 00aa 04        	.uleb128 0x4
 3495 00ab 0000 0000 	.long.LASF15
 3496 00af 02        	.byte0x2
 3497 00b0 0131      	.word0x131
 3498 00b2 0000 0025 	.long0x25
 3499 00b6 03        	.uleb128 0x3
 3500 00b7 01        	.byte0x1
 3501 00b8 06        	.byte0x6
 3502 00b9 0000 0000 	.long.LASF16
 3503 00bd 05        	.uleb128 0x5
 3504 00be 0000 00B6 	.long0xb6
 3505 00c2 06        	.uleb128 0x6
 3506 00c3 08        	.byte0x8
 3507 00c4 03        	.byte0x3
 3508 00c5 4D        	.byte0x4d
 3509 00c6 0000 00E3 	.long0xe3
 3510 00ca 07        	.uleb128 0x7
 3511 00cb 0000 0000 	.long.LASF17
 3512 00cf 03        	.byte0x3
 3513 00d0 4F        	.byte0x4f
 3514 00d1 0000 0086 	.long0x86
 3515 00d5 00        	.byte0
 3516 00d6 07        	.uleb128 0x7
 3517 00d7 0000 0000 	.long.LASF18
 3518 00db 03        	.byte0x3
 3519 00dc 50        	.byte0x50
 3520 00dd 0000 0086 	.long0x86
 3521 00e1 04        	.byte0x4
 3522 00e2 00        	.byte0
 3523 00e3 02        	.uleb128 0x2
68K GAS   			page 100


 3524 00e4 0000 0000 	.long.LASF19
 3525 00e8 03        	.byte0x3
 3526 00e9 51        	.byte0x51
 3527 00ea 0000 00C2 	.long0xc2
 3528 00ee 08        	.uleb128 0x8
 3529 00ef 04        	.byte0x4
 3530 00f0 05        	.byte0x5
 3531 00f1 696E 7400 	.string"int"
 3532 00f5 02        	.uleb128 0x2
 3533 00f6 0000 0000 	.long.LASF20
 3534 00fa 04        	.byte0x4
 3535 00fb 5E        	.byte0x5e
 3536 00fc 0000 0100 	.long0x100
 3537 0100 09        	.uleb128 0x9
 3538 0101 04        	.byte0x4
 3539 0102 0000 0106 	.long0x106
 3540 0106 0A        	.uleb128 0xa
 3541 0107 0000 0050 	.long0x50
 3542 010b 0000 0115 	.long0x115
 3543 010f 0B        	.uleb128 0xb
 3544 0110 0000 0115 	.long0x115
 3545 0114 00        	.byte0
 3546 0115 0C        	.uleb128 0xc
 3547 0116 04        	.byte0x4
 3548 0117 02        	.uleb128 0x2
 3549 0118 0000 0000 	.long.LASF21
 3550 011c 04        	.byte0x4
 3551 011d 60        	.byte0x60
 3552 011e 0000 003E 	.long0x3e
 3553 0122 03        	.uleb128 0x3
 3554 0123 04        	.byte0x4
 3555 0124 07        	.byte0x7
 3556 0125 0000 0000 	.long.LASF22
 3557 0129 0D        	.uleb128 0xd
 3558 012a 0000 00B6 	.long0xb6
 3559 012e 0000 0139 	.long0x139
 3560 0132 0E        	.uleb128 0xe
 3561 0133 0000 0091 	.long0x91
 3562 0137 3F        	.byte0x3f
 3563 0138 00        	.byte0
 3564 0139 0D        	.uleb128 0xd
 3565 013a 0000 00B6 	.long0xb6
 3566 013e 0000 0149 	.long0x149
 3567 0142 0E        	.uleb128 0xe
 3568 0143 0000 0091 	.long0x91
 3569 0147 13        	.byte0x13
 3570 0148 00        	.byte0
 3571 0149 02        	.uleb128 0x2
 3572 014a 0000 0000 	.long.LASF23
 3573 014e 05        	.byte0x5
 3574 014f 67        	.byte0x67
 3575 0150 0000 0062 	.long0x62
 3576 0154 02        	.uleb128 0x2
 3577 0155 0000 0000 	.long.LASF24
 3578 0159 06        	.byte0x6
 3579 015a D8        	.byte0xd8
 3580 015b 0000 0091 	.long0x91
68K GAS   			page 101


 3581 015f 03        	.uleb128 0x3
 3582 0160 08        	.byte0x8
 3583 0161 04        	.byte0x4
 3584 0162 0000 0000 	.long.LASF25
 3585 0166 02        	.uleb128 0x2
 3586 0167 0000 0000 	.long.LASF26
 3587 016b 07        	.byte0x7
 3588 016c 10        	.byte0x10
 3589 016d 0000 0149 	.long0x149
 3590 0171 02        	.uleb128 0x2
 3591 0172 0000 0000 	.long.LASF27
 3592 0176 07        	.byte0x7
 3593 0177 16        	.byte0x16
 3594 0178 0000 0166 	.long0x166
 3595 017c 0F        	.uleb128 0xf
 3596 017d 0000 0000 	.long.LASF30
 3597 0181 08        	.byte0x8
 3598 0182 08        	.byte0x8
 3599 0183 28        	.byte0x28
 3600 0184 0000 01A1 	.long0x1a1
 3601 0188 07        	.uleb128 0x7
 3602 0189 0000 0000 	.long.LASF28
 3603 018d 08        	.byte0x8
 3604 018e 29        	.byte0x29
 3605 018f 0000 0122 	.long0x122
 3606 0193 00        	.byte0
 3607 0194 07        	.uleb128 0x7
 3608 0195 0000 0000 	.long.LASF29
 3609 0199 08        	.byte0x8
 3610 019a 2A        	.byte0x2a
 3611 019b 0000 0122 	.long0x122
 3612 019f 04        	.byte0x4
 3613 01a0 00        	.byte0
 3614 01a1 0F        	.uleb128 0xf
 3615 01a2 0000 0000 	.long.LASF31
 3616 01a6 14        	.byte0x14
 3617 01a7 08        	.byte0x8
 3618 01a8 2D        	.byte0x2d
 3619 01a9 0000 01DE 	.long0x1de
 3620 01ad 07        	.uleb128 0x7
 3621 01ae 0000 0000 	.long.LASF32
 3622 01b2 08        	.byte0x8
 3623 01b3 2E        	.byte0x2e
 3624 01b4 0000 017C 	.long0x17c
 3625 01b8 00        	.byte0
 3626 01b9 07        	.uleb128 0x7
 3627 01ba 0000 0000 	.long.LASF33
 3628 01be 08        	.byte0x8
 3629 01bf 2F        	.byte0x2f
 3630 01c0 0000 01E3 	.long0x1e3
 3631 01c4 08        	.byte0x8
 3632 01c5 07        	.uleb128 0x7
 3633 01c6 0000 0000 	.long.LASF34
 3634 01ca 08        	.byte0x8
 3635 01cb 30        	.byte0x30
 3636 01cc 0000 01EE 	.long0x1ee
 3637 01d0 0C        	.byte0xc
68K GAS   			page 102


 3638 01d1 07        	.uleb128 0x7
 3639 01d2 0000 0000 	.long.LASF35
 3640 01d6 08        	.byte0x8
 3641 01d7 31        	.byte0x31
 3642 01d8 0000 01F4 	.long0x1f4
 3643 01dc 10        	.byte0x10
 3644 01dd 00        	.byte0
 3645 01de 10        	.uleb128 0x10
 3646 01df 0000 0000 	.long.LASF36
 3647 01e3 09        	.uleb128 0x9
 3648 01e4 04        	.byte0x4
 3649 01e5 0000 01DE 	.long0x1de
 3650 01e9 10        	.uleb128 0x10
 3651 01ea 0000 0000 	.long.LASF37
 3652 01ee 09        	.uleb128 0x9
 3653 01ef 04        	.byte0x4
 3654 01f0 0000 01E9 	.long0x1e9
 3655 01f4 09        	.uleb128 0x9
 3656 01f5 04        	.byte0x4
 3657 01f6 0000 00BD 	.long0xbd
 3658 01fa 0F        	.uleb128 0xf
 3659 01fb 0000 0000 	.long.LASF38
 3660 01ff 14        	.byte0x14
 3661 0200 08        	.byte0x8
 3662 0201 34        	.byte0x34
 3663 0202 0000 0213 	.long0x213
 3664 0206 07        	.uleb128 0x7
 3665 0207 0000 0000 	.long.LASF39
 3666 020b 08        	.byte0x8
 3667 020c 35        	.byte0x35
 3668 020d 0000 01A1 	.long0x1a1
 3669 0211 00        	.byte0
 3670 0212 00        	.byte0
 3671 0213 0F        	.uleb128 0xf
 3672 0214 0000 0000 	.long.LASF40
 3673 0218 18        	.byte0x18
 3674 0219 08        	.byte0x8
 3675 021a 38        	.byte0x38
 3676 021b 0000 0238 	.long0x238
 3677 021f 07        	.uleb128 0x7
 3678 0220 0000 0000 	.long.LASF41
 3679 0224 08        	.byte0x8
 3680 0225 39        	.byte0x39
 3681 0226 0000 01FA 	.long0x1fa
 3682 022a 00        	.byte0
 3683 022b 07        	.uleb128 0x7
 3684 022c 0000 0000 	.long.LASF42
 3685 0230 08        	.byte0x8
 3686 0231 3A        	.byte0x3a
 3687 0232 0000 0122 	.long0x122
 3688 0236 14        	.byte0x14
 3689 0237 00        	.byte0
 3690 0238 04        	.uleb128 0x4
 3691 0239 0000 0000 	.long.LASF43
 3692 023d 08        	.byte0x8
 3693 023e 0171      	.word0x171
 3694 0240 0000 0213 	.long0x213
68K GAS   			page 103


 3695 0244 02        	.uleb128 0x2
 3696 0245 0000 0000 	.long.LASF44
 3697 0249 09        	.byte0x9
 3698 024a 91        	.byte0x91
 3699 024b 0000 005B 	.long0x5b
 3700 024f 04        	.uleb128 0x4
 3701 0250 0000 0000 	.long.LASF45
 3702 0254 06        	.byte0x6
 3703 0255 0165      	.word0x165
 3704 0257 0000 0122 	.long0x122
 3705 025b 11        	.uleb128 0x11
 3706 025c 04        	.byte0x4
 3707 025d 09        	.byte0x9
 3708 025e A6        	.byte0xa6
 3709 025f 0000 027A 	.long0x27a
 3710 0263 12        	.uleb128 0x12
 3711 0264 0000 0000 	.long.LASF46
 3712 0268 09        	.byte0x9
 3713 0269 A8        	.byte0xa8
 3714 026a 0000 024F 	.long0x24f
 3715 026e 12        	.uleb128 0x12
 3716 026f 0000 0000 	.long.LASF47
 3717 0273 09        	.byte0x9
 3718 0274 A9        	.byte0xa9
 3719 0275 0000 027A 	.long0x27a
 3720 0279 00        	.byte0
 3721 027a 0D        	.uleb128 0xd
 3722 027b 0000 0030 	.long0x30
 3723 027f 0000 028A 	.long0x28a
 3724 0283 0E        	.uleb128 0xe
 3725 0284 0000 0091 	.long0x91
 3726 0288 03        	.byte0x3
 3727 0289 00        	.byte0
 3728 028a 06        	.uleb128 0x6
 3729 028b 08        	.byte0x8
 3730 028c 09        	.byte0x9
 3731 028d A3        	.byte0xa3
 3732 028e 0000 02AB 	.long0x2ab
 3733 0292 07        	.uleb128 0x7
 3734 0293 0000 0000 	.long.LASF48
 3735 0297 09        	.byte0x9
 3736 0298 A5        	.byte0xa5
 3737 0299 0000 00EE 	.long0xee
 3738 029d 00        	.byte0
 3739 029e 07        	.uleb128 0x7
 3740 029f 0000 0000 	.long.LASF49
 3741 02a3 09        	.byte0x9
 3742 02a4 AA        	.byte0xaa
 3743 02a5 0000 025B 	.long0x25b
 3744 02a9 04        	.byte0x4
 3745 02aa 00        	.byte0
 3746 02ab 02        	.uleb128 0x2
 3747 02ac 0000 0000 	.long.LASF50
 3748 02b0 09        	.byte0x9
 3749 02b1 AB        	.byte0xab
 3750 02b2 0000 028A 	.long0x28a
 3751 02b6 02        	.uleb128 0x2
68K GAS   			page 104


 3752 02b7 0000 0000 	.long.LASF51
 3753 02bb 09        	.byte0x9
 3754 02bc AF        	.byte0xaf
 3755 02bd 0000 0238 	.long0x238
 3756 02c1 02        	.uleb128 0x2
 3757 02c2 0000 0000 	.long.LASF52
 3758 02c6 0A        	.byte0xa
 3759 02c7 16        	.byte0x16
 3760 02c8 0000 0091 	.long0x91
 3761 02cc 0F        	.uleb128 0xf
 3762 02cd 0000 0000 	.long.LASF53
 3763 02d1 18        	.byte0x18
 3764 02d2 0A        	.byte0xa
 3765 02d3 2F        	.byte0x2f
 3766 02d4 0000 031F 	.long0x31f
 3767 02d8 07        	.uleb128 0x7
 3768 02d9 0000 0000 	.long.LASF54
 3769 02dd 0A        	.byte0xa
 3770 02de 31        	.byte0x31
 3771 02df 0000 031F 	.long0x31f
 3772 02e3 00        	.byte0
 3773 02e4 13        	.uleb128 0x13
 3774 02e5 5F6B 00   	.string"_k"
 3775 02e8 0A        	.byte0xa
 3776 02e9 32        	.byte0x32
 3777 02ea 0000 00EE 	.long0xee
 3778 02ee 04        	.byte0x4
 3779 02ef 07        	.uleb128 0x7
 3780 02f0 0000 0000 	.long.LASF55
 3781 02f4 0A        	.byte0xa
 3782 02f5 32        	.byte0x32
 3783 02f6 0000 00EE 	.long0xee
 3784 02fa 08        	.byte0x8
 3785 02fb 07        	.uleb128 0x7
 3786 02fc 0000 0000 	.long.LASF56
 3787 0300 0A        	.byte0xa
 3788 0301 32        	.byte0x32
 3789 0302 0000 00EE 	.long0xee
 3790 0306 0C        	.byte0xc
 3791 0307 07        	.uleb128 0x7
 3792 0308 0000 0000 	.long.LASF57
 3793 030c 0A        	.byte0xa
 3794 030d 32        	.byte0x32
 3795 030e 0000 00EE 	.long0xee
 3796 0312 10        	.byte0x10
 3797 0313 13        	.uleb128 0x13
 3798 0314 5F78 00   	.string"_x"
 3799 0317 0A        	.byte0xa
 3800 0318 33        	.byte0x33
 3801 0319 0000 0325 	.long0x325
 3802 031d 14        	.byte0x14
 3803 031e 00        	.byte0
 3804 031f 09        	.uleb128 0x9
 3805 0320 04        	.byte0x4
 3806 0321 0000 02CC 	.long0x2cc
 3807 0325 0D        	.uleb128 0xd
 3808 0326 0000 02C1 	.long0x2c1
68K GAS   			page 105


 3809 032a 0000 0335 	.long0x335
 3810 032e 0E        	.uleb128 0xe
 3811 032f 0000 0091 	.long0x91
 3812 0333 00        	.byte0
 3813 0334 00        	.byte0
 3814 0335 0F        	.uleb128 0xf
 3815 0336 0000 0000 	.long.LASF58
 3816 033a 24        	.byte0x24
 3817 033b 0A        	.byte0xa
 3818 033c 37        	.byte0x37
 3819 033d 0000 03AE 	.long0x3ae
 3820 0341 07        	.uleb128 0x7
 3821 0342 0000 0000 	.long.LASF59
 3822 0346 0A        	.byte0xa
 3823 0347 39        	.byte0x39
 3824 0348 0000 00EE 	.long0xee
 3825 034c 00        	.byte0
 3826 034d 07        	.uleb128 0x7
 3827 034e 0000 0000 	.long.LASF60
 3828 0352 0A        	.byte0xa
 3829 0353 3A        	.byte0x3a
 3830 0354 0000 00EE 	.long0xee
 3831 0358 04        	.byte0x4
 3832 0359 07        	.uleb128 0x7
 3833 035a 0000 0000 	.long.LASF61
 3834 035e 0A        	.byte0xa
 3835 035f 3B        	.byte0x3b
 3836 0360 0000 00EE 	.long0xee
 3837 0364 08        	.byte0x8
 3838 0365 07        	.uleb128 0x7
 3839 0366 0000 0000 	.long.LASF62
 3840 036a 0A        	.byte0xa
 3841 036b 3C        	.byte0x3c
 3842 036c 0000 00EE 	.long0xee
 3843 0370 0C        	.byte0xc
 3844 0371 07        	.uleb128 0x7
 3845 0372 0000 0000 	.long.LASF63
 3846 0376 0A        	.byte0xa
 3847 0377 3D        	.byte0x3d
 3848 0378 0000 00EE 	.long0xee
 3849 037c 10        	.byte0x10
 3850 037d 07        	.uleb128 0x7
 3851 037e 0000 0000 	.long.LASF64
 3852 0382 0A        	.byte0xa
 3853 0383 3E        	.byte0x3e
 3854 0384 0000 00EE 	.long0xee
 3855 0388 14        	.byte0x14
 3856 0389 07        	.uleb128 0x7
 3857 038a 0000 0000 	.long.LASF65
 3858 038e 0A        	.byte0xa
 3859 038f 3F        	.byte0x3f
 3860 0390 0000 00EE 	.long0xee
 3861 0394 18        	.byte0x18
 3862 0395 07        	.uleb128 0x7
 3863 0396 0000 0000 	.long.LASF66
 3864 039a 0A        	.byte0xa
 3865 039b 40        	.byte0x40
68K GAS   			page 106


 3866 039c 0000 00EE 	.long0xee
 3867 03a0 1C        	.byte0x1c
 3868 03a1 07        	.uleb128 0x7
 3869 03a2 0000 0000 	.long.LASF67
 3870 03a6 0A        	.byte0xa
 3871 03a7 41        	.byte0x41
 3872 03a8 0000 00EE 	.long0xee
 3873 03ac 20        	.byte0x20
 3874 03ad 00        	.byte0
 3875 03ae 14        	.uleb128 0x14
 3876 03af 0000 0000 	.long.LASF68
 3877 03b3 0108      	.word0x108
 3878 03b5 0A        	.byte0xa
 3879 03b6 4A        	.byte0x4a
 3880 03b7 0000 03EE 	.long0x3ee
 3881 03bb 07        	.uleb128 0x7
 3882 03bc 0000 0000 	.long.LASF69
 3883 03c0 0A        	.byte0xa
 3884 03c1 4B        	.byte0x4b
 3885 03c2 0000 03EE 	.long0x3ee
 3886 03c6 00        	.byte0
 3887 03c7 07        	.uleb128 0x7
 3888 03c8 0000 0000 	.long.LASF70
 3889 03cc 0A        	.byte0xa
 3890 03cd 4C        	.byte0x4c
 3891 03ce 0000 03EE 	.long0x3ee
 3892 03d2 80        	.byte0x80
 3893 03d3 15        	.uleb128 0x15
 3894 03d4 0000 0000 	.long.LASF71
 3895 03d8 0A        	.byte0xa
 3896 03d9 4E        	.byte0x4e
 3897 03da 0000 02C1 	.long0x2c1
 3898 03de 0100      	.word0x100
 3899 03e0 15        	.uleb128 0x15
 3900 03e1 0000 0000 	.long.LASF72
 3901 03e5 0A        	.byte0xa
 3902 03e6 51        	.byte0x51
 3903 03e7 0000 02C1 	.long0x2c1
 3904 03eb 0104      	.word0x104
 3905 03ed 00        	.byte0
 3906 03ee 0D        	.uleb128 0xd
 3907 03ef 0000 0115 	.long0x115
 3908 03f3 0000 03FE 	.long0x3fe
 3909 03f7 0E        	.uleb128 0xe
 3910 03f8 0000 0091 	.long0x91
 3911 03fc 1F        	.byte0x1f
 3912 03fd 00        	.byte0
 3913 03fe 14        	.uleb128 0x14
 3914 03ff 0000 0000 	.long.LASF73
 3915 0403 0190      	.word0x190
 3916 0405 0A        	.byte0xa
 3917 0406 5D        	.byte0x5d
 3918 0407 0000 043C 	.long0x43c
 3919 040b 07        	.uleb128 0x7
 3920 040c 0000 0000 	.long.LASF54
 3921 0410 0A        	.byte0xa
 3922 0411 5E        	.byte0x5e
68K GAS   			page 107


 3923 0412 0000 043C 	.long0x43c
 3924 0416 00        	.byte0
 3925 0417 07        	.uleb128 0x7
 3926 0418 0000 0000 	.long.LASF74
 3927 041c 0A        	.byte0xa
 3928 041d 5F        	.byte0x5f
 3929 041e 0000 00EE 	.long0xee
 3930 0422 04        	.byte0x4
 3931 0423 07        	.uleb128 0x7
 3932 0424 0000 0000 	.long.LASF75
 3933 0428 0A        	.byte0xa
 3934 0429 61        	.byte0x61
 3935 042a 0000 0442 	.long0x442
 3936 042e 08        	.byte0x8
 3937 042f 07        	.uleb128 0x7
 3938 0430 0000 0000 	.long.LASF68
 3939 0434 0A        	.byte0xa
 3940 0435 62        	.byte0x62
 3941 0436 0000 03AE 	.long0x3ae
 3942 043a 88        	.byte0x88
 3943 043b 00        	.byte0
 3944 043c 09        	.uleb128 0x9
 3945 043d 04        	.byte0x4
 3946 043e 0000 03FE 	.long0x3fe
 3947 0442 0D        	.uleb128 0xd
 3948 0443 0000 0452 	.long0x452
 3949 0447 0000 0452 	.long0x452
 3950 044b 0E        	.uleb128 0xe
 3951 044c 0000 0091 	.long0x91
 3952 0450 1F        	.byte0x1f
 3953 0451 00        	.byte0
 3954 0452 09        	.uleb128 0x9
 3955 0453 04        	.byte0x4
 3956 0454 0000 0458 	.long0x458
 3957 0458 16        	.uleb128 0x16
 3958 0459 0F        	.uleb128 0xf
 3959 045a 0000 0000 	.long.LASF76
 3960 045e 08        	.byte0x8
 3961 045f 0A        	.byte0xa
 3962 0460 75        	.byte0x75
 3963 0461 0000 047E 	.long0x47e
 3964 0465 07        	.uleb128 0x7
 3965 0466 0000 0000 	.long.LASF77
 3966 046a 0A        	.byte0xa
 3967 046b 76        	.byte0x76
 3968 046c 0000 047E 	.long0x47e
 3969 0470 00        	.byte0
 3970 0471 07        	.uleb128 0x7
 3971 0472 0000 0000 	.long.LASF78
 3972 0476 0A        	.byte0xa
 3973 0477 77        	.byte0x77
 3974 0478 0000 00EE 	.long0xee
 3975 047c 04        	.byte0x4
 3976 047d 00        	.byte0
 3977 047e 09        	.uleb128 0x9
 3978 047f 04        	.byte0x4
 3979 0480 0000 0030 	.long0x30
68K GAS   			page 108


 3980 0484 0F        	.uleb128 0xf
 3981 0485 0000 0000 	.long.LASF79
 3982 0489 80        	.byte0x80
 3983 048a 0A        	.byte0xa
 3984 048b B5        	.byte0xb5
 3985 048c 0000 05AE 	.long0x5ae
 3986 0490 13        	.uleb128 0x13
 3987 0491 5F70 00   	.string"_p"
 3988 0494 0A        	.byte0xa
 3989 0495 B6        	.byte0xb6
 3990 0496 0000 047E 	.long0x47e
 3991 049a 00        	.byte0
 3992 049b 13        	.uleb128 0x13
 3993 049c 5F72 00   	.string"_r"
 3994 049f 0A        	.byte0xa
 3995 04a0 B7        	.byte0xb7
 3996 04a1 0000 00EE 	.long0xee
 3997 04a5 04        	.byte0x4
 3998 04a6 13        	.uleb128 0x13
 3999 04a7 5F77 00   	.string"_w"
 4000 04aa 0A        	.byte0xa
 4001 04ab B8        	.byte0xb8
 4002 04ac 0000 00EE 	.long0xee
 4003 04b0 08        	.byte0x8
 4004 04b1 07        	.uleb128 0x7
 4005 04b2 0000 0000 	.long.LASF80
 4006 04b6 0A        	.byte0xa
 4007 04b7 B9        	.byte0xb9
 4008 04b8 0000 0049 	.long0x49
 4009 04bc 0C        	.byte0xc
 4010 04bd 07        	.uleb128 0x7
 4011 04be 0000 0000 	.long.LASF81
 4012 04c2 0A        	.byte0xa
 4013 04c3 BA        	.byte0xba
 4014 04c4 0000 0049 	.long0x49
 4015 04c8 0E        	.byte0xe
 4016 04c9 13        	.uleb128 0x13
 4017 04ca 5F62 6600 	.string"_bf"
 4018 04ce 0A        	.byte0xa
 4019 04cf BB        	.byte0xbb
 4020 04d0 0000 0459 	.long0x459
 4021 04d4 10        	.byte0x10
 4022 04d5 07        	.uleb128 0x7
 4023 04d6 0000 0000 	.long.LASF82
 4024 04da 0A        	.byte0xa
 4025 04db BC        	.byte0xbc
 4026 04dc 0000 00EE 	.long0xee
 4027 04e0 18        	.byte0x18
 4028 04e1 07        	.uleb128 0x7
 4029 04e2 0000 0000 	.long.LASF83
 4030 04e6 0A        	.byte0xa
 4031 04e7 C3        	.byte0xc3
 4032 04e8 0000 0115 	.long0x115
 4033 04ec 1C        	.byte0x1c
 4034 04ed 07        	.uleb128 0x7
 4035 04ee 0000 0000 	.long.LASF84
 4036 04f2 0A        	.byte0xa
68K GAS   			page 109


 4037 04f3 C5        	.byte0xc5
 4038 04f4 0000 06E5 	.long0x6e5
 4039 04f8 20        	.byte0x20
 4040 04f9 07        	.uleb128 0x7
 4041 04fa 0000 0000 	.long.LASF85
 4042 04fe 0A        	.byte0xa
 4043 04ff C7        	.byte0xc7
 4044 0500 0000 0709 	.long0x709
 4045 0504 24        	.byte0x24
 4046 0505 07        	.uleb128 0x7
 4047 0506 0000 0000 	.long.LASF86
 4048 050a 0A        	.byte0xa
 4049 050b CA        	.byte0xca
 4050 050c 0000 072D 	.long0x72d
 4051 0510 28        	.byte0x28
 4052 0511 07        	.uleb128 0x7
 4053 0512 0000 0000 	.long.LASF87
 4054 0516 0A        	.byte0xa
 4055 0517 CB        	.byte0xcb
 4056 0518 0000 0747 	.long0x747
 4057 051c 2C        	.byte0x2c
 4058 051d 13        	.uleb128 0x13
 4059 051e 5F75 6200 	.string"_ub"
 4060 0522 0A        	.byte0xa
 4061 0523 CE        	.byte0xce
 4062 0524 0000 0459 	.long0x459
 4063 0528 30        	.byte0x30
 4064 0529 13        	.uleb128 0x13
 4065 052a 5F75 7000 	.string"_up"
 4066 052e 0A        	.byte0xa
 4067 052f CF        	.byte0xcf
 4068 0530 0000 047E 	.long0x47e
 4069 0534 38        	.byte0x38
 4070 0535 13        	.uleb128 0x13
 4071 0536 5F75 7200 	.string"_ur"
 4072 053a 0A        	.byte0xa
 4073 053b D0        	.byte0xd0
 4074 053c 0000 00EE 	.long0xee
 4075 0540 3C        	.byte0x3c
 4076 0541 07        	.uleb128 0x7
 4077 0542 0000 0000 	.long.LASF88
 4078 0546 0A        	.byte0xa
 4079 0547 D3        	.byte0xd3
 4080 0548 0000 074D 	.long0x74d
 4081 054c 40        	.byte0x40
 4082 054d 07        	.uleb128 0x7
 4083 054e 0000 0000 	.long.LASF89
 4084 0552 0A        	.byte0xa
 4085 0553 D4        	.byte0xd4
 4086 0554 0000 075D 	.long0x75d
 4087 0558 43        	.byte0x43
 4088 0559 13        	.uleb128 0x13
 4089 055a 5F6C 6200 	.string"_lb"
 4090 055e 0A        	.byte0xa
 4091 055f D7        	.byte0xd7
 4092 0560 0000 0459 	.long0x459
 4093 0564 44        	.byte0x44
68K GAS   			page 110


 4094 0565 07        	.uleb128 0x7
 4095 0566 0000 0000 	.long.LASF90
 4096 056a 0A        	.byte0xa
 4097 056b DA        	.byte0xda
 4098 056c 0000 00EE 	.long0xee
 4099 0570 4C        	.byte0x4c
 4100 0571 07        	.uleb128 0x7
 4101 0572 0000 0000 	.long.LASF91
 4102 0576 0A        	.byte0xa
 4103 0577 DB        	.byte0xdb
 4104 0578 0000 0166 	.long0x166
 4105 057c 50        	.byte0x50
 4106 057d 07        	.uleb128 0x7
 4107 057e 0000 0000 	.long.LASF92
 4108 0582 0A        	.byte0xa
 4109 0583 DE        	.byte0xde
 4110 0584 0000 05CC 	.long0x5cc
 4111 0588 58        	.byte0x58
 4112 0589 07        	.uleb128 0x7
 4113 058a 0000 0000 	.long.LASF93
 4114 058e 0A        	.byte0xa
 4115 058f E2        	.byte0xe2
 4116 0590 0000 02B6 	.long0x2b6
 4117 0594 5C        	.byte0x5c
 4118 0595 07        	.uleb128 0x7
 4119 0596 0000 0000 	.long.LASF94
 4120 059a 0A        	.byte0xa
 4121 059b E4        	.byte0xe4
 4122 059c 0000 02AB 	.long0x2ab
 4123 05a0 74        	.byte0x74
 4124 05a1 07        	.uleb128 0x7
 4125 05a2 0000 0000 	.long.LASF95
 4126 05a6 0A        	.byte0xa
 4127 05a7 E5        	.byte0xe5
 4128 05a8 0000 00EE 	.long0xee
 4129 05ac 7C        	.byte0x7c
 4130 05ad 00        	.byte0
 4131 05ae 0A        	.uleb128 0xa
 4132 05af 0000 0244 	.long0x244
 4133 05b3 0000 05CC 	.long0x5cc
 4134 05b7 0B        	.uleb128 0xb
 4135 05b8 0000 05CC 	.long0x5cc
 4136 05bc 0B        	.uleb128 0xb
 4137 05bd 0000 0115 	.long0x115
 4138 05c1 0B        	.uleb128 0xb
 4139 05c2 0000 06DF 	.long0x6df
 4140 05c6 0B        	.uleb128 0xb
 4141 05c7 0000 00EE 	.long0xee
 4142 05cb 00        	.byte0
 4143 05cc 09        	.uleb128 0x9
 4144 05cd 04        	.byte0x4
 4145 05ce 0000 05D7 	.long0x5d7
 4146 05d2 05        	.uleb128 0x5
 4147 05d3 0000 05CC 	.long0x5cc
 4148 05d7 17        	.uleb128 0x17
 4149 05d8 0000 0000 	.long.LASF96
 4150 05dc 0158      	.word0x158
68K GAS   			page 111


 4151 05de 0A        	.byte0xa
 4152 05df 0239      	.word0x239
 4153 05e1 0000 06DF 	.long0x6df
 4154 05e5 18        	.uleb128 0x18
 4155 05e6 0000 0000 	.long.LASF97
 4156 05ea 0A        	.byte0xa
 4157 05eb 023B      	.word0x23b
 4158 05ed 0000 00EE 	.long0xee
 4159 05f1 00        	.byte0
 4160 05f2 18        	.uleb128 0x18
 4161 05f3 0000 0000 	.long.LASF98
 4162 05f7 0A        	.byte0xa
 4163 05f8 0240      	.word0x240
 4164 05fa 0000 07B4 	.long0x7b4
 4165 05fe 04        	.byte0x4
 4166 05ff 18        	.uleb128 0x18
 4167 0600 0000 0000 	.long.LASF99
 4168 0604 0A        	.byte0xa
 4169 0605 0240      	.word0x240
 4170 0607 0000 07B4 	.long0x7b4
 4171 060b 08        	.byte0x8
 4172 060c 18        	.uleb128 0x18
 4173 060d 0000 0000 	.long.LASF100
 4174 0611 0A        	.byte0xa
 4175 0612 0240      	.word0x240
 4176 0614 0000 07B4 	.long0x7b4
 4177 0618 0C        	.byte0xc
 4178 0619 18        	.uleb128 0x18
 4179 061a 0000 0000 	.long.LASF101
 4180 061e 0A        	.byte0xa
 4181 061f 0242      	.word0x242
 4182 0621 0000 00EE 	.long0xee
 4183 0625 10        	.byte0x10
 4184 0626 18        	.uleb128 0x18
 4185 0627 0000 0000 	.long.LASF102
 4186 062b 0A        	.byte0xa
 4187 062c 0243      	.word0x243
 4188 062e 0000 0996 	.long0x996
 4189 0632 14        	.byte0x14
 4190 0633 18        	.uleb128 0x18
 4191 0634 0000 0000 	.long.LASF103
 4192 0638 0A        	.byte0xa
 4193 0639 0246      	.word0x246
 4194 063b 0000 00EE 	.long0xee
 4195 063f 30        	.byte0x30
 4196 0640 18        	.uleb128 0x18
 4197 0641 0000 0000 	.long.LASF104
 4198 0645 0A        	.byte0xa
 4199 0646 0247      	.word0x247
 4200 0648 0000 09AB 	.long0x9ab
 4201 064c 34        	.byte0x34
 4202 064d 18        	.uleb128 0x18
 4203 064e 0000 0000 	.long.LASF105
 4204 0652 0A        	.byte0xa
 4205 0653 0249      	.word0x249
 4206 0655 0000 00EE 	.long0xee
 4207 0659 38        	.byte0x38
68K GAS   			page 112


 4208 065a 18        	.uleb128 0x18
 4209 065b 0000 0000 	.long.LASF106
 4210 065f 0A        	.byte0xa
 4211 0660 024B      	.word0x24b
 4212 0662 0000 09BC 	.long0x9bc
 4213 0666 3C        	.byte0x3c
 4214 0667 18        	.uleb128 0x18
 4215 0668 0000 0000 	.long.LASF107
 4216 066c 0A        	.byte0xa
 4217 066d 024E      	.word0x24e
 4218 066f 0000 031F 	.long0x31f
 4219 0673 40        	.byte0x40
 4220 0674 18        	.uleb128 0x18
 4221 0675 0000 0000 	.long.LASF108
 4222 0679 0A        	.byte0xa
 4223 067a 024F      	.word0x24f
 4224 067c 0000 00EE 	.long0xee
 4225 0680 44        	.byte0x44
 4226 0681 18        	.uleb128 0x18
 4227 0682 0000 0000 	.long.LASF109
 4228 0686 0A        	.byte0xa
 4229 0687 0250      	.word0x250
 4230 0689 0000 031F 	.long0x31f
 4231 068d 48        	.byte0x48
 4232 068e 18        	.uleb128 0x18
 4233 068f 0000 0000 	.long.LASF110
 4234 0693 0A        	.byte0xa
 4235 0694 0251      	.word0x251
 4236 0696 0000 09C2 	.long0x9c2
 4237 069a 4C        	.byte0x4c
 4238 069b 18        	.uleb128 0x18
 4239 069c 0000 0000 	.long.LASF111
 4240 06a0 0A        	.byte0xa
 4241 06a1 0254      	.word0x254
 4242 06a3 0000 00EE 	.long0xee
 4243 06a7 50        	.byte0x50
 4244 06a8 18        	.uleb128 0x18
 4245 06a9 0000 0000 	.long.LASF112
 4246 06ad 0A        	.byte0xa
 4247 06ae 0255      	.word0x255
 4248 06b0 0000 06DF 	.long0x6df
 4249 06b4 54        	.byte0x54
 4250 06b5 18        	.uleb128 0x18
 4251 06b6 0000 0000 	.long.LASF113
 4252 06ba 0A        	.byte0xa
 4253 06bb 0278      	.word0x278
 4254 06bd 0000 0974 	.long0x974
 4255 06c1 58        	.byte0x58
 4256 06c2 19        	.uleb128 0x19
 4257 06c3 0000 0000 	.long.LASF114
 4258 06c7 0A        	.byte0xa
 4259 06c8 0281      	.word0x281
 4260 06ca 0000 09D3 	.long0x9d3
 4261 06ce 0148      	.word0x148
 4262 06d0 19        	.uleb128 0x19
 4263 06d1 0000 0000 	.long.LASF115
 4264 06d5 0A        	.byte0xa
68K GAS   			page 113


 4265 06d6 0286      	.word0x286
 4266 06d8 0000 0779 	.long0x779
 4267 06dc 014C      	.word0x14c
 4268 06de 00        	.byte0
 4269 06df 09        	.uleb128 0x9
 4270 06e0 04        	.byte0x4
 4271 06e1 0000 00B6 	.long0xb6
 4272 06e5 09        	.uleb128 0x9
 4273 06e6 04        	.byte0x4
 4274 06e7 0000 05AE 	.long0x5ae
 4275 06eb 0A        	.uleb128 0xa
 4276 06ec 0000 0244 	.long0x244
 4277 06f0 0000 0709 	.long0x709
 4278 06f4 0B        	.uleb128 0xb
 4279 06f5 0000 05CC 	.long0x5cc
 4280 06f9 0B        	.uleb128 0xb
 4281 06fa 0000 0115 	.long0x115
 4282 06fe 0B        	.uleb128 0xb
 4283 06ff 0000 01F4 	.long0x1f4
 4284 0703 0B        	.uleb128 0xb
 4285 0704 0000 00EE 	.long0xee
 4286 0708 00        	.byte0
 4287 0709 09        	.uleb128 0x9
 4288 070a 04        	.byte0x4
 4289 070b 0000 06EB 	.long0x6eb
 4290 070f 0A        	.uleb128 0xa
 4291 0710 0000 0171 	.long0x171
 4292 0714 0000 072D 	.long0x72d
 4293 0718 0B        	.uleb128 0xb
 4294 0719 0000 05CC 	.long0x5cc
 4295 071d 0B        	.uleb128 0xb
 4296 071e 0000 0115 	.long0x115
 4297 0722 0B        	.uleb128 0xb
 4298 0723 0000 0171 	.long0x171
 4299 0727 0B        	.uleb128 0xb
 4300 0728 0000 00EE 	.long0xee
 4301 072c 00        	.byte0
 4302 072d 09        	.uleb128 0x9
 4303 072e 04        	.byte0x4
 4304 072f 0000 070F 	.long0x70f
 4305 0733 0A        	.uleb128 0xa
 4306 0734 0000 00EE 	.long0xee
 4307 0738 0000 0747 	.long0x747
 4308 073c 0B        	.uleb128 0xb
 4309 073d 0000 05CC 	.long0x5cc
 4310 0741 0B        	.uleb128 0xb
 4311 0742 0000 0115 	.long0x115
 4312 0746 00        	.byte0
 4313 0747 09        	.uleb128 0x9
 4314 0748 04        	.byte0x4
 4315 0749 0000 0733 	.long0x733
 4316 074d 0D        	.uleb128 0xd
 4317 074e 0000 0030 	.long0x30
 4318 0752 0000 075D 	.long0x75d
 4319 0756 0E        	.uleb128 0xe
 4320 0757 0000 0091 	.long0x91
 4321 075b 02        	.byte0x2
68K GAS   			page 114


 4322 075c 00        	.byte0
 4323 075d 0D        	.uleb128 0xd
 4324 075e 0000 0030 	.long0x30
 4325 0762 0000 076D 	.long0x76d
 4326 0766 0E        	.uleb128 0xe
 4327 0767 0000 0091 	.long0x91
 4328 076b 00        	.byte0
 4329 076c 00        	.byte0
 4330 076d 04        	.uleb128 0x4
 4331 076e 0000 0000 	.long.LASF116
 4332 0772 0A        	.byte0xa
 4333 0773 011F      	.word0x11f
 4334 0775 0000 0484 	.long0x484
 4335 0779 1A        	.uleb128 0x1a
 4336 077a 0000 0000 	.long.LASF117
 4337 077e 0C        	.byte0xc
 4338 077f 0A        	.byte0xa
 4339 0780 0123      	.word0x123
 4340 0782 0000 07AE 	.long0x7ae
 4341 0786 18        	.uleb128 0x18
 4342 0787 0000 0000 	.long.LASF54
 4343 078b 0A        	.byte0xa
 4344 078c 0125      	.word0x125
 4345 078e 0000 07AE 	.long0x7ae
 4346 0792 00        	.byte0
 4347 0793 18        	.uleb128 0x18
 4348 0794 0000 0000 	.long.LASF118
 4349 0798 0A        	.byte0xa
 4350 0799 0126      	.word0x126
 4351 079b 0000 00EE 	.long0xee
 4352 079f 04        	.byte0x4
 4353 07a0 18        	.uleb128 0x18
 4354 07a1 0000 0000 	.long.LASF119
 4355 07a5 0A        	.byte0xa
 4356 07a6 0127      	.word0x127
 4357 07a8 0000 07B4 	.long0x7b4
 4358 07ac 08        	.byte0x8
 4359 07ad 00        	.byte0
 4360 07ae 09        	.uleb128 0x9
 4361 07af 04        	.byte0x4
 4362 07b0 0000 0779 	.long0x779
 4363 07b4 09        	.uleb128 0x9
 4364 07b5 04        	.byte0x4
 4365 07b6 0000 076D 	.long0x76d
 4366 07ba 1A        	.uleb128 0x1a
 4367 07bb 0000 0000 	.long.LASF120
 4368 07bf 0E        	.byte0xe
 4369 07c0 0A        	.byte0xa
 4370 07c1 013F      	.word0x13f
 4371 07c3 0000 07EF 	.long0x7ef
 4372 07c7 18        	.uleb128 0x18
 4373 07c8 0000 0000 	.long.LASF121
 4374 07cc 0A        	.byte0xa
 4375 07cd 0140      	.word0x140
 4376 07cf 0000 07EF 	.long0x7ef
 4377 07d3 00        	.byte0
 4378 07d4 18        	.uleb128 0x18
68K GAS   			page 115


 4379 07d5 0000 0000 	.long.LASF122
 4380 07d9 0A        	.byte0xa
 4381 07da 0141      	.word0x141
 4382 07dc 0000 07EF 	.long0x7ef
 4383 07e0 06        	.byte0x6
 4384 07e1 18        	.uleb128 0x18
 4385 07e2 0000 0000 	.long.LASF123
 4386 07e6 0A        	.byte0xa
 4387 07e7 0142      	.word0x142
 4388 07e9 0000 007F 	.long0x7f
 4389 07ed 0C        	.byte0xc
 4390 07ee 00        	.byte0
 4391 07ef 0D        	.uleb128 0xd
 4392 07f0 0000 007F 	.long0x7f
 4393 07f4 0000 07FF 	.long0x7ff
 4394 07f8 0E        	.uleb128 0xe
 4395 07f9 0000 0091 	.long0x91
 4396 07fd 02        	.byte0x2
 4397 07fe 00        	.byte0
 4398 07ff 1B        	.uleb128 0x1b
 4399 0800 CC        	.byte0xcc
 4400 0801 0A        	.byte0xa
 4401 0802 0259      	.word0x259
 4402 0804 0000 0900 	.long0x900
 4403 0808 18        	.uleb128 0x18
 4404 0809 0000 0000 	.long.LASF124
 4405 080d 0A        	.byte0xa
 4406 080e 025B      	.word0x25b
 4407 0810 0000 0122 	.long0x122
 4408 0814 00        	.byte0
 4409 0815 18        	.uleb128 0x18
 4410 0816 0000 0000 	.long.LASF125
 4411 081a 0A        	.byte0xa
 4412 081b 025C      	.word0x25c
 4413 081d 0000 06DF 	.long0x6df
 4414 0821 04        	.byte0x4
 4415 0822 18        	.uleb128 0x18
 4416 0823 0000 0000 	.long.LASF126
 4417 0827 0A        	.byte0xa
 4418 0828 025D      	.word0x25d
 4419 082a 0000 0900 	.long0x900
 4420 082e 08        	.byte0x8
 4421 082f 18        	.uleb128 0x18
 4422 0830 0000 0000 	.long.LASF127
 4423 0834 0A        	.byte0xa
 4424 0835 025E      	.word0x25e
 4425 0837 0000 0335 	.long0x335
 4426 083b 24        	.byte0x24
 4427 083c 18        	.uleb128 0x18
 4428 083d 0000 0000 	.long.LASF128
 4429 0841 0A        	.byte0xa
 4430 0842 025F      	.word0x25f
 4431 0844 0000 00EE 	.long0xee
 4432 0848 48        	.byte0x48
 4433 0849 18        	.uleb128 0x18
 4434 084a 0000 0000 	.long.LASF129
 4435 084e 0A        	.byte0xa
68K GAS   			page 116


 4436 084f 0260      	.word0x260
 4437 0851 0000 0098 	.long0x98
 4438 0855 4C        	.byte0x4c
 4439 0856 18        	.uleb128 0x18
 4440 0857 0000 0000 	.long.LASF130
 4441 085b 0A        	.byte0xa
 4442 085c 0261      	.word0x261
 4443 085e 0000 07BA 	.long0x7ba
 4444 0862 54        	.byte0x54
 4445 0863 18        	.uleb128 0x18
 4446 0864 0000 0000 	.long.LASF131
 4447 0868 0A        	.byte0xa
 4448 0869 0262      	.word0x262
 4449 086b 0000 02AB 	.long0x2ab
 4450 086f 64        	.byte0x64
 4451 0870 18        	.uleb128 0x18
 4452 0871 0000 0000 	.long.LASF132
 4453 0875 0A        	.byte0xa
 4454 0876 0263      	.word0x263
 4455 0878 0000 02AB 	.long0x2ab
 4456 087c 6C        	.byte0x6c
 4457 087d 18        	.uleb128 0x18
 4458 087e 0000 0000 	.long.LASF133
 4459 0882 0A        	.byte0xa
 4460 0883 0264      	.word0x264
 4461 0885 0000 02AB 	.long0x2ab
 4462 0889 74        	.byte0x74
 4463 088a 18        	.uleb128 0x18
 4464 088b 0000 0000 	.long.LASF134
 4465 088f 0A        	.byte0xa
 4466 0890 0265      	.word0x265
 4467 0892 0000 0910 	.long0x910
 4468 0896 7C        	.byte0x7c
 4469 0897 18        	.uleb128 0x18
 4470 0898 0000 0000 	.long.LASF135
 4471 089c 0A        	.byte0xa
 4472 089d 0266      	.word0x266
 4473 089f 0000 0920 	.long0x920
 4474 08a3 84        	.byte0x84
 4475 08a4 18        	.uleb128 0x18
 4476 08a5 0000 0000 	.long.LASF136
 4477 08a9 0A        	.byte0xa
 4478 08aa 0267      	.word0x267
 4479 08ac 0000 00EE 	.long0xee
 4480 08b0 9C        	.byte0x9c
 4481 08b1 18        	.uleb128 0x18
 4482 08b2 0000 0000 	.long.LASF137
 4483 08b6 0A        	.byte0xa
 4484 08b7 0268      	.word0x268
 4485 08b9 0000 02AB 	.long0x2ab
 4486 08bd A0        	.byte0xa0
 4487 08be 18        	.uleb128 0x18
 4488 08bf 0000 0000 	.long.LASF138
 4489 08c3 0A        	.byte0xa
 4490 08c4 0269      	.word0x269
 4491 08c6 0000 02AB 	.long0x2ab
 4492 08ca A8        	.byte0xa8
68K GAS   			page 117


 4493 08cb 18        	.uleb128 0x18
 4494 08cc 0000 0000 	.long.LASF139
 4495 08d0 0A        	.byte0xa
 4496 08d1 026A      	.word0x26a
 4497 08d3 0000 02AB 	.long0x2ab
 4498 08d7 B0        	.byte0xb0
 4499 08d8 18        	.uleb128 0x18
 4500 08d9 0000 0000 	.long.LASF140
 4501 08dd 0A        	.byte0xa
 4502 08de 026B      	.word0x26b
 4503 08e0 0000 02AB 	.long0x2ab
 4504 08e4 B8        	.byte0xb8
 4505 08e5 18        	.uleb128 0x18
 4506 08e6 0000 0000 	.long.LASF141
 4507 08ea 0A        	.byte0xa
 4508 08eb 026C      	.word0x26c
 4509 08ed 0000 02AB 	.long0x2ab
 4510 08f1 C0        	.byte0xc0
 4511 08f2 18        	.uleb128 0x18
 4512 08f3 0000 0000 	.long.LASF142
 4513 08f7 0A        	.byte0xa
 4514 08f8 026D      	.word0x26d
 4515 08fa 0000 00EE 	.long0xee
 4516 08fe C8        	.byte0xc8
 4517 08ff 00        	.byte0
 4518 0900 0D        	.uleb128 0xd
 4519 0901 0000 00B6 	.long0xb6
 4520 0905 0000 0910 	.long0x910
 4521 0909 0E        	.uleb128 0xe
 4522 090a 0000 0091 	.long0x91
 4523 090e 19        	.byte0x19
 4524 090f 00        	.byte0
 4525 0910 0D        	.uleb128 0xd
 4526 0911 0000 00B6 	.long0xb6
 4527 0915 0000 0920 	.long0x920
 4528 0919 0E        	.uleb128 0xe
 4529 091a 0000 0091 	.long0x91
 4530 091e 07        	.byte0x7
 4531 091f 00        	.byte0
 4532 0920 0D        	.uleb128 0xd
 4533 0921 0000 00B6 	.long0xb6
 4534 0925 0000 0930 	.long0x930
 4535 0929 0E        	.uleb128 0xe
 4536 092a 0000 0091 	.long0x91
 4537 092e 17        	.byte0x17
 4538 092f 00        	.byte0
 4539 0930 1B        	.uleb128 0x1b
 4540 0931 F0        	.byte0xf0
 4541 0932 0A        	.byte0xa
 4542 0933 0272      	.word0x272
 4543 0935 0000 0954 	.long0x954
 4544 0939 18        	.uleb128 0x18
 4545 093a 0000 0000 	.long.LASF143
 4546 093e 0A        	.byte0xa
 4547 093f 0275      	.word0x275
 4548 0941 0000 0954 	.long0x954
 4549 0945 00        	.byte0
68K GAS   			page 118


 4550 0946 18        	.uleb128 0x18
 4551 0947 0000 0000 	.long.LASF144
 4552 094b 0A        	.byte0xa
 4553 094c 0276      	.word0x276
 4554 094e 0000 0964 	.long0x964
 4555 0952 78        	.byte0x78
 4556 0953 00        	.byte0
 4557 0954 0D        	.uleb128 0xd
 4558 0955 0000 047E 	.long0x47e
 4559 0959 0000 0964 	.long0x964
 4560 095d 0E        	.uleb128 0xe
 4561 095e 0000 0091 	.long0x91
 4562 0962 1D        	.byte0x1d
 4563 0963 00        	.byte0
 4564 0964 0D        	.uleb128 0xd
 4565 0965 0000 0122 	.long0x122
 4566 0969 0000 0974 	.long0x974
 4567 096d 0E        	.uleb128 0xe
 4568 096e 0000 0091 	.long0x91
 4569 0972 1D        	.byte0x1d
 4570 0973 00        	.byte0
 4571 0974 1C        	.uleb128 0x1c
 4572 0975 F0        	.byte0xf0
 4573 0976 0A        	.byte0xa
 4574 0977 0257      	.word0x257
 4575 0979 0000 0996 	.long0x996
 4576 097d 1D        	.uleb128 0x1d
 4577 097e 0000 0000 	.long.LASF96
 4578 0982 0A        	.byte0xa
 4579 0983 026E      	.word0x26e
 4580 0985 0000 07FF 	.long0x7ff
 4581 0989 1D        	.uleb128 0x1d
 4582 098a 0000 0000 	.long.LASF145
 4583 098e 0A        	.byte0xa
 4584 098f 0277      	.word0x277
 4585 0991 0000 0930 	.long0x930
 4586 0995 00        	.byte0
 4587 0996 0D        	.uleb128 0xd
 4588 0997 0000 00B6 	.long0xb6
 4589 099b 0000 09A6 	.long0x9a6
 4590 099f 0E        	.uleb128 0xe
 4591 09a0 0000 0091 	.long0x91
 4592 09a4 18        	.byte0x18
 4593 09a5 00        	.byte0
 4594 09a6 10        	.uleb128 0x10
 4595 09a7 0000 0000 	.long.LASF146
 4596 09ab 09        	.uleb128 0x9
 4597 09ac 04        	.byte0x4
 4598 09ad 0000 09A6 	.long0x9a6
 4599 09b1 1E        	.uleb128 0x1e
 4600 09b2 0000 09BC 	.long0x9bc
 4601 09b6 0B        	.uleb128 0xb
 4602 09b7 0000 05CC 	.long0x5cc
 4603 09bb 00        	.byte0
 4604 09bc 09        	.uleb128 0x9
 4605 09bd 04        	.byte0x4
 4606 09be 0000 09B1 	.long0x9b1
68K GAS   			page 119


 4607 09c2 09        	.uleb128 0x9
 4608 09c3 04        	.byte0x4
 4609 09c4 0000 031F 	.long0x31f
 4610 09c8 1E        	.uleb128 0x1e
 4611 09c9 0000 09D3 	.long0x9d3
 4612 09cd 0B        	.uleb128 0xb
 4613 09ce 0000 00EE 	.long0xee
 4614 09d2 00        	.byte0
 4615 09d3 09        	.uleb128 0x9
 4616 09d4 04        	.byte0x4
 4617 09d5 0000 09D9 	.long0x9d9
 4618 09d9 09        	.uleb128 0x9
 4619 09da 04        	.byte0x4
 4620 09db 0000 09C8 	.long0x9c8
 4621 09df 0D        	.uleb128 0xd
 4622 09e0 0000 076D 	.long0x76d
 4623 09e4 0000 09EF 	.long0x9ef
 4624 09e8 0E        	.uleb128 0xe
 4625 09e9 0000 0091 	.long0x91
 4626 09ed 02        	.byte0x2
 4627 09ee 00        	.byte0
 4628 09ef 1F        	.uleb128 0x1f
 4629 09f0 0000 0000 	.long.LASF147
 4630 09f4 0A        	.byte0xa
 4631 09f5 028D      	.word0x28d
 4632 09f7 0000 09DF 	.long0x9df
 4633 09fb 1F        	.uleb128 0x1f
 4634 09fc 0000 0000 	.long.LASF148
 4635 0a00 0A        	.byte0xa
 4636 0a01 0307      	.word0x307
 4637 0a03 0000 05CC 	.long0x5cc
 4638 0a07 1F        	.uleb128 0x1f
 4639 0a08 0000 0000 	.long.LASF149
 4640 0a0c 0A        	.byte0xa
 4641 0a0d 0308      	.word0x308
 4642 0a0f 0000 05D2 	.long0x5d2
 4643 0a13 1F        	.uleb128 0x1f
 4644 0a14 0000 0000 	.long.LASF150
 4645 0a18 0A        	.byte0xa
 4646 0a19 031A      	.word0x31a
 4647 0a1b 0000 043C 	.long0x43c
 4648 0a1f 20        	.uleb128 0x20
 4649 0a20 0000 0000 	.long.LASF151
 4650 0a24 0B        	.byte0xb
 4651 0a25 63        	.byte0x63
 4652 0a26 0000 06DF 	.long0x6df
 4653 0a2a 20        	.uleb128 0x20
 4654 0a2b 0000 0000 	.long.LASF152
 4655 0a2f 0C        	.byte0xc
 4656 0a30 9A        	.byte0x9a
 4657 0a31 0000 005B 	.long0x5b
 4658 0a35 20        	.uleb128 0x20
 4659 0a36 0000 0000 	.long.LASF153
 4660 0a3a 0C        	.byte0xc
 4661 0a3b 9B        	.byte0x9b
 4662 0a3c 0000 00EE 	.long0xee
 4663 0a40 0D        	.uleb128 0xd
68K GAS   			page 120


 4664 0a41 0000 06DF 	.long0x6df
 4665 0a45 0000 0A50 	.long0xa50
 4666 0a49 0E        	.uleb128 0xe
 4667 0a4a 0000 0091 	.long0x91
 4668 0a4e 01        	.byte0x1
 4669 0a4f 00        	.byte0
 4670 0a50 20        	.uleb128 0x20
 4671 0a51 0000 0000 	.long.LASF154
 4672 0a55 0C        	.byte0xc
 4673 0a56 9E        	.byte0x9e
 4674 0a57 0000 0A40 	.long0xa40
 4675 0a5b 0D        	.uleb128 0xd
 4676 0a5c 0000 00B6 	.long0xb6
 4677 0a60 0000 0A6B 	.long0xa6b
 4678 0a64 0E        	.uleb128 0xe
 4679 0a65 0000 0091 	.long0x91
 4680 0a69 1F        	.byte0x1f
 4681 0a6a 00        	.byte0
 4682 0a6b 04        	.uleb128 0x4
 4683 0a6c 0000 0000 	.long.LASF155
 4684 0a70 0D        	.byte0xd
 4685 0a71 0103      	.word0x103
 4686 0a73 0000 009F 	.long0x9f
 4687 0a77 04        	.uleb128 0x4
 4688 0a78 0000 0000 	.long.LASF156
 4689 0a7c 0D        	.byte0xd
 4690 0a7d 0166      	.word0x166
 4691 0a7f 0000 009F 	.long0x9f
 4692 0a83 06        	.uleb128 0x6
 4693 0a84 06        	.byte0x6
 4694 0a85 0E        	.byte0xe
 4695 0a86 58        	.byte0x58
 4696 0a87 0000 0AB0 	.long0xab0
 4697 0a8b 07        	.uleb128 0x7
 4698 0a8c 0000 0000 	.long.LASF157
 4699 0a90 0E        	.byte0xe
 4700 0a91 5A        	.byte0x5a
 4701 0a92 0000 0AB0 	.long0xab0
 4702 0a96 00        	.byte0
 4703 0a97 07        	.uleb128 0x7
 4704 0a98 0000 0000 	.long.LASF158
 4705 0a9c 0E        	.byte0xe
 4706 0a9d 61        	.byte0x61
 4707 0a9e 0000 0AB0 	.long0xab0
 4708 0aa2 02        	.byte0x2
 4709 0aa3 07        	.uleb128 0x7
 4710 0aa4 0000 0000 	.long.LASF159
 4711 0aa8 0E        	.byte0xe
 4712 0aa9 66        	.byte0x66
 4713 0aaa 0000 0AB0 	.long0xab0
 4714 0aae 04        	.byte0x4
 4715 0aaf 00        	.byte0
 4716 0ab0 0D        	.uleb128 0xd
 4717 0ab1 0000 0069 	.long0x69
 4718 0ab5 0000 0AC0 	.long0xac0
 4719 0ab9 0E        	.uleb128 0xe
 4720 0aba 0000 0091 	.long0x91
68K GAS   			page 121


 4721 0abe 01        	.byte0x1
 4722 0abf 00        	.byte0
 4723 0ac0 02        	.uleb128 0x2
 4724 0ac1 0000 0000 	.long.LASF160
 4725 0ac5 0E        	.byte0xe
 4726 0ac6 6A        	.byte0x6a
 4727 0ac7 0000 0A83 	.long0xa83
 4728 0acb 0D        	.uleb128 0xd
 4729 0acc 0000 0069 	.long0x69
 4730 0ad0 0000 0ADB 	.long0xadb
 4731 0ad4 0E        	.uleb128 0xe
 4732 0ad5 0000 0091 	.long0x91
 4733 0ad9 05        	.byte0x5
 4734 0ada 00        	.byte0
 4735 0adb 11        	.uleb128 0x11
 4736 0adc 08        	.byte0x8
 4737 0add 0F        	.byte0xf
 4738 0ade 75        	.byte0x75
 4739 0adf 0000 0B05 	.long0xb05
 4740 0ae3 21        	.uleb128 0x21
 4741 0ae4 4864 7200 	.string"Hdr"
 4742 0ae8 0F        	.byte0xf
 4743 0ae9 76        	.byte0x76
 4744 0aea 0000 0AC0 	.long0xac0
 4745 0aee 12        	.uleb128 0x12
 4746 0aef 0000 0000 	.long.LASF161
 4747 0af3 0F        	.byte0xf
 4748 0af4 77        	.byte0x77
 4749 0af5 0000 0086 	.long0x86
 4750 0af9 12        	.uleb128 0x12
 4751 0afa 0000 0000 	.long.LASF162
 4752 0afe 0F        	.byte0xf
 4753 0aff 78        	.byte0x78
 4754 0b00 0000 0ACB 	.long0xacb
 4755 0b04 00        	.byte0
 4756 0b05 02        	.uleb128 0x2
 4757 0b06 0000 0000 	.long.LASF163
 4758 0b0a 0F        	.byte0xf
 4759 0b0b 79        	.byte0x79
 4760 0b0c 0000 0ADB 	.long0xadb
 4761 0b10 02        	.uleb128 0x2
 4762 0b11 0000 0000 	.long.LASF164
 4763 0b15 0F        	.byte0xf
 4764 0b16 98        	.byte0x98
 4765 0b17 0000 0069 	.long0x69
 4766 0b1b 02        	.uleb128 0x2
 4767 0b1c 0000 0000 	.long.LASF165
 4768 0b20 0F        	.byte0xf
 4769 0b21 A1        	.byte0xa1
 4770 0b22 0000 0B26 	.long0xb26
 4771 0b26 09        	.uleb128 0x9
 4772 0b27 04        	.byte0x4
 4773 0b28 0000 0B05 	.long0xb05
 4774 0b2c 09        	.uleb128 0x9
 4775 0b2d 04        	.byte0x4
 4776 0b2e 0000 0069 	.long0x69
 4777 0b32 06        	.uleb128 0x6
68K GAS   			page 122


 4778 0b33 02        	.byte0x2
 4779 0b34 0F        	.byte0xf
 4780 0b35 B1        	.byte0xb1
 4781 0b36 0000 0B53 	.long0xb53
 4782 0b3a 07        	.uleb128 0x7
 4783 0b3b 0000 0000 	.long.LASF166
 4784 0b3f 0F        	.byte0xf
 4785 0b40 B2        	.byte0xb2
 4786 0b41 0000 0069 	.long0x69
 4787 0b45 00        	.byte0
 4788 0b46 07        	.uleb128 0x7
 4789 0b47 0000 0000 	.long.LASF167
 4790 0b4b 0F        	.byte0xf
 4791 0b4c B3        	.byte0xb3
 4792 0b4d 0000 0069 	.long0x69
 4793 0b51 01        	.byte0x1
 4794 0b52 00        	.byte0
 4795 0b53 02        	.uleb128 0x2
 4796 0b54 0000 0000 	.long.LASF168
 4797 0b58 0F        	.byte0xf
 4798 0b59 B4        	.byte0xb4
 4799 0b5a 0000 0B32 	.long0xb32
 4800 0b5e 20        	.uleb128 0x20
 4801 0b5f 0000 0000 	.long.LASF169
 4802 0b63 0F        	.byte0xf
 4803 0b64 B6        	.byte0xb6
 4804 0b65 0000 0B53 	.long0xb53
 4805 0b69 0D        	.uleb128 0xd
 4806 0b6a 0000 0069 	.long0x69
 4807 0b6e 0000 0B79 	.long0xb79
 4808 0b72 0E        	.uleb128 0xe
 4809 0b73 0000 0091 	.long0x91
 4810 0b77 07        	.byte0x7
 4811 0b78 00        	.byte0
 4812 0b79 0D        	.uleb128 0xd
 4813 0b7a 0000 0069 	.long0x69
 4814 0b7e 0000 0B89 	.long0xb89
 4815 0b82 0E        	.uleb128 0xe
 4816 0b83 0000 0091 	.long0x91
 4817 0b87 0B        	.byte0xb
 4818 0b88 00        	.byte0
 4819 0b89 06        	.uleb128 0x6
 4820 0b8a 40        	.byte0x40
 4821 0b8b 10        	.byte0x10
 4822 0b8c 8B        	.byte0x8b
 4823 0b8d 0000 0BFE 	.long0xbfe
 4824 0b91 07        	.uleb128 0x7
 4825 0b92 0000 0000 	.long.LASF170
 4826 0b96 10        	.byte0x10
 4827 0b97 8D        	.byte0x8d
 4828 0b98 0000 0086 	.long0x86
 4829 0b9c 00        	.byte0
 4830 0b9d 07        	.uleb128 0x7
 4831 0b9e 0000 0000 	.long.LASF171
 4832 0ba2 10        	.byte0x10
 4833 0ba3 8E        	.byte0x8e
 4834 0ba4 0000 0086 	.long0x86
68K GAS   			page 123


 4835 0ba8 04        	.byte0x4
 4836 0ba9 07        	.uleb128 0x7
 4837 0baa 0000 0000 	.long.LASF159
 4838 0bae 10        	.byte0x10
 4839 0baf 91        	.byte0x91
 4840 0bb0 0000 0086 	.long0x86
 4841 0bb4 08        	.byte0x8
 4842 0bb5 07        	.uleb128 0x7
 4843 0bb6 0000 0000 	.long.LASF172
 4844 0bba 10        	.byte0x10
 4845 0bbb 92        	.byte0x92
 4846 0bbc 0000 0086 	.long0x86
 4847 0bc0 0C        	.byte0xc
 4848 0bc1 07        	.uleb128 0x7
 4849 0bc2 0000 0000 	.long.LASF173
 4850 0bc6 10        	.byte0x10
 4851 0bc7 93        	.byte0x93
 4852 0bc8 0000 0086 	.long0x86
 4853 0bcc 10        	.byte0x10
 4854 0bcd 07        	.uleb128 0x7
 4855 0bce 0000 0000 	.long.LASF174
 4856 0bd2 10        	.byte0x10
 4857 0bd3 94        	.byte0x94
 4858 0bd4 0000 0086 	.long0x86
 4859 0bd8 14        	.byte0x14
 4860 0bd9 07        	.uleb128 0x7
 4861 0bda 0000 0000 	.long.LASF175
 4862 0bde 10        	.byte0x10
 4863 0bdf 96        	.byte0x96
 4864 0be0 0000 0086 	.long0x86
 4865 0be4 18        	.byte0x18
 4866 0be5 07        	.uleb128 0x7
 4867 0be6 0000 0000 	.long.LASF176
 4868 0bea 10        	.byte0x10
 4869 0beb 97        	.byte0x97
 4870 0bec 0000 0086 	.long0x86
 4871 0bf0 1C        	.byte0x1c
 4872 0bf1 07        	.uleb128 0x7
 4873 0bf2 0000 0000 	.long.LASF177
 4874 0bf6 10        	.byte0x10
 4875 0bf7 99        	.byte0x99
 4876 0bf8 0000 0A5B 	.long0xa5b
 4877 0bfc 20        	.byte0x20
 4878 0bfd 00        	.byte0
 4879 0bfe 02        	.uleb128 0x2
 4880 0bff 0000 0000 	.long.LASF178
 4881 0c03 10        	.byte0x10
 4882 0c04 9B        	.byte0x9b
 4883 0c05 0000 0B89 	.long0xb89
 4884 0c09 0D        	.uleb128 0xd
 4885 0c0a 0000 00B6 	.long0xb6
 4886 0c0e 0000 0C19 	.long0xc19
 4887 0c12 0E        	.uleb128 0xe
 4888 0c13 0000 0091 	.long0x91
 4889 0c17 27        	.byte0x27
 4890 0c18 00        	.byte0
 4891 0c19 1B        	.uleb128 0x1b
68K GAS   			page 124


 4892 0c1a 04        	.byte0x4
 4893 0c1b 11        	.byte0x11
 4894 0c1c 02CA      	.word0x2ca
 4895 0c1e 0000 0C30 	.long0xc30
 4896 0c22 18        	.uleb128 0x18
 4897 0c23 0000 0000 	.long.LASF179
 4898 0c27 11        	.byte0x11
 4899 0c28 02CC      	.word0x2cc
 4900 0c2a 0000 0086 	.long0x86
 4901 0c2e 00        	.byte0
 4902 0c2f 00        	.byte0
 4903 0c30 04        	.uleb128 0x4
 4904 0c31 0000 0000 	.long.LASF180
 4905 0c35 11        	.byte0x11
 4906 0c36 02CD      	.word0x2cd
 4907 0c38 0000 0C19 	.long0xc19
 4908 0c3c 1B        	.uleb128 0x1b
 4909 0c3d 0C        	.byte0xc
 4910 0c3e 11        	.byte0x11
 4911 0c3f 02CF      	.word0x2cf
 4912 0c41 0000 0C60 	.long0xc60
 4913 0c45 18        	.uleb128 0x18
 4914 0c46 0000 0000 	.long.LASF181
 4915 0c4a 11        	.byte0x11
 4916 0c4b 02D1      	.word0x2d1
 4917 0c4d 0000 0B69 	.long0xb69
 4918 0c51 00        	.byte0
 4919 0c52 18        	.uleb128 0x18
 4920 0c53 0000 0000 	.long.LASF182
 4921 0c57 11        	.byte0x11
 4922 0c58 02D2      	.word0x2d2
 4923 0c5a 0000 0C30 	.long0xc30
 4924 0c5e 08        	.byte0x8
 4925 0c5f 00        	.byte0
 4926 0c60 04        	.uleb128 0x4
 4927 0c61 0000 0000 	.long.LASF183
 4928 0c65 11        	.byte0x11
 4929 0c66 02D3      	.word0x2d3
 4930 0c68 0000 0C3C 	.long0xc3c
 4931 0c6c 22        	.uleb128 0x22
 4932 0c6d 011C      	.word0x11c
 4933 0c6f 11        	.byte0x11
 4934 0c70 02DC      	.word0x2dc
 4935 0c72 0000 0D7B 	.long0xd7b
 4936 0c76 18        	.uleb128 0x18
 4937 0c77 0000 0000 	.long.LASF184
 4938 0c7b 11        	.byte0x11
 4939 0c7c 02E1      	.word0x2e1
 4940 0c7e 0000 0069 	.long0x69
 4941 0c82 00        	.byte0
 4942 0c83 18        	.uleb128 0x18
 4943 0c84 0000 0000 	.long.LASF185
 4944 0c88 11        	.byte0x11
 4945 0c89 02E3      	.word0x2e3
 4946 0c8b 0000 0069 	.long0x69
 4947 0c8f 01        	.byte0x1
 4948 0c90 18        	.uleb128 0x18
68K GAS   			page 125


 4949 0c91 0000 0000 	.long.LASF186
 4950 0c95 11        	.byte0x11
 4951 0c96 02E9      	.word0x2e9
 4952 0c98 0000 0074 	.long0x74
 4953 0c9c 02        	.byte0x2
 4954 0c9d 18        	.uleb128 0x18
 4955 0c9e 0000 0000 	.long.LASF187
 4956 0ca2 11        	.byte0x11
 4957 0ca3 02EB      	.word0x2eb
 4958 0ca5 0000 0074 	.long0x74
 4959 0ca9 04        	.byte0x4
 4960 0caa 18        	.uleb128 0x18
 4961 0cab 0000 0000 	.long.LASF188
 4962 0caf 11        	.byte0x11
 4963 0cb0 02F1      	.word0x2f1
 4964 0cb2 0000 0074 	.long0x74
 4965 0cb6 06        	.byte0x6
 4966 0cb7 18        	.uleb128 0x18
 4967 0cb8 0000 0000 	.long.LASF189
 4968 0cbc 11        	.byte0x11
 4969 0cbd 02F3      	.word0x2f3
 4970 0cbf 0000 0086 	.long0x86
 4971 0cc3 08        	.byte0x8
 4972 0cc4 18        	.uleb128 0x18
 4973 0cc5 0000 0000 	.long.LASF190
 4974 0cc9 11        	.byte0x11
 4975 0cca 02F5      	.word0x2f5
 4976 0ccc 0000 0050 	.long0x50
 4977 0cd0 0C        	.byte0xc
 4978 0cd1 18        	.uleb128 0x18
 4979 0cd2 0000 0000 	.long.LASF191
 4980 0cd6 11        	.byte0x11
 4981 0cd7 02F7      	.word0x2f7
 4982 0cd9 0000 00AA 	.long0xaa
 4983 0cdd 10        	.byte0x10
 4984 0cde 18        	.uleb128 0x18
 4985 0cdf 0000 0000 	.long.LASF192
 4986 0ce3 11        	.byte0x11
 4987 0ce4 02F9      	.word0x2f9
 4988 0ce6 0000 0C09 	.long0xc09
 4989 0cea 11        	.byte0x11
 4990 0ceb 18        	.uleb128 0x18
 4991 0cec 0000 0000 	.long.LASF193
 4992 0cf0 11        	.byte0x11
 4993 0cf1 02FB      	.word0x2fb
 4994 0cf3 0000 0069 	.long0x69
 4995 0cf7 39        	.byte0x39
 4996 0cf8 18        	.uleb128 0x18
 4997 0cf9 0000 0000 	.long.LASF194
 4998 0cfd 11        	.byte0x11
 4999 0cfe 02FD      	.word0x2fd
 5000 0d00 0000 0069 	.long0x69
 5001 0d04 3A        	.byte0x3a
 5002 0d05 18        	.uleb128 0x18
 5003 0d06 0000 0000 	.long.LASF195
 5004 0d0a 11        	.byte0x11
 5005 0d0b 02FF      	.word0x2ff
68K GAS   			page 126


 5006 0d0d 0000 0069 	.long0x69
 5007 0d11 3B        	.byte0x3b
 5008 0d12 18        	.uleb128 0x18
 5009 0d13 0000 0000 	.long.LASF196
 5010 0d17 11        	.byte0x11
 5011 0d18 0305      	.word0x305
 5012 0d1a 0000 0069 	.long0x69
 5013 0d1e 3C        	.byte0x3c
 5014 0d1f 18        	.uleb128 0x18
 5015 0d20 0000 0000 	.long.LASF197
 5016 0d24 11        	.byte0x11
 5017 0d25 0307      	.word0x307
 5018 0d27 0000 0069 	.long0x69
 5019 0d2b 3D        	.byte0x3d
 5020 0d2c 18        	.uleb128 0x18
 5021 0d2d 0000 0000 	.long.LASF198
 5022 0d31 11        	.byte0x11
 5023 0d32 0309      	.word0x309
 5024 0d34 0000 0A6B 	.long0xa6b
 5025 0d38 40        	.byte0x40
 5026 0d39 18        	.uleb128 0x18
 5027 0d3a 0000 0000 	.long.LASF199
 5028 0d3e 11        	.byte0x11
 5029 0d3f 030B      	.word0x30b
 5030 0d41 0000 00E3 	.long0xe3
 5031 0d45 44        	.byte0x44
 5032 0d46 18        	.uleb128 0x18
 5033 0d47 0000 0000 	.long.LASF200
 5034 0d4b 11        	.byte0x11
 5035 0d4c 030D      	.word0x30d
 5036 0d4e 0000 0C09 	.long0xc09
 5037 0d52 4C        	.byte0x4c
 5038 0d53 18        	.uleb128 0x18
 5039 0d54 0000 0000 	.long.LASF201
 5040 0d58 11        	.byte0x11
 5041 0d59 030F      	.word0x30f
 5042 0d5b 0000 0129 	.long0x129
 5043 0d5f 74        	.byte0x74
 5044 0d60 18        	.uleb128 0x18
 5045 0d61 0000 0000 	.long.LASF202
 5046 0d65 11        	.byte0x11
 5047 0d66 0311      	.word0x311
 5048 0d68 0000 0129 	.long0x129
 5049 0d6c B4        	.byte0xb4
 5050 0d6d 18        	.uleb128 0x18
 5051 0d6e 0000 0000 	.long.LASF203
 5052 0d72 11        	.byte0x11
 5053 0d73 0313      	.word0x313
 5054 0d75 0000 0C09 	.long0xc09
 5055 0d79 F4        	.byte0xf4
 5056 0d7a 00        	.byte0
 5057 0d7b 04        	.uleb128 0x4
 5058 0d7c 0000 0000 	.long.LASF204
 5059 0d80 11        	.byte0x11
 5060 0d81 0315      	.word0x315
 5061 0d83 0000 0C6C 	.long0xc6c
 5062 0d87 22        	.uleb128 0x22
68K GAS   			page 127


 5063 0d88 0128      	.word0x128
 5064 0d8a 11        	.byte0x11
 5065 0d8b 0317      	.word0x317
 5066 0d8d 0000 0DAC 	.long0xdac
 5067 0d91 18        	.uleb128 0x18
 5068 0d92 0000 0000 	.long.LASF205
 5069 0d96 11        	.byte0x11
 5070 0d97 0319      	.word0x319
 5071 0d99 0000 0B79 	.long0xb79
 5072 0d9d 00        	.byte0
 5073 0d9e 18        	.uleb128 0x18
 5074 0d9f 0000 0000 	.long.LASF182
 5075 0da3 11        	.byte0x11
 5076 0da4 031A      	.word0x31a
 5077 0da6 0000 0D7B 	.long0xd7b
 5078 0daa 0C        	.byte0xc
 5079 0dab 00        	.byte0
 5080 0dac 04        	.uleb128 0x4
 5081 0dad 0000 0000 	.long.LASF206
 5082 0db1 11        	.byte0x11
 5083 0db2 031B      	.word0x31b
 5084 0db4 0000 0D87 	.long0xd87
 5085 0db8 1B        	.uleb128 0x1b
 5086 0db9 A8        	.byte0xa8
 5087 0dba 11        	.byte0x11
 5088 0dbb 0321      	.word0x321
 5089 0dbd 0000 0E9F 	.long0xe9f
 5090 0dc1 18        	.uleb128 0x18
 5091 0dc2 0000 0000 	.long.LASF207
 5092 0dc6 11        	.byte0x11
 5093 0dc7 0323      	.word0x323
 5094 0dc9 0000 0086 	.long0x86
 5095 0dcd 00        	.byte0
 5096 0dce 23        	.uleb128 0x23
 5097 0dcf 4372 6300 	.string"Crc"
 5098 0dd3 11        	.byte0x11
 5099 0dd4 0325      	.word0x325
 5100 0dd6 0000 0086 	.long0x86
 5101 0dda 04        	.byte0x4
 5102 0ddb 18        	.uleb128 0x18
 5103 0ddc 0000 0000 	.long.LASF208
 5104 0de0 11        	.byte0x11
 5105 0de1 0327      	.word0x327
 5106 0de3 0000 009F 	.long0x9f
 5107 0de7 08        	.byte0x8
 5108 0de8 18        	.uleb128 0x18
 5109 0de9 0000 0000 	.long.LASF209
 5110 0ded 11        	.byte0x11
 5111 0dee 0329      	.word0x329
 5112 0df0 0000 009F 	.long0x9f
 5113 0df4 0C        	.byte0xc
 5114 0df5 18        	.uleb128 0x18
 5115 0df6 0000 0000 	.long.LASF210
 5116 0dfa 11        	.byte0x11
 5117 0dfb 032B      	.word0x32b
 5118 0dfd 0000 009F 	.long0x9f
 5119 0e01 10        	.byte0x10
68K GAS   			page 128


 5120 0e02 18        	.uleb128 0x18
 5121 0e03 0000 0000 	.long.LASF211
 5122 0e07 11        	.byte0x11
 5123 0e08 032D      	.word0x32d
 5124 0e0a 0000 00E3 	.long0xe3
 5125 0e0e 14        	.byte0x14
 5126 0e0f 18        	.uleb128 0x18
 5127 0e10 0000 0000 	.long.LASF212
 5128 0e14 11        	.byte0x11
 5129 0e15 032F      	.word0x32f
 5130 0e17 0000 0086 	.long0x86
 5131 0e1b 1C        	.byte0x1c
 5132 0e1c 18        	.uleb128 0x18
 5133 0e1d 0000 0000 	.long.LASF213
 5134 0e21 11        	.byte0x11
 5135 0e22 0331      	.word0x331
 5136 0e24 0000 0086 	.long0x86
 5137 0e28 20        	.byte0x20
 5138 0e29 18        	.uleb128 0x18
 5139 0e2a 0000 0000 	.long.LASF214
 5140 0e2e 11        	.byte0x11
 5141 0e2f 0333      	.word0x333
 5142 0e31 0000 00AA 	.long0xaa
 5143 0e35 24        	.byte0x24
 5144 0e36 18        	.uleb128 0x18
 5145 0e37 0000 0000 	.long.LASF215
 5146 0e3b 11        	.byte0x11
 5147 0e3c 0335      	.word0x335
 5148 0e3e 0000 00AA 	.long0xaa
 5149 0e42 25        	.byte0x25
 5150 0e43 18        	.uleb128 0x18
 5151 0e44 0000 0000 	.long.LASF216
 5152 0e48 11        	.byte0x11
 5153 0e49 0337      	.word0x337
 5154 0e4b 0000 00AA 	.long0xaa
 5155 0e4f 26        	.byte0x26
 5156 0e50 18        	.uleb128 0x18
 5157 0e51 0000 0000 	.long.LASF217
 5158 0e55 11        	.byte0x11
 5159 0e56 0339      	.word0x339
 5160 0e58 0000 00AA 	.long0xaa
 5161 0e5c 27        	.byte0x27
 5162 0e5d 18        	.uleb128 0x18
 5163 0e5e 0000 0000 	.long.LASF218
 5164 0e62 11        	.byte0x11
 5165 0e63 033B      	.word0x33b
 5166 0e65 0000 0C09 	.long0xc09
 5167 0e69 28        	.byte0x28
 5168 0e6a 18        	.uleb128 0x18
 5169 0e6b 0000 0000 	.long.LASF201
 5170 0e6f 11        	.byte0x11
 5171 0e70 033D      	.word0x33d
 5172 0e72 0000 0129 	.long0x129
 5173 0e76 50        	.byte0x50
 5174 0e77 18        	.uleb128 0x18
 5175 0e78 0000 0000 	.long.LASF219
 5176 0e7c 11        	.byte0x11
68K GAS   			page 129


 5177 0e7d 033F      	.word0x33f
 5178 0e7f 0000 0139 	.long0x139
 5179 0e83 90        	.byte0x90
 5180 0e84 18        	.uleb128 0x18
 5181 0e85 0000 0000 	.long.LASF220
 5182 0e89 11        	.byte0x11
 5183 0e8a 0341      	.word0x341
 5184 0e8c 0000 00AA 	.long0xaa
 5185 0e90 A4        	.byte0xa4
 5186 0e91 18        	.uleb128 0x18
 5187 0e92 0000 0000 	.long.LASF221
 5188 0e96 11        	.byte0x11
 5189 0e97 0343      	.word0x343
 5190 0e99 0000 0069 	.long0x69
 5191 0e9d A5        	.byte0xa5
 5192 0e9e 00        	.byte0
 5193 0e9f 04        	.uleb128 0x4
 5194 0ea0 0000 0000 	.long.LASF222
 5195 0ea4 11        	.byte0x11
 5196 0ea5 0345      	.word0x345
 5197 0ea7 0000 0DB8 	.long0xdb8
 5198 0eab 1B        	.uleb128 0x1b
 5199 0eac B4        	.byte0xb4
 5200 0ead 11        	.byte0x11
 5201 0eae 0347      	.word0x347
 5202 0eb0 0000 0ECF 	.long0xecf
 5203 0eb4 18        	.uleb128 0x18
 5204 0eb5 0000 0000 	.long.LASF205
 5205 0eb9 11        	.byte0x11
 5206 0eba 0349      	.word0x349
 5207 0ebc 0000 0B79 	.long0xb79
 5208 0ec0 00        	.byte0
 5209 0ec1 18        	.uleb128 0x18
 5210 0ec2 0000 0000 	.long.LASF182
 5211 0ec6 11        	.byte0x11
 5212 0ec7 034A      	.word0x34a
 5213 0ec9 0000 0E9F 	.long0xe9f
 5214 0ecd 0C        	.byte0xc
 5215 0ece 00        	.byte0
 5216 0ecf 04        	.uleb128 0x4
 5217 0ed0 0000 0000 	.long.LASF223
 5218 0ed4 11        	.byte0x11
 5219 0ed5 034B      	.word0x34b
 5220 0ed7 0000 0EAB 	.long0xeab
 5221 0edb 24        	.uleb128 0x24
 5222 0edc 07        	.byte0x7
 5223 0edd 04        	.byte0x4
 5224 0ede 0000 0122 	.long0x122
 5225 0ee2 12        	.byte0x12
 5226 0ee3 6D        	.byte0x6d
 5227 0ee4 0000 0EFB 	.long0xefb
 5228 0ee8 25        	.uleb128 0x25
 5229 0ee9 0000 0000 	.long.LASF224
 5230 0eed 00        	.byte0
 5231 0eee 25        	.uleb128 0x25
 5232 0eef 0000 0000 	.long.LASF225
 5233 0ef3 01        	.byte0x1
68K GAS   			page 130


 5234 0ef4 25        	.uleb128 0x25
 5235 0ef5 0000 0000 	.long.LASF226
 5236 0ef9 02        	.byte0x2
 5237 0efa 00        	.byte0
 5238 0efb 02        	.uleb128 0x2
 5239 0efc 0000 0000 	.long.LASF227
 5240 0f00 12        	.byte0x12
 5241 0f01 71        	.byte0x71
 5242 0f02 0000 0EDB 	.long0xedb
 5243 0f06 24        	.uleb128 0x24
 5244 0f07 07        	.byte0x7
 5245 0f08 04        	.byte0x4
 5246 0f09 0000 0122 	.long0x122
 5247 0f0d 12        	.byte0x12
 5248 0f0e 78        	.byte0x78
 5249 0f0f 0000 0F26 	.long0xf26
 5250 0f13 25        	.uleb128 0x25
 5251 0f14 0000 0000 	.long.LASF228
 5252 0f18 00        	.byte0
 5253 0f19 25        	.uleb128 0x25
 5254 0f1a 0000 0000 	.long.LASF229
 5255 0f1e 01        	.byte0x1
 5256 0f1f 25        	.uleb128 0x25
 5257 0f20 0000 0000 	.long.LASF230
 5258 0f24 02        	.byte0x2
 5259 0f25 00        	.byte0
 5260 0f26 02        	.uleb128 0x2
 5261 0f27 0000 0000 	.long.LASF231
 5262 0f2b 12        	.byte0x12
 5263 0f2c 7C        	.byte0x7c
 5264 0f2d 0000 0F06 	.long0xf06
 5265 0f31 06        	.uleb128 0x6
 5266 0f32 38        	.byte0x38
 5267 0f33 12        	.byte0x12
 5268 0f34 85        	.byte0x85
 5269 0f35 0000 0F76 	.long0xf76
 5270 0f39 07        	.uleb128 0x7
 5271 0f3a 0000 0000 	.long.LASF232
 5272 0f3e 12        	.byte0x12
 5273 0f3f 87        	.byte0x87
 5274 0f40 0000 0EFB 	.long0xefb
 5275 0f44 00        	.byte0
 5276 0f45 07        	.uleb128 0x7
 5277 0f46 0000 0000 	.long.LASF233
 5278 0f4a 12        	.byte0x12
 5279 0f4b 88        	.byte0x88
 5280 0f4c 0000 0050 	.long0x50
 5281 0f50 04        	.byte0x4
 5282 0f51 07        	.uleb128 0x7
 5283 0f52 0000 0000 	.long.LASF234
 5284 0f56 12        	.byte0x12
 5285 0f57 89        	.byte0x89
 5286 0f58 0000 0086 	.long0x86
 5287 0f5c 08        	.byte0x8
 5288 0f5d 07        	.uleb128 0x7
 5289 0f5e 0000 0000 	.long.LASF191
 5290 0f62 12        	.byte0x12
68K GAS   			page 131


 5291 0f63 8A        	.byte0x8a
 5292 0f64 0000 00AA 	.long0xaa
 5293 0f68 0C        	.byte0xc
 5294 0f69 07        	.uleb128 0x7
 5295 0f6a 0000 0000 	.long.LASF235
 5296 0f6e 12        	.byte0x12
 5297 0f6f 8B        	.byte0x8b
 5298 0f70 0000 0C09 	.long0xc09
 5299 0f74 0D        	.byte0xd
 5300 0f75 00        	.byte0
 5301 0f76 02        	.uleb128 0x2
 5302 0f77 0000 0000 	.long.LASF236
 5303 0f7b 12        	.byte0x12
 5304 0f7c 8C        	.byte0x8c
 5305 0f7d 0000 0F31 	.long0xf31
 5306 0f81 26        	.uleb128 0x26
 5307 0f82 0008 0004 	.long0x80004
 5308 0f86 12        	.byte0x12
 5309 0f87 94        	.byte0x94
 5310 0f88 0000 0FA5 	.long0xfa5
 5311 0f8c 07        	.uleb128 0x7
 5312 0f8d 0000 0000 	.long.LASF237
 5313 0f91 12        	.byte0x12
 5314 0f92 96        	.byte0x96
 5315 0f93 0000 0A6B 	.long0xa6b
 5316 0f97 00        	.byte0
 5317 0f98 07        	.uleb128 0x7
 5318 0f99 0000 0000 	.long.LASF238
 5319 0f9d 12        	.byte0x12
 5320 0f9e 97        	.byte0x97
 5321 0f9f 0000 0FA5 	.long0xfa5
 5322 0fa3 04        	.byte0x4
 5323 0fa4 00        	.byte0
 5324 0fa5 0D        	.uleb128 0xd
 5325 0fa6 0000 0069 	.long0x69
 5326 0faa 0000 0FB8 	.long0xfb8
 5327 0fae 27        	.uleb128 0x27
 5328 0faf 0000 0091 	.long0x91
 5329 0fb3 0007 FFFF 	.long0x7ffff
 5330 0fb7 00        	.byte0
 5331 0fb8 02        	.uleb128 0x2
 5332 0fb9 0000 0000 	.long.LASF239
 5333 0fbd 12        	.byte0x12
 5334 0fbe 98        	.byte0x98
 5335 0fbf 0000 0F81 	.long0xf81
 5336 0fc3 06        	.uleb128 0x6
 5337 0fc4 54        	.byte0x54
 5338 0fc5 12        	.byte0x12
 5339 0fc6 A2        	.byte0xa2
 5340 0fc7 0000 1020 	.long0x1020
 5341 0fcb 07        	.uleb128 0x7
 5342 0fcc 0000 0000 	.long.LASF240
 5343 0fd0 12        	.byte0x12
 5344 0fd1 A4        	.byte0xa4
 5345 0fd2 0000 0B2C 	.long0xb2c
 5346 0fd6 00        	.byte0
 5347 0fd7 07        	.uleb128 0x7
68K GAS   			page 132


 5348 0fd8 0000 0000 	.long.LASF212
 5349 0fdc 12        	.byte0x12
 5350 0fdd A5        	.byte0xa5
 5351 0fde 0000 0086 	.long0x86
 5352 0fe2 04        	.byte0x4
 5353 0fe3 07        	.uleb128 0x7
 5354 0fe4 0000 0000 	.long.LASF213
 5355 0fe8 12        	.byte0x12
 5356 0fe9 A6        	.byte0xa6
 5357 0fea 0000 0086 	.long0x86
 5358 0fee 08        	.byte0x8
 5359 0fef 13        	.uleb128 0x13
 5360 0ff0 4372 6300 	.string"Crc"
 5361 0ff4 12        	.byte0x12
 5362 0ff5 A7        	.byte0xa7
 5363 0ff6 0000 0086 	.long0x86
 5364 0ffa 0C        	.byte0xc
 5365 0ffb 07        	.uleb128 0x7
 5366 0ffc 0000 0000 	.long.LASF241
 5367 1000 12        	.byte0x12
 5368 1001 A8        	.byte0xa8
 5369 1002 0000 00AA 	.long0xaa
 5370 1006 10        	.byte0x10
 5371 1007 07        	.uleb128 0x7
 5372 1008 0000 0000 	.long.LASF242
 5373 100c 12        	.byte0x12
 5374 100d A9        	.byte0xa9
 5375 100e 0000 00AA 	.long0xaa
 5376 1012 11        	.byte0x11
 5377 1013 07        	.uleb128 0x7
 5378 1014 0000 0000 	.long.LASF243
 5379 1018 12        	.byte0x12
 5380 1019 AA        	.byte0xaa
 5381 101a 0000 0129 	.long0x129
 5382 101e 12        	.byte0x12
 5383 101f 00        	.byte0
 5384 1020 02        	.uleb128 0x2
 5385 1021 0000 0000 	.long.LASF244
 5386 1025 12        	.byte0x12
 5387 1026 AB        	.byte0xab
 5388 1027 0000 0FC3 	.long0xfc3
 5389 102b 06        	.uleb128 0x6
 5390 102c 10        	.byte0x10
 5391 102d 12        	.byte0x12
 5392 102e B6        	.byte0xb6
 5393 102f 0000 1094 	.long0x1094
 5394 1033 07        	.uleb128 0x7
 5395 1034 0000 0000 	.long.LASF245
 5396 1038 12        	.byte0x12
 5397 1039 B8        	.byte0xb8
 5398 103a 0000 0086 	.long0x86
 5399 103e 00        	.byte0
 5400 103f 07        	.uleb128 0x7
 5401 1040 0000 0000 	.long.LASF246
 5402 1044 12        	.byte0x12
 5403 1045 B9        	.byte0xb9
 5404 1046 0000 003E 	.long0x3e
68K GAS   			page 133


 5405 104a 04        	.byte0x4
 5406 104b 07        	.uleb128 0x7
 5407 104c 0000 0000 	.long.LASF247
 5408 1050 12        	.byte0x12
 5409 1051 BA        	.byte0xba
 5410 1052 0000 0117 	.long0x117
 5411 1056 06        	.byte0x6
 5412 1057 07        	.uleb128 0x7
 5413 1058 0000 0000 	.long.LASF248
 5414 105c 12        	.byte0x12
 5415 105d BB        	.byte0xbb
 5416 105e 0000 0117 	.long0x117
 5417 1062 08        	.byte0x8
 5418 1063 07        	.uleb128 0x7
 5419 1064 0000 0000 	.long.LASF249
 5420 1068 12        	.byte0x12
 5421 1069 BC        	.byte0xbc
 5422 106a 0000 00AA 	.long0xaa
 5423 106e 0A        	.byte0xa
 5424 106f 07        	.uleb128 0x7
 5425 1070 0000 0000 	.long.LASF250
 5426 1074 12        	.byte0x12
 5427 1075 BD        	.byte0xbd
 5428 1076 0000 00AA 	.long0xaa
 5429 107a 0B        	.byte0xb
 5430 107b 07        	.uleb128 0x7
 5431 107c 0000 0000 	.long.LASF251
 5432 1080 12        	.byte0x12
 5433 1081 BE        	.byte0xbe
 5434 1082 0000 00AA 	.long0xaa
 5435 1086 0C        	.byte0xc
 5436 1087 07        	.uleb128 0x7
 5437 1088 0000 0000 	.long.LASF252
 5438 108c 12        	.byte0x12
 5439 108d BF        	.byte0xbf
 5440 108e 0000 0069 	.long0x69
 5441 1092 0D        	.byte0xd
 5442 1093 00        	.byte0
 5443 1094 02        	.uleb128 0x2
 5444 1095 0000 0000 	.long.LASF253
 5445 1099 12        	.byte0x12
 5446 109a C0        	.byte0xc0
 5447 109b 0000 102B 	.long0x102b
 5448 109f 28        	.uleb128 0x28
 5449 10a0 0150      	.word0x150
 5450 10a2 12        	.byte0x12
 5451 10a3 C9        	.byte0xc9
 5452 10a4 0000 11CA 	.long0x11ca
 5453 10a8 07        	.uleb128 0x7
 5454 10a9 0000 0000 	.long.LASF254
 5455 10ad 12        	.byte0x12
 5456 10ae CB        	.byte0xcb
 5457 10af 0000 0086 	.long0x86
 5458 10b3 00        	.byte0
 5459 10b4 07        	.uleb128 0x7
 5460 10b5 0000 0000 	.long.LASF207
 5461 10b9 12        	.byte0x12
68K GAS   			page 134


 5462 10ba CC        	.byte0xcc
 5463 10bb 0000 0086 	.long0x86
 5464 10bf 04        	.byte0x4
 5465 10c0 07        	.uleb128 0x7
 5466 10c1 0000 0000 	.long.LASF255
 5467 10c5 12        	.byte0x12
 5468 10c6 CD        	.byte0xcd
 5469 10c7 0000 0086 	.long0x86
 5470 10cb 08        	.byte0x8
 5471 10cc 07        	.uleb128 0x7
 5472 10cd 0000 0000 	.long.LASF256
 5473 10d1 12        	.byte0x12
 5474 10d2 CE        	.byte0xce
 5475 10d3 0000 0086 	.long0x86
 5476 10d7 0C        	.byte0xc
 5477 10d8 07        	.uleb128 0x7
 5478 10d9 0000 0000 	.long.LASF257
 5479 10dd 12        	.byte0x12
 5480 10de CF        	.byte0xcf
 5481 10df 0000 11CA 	.long0x11ca
 5482 10e3 10        	.byte0x10
 5483 10e4 07        	.uleb128 0x7
 5484 10e5 0000 0000 	.long.LASF210
 5485 10e9 12        	.byte0x12
 5486 10ea D0        	.byte0xd0
 5487 10eb 0000 00F5 	.long0xf5
 5488 10ef B8        	.byte0xb8
 5489 10f0 07        	.uleb128 0x7
 5490 10f1 0000 0000 	.long.LASF211
 5491 10f5 12        	.byte0x12
 5492 10f6 D1        	.byte0xd1
 5493 10f7 0000 00E3 	.long0xe3
 5494 10fb BC        	.byte0xbc
 5495 10fc 07        	.uleb128 0x7
 5496 10fd 0000 0000 	.long.LASF258
 5497 1101 12        	.byte0x12
 5498 1102 D2        	.byte0xd2
 5499 1103 0000 0117 	.long0x117
 5500 1107 C4        	.byte0xc4
 5501 1108 07        	.uleb128 0x7
 5502 1109 0000 0000 	.long.LASF259
 5503 110d 12        	.byte0x12
 5504 110e D3        	.byte0xd3
 5505 110f 0000 0050 	.long0x50
 5506 1113 C8        	.byte0xc8
 5507 1114 07        	.uleb128 0x7
 5508 1115 0000 0000 	.long.LASF260
 5509 1119 12        	.byte0x12
 5510 111a D4        	.byte0xd4
 5511 111b 0000 0050 	.long0x50
 5512 111f CC        	.byte0xcc
 5513 1120 07        	.uleb128 0x7
 5514 1121 0000 0000 	.long.LASF261
 5515 1125 12        	.byte0x12
 5516 1126 D5        	.byte0xd5
 5517 1127 0000 0050 	.long0x50
 5518 112b D0        	.byte0xd0
68K GAS   			page 135


 5519 112c 07        	.uleb128 0x7
 5520 112d 0000 0000 	.long.LASF262
 5521 1131 12        	.byte0x12
 5522 1132 D6        	.byte0xd6
 5523 1133 0000 0050 	.long0x50
 5524 1137 D4        	.byte0xd4
 5525 1138 07        	.uleb128 0x7
 5526 1139 0000 0000 	.long.LASF263
 5527 113d 12        	.byte0x12
 5528 113e D7        	.byte0xd7
 5529 113f 0000 0A77 	.long0xa77
 5530 1143 D8        	.byte0xd8
 5531 1144 07        	.uleb128 0x7
 5532 1145 0000 0000 	.long.LASF264
 5533 1149 12        	.byte0x12
 5534 114a D8        	.byte0xd8
 5535 114b 0000 0074 	.long0x74
 5536 114f DC        	.byte0xdc
 5537 1150 07        	.uleb128 0x7
 5538 1151 0000 0000 	.long.LASF265
 5539 1155 12        	.byte0x12
 5540 1156 D9        	.byte0xd9
 5541 1157 0000 00AA 	.long0xaa
 5542 115b DE        	.byte0xde
 5543 115c 07        	.uleb128 0x7
 5544 115d 0000 0000 	.long.LASF214
 5545 1161 12        	.byte0x12
 5546 1162 DA        	.byte0xda
 5547 1163 0000 00AA 	.long0xaa
 5548 1167 DF        	.byte0xdf
 5549 1168 07        	.uleb128 0x7
 5550 1169 0000 0000 	.long.LASF215
 5551 116d 12        	.byte0x12
 5552 116e DB        	.byte0xdb
 5553 116f 0000 00AA 	.long0xaa
 5554 1173 E0        	.byte0xe0
 5555 1174 07        	.uleb128 0x7
 5556 1175 0000 0000 	.long.LASF216
 5557 1179 12        	.byte0x12
 5558 117a DC        	.byte0xdc
 5559 117b 0000 00AA 	.long0xaa
 5560 117f E1        	.byte0xe1
 5561 1180 07        	.uleb128 0x7
 5562 1181 0000 0000 	.long.LASF217
 5563 1185 12        	.byte0x12
 5564 1186 DD        	.byte0xdd
 5565 1187 0000 00AA 	.long0xaa
 5566 118b E2        	.byte0xe2
 5567 118c 07        	.uleb128 0x7
 5568 118d 0000 0000 	.long.LASF266
 5569 1191 12        	.byte0x12
 5570 1192 DE        	.byte0xde
 5571 1193 0000 00AA 	.long0xaa
 5572 1197 E3        	.byte0xe3
 5573 1198 07        	.uleb128 0x7
 5574 1199 0000 0000 	.long.LASF267
 5575 119d 12        	.byte0x12
68K GAS   			page 136


 5576 119e DF        	.byte0xdf
 5577 119f 0000 00AA 	.long0xaa
 5578 11a3 E4        	.byte0xe4
 5579 11a4 07        	.uleb128 0x7
 5580 11a5 0000 0000 	.long.LASF268
 5581 11a9 12        	.byte0x12
 5582 11aa E1        	.byte0xe1
 5583 11ab 0000 0069 	.long0x69
 5584 11af E5        	.byte0xe5
 5585 11b0 07        	.uleb128 0x7
 5586 11b1 0000 0000 	.long.LASF218
 5587 11b5 12        	.byte0x12
 5588 11b6 E2        	.byte0xe2
 5589 11b7 0000 0C09 	.long0xc09
 5590 11bb E6        	.byte0xe6
 5591 11bc 15        	.uleb128 0x15
 5592 11bd 0000 0000 	.long.LASF201
 5593 11c1 12        	.byte0x12
 5594 11c2 E3        	.byte0xe3
 5595 11c3 0000 0129 	.long0x129
 5596 11c7 010E      	.word0x10e
 5597 11c9 00        	.byte0
 5598 11ca 0D        	.uleb128 0xd
 5599 11cb 0000 1020 	.long0x1020
 5600 11cf 0000 11DA 	.long0x11da
 5601 11d3 0E        	.uleb128 0xe
 5602 11d4 0000 0091 	.long0x91
 5603 11d8 01        	.byte0x1
 5604 11d9 00        	.byte0
 5605 11da 02        	.uleb128 0x2
 5606 11db 0000 0000 	.long.LASF269
 5607 11df 12        	.byte0x12
 5608 11e0 E4        	.byte0xe4
 5609 11e1 0000 109F 	.long0x109f
 5610 11e5 06        	.uleb128 0x6
 5611 11e6 80        	.byte0x80
 5612 11e7 12        	.byte0x12
 5613 11e8 ED        	.byte0xed
 5614 11e9 0000 1242 	.long0x1242
 5615 11ed 07        	.uleb128 0x7
 5616 11ee 0000 0000 	.long.LASF263
 5617 11f2 12        	.byte0x12
 5618 11f3 EF        	.byte0xef
 5619 11f4 0000 0A77 	.long0xa77
 5620 11f8 00        	.byte0
 5621 11f9 07        	.uleb128 0x7
 5622 11fa 0000 0000 	.long.LASF212
 5623 11fe 12        	.byte0x12
 5624 11ff F0        	.byte0xf0
 5625 1200 0000 0086 	.long0x86
 5626 1204 04        	.byte0x4
 5627 1205 07        	.uleb128 0x7
 5628 1206 0000 0000 	.long.LASF213
 5629 120a 12        	.byte0x12
 5630 120b F1        	.byte0xf1
 5631 120c 0000 0086 	.long0x86
 5632 1210 08        	.byte0x8
68K GAS   			page 137


 5633 1211 07        	.uleb128 0x7
 5634 1212 0000 0000 	.long.LASF211
 5635 1216 12        	.byte0x12
 5636 1217 F2        	.byte0xf2
 5637 1218 0000 00E3 	.long0xe3
 5638 121c 0C        	.byte0xc
 5639 121d 07        	.uleb128 0x7
 5640 121e 0000 0000 	.long.LASF201
 5641 1222 12        	.byte0x12
 5642 1223 F3        	.byte0xf3
 5643 1224 0000 0129 	.long0x129
 5644 1228 14        	.byte0x14
 5645 1229 07        	.uleb128 0x7
 5646 122a 0000 0000 	.long.LASF218
 5647 122e 12        	.byte0x12
 5648 122f F4        	.byte0xf4
 5649 1230 0000 0C09 	.long0xc09
 5650 1234 54        	.byte0x54
 5651 1235 07        	.uleb128 0x7
 5652 1236 0000 0000 	.long.LASF214
 5653 123a 12        	.byte0x12
 5654 123b F5        	.byte0xf5
 5655 123c 0000 00AA 	.long0xaa
 5656 1240 7C        	.byte0x7c
 5657 1241 00        	.byte0
 5658 1242 02        	.uleb128 0x2
 5659 1243 0000 0000 	.long.LASF270
 5660 1247 12        	.byte0x12
 5661 1248 F6        	.byte0xf6
 5662 1249 0000 11E5 	.long0x11e5
 5663 124d 06        	.uleb128 0x6
 5664 124e 38        	.byte0x38
 5665 124f 12        	.byte0x12
 5666 1250 FE        	.byte0xfe
 5667 1251 0000 1297 	.long0x1297
 5668 1255 18        	.uleb128 0x18
 5669 1256 0000 0000 	.long.LASF232
 5670 125a 12        	.byte0x12
 5671 125b 0100      	.word0x100
 5672 125d 0000 0F26 	.long0xf26
 5673 1261 00        	.byte0
 5674 1262 18        	.uleb128 0x18
 5675 1263 0000 0000 	.long.LASF207
 5676 1267 12        	.byte0x12
 5677 1268 0101      	.word0x101
 5678 126a 0000 0086 	.long0x86
 5679 126e 04        	.byte0x4
 5680 126f 18        	.uleb128 0x18
 5681 1270 0000 0000 	.long.LASF271
 5682 1274 12        	.byte0x12
 5683 1275 0102      	.word0x102
 5684 1277 0000 1297 	.long0x1297
 5685 127b 08        	.byte0x8
 5686 127c 18        	.uleb128 0x18
 5687 127d 0000 0000 	.long.LASF272
 5688 1281 12        	.byte0x12
 5689 1282 0103      	.word0x103
68K GAS   			page 138


 5690 1284 0000 129D 	.long0x129d
 5691 1288 0C        	.byte0xc
 5692 1289 18        	.uleb128 0x18
 5693 128a 0000 0000 	.long.LASF235
 5694 128e 12        	.byte0x12
 5695 128f 0104      	.word0x104
 5696 1291 0000 0C09 	.long0xc09
 5697 1295 10        	.byte0x10
 5698 1296 00        	.byte0
 5699 1297 09        	.uleb128 0x9
 5700 1298 04        	.byte0x4
 5701 1299 0000 1020 	.long0x1020
 5702 129d 09        	.uleb128 0x9
 5703 129e 04        	.byte0x4
 5704 129f 0000 11DA 	.long0x11da
 5705 12a3 04        	.uleb128 0x4
 5706 12a4 0000 0000 	.long.LASF273
 5707 12a8 12        	.byte0x12
 5708 12a9 0105      	.word0x105
 5709 12ab 0000 124D 	.long0x124d
 5710 12af 29        	.uleb128 0x29
 5711 12b0 0008 CE80 	.long0x8ce80
 5712 12b4 12        	.byte0x12
 5713 12b5 0129      	.word0x129
 5714 12b7 0000 1425 	.long0x1425
 5715 12bb 18        	.uleb128 0x18
 5716 12bc 0000 0000 	.long.LASF184
 5717 12c0 12        	.byte0x12
 5718 12c1 012E      	.word0x12e
 5719 12c3 0000 0069 	.long0x69
 5720 12c7 00        	.byte0
 5721 12c8 18        	.uleb128 0x18
 5722 12c9 0000 0000 	.long.LASF185
 5723 12cd 12        	.byte0x12
 5724 12ce 012F      	.word0x12f
 5725 12d0 0000 0069 	.long0x69
 5726 12d4 01        	.byte0x1
 5727 12d5 18        	.uleb128 0x18
 5728 12d6 0000 0000 	.long.LASF193
 5729 12da 12        	.byte0x12
 5730 12db 0134      	.word0x134
 5731 12dd 0000 0069 	.long0x69
 5732 12e1 02        	.byte0x2
 5733 12e2 18        	.uleb128 0x18
 5734 12e3 0000 0000 	.long.LASF194
 5735 12e7 12        	.byte0x12
 5736 12e8 0135      	.word0x135
 5737 12ea 0000 0069 	.long0x69
 5738 12ee 03        	.byte0x3
 5739 12ef 18        	.uleb128 0x18
 5740 12f0 0000 0000 	.long.LASF195
 5741 12f4 12        	.byte0x12
 5742 12f5 0136      	.word0x136
 5743 12f7 0000 0069 	.long0x69
 5744 12fb 04        	.byte0x4
 5745 12fc 18        	.uleb128 0x18
 5746 12fd 0000 0000 	.long.LASF274
68K GAS   			page 139


 5747 1301 12        	.byte0x12
 5748 1302 013B      	.word0x13b
 5749 1304 0000 003E 	.long0x3e
 5750 1308 06        	.byte0x6
 5751 1309 18        	.uleb128 0x18
 5752 130a 0000 0000 	.long.LASF275
 5753 130e 12        	.byte0x12
 5754 130f 0140      	.word0x140
 5755 1311 0000 0DAC 	.long0xdac
 5756 1315 08        	.byte0x8
 5757 1316 19        	.uleb128 0x19
 5758 1317 0000 0000 	.long.LASF276
 5759 131b 12        	.byte0x12
 5760 131c 0141      	.word0x141
 5761 131e 0000 0ECF 	.long0xecf
 5762 1322 0130      	.word0x130
 5763 1324 19        	.uleb128 0x19
 5764 1325 0000 0000 	.long.LASF277
 5765 1329 12        	.byte0x12
 5766 132a 0142      	.word0x142
 5767 132c 0000 0C60 	.long0xc60
 5768 1330 01E4      	.word0x1e4
 5769 1332 19        	.uleb128 0x19
 5770 1333 0000 0000 	.long.LASF278
 5771 1337 12        	.byte0x12
 5772 1338 0147      	.word0x147
 5773 133a 0000 0B26 	.long0xb26
 5774 133e 01F0      	.word0x1f0
 5775 1340 19        	.uleb128 0x19
 5776 1341 0000 0000 	.long.LASF279
 5777 1345 12        	.byte0x12
 5778 1346 0148      	.word0x148
 5779 1348 0000 0B10 	.long0xb10
 5780 134c 01F4      	.word0x1f4
 5781 134e 19        	.uleb128 0x19
 5782 134f 0000 0000 	.long.LASF280
 5783 1353 12        	.byte0x12
 5784 1354 014D      	.word0x14d
 5785 1356 0000 1425 	.long0x1425
 5786 135a 01F5      	.word0x1f5
 5787 135c 19        	.uleb128 0x19
 5788 135d 0000 0000 	.long.LASF281
 5789 1361 12        	.byte0x12
 5790 1362 014E      	.word0x14e
 5791 1364 0000 0074 	.long0x74
 5792 1368 0206      	.word0x206
 5793 136a 19        	.uleb128 0x19
 5794 136b 0000 0000 	.long.LASF282
 5795 136f 12        	.byte0x12
 5796 1370 014F      	.word0x14f
 5797 1372 0000 0086 	.long0x86
 5798 1376 0208      	.word0x208
 5799 1378 19        	.uleb128 0x19
 5800 1379 0000 0000 	.long.LASF283
 5801 137d 12        	.byte0x12
 5802 137e 0151      	.word0x151
 5803 1380 0000 003E 	.long0x3e
68K GAS   			page 140


 5804 1384 020C      	.word0x20c
 5805 1386 19        	.uleb128 0x19
 5806 1387 0000 0000 	.long.LASF188
 5807 138b 12        	.byte0x12
 5808 138c 0152      	.word0x152
 5809 138e 0000 0074 	.long0x74
 5810 1392 020E      	.word0x20e
 5811 1394 19        	.uleb128 0x19
 5812 1395 0000 0000 	.long.LASF284
 5813 1399 12        	.byte0x12
 5814 139a 0157      	.word0x157
 5815 139c 0000 0086 	.long0x86
 5816 13a0 0210      	.word0x210
 5817 13a2 19        	.uleb128 0x19
 5818 13a3 0000 0000 	.long.LASF285
 5819 13a7 12        	.byte0x12
 5820 13a8 0158      	.word0x158
 5821 13aa 0000 0086 	.long0x86
 5822 13ae 0214      	.word0x214
 5823 13b0 19        	.uleb128 0x19
 5824 13b1 0000 0000 	.long.LASF286
 5825 13b5 12        	.byte0x12
 5826 13b6 0159      	.word0x159
 5827 13b8 0000 0A77 	.long0xa77
 5828 13bc 0218      	.word0x218
 5829 13be 19        	.uleb128 0x19
 5830 13bf 0000 0000 	.long.LASF287
 5831 13c3 12        	.byte0x12
 5832 13c4 015A      	.word0x15a
 5833 13c6 0000 1435 	.long0x1435
 5834 13ca 021C      	.word0x21c
 5835 13cc 19        	.uleb128 0x19
 5836 13cd 0000 0000 	.long.LASF288
 5837 13d1 12        	.byte0x12
 5838 13d2 015F      	.word0x15f
 5839 13d4 0000 1445 	.long0x1445
 5840 13d8 036C      	.word0x36c
 5841 13da 19        	.uleb128 0x19
 5842 13db 0000 0000 	.long.LASF289
 5843 13df 12        	.byte0x12
 5844 13e0 0160      	.word0x160
 5845 13e2 0000 1455 	.long0x1455
 5846 13e6 136C      	.word0x136c
 5847 13e8 19        	.uleb128 0x19
 5848 13e9 0000 0000 	.long.LASF290
 5849 13ed 12        	.byte0x12
 5850 13ee 0161      	.word0x161
 5851 13f0 0000 1465 	.long0x1465
 5852 13f4 BB6C      	.word0xbb6c
 5853 13f6 2A        	.uleb128 0x2a
 5854 13f7 4275 6600 	.string"Buf"
 5855 13fb 12        	.byte0x12
 5856 13fc 0162      	.word0x162
 5857 13fe 0000 0FB8 	.long0xfb8
 5858 1402 CB6C      	.word0xcb6c
 5859 1404 2B        	.uleb128 0x2b
 5860 1405 0000 0000 	.long.LASF291
68K GAS   			page 141


 5861 1409 12        	.byte0x12
 5862 140a 0163      	.word0x163
 5863 140c 0000 1475 	.long0x1475
 5864 1410 0008 CB70 	.long0x8cb70
 5865 1414 2B        	.uleb128 0x2b
 5866 1415 0000 0000 	.long.LASF292
 5867 1419 12        	.byte0x12
 5868 141a 0164      	.word0x164
 5869 141c 0000 1485 	.long0x1485
 5870 1420 0008 CDA0 	.long0x8cda0
 5871 1424 00        	.byte0
 5872 1425 0D        	.uleb128 0xd
 5873 1426 0000 00B6 	.long0xb6
 5874 142a 0000 1435 	.long0x1435
 5875 142e 0E        	.uleb128 0xe
 5876 142f 0000 0091 	.long0x91
 5877 1433 0F        	.byte0xf
 5878 1434 00        	.byte0
 5879 1435 0D        	.uleb128 0xd
 5880 1436 0000 1020 	.long0x1020
 5881 143a 0000 1445 	.long0x1445
 5882 143e 0E        	.uleb128 0xe
 5883 143f 0000 0091 	.long0x91
 5884 1443 03        	.byte0x3
 5885 1444 00        	.byte0
 5886 1445 0D        	.uleb128 0xd
 5887 1446 0000 1094 	.long0x1094
 5888 144a 0000 1455 	.long0x1455
 5889 144e 0E        	.uleb128 0xe
 5890 144f 0000 0091 	.long0x91
 5891 1453 FF        	.byte0xff
 5892 1454 00        	.byte0
 5893 1455 0D        	.uleb128 0xd
 5894 1456 0000 11DA 	.long0x11da
 5895 145a 0000 1465 	.long0x1465
 5896 145e 0E        	.uleb128 0xe
 5897 145f 0000 0091 	.long0x91
 5898 1463 7F        	.byte0x7f
 5899 1464 00        	.byte0
 5900 1465 0D        	.uleb128 0xd
 5901 1466 0000 1242 	.long0x1242
 5902 146a 0000 1475 	.long0x1475
 5903 146e 0E        	.uleb128 0xe
 5904 146f 0000 0091 	.long0x91
 5905 1473 1F        	.byte0x1f
 5906 1474 00        	.byte0
 5907 1475 0D        	.uleb128 0xd
 5908 1476 0000 0F76 	.long0xf76
 5909 147a 0000 1485 	.long0x1485
 5910 147e 0E        	.uleb128 0xe
 5911 147f 0000 0091 	.long0x91
 5912 1483 09        	.byte0x9
 5913 1484 00        	.byte0
 5914 1485 0D        	.uleb128 0xd
 5915 1486 0000 12A3 	.long0x12a3
 5916 148a 0000 1495 	.long0x1495
 5917 148e 0E        	.uleb128 0xe
68K GAS   			page 142


 5918 148f 0000 0091 	.long0x91
 5919 1493 03        	.byte0x3
 5920 1494 00        	.byte0
 5921 1495 04        	.uleb128 0x4
 5922 1496 0000 0000 	.long.LASF293
 5923 149a 12        	.byte0x12
 5924 149b 0166      	.word0x166
 5925 149d 0000 12AF 	.long0x12af
 5926 14a1 06        	.uleb128 0x6
 5927 14a2 34        	.byte0x34
 5928 14a3 13        	.byte0x13
 5929 14a4 4C        	.byte0x4c
 5930 14a5 0000 14DA 	.long0x14da
 5931 14a9 07        	.uleb128 0x7
 5932 14aa 0000 0000 	.long.LASF294
 5933 14ae 13        	.byte0x13
 5934 14af 4E        	.byte0x4e
 5935 14b0 0000 0086 	.long0x86
 5936 14b4 00        	.byte0
 5937 14b5 07        	.uleb128 0x7
 5938 14b6 0000 0000 	.long.LASF295
 5939 14ba 13        	.byte0x13
 5940 14bb 4F        	.byte0x4f
 5941 14bc 0000 0086 	.long0x86
 5942 14c0 04        	.byte0x4
 5943 14c1 07        	.uleb128 0x7
 5944 14c2 0000 0000 	.long.LASF296
 5945 14c6 13        	.byte0x13
 5946 14c7 50        	.byte0x50
 5947 14c8 0000 0086 	.long0x86
 5948 14cc 08        	.byte0x8
 5949 14cd 07        	.uleb128 0x7
 5950 14ce 0000 0000 	.long.LASF235
 5951 14d2 13        	.byte0x13
 5952 14d3 51        	.byte0x51
 5953 14d4 0000 0C09 	.long0xc09
 5954 14d8 0C        	.byte0xc
 5955 14d9 00        	.byte0
 5956 14da 02        	.uleb128 0x2
 5957 14db 0000 0000 	.long.LASF297
 5958 14df 13        	.byte0x13
 5959 14e0 52        	.byte0x52
 5960 14e1 0000 14A1 	.long0x14a1
 5961 14e5 1F        	.uleb128 0x1f
 5962 14e6 0000 0000 	.long.LASF298
 5963 14ea 14        	.byte0x14
 5964 14eb 02A7      	.word0x2a7
 5965 14ed 0000 1495 	.long0x1495
 5966 14f1 2C        	.uleb128 0x2c
 5967 14f2 0000 0000 	.long.LASF304
 5968 14f6 01        	.byte0x1
 5969 14f7 0607      	.word0x607
 5970 14f9 0000 0050 	.long0x50
 5971 14fd 0000 0000 	.long.LFB84
 5972 1501 0000 00B0 	.long.LFE84-.LFB84
 5973 1505 01        	.uleb128 0x1
 5974 1506 9C        	.byte0x9c
68K GAS   			page 143


 5975 1507 0000 152A 	.long0x152a
 5976 150b 2D        	.uleb128 0x2d
 5977 150c 0000 0000 	.long.LASF272
 5978 1510 01        	.byte0x1
 5979 1511 0607      	.word0x607
 5980 1513 0000 129D 	.long0x129d
 5981 1517 02        	.uleb128 0x2
 5982 1518 91        	.byte0x91
 5983 1519 00        	.sleb128 0
 5984 151a 2E        	.uleb128 0x2e
 5985 151b 0000 0000 	.long.LASF299
 5986 151f 01        	.byte0x1
 5987 1520 0609      	.word0x609
 5988 1522 0000 0050 	.long0x50
 5989 1526 02        	.uleb128 0x2
 5990 1527 91        	.byte0x91
 5991 1528 78        	.sleb128 -8
 5992 1529 00        	.byte0
 5993 152a 2F        	.uleb128 0x2f
 5994 152b 0000 0000 	.long.LASF301
 5995 152f 01        	.byte0x1
 5996 1530 05D1      	.word0x5d1
 5997 1532 0000 0000 	.long.LFB83
 5998 1536 0000 0194 	.long.LFE83-.LFB83
 5999 153a 01        	.uleb128 0x1
 6000 153b 9C        	.byte0x9c
 6001 153c 0000 156E 	.long0x156e
 6002 1540 2D        	.uleb128 0x2d
 6003 1541 0000 0000 	.long.LASF272
 6004 1545 01        	.byte0x1
 6005 1546 05D1      	.word0x5d1
 6006 1548 0000 129D 	.long0x129d
 6007 154c 02        	.uleb128 0x2
 6008 154d 91        	.byte0x91
 6009 154e 00        	.sleb128 0
 6010 154f 2E        	.uleb128 0x2e
 6011 1550 0000 0000 	.long.LASF300
 6012 1554 01        	.byte0x1
 6013 1555 05D3      	.word0x5d3
 6014 1557 0000 156E 	.long0x156e
 6015 155b 02        	.uleb128 0x2
 6016 155c 91        	.byte0x91
 6017 155d 74        	.sleb128 -12
 6018 155e 2E        	.uleb128 0x2e
 6019 155f 0000 0000 	.long.LASF299
 6020 1563 01        	.byte0x1
 6021 1564 05D5      	.word0x5d5
 6022 1566 0000 0050 	.long0x50
 6023 156a 02        	.uleb128 0x2
 6024 156b 91        	.byte0x91
 6025 156c 78        	.sleb128 -8
 6026 156d 00        	.byte0
 6027 156e 09        	.uleb128 0x9
 6028 156f 04        	.byte0x4
 6029 1570 0000 1242 	.long0x1242
 6030 1574 30        	.uleb128 0x30
 6031 1575 0000 0000 	.long.LASF302
68K GAS   			page 144


 6032 1579 01        	.byte0x1
 6033 157a 05B8      	.word0x5b8
 6034 157c 0000 0000 	.long.LFB82
 6035 1580 0000 0046 	.long.LFE82-.LFB82
 6036 1584 01        	.uleb128 0x1
 6037 1585 9C        	.byte0x9c
 6038 1586 0000 15B6 	.long0x15b6
 6039 158a 2D        	.uleb128 0x2d
 6040 158b 0000 0000 	.long.LASF300
 6041 158f 01        	.byte0x1
 6042 1590 05B8      	.word0x5b8
 6043 1592 0000 15B6 	.long0x15b6
 6044 1596 02        	.uleb128 0x2
 6045 1597 91        	.byte0x91
 6046 1598 00        	.sleb128 0
 6047 1599 2D        	.uleb128 0x2d
 6048 159a 0000 0000 	.long.LASF303
 6049 159e 01        	.byte0x1
 6050 159f 05B8      	.word0x5b8
 6051 15a1 0000 0A77 	.long0xa77
 6052 15a5 02        	.uleb128 0x2
 6053 15a6 91        	.byte0x91
 6054 15a7 04        	.sleb128 4
 6055 15a8 31        	.uleb128 0x31
 6056 15a9 6900      	.string"i"
 6057 15ab 01        	.byte0x1
 6058 15ac 05BA      	.word0x5ba
 6059 15ae 0000 0086 	.long0x86
 6060 15b2 02        	.uleb128 0x2
 6061 15b3 91        	.byte0x91
 6062 15b4 78        	.sleb128 -8
 6063 15b5 00        	.byte0
 6064 15b6 09        	.uleb128 0x9
 6065 15b7 04        	.byte0x4
 6066 15b8 0000 156E 	.long0x156e
 6067 15bc 2C        	.uleb128 0x2c
 6068 15bd 0000 0000 	.long.LASF305
 6069 15c1 01        	.byte0x1
 6070 15c2 0579      	.word0x579
 6071 15c4 0000 0050 	.long0x50
 6072 15c8 0000 0000 	.long.LFB81
 6073 15cc 0000 0108 	.long.LFE81-.LFB81
 6074 15d0 01        	.uleb128 0x1
 6075 15d1 9C        	.byte0x9c
 6076 15d2 0000 1611 	.long0x1611
 6077 15d6 2D        	.uleb128 0x2d
 6078 15d7 0000 0000 	.long.LASF245
 6079 15db 01        	.byte0x1
 6080 15dc 0579      	.word0x579
 6081 15de 0000 0086 	.long0x86
 6082 15e2 02        	.uleb128 0x2
 6083 15e3 91        	.byte0x91
 6084 15e4 00        	.sleb128 0
 6085 15e5 31        	.uleb128 0x31
 6086 15e6 6900      	.string"i"
 6087 15e8 01        	.byte0x1
 6088 15e9 057B      	.word0x57b
68K GAS   			page 145


 6089 15eb 0000 0086 	.long0x86
 6090 15ef 02        	.uleb128 0x2
 6091 15f0 91        	.byte0x91
 6092 15f1 78        	.sleb128 -8
 6093 15f2 2E        	.uleb128 0x2e
 6094 15f3 0000 0000 	.long.LASF272
 6095 15f7 01        	.byte0x1
 6096 15f8 057C      	.word0x57c
 6097 15fa 0000 129D 	.long0x129d
 6098 15fe 02        	.uleb128 0x2
 6099 15ff 91        	.byte0x91
 6100 1600 74        	.sleb128 -12
 6101 1601 2E        	.uleb128 0x2e
 6102 1602 0000 0000 	.long.LASF306
 6103 1606 01        	.byte0x1
 6104 1607 057D      	.word0x57d
 6105 1609 0000 1611 	.long0x1611
 6106 160d 02        	.uleb128 0x2
 6107 160e 91        	.byte0x91
 6108 160f 70        	.sleb128 -16
 6109 1610 00        	.byte0
 6110 1611 09        	.uleb128 0x9
 6111 1612 04        	.byte0x4
 6112 1613 0000 1094 	.long0x1094
 6113 1617 30        	.uleb128 0x30
 6114 1618 0000 0000 	.long.LASF307
 6115 161c 01        	.byte0x1
 6116 161d 0566      	.word0x566
 6117 161f 0000 0000 	.long.LFB80
 6118 1623 0000 0062 	.long.LFE80-.LFB80
 6119 1627 01        	.uleb128 0x1
 6120 1628 9C        	.byte0x9c
 6121 1629 0000 166A 	.long0x166a
 6122 162d 2D        	.uleb128 0x2d
 6123 162e 0000 0000 	.long.LASF308
 6124 1632 01        	.byte0x1
 6125 1633 0566      	.word0x566
 6126 1635 0000 166A 	.long0x166a
 6127 1639 02        	.uleb128 0x2
 6128 163a 91        	.byte0x91
 6129 163b 00        	.sleb128 0
 6130 163c 2E        	.uleb128 0x2e
 6131 163d 0000 0000 	.long.LASF309
 6132 1641 01        	.byte0x1
 6133 1642 0568      	.word0x568
 6134 1644 0000 0050 	.long0x50
 6135 1648 02        	.uleb128 0x2
 6136 1649 91        	.byte0x91
 6137 164a 70        	.sleb128 -16
 6138 164b 2E        	.uleb128 0x2e
 6139 164c 0000 0000 	.long.LASF310
 6140 1650 01        	.byte0x1
 6141 1651 0569      	.word0x569
 6142 1653 0000 06DF 	.long0x6df
 6143 1657 02        	.uleb128 0x2
 6144 1658 91        	.byte0x91
 6145 1659 78        	.sleb128 -8
68K GAS   			page 146


 6146 165a 2E        	.uleb128 0x2e
 6147 165b 0000 0000 	.long.LASF311
 6148 165f 01        	.byte0x1
 6149 1660 056A      	.word0x56a
 6150 1662 0000 06DF 	.long0x6df
 6151 1666 02        	.uleb128 0x2
 6152 1667 91        	.byte0x91
 6153 1668 74        	.sleb128 -12
 6154 1669 00        	.byte0
 6155 166a 09        	.uleb128 0x9
 6156 166b 04        	.byte0x4
 6157 166c 0000 0086 	.long0x86
 6158 1670 2F        	.uleb128 0x2f
 6159 1671 0000 0000 	.long.LASF312
 6160 1675 01        	.byte0x1
 6161 1676 0557      	.word0x557
 6162 1678 0000 0000 	.long.LFB79
 6163 167c 0000 0032 	.long.LFE79-.LFB79
 6164 1680 01        	.uleb128 0x1
 6165 1681 9C        	.byte0x9c
 6166 1682 0000 1696 	.long0x1696
 6167 1686 2D        	.uleb128 0x2d
 6168 1687 0000 0000 	.long.LASF313
 6169 168b 01        	.byte0x1
 6170 168c 0557      	.word0x557
 6171 168e 0000 1696 	.long0x1696
 6172 1692 02        	.uleb128 0x2
 6173 1693 91        	.byte0x91
 6174 1694 00        	.sleb128 0
 6175 1695 00        	.byte0
 6176 1696 09        	.uleb128 0x9
 6177 1697 04        	.byte0x4
 6178 1698 0000 14DA 	.long0x14da
 6179 169c 2C        	.uleb128 0x2c
 6180 169d 0000 0000 	.long.LASF314
 6181 16a1 01        	.byte0x1
 6182 16a2 04B9      	.word0x4b9
 6183 16a4 0000 0050 	.long0x50
 6184 16a8 0000 0000 	.long.LFB78
 6185 16ac 0000 0172 	.long.LFE78-.LFB78
 6186 16b0 01        	.uleb128 0x1
 6187 16b1 9C        	.byte0x9c
 6188 16b2 0000 1711 	.long0x1711
 6189 16b6 2D        	.uleb128 0x2d
 6190 16b7 0000 0000 	.long.LASF315
 6191 16bb 01        	.byte0x1
 6192 16bc 04B9      	.word0x4b9
 6193 16be 0000 0050 	.long0x50
 6194 16c2 02        	.uleb128 0x2
 6195 16c3 91        	.byte0x91
 6196 16c4 00        	.sleb128 0
 6197 16c5 2D        	.uleb128 0x2d
 6198 16c6 0000 0000 	.long.LASF316
 6199 16ca 01        	.byte0x1
 6200 16cb 04BA      	.word0x4ba
 6201 16cd 0000 1711 	.long0x1711
 6202 16d1 02        	.uleb128 0x2
68K GAS   			page 147


 6203 16d2 91        	.byte0x91
 6204 16d3 04        	.sleb128 4
 6205 16d4 2D        	.uleb128 0x2d
 6206 16d5 0000 0000 	.long.LASF317
 6207 16d9 01        	.byte0x1
 6208 16da 04BB      	.word0x4bb
 6209 16dc 0000 1696 	.long0x1696
 6210 16e0 02        	.uleb128 0x2
 6211 16e1 91        	.byte0x91
 6212 16e2 08        	.sleb128 8
 6213 16e3 2D        	.uleb128 0x2d
 6214 16e4 0000 0000 	.long.LASF318
 6215 16e8 01        	.byte0x1
 6216 16e9 04BC      	.word0x4bc
 6217 16eb 0000 01F4 	.long0x1f4
 6218 16ef 02        	.uleb128 0x2
 6219 16f0 91        	.byte0x91
 6220 16f1 0C        	.sleb128 12
 6221 16f2 2E        	.uleb128 0x2e
 6222 16f3 0000 0000 	.long.LASF299
 6223 16f7 01        	.byte0x1
 6224 16f8 04BE      	.word0x4be
 6225 16fa 0000 0050 	.long0x50
 6226 16fe 02        	.uleb128 0x2
 6227 16ff 91        	.byte0x91
 6228 1700 78        	.sleb128 -8
 6229 1701 2E        	.uleb128 0x2e
 6230 1702 0000 0000 	.long.LASF319
 6231 1706 01        	.byte0x1
 6232 1707 04BF      	.word0x4bf
 6233 1709 0000 0050 	.long0x50
 6234 170d 02        	.uleb128 0x2
 6235 170e 91        	.byte0x91
 6236 170f 74        	.sleb128 -12
 6237 1710 00        	.byte0
 6238 1711 09        	.uleb128 0x9
 6239 1712 04        	.byte0x4
 6240 1713 0000 0BFE 	.long0xbfe
 6241 1717 2F        	.uleb128 0x2f
 6242 1718 0000 0000 	.long.LASF320
 6243 171c 01        	.byte0x1
 6244 171d 049E      	.word0x49e
 6245 171f 0000 0000 	.long.LFB77
 6246 1723 0000 007C 	.long.LFE77-.LFB77
 6247 1727 01        	.uleb128 0x1
 6248 1728 9C        	.byte0x9c
 6249 1729 0000 174C 	.long0x174c
 6250 172d 2D        	.uleb128 0x2d
 6251 172e 0000 0000 	.long.LASF272
 6252 1732 01        	.byte0x1
 6253 1733 049E      	.word0x49e
 6254 1735 0000 129D 	.long0x129d
 6255 1739 02        	.uleb128 0x2
 6256 173a 91        	.byte0x91
 6257 173b 00        	.sleb128 0
 6258 173c 2E        	.uleb128 0x2e
 6259 173d 0000 0000 	.long.LASF321
68K GAS   			page 148


 6260 1741 01        	.byte0x1
 6261 1742 04A0      	.word0x4a0
 6262 1744 0000 0117 	.long0x117
 6263 1748 02        	.uleb128 0x2
 6264 1749 91        	.byte0x91
 6265 174a 7A        	.sleb128 -6
 6266 174b 00        	.byte0
 6267 174c 2C        	.uleb128 0x2c
 6268 174d 0000 0000 	.long.LASF322
 6269 1751 01        	.byte0x1
 6270 1752 0438      	.word0x438
 6271 1754 0000 0050 	.long0x50
 6272 1758 0000 0000 	.long.LFB76
 6273 175c 0000 02A8 	.long.LFE76-.LFB76
 6274 1760 01        	.uleb128 0x1
 6275 1761 9C        	.byte0x9c
 6276 1762 0000 17C1 	.long0x17c1
 6277 1766 2D        	.uleb128 0x2d
 6278 1767 0000 0000 	.long.LASF323
 6279 176b 01        	.byte0x1
 6280 176c 0438      	.word0x438
 6281 176e 0000 0117 	.long0x117
 6282 1772 02        	.uleb128 0x2
 6283 1773 91        	.byte0x91
 6284 1774 70        	.sleb128 -16
 6285 1775 2D        	.uleb128 0x2d
 6286 1776 0000 0000 	.long.LASF272
 6287 177a 01        	.byte0x1
 6288 177b 0439      	.word0x439
 6289 177d 0000 129D 	.long0x129d
 6290 1781 02        	.uleb128 0x2
 6291 1782 91        	.byte0x91
 6292 1783 04        	.sleb128 4
 6293 1784 2D        	.uleb128 0x2d
 6294 1785 0000 0000 	.long.LASF306
 6295 1789 01        	.byte0x1
 6296 178a 043A      	.word0x43a
 6297 178c 0000 1611 	.long0x1611
 6298 1790 02        	.uleb128 0x2
 6299 1791 91        	.byte0x91
 6300 1792 08        	.sleb128 8
 6301 1793 2E        	.uleb128 0x2e
 6302 1794 0000 0000 	.long.LASF299
 6303 1798 01        	.byte0x1
 6304 1799 043C      	.word0x43c
 6305 179b 0000 0050 	.long0x50
 6306 179f 02        	.uleb128 0x2
 6307 17a0 91        	.byte0x91
 6308 17a1 78        	.sleb128 -8
 6309 17a2 2E        	.uleb128 0x2e
 6310 17a3 0000 0000 	.long.LASF321
 6311 17a7 01        	.byte0x1
 6312 17a8 043D      	.word0x43d
 6313 17aa 0000 0117 	.long0x117
 6314 17ae 02        	.uleb128 0x2
 6315 17af 91        	.byte0x91
 6316 17b0 76        	.sleb128 -10
68K GAS   			page 149


 6317 17b1 2E        	.uleb128 0x2e
 6318 17b2 0000 0000 	.long.LASF324
 6319 17b6 01        	.byte0x1
 6320 17b7 043E      	.word0x43e
 6321 17b9 0000 00AA 	.long0xaa
 6322 17bd 02        	.uleb128 0x2
 6323 17be 91        	.byte0x91
 6324 17bf 75        	.sleb128 -11
 6325 17c0 00        	.byte0
 6326 17c1 2C        	.uleb128 0x2c
 6327 17c2 0000 0000 	.long.LASF325
 6328 17c6 01        	.byte0x1
 6329 17c7 03CE      	.word0x3ce
 6330 17c9 0000 0050 	.long0x50
 6331 17cd 0000 0000 	.long.LFB75
 6332 17d1 0000 0200 	.long.LFE75-.LFB75
 6333 17d5 01        	.uleb128 0x1
 6334 17d6 9C        	.byte0x9c
 6335 17d7 0000 1875 	.long0x1875
 6336 17db 2D        	.uleb128 0x2d
 6337 17dc 0000 0000 	.long.LASF326
 6338 17e0 01        	.byte0x1
 6339 17e1 03CE      	.word0x3ce
 6340 17e3 0000 1297 	.long0x1297
 6341 17e7 02        	.uleb128 0x2
 6342 17e8 91        	.byte0x91
 6343 17e9 00        	.sleb128 0
 6344 17ea 2D        	.uleb128 0x2d
 6345 17eb 0000 0000 	.long.LASF272
 6346 17ef 01        	.byte0x1
 6347 17f0 03CF      	.word0x3cf
 6348 17f2 0000 129D 	.long0x129d
 6349 17f6 02        	.uleb128 0x2
 6350 17f7 91        	.byte0x91
 6351 17f8 04        	.sleb128 4
 6352 17f9 2D        	.uleb128 0x2d
 6353 17fa 0000 0000 	.long.LASF327
 6354 17fe 01        	.byte0x1
 6355 17ff 03D0      	.word0x3d0
 6356 1801 0000 01F4 	.long0x1f4
 6357 1805 02        	.uleb128 0x2
 6358 1806 91        	.byte0x91
 6359 1807 08        	.sleb128 8
 6360 1808 2E        	.uleb128 0x2e
 6361 1809 0000 0000 	.long.LASF299
 6362 180d 01        	.byte0x1
 6363 180e 03D2      	.word0x3d2
 6364 1810 0000 0050 	.long0x50
 6365 1814 02        	.uleb128 0x2
 6366 1815 91        	.byte0x91
 6367 1816 78        	.sleb128 -8
 6368 1817 2E        	.uleb128 0x2e
 6369 1818 0000 0000 	.long.LASF328
 6370 181c 01        	.byte0x1
 6371 181d 03D3      	.word0x3d3
 6372 181f 0000 0BFE 	.long0xbfe
 6373 1823 03        	.uleb128 0x3
68K GAS   			page 150


 6374 1824 91        	.byte0x91
 6375 1825 AC7F      	.sleb128 -84
 6376 1827 2E        	.uleb128 0x2e
 6377 1828 0000 0000 	.long.LASF329
 6378 182c 01        	.byte0x1
 6379 182d 03D4      	.word0x3d4
 6380 182f 0000 14DA 	.long0x14da
 6381 1833 03        	.uleb128 0x3
 6382 1834 91        	.byte0x91
 6383 1835 F87E      	.sleb128 -136
 6384 1837 2E        	.uleb128 0x2e
 6385 1838 0000 0000 	.long.LASF315
 6386 183c 01        	.byte0x1
 6387 183d 03D5      	.word0x3d5
 6388 183f 0000 0050 	.long0x50
 6389 1843 02        	.uleb128 0x2
 6390 1844 91        	.byte0x91
 6391 1845 70        	.sleb128 -16
 6392 1846 2E        	.uleb128 0x2e
 6393 1847 0000 0000 	.long.LASF330
 6394 184b 01        	.byte0x1
 6395 184c 03D6      	.word0x3d6
 6396 184e 0000 0154 	.long0x154
 6397 1852 02        	.uleb128 0x2
 6398 1853 91        	.byte0x91
 6399 1854 74        	.sleb128 -12
 6400 1855 2E        	.uleb128 0x2e
 6401 1856 0000 0000 	.long.LASF296
 6402 185a 01        	.byte0x1
 6403 185b 03D7      	.word0x3d7
 6404 185d 0000 0086 	.long0x86
 6405 1861 02        	.uleb128 0x2
 6406 1862 91        	.byte0x91
 6407 1863 6C        	.sleb128 -20
 6408 1864 2E        	.uleb128 0x2e
 6409 1865 0000 0000 	.long.LASF331
 6410 1869 01        	.byte0x1
 6411 186a 03D8      	.word0x3d8
 6412 186c 0000 0069 	.long0x69
 6413 1870 03        	.uleb128 0x3
 6414 1871 91        	.byte0x91
 6415 1872 F77E      	.sleb128 -137
 6416 1874 00        	.byte0
 6417 1875 2C        	.uleb128 0x2c
 6418 1876 0000 0000 	.long.LASF332
 6419 187a 01        	.byte0x1
 6420 187b 0344      	.word0x344
 6421 187d 0000 0050 	.long0x50
 6422 1881 0000 0000 	.long.LFB74
 6423 1885 0000 0316 	.long.LFE74-.LFB74
 6424 1889 01        	.uleb128 0x1
 6425 188a 9C        	.byte0x9c
 6426 188b 0000 18F7 	.long0x18f7
 6427 188f 2D        	.uleb128 0x2d
 6428 1890 0000 0000 	.long.LASF326
 6429 1894 01        	.byte0x1
 6430 1895 0344      	.word0x344
68K GAS   			page 151


 6431 1897 0000 18F7 	.long0x18f7
 6432 189b 02        	.uleb128 0x2
 6433 189c 91        	.byte0x91
 6434 189d 00        	.sleb128 0
 6435 189e 2D        	.uleb128 0x2d
 6436 189f 0000 0000 	.long.LASF272
 6437 18a3 01        	.byte0x1
 6438 18a4 0345      	.word0x345
 6439 18a6 0000 129D 	.long0x129d
 6440 18aa 02        	.uleb128 0x2
 6441 18ab 91        	.byte0x91
 6442 18ac 04        	.sleb128 4
 6443 18ad 2D        	.uleb128 0x2d
 6444 18ae 0000 0000 	.long.LASF333
 6445 18b2 01        	.byte0x1
 6446 18b3 0346      	.word0x346
 6447 18b5 0000 00AA 	.long0xaa
 6448 18b9 02        	.uleb128 0x2
 6449 18ba 91        	.byte0x91
 6450 18bb 68        	.sleb128 -24
 6451 18bc 2E        	.uleb128 0x2e
 6452 18bd 0000 0000 	.long.LASF299
 6453 18c1 01        	.byte0x1
 6454 18c2 0348      	.word0x348
 6455 18c4 0000 0050 	.long0x50
 6456 18c8 02        	.uleb128 0x2
 6457 18c9 91        	.byte0x91
 6458 18ca 78        	.sleb128 -8
 6459 18cb 31        	.uleb128 0x31
 6460 18cc 6900      	.string"i"
 6461 18ce 01        	.byte0x1
 6462 18cf 0349      	.word0x349
 6463 18d1 0000 0050 	.long0x50
 6464 18d5 02        	.uleb128 0x2
 6465 18d6 91        	.byte0x91
 6466 18d7 74        	.sleb128 -12
 6467 18d8 2E        	.uleb128 0x2e
 6468 18d9 0000 0000 	.long.LASF334
 6469 18dd 01        	.byte0x1
 6470 18de 034A      	.word0x34a
 6471 18e0 0000 0050 	.long0x50
 6472 18e4 02        	.uleb128 0x2
 6473 18e5 91        	.byte0x91
 6474 18e6 6C        	.sleb128 -20
 6475 18e7 2E        	.uleb128 0x2e
 6476 18e8 0000 0000 	.long.LASF321
 6477 18ec 01        	.byte0x1
 6478 18ed 034B      	.word0x34b
 6479 18ef 0000 0117 	.long0x117
 6480 18f3 02        	.uleb128 0x2
 6481 18f4 91        	.byte0x91
 6482 18f5 72        	.sleb128 -14
 6483 18f6 00        	.byte0
 6484 18f7 09        	.uleb128 0x9
 6485 18f8 04        	.byte0x4
 6486 18f9 0000 1297 	.long0x1297
 6487 18fd 2C        	.uleb128 0x2c
68K GAS   			page 152


 6488 18fe 0000 0000 	.long.LASF335
 6489 1902 01        	.byte0x1
 6490 1903 032C      	.word0x32c
 6491 1905 0000 0050 	.long0x50
 6492 1909 0000 0000 	.long.LFB73
 6493 190d 0000 0020 	.long.LFE73-.LFB73
 6494 1911 01        	.uleb128 0x1
 6495 1912 9C        	.byte0x9c
 6496 1913 0000 1927 	.long0x1927
 6497 1917 2E        	.uleb128 0x2e
 6498 1918 0000 0000 	.long.LASF299
 6499 191c 01        	.byte0x1
 6500 191d 032E      	.word0x32e
 6501 191f 0000 0050 	.long0x50
 6502 1923 02        	.uleb128 0x2
 6503 1924 91        	.byte0x91
 6504 1925 78        	.sleb128 -8
 6505 1926 00        	.byte0
 6506 1927 2C        	.uleb128 0x2c
 6507 1928 0000 0000 	.long.LASF336
 6508 192c 01        	.byte0x1
 6509 192d 0314      	.word0x314
 6510 192f 0000 0050 	.long0x50
 6511 1933 0000 0000 	.long.LFB72
 6512 1937 0000 0020 	.long.LFE72-.LFB72
 6513 193b 01        	.uleb128 0x1
 6514 193c 9C        	.byte0x9c
 6515 193d 0000 1951 	.long0x1951
 6516 1941 2E        	.uleb128 0x2e
 6517 1942 0000 0000 	.long.LASF299
 6518 1946 01        	.byte0x1
 6519 1947 0316      	.word0x316
 6520 1949 0000 0050 	.long0x50
 6521 194d 02        	.uleb128 0x2
 6522 194e 91        	.byte0x91
 6523 194f 78        	.sleb128 -8
 6524 1950 00        	.byte0
 6525 1951 2F        	.uleb128 0x2f
 6526 1952 0000 0000 	.long.LASF337
 6527 1956 01        	.byte0x1
 6528 1957 02FD      	.word0x2fd
 6529 1959 0000 0000 	.long.LFB71
 6530 195d 0000 0048 	.long.LFE71-.LFB71
 6531 1961 01        	.uleb128 0x1
 6532 1962 9C        	.byte0x9c
 6533 1963 0000 19A4 	.long0x19a4
 6534 1967 2D        	.uleb128 0x2d
 6535 1968 0000 0000 	.long.LASF338
 6536 196c 01        	.byte0x1
 6537 196d 02FD      	.word0x2fd
 6538 196f 0000 06DF 	.long0x6df
 6539 1973 02        	.uleb128 0x2
 6540 1974 91        	.byte0x91
 6541 1975 00        	.sleb128 0
 6542 1976 2D        	.uleb128 0x2d
 6543 1977 0000 0000 	.long.LASF339
 6544 197b 01        	.byte0x1
68K GAS   			page 153


 6545 197c 02FD      	.word0x2fd
 6546 197e 0000 01F4 	.long0x1f4
 6547 1982 02        	.uleb128 0x2
 6548 1983 91        	.byte0x91
 6549 1984 04        	.sleb128 4
 6550 1985 2D        	.uleb128 0x2d
 6551 1986 0000 0000 	.long.LASF340
 6552 198a 01        	.byte0x1
 6553 198b 02FD      	.word0x2fd
 6554 198d 0000 0086 	.long0x86
 6555 1991 02        	.uleb128 0x2
 6556 1992 91        	.byte0x91
 6557 1993 08        	.sleb128 8
 6558 1994 2E        	.uleb128 0x2e
 6559 1995 0000 0000 	.long.LASF341
 6560 1999 01        	.byte0x1
 6561 199a 02FF      	.word0x2ff
 6562 199c 0000 0139 	.long0x139
 6563 19a0 02        	.uleb128 0x2
 6564 19a1 91        	.byte0x91
 6565 19a2 68        	.sleb128 -24
 6566 19a3 00        	.byte0
 6567 19a4 32        	.uleb128 0x32
 6568 19a5 0000 0000 	.long.LASF342
 6569 19a9 01        	.byte0x1
 6570 19aa 02E1      	.word0x2e1
 6571 19ac 0000 0117 	.long0x117
 6572 19b0 0000 0000 	.long.LFB70
 6573 19b4 0000 004A 	.long.LFE70-.LFB70
 6574 19b8 01        	.uleb128 0x1
 6575 19b9 9C        	.byte0x9c
 6576 19ba 0000 19DB 	.long0x19db
 6577 19be 2E        	.uleb128 0x2e
 6578 19bf 0000 0000 	.long.LASF343
 6579 19c3 01        	.byte0x1
 6580 19c4 02E3      	.word0x2e3
 6581 19c6 0000 0117 	.long0x117
 6582 19ca 02        	.uleb128 0x2
 6583 19cb 91        	.byte0x91
 6584 19cc 7A        	.sleb128 -6
 6585 19cd 31        	.uleb128 0x31
 6586 19ce 6900      	.string"i"
 6587 19d0 01        	.byte0x1
 6588 19d1 02E4      	.word0x2e4
 6589 19d3 0000 003E 	.long0x3e
 6590 19d7 02        	.uleb128 0x2
 6591 19d8 91        	.byte0x91
 6592 19d9 78        	.sleb128 -8
 6593 19da 00        	.byte0
 6594 19db 32        	.uleb128 0x32
 6595 19dc 0000 0000 	.long.LASF344
 6596 19e0 01        	.byte0x1
 6597 19e1 02C2      	.word0x2c2
 6598 19e3 0000 003E 	.long0x3e
 6599 19e7 0000 0000 	.long.LFB69
 6600 19eb 0000 0072 	.long.LFE69-.LFB69
 6601 19ef 01        	.uleb128 0x1
68K GAS   			page 154


 6602 19f0 9C        	.byte0x9c
 6603 19f1 0000 1A12 	.long0x1a12
 6604 19f5 2E        	.uleb128 0x2e
 6605 19f6 0000 0000 	.long.LASF345
 6606 19fa 01        	.byte0x1
 6607 19fb 02C4      	.word0x2c4
 6608 19fd 0000 003E 	.long0x3e
 6609 1a01 02        	.uleb128 0x2
 6610 1a02 91        	.byte0x91
 6611 1a03 7A        	.sleb128 -6
 6612 1a04 31        	.uleb128 0x31
 6613 1a05 6900      	.string"i"
 6614 1a07 01        	.byte0x1
 6615 1a08 02C5      	.word0x2c5
 6616 1a0a 0000 003E 	.long0x3e
 6617 1a0e 02        	.uleb128 0x2
 6618 1a0f 91        	.byte0x91
 6619 1a10 78        	.sleb128 -8
 6620 1a11 00        	.byte0
 6621 1a12 2C        	.uleb128 0x2c
 6622 1a13 0000 0000 	.long.LASF346
 6623 1a17 01        	.byte0x1
 6624 1a18 02A1      	.word0x2a1
 6625 1a1a 0000 003E 	.long0x3e
 6626 1a1e 0000 0000 	.long.LFB68
 6627 1a22 0000 007E 	.long.LFE68-.LFB68
 6628 1a26 01        	.uleb128 0x1
 6629 1a27 9C        	.byte0x9c
 6630 1a28 0000 1A58 	.long0x1a58
 6631 1a2c 2D        	.uleb128 0x2d
 6632 1a2d 0000 0000 	.long.LASF339
 6633 1a31 01        	.byte0x1
 6634 1a32 02A1      	.word0x2a1
 6635 1a34 0000 01F4 	.long0x1f4
 6636 1a38 02        	.uleb128 0x2
 6637 1a39 91        	.byte0x91
 6638 1a3a 00        	.sleb128 0
 6639 1a3b 2E        	.uleb128 0x2e
 6640 1a3c 0000 0000 	.long.LASF345
 6641 1a40 01        	.byte0x1
 6642 1a41 02A3      	.word0x2a3
 6643 1a43 0000 003E 	.long0x3e
 6644 1a47 02        	.uleb128 0x2
 6645 1a48 91        	.byte0x91
 6646 1a49 7A        	.sleb128 -6
 6647 1a4a 31        	.uleb128 0x31
 6648 1a4b 6900      	.string"i"
 6649 1a4d 01        	.byte0x1
 6650 1a4e 02A4      	.word0x2a4
 6651 1a50 0000 003E 	.long0x3e
 6652 1a54 02        	.uleb128 0x2
 6653 1a55 91        	.byte0x91
 6654 1a56 78        	.sleb128 -8
 6655 1a57 00        	.byte0
 6656 1a58 32        	.uleb128 0x32
 6657 1a59 0000 0000 	.long.LASF347
 6658 1a5d 01        	.byte0x1
68K GAS   			page 155


 6659 1a5e 0285      	.word0x285
 6660 1a60 0000 0050 	.long0x50
 6661 1a64 0000 0000 	.long.LFB67
 6662 1a68 0000 0086 	.long.LFE67-.LFB67
 6663 1a6c 01        	.uleb128 0x1
 6664 1a6d 9C        	.byte0x9c
 6665 1a6e 0000 1AAF 	.long0x1aaf
 6666 1a72 2D        	.uleb128 0x2d
 6667 1a73 0000 0000 	.long.LASF323
 6668 1a77 01        	.byte0x1
 6669 1a78 0285      	.word0x285
 6670 1a7a 0000 0117 	.long0x117
 6671 1a7e 02        	.uleb128 0x2
 6672 1a7f 91        	.byte0x91
 6673 1a80 6C        	.sleb128 -20
 6674 1a81 2E        	.uleb128 0x2e
 6675 1a82 0000 0000 	.long.LASF299
 6676 1a86 01        	.byte0x1
 6677 1a87 0287      	.word0x287
 6678 1a89 0000 0050 	.long0x50
 6679 1a8d 02        	.uleb128 0x2
 6680 1a8e 91        	.byte0x91
 6681 1a8f 78        	.sleb128 -8
 6682 1a90 2E        	.uleb128 0x2e
 6683 1a91 0000 0000 	.long.LASF306
 6684 1a95 01        	.byte0x1
 6685 1a96 0288      	.word0x288
 6686 1a98 0000 1611 	.long0x1611
 6687 1a9c 02        	.uleb128 0x2
 6688 1a9d 91        	.byte0x91
 6689 1a9e 74        	.sleb128 -12
 6690 1a9f 2E        	.uleb128 0x2e
 6691 1aa0 0000 0000 	.long.LASF272
 6692 1aa4 01        	.byte0x1
 6693 1aa5 0289      	.word0x289
 6694 1aa7 0000 129D 	.long0x129d
 6695 1aab 02        	.uleb128 0x2
 6696 1aac 91        	.byte0x91
 6697 1aad 70        	.sleb128 -16
 6698 1aae 00        	.byte0
 6699 1aaf 2C        	.uleb128 0x2c
 6700 1ab0 0000 0000 	.long.LASF348
 6701 1ab4 01        	.byte0x1
 6702 1ab5 023D      	.word0x23d
 6703 1ab7 0000 0050 	.long0x50
 6704 1abb 0000 0000 	.long.LFB66
 6705 1abf 0000 016A 	.long.LFE66-.LFB66
 6706 1ac3 01        	.uleb128 0x1
 6707 1ac4 9C        	.byte0x9c
 6708 1ac5 0000 1B24 	.long0x1b24
 6709 1ac9 2D        	.uleb128 0x2d
 6710 1aca 0000 0000 	.long.LASF349
 6711 1ace 01        	.byte0x1
 6712 1acf 023D      	.word0x23d
 6713 1ad1 0000 1B24 	.long0x1b24
 6714 1ad5 02        	.uleb128 0x2
 6715 1ad6 91        	.byte0x91
68K GAS   			page 156


 6716 1ad7 00        	.sleb128 0
 6717 1ad8 2D        	.uleb128 0x2d
 6718 1ad9 0000 0000 	.long.LASF323
 6719 1add 01        	.byte0x1
 6720 1ade 023D      	.word0x23d
 6721 1ae0 0000 0117 	.long0x117
 6722 1ae4 02        	.uleb128 0x2
 6723 1ae5 91        	.byte0x91
 6724 1ae6 6C        	.sleb128 -20
 6725 1ae7 2D        	.uleb128 0x2d
 6726 1ae8 0000 0000 	.long.LASF340
 6727 1aec 01        	.byte0x1
 6728 1aed 023D      	.word0x23d
 6729 1aef 0000 0086 	.long0x86
 6730 1af3 02        	.uleb128 0x2
 6731 1af4 91        	.byte0x91
 6732 1af5 08        	.sleb128 8
 6733 1af6 2E        	.uleb128 0x2e
 6734 1af7 0000 0000 	.long.LASF299
 6735 1afb 01        	.byte0x1
 6736 1afc 023F      	.word0x23f
 6737 1afe 0000 0050 	.long0x50
 6738 1b02 02        	.uleb128 0x2
 6739 1b03 91        	.byte0x91
 6740 1b04 78        	.sleb128 -8
 6741 1b05 2E        	.uleb128 0x2e
 6742 1b06 0000 0000 	.long.LASF306
 6743 1b0a 01        	.byte0x1
 6744 1b0b 0240      	.word0x240
 6745 1b0d 0000 1611 	.long0x1611
 6746 1b11 02        	.uleb128 0x2
 6747 1b12 91        	.byte0x91
 6748 1b13 74        	.sleb128 -12
 6749 1b14 2E        	.uleb128 0x2e
 6750 1b15 0000 0000 	.long.LASF272
 6751 1b19 01        	.byte0x1
 6752 1b1a 0241      	.word0x241
 6753 1b1c 0000 129D 	.long0x129d
 6754 1b20 02        	.uleb128 0x2
 6755 1b21 91        	.byte0x91
 6756 1b22 70        	.sleb128 -16
 6757 1b23 00        	.byte0
 6758 1b24 09        	.uleb128 0x9
 6759 1b25 04        	.byte0x4
 6760 1b26 0000 0115 	.long0x115
 6761 1b2a 2C        	.uleb128 0x2c
 6762 1b2b 0000 0000 	.long.LASF350
 6763 1b2f 01        	.byte0x1
 6764 1b30 01E0      	.word0x1e0
 6765 1b32 0000 0050 	.long0x50
 6766 1b36 0000 0000 	.long.LFB65
 6767 1b3a 0000 0220 	.long.LFE65-.LFB65
 6768 1b3e 01        	.uleb128 0x1
 6769 1b3f 9C        	.byte0x9c
 6770 1b40 0000 1B81 	.long0x1b81
 6771 1b44 2D        	.uleb128 0x2d
 6772 1b45 0000 0000 	.long.LASF323
68K GAS   			page 157


 6773 1b49 01        	.byte0x1
 6774 1b4a 01E0      	.word0x1e0
 6775 1b4c 0000 0117 	.long0x117
 6776 1b50 02        	.uleb128 0x2
 6777 1b51 91        	.byte0x91
 6778 1b52 6C        	.sleb128 -20
 6779 1b53 2E        	.uleb128 0x2e
 6780 1b54 0000 0000 	.long.LASF299
 6781 1b58 01        	.byte0x1
 6782 1b59 01E2      	.word0x1e2
 6783 1b5b 0000 0050 	.long0x50
 6784 1b5f 02        	.uleb128 0x2
 6785 1b60 91        	.byte0x91
 6786 1b61 78        	.sleb128 -8
 6787 1b62 2E        	.uleb128 0x2e
 6788 1b63 0000 0000 	.long.LASF306
 6789 1b67 01        	.byte0x1
 6790 1b68 01E3      	.word0x1e3
 6791 1b6a 0000 1611 	.long0x1611
 6792 1b6e 02        	.uleb128 0x2
 6793 1b6f 91        	.byte0x91
 6794 1b70 74        	.sleb128 -12
 6795 1b71 2E        	.uleb128 0x2e
 6796 1b72 0000 0000 	.long.LASF272
 6797 1b76 01        	.byte0x1
 6798 1b77 01E4      	.word0x1e4
 6799 1b79 0000 129D 	.long0x129d
 6800 1b7d 02        	.uleb128 0x2
 6801 1b7e 91        	.byte0x91
 6802 1b7f 70        	.sleb128 -16
 6803 1b80 00        	.byte0
 6804 1b81 32        	.uleb128 0x32
 6805 1b82 0000 0000 	.long.LASF351
 6806 1b86 01        	.byte0x1
 6807 1b87 01C8      	.word0x1c8
 6808 1b89 0000 0050 	.long0x50
 6809 1b8d 0000 0000 	.long.LFB64
 6810 1b91 0000 0042 	.long.LFE64-.LFB64
 6811 1b95 01        	.uleb128 0x1
 6812 1b96 9C        	.byte0x9c
 6813 1b97 0000 1BC9 	.long0x1bc9
 6814 1b9b 2D        	.uleb128 0x2d
 6815 1b9c 0000 0000 	.long.LASF323
 6816 1ba0 01        	.byte0x1
 6817 1ba1 01C8      	.word0x1c8
 6818 1ba3 0000 0117 	.long0x117
 6819 1ba7 02        	.uleb128 0x2
 6820 1ba8 91        	.byte0x91
 6821 1ba9 74        	.sleb128 -12
 6822 1baa 2D        	.uleb128 0x2d
 6823 1bab 0000 0000 	.long.LASF340
 6824 1baf 01        	.byte0x1
 6825 1bb0 01C8      	.word0x1c8
 6826 1bb2 0000 0086 	.long0x86
 6827 1bb6 02        	.uleb128 0x2
 6828 1bb7 91        	.byte0x91
 6829 1bb8 04        	.sleb128 4
68K GAS   			page 158


 6830 1bb9 2E        	.uleb128 0x2e
 6831 1bba 0000 0000 	.long.LASF299
 6832 1bbe 01        	.byte0x1
 6833 1bbf 01CA      	.word0x1ca
 6834 1bc1 0000 0050 	.long0x50
 6835 1bc5 02        	.uleb128 0x2
 6836 1bc6 91        	.byte0x91
 6837 1bc7 78        	.sleb128 -8
 6838 1bc8 00        	.byte0
 6839 1bc9 2C        	.uleb128 0x2c
 6840 1bca 0000 0000 	.long.LASF352
 6841 1bce 01        	.byte0x1
 6842 1bcf 019D      	.word0x19d
 6843 1bd1 0000 0050 	.long0x50
 6844 1bd5 0000 0000 	.long.LFB63
 6845 1bd9 0000 00AE 	.long.LFE63-.LFB63
 6846 1bdd 01        	.uleb128 0x1
 6847 1bde 9C        	.byte0x9c
 6848 1bdf 0000 1C11 	.long0x1c11
 6849 1be3 2D        	.uleb128 0x2d
 6850 1be4 0000 0000 	.long.LASF323
 6851 1be8 01        	.byte0x1
 6852 1be9 019D      	.word0x19d
 6853 1beb 0000 0117 	.long0x117
 6854 1bef 02        	.uleb128 0x2
 6855 1bf0 91        	.byte0x91
 6856 1bf1 74        	.sleb128 -12
 6857 1bf2 2D        	.uleb128 0x2d
 6858 1bf3 0000 0000 	.long.LASF353
 6859 1bf7 01        	.byte0x1
 6860 1bf8 019D      	.word0x19d
 6861 1bfa 0000 166A 	.long0x166a
 6862 1bfe 02        	.uleb128 0x2
 6863 1bff 91        	.byte0x91
 6864 1c00 04        	.sleb128 4
 6865 1c01 2E        	.uleb128 0x2e
 6866 1c02 0000 0000 	.long.LASF299
 6867 1c06 01        	.byte0x1
 6868 1c07 019F      	.word0x19f
 6869 1c09 0000 0050 	.long0x50
 6870 1c0d 02        	.uleb128 0x2
 6871 1c0e 91        	.byte0x91
 6872 1c0f 78        	.sleb128 -8
 6873 1c10 00        	.byte0
 6874 1c11 2C        	.uleb128 0x2c
 6875 1c12 0000 0000 	.long.LASF354
 6876 1c16 01        	.byte0x1
 6877 1c17 0180      	.word0x180
 6878 1c19 0000 0050 	.long0x50
 6879 1c1d 0000 0000 	.long.LFB62
 6880 1c21 0000 005C 	.long.LFE62-.LFB62
 6881 1c25 01        	.uleb128 0x1
 6882 1c26 9C        	.byte0x9c
 6883 1c27 0000 1C4A 	.long0x1c4a
 6884 1c2b 2D        	.uleb128 0x2d
 6885 1c2c 0000 0000 	.long.LASF353
 6886 1c30 01        	.byte0x1
68K GAS   			page 159


 6887 1c31 0180      	.word0x180
 6888 1c33 0000 166A 	.long0x166a
 6889 1c37 02        	.uleb128 0x2
 6890 1c38 91        	.byte0x91
 6891 1c39 00        	.sleb128 0
 6892 1c3a 2E        	.uleb128 0x2e
 6893 1c3b 0000 0000 	.long.LASF299
 6894 1c3f 01        	.byte0x1
 6895 1c40 0182      	.word0x182
 6896 1c42 0000 0050 	.long0x50
 6897 1c46 02        	.uleb128 0x2
 6898 1c47 91        	.byte0x91
 6899 1c48 78        	.sleb128 -8
 6900 1c49 00        	.byte0
 6901 1c4a 2C        	.uleb128 0x2c
 6902 1c4b 0000 0000 	.long.LASF355
 6903 1c4f 01        	.byte0x1
 6904 1c50 0161      	.word0x161
 6905 1c52 0000 0050 	.long0x50
 6906 1c56 0000 0000 	.long.LFB61
 6907 1c5a 0000 0074 	.long.LFE61-.LFB61
 6908 1c5e 01        	.uleb128 0x1
 6909 1c5f 9C        	.byte0x9c
 6910 1c60 0000 1C83 	.long0x1c83
 6911 1c64 2D        	.uleb128 0x2d
 6912 1c65 0000 0000 	.long.LASF323
 6913 1c69 01        	.byte0x1
 6914 1c6a 0161      	.word0x161
 6915 1c6c 0000 0117 	.long0x117
 6916 1c70 02        	.uleb128 0x2
 6917 1c71 91        	.byte0x91
 6918 1c72 74        	.sleb128 -12
 6919 1c73 2E        	.uleb128 0x2e
 6920 1c74 0000 0000 	.long.LASF299
 6921 1c78 01        	.byte0x1
 6922 1c79 0163      	.word0x163
 6923 1c7b 0000 0050 	.long0x50
 6924 1c7f 02        	.uleb128 0x2
 6925 1c80 91        	.byte0x91
 6926 1c81 78        	.sleb128 -8
 6927 1c82 00        	.byte0
 6928 1c83 30        	.uleb128 0x30
 6929 1c84 0000 0000 	.long.LASF356
 6930 1c88 01        	.byte0x1
 6931 1c89 0130      	.word0x130
 6932 1c8b 0000 0000 	.long.LFB60
 6933 1c8f 0000 0154 	.long.LFE60-.LFB60
 6934 1c93 01        	.uleb128 0x1
 6935 1c94 9C        	.byte0x9c
 6936 1c95 0000 1CA9 	.long0x1ca9
 6937 1c99 2D        	.uleb128 0x2d
 6938 1c9a 0000 0000 	.long.LASF272
 6939 1c9e 01        	.byte0x1
 6940 1c9f 0130      	.word0x130
 6941 1ca1 0000 129D 	.long0x129d
 6942 1ca5 02        	.uleb128 0x2
 6943 1ca6 91        	.byte0x91
68K GAS   			page 160


 6944 1ca7 00        	.sleb128 0
 6945 1ca8 00        	.byte0
 6946 1ca9 33        	.uleb128 0x33
 6947 1caa 0000 0000 	.long.LASF357
 6948 1cae 01        	.byte0x1
 6949 1caf 66        	.byte0x66
 6950 1cb0 0000 0050 	.long0x50
 6951 1cb4 0000 0000 	.long.LFB59
 6952 1cb8 0000 05B4 	.long.LFE59-.LFB59
 6953 1cbc 01        	.uleb128 0x1
 6954 1cbd 9C        	.byte0x9c
 6955 1cbe 34        	.uleb128 0x34
 6956 1cbf 6900      	.string"i"
 6957 1cc1 01        	.byte0x1
 6958 1cc2 68        	.byte0x68
 6959 1cc3 0000 0074 	.long0x74
 6960 1cc7 02        	.uleb128 0x2
 6961 1cc8 91        	.byte0x91
 6962 1cc9 7A        	.sleb128 -6
 6963 1cca 34        	.uleb128 0x34
 6964 1ccb 6A00      	.string"j"
 6965 1ccd 01        	.byte0x1
 6966 1cce 69        	.byte0x69
 6967 1ccf 0000 0086 	.long0x86
 6968 1cd3 02        	.uleb128 0x2
 6969 1cd4 91        	.byte0x91
 6970 1cd5 74        	.sleb128 -12
 6971 1cd6 35        	.uleb128 0x35
 6972 1cd7 0000 0000 	.long.LASF299
 6973 1cdb 01        	.byte0x1
 6974 1cdc 6A        	.byte0x6a
 6975 1cdd 0000 0050 	.long0x50
 6976 1ce1 02        	.uleb128 0x2
 6977 1ce2 91        	.byte0x91
 6978 1ce3 70        	.sleb128 -16
 6979 1ce4 00        	.byte0
 6980 1ce5 00        	.byte0
 6981               	.section.debug_abbrev,"",@progbits
 6982               	.Ldebug_abbrev0:
 6983 0000 01        	.uleb128 0x1
 6984 0001 11        	.uleb128 0x11
 6985 0002 01        	.byte0x1
 6986 0003 25        	.uleb128 0x25
 6987 0004 0E        	.uleb128 0xe
 6988 0005 13        	.uleb128 0x13
 6989 0006 0B        	.uleb128 0xb
 6990 0007 03        	.uleb128 0x3
 6991 0008 0E        	.uleb128 0xe
 6992 0009 1B        	.uleb128 0x1b
 6993 000a 0E        	.uleb128 0xe
 6994 000b 11        	.uleb128 0x11
 6995 000c 01        	.uleb128 0x1
 6996 000d 12        	.uleb128 0x12
 6997 000e 06        	.uleb128 0x6
 6998 000f 10        	.uleb128 0x10
 6999 0010 17        	.uleb128 0x17
 7000 0011 00        	.byte0
68K GAS   			page 161


 7001 0012 00        	.byte0
 7002 0013 02        	.uleb128 0x2
 7003 0014 16        	.uleb128 0x16
 7004 0015 00        	.byte0
 7005 0016 03        	.uleb128 0x3
 7006 0017 0E        	.uleb128 0xe
 7007 0018 3A        	.uleb128 0x3a
 7008 0019 0B        	.uleb128 0xb
 7009 001a 3B        	.uleb128 0x3b
 7010 001b 0B        	.uleb128 0xb
 7011 001c 49        	.uleb128 0x49
 7012 001d 13        	.uleb128 0x13
 7013 001e 00        	.byte0
 7014 001f 00        	.byte0
 7015 0020 03        	.uleb128 0x3
 7016 0021 24        	.uleb128 0x24
 7017 0022 00        	.byte0
 7018 0023 0B        	.uleb128 0xb
 7019 0024 0B        	.uleb128 0xb
 7020 0025 3E        	.uleb128 0x3e
 7021 0026 0B        	.uleb128 0xb
 7022 0027 03        	.uleb128 0x3
 7023 0028 0E        	.uleb128 0xe
 7024 0029 00        	.byte0
 7025 002a 00        	.byte0
 7026 002b 04        	.uleb128 0x4
 7027 002c 16        	.uleb128 0x16
 7028 002d 00        	.byte0
 7029 002e 03        	.uleb128 0x3
 7030 002f 0E        	.uleb128 0xe
 7031 0030 3A        	.uleb128 0x3a
 7032 0031 0B        	.uleb128 0xb
 7033 0032 3B        	.uleb128 0x3b
 7034 0033 05        	.uleb128 0x5
 7035 0034 49        	.uleb128 0x49
 7036 0035 13        	.uleb128 0x13
 7037 0036 00        	.byte0
 7038 0037 00        	.byte0
 7039 0038 05        	.uleb128 0x5
 7040 0039 26        	.uleb128 0x26
 7041 003a 00        	.byte0
 7042 003b 49        	.uleb128 0x49
 7043 003c 13        	.uleb128 0x13
 7044 003d 00        	.byte0
 7045 003e 00        	.byte0
 7046 003f 06        	.uleb128 0x6
 7047 0040 13        	.uleb128 0x13
 7048 0041 01        	.byte0x1
 7049 0042 0B        	.uleb128 0xb
 7050 0043 0B        	.uleb128 0xb
 7051 0044 3A        	.uleb128 0x3a
 7052 0045 0B        	.uleb128 0xb
 7053 0046 3B        	.uleb128 0x3b
 7054 0047 0B        	.uleb128 0xb
 7055 0048 01        	.uleb128 0x1
 7056 0049 13        	.uleb128 0x13
 7057 004a 00        	.byte0
68K GAS   			page 162


 7058 004b 00        	.byte0
 7059 004c 07        	.uleb128 0x7
 7060 004d 0D        	.uleb128 0xd
 7061 004e 00        	.byte0
 7062 004f 03        	.uleb128 0x3
 7063 0050 0E        	.uleb128 0xe
 7064 0051 3A        	.uleb128 0x3a
 7065 0052 0B        	.uleb128 0xb
 7066 0053 3B        	.uleb128 0x3b
 7067 0054 0B        	.uleb128 0xb
 7068 0055 49        	.uleb128 0x49
 7069 0056 13        	.uleb128 0x13
 7070 0057 38        	.uleb128 0x38
 7071 0058 0B        	.uleb128 0xb
 7072 0059 00        	.byte0
 7073 005a 00        	.byte0
 7074 005b 08        	.uleb128 0x8
 7075 005c 24        	.uleb128 0x24
 7076 005d 00        	.byte0
 7077 005e 0B        	.uleb128 0xb
 7078 005f 0B        	.uleb128 0xb
 7079 0060 3E        	.uleb128 0x3e
 7080 0061 0B        	.uleb128 0xb
 7081 0062 03        	.uleb128 0x3
 7082 0063 08        	.uleb128 0x8
 7083 0064 00        	.byte0
 7084 0065 00        	.byte0
 7085 0066 09        	.uleb128 0x9
 7086 0067 0F        	.uleb128 0xf
 7087 0068 00        	.byte0
 7088 0069 0B        	.uleb128 0xb
 7089 006a 0B        	.uleb128 0xb
 7090 006b 49        	.uleb128 0x49
 7091 006c 13        	.uleb128 0x13
 7092 006d 00        	.byte0
 7093 006e 00        	.byte0
 7094 006f 0A        	.uleb128 0xa
 7095 0070 15        	.uleb128 0x15
 7096 0071 01        	.byte0x1
 7097 0072 27        	.uleb128 0x27
 7098 0073 19        	.uleb128 0x19
 7099 0074 49        	.uleb128 0x49
 7100 0075 13        	.uleb128 0x13
 7101 0076 01        	.uleb128 0x1
 7102 0077 13        	.uleb128 0x13
 7103 0078 00        	.byte0
 7104 0079 00        	.byte0
 7105 007a 0B        	.uleb128 0xb
 7106 007b 05        	.uleb128 0x5
 7107 007c 00        	.byte0
 7108 007d 49        	.uleb128 0x49
 7109 007e 13        	.uleb128 0x13
 7110 007f 00        	.byte0
 7111 0080 00        	.byte0
 7112 0081 0C        	.uleb128 0xc
 7113 0082 0F        	.uleb128 0xf
 7114 0083 00        	.byte0
68K GAS   			page 163


 7115 0084 0B        	.uleb128 0xb
 7116 0085 0B        	.uleb128 0xb
 7117 0086 00        	.byte0
 7118 0087 00        	.byte0
 7119 0088 0D        	.uleb128 0xd
 7120 0089 01        	.uleb128 0x1
 7121 008a 01        	.byte0x1
 7122 008b 49        	.uleb128 0x49
 7123 008c 13        	.uleb128 0x13
 7124 008d 01        	.uleb128 0x1
 7125 008e 13        	.uleb128 0x13
 7126 008f 00        	.byte0
 7127 0090 00        	.byte0
 7128 0091 0E        	.uleb128 0xe
 7129 0092 21        	.uleb128 0x21
 7130 0093 00        	.byte0
 7131 0094 49        	.uleb128 0x49
 7132 0095 13        	.uleb128 0x13
 7133 0096 2F        	.uleb128 0x2f
 7134 0097 0B        	.uleb128 0xb
 7135 0098 00        	.byte0
 7136 0099 00        	.byte0
 7137 009a 0F        	.uleb128 0xf
 7138 009b 13        	.uleb128 0x13
 7139 009c 01        	.byte0x1
 7140 009d 03        	.uleb128 0x3
 7141 009e 0E        	.uleb128 0xe
 7142 009f 0B        	.uleb128 0xb
 7143 00a0 0B        	.uleb128 0xb
 7144 00a1 3A        	.uleb128 0x3a
 7145 00a2 0B        	.uleb128 0xb
 7146 00a3 3B        	.uleb128 0x3b
 7147 00a4 0B        	.uleb128 0xb
 7148 00a5 01        	.uleb128 0x1
 7149 00a6 13        	.uleb128 0x13
 7150 00a7 00        	.byte0
 7151 00a8 00        	.byte0
 7152 00a9 10        	.uleb128 0x10
 7153 00aa 13        	.uleb128 0x13
 7154 00ab 00        	.byte0
 7155 00ac 03        	.uleb128 0x3
 7156 00ad 0E        	.uleb128 0xe
 7157 00ae 3C        	.uleb128 0x3c
 7158 00af 19        	.uleb128 0x19
 7159 00b0 00        	.byte0
 7160 00b1 00        	.byte0
 7161 00b2 11        	.uleb128 0x11
 7162 00b3 17        	.uleb128 0x17
 7163 00b4 01        	.byte0x1
 7164 00b5 0B        	.uleb128 0xb
 7165 00b6 0B        	.uleb128 0xb
 7166 00b7 3A        	.uleb128 0x3a
 7167 00b8 0B        	.uleb128 0xb
 7168 00b9 3B        	.uleb128 0x3b
 7169 00ba 0B        	.uleb128 0xb
 7170 00bb 01        	.uleb128 0x1
 7171 00bc 13        	.uleb128 0x13
68K GAS   			page 164


 7172 00bd 00        	.byte0
 7173 00be 00        	.byte0
 7174 00bf 12        	.uleb128 0x12
 7175 00c0 0D        	.uleb128 0xd
 7176 00c1 00        	.byte0
 7177 00c2 03        	.uleb128 0x3
 7178 00c3 0E        	.uleb128 0xe
 7179 00c4 3A        	.uleb128 0x3a
 7180 00c5 0B        	.uleb128 0xb
 7181 00c6 3B        	.uleb128 0x3b
 7182 00c7 0B        	.uleb128 0xb
 7183 00c8 49        	.uleb128 0x49
 7184 00c9 13        	.uleb128 0x13
 7185 00ca 00        	.byte0
 7186 00cb 00        	.byte0
 7187 00cc 13        	.uleb128 0x13
 7188 00cd 0D        	.uleb128 0xd
 7189 00ce 00        	.byte0
 7190 00cf 03        	.uleb128 0x3
 7191 00d0 08        	.uleb128 0x8
 7192 00d1 3A        	.uleb128 0x3a
 7193 00d2 0B        	.uleb128 0xb
 7194 00d3 3B        	.uleb128 0x3b
 7195 00d4 0B        	.uleb128 0xb
 7196 00d5 49        	.uleb128 0x49
 7197 00d6 13        	.uleb128 0x13
 7198 00d7 38        	.uleb128 0x38
 7199 00d8 0B        	.uleb128 0xb
 7200 00d9 00        	.byte0
 7201 00da 00        	.byte0
 7202 00db 14        	.uleb128 0x14
 7203 00dc 13        	.uleb128 0x13
 7204 00dd 01        	.byte0x1
 7205 00de 03        	.uleb128 0x3
 7206 00df 0E        	.uleb128 0xe
 7207 00e0 0B        	.uleb128 0xb
 7208 00e1 05        	.uleb128 0x5
 7209 00e2 3A        	.uleb128 0x3a
 7210 00e3 0B        	.uleb128 0xb
 7211 00e4 3B        	.uleb128 0x3b
 7212 00e5 0B        	.uleb128 0xb
 7213 00e6 01        	.uleb128 0x1
 7214 00e7 13        	.uleb128 0x13
 7215 00e8 00        	.byte0
 7216 00e9 00        	.byte0
 7217 00ea 15        	.uleb128 0x15
 7218 00eb 0D        	.uleb128 0xd
 7219 00ec 00        	.byte0
 7220 00ed 03        	.uleb128 0x3
 7221 00ee 0E        	.uleb128 0xe
 7222 00ef 3A        	.uleb128 0x3a
 7223 00f0 0B        	.uleb128 0xb
 7224 00f1 3B        	.uleb128 0x3b
 7225 00f2 0B        	.uleb128 0xb
 7226 00f3 49        	.uleb128 0x49
 7227 00f4 13        	.uleb128 0x13
 7228 00f5 38        	.uleb128 0x38
68K GAS   			page 165


 7229 00f6 05        	.uleb128 0x5
 7230 00f7 00        	.byte0
 7231 00f8 00        	.byte0
 7232 00f9 16        	.uleb128 0x16
 7233 00fa 15        	.uleb128 0x15
 7234 00fb 00        	.byte0
 7235 00fc 27        	.uleb128 0x27
 7236 00fd 19        	.uleb128 0x19
 7237 00fe 00        	.byte0
 7238 00ff 00        	.byte0
 7239 0100 17        	.uleb128 0x17
 7240 0101 13        	.uleb128 0x13
 7241 0102 01        	.byte0x1
 7242 0103 03        	.uleb128 0x3
 7243 0104 0E        	.uleb128 0xe
 7244 0105 0B        	.uleb128 0xb
 7245 0106 05        	.uleb128 0x5
 7246 0107 3A        	.uleb128 0x3a
 7247 0108 0B        	.uleb128 0xb
 7248 0109 3B        	.uleb128 0x3b
 7249 010a 05        	.uleb128 0x5
 7250 010b 01        	.uleb128 0x1
 7251 010c 13        	.uleb128 0x13
 7252 010d 00        	.byte0
 7253 010e 00        	.byte0
 7254 010f 18        	.uleb128 0x18
 7255 0110 0D        	.uleb128 0xd
 7256 0111 00        	.byte0
 7257 0112 03        	.uleb128 0x3
 7258 0113 0E        	.uleb128 0xe
 7259 0114 3A        	.uleb128 0x3a
 7260 0115 0B        	.uleb128 0xb
 7261 0116 3B        	.uleb128 0x3b
 7262 0117 05        	.uleb128 0x5
 7263 0118 49        	.uleb128 0x49
 7264 0119 13        	.uleb128 0x13
 7265 011a 38        	.uleb128 0x38
 7266 011b 0B        	.uleb128 0xb
 7267 011c 00        	.byte0
 7268 011d 00        	.byte0
 7269 011e 19        	.uleb128 0x19
 7270 011f 0D        	.uleb128 0xd
 7271 0120 00        	.byte0
 7272 0121 03        	.uleb128 0x3
 7273 0122 0E        	.uleb128 0xe
 7274 0123 3A        	.uleb128 0x3a
 7275 0124 0B        	.uleb128 0xb
 7276 0125 3B        	.uleb128 0x3b
 7277 0126 05        	.uleb128 0x5
 7278 0127 49        	.uleb128 0x49
 7279 0128 13        	.uleb128 0x13
 7280 0129 38        	.uleb128 0x38
 7281 012a 05        	.uleb128 0x5
 7282 012b 00        	.byte0
 7283 012c 00        	.byte0
 7284 012d 1A        	.uleb128 0x1a
 7285 012e 13        	.uleb128 0x13
68K GAS   			page 166


 7286 012f 01        	.byte0x1
 7287 0130 03        	.uleb128 0x3
 7288 0131 0E        	.uleb128 0xe
 7289 0132 0B        	.uleb128 0xb
 7290 0133 0B        	.uleb128 0xb
 7291 0134 3A        	.uleb128 0x3a
 7292 0135 0B        	.uleb128 0xb
 7293 0136 3B        	.uleb128 0x3b
 7294 0137 05        	.uleb128 0x5
 7295 0138 01        	.uleb128 0x1
 7296 0139 13        	.uleb128 0x13
 7297 013a 00        	.byte0
 7298 013b 00        	.byte0
 7299 013c 1B        	.uleb128 0x1b
 7300 013d 13        	.uleb128 0x13
 7301 013e 01        	.byte0x1
 7302 013f 0B        	.uleb128 0xb
 7303 0140 0B        	.uleb128 0xb
 7304 0141 3A        	.uleb128 0x3a
 7305 0142 0B        	.uleb128 0xb
 7306 0143 3B        	.uleb128 0x3b
 7307 0144 05        	.uleb128 0x5
 7308 0145 01        	.uleb128 0x1
 7309 0146 13        	.uleb128 0x13
 7310 0147 00        	.byte0
 7311 0148 00        	.byte0
 7312 0149 1C        	.uleb128 0x1c
 7313 014a 17        	.uleb128 0x17
 7314 014b 01        	.byte0x1
 7315 014c 0B        	.uleb128 0xb
 7316 014d 0B        	.uleb128 0xb
 7317 014e 3A        	.uleb128 0x3a
 7318 014f 0B        	.uleb128 0xb
 7319 0150 3B        	.uleb128 0x3b
 7320 0151 05        	.uleb128 0x5
 7321 0152 01        	.uleb128 0x1
 7322 0153 13        	.uleb128 0x13
 7323 0154 00        	.byte0
 7324 0155 00        	.byte0
 7325 0156 1D        	.uleb128 0x1d
 7326 0157 0D        	.uleb128 0xd
 7327 0158 00        	.byte0
 7328 0159 03        	.uleb128 0x3
 7329 015a 0E        	.uleb128 0xe
 7330 015b 3A        	.uleb128 0x3a
 7331 015c 0B        	.uleb128 0xb
 7332 015d 3B        	.uleb128 0x3b
 7333 015e 05        	.uleb128 0x5
 7334 015f 49        	.uleb128 0x49
 7335 0160 13        	.uleb128 0x13
 7336 0161 00        	.byte0
 7337 0162 00        	.byte0
 7338 0163 1E        	.uleb128 0x1e
 7339 0164 15        	.uleb128 0x15
 7340 0165 01        	.byte0x1
 7341 0166 27        	.uleb128 0x27
 7342 0167 19        	.uleb128 0x19
68K GAS   			page 167


 7343 0168 01        	.uleb128 0x1
 7344 0169 13        	.uleb128 0x13
 7345 016a 00        	.byte0
 7346 016b 00        	.byte0
 7347 016c 1F        	.uleb128 0x1f
 7348 016d 34        	.uleb128 0x34
 7349 016e 00        	.byte0
 7350 016f 03        	.uleb128 0x3
 7351 0170 0E        	.uleb128 0xe
 7352 0171 3A        	.uleb128 0x3a
 7353 0172 0B        	.uleb128 0xb
 7354 0173 3B        	.uleb128 0x3b
 7355 0174 05        	.uleb128 0x5
 7356 0175 49        	.uleb128 0x49
 7357 0176 13        	.uleb128 0x13
 7358 0177 3F        	.uleb128 0x3f
 7359 0178 19        	.uleb128 0x19
 7360 0179 3C        	.uleb128 0x3c
 7361 017a 19        	.uleb128 0x19
 7362 017b 00        	.byte0
 7363 017c 00        	.byte0
 7364 017d 20        	.uleb128 0x20
 7365 017e 34        	.uleb128 0x34
 7366 017f 00        	.byte0
 7367 0180 03        	.uleb128 0x3
 7368 0181 0E        	.uleb128 0xe
 7369 0182 3A        	.uleb128 0x3a
 7370 0183 0B        	.uleb128 0xb
 7371 0184 3B        	.uleb128 0x3b
 7372 0185 0B        	.uleb128 0xb
 7373 0186 49        	.uleb128 0x49
 7374 0187 13        	.uleb128 0x13
 7375 0188 3F        	.uleb128 0x3f
 7376 0189 19        	.uleb128 0x19
 7377 018a 3C        	.uleb128 0x3c
 7378 018b 19        	.uleb128 0x19
 7379 018c 00        	.byte0
 7380 018d 00        	.byte0
 7381 018e 21        	.uleb128 0x21
 7382 018f 0D        	.uleb128 0xd
 7383 0190 00        	.byte0
 7384 0191 03        	.uleb128 0x3
 7385 0192 08        	.uleb128 0x8
 7386 0193 3A        	.uleb128 0x3a
 7387 0194 0B        	.uleb128 0xb
 7388 0195 3B        	.uleb128 0x3b
 7389 0196 0B        	.uleb128 0xb
 7390 0197 49        	.uleb128 0x49
 7391 0198 13        	.uleb128 0x13
 7392 0199 00        	.byte0
 7393 019a 00        	.byte0
 7394 019b 22        	.uleb128 0x22
 7395 019c 13        	.uleb128 0x13
 7396 019d 01        	.byte0x1
 7397 019e 0B        	.uleb128 0xb
 7398 019f 05        	.uleb128 0x5
 7399 01a0 3A        	.uleb128 0x3a
68K GAS   			page 168


 7400 01a1 0B        	.uleb128 0xb
 7401 01a2 3B        	.uleb128 0x3b
 7402 01a3 05        	.uleb128 0x5
 7403 01a4 01        	.uleb128 0x1
 7404 01a5 13        	.uleb128 0x13
 7405 01a6 00        	.byte0
 7406 01a7 00        	.byte0
 7407 01a8 23        	.uleb128 0x23
 7408 01a9 0D        	.uleb128 0xd
 7409 01aa 00        	.byte0
 7410 01ab 03        	.uleb128 0x3
 7411 01ac 08        	.uleb128 0x8
 7412 01ad 3A        	.uleb128 0x3a
 7413 01ae 0B        	.uleb128 0xb
 7414 01af 3B        	.uleb128 0x3b
 7415 01b0 05        	.uleb128 0x5
 7416 01b1 49        	.uleb128 0x49
 7417 01b2 13        	.uleb128 0x13
 7418 01b3 38        	.uleb128 0x38
 7419 01b4 0B        	.uleb128 0xb
 7420 01b5 00        	.byte0
 7421 01b6 00        	.byte0
 7422 01b7 24        	.uleb128 0x24
 7423 01b8 04        	.uleb128 0x4
 7424 01b9 01        	.byte0x1
 7425 01ba 3E        	.uleb128 0x3e
 7426 01bb 0B        	.uleb128 0xb
 7427 01bc 0B        	.uleb128 0xb
 7428 01bd 0B        	.uleb128 0xb
 7429 01be 49        	.uleb128 0x49
 7430 01bf 13        	.uleb128 0x13
 7431 01c0 3A        	.uleb128 0x3a
 7432 01c1 0B        	.uleb128 0xb
 7433 01c2 3B        	.uleb128 0x3b
 7434 01c3 0B        	.uleb128 0xb
 7435 01c4 01        	.uleb128 0x1
 7436 01c5 13        	.uleb128 0x13
 7437 01c6 00        	.byte0
 7438 01c7 00        	.byte0
 7439 01c8 25        	.uleb128 0x25
 7440 01c9 28        	.uleb128 0x28
 7441 01ca 00        	.byte0
 7442 01cb 03        	.uleb128 0x3
 7443 01cc 0E        	.uleb128 0xe
 7444 01cd 1C        	.uleb128 0x1c
 7445 01ce 0B        	.uleb128 0xb
 7446 01cf 00        	.byte0
 7447 01d0 00        	.byte0
 7448 01d1 26        	.uleb128 0x26
 7449 01d2 13        	.uleb128 0x13
 7450 01d3 01        	.byte0x1
 7451 01d4 0B        	.uleb128 0xb
 7452 01d5 06        	.uleb128 0x6
 7453 01d6 3A        	.uleb128 0x3a
 7454 01d7 0B        	.uleb128 0xb
 7455 01d8 3B        	.uleb128 0x3b
 7456 01d9 0B        	.uleb128 0xb
68K GAS   			page 169


 7457 01da 01        	.uleb128 0x1
 7458 01db 13        	.uleb128 0x13
 7459 01dc 00        	.byte0
 7460 01dd 00        	.byte0
 7461 01de 27        	.uleb128 0x27
 7462 01df 21        	.uleb128 0x21
 7463 01e0 00        	.byte0
 7464 01e1 49        	.uleb128 0x49
 7465 01e2 13        	.uleb128 0x13
 7466 01e3 2F        	.uleb128 0x2f
 7467 01e4 06        	.uleb128 0x6
 7468 01e5 00        	.byte0
 7469 01e6 00        	.byte0
 7470 01e7 28        	.uleb128 0x28
 7471 01e8 13        	.uleb128 0x13
 7472 01e9 01        	.byte0x1
 7473 01ea 0B        	.uleb128 0xb
 7474 01eb 05        	.uleb128 0x5
 7475 01ec 3A        	.uleb128 0x3a
 7476 01ed 0B        	.uleb128 0xb
 7477 01ee 3B        	.uleb128 0x3b
 7478 01ef 0B        	.uleb128 0xb
 7479 01f0 01        	.uleb128 0x1
 7480 01f1 13        	.uleb128 0x13
 7481 01f2 00        	.byte0
 7482 01f3 00        	.byte0
 7483 01f4 29        	.uleb128 0x29
 7484 01f5 13        	.uleb128 0x13
 7485 01f6 01        	.byte0x1
 7486 01f7 0B        	.uleb128 0xb
 7487 01f8 06        	.uleb128 0x6
 7488 01f9 3A        	.uleb128 0x3a
 7489 01fa 0B        	.uleb128 0xb
 7490 01fb 3B        	.uleb128 0x3b
 7491 01fc 05        	.uleb128 0x5
 7492 01fd 01        	.uleb128 0x1
 7493 01fe 13        	.uleb128 0x13
 7494 01ff 00        	.byte0
 7495 0200 00        	.byte0
 7496 0201 2A        	.uleb128 0x2a
 7497 0202 0D        	.uleb128 0xd
 7498 0203 00        	.byte0
 7499 0204 03        	.uleb128 0x3
 7500 0205 08        	.uleb128 0x8
 7501 0206 3A        	.uleb128 0x3a
 7502 0207 0B        	.uleb128 0xb
 7503 0208 3B        	.uleb128 0x3b
 7504 0209 05        	.uleb128 0x5
 7505 020a 49        	.uleb128 0x49
 7506 020b 13        	.uleb128 0x13
 7507 020c 38        	.uleb128 0x38
 7508 020d 05        	.uleb128 0x5
 7509 020e 00        	.byte0
 7510 020f 00        	.byte0
 7511 0210 2B        	.uleb128 0x2b
 7512 0211 0D        	.uleb128 0xd
 7513 0212 00        	.byte0
68K GAS   			page 170


 7514 0213 03        	.uleb128 0x3
 7515 0214 0E        	.uleb128 0xe
 7516 0215 3A        	.uleb128 0x3a
 7517 0216 0B        	.uleb128 0xb
 7518 0217 3B        	.uleb128 0x3b
 7519 0218 05        	.uleb128 0x5
 7520 0219 49        	.uleb128 0x49
 7521 021a 13        	.uleb128 0x13
 7522 021b 38        	.uleb128 0x38
 7523 021c 06        	.uleb128 0x6
 7524 021d 00        	.byte0
 7525 021e 00        	.byte0
 7526 021f 2C        	.uleb128 0x2c
 7527 0220 2E        	.uleb128 0x2e
 7528 0221 01        	.byte0x1
 7529 0222 3F        	.uleb128 0x3f
 7530 0223 19        	.uleb128 0x19
 7531 0224 03        	.uleb128 0x3
 7532 0225 0E        	.uleb128 0xe
 7533 0226 3A        	.uleb128 0x3a
 7534 0227 0B        	.uleb128 0xb
 7535 0228 3B        	.uleb128 0x3b
 7536 0229 05        	.uleb128 0x5
 7537 022a 27        	.uleb128 0x27
 7538 022b 19        	.uleb128 0x19
 7539 022c 49        	.uleb128 0x49
 7540 022d 13        	.uleb128 0x13
 7541 022e 11        	.uleb128 0x11
 7542 022f 01        	.uleb128 0x1
 7543 0230 12        	.uleb128 0x12
 7544 0231 06        	.uleb128 0x6
 7545 0232 40        	.uleb128 0x40
 7546 0233 18        	.uleb128 0x18
 7547 0234 9642      	.uleb128 0x2116
 7548 0236 19        	.uleb128 0x19
 7549 0237 01        	.uleb128 0x1
 7550 0238 13        	.uleb128 0x13
 7551 0239 00        	.byte0
 7552 023a 00        	.byte0
 7553 023b 2D        	.uleb128 0x2d
 7554 023c 05        	.uleb128 0x5
 7555 023d 00        	.byte0
 7556 023e 03        	.uleb128 0x3
 7557 023f 0E        	.uleb128 0xe
 7558 0240 3A        	.uleb128 0x3a
 7559 0241 0B        	.uleb128 0xb
 7560 0242 3B        	.uleb128 0x3b
 7561 0243 05        	.uleb128 0x5
 7562 0244 49        	.uleb128 0x49
 7563 0245 13        	.uleb128 0x13
 7564 0246 02        	.uleb128 0x2
 7565 0247 18        	.uleb128 0x18
 7566 0248 00        	.byte0
 7567 0249 00        	.byte0
 7568 024a 2E        	.uleb128 0x2e
 7569 024b 34        	.uleb128 0x34
 7570 024c 00        	.byte0
68K GAS   			page 171


 7571 024d 03        	.uleb128 0x3
 7572 024e 0E        	.uleb128 0xe
 7573 024f 3A        	.uleb128 0x3a
 7574 0250 0B        	.uleb128 0xb
 7575 0251 3B        	.uleb128 0x3b
 7576 0252 05        	.uleb128 0x5
 7577 0253 49        	.uleb128 0x49
 7578 0254 13        	.uleb128 0x13
 7579 0255 02        	.uleb128 0x2
 7580 0256 18        	.uleb128 0x18
 7581 0257 00        	.byte0
 7582 0258 00        	.byte0
 7583 0259 2F        	.uleb128 0x2f
 7584 025a 2E        	.uleb128 0x2e
 7585 025b 01        	.byte0x1
 7586 025c 3F        	.uleb128 0x3f
 7587 025d 19        	.uleb128 0x19
 7588 025e 03        	.uleb128 0x3
 7589 025f 0E        	.uleb128 0xe
 7590 0260 3A        	.uleb128 0x3a
 7591 0261 0B        	.uleb128 0xb
 7592 0262 3B        	.uleb128 0x3b
 7593 0263 05        	.uleb128 0x5
 7594 0264 27        	.uleb128 0x27
 7595 0265 19        	.uleb128 0x19
 7596 0266 11        	.uleb128 0x11
 7597 0267 01        	.uleb128 0x1
 7598 0268 12        	.uleb128 0x12
 7599 0269 06        	.uleb128 0x6
 7600 026a 40        	.uleb128 0x40
 7601 026b 18        	.uleb128 0x18
 7602 026c 9642      	.uleb128 0x2116
 7603 026e 19        	.uleb128 0x19
 7604 026f 01        	.uleb128 0x1
 7605 0270 13        	.uleb128 0x13
 7606 0271 00        	.byte0
 7607 0272 00        	.byte0
 7608 0273 30        	.uleb128 0x30
 7609 0274 2E        	.uleb128 0x2e
 7610 0275 01        	.byte0x1
 7611 0276 3F        	.uleb128 0x3f
 7612 0277 19        	.uleb128 0x19
 7613 0278 03        	.uleb128 0x3
 7614 0279 0E        	.uleb128 0xe
 7615 027a 3A        	.uleb128 0x3a
 7616 027b 0B        	.uleb128 0xb
 7617 027c 3B        	.uleb128 0x3b
 7618 027d 05        	.uleb128 0x5
 7619 027e 27        	.uleb128 0x27
 7620 027f 19        	.uleb128 0x19
 7621 0280 11        	.uleb128 0x11
 7622 0281 01        	.uleb128 0x1
 7623 0282 12        	.uleb128 0x12
 7624 0283 06        	.uleb128 0x6
 7625 0284 40        	.uleb128 0x40
 7626 0285 18        	.uleb128 0x18
 7627 0286 9742      	.uleb128 0x2117
68K GAS   			page 172


 7628 0288 19        	.uleb128 0x19
 7629 0289 01        	.uleb128 0x1
 7630 028a 13        	.uleb128 0x13
 7631 028b 00        	.byte0
 7632 028c 00        	.byte0
 7633 028d 31        	.uleb128 0x31
 7634 028e 34        	.uleb128 0x34
 7635 028f 00        	.byte0
 7636 0290 03        	.uleb128 0x3
 7637 0291 08        	.uleb128 0x8
 7638 0292 3A        	.uleb128 0x3a
 7639 0293 0B        	.uleb128 0xb
 7640 0294 3B        	.uleb128 0x3b
 7641 0295 05        	.uleb128 0x5
 7642 0296 49        	.uleb128 0x49
 7643 0297 13        	.uleb128 0x13
 7644 0298 02        	.uleb128 0x2
 7645 0299 18        	.uleb128 0x18
 7646 029a 00        	.byte0
 7647 029b 00        	.byte0
 7648 029c 32        	.uleb128 0x32
 7649 029d 2E        	.uleb128 0x2e
 7650 029e 01        	.byte0x1
 7651 029f 3F        	.uleb128 0x3f
 7652 02a0 19        	.uleb128 0x19
 7653 02a1 03        	.uleb128 0x3
 7654 02a2 0E        	.uleb128 0xe
 7655 02a3 3A        	.uleb128 0x3a
 7656 02a4 0B        	.uleb128 0xb
 7657 02a5 3B        	.uleb128 0x3b
 7658 02a6 05        	.uleb128 0x5
 7659 02a7 27        	.uleb128 0x27
 7660 02a8 19        	.uleb128 0x19
 7661 02a9 49        	.uleb128 0x49
 7662 02aa 13        	.uleb128 0x13
 7663 02ab 11        	.uleb128 0x11
 7664 02ac 01        	.uleb128 0x1
 7665 02ad 12        	.uleb128 0x12
 7666 02ae 06        	.uleb128 0x6
 7667 02af 40        	.uleb128 0x40
 7668 02b0 18        	.uleb128 0x18
 7669 02b1 9742      	.uleb128 0x2117
 7670 02b3 19        	.uleb128 0x19
 7671 02b4 01        	.uleb128 0x1
 7672 02b5 13        	.uleb128 0x13
 7673 02b6 00        	.byte0
 7674 02b7 00        	.byte0
 7675 02b8 33        	.uleb128 0x33
 7676 02b9 2E        	.uleb128 0x2e
 7677 02ba 01        	.byte0x1
 7678 02bb 3F        	.uleb128 0x3f
 7679 02bc 19        	.uleb128 0x19
 7680 02bd 03        	.uleb128 0x3
 7681 02be 0E        	.uleb128 0xe
 7682 02bf 3A        	.uleb128 0x3a
 7683 02c0 0B        	.uleb128 0xb
 7684 02c1 3B        	.uleb128 0x3b
68K GAS   			page 173


 7685 02c2 0B        	.uleb128 0xb
 7686 02c3 27        	.uleb128 0x27
 7687 02c4 19        	.uleb128 0x19
 7688 02c5 49        	.uleb128 0x49
 7689 02c6 13        	.uleb128 0x13
 7690 02c7 11        	.uleb128 0x11
 7691 02c8 01        	.uleb128 0x1
 7692 02c9 12        	.uleb128 0x12
 7693 02ca 06        	.uleb128 0x6
 7694 02cb 40        	.uleb128 0x40
 7695 02cc 18        	.uleb128 0x18
 7696 02cd 9642      	.uleb128 0x2116
 7697 02cf 19        	.uleb128 0x19
 7698 02d0 00        	.byte0
 7699 02d1 00        	.byte0
 7700 02d2 34        	.uleb128 0x34
 7701 02d3 34        	.uleb128 0x34
 7702 02d4 00        	.byte0
 7703 02d5 03        	.uleb128 0x3
 7704 02d6 08        	.uleb128 0x8
 7705 02d7 3A        	.uleb128 0x3a
 7706 02d8 0B        	.uleb128 0xb
 7707 02d9 3B        	.uleb128 0x3b
 7708 02da 0B        	.uleb128 0xb
 7709 02db 49        	.uleb128 0x49
 7710 02dc 13        	.uleb128 0x13
 7711 02dd 02        	.uleb128 0x2
 7712 02de 18        	.uleb128 0x18
 7713 02df 00        	.byte0
 7714 02e0 00        	.byte0
 7715 02e1 35        	.uleb128 0x35
 7716 02e2 34        	.uleb128 0x34
 7717 02e3 00        	.byte0
 7718 02e4 03        	.uleb128 0x3
 7719 02e5 0E        	.uleb128 0xe
 7720 02e6 3A        	.uleb128 0x3a
 7721 02e7 0B        	.uleb128 0xb
 7722 02e8 3B        	.uleb128 0x3b
 7723 02e9 0B        	.uleb128 0xb
 7724 02ea 49        	.uleb128 0x49
 7725 02eb 13        	.uleb128 0x13
 7726 02ec 02        	.uleb128 0x2
 7727 02ed 18        	.uleb128 0x18
 7728 02ee 00        	.byte0
 7729 02ef 00        	.byte0
 7730 02f0 00        	.byte0
 7731               	.section.debug_aranges,"",@progbits
 7732 0000 0000 001C 	.long0x1c
 7733 0004 0002      	.word0x2
 7734 0006 0000 0000 	.long.Ldebug_info0
 7735 000a 04        	.byte0x4
 7736 000b 00        	.byte0
 7737 000c 0000      	.word0
 7738 000e 0000      	.word0
 7739 0010 0000 0000 	.long.Ltext0
 7740 0014 0000 1C6C 	.long.Letext0-.Ltext0
 7741 0018 0000 0000 	.long0
68K GAS   			page 174


 7742 001c 0000 0000 	.long0
 7743               	.section.debug_line,"",@progbits
 7744               	.Ldebug_line0:
 7745 0000 0000 0690 	.section.debug_str,"MS",@progbits,1
 7745      0002 0000 
 7745      02D1 0201 
 7745      FB0E 0D00 
 7745      0101 0101 
 7746               	.LASF351:
 7747 0000 4346 455F 	.string"CFE_TBL_CheckAccessRights"
 7747      5442 4C5F 
 7747      4368 6563 
 7747      6B41 6363 
 7747      6573 7352 
 7748               	.LASF355:
 7749 001a 4346 455F 	.string"CFE_TBL_ValidateHandle"
 7749      5442 4C5F 
 7749      5661 6C69 
 7749      6461 7465 
 7749      4861 6E64 
 7750               	.LASF44:
 7751 0031 5F73 7369 	.string"_ssize_t"
 7751      7A65 5F74 
 7751      00
 7752               	.LASF24:
 7753 003a 7369 7A65 	.string"size_t"
 7753      5F74 00
 7754               	.LASF288:
 7755 0041 4861 6E64 	.string"Handles"
 7755      6C65 7300 
 7756               	.LASF146:
 7757 0049 5F5F 6C6F 	.string"__locale_t"
 7757      6361 6C65 
 7757      5F74 00
 7758               	.LASF49:
 7759 0054 5F5F 7661 	.string"__value"
 7759      6C75 6500 
 7760               	.LASF243:
 7761 005c 4461 7461 	.string"DataSource"
 7761      536F 7572 
 7761      6365 00
 7762               	.LASF228:
 7763 0067 4346 455F 	.string"CFE_TBL_DUMP_FREE"
 7763      5442 4C5F 
 7763      4455 4D50 
 7763      5F46 5245 
 7763      4500 
 7764               	.LASF285:
 7765 0079 576F 726B 	.string"WorkBufMutex"
 7765      4275 664D 
 7765      7574 6578 
 7765      00
 7766               	.LASF147:
 7767 0086 5F5F 7366 	.string"__sf"
 7767      00
 7768               	.LASF189:
 7769 008b 4C61 7374 	.string"LastValCrc"
68K GAS   			page 175


 7769      5661 6C43 
 7769      7263 00
 7770               	.LASF178:
 7771 0096 4346 455F 	.string"CFE_FS_Header_t"
 7771      4653 5F48 
 7771      6561 6465 
 7771      725F 7400 
 7772               	.LASF160:
 7773 00a6 4343 5344 	.string"CCSDS_PriHdr_t"
 7773      535F 5072 
 7773      6948 6472 
 7773      5F74 00
 7774               	.LASF84:
 7775 00b5 5F72 6561 	.string"_read"
 7775      6400 
 7776               	.LASF319:
 7777 00bb 456E 6469 	.string"EndianCheck"
 7777      616E 4368 
 7777      6563 6B00 
 7778               	.LASF85:
 7779 00c7 5F77 7269 	.string"_write"
 7779      7465 00
 7780               	.LASF157:
 7781 00ce 5374 7265 	.string"StreamId"
 7781      616D 4964 
 7781      00
 7782               	.LASF126:
 7783 00d7 5F61 7363 	.string"_asctime_buf"
 7783      7469 6D65 
 7783      5F62 7566 
 7783      00
 7784               	.LASF278:
 7785 00e4 4D73 6750 	.string"MsgPtr"
 7785      7472 00
 7786               	.LASF111:
 7787 00eb 5F63 7674 	.string"_cvtlen"
 7787      6C65 6E00 
 7788               	.LASF184:
 7789 00f3 436D 6443 	.string"CmdCounter"
 7789      6F75 6E74 
 7789      6572 00
 7790               	.LASF38:
 7791 00fe 5F4D 7574 	.string"_Mutex_Control"
 7791      6578 5F43 
 7791      6F6E 7472 
 7791      6F6C 00
 7792               	.LASF150:
 7793 010d 5F67 6C6F 	.string"_global_atexit"
 7793      6261 6C5F 
 7793      6174 6578 
 7793      6974 00
 7794               	.LASF337:
 7795 011c 4346 455F 	.string"CFE_TBL_FormTableName"
 7795      5442 4C5F 
 7795      466F 726D 
 7795      5461 626C 
 7795      654E 616D 
68K GAS   			page 176


 7796               	.LASF356:
 7797 0132 4346 455F 	.string"CFE_TBL_InitRegistryRecord"
 7797      5442 4C5F 
 7797      496E 6974 
 7797      5265 6769 
 7797      7374 7279 
 7798               	.LASF11:
 7799 014d 7569 6E74 	.string"uint32"
 7799      3332 00
 7800               	.LASF145:
 7801 0154 5F75 6E75 	.string"_unused"
 7801      7365 6400 
 7802               	.LASF216:
 7803 015c 4475 6D70 	.string"DumpOnly"
 7803      4F6E 6C79 
 7803      00
 7804               	.LASF58:
 7805 0165 5F5F 746D 	.string"__tm"
 7805      00
 7806               	.LASF141:
 7807 016a 5F77 6373 	.string"_wcsrtombs_state"
 7807      7274 6F6D 
 7807      6273 5F73 
 7807      7461 7465 
 7807      00
 7808               	.LASF89:
 7809 017b 5F6E 6275 	.string"_nbuf"
 7809      6600 
 7810               	.LASF59:
 7811 0181 5F5F 746D 	.string"__tm_sec"
 7811      5F73 6563 
 7811      00
 7812               	.LASF37:
 7813 018a 5F54 6872 	.string"_Thread_Control"
 7813      6561 645F 
 7813      436F 6E74 
 7813      726F 6C00 
 7814               	.LASF134:
 7815 019a 5F6C 3634 	.string"_l64a_buf"
 7815      615F 6275 
 7815      6600 
 7816               	.LASF234:
 7817 01a4 4372 634F 	.string"CrcOfTable"
 7817      6654 6162 
 7817      6C65 00
 7818               	.LASF230:
 7819 01af 4346 455F 	.string"CFE_TBL_DUMP_PERFORMED"
 7819      5442 4C5F 
 7819      4455 4D50 
 7819      5F50 4552 
 7819      464F 524D 
 7820               	.LASF345:
 7821 01c6 5265 6749 	.string"RegIndx"
 7821      6E64 7800 
 7822               	.LASF223:
 7823 01ce 4346 455F 	.string"CFE_TBL_TblRegPacket_t"
 7823      5442 4C5F 
68K GAS   			page 177


 7823      5462 6C52 
 7823      6567 5061 
 7823      636B 6574 
 7824               	.LASF98:
 7825 01e5 5F73 7464 	.string"_stdin"
 7825      696E 00
 7826               	.LASF86:
 7827 01ec 5F73 6565 	.string"_seek"
 7827      6B00 
 7828               	.LASF305:
 7829 01f2 4346 455F 	.string"CFE_TBL_CleanUpApp"
 7829      5442 4C5F 
 7829      436C 6561 
 7829      6E55 7041 
 7829      7070 00
 7830               	.LASF200:
 7831 0205 4C61 7374 	.string"LastUpdatedTbl"
 7831      5570 6461 
 7831      7465 6454 
 7831      626C 00
 7832               	.LASF359:
 7833 0214 2F68 6F6D 	.string"/home/simulink/cFS_FreeRTOS_seL4/cfe/fsw/cfe-core/src/tbl/cfe_tbl_internal.c"
 7833      652F 7369 
 7833      6D75 6C69 
 7833      6E6B 2F63 
 7833      4653 5F46 
 7834               	.LASF122:
 7835 0261 5F6D 756C 	.string"_mult"
 7835      7400 
 7836               	.LASF183:
 7837 0267 4346 455F 	.string"CFE_TBL_NotifyCmd_t"
 7837      5442 4C5F 
 7837      4E6F 7469 
 7837      6679 436D 
 7837      645F 7400 
 7838               	.LASF173:
 7839 027b 5072 6F63 	.string"ProcessorID"
 7839      6573 736F 
 7839      7249 4400 
 7840               	.LASF46:
 7841 0287 5F5F 7763 	.string"__wch"
 7841      6800 
 7842               	.LASF338:
 7843 028d 4675 6C6C 	.string"FullTblName"
 7843      5462 6C4E 
 7843      616D 6500 
 7844               	.LASF81:
 7845 0299 5F66 696C 	.string"_file"
 7845      6500 
 7846               	.LASF68:
 7847 029f 5F6F 6E5F 	.string"_on_exit_args"
 7847      6578 6974 
 7847      5F61 7267 
 7847      7300 
 7848               	.LASF187:
 7849 02ad 4E75 6D4C 	.string"NumLoadPending"
 7849      6F61 6450 
68K GAS   			page 178


 7849      656E 6469 
 7849      6E67 00
 7850               	.LASF307:
 7851 02bc 4346 455F 	.string"CFE_TBL_ByteSwapUint32"
 7851      5442 4C5F 
 7851      4279 7465 
 7851      5377 6170 
 7851      5569 6E74 
 7852               	.LASF137:
 7853 02d3 5F6D 6272 	.string"_mbrlen_state"
 7853      6C65 6E5F 
 7853      7374 6174 
 7853      6500 
 7854               	.LASF6:
 7855 02e1 6C6F 6E67 	.string"long int"
 7855      2069 6E74 
 7855      00
 7856               	.LASF148:
 7857 02ea 5F69 6D70 	.string"_impure_ptr"
 7857      7572 655F 
 7857      7074 7200 
 7858               	.LASF108:
 7859 02f6 5F72 6573 	.string"_result_k"
 7859      756C 745F 
 7859      6B00 
 7860               	.LASF239:
 7861 0300 4346 455F 	.string"CFE_TBL_BufParams_t"
 7861      5442 4C5F 
 7861      4275 6650 
 7861      6172 616D 
 7861      735F 7400 
 7862               	.LASF251:
 7863 0314 5570 6461 	.string"Updated"
 7863      7465 6400 
 7864               	.LASF78:
 7865 031c 5F73 697A 	.string"_size"
 7865      6500 
 7866               	.LASF176:
 7867 0322 5469 6D65 	.string"TimeSubSeconds"
 7867      5375 6253 
 7867      6563 6F6E 
 7867      6473 00
 7868               	.LASF297:
 7869 0331 4346 455F 	.string"CFE_TBL_File_Hdr_t"
 7869      5442 4C5F 
 7869      4669 6C65 
 7869      5F48 6472 
 7869      5F74 00
 7870               	.LASF208:
 7871 0344 4163 7469 	.string"ActiveBufferAddr"
 7871      7665 4275 
 7871      6666 6572 
 7871      4164 6472 
 7871      00
 7872               	.LASF127:
 7873 0355 5F6C 6F63 	.string"_localtime_buf"
 7873      616C 7469 
68K GAS   			page 179


 7873      6D65 5F62 
 7873      7566 00
 7874               	.LASF166:
 7875 0364 5072 696F 	.string"Priority"
 7875      7269 7479 
 7875      00
 7876               	.LASF238:
 7877 036d 5061 7274 	.string"Partition"
 7877      6974 696F 
 7877      6E00 
 7878               	.LASF296:
 7879 0377 4E75 6D42 	.string"NumBytes"
 7879      7974 6573 
 7879      00
 7880               	.LASF354:
 7881 0380 4346 455F 	.string"CFE_TBL_ValidateAppID"
 7881      5442 4C5F 
 7881      5661 6C69 
 7881      6461 7465 
 7881      4170 7049 
 7882               	.LASF63:
 7883 0396 5F5F 746D 	.string"__tm_mon"
 7883      5F6D 6F6E 
 7883      00
 7884               	.LASF280:
 7885 039f 5069 7065 	.string"PipeName"
 7885      4E61 6D65 
 7885      00
 7886               	.LASF233:
 7887 03a8 5265 7375 	.string"Result"
 7887      6C74 00
 7888               	.LASF242:
 7889 03af 5661 6C69 	.string"Validated"
 7889      6461 7465 
 7889      6400 
 7890               	.LASF205:
 7891 03b9 546C 6D48 	.string"TlmHeader"
 7891      6561 6465 
 7891      7200 
 7892               	.LASF207:
 7893 03c3 5369 7A65 	.string"Size"
 7893      00
 7894               	.LASF124:
 7895 03c8 5F75 6E75 	.string"_unused_rand"
 7895      7365 645F 
 7895      7261 6E64 
 7895      00
 7896               	.LASF332:
 7897 03d5 4346 455F 	.string"CFE_TBL_GetWorkingBuffer"
 7897      5442 4C5F 
 7897      4765 7457 
 7897      6F72 6B69 
 7897      6E67 4275 
 7898               	.LASF1:
 7899 03ee 7369 676E 	.string"signed char"
 7899      6564 2063 
 7899      6861 7200 
68K GAS   			page 180


 7900               	.LASF342:
 7901 03fa 4346 455F 	.string"CFE_TBL_FindFreeHandle"
 7901      5442 4C5F 
 7901      4669 6E64 
 7901      4672 6565 
 7901      4861 6E64 
 7902               	.LASF325:
 7903 0411 4346 455F 	.string"CFE_TBL_LoadFromFile"
 7903      5442 4C5F 
 7903      4C6F 6164 
 7903      4672 6F6D 
 7903      4669 6C65 
 7904               	.LASF15:
 7905 0426 626F 6F6C 	.string"boolean"
 7905      6561 6E00 
 7906               	.LASF163:
 7907 042e 4346 455F 	.string"CFE_SB_Msg_t"
 7907      5342 5F4D 
 7907      7367 5F74 
 7907      00
 7908               	.LASF182:
 7909 043b 5061 796C 	.string"Payload"
 7909      6F61 6400 
 7910               	.LASF36:
 7911 0443 5F54 6872 	.string"_Thread_queue_Heads"
 7911      6561 645F 
 7911      7175 6575 
 7911      655F 4865 
 7911      6164 7300 
 7912               	.LASF179:
 7913 0457 5061 7261 	.string"Parameter"
 7913      6D65 7465 
 7913      7200 
 7914               	.LASF0:
 7915 0461 756E 7369 	.string"unsigned char"
 7915      676E 6564 
 7915      2063 6861 
 7915      7200 
 7916               	.LASF257:
 7917 046f 4275 6666 	.string"Buffers"
 7917      6572 7300 
 7918               	.LASF190:
 7919 0477 4C61 7374 	.string"LastValStatus"
 7919      5661 6C53 
 7919      7461 7475 
 7919      7300 
 7920               	.LASF103:
 7921 0485 5F75 6E73 	.string"_unspecified_locale_info"
 7921      7065 6369 
 7921      6669 6564 
 7921      5F6C 6F63 
 7921      616C 655F 
 7922               	.LASF237:
 7923 049e 506F 6F6C 	.string"PoolHdl"
 7923      4864 6C00 
 7924               	.LASF96:
 7925 04a6 5F72 6565 	.string"_reent"
68K GAS   			page 181


 7925      6E74 00
 7926               	.LASF149:
 7927 04ad 5F67 6C6F 	.string"_global_impure_ptr"
 7927      6261 6C5F 
 7927      696D 7075 
 7927      7265 5F70 
 7927      7472 00
 7928               	.LASF298:
 7929 04c0 4346 455F 	.string"CFE_TBL_TaskData"
 7929      5442 4C5F 
 7929      5461 736B 
 7929      4461 7461 
 7929      00
 7930               	.LASF188:
 7931 04d1 5661 6C69 	.string"ValidationCtr"
 7931      6461 7469 
 7931      6F6E 4374 
 7931      7200 
 7932               	.LASF331:
 7933 04df 4578 7472 	.string"ExtraByte"
 7933      6142 7974 
 7933      6500 
 7934               	.LASF346:
 7935 04e9 4346 455F 	.string"CFE_TBL_FindTableInRegistry"
 7935      5442 4C5F 
 7935      4669 6E64 
 7935      5461 626C 
 7935      6549 6E52 
 7936               	.LASF31:
 7937 0505 5F54 6872 	.string"_Thread_queue_Queue"
 7937      6561 645F 
 7937      7175 6575 
 7937      655F 5175 
 7937      6575 6500 
 7938               	.LASF222:
 7939 0519 4346 455F 	.string"CFE_TBL_TblRegPacket_Payload_t"
 7939      5442 4C5F 
 7939      5462 6C52 
 7939      6567 5061 
 7939      636B 6574 
 7940               	.LASF16:
 7941 0538 6368 6172 	.string"char"
 7941      00
 7942               	.LASF317:
 7943 053d 5462 6C46 	.string"TblFileHeaderPtr"
 7943      696C 6548 
 7943      6561 6465 
 7943      7250 7472 
 7943      00
 7944               	.LASF75:
 7945 054e 5F66 6E73 	.string"_fns"
 7945      00
 7946               	.LASF272:
 7947 0553 5265 6752 	.string"RegRecPtr"
 7947      6563 5074 
 7947      7200 
 7948               	.LASF87:
68K GAS   			page 182


 7949 055d 5F63 6C6F 	.string"_close"
 7949      7365 00
 7950               	.LASF259:
 7951 0564 4C6F 6164 	.string"LoadInProgress"
 7951      496E 5072 
 7951      6F67 7265 
 7951      7373 00
 7952               	.LASF282:
 7953 0573 5461 626C 	.string"TableTaskAppId"
 7953      6554 6173 
 7953      6B41 7070 
 7953      4964 00
 7954               	.LASF312:
 7955 0582 4346 455F 	.string"CFE_TBL_ByteSwapTblHeader"
 7955      5442 4C5F 
 7955      4279 7465 
 7955      5377 6170 
 7955      5462 6C48 
 7956               	.LASF14:
 7957 059c 6370 7561 	.string"cpuaddr"
 7957      6464 7200 
 7958               	.LASF348:
 7959 05a4 4346 455F 	.string"CFE_TBL_GetAddressInternal"
 7959      5442 4C5F 
 7959      4765 7441 
 7959      6464 7265 
 7959      7373 496E 
 7960               	.LASF30:
 7961 05bf 5F54 6963 	.string"_Ticket_lock_Control"
 7961      6B65 745F 
 7961      6C6F 636B 
 7961      5F43 6F6E 
 7961      7472 6F6C 
 7962               	.LASF181:
 7963 05d4 436D 6448 	.string"CmdHeader"
 7963      6561 6465 
 7963      7200 
 7964               	.LASF215:
 7965 05de 4C6F 6164 	.string"LoadPending"
 7965      5065 6E64 
 7965      696E 6700 
 7966               	.LASF17:
 7967 05ea 5365 636F 	.string"Seconds"
 7967      6E64 7300 
 7968               	.LASF161:
 7969 05f2 4477 6F72 	.string"Dword"
 7969      6400 
 7970               	.LASF314:
 7971 05f8 4346 455F 	.string"CFE_TBL_ReadHeaders"
 7971      5442 4C5F 
 7971      5265 6164 
 7971      4865 6164 
 7971      6572 7300 
 7972               	.LASF156:
 7973 060c 4346 455F 	.string"CFE_ES_CDSHandle_t"
 7973      4553 5F43 
 7973      4453 4861 
68K GAS   			page 183


 7973      6E64 6C65 
 7973      5F74 00
 7974               	.LASF211:
 7975 061f 5469 6D65 	.string"TimeOfLastUpdate"
 7975      4F66 4C61 
 7975      7374 5570 
 7975      6461 7465 
 7975      00
 7976               	.LASF335:
 7977 0630 4346 455F 	.string"CFE_TBL_UnlockRegistry"
 7977      5442 4C5F 
 7977      556E 6C6F 
 7977      636B 5265 
 7977      6769 7374 
 7978               	.LASF34:
 7979 0647 5F6F 776E 	.string"_owner"
 7979      6572 00
 7980               	.LASF279:
 7981 064e 436D 6450 	.string"CmdPipe"
 7981      6970 6500 
 7982               	.LASF357:
 7983 0656 4346 455F 	.string"CFE_TBL_EarlyInit"
 7983      5442 4C5F 
 7983      4561 726C 
 7983      7949 6E69 
 7983      7400 
 7984               	.LASF256:
 7985 0668 4E6F 7469 	.string"NotificationParam"
 7985      6669 6361 
 7985      7469 6F6E 
 7985      5061 7261 
 7985      6D00 
 7986               	.LASF328:
 7987 067a 5374 6446 	.string"StdFileHeader"
 7987      696C 6548 
 7987      6561 6465 
 7987      7200 
 7988               	.LASF186:
 7989 0688 4E75 6D54 	.string"NumTables"
 7989      6162 6C65 
 7989      7300 
 7990               	.LASF185:
 7991 0692 4572 7243 	.string"ErrCounter"
 7991      6F75 6E74 
 7991      6572 00
 7992               	.LASF235:
 7993 069d 5461 626C 	.string"TableName"
 7993      654E 616D 
 7993      6500 
 7994               	.LASF240:
 7995 06a7 4275 6666 	.string"BufferPtr"
 7995      6572 5074 
 7995      7200 
 7996               	.LASF154:
 7997 06b1 5F74 7A6E 	.string"_tzname"
 7997      616D 6500 
 7998               	.LASF42:
68K GAS   			page 184


 7999 06b9 5F6E 6573 	.string"_nest_level"
 7999      745F 6C65 
 7999      7665 6C00 
 8000               	.LASF281:
 8001 06c5 5069 7065 	.string"PipeDepth"
 8001      4465 7074 
 8001      6800 
 8002               	.LASF217:
 8003 06cf 4462 6C42 	.string"DblBuffered"
 8003      7566 6665 
 8003      7265 6400 
 8004               	.LASF83:
 8005 06db 5F63 6F6F 	.string"_cookie"
 8005      6B69 6500 
 8006               	.LASF321:
 8007 06e3 4163 6365 	.string"AccessIterator"
 8007      7373 4974 
 8007      6572 6174 
 8007      6F72 00
 8008               	.LASF57:
 8009 06f2 5F77 6473 	.string"_wds"
 8009      00
 8010               	.LASF334:
 8011 06f7 496E 6163 	.string"InactiveBufferIndex"
 8011      7469 7665 
 8011      4275 6666 
 8011      6572 496E 
 8011      6465 7800 
 8012               	.LASF114:
 8013 070b 5F73 6967 	.string"_sig_func"
 8013      5F66 756E 
 8013      6300 
 8014               	.LASF170:
 8015 0715 436F 6E74 	.string"ContentType"
 8015      656E 7454 
 8015      7970 6500 
 8016               	.LASF91:
 8017 0721 5F6F 6666 	.string"_offset"
 8017      7365 7400 
 8018               	.LASF226:
 8019 0729 4346 455F 	.string"CFE_TBL_VALIDATION_PERFORMED"
 8019      5442 4C5F 
 8019      5641 4C49 
 8019      4441 5449 
 8019      4F4E 5F50 
 8020               	.LASF112:
 8021 0746 5F63 7674 	.string"_cvtbuf"
 8021      6275 6600 
 8022               	.LASF192:
 8023 074e 4C61 7374 	.string"LastValTableName"
 8023      5661 6C54 
 8023      6162 6C65 
 8023      4E61 6D65 
 8023      00
 8024               	.LASF28:
 8025 075f 5F6E 6578 	.string"_next_ticket"
 8025      745F 7469 
68K GAS   			page 185


 8025      636B 6574 
 8025      00
 8026               	.LASF283:
 8027 076c 486B 546C 	.string"HkTlmTblRegIndex"
 8027      6D54 626C 
 8027      5265 6749 
 8027      6E64 6578 
 8027      00
 8028               	.LASF333:
 8029 077d 4361 6C6C 	.string"CalledByApp"
 8029      6564 4279 
 8029      4170 7000 
 8030               	.LASF293:
 8031 0789 4346 455F 	.string"CFE_TBL_TaskData_t"
 8031      5442 4C5F 
 8031      5461 736B 
 8031      4461 7461 
 8031      5F74 00
 8032               	.LASF220:
 8033 079c 4372 6974 	.string"Critical"
 8033      6963 616C 
 8033      00
 8034               	.LASF315:
 8035 07a5 4669 6C65 	.string"FileDescriptor"
 8035      4465 7363 
 8035      7269 7074 
 8035      6F72 00
 8036               	.LASF109:
 8037 07b4 5F70 3573 	.string"_p5s"
 8037      00
 8038               	.LASF12:
 8039 07b9 6C6F 6E67 	.string"long unsigned int"
 8039      2075 6E73 
 8039      6967 6E65 
 8039      6420 696E 
 8039      7400 
 8040               	.LASF245:
 8041 07cb 4170 7049 	.string"AppId"
 8041      6400 
 8042               	.LASF79:
 8043 07d1 5F5F 7346 	.string"__sFILE"
 8043      494C 4500 
 8044               	.LASF105:
 8045 07d9 5F5F 7364 	.string"__sdidinit"
 8045      6964 696E 
 8045      6974 00
 8046               	.LASF95:
 8047 07e4 5F66 6C61 	.string"_flags2"
 8047      6773 3200 
 8048               	.LASF286:
 8049 07ec 4372 6974 	.string"CritRegHandle"
 8049      5265 6748 
 8049      616E 646C 
 8049      6500 
 8050               	.LASF193:
 8051 07fa 5375 6363 	.string"SuccessValCtr"
 8051      6573 7356 
68K GAS   			page 186


 8051      616C 4374 
 8051      7200 
 8052               	.LASF219:
 8053 0808 4F77 6E65 	.string"OwnerAppName"
 8053      7241 7070 
 8053      4E61 6D65 
 8053      00
 8054               	.LASF43:
 8055 0815 5F4C 4F43 	.string"_LOCK_RECURSIVE_T"
 8055      4B5F 5245 
 8055      4355 5253 
 8055      4956 455F 
 8055      5400 
 8056               	.LASF261:
 8057 0827 5661 6C69 	.string"ValidateInactiveIndex"
 8057      6461 7465 
 8057      496E 6163 
 8057      7469 7665 
 8057      496E 6465 
 8058               	.LASF97:
 8059 083d 5F65 7272 	.string"_errno"
 8059      6E6F 00
 8060               	.LASF249:
 8061 0844 5573 6564 	.string"UsedFlag"
 8061      466C 6167 
 8061      00
 8062               	.LASF135:
 8063 084d 5F73 6967 	.string"_signal_buf"
 8063      6E61 6C5F 
 8063      6275 6600 
 8064               	.LASF258:
 8065 0859 4865 6164 	.string"HeadOfAccessList"
 8065      4F66 4163 
 8065      6365 7373 
 8065      4C69 7374 
 8065      00
 8066               	.LASF340:
 8067 086a 5468 6973 	.string"ThisAppId"
 8067      4170 7049 
 8067      6400 
 8068               	.LASF290:
 8069 0874 4372 6974 	.string"CritReg"
 8069      5265 6700 
 8070               	.LASF292:
 8071 087c 4475 6D70 	.string"DumpControlBlocks"
 8071      436F 6E74 
 8071      726F 6C42 
 8071      6C6F 636B 
 8071      7300 
 8072               	.LASF53:
 8073 088e 5F42 6967 	.string"_Bigint"
 8073      696E 7400 
 8074               	.LASF260:
 8075 0896 5661 6C69 	.string"ValidateActiveIndex"
 8075      6461 7465 
 8075      4163 7469 
 8075      7665 496E 
68K GAS   			page 187


 8075      6465 7800 
 8076               	.LASF303:
 8077 08aa 4344 5348 	.string"CDSHandleToFind"
 8077      616E 646C 
 8077      6554 6F46 
 8077      696E 6400 
 8078               	.LASF55:
 8079 08ba 5F6D 6178 	.string"_maxwds"
 8079      7764 7300 
 8080               	.LASF106:
 8081 08c2 5F5F 636C 	.string"__cleanup"
 8081      6561 6E75 
 8081      7000 
 8082               	.LASF309:
 8083 08cc 5465 6D70 	.string"Temp"
 8083      00
 8084               	.LASF299:
 8085 08d1 5374 6174 	.string"Status"
 8085      7573 00
 8086               	.LASF241:
 8087 08d8 5461 6B65 	.string"Taken"
 8087      6E00 
 8088               	.LASF102:
 8089 08de 5F65 6D65 	.string"_emergency"
 8089      7267 656E 
 8089      6379 00
 8090               	.LASF250:
 8091 08e9 4C6F 636B 	.string"LockFlag"
 8091      466C 6167 
 8091      00
 8092               	.LASF7:
 8093 08f2 6C6F 6E67 	.string"long long int"
 8093      206C 6F6E 
 8093      6720 696E 
 8093      7400 
 8094               	.LASF236:
 8095 0900 4346 455F 	.string"CFE_TBL_ValidationResult_t"
 8095      5442 4C5F 
 8095      5661 6C69 
 8095      6461 7469 
 8095      6F6E 5265 
 8096               	.LASF118:
 8097 091b 5F6E 696F 	.string"_niobs"
 8097      6273 00
 8098               	.LASF269:
 8099 0922 4346 455F 	.string"CFE_TBL_RegistryRec_t"
 8099      5442 4C5F 
 8099      5265 6769 
 8099      7374 7279 
 8099      5265 635F 
 8100               	.LASF115:
 8101 0938 5F5F 7367 	.string"__sglue"
 8101      6C75 6500 
 8102               	.LASF144:
 8103 0940 5F6E 6D61 	.string"_nmalloc"
 8103      6C6C 6F63 
 8103      00
68K GAS   			page 188


 8104               	.LASF313:
 8105 0949 4864 7250 	.string"HdrPtr"
 8105      7472 00
 8106               	.LASF128:
 8107 0950 5F67 616D 	.string"_gamma_signgam"
 8107      6D61 5F73 
 8107      6967 6E67 
 8107      616D 00
 8108               	.LASF287:
 8109 095f 4C6F 6164 	.string"LoadBuffs"
 8109      4275 6666 
 8109      7300 
 8110               	.LASF110:
 8111 0969 5F66 7265 	.string"_freelist"
 8111      656C 6973 
 8111      7400 
 8112               	.LASF318:
 8113 0973 4C6F 6164 	.string"LoadFilename"
 8113      4669 6C65 
 8113      6E61 6D65 
 8113      00
 8114               	.LASF119:
 8115 0980 5F69 6F62 	.string"_iobs"
 8115      7300 
 8116               	.LASF117:
 8117 0986 5F67 6C75 	.string"_glue"
 8117      6500 
 8118               	.LASF56:
 8119 098c 5F73 6967 	.string"_sign"
 8119      6E00 
 8120               	.LASF323:
 8121 0992 5462 6C48 	.string"TblHandle"
 8121      616E 646C 
 8121      6500 
 8122               	.LASF268:
 8123 099c 4163 7469 	.string"ActiveBufferIndex"
 8123      7665 4275 
 8123      6666 6572 
 8123      496E 6465 
 8123      7800 
 8124               	.LASF212:
 8125 09ae 4669 6C65 	.string"FileCreateTimeSecs"
 8125      4372 6561 
 8125      7465 5469 
 8125      6D65 5365 
 8125      6373 00
 8126               	.LASF327:
 8127 09c1 4669 6C65 	.string"Filename"
 8127      6E61 6D65 
 8127      00
 8128               	.LASF22:
 8129 09ca 756E 7369 	.string"unsigned int"
 8129      676E 6564 
 8129      2069 6E74 
 8129      00
 8130               	.LASF152:
 8131 09d7 5F74 696D 	.string"_timezone"
68K GAS   			page 189


 8131      657A 6F6E 
 8131      6500 
 8132               	.LASF224:
 8133 09e1 4346 455F 	.string"CFE_TBL_VALIDATION_FREE"
 8133      5442 4C5F 
 8133      5641 4C49 
 8133      4441 5449 
 8133      4F4E 5F46 
 8134               	.LASF231:
 8135 09f9 4346 455F 	.string"CFE_TBL_DumpState_t"
 8135      5442 4C5F 
 8135      4475 6D70 
 8135      5374 6174 
 8135      655F 7400 
 8136               	.LASF142:
 8137 0a0d 5F68 5F65 	.string"_h_errno"
 8137      7272 6E6F 
 8137      00
 8138               	.LASF320:
 8139 0a16 4346 455F 	.string"CFE_TBL_NotifyTblUsersOfUpdate"
 8139      5442 4C5F 
 8139      4E6F 7469 
 8139      6679 5462 
 8139      6C55 7365 
 8140               	.LASF175:
 8141 0a35 5469 6D65 	.string"TimeSeconds"
 8141      5365 636F 
 8141      6E64 7300 
 8142               	.LASF140:
 8143 0a41 5F77 6372 	.string"_wcrtomb_state"
 8143      746F 6D62 
 8143      5F73 7461 
 8143      7465 00
 8144               	.LASF294:
 8145 0a50 5265 7365 	.string"Reserved"
 8145      7276 6564 
 8145      00
 8146               	.LASF62:
 8147 0a59 5F5F 746D 	.string"__tm_mday"
 8147      5F6D 6461 
 8147      7900 
 8148               	.LASF336:
 8149 0a63 4346 455F 	.string"CFE_TBL_LockRegistry"
 8149      5442 4C5F 
 8149      4C6F 636B 
 8149      5265 6769 
 8149      7374 7279 
 8150               	.LASF199:
 8151 0a78 4C61 7374 	.string"LastUpdateTime"
 8151      5570 6461 
 8151      7465 5469 
 8151      6D65 00
 8152               	.LASF113:
 8153 0a87 5F6E 6577 	.string"_new"
 8153      00
 8154               	.LASF35:
 8155 0a8c 5F6E 616D 	.string"_name"
68K GAS   			page 190


 8155      6500 
 8156               	.LASF88:
 8157 0a92 5F75 6275 	.string"_ubuf"
 8157      6600 
 8158               	.LASF167:
 8159 0a98 5265 6C69 	.string"Reliability"
 8159      6162 696C 
 8159      6974 7900 
 8160               	.LASF100:
 8161 0aa4 5F73 7464 	.string"_stderr"
 8161      6572 7200 
 8162               	.LASF271:
 8163 0aac 4475 6D70 	.string"DumpBufferPtr"
 8163      4275 6666 
 8163      6572 5074 
 8163      7200 
 8164               	.LASF267:
 8165 0aba 4E6F 7469 	.string"NotifyByMsg"
 8165      6679 4279 
 8165      4D73 6700 
 8166               	.LASF133:
 8167 0ac6 5F77 6374 	.string"_wctomb_state"
 8167      6F6D 625F 
 8167      7374 6174 
 8167      6500 
 8168               	.LASF94:
 8169 0ad4 5F6D 6273 	.string"_mbstate"
 8169      7461 7465 
 8169      00
 8170               	.LASF129:
 8171 0add 5F72 616E 	.string"_rand_next"
 8171      645F 6E65 
 8171      7874 00
 8172               	.LASF248:
 8173 0ae8 4E65 7874 	.string"NextLink"
 8173      4C69 6E6B 
 8173      00
 8174               	.LASF80:
 8175 0af1 5F66 6C61 	.string"_flags"
 8175      6773 00
 8176               	.LASF246:
 8177 0af8 5265 6749 	.string"RegIndex"
 8177      6E64 6578 
 8177      00
 8178               	.LASF353:
 8179 0b01 4170 7049 	.string"AppIdPtr"
 8179      6450 7472 
 8179      00
 8180               	.LASF73:
 8181 0b0a 5F61 7465 	.string"_atexit"
 8181      7869 7400 
 8182               	.LASF276:
 8183 0b12 5462 6C52 	.string"TblRegPacket"
 8183      6567 5061 
 8183      636B 6574 
 8183      00
 8184               	.LASF18:
68K GAS   			page 191


 8185 0b1f 5375 6273 	.string"Subseconds"
 8185      6563 6F6E 
 8185      6473 00
 8186               	.LASF352:
 8187 0b2a 4346 455F 	.string"CFE_TBL_ValidateAccess"
 8187      5442 4C5F 
 8187      5661 6C69 
 8187      6461 7465 
 8187      4163 6365 
 8188               	.LASF48:
 8189 0b41 5F5F 636F 	.string"__count"
 8189      756E 7400 
 8190               	.LASF198:
 8191 0b49 4D65 6D50 	.string"MemPoolHandle"
 8191      6F6F 6C48 
 8191      616E 646C 
 8191      6500 
 8192               	.LASF300:
 8193 0b57 4372 6974 	.string"CritRegRecPtr"
 8193      5265 6752 
 8193      6563 5074 
 8193      7200 
 8194               	.LASF210:
 8195 0b65 5661 6C69 	.string"ValidationFuncPtr"
 8195      6461 7469 
 8195      6F6E 4675 
 8195      6E63 5074 
 8195      7200 
 8196               	.LASF270:
 8197 0b77 4346 455F 	.string"CFE_TBL_CritRegRec_t"
 8197      5442 4C5F 
 8197      4372 6974 
 8197      5265 6752 
 8197      6563 5F74 
 8198               	.LASF206:
 8199 0b8c 4346 455F 	.string"CFE_TBL_HkPacket_t"
 8199      5442 4C5F 
 8199      486B 5061 
 8199      636B 6574 
 8199      5F74 00
 8200               	.LASF218:
 8201 0b9f 4E61 6D65 	.string"Name"
 8201      00
 8202               	.LASF180:
 8203 0ba4 4346 455F 	.string"CFE_TBL_NotifyCmd_Payload_t"
 8203      5442 4C5F 
 8203      4E6F 7469 
 8203      6679 436D 
 8203      645F 5061 
 8204               	.LASF65:
 8205 0bc0 5F5F 746D 	.string"__tm_wday"
 8205      5F77 6461 
 8205      7900 
 8206               	.LASF254:
 8207 0bca 4F77 6E65 	.string"OwnerAppId"
 8207      7241 7070 
 8207      4964 00
68K GAS   			page 192


 8208               	.LASF162:
 8209 0bd5 4279 7465 	.string"Byte"
 8209      00
 8210               	.LASF25:
 8211 0bda 6C6F 6E67 	.string"long double"
 8211      2064 6F75 
 8211      626C 6500 
 8212               	.LASF66:
 8213 0be6 5F5F 746D 	.string"__tm_yday"
 8213      5F79 6461 
 8213      7900 
 8214               	.LASF322:
 8215 0bf0 4346 455F 	.string"CFE_TBL_UpdateInternal"
 8215      5442 4C5F 
 8215      5570 6461 
 8215      7465 496E 
 8215      7465 726E 
 8216               	.LASF40:
 8217 0c07 5F4D 7574 	.string"_Mutex_recursive_Control"
 8217      6578 5F72 
 8217      6563 7572 
 8217      7369 7665 
 8217      5F43 6F6E 
 8218               	.LASF33:
 8219 0c20 5F68 6561 	.string"_heads"
 8219      6473 00
 8220               	.LASF229:
 8221 0c27 4346 455F 	.string"CFE_TBL_DUMP_PENDING"
 8221      5442 4C5F 
 8221      4455 4D50 
 8221      5F50 454E 
 8221      4449 4E47 
 8222               	.LASF121:
 8223 0c3c 5F73 6565 	.string"_seed"
 8223      6400 
 8224               	.LASF39:
 8225 0c42 5F51 7565 	.string"_Queue"
 8225      7565 00
 8226               	.LASF295:
 8227 0c49 4F66 6673 	.string"Offset"
 8227      6574 00
 8228               	.LASF244:
 8229 0c50 4346 455F 	.string"CFE_TBL_LoadBuff_t"
 8229      5442 4C5F 
 8229      4C6F 6164 
 8229      4275 6666 
 8229      5F74 00
 8230               	.LASF27:
 8231 0c63 5F66 706F 	.string"_fpos_t"
 8231      735F 7400 
 8232               	.LASF47:
 8233 0c6b 5F5F 7763 	.string"__wchb"
 8233      6862 00
 8234               	.LASF274:
 8235 0c72 4C61 7374 	.string"LastTblUpdated"
 8235      5462 6C55 
 8235      7064 6174 
68K GAS   			page 193


 8235      6564 00
 8236               	.LASF132:
 8237 0c81 5F6D 6274 	.string"_mbtowc_state"
 8237      6F77 635F 
 8237      7374 6174 
 8237      6500 
 8238               	.LASF13:
 8239 0c8f 6C6F 6E67 	.string"long long unsigned int"
 8239      206C 6F6E 
 8239      6720 756E 
 8239      7369 676E 
 8239      6564 2069 
 8240               	.LASF194:
 8241 0ca6 4661 696C 	.string"FailedValCtr"
 8241      6564 5661 
 8241      6C43 7472 
 8241      00
 8242               	.LASF264:
 8243 0cb3 4E6F 7469 	.string"NotificationCC"
 8243      6669 6361 
 8243      7469 6F6E 
 8243      4343 00
 8244               	.LASF360:
 8245 0cc2 2F68 6F6D 	.string"/home/simulink/cFS_FreeRTOS_seL4/build/cpu1/cfe/tbl"
 8245      652F 7369 
 8245      6D75 6C69 
 8245      6E6B 2F63 
 8245      4653 5F46 
 8246               	.LASF70:
 8247 0cf6 5F64 736F 	.string"_dso_handle"
 8247      5F68 616E 
 8247      646C 6500 
 8248               	.LASF221:
 8249 0d02 4279 7465 	.string"ByteAlign4"
 8249      416C 6967 
 8249      6E34 00
 8250               	.LASF120:
 8251 0d0d 5F72 616E 	.string"_rand48"
 8251      6434 3800 
 8252               	.LASF99:
 8253 0d15 5F73 7464 	.string"_stdout"
 8253      6F75 7400 
 8254               	.LASF232:
 8255 0d1d 5374 6174 	.string"State"
 8255      6500 
 8256               	.LASF301:
 8257 0d23 4346 455F 	.string"CFE_TBL_UpdateCriticalTblCDS"
 8257      5442 4C5F 
 8257      5570 6461 
 8257      7465 4372 
 8257      6974 6963 
 8258               	.LASF306:
 8259 0d40 4163 6365 	.string"AccessDescPtr"
 8259      7373 4465 
 8259      7363 5074 
 8259      7200 
 8260               	.LASF196:
68K GAS   			page 194


 8261 0d4e 4E75 6D46 	.string"NumFreeSharedBufs"
 8261      7265 6553 
 8261      6861 7265 
 8261      6442 7566 
 8261      7300 
 8262               	.LASF90:
 8263 0d60 5F62 6C6B 	.string"_blksize"
 8263      7369 7A65 
 8263      00
 8264               	.LASF291:
 8265 0d69 5661 6C69 	.string"ValidationResults"
 8265      6461 7469 
 8265      6F6E 5265 
 8265      7375 6C74 
 8265      7300 
 8266               	.LASF265:
 8267 0d7b 4372 6974 	.string"CriticalTable"
 8267      6963 616C 
 8267      5461 626C 
 8267      6500 
 8268               	.LASF77:
 8269 0d89 5F62 6173 	.string"_base"
 8269      6500 
 8270               	.LASF125:
 8271 0d8f 5F73 7472 	.string"_strtok_last"
 8271      746F 6B5F 
 8271      6C61 7374 
 8271      00
 8272               	.LASF284:
 8273 0d9c 5265 6769 	.string"RegistryMutex"
 8273      7374 7279 
 8273      4D75 7465 
 8273      7800 
 8274               	.LASF138:
 8275 0daa 5F6D 6272 	.string"_mbrtowc_state"
 8275      746F 7763 
 8275      5F73 7461 
 8275      7465 00
 8276               	.LASF51:
 8277 0db9 5F66 6C6F 	.string"_flock_t"
 8277      636B 5F74 
 8277      00
 8278               	.LASF116:
 8279 0dc2 5F5F 4649 	.string"__FILE"
 8279      4C45 00
 8280               	.LASF93:
 8281 0dc9 5F6C 6F63 	.string"_lock"
 8281      6B00 
 8282               	.LASF329:
 8283 0dcf 5462 6C46 	.string"TblFileHeader"
 8283      696C 6548 
 8283      6561 6465 
 8283      7200 
 8284               	.LASF50:
 8285 0ddd 5F6D 6273 	.string"_mbstate_t"
 8285      7461 7465 
 8285      5F74 00
68K GAS   			page 195


 8286               	.LASF130:
 8287 0de8 5F72 3438 	.string"_r48"
 8287      00
 8288               	.LASF159:
 8289 0ded 4C65 6E67 	.string"Length"
 8289      7468 00
 8290               	.LASF45:
 8291 0df4 7769 6E74 	.string"wint_t"
 8291      5F74 00
 8292               	.LASF316:
 8293 0dfb 5374 6446 	.string"StdFileHeaderPtr"
 8293      696C 6548 
 8293      6561 6465 
 8293      7250 7472 
 8293      00
 8294               	.LASF341:
 8295 0e0c 4170 704E 	.string"AppName"
 8295      616D 6500 
 8296               	.LASF2:
 8297 0e14 6F73 616C 	.string"osalbool"
 8297      626F 6F6C 
 8297      00
 8298               	.LASF54:
 8299 0e1d 5F6E 6578 	.string"_next"
 8299      7400 
 8300               	.LASF92:
 8301 0e23 5F64 6174 	.string"_data"
 8301      6100 
 8302               	.LASF202:
 8303 0e29 4C61 7374 	.string"LastFileDumped"
 8303      4669 6C65 
 8303      4475 6D70 
 8303      6564 00
 8304               	.LASF169:
 8305 0e38 4346 455F 	.string"CFE_SB_Default_Qos"
 8305      5342 5F44 
 8305      6566 6175 
 8305      6C74 5F51 
 8305      6F73 00
 8306               	.LASF273:
 8307 0e4b 4346 455F 	.string"CFE_TBL_DumpControl_t"
 8307      5442 4C5F 
 8307      4475 6D70 
 8307      436F 6E74 
 8307      726F 6C5F 
 8308               	.LASF195:
 8309 0e61 4E75 6D56 	.string"NumValRequests"
 8309      616C 5265 
 8309      7175 6573 
 8309      7473 00
 8310               	.LASF164:
 8311 0e70 4346 455F 	.string"CFE_SB_PipeId_t"
 8311      5342 5F50 
 8311      6970 6549 
 8311      645F 7400 
 8312               	.LASF339:
 8313 0e80 5462 6C4E 	.string"TblName"
68K GAS   			page 196


 8313      616D 6500 
 8314               	.LASF41:
 8315 0e88 5F4D 7574 	.string"_Mutex"
 8315      6578 00
 8316               	.LASF277:
 8317 0e8f 4E6F 7469 	.string"NotifyMsg"
 8317      6679 4D73 
 8317      6700 
 8318               	.LASF266:
 8319 0e99 5573 6572 	.string"UserDefAddr"
 8319      4465 6641 
 8319      6464 7200 
 8320               	.LASF262:
 8321 0ea5 4475 6D70 	.string"DumpControlIndex"
 8321      436F 6E74 
 8321      726F 6C49 
 8321      6E64 6578 
 8321      00
 8322               	.LASF8:
 8323 0eb6 7569 6E74 	.string"uint8"
 8323      3800 
 8324               	.LASF330:
 8325 0ebc 4669 6C65 	.string"FilenameLen"
 8325      6E61 6D65 
 8325      4C65 6E00 
 8326               	.LASF310:
 8327 0ec8 496E 5074 	.string"InPtr"
 8327      7200 
 8328               	.LASF131:
 8329 0ece 5F6D 626C 	.string"_mblen_state"
 8329      656E 5F73 
 8329      7461 7465 
 8329      00
 8330               	.LASF4:
 8331 0edb 7368 6F72 	.string"short int"
 8331      7420 696E 
 8331      7400 
 8332               	.LASF344:
 8333 0ee5 4346 455F 	.string"CFE_TBL_FindFreeRegistryEntry"
 8333      5442 4C5F 
 8333      4669 6E64 
 8333      4672 6565 
 8333      5265 6769 
 8334               	.LASF289:
 8335 0f03 5265 6769 	.string"Registry"
 8335      7374 7279 
 8335      00
 8336               	.LASF324:
 8337 0f0c 4C6F 636B 	.string"LockStatus"
 8337      5374 6174 
 8337      7573 00
 8338               	.LASF263:
 8339 0f17 4344 5348 	.string"CDSHandle"
 8339      616E 646C 
 8339      6500 
 8340               	.LASF151:
 8341 0f21 7375 626F 	.string"suboptarg"
68K GAS   			page 197


 8341      7074 6172 
 8341      6700 
 8342               	.LASF71:
 8343 0f2b 5F66 6E74 	.string"_fntypes"
 8343      7970 6573 
 8343      00
 8344               	.LASF204:
 8345 0f34 4346 455F 	.string"CFE_TBL_HkPacket_Payload_t"
 8345      5442 4C5F 
 8345      486B 5061 
 8345      636B 6574 
 8345      5F50 6179 
 8346               	.LASF343:
 8347 0f4f 4861 6E64 	.string"HandleIndx"
 8347      6C65 496E 
 8347      6478 00
 8348               	.LASF64:
 8349 0f5a 5F5F 746D 	.string"__tm_year"
 8349      5F79 6561 
 8349      7200 
 8350               	.LASF304:
 8351 0f64 4346 455F 	.string"CFE_TBL_SendNotificationMsg"
 8351      5442 4C5F 
 8351      5365 6E64 
 8351      4E6F 7469 
 8351      6669 6361 
 8352               	.LASF311:
 8353 0f80 4F75 7450 	.string"OutPtr"
 8353      7472 00
 8354               	.LASF191:
 8355 0f87 4163 7469 	.string"ActiveBuffer"
 8355      7665 4275 
 8355      6666 6572 
 8355      00
 8356               	.LASF82:
 8357 0f94 5F6C 6266 	.string"_lbfsize"
 8357      7369 7A65 
 8357      00
 8358               	.LASF101:
 8359 0f9d 5F69 6E63 	.string"_inc"
 8359      00
 8360               	.LASF74:
 8361 0fa2 5F69 6E64 	.string"_ind"
 8361      00
 8362               	.LASF349:
 8363 0fa7 5462 6C50 	.string"TblPtr"
 8363      7472 00
 8364               	.LASF23:
 8365 0fae 5F5F 696E 	.string"__int64_t"
 8365      7436 345F 
 8365      7400 
 8366               	.LASF197:
 8367 0fb8 4279 7465 	.string"ByteAlignPad1"
 8367      416C 6967 
 8367      6E50 6164 
 8367      3100 
 8368               	.LASF3:
68K GAS   			page 198


 8369 0fc6 696E 7431 	.string"int16"
 8369      3600 
 8370               	.LASF76:
 8371 0fcc 5F5F 7362 	.string"__sbuf"
 8371      7566 00
 8372               	.LASF72:
 8373 0fd3 5F69 735F 	.string"_is_cxa"
 8373      6378 6100 
 8374               	.LASF19:
 8375 0fdb 4346 455F 	.string"CFE_TIME_SysTime_t"
 8375      5449 4D45 
 8375      5F53 7973 
 8375      5469 6D65 
 8375      5F74 00
 8376               	.LASF143:
 8377 0fee 5F6E 6578 	.string"_nextf"
 8377      7466 00
 8378               	.LASF255:
 8379 0ff5 4E6F 7469 	.string"NotificationMsgId"
 8379      6669 6361 
 8379      7469 6F6E 
 8379      4D73 6749 
 8379      6400 
 8380               	.LASF308:
 8381 1007 5569 6E74 	.string"Uint32ToSwapPtr"
 8381      3332 546F 
 8381      5377 6170 
 8381      5074 7200 
 8382               	.LASF350:
 8383 1017 4346 455F 	.string"CFE_TBL_RemoveAccessLink"
 8383      5442 4C5F 
 8383      5265 6D6F 
 8383      7665 4163 
 8383      6365 7373 
 8384               	.LASF171:
 8385 1030 5375 6254 	.string"SubType"
 8385      7970 6500 
 8386               	.LASF20:
 8387 1038 4346 455F 	.string"CFE_TBL_CallbackFuncPtr_t"
 8387      5442 4C5F 
 8387      4361 6C6C 
 8387      6261 636B 
 8387      4675 6E63 
 8388               	.LASF247:
 8389 1052 5072 6576 	.string"PrevLink"
 8389      4C69 6E6B 
 8389      00
 8390               	.LASF104:
 8391 105b 5F6C 6F63 	.string"_locale"
 8391      616C 6500 
 8392               	.LASF52:
 8393 1063 5F5F 554C 	.string"__ULong"
 8393      6F6E 6700 
 8394               	.LASF347:
 8395 106b 4346 455F 	.string"CFE_TBL_GetNextNotification"
 8395      5442 4C5F 
 8395      4765 744E 
68K GAS   			page 199


 8395      6578 744E 
 8395      6F74 6966 
 8396               	.LASF203:
 8397 1087 4C61 7374 	.string"LastTableLoaded"
 8397      5461 626C 
 8397      654C 6F61 
 8397      6465 6400 
 8398               	.LASF177:
 8399 1097 4465 7363 	.string"Description"
 8399      7269 7074 
 8399      696F 6E00 
 8400               	.LASF107:
 8401 10a3 5F72 6573 	.string"_result"
 8401      756C 7400 
 8402               	.LASF155:
 8403 10ab 4346 455F 	.string"CFE_ES_MemHandle_t"
 8403      4553 5F4D 
 8403      656D 4861 
 8403      6E64 6C65 
 8403      5F74 00
 8404               	.LASF32:
 8405 10be 5F4C 6F63 	.string"_Lock"
 8405      6B00 
 8406               	.LASF29:
 8407 10c4 5F6E 6F77 	.string"_now_serving"
 8407      5F73 6572 
 8407      7669 6E67 
 8407      00
 8408               	.LASF201:
 8409 10d1 4C61 7374 	.string"LastFileLoaded"
 8409      4669 6C65 
 8409      4C6F 6164 
 8409      6564 00
 8410               	.LASF253:
 8411 10e0 4346 455F 	.string"CFE_TBL_AccessDescriptor_t"
 8411      5442 4C5F 
 8411      4163 6365 
 8411      7373 4465 
 8411      7363 7269 
 8412               	.LASF275:
 8413 10fb 486B 5061 	.string"HkPacket"
 8413      636B 6574 
 8413      00
 8414               	.LASF26:
 8415 1104 5F6F 6666 	.string"_off_t"
 8415      5F74 00
 8416               	.LASF123:
 8417 110b 5F61 6464 	.string"_add"
 8417      00
 8418               	.LASF209:
 8419 1110 496E 6163 	.string"InactiveBufferAddr"
 8419      7469 7665 
 8419      4275 6666 
 8419      6572 4164 
 8419      6472 00
 8420               	.LASF358:
 8421 1123 474E 5520 	.string"GNU C11 7.3.0 20180125 (RTEMS 5, RSB d2b25d131d55adcb38219f2cd8cbec2436ee78ab, Newlib 3.0.0) -malign-int -mcpu=528x -g -O0 -fomit-frame-pointer"
68K GAS   			page 200


 8421      4331 3120 
 8421      372E 332E 
 8421      3020 3230 
 8421      3138 3031 
 8422               	.LASF10:
 8423 11b3 7368 6F72 	.string"short unsigned int"
 8423      7420 756E 
 8423      7369 676E 
 8423      6564 2069 
 8423      6E74 00
 8424               	.LASF61:
 8425 11c6 5F5F 746D 	.string"__tm_hour"
 8425      5F68 6F75 
 8425      7200 
 8426               	.LASF172:
 8427 11d0 5370 6163 	.string"SpacecraftID"
 8427      6563 7261 
 8427      6674 4944 
 8427      00
 8428               	.LASF174:
 8429 11dd 4170 706C 	.string"ApplicationID"
 8429      6963 6174 
 8429      696F 6E49 
 8429      4400 
 8430               	.LASF5:
 8431 11eb 696E 7433 	.string"int32"
 8431      3200 
 8432               	.LASF158:
 8433 11f1 5365 7175 	.string"Sequence"
 8433      656E 6365 
 8433      00
 8434               	.LASF139:
 8435 11fa 5F6D 6273 	.string"_mbsrtowcs_state"
 8435      7274 6F77 
 8435      6373 5F73 
 8435      7461 7465 
 8435      00
 8436               	.LASF227:
 8437 120b 4346 455F 	.string"CFE_TBL_ValidationState_t"
 8437      5442 4C5F 
 8437      5661 6C69 
 8437      6461 7469 
 8437      6F6E 5374 
 8438               	.LASF214:
 8439 1225 5461 626C 	.string"TableLoadedOnce"
 8439      654C 6F61 
 8439      6465 644F 
 8439      6E63 6500 
 8440               	.LASF326:
 8441 1235 576F 726B 	.string"WorkingBufferPtr"
 8441      696E 6742 
 8441      7566 6665 
 8441      7250 7472 
 8441      00
 8442               	.LASF213:
 8443 1246 4669 6C65 	.string"FileCreateTimeSubSecs"
 8443      4372 6561 
68K GAS   			page 201


 8443      7465 5469 
 8443      6D65 5375 
 8443      6253 6563 
 8444               	.LASF69:
 8445 125c 5F66 6E61 	.string"_fnargs"
 8445      7267 7300 
 8446               	.LASF67:
 8447 1264 5F5F 746D 	.string"__tm_isdst"
 8447      5F69 7364 
 8447      7374 00
 8448               	.LASF153:
 8449 126f 5F64 6179 	.string"_daylight"
 8449      6C69 6768 
 8449      7400 
 8450               	.LASF21:
 8451 1279 4346 455F 	.string"CFE_TBL_Handle_t"
 8451      5442 4C5F 
 8451      4861 6E64 
 8451      6C65 5F74 
 8451      00
 8452               	.LASF225:
 8453 128a 4346 455F 	.string"CFE_TBL_VALIDATION_PENDING"
 8453      5442 4C5F 
 8453      5641 4C49 
 8453      4441 5449 
 8453      4F4E 5F50 
 8454               	.LASF165:
 8455 12a5 4346 455F 	.string"CFE_SB_MsgPtr_t"
 8455      5342 5F4D 
 8455      7367 5074 
 8455      725F 7400 
 8456               	.LASF60:
 8457 12b5 5F5F 746D 	.string"__tm_min"
 8457      5F6D 696E 
 8457      00
 8458               	.LASF9:
 8459 12be 7569 6E74 	.string"uint16"
 8459      3136 00
 8460               	.LASF136:
 8461 12c5 5F67 6574 	.string"_getdate_err"
 8461      6461 7465 
 8461      5F65 7272 
 8461      00
 8462               	.LASF168:
 8463 12d2 4346 455F 	.string"CFE_SB_Qos_t"
 8463      5342 5F51 
 8463      6F73 5F74 
 8463      00
 8464               	.LASF252:
 8465 12df 4275 6666 	.string"BufferIndex"
 8465      6572 496E 
 8465      6465 7800 
 8466               	.LASF302:
 8467 12eb 4346 455F 	.string"CFE_TBL_FindCriticalTblInfo"
 8467      5442 4C5F 
 8467      4669 6E64 
 8467      4372 6974 
68K GAS   			page 202


 8467      6963 616C 
 8468               	.ident"GCC: (GNU) 7.3.0 20180125 (RTEMS 5, RSB d2b25d131d55adcb38219f2cd8cbec2436ee78ab, Newlib 3.0.0)"
68K GAS   			page 203


DEFINED SYMBOLS
                            *ABS*:0000000000000000 cfe_tbl_internal.c
    {standard input}:31     .text:0000000000000000 CFE_TBL_EarlyInit
    {standard input}:608    .text:00000000000005b4 CFE_TBL_InitRegistryRecord
    {standard input}:756    .text:0000000000000708 CFE_TBL_ValidateHandle
    {standard input}:825    .text:000000000000077c CFE_TBL_ValidateAppID
    {standard input}:893    .text:00000000000007d8 CFE_TBL_ValidateAccess
    {standard input}:993    .text:0000000000000886 CFE_TBL_CheckAccessRights
    {standard input}:1037   .text:00000000000008c8 CFE_TBL_RemoveAccessLink
    {standard input}:1721   .text:0000000000000e5a CFE_TBL_LockRegistry
    {standard input}:1752   .text:0000000000000e7a CFE_TBL_UnlockRegistry
    {standard input}:1267   .text:0000000000000ae8 CFE_TBL_GetAddressInternal
    {standard input}:1422   .text:0000000000000c52 CFE_TBL_GetNextNotification
    {standard input}:1481   .text:0000000000000cd8 CFE_TBL_FindTableInRegistry
    {standard input}:1550   .text:0000000000000d56 CFE_TBL_FindFreeRegistryEntry
    {standard input}:1618   .text:0000000000000dc8 CFE_TBL_FindFreeHandle
    {standard input}:1675   .text:0000000000000e12 CFE_TBL_FormTableName
    {standard input}:1791   .text:0000000000000e9a CFE_TBL_GetWorkingBuffer
    {standard input}:2115   .text:00000000000011b0 CFE_TBL_LoadFromFile
    {standard input}:2699   .text:00000000000016d4 CFE_TBL_ReadHeaders
    {standard input}:2349   .text:00000000000013b0 CFE_TBL_UpdateInternal
    {standard input}:2626   .text:0000000000001658 CFE_TBL_NotifyTblUsersOfUpdate
    {standard input}:3130   .text:0000000000001a28 CFE_TBL_UpdateCriticalTblCDS
    {standard input}:2874   .text:0000000000001846 CFE_TBL_ByteSwapTblHeader
    {standard input}:2910   .text:0000000000001878 CFE_TBL_ByteSwapUint32
    {standard input}:2959   .text:00000000000018da CFE_TBL_CleanUpApp
    {standard input}:3074   .text:00000000000019e2 CFE_TBL_FindCriticalTblInfo
    {standard input}:3308   .text:0000000000001bbc CFE_TBL_SendNotificationMsg

UNDEFINED SYMBOLS
CFE_TBL_TaskData
OS_MutSemCreate
CFE_ES_WriteToSysLog
CFE_SB_InitMsg
CFE_ES_PoolCreate
CFE_ES_GetPoolBuf
CFE_PSP_MemSet
CFE_ES_RegisterCDSEx
CFE_ES_RestoreFromCDS
CFE_ES_CopyToCDS
CFE_ES_GetAppID
CFE_ES_PutPoolBuf
strcmp
CFE_ES_GetAppName
sprintf
OS_MutSemTake
OS_MutSemGive
CFE_PSP_MemCpy
strlen
OS_open
OS_read
strncpy
CFE_ES_CalculateCRC
OS_close
CFE_TIME_GetTime
CFE_FS_ReadHeader
CFE_EVS_SendEventWithAppID
68K GAS   			page 204


CFE_SB_SetCmdCode
CFE_SB_TimeStampMsg
CFE_SB_SendMsg
CFE_EVS_SendEvent
