68K GAS   			page 1


   1               	
   2               	.file"osfilesys.c"
   3               	.text
   4               	.Ltext0:
   5               	.cfi_sections.debug_frame
   6               	.align2
   7               	.globlrtems_setup_ramdisk
   8               	.typertems_setup_ramdisk, @function
   9               	rtems_setup_ramdisk:
  10               	.LFB278:
  11               	.file 1 "/home/simulink/cFS_FreeRTOS_seL4/osal/src/os/rtems/osfilesys.c"
   1:/home/simulink/cFS_FreeRTOS_seL4/osal/src/os/rtems/osfilesys.c **** /*
   2:/home/simulink/cFS_FreeRTOS_seL4/osal/src/os/rtems/osfilesys.c **** ** File   : osfilesys.c
   3:/home/simulink/cFS_FreeRTOS_seL4/osal/src/os/rtems/osfilesys.c **** **
   4:/home/simulink/cFS_FreeRTOS_seL4/osal/src/os/rtems/osfilesys.c **** **      Copyright (c) 2004-2006, United States government as represented by the 
   5:/home/simulink/cFS_FreeRTOS_seL4/osal/src/os/rtems/osfilesys.c **** **      administrator of the National Aeronautics Space Administration.  
   6:/home/simulink/cFS_FreeRTOS_seL4/osal/src/os/rtems/osfilesys.c **** **      All rights reserved. This software was created at NASAs Goddard 
   7:/home/simulink/cFS_FreeRTOS_seL4/osal/src/os/rtems/osfilesys.c **** **      Space Flight Center pursuant to government contracts.
   8:/home/simulink/cFS_FreeRTOS_seL4/osal/src/os/rtems/osfilesys.c **** **
   9:/home/simulink/cFS_FreeRTOS_seL4/osal/src/os/rtems/osfilesys.c **** **      This is governed by the NASA Open Source Agreement and may be used, 
  10:/home/simulink/cFS_FreeRTOS_seL4/osal/src/os/rtems/osfilesys.c **** **      distributed and modified only pursuant to the terms of that agreement.
  11:/home/simulink/cFS_FreeRTOS_seL4/osal/src/os/rtems/osfilesys.c **** **
  12:/home/simulink/cFS_FreeRTOS_seL4/osal/src/os/rtems/osfilesys.c **** ** Author : Nicholas Yanchik / NASA GSFC Code 582.0
  13:/home/simulink/cFS_FreeRTOS_seL4/osal/src/os/rtems/osfilesys.c **** **
  14:/home/simulink/cFS_FreeRTOS_seL4/osal/src/os/rtems/osfilesys.c **** ** Purpose: This file has the apis for all of the making
  15:/home/simulink/cFS_FreeRTOS_seL4/osal/src/os/rtems/osfilesys.c **** **          and mounting type of calls for file systems
  16:/home/simulink/cFS_FreeRTOS_seL4/osal/src/os/rtems/osfilesys.c **** */
  17:/home/simulink/cFS_FreeRTOS_seL4/osal/src/os/rtems/osfilesys.c **** 
  18:/home/simulink/cFS_FreeRTOS_seL4/osal/src/os/rtems/osfilesys.c **** /****************************************************************************************
  19:/home/simulink/cFS_FreeRTOS_seL4/osal/src/os/rtems/osfilesys.c ****                                     INCLUDE FILES
  20:/home/simulink/cFS_FreeRTOS_seL4/osal/src/os/rtems/osfilesys.c **** ****************************************************************************************/
  21:/home/simulink/cFS_FreeRTOS_seL4/osal/src/os/rtems/osfilesys.c **** 
  22:/home/simulink/cFS_FreeRTOS_seL4/osal/src/os/rtems/osfilesys.c **** #include <stdio.h>
  23:/home/simulink/cFS_FreeRTOS_seL4/osal/src/os/rtems/osfilesys.c **** #include <stdlib.h>
  24:/home/simulink/cFS_FreeRTOS_seL4/osal/src/os/rtems/osfilesys.c **** #include <string.h>
  25:/home/simulink/cFS_FreeRTOS_seL4/osal/src/os/rtems/osfilesys.c **** 
  26:/home/simulink/cFS_FreeRTOS_seL4/osal/src/os/rtems/osfilesys.c **** #include <sys/types.h>
  27:/home/simulink/cFS_FreeRTOS_seL4/osal/src/os/rtems/osfilesys.c **** #include <fcntl.h>
  28:/home/simulink/cFS_FreeRTOS_seL4/osal/src/os/rtems/osfilesys.c **** #include <unistd.h>
  29:/home/simulink/cFS_FreeRTOS_seL4/osal/src/os/rtems/osfilesys.c **** #include <errno.h>
  30:/home/simulink/cFS_FreeRTOS_seL4/osal/src/os/rtems/osfilesys.c **** #include <dirent.h>
  31:/home/simulink/cFS_FreeRTOS_seL4/osal/src/os/rtems/osfilesys.c **** #include <sys/statvfs.h>
  32:/home/simulink/cFS_FreeRTOS_seL4/osal/src/os/rtems/osfilesys.c **** 
  33:/home/simulink/cFS_FreeRTOS_seL4/osal/src/os/rtems/osfilesys.c **** #include <rtems.h>
  34:/home/simulink/cFS_FreeRTOS_seL4/osal/src/os/rtems/osfilesys.c **** #include <rtems/blkdev.h> 
  35:/home/simulink/cFS_FreeRTOS_seL4/osal/src/os/rtems/osfilesys.c **** #include <rtems/diskdevs.h>
  36:/home/simulink/cFS_FreeRTOS_seL4/osal/src/os/rtems/osfilesys.c **** #include <rtems/error.h>
  37:/home/simulink/cFS_FreeRTOS_seL4/osal/src/os/rtems/osfilesys.c **** #include <rtems/fsmount.h>
  38:/home/simulink/cFS_FreeRTOS_seL4/osal/src/os/rtems/osfilesys.c **** #include <rtems/ramdisk.h>
  39:/home/simulink/cFS_FreeRTOS_seL4/osal/src/os/rtems/osfilesys.c **** #include <rtems/rtems-rfs.h>
  40:/home/simulink/cFS_FreeRTOS_seL4/osal/src/os/rtems/osfilesys.c **** #include <rtems/rtems-rfs-format.h>
  41:/home/simulink/cFS_FreeRTOS_seL4/osal/src/os/rtems/osfilesys.c **** 
  42:/home/simulink/cFS_FreeRTOS_seL4/osal/src/os/rtems/osfilesys.c **** #include "common_types.h"
  43:/home/simulink/cFS_FreeRTOS_seL4/osal/src/os/rtems/osfilesys.c **** #include "osapi.h"
  44:/home/simulink/cFS_FreeRTOS_seL4/osal/src/os/rtems/osfilesys.c **** #include "osconfig.h"
  45:/home/simulink/cFS_FreeRTOS_seL4/osal/src/os/rtems/osfilesys.c **** 
  46:/home/simulink/cFS_FreeRTOS_seL4/osal/src/os/rtems/osfilesys.c **** /****************************************************************************************
68K GAS   			page 2


  47:/home/simulink/cFS_FreeRTOS_seL4/osal/src/os/rtems/osfilesys.c ****                                      DEFINES
  48:/home/simulink/cFS_FreeRTOS_seL4/osal/src/os/rtems/osfilesys.c **** ****************************************************************************************/
  49:/home/simulink/cFS_FreeRTOS_seL4/osal/src/os/rtems/osfilesys.c **** /*
  50:/home/simulink/cFS_FreeRTOS_seL4/osal/src/os/rtems/osfilesys.c ****  * Let the IO system allocation the next available major number.
  51:/home/simulink/cFS_FreeRTOS_seL4/osal/src/os/rtems/osfilesys.c **** */
  52:/home/simulink/cFS_FreeRTOS_seL4/osal/src/os/rtems/osfilesys.c **** #define RTEMS_DRIVER_AUTO_MAJOR (0)
  53:/home/simulink/cFS_FreeRTOS_seL4/osal/src/os/rtems/osfilesys.c **** 
  54:/home/simulink/cFS_FreeRTOS_seL4/osal/src/os/rtems/osfilesys.c **** #undef  OS_DEBUG_PRINTF
  55:/home/simulink/cFS_FreeRTOS_seL4/osal/src/os/rtems/osfilesys.c **** /****************************************************************************************
  56:/home/simulink/cFS_FreeRTOS_seL4/osal/src/os/rtems/osfilesys.c ****                                    Prototypes
  57:/home/simulink/cFS_FreeRTOS_seL4/osal/src/os/rtems/osfilesys.c **** ****************************************************************************************/
  58:/home/simulink/cFS_FreeRTOS_seL4/osal/src/os/rtems/osfilesys.c **** int32 OS_check_name_length(const char *path);
  59:/home/simulink/cFS_FreeRTOS_seL4/osal/src/os/rtems/osfilesys.c **** 
  60:/home/simulink/cFS_FreeRTOS_seL4/osal/src/os/rtems/osfilesys.c **** /****************************************************************************************
  61:/home/simulink/cFS_FreeRTOS_seL4/osal/src/os/rtems/osfilesys.c ****                                    GLOBAL DATA
  62:/home/simulink/cFS_FreeRTOS_seL4/osal/src/os/rtems/osfilesys.c **** ****************************************************************************************/
  63:/home/simulink/cFS_FreeRTOS_seL4/osal/src/os/rtems/osfilesys.c **** /* 
  64:/home/simulink/cFS_FreeRTOS_seL4/osal/src/os/rtems/osfilesys.c **** ** This is the volume table reference. It is defined in the BSP/startup code for the board
  65:/home/simulink/cFS_FreeRTOS_seL4/osal/src/os/rtems/osfilesys.c **** */
  66:/home/simulink/cFS_FreeRTOS_seL4/osal/src/os/rtems/osfilesys.c **** extern OS_VolumeInfo_t OS_VolumeTable [NUM_TABLE_ENTRIES]; 
  67:/home/simulink/cFS_FreeRTOS_seL4/osal/src/os/rtems/osfilesys.c **** 
  68:/home/simulink/cFS_FreeRTOS_seL4/osal/src/os/rtems/osfilesys.c **** /*
  69:/home/simulink/cFS_FreeRTOS_seL4/osal/src/os/rtems/osfilesys.c **** ** Fd Table
  70:/home/simulink/cFS_FreeRTOS_seL4/osal/src/os/rtems/osfilesys.c **** */
  71:/home/simulink/cFS_FreeRTOS_seL4/osal/src/os/rtems/osfilesys.c **** extern OS_FDTableEntry OS_FDTable[OS_MAX_NUM_OPEN_FILES];
  72:/home/simulink/cFS_FreeRTOS_seL4/osal/src/os/rtems/osfilesys.c **** 
  73:/home/simulink/cFS_FreeRTOS_seL4/osal/src/os/rtems/osfilesys.c **** /*
  74:/home/simulink/cFS_FreeRTOS_seL4/osal/src/os/rtems/osfilesys.c **** ** A semaphore to guard the RTEMS file system calls.
  75:/home/simulink/cFS_FreeRTOS_seL4/osal/src/os/rtems/osfilesys.c **** ** The RTEMS file system calls are not guarded as of RTEMS 4.10
  76:/home/simulink/cFS_FreeRTOS_seL4/osal/src/os/rtems/osfilesys.c **** */
  77:/home/simulink/cFS_FreeRTOS_seL4/osal/src/os/rtems/osfilesys.c **** extern rtems_id        OS_VolumeTableSem;
  78:/home/simulink/cFS_FreeRTOS_seL4/osal/src/os/rtems/osfilesys.c **** 
  79:/home/simulink/cFS_FreeRTOS_seL4/osal/src/os/rtems/osfilesys.c **** /*
  80:/home/simulink/cFS_FreeRTOS_seL4/osal/src/os/rtems/osfilesys.c **** ** These external references are for the RTEMS RAM disk device descriptor table
  81:/home/simulink/cFS_FreeRTOS_seL4/osal/src/os/rtems/osfilesys.c **** ** This is necessary for the RAM disk. These tables can either be here, or 
  82:/home/simulink/cFS_FreeRTOS_seL4/osal/src/os/rtems/osfilesys.c **** ** in a RTEMS kernel startup file. In this case, the tables are in the 
  83:/home/simulink/cFS_FreeRTOS_seL4/osal/src/os/rtems/osfilesys.c **** ** application startup
  84:/home/simulink/cFS_FreeRTOS_seL4/osal/src/os/rtems/osfilesys.c **** **
  85:/home/simulink/cFS_FreeRTOS_seL4/osal/src/os/rtems/osfilesys.c **** ** Currently, it does not appear possible to create multiple arbitrary disks
  86:/home/simulink/cFS_FreeRTOS_seL4/osal/src/os/rtems/osfilesys.c **** ** The RAM disk driver appears to require these specific variables.
  87:/home/simulink/cFS_FreeRTOS_seL4/osal/src/os/rtems/osfilesys.c **** */
  88:/home/simulink/cFS_FreeRTOS_seL4/osal/src/os/rtems/osfilesys.c **** extern rtems_ramdisk_config                    rtems_ramdisk_configuration[];
  89:/home/simulink/cFS_FreeRTOS_seL4/osal/src/os/rtems/osfilesys.c **** extern rtems_driver_address_table              rtems_ramdisk_io_ops;
  90:/home/simulink/cFS_FreeRTOS_seL4/osal/src/os/rtems/osfilesys.c **** extern const rtems_filesystem_operations_table rtems_rfs_ops;
  91:/home/simulink/cFS_FreeRTOS_seL4/osal/src/os/rtems/osfilesys.c **** /****************************************************************************************
  92:/home/simulink/cFS_FreeRTOS_seL4/osal/src/os/rtems/osfilesys.c ****                                     Filesys API
  93:/home/simulink/cFS_FreeRTOS_seL4/osal/src/os/rtems/osfilesys.c **** ****************************************************************************************/
  94:/home/simulink/cFS_FreeRTOS_seL4/osal/src/os/rtems/osfilesys.c **** /*
  95:/home/simulink/cFS_FreeRTOS_seL4/osal/src/os/rtems/osfilesys.c **** ** System Level API 
  96:/home/simulink/cFS_FreeRTOS_seL4/osal/src/os/rtems/osfilesys.c **** */
  97:/home/simulink/cFS_FreeRTOS_seL4/osal/src/os/rtems/osfilesys.c **** 
  98:/home/simulink/cFS_FreeRTOS_seL4/osal/src/os/rtems/osfilesys.c **** /*
  99:/home/simulink/cFS_FreeRTOS_seL4/osal/src/os/rtems/osfilesys.c **** ** Create the RAM disk.
 100:/home/simulink/cFS_FreeRTOS_seL4/osal/src/os/rtems/osfilesys.c **** ** This currently supports one RAM disk.
 101:/home/simulink/cFS_FreeRTOS_seL4/osal/src/os/rtems/osfilesys.c **** */
 102:/home/simulink/cFS_FreeRTOS_seL4/osal/src/os/rtems/osfilesys.c **** int32 rtems_setup_ramdisk (char *phys_dev_name, uint32 *address, uint32 block_size, uint32 num_bloc
 103:/home/simulink/cFS_FreeRTOS_seL4/osal/src/os/rtems/osfilesys.c **** {
68K GAS   			page 3


  12               	.loc 1 103 0
  13               	.cfi_startproc
  14 0000 4FEF FFF4 	lea (-12,%sp),%sp
  15               	.cfi_def_cfa_offset 16
 104:/home/simulink/cFS_FreeRTOS_seL4/osal/src/os/rtems/osfilesys.c ****   rtems_device_major_number major;
 105:/home/simulink/cFS_FreeRTOS_seL4/osal/src/os/rtems/osfilesys.c ****   rtems_status_code         sc;
 106:/home/simulink/cFS_FreeRTOS_seL4/osal/src/os/rtems/osfilesys.c ****   uint32                    local_address;
 107:/home/simulink/cFS_FreeRTOS_seL4/osal/src/os/rtems/osfilesys.c ****  
 108:/home/simulink/cFS_FreeRTOS_seL4/osal/src/os/rtems/osfilesys.c ****   /*
 109:/home/simulink/cFS_FreeRTOS_seL4/osal/src/os/rtems/osfilesys.c ****   ** check parameters
 110:/home/simulink/cFS_FreeRTOS_seL4/osal/src/os/rtems/osfilesys.c ****   */
 111:/home/simulink/cFS_FreeRTOS_seL4/osal/src/os/rtems/osfilesys.c ****   if ( num_blocks == 0 )
  16               	.loc 1 111 0
  17 0004 4AAF 001C 	tst.l 28(%sp)
  18 0008 6606      	jne .L2
 112:/home/simulink/cFS_FreeRTOS_seL4/osal/src/os/rtems/osfilesys.c ****   {
 113:/home/simulink/cFS_FreeRTOS_seL4/osal/src/os/rtems/osfilesys.c ****      #ifdef OS_DEBUG_PRINTF
 114:/home/simulink/cFS_FreeRTOS_seL4/osal/src/os/rtems/osfilesys.c ****         printf("OSAL: Error: Cannot setup RAM disk, No size given.\n");
 115:/home/simulink/cFS_FreeRTOS_seL4/osal/src/os/rtems/osfilesys.c ****      #endif
 116:/home/simulink/cFS_FreeRTOS_seL4/osal/src/os/rtems/osfilesys.c ****      return(OS_FS_ERROR);
  19               	.loc 1 116 0
  20 000a 70FF      	moveq #-1,%d0
  21 000c 6000 00AE 	jra .L9
  22               	.L2:
 117:/home/simulink/cFS_FreeRTOS_seL4/osal/src/os/rtems/osfilesys.c ****   }
 118:/home/simulink/cFS_FreeRTOS_seL4/osal/src/os/rtems/osfilesys.c ****   if ( block_size != 512 )
  23               	.loc 1 118 0
  24 0010 203C 0000 	move.l #512,%d0
  24      0200 
  25 0016 B0AF 0018 	cmp.l 24(%sp),%d0
  26 001a 6706      	jeq .L4
 119:/home/simulink/cFS_FreeRTOS_seL4/osal/src/os/rtems/osfilesys.c ****   {
 120:/home/simulink/cFS_FreeRTOS_seL4/osal/src/os/rtems/osfilesys.c ****      #ifdef OS_DEBUG_PRINTF
 121:/home/simulink/cFS_FreeRTOS_seL4/osal/src/os/rtems/osfilesys.c ****         printf("OSAL: Error: RAM Disk currently needs a block size of 512.\n");
 122:/home/simulink/cFS_FreeRTOS_seL4/osal/src/os/rtems/osfilesys.c ****      #endif
 123:/home/simulink/cFS_FreeRTOS_seL4/osal/src/os/rtems/osfilesys.c ****      return(OS_FS_ERROR);
  27               	.loc 1 123 0
  28 001c 70FF      	moveq #-1,%d0
  29 001e 6000 009C 	jra .L9
  30               	.L4:
 124:/home/simulink/cFS_FreeRTOS_seL4/osal/src/os/rtems/osfilesys.c ****   }
 125:/home/simulink/cFS_FreeRTOS_seL4/osal/src/os/rtems/osfilesys.c ****   if ( address == 0 )
  31               	.loc 1 125 0
  32 0022 4AAF 0014 	tst.l 20(%sp)
  33 0026 6650      	jne .L5
 126:/home/simulink/cFS_FreeRTOS_seL4/osal/src/os/rtems/osfilesys.c ****   {
 127:/home/simulink/cFS_FreeRTOS_seL4/osal/src/os/rtems/osfilesys.c ****        #ifdef OS_DEBUG_PRINTF
 128:/home/simulink/cFS_FreeRTOS_seL4/osal/src/os/rtems/osfilesys.c ****           printf("OSAL: RAM disk address is zero: allocating %d bytes from heap\n",
 129:/home/simulink/cFS_FreeRTOS_seL4/osal/src/os/rtems/osfilesys.c ****                   (int)(block_size * num_blocks));
 130:/home/simulink/cFS_FreeRTOS_seL4/osal/src/os/rtems/osfilesys.c ****        #endif
 131:/home/simulink/cFS_FreeRTOS_seL4/osal/src/os/rtems/osfilesys.c ****        local_address = (uint32) malloc (block_size * num_blocks);
  34               	.loc 1 131 0
  35 0028 202F 0018 	move.l 24(%sp),%d0
  36 002c 41EF 001C 	lea (28,%sp),%a0
  37 0030 4C10 0800 	muls.l (%a0),%d0
  38 0034 2F00      	move.l %d0,-(%sp)
  39               	.cfi_def_cfa_offset 20
68K GAS   			page 4


  40 0036 4EB9 0000 	jsr malloc
  40      0000 
  41 003c 588F      	addq.l #4,%sp
  42               	.cfi_def_cfa_offset 16
  43 003e 2F40 0008 	move.l %d0,8(%sp)
 132:/home/simulink/cFS_FreeRTOS_seL4/osal/src/os/rtems/osfilesys.c ****        if (!local_address)
  44               	.loc 1 132 0
  45 0042 4AAF 0008 	tst.l 8(%sp)
  46 0046 6604      	jne .L6
 133:/home/simulink/cFS_FreeRTOS_seL4/osal/src/os/rtems/osfilesys.c ****        {
 134:/home/simulink/cFS_FreeRTOS_seL4/osal/src/os/rtems/osfilesys.c ****           #ifdef OS_DEBUG_PRINTF
 135:/home/simulink/cFS_FreeRTOS_seL4/osal/src/os/rtems/osfilesys.c ****              printf ("OSAL: Error: no memory for RAM disk 0\n");
 136:/home/simulink/cFS_FreeRTOS_seL4/osal/src/os/rtems/osfilesys.c ****           #endif
 137:/home/simulink/cFS_FreeRTOS_seL4/osal/src/os/rtems/osfilesys.c ****           return(OS_FS_ERROR); 
  47               	.loc 1 137 0
  48 0048 70FF      	moveq #-1,%d0
  49 004a 6070      	jra .L9
  50               	.L6:
 138:/home/simulink/cFS_FreeRTOS_seL4/osal/src/os/rtems/osfilesys.c ****        }
 139:/home/simulink/cFS_FreeRTOS_seL4/osal/src/os/rtems/osfilesys.c ****       
 140:/home/simulink/cFS_FreeRTOS_seL4/osal/src/os/rtems/osfilesys.c ****        /*
 141:/home/simulink/cFS_FreeRTOS_seL4/osal/src/os/rtems/osfilesys.c ****        ** Clear the memory for the disk 
 142:/home/simulink/cFS_FreeRTOS_seL4/osal/src/os/rtems/osfilesys.c ****        */
 143:/home/simulink/cFS_FreeRTOS_seL4/osal/src/os/rtems/osfilesys.c ****        memset ( (void *)local_address, 0, (block_size * num_blocks));
  51               	.loc 1 143 0
  52 004c 202F 0018 	move.l 24(%sp),%d0
  53 0050 41EF 001C 	lea (28,%sp),%a0
  54 0054 4C10 0800 	muls.l (%a0),%d0
  55 0058 222F 0008 	move.l 8(%sp),%d1
  56 005c 2F00      	move.l %d0,-(%sp)
  57               	.cfi_def_cfa_offset 20
  58 005e 42A7      	clr.l -(%sp)
  59               	.cfi_def_cfa_offset 24
  60 0060 2F01      	move.l %d1,-(%sp)
  61               	.cfi_def_cfa_offset 28
  62 0062 4EB9 0000 	jsr memset
  62      0000 
  63 0068 4FEF 000C 	lea (12,%sp),%sp
  64               	.cfi_def_cfa_offset 16
 144:/home/simulink/cFS_FreeRTOS_seL4/osal/src/os/rtems/osfilesys.c **** 
 145:/home/simulink/cFS_FreeRTOS_seL4/osal/src/os/rtems/osfilesys.c ****        /*
 146:/home/simulink/cFS_FreeRTOS_seL4/osal/src/os/rtems/osfilesys.c ****        ** Assign the address
 147:/home/simulink/cFS_FreeRTOS_seL4/osal/src/os/rtems/osfilesys.c ****        */
 148:/home/simulink/cFS_FreeRTOS_seL4/osal/src/os/rtems/osfilesys.c ****        rtems_ramdisk_configuration[0].location = (int *) local_address;
  65               	.loc 1 148 0
  66 006c 202F 0008 	move.l 8(%sp),%d0
  67 0070 23C0 0000 	move.l %d0,rtems_ramdisk_configuration+8
  67      0000 
  68 0076 600A      	jra .L7
  69               	.L5:
 149:/home/simulink/cFS_FreeRTOS_seL4/osal/src/os/rtems/osfilesys.c ****   }
 150:/home/simulink/cFS_FreeRTOS_seL4/osal/src/os/rtems/osfilesys.c ****   else
 151:/home/simulink/cFS_FreeRTOS_seL4/osal/src/os/rtems/osfilesys.c ****   {
 152:/home/simulink/cFS_FreeRTOS_seL4/osal/src/os/rtems/osfilesys.c ****        /*
 153:/home/simulink/cFS_FreeRTOS_seL4/osal/src/os/rtems/osfilesys.c ****        ** Assign the address 
 154:/home/simulink/cFS_FreeRTOS_seL4/osal/src/os/rtems/osfilesys.c ****        */
 155:/home/simulink/cFS_FreeRTOS_seL4/osal/src/os/rtems/osfilesys.c ****        rtems_ramdisk_configuration[0].location = (int *) address;
68K GAS   			page 5


  70               	.loc 1 155 0
  71 0078 41EF 0014 	lea (20,%sp),%a0
  72 007c 23D0 0000 	move.l (%a0),rtems_ramdisk_configuration+8
  72      0000 
  73               	.L7:
 156:/home/simulink/cFS_FreeRTOS_seL4/osal/src/os/rtems/osfilesys.c ****   } 
 157:/home/simulink/cFS_FreeRTOS_seL4/osal/src/os/rtems/osfilesys.c **** 
 158:/home/simulink/cFS_FreeRTOS_seL4/osal/src/os/rtems/osfilesys.c ****   /*
 159:/home/simulink/cFS_FreeRTOS_seL4/osal/src/os/rtems/osfilesys.c ****   ** Assign the size
 160:/home/simulink/cFS_FreeRTOS_seL4/osal/src/os/rtems/osfilesys.c ****   */
 161:/home/simulink/cFS_FreeRTOS_seL4/osal/src/os/rtems/osfilesys.c ****   rtems_ramdisk_configuration[0].block_size =  block_size;
  74               	.loc 1 161 0
  75 0082 41EF 0018 	lea (24,%sp),%a0
  76 0086 23D0 0000 	move.l (%a0),rtems_ramdisk_configuration
  76      0000 
 162:/home/simulink/cFS_FreeRTOS_seL4/osal/src/os/rtems/osfilesys.c ****   rtems_ramdisk_configuration[0].block_num =  num_blocks;
  77               	.loc 1 162 0
  78 008c 41EF 001C 	lea (28,%sp),%a0
  79 0090 23D0 0000 	move.l (%a0),rtems_ramdisk_configuration+4
  79      0000 
 163:/home/simulink/cFS_FreeRTOS_seL4/osal/src/os/rtems/osfilesys.c **** 
 164:/home/simulink/cFS_FreeRTOS_seL4/osal/src/os/rtems/osfilesys.c ****   /*
 165:/home/simulink/cFS_FreeRTOS_seL4/osal/src/os/rtems/osfilesys.c ****   ** Register the RAM Disk driver.
 166:/home/simulink/cFS_FreeRTOS_seL4/osal/src/os/rtems/osfilesys.c ****   */
 167:/home/simulink/cFS_FreeRTOS_seL4/osal/src/os/rtems/osfilesys.c ****   sc = rtems_io_register_driver (RTEMS_DRIVER_AUTO_MAJOR,
  80               	.loc 1 167 0
  81 0096 200F      	move.l %sp,%d0
  82 0098 2F00      	move.l %d0,-(%sp)
  83               	.cfi_def_cfa_offset 20
  84 009a 4879 0000 	pea rtems_ramdisk_io_ops
  84      0000 
  85               	.cfi_def_cfa_offset 24
  86 00a0 42A7      	clr.l -(%sp)
  87               	.cfi_def_cfa_offset 28
  88 00a2 4EB9 0000 	jsr rtems_io_register_driver
  88      0000 
  89 00a8 4FEF 000C 	lea (12,%sp),%sp
  90               	.cfi_def_cfa_offset 16
  91 00ac 2F40 0004 	move.l %d0,4(%sp)
 168:/home/simulink/cFS_FreeRTOS_seL4/osal/src/os/rtems/osfilesys.c ****                                  &rtems_ramdisk_io_ops,
 169:/home/simulink/cFS_FreeRTOS_seL4/osal/src/os/rtems/osfilesys.c ****                                  &major);
 170:/home/simulink/cFS_FreeRTOS_seL4/osal/src/os/rtems/osfilesys.c ****   if (sc != RTEMS_SUCCESSFUL)
  92               	.loc 1 170 0
  93 00b0 4AAF 0004 	tst.l 4(%sp)
  94 00b4 6704      	jeq .L8
 171:/home/simulink/cFS_FreeRTOS_seL4/osal/src/os/rtems/osfilesys.c ****   {
 172:/home/simulink/cFS_FreeRTOS_seL4/osal/src/os/rtems/osfilesys.c ****     #ifdef OS_DEBUG_PRINTF
 173:/home/simulink/cFS_FreeRTOS_seL4/osal/src/os/rtems/osfilesys.c ****        printf ("OSAL: Error: RAM driver not initialized: %s\n",
 174:/home/simulink/cFS_FreeRTOS_seL4/osal/src/os/rtems/osfilesys.c ****                rtems_status_text (sc));
 175:/home/simulink/cFS_FreeRTOS_seL4/osal/src/os/rtems/osfilesys.c ****     #endif
 176:/home/simulink/cFS_FreeRTOS_seL4/osal/src/os/rtems/osfilesys.c ****     return (OS_FS_ERROR);
  95               	.loc 1 176 0
  96 00b6 70FF      	moveq #-1,%d0
  97 00b8 6002      	jra .L9
  98               	.L8:
 177:/home/simulink/cFS_FreeRTOS_seL4/osal/src/os/rtems/osfilesys.c ****   }
 178:/home/simulink/cFS_FreeRTOS_seL4/osal/src/os/rtems/osfilesys.c ****   #ifdef OS_DEBUG_PRINTF
68K GAS   			page 6


 179:/home/simulink/cFS_FreeRTOS_seL4/osal/src/os/rtems/osfilesys.c ****      printf ("OSAL: RAM disk initialized: Address = 0x%08X\n",
 180:/home/simulink/cFS_FreeRTOS_seL4/osal/src/os/rtems/osfilesys.c ****               (unsigned int)rtems_ramdisk_configuration[0].location);
 181:/home/simulink/cFS_FreeRTOS_seL4/osal/src/os/rtems/osfilesys.c ****   #endif
 182:/home/simulink/cFS_FreeRTOS_seL4/osal/src/os/rtems/osfilesys.c **** 
 183:/home/simulink/cFS_FreeRTOS_seL4/osal/src/os/rtems/osfilesys.c ****   return(OS_FS_SUCCESS);
  99               	.loc 1 183 0
 100 00ba 4280      	clr.l %d0
 101               	.L9:
 184:/home/simulink/cFS_FreeRTOS_seL4/osal/src/os/rtems/osfilesys.c **** }
 102               	.loc 1 184 0 discriminator 1
 103 00bc 4FEF 000C 	lea (12,%sp),%sp
 104 00c0 4E75      	rts
 105               	.cfi_endproc
 106               	.LFE278:
 107               	.sizertems_setup_ramdisk, .-rtems_setup_ramdisk
 108               	.align2
 109               	.globlOS_mkfs
 110               	.typeOS_mkfs, @function
 111               	OS_mkfs:
 112               	.LFB279:
 185:/home/simulink/cFS_FreeRTOS_seL4/osal/src/os/rtems/osfilesys.c **** /*---------------------------------------------------------------------------------------
 186:/home/simulink/cFS_FreeRTOS_seL4/osal/src/os/rtems/osfilesys.c ****     Name: OS_mkfs
 187:/home/simulink/cFS_FreeRTOS_seL4/osal/src/os/rtems/osfilesys.c **** 
 188:/home/simulink/cFS_FreeRTOS_seL4/osal/src/os/rtems/osfilesys.c ****     Purpose: Makes a RAM disk on the target with the RTEMS RFS file system
 189:/home/simulink/cFS_FreeRTOS_seL4/osal/src/os/rtems/osfilesys.c ****     
 190:/home/simulink/cFS_FreeRTOS_seL4/osal/src/os/rtems/osfilesys.c ****     Returns: OS_FS_ERR_INVALID_POINTER if devname is NULL
 191:/home/simulink/cFS_FreeRTOS_seL4/osal/src/os/rtems/osfilesys.c ****              OS_FS_ERR_DRIVE_NOT_CREATED if the OS calls to create the the drive failed
 192:/home/simulink/cFS_FreeRTOS_seL4/osal/src/os/rtems/osfilesys.c ****              OS_FS_ERR_DEVICE_NOT_FREE if the volume table is full
 193:/home/simulink/cFS_FreeRTOS_seL4/osal/src/os/rtems/osfilesys.c ****              OS_FS_SUCCESS on creating the disk
 194:/home/simulink/cFS_FreeRTOS_seL4/osal/src/os/rtems/osfilesys.c **** 
 195:/home/simulink/cFS_FreeRTOS_seL4/osal/src/os/rtems/osfilesys.c ****     Note: if address == 0, then a malloc will be called to create the disk
 196:/home/simulink/cFS_FreeRTOS_seL4/osal/src/os/rtems/osfilesys.c **** ---------------------------------------------------------------------------------------*/
 197:/home/simulink/cFS_FreeRTOS_seL4/osal/src/os/rtems/osfilesys.c **** int32 OS_mkfs (char *address, char *devname,char * volname, uint32 blocksize, 
 198:/home/simulink/cFS_FreeRTOS_seL4/osal/src/os/rtems/osfilesys.c ****                uint32 numblocks)
 199:/home/simulink/cFS_FreeRTOS_seL4/osal/src/os/rtems/osfilesys.c **** {
 113               	.loc 1 199 0
 114               	.cfi_startproc
 115 00c2 4FEF FFDC 	lea (-36,%sp),%sp
 116               	.cfi_def_cfa_offset 40
 200:/home/simulink/cFS_FreeRTOS_seL4/osal/src/os/rtems/osfilesys.c ****     int                     i;
 201:/home/simulink/cFS_FreeRTOS_seL4/osal/src/os/rtems/osfilesys.c ****     uint32                  ReturnCode;
 202:/home/simulink/cFS_FreeRTOS_seL4/osal/src/os/rtems/osfilesys.c ****     rtems_rfs_format_config config;
 203:/home/simulink/cFS_FreeRTOS_seL4/osal/src/os/rtems/osfilesys.c ****     rtems_status_code       rtems_sc;
 204:/home/simulink/cFS_FreeRTOS_seL4/osal/src/os/rtems/osfilesys.c **** 
 205:/home/simulink/cFS_FreeRTOS_seL4/osal/src/os/rtems/osfilesys.c ****     /*
 206:/home/simulink/cFS_FreeRTOS_seL4/osal/src/os/rtems/osfilesys.c ****     ** Check parameters
 207:/home/simulink/cFS_FreeRTOS_seL4/osal/src/os/rtems/osfilesys.c ****     */
 208:/home/simulink/cFS_FreeRTOS_seL4/osal/src/os/rtems/osfilesys.c ****     if ( devname == NULL || volname == NULL )
 117               	.loc 1 208 0
 118 00c6 4AAF 002C 	tst.l 44(%sp)
 119 00ca 6706      	jeq .L11
 120               	.loc 1 208 0 is_stmt 0 discriminator 1
 121 00cc 4AAF 0030 	tst.l 48(%sp)
 122 00d0 6606      	jne .L12
 123               	.L11:
 209:/home/simulink/cFS_FreeRTOS_seL4/osal/src/os/rtems/osfilesys.c ****     {
 210:/home/simulink/cFS_FreeRTOS_seL4/osal/src/os/rtems/osfilesys.c ****         return OS_FS_ERR_INVALID_POINTER;
68K GAS   			page 7


 124               	.loc 1 210 0 is_stmt 1
 125 00d2 70FE      	moveq #-2,%d0
 126 00d4 6000 02A2 	jra .L27
 127               	.L12:
 211:/home/simulink/cFS_FreeRTOS_seL4/osal/src/os/rtems/osfilesys.c ****     }
 212:/home/simulink/cFS_FreeRTOS_seL4/osal/src/os/rtems/osfilesys.c **** 
 213:/home/simulink/cFS_FreeRTOS_seL4/osal/src/os/rtems/osfilesys.c ****     if( strlen(devname) >= OS_FS_DEV_NAME_LEN || strlen(volname) >= OS_FS_VOL_NAME_LEN)
 128               	.loc 1 213 0
 129 00d8 2F2F 002C 	move.l 44(%sp),-(%sp)
 130               	.cfi_def_cfa_offset 44
 131 00dc 4EB9 0000 	jsr strlen
 131      0000 
 132 00e2 588F      	addq.l #4,%sp
 133               	.cfi_def_cfa_offset 40
 134 00e4 721F      	moveq #31,%d1
 135 00e6 B280      	cmp.l %d0,%d1
 136 00e8 6512      	jcs .L14
 137               	.loc 1 213 0 is_stmt 0 discriminator 1
 138 00ea 2F2F 0030 	move.l 48(%sp),-(%sp)
 139               	.cfi_def_cfa_offset 44
 140 00ee 4EB9 0000 	jsr strlen
 140      0000 
 141 00f4 588F      	addq.l #4,%sp
 142               	.cfi_def_cfa_offset 40
 143 00f6 721F      	moveq #31,%d1
 144 00f8 B280      	cmp.l %d0,%d1
 145 00fa 6406      	jcc .L15
 146               	.L14:
 214:/home/simulink/cFS_FreeRTOS_seL4/osal/src/os/rtems/osfilesys.c ****     {
 215:/home/simulink/cFS_FreeRTOS_seL4/osal/src/os/rtems/osfilesys.c ****         return OS_FS_ERR_PATH_TOO_LONG;
 147               	.loc 1 215 0 is_stmt 1
 148 00fc 7099      	moveq #-103,%d0
 149 00fe 6000 0278 	jra .L27
 150               	.L15:
 216:/home/simulink/cFS_FreeRTOS_seL4/osal/src/os/rtems/osfilesys.c ****     }
 217:/home/simulink/cFS_FreeRTOS_seL4/osal/src/os/rtems/osfilesys.c ****  
 218:/home/simulink/cFS_FreeRTOS_seL4/osal/src/os/rtems/osfilesys.c ****     /*
 219:/home/simulink/cFS_FreeRTOS_seL4/osal/src/os/rtems/osfilesys.c ****     ** Lock 
 220:/home/simulink/cFS_FreeRTOS_seL4/osal/src/os/rtems/osfilesys.c ****     */
 221:/home/simulink/cFS_FreeRTOS_seL4/osal/src/os/rtems/osfilesys.c ****     rtems_sc = rtems_semaphore_obtain (OS_VolumeTableSem, RTEMS_WAIT, RTEMS_NO_TIMEOUT);
 151               	.loc 1 221 0
 152 0102 2039 0000 	move.l OS_VolumeTableSem,%d0
 152      0000 
 153 0108 42A7      	clr.l -(%sp)
 154               	.cfi_def_cfa_offset 44
 155 010a 42A7      	clr.l -(%sp)
 156               	.cfi_def_cfa_offset 48
 157 010c 2F00      	move.l %d0,-(%sp)
 158               	.cfi_def_cfa_offset 52
 159 010e 4EB9 0000 	jsr rtems_semaphore_obtain
 159      0000 
 160 0114 4FEF 000C 	lea (12,%sp),%sp
 161               	.cfi_def_cfa_offset 40
 162 0118 2F40 0018 	move.l %d0,24(%sp)
 222:/home/simulink/cFS_FreeRTOS_seL4/osal/src/os/rtems/osfilesys.c **** 
 223:/home/simulink/cFS_FreeRTOS_seL4/osal/src/os/rtems/osfilesys.c ****     /* find an open entry in the Volume Table */
 224:/home/simulink/cFS_FreeRTOS_seL4/osal/src/os/rtems/osfilesys.c ****     for (i = 0; i < NUM_TABLE_ENTRIES; i++)
68K GAS   			page 8


 163               	.loc 1 224 0
 164 011c 42AF 0020 	clr.l 32(%sp)
 165 0120 606C      	jra .L16
 166               	.L19:
 225:/home/simulink/cFS_FreeRTOS_seL4/osal/src/os/rtems/osfilesys.c ****     {
 226:/home/simulink/cFS_FreeRTOS_seL4/osal/src/os/rtems/osfilesys.c ****         if (OS_VolumeTable[i].FreeFlag == TRUE && OS_VolumeTable[i].IsMounted == FALSE
 167               	.loc 1 226 0
 168 0122 202F 0020 	move.l 32(%sp),%d0
 169 0126 223C 0000 	move.l #204,%d1
 169      00CC 
 170 012c 4C01 0800 	muls.l %d1,%d0
 171 0130 41F9 0000 	lea OS_VolumeTable+101,%a0
 171      0000 
 172 0136 1030 0800 	move.b (%a0,%d0.l),%d0
 173 013a 1000      	move.b %d0,%d0
 174 013c 0280 0000 	and.l #255,%d0
 174      00FF 
 175 0142 7201      	moveq #1,%d1
 176 0144 B280      	cmp.l %d0,%d1
 177 0146 6642      	jne .L17
 178               	.loc 1 226 0 is_stmt 0 discriminator 1
 179 0148 202F 0020 	move.l 32(%sp),%d0
 180 014c 223C 0000 	move.l #204,%d1
 180      00CC 
 181 0152 4C01 0800 	muls.l %d1,%d0
 182 0156 41F9 0000 	lea OS_VolumeTable+102,%a0
 182      0000 
 183 015c 1030 0800 	move.b (%a0,%d0.l),%d0
 184 0160 4A00      	tst.b %d0
 185 0162 6626      	jne .L17
 227:/home/simulink/cFS_FreeRTOS_seL4/osal/src/os/rtems/osfilesys.c ****             && strcmp(OS_VolumeTable[i].DeviceName, devname) == 0)
 186               	.loc 1 227 0 is_stmt 1
 187 0164 202F 0020 	move.l 32(%sp),%d0
 188 0168 223C 0000 	move.l #204,%d1
 188      00CC 
 189 016e 4C01 0800 	muls.l %d1,%d0
 190 0172 0680 0000 	add.l #OS_VolumeTable,%d0
 190      0000 
 191 0178 2F2F 002C 	move.l 44(%sp),-(%sp)
 192               	.cfi_def_cfa_offset 44
 193 017c 2F00      	move.l %d0,-(%sp)
 194               	.cfi_def_cfa_offset 48
 195 017e 4EB9 0000 	jsr strcmp
 195      0000 
 196 0184 508F      	addq.l #8,%sp
 197               	.cfi_def_cfa_offset 40
 198 0186 4A80      	tst.l %d0
 199 0188 670E      	jeq .L28
 200               	.L17:
 224:/home/simulink/cFS_FreeRTOS_seL4/osal/src/os/rtems/osfilesys.c ****     {
 201               	.loc 1 224 0 discriminator 2
 202 018a 52AF 0020 	addq.l #1,32(%sp)
 203               	.L16:
 224:/home/simulink/cFS_FreeRTOS_seL4/osal/src/os/rtems/osfilesys.c ****     {
 204               	.loc 1 224 0 is_stmt 0 discriminator 1
 205 018e 700D      	moveq #13,%d0
 206 0190 B0AF 0020 	cmp.l 32(%sp),%d0
68K GAS   			page 9


 207 0194 6C8C      	jge .L19
 208 0196 6002      	jra .L18
 209               	.L28:
 228:/home/simulink/cFS_FreeRTOS_seL4/osal/src/os/rtems/osfilesys.c ****             break;
 210               	.loc 1 228 0 is_stmt 1
 211 0198 4E71      	nop
 212               	.L18:
 229:/home/simulink/cFS_FreeRTOS_seL4/osal/src/os/rtems/osfilesys.c ****     }
 230:/home/simulink/cFS_FreeRTOS_seL4/osal/src/os/rtems/osfilesys.c **** 
 231:/home/simulink/cFS_FreeRTOS_seL4/osal/src/os/rtems/osfilesys.c ****     if (i >= NUM_TABLE_ENTRIES)
 213               	.loc 1 231 0
 214 019a 720D      	moveq #13,%d1
 215 019c B2AF 0020 	cmp.l 32(%sp),%d1
 216 01a0 6C1A      	jge .L20
 232:/home/simulink/cFS_FreeRTOS_seL4/osal/src/os/rtems/osfilesys.c ****     {
 233:/home/simulink/cFS_FreeRTOS_seL4/osal/src/os/rtems/osfilesys.c ****         rtems_sc = rtems_semaphore_release (OS_VolumeTableSem);
 217               	.loc 1 233 0
 218 01a2 2039 0000 	move.l OS_VolumeTableSem,%d0
 218      0000 
 219 01a8 2F00      	move.l %d0,-(%sp)
 220               	.cfi_def_cfa_offset 44
 221 01aa 4EB9 0000 	jsr rtems_semaphore_release
 221      0000 
 222 01b0 588F      	addq.l #4,%sp
 223               	.cfi_def_cfa_offset 40
 224 01b2 2F40 0018 	move.l %d0,24(%sp)
 234:/home/simulink/cFS_FreeRTOS_seL4/osal/src/os/rtems/osfilesys.c ****         return OS_FS_ERR_DEVICE_NOT_FREE;
 225               	.loc 1 234 0
 226 01b6 7095      	moveq #-107,%d0
 227 01b8 6000 01BE 	jra .L27
 228               	.L20:
 235:/home/simulink/cFS_FreeRTOS_seL4/osal/src/os/rtems/osfilesys.c ****     }
 236:/home/simulink/cFS_FreeRTOS_seL4/osal/src/os/rtems/osfilesys.c **** 
 237:/home/simulink/cFS_FreeRTOS_seL4/osal/src/os/rtems/osfilesys.c ****     /*
 238:/home/simulink/cFS_FreeRTOS_seL4/osal/src/os/rtems/osfilesys.c ****     ** Create the RAM disk and format it with the RFS file system.
 239:/home/simulink/cFS_FreeRTOS_seL4/osal/src/os/rtems/osfilesys.c ****     ** This requires RTEMS 4.10
 240:/home/simulink/cFS_FreeRTOS_seL4/osal/src/os/rtems/osfilesys.c ****     */    
 241:/home/simulink/cFS_FreeRTOS_seL4/osal/src/os/rtems/osfilesys.c ****     if (OS_VolumeTable[i].VolumeType == RAM_DISK)
 229               	.loc 1 241 0
 230 01bc 202F 0020 	move.l 32(%sp),%d0
 231 01c0 223C 0000 	move.l #204,%d1
 231      00CC 
 232 01c6 4C01 0800 	muls.l %d1,%d0
 233 01ca 41F9 0000 	lea OS_VolumeTable+96,%a0
 233      0000 
 234 01d0 2030 0800 	move.l (%a0,%d0.l),%d0
 235 01d4 7201      	moveq #1,%d1
 236 01d6 B280      	cmp.l %d0,%d1
 237 01d8 6600 00FE 	jne .L21
 242:/home/simulink/cFS_FreeRTOS_seL4/osal/src/os/rtems/osfilesys.c ****     {
 243:/home/simulink/cFS_FreeRTOS_seL4/osal/src/os/rtems/osfilesys.c ****         /*
 244:/home/simulink/cFS_FreeRTOS_seL4/osal/src/os/rtems/osfilesys.c ****         ** Create the RAM disk device 
 245:/home/simulink/cFS_FreeRTOS_seL4/osal/src/os/rtems/osfilesys.c ****         */
 246:/home/simulink/cFS_FreeRTOS_seL4/osal/src/os/rtems/osfilesys.c ****         ReturnCode = rtems_setup_ramdisk (OS_VolumeTable[i].PhysDevName, (uint32 *)address, 
 238               	.loc 1 246 0
 239 01dc 202F 0020 	move.l 32(%sp),%d0
 240 01e0 223C 0000 	move.l #204,%d1
68K GAS   			page 10


 240      00CC 
 241 01e6 4C01 0800 	muls.l %d1,%d0
 242 01ea 0680 0000 	add.l #32,%d0
 242      0020 
 243 01f0 0680 0000 	add.l #OS_VolumeTable,%d0
 243      0000 
 244 01f6 2F2F 0038 	move.l 56(%sp),-(%sp)
 245               	.cfi_def_cfa_offset 44
 246 01fa 2F2F 0038 	move.l 56(%sp),-(%sp)
 247               	.cfi_def_cfa_offset 48
 248 01fe 2F2F 0030 	move.l 48(%sp),-(%sp)
 249               	.cfi_def_cfa_offset 52
 250 0202 2F00      	move.l %d0,-(%sp)
 251               	.cfi_def_cfa_offset 56
 252 0204 4EB9 0000 	jsr rtems_setup_ramdisk
 252      0000 
 253 020a 4FEF 0010 	lea (16,%sp),%sp
 254               	.cfi_def_cfa_offset 40
 255 020e 2F40 001C 	move.l %d0,28(%sp)
 247:/home/simulink/cFS_FreeRTOS_seL4/osal/src/os/rtems/osfilesys.c ****                                           blocksize, numblocks);
 248:/home/simulink/cFS_FreeRTOS_seL4/osal/src/os/rtems/osfilesys.c ****         if ( ReturnCode == OS_FS_ERROR )
 256               	.loc 1 248 0
 257 0212 70FF      	moveq #-1,%d0
 258 0214 B0AF 001C 	cmp.l 28(%sp),%d0
 259 0218 660A      	jne .L22
 249:/home/simulink/cFS_FreeRTOS_seL4/osal/src/os/rtems/osfilesys.c ****         {
 250:/home/simulink/cFS_FreeRTOS_seL4/osal/src/os/rtems/osfilesys.c ****            ReturnCode = OS_FS_ERR_DRIVE_NOT_CREATED;
 260               	.loc 1 250 0
 261 021a 7296      	moveq #-106,%d1
 262 021c 2F41 001C 	move.l %d1,28(%sp)
 263 0220 6000 013E 	jra .L25
 264               	.L22:
 251:/home/simulink/cFS_FreeRTOS_seL4/osal/src/os/rtems/osfilesys.c ****         }
 252:/home/simulink/cFS_FreeRTOS_seL4/osal/src/os/rtems/osfilesys.c ****         else
 253:/home/simulink/cFS_FreeRTOS_seL4/osal/src/os/rtems/osfilesys.c ****         {
 254:/home/simulink/cFS_FreeRTOS_seL4/osal/src/os/rtems/osfilesys.c ****            /*
 255:/home/simulink/cFS_FreeRTOS_seL4/osal/src/os/rtems/osfilesys.c ****            ** Format the RAM disk with the RFS file system
 256:/home/simulink/cFS_FreeRTOS_seL4/osal/src/os/rtems/osfilesys.c ****            */
 257:/home/simulink/cFS_FreeRTOS_seL4/osal/src/os/rtems/osfilesys.c ****            memset (&config, 0, sizeof(rtems_rfs_format_config));
 265               	.loc 1 257 0
 266 0224 4878 0018 	pea 24.w
 267               	.cfi_def_cfa_offset 44
 268 0228 42A7      	clr.l -(%sp)
 269               	.cfi_def_cfa_offset 48
 270 022a 200F      	move.l %sp,%d0
 271 022c 5080      	addq.l #8,%d0
 272 022e 2F00      	move.l %d0,-(%sp)
 273               	.cfi_def_cfa_offset 52
 274 0230 4EB9 0000 	jsr memset
 274      0000 
 275 0236 4FEF 000C 	lea (12,%sp),%sp
 276               	.cfi_def_cfa_offset 40
 258:/home/simulink/cFS_FreeRTOS_seL4/osal/src/os/rtems/osfilesys.c ****            if ( rtems_rfs_format ( OS_VolumeTable[i].PhysDevName, &config ) < 0 )
 277               	.loc 1 258 0
 278 023a 202F 0020 	move.l 32(%sp),%d0
 279 023e 223C 0000 	move.l #204,%d1
 279      00CC 
68K GAS   			page 11


 280 0244 4C01 0800 	muls.l %d1,%d0
 281 0248 0680 0000 	add.l #32,%d0
 281      0020 
 282 024e 0680 0000 	add.l #OS_VolumeTable,%d0
 282      0000 
 283 0254 220F      	move.l %sp,%d1
 284 0256 2F01      	move.l %d1,-(%sp)
 285               	.cfi_def_cfa_offset 44
 286 0258 2F00      	move.l %d0,-(%sp)
 287               	.cfi_def_cfa_offset 48
 288 025a 4EB9 0000 	jsr rtems_rfs_format
 288      0000 
 289 0260 508F      	addq.l #8,%sp
 290               	.cfi_def_cfa_offset 40
 291 0262 4A80      	tst.l %d0
 292 0264 6C0A      	jge .L24
 259:/home/simulink/cFS_FreeRTOS_seL4/osal/src/os/rtems/osfilesys.c ****            {
 260:/home/simulink/cFS_FreeRTOS_seL4/osal/src/os/rtems/osfilesys.c ****               #ifdef OS_DEBUG_PRINTF
 261:/home/simulink/cFS_FreeRTOS_seL4/osal/src/os/rtems/osfilesys.c ****                  printf("OSAL: Error: RFS format of %s failed: %s\n",
 262:/home/simulink/cFS_FreeRTOS_seL4/osal/src/os/rtems/osfilesys.c ****                         OS_VolumeTable[i].PhysDevName, strerror(errno));
 263:/home/simulink/cFS_FreeRTOS_seL4/osal/src/os/rtems/osfilesys.c ****               #endif
 264:/home/simulink/cFS_FreeRTOS_seL4/osal/src/os/rtems/osfilesys.c ****               ReturnCode = OS_FS_ERR_DRIVE_NOT_CREATED;
 293               	.loc 1 264 0
 294 0266 7096      	moveq #-106,%d0
 295 0268 2F40 001C 	move.l %d0,28(%sp)
 296 026c 6000 00F2 	jra .L25
 297               	.L24:
 265:/home/simulink/cFS_FreeRTOS_seL4/osal/src/os/rtems/osfilesys.c ****            }
 266:/home/simulink/cFS_FreeRTOS_seL4/osal/src/os/rtems/osfilesys.c ****            else
 267:/home/simulink/cFS_FreeRTOS_seL4/osal/src/os/rtems/osfilesys.c ****            {
 268:/home/simulink/cFS_FreeRTOS_seL4/osal/src/os/rtems/osfilesys.c ****               /*
 269:/home/simulink/cFS_FreeRTOS_seL4/osal/src/os/rtems/osfilesys.c ****               ** Success
 270:/home/simulink/cFS_FreeRTOS_seL4/osal/src/os/rtems/osfilesys.c ****               */
 271:/home/simulink/cFS_FreeRTOS_seL4/osal/src/os/rtems/osfilesys.c ****               OS_VolumeTable[i].FreeFlag = FALSE;
 298               	.loc 1 271 0
 299 0270 202F 0020 	move.l 32(%sp),%d0
 300 0274 223C 0000 	move.l #204,%d1
 300      00CC 
 301 027a 4C01 0800 	muls.l %d1,%d0
 302 027e 41F9 0000 	lea OS_VolumeTable+101,%a0
 302      0000 
 303 0284 4201      	clr.b %d1
 304 0286 1181 0800 	move.b %d1,(%a0,%d0.l)
 272:/home/simulink/cFS_FreeRTOS_seL4/osal/src/os/rtems/osfilesys.c ****               strcpy(OS_VolumeTable[i].VolumeName, volname);
 305               	.loc 1 272 0
 306 028a 202F 0020 	move.l 32(%sp),%d0
 307 028e 223C 0000 	move.l #204,%d1
 307      00CC 
 308 0294 4C01 0800 	muls.l %d1,%d0
 309 0298 0680 0000 	add.l #100,%d0
 309      0064 
 310 029e 0680 0000 	add.l #OS_VolumeTable,%d0
 310      0000 
 311 02a4 5680      	addq.l #3,%d0
 312 02a6 2F2F 0030 	move.l 48(%sp),-(%sp)
 313               	.cfi_def_cfa_offset 44
 314 02aa 2F00      	move.l %d0,-(%sp)
68K GAS   			page 12


 315               	.cfi_def_cfa_offset 48
 316 02ac 4EB9 0000 	jsr strcpy
 316      0000 
 317 02b2 508F      	addq.l #8,%sp
 318               	.cfi_def_cfa_offset 40
 273:/home/simulink/cFS_FreeRTOS_seL4/osal/src/os/rtems/osfilesys.c ****               OS_VolumeTable[i].BlockSize = blocksize;
 319               	.loc 1 273 0
 320 02b4 202F 0020 	move.l 32(%sp),%d0
 321 02b8 223C 0000 	move.l #204,%d1
 321      00CC 
 322 02be 4C01 0800 	muls.l %d1,%d0
 323 02c2 41F9 0000 	lea OS_VolumeTable+200,%a0
 323      0000 
 324 02c8 43EF 0034 	lea (52,%sp),%a1
 325 02cc 2191 0800 	move.l (%a1),(%a0,%d0.l)
 274:/home/simulink/cFS_FreeRTOS_seL4/osal/src/os/rtems/osfilesys.c ****               ReturnCode = OS_FS_SUCCESS;
 326               	.loc 1 274 0
 327 02d0 42AF 001C 	clr.l 28(%sp)
 328 02d4 6000 008A 	jra .L25
 329               	.L21:
 275:/home/simulink/cFS_FreeRTOS_seL4/osal/src/os/rtems/osfilesys.c ****            }
 276:/home/simulink/cFS_FreeRTOS_seL4/osal/src/os/rtems/osfilesys.c ****         }
 277:/home/simulink/cFS_FreeRTOS_seL4/osal/src/os/rtems/osfilesys.c ****     }
 278:/home/simulink/cFS_FreeRTOS_seL4/osal/src/os/rtems/osfilesys.c ****     else if (OS_VolumeTable[i].VolumeType == FS_BASED)
 330               	.loc 1 278 0
 331 02d8 202F 0020 	move.l 32(%sp),%d0
 332 02dc 223C 0000 	move.l #204,%d1
 332      00CC 
 333 02e2 4C01 0800 	muls.l %d1,%d0
 334 02e6 41F9 0000 	lea OS_VolumeTable+96,%a0
 334      0000 
 335 02ec 2030 0800 	move.l (%a0,%d0.l),%d0
 336 02f0 4A80      	tst.l %d0
 337 02f2 6666      	jne .L26
 279:/home/simulink/cFS_FreeRTOS_seL4/osal/src/os/rtems/osfilesys.c ****     {
 280:/home/simulink/cFS_FreeRTOS_seL4/osal/src/os/rtems/osfilesys.c ****        /*
 281:/home/simulink/cFS_FreeRTOS_seL4/osal/src/os/rtems/osfilesys.c ****        ** FS_BASED will map the OSAL Volume to an already mounted host filesystem
 282:/home/simulink/cFS_FreeRTOS_seL4/osal/src/os/rtems/osfilesys.c ****        */
 283:/home/simulink/cFS_FreeRTOS_seL4/osal/src/os/rtems/osfilesys.c ****        
 284:/home/simulink/cFS_FreeRTOS_seL4/osal/src/os/rtems/osfilesys.c ****        /* 
 285:/home/simulink/cFS_FreeRTOS_seL4/osal/src/os/rtems/osfilesys.c ****        ** Enter the info in the table 
 286:/home/simulink/cFS_FreeRTOS_seL4/osal/src/os/rtems/osfilesys.c ****        */
 287:/home/simulink/cFS_FreeRTOS_seL4/osal/src/os/rtems/osfilesys.c ****        OS_VolumeTable[i].FreeFlag = FALSE;
 338               	.loc 1 287 0
 339 02f4 202F 0020 	move.l 32(%sp),%d0
 340 02f8 223C 0000 	move.l #204,%d1
 340      00CC 
 341 02fe 4C01 0800 	muls.l %d1,%d0
 342 0302 41F9 0000 	lea OS_VolumeTable+101,%a0
 342      0000 
 343 0308 4201      	clr.b %d1
 344 030a 1181 0800 	move.b %d1,(%a0,%d0.l)
 288:/home/simulink/cFS_FreeRTOS_seL4/osal/src/os/rtems/osfilesys.c ****        strcpy(OS_VolumeTable[i].VolumeName, volname);
 345               	.loc 1 288 0
 346 030e 202F 0020 	move.l 32(%sp),%d0
 347 0312 223C 0000 	move.l #204,%d1
 347      00CC 
68K GAS   			page 13


 348 0318 4C01 0800 	muls.l %d1,%d0
 349 031c 0680 0000 	add.l #100,%d0
 349      0064 
 350 0322 0680 0000 	add.l #OS_VolumeTable,%d0
 350      0000 
 351 0328 5680      	addq.l #3,%d0
 352 032a 2F2F 0030 	move.l 48(%sp),-(%sp)
 353               	.cfi_def_cfa_offset 44
 354 032e 2F00      	move.l %d0,-(%sp)
 355               	.cfi_def_cfa_offset 48
 356 0330 4EB9 0000 	jsr strcpy
 356      0000 
 357 0336 508F      	addq.l #8,%sp
 358               	.cfi_def_cfa_offset 40
 289:/home/simulink/cFS_FreeRTOS_seL4/osal/src/os/rtems/osfilesys.c ****        OS_VolumeTable[i].BlockSize = blocksize;
 359               	.loc 1 289 0
 360 0338 202F 0020 	move.l 32(%sp),%d0
 361 033c 223C 0000 	move.l #204,%d1
 361      00CC 
 362 0342 4C01 0800 	muls.l %d1,%d0
 363 0346 41F9 0000 	lea OS_VolumeTable+200,%a0
 363      0000 
 364 034c 43EF 0034 	lea (52,%sp),%a1
 365 0350 2191 0800 	move.l (%a1),(%a0,%d0.l)
 290:/home/simulink/cFS_FreeRTOS_seL4/osal/src/os/rtems/osfilesys.c **** 
 291:/home/simulink/cFS_FreeRTOS_seL4/osal/src/os/rtems/osfilesys.c ****        ReturnCode = OS_FS_SUCCESS;
 366               	.loc 1 291 0
 367 0354 42AF 001C 	clr.l 28(%sp)
 368 0358 6006      	jra .L25
 369               	.L26:
 292:/home/simulink/cFS_FreeRTOS_seL4/osal/src/os/rtems/osfilesys.c ****     }
 293:/home/simulink/cFS_FreeRTOS_seL4/osal/src/os/rtems/osfilesys.c ****     else
 294:/home/simulink/cFS_FreeRTOS_seL4/osal/src/os/rtems/osfilesys.c ****     {
 295:/home/simulink/cFS_FreeRTOS_seL4/osal/src/os/rtems/osfilesys.c ****         /* 
 296:/home/simulink/cFS_FreeRTOS_seL4/osal/src/os/rtems/osfilesys.c ****         ** The VolumeType is something else that is not supported right now 
 297:/home/simulink/cFS_FreeRTOS_seL4/osal/src/os/rtems/osfilesys.c ****         */
 298:/home/simulink/cFS_FreeRTOS_seL4/osal/src/os/rtems/osfilesys.c ****         ReturnCode = OS_FS_ERROR;
 370               	.loc 1 298 0
 371 035a 70FF      	moveq #-1,%d0
 372 035c 2F40 001C 	move.l %d0,28(%sp)
 373               	.L25:
 299:/home/simulink/cFS_FreeRTOS_seL4/osal/src/os/rtems/osfilesys.c ****     }
 300:/home/simulink/cFS_FreeRTOS_seL4/osal/src/os/rtems/osfilesys.c **** 
 301:/home/simulink/cFS_FreeRTOS_seL4/osal/src/os/rtems/osfilesys.c ****     /*
 302:/home/simulink/cFS_FreeRTOS_seL4/osal/src/os/rtems/osfilesys.c ****     ** Unlock
 303:/home/simulink/cFS_FreeRTOS_seL4/osal/src/os/rtems/osfilesys.c ****     */
 304:/home/simulink/cFS_FreeRTOS_seL4/osal/src/os/rtems/osfilesys.c ****     rtems_sc = rtems_semaphore_release (OS_VolumeTableSem);
 374               	.loc 1 304 0
 375 0360 2039 0000 	move.l OS_VolumeTableSem,%d0
 375      0000 
 376 0366 2F00      	move.l %d0,-(%sp)
 377               	.cfi_def_cfa_offset 44
 378 0368 4EB9 0000 	jsr rtems_semaphore_release
 378      0000 
 379 036e 588F      	addq.l #4,%sp
 380               	.cfi_def_cfa_offset 40
 381 0370 2F40 0018 	move.l %d0,24(%sp)
68K GAS   			page 14


 305:/home/simulink/cFS_FreeRTOS_seL4/osal/src/os/rtems/osfilesys.c **** 
 306:/home/simulink/cFS_FreeRTOS_seL4/osal/src/os/rtems/osfilesys.c ****     return ReturnCode; 
 382               	.loc 1 306 0
 383 0374 202F 001C 	move.l 28(%sp),%d0
 384               	.L27:
 307:/home/simulink/cFS_FreeRTOS_seL4/osal/src/os/rtems/osfilesys.c ****        
 308:/home/simulink/cFS_FreeRTOS_seL4/osal/src/os/rtems/osfilesys.c **** } /* end OS_mkfs */
 385               	.loc 1 308 0 discriminator 1
 386 0378 4FEF 0024 	lea (36,%sp),%sp
 387 037c 4E75      	rts
 388               	.cfi_endproc
 389               	.LFE279:
 390               	.sizeOS_mkfs, .-OS_mkfs
 391               	.align2
 392               	.globlOS_rmfs
 393               	.typeOS_rmfs, @function
 394               	OS_rmfs:
 395               	.LFB280:
 309:/home/simulink/cFS_FreeRTOS_seL4/osal/src/os/rtems/osfilesys.c **** 
 310:/home/simulink/cFS_FreeRTOS_seL4/osal/src/os/rtems/osfilesys.c **** /*---------------------------------------------------------------------------------------
 311:/home/simulink/cFS_FreeRTOS_seL4/osal/src/os/rtems/osfilesys.c ****     Name: OS_rmfs
 312:/home/simulink/cFS_FreeRTOS_seL4/osal/src/os/rtems/osfilesys.c **** 
 313:/home/simulink/cFS_FreeRTOS_seL4/osal/src/os/rtems/osfilesys.c ****     Purpose: Removes a file system from the volume table. 
 314:/home/simulink/cFS_FreeRTOS_seL4/osal/src/os/rtems/osfilesys.c ****     
 315:/home/simulink/cFS_FreeRTOS_seL4/osal/src/os/rtems/osfilesys.c ****     Returns: OS_FS_ERR_INVALID_POINTER if devname is NULL
 316:/home/simulink/cFS_FreeRTOS_seL4/osal/src/os/rtems/osfilesys.c ****              OS_FS_ERROR is the drive specified cannot be located
 317:/home/simulink/cFS_FreeRTOS_seL4/osal/src/os/rtems/osfilesys.c ****              OS_FS_SUCCESS on removing  the disk
 318:/home/simulink/cFS_FreeRTOS_seL4/osal/src/os/rtems/osfilesys.c **** ---------------------------------------------------------------------------------------*/
 319:/home/simulink/cFS_FreeRTOS_seL4/osal/src/os/rtems/osfilesys.c **** int32 OS_rmfs (char *devname)
 320:/home/simulink/cFS_FreeRTOS_seL4/osal/src/os/rtems/osfilesys.c **** {
 396               	.loc 1 320 0
 397               	.cfi_startproc
 398 037e 4FEF FFF4 	lea (-12,%sp),%sp
 399               	.cfi_def_cfa_offset 16
 321:/home/simulink/cFS_FreeRTOS_seL4/osal/src/os/rtems/osfilesys.c ****     int               i;
 322:/home/simulink/cFS_FreeRTOS_seL4/osal/src/os/rtems/osfilesys.c ****     int32             ReturnCode;
 323:/home/simulink/cFS_FreeRTOS_seL4/osal/src/os/rtems/osfilesys.c ****     rtems_status_code rtems_sc;
 324:/home/simulink/cFS_FreeRTOS_seL4/osal/src/os/rtems/osfilesys.c **** 
 325:/home/simulink/cFS_FreeRTOS_seL4/osal/src/os/rtems/osfilesys.c ****     if (devname == NULL)
 400               	.loc 1 325 0
 401 0382 4AAF 0010 	tst.l 16(%sp)
 402 0386 660A      	jne .L30
 326:/home/simulink/cFS_FreeRTOS_seL4/osal/src/os/rtems/osfilesys.c ****     {
 327:/home/simulink/cFS_FreeRTOS_seL4/osal/src/os/rtems/osfilesys.c ****         ReturnCode =  OS_FS_ERR_INVALID_POINTER;
 403               	.loc 1 327 0
 404 0388 70FE      	moveq #-2,%d0
 405 038a 2F40 0004 	move.l %d0,4(%sp)
 406 038e 6000 00EA 	jra .L31
 407               	.L30:
 328:/home/simulink/cFS_FreeRTOS_seL4/osal/src/os/rtems/osfilesys.c ****     }
 329:/home/simulink/cFS_FreeRTOS_seL4/osal/src/os/rtems/osfilesys.c ****     else if ( strlen(devname) >= OS_FS_DEV_NAME_LEN )
 408               	.loc 1 329 0
 409 0392 2F2F 0010 	move.l 16(%sp),-(%sp)
 410               	.cfi_def_cfa_offset 20
 411 0396 4EB9 0000 	jsr strlen
 411      0000 
 412 039c 588F      	addq.l #4,%sp
68K GAS   			page 15


 413               	.cfi_def_cfa_offset 16
 414 039e 721F      	moveq #31,%d1
 415 03a0 B280      	cmp.l %d0,%d1
 416 03a2 640A      	jcc .L32
 330:/home/simulink/cFS_FreeRTOS_seL4/osal/src/os/rtems/osfilesys.c ****     {
 331:/home/simulink/cFS_FreeRTOS_seL4/osal/src/os/rtems/osfilesys.c ****         ReturnCode = OS_FS_ERR_PATH_TOO_LONG;
 417               	.loc 1 331 0
 418 03a4 7099      	moveq #-103,%d0
 419 03a6 2F40 0004 	move.l %d0,4(%sp)
 420 03aa 6000 00CE 	jra .L31
 421               	.L32:
 332:/home/simulink/cFS_FreeRTOS_seL4/osal/src/os/rtems/osfilesys.c ****     }
 333:/home/simulink/cFS_FreeRTOS_seL4/osal/src/os/rtems/osfilesys.c ****     else
 334:/home/simulink/cFS_FreeRTOS_seL4/osal/src/os/rtems/osfilesys.c ****     {
 335:/home/simulink/cFS_FreeRTOS_seL4/osal/src/os/rtems/osfilesys.c ****         /*
 336:/home/simulink/cFS_FreeRTOS_seL4/osal/src/os/rtems/osfilesys.c ****         ** Lock 
 337:/home/simulink/cFS_FreeRTOS_seL4/osal/src/os/rtems/osfilesys.c ****         */
 338:/home/simulink/cFS_FreeRTOS_seL4/osal/src/os/rtems/osfilesys.c ****         rtems_sc = rtems_semaphore_obtain (OS_VolumeTableSem, RTEMS_WAIT, RTEMS_NO_TIMEOUT);
 422               	.loc 1 338 0
 423 03ae 2039 0000 	move.l OS_VolumeTableSem,%d0
 423      0000 
 424 03b4 42A7      	clr.l -(%sp)
 425               	.cfi_def_cfa_offset 20
 426 03b6 42A7      	clr.l -(%sp)
 427               	.cfi_def_cfa_offset 24
 428 03b8 2F00      	move.l %d0,-(%sp)
 429               	.cfi_def_cfa_offset 28
 430 03ba 4EB9 0000 	jsr rtems_semaphore_obtain
 430      0000 
 431 03c0 4FEF 000C 	lea (12,%sp),%sp
 432               	.cfi_def_cfa_offset 16
 433 03c4 2E80      	move.l %d0,(%sp)
 339:/home/simulink/cFS_FreeRTOS_seL4/osal/src/os/rtems/osfilesys.c **** 
 340:/home/simulink/cFS_FreeRTOS_seL4/osal/src/os/rtems/osfilesys.c ****         /* find this entry in the Volume Table */
 341:/home/simulink/cFS_FreeRTOS_seL4/osal/src/os/rtems/osfilesys.c ****         for (i = 0; i < NUM_TABLE_ENTRIES; i++)
 434               	.loc 1 341 0
 435 03c6 42AF 0008 	clr.l 8(%sp)
 436 03ca 6062      	jra .L33
 437               	.L36:
 342:/home/simulink/cFS_FreeRTOS_seL4/osal/src/os/rtems/osfilesys.c ****         {
 343:/home/simulink/cFS_FreeRTOS_seL4/osal/src/os/rtems/osfilesys.c ****             if (OS_VolumeTable[i].FreeFlag == FALSE && OS_VolumeTable[i].IsMounted == FALSE
 438               	.loc 1 343 0
 439 03cc 202F 0008 	move.l 8(%sp),%d0
 440 03d0 223C 0000 	move.l #204,%d1
 440      00CC 
 441 03d6 4C01 0800 	muls.l %d1,%d0
 442 03da 41F9 0000 	lea OS_VolumeTable+101,%a0
 442      0000 
 443 03e0 1030 0800 	move.b (%a0,%d0.l),%d0
 444 03e4 4A00      	tst.b %d0
 445 03e6 6642      	jne .L34
 446               	.loc 1 343 0 is_stmt 0 discriminator 1
 447 03e8 202F 0008 	move.l 8(%sp),%d0
 448 03ec 223C 0000 	move.l #204,%d1
 448      00CC 
 449 03f2 4C01 0800 	muls.l %d1,%d0
 450 03f6 41F9 0000 	lea OS_VolumeTable+102,%a0
68K GAS   			page 16


 450      0000 
 451 03fc 1030 0800 	move.b (%a0,%d0.l),%d0
 452 0400 4A00      	tst.b %d0
 453 0402 6626      	jne .L34
 344:/home/simulink/cFS_FreeRTOS_seL4/osal/src/os/rtems/osfilesys.c ****                 && strcmp(OS_VolumeTable[i].DeviceName, devname) == 0)
 454               	.loc 1 344 0 is_stmt 1
 455 0404 202F 0008 	move.l 8(%sp),%d0
 456 0408 223C 0000 	move.l #204,%d1
 456      00CC 
 457 040e 4C01 0800 	muls.l %d1,%d0
 458 0412 0680 0000 	add.l #OS_VolumeTable,%d0
 458      0000 
 459 0418 2F2F 0010 	move.l 16(%sp),-(%sp)
 460               	.cfi_def_cfa_offset 20
 461 041c 2F00      	move.l %d0,-(%sp)
 462               	.cfi_def_cfa_offset 24
 463 041e 4EB9 0000 	jsr strcmp
 463      0000 
 464 0424 508F      	addq.l #8,%sp
 465               	.cfi_def_cfa_offset 16
 466 0426 4A80      	tst.l %d0
 467 0428 670E      	jeq .L40
 468               	.L34:
 341:/home/simulink/cFS_FreeRTOS_seL4/osal/src/os/rtems/osfilesys.c ****         {
 469               	.loc 1 341 0 discriminator 2
 470 042a 52AF 0008 	addq.l #1,8(%sp)
 471               	.L33:
 341:/home/simulink/cFS_FreeRTOS_seL4/osal/src/os/rtems/osfilesys.c ****         {
 472               	.loc 1 341 0 is_stmt 0 discriminator 1
 473 042e 700D      	moveq #13,%d0
 474 0430 B0AF 0008 	cmp.l 8(%sp),%d0
 475 0434 6C96      	jge .L36
 476 0436 6002      	jra .L35
 477               	.L40:
 345:/home/simulink/cFS_FreeRTOS_seL4/osal/src/os/rtems/osfilesys.c ****             {
 346:/home/simulink/cFS_FreeRTOS_seL4/osal/src/os/rtems/osfilesys.c ****                 break;
 478               	.loc 1 346 0 is_stmt 1
 479 0438 4E71      	nop
 480               	.L35:
 347:/home/simulink/cFS_FreeRTOS_seL4/osal/src/os/rtems/osfilesys.c ****             }
 348:/home/simulink/cFS_FreeRTOS_seL4/osal/src/os/rtems/osfilesys.c ****         }
 349:/home/simulink/cFS_FreeRTOS_seL4/osal/src/os/rtems/osfilesys.c **** 
 350:/home/simulink/cFS_FreeRTOS_seL4/osal/src/os/rtems/osfilesys.c ****         /* We can't find that entry in the table */
 351:/home/simulink/cFS_FreeRTOS_seL4/osal/src/os/rtems/osfilesys.c ****         if (i >= NUM_TABLE_ENTRIES)
 481               	.loc 1 351 0
 482 043a 720D      	moveq #13,%d1
 483 043c B2AF 0008 	cmp.l 8(%sp),%d1
 484 0440 6C08      	jge .L37
 352:/home/simulink/cFS_FreeRTOS_seL4/osal/src/os/rtems/osfilesys.c ****         {
 353:/home/simulink/cFS_FreeRTOS_seL4/osal/src/os/rtems/osfilesys.c ****             ReturnCode =  OS_FS_ERROR;
 485               	.loc 1 353 0
 486 0442 70FF      	moveq #-1,%d0
 487 0444 2F40 0004 	move.l %d0,4(%sp)
 488 0448 601E      	jra .L38
 489               	.L37:
 354:/home/simulink/cFS_FreeRTOS_seL4/osal/src/os/rtems/osfilesys.c ****         }
 355:/home/simulink/cFS_FreeRTOS_seL4/osal/src/os/rtems/osfilesys.c ****         else
68K GAS   			page 17


 356:/home/simulink/cFS_FreeRTOS_seL4/osal/src/os/rtems/osfilesys.c ****         {
 357:/home/simulink/cFS_FreeRTOS_seL4/osal/src/os/rtems/osfilesys.c ****             /* Free this entry in the table */
 358:/home/simulink/cFS_FreeRTOS_seL4/osal/src/os/rtems/osfilesys.c ****             OS_VolumeTable[i].FreeFlag = TRUE;
 490               	.loc 1 358 0
 491 044a 202F 0008 	move.l 8(%sp),%d0
 492 044e 223C 0000 	move.l #204,%d1
 492      00CC 
 493 0454 4C01 0800 	muls.l %d1,%d0
 494 0458 41F9 0000 	lea OS_VolumeTable+101,%a0
 494      0000 
 495 045e 7201      	moveq #1,%d1
 496 0460 1181 0800 	move.b %d1,(%a0,%d0.l)
 359:/home/simulink/cFS_FreeRTOS_seL4/osal/src/os/rtems/osfilesys.c ****             
 360:/home/simulink/cFS_FreeRTOS_seL4/osal/src/os/rtems/osfilesys.c ****             /* desconstruction of the filesystem to come later */
 361:/home/simulink/cFS_FreeRTOS_seL4/osal/src/os/rtems/osfilesys.c ****             ReturnCode = OS_FS_SUCCESS;
 497               	.loc 1 361 0
 498 0464 42AF 0004 	clr.l 4(%sp)
 499               	.L38:
 362:/home/simulink/cFS_FreeRTOS_seL4/osal/src/os/rtems/osfilesys.c ****         }
 363:/home/simulink/cFS_FreeRTOS_seL4/osal/src/os/rtems/osfilesys.c ****         /*
 364:/home/simulink/cFS_FreeRTOS_seL4/osal/src/os/rtems/osfilesys.c ****         ** Unlock
 365:/home/simulink/cFS_FreeRTOS_seL4/osal/src/os/rtems/osfilesys.c ****         */
 366:/home/simulink/cFS_FreeRTOS_seL4/osal/src/os/rtems/osfilesys.c ****         rtems_sc = rtems_semaphore_release (OS_VolumeTableSem);
 500               	.loc 1 366 0
 501 0468 2039 0000 	move.l OS_VolumeTableSem,%d0
 501      0000 
 502 046e 2F00      	move.l %d0,-(%sp)
 503               	.cfi_def_cfa_offset 20
 504 0470 4EB9 0000 	jsr rtems_semaphore_release
 504      0000 
 505 0476 588F      	addq.l #4,%sp
 506               	.cfi_def_cfa_offset 16
 507 0478 2E80      	move.l %d0,(%sp)
 508               	.L31:
 367:/home/simulink/cFS_FreeRTOS_seL4/osal/src/os/rtems/osfilesys.c ****     }
 368:/home/simulink/cFS_FreeRTOS_seL4/osal/src/os/rtems/osfilesys.c ****     return ReturnCode;
 509               	.loc 1 368 0
 510 047a 202F 0004 	move.l 4(%sp),%d0
 369:/home/simulink/cFS_FreeRTOS_seL4/osal/src/os/rtems/osfilesys.c **** 
 370:/home/simulink/cFS_FreeRTOS_seL4/osal/src/os/rtems/osfilesys.c **** }/* end OS_rmfs */
 511               	.loc 1 370 0
 512 047e 4FEF 000C 	lea (12,%sp),%sp
 513 0482 4E75      	rts
 514               	.cfi_endproc
 515               	.LFE280:
 516               	.sizeOS_rmfs, .-OS_rmfs
 517               	.align2
 518               	.globlOS_initfs
 519               	.typeOS_initfs, @function
 520               	OS_initfs:
 521               	.LFB281:
 371:/home/simulink/cFS_FreeRTOS_seL4/osal/src/os/rtems/osfilesys.c **** 
 372:/home/simulink/cFS_FreeRTOS_seL4/osal/src/os/rtems/osfilesys.c **** /*---------------------------------------------------------------------------------------
 373:/home/simulink/cFS_FreeRTOS_seL4/osal/src/os/rtems/osfilesys.c ****     Name: OS_initfs
 374:/home/simulink/cFS_FreeRTOS_seL4/osal/src/os/rtems/osfilesys.c **** 
 375:/home/simulink/cFS_FreeRTOS_seL4/osal/src/os/rtems/osfilesys.c ****     Purpose: Inititalizes a file system on the target
 376:/home/simulink/cFS_FreeRTOS_seL4/osal/src/os/rtems/osfilesys.c **** 
68K GAS   			page 18


 377:/home/simulink/cFS_FreeRTOS_seL4/osal/src/os/rtems/osfilesys.c ****     Returns: OS_FS_ERR_INVALID_POINTER if devname is NULL
 378:/home/simulink/cFS_FreeRTOS_seL4/osal/src/os/rtems/osfilesys.c ****              OS_FS_DRIVE_NOT_CREATED if the OS calls to create the the drive failed
 379:/home/simulink/cFS_FreeRTOS_seL4/osal/src/os/rtems/osfilesys.c ****              OS_FS_SUCCESS on creating the disk
 380:/home/simulink/cFS_FreeRTOS_seL4/osal/src/os/rtems/osfilesys.c ****              OS_FS_ERR_PATH_TOO_LONG if the name is too long
 381:/home/simulink/cFS_FreeRTOS_seL4/osal/src/os/rtems/osfilesys.c ****              OS_FS_ERR_DEVICE_NOT_FREE if the volume table is full
 382:/home/simulink/cFS_FreeRTOS_seL4/osal/src/os/rtems/osfilesys.c ****     
 383:/home/simulink/cFS_FreeRTOS_seL4/osal/src/os/rtems/osfilesys.c **** ---------------------------------------------------------------------------------------*/
 384:/home/simulink/cFS_FreeRTOS_seL4/osal/src/os/rtems/osfilesys.c **** int32 OS_initfs (char *address,char *devname, char *volname, 
 385:/home/simulink/cFS_FreeRTOS_seL4/osal/src/os/rtems/osfilesys.c ****                 uint32 blocksize, uint32 numblocks)
 386:/home/simulink/cFS_FreeRTOS_seL4/osal/src/os/rtems/osfilesys.c **** {
 522               	.loc 1 386 0
 523               	.cfi_startproc
 524 0484 4FEF FFF4 	lea (-12,%sp),%sp
 525               	.cfi_def_cfa_offset 16
 387:/home/simulink/cFS_FreeRTOS_seL4/osal/src/os/rtems/osfilesys.c ****     int               i;
 388:/home/simulink/cFS_FreeRTOS_seL4/osal/src/os/rtems/osfilesys.c ****     int32             ReturnCode;
 389:/home/simulink/cFS_FreeRTOS_seL4/osal/src/os/rtems/osfilesys.c ****     rtems_status_code rtems_sc;
 390:/home/simulink/cFS_FreeRTOS_seL4/osal/src/os/rtems/osfilesys.c **** 
 391:/home/simulink/cFS_FreeRTOS_seL4/osal/src/os/rtems/osfilesys.c ****     if ( devname == NULL || volname == NULL )
 526               	.loc 1 391 0
 527 0488 4AAF 0014 	tst.l 20(%sp)
 528 048c 6706      	jeq .L42
 529               	.loc 1 391 0 is_stmt 0 discriminator 1
 530 048e 4AAF 0018 	tst.l 24(%sp)
 531 0492 6606      	jne .L43
 532               	.L42:
 392:/home/simulink/cFS_FreeRTOS_seL4/osal/src/os/rtems/osfilesys.c ****     {
 393:/home/simulink/cFS_FreeRTOS_seL4/osal/src/os/rtems/osfilesys.c ****         return OS_FS_ERR_INVALID_POINTER;
 533               	.loc 1 393 0 is_stmt 1
 534 0494 70FE      	moveq #-2,%d0
 535 0496 6000 024E 	jra .L44
 536               	.L43:
 394:/home/simulink/cFS_FreeRTOS_seL4/osal/src/os/rtems/osfilesys.c ****     }
 395:/home/simulink/cFS_FreeRTOS_seL4/osal/src/os/rtems/osfilesys.c **** 
 396:/home/simulink/cFS_FreeRTOS_seL4/osal/src/os/rtems/osfilesys.c ****     if( strlen(devname) >= OS_FS_DEV_NAME_LEN || strlen(volname) >= OS_FS_VOL_NAME_LEN)
 537               	.loc 1 396 0
 538 049a 2F2F 0014 	move.l 20(%sp),-(%sp)
 539               	.cfi_def_cfa_offset 20
 540 049e 4EB9 0000 	jsr strlen
 540      0000 
 541 04a4 588F      	addq.l #4,%sp
 542               	.cfi_def_cfa_offset 16
 543 04a6 721F      	moveq #31,%d1
 544 04a8 B280      	cmp.l %d0,%d1
 545 04aa 6512      	jcs .L45
 546               	.loc 1 396 0 is_stmt 0 discriminator 1
 547 04ac 2F2F 0018 	move.l 24(%sp),-(%sp)
 548               	.cfi_def_cfa_offset 20
 549 04b0 4EB9 0000 	jsr strlen
 549      0000 
 550 04b6 588F      	addq.l #4,%sp
 551               	.cfi_def_cfa_offset 16
 552 04b8 721F      	moveq #31,%d1
 553 04ba B280      	cmp.l %d0,%d1
 554 04bc 6406      	jcc .L46
 555               	.L45:
 397:/home/simulink/cFS_FreeRTOS_seL4/osal/src/os/rtems/osfilesys.c ****     {
68K GAS   			page 19


 398:/home/simulink/cFS_FreeRTOS_seL4/osal/src/os/rtems/osfilesys.c ****         return OS_FS_ERR_PATH_TOO_LONG;
 556               	.loc 1 398 0 is_stmt 1
 557 04be 7099      	moveq #-103,%d0
 558 04c0 6000 0224 	jra .L44
 559               	.L46:
 399:/home/simulink/cFS_FreeRTOS_seL4/osal/src/os/rtems/osfilesys.c ****     }
 400:/home/simulink/cFS_FreeRTOS_seL4/osal/src/os/rtems/osfilesys.c ****  
 401:/home/simulink/cFS_FreeRTOS_seL4/osal/src/os/rtems/osfilesys.c ****     /*
 402:/home/simulink/cFS_FreeRTOS_seL4/osal/src/os/rtems/osfilesys.c ****     ** Lock 
 403:/home/simulink/cFS_FreeRTOS_seL4/osal/src/os/rtems/osfilesys.c ****     */
 404:/home/simulink/cFS_FreeRTOS_seL4/osal/src/os/rtems/osfilesys.c ****     rtems_sc = rtems_semaphore_obtain (OS_VolumeTableSem, RTEMS_WAIT, RTEMS_NO_TIMEOUT);
 560               	.loc 1 404 0
 561 04c4 2039 0000 	move.l OS_VolumeTableSem,%d0
 561      0000 
 562 04ca 42A7      	clr.l -(%sp)
 563               	.cfi_def_cfa_offset 20
 564 04cc 42A7      	clr.l -(%sp)
 565               	.cfi_def_cfa_offset 24
 566 04ce 2F00      	move.l %d0,-(%sp)
 567               	.cfi_def_cfa_offset 28
 568 04d0 4EB9 0000 	jsr rtems_semaphore_obtain
 568      0000 
 569 04d6 4FEF 000C 	lea (12,%sp),%sp
 570               	.cfi_def_cfa_offset 16
 571 04da 2E80      	move.l %d0,(%sp)
 405:/home/simulink/cFS_FreeRTOS_seL4/osal/src/os/rtems/osfilesys.c **** 
 406:/home/simulink/cFS_FreeRTOS_seL4/osal/src/os/rtems/osfilesys.c ****     /* find an open entry in the Volume Table */
 407:/home/simulink/cFS_FreeRTOS_seL4/osal/src/os/rtems/osfilesys.c ****     for (i = 0; i < NUM_TABLE_ENTRIES; i++)
 572               	.loc 1 407 0
 573 04dc 42AF 0008 	clr.l 8(%sp)
 574 04e0 606C      	jra .L47
 575               	.L50:
 408:/home/simulink/cFS_FreeRTOS_seL4/osal/src/os/rtems/osfilesys.c ****     {
 409:/home/simulink/cFS_FreeRTOS_seL4/osal/src/os/rtems/osfilesys.c ****         if (OS_VolumeTable[i].FreeFlag == TRUE && OS_VolumeTable[i].IsMounted == FALSE
 576               	.loc 1 409 0
 577 04e2 202F 0008 	move.l 8(%sp),%d0
 578 04e6 223C 0000 	move.l #204,%d1
 578      00CC 
 579 04ec 4C01 0800 	muls.l %d1,%d0
 580 04f0 41F9 0000 	lea OS_VolumeTable+101,%a0
 580      0000 
 581 04f6 1030 0800 	move.b (%a0,%d0.l),%d0
 582 04fa 1000      	move.b %d0,%d0
 583 04fc 0280 0000 	and.l #255,%d0
 583      00FF 
 584 0502 7201      	moveq #1,%d1
 585 0504 B280      	cmp.l %d0,%d1
 586 0506 6642      	jne .L48
 587               	.loc 1 409 0 is_stmt 0 discriminator 1
 588 0508 202F 0008 	move.l 8(%sp),%d0
 589 050c 223C 0000 	move.l #204,%d1
 589      00CC 
 590 0512 4C01 0800 	muls.l %d1,%d0
 591 0516 41F9 0000 	lea OS_VolumeTable+102,%a0
 591      0000 
 592 051c 1030 0800 	move.b (%a0,%d0.l),%d0
 593 0520 4A00      	tst.b %d0
68K GAS   			page 20


 594 0522 6626      	jne .L48
 410:/home/simulink/cFS_FreeRTOS_seL4/osal/src/os/rtems/osfilesys.c ****             && strcmp(OS_VolumeTable[i].DeviceName, devname) == 0)
 595               	.loc 1 410 0 is_stmt 1
 596 0524 202F 0008 	move.l 8(%sp),%d0
 597 0528 223C 0000 	move.l #204,%d1
 597      00CC 
 598 052e 4C01 0800 	muls.l %d1,%d0
 599 0532 0680 0000 	add.l #OS_VolumeTable,%d0
 599      0000 
 600 0538 2F2F 0014 	move.l 20(%sp),-(%sp)
 601               	.cfi_def_cfa_offset 20
 602 053c 2F00      	move.l %d0,-(%sp)
 603               	.cfi_def_cfa_offset 24
 604 053e 4EB9 0000 	jsr strcmp
 604      0000 
 605 0544 508F      	addq.l #8,%sp
 606               	.cfi_def_cfa_offset 16
 607 0546 4A80      	tst.l %d0
 608 0548 670E      	jeq .L57
 609               	.L48:
 407:/home/simulink/cFS_FreeRTOS_seL4/osal/src/os/rtems/osfilesys.c ****     {
 610               	.loc 1 407 0 discriminator 2
 611 054a 52AF 0008 	addq.l #1,8(%sp)
 612               	.L47:
 407:/home/simulink/cFS_FreeRTOS_seL4/osal/src/os/rtems/osfilesys.c ****     {
 613               	.loc 1 407 0 is_stmt 0 discriminator 1
 614 054e 700D      	moveq #13,%d0
 615 0550 B0AF 0008 	cmp.l 8(%sp),%d0
 616 0554 6C8C      	jge .L50
 617 0556 6002      	jra .L49
 618               	.L57:
 411:/home/simulink/cFS_FreeRTOS_seL4/osal/src/os/rtems/osfilesys.c ****             break;
 619               	.loc 1 411 0 is_stmt 1
 620 0558 4E71      	nop
 621               	.L49:
 412:/home/simulink/cFS_FreeRTOS_seL4/osal/src/os/rtems/osfilesys.c ****     }
 413:/home/simulink/cFS_FreeRTOS_seL4/osal/src/os/rtems/osfilesys.c **** 
 414:/home/simulink/cFS_FreeRTOS_seL4/osal/src/os/rtems/osfilesys.c ****     if (i >= NUM_TABLE_ENTRIES)
 622               	.loc 1 414 0
 623 055a 720D      	moveq #13,%d1
 624 055c B2AF 0008 	cmp.l 8(%sp),%d1
 625 0560 6C18      	jge .L51
 415:/home/simulink/cFS_FreeRTOS_seL4/osal/src/os/rtems/osfilesys.c ****     {
 416:/home/simulink/cFS_FreeRTOS_seL4/osal/src/os/rtems/osfilesys.c ****         rtems_sc = rtems_semaphore_release (OS_VolumeTableSem);
 626               	.loc 1 416 0
 627 0562 2039 0000 	move.l OS_VolumeTableSem,%d0
 627      0000 
 628 0568 2F00      	move.l %d0,-(%sp)
 629               	.cfi_def_cfa_offset 20
 630 056a 4EB9 0000 	jsr rtems_semaphore_release
 630      0000 
 631 0570 588F      	addq.l #4,%sp
 632               	.cfi_def_cfa_offset 16
 633 0572 2E80      	move.l %d0,(%sp)
 417:/home/simulink/cFS_FreeRTOS_seL4/osal/src/os/rtems/osfilesys.c ****         return OS_FS_ERR_DEVICE_NOT_FREE;
 634               	.loc 1 417 0
 635 0574 7095      	moveq #-107,%d0
68K GAS   			page 21


 636 0576 6000 016E 	jra .L44
 637               	.L51:
 418:/home/simulink/cFS_FreeRTOS_seL4/osal/src/os/rtems/osfilesys.c ****     }
 419:/home/simulink/cFS_FreeRTOS_seL4/osal/src/os/rtems/osfilesys.c **** 
 420:/home/simulink/cFS_FreeRTOS_seL4/osal/src/os/rtems/osfilesys.c ****     /*
 421:/home/simulink/cFS_FreeRTOS_seL4/osal/src/os/rtems/osfilesys.c ****     ** Initialize the RAM disk.
 422:/home/simulink/cFS_FreeRTOS_seL4/osal/src/os/rtems/osfilesys.c ****     */    
 423:/home/simulink/cFS_FreeRTOS_seL4/osal/src/os/rtems/osfilesys.c ****     if (OS_VolumeTable[i].VolumeType == RAM_DISK)
 638               	.loc 1 423 0
 639 057a 202F 0008 	move.l 8(%sp),%d0
 640 057e 223C 0000 	move.l #204,%d1
 640      00CC 
 641 0584 4C01 0800 	muls.l %d1,%d0
 642 0588 41F9 0000 	lea OS_VolumeTable+96,%a0
 642      0000 
 643 058e 2030 0800 	move.l (%a0,%d0.l),%d0
 644 0592 7201      	moveq #1,%d1
 645 0594 B280      	cmp.l %d0,%d1
 646 0596 6600 00B0 	jne .L52
 424:/home/simulink/cFS_FreeRTOS_seL4/osal/src/os/rtems/osfilesys.c ****     {
 425:/home/simulink/cFS_FreeRTOS_seL4/osal/src/os/rtems/osfilesys.c ****         #ifdef OS_DEBUG_PRINTF
 426:/home/simulink/cFS_FreeRTOS_seL4/osal/src/os/rtems/osfilesys.c ****            printf("OSAL: Re-Initializing a RAM disk at: 0x%08X\n",(unsigned int)address );
 427:/home/simulink/cFS_FreeRTOS_seL4/osal/src/os/rtems/osfilesys.c ****         #endif
 428:/home/simulink/cFS_FreeRTOS_seL4/osal/src/os/rtems/osfilesys.c ****         /*
 429:/home/simulink/cFS_FreeRTOS_seL4/osal/src/os/rtems/osfilesys.c ****         ** Create the RAM disk device. Do not erase the disk! 
 430:/home/simulink/cFS_FreeRTOS_seL4/osal/src/os/rtems/osfilesys.c ****         */
 431:/home/simulink/cFS_FreeRTOS_seL4/osal/src/os/rtems/osfilesys.c ****         ReturnCode = rtems_setup_ramdisk (OS_VolumeTable[i].PhysDevName, (uint32 *) address, 
 647               	.loc 1 431 0
 648 059a 202F 0008 	move.l 8(%sp),%d0
 649 059e 223C 0000 	move.l #204,%d1
 649      00CC 
 650 05a4 4C01 0800 	muls.l %d1,%d0
 651 05a8 0680 0000 	add.l #32,%d0
 651      0020 
 652 05ae 0680 0000 	add.l #OS_VolumeTable,%d0
 652      0000 
 653 05b4 2F2F 0020 	move.l 32(%sp),-(%sp)
 654               	.cfi_def_cfa_offset 20
 655 05b8 2F2F 0020 	move.l 32(%sp),-(%sp)
 656               	.cfi_def_cfa_offset 24
 657 05bc 2F2F 0018 	move.l 24(%sp),-(%sp)
 658               	.cfi_def_cfa_offset 28
 659 05c0 2F00      	move.l %d0,-(%sp)
 660               	.cfi_def_cfa_offset 32
 661 05c2 4EB9 0000 	jsr rtems_setup_ramdisk
 661      0000 
 662 05c8 4FEF 0010 	lea (16,%sp),%sp
 663               	.cfi_def_cfa_offset 16
 664 05cc 2F40 0004 	move.l %d0,4(%sp)
 432:/home/simulink/cFS_FreeRTOS_seL4/osal/src/os/rtems/osfilesys.c ****                                           blocksize, numblocks);
 433:/home/simulink/cFS_FreeRTOS_seL4/osal/src/os/rtems/osfilesys.c ****         if ( ReturnCode != OS_FS_SUCCESS )
 665               	.loc 1 433 0
 666 05d0 4AAF 0004 	tst.l 4(%sp)
 667 05d4 670A      	jeq .L53
 434:/home/simulink/cFS_FreeRTOS_seL4/osal/src/os/rtems/osfilesys.c ****         {
 435:/home/simulink/cFS_FreeRTOS_seL4/osal/src/os/rtems/osfilesys.c ****            ReturnCode = OS_FS_ERR_DRIVE_NOT_CREATED;
 668               	.loc 1 435 0
68K GAS   			page 22


 669 05d6 7096      	moveq #-106,%d0
 670 05d8 2F40 0004 	move.l %d0,4(%sp)
 671 05dc 6000 00F2 	jra .L55
 672               	.L53:
 436:/home/simulink/cFS_FreeRTOS_seL4/osal/src/os/rtems/osfilesys.c ****         }
 437:/home/simulink/cFS_FreeRTOS_seL4/osal/src/os/rtems/osfilesys.c ****         else
 438:/home/simulink/cFS_FreeRTOS_seL4/osal/src/os/rtems/osfilesys.c ****         {
 439:/home/simulink/cFS_FreeRTOS_seL4/osal/src/os/rtems/osfilesys.c ****             /*
 440:/home/simulink/cFS_FreeRTOS_seL4/osal/src/os/rtems/osfilesys.c ****             ** Success
 441:/home/simulink/cFS_FreeRTOS_seL4/osal/src/os/rtems/osfilesys.c ****             */
 442:/home/simulink/cFS_FreeRTOS_seL4/osal/src/os/rtems/osfilesys.c ****             OS_VolumeTable[i].FreeFlag = FALSE;
 673               	.loc 1 442 0
 674 05e0 202F 0008 	move.l 8(%sp),%d0
 675 05e4 223C 0000 	move.l #204,%d1
 675      00CC 
 676 05ea 4C01 0800 	muls.l %d1,%d0
 677 05ee 41F9 0000 	lea OS_VolumeTable+101,%a0
 677      0000 
 678 05f4 4201      	clr.b %d1
 679 05f6 1181 0800 	move.b %d1,(%a0,%d0.l)
 443:/home/simulink/cFS_FreeRTOS_seL4/osal/src/os/rtems/osfilesys.c ****             strcpy(OS_VolumeTable[i].VolumeName, volname);
 680               	.loc 1 443 0
 681 05fa 202F 0008 	move.l 8(%sp),%d0
 682 05fe 223C 0000 	move.l #204,%d1
 682      00CC 
 683 0604 4C01 0800 	muls.l %d1,%d0
 684 0608 0680 0000 	add.l #100,%d0
 684      0064 
 685 060e 0680 0000 	add.l #OS_VolumeTable,%d0
 685      0000 
 686 0614 5680      	addq.l #3,%d0
 687 0616 2F2F 0018 	move.l 24(%sp),-(%sp)
 688               	.cfi_def_cfa_offset 20
 689 061a 2F00      	move.l %d0,-(%sp)
 690               	.cfi_def_cfa_offset 24
 691 061c 4EB9 0000 	jsr strcpy
 691      0000 
 692 0622 508F      	addq.l #8,%sp
 693               	.cfi_def_cfa_offset 16
 444:/home/simulink/cFS_FreeRTOS_seL4/osal/src/os/rtems/osfilesys.c ****             OS_VolumeTable[i].BlockSize = blocksize;
 694               	.loc 1 444 0
 695 0624 202F 0008 	move.l 8(%sp),%d0
 696 0628 223C 0000 	move.l #204,%d1
 696      00CC 
 697 062e 4C01 0800 	muls.l %d1,%d0
 698 0632 41F9 0000 	lea OS_VolumeTable+200,%a0
 698      0000 
 699 0638 43EF 001C 	lea (28,%sp),%a1
 700 063c 2191 0800 	move.l (%a1),(%a0,%d0.l)
 445:/home/simulink/cFS_FreeRTOS_seL4/osal/src/os/rtems/osfilesys.c ****             ReturnCode = OS_FS_SUCCESS;
 701               	.loc 1 445 0
 702 0640 42AF 0004 	clr.l 4(%sp)
 703 0644 6000 008A 	jra .L55
 704               	.L52:
 446:/home/simulink/cFS_FreeRTOS_seL4/osal/src/os/rtems/osfilesys.c ****         }
 447:/home/simulink/cFS_FreeRTOS_seL4/osal/src/os/rtems/osfilesys.c ****     }
 448:/home/simulink/cFS_FreeRTOS_seL4/osal/src/os/rtems/osfilesys.c ****     else if (OS_VolumeTable[i].VolumeType == FS_BASED)
68K GAS   			page 23


 705               	.loc 1 448 0
 706 0648 202F 0008 	move.l 8(%sp),%d0
 707 064c 223C 0000 	move.l #204,%d1
 707      00CC 
 708 0652 4C01 0800 	muls.l %d1,%d0
 709 0656 41F9 0000 	lea OS_VolumeTable+96,%a0
 709      0000 
 710 065c 2030 0800 	move.l (%a0,%d0.l),%d0
 711 0660 4A80      	tst.l %d0
 712 0662 6666      	jne .L56
 449:/home/simulink/cFS_FreeRTOS_seL4/osal/src/os/rtems/osfilesys.c ****     {
 450:/home/simulink/cFS_FreeRTOS_seL4/osal/src/os/rtems/osfilesys.c ****        /* now enter the info in the table */
 451:/home/simulink/cFS_FreeRTOS_seL4/osal/src/os/rtems/osfilesys.c ****        OS_VolumeTable[i].FreeFlag = FALSE;
 713               	.loc 1 451 0
 714 0664 202F 0008 	move.l 8(%sp),%d0
 715 0668 223C 0000 	move.l #204,%d1
 715      00CC 
 716 066e 4C01 0800 	muls.l %d1,%d0
 717 0672 41F9 0000 	lea OS_VolumeTable+101,%a0
 717      0000 
 718 0678 4201      	clr.b %d1
 719 067a 1181 0800 	move.b %d1,(%a0,%d0.l)
 452:/home/simulink/cFS_FreeRTOS_seL4/osal/src/os/rtems/osfilesys.c ****        strcpy(OS_VolumeTable[i].VolumeName, volname);
 720               	.loc 1 452 0
 721 067e 202F 0008 	move.l 8(%sp),%d0
 722 0682 223C 0000 	move.l #204,%d1
 722      00CC 
 723 0688 4C01 0800 	muls.l %d1,%d0
 724 068c 0680 0000 	add.l #100,%d0
 724      0064 
 725 0692 0680 0000 	add.l #OS_VolumeTable,%d0
 725      0000 
 726 0698 5680      	addq.l #3,%d0
 727 069a 2F2F 0018 	move.l 24(%sp),-(%sp)
 728               	.cfi_def_cfa_offset 20
 729 069e 2F00      	move.l %d0,-(%sp)
 730               	.cfi_def_cfa_offset 24
 731 06a0 4EB9 0000 	jsr strcpy
 731      0000 
 732 06a6 508F      	addq.l #8,%sp
 733               	.cfi_def_cfa_offset 16
 453:/home/simulink/cFS_FreeRTOS_seL4/osal/src/os/rtems/osfilesys.c ****        OS_VolumeTable[i].BlockSize = blocksize;
 734               	.loc 1 453 0
 735 06a8 202F 0008 	move.l 8(%sp),%d0
 736 06ac 223C 0000 	move.l #204,%d1
 736      00CC 
 737 06b2 4C01 0800 	muls.l %d1,%d0
 738 06b6 41F9 0000 	lea OS_VolumeTable+200,%a0
 738      0000 
 739 06bc 43EF 001C 	lea (28,%sp),%a1
 740 06c0 2191 0800 	move.l (%a1),(%a0,%d0.l)
 454:/home/simulink/cFS_FreeRTOS_seL4/osal/src/os/rtems/osfilesys.c ****     
 455:/home/simulink/cFS_FreeRTOS_seL4/osal/src/os/rtems/osfilesys.c ****        /* note we don't know the mount point yet */
 456:/home/simulink/cFS_FreeRTOS_seL4/osal/src/os/rtems/osfilesys.c ****            
 457:/home/simulink/cFS_FreeRTOS_seL4/osal/src/os/rtems/osfilesys.c ****        ReturnCode = OS_FS_SUCCESS;
 741               	.loc 1 457 0
 742 06c4 42AF 0004 	clr.l 4(%sp)
68K GAS   			page 24


 743 06c8 6006      	jra .L55
 744               	.L56:
 458:/home/simulink/cFS_FreeRTOS_seL4/osal/src/os/rtems/osfilesys.c ****     }   
 459:/home/simulink/cFS_FreeRTOS_seL4/osal/src/os/rtems/osfilesys.c ****     else
 460:/home/simulink/cFS_FreeRTOS_seL4/osal/src/os/rtems/osfilesys.c ****     {
 461:/home/simulink/cFS_FreeRTOS_seL4/osal/src/os/rtems/osfilesys.c ****         /* 
 462:/home/simulink/cFS_FreeRTOS_seL4/osal/src/os/rtems/osfilesys.c ****         ** VolumeType is something else that is not supported right now 
 463:/home/simulink/cFS_FreeRTOS_seL4/osal/src/os/rtems/osfilesys.c ****         */
 464:/home/simulink/cFS_FreeRTOS_seL4/osal/src/os/rtems/osfilesys.c ****         ReturnCode = OS_FS_ERROR;
 745               	.loc 1 464 0
 746 06ca 70FF      	moveq #-1,%d0
 747 06cc 2F40 0004 	move.l %d0,4(%sp)
 748               	.L55:
 465:/home/simulink/cFS_FreeRTOS_seL4/osal/src/os/rtems/osfilesys.c ****     }
 466:/home/simulink/cFS_FreeRTOS_seL4/osal/src/os/rtems/osfilesys.c **** 
 467:/home/simulink/cFS_FreeRTOS_seL4/osal/src/os/rtems/osfilesys.c ****     /*
 468:/home/simulink/cFS_FreeRTOS_seL4/osal/src/os/rtems/osfilesys.c ****     ** Unlock
 469:/home/simulink/cFS_FreeRTOS_seL4/osal/src/os/rtems/osfilesys.c ****     */
 470:/home/simulink/cFS_FreeRTOS_seL4/osal/src/os/rtems/osfilesys.c ****     rtems_sc = rtems_semaphore_release (OS_VolumeTableSem);
 749               	.loc 1 470 0
 750 06d0 2039 0000 	move.l OS_VolumeTableSem,%d0
 750      0000 
 751 06d6 2F00      	move.l %d0,-(%sp)
 752               	.cfi_def_cfa_offset 20
 753 06d8 4EB9 0000 	jsr rtems_semaphore_release
 753      0000 
 754 06de 588F      	addq.l #4,%sp
 755               	.cfi_def_cfa_offset 16
 756 06e0 2E80      	move.l %d0,(%sp)
 471:/home/simulink/cFS_FreeRTOS_seL4/osal/src/os/rtems/osfilesys.c **** 
 472:/home/simulink/cFS_FreeRTOS_seL4/osal/src/os/rtems/osfilesys.c ****     return(ReturnCode);
 757               	.loc 1 472 0
 758 06e2 202F 0004 	move.l 4(%sp),%d0
 759               	.L44:
 473:/home/simulink/cFS_FreeRTOS_seL4/osal/src/os/rtems/osfilesys.c ****  
 474:/home/simulink/cFS_FreeRTOS_seL4/osal/src/os/rtems/osfilesys.c **** }/* end OS_initfs */
 760               	.loc 1 474 0
 761 06e6 4FEF 000C 	lea (12,%sp),%sp
 762 06ea 4E75      	rts
 763               	.cfi_endproc
 764               	.LFE281:
 765               	.sizeOS_initfs, .-OS_initfs
 766               	.section.rodata
 767               	.LC0:
 768 0000 7266 7300 	.string"rfs"
 769               	.text
 770               	.align2
 771               	.globlOS_mount
 772               	.typeOS_mount, @function
 773               	OS_mount:
 774               	.LFB282:
 475:/home/simulink/cFS_FreeRTOS_seL4/osal/src/os/rtems/osfilesys.c **** 
 476:/home/simulink/cFS_FreeRTOS_seL4/osal/src/os/rtems/osfilesys.c **** /*--------------------------------------------------------------------------------------
 477:/home/simulink/cFS_FreeRTOS_seL4/osal/src/os/rtems/osfilesys.c ****     Name: OS_mount
 478:/home/simulink/cFS_FreeRTOS_seL4/osal/src/os/rtems/osfilesys.c ****     
 479:/home/simulink/cFS_FreeRTOS_seL4/osal/src/os/rtems/osfilesys.c ****     Purpose: mounts a drive.
 480:/home/simulink/cFS_FreeRTOS_seL4/osal/src/os/rtems/osfilesys.c **** 
68K GAS   			page 25


 481:/home/simulink/cFS_FreeRTOS_seL4/osal/src/os/rtems/osfilesys.c **** ---------------------------------------------------------------------------------------*/
 482:/home/simulink/cFS_FreeRTOS_seL4/osal/src/os/rtems/osfilesys.c **** 
 483:/home/simulink/cFS_FreeRTOS_seL4/osal/src/os/rtems/osfilesys.c **** int32 OS_mount (const char *devname, char* mountpoint)
 484:/home/simulink/cFS_FreeRTOS_seL4/osal/src/os/rtems/osfilesys.c **** {
 775               	.loc 1 484 0
 776               	.cfi_startproc
 777 06ec 518F      	subq.l #8,%sp
 778               	.cfi_def_cfa_offset 12
 485:/home/simulink/cFS_FreeRTOS_seL4/osal/src/os/rtems/osfilesys.c ****     int               i;
 486:/home/simulink/cFS_FreeRTOS_seL4/osal/src/os/rtems/osfilesys.c ****     rtems_status_code rtems_sc;
 487:/home/simulink/cFS_FreeRTOS_seL4/osal/src/os/rtems/osfilesys.c **** 
 488:/home/simulink/cFS_FreeRTOS_seL4/osal/src/os/rtems/osfilesys.c ****     /* Check parameters */
 489:/home/simulink/cFS_FreeRTOS_seL4/osal/src/os/rtems/osfilesys.c ****     if ( devname == NULL || mountpoint == NULL )
 779               	.loc 1 489 0
 780 06ee 4AAF 000C 	tst.l 12(%sp)
 781 06f2 6706      	jeq .L59
 782               	.loc 1 489 0 is_stmt 0 discriminator 1
 783 06f4 4AAF 0010 	tst.l 16(%sp)
 784 06f8 6606      	jne .L60
 785               	.L59:
 490:/home/simulink/cFS_FreeRTOS_seL4/osal/src/os/rtems/osfilesys.c ****     {
 491:/home/simulink/cFS_FreeRTOS_seL4/osal/src/os/rtems/osfilesys.c ****         return OS_FS_ERR_INVALID_POINTER;
 786               	.loc 1 491 0 is_stmt 1
 787 06fa 70FE      	moveq #-2,%d0
 788 06fc 6000 021A 	jra .L61
 789               	.L60:
 492:/home/simulink/cFS_FreeRTOS_seL4/osal/src/os/rtems/osfilesys.c ****     }
 493:/home/simulink/cFS_FreeRTOS_seL4/osal/src/os/rtems/osfilesys.c **** 
 494:/home/simulink/cFS_FreeRTOS_seL4/osal/src/os/rtems/osfilesys.c ****     if( strlen(devname) >= OS_FS_DEV_NAME_LEN || strlen(mountpoint) >= OS_MAX_PATH_LEN)
 790               	.loc 1 494 0
 791 0700 2F2F 000C 	move.l 12(%sp),-(%sp)
 792               	.cfi_def_cfa_offset 16
 793 0704 4EB9 0000 	jsr strlen
 793      0000 
 794 070a 588F      	addq.l #4,%sp
 795               	.cfi_def_cfa_offset 12
 796 070c 721F      	moveq #31,%d1
 797 070e B280      	cmp.l %d0,%d1
 798 0710 6512      	jcs .L62
 799               	.loc 1 494 0 is_stmt 0 discriminator 1
 800 0712 2F2F 0010 	move.l 16(%sp),-(%sp)
 801               	.cfi_def_cfa_offset 16
 802 0716 4EB9 0000 	jsr strlen
 802      0000 
 803 071c 588F      	addq.l #4,%sp
 804               	.cfi_def_cfa_offset 12
 805 071e 723F      	moveq #63,%d1
 806 0720 B280      	cmp.l %d0,%d1
 807 0722 6406      	jcc .L63
 808               	.L62:
 495:/home/simulink/cFS_FreeRTOS_seL4/osal/src/os/rtems/osfilesys.c ****     {
 496:/home/simulink/cFS_FreeRTOS_seL4/osal/src/os/rtems/osfilesys.c ****         return OS_FS_ERR_PATH_TOO_LONG;
 809               	.loc 1 496 0 is_stmt 1
 810 0724 7099      	moveq #-103,%d0
 811 0726 6000 01F0 	jra .L61
 812               	.L63:
 497:/home/simulink/cFS_FreeRTOS_seL4/osal/src/os/rtems/osfilesys.c ****     }
68K GAS   			page 26


 498:/home/simulink/cFS_FreeRTOS_seL4/osal/src/os/rtems/osfilesys.c **** 
 499:/home/simulink/cFS_FreeRTOS_seL4/osal/src/os/rtems/osfilesys.c ****     /*
 500:/home/simulink/cFS_FreeRTOS_seL4/osal/src/os/rtems/osfilesys.c ****     ** Lock 
 501:/home/simulink/cFS_FreeRTOS_seL4/osal/src/os/rtems/osfilesys.c ****     */
 502:/home/simulink/cFS_FreeRTOS_seL4/osal/src/os/rtems/osfilesys.c ****     rtems_sc = rtems_semaphore_obtain (OS_VolumeTableSem, RTEMS_WAIT, RTEMS_NO_TIMEOUT);
 813               	.loc 1 502 0
 814 072a 2039 0000 	move.l OS_VolumeTableSem,%d0
 814      0000 
 815 0730 42A7      	clr.l -(%sp)
 816               	.cfi_def_cfa_offset 16
 817 0732 42A7      	clr.l -(%sp)
 818               	.cfi_def_cfa_offset 20
 819 0734 2F00      	move.l %d0,-(%sp)
 820               	.cfi_def_cfa_offset 24
 821 0736 4EB9 0000 	jsr rtems_semaphore_obtain
 821      0000 
 822 073c 4FEF 000C 	lea (12,%sp),%sp
 823               	.cfi_def_cfa_offset 12
 824 0740 2E80      	move.l %d0,(%sp)
 503:/home/simulink/cFS_FreeRTOS_seL4/osal/src/os/rtems/osfilesys.c **** 
 504:/home/simulink/cFS_FreeRTOS_seL4/osal/src/os/rtems/osfilesys.c ****     /* find the device in the table */
 505:/home/simulink/cFS_FreeRTOS_seL4/osal/src/os/rtems/osfilesys.c ****     for (i = 0; i < NUM_TABLE_ENTRIES; i++)
 825               	.loc 1 505 0
 826 0742 42AF 0004 	clr.l 4(%sp)
 827 0746 6062      	jra .L64
 828               	.L67:
 506:/home/simulink/cFS_FreeRTOS_seL4/osal/src/os/rtems/osfilesys.c ****     {
 507:/home/simulink/cFS_FreeRTOS_seL4/osal/src/os/rtems/osfilesys.c ****         if ((OS_VolumeTable[i].FreeFlag == FALSE )  &&  
 829               	.loc 1 507 0
 830 0748 202F 0004 	move.l 4(%sp),%d0
 831 074c 223C 0000 	move.l #204,%d1
 831      00CC 
 832 0752 4C01 0800 	muls.l %d1,%d0
 833 0756 41F9 0000 	lea OS_VolumeTable+101,%a0
 833      0000 
 834 075c 1030 0800 	move.b (%a0,%d0.l),%d0
 835 0760 4A00      	tst.b %d0
 836 0762 6642      	jne .L65
 508:/home/simulink/cFS_FreeRTOS_seL4/osal/src/os/rtems/osfilesys.c ****             (OS_VolumeTable[i].IsMounted == FALSE ) &&
 837               	.loc 1 508 0 discriminator 1
 838 0764 202F 0004 	move.l 4(%sp),%d0
 839 0768 223C 0000 	move.l #204,%d1
 839      00CC 
 840 076e 4C01 0800 	muls.l %d1,%d0
 841 0772 41F9 0000 	lea OS_VolumeTable+102,%a0
 841      0000 
 842 0778 1030 0800 	move.b (%a0,%d0.l),%d0
 507:/home/simulink/cFS_FreeRTOS_seL4/osal/src/os/rtems/osfilesys.c ****             (OS_VolumeTable[i].IsMounted == FALSE ) &&
 843               	.loc 1 507 0 discriminator 1
 844 077c 4A00      	tst.b %d0
 845 077e 6626      	jne .L65
 509:/home/simulink/cFS_FreeRTOS_seL4/osal/src/os/rtems/osfilesys.c ****             (strcmp(OS_VolumeTable[i].DeviceName, devname) == 0))
 846               	.loc 1 509 0
 847 0780 202F 0004 	move.l 4(%sp),%d0
 848 0784 223C 0000 	move.l #204,%d1
 848      00CC 
 849 078a 4C01 0800 	muls.l %d1,%d0
68K GAS   			page 27


 850 078e 0680 0000 	add.l #OS_VolumeTable,%d0
 850      0000 
 851 0794 2F2F 000C 	move.l 12(%sp),-(%sp)
 852               	.cfi_def_cfa_offset 16
 853 0798 2F00      	move.l %d0,-(%sp)
 854               	.cfi_def_cfa_offset 20
 855 079a 4EB9 0000 	jsr strcmp
 855      0000 
 856 07a0 508F      	addq.l #8,%sp
 857               	.cfi_def_cfa_offset 12
 508:/home/simulink/cFS_FreeRTOS_seL4/osal/src/os/rtems/osfilesys.c ****             (OS_VolumeTable[i].IsMounted == FALSE ) &&
 858               	.loc 1 508 0
 859 07a2 4A80      	tst.l %d0
 860 07a4 670E      	jeq .L73
 861               	.L65:
 505:/home/simulink/cFS_FreeRTOS_seL4/osal/src/os/rtems/osfilesys.c ****     {
 862               	.loc 1 505 0 discriminator 2
 863 07a6 52AF 0004 	addq.l #1,4(%sp)
 864               	.L64:
 505:/home/simulink/cFS_FreeRTOS_seL4/osal/src/os/rtems/osfilesys.c ****     {
 865               	.loc 1 505 0 is_stmt 0 discriminator 1
 866 07aa 700D      	moveq #13,%d0
 867 07ac B0AF 0004 	cmp.l 4(%sp),%d0
 868 07b0 6C96      	jge .L67
 869 07b2 6002      	jra .L66
 870               	.L73:
 510:/home/simulink/cFS_FreeRTOS_seL4/osal/src/os/rtems/osfilesys.c ****         {
 511:/home/simulink/cFS_FreeRTOS_seL4/osal/src/os/rtems/osfilesys.c ****             break;
 871               	.loc 1 511 0 is_stmt 1
 872 07b4 4E71      	nop
 873               	.L66:
 512:/home/simulink/cFS_FreeRTOS_seL4/osal/src/os/rtems/osfilesys.c ****         }
 513:/home/simulink/cFS_FreeRTOS_seL4/osal/src/os/rtems/osfilesys.c ****     }
 514:/home/simulink/cFS_FreeRTOS_seL4/osal/src/os/rtems/osfilesys.c **** 
 515:/home/simulink/cFS_FreeRTOS_seL4/osal/src/os/rtems/osfilesys.c ****     /* Return an error if an un-mounted device was not found */
 516:/home/simulink/cFS_FreeRTOS_seL4/osal/src/os/rtems/osfilesys.c ****     if (i >= NUM_TABLE_ENTRIES)
 874               	.loc 1 516 0
 875 07b6 720D      	moveq #13,%d1
 876 07b8 B2AF 0004 	cmp.l 4(%sp),%d1
 877 07bc 6C18      	jge .L68
 517:/home/simulink/cFS_FreeRTOS_seL4/osal/src/os/rtems/osfilesys.c ****     {
 518:/home/simulink/cFS_FreeRTOS_seL4/osal/src/os/rtems/osfilesys.c ****        rtems_sc = rtems_semaphore_release (OS_VolumeTableSem);
 878               	.loc 1 518 0
 879 07be 2039 0000 	move.l OS_VolumeTableSem,%d0
 879      0000 
 880 07c4 2F00      	move.l %d0,-(%sp)
 881               	.cfi_def_cfa_offset 16
 882 07c6 4EB9 0000 	jsr rtems_semaphore_release
 882      0000 
 883 07cc 588F      	addq.l #4,%sp
 884               	.cfi_def_cfa_offset 12
 885 07ce 2E80      	move.l %d0,(%sp)
 519:/home/simulink/cFS_FreeRTOS_seL4/osal/src/os/rtems/osfilesys.c ****        return OS_FS_ERROR;
 886               	.loc 1 519 0
 887 07d0 70FF      	moveq #-1,%d0
 888 07d2 6000 0144 	jra .L61
 889               	.L68:
68K GAS   			page 28


 520:/home/simulink/cFS_FreeRTOS_seL4/osal/src/os/rtems/osfilesys.c ****     }
 521:/home/simulink/cFS_FreeRTOS_seL4/osal/src/os/rtems/osfilesys.c **** 
 522:/home/simulink/cFS_FreeRTOS_seL4/osal/src/os/rtems/osfilesys.c ****     if (OS_VolumeTable[i].VolumeType == RAM_DISK)
 890               	.loc 1 522 0
 891 07d6 202F 0004 	move.l 4(%sp),%d0
 892 07da 223C 0000 	move.l #204,%d1
 892      00CC 
 893 07e0 4C01 0800 	muls.l %d1,%d0
 894 07e4 41F9 0000 	lea OS_VolumeTable+96,%a0
 894      0000 
 895 07ea 2030 0800 	move.l (%a0,%d0.l),%d0
 896 07ee 7201      	moveq #1,%d1
 897 07f0 B280      	cmp.l %d0,%d1
 898 07f2 6600 0098 	jne .L69
 523:/home/simulink/cFS_FreeRTOS_seL4/osal/src/os/rtems/osfilesys.c ****     {
 524:/home/simulink/cFS_FreeRTOS_seL4/osal/src/os/rtems/osfilesys.c ****        /*
 525:/home/simulink/cFS_FreeRTOS_seL4/osal/src/os/rtems/osfilesys.c ****        ** Mount the RFS Disk
 526:/home/simulink/cFS_FreeRTOS_seL4/osal/src/os/rtems/osfilesys.c ****        ** Note: This code only works with RTEMS 4.10 and up. The mount API has changed with
 527:/home/simulink/cFS_FreeRTOS_seL4/osal/src/os/rtems/osfilesys.c ****        **       RTEMS 4.10
 528:/home/simulink/cFS_FreeRTOS_seL4/osal/src/os/rtems/osfilesys.c ****        */
 529:/home/simulink/cFS_FreeRTOS_seL4/osal/src/os/rtems/osfilesys.c ****        if ( mount(OS_VolumeTable[i].PhysDevName, mountpoint, RTEMS_FILESYSTEM_TYPE_RFS, 0, NULL) !=
 899               	.loc 1 529 0
 900 07f6 202F 0004 	move.l 4(%sp),%d0
 901 07fa 223C 0000 	move.l #204,%d1
 901      00CC 
 902 0800 4C01 0800 	muls.l %d1,%d0
 903 0804 0680 0000 	add.l #32,%d0
 903      0020 
 904 080a 0680 0000 	add.l #OS_VolumeTable,%d0
 904      0000 
 905 0810 42A7      	clr.l -(%sp)
 906               	.cfi_def_cfa_offset 16
 907 0812 42A7      	clr.l -(%sp)
 908               	.cfi_def_cfa_offset 20
 909 0814 4879 0000 	pea .LC0
 909      0000 
 910               	.cfi_def_cfa_offset 24
 911 081a 2F2F 001C 	move.l 28(%sp),-(%sp)
 912               	.cfi_def_cfa_offset 28
 913 081e 2F00      	move.l %d0,-(%sp)
 914               	.cfi_def_cfa_offset 32
 915 0820 4EB9 0000 	jsr mount
 915      0000 
 916 0826 4FEF 0014 	lea (20,%sp),%sp
 917               	.cfi_def_cfa_offset 12
 918 082a 4A80      	tst.l %d0
 919 082c 6718      	jeq .L70
 530:/home/simulink/cFS_FreeRTOS_seL4/osal/src/os/rtems/osfilesys.c ****        {
 531:/home/simulink/cFS_FreeRTOS_seL4/osal/src/os/rtems/osfilesys.c ****            #ifdef OS_DEBUG_PRINTF
 532:/home/simulink/cFS_FreeRTOS_seL4/osal/src/os/rtems/osfilesys.c ****               printf("OSAL: Error: mount of %s to %s failed: %s\n",
 533:/home/simulink/cFS_FreeRTOS_seL4/osal/src/os/rtems/osfilesys.c ****                           OS_VolumeTable[i].PhysDevName,
 534:/home/simulink/cFS_FreeRTOS_seL4/osal/src/os/rtems/osfilesys.c ****                           mountpoint, strerror(errno));
 535:/home/simulink/cFS_FreeRTOS_seL4/osal/src/os/rtems/osfilesys.c ****            #endif
 536:/home/simulink/cFS_FreeRTOS_seL4/osal/src/os/rtems/osfilesys.c ****            rtems_sc = rtems_semaphore_release (OS_VolumeTableSem);
 920               	.loc 1 536 0
 921 082e 2039 0000 	move.l OS_VolumeTableSem,%d0
 921      0000 
68K GAS   			page 29


 922 0834 2F00      	move.l %d0,-(%sp)
 923               	.cfi_def_cfa_offset 16
 924 0836 4EB9 0000 	jsr rtems_semaphore_release
 924      0000 
 925 083c 588F      	addq.l #4,%sp
 926               	.cfi_def_cfa_offset 12
 927 083e 2E80      	move.l %d0,(%sp)
 537:/home/simulink/cFS_FreeRTOS_seL4/osal/src/os/rtems/osfilesys.c ****            return OS_FS_ERROR;
 928               	.loc 1 537 0
 929 0840 70FF      	moveq #-1,%d0
 930 0842 6000 00D4 	jra .L61
 931               	.L70:
 538:/home/simulink/cFS_FreeRTOS_seL4/osal/src/os/rtems/osfilesys.c ****        }
 539:/home/simulink/cFS_FreeRTOS_seL4/osal/src/os/rtems/osfilesys.c **** 
 540:/home/simulink/cFS_FreeRTOS_seL4/osal/src/os/rtems/osfilesys.c ****        /* attach the mountpoint */
 541:/home/simulink/cFS_FreeRTOS_seL4/osal/src/os/rtems/osfilesys.c ****        strcpy(OS_VolumeTable[i].MountPoint, mountpoint);
 932               	.loc 1 541 0
 933 0846 202F 0004 	move.l 4(%sp),%d0
 934 084a 223C 0000 	move.l #204,%d1
 934      00CC 
 935 0850 4C01 0800 	muls.l %d1,%d0
 936 0854 0680 0000 	add.l #132,%d0
 936      0084 
 937 085a 0680 0000 	add.l #OS_VolumeTable,%d0
 937      0000 
 938 0860 5680      	addq.l #3,%d0
 939 0862 2F2F 0010 	move.l 16(%sp),-(%sp)
 940               	.cfi_def_cfa_offset 16
 941 0866 2F00      	move.l %d0,-(%sp)
 942               	.cfi_def_cfa_offset 20
 943 0868 4EB9 0000 	jsr strcpy
 943      0000 
 944 086e 508F      	addq.l #8,%sp
 945               	.cfi_def_cfa_offset 12
 542:/home/simulink/cFS_FreeRTOS_seL4/osal/src/os/rtems/osfilesys.c ****        OS_VolumeTable[i].IsMounted = TRUE;
 946               	.loc 1 542 0
 947 0870 202F 0004 	move.l 4(%sp),%d0
 948 0874 223C 0000 	move.l #204,%d1
 948      00CC 
 949 087a 4C01 0800 	muls.l %d1,%d0
 950 087e 41F9 0000 	lea OS_VolumeTable+102,%a0
 950      0000 
 951 0884 7201      	moveq #1,%d1
 952 0886 1181 0800 	move.b %d1,(%a0,%d0.l)
 953 088a 6078      	jra .L71
 954               	.L69:
 543:/home/simulink/cFS_FreeRTOS_seL4/osal/src/os/rtems/osfilesys.c ****    }
 544:/home/simulink/cFS_FreeRTOS_seL4/osal/src/os/rtems/osfilesys.c ****    else if ( OS_VolumeTable[i].VolumeType == FS_BASED )
 955               	.loc 1 544 0
 956 088c 202F 0004 	move.l 4(%sp),%d0
 957 0890 223C 0000 	move.l #204,%d1
 957      00CC 
 958 0896 4C01 0800 	muls.l %d1,%d0
 959 089a 41F9 0000 	lea OS_VolumeTable+96,%a0
 959      0000 
 960 08a0 2030 0800 	move.l (%a0,%d0.l),%d0
 961 08a4 4A80      	tst.l %d0
68K GAS   			page 30


 962 08a6 6646      	jne .L72
 545:/home/simulink/cFS_FreeRTOS_seL4/osal/src/os/rtems/osfilesys.c ****    {
 546:/home/simulink/cFS_FreeRTOS_seL4/osal/src/os/rtems/osfilesys.c ****        /* attach the mountpoint */
 547:/home/simulink/cFS_FreeRTOS_seL4/osal/src/os/rtems/osfilesys.c ****        strcpy(OS_VolumeTable[i].MountPoint, mountpoint);
 963               	.loc 1 547 0
 964 08a8 202F 0004 	move.l 4(%sp),%d0
 965 08ac 223C 0000 	move.l #204,%d1
 965      00CC 
 966 08b2 4C01 0800 	muls.l %d1,%d0
 967 08b6 0680 0000 	add.l #132,%d0
 967      0084 
 968 08bc 0680 0000 	add.l #OS_VolumeTable,%d0
 968      0000 
 969 08c2 5680      	addq.l #3,%d0
 970 08c4 2F2F 0010 	move.l 16(%sp),-(%sp)
 971               	.cfi_def_cfa_offset 16
 972 08c8 2F00      	move.l %d0,-(%sp)
 973               	.cfi_def_cfa_offset 20
 974 08ca 4EB9 0000 	jsr strcpy
 974      0000 
 975 08d0 508F      	addq.l #8,%sp
 976               	.cfi_def_cfa_offset 12
 548:/home/simulink/cFS_FreeRTOS_seL4/osal/src/os/rtems/osfilesys.c ****        OS_VolumeTable[i].IsMounted = TRUE;
 977               	.loc 1 548 0
 978 08d2 202F 0004 	move.l 4(%sp),%d0
 979 08d6 223C 0000 	move.l #204,%d1
 979      00CC 
 980 08dc 4C01 0800 	muls.l %d1,%d0
 981 08e0 41F9 0000 	lea OS_VolumeTable+102,%a0
 981      0000 
 982 08e6 7201      	moveq #1,%d1
 983 08e8 1181 0800 	move.b %d1,(%a0,%d0.l)
 984 08ec 6016      	jra .L71
 985               	.L72:
 549:/home/simulink/cFS_FreeRTOS_seL4/osal/src/os/rtems/osfilesys.c ****    }
 550:/home/simulink/cFS_FreeRTOS_seL4/osal/src/os/rtems/osfilesys.c ****    else
 551:/home/simulink/cFS_FreeRTOS_seL4/osal/src/os/rtems/osfilesys.c ****    {
 552:/home/simulink/cFS_FreeRTOS_seL4/osal/src/os/rtems/osfilesys.c ****        /* 
 553:/home/simulink/cFS_FreeRTOS_seL4/osal/src/os/rtems/osfilesys.c ****        ** VolumeType is not supported right now 
 554:/home/simulink/cFS_FreeRTOS_seL4/osal/src/os/rtems/osfilesys.c ****        */
 555:/home/simulink/cFS_FreeRTOS_seL4/osal/src/os/rtems/osfilesys.c ****        rtems_sc = rtems_semaphore_release (OS_VolumeTableSem);
 986               	.loc 1 555 0
 987 08ee 2039 0000 	move.l OS_VolumeTableSem,%d0
 987      0000 
 988 08f4 2F00      	move.l %d0,-(%sp)
 989               	.cfi_def_cfa_offset 16
 990 08f6 4EB9 0000 	jsr rtems_semaphore_release
 990      0000 
 991 08fc 588F      	addq.l #4,%sp
 992               	.cfi_def_cfa_offset 12
 993 08fe 2E80      	move.l %d0,(%sp)
 556:/home/simulink/cFS_FreeRTOS_seL4/osal/src/os/rtems/osfilesys.c ****        return OS_FS_ERROR;
 994               	.loc 1 556 0
 995 0900 70FF      	moveq #-1,%d0
 996 0902 6014      	jra .L61
 997               	.L71:
 557:/home/simulink/cFS_FreeRTOS_seL4/osal/src/os/rtems/osfilesys.c ****    }
68K GAS   			page 31


 558:/home/simulink/cFS_FreeRTOS_seL4/osal/src/os/rtems/osfilesys.c **** 
 559:/home/simulink/cFS_FreeRTOS_seL4/osal/src/os/rtems/osfilesys.c ****    /*
 560:/home/simulink/cFS_FreeRTOS_seL4/osal/src/os/rtems/osfilesys.c ****    ** Unlock
 561:/home/simulink/cFS_FreeRTOS_seL4/osal/src/os/rtems/osfilesys.c ****    */
 562:/home/simulink/cFS_FreeRTOS_seL4/osal/src/os/rtems/osfilesys.c ****    rtems_sc = rtems_semaphore_release (OS_VolumeTableSem);
 998               	.loc 1 562 0
 999 0904 2039 0000 	move.l OS_VolumeTableSem,%d0
 999      0000 
 1000 090a 2F00      	move.l %d0,-(%sp)
 1001               	.cfi_def_cfa_offset 16
 1002 090c 4EB9 0000 	jsr rtems_semaphore_release
 1002      0000 
 1003 0912 588F      	addq.l #4,%sp
 1004               	.cfi_def_cfa_offset 12
 1005 0914 2E80      	move.l %d0,(%sp)
 563:/home/simulink/cFS_FreeRTOS_seL4/osal/src/os/rtems/osfilesys.c **** 
 564:/home/simulink/cFS_FreeRTOS_seL4/osal/src/os/rtems/osfilesys.c ****    return OS_FS_SUCCESS;
 1006               	.loc 1 564 0
 1007 0916 4280      	clr.l %d0
 1008               	.L61:
 565:/home/simulink/cFS_FreeRTOS_seL4/osal/src/os/rtems/osfilesys.c ****     
 566:/home/simulink/cFS_FreeRTOS_seL4/osal/src/os/rtems/osfilesys.c **** }/* end OS_mount */
 1009               	.loc 1 566 0
 1010 0918 508F      	addq.l #8,%sp
 1011 091a 4E75      	rts
 1012               	.cfi_endproc
 1013               	.LFE282:
 1014               	.sizeOS_mount, .-OS_mount
 1015               	.align2
 1016               	.globlOS_unmount
 1017               	.typeOS_unmount, @function
 1018               	OS_unmount:
 1019               	.LFB283:
 567:/home/simulink/cFS_FreeRTOS_seL4/osal/src/os/rtems/osfilesys.c **** /*--------------------------------------------------------------------------------------
 568:/home/simulink/cFS_FreeRTOS_seL4/osal/src/os/rtems/osfilesys.c ****     Name: OS_unmount
 569:/home/simulink/cFS_FreeRTOS_seL4/osal/src/os/rtems/osfilesys.c ****     
 570:/home/simulink/cFS_FreeRTOS_seL4/osal/src/os/rtems/osfilesys.c ****     Purpose: unmounts a drive. and therefore makes all file descriptors pointing into
 571:/home/simulink/cFS_FreeRTOS_seL4/osal/src/os/rtems/osfilesys.c ****              the drive obsolete.
 572:/home/simulink/cFS_FreeRTOS_seL4/osal/src/os/rtems/osfilesys.c **** 
 573:/home/simulink/cFS_FreeRTOS_seL4/osal/src/os/rtems/osfilesys.c ****     Returns: OS_FS_ERR_INVALID_POINTER if name is NULL
 574:/home/simulink/cFS_FreeRTOS_seL4/osal/src/os/rtems/osfilesys.c ****              OS_FS_ERR_PATH_TOO_LONG if the absolute path given is too long
 575:/home/simulink/cFS_FreeRTOS_seL4/osal/src/os/rtems/osfilesys.c ****              OS_FS_ERROR if the OS calls failed
 576:/home/simulink/cFS_FreeRTOS_seL4/osal/src/os/rtems/osfilesys.c ****              OS_FS_SUCCESS if success
 577:/home/simulink/cFS_FreeRTOS_seL4/osal/src/os/rtems/osfilesys.c **** ---------------------------------------------------------------------------------------*/
 578:/home/simulink/cFS_FreeRTOS_seL4/osal/src/os/rtems/osfilesys.c **** int32 OS_unmount (const char *mountpoint)
 579:/home/simulink/cFS_FreeRTOS_seL4/osal/src/os/rtems/osfilesys.c **** {
 1020               	.loc 1 579 0
 1021               	.cfi_startproc
 1022 091c 4FEF FF74 	lea (-140,%sp),%sp
 1023               	.cfi_def_cfa_offset 144
 580:/home/simulink/cFS_FreeRTOS_seL4/osal/src/os/rtems/osfilesys.c ****    char              local_path [OS_MAX_LOCAL_PATH_LEN];
 581:/home/simulink/cFS_FreeRTOS_seL4/osal/src/os/rtems/osfilesys.c ****    int32             status;
 582:/home/simulink/cFS_FreeRTOS_seL4/osal/src/os/rtems/osfilesys.c ****    rtems_status_code rtems_sc;
 583:/home/simulink/cFS_FreeRTOS_seL4/osal/src/os/rtems/osfilesys.c ****    int               i;
 584:/home/simulink/cFS_FreeRTOS_seL4/osal/src/os/rtems/osfilesys.c ****     
 585:/home/simulink/cFS_FreeRTOS_seL4/osal/src/os/rtems/osfilesys.c ****    if (mountpoint == NULL)
 1024               	.loc 1 585 0
68K GAS   			page 32


 1025 0920 4AAF 0090 	tst.l 144(%sp)
 1026 0924 6606      	jne .L75
 586:/home/simulink/cFS_FreeRTOS_seL4/osal/src/os/rtems/osfilesys.c ****    {
 587:/home/simulink/cFS_FreeRTOS_seL4/osal/src/os/rtems/osfilesys.c ****        return OS_FS_ERR_INVALID_POINTER;
 1027               	.loc 1 587 0
 1028 0926 70FE      	moveq #-2,%d0
 1029 0928 6000 01FA 	jra .L87
 1030               	.L75:
 588:/home/simulink/cFS_FreeRTOS_seL4/osal/src/os/rtems/osfilesys.c ****    }
 589:/home/simulink/cFS_FreeRTOS_seL4/osal/src/os/rtems/osfilesys.c **** 
 590:/home/simulink/cFS_FreeRTOS_seL4/osal/src/os/rtems/osfilesys.c ****    if (strlen(mountpoint) >= OS_MAX_PATH_LEN)
 1031               	.loc 1 590 0
 1032 092c 2F2F 0090 	move.l 144(%sp),-(%sp)
 1033               	.cfi_def_cfa_offset 148
 1034 0930 4EB9 0000 	jsr strlen
 1034      0000 
 1035 0936 588F      	addq.l #4,%sp
 1036               	.cfi_def_cfa_offset 144
 1037 0938 723F      	moveq #63,%d1
 1038 093a B280      	cmp.l %d0,%d1
 1039 093c 6406      	jcc .L77
 591:/home/simulink/cFS_FreeRTOS_seL4/osal/src/os/rtems/osfilesys.c ****    {
 592:/home/simulink/cFS_FreeRTOS_seL4/osal/src/os/rtems/osfilesys.c ****        return OS_FS_ERR_PATH_TOO_LONG;
 1040               	.loc 1 592 0
 1041 093e 7099      	moveq #-103,%d0
 1042 0940 6000 01E2 	jra .L87
 1043               	.L77:
 593:/home/simulink/cFS_FreeRTOS_seL4/osal/src/os/rtems/osfilesys.c ****    }
 594:/home/simulink/cFS_FreeRTOS_seL4/osal/src/os/rtems/osfilesys.c **** 
 595:/home/simulink/cFS_FreeRTOS_seL4/osal/src/os/rtems/osfilesys.c ****    status = OS_TranslatePath(mountpoint, (char *)local_path);
 1044               	.loc 1 595 0
 1045 0944 200F      	move.l %sp,%d0
 1046 0946 2F00      	move.l %d0,-(%sp)
 1047               	.cfi_def_cfa_offset 148
 1048 0948 2F2F 0094 	move.l 148(%sp),-(%sp)
 1049               	.cfi_def_cfa_offset 152
 1050 094c 4EB9 0000 	jsr OS_TranslatePath
 1050      0000 
 1051 0952 508F      	addq.l #8,%sp
 1052               	.cfi_def_cfa_offset 144
 1053 0954 2F40 0084 	move.l %d0,132(%sp)
 596:/home/simulink/cFS_FreeRTOS_seL4/osal/src/os/rtems/osfilesys.c ****     
 597:/home/simulink/cFS_FreeRTOS_seL4/osal/src/os/rtems/osfilesys.c ****    /*
 598:/home/simulink/cFS_FreeRTOS_seL4/osal/src/os/rtems/osfilesys.c ****    ** Lock 
 599:/home/simulink/cFS_FreeRTOS_seL4/osal/src/os/rtems/osfilesys.c ****    */
 600:/home/simulink/cFS_FreeRTOS_seL4/osal/src/os/rtems/osfilesys.c ****    rtems_sc = rtems_semaphore_obtain (OS_VolumeTableSem, RTEMS_WAIT, RTEMS_NO_TIMEOUT);
 1054               	.loc 1 600 0
 1055 0958 2039 0000 	move.l OS_VolumeTableSem,%d0
 1055      0000 
 1056 095e 42A7      	clr.l -(%sp)
 1057               	.cfi_def_cfa_offset 148
 1058 0960 42A7      	clr.l -(%sp)
 1059               	.cfi_def_cfa_offset 152
 1060 0962 2F00      	move.l %d0,-(%sp)
 1061               	.cfi_def_cfa_offset 156
 1062 0964 4EB9 0000 	jsr rtems_semaphore_obtain
 1062      0000 
68K GAS   			page 33


 1063 096a 4FEF 000C 	lea (12,%sp),%sp
 1064               	.cfi_def_cfa_offset 144
 1065 096e 2F40 0080 	move.l %d0,128(%sp)
 601:/home/simulink/cFS_FreeRTOS_seL4/osal/src/os/rtems/osfilesys.c **** 
 602:/home/simulink/cFS_FreeRTOS_seL4/osal/src/os/rtems/osfilesys.c ****    for (i = 0; i < NUM_TABLE_ENTRIES; i++)
 1066               	.loc 1 602 0
 1067 0972 42AF 0088 	clr.l 136(%sp)
 1068 0976 6074      	jra .L78
 1069               	.L81:
 603:/home/simulink/cFS_FreeRTOS_seL4/osal/src/os/rtems/osfilesys.c ****    {
 604:/home/simulink/cFS_FreeRTOS_seL4/osal/src/os/rtems/osfilesys.c ****        if (OS_VolumeTable[i].FreeFlag == FALSE && OS_VolumeTable[i].IsMounted == TRUE
 1070               	.loc 1 604 0
 1071 0978 202F 0088 	move.l 136(%sp),%d0
 1072 097c 223C 0000 	move.l #204,%d1
 1072      00CC 
 1073 0982 4C01 0800 	muls.l %d1,%d0
 1074 0986 41F9 0000 	lea OS_VolumeTable+101,%a0
 1074      0000 
 1075 098c 1030 0800 	move.b (%a0,%d0.l),%d0
 1076 0990 4A00      	tst.b %d0
 1077 0992 6654      	jne .L79
 1078               	.loc 1 604 0 is_stmt 0 discriminator 1
 1079 0994 202F 0088 	move.l 136(%sp),%d0
 1080 0998 223C 0000 	move.l #204,%d1
 1080      00CC 
 1081 099e 4C01 0800 	muls.l %d1,%d0
 1082 09a2 41F9 0000 	lea OS_VolumeTable+102,%a0
 1082      0000 
 1083 09a8 1030 0800 	move.b (%a0,%d0.l),%d0
 1084 09ac 1000      	move.b %d0,%d0
 1085 09ae 0280 0000 	and.l #255,%d0
 1085      00FF 
 1086 09b4 7201      	moveq #1,%d1
 1087 09b6 B280      	cmp.l %d0,%d1
 1088 09b8 662E      	jne .L79
 605:/home/simulink/cFS_FreeRTOS_seL4/osal/src/os/rtems/osfilesys.c ****             && strcmp(OS_VolumeTable[i].MountPoint, mountpoint) == 0)
 1089               	.loc 1 605 0 is_stmt 1
 1090 09ba 202F 0088 	move.l 136(%sp),%d0
 1091 09be 223C 0000 	move.l #204,%d1
 1091      00CC 
 1092 09c4 4C01 0800 	muls.l %d1,%d0
 1093 09c8 0680 0000 	add.l #132,%d0
 1093      0084 
 1094 09ce 0680 0000 	add.l #OS_VolumeTable,%d0
 1094      0000 
 1095 09d4 5680      	addq.l #3,%d0
 1096 09d6 2F2F 0090 	move.l 144(%sp),-(%sp)
 1097               	.cfi_def_cfa_offset 148
 1098 09da 2F00      	move.l %d0,-(%sp)
 1099               	.cfi_def_cfa_offset 152
 1100 09dc 4EB9 0000 	jsr strcmp
 1100      0000 
 1101 09e2 508F      	addq.l #8,%sp
 1102               	.cfi_def_cfa_offset 144
 1103 09e4 4A80      	tst.l %d0
 1104 09e6 670E      	jeq .L88
 1105               	.L79:
68K GAS   			page 34


 602:/home/simulink/cFS_FreeRTOS_seL4/osal/src/os/rtems/osfilesys.c ****    {
 1106               	.loc 1 602 0 discriminator 2
 1107 09e8 52AF 0088 	addq.l #1,136(%sp)
 1108               	.L78:
 602:/home/simulink/cFS_FreeRTOS_seL4/osal/src/os/rtems/osfilesys.c ****    {
 1109               	.loc 1 602 0 is_stmt 0 discriminator 1
 1110 09ec 700D      	moveq #13,%d0
 1111 09ee B0AF 0088 	cmp.l 136(%sp),%d0
 1112 09f2 6C84      	jge .L81
 1113 09f4 6002      	jra .L80
 1114               	.L88:
 606:/home/simulink/cFS_FreeRTOS_seL4/osal/src/os/rtems/osfilesys.c ****            break;
 1115               	.loc 1 606 0 is_stmt 1
 1116 09f6 4E71      	nop
 1117               	.L80:
 607:/home/simulink/cFS_FreeRTOS_seL4/osal/src/os/rtems/osfilesys.c ****    }
 608:/home/simulink/cFS_FreeRTOS_seL4/osal/src/os/rtems/osfilesys.c **** 
 609:/home/simulink/cFS_FreeRTOS_seL4/osal/src/os/rtems/osfilesys.c ****    /* make sure we found the device */
 610:/home/simulink/cFS_FreeRTOS_seL4/osal/src/os/rtems/osfilesys.c ****    if (i >= NUM_TABLE_ENTRIES)
 1118               	.loc 1 610 0
 1119 09f8 720D      	moveq #13,%d1
 1120 09fa B2AF 0088 	cmp.l 136(%sp),%d1
 1121 09fe 6C1A      	jge .L82
 611:/home/simulink/cFS_FreeRTOS_seL4/osal/src/os/rtems/osfilesys.c ****    {
 612:/home/simulink/cFS_FreeRTOS_seL4/osal/src/os/rtems/osfilesys.c ****        #ifdef OS_DEBUG_PRINTF
 613:/home/simulink/cFS_FreeRTOS_seL4/osal/src/os/rtems/osfilesys.c ****           printf("OSAL: Error: unmount of %s failed: invalid volume table entry.\n",
 614:/home/simulink/cFS_FreeRTOS_seL4/osal/src/os/rtems/osfilesys.c ****                      local_path);
 615:/home/simulink/cFS_FreeRTOS_seL4/osal/src/os/rtems/osfilesys.c ****        #endif
 616:/home/simulink/cFS_FreeRTOS_seL4/osal/src/os/rtems/osfilesys.c ****        rtems_sc = rtems_semaphore_release (OS_VolumeTableSem);
 1122               	.loc 1 616 0
 1123 0a00 2039 0000 	move.l OS_VolumeTableSem,%d0
 1123      0000 
 1124 0a06 2F00      	move.l %d0,-(%sp)
 1125               	.cfi_def_cfa_offset 148
 1126 0a08 4EB9 0000 	jsr rtems_semaphore_release
 1126      0000 
 1127 0a0e 588F      	addq.l #4,%sp
 1128               	.cfi_def_cfa_offset 144
 1129 0a10 2F40 0080 	move.l %d0,128(%sp)
 617:/home/simulink/cFS_FreeRTOS_seL4/osal/src/os/rtems/osfilesys.c ****        return OS_FS_ERROR;
 1130               	.loc 1 617 0
 1131 0a14 70FF      	moveq #-1,%d0
 1132 0a16 6000 010C 	jra .L87
 1133               	.L82:
 618:/home/simulink/cFS_FreeRTOS_seL4/osal/src/os/rtems/osfilesys.c ****    }
 619:/home/simulink/cFS_FreeRTOS_seL4/osal/src/os/rtems/osfilesys.c **** 
 620:/home/simulink/cFS_FreeRTOS_seL4/osal/src/os/rtems/osfilesys.c ****    if (OS_VolumeTable[i].VolumeType == RAM_DISK)
 1134               	.loc 1 620 0
 1135 0a1a 202F 0088 	move.l 136(%sp),%d0
 1136 0a1e 223C 0000 	move.l #204,%d1
 1136      00CC 
 1137 0a24 4C01 0800 	muls.l %d1,%d0
 1138 0a28 41F9 0000 	lea OS_VolumeTable+96,%a0
 1138      0000 
 1139 0a2e 2030 0800 	move.l (%a0,%d0.l),%d0
 1140 0a32 7201      	moveq #1,%d1
 1141 0a34 B280      	cmp.l %d0,%d1
68K GAS   			page 35


 1142 0a36 6666      	jne .L83
 621:/home/simulink/cFS_FreeRTOS_seL4/osal/src/os/rtems/osfilesys.c ****    {
 622:/home/simulink/cFS_FreeRTOS_seL4/osal/src/os/rtems/osfilesys.c ****       /*
 623:/home/simulink/cFS_FreeRTOS_seL4/osal/src/os/rtems/osfilesys.c ****       ** Try to unmount the disk
 624:/home/simulink/cFS_FreeRTOS_seL4/osal/src/os/rtems/osfilesys.c ****       */
 625:/home/simulink/cFS_FreeRTOS_seL4/osal/src/os/rtems/osfilesys.c ****       if ( unmount(local_path) < 0) 
 1143               	.loc 1 625 0
 1144 0a38 200F      	move.l %sp,%d0
 1145 0a3a 2F00      	move.l %d0,-(%sp)
 1146               	.cfi_def_cfa_offset 148
 1147 0a3c 4EB9 0000 	jsr unmount
 1147      0000 
 1148 0a42 588F      	addq.l #4,%sp
 1149               	.cfi_def_cfa_offset 144
 1150 0a44 4A80      	tst.l %d0
 1151 0a46 6C1A      	jge .L84
 626:/home/simulink/cFS_FreeRTOS_seL4/osal/src/os/rtems/osfilesys.c ****       {
 627:/home/simulink/cFS_FreeRTOS_seL4/osal/src/os/rtems/osfilesys.c ****          #ifdef OS_DEBUG_PRINTF
 628:/home/simulink/cFS_FreeRTOS_seL4/osal/src/os/rtems/osfilesys.c ****             printf("OSAL: RTEMS unmount of %s failed :%s\n",local_path, strerror(errno));
 629:/home/simulink/cFS_FreeRTOS_seL4/osal/src/os/rtems/osfilesys.c ****          #endif
 630:/home/simulink/cFS_FreeRTOS_seL4/osal/src/os/rtems/osfilesys.c ****          rtems_sc = rtems_semaphore_release (OS_VolumeTableSem);
 1152               	.loc 1 630 0
 1153 0a48 2039 0000 	move.l OS_VolumeTableSem,%d0
 1153      0000 
 1154 0a4e 2F00      	move.l %d0,-(%sp)
 1155               	.cfi_def_cfa_offset 148
 1156 0a50 4EB9 0000 	jsr rtems_semaphore_release
 1156      0000 
 1157 0a56 588F      	addq.l #4,%sp
 1158               	.cfi_def_cfa_offset 144
 1159 0a58 2F40 0080 	move.l %d0,128(%sp)
 631:/home/simulink/cFS_FreeRTOS_seL4/osal/src/os/rtems/osfilesys.c ****          return OS_FS_ERROR;
 1160               	.loc 1 631 0
 1161 0a5c 70FF      	moveq #-1,%d0
 1162 0a5e 6000 00C4 	jra .L87
 1163               	.L84:
 632:/home/simulink/cFS_FreeRTOS_seL4/osal/src/os/rtems/osfilesys.c ****       } 
 633:/home/simulink/cFS_FreeRTOS_seL4/osal/src/os/rtems/osfilesys.c **** 
 634:/home/simulink/cFS_FreeRTOS_seL4/osal/src/os/rtems/osfilesys.c ****       /* release the information from the table */
 635:/home/simulink/cFS_FreeRTOS_seL4/osal/src/os/rtems/osfilesys.c ****       OS_VolumeTable[i].IsMounted = FALSE;
 1164               	.loc 1 635 0
 1165 0a62 202F 0088 	move.l 136(%sp),%d0
 1166 0a66 223C 0000 	move.l #204,%d1
 1166      00CC 
 1167 0a6c 4C01 0800 	muls.l %d1,%d0
 1168 0a70 41F9 0000 	lea OS_VolumeTable+102,%a0
 1168      0000 
 1169 0a76 4201      	clr.b %d1
 1170 0a78 1181 0800 	move.b %d1,(%a0,%d0.l)
 636:/home/simulink/cFS_FreeRTOS_seL4/osal/src/os/rtems/osfilesys.c ****       strcpy(OS_VolumeTable[i].MountPoint, "");
 1171               	.loc 1 636 0
 1172 0a7c 202F 0088 	move.l 136(%sp),%d0
 1173 0a80 223C 0000 	move.l #204,%d1
 1173      00CC 
 1174 0a86 4C01 0800 	muls.l %d1,%d0
 1175 0a8a 0680 0000 	add.l #132,%d0
 1175      0084 
68K GAS   			page 36


 1176 0a90 0680 0000 	add.l #OS_VolumeTable,%d0
 1176      0000 
 1177 0a96 2040      	move.l %d0,%a0
 1178 0a98 5688      	addq.l #3,%a0
 1179 0a9a 4210      	clr.b (%a0)
 1180 0a9c 6070      	jra .L85
 1181               	.L83:
 637:/home/simulink/cFS_FreeRTOS_seL4/osal/src/os/rtems/osfilesys.c ****   
 638:/home/simulink/cFS_FreeRTOS_seL4/osal/src/os/rtems/osfilesys.c ****    } 
 639:/home/simulink/cFS_FreeRTOS_seL4/osal/src/os/rtems/osfilesys.c ****    else if ( OS_VolumeTable[i].VolumeType == FS_BASED )
 1182               	.loc 1 639 0
 1183 0a9e 202F 0088 	move.l 136(%sp),%d0
 1184 0aa2 223C 0000 	move.l #204,%d1
 1184      00CC 
 1185 0aa8 4C01 0800 	muls.l %d1,%d0
 1186 0aac 41F9 0000 	lea OS_VolumeTable+96,%a0
 1186      0000 
 1187 0ab2 2030 0800 	move.l (%a0,%d0.l),%d0
 1188 0ab6 4A80      	tst.l %d0
 1189 0ab8 663C      	jne .L86
 640:/home/simulink/cFS_FreeRTOS_seL4/osal/src/os/rtems/osfilesys.c ****    {
 641:/home/simulink/cFS_FreeRTOS_seL4/osal/src/os/rtems/osfilesys.c **** 
 642:/home/simulink/cFS_FreeRTOS_seL4/osal/src/os/rtems/osfilesys.c ****       /* release the information from the table */
 643:/home/simulink/cFS_FreeRTOS_seL4/osal/src/os/rtems/osfilesys.c ****       OS_VolumeTable[i].IsMounted = FALSE;
 1190               	.loc 1 643 0
 1191 0aba 202F 0088 	move.l 136(%sp),%d0
 1192 0abe 223C 0000 	move.l #204,%d1
 1192      00CC 
 1193 0ac4 4C01 0800 	muls.l %d1,%d0
 1194 0ac8 41F9 0000 	lea OS_VolumeTable+102,%a0
 1194      0000 
 1195 0ace 4201      	clr.b %d1
 1196 0ad0 1181 0800 	move.b %d1,(%a0,%d0.l)
 644:/home/simulink/cFS_FreeRTOS_seL4/osal/src/os/rtems/osfilesys.c ****       strcpy(OS_VolumeTable[i].MountPoint, "");
 1197               	.loc 1 644 0
 1198 0ad4 202F 0088 	move.l 136(%sp),%d0
 1199 0ad8 223C 0000 	move.l #204,%d1
 1199      00CC 
 1200 0ade 4C01 0800 	muls.l %d1,%d0
 1201 0ae2 0680 0000 	add.l #132,%d0
 1201      0084 
 1202 0ae8 0680 0000 	add.l #OS_VolumeTable,%d0
 1202      0000 
 1203 0aee 2040      	move.l %d0,%a0
 1204 0af0 5688      	addq.l #3,%a0
 1205 0af2 4210      	clr.b (%a0)
 1206 0af4 6018      	jra .L85
 1207               	.L86:
 645:/home/simulink/cFS_FreeRTOS_seL4/osal/src/os/rtems/osfilesys.c **** 
 646:/home/simulink/cFS_FreeRTOS_seL4/osal/src/os/rtems/osfilesys.c ****    } 
 647:/home/simulink/cFS_FreeRTOS_seL4/osal/src/os/rtems/osfilesys.c ****    else
 648:/home/simulink/cFS_FreeRTOS_seL4/osal/src/os/rtems/osfilesys.c ****    {
 649:/home/simulink/cFS_FreeRTOS_seL4/osal/src/os/rtems/osfilesys.c ****        /* 
 650:/home/simulink/cFS_FreeRTOS_seL4/osal/src/os/rtems/osfilesys.c ****        ** VolumeType is not supported right now 
 651:/home/simulink/cFS_FreeRTOS_seL4/osal/src/os/rtems/osfilesys.c ****        */
 652:/home/simulink/cFS_FreeRTOS_seL4/osal/src/os/rtems/osfilesys.c ****        rtems_sc = rtems_semaphore_release (OS_VolumeTableSem);
 1208               	.loc 1 652 0
68K GAS   			page 37


 1209 0af6 2039 0000 	move.l OS_VolumeTableSem,%d0
 1209      0000 
 1210 0afc 2F00      	move.l %d0,-(%sp)
 1211               	.cfi_def_cfa_offset 148
 1212 0afe 4EB9 0000 	jsr rtems_semaphore_release
 1212      0000 
 1213 0b04 588F      	addq.l #4,%sp
 1214               	.cfi_def_cfa_offset 144
 1215 0b06 2F40 0080 	move.l %d0,128(%sp)
 653:/home/simulink/cFS_FreeRTOS_seL4/osal/src/os/rtems/osfilesys.c ****        return OS_FS_ERROR;
 1216               	.loc 1 653 0
 1217 0b0a 70FF      	moveq #-1,%d0
 1218 0b0c 6016      	jra .L87
 1219               	.L85:
 654:/home/simulink/cFS_FreeRTOS_seL4/osal/src/os/rtems/osfilesys.c ****    }
 655:/home/simulink/cFS_FreeRTOS_seL4/osal/src/os/rtems/osfilesys.c **** 
 656:/home/simulink/cFS_FreeRTOS_seL4/osal/src/os/rtems/osfilesys.c ****    /*
 657:/home/simulink/cFS_FreeRTOS_seL4/osal/src/os/rtems/osfilesys.c ****    ** Unlock
 658:/home/simulink/cFS_FreeRTOS_seL4/osal/src/os/rtems/osfilesys.c ****    */
 659:/home/simulink/cFS_FreeRTOS_seL4/osal/src/os/rtems/osfilesys.c ****    rtems_sc = rtems_semaphore_release (OS_VolumeTableSem);
 1220               	.loc 1 659 0
 1221 0b0e 2039 0000 	move.l OS_VolumeTableSem,%d0
 1221      0000 
 1222 0b14 2F00      	move.l %d0,-(%sp)
 1223               	.cfi_def_cfa_offset 148
 1224 0b16 4EB9 0000 	jsr rtems_semaphore_release
 1224      0000 
 1225 0b1c 588F      	addq.l #4,%sp
 1226               	.cfi_def_cfa_offset 144
 1227 0b1e 2F40 0080 	move.l %d0,128(%sp)
 660:/home/simulink/cFS_FreeRTOS_seL4/osal/src/os/rtems/osfilesys.c ****    return OS_FS_SUCCESS;
 1228               	.loc 1 660 0
 1229 0b22 4280      	clr.l %d0
 1230               	.L87:
 661:/home/simulink/cFS_FreeRTOS_seL4/osal/src/os/rtems/osfilesys.c ****     
 662:/home/simulink/cFS_FreeRTOS_seL4/osal/src/os/rtems/osfilesys.c **** }/* end OS_umount */
 1231               	.loc 1 662 0 discriminator 1
 1232 0b24 4FEF 008C 	lea (140,%sp),%sp
 1233 0b28 4E75      	rts
 1234               	.cfi_endproc
 1235               	.LFE283:
 1236               	.sizeOS_unmount, .-OS_unmount
 1237               	.align2
 1238               	.globlOS_fsBlocksFree
 1239               	.typeOS_fsBlocksFree, @function
 1240               	OS_fsBlocksFree:
 1241               	.LFB284:
 663:/home/simulink/cFS_FreeRTOS_seL4/osal/src/os/rtems/osfilesys.c **** 
 664:/home/simulink/cFS_FreeRTOS_seL4/osal/src/os/rtems/osfilesys.c **** /*--------------------------------------------------------------------------------------
 665:/home/simulink/cFS_FreeRTOS_seL4/osal/src/os/rtems/osfilesys.c ****     Name: OS_fsBlocksFree
 666:/home/simulink/cFS_FreeRTOS_seL4/osal/src/os/rtems/osfilesys.c **** 
 667:/home/simulink/cFS_FreeRTOS_seL4/osal/src/os/rtems/osfilesys.c ****     Purpose: Returns the number of free blocks in a volume
 668:/home/simulink/cFS_FreeRTOS_seL4/osal/src/os/rtems/osfilesys.c ****  
 669:/home/simulink/cFS_FreeRTOS_seL4/osal/src/os/rtems/osfilesys.c ****     Returns: OS_FS_ERR_INVALID_POINTER if name is NULL
 670:/home/simulink/cFS_FreeRTOS_seL4/osal/src/os/rtems/osfilesys.c ****              OS_FS_ERR_PATH_TOO_LONG if the name is too long
 671:/home/simulink/cFS_FreeRTOS_seL4/osal/src/os/rtems/osfilesys.c ****              OS_FS_ERROR if the OS call failed
 672:/home/simulink/cFS_FreeRTOS_seL4/osal/src/os/rtems/osfilesys.c ****              The number of blocks free in a volume if success
68K GAS   			page 38


 673:/home/simulink/cFS_FreeRTOS_seL4/osal/src/os/rtems/osfilesys.c **** ---------------------------------------------------------------------------------------*/
 674:/home/simulink/cFS_FreeRTOS_seL4/osal/src/os/rtems/osfilesys.c **** int32 OS_fsBlocksFree (const char *name)
 675:/home/simulink/cFS_FreeRTOS_seL4/osal/src/os/rtems/osfilesys.c **** {
 1242               	.loc 1 675 0
 1243               	.cfi_startproc
 1244 0b2a 4FEF FF38 	lea (-200,%sp),%sp
 1245               	.cfi_def_cfa_offset 204
 676:/home/simulink/cFS_FreeRTOS_seL4/osal/src/os/rtems/osfilesys.c **** 
 677:/home/simulink/cFS_FreeRTOS_seL4/osal/src/os/rtems/osfilesys.c ****    int               status;
 678:/home/simulink/cFS_FreeRTOS_seL4/osal/src/os/rtems/osfilesys.c ****    int32             NameStatus;
 679:/home/simulink/cFS_FreeRTOS_seL4/osal/src/os/rtems/osfilesys.c ****    struct statvfs    stat_buf;
 680:/home/simulink/cFS_FreeRTOS_seL4/osal/src/os/rtems/osfilesys.c ****    rtems_status_code rtems_sc;
 681:/home/simulink/cFS_FreeRTOS_seL4/osal/src/os/rtems/osfilesys.c ****    char              tmpFileName[OS_MAX_LOCAL_PATH_LEN +1];
 682:/home/simulink/cFS_FreeRTOS_seL4/osal/src/os/rtems/osfilesys.c ****    
 683:/home/simulink/cFS_FreeRTOS_seL4/osal/src/os/rtems/osfilesys.c ****    if ( name == NULL )
 1246               	.loc 1 683 0
 1247 0b2e 4AAF 00CC 	tst.l 204(%sp)
 1248 0b32 6606      	jne .L90
 684:/home/simulink/cFS_FreeRTOS_seL4/osal/src/os/rtems/osfilesys.c ****    {
 685:/home/simulink/cFS_FreeRTOS_seL4/osal/src/os/rtems/osfilesys.c ****       return(OS_FS_ERR_INVALID_POINTER);
 1249               	.loc 1 685 0
 1250 0b34 70FE      	moveq #-2,%d0
 1251 0b36 6000 008C 	jra .L94
 1252               	.L90:
 686:/home/simulink/cFS_FreeRTOS_seL4/osal/src/os/rtems/osfilesys.c ****    }
 687:/home/simulink/cFS_FreeRTOS_seL4/osal/src/os/rtems/osfilesys.c ****   
 688:/home/simulink/cFS_FreeRTOS_seL4/osal/src/os/rtems/osfilesys.c ****    /*
 689:/home/simulink/cFS_FreeRTOS_seL4/osal/src/os/rtems/osfilesys.c ****    ** Check the length of the volume name
 690:/home/simulink/cFS_FreeRTOS_seL4/osal/src/os/rtems/osfilesys.c ****    */
 691:/home/simulink/cFS_FreeRTOS_seL4/osal/src/os/rtems/osfilesys.c ****    if ( strlen(name) >= OS_MAX_PATH_LEN )
 1253               	.loc 1 691 0
 1254 0b3a 2F2F 00CC 	move.l 204(%sp),-(%sp)
 1255               	.cfi_def_cfa_offset 208
 1256 0b3e 4EB9 0000 	jsr strlen
 1256      0000 
 1257 0b44 588F      	addq.l #4,%sp
 1258               	.cfi_def_cfa_offset 204
 1259 0b46 723F      	moveq #63,%d1
 1260 0b48 B280      	cmp.l %d0,%d1
 1261 0b4a 6404      	jcc .L92
 692:/home/simulink/cFS_FreeRTOS_seL4/osal/src/os/rtems/osfilesys.c ****    {
 693:/home/simulink/cFS_FreeRTOS_seL4/osal/src/os/rtems/osfilesys.c ****       return(OS_FS_ERR_PATH_TOO_LONG);
 1262               	.loc 1 693 0
 1263 0b4c 7099      	moveq #-103,%d0
 1264 0b4e 6074      	jra .L94
 1265               	.L92:
 694:/home/simulink/cFS_FreeRTOS_seL4/osal/src/os/rtems/osfilesys.c ****    }
 695:/home/simulink/cFS_FreeRTOS_seL4/osal/src/os/rtems/osfilesys.c **** 
 696:/home/simulink/cFS_FreeRTOS_seL4/osal/src/os/rtems/osfilesys.c ****  
 697:/home/simulink/cFS_FreeRTOS_seL4/osal/src/os/rtems/osfilesys.c ****    /*
 698:/home/simulink/cFS_FreeRTOS_seL4/osal/src/os/rtems/osfilesys.c ****    ** Translate the path
 699:/home/simulink/cFS_FreeRTOS_seL4/osal/src/os/rtems/osfilesys.c ****    */
 700:/home/simulink/cFS_FreeRTOS_seL4/osal/src/os/rtems/osfilesys.c ****    NameStatus = OS_TranslatePath(name, tmpFileName);
 1266               	.loc 1 700 0
 1267 0b50 200F      	move.l %sp,%d0
 1268 0b52 5680      	addq.l #3,%d0
 1269 0b54 2F00      	move.l %d0,-(%sp)
68K GAS   			page 39


 1270               	.cfi_def_cfa_offset 208
 1271 0b56 2F2F 00D0 	move.l 208(%sp),-(%sp)
 1272               	.cfi_def_cfa_offset 212
 1273 0b5a 4EB9 0000 	jsr OS_TranslatePath
 1273      0000 
 1274 0b60 508F      	addq.l #8,%sp
 1275               	.cfi_def_cfa_offset 204
 1276 0b62 2F40 00C4 	move.l %d0,196(%sp)
 701:/home/simulink/cFS_FreeRTOS_seL4/osal/src/os/rtems/osfilesys.c ****    
 702:/home/simulink/cFS_FreeRTOS_seL4/osal/src/os/rtems/osfilesys.c ****    /*
 703:/home/simulink/cFS_FreeRTOS_seL4/osal/src/os/rtems/osfilesys.c ****    ** Lock 
 704:/home/simulink/cFS_FreeRTOS_seL4/osal/src/os/rtems/osfilesys.c ****    */
 705:/home/simulink/cFS_FreeRTOS_seL4/osal/src/os/rtems/osfilesys.c ****    rtems_sc = rtems_semaphore_obtain (OS_VolumeTableSem, RTEMS_WAIT, RTEMS_NO_TIMEOUT);
 1277               	.loc 1 705 0
 1278 0b66 2039 0000 	move.l OS_VolumeTableSem,%d0
 1278      0000 
 1279 0b6c 42A7      	clr.l -(%sp)
 1280               	.cfi_def_cfa_offset 208
 1281 0b6e 42A7      	clr.l -(%sp)
 1282               	.cfi_def_cfa_offset 212
 1283 0b70 2F00      	move.l %d0,-(%sp)
 1284               	.cfi_def_cfa_offset 216
 1285 0b72 4EB9 0000 	jsr rtems_semaphore_obtain
 1285      0000 
 1286 0b78 4FEF 000C 	lea (12,%sp),%sp
 1287               	.cfi_def_cfa_offset 204
 1288 0b7c 2F40 00C0 	move.l %d0,192(%sp)
 706:/home/simulink/cFS_FreeRTOS_seL4/osal/src/os/rtems/osfilesys.c **** 
 707:/home/simulink/cFS_FreeRTOS_seL4/osal/src/os/rtems/osfilesys.c ****    status = statvfs(tmpFileName, &stat_buf);
 1289               	.loc 1 707 0
 1290 0b80 200F      	move.l %sp,%d0
 1291 0b82 0680 0000 	add.l #132,%d0
 1291      0084 
 1292 0b88 2F00      	move.l %d0,-(%sp)
 1293               	.cfi_def_cfa_offset 208
 1294 0b8a 200F      	move.l %sp,%d0
 1295 0b8c 5E80      	addq.l #7,%d0
 1296 0b8e 2F00      	move.l %d0,-(%sp)
 1297               	.cfi_def_cfa_offset 212
 1298 0b90 4EB9 0000 	jsr statvfs
 1298      0000 
 1299 0b96 508F      	addq.l #8,%sp
 1300               	.cfi_def_cfa_offset 204
 1301 0b98 2F40 00BC 	move.l %d0,188(%sp)
 708:/home/simulink/cFS_FreeRTOS_seL4/osal/src/os/rtems/osfilesys.c ****    
 709:/home/simulink/cFS_FreeRTOS_seL4/osal/src/os/rtems/osfilesys.c ****    /*
 710:/home/simulink/cFS_FreeRTOS_seL4/osal/src/os/rtems/osfilesys.c ****    ** Unlock
 711:/home/simulink/cFS_FreeRTOS_seL4/osal/src/os/rtems/osfilesys.c ****    */
 712:/home/simulink/cFS_FreeRTOS_seL4/osal/src/os/rtems/osfilesys.c ****    rtems_sc = rtems_semaphore_release (OS_VolumeTableSem);
 1302               	.loc 1 712 0
 1303 0b9c 2039 0000 	move.l OS_VolumeTableSem,%d0
 1303      0000 
 1304 0ba2 2F00      	move.l %d0,-(%sp)
 1305               	.cfi_def_cfa_offset 208
 1306 0ba4 4EB9 0000 	jsr rtems_semaphore_release
 1306      0000 
 1307 0baa 588F      	addq.l #4,%sp
68K GAS   			page 40


 1308               	.cfi_def_cfa_offset 204
 1309 0bac 2F40 00C0 	move.l %d0,192(%sp)
 713:/home/simulink/cFS_FreeRTOS_seL4/osal/src/os/rtems/osfilesys.c **** 
 714:/home/simulink/cFS_FreeRTOS_seL4/osal/src/os/rtems/osfilesys.c ****    if ( status == 0 )
 1310               	.loc 1 714 0
 1311 0bb0 4AAF 00BC 	tst.l 188(%sp)
 1312 0bb4 660C      	jne .L93
 715:/home/simulink/cFS_FreeRTOS_seL4/osal/src/os/rtems/osfilesys.c ****    {
 716:/home/simulink/cFS_FreeRTOS_seL4/osal/src/os/rtems/osfilesys.c ****       return(stat_buf.f_bfree);
 1313               	.loc 1 716 0
 1314 0bb6 202F 0094 	move.l 148(%sp),%d0
 1315 0bba 222F 0098 	move.l 152(%sp),%d1
 1316 0bbe 2001      	move.l %d1,%d0
 1317 0bc0 6002      	jra .L94
 1318               	.L93:
 717:/home/simulink/cFS_FreeRTOS_seL4/osal/src/os/rtems/osfilesys.c ****    }
 718:/home/simulink/cFS_FreeRTOS_seL4/osal/src/os/rtems/osfilesys.c ****    else 
 719:/home/simulink/cFS_FreeRTOS_seL4/osal/src/os/rtems/osfilesys.c ****    {
 720:/home/simulink/cFS_FreeRTOS_seL4/osal/src/os/rtems/osfilesys.c ****       return OS_FS_ERROR;
 1319               	.loc 1 720 0
 1320 0bc2 70FF      	moveq #-1,%d0
 1321               	.L94:
 721:/home/simulink/cFS_FreeRTOS_seL4/osal/src/os/rtems/osfilesys.c ****    }
 722:/home/simulink/cFS_FreeRTOS_seL4/osal/src/os/rtems/osfilesys.c **** 
 723:/home/simulink/cFS_FreeRTOS_seL4/osal/src/os/rtems/osfilesys.c **** }/* end OS_fsBlocksFree */
 1322               	.loc 1 723 0 discriminator 1
 1323 0bc4 4FEF 00C8 	lea (200,%sp),%sp
 1324 0bc8 4E75      	rts
 1325               	.cfi_endproc
 1326               	.LFE284:
 1327               	.sizeOS_fsBlocksFree, .-OS_fsBlocksFree
 1328               	.globl__muldi3
 1329               	.align2
 1330               	.globlOS_fsBytesFree
 1331               	.typeOS_fsBytesFree, @function
 1332               	OS_fsBytesFree:
 1333               	.LFB285:
 724:/home/simulink/cFS_FreeRTOS_seL4/osal/src/os/rtems/osfilesys.c **** 
 725:/home/simulink/cFS_FreeRTOS_seL4/osal/src/os/rtems/osfilesys.c **** /*--------------------------------------------------------------------------------------
 726:/home/simulink/cFS_FreeRTOS_seL4/osal/src/os/rtems/osfilesys.c ****     Name: OS_fsBytesFree
 727:/home/simulink/cFS_FreeRTOS_seL4/osal/src/os/rtems/osfilesys.c **** 
 728:/home/simulink/cFS_FreeRTOS_seL4/osal/src/os/rtems/osfilesys.c ****     Purpose: Returns the number of free bytes in a volume
 729:/home/simulink/cFS_FreeRTOS_seL4/osal/src/os/rtems/osfilesys.c ****  
 730:/home/simulink/cFS_FreeRTOS_seL4/osal/src/os/rtems/osfilesys.c ****     Returns: OS_FS_ERR_INVALID_POINTER if name is NULL
 731:/home/simulink/cFS_FreeRTOS_seL4/osal/src/os/rtems/osfilesys.c ****              OS_FS_ERR_PATH_TOO_LONG if the name is too long
 732:/home/simulink/cFS_FreeRTOS_seL4/osal/src/os/rtems/osfilesys.c ****              OS_FS_ERROR if the OS call failed
 733:/home/simulink/cFS_FreeRTOS_seL4/osal/src/os/rtems/osfilesys.c ****              OS_FS_SUCCESS if the call succeeds 
 734:/home/simulink/cFS_FreeRTOS_seL4/osal/src/os/rtems/osfilesys.c **** ---------------------------------------------------------------------------------------*/
 735:/home/simulink/cFS_FreeRTOS_seL4/osal/src/os/rtems/osfilesys.c **** int32 OS_fsBytesFree (const char *name, uint64 *bytes_free)
 736:/home/simulink/cFS_FreeRTOS_seL4/osal/src/os/rtems/osfilesys.c **** {
 1334               	.loc 1 736 0
 1335               	.cfi_startproc
 1336 0bca 4FEF FF30 	lea (-208,%sp),%sp
 1337               	.cfi_def_cfa_offset 212
 1338 0bce 2F03      	move.l %d3,-(%sp)
 1339               	.cfi_def_cfa_offset 216
 1340               	.cfi_offset 3, -216
68K GAS   			page 41


 1341 0bd0 2F02      	move.l %d2,-(%sp)
 1342               	.cfi_def_cfa_offset 220
 1343               	.cfi_offset 2, -220
 737:/home/simulink/cFS_FreeRTOS_seL4/osal/src/os/rtems/osfilesys.c ****    int               status;
 738:/home/simulink/cFS_FreeRTOS_seL4/osal/src/os/rtems/osfilesys.c ****    rtems_status_code rtems_sc;
 739:/home/simulink/cFS_FreeRTOS_seL4/osal/src/os/rtems/osfilesys.c ****    int32             NameStatus;
 740:/home/simulink/cFS_FreeRTOS_seL4/osal/src/os/rtems/osfilesys.c ****    struct statvfs    stat_buf;
 741:/home/simulink/cFS_FreeRTOS_seL4/osal/src/os/rtems/osfilesys.c ****    uint64            bytes_free_local;
 742:/home/simulink/cFS_FreeRTOS_seL4/osal/src/os/rtems/osfilesys.c ****    char              tmpFileName[OS_MAX_LOCAL_PATH_LEN +1];
 743:/home/simulink/cFS_FreeRTOS_seL4/osal/src/os/rtems/osfilesys.c **** 
 744:/home/simulink/cFS_FreeRTOS_seL4/osal/src/os/rtems/osfilesys.c ****    if ( name == NULL || bytes_free == NULL )
 1344               	.loc 1 744 0
 1345 0bd2 4AAF 00DC 	tst.l 220(%sp)
 1346 0bd6 6706      	jeq .L96
 1347               	.loc 1 744 0 is_stmt 0 discriminator 1
 1348 0bd8 4AAF 00E0 	tst.l 224(%sp)
 1349 0bdc 6606      	jne .L97
 1350               	.L96:
 745:/home/simulink/cFS_FreeRTOS_seL4/osal/src/os/rtems/osfilesys.c ****    {
 746:/home/simulink/cFS_FreeRTOS_seL4/osal/src/os/rtems/osfilesys.c ****       return(OS_FS_ERR_INVALID_POINTER);
 1351               	.loc 1 746 0 is_stmt 1
 1352 0bde 70FE      	moveq #-2,%d0
 1353 0be0 6000 00CA 	jra .L101
 1354               	.L97:
 747:/home/simulink/cFS_FreeRTOS_seL4/osal/src/os/rtems/osfilesys.c ****    }
 748:/home/simulink/cFS_FreeRTOS_seL4/osal/src/os/rtems/osfilesys.c **** 
 749:/home/simulink/cFS_FreeRTOS_seL4/osal/src/os/rtems/osfilesys.c ****    /*
 750:/home/simulink/cFS_FreeRTOS_seL4/osal/src/os/rtems/osfilesys.c ****    ** Check the length of the volume name
 751:/home/simulink/cFS_FreeRTOS_seL4/osal/src/os/rtems/osfilesys.c ****    */
 752:/home/simulink/cFS_FreeRTOS_seL4/osal/src/os/rtems/osfilesys.c ****    if ( strlen(name) >= OS_MAX_PATH_LEN )
 1355               	.loc 1 752 0
 1356 0be4 2F2F 00DC 	move.l 220(%sp),-(%sp)
 1357               	.cfi_def_cfa_offset 224
 1358 0be8 4EB9 0000 	jsr strlen
 1358      0000 
 1359 0bee 588F      	addq.l #4,%sp
 1360               	.cfi_def_cfa_offset 220
 1361 0bf0 723F      	moveq #63,%d1
 1362 0bf2 B280      	cmp.l %d0,%d1
 1363 0bf4 6406      	jcc .L99
 753:/home/simulink/cFS_FreeRTOS_seL4/osal/src/os/rtems/osfilesys.c ****    {
 754:/home/simulink/cFS_FreeRTOS_seL4/osal/src/os/rtems/osfilesys.c ****       return(OS_FS_ERR_PATH_TOO_LONG);
 1364               	.loc 1 754 0
 1365 0bf6 7099      	moveq #-103,%d0
 1366 0bf8 6000 00B2 	jra .L101
 1367               	.L99:
 755:/home/simulink/cFS_FreeRTOS_seL4/osal/src/os/rtems/osfilesys.c ****    }
 756:/home/simulink/cFS_FreeRTOS_seL4/osal/src/os/rtems/osfilesys.c **** 
 757:/home/simulink/cFS_FreeRTOS_seL4/osal/src/os/rtems/osfilesys.c ****    /*
 758:/home/simulink/cFS_FreeRTOS_seL4/osal/src/os/rtems/osfilesys.c ****    ** Translate the path
 759:/home/simulink/cFS_FreeRTOS_seL4/osal/src/os/rtems/osfilesys.c ****    */
 760:/home/simulink/cFS_FreeRTOS_seL4/osal/src/os/rtems/osfilesys.c ****    NameStatus = OS_TranslatePath(name, tmpFileName);
 1368               	.loc 1 760 0
 1369 0bfc 200F      	move.l %sp,%d0
 1370 0bfe 0680 0000 	add.l #11,%d0
 1370      000B 
 1371 0c04 2F00      	move.l %d0,-(%sp)
68K GAS   			page 42


 1372               	.cfi_def_cfa_offset 224
 1373 0c06 2F2F 00E0 	move.l 224(%sp),-(%sp)
 1374               	.cfi_def_cfa_offset 228
 1375 0c0a 4EB9 0000 	jsr OS_TranslatePath
 1375      0000 
 1376 0c10 508F      	addq.l #8,%sp
 1377               	.cfi_def_cfa_offset 220
 1378 0c12 2F40 00D4 	move.l %d0,212(%sp)
 761:/home/simulink/cFS_FreeRTOS_seL4/osal/src/os/rtems/osfilesys.c **** 
 762:/home/simulink/cFS_FreeRTOS_seL4/osal/src/os/rtems/osfilesys.c ****    /*
 763:/home/simulink/cFS_FreeRTOS_seL4/osal/src/os/rtems/osfilesys.c ****    ** Lock 
 764:/home/simulink/cFS_FreeRTOS_seL4/osal/src/os/rtems/osfilesys.c ****    */
 765:/home/simulink/cFS_FreeRTOS_seL4/osal/src/os/rtems/osfilesys.c ****    rtems_sc = rtems_semaphore_obtain (OS_VolumeTableSem, RTEMS_WAIT, RTEMS_NO_TIMEOUT);
 1379               	.loc 1 765 0
 1380 0c16 2039 0000 	move.l OS_VolumeTableSem,%d0
 1380      0000 
 1381 0c1c 42A7      	clr.l -(%sp)
 1382               	.cfi_def_cfa_offset 224
 1383 0c1e 42A7      	clr.l -(%sp)
 1384               	.cfi_def_cfa_offset 228
 1385 0c20 2F00      	move.l %d0,-(%sp)
 1386               	.cfi_def_cfa_offset 232
 1387 0c22 4EB9 0000 	jsr rtems_semaphore_obtain
 1387      0000 
 1388 0c28 4FEF 000C 	lea (12,%sp),%sp
 1389               	.cfi_def_cfa_offset 220
 1390 0c2c 2F40 00D0 	move.l %d0,208(%sp)
 766:/home/simulink/cFS_FreeRTOS_seL4/osal/src/os/rtems/osfilesys.c **** 
 767:/home/simulink/cFS_FreeRTOS_seL4/osal/src/os/rtems/osfilesys.c ****    status = statvfs(tmpFileName, &stat_buf);
 1391               	.loc 1 767 0
 1392 0c30 200F      	move.l %sp,%d0
 1393 0c32 0680 0000 	add.l #140,%d0
 1393      008C 
 1394 0c38 2F00      	move.l %d0,-(%sp)
 1395               	.cfi_def_cfa_offset 224
 1396 0c3a 200F      	move.l %sp,%d0
 1397 0c3c 0680 0000 	add.l #15,%d0
 1397      000F 
 1398 0c42 2F00      	move.l %d0,-(%sp)
 1399               	.cfi_def_cfa_offset 228
 1400 0c44 4EB9 0000 	jsr statvfs
 1400      0000 
 1401 0c4a 508F      	addq.l #8,%sp
 1402               	.cfi_def_cfa_offset 220
 1403 0c4c 2F40 00CC 	move.l %d0,204(%sp)
 768:/home/simulink/cFS_FreeRTOS_seL4/osal/src/os/rtems/osfilesys.c **** 
 769:/home/simulink/cFS_FreeRTOS_seL4/osal/src/os/rtems/osfilesys.c ****    /*
 770:/home/simulink/cFS_FreeRTOS_seL4/osal/src/os/rtems/osfilesys.c ****    ** Unlock
 771:/home/simulink/cFS_FreeRTOS_seL4/osal/src/os/rtems/osfilesys.c ****    */
 772:/home/simulink/cFS_FreeRTOS_seL4/osal/src/os/rtems/osfilesys.c ****    rtems_sc = rtems_semaphore_release (OS_VolumeTableSem);
 1404               	.loc 1 772 0
 1405 0c50 2039 0000 	move.l OS_VolumeTableSem,%d0
 1405      0000 
 1406 0c56 2F00      	move.l %d0,-(%sp)
 1407               	.cfi_def_cfa_offset 224
 1408 0c58 4EB9 0000 	jsr rtems_semaphore_release
 1408      0000 
68K GAS   			page 43


 1409 0c5e 588F      	addq.l #4,%sp
 1410               	.cfi_def_cfa_offset 220
 1411 0c60 2F40 00D0 	move.l %d0,208(%sp)
 773:/home/simulink/cFS_FreeRTOS_seL4/osal/src/os/rtems/osfilesys.c **** 
 774:/home/simulink/cFS_FreeRTOS_seL4/osal/src/os/rtems/osfilesys.c ****    if ( status == 0 )
 1412               	.loc 1 774 0
 1413 0c64 4AAF 00CC 	tst.l 204(%sp)
 1414 0c68 6640      	jne .L100
 775:/home/simulink/cFS_FreeRTOS_seL4/osal/src/os/rtems/osfilesys.c ****    {
 776:/home/simulink/cFS_FreeRTOS_seL4/osal/src/os/rtems/osfilesys.c ****       bytes_free_local = stat_buf.f_bfree * stat_buf.f_bsize;
 1415               	.loc 1 776 0
 1416 0c6a 202F 009C 	move.l 156(%sp),%d0
 1417 0c6e 222F 00A0 	move.l 160(%sp),%d1
 1418 0c72 206F 008C 	move.l 140(%sp),%a0
 1419 0c76 2608      	move.l %a0,%d3
 1420 0c78 4282      	clr.l %d2
 1421 0c7a 2F03      	move.l %d3,-(%sp)
 1422 0c7c 2F02      	move.l %d2,-(%sp)
 1423               	.cfi_def_cfa_offset 228
 1424 0c7e 2F01      	move.l %d1,-(%sp)
 1425 0c80 2F00      	move.l %d0,-(%sp)
 1426               	.cfi_def_cfa_offset 236
 1427 0c82 4EB9 0000 	jsr __muldi3
 1427      0000 
 1428               	.LVL0:
 1429 0c88 4FEF 0010 	lea (16,%sp),%sp
 1430               	.cfi_def_cfa_offset 220
 1431 0c8c 2F40 00C4 	move.l %d0,196(%sp)
 1432 0c90 2F41 00C8 	move.l %d1,200(%sp)
 777:/home/simulink/cFS_FreeRTOS_seL4/osal/src/os/rtems/osfilesys.c ****       *bytes_free = bytes_free_local;
 1433               	.loc 1 777 0
 1434 0c94 206F 00E0 	move.l 224(%sp),%a0
 1435 0c98 202F 00C4 	move.l 196(%sp),%d0
 1436 0c9c 222F 00C8 	move.l 200(%sp),%d1
 1437 0ca0 2080      	move.l %d0,(%a0)
 1438 0ca2 2141 0004 	move.l %d1,4(%a0)
 778:/home/simulink/cFS_FreeRTOS_seL4/osal/src/os/rtems/osfilesys.c ****       return(OS_FS_SUCCESS);
 1439               	.loc 1 778 0
 1440 0ca6 4280      	clr.l %d0
 1441 0ca8 6002      	jra .L101
 1442               	.L100:
 779:/home/simulink/cFS_FreeRTOS_seL4/osal/src/os/rtems/osfilesys.c ****    }
 780:/home/simulink/cFS_FreeRTOS_seL4/osal/src/os/rtems/osfilesys.c ****    else
 781:/home/simulink/cFS_FreeRTOS_seL4/osal/src/os/rtems/osfilesys.c ****    {
 782:/home/simulink/cFS_FreeRTOS_seL4/osal/src/os/rtems/osfilesys.c ****       return(OS_FS_ERROR);
 1443               	.loc 1 782 0
 1444 0caa 70FF      	moveq #-1,%d0
 1445               	.L101:
 783:/home/simulink/cFS_FreeRTOS_seL4/osal/src/os/rtems/osfilesys.c ****    }
 784:/home/simulink/cFS_FreeRTOS_seL4/osal/src/os/rtems/osfilesys.c **** 
 785:/home/simulink/cFS_FreeRTOS_seL4/osal/src/os/rtems/osfilesys.c **** }/* end OS_fsBytesFree */
 1446               	.loc 1 785 0 discriminator 1
 1447 0cac 241F      	move.l (%sp)+,%d2
 1448 0cae 261F      	move.l (%sp)+,%d3
 1449 0cb0 4FEF 00D0 	lea (208,%sp),%sp
 1450 0cb4 4E75      	rts
 1451               	.cfi_endproc
68K GAS   			page 44


 1452               	.LFE285:
 1453               	.sizeOS_fsBytesFree, .-OS_fsBytesFree
 1454               	.align2
 1455               	.globlOS_chkfs
 1456               	.typeOS_chkfs, @function
 1457               	OS_chkfs:
 1458               	.LFB286:
 786:/home/simulink/cFS_FreeRTOS_seL4/osal/src/os/rtems/osfilesys.c **** 
 787:/home/simulink/cFS_FreeRTOS_seL4/osal/src/os/rtems/osfilesys.c **** /*--------------------------------------------------------------------------------------
 788:/home/simulink/cFS_FreeRTOS_seL4/osal/src/os/rtems/osfilesys.c ****     Name: OS_chkfs
 789:/home/simulink/cFS_FreeRTOS_seL4/osal/src/os/rtems/osfilesys.c ****     
 790:/home/simulink/cFS_FreeRTOS_seL4/osal/src/os/rtems/osfilesys.c ****     Purpose: Checks the drives for inconsisenties and either repairs it or not
 791:/home/simulink/cFS_FreeRTOS_seL4/osal/src/os/rtems/osfilesys.c **** 
 792:/home/simulink/cFS_FreeRTOS_seL4/osal/src/os/rtems/osfilesys.c ****     Returns: OS_FS_ERR_INVALID_POINTER if name is NULL
 793:/home/simulink/cFS_FreeRTOS_seL4/osal/src/os/rtems/osfilesys.c ****              OS_FS_SUCCESS if success
 794:/home/simulink/cFS_FreeRTOS_seL4/osal/src/os/rtems/osfilesys.c ****              OS_FS_ERROR if the OS calls fail
 795:/home/simulink/cFS_FreeRTOS_seL4/osal/src/os/rtems/osfilesys.c **** 
 796:/home/simulink/cFS_FreeRTOS_seL4/osal/src/os/rtems/osfilesys.c **** ---------------------------------------------------------------------------------------*/
 797:/home/simulink/cFS_FreeRTOS_seL4/osal/src/os/rtems/osfilesys.c **** os_fshealth_t OS_chkfs (const char *name, boolean repair)
 798:/home/simulink/cFS_FreeRTOS_seL4/osal/src/os/rtems/osfilesys.c **** { 
 1459               	.loc 1 798 0
 1460               	.cfi_startproc
 1461 0cb6 598F      	subq.l #4,%sp
 1462               	.cfi_def_cfa_offset 8
 1463 0cb8 202F 000C 	move.l 12(%sp),%d0
 1464 0cbc 1000      	move.b %d0,%d0
 1465 0cbe 1E80      	move.b %d0,(%sp)
 799:/home/simulink/cFS_FreeRTOS_seL4/osal/src/os/rtems/osfilesys.c ****     return OS_FS_UNIMPLEMENTED;
 1466               	.loc 1 799 0
 1467 0cc0 70E4      	moveq #-28,%d0
 800:/home/simulink/cFS_FreeRTOS_seL4/osal/src/os/rtems/osfilesys.c **** 
 801:/home/simulink/cFS_FreeRTOS_seL4/osal/src/os/rtems/osfilesys.c **** }/* end OS_chkfs */
 1468               	.loc 1 801 0
 1469 0cc2 588F      	addq.l #4,%sp
 1470 0cc4 4E75      	rts
 1471               	.cfi_endproc
 1472               	.LFE286:
 1473               	.sizeOS_chkfs, .-OS_chkfs
 1474               	.align2
 1475               	.globlOS_FS_GetPhysDriveName
 1476               	.typeOS_FS_GetPhysDriveName, @function
 1477               	OS_FS_GetPhysDriveName:
 1478               	.LFB287:
 802:/home/simulink/cFS_FreeRTOS_seL4/osal/src/os/rtems/osfilesys.c **** /*--------------------------------------------------------------------------------------
 803:/home/simulink/cFS_FreeRTOS_seL4/osal/src/os/rtems/osfilesys.c ****     Name: OS_FS_GetPhysDriveName
 804:/home/simulink/cFS_FreeRTOS_seL4/osal/src/os/rtems/osfilesys.c ****     
 805:/home/simulink/cFS_FreeRTOS_seL4/osal/src/os/rtems/osfilesys.c ****     Purpose: Returns the name of the physical volume associated with the drive,
 806:/home/simulink/cFS_FreeRTOS_seL4/osal/src/os/rtems/osfilesys.c ****              when given the mount point of the drive
 807:/home/simulink/cFS_FreeRTOS_seL4/osal/src/os/rtems/osfilesys.c **** 
 808:/home/simulink/cFS_FreeRTOS_seL4/osal/src/os/rtems/osfilesys.c ****     Returns: OS_FS_ERR_INVALID_POINTER if either  parameter is NULL
 809:/home/simulink/cFS_FreeRTOS_seL4/osal/src/os/rtems/osfilesys.c ****              OS_SUCCESS if success
 810:/home/simulink/cFS_FreeRTOS_seL4/osal/src/os/rtems/osfilesys.c ****              OS_FS_ERROR if the mountpoint could not be found
 811:/home/simulink/cFS_FreeRTOS_seL4/osal/src/os/rtems/osfilesys.c **** ---------------------------------------------------------------------------------------*/
 812:/home/simulink/cFS_FreeRTOS_seL4/osal/src/os/rtems/osfilesys.c **** int32 OS_FS_GetPhysDriveName(char * PhysDriveName, char * MountPoint)
 813:/home/simulink/cFS_FreeRTOS_seL4/osal/src/os/rtems/osfilesys.c **** {
 1479               	.loc 1 813 0
 1480               	.cfi_startproc
68K GAS   			page 45


 1481 0cc6 518F      	subq.l #8,%sp
 1482               	.cfi_def_cfa_offset 12
 814:/home/simulink/cFS_FreeRTOS_seL4/osal/src/os/rtems/osfilesys.c ****     int32 ReturnCode;
 815:/home/simulink/cFS_FreeRTOS_seL4/osal/src/os/rtems/osfilesys.c ****     int   i;
 816:/home/simulink/cFS_FreeRTOS_seL4/osal/src/os/rtems/osfilesys.c ****     
 817:/home/simulink/cFS_FreeRTOS_seL4/osal/src/os/rtems/osfilesys.c ****     if (MountPoint == NULL || PhysDriveName == NULL)
 1483               	.loc 1 817 0
 1484 0cc8 4AAF 0010 	tst.l 16(%sp)
 1485 0ccc 6706      	jeq .L105
 1486               	.loc 1 817 0 is_stmt 0 discriminator 1
 1487 0cce 4AAF 000C 	tst.l 12(%sp)
 1488 0cd2 6606      	jne .L106
 1489               	.L105:
 818:/home/simulink/cFS_FreeRTOS_seL4/osal/src/os/rtems/osfilesys.c ****     {
 819:/home/simulink/cFS_FreeRTOS_seL4/osal/src/os/rtems/osfilesys.c ****         return OS_FS_ERR_INVALID_POINTER;
 1490               	.loc 1 819 0 is_stmt 1
 1491 0cd4 70FE      	moveq #-2,%d0
 1492 0cd6 6000 00C6 	jra .L107
 1493               	.L106:
 820:/home/simulink/cFS_FreeRTOS_seL4/osal/src/os/rtems/osfilesys.c ****     }
 821:/home/simulink/cFS_FreeRTOS_seL4/osal/src/os/rtems/osfilesys.c ****   
 822:/home/simulink/cFS_FreeRTOS_seL4/osal/src/os/rtems/osfilesys.c ****     if( strlen(PhysDriveName) >= OS_FS_DEV_NAME_LEN || strlen(MountPoint) >= OS_MAX_PATH_LEN)
 1494               	.loc 1 822 0
 1495 0cda 2F2F 000C 	move.l 12(%sp),-(%sp)
 1496               	.cfi_def_cfa_offset 16
 1497 0cde 4EB9 0000 	jsr strlen
 1497      0000 
 1498 0ce4 588F      	addq.l #4,%sp
 1499               	.cfi_def_cfa_offset 12
 1500 0ce6 721F      	moveq #31,%d1
 1501 0ce8 B280      	cmp.l %d0,%d1
 1502 0cea 6512      	jcs .L108
 1503               	.loc 1 822 0 is_stmt 0 discriminator 1
 1504 0cec 2F2F 0010 	move.l 16(%sp),-(%sp)
 1505               	.cfi_def_cfa_offset 16
 1506 0cf0 4EB9 0000 	jsr strlen
 1506      0000 
 1507 0cf6 588F      	addq.l #4,%sp
 1508               	.cfi_def_cfa_offset 12
 1509 0cf8 723F      	moveq #63,%d1
 1510 0cfa B280      	cmp.l %d0,%d1
 1511 0cfc 6406      	jcc .L109
 1512               	.L108:
 823:/home/simulink/cFS_FreeRTOS_seL4/osal/src/os/rtems/osfilesys.c ****     {
 824:/home/simulink/cFS_FreeRTOS_seL4/osal/src/os/rtems/osfilesys.c ****         return OS_FS_ERR_PATH_TOO_LONG;
 1513               	.loc 1 824 0 is_stmt 1
 1514 0cfe 7099      	moveq #-103,%d0
 1515 0d00 6000 009C 	jra .L107
 1516               	.L109:
 825:/home/simulink/cFS_FreeRTOS_seL4/osal/src/os/rtems/osfilesys.c ****     }
 826:/home/simulink/cFS_FreeRTOS_seL4/osal/src/os/rtems/osfilesys.c ****  
 827:/home/simulink/cFS_FreeRTOS_seL4/osal/src/os/rtems/osfilesys.c ****     /*
 828:/home/simulink/cFS_FreeRTOS_seL4/osal/src/os/rtems/osfilesys.c ****     ** look for the CFS Mount Point in the VolumeTable 
 829:/home/simulink/cFS_FreeRTOS_seL4/osal/src/os/rtems/osfilesys.c ****     */
 830:/home/simulink/cFS_FreeRTOS_seL4/osal/src/os/rtems/osfilesys.c ****     for (i = 0; i < NUM_TABLE_ENTRIES; i++)
 1517               	.loc 1 830 0
 1518 0d04 4297      	clr.l (%sp)
68K GAS   			page 46


 1519 0d06 604C      	jra .L110
 1520               	.L113:
 831:/home/simulink/cFS_FreeRTOS_seL4/osal/src/os/rtems/osfilesys.c ****     {
 832:/home/simulink/cFS_FreeRTOS_seL4/osal/src/os/rtems/osfilesys.c ****         if (OS_VolumeTable[i].FreeFlag == FALSE &&
 1521               	.loc 1 832 0
 1522 0d08 2017      	move.l (%sp),%d0
 1523 0d0a 223C 0000 	move.l #204,%d1
 1523      00CC 
 1524 0d10 4C01 0800 	muls.l %d1,%d0
 1525 0d14 41F9 0000 	lea OS_VolumeTable+101,%a0
 1525      0000 
 1526 0d1a 1030 0800 	move.b (%a0,%d0.l),%d0
 1527 0d1e 4A00      	tst.b %d0
 1528 0d20 6630      	jne .L111
 833:/home/simulink/cFS_FreeRTOS_seL4/osal/src/os/rtems/osfilesys.c ****             strncmp(OS_VolumeTable[i].MountPoint, MountPoint, OS_MAX_PATH_LEN) == 0)
 1529               	.loc 1 833 0 discriminator 1
 1530 0d22 203C 0000 	move.l #204,%d0
 1530      00CC 
 1531 0d28 4C17 0800 	muls.l (%sp),%d0
 1532 0d2c 0680 0000 	add.l #132,%d0
 1532      0084 
 1533 0d32 0680 0000 	add.l #OS_VolumeTable,%d0
 1533      0000 
 1534 0d38 5680      	addq.l #3,%d0
 1535 0d3a 4878 0040 	pea 64.w
 1536               	.cfi_def_cfa_offset 16
 1537 0d3e 2F2F 0014 	move.l 20(%sp),-(%sp)
 1538               	.cfi_def_cfa_offset 20
 1539 0d42 2F00      	move.l %d0,-(%sp)
 1540               	.cfi_def_cfa_offset 24
 1541 0d44 4EB9 0000 	jsr strncmp
 1541      0000 
 1542 0d4a 4FEF 000C 	lea (12,%sp),%sp
 1543               	.cfi_def_cfa_offset 12
 832:/home/simulink/cFS_FreeRTOS_seL4/osal/src/os/rtems/osfilesys.c ****             strncmp(OS_VolumeTable[i].MountPoint, MountPoint, OS_MAX_PATH_LEN) == 0)
 1544               	.loc 1 832 0 discriminator 1
 1545 0d4e 4A80      	tst.l %d0
 1546 0d50 670A      	jeq .L116
 1547               	.L111:
 830:/home/simulink/cFS_FreeRTOS_seL4/osal/src/os/rtems/osfilesys.c ****     {
 1548               	.loc 1 830 0 discriminator 2
 1549 0d52 5297      	addq.l #1,(%sp)
 1550               	.L110:
 830:/home/simulink/cFS_FreeRTOS_seL4/osal/src/os/rtems/osfilesys.c ****     {
 1551               	.loc 1 830 0 is_stmt 0 discriminator 1
 1552 0d54 700D      	moveq #13,%d0
 1553 0d56 B097      	cmp.l (%sp),%d0
 1554 0d58 6CAE      	jge .L113
 1555 0d5a 6002      	jra .L112
 1556               	.L116:
 834:/home/simulink/cFS_FreeRTOS_seL4/osal/src/os/rtems/osfilesys.c ****         {
 835:/home/simulink/cFS_FreeRTOS_seL4/osal/src/os/rtems/osfilesys.c ****             break;
 1557               	.loc 1 835 0 is_stmt 1
 1558 0d5c 4E71      	nop
 1559               	.L112:
 836:/home/simulink/cFS_FreeRTOS_seL4/osal/src/os/rtems/osfilesys.c ****         }
 837:/home/simulink/cFS_FreeRTOS_seL4/osal/src/os/rtems/osfilesys.c ****     }
68K GAS   			page 47


 838:/home/simulink/cFS_FreeRTOS_seL4/osal/src/os/rtems/osfilesys.c **** 
 839:/home/simulink/cFS_FreeRTOS_seL4/osal/src/os/rtems/osfilesys.c ****     /* 
 840:/home/simulink/cFS_FreeRTOS_seL4/osal/src/os/rtems/osfilesys.c ****     ** Make sure we found a valid volume table entry 
 841:/home/simulink/cFS_FreeRTOS_seL4/osal/src/os/rtems/osfilesys.c ****     */
 842:/home/simulink/cFS_FreeRTOS_seL4/osal/src/os/rtems/osfilesys.c ****     if (i >= NUM_TABLE_ENTRIES)
 1560               	.loc 1 842 0
 1561 0d5e 720D      	moveq #13,%d1
 1562 0d60 B297      	cmp.l (%sp),%d1
 1563 0d62 6C08      	jge .L114
 843:/home/simulink/cFS_FreeRTOS_seL4/osal/src/os/rtems/osfilesys.c ****     {
 844:/home/simulink/cFS_FreeRTOS_seL4/osal/src/os/rtems/osfilesys.c ****         ReturnCode = OS_FS_ERROR;
 1564               	.loc 1 844 0
 1565 0d64 70FF      	moveq #-1,%d0
 1566 0d66 2F40 0004 	move.l %d0,4(%sp)
 1567 0d6a 602E      	jra .L115
 1568               	.L114:
 845:/home/simulink/cFS_FreeRTOS_seL4/osal/src/os/rtems/osfilesys.c ****     }
 846:/home/simulink/cFS_FreeRTOS_seL4/osal/src/os/rtems/osfilesys.c ****     else
 847:/home/simulink/cFS_FreeRTOS_seL4/osal/src/os/rtems/osfilesys.c ****     {
 848:/home/simulink/cFS_FreeRTOS_seL4/osal/src/os/rtems/osfilesys.c ****        /*
 849:/home/simulink/cFS_FreeRTOS_seL4/osal/src/os/rtems/osfilesys.c ****        ** Yes, so copy the physical drive name  
 850:/home/simulink/cFS_FreeRTOS_seL4/osal/src/os/rtems/osfilesys.c ****        */
 851:/home/simulink/cFS_FreeRTOS_seL4/osal/src/os/rtems/osfilesys.c ****        strncpy(PhysDriveName, OS_VolumeTable[i].PhysDevName,OS_FS_PHYS_NAME_LEN);
 1569               	.loc 1 851 0
 1570 0d6c 203C 0000 	move.l #204,%d0
 1570      00CC 
 1571 0d72 4C17 0800 	muls.l (%sp),%d0
 1572 0d76 0680 0000 	add.l #32,%d0
 1572      0020 
 1573 0d7c 0680 0000 	add.l #OS_VolumeTable,%d0
 1573      0000 
 1574 0d82 4878 0040 	pea 64.w
 1575               	.cfi_def_cfa_offset 16
 1576 0d86 2F00      	move.l %d0,-(%sp)
 1577               	.cfi_def_cfa_offset 20
 1578 0d88 2F2F 0014 	move.l 20(%sp),-(%sp)
 1579               	.cfi_def_cfa_offset 24
 1580 0d8c 4EB9 0000 	jsr strncpy
 1580      0000 
 1581 0d92 4FEF 000C 	lea (12,%sp),%sp
 1582               	.cfi_def_cfa_offset 12
 852:/home/simulink/cFS_FreeRTOS_seL4/osal/src/os/rtems/osfilesys.c ****        ReturnCode = OS_SUCCESS;
 1583               	.loc 1 852 0
 1584 0d96 42AF 0004 	clr.l 4(%sp)
 1585               	.L115:
 853:/home/simulink/cFS_FreeRTOS_seL4/osal/src/os/rtems/osfilesys.c ****     }
 854:/home/simulink/cFS_FreeRTOS_seL4/osal/src/os/rtems/osfilesys.c **** 
 855:/home/simulink/cFS_FreeRTOS_seL4/osal/src/os/rtems/osfilesys.c ****     return ReturnCode;
 1586               	.loc 1 855 0
 1587 0d9a 202F 0004 	move.l 4(%sp),%d0
 1588               	.L107:
 856:/home/simulink/cFS_FreeRTOS_seL4/osal/src/os/rtems/osfilesys.c **** }/* end OS_FS_GetPhysDriveName */
 1589               	.loc 1 856 0
 1590 0d9e 508F      	addq.l #8,%sp
 1591 0da0 4E75      	rts
 1592               	.cfi_endproc
 1593               	.LFE287:
68K GAS   			page 48


 1594               	.sizeOS_FS_GetPhysDriveName, .-OS_FS_GetPhysDriveName
 1595               	.align2
 1596               	.globlOS_TranslatePath
 1597               	.typeOS_TranslatePath, @function
 1598               	OS_TranslatePath:
 1599               	.LFB288:
 857:/home/simulink/cFS_FreeRTOS_seL4/osal/src/os/rtems/osfilesys.c **** 
 858:/home/simulink/cFS_FreeRTOS_seL4/osal/src/os/rtems/osfilesys.c **** /*-------------------------------------------------------------------------------------
 859:/home/simulink/cFS_FreeRTOS_seL4/osal/src/os/rtems/osfilesys.c ****  * Name: OS_TranslatePath
 860:/home/simulink/cFS_FreeRTOS_seL4/osal/src/os/rtems/osfilesys.c ****  * 
 861:/home/simulink/cFS_FreeRTOS_seL4/osal/src/os/rtems/osfilesys.c ****  * Purpose: Because of the abstraction of the filesystem across OSes, we have to change
 862:/home/simulink/cFS_FreeRTOS_seL4/osal/src/os/rtems/osfilesys.c ****  *          the name of the {file, directory, drive} to be what the OS can actually 
 863:/home/simulink/cFS_FreeRTOS_seL4/osal/src/os/rtems/osfilesys.c ****  *          accept
 864:/home/simulink/cFS_FreeRTOS_seL4/osal/src/os/rtems/osfilesys.c **** ---------------------------------------------------------------------------------------*/
 865:/home/simulink/cFS_FreeRTOS_seL4/osal/src/os/rtems/osfilesys.c **** int32 OS_TranslatePath(const char *VirtualPath, char *LocalPath)
 866:/home/simulink/cFS_FreeRTOS_seL4/osal/src/os/rtems/osfilesys.c **** {
 1600               	.loc 1 866 0
 1601               	.cfi_startproc
 867:/home/simulink/cFS_FreeRTOS_seL4/osal/src/os/rtems/osfilesys.c ****     /*
 868:/home/simulink/cFS_FreeRTOS_seL4/osal/src/os/rtems/osfilesys.c ****     ** Check to see if the path pointers are NULL
 869:/home/simulink/cFS_FreeRTOS_seL4/osal/src/os/rtems/osfilesys.c ****     */
 870:/home/simulink/cFS_FreeRTOS_seL4/osal/src/os/rtems/osfilesys.c ****     if (VirtualPath == NULL)
 1602               	.loc 1 870 0
 1603 0da2 4AAF 0004 	tst.l 4(%sp)
 1604 0da6 6604      	jne .L118
 871:/home/simulink/cFS_FreeRTOS_seL4/osal/src/os/rtems/osfilesys.c ****     {
 872:/home/simulink/cFS_FreeRTOS_seL4/osal/src/os/rtems/osfilesys.c ****         return OS_FS_ERR_INVALID_POINTER;
 1605               	.loc 1 872 0
 1606 0da8 70FE      	moveq #-2,%d0
 1607 0daa 6068      	jra .L119
 1608               	.L118:
 873:/home/simulink/cFS_FreeRTOS_seL4/osal/src/os/rtems/osfilesys.c ****     }
 874:/home/simulink/cFS_FreeRTOS_seL4/osal/src/os/rtems/osfilesys.c **** 
 875:/home/simulink/cFS_FreeRTOS_seL4/osal/src/os/rtems/osfilesys.c ****     if (LocalPath == NULL)
 1609               	.loc 1 875 0
 1610 0dac 4AAF 0008 	tst.l 8(%sp)
 1611 0db0 6604      	jne .L120
 876:/home/simulink/cFS_FreeRTOS_seL4/osal/src/os/rtems/osfilesys.c ****     {
 877:/home/simulink/cFS_FreeRTOS_seL4/osal/src/os/rtems/osfilesys.c ****         return OS_FS_ERR_INVALID_POINTER;
 1612               	.loc 1 877 0
 1613 0db2 70FE      	moveq #-2,%d0
 1614 0db4 605E      	jra .L119
 1615               	.L120:
 878:/home/simulink/cFS_FreeRTOS_seL4/osal/src/os/rtems/osfilesys.c ****     }
 879:/home/simulink/cFS_FreeRTOS_seL4/osal/src/os/rtems/osfilesys.c **** 
 880:/home/simulink/cFS_FreeRTOS_seL4/osal/src/os/rtems/osfilesys.c ****     /*
 881:/home/simulink/cFS_FreeRTOS_seL4/osal/src/os/rtems/osfilesys.c ****     ** Check to see if the path is too long
 882:/home/simulink/cFS_FreeRTOS_seL4/osal/src/os/rtems/osfilesys.c ****     */
 883:/home/simulink/cFS_FreeRTOS_seL4/osal/src/os/rtems/osfilesys.c ****     if (strlen(VirtualPath) >= OS_MAX_PATH_LEN)
 1616               	.loc 1 883 0
 1617 0db6 2F2F 0004 	move.l 4(%sp),-(%sp)
 1618               	.cfi_def_cfa_offset 8
 1619 0dba 4EB9 0000 	jsr strlen
 1619      0000 
 1620 0dc0 588F      	addq.l #4,%sp
 1621               	.cfi_def_cfa_offset 4
 1622 0dc2 723F      	moveq #63,%d1
68K GAS   			page 49


 1623 0dc4 B280      	cmp.l %d0,%d1
 1624 0dc6 6404      	jcc .L121
 884:/home/simulink/cFS_FreeRTOS_seL4/osal/src/os/rtems/osfilesys.c ****     {
 885:/home/simulink/cFS_FreeRTOS_seL4/osal/src/os/rtems/osfilesys.c ****         return OS_FS_ERR_PATH_TOO_LONG;
 1625               	.loc 1 885 0
 1626 0dc8 7099      	moveq #-103,%d0
 1627 0dca 6048      	jra .L119
 1628               	.L121:
 886:/home/simulink/cFS_FreeRTOS_seL4/osal/src/os/rtems/osfilesys.c ****     }
 887:/home/simulink/cFS_FreeRTOS_seL4/osal/src/os/rtems/osfilesys.c **** 
 888:/home/simulink/cFS_FreeRTOS_seL4/osal/src/os/rtems/osfilesys.c ****     /*
 889:/home/simulink/cFS_FreeRTOS_seL4/osal/src/os/rtems/osfilesys.c ****     ** All valid Virtual paths must start with a '/' character
 890:/home/simulink/cFS_FreeRTOS_seL4/osal/src/os/rtems/osfilesys.c ****     */
 891:/home/simulink/cFS_FreeRTOS_seL4/osal/src/os/rtems/osfilesys.c ****     if ( VirtualPath[0] != '/' )
 1629               	.loc 1 891 0
 1630 0dcc 206F 0004 	move.l 4(%sp),%a0
 1631 0dd0 1010      	move.b (%a0),%d0
 1632 0dd2 49C0      	extb.l %d0
 1633 0dd4 722F      	moveq #47,%d1
 1634 0dd6 B280      	cmp.l %d0,%d1
 1635 0dd8 6704      	jeq .L122
 892:/home/simulink/cFS_FreeRTOS_seL4/osal/src/os/rtems/osfilesys.c ****     {
 893:/home/simulink/cFS_FreeRTOS_seL4/osal/src/os/rtems/osfilesys.c ****        return OS_FS_ERR_PATH_INVALID;
 1636               	.loc 1 893 0
 1637 0dda 7094      	moveq #-108,%d0
 1638 0ddc 6036      	jra .L119
 1639               	.L122:
 894:/home/simulink/cFS_FreeRTOS_seL4/osal/src/os/rtems/osfilesys.c ****     }
 895:/home/simulink/cFS_FreeRTOS_seL4/osal/src/os/rtems/osfilesys.c ****  
 896:/home/simulink/cFS_FreeRTOS_seL4/osal/src/os/rtems/osfilesys.c ****     /*
 897:/home/simulink/cFS_FreeRTOS_seL4/osal/src/os/rtems/osfilesys.c ****     ** In the RTEMS version of the OSAL, the virtual paths are the same
 898:/home/simulink/cFS_FreeRTOS_seL4/osal/src/os/rtems/osfilesys.c ****     ** as the physical paths. So translating a path is simply copying it over.
 899:/home/simulink/cFS_FreeRTOS_seL4/osal/src/os/rtems/osfilesys.c ****     */
 900:/home/simulink/cFS_FreeRTOS_seL4/osal/src/os/rtems/osfilesys.c ****     strncpy(LocalPath, VirtualPath, strlen(VirtualPath));
 1640               	.loc 1 900 0
 1641 0dde 2F2F 0004 	move.l 4(%sp),-(%sp)
 1642               	.cfi_def_cfa_offset 8
 1643 0de2 4EB9 0000 	jsr strlen
 1643      0000 
 1644 0de8 588F      	addq.l #4,%sp
 1645               	.cfi_def_cfa_offset 4
 1646 0dea 2F00      	move.l %d0,-(%sp)
 1647               	.cfi_def_cfa_offset 8
 1648 0dec 2F2F 0008 	move.l 8(%sp),-(%sp)
 1649               	.cfi_def_cfa_offset 12
 1650 0df0 2F2F 0010 	move.l 16(%sp),-(%sp)
 1651               	.cfi_def_cfa_offset 16
 1652 0df4 4EB9 0000 	jsr strncpy
 1652      0000 
 1653 0dfa 4FEF 000C 	lea (12,%sp),%sp
 1654               	.cfi_def_cfa_offset 4
 901:/home/simulink/cFS_FreeRTOS_seL4/osal/src/os/rtems/osfilesys.c ****     LocalPath[strlen(VirtualPath)] = '\0'; /* Truncate it with a NULL. */
 1655               	.loc 1 901 0
 1656 0dfe 2F2F 0004 	move.l 4(%sp),-(%sp)
 1657               	.cfi_def_cfa_offset 8
 1658 0e02 4EB9 0000 	jsr strlen
 1658      0000 
68K GAS   			page 50


 1659 0e08 588F      	addq.l #4,%sp
 1660               	.cfi_def_cfa_offset 4
 1661 0e0a 206F 0008 	move.l 8(%sp),%a0
 1662 0e0e D1C0      	add.l %d0,%a0
 1663 0e10 4210      	clr.b (%a0)
 902:/home/simulink/cFS_FreeRTOS_seL4/osal/src/os/rtems/osfilesys.c **** 
 903:/home/simulink/cFS_FreeRTOS_seL4/osal/src/os/rtems/osfilesys.c ****     #ifdef OS_DEBUG_PRINTF
 904:/home/simulink/cFS_FreeRTOS_seL4/osal/src/os/rtems/osfilesys.c ****        printf("VirtualPath: %s, Length: %d\n",VirtualPath, (int)strlen(VirtualPath));
 905:/home/simulink/cFS_FreeRTOS_seL4/osal/src/os/rtems/osfilesys.c ****        printf("LocalPath: %s, Length: %d\n",LocalPath, (int)strlen(LocalPath));
 906:/home/simulink/cFS_FreeRTOS_seL4/osal/src/os/rtems/osfilesys.c ****     #endif
 907:/home/simulink/cFS_FreeRTOS_seL4/osal/src/os/rtems/osfilesys.c **** 
 908:/home/simulink/cFS_FreeRTOS_seL4/osal/src/os/rtems/osfilesys.c ****     return OS_FS_SUCCESS;
 1664               	.loc 1 908 0
 1665 0e12 4280      	clr.l %d0
 1666               	.L119:
 909:/home/simulink/cFS_FreeRTOS_seL4/osal/src/os/rtems/osfilesys.c ****     
 910:/home/simulink/cFS_FreeRTOS_seL4/osal/src/os/rtems/osfilesys.c **** } /* end OS_TranslatePath */
 1667               	.loc 1 910 0
 1668 0e14 4E75      	rts
 1669               	.cfi_endproc
 1670               	.LFE288:
 1671               	.sizeOS_TranslatePath, .-OS_TranslatePath
 1672               	.align2
 1673               	.globlOS_FS_GetErrorName
 1674               	.typeOS_FS_GetErrorName, @function
 1675               	OS_FS_GetErrorName:
 1676               	.LFB289:
 911:/home/simulink/cFS_FreeRTOS_seL4/osal/src/os/rtems/osfilesys.c **** 
 912:/home/simulink/cFS_FreeRTOS_seL4/osal/src/os/rtems/osfilesys.c **** /*---------------------------------------------------------------------------------------
 913:/home/simulink/cFS_FreeRTOS_seL4/osal/src/os/rtems/osfilesys.c ****     Name: OS_FS_GetErrorName()
 914:/home/simulink/cFS_FreeRTOS_seL4/osal/src/os/rtems/osfilesys.c **** 
 915:/home/simulink/cFS_FreeRTOS_seL4/osal/src/os/rtems/osfilesys.c ****     Purpose: a handy debugging tool that will copy the name of the error code to a buffer
 916:/home/simulink/cFS_FreeRTOS_seL4/osal/src/os/rtems/osfilesys.c **** 
 917:/home/simulink/cFS_FreeRTOS_seL4/osal/src/os/rtems/osfilesys.c ****     Returns: OS_FS_ERROR if given error number is unknown
 918:/home/simulink/cFS_FreeRTOS_seL4/osal/src/os/rtems/osfilesys.c ****               OS_FS_SUCCESS if given error is found and copied to the buffer
 919:/home/simulink/cFS_FreeRTOS_seL4/osal/src/os/rtems/osfilesys.c **** --------------------------------------------------------------------------------------- */
 920:/home/simulink/cFS_FreeRTOS_seL4/osal/src/os/rtems/osfilesys.c **** int32 OS_FS_GetErrorName(int32 error_num, os_fs_err_name_t * err_name)
 921:/home/simulink/cFS_FreeRTOS_seL4/osal/src/os/rtems/osfilesys.c **** {
 1677               	.loc 1 921 0
 1678               	.cfi_startproc
 1679 0e16 4FEF FFD8 	lea (-40,%sp),%sp
 1680               	.cfi_def_cfa_offset 44
 922:/home/simulink/cFS_FreeRTOS_seL4/osal/src/os/rtems/osfilesys.c ****     /*
 923:/home/simulink/cFS_FreeRTOS_seL4/osal/src/os/rtems/osfilesys.c ****      * Implementation note for developers:
 924:/home/simulink/cFS_FreeRTOS_seL4/osal/src/os/rtems/osfilesys.c ****      *
 925:/home/simulink/cFS_FreeRTOS_seL4/osal/src/os/rtems/osfilesys.c ****      * The size of the string literals below (including the terminating null)
 926:/home/simulink/cFS_FreeRTOS_seL4/osal/src/os/rtems/osfilesys.c ****      * must fit into os_fs_err_name_t.  Always check the string length when
 927:/home/simulink/cFS_FreeRTOS_seL4/osal/src/os/rtems/osfilesys.c ****      * adding or modifying strings in this function.  If changing
 928:/home/simulink/cFS_FreeRTOS_seL4/osal/src/os/rtems/osfilesys.c ****      * os_fs_err_name_t then confirm these strings will fit.
 929:/home/simulink/cFS_FreeRTOS_seL4/osal/src/os/rtems/osfilesys.c ****      */
 930:/home/simulink/cFS_FreeRTOS_seL4/osal/src/os/rtems/osfilesys.c **** 
 931:/home/simulink/cFS_FreeRTOS_seL4/osal/src/os/rtems/osfilesys.c ****     os_fs_err_name_t local_name;
 932:/home/simulink/cFS_FreeRTOS_seL4/osal/src/os/rtems/osfilesys.c ****     int32            return_code;
 933:/home/simulink/cFS_FreeRTOS_seL4/osal/src/os/rtems/osfilesys.c **** 
 934:/home/simulink/cFS_FreeRTOS_seL4/osal/src/os/rtems/osfilesys.c ****     return_code = OS_FS_SUCCESS;
 1681               	.loc 1 934 0
 1682 0e1a 42AF 0024 	clr.l 36(%sp)
68K GAS   			page 51


 935:/home/simulink/cFS_FreeRTOS_seL4/osal/src/os/rtems/osfilesys.c ****     
 936:/home/simulink/cFS_FreeRTOS_seL4/osal/src/os/rtems/osfilesys.c ****     switch (error_num)
 1683               	.loc 1 936 0
 1684 0e1e 202F 002C 	move.l 44(%sp),%d0
 1685 0e22 0680 0000 	add.l #108,%d0
 1685      006C 
 1686 0e28 726C      	moveq #108,%d1
 1687 0e2a B280      	cmp.l %d0,%d1
 1688 0e2c 6500 033E 	jcs .L124
 1689 0e30 D080      	add.l %d0,%d0
 1690 0e32 2040      	move.l %d0,%a0
 1691 0e34 D1FC 0000 	add.l #.L126,%a0
 1691      0000 
 1692 0e3a 3010      	move.w (%a0),%d0
 1693 0e3c 48C0      	ext.l %d0
 1694 0e3e 4EFB 0802 	jmp %pc@(2,%d0:l)
 1695               	.balignw 2,0x284c
 1696               	.swbeg&109
 1697               	.L126:
 1698 0e42 020A      	.word .L125-.L126
 1699 0e44 02F4      	.word .L127-.L126
 1700 0e46 0246      	.word .L128-.L126
 1701 0e48 032A      	.word .L124-.L126
 1702 0e4a 019E      	.word .L129-.L126
 1703 0e4c 0164      	.word .L130-.L126
 1704 0e4e 032A      	.word .L124-.L126
 1705 0e50 032A      	.word .L124-.L126
 1706 0e52 032A      	.word .L124-.L126
 1707 0e54 032A      	.word .L124-.L126
 1708 0e56 032A      	.word .L124-.L126
 1709 0e58 032A      	.word .L124-.L126
 1710 0e5a 032A      	.word .L124-.L126
 1711 0e5c 032A      	.word .L124-.L126
 1712 0e5e 032A      	.word .L124-.L126
 1713 0e60 032A      	.word .L124-.L126
 1714 0e62 032A      	.word .L124-.L126
 1715 0e64 032A      	.word .L124-.L126
 1716 0e66 032A      	.word .L124-.L126
 1717 0e68 032A      	.word .L124-.L126
 1718 0e6a 032A      	.word .L124-.L126
 1719 0e6c 032A      	.word .L124-.L126
 1720 0e6e 032A      	.word .L124-.L126
 1721 0e70 032A      	.word .L124-.L126
 1722 0e72 032A      	.word .L124-.L126
 1723 0e74 032A      	.word .L124-.L126
 1724 0e76 032A      	.word .L124-.L126
 1725 0e78 032A      	.word .L124-.L126
 1726 0e7a 032A      	.word .L124-.L126
 1727 0e7c 032A      	.word .L124-.L126
 1728 0e7e 032A      	.word .L124-.L126
 1729 0e80 032A      	.word .L124-.L126
 1730 0e82 032A      	.word .L124-.L126
 1731 0e84 032A      	.word .L124-.L126
 1732 0e86 032A      	.word .L124-.L126
 1733 0e88 032A      	.word .L124-.L126
 1734 0e8a 032A      	.word .L124-.L126
 1735 0e8c 032A      	.word .L124-.L126
68K GAS   			page 52


 1736 0e8e 032A      	.word .L124-.L126
 1737 0e90 032A      	.word .L124-.L126
 1738 0e92 032A      	.word .L124-.L126
 1739 0e94 032A      	.word .L124-.L126
 1740 0e96 032A      	.word .L124-.L126
 1741 0e98 032A      	.word .L124-.L126
 1742 0e9a 032A      	.word .L124-.L126
 1743 0e9c 032A      	.word .L124-.L126
 1744 0e9e 032A      	.word .L124-.L126
 1745 0ea0 032A      	.word .L124-.L126
 1746 0ea2 032A      	.word .L124-.L126
 1747 0ea4 032A      	.word .L124-.L126
 1748 0ea6 032A      	.word .L124-.L126
 1749 0ea8 032A      	.word .L124-.L126
 1750 0eaa 032A      	.word .L124-.L126
 1751 0eac 032A      	.word .L124-.L126
 1752 0eae 032A      	.word .L124-.L126
 1753 0eb0 032A      	.word .L124-.L126
 1754 0eb2 032A      	.word .L124-.L126
 1755 0eb4 032A      	.word .L124-.L126
 1756 0eb6 032A      	.word .L124-.L126
 1757 0eb8 032A      	.word .L124-.L126
 1758 0eba 032A      	.word .L124-.L126
 1759 0ebc 032A      	.word .L124-.L126
 1760 0ebe 032A      	.word .L124-.L126
 1761 0ec0 032A      	.word .L124-.L126
 1762 0ec2 032A      	.word .L124-.L126
 1763 0ec4 032A      	.word .L124-.L126
 1764 0ec6 032A      	.word .L124-.L126
 1765 0ec8 032A      	.word .L124-.L126
 1766 0eca 032A      	.word .L124-.L126
 1767 0ecc 032A      	.word .L124-.L126
 1768 0ece 032A      	.word .L124-.L126
 1769 0ed0 032A      	.word .L124-.L126
 1770 0ed2 032A      	.word .L124-.L126
 1771 0ed4 032A      	.word .L124-.L126
 1772 0ed6 032A      	.word .L124-.L126
 1773 0ed8 032A      	.word .L124-.L126
 1774 0eda 032A      	.word .L124-.L126
 1775 0edc 032A      	.word .L124-.L126
 1776 0ede 032A      	.word .L124-.L126
 1777 0ee0 032A      	.word .L124-.L126
 1778 0ee2 01D8      	.word .L131-.L126
 1779 0ee4 032A      	.word .L124-.L126
 1780 0ee6 032A      	.word .L124-.L126
 1781 0ee8 032A      	.word .L124-.L126
 1782 0eea 032A      	.word .L124-.L126
 1783 0eec 032A      	.word .L124-.L126
 1784 0eee 032A      	.word .L124-.L126
 1785 0ef0 032A      	.word .L124-.L126
 1786 0ef2 032A      	.word .L124-.L126
 1787 0ef4 032A      	.word .L124-.L126
 1788 0ef6 032A      	.word .L124-.L126
 1789 0ef8 032A      	.word .L124-.L126
 1790 0efa 02C0      	.word .L132-.L126
 1791 0efc 032A      	.word .L124-.L126
 1792 0efe 0288      	.word .L133-.L126
68K GAS   			page 53


 1793 0f00 032A      	.word .L124-.L126
 1794 0f02 032A      	.word .L124-.L126
 1795 0f04 032A      	.word .L124-.L126
 1796 0f06 032A      	.word .L124-.L126
 1797 0f08 032A      	.word .L124-.L126
 1798 0f0a 032A      	.word .L124-.L126
 1799 0f0c 032A      	.word .L124-.L126
 1800 0f0e 032A      	.word .L124-.L126
 1801 0f10 032A      	.word .L124-.L126
 1802 0f12 032A      	.word .L124-.L126
 1803 0f14 032A      	.word .L124-.L126
 1804 0f16 0124      	.word .L134-.L126
 1805 0f18 0102      	.word .L135-.L126
 1806 0f1a 00DA      	.word .L136-.L126
 1807               	.L136:
 937:/home/simulink/cFS_FreeRTOS_seL4/osal/src/os/rtems/osfilesys.c ****     {
 938:/home/simulink/cFS_FreeRTOS_seL4/osal/src/os/rtems/osfilesys.c ****         case OS_FS_SUCCESS: 
 939:/home/simulink/cFS_FreeRTOS_seL4/osal/src/os/rtems/osfilesys.c ****             strcpy(local_name,"OS_FS_SUCCESS"); break;
 1808               	.loc 1 939 0
 1809 0f1c 200F      	move.l %sp,%d0
 1810 0f1e 5280      	addq.l #1,%d0
 1811 0f20 2040      	move.l %d0,%a0
 1812 0f22 20BC 4F53 	move.l #1330863942,(%a0)
 1812      5F46 
 1813 0f28 5888      	addq.l #4,%a0
 1814 0f2a 20BC 535F 	move.l #1398756181,(%a0)
 1814      5355 
 1815 0f30 5888      	addq.l #4,%a0
 1816 0f32 20BC 4343 	move.l #1128482131,(%a0)
 1816      4553 
 1817 0f38 5888      	addq.l #4,%a0
 1818 0f3a 30BC 5300 	move.w #21248,(%a0)
 1819 0f3e 5488      	addq.l #2,%a0
 1820 0f40 6000 0254 	jra .L137
 1821               	.L135:
 940:/home/simulink/cFS_FreeRTOS_seL4/osal/src/os/rtems/osfilesys.c ****         case OS_FS_ERROR: 
 941:/home/simulink/cFS_FreeRTOS_seL4/osal/src/os/rtems/osfilesys.c ****             strcpy(local_name,"OS_FS_ERROR"); break;
 1822               	.loc 1 941 0
 1823 0f44 200F      	move.l %sp,%d0
 1824 0f46 5280      	addq.l #1,%d0
 1825 0f48 2040      	move.l %d0,%a0
 1826 0f4a 20BC 4F53 	move.l #1330863942,(%a0)
 1826      5F46 
 1827 0f50 5888      	addq.l #4,%a0
 1828 0f52 20BC 535F 	move.l #1398752594,(%a0)
 1828      4552 
 1829 0f58 5888      	addq.l #4,%a0
 1830 0f5a 20BC 524F 	move.l #1380930048,(%a0)
 1830      5200 
 1831 0f60 5888      	addq.l #4,%a0
 1832 0f62 6000 0232 	jra .L137
 1833               	.L134:
 942:/home/simulink/cFS_FreeRTOS_seL4/osal/src/os/rtems/osfilesys.c ****         case OS_FS_ERR_INVALID_POINTER: 
 943:/home/simulink/cFS_FreeRTOS_seL4/osal/src/os/rtems/osfilesys.c ****             strcpy(local_name,"OS_FS_ERR_INVALID_POINTER"); break;
 1834               	.loc 1 943 0
 1835 0f66 200F      	move.l %sp,%d0
 1836 0f68 5280      	addq.l #1,%d0
68K GAS   			page 54


 1837 0f6a 2040      	move.l %d0,%a0
 1838 0f6c 20BC 4F53 	move.l #1330863942,(%a0)
 1838      5F46 
 1839 0f72 5888      	addq.l #4,%a0
 1840 0f74 20BC 535F 	move.l #1398752594,(%a0)
 1840      4552 
 1841 0f7a 5888      	addq.l #4,%a0
 1842 0f7c 20BC 525F 	move.l #1381976398,(%a0)
 1842      494E 
 1843 0f82 5888      	addq.l #4,%a0
 1844 0f84 20BC 5641 	move.l #1447119945,(%a0)
 1844      4C49 
 1845 0f8a 5888      	addq.l #4,%a0
 1846 0f8c 20BC 445F 	move.l #1147097167,(%a0)
 1846      504F 
 1847 0f92 5888      	addq.l #4,%a0
 1848 0f94 20BC 494E 	move.l #1229870149,(%a0)
 1848      5445 
 1849 0f9a 5888      	addq.l #4,%a0
 1850 0f9c 30BC 5200 	move.w #20992,(%a0)
 1851 0fa0 5488      	addq.l #2,%a0
 1852 0fa2 6000 01F2 	jra .L137
 1853               	.L130:
 944:/home/simulink/cFS_FreeRTOS_seL4/osal/src/os/rtems/osfilesys.c ****         case OS_FS_ERR_PATH_TOO_LONG: 
 945:/home/simulink/cFS_FreeRTOS_seL4/osal/src/os/rtems/osfilesys.c ****             strcpy(local_name,"OS_FS_ERR_PATH_TOO_LONG"); break;
 1854               	.loc 1 945 0
 1855 0fa6 200F      	move.l %sp,%d0
 1856 0fa8 5280      	addq.l #1,%d0
 1857 0faa 2040      	move.l %d0,%a0
 1858 0fac 20BC 4F53 	move.l #1330863942,(%a0)
 1858      5F46 
 1859 0fb2 5888      	addq.l #4,%a0
 1860 0fb4 20BC 535F 	move.l #1398752594,(%a0)
 1860      4552 
 1861 0fba 5888      	addq.l #4,%a0
 1862 0fbc 20BC 525F 	move.l #1381978177,(%a0)
 1862      5041 
 1863 0fc2 5888      	addq.l #4,%a0
 1864 0fc4 20BC 5448 	move.l #1414029140,(%a0)
 1864      5F54 
 1865 0fca 5888      	addq.l #4,%a0
 1866 0fcc 20BC 4F4F 	move.l #1330601804,(%a0)
 1866      5F4C 
 1867 0fd2 5888      	addq.l #4,%a0
 1868 0fd4 20BC 4F4E 	move.l #1330530048,(%a0)
 1868      4700 
 1869 0fda 5888      	addq.l #4,%a0
 1870 0fdc 6000 01B8 	jra .L137
 1871               	.L129:
 946:/home/simulink/cFS_FreeRTOS_seL4/osal/src/os/rtems/osfilesys.c ****         case OS_FS_ERR_NAME_TOO_LONG: 
 947:/home/simulink/cFS_FreeRTOS_seL4/osal/src/os/rtems/osfilesys.c ****             strcpy(local_name,"OS_FS_ERR_NAME_TOO_LONG"); break;
 1872               	.loc 1 947 0
 1873 0fe0 200F      	move.l %sp,%d0
 1874 0fe2 5280      	addq.l #1,%d0
 1875 0fe4 2040      	move.l %d0,%a0
 1876 0fe6 20BC 4F53 	move.l #1330863942,(%a0)
 1876      5F46 
68K GAS   			page 55


 1877 0fec 5888      	addq.l #4,%a0
 1878 0fee 20BC 535F 	move.l #1398752594,(%a0)
 1878      4552 
 1879 0ff4 5888      	addq.l #4,%a0
 1880 0ff6 20BC 525F 	move.l #1381977665,(%a0)
 1880      4E41 
 1881 0ffc 5888      	addq.l #4,%a0
 1882 0ffe 20BC 4D45 	move.l #1296392020,(%a0)
 1882      5F54 
 1883 1004 5888      	addq.l #4,%a0
 1884 1006 20BC 4F4F 	move.l #1330601804,(%a0)
 1884      5F4C 
 1885 100c 5888      	addq.l #4,%a0
 1886 100e 20BC 4F4E 	move.l #1330530048,(%a0)
 1886      4700 
 1887 1014 5888      	addq.l #4,%a0
 1888 1016 6000 017E 	jra .L137
 1889               	.L131:
 948:/home/simulink/cFS_FreeRTOS_seL4/osal/src/os/rtems/osfilesys.c ****         case OS_FS_UNIMPLEMENTED: 
 949:/home/simulink/cFS_FreeRTOS_seL4/osal/src/os/rtems/osfilesys.c ****             strcpy(local_name,"OS_FS_UNIMPLEMENTED"); break;
 1890               	.loc 1 949 0
 1891 101a 200F      	move.l %sp,%d0
 1892 101c 5280      	addq.l #1,%d0
 1893 101e 2040      	move.l %d0,%a0
 1894 1020 20BC 4F53 	move.l #1330863942,(%a0)
 1894      5F46 
 1895 1026 5888      	addq.l #4,%a0
 1896 1028 20BC 535F 	move.l #1398756686,(%a0)
 1896      554E 
 1897 102e 5888      	addq.l #4,%a0
 1898 1030 20BC 494D 	move.l #1229803596,(%a0)
 1898      504C 
 1899 1036 5888      	addq.l #4,%a0
 1900 1038 20BC 454D 	move.l #1162691918,(%a0)
 1900      454E 
 1901 103e 5888      	addq.l #4,%a0
 1902 1040 20BC 5445 	move.l #1413825536,(%a0)
 1902      4400 
 1903 1046 5888      	addq.l #4,%a0
 1904 1048 6000 014C 	jra .L137
 1905               	.L125:
 950:/home/simulink/cFS_FreeRTOS_seL4/osal/src/os/rtems/osfilesys.c ****         case OS_FS_ERR_PATH_INVALID:
 951:/home/simulink/cFS_FreeRTOS_seL4/osal/src/os/rtems/osfilesys.c ****             strcpy(local_name,"OS_FS_ERR_PATH_INVALID"); break;
 1906               	.loc 1 951 0
 1907 104c 200F      	move.l %sp,%d0
 1908 104e 5280      	addq.l #1,%d0
 1909 1050 2040      	move.l %d0,%a0
 1910 1052 20BC 4F53 	move.l #1330863942,(%a0)
 1910      5F46 
 1911 1058 5888      	addq.l #4,%a0
 1912 105a 20BC 535F 	move.l #1398752594,(%a0)
 1912      4552 
 1913 1060 5888      	addq.l #4,%a0
 1914 1062 20BC 525F 	move.l #1381978177,(%a0)
 1914      5041 
 1915 1068 5888      	addq.l #4,%a0
 1916 106a 20BC 5448 	move.l #1414029129,(%a0)
68K GAS   			page 56


 1916      5F49 
 1917 1070 5888      	addq.l #4,%a0
 1918 1072 20BC 4E56 	move.l #1314275660,(%a0)
 1918      414C 
 1919 1078 5888      	addq.l #4,%a0
 1920 107a 30BC 4944 	move.w #18756,(%a0)
 1921 107e 5488      	addq.l #2,%a0
 1922 1080 4210      	clr.b (%a0)
 1923 1082 5288      	addq.l #1,%a0
 1924 1084 6000 0110 	jra .L137
 1925               	.L128:
 952:/home/simulink/cFS_FreeRTOS_seL4/osal/src/os/rtems/osfilesys.c ****         case OS_FS_ERR_DRIVE_NOT_CREATED: 
 953:/home/simulink/cFS_FreeRTOS_seL4/osal/src/os/rtems/osfilesys.c ****             strcpy(local_name,"OS_FS_ERR_DRIVE_NOT_CREATED"); break;
 1926               	.loc 1 953 0
 1927 1088 200F      	move.l %sp,%d0
 1928 108a 5280      	addq.l #1,%d0
 1929 108c 2040      	move.l %d0,%a0
 1930 108e 20BC 4F53 	move.l #1330863942,(%a0)
 1930      5F46 
 1931 1094 5888      	addq.l #4,%a0
 1932 1096 20BC 535F 	move.l #1398752594,(%a0)
 1932      4552 
 1933 109c 5888      	addq.l #4,%a0
 1934 109e 20BC 525F 	move.l #1381975122,(%a0)
 1934      4452 
 1935 10a4 5888      	addq.l #4,%a0
 1936 10a6 20BC 4956 	move.l #1230390623,(%a0)
 1936      455F 
 1937 10ac 5888      	addq.l #4,%a0
 1938 10ae 20BC 4E4F 	move.l #1313821791,(%a0)
 1938      545F 
 1939 10b4 5888      	addq.l #4,%a0
 1940 10b6 20BC 4352 	move.l #1129465153,(%a0)
 1940      4541 
 1941 10bc 5888      	addq.l #4,%a0
 1942 10be 20BC 5445 	move.l #1413825536,(%a0)
 1942      4400 
 1943 10c4 5888      	addq.l #4,%a0
 1944 10c6 6000 00CE 	jra .L137
 1945               	.L133:
 954:/home/simulink/cFS_FreeRTOS_seL4/osal/src/os/rtems/osfilesys.c ****         case OS_FS_ERR_NO_FREE_FDS: 
 955:/home/simulink/cFS_FreeRTOS_seL4/osal/src/os/rtems/osfilesys.c ****             strcpy(local_name,"OS_FS_ERR_NO_FREE_FDS"); break;
 1946               	.loc 1 955 0
 1947 10ca 200F      	move.l %sp,%d0
 1948 10cc 5280      	addq.l #1,%d0
 1949 10ce 2040      	move.l %d0,%a0
 1950 10d0 20BC 4F53 	move.l #1330863942,(%a0)
 1950      5F46 
 1951 10d6 5888      	addq.l #4,%a0
 1952 10d8 20BC 535F 	move.l #1398752594,(%a0)
 1952      4552 
 1953 10de 5888      	addq.l #4,%a0
 1954 10e0 20BC 525F 	move.l #1381977679,(%a0)
 1954      4E4F 
 1955 10e6 5888      	addq.l #4,%a0
 1956 10e8 20BC 5F46 	move.l #1598444101,(%a0)
 1956      5245 
68K GAS   			page 57


 1957 10ee 5888      	addq.l #4,%a0
 1958 10f0 20BC 455F 	move.l #1163871812,(%a0)
 1958      4644 
 1959 10f6 5888      	addq.l #4,%a0
 1960 10f8 30BC 5300 	move.w #21248,(%a0)
 1961 10fc 5488      	addq.l #2,%a0
 1962 10fe 6000 0096 	jra .L137
 1963               	.L132:
 956:/home/simulink/cFS_FreeRTOS_seL4/osal/src/os/rtems/osfilesys.c ****         case OS_FS_ERR_INVALID_FD: 
 957:/home/simulink/cFS_FreeRTOS_seL4/osal/src/os/rtems/osfilesys.c ****             strcpy(local_name,"OS_FS_ERR_INVALID_FD"); break;
 1964               	.loc 1 957 0
 1965 1102 200F      	move.l %sp,%d0
 1966 1104 5280      	addq.l #1,%d0
 1967 1106 2040      	move.l %d0,%a0
 1968 1108 20BC 4F53 	move.l #1330863942,(%a0)
 1968      5F46 
 1969 110e 5888      	addq.l #4,%a0
 1970 1110 20BC 535F 	move.l #1398752594,(%a0)
 1970      4552 
 1971 1116 5888      	addq.l #4,%a0
 1972 1118 20BC 525F 	move.l #1381976398,(%a0)
 1972      494E 
 1973 111e 5888      	addq.l #4,%a0
 1974 1120 20BC 5641 	move.l #1447119945,(%a0)
 1974      4C49 
 1975 1126 5888      	addq.l #4,%a0
 1976 1128 20BC 445F 	move.l #1147094596,(%a0)
 1976      4644 
 1977 112e 5888      	addq.l #4,%a0
 1978 1130 4210      	clr.b (%a0)
 1979 1132 5288      	addq.l #1,%a0
 1980 1134 6060      	jra .L137
 1981               	.L127:
 958:/home/simulink/cFS_FreeRTOS_seL4/osal/src/os/rtems/osfilesys.c ****         case OS_FS_ERR_DEVICE_NOT_FREE: 
 959:/home/simulink/cFS_FreeRTOS_seL4/osal/src/os/rtems/osfilesys.c ****             strcpy(local_name,"OS_FS_DEVICE_NOT_FREE"); break;
 1982               	.loc 1 959 0
 1983 1136 200F      	move.l %sp,%d0
 1984 1138 5280      	addq.l #1,%d0
 1985 113a 2040      	move.l %d0,%a0
 1986 113c 20BC 4F53 	move.l #1330863942,(%a0)
 1986      5F46 
 1987 1142 5888      	addq.l #4,%a0
 1988 1144 20BC 535F 	move.l #1398752325,(%a0)
 1988      4445 
 1989 114a 5888      	addq.l #4,%a0
 1990 114c 20BC 5649 	move.l #1447641925,(%a0)
 1990      4345 
 1991 1152 5888      	addq.l #4,%a0
 1992 1154 20BC 5F4E 	move.l #1598967636,(%a0)
 1992      4F54 
 1993 115a 5888      	addq.l #4,%a0
 1994 115c 20BC 5F46 	move.l #1598444101,(%a0)
 1994      5245 
 1995 1162 5888      	addq.l #4,%a0
 1996 1164 30BC 4500 	move.w #17664,(%a0)
 1997 1168 5488      	addq.l #2,%a0
 1998 116a 602A      	jra .L137
68K GAS   			page 58


 1999               	.L124:
 960:/home/simulink/cFS_FreeRTOS_seL4/osal/src/os/rtems/osfilesys.c ****         default: strcpy(local_name,"ERROR_UNKNOWN");
 2000               	.loc 1 960 0
 2001 116c 200F      	move.l %sp,%d0
 2002 116e 5280      	addq.l #1,%d0
 2003 1170 2040      	move.l %d0,%a0
 2004 1172 20BC 4552 	move.l #1163022927,(%a0)
 2004      524F 
 2005 1178 5888      	addq.l #4,%a0
 2006 117a 20BC 525F 	move.l #1381979470,(%a0)
 2006      554E 
 2007 1180 5888      	addq.l #4,%a0
 2008 1182 20BC 4B4E 	move.l #1263423319,(%a0)
 2008      4F57 
 2009 1188 5888      	addq.l #4,%a0
 2010 118a 30BC 4E00 	move.w #19968,(%a0)
 2011 118e 5488      	addq.l #2,%a0
 961:/home/simulink/cFS_FreeRTOS_seL4/osal/src/os/rtems/osfilesys.c ****             return_code = OS_FS_ERROR;
 2012               	.loc 1 961 0
 2013 1190 70FF      	moveq #-1,%d0
 2014 1192 2F40 0024 	move.l %d0,36(%sp)
 2015               	.L137:
 962:/home/simulink/cFS_FreeRTOS_seL4/osal/src/os/rtems/osfilesys.c ****     }
 963:/home/simulink/cFS_FreeRTOS_seL4/osal/src/os/rtems/osfilesys.c ****     strcpy((char*) err_name, local_name);
 2016               	.loc 1 963 0
 2017 1196 200F      	move.l %sp,%d0
 2018 1198 5280      	addq.l #1,%d0
 2019 119a 2F00      	move.l %d0,-(%sp)
 2020               	.cfi_def_cfa_offset 48
 2021 119c 2F2F 0034 	move.l 52(%sp),-(%sp)
 2022               	.cfi_def_cfa_offset 52
 2023 11a0 4EB9 0000 	jsr strcpy
 2023      0000 
 2024 11a6 508F      	addq.l #8,%sp
 2025               	.cfi_def_cfa_offset 44
 964:/home/simulink/cFS_FreeRTOS_seL4/osal/src/os/rtems/osfilesys.c ****     return return_code;
 2026               	.loc 1 964 0
 2027 11a8 202F 0024 	move.l 36(%sp),%d0
 965:/home/simulink/cFS_FreeRTOS_seL4/osal/src/os/rtems/osfilesys.c **** }
 2028               	.loc 1 965 0
 2029 11ac 4FEF 0028 	lea (40,%sp),%sp
 2030 11b0 4E75      	rts
 2031               	.cfi_endproc
 2032               	.LFE289:
 2033               	.sizeOS_FS_GetErrorName, .-OS_FS_GetErrorName
 2034               	.align2
 2035               	.globlOS_GetFsInfo
 2036               	.typeOS_GetFsInfo, @function
 2037               	OS_GetFsInfo:
 2038               	.LFB290:
 966:/home/simulink/cFS_FreeRTOS_seL4/osal/src/os/rtems/osfilesys.c **** 
 967:/home/simulink/cFS_FreeRTOS_seL4/osal/src/os/rtems/osfilesys.c **** /*--------------------------------------------------------------------------------------
 968:/home/simulink/cFS_FreeRTOS_seL4/osal/src/os/rtems/osfilesys.c ****      Name: OS_GetFsInfo
 969:/home/simulink/cFS_FreeRTOS_seL4/osal/src/os/rtems/osfilesys.c ****        
 970:/home/simulink/cFS_FreeRTOS_seL4/osal/src/os/rtems/osfilesys.c ****      Purpose: returns information about the file system in an os_fsinfo_t
 971:/home/simulink/cFS_FreeRTOS_seL4/osal/src/os/rtems/osfilesys.c ****          
 972:/home/simulink/cFS_FreeRTOS_seL4/osal/src/os/rtems/osfilesys.c ****      Returns: OS_FS_ERR_INVALID_POINTER if filesys_info is NULL
68K GAS   			page 59


 973:/home/simulink/cFS_FreeRTOS_seL4/osal/src/os/rtems/osfilesys.c ****               OS_FS_SUCCESS if success
 974:/home/simulink/cFS_FreeRTOS_seL4/osal/src/os/rtems/osfilesys.c **** 
 975:/home/simulink/cFS_FreeRTOS_seL4/osal/src/os/rtems/osfilesys.c ****               Note: The information returned is in the structure pointed to by filesys_info        
 976:/home/simulink/cFS_FreeRTOS_seL4/osal/src/os/rtems/osfilesys.c **** ---------------------------------------------------------------------------------------*/
 977:/home/simulink/cFS_FreeRTOS_seL4/osal/src/os/rtems/osfilesys.c **** int32 OS_GetFsInfo(os_fsinfo_t  *filesys_info)
 978:/home/simulink/cFS_FreeRTOS_seL4/osal/src/os/rtems/osfilesys.c **** {
 2039               	.loc 1 978 0
 2040               	.cfi_startproc
 2041 11b2 598F      	subq.l #4,%sp
 2042               	.cfi_def_cfa_offset 8
 979:/home/simulink/cFS_FreeRTOS_seL4/osal/src/os/rtems/osfilesys.c ****    int i;
 980:/home/simulink/cFS_FreeRTOS_seL4/osal/src/os/rtems/osfilesys.c ****  
 981:/home/simulink/cFS_FreeRTOS_seL4/osal/src/os/rtems/osfilesys.c ****    /*
 982:/home/simulink/cFS_FreeRTOS_seL4/osal/src/os/rtems/osfilesys.c ****    ** Check to see if the file pointers are NULL
 983:/home/simulink/cFS_FreeRTOS_seL4/osal/src/os/rtems/osfilesys.c ****    */
 984:/home/simulink/cFS_FreeRTOS_seL4/osal/src/os/rtems/osfilesys.c ****    if (filesys_info == NULL)
 2043               	.loc 1 984 0
 2044 11b4 4AAF 0008 	tst.l 8(%sp)
 2045 11b8 6606      	jne .L140
 985:/home/simulink/cFS_FreeRTOS_seL4/osal/src/os/rtems/osfilesys.c ****    {
 986:/home/simulink/cFS_FreeRTOS_seL4/osal/src/os/rtems/osfilesys.c ****        return OS_FS_ERR_INVALID_POINTER;
 2046               	.loc 1 986 0
 2047 11ba 70FE      	moveq #-2,%d0
 2048 11bc 6000 009E 	jra .L141
 2049               	.L140:
 987:/home/simulink/cFS_FreeRTOS_seL4/osal/src/os/rtems/osfilesys.c ****    }
 988:/home/simulink/cFS_FreeRTOS_seL4/osal/src/os/rtems/osfilesys.c **** 
 989:/home/simulink/cFS_FreeRTOS_seL4/osal/src/os/rtems/osfilesys.c ****    filesys_info->MaxFds = OS_MAX_NUM_OPEN_FILES;
 2050               	.loc 1 989 0
 2051 11c0 206F 0008 	move.l 8(%sp),%a0
 2052 11c4 20BC 0000 	move.l #50,(%a0)
 2052      0032 
 990:/home/simulink/cFS_FreeRTOS_seL4/osal/src/os/rtems/osfilesys.c ****    filesys_info->MaxVolumes = NUM_TABLE_ENTRIES;
 2053               	.loc 1 990 0
 2054 11ca 206F 0008 	move.l 8(%sp),%a0
 2055 11ce 700E      	moveq #14,%d0
 2056 11d0 2140 0008 	move.l %d0,8(%a0)
 991:/home/simulink/cFS_FreeRTOS_seL4/osal/src/os/rtems/osfilesys.c ****  
 992:/home/simulink/cFS_FreeRTOS_seL4/osal/src/os/rtems/osfilesys.c ****    filesys_info->FreeFds = 0;
 2057               	.loc 1 992 0
 2058 11d4 206F 0008 	move.l 8(%sp),%a0
 2059 11d8 42A8 0004 	clr.l 4(%a0)
 993:/home/simulink/cFS_FreeRTOS_seL4/osal/src/os/rtems/osfilesys.c ****    for ( i = 0; i < OS_MAX_NUM_OPEN_FILES; i++ )
 2060               	.loc 1 993 0
 2061 11dc 4297      	clr.l (%sp)
 2062 11de 602A      	jra .L142
 2063               	.L144:
 994:/home/simulink/cFS_FreeRTOS_seL4/osal/src/os/rtems/osfilesys.c ****    {
 995:/home/simulink/cFS_FreeRTOS_seL4/osal/src/os/rtems/osfilesys.c ****       if ( OS_FDTable[i].IsValid == FALSE)
 2064               	.loc 1 995 0
 2065 11e0 2017      	move.l (%sp),%d0
 2066 11e2 724C      	moveq #76,%d1
 2067 11e4 4C01 0800 	muls.l %d1,%d0
 2068 11e8 41F9 0000 	lea OS_FDTable+72,%a0
 2068      0000 
 2069 11ee 1030 0800 	move.b (%a0,%d0.l),%d0
 2070 11f2 4A00      	tst.b %d0
68K GAS   			page 60


 2071 11f4 6612      	jne .L143
 996:/home/simulink/cFS_FreeRTOS_seL4/osal/src/os/rtems/osfilesys.c ****       {
 997:/home/simulink/cFS_FreeRTOS_seL4/osal/src/os/rtems/osfilesys.c ****          filesys_info->FreeFds++;
 2072               	.loc 1 997 0
 2073 11f6 206F 0008 	move.l 8(%sp),%a0
 2074 11fa 2028 0004 	move.l 4(%a0),%d0
 2075 11fe 5280      	addq.l #1,%d0
 2076 1200 206F 0008 	move.l 8(%sp),%a0
 2077 1204 2140 0004 	move.l %d0,4(%a0)
 2078               	.L143:
 993:/home/simulink/cFS_FreeRTOS_seL4/osal/src/os/rtems/osfilesys.c ****    {
 2079               	.loc 1 993 0 discriminator 2
 2080 1208 5297      	addq.l #1,(%sp)
 2081               	.L142:
 993:/home/simulink/cFS_FreeRTOS_seL4/osal/src/os/rtems/osfilesys.c ****    {
 2082               	.loc 1 993 0 is_stmt 0 discriminator 1
 2083 120a 7031      	moveq #49,%d0
 2084 120c B097      	cmp.l (%sp),%d0
 2085 120e 6CD0      	jge .L144
 998:/home/simulink/cFS_FreeRTOS_seL4/osal/src/os/rtems/osfilesys.c ****       }       
 999:/home/simulink/cFS_FreeRTOS_seL4/osal/src/os/rtems/osfilesys.c **** 
1000:/home/simulink/cFS_FreeRTOS_seL4/osal/src/os/rtems/osfilesys.c ****    }
1001:/home/simulink/cFS_FreeRTOS_seL4/osal/src/os/rtems/osfilesys.c **** 
1002:/home/simulink/cFS_FreeRTOS_seL4/osal/src/os/rtems/osfilesys.c ****    filesys_info->FreeVolumes = 0;
 2086               	.loc 1 1002 0 is_stmt 1
 2087 1210 206F 0008 	move.l 8(%sp),%a0
 2088 1214 42A8 000C 	clr.l 12(%a0)
1003:/home/simulink/cFS_FreeRTOS_seL4/osal/src/os/rtems/osfilesys.c ****    for ( i = 0; i < NUM_TABLE_ENTRIES; i++ )
 2089               	.loc 1 1003 0
 2090 1218 4297      	clr.l (%sp)
 2091 121a 6038      	jra .L145
 2092               	.L147:
1004:/home/simulink/cFS_FreeRTOS_seL4/osal/src/os/rtems/osfilesys.c ****    {
1005:/home/simulink/cFS_FreeRTOS_seL4/osal/src/os/rtems/osfilesys.c ****       if (OS_VolumeTable[i].FreeFlag == TRUE )
 2093               	.loc 1 1005 0
 2094 121c 2017      	move.l (%sp),%d0
 2095 121e 223C 0000 	move.l #204,%d1
 2095      00CC 
 2096 1224 4C01 0800 	muls.l %d1,%d0
 2097 1228 41F9 0000 	lea OS_VolumeTable+101,%a0
 2097      0000 
 2098 122e 1030 0800 	move.b (%a0,%d0.l),%d0
 2099 1232 1000      	move.b %d0,%d0
 2100 1234 0280 0000 	and.l #255,%d0
 2100      00FF 
 2101 123a 7201      	moveq #1,%d1
 2102 123c B280      	cmp.l %d0,%d1
 2103 123e 6612      	jne .L146
1006:/home/simulink/cFS_FreeRTOS_seL4/osal/src/os/rtems/osfilesys.c ****       {
1007:/home/simulink/cFS_FreeRTOS_seL4/osal/src/os/rtems/osfilesys.c ****          filesys_info->FreeVolumes++;
 2104               	.loc 1 1007 0
 2105 1240 206F 0008 	move.l 8(%sp),%a0
 2106 1244 2028 000C 	move.l 12(%a0),%d0
 2107 1248 5280      	addq.l #1,%d0
 2108 124a 206F 0008 	move.l 8(%sp),%a0
 2109 124e 2140 000C 	move.l %d0,12(%a0)
 2110               	.L146:
68K GAS   			page 61


1003:/home/simulink/cFS_FreeRTOS_seL4/osal/src/os/rtems/osfilesys.c ****    {
 2111               	.loc 1 1003 0 discriminator 2
 2112 1252 5297      	addq.l #1,(%sp)
 2113               	.L145:
1003:/home/simulink/cFS_FreeRTOS_seL4/osal/src/os/rtems/osfilesys.c ****    {
 2114               	.loc 1 1003 0 is_stmt 0 discriminator 1
 2115 1254 700D      	moveq #13,%d0
 2116 1256 B097      	cmp.l (%sp),%d0
 2117 1258 6CC2      	jge .L147
1008:/home/simulink/cFS_FreeRTOS_seL4/osal/src/os/rtems/osfilesys.c ****       }
1009:/home/simulink/cFS_FreeRTOS_seL4/osal/src/os/rtems/osfilesys.c ****    }
1010:/home/simulink/cFS_FreeRTOS_seL4/osal/src/os/rtems/osfilesys.c **** 
1011:/home/simulink/cFS_FreeRTOS_seL4/osal/src/os/rtems/osfilesys.c ****    return(OS_FS_SUCCESS);
 2118               	.loc 1 1011 0 is_stmt 1
 2119 125a 4280      	clr.l %d0
 2120               	.L141:
1012:/home/simulink/cFS_FreeRTOS_seL4/osal/src/os/rtems/osfilesys.c **** }
 2121               	.loc 1 1012 0
 2122 125c 588F      	addq.l #4,%sp
 2123 125e 4E75      	rts
 2124               	.cfi_endproc
 2125               	.LFE290:
 2126               	.sizeOS_GetFsInfo, .-OS_GetFsInfo
 2127               	.Letext0:
 2128               	.file 2 "/home/simulink/development/rtems/5/m68k-rtems5/include/machine/_default_types.h"
 2129               	.file 3 "/home/simulink/development/rtems/5/lib/gcc/m68k-rtems5/7.3.0/include/stddef.h"
 2130               	.file 4 "/home/simulink/development/rtems/5/m68k-rtems5/include/machine/_types.h"
 2131               	.file 5 "/home/simulink/development/rtems/5/m68k-rtems5/include/sys/lock.h"
 2132               	.file 6 "/home/simulink/development/rtems/rtems-build/m68k-rtems5/mcf5235/lib/include/rtems/score/threadq.h"
 2133               	.file 7 "/home/simulink/development/rtems/rtems-build/m68k-rtems5/mcf5235/lib/include/rtems/score/thread.h"
 2134               	.file 8 "/home/simulink/development/rtems/5/m68k-rtems5/include/sys/_types.h"
 2135               	.file 9 "/home/simulink/development/rtems/5/m68k-rtems5/include/sys/reent.h"
 2136               	.file 10 "/home/simulink/development/rtems/5/m68k-rtems5/include/sys/_stdint.h"
 2137               	.file 11 "/home/simulink/development/rtems/5/m68k-rtems5/include/sys/_timeval.h"
 2138               	.file 12 "/home/simulink/development/rtems/5/m68k-rtems5/include/sys/_timespec.h"
 2139               	.file 13 "/home/simulink/development/rtems/5/m68k-rtems5/include/sys/types.h"
 2140               	.file 14 "/home/simulink/development/rtems/rtems-build/m68k-rtems5/mcf5235/lib/include/rtems/score/scheduler.h"
 2141               	.file 15 "/home/simulink/development/rtems/5/m68k-rtems5/include/stdlib.h"
 2142               	.file 16 "/home/simulink/development/rtems/5/m68k-rtems5/include/time.h"
 2143               	.file 17 "/home/simulink/development/rtems/5/m68k-rtems5/include/sys/stat.h"
 2144               	.file 18 "/home/simulink/development/rtems/5/m68k-rtems5/include/sys/unistd.h"
 2145               	.file 19 "/home/simulink/development/rtems/5/m68k-rtems5/include/sys/errno.h"
 2146               	.file 20 "/home/simulink/development/rtems/rtems-build/m68k-rtems5/mcf5235/lib/include/sys/statvfs.h"
 2147               	.file 21 "/home/simulink/development/rtems/rtems-build/m68k-rtems5/mcf5235/lib/include/rtems/score/types.h"
 2148               	.file 22 "/home/simulink/development/rtems/rtems-build/m68k-rtems5/mcf5235/lib/include/rtems/score/m68k.h"
 2149               	.file 23 "/home/simulink/development/rtems/rtems-build/m68k-rtems5/mcf5235/lib/include/rtems/score/cpu.h"
 2150               	.file 24 "/home/simulink/development/rtems/rtems-build/m68k-rtems5/mcf5235/lib/include/rtems/system.h"
 2151               	.file 25 "/home/simulink/development/rtems/rtems-build/m68k-rtems5/mcf5235/lib/include/rtems/rtems/status.h"
 2152               	.file 26 "/home/simulink/development/rtems/rtems-build/m68k-rtems5/mcf5235/lib/include/rtems/score/isrlevel.h"
 2153               	.file 27 "/home/simulink/development/rtems/rtems-build/m68k-rtems5/mcf5235/lib/include/rtems/score/cpustdatomic.h"
 2154               	.file 28 "/home/simulink/development/rtems/rtems-build/m68k-rtems5/mcf5235/lib/include/rtems/score/atomic.h"
 2155               	.file 29 "/home/simulink/development/rtems/rtems-build/m68k-rtems5/mcf5235/lib/include/rtems/score/isrlock.h"
 2156               	.file 30 "/home/simulink/development/rtems/rtems-build/m68k-rtems5/mcf5235/lib/include/rtems/score/chain.h"
 2157               	.file 31 "/home/simulink/development/rtems/rtems-build/m68k-rtems5/mcf5235/lib/include/rtems/score/rbtree.h"
 2158               	.file 32 "/home/simulink/development/rtems/rtems-build/m68k-rtems5/mcf5235/lib/include/rtems/score/object.h"
 2159               	.file 33 "/home/simulink/development/rtems/rtems-build/m68k-rtems5/mcf5235/lib/include/rtems/score/priority.h"
 2160               	.file 34 "/home/simulink/development/rtems/rtems-build/m68k-rtems5/mcf5235/lib/include/rtems/score/schedulernode.h"
68K GAS   			page 62


 2161               	.file 35 "/home/simulink/development/rtems/rtems-build/m68k-rtems5/mcf5235/lib/include/rtems/score/stack.h"
 2162               	.file 36 "/home/simulink/development/rtems/rtems-build/m68k-rtems5/mcf5235/lib/include/rtems/score/states.h"
 2163               	.file 37 "/home/simulink/development/rtems/rtems-build/m68k-rtems5/mcf5235/lib/include/rtems/score/watchdog.h"
 2164               	.file 38 "/home/simulink/development/rtems/5/m68k-rtems5/include/sys/time.h"
 2165               	.file 39 "/home/simulink/development/rtems/rtems-build/m68k-rtems5/mcf5235/lib/include/rtems/score/timestamp.h"
 2166               	.file 40 "/home/simulink/development/rtems/rtems-build/m68k-rtems5/mcf5235/lib/include/rtems/rtems/modes.h"
 2167               	.file 41 "/home/simulink/development/rtems/rtems-build/m68k-rtems5/mcf5235/lib/include/rtems/rtems/types.h"
 2168               	.file 42 "/home/simulink/development/rtems/rtems-build/m68k-rtems5/mcf5235/lib/include/rtems/posix/config.h"
 2169               	.file 43 "/home/simulink/development/rtems/rtems-build/m68k-rtems5/mcf5235/lib/include/rtems/rtems/attr.h"
 2170               	.file 44 "/home/simulink/development/rtems/rtems-build/m68k-rtems5/mcf5235/lib/include/rtems/rtems/tasks.h"
 2171               	.file 45 "/home/simulink/development/rtems/rtems-build/m68k-rtems5/mcf5235/lib/include/rtems/rtems/config.h"
 2172               	.file 46 "/home/simulink/development/rtems/rtems-build/m68k-rtems5/mcf5235/lib/include/rtems/score/interr.h"
 2173               	.file 47 "/home/simulink/development/rtems/rtems-build/m68k-rtems5/mcf5235/lib/include/rtems/score/userext.h"
 2174               	.file 48 "/home/simulink/development/rtems/rtems-build/m68k-rtems5/mcf5235/lib/include/rtems/extension.h"
 2175               	.file 49 "/home/simulink/development/rtems/rtems-build/m68k-rtems5/mcf5235/lib/include/rtems/config.h"
 2176               	.file 50 "/home/simulink/development/rtems/rtems-build/m68k-rtems5/mcf5235/lib/include/rtems/score/isr.h"
 2177               	.file 51 "/home/simulink/development/rtems/rtems-build/m68k-rtems5/mcf5235/lib/include/sys/timetc.h"
 2178               	.file 52 "/home/simulink/development/rtems/rtems-build/m68k-rtems5/mcf5235/lib/include/machine/_timecounter.h"
 2179               	.file 53 "/home/simulink/development/rtems/rtems-build/m68k-rtems5/mcf5235/lib/include/rtems/score/timecounter.h"
 2180               	.file 54 "/home/simulink/development/rtems/rtems-build/m68k-rtems5/mcf5235/lib/include/rtems/io.h"
 2181               	.file 55 "/home/simulink/development/rtems/5/m68k-rtems5/include/sys/ioccom.h"
 2182               	.file 56 "/home/simulink/development/rtems/5/m68k-rtems5/include/sys/_iovec.h"
 2183               	.file 57 "/home/simulink/development/rtems/rtems-build/m68k-rtems5/mcf5235/lib/include/rtems/chain.h"
 2184               	.file 58 "/home/simulink/development/rtems/rtems-build/m68k-rtems5/mcf5235/lib/include/rtems/fs.h"
 2185               	.file 59 "/home/simulink/development/rtems/rtems-build/m68k-rtems5/mcf5235/lib/include/rtems/libio.h"
 2186               	.file 60 "/home/simulink/development/rtems/rtems-build/m68k-rtems5/mcf5235/lib/include/rtems/diskdevs.h"
 2187               	.file 61 "/home/simulink/development/rtems/rtems-build/m68k-rtems5/mcf5235/lib/include/rtems/blkdev.h"
 2188               	.file 62 "/home/simulink/development/rtems/rtems-build/m68k-rtems5/mcf5235/lib/include/rtems/error.h"
 2189               	.file 63 "/home/simulink/development/rtems/rtems-build/m68k-rtems5/mcf5235/lib/include/rtems/ramdisk.h"
 2190               	.file 64 "/home/simulink/development/rtems/rtems-build/m68k-rtems5/mcf5235/lib/include/rtems/rtems-rfs-format.h"
 2191               	.file 65 "/home/simulink/cFS_FreeRTOS_seL4/osal/src/os/inc/common_types.h"
 2192               	.file 66 "/home/simulink/cFS_FreeRTOS_seL4/osal/src/os/inc/osapi-os-core.h"
 2193               	.file 67 "/home/simulink/cFS_FreeRTOS_seL4/osal/src/os/inc/osapi-os-filesys.h"
 2194               	.section.debug_info,"",@progbits
 2195               	.Ldebug_info0:
 2196 0000 0000 3BCD 	.long0x3bcd
 2197 0004 0004      	.word0x4
 2198 0006 0000 0000 	.long.Ldebug_abbrev0
 2199 000a 04        	.byte0x4
 2200 000b 01        	.uleb128 0x1
 2201 000c 0000 0000 	.long.LASF861
 2202 0010 0C        	.byte0xc
 2203 0011 0000 0000 	.long.LASF862
 2204 0015 0000 0000 	.long.LASF863
 2205 0019 0000 0000 	.long.Ltext0
 2206 001d 0000 1260 	.long.Letext0-.Ltext0
 2207 0021 0000 0000 	.long.Ldebug_line0
 2208 0025 02        	.uleb128 0x2
 2209 0026 01        	.byte0x1
 2210 0027 06        	.byte0x6
 2211 0028 0000 0000 	.long.LASF0
 2212 002c 02        	.uleb128 0x2
 2213 002d 01        	.byte0x1
 2214 002e 08        	.byte0x8
 2215 002f 0000 0000 	.long.LASF1
 2216 0033 03        	.uleb128 0x3
 2217 0034 0000 002C 	.long0x2c
68K GAS   			page 63


 2218 0038 02        	.uleb128 0x2
 2219 0039 02        	.byte0x2
 2220 003a 05        	.byte0x5
 2221 003b 0000 0000 	.long.LASF2
 2222 003f 04        	.uleb128 0x4
 2223 0040 0000 0000 	.long.LASF4
 2224 0044 02        	.byte0x2
 2225 0045 39        	.byte0x39
 2226 0046 0000 004A 	.long0x4a
 2227 004a 02        	.uleb128 0x2
 2228 004b 02        	.byte0x2
 2229 004c 07        	.byte0x7
 2230 004d 0000 0000 	.long.LASF3
 2231 0051 04        	.uleb128 0x4
 2232 0052 0000 0000 	.long.LASF5
 2233 0056 02        	.byte0x2
 2234 0057 4D        	.byte0x4d
 2235 0058 0000 005C 	.long0x5c
 2236 005c 02        	.uleb128 0x2
 2237 005d 04        	.byte0x4
 2238 005e 05        	.byte0x5
 2239 005f 0000 0000 	.long.LASF6
 2240 0063 04        	.uleb128 0x4
 2241 0064 0000 0000 	.long.LASF7
 2242 0068 02        	.byte0x2
 2243 0069 4F        	.byte0x4f
 2244 006a 0000 006E 	.long0x6e
 2245 006e 02        	.uleb128 0x2
 2246 006f 04        	.byte0x4
 2247 0070 07        	.byte0x7
 2248 0071 0000 0000 	.long.LASF8
 2249 0075 04        	.uleb128 0x4
 2250 0076 0000 0000 	.long.LASF9
 2251 007a 02        	.byte0x2
 2252 007b 67        	.byte0x67
 2253 007c 0000 0080 	.long0x80
 2254 0080 02        	.uleb128 0x2
 2255 0081 08        	.byte0x8
 2256 0082 05        	.byte0x5
 2257 0083 0000 0000 	.long.LASF10
 2258 0087 04        	.uleb128 0x4
 2259 0088 0000 0000 	.long.LASF11
 2260 008c 02        	.byte0x2
 2261 008d 69        	.byte0x69
 2262 008e 0000 0092 	.long0x92
 2263 0092 02        	.uleb128 0x2
 2264 0093 08        	.byte0x8
 2265 0094 07        	.byte0x7
 2266 0095 0000 0000 	.long.LASF12
 2267 0099 04        	.uleb128 0x4
 2268 009a 0000 0000 	.long.LASF13
 2269 009e 02        	.byte0x2
 2270 009f C8        	.byte0xc8
 2271 00a0 0000 0080 	.long0x80
 2272 00a4 04        	.uleb128 0x4
 2273 00a5 0000 0000 	.long.LASF14
 2274 00a9 02        	.byte0x2
68K GAS   			page 64


 2275 00aa E8        	.byte0xe8
 2276 00ab 0000 006E 	.long0x6e
 2277 00af 04        	.uleb128 0x4
 2278 00b0 0000 0000 	.long.LASF15
 2279 00b4 03        	.byte0x3
 2280 00b5 D8        	.byte0xd8
 2281 00b6 0000 006E 	.long0x6e
 2282 00ba 03        	.uleb128 0x3
 2283 00bb 0000 00AF 	.long0xaf
 2284 00bf 02        	.uleb128 0x2
 2285 00c0 08        	.byte0x8
 2286 00c1 04        	.byte0x4
 2287 00c2 0000 0000 	.long.LASF16
 2288 00c6 04        	.uleb128 0x4
 2289 00c7 0000 0000 	.long.LASF17
 2290 00cb 04        	.byte0x4
 2291 00cc 06        	.byte0x6
 2292 00cd 0000 0051 	.long0x51
 2293 00d1 04        	.uleb128 0x4
 2294 00d2 0000 0000 	.long.LASF18
 2295 00d6 04        	.byte0x4
 2296 00d7 09        	.byte0x9
 2297 00d8 0000 0051 	.long0x51
 2298 00dc 04        	.uleb128 0x4
 2299 00dd 0000 0000 	.long.LASF19
 2300 00e1 04        	.byte0x4
 2301 00e2 0C        	.byte0xc
 2302 00e3 0000 0087 	.long0x87
 2303 00e7 04        	.uleb128 0x4
 2304 00e8 0000 0000 	.long.LASF20
 2305 00ec 04        	.byte0x4
 2306 00ed 10        	.byte0x10
 2307 00ee 0000 0075 	.long0x75
 2308 00f2 04        	.uleb128 0x4
 2309 00f3 0000 0000 	.long.LASF21
 2310 00f7 04        	.byte0x4
 2311 00f8 16        	.byte0x16
 2312 00f9 0000 00E7 	.long0xe7
 2313 00fd 04        	.uleb128 0x4
 2314 00fe 0000 0000 	.long.LASF22
 2315 0102 04        	.byte0x4
 2316 0103 19        	.byte0x19
 2317 0104 0000 006E 	.long0x6e
 2318 0108 04        	.uleb128 0x4
 2319 0109 0000 0000 	.long.LASF23
 2320 010d 04        	.byte0x4
 2321 010e 1C        	.byte0x1c
 2322 010f 0000 0063 	.long0x63
 2323 0113 05        	.uleb128 0x5
 2324 0114 04        	.byte0x4
 2325 0115 05        	.byte0x5
 2326 0116 696E 7400 	.string"int"
 2327 011a 06        	.uleb128 0x6
 2328 011b 0000 0000 	.long.LASF27
 2329 011f 08        	.byte0x8
 2330 0120 05        	.byte0x5
 2331 0121 28        	.byte0x28
68K GAS   			page 65


 2332 0122 0000 013F 	.long0x13f
 2333 0126 07        	.uleb128 0x7
 2334 0127 0000 0000 	.long.LASF24
 2335 012b 05        	.byte0x5
 2336 012c 29        	.byte0x29
 2337 012d 0000 013F 	.long0x13f
 2338 0131 00        	.byte0
 2339 0132 07        	.uleb128 0x7
 2340 0133 0000 0000 	.long.LASF25
 2341 0137 05        	.byte0x5
 2342 0138 2A        	.byte0x2a
 2343 0139 0000 013F 	.long0x13f
 2344 013d 04        	.byte0x4
 2345 013e 00        	.byte0
 2346 013f 02        	.uleb128 0x2
 2347 0140 04        	.byte0x4
 2348 0141 07        	.byte0x7
 2349 0142 0000 0000 	.long.LASF26
 2350 0146 06        	.uleb128 0x6
 2351 0147 0000 0000 	.long.LASF28
 2352 014b 14        	.byte0x14
 2353 014c 05        	.byte0x5
 2354 014d 2D        	.byte0x2d
 2355 014e 0000 0183 	.long0x183
 2356 0152 07        	.uleb128 0x7
 2357 0153 0000 0000 	.long.LASF29
 2358 0157 05        	.byte0x5
 2359 0158 2E        	.byte0x2e
 2360 0159 0000 011A 	.long0x11a
 2361 015d 00        	.byte0
 2362 015e 07        	.uleb128 0x7
 2363 015f 0000 0000 	.long.LASF30
 2364 0163 05        	.byte0x5
 2365 0164 2F        	.byte0x2f
 2366 0165 0000 01B8 	.long0x1b8
 2367 0169 08        	.byte0x8
 2368 016a 07        	.uleb128 0x7
 2369 016b 0000 0000 	.long.LASF31
 2370 016f 05        	.byte0x5
 2371 0170 30        	.byte0x30
 2372 0171 0000 0335 	.long0x335
 2373 0175 0C        	.byte0xc
 2374 0176 07        	.uleb128 0x7
 2375 0177 0000 0000 	.long.LASF32
 2376 017b 05        	.byte0x5
 2377 017c 31        	.byte0x31
 2378 017d 0000 033B 	.long0x33b
 2379 0181 10        	.byte0x10
 2380 0182 00        	.byte0
 2381 0183 08        	.uleb128 0x8
 2382 0184 0000 0000 	.long.LASF33
 2383 0188 3C        	.byte0x3c
 2384 0189 06        	.byte0x6
 2385 018a 0161      	.word0x161
 2386 018c 0000 01B8 	.long0x1b8
 2387 0190 09        	.uleb128 0x9
 2388 0191 0000 0000 	.long.LASF34
68K GAS   			page 66


 2389 0195 06        	.byte0x6
 2390 0196 0175      	.word0x175
 2391 0198 0000 1814 	.long0x1814
 2392 019c 00        	.byte0
 2393 019d 09        	.uleb128 0x9
 2394 019e 0000 0000 	.long.LASF35
 2395 01a2 06        	.byte0x6
 2396 01a3 017B      	.word0x17b
 2397 01a5 0000 1258 	.long0x1258
 2398 01a9 28        	.byte0x28
 2399 01aa 09        	.uleb128 0x9
 2400 01ab 0000 0000 	.long.LASF36
 2401 01af 06        	.byte0x6
 2402 01b0 0181      	.word0x181
 2403 01b2 0000 11C1 	.long0x11c1
 2404 01b6 34        	.byte0x34
 2405 01b7 00        	.byte0
 2406 01b8 0A        	.uleb128 0xa
 2407 01b9 04        	.byte0x4
 2408 01ba 0000 0183 	.long0x183
 2409 01be 0B        	.uleb128 0xb
 2410 01bf 0000 0000 	.long.LASF37
 2411 01c3 0150      	.word0x150
 2412 01c5 07        	.byte0x7
 2413 01c6 02BE      	.word0x2be
 2414 01c8 0000 0335 	.long0x335
 2415 01cc 09        	.uleb128 0x9
 2416 01cd 0000 0000 	.long.LASF38
 2417 01d1 07        	.byte0x7
 2418 01d2 02C0      	.word0x2c0
 2419 01d4 0000 134B 	.long0x134b
 2420 01d8 00        	.byte0
 2421 01d9 09        	.uleb128 0x9
 2422 01da 0000 0000 	.long.LASF39
 2423 01de 07        	.byte0x7
 2424 01df 02D3      	.word0x2d3
 2425 01e1 0000 190B 	.long0x190b
 2426 01e5 10        	.byte0x10
 2427 01e6 09        	.uleb128 0x9
 2428 01e7 0000 0000 	.long.LASF40
 2429 01eb 07        	.byte0x7
 2430 01ec 02D6      	.word0x2d6
 2431 01ee 0000 1503 	.long0x1503
 2432 01f2 1C        	.byte0x1c
 2433 01f3 09        	.uleb128 0x9
 2434 01f4 0000 0000 	.long.LASF41
 2435 01f8 07        	.byte0x7
 2436 01f9 02DB      	.word0x2db
 2437 01fb 0000 13A1 	.long0x13a1
 2438 01ff 20        	.byte0x20
 2439 0200 09        	.uleb128 0x9
 2440 0201 0000 0000 	.long.LASF42
 2441 0205 07        	.byte0x7
 2442 0206 02E5      	.word0x2e5
 2443 0208 0000 1B51 	.long0x1b51
 2444 020c 38        	.byte0x38
 2445 020d 09        	.uleb128 0x9
68K GAS   			page 67


 2446 020e 0000 0000 	.long.LASF43
 2447 0212 07        	.byte0x7
 2448 0213 02E8      	.word0x2e8
 2449 0215 0000 1C1C 	.long0x1c1c
 2450 0219 3C        	.byte0x3c
 2451 021a 09        	.uleb128 0x9
 2452 021b 0000 0000 	.long.LASF44
 2453 021f 07        	.byte0x7
 2454 0220 02EA      	.word0x2ea
 2455 0222 0000 1C52 	.long0x1c52
 2456 0226 60        	.byte0x60
 2457 0227 09        	.uleb128 0x9
 2458 0228 0000 0000 	.long.LASF45
 2459 022c 07        	.byte0x7
 2460 022d 02FE      	.word0x2fe
 2461 022f 0000 118F 	.long0x118f
 2462 0233 80        	.byte0x80
 2463 0234 09        	.uleb128 0x9
 2464 0235 0000 0000 	.long.LASF46
 2465 0239 07        	.byte0x7
 2466 023a 0304      	.word0x304
 2467 023c 0000 118F 	.long0x118f
 2468 0240 81        	.byte0x81
 2469 0241 09        	.uleb128 0x9
 2470 0242 0000 0000 	.long.LASF47
 2471 0246 07        	.byte0x7
 2472 0247 0306      	.word0x306
 2473 0249 0000 118F 	.long0x118f
 2474 024d 82        	.byte0x82
 2475 024e 09        	.uleb128 0x9
 2476 024f 0000 0000 	.long.LASF48
 2477 0253 07        	.byte0x7
 2478 0254 030C      	.word0x30c
 2479 0256 0000 118F 	.long0x118f
 2480 025a 83        	.byte0x83
 2481 025b 09        	.uleb128 0x9
 2482 025c 0000 0000 	.long.LASF49
 2483 0260 07        	.byte0x7
 2484 0261 0312      	.word0x312
 2485 0263 0000 0BD6 	.long0xbd6
 2486 0267 84        	.byte0x84
 2487 0268 09        	.uleb128 0x9
 2488 0269 0000 0000 	.long.LASF50
 2489 026d 07        	.byte0x7
 2490 026e 0317      	.word0x317
 2491 0270 0000 1A81 	.long0x1a81
 2492 0274 88        	.byte0x88
 2493 0275 09        	.uleb128 0x9
 2494 0276 0000 0000 	.long.LASF51
 2495 027a 07        	.byte0x7
 2496 027b 0319      	.word0x319
 2497 027d 0000 1A8C 	.long0x1a8c
 2498 0281 8C        	.byte0x8c
 2499 0282 09        	.uleb128 0x9
 2500 0283 0000 0000 	.long.LASF52
 2501 0287 07        	.byte0x7
 2502 0288 031D      	.word0x31d
68K GAS   			page 68


 2503 028a 0000 193C 	.long0x193c
 2504 028e 90        	.byte0x90
 2505 028f 09        	.uleb128 0x9
 2506 0290 0000 0000 	.long.LASF53
 2507 0294 07        	.byte0x7
 2508 0295 0322      	.word0x322
 2509 0297 0000 1B2A 	.long0x1b2a
 2510 029b 98        	.byte0x98
 2511 029c 09        	.uleb128 0x9
 2512 029d 0000 0000 	.long.LASF54
 2513 02a1 07        	.byte0x7
 2514 02a2 0324      	.word0x324
 2515 02a4 0000 1CFF 	.long0x1cff
 2516 02a8 D4        	.byte0xd4
 2517 02a9 09        	.uleb128 0x9
 2518 02aa 0000 0000 	.long.LASF55
 2519 02ae 07        	.byte0x7
 2520 02af 0327      	.word0x327
 2521 02b1 0000 0FA4 	.long0xfa4
 2522 02b5 E0        	.byte0xe0
 2523 02b6 0C        	.uleb128 0xc
 2524 02b7 0000 0000 	.long.LASF56
 2525 02bb 07        	.byte0x7
 2526 02bc 032C      	.word0x32c
 2527 02be 0000 1B24 	.long0x1b24
 2528 02c2 0114      	.word0x114
 2529 02c4 0C        	.uleb128 0xc
 2530 02c5 0000 0000 	.long.LASF57
 2531 02c9 07        	.byte0x7
 2532 02ca 032F      	.word0x32f
 2533 02cc 0000 0768 	.long0x768
 2534 02d0 0118      	.word0x118
 2535 02d2 0C        	.uleb128 0xc
 2536 02d3 0000 0000 	.long.LASF58
 2537 02d7 07        	.byte0x7
 2538 02d8 0331      	.word0x331
 2539 02da 0000 1DBE 	.long0x1dbe
 2540 02de 011C      	.word0x11c
 2541 02e0 0C        	.uleb128 0xc
 2542 02e1 0000 0000 	.long.LASF59
 2543 02e5 07        	.byte0x7
 2544 02e6 0336      	.word0x336
 2545 02e8 0000 1CDC 	.long0x1cdc
 2546 02ec 0124      	.word0x124
 2547 02ee 0C        	.uleb128 0xc
 2548 02ef 0000 0000 	.long.LASF60
 2549 02f3 07        	.byte0x7
 2550 02f4 033D      	.word0x33d
 2551 02f6 0000 1D82 	.long0x1d82
 2552 02fa 0128      	.word0x128
 2553 02fc 0C        	.uleb128 0xc
 2554 02fd 0000 0000 	.long.LASF61
 2555 0301 07        	.byte0x7
 2556 0302 033F      	.word0x33f
 2557 0304 0000 1DB2 	.long0x1db2
 2558 0308 0140      	.word0x140
 2559 030a 0C        	.uleb128 0xc
68K GAS   			page 69


 2560 030b 0000 0000 	.long.LASF62
 2561 030f 07        	.byte0x7
 2562 0310 0344      	.word0x344
 2563 0312 0000 1DD3 	.long0x1dd3
 2564 0316 0148      	.word0x148
 2565 0318 0C        	.uleb128 0xc
 2566 0319 0000 0000 	.long.LASF63
 2567 031d 07        	.byte0x7
 2568 031e 0349      	.word0x349
 2569 0320 0000 1DDE 	.long0x1dde
 2570 0324 014C      	.word0x14c
 2571 0326 0C        	.uleb128 0xc
 2572 0327 0000 0000 	.long.LASF64
 2573 032b 07        	.byte0x7
 2574 032c 0350      	.word0x350
 2575 032e 0000 1DE4 	.long0x1de4
 2576 0332 0150      	.word0x150
 2577 0334 00        	.byte0
 2578 0335 0A        	.uleb128 0xa
 2579 0336 04        	.byte0x4
 2580 0337 0000 01BE 	.long0x1be
 2581 033b 0A        	.uleb128 0xa
 2582 033c 04        	.byte0x4
 2583 033d 0000 034D 	.long0x34d
 2584 0341 03        	.uleb128 0x3
 2585 0342 0000 033B 	.long0x33b
 2586 0346 02        	.uleb128 0x2
 2587 0347 01        	.byte0x1
 2588 0348 06        	.byte0x6
 2589 0349 0000 0000 	.long.LASF65
 2590 034d 03        	.uleb128 0x3
 2591 034e 0000 0346 	.long0x346
 2592 0352 06        	.uleb128 0x6
 2593 0353 0000 0000 	.long.LASF66
 2594 0357 14        	.byte0x14
 2595 0358 05        	.byte0x5
 2596 0359 34        	.byte0x34
 2597 035a 0000 036B 	.long0x36b
 2598 035e 07        	.uleb128 0x7
 2599 035f 0000 0000 	.long.LASF67
 2600 0363 05        	.byte0x5
 2601 0364 35        	.byte0x35
 2602 0365 0000 0146 	.long0x146
 2603 0369 00        	.byte0
 2604 036a 00        	.byte0
 2605 036b 06        	.uleb128 0x6
 2606 036c 0000 0000 	.long.LASF68
 2607 0370 18        	.byte0x18
 2608 0371 05        	.byte0x5
 2609 0372 38        	.byte0x38
 2610 0373 0000 0390 	.long0x390
 2611 0377 07        	.uleb128 0x7
 2612 0378 0000 0000 	.long.LASF69
 2613 037c 05        	.byte0x5
 2614 037d 39        	.byte0x39
 2615 037e 0000 0352 	.long0x352
 2616 0382 00        	.byte0
68K GAS   			page 70


 2617 0383 07        	.uleb128 0x7
 2618 0384 0000 0000 	.long.LASF70
 2619 0388 05        	.byte0x5
 2620 0389 3A        	.byte0x3a
 2621 038a 0000 013F 	.long0x13f
 2622 038e 14        	.byte0x14
 2623 038f 00        	.byte0
 2624 0390 0D        	.uleb128 0xd
 2625 0391 0000 0000 	.long.LASF71
 2626 0395 05        	.byte0x5
 2627 0396 0171      	.word0x171
 2628 0398 0000 036B 	.long0x36b
 2629 039c 04        	.uleb128 0x4
 2630 039d 0000 0000 	.long.LASF72
 2631 03a1 08        	.byte0x8
 2632 03a2 24        	.byte0x24
 2633 03a3 0000 0087 	.long0x87
 2634 03a7 04        	.uleb128 0x4
 2635 03a8 0000 0000 	.long.LASF73
 2636 03ac 08        	.byte0x8
 2637 03ad 28        	.byte0x28
 2638 03ae 0000 0063 	.long0x63
 2639 03b2 04        	.uleb128 0x4
 2640 03b3 0000 0000 	.long.LASF74
 2641 03b7 08        	.byte0x8
 2642 03b8 3A        	.byte0x3a
 2643 03b9 0000 004A 	.long0x4a
 2644 03bd 04        	.uleb128 0x4
 2645 03be 0000 0000 	.long.LASF75
 2646 03c2 08        	.byte0x8
 2647 03c3 3D        	.byte0x3d
 2648 03c4 0000 004A 	.long0x4a
 2649 03c8 04        	.uleb128 0x4
 2650 03c9 0000 0000 	.long.LASF76
 2651 03cd 08        	.byte0x8
 2652 03ce 64        	.byte0x64
 2653 03cf 0000 00E7 	.long0xe7
 2654 03d3 04        	.uleb128 0x4
 2655 03d4 0000 0000 	.long.LASF77
 2656 03d8 08        	.byte0x8
 2657 03d9 91        	.byte0x91
 2658 03da 0000 005C 	.long0x5c
 2659 03de 0D        	.uleb128 0xd
 2660 03df 0000 0000 	.long.LASF78
 2661 03e3 03        	.byte0x3
 2662 03e4 0165      	.word0x165
 2663 03e6 0000 013F 	.long0x13f
 2664 03ea 0E        	.uleb128 0xe
 2665 03eb 04        	.byte0x4
 2666 03ec 08        	.byte0x8
 2667 03ed A6        	.byte0xa6
 2668 03ee 0000 0409 	.long0x409
 2669 03f2 0F        	.uleb128 0xf
 2670 03f3 0000 0000 	.long.LASF79
 2671 03f7 08        	.byte0x8
 2672 03f8 A8        	.byte0xa8
 2673 03f9 0000 03DE 	.long0x3de
68K GAS   			page 71


 2674 03fd 0F        	.uleb128 0xf
 2675 03fe 0000 0000 	.long.LASF80
 2676 0402 08        	.byte0x8
 2677 0403 A9        	.byte0xa9
 2678 0404 0000 0409 	.long0x409
 2679 0408 00        	.byte0
 2680 0409 10        	.uleb128 0x10
 2681 040a 0000 002C 	.long0x2c
 2682 040e 0000 0419 	.long0x419
 2683 0412 11        	.uleb128 0x11
 2684 0413 0000 006E 	.long0x6e
 2685 0417 03        	.byte0x3
 2686 0418 00        	.byte0
 2687 0419 12        	.uleb128 0x12
 2688 041a 08        	.byte0x8
 2689 041b 08        	.byte0x8
 2690 041c A3        	.byte0xa3
 2691 041d 0000 043A 	.long0x43a
 2692 0421 07        	.uleb128 0x7
 2693 0422 0000 0000 	.long.LASF81
 2694 0426 08        	.byte0x8
 2695 0427 A5        	.byte0xa5
 2696 0428 0000 0113 	.long0x113
 2697 042c 00        	.byte0
 2698 042d 07        	.uleb128 0x7
 2699 042e 0000 0000 	.long.LASF82
 2700 0432 08        	.byte0x8
 2701 0433 AA        	.byte0xaa
 2702 0434 0000 03EA 	.long0x3ea
 2703 0438 04        	.byte0x4
 2704 0439 00        	.byte0
 2705 043a 04        	.uleb128 0x4
 2706 043b 0000 0000 	.long.LASF83
 2707 043f 08        	.byte0x8
 2708 0440 AB        	.byte0xab
 2709 0441 0000 0419 	.long0x419
 2710 0445 04        	.uleb128 0x4
 2711 0446 0000 0000 	.long.LASF84
 2712 044a 08        	.byte0x8
 2713 044b AF        	.byte0xaf
 2714 044c 0000 0390 	.long0x390
 2715 0450 13        	.uleb128 0x13
 2716 0451 04        	.byte0x4
 2717 0452 04        	.uleb128 0x4
 2718 0453 0000 0000 	.long.LASF85
 2719 0457 08        	.byte0x8
 2720 0458 D2        	.byte0xd2
 2721 0459 0000 004A 	.long0x4a
 2722 045d 04        	.uleb128 0x4
 2723 045e 0000 0000 	.long.LASF86
 2724 0462 09        	.byte0x9
 2725 0463 16        	.byte0x16
 2726 0464 0000 006E 	.long0x6e
 2727 0468 06        	.uleb128 0x6
 2728 0469 0000 0000 	.long.LASF87
 2729 046d 18        	.byte0x18
 2730 046e 09        	.byte0x9
68K GAS   			page 72


 2731 046f 2F        	.byte0x2f
 2732 0470 0000 04BB 	.long0x4bb
 2733 0474 07        	.uleb128 0x7
 2734 0475 0000 0000 	.long.LASF88
 2735 0479 09        	.byte0x9
 2736 047a 31        	.byte0x31
 2737 047b 0000 04BB 	.long0x4bb
 2738 047f 00        	.byte0
 2739 0480 14        	.uleb128 0x14
 2740 0481 5F6B 00   	.string"_k"
 2741 0484 09        	.byte0x9
 2742 0485 32        	.byte0x32
 2743 0486 0000 0113 	.long0x113
 2744 048a 04        	.byte0x4
 2745 048b 07        	.uleb128 0x7
 2746 048c 0000 0000 	.long.LASF89
 2747 0490 09        	.byte0x9
 2748 0491 32        	.byte0x32
 2749 0492 0000 0113 	.long0x113
 2750 0496 08        	.byte0x8
 2751 0497 07        	.uleb128 0x7
 2752 0498 0000 0000 	.long.LASF90
 2753 049c 09        	.byte0x9
 2754 049d 32        	.byte0x32
 2755 049e 0000 0113 	.long0x113
 2756 04a2 0C        	.byte0xc
 2757 04a3 07        	.uleb128 0x7
 2758 04a4 0000 0000 	.long.LASF91
 2759 04a8 09        	.byte0x9
 2760 04a9 32        	.byte0x32
 2761 04aa 0000 0113 	.long0x113
 2762 04ae 10        	.byte0x10
 2763 04af 14        	.uleb128 0x14
 2764 04b0 5F78 00   	.string"_x"
 2765 04b3 09        	.byte0x9
 2766 04b4 33        	.byte0x33
 2767 04b5 0000 04C1 	.long0x4c1
 2768 04b9 14        	.byte0x14
 2769 04ba 00        	.byte0
 2770 04bb 0A        	.uleb128 0xa
 2771 04bc 04        	.byte0x4
 2772 04bd 0000 0468 	.long0x468
 2773 04c1 10        	.uleb128 0x10
 2774 04c2 0000 045D 	.long0x45d
 2775 04c6 0000 04D1 	.long0x4d1
 2776 04ca 11        	.uleb128 0x11
 2777 04cb 0000 006E 	.long0x6e
 2778 04cf 00        	.byte0
 2779 04d0 00        	.byte0
 2780 04d1 06        	.uleb128 0x6
 2781 04d2 0000 0000 	.long.LASF92
 2782 04d6 24        	.byte0x24
 2783 04d7 09        	.byte0x9
 2784 04d8 37        	.byte0x37
 2785 04d9 0000 054A 	.long0x54a
 2786 04dd 07        	.uleb128 0x7
 2787 04de 0000 0000 	.long.LASF93
68K GAS   			page 73


 2788 04e2 09        	.byte0x9
 2789 04e3 39        	.byte0x39
 2790 04e4 0000 0113 	.long0x113
 2791 04e8 00        	.byte0
 2792 04e9 07        	.uleb128 0x7
 2793 04ea 0000 0000 	.long.LASF94
 2794 04ee 09        	.byte0x9
 2795 04ef 3A        	.byte0x3a
 2796 04f0 0000 0113 	.long0x113
 2797 04f4 04        	.byte0x4
 2798 04f5 07        	.uleb128 0x7
 2799 04f6 0000 0000 	.long.LASF95
 2800 04fa 09        	.byte0x9
 2801 04fb 3B        	.byte0x3b
 2802 04fc 0000 0113 	.long0x113
 2803 0500 08        	.byte0x8
 2804 0501 07        	.uleb128 0x7
 2805 0502 0000 0000 	.long.LASF96
 2806 0506 09        	.byte0x9
 2807 0507 3C        	.byte0x3c
 2808 0508 0000 0113 	.long0x113
 2809 050c 0C        	.byte0xc
 2810 050d 07        	.uleb128 0x7
 2811 050e 0000 0000 	.long.LASF97
 2812 0512 09        	.byte0x9
 2813 0513 3D        	.byte0x3d
 2814 0514 0000 0113 	.long0x113
 2815 0518 10        	.byte0x10
 2816 0519 07        	.uleb128 0x7
 2817 051a 0000 0000 	.long.LASF98
 2818 051e 09        	.byte0x9
 2819 051f 3E        	.byte0x3e
 2820 0520 0000 0113 	.long0x113
 2821 0524 14        	.byte0x14
 2822 0525 07        	.uleb128 0x7
 2823 0526 0000 0000 	.long.LASF99
 2824 052a 09        	.byte0x9
 2825 052b 3F        	.byte0x3f
 2826 052c 0000 0113 	.long0x113
 2827 0530 18        	.byte0x18
 2828 0531 07        	.uleb128 0x7
 2829 0532 0000 0000 	.long.LASF100
 2830 0536 09        	.byte0x9
 2831 0537 40        	.byte0x40
 2832 0538 0000 0113 	.long0x113
 2833 053c 1C        	.byte0x1c
 2834 053d 07        	.uleb128 0x7
 2835 053e 0000 0000 	.long.LASF101
 2836 0542 09        	.byte0x9
 2837 0543 41        	.byte0x41
 2838 0544 0000 0113 	.long0x113
 2839 0548 20        	.byte0x20
 2840 0549 00        	.byte0
 2841 054a 15        	.uleb128 0x15
 2842 054b 0000 0000 	.long.LASF102
 2843 054f 0108      	.word0x108
 2844 0551 09        	.byte0x9
68K GAS   			page 74


 2845 0552 4A        	.byte0x4a
 2846 0553 0000 058A 	.long0x58a
 2847 0557 07        	.uleb128 0x7
 2848 0558 0000 0000 	.long.LASF103
 2849 055c 09        	.byte0x9
 2850 055d 4B        	.byte0x4b
 2851 055e 0000 058A 	.long0x58a
 2852 0562 00        	.byte0
 2853 0563 07        	.uleb128 0x7
 2854 0564 0000 0000 	.long.LASF104
 2855 0568 09        	.byte0x9
 2856 0569 4C        	.byte0x4c
 2857 056a 0000 058A 	.long0x58a
 2858 056e 80        	.byte0x80
 2859 056f 16        	.uleb128 0x16
 2860 0570 0000 0000 	.long.LASF105
 2861 0574 09        	.byte0x9
 2862 0575 4E        	.byte0x4e
 2863 0576 0000 045D 	.long0x45d
 2864 057a 0100      	.word0x100
 2865 057c 16        	.uleb128 0x16
 2866 057d 0000 0000 	.long.LASF106
 2867 0581 09        	.byte0x9
 2868 0582 51        	.byte0x51
 2869 0583 0000 045D 	.long0x45d
 2870 0587 0104      	.word0x104
 2871 0589 00        	.byte0
 2872 058a 10        	.uleb128 0x10
 2873 058b 0000 0450 	.long0x450
 2874 058f 0000 059A 	.long0x59a
 2875 0593 11        	.uleb128 0x11
 2876 0594 0000 006E 	.long0x6e
 2877 0598 1F        	.byte0x1f
 2878 0599 00        	.byte0
 2879 059a 15        	.uleb128 0x15
 2880 059b 0000 0000 	.long.LASF107
 2881 059f 0190      	.word0x190
 2882 05a1 09        	.byte0x9
 2883 05a2 5D        	.byte0x5d
 2884 05a3 0000 05D8 	.long0x5d8
 2885 05a7 07        	.uleb128 0x7
 2886 05a8 0000 0000 	.long.LASF88
 2887 05ac 09        	.byte0x9
 2888 05ad 5E        	.byte0x5e
 2889 05ae 0000 05D8 	.long0x5d8
 2890 05b2 00        	.byte0
 2891 05b3 07        	.uleb128 0x7
 2892 05b4 0000 0000 	.long.LASF108
 2893 05b8 09        	.byte0x9
 2894 05b9 5F        	.byte0x5f
 2895 05ba 0000 0113 	.long0x113
 2896 05be 04        	.byte0x4
 2897 05bf 07        	.uleb128 0x7
 2898 05c0 0000 0000 	.long.LASF109
 2899 05c4 09        	.byte0x9
 2900 05c5 61        	.byte0x61
 2901 05c6 0000 05DE 	.long0x5de
68K GAS   			page 75


 2902 05ca 08        	.byte0x8
 2903 05cb 07        	.uleb128 0x7
 2904 05cc 0000 0000 	.long.LASF102
 2905 05d0 09        	.byte0x9
 2906 05d1 62        	.byte0x62
 2907 05d2 0000 054A 	.long0x54a
 2908 05d6 88        	.byte0x88
 2909 05d7 00        	.byte0
 2910 05d8 0A        	.uleb128 0xa
 2911 05d9 04        	.byte0x4
 2912 05da 0000 059A 	.long0x59a
 2913 05de 10        	.uleb128 0x10
 2914 05df 0000 05EE 	.long0x5ee
 2915 05e3 0000 05EE 	.long0x5ee
 2916 05e7 11        	.uleb128 0x11
 2917 05e8 0000 006E 	.long0x6e
 2918 05ec 1F        	.byte0x1f
 2919 05ed 00        	.byte0
 2920 05ee 0A        	.uleb128 0xa
 2921 05ef 04        	.byte0x4
 2922 05f0 0000 05F4 	.long0x5f4
 2923 05f4 17        	.uleb128 0x17
 2924 05f5 06        	.uleb128 0x6
 2925 05f6 0000 0000 	.long.LASF110
 2926 05fa 08        	.byte0x8
 2927 05fb 09        	.byte0x9
 2928 05fc 75        	.byte0x75
 2929 05fd 0000 061A 	.long0x61a
 2930 0601 07        	.uleb128 0x7
 2931 0602 0000 0000 	.long.LASF111
 2932 0606 09        	.byte0x9
 2933 0607 76        	.byte0x76
 2934 0608 0000 061A 	.long0x61a
 2935 060c 00        	.byte0
 2936 060d 07        	.uleb128 0x7
 2937 060e 0000 0000 	.long.LASF112
 2938 0612 09        	.byte0x9
 2939 0613 77        	.byte0x77
 2940 0614 0000 0113 	.long0x113
 2941 0618 04        	.byte0x4
 2942 0619 00        	.byte0
 2943 061a 0A        	.uleb128 0xa
 2944 061b 04        	.byte0x4
 2945 061c 0000 002C 	.long0x2c
 2946 0620 06        	.uleb128 0x6
 2947 0621 0000 0000 	.long.LASF113
 2948 0625 80        	.byte0x80
 2949 0626 09        	.byte0x9
 2950 0627 B5        	.byte0xb5
 2951 0628 0000 074A 	.long0x74a
 2952 062c 14        	.uleb128 0x14
 2953 062d 5F70 00   	.string"_p"
 2954 0630 09        	.byte0x9
 2955 0631 B6        	.byte0xb6
 2956 0632 0000 061A 	.long0x61a
 2957 0636 00        	.byte0
 2958 0637 14        	.uleb128 0x14
68K GAS   			page 76


 2959 0638 5F72 00   	.string"_r"
 2960 063b 09        	.byte0x9
 2961 063c B7        	.byte0xb7
 2962 063d 0000 0113 	.long0x113
 2963 0641 04        	.byte0x4
 2964 0642 14        	.uleb128 0x14
 2965 0643 5F77 00   	.string"_w"
 2966 0646 09        	.byte0x9
 2967 0647 B8        	.byte0xb8
 2968 0648 0000 0113 	.long0x113
 2969 064c 08        	.byte0x8
 2970 064d 07        	.uleb128 0x7
 2971 064e 0000 0000 	.long.LASF114
 2972 0652 09        	.byte0x9
 2973 0653 B9        	.byte0xb9
 2974 0654 0000 0038 	.long0x38
 2975 0658 0C        	.byte0xc
 2976 0659 07        	.uleb128 0x7
 2977 065a 0000 0000 	.long.LASF115
 2978 065e 09        	.byte0x9
 2979 065f BA        	.byte0xba
 2980 0660 0000 0038 	.long0x38
 2981 0664 0E        	.byte0xe
 2982 0665 14        	.uleb128 0x14
 2983 0666 5F62 6600 	.string"_bf"
 2984 066a 09        	.byte0x9
 2985 066b BB        	.byte0xbb
 2986 066c 0000 05F5 	.long0x5f5
 2987 0670 10        	.byte0x10
 2988 0671 07        	.uleb128 0x7
 2989 0672 0000 0000 	.long.LASF116
 2990 0676 09        	.byte0x9
 2991 0677 BC        	.byte0xbc
 2992 0678 0000 0113 	.long0x113
 2993 067c 18        	.byte0x18
 2994 067d 07        	.uleb128 0x7
 2995 067e 0000 0000 	.long.LASF117
 2996 0682 09        	.byte0x9
 2997 0683 C3        	.byte0xc3
 2998 0684 0000 0450 	.long0x450
 2999 0688 1C        	.byte0x1c
 3000 0689 07        	.uleb128 0x7
 3001 068a 0000 0000 	.long.LASF118
 3002 068e 09        	.byte0x9
 3003 068f C5        	.byte0xc5
 3004 0690 0000 0881 	.long0x881
 3005 0694 20        	.byte0x20
 3006 0695 07        	.uleb128 0x7
 3007 0696 0000 0000 	.long.LASF119
 3008 069a 09        	.byte0x9
 3009 069b C7        	.byte0xc7
 3010 069c 0000 08A5 	.long0x8a5
 3011 06a0 24        	.byte0x24
 3012 06a1 07        	.uleb128 0x7
 3013 06a2 0000 0000 	.long.LASF120
 3014 06a6 09        	.byte0x9
 3015 06a7 CA        	.byte0xca
68K GAS   			page 77


 3016 06a8 0000 08C9 	.long0x8c9
 3017 06ac 28        	.byte0x28
 3018 06ad 07        	.uleb128 0x7
 3019 06ae 0000 0000 	.long.LASF121
 3020 06b2 09        	.byte0x9
 3021 06b3 CB        	.byte0xcb
 3022 06b4 0000 08E3 	.long0x8e3
 3023 06b8 2C        	.byte0x2c
 3024 06b9 14        	.uleb128 0x14
 3025 06ba 5F75 6200 	.string"_ub"
 3026 06be 09        	.byte0x9
 3027 06bf CE        	.byte0xce
 3028 06c0 0000 05F5 	.long0x5f5
 3029 06c4 30        	.byte0x30
 3030 06c5 14        	.uleb128 0x14
 3031 06c6 5F75 7000 	.string"_up"
 3032 06ca 09        	.byte0x9
 3033 06cb CF        	.byte0xcf
 3034 06cc 0000 061A 	.long0x61a
 3035 06d0 38        	.byte0x38
 3036 06d1 14        	.uleb128 0x14
 3037 06d2 5F75 7200 	.string"_ur"
 3038 06d6 09        	.byte0x9
 3039 06d7 D0        	.byte0xd0
 3040 06d8 0000 0113 	.long0x113
 3041 06dc 3C        	.byte0x3c
 3042 06dd 07        	.uleb128 0x7
 3043 06de 0000 0000 	.long.LASF122
 3044 06e2 09        	.byte0x9
 3045 06e3 D3        	.byte0xd3
 3046 06e4 0000 08E9 	.long0x8e9
 3047 06e8 40        	.byte0x40
 3048 06e9 07        	.uleb128 0x7
 3049 06ea 0000 0000 	.long.LASF123
 3050 06ee 09        	.byte0x9
 3051 06ef D4        	.byte0xd4
 3052 06f0 0000 08F9 	.long0x8f9
 3053 06f4 43        	.byte0x43
 3054 06f5 14        	.uleb128 0x14
 3055 06f6 5F6C 6200 	.string"_lb"
 3056 06fa 09        	.byte0x9
 3057 06fb D7        	.byte0xd7
 3058 06fc 0000 05F5 	.long0x5f5
 3059 0700 44        	.byte0x44
 3060 0701 07        	.uleb128 0x7
 3061 0702 0000 0000 	.long.LASF124
 3062 0706 09        	.byte0x9
 3063 0707 DA        	.byte0xda
 3064 0708 0000 0113 	.long0x113
 3065 070c 4C        	.byte0x4c
 3066 070d 07        	.uleb128 0x7
 3067 070e 0000 0000 	.long.LASF125
 3068 0712 09        	.byte0x9
 3069 0713 DB        	.byte0xdb
 3070 0714 0000 00E7 	.long0xe7
 3071 0718 50        	.byte0x50
 3072 0719 07        	.uleb128 0x7
68K GAS   			page 78


 3073 071a 0000 0000 	.long.LASF126
 3074 071e 09        	.byte0x9
 3075 071f DE        	.byte0xde
 3076 0720 0000 0768 	.long0x768
 3077 0724 58        	.byte0x58
 3078 0725 07        	.uleb128 0x7
 3079 0726 0000 0000 	.long.LASF127
 3080 072a 09        	.byte0x9
 3081 072b E2        	.byte0xe2
 3082 072c 0000 0445 	.long0x445
 3083 0730 5C        	.byte0x5c
 3084 0731 07        	.uleb128 0x7
 3085 0732 0000 0000 	.long.LASF128
 3086 0736 09        	.byte0x9
 3087 0737 E4        	.byte0xe4
 3088 0738 0000 043A 	.long0x43a
 3089 073c 74        	.byte0x74
 3090 073d 07        	.uleb128 0x7
 3091 073e 0000 0000 	.long.LASF129
 3092 0742 09        	.byte0x9
 3093 0743 E5        	.byte0xe5
 3094 0744 0000 0113 	.long0x113
 3095 0748 7C        	.byte0x7c
 3096 0749 00        	.byte0
 3097 074a 18        	.uleb128 0x18
 3098 074b 0000 03D3 	.long0x3d3
 3099 074f 0000 0768 	.long0x768
 3100 0753 19        	.uleb128 0x19
 3101 0754 0000 0768 	.long0x768
 3102 0758 19        	.uleb128 0x19
 3103 0759 0000 0450 	.long0x450
 3104 075d 19        	.uleb128 0x19
 3105 075e 0000 087B 	.long0x87b
 3106 0762 19        	.uleb128 0x19
 3107 0763 0000 0113 	.long0x113
 3108 0767 00        	.byte0
 3109 0768 0A        	.uleb128 0xa
 3110 0769 04        	.byte0x4
 3111 076a 0000 0773 	.long0x773
 3112 076e 03        	.uleb128 0x3
 3113 076f 0000 0768 	.long0x768
 3114 0773 0B        	.uleb128 0xb
 3115 0774 0000 0000 	.long.LASF130
 3116 0778 0158      	.word0x158
 3117 077a 09        	.byte0x9
 3118 077b 0239      	.word0x239
 3119 077d 0000 087B 	.long0x87b
 3120 0781 09        	.uleb128 0x9
 3121 0782 0000 0000 	.long.LASF131
 3122 0786 09        	.byte0x9
 3123 0787 023B      	.word0x23b
 3124 0789 0000 0113 	.long0x113
 3125 078d 00        	.byte0
 3126 078e 09        	.uleb128 0x9
 3127 078f 0000 0000 	.long.LASF132
 3128 0793 09        	.byte0x9
 3129 0794 0240      	.word0x240
68K GAS   			page 79


 3130 0796 0000 0950 	.long0x950
 3131 079a 04        	.byte0x4
 3132 079b 09        	.uleb128 0x9
 3133 079c 0000 0000 	.long.LASF133
 3134 07a0 09        	.byte0x9
 3135 07a1 0240      	.word0x240
 3136 07a3 0000 0950 	.long0x950
 3137 07a7 08        	.byte0x8
 3138 07a8 09        	.uleb128 0x9
 3139 07a9 0000 0000 	.long.LASF134
 3140 07ad 09        	.byte0x9
 3141 07ae 0240      	.word0x240
 3142 07b0 0000 0950 	.long0x950
 3143 07b4 0C        	.byte0xc
 3144 07b5 09        	.uleb128 0x9
 3145 07b6 0000 0000 	.long.LASF135
 3146 07ba 09        	.byte0x9
 3147 07bb 0242      	.word0x242
 3148 07bd 0000 0113 	.long0x113
 3149 07c1 10        	.byte0x10
 3150 07c2 09        	.uleb128 0x9
 3151 07c3 0000 0000 	.long.LASF136
 3152 07c7 09        	.byte0x9
 3153 07c8 0243      	.word0x243
 3154 07ca 0000 0B32 	.long0xb32
 3155 07ce 14        	.byte0x14
 3156 07cf 09        	.uleb128 0x9
 3157 07d0 0000 0000 	.long.LASF137
 3158 07d4 09        	.byte0x9
 3159 07d5 0246      	.word0x246
 3160 07d7 0000 0113 	.long0x113
 3161 07db 30        	.byte0x30
 3162 07dc 09        	.uleb128 0x9
 3163 07dd 0000 0000 	.long.LASF138
 3164 07e1 09        	.byte0x9
 3165 07e2 0247      	.word0x247
 3166 07e4 0000 0B47 	.long0xb47
 3167 07e8 34        	.byte0x34
 3168 07e9 09        	.uleb128 0x9
 3169 07ea 0000 0000 	.long.LASF139
 3170 07ee 09        	.byte0x9
 3171 07ef 0249      	.word0x249
 3172 07f1 0000 0113 	.long0x113
 3173 07f5 38        	.byte0x38
 3174 07f6 09        	.uleb128 0x9
 3175 07f7 0000 0000 	.long.LASF140
 3176 07fb 09        	.byte0x9
 3177 07fc 024B      	.word0x24b
 3178 07fe 0000 0B58 	.long0xb58
 3179 0802 3C        	.byte0x3c
 3180 0803 09        	.uleb128 0x9
 3181 0804 0000 0000 	.long.LASF141
 3182 0808 09        	.byte0x9
 3183 0809 024E      	.word0x24e
 3184 080b 0000 04BB 	.long0x4bb
 3185 080f 40        	.byte0x40
 3186 0810 09        	.uleb128 0x9
68K GAS   			page 80


 3187 0811 0000 0000 	.long.LASF142
 3188 0815 09        	.byte0x9
 3189 0816 024F      	.word0x24f
 3190 0818 0000 0113 	.long0x113
 3191 081c 44        	.byte0x44
 3192 081d 09        	.uleb128 0x9
 3193 081e 0000 0000 	.long.LASF143
 3194 0822 09        	.byte0x9
 3195 0823 0250      	.word0x250
 3196 0825 0000 04BB 	.long0x4bb
 3197 0829 48        	.byte0x48
 3198 082a 09        	.uleb128 0x9
 3199 082b 0000 0000 	.long.LASF144
 3200 082f 09        	.byte0x9
 3201 0830 0251      	.word0x251
 3202 0832 0000 0B5E 	.long0xb5e
 3203 0836 4C        	.byte0x4c
 3204 0837 09        	.uleb128 0x9
 3205 0838 0000 0000 	.long.LASF145
 3206 083c 09        	.byte0x9
 3207 083d 0254      	.word0x254
 3208 083f 0000 0113 	.long0x113
 3209 0843 50        	.byte0x50
 3210 0844 09        	.uleb128 0x9
 3211 0845 0000 0000 	.long.LASF146
 3212 0849 09        	.byte0x9
 3213 084a 0255      	.word0x255
 3214 084c 0000 087B 	.long0x87b
 3215 0850 54        	.byte0x54
 3216 0851 09        	.uleb128 0x9
 3217 0852 0000 0000 	.long.LASF147
 3218 0856 09        	.byte0x9
 3219 0857 0278      	.word0x278
 3220 0859 0000 0B10 	.long0xb10
 3221 085d 58        	.byte0x58
 3222 085e 0C        	.uleb128 0xc
 3223 085f 0000 0000 	.long.LASF148
 3224 0863 09        	.byte0x9
 3225 0864 0281      	.word0x281
 3226 0866 0000 0B6F 	.long0xb6f
 3227 086a 0148      	.word0x148
 3228 086c 0C        	.uleb128 0xc
 3229 086d 0000 0000 	.long.LASF149
 3230 0871 09        	.byte0x9
 3231 0872 0286      	.word0x286
 3232 0874 0000 0915 	.long0x915
 3233 0878 014C      	.word0x14c
 3234 087a 00        	.byte0
 3235 087b 0A        	.uleb128 0xa
 3236 087c 04        	.byte0x4
 3237 087d 0000 0346 	.long0x346
 3238 0881 0A        	.uleb128 0xa
 3239 0882 04        	.byte0x4
 3240 0883 0000 074A 	.long0x74a
 3241 0887 18        	.uleb128 0x18
 3242 0888 0000 03D3 	.long0x3d3
 3243 088c 0000 08A5 	.long0x8a5
68K GAS   			page 81


 3244 0890 19        	.uleb128 0x19
 3245 0891 0000 0768 	.long0x768
 3246 0895 19        	.uleb128 0x19
 3247 0896 0000 0450 	.long0x450
 3248 089a 19        	.uleb128 0x19
 3249 089b 0000 033B 	.long0x33b
 3250 089f 19        	.uleb128 0x19
 3251 08a0 0000 0113 	.long0x113
 3252 08a4 00        	.byte0
 3253 08a5 0A        	.uleb128 0xa
 3254 08a6 04        	.byte0x4
 3255 08a7 0000 0887 	.long0x887
 3256 08ab 18        	.uleb128 0x18
 3257 08ac 0000 00F2 	.long0xf2
 3258 08b0 0000 08C9 	.long0x8c9
 3259 08b4 19        	.uleb128 0x19
 3260 08b5 0000 0768 	.long0x768
 3261 08b9 19        	.uleb128 0x19
 3262 08ba 0000 0450 	.long0x450
 3263 08be 19        	.uleb128 0x19
 3264 08bf 0000 00F2 	.long0xf2
 3265 08c3 19        	.uleb128 0x19
 3266 08c4 0000 0113 	.long0x113
 3267 08c8 00        	.byte0
 3268 08c9 0A        	.uleb128 0xa
 3269 08ca 04        	.byte0x4
 3270 08cb 0000 08AB 	.long0x8ab
 3271 08cf 18        	.uleb128 0x18
 3272 08d0 0000 0113 	.long0x113
 3273 08d4 0000 08E3 	.long0x8e3
 3274 08d8 19        	.uleb128 0x19
 3275 08d9 0000 0768 	.long0x768
 3276 08dd 19        	.uleb128 0x19
 3277 08de 0000 0450 	.long0x450
 3278 08e2 00        	.byte0
 3279 08e3 0A        	.uleb128 0xa
 3280 08e4 04        	.byte0x4
 3281 08e5 0000 08CF 	.long0x8cf
 3282 08e9 10        	.uleb128 0x10
 3283 08ea 0000 002C 	.long0x2c
 3284 08ee 0000 08F9 	.long0x8f9
 3285 08f2 11        	.uleb128 0x11
 3286 08f3 0000 006E 	.long0x6e
 3287 08f7 02        	.byte0x2
 3288 08f8 00        	.byte0
 3289 08f9 10        	.uleb128 0x10
 3290 08fa 0000 002C 	.long0x2c
 3291 08fe 0000 0909 	.long0x909
 3292 0902 11        	.uleb128 0x11
 3293 0903 0000 006E 	.long0x6e
 3294 0907 00        	.byte0
 3295 0908 00        	.byte0
 3296 0909 0D        	.uleb128 0xd
 3297 090a 0000 0000 	.long.LASF150
 3298 090e 09        	.byte0x9
 3299 090f 011F      	.word0x11f
 3300 0911 0000 0620 	.long0x620
68K GAS   			page 82


 3301 0915 08        	.uleb128 0x8
 3302 0916 0000 0000 	.long.LASF151
 3303 091a 0C        	.byte0xc
 3304 091b 09        	.byte0x9
 3305 091c 0123      	.word0x123
 3306 091e 0000 094A 	.long0x94a
 3307 0922 09        	.uleb128 0x9
 3308 0923 0000 0000 	.long.LASF88
 3309 0927 09        	.byte0x9
 3310 0928 0125      	.word0x125
 3311 092a 0000 094A 	.long0x94a
 3312 092e 00        	.byte0
 3313 092f 09        	.uleb128 0x9
 3314 0930 0000 0000 	.long.LASF152
 3315 0934 09        	.byte0x9
 3316 0935 0126      	.word0x126
 3317 0937 0000 0113 	.long0x113
 3318 093b 04        	.byte0x4
 3319 093c 09        	.uleb128 0x9
 3320 093d 0000 0000 	.long.LASF153
 3321 0941 09        	.byte0x9
 3322 0942 0127      	.word0x127
 3323 0944 0000 0950 	.long0x950
 3324 0948 08        	.byte0x8
 3325 0949 00        	.byte0
 3326 094a 0A        	.uleb128 0xa
 3327 094b 04        	.byte0x4
 3328 094c 0000 0915 	.long0x915
 3329 0950 0A        	.uleb128 0xa
 3330 0951 04        	.byte0x4
 3331 0952 0000 0909 	.long0x909
 3332 0956 08        	.uleb128 0x8
 3333 0957 0000 0000 	.long.LASF154
 3334 095b 0E        	.byte0xe
 3335 095c 09        	.byte0x9
 3336 095d 013F      	.word0x13f
 3337 095f 0000 098B 	.long0x98b
 3338 0963 09        	.uleb128 0x9
 3339 0964 0000 0000 	.long.LASF155
 3340 0968 09        	.byte0x9
 3341 0969 0140      	.word0x140
 3342 096b 0000 098B 	.long0x98b
 3343 096f 00        	.byte0
 3344 0970 09        	.uleb128 0x9
 3345 0971 0000 0000 	.long.LASF156
 3346 0975 09        	.byte0x9
 3347 0976 0141      	.word0x141
 3348 0978 0000 098B 	.long0x98b
 3349 097c 06        	.byte0x6
 3350 097d 09        	.uleb128 0x9
 3351 097e 0000 0000 	.long.LASF157
 3352 0982 09        	.byte0x9
 3353 0983 0142      	.word0x142
 3354 0985 0000 004A 	.long0x4a
 3355 0989 0C        	.byte0xc
 3356 098a 00        	.byte0
 3357 098b 10        	.uleb128 0x10
68K GAS   			page 83


 3358 098c 0000 004A 	.long0x4a
 3359 0990 0000 099B 	.long0x99b
 3360 0994 11        	.uleb128 0x11
 3361 0995 0000 006E 	.long0x6e
 3362 0999 02        	.byte0x2
 3363 099a 00        	.byte0
 3364 099b 1A        	.uleb128 0x1a
 3365 099c CC        	.byte0xcc
 3366 099d 09        	.byte0x9
 3367 099e 0259      	.word0x259
 3368 09a0 0000 0A9C 	.long0xa9c
 3369 09a4 09        	.uleb128 0x9
 3370 09a5 0000 0000 	.long.LASF158
 3371 09a9 09        	.byte0x9
 3372 09aa 025B      	.word0x25b
 3373 09ac 0000 013F 	.long0x13f
 3374 09b0 00        	.byte0
 3375 09b1 09        	.uleb128 0x9
 3376 09b2 0000 0000 	.long.LASF159
 3377 09b6 09        	.byte0x9
 3378 09b7 025C      	.word0x25c
 3379 09b9 0000 087B 	.long0x87b
 3380 09bd 04        	.byte0x4
 3381 09be 09        	.uleb128 0x9
 3382 09bf 0000 0000 	.long.LASF160
 3383 09c3 09        	.byte0x9
 3384 09c4 025D      	.word0x25d
 3385 09c6 0000 0A9C 	.long0xa9c
 3386 09ca 08        	.byte0x8
 3387 09cb 09        	.uleb128 0x9
 3388 09cc 0000 0000 	.long.LASF161
 3389 09d0 09        	.byte0x9
 3390 09d1 025E      	.word0x25e
 3391 09d3 0000 04D1 	.long0x4d1
 3392 09d7 24        	.byte0x24
 3393 09d8 09        	.uleb128 0x9
 3394 09d9 0000 0000 	.long.LASF162
 3395 09dd 09        	.byte0x9
 3396 09de 025F      	.word0x25f
 3397 09e0 0000 0113 	.long0x113
 3398 09e4 48        	.byte0x48
 3399 09e5 09        	.uleb128 0x9
 3400 09e6 0000 0000 	.long.LASF163
 3401 09ea 09        	.byte0x9
 3402 09eb 0260      	.word0x260
 3403 09ed 0000 0092 	.long0x92
 3404 09f1 4C        	.byte0x4c
 3405 09f2 09        	.uleb128 0x9
 3406 09f3 0000 0000 	.long.LASF164
 3407 09f7 09        	.byte0x9
 3408 09f8 0261      	.word0x261
 3409 09fa 0000 0956 	.long0x956
 3410 09fe 54        	.byte0x54
 3411 09ff 09        	.uleb128 0x9
 3412 0a00 0000 0000 	.long.LASF165
 3413 0a04 09        	.byte0x9
 3414 0a05 0262      	.word0x262
68K GAS   			page 84


 3415 0a07 0000 043A 	.long0x43a
 3416 0a0b 64        	.byte0x64
 3417 0a0c 09        	.uleb128 0x9
 3418 0a0d 0000 0000 	.long.LASF166
 3419 0a11 09        	.byte0x9
 3420 0a12 0263      	.word0x263
 3421 0a14 0000 043A 	.long0x43a
 3422 0a18 6C        	.byte0x6c
 3423 0a19 09        	.uleb128 0x9
 3424 0a1a 0000 0000 	.long.LASF167
 3425 0a1e 09        	.byte0x9
 3426 0a1f 0264      	.word0x264
 3427 0a21 0000 043A 	.long0x43a
 3428 0a25 74        	.byte0x74
 3429 0a26 09        	.uleb128 0x9
 3430 0a27 0000 0000 	.long.LASF168
 3431 0a2b 09        	.byte0x9
 3432 0a2c 0265      	.word0x265
 3433 0a2e 0000 0AAC 	.long0xaac
 3434 0a32 7C        	.byte0x7c
 3435 0a33 09        	.uleb128 0x9
 3436 0a34 0000 0000 	.long.LASF169
 3437 0a38 09        	.byte0x9
 3438 0a39 0266      	.word0x266
 3439 0a3b 0000 0ABC 	.long0xabc
 3440 0a3f 84        	.byte0x84
 3441 0a40 09        	.uleb128 0x9
 3442 0a41 0000 0000 	.long.LASF170
 3443 0a45 09        	.byte0x9
 3444 0a46 0267      	.word0x267
 3445 0a48 0000 0113 	.long0x113
 3446 0a4c 9C        	.byte0x9c
 3447 0a4d 09        	.uleb128 0x9
 3448 0a4e 0000 0000 	.long.LASF171
 3449 0a52 09        	.byte0x9
 3450 0a53 0268      	.word0x268
 3451 0a55 0000 043A 	.long0x43a
 3452 0a59 A0        	.byte0xa0
 3453 0a5a 09        	.uleb128 0x9
 3454 0a5b 0000 0000 	.long.LASF172
 3455 0a5f 09        	.byte0x9
 3456 0a60 0269      	.word0x269
 3457 0a62 0000 043A 	.long0x43a
 3458 0a66 A8        	.byte0xa8
 3459 0a67 09        	.uleb128 0x9
 3460 0a68 0000 0000 	.long.LASF173
 3461 0a6c 09        	.byte0x9
 3462 0a6d 026A      	.word0x26a
 3463 0a6f 0000 043A 	.long0x43a
 3464 0a73 B0        	.byte0xb0
 3465 0a74 09        	.uleb128 0x9
 3466 0a75 0000 0000 	.long.LASF174
 3467 0a79 09        	.byte0x9
 3468 0a7a 026B      	.word0x26b
 3469 0a7c 0000 043A 	.long0x43a
 3470 0a80 B8        	.byte0xb8
 3471 0a81 09        	.uleb128 0x9
68K GAS   			page 85


 3472 0a82 0000 0000 	.long.LASF175
 3473 0a86 09        	.byte0x9
 3474 0a87 026C      	.word0x26c
 3475 0a89 0000 043A 	.long0x43a
 3476 0a8d C0        	.byte0xc0
 3477 0a8e 09        	.uleb128 0x9
 3478 0a8f 0000 0000 	.long.LASF176
 3479 0a93 09        	.byte0x9
 3480 0a94 026D      	.word0x26d
 3481 0a96 0000 0113 	.long0x113
 3482 0a9a C8        	.byte0xc8
 3483 0a9b 00        	.byte0
 3484 0a9c 10        	.uleb128 0x10
 3485 0a9d 0000 0346 	.long0x346
 3486 0aa1 0000 0AAC 	.long0xaac
 3487 0aa5 11        	.uleb128 0x11
 3488 0aa6 0000 006E 	.long0x6e
 3489 0aaa 19        	.byte0x19
 3490 0aab 00        	.byte0
 3491 0aac 10        	.uleb128 0x10
 3492 0aad 0000 0346 	.long0x346
 3493 0ab1 0000 0ABC 	.long0xabc
 3494 0ab5 11        	.uleb128 0x11
 3495 0ab6 0000 006E 	.long0x6e
 3496 0aba 07        	.byte0x7
 3497 0abb 00        	.byte0
 3498 0abc 10        	.uleb128 0x10
 3499 0abd 0000 0346 	.long0x346
 3500 0ac1 0000 0ACC 	.long0xacc
 3501 0ac5 11        	.uleb128 0x11
 3502 0ac6 0000 006E 	.long0x6e
 3503 0aca 17        	.byte0x17
 3504 0acb 00        	.byte0
 3505 0acc 1A        	.uleb128 0x1a
 3506 0acd F0        	.byte0xf0
 3507 0ace 09        	.byte0x9
 3508 0acf 0272      	.word0x272
 3509 0ad1 0000 0AF0 	.long0xaf0
 3510 0ad5 09        	.uleb128 0x9
 3511 0ad6 0000 0000 	.long.LASF177
 3512 0ada 09        	.byte0x9
 3513 0adb 0275      	.word0x275
 3514 0add 0000 0AF0 	.long0xaf0
 3515 0ae1 00        	.byte0
 3516 0ae2 09        	.uleb128 0x9
 3517 0ae3 0000 0000 	.long.LASF178
 3518 0ae7 09        	.byte0x9
 3519 0ae8 0276      	.word0x276
 3520 0aea 0000 0B00 	.long0xb00
 3521 0aee 78        	.byte0x78
 3522 0aef 00        	.byte0
 3523 0af0 10        	.uleb128 0x10
 3524 0af1 0000 061A 	.long0x61a
 3525 0af5 0000 0B00 	.long0xb00
 3526 0af9 11        	.uleb128 0x11
 3527 0afa 0000 006E 	.long0x6e
 3528 0afe 1D        	.byte0x1d
68K GAS   			page 86


 3529 0aff 00        	.byte0
 3530 0b00 10        	.uleb128 0x10
 3531 0b01 0000 013F 	.long0x13f
 3532 0b05 0000 0B10 	.long0xb10
 3533 0b09 11        	.uleb128 0x11
 3534 0b0a 0000 006E 	.long0x6e
 3535 0b0e 1D        	.byte0x1d
 3536 0b0f 00        	.byte0
 3537 0b10 1B        	.uleb128 0x1b
 3538 0b11 F0        	.byte0xf0
 3539 0b12 09        	.byte0x9
 3540 0b13 0257      	.word0x257
 3541 0b15 0000 0B32 	.long0xb32
 3542 0b19 1C        	.uleb128 0x1c
 3543 0b1a 0000 0000 	.long.LASF130
 3544 0b1e 09        	.byte0x9
 3545 0b1f 026E      	.word0x26e
 3546 0b21 0000 099B 	.long0x99b
 3547 0b25 1C        	.uleb128 0x1c
 3548 0b26 0000 0000 	.long.LASF179
 3549 0b2a 09        	.byte0x9
 3550 0b2b 0277      	.word0x277
 3551 0b2d 0000 0ACC 	.long0xacc
 3552 0b31 00        	.byte0
 3553 0b32 10        	.uleb128 0x10
 3554 0b33 0000 0346 	.long0x346
 3555 0b37 0000 0B42 	.long0xb42
 3556 0b3b 11        	.uleb128 0x11
 3557 0b3c 0000 006E 	.long0x6e
 3558 0b40 18        	.byte0x18
 3559 0b41 00        	.byte0
 3560 0b42 1D        	.uleb128 0x1d
 3561 0b43 0000 0000 	.long.LASF377
 3562 0b47 0A        	.uleb128 0xa
 3563 0b48 04        	.byte0x4
 3564 0b49 0000 0B42 	.long0xb42
 3565 0b4d 1E        	.uleb128 0x1e
 3566 0b4e 0000 0B58 	.long0xb58
 3567 0b52 19        	.uleb128 0x19
 3568 0b53 0000 0768 	.long0x768
 3569 0b57 00        	.byte0
 3570 0b58 0A        	.uleb128 0xa
 3571 0b59 04        	.byte0x4
 3572 0b5a 0000 0B4D 	.long0xb4d
 3573 0b5e 0A        	.uleb128 0xa
 3574 0b5f 04        	.byte0x4
 3575 0b60 0000 04BB 	.long0x4bb
 3576 0b64 1E        	.uleb128 0x1e
 3577 0b65 0000 0B6F 	.long0xb6f
 3578 0b69 19        	.uleb128 0x19
 3579 0b6a 0000 0113 	.long0x113
 3580 0b6e 00        	.byte0
 3581 0b6f 0A        	.uleb128 0xa
 3582 0b70 04        	.byte0x4
 3583 0b71 0000 0B75 	.long0xb75
 3584 0b75 0A        	.uleb128 0xa
 3585 0b76 04        	.byte0x4
68K GAS   			page 87


 3586 0b77 0000 0B64 	.long0xb64
 3587 0b7b 10        	.uleb128 0x10
 3588 0b7c 0000 0909 	.long0x909
 3589 0b80 0000 0B8B 	.long0xb8b
 3590 0b84 11        	.uleb128 0x11
 3591 0b85 0000 006E 	.long0x6e
 3592 0b89 02        	.byte0x2
 3593 0b8a 00        	.byte0
 3594 0b8b 1F        	.uleb128 0x1f
 3595 0b8c 0000 0000 	.long.LASF180
 3596 0b90 09        	.byte0x9
 3597 0b91 028D      	.word0x28d
 3598 0b93 0000 0B7B 	.long0xb7b
 3599 0b97 1F        	.uleb128 0x1f
 3600 0b98 0000 0000 	.long.LASF181
 3601 0b9c 09        	.byte0x9
 3602 0b9d 0307      	.word0x307
 3603 0b9f 0000 0768 	.long0x768
 3604 0ba3 1F        	.uleb128 0x1f
 3605 0ba4 0000 0000 	.long.LASF182
 3606 0ba8 09        	.byte0x9
 3607 0ba9 0308      	.word0x308
 3608 0bab 0000 076E 	.long0x76e
 3609 0baf 1F        	.uleb128 0x1f
 3610 0bb0 0000 0000 	.long.LASF183
 3611 0bb4 09        	.byte0x9
 3612 0bb5 031A      	.word0x31a
 3613 0bb7 0000 05D8 	.long0x5d8
 3614 0bbb 04        	.uleb128 0x4
 3615 0bbc 0000 0000 	.long.LASF184
 3616 0bc0 0A        	.byte0xa
 3617 0bc1 24        	.byte0x24
 3618 0bc2 0000 003F 	.long0x3f
 3619 0bc6 04        	.uleb128 0x4
 3620 0bc7 0000 0000 	.long.LASF185
 3621 0bcb 0A        	.byte0xa
 3622 0bcc 2C        	.byte0x2c
 3623 0bcd 0000 0051 	.long0x51
 3624 0bd1 20        	.uleb128 0x20
 3625 0bd2 0000 0BC6 	.long0xbc6
 3626 0bd6 04        	.uleb128 0x4
 3627 0bd7 0000 0000 	.long.LASF186
 3628 0bdb 0A        	.byte0xa
 3629 0bdc 30        	.byte0x30
 3630 0bdd 0000 0063 	.long0x63
 3631 0be1 03        	.uleb128 0x3
 3632 0be2 0000 0BD6 	.long0xbd6
 3633 0be6 04        	.uleb128 0x4
 3634 0be7 0000 0000 	.long.LASF187
 3635 0beb 0A        	.byte0xa
 3636 0bec 3C        	.byte0x3c
 3637 0bed 0000 0087 	.long0x87
 3638 0bf1 04        	.uleb128 0x4
 3639 0bf2 0000 0000 	.long.LASF188
 3640 0bf6 0A        	.byte0xa
 3641 0bf7 52        	.byte0x52
 3642 0bf8 0000 00A4 	.long0xa4
68K GAS   			page 88


 3643 0bfc 04        	.uleb128 0x4
 3644 0bfd 0000 0000 	.long.LASF189
 3645 0c01 0B        	.byte0xb
 3646 0c02 28        	.byte0x28
 3647 0c03 0000 0099 	.long0x99
 3648 0c07 20        	.uleb128 0x20
 3649 0c08 0000 0BFC 	.long0xbfc
 3650 0c0c 06        	.uleb128 0x6
 3651 0c0d 0000 0000 	.long.LASF190
 3652 0c11 0C        	.byte0xc
 3653 0c12 0C        	.byte0xc
 3654 0c13 2D        	.byte0x2d
 3655 0c14 0000 0C31 	.long0xc31
 3656 0c18 07        	.uleb128 0x7
 3657 0c19 0000 0000 	.long.LASF191
 3658 0c1d 0C        	.byte0xc
 3659 0c1e 2E        	.byte0x2e
 3660 0c1f 0000 0BFC 	.long0xbfc
 3661 0c23 00        	.byte0
 3662 0c24 07        	.uleb128 0x7
 3663 0c25 0000 0000 	.long.LASF192
 3664 0c29 0C        	.byte0xc
 3665 0c2a 2F        	.byte0x2f
 3666 0c2b 0000 005C 	.long0x5c
 3667 0c2f 08        	.byte0x8
 3668 0c30 00        	.byte0
 3669 0c31 04        	.uleb128 0x4
 3670 0c32 0000 0000 	.long.LASF193
 3671 0c36 0D        	.byte0xd
 3672 0c37 5F        	.byte0x5f
 3673 0c38 0000 013F 	.long0x13f
 3674 0c3c 04        	.uleb128 0x4
 3675 0c3d 0000 0000 	.long.LASF194
 3676 0c41 0D        	.byte0xd
 3677 0c42 71        	.byte0x71
 3678 0c43 0000 00C6 	.long0xc6
 3679 0c47 04        	.uleb128 0x4
 3680 0c48 0000 0000 	.long.LASF195
 3681 0c4c 0D        	.byte0xd
 3682 0c4d 76        	.byte0x76
 3683 0c4e 0000 00D1 	.long0xd1
 3684 0c52 04        	.uleb128 0x4
 3685 0c53 0000 0000 	.long.LASF196
 3686 0c57 0D        	.byte0xd
 3687 0c58 90        	.byte0x90
 3688 0c59 0000 039C 	.long0x39c
 3689 0c5d 04        	.uleb128 0x4
 3690 0c5e 0000 0000 	.long.LASF197
 3691 0c62 0D        	.byte0xd
 3692 0c63 91        	.byte0x91
 3693 0c64 0000 03A7 	.long0x3a7
 3694 0c68 04        	.uleb128 0x4
 3695 0c69 0000 0000 	.long.LASF198
 3696 0c6d 0D        	.byte0xd
 3697 0c6e 9B        	.byte0x9b
 3698 0c6f 0000 00FD 	.long0xfd
 3699 0c73 04        	.uleb128 0x4
68K GAS   			page 89


 3700 0c74 0000 0000 	.long.LASF199
 3701 0c78 0D        	.byte0xd
 3702 0c79 AD        	.byte0xad
 3703 0c7a 0000 03C8 	.long0x3c8
 3704 0c7e 04        	.uleb128 0x4
 3705 0c7f 0000 0000 	.long.LASF200
 3706 0c83 0D        	.byte0xd
 3707 0c84 B1        	.byte0xb1
 3708 0c85 0000 00DC 	.long0xdc
 3709 0c89 04        	.uleb128 0x4
 3710 0c8a 0000 0000 	.long.LASF201
 3711 0c8e 0D        	.byte0xd
 3712 0c8f B5        	.byte0xb5
 3713 0c90 0000 03B2 	.long0x3b2
 3714 0c94 04        	.uleb128 0x4
 3715 0c95 0000 0000 	.long.LASF202
 3716 0c99 0D        	.byte0xd
 3717 0c9a B9        	.byte0xb9
 3718 0c9b 0000 03BD 	.long0x3bd
 3719 0c9f 04        	.uleb128 0x4
 3720 0ca0 0000 0000 	.long.LASF203
 3721 0ca4 0D        	.byte0xd
 3722 0ca5 C8        	.byte0xc8
 3723 0ca6 0000 03D3 	.long0x3d3
 3724 0caa 04        	.uleb128 0x4
 3725 0cab 0000 0000 	.long.LASF204
 3726 0caf 0D        	.byte0xd
 3727 0cb0 CD        	.byte0xcd
 3728 0cb1 0000 0108 	.long0x108
 3729 0cb5 04        	.uleb128 0x4
 3730 0cb6 0000 0000 	.long.LASF205
 3731 0cba 0D        	.byte0xd
 3732 0cbb D2        	.byte0xd2
 3733 0cbc 0000 0452 	.long0x452
 3734 0cc0 04        	.uleb128 0x4
 3735 0cc1 0000 0000 	.long.LASF206
 3736 0cc5 0D        	.byte0xd
 3737 0cc6 EC        	.byte0xec
 3738 0cc7 0000 0075 	.long0x75
 3739 0ccb 06        	.uleb128 0x6
 3740 0ccc 0000 0000 	.long.LASF207
 3741 0cd0 48        	.byte0x48
 3742 0cd1 0E        	.byte0xe
 3743 0cd2 EC        	.byte0xec
 3744 0cd3 0000 0D09 	.long0xd09
 3745 0cd7 07        	.uleb128 0x7
 3746 0cd8 0000 0000 	.long.LASF208
 3747 0cdc 0E        	.byte0xe
 3748 0cdd F0        	.byte0xf0
 3749 0cde 0000 2132 	.long0x2132
 3750 0ce2 00        	.byte0
 3751 0ce3 07        	.uleb128 0x7
 3752 0ce4 0000 0000 	.long.LASF209
 3753 0ce8 0E        	.byte0xe
 3754 0ce9 F5        	.byte0xf5
 3755 0cea 0000 2114 	.long0x2114
 3756 0cee 04        	.byte0x4
68K GAS   			page 90


 3757 0cef 07        	.uleb128 0x7
 3758 0cf0 0000 0000 	.long.LASF210
 3759 0cf4 0E        	.byte0xe
 3760 0cf5 FD        	.byte0xfd
 3761 0cf6 0000 1356 	.long0x1356
 3762 0cfa 3C        	.byte0x3c
 3763 0cfb 09        	.uleb128 0x9
 3764 0cfc 0000 0000 	.long.LASF211
 3765 0d00 0E        	.byte0xe
 3766 0d01 0102      	.word0x102
 3767 0d03 0000 0BD6 	.long0xbd6
 3768 0d07 44        	.byte0x44
 3769 0d08 00        	.byte0
 3770 0d09 0A        	.uleb128 0xa
 3771 0d0a 04        	.byte0x4
 3772 0d0b 0000 0D0F 	.long0xd0f
 3773 0d0f 21        	.uleb128 0x21
 3774 0d10 22        	.uleb128 0x22
 3775 0d11 0000 0000 	.long.LASF212
 3776 0d15 0F        	.byte0xf
 3777 0d16 63        	.byte0x63
 3778 0d17 0000 087B 	.long0x87b
 3779 0d1b 22        	.uleb128 0x22
 3780 0d1c 0000 0000 	.long.LASF213
 3781 0d20 10        	.byte0x10
 3782 0d21 9A        	.byte0x9a
 3783 0d22 0000 005C 	.long0x5c
 3784 0d26 22        	.uleb128 0x22
 3785 0d27 0000 0000 	.long.LASF214
 3786 0d2b 10        	.byte0x10
 3787 0d2c 9B        	.byte0x9b
 3788 0d2d 0000 0113 	.long0x113
 3789 0d31 10        	.uleb128 0x10
 3790 0d32 0000 087B 	.long0x87b
 3791 0d36 0000 0D41 	.long0xd41
 3792 0d3a 11        	.uleb128 0x11
 3793 0d3b 0000 006E 	.long0x6e
 3794 0d3f 01        	.byte0x1
 3795 0d40 00        	.byte0
 3796 0d41 22        	.uleb128 0x22
 3797 0d42 0000 0000 	.long.LASF215
 3798 0d46 10        	.byte0x10
 3799 0d47 9E        	.byte0x9e
 3800 0d48 0000 0D31 	.long0xd31
 3801 0d4c 06        	.uleb128 0x6
 3802 0d4d 0000 0000 	.long.LASF216
 3803 0d51 54        	.byte0x54
 3804 0d52 11        	.byte0x11
 3805 0d53 1B        	.byte0x1b
 3806 0d54 0000 0DF5 	.long0xdf5
 3807 0d58 07        	.uleb128 0x7
 3808 0d59 0000 0000 	.long.LASF217
 3809 0d5d 11        	.byte0x11
 3810 0d5e 1D        	.byte0x1d
 3811 0d5f 0000 0C7E 	.long0xc7e
 3812 0d63 00        	.byte0
 3813 0d64 07        	.uleb128 0x7
68K GAS   			page 91


 3814 0d65 0000 0000 	.long.LASF218
 3815 0d69 11        	.byte0x11
 3816 0d6a 1E        	.byte0x1e
 3817 0d6b 0000 0C68 	.long0xc68
 3818 0d6f 08        	.byte0x8
 3819 0d70 07        	.uleb128 0x7
 3820 0d71 0000 0000 	.long.LASF219
 3821 0d75 11        	.byte0x11
 3822 0d76 1F        	.byte0x1f
 3823 0d77 0000 0CAA 	.long0xcaa
 3824 0d7b 0C        	.byte0xc
 3825 0d7c 07        	.uleb128 0x7
 3826 0d7d 0000 0000 	.long.LASF220
 3827 0d81 11        	.byte0x11
 3828 0d82 20        	.byte0x20
 3829 0d83 0000 0CB5 	.long0xcb5
 3830 0d87 10        	.byte0x10
 3831 0d88 07        	.uleb128 0x7
 3832 0d89 0000 0000 	.long.LASF221
 3833 0d8d 11        	.byte0x11
 3834 0d8e 21        	.byte0x21
 3835 0d8f 0000 0C89 	.long0xc89
 3836 0d93 12        	.byte0x12
 3837 0d94 07        	.uleb128 0x7
 3838 0d95 0000 0000 	.long.LASF222
 3839 0d99 11        	.byte0x11
 3840 0d9a 22        	.byte0x22
 3841 0d9b 0000 0C94 	.long0xc94
 3842 0d9f 14        	.byte0x14
 3843 0da0 07        	.uleb128 0x7
 3844 0da1 0000 0000 	.long.LASF223
 3845 0da5 11        	.byte0x11
 3846 0da6 23        	.byte0x23
 3847 0da7 0000 0C7E 	.long0xc7e
 3848 0dab 18        	.byte0x18
 3849 0dac 07        	.uleb128 0x7
 3850 0dad 0000 0000 	.long.LASF224
 3851 0db1 11        	.byte0x11
 3852 0db2 24        	.byte0x24
 3853 0db3 0000 0C73 	.long0xc73
 3854 0db7 20        	.byte0x20
 3855 0db8 07        	.uleb128 0x7
 3856 0db9 0000 0000 	.long.LASF225
 3857 0dbd 11        	.byte0x11
 3858 0dbe 26        	.byte0x26
 3859 0dbf 0000 0C0C 	.long0xc0c
 3860 0dc3 28        	.byte0x28
 3861 0dc4 07        	.uleb128 0x7
 3862 0dc5 0000 0000 	.long.LASF226
 3863 0dc9 11        	.byte0x11
 3864 0dca 27        	.byte0x27
 3865 0dcb 0000 0C0C 	.long0xc0c
 3866 0dcf 34        	.byte0x34
 3867 0dd0 07        	.uleb128 0x7
 3868 0dd1 0000 0000 	.long.LASF227
 3869 0dd5 11        	.byte0x11
 3870 0dd6 28        	.byte0x28
68K GAS   			page 92


 3871 0dd7 0000 0C0C 	.long0xc0c
 3872 0ddb 40        	.byte0x40
 3873 0ddc 07        	.uleb128 0x7
 3874 0ddd 0000 0000 	.long.LASF228
 3875 0de1 11        	.byte0x11
 3876 0de2 29        	.byte0x29
 3877 0de3 0000 0C47 	.long0xc47
 3878 0de7 4C        	.byte0x4c
 3879 0de8 07        	.uleb128 0x7
 3880 0de9 0000 0000 	.long.LASF229
 3881 0ded 11        	.byte0x11
 3882 0dee 2A        	.byte0x2a
 3883 0def 0000 0C3C 	.long0xc3c
 3884 0df3 50        	.byte0x50
 3885 0df4 00        	.byte0
 3886 0df5 22        	.uleb128 0x22
 3887 0df6 0000 0000 	.long.LASF230
 3888 0dfa 12        	.byte0x12
 3889 0dfb 10        	.byte0x10
 3890 0dfc 0000 0E00 	.long0xe00
 3891 0e00 0A        	.uleb128 0xa
 3892 0e01 04        	.byte0x4
 3893 0e02 0000 087B 	.long0x87b
 3894 0e06 22        	.uleb128 0x22
 3895 0e07 0000 0000 	.long.LASF231
 3896 0e0b 12        	.byte0x12
 3897 0e0c FC        	.byte0xfc
 3898 0e0d 0000 087B 	.long0x87b
 3899 0e11 22        	.uleb128 0x22
 3900 0e12 0000 0000 	.long.LASF232
 3901 0e16 12        	.byte0x12
 3902 0e17 FD        	.byte0xfd
 3903 0e18 0000 0113 	.long0x113
 3904 0e1c 22        	.uleb128 0x22
 3905 0e1d 0000 0000 	.long.LASF233
 3906 0e21 12        	.byte0x12
 3907 0e22 FD        	.byte0xfd
 3908 0e23 0000 0113 	.long0x113
 3909 0e27 22        	.uleb128 0x22
 3910 0e28 0000 0000 	.long.LASF234
 3911 0e2c 12        	.byte0x12
 3912 0e2d FD        	.byte0xfd
 3913 0e2e 0000 0113 	.long0x113
 3914 0e32 22        	.uleb128 0x22
 3915 0e33 0000 0000 	.long.LASF235
 3916 0e37 12        	.byte0x12
 3917 0e38 FF        	.byte0xff
 3918 0e39 0000 0113 	.long0x113
 3919 0e3d 10        	.uleb128 0x10
 3920 0e3e 0000 0341 	.long0x341
 3921 0e42 0000 0E48 	.long0xe48
 3922 0e46 23        	.uleb128 0x23
 3923 0e47 00        	.byte0
 3924 0e48 03        	.uleb128 0x3
 3925 0e49 0000 0E3D 	.long0xe3d
 3926 0e4d 22        	.uleb128 0x22
 3927 0e4e 0000 0000 	.long.LASF236
68K GAS   			page 93


 3928 0e52 13        	.byte0x13
 3929 0e53 14        	.byte0x14
 3930 0e54 0000 0E48 	.long0xe48
 3931 0e58 22        	.uleb128 0x22
 3932 0e59 0000 0000 	.long.LASF237
 3933 0e5d 13        	.byte0x13
 3934 0e5e 15        	.byte0x15
 3935 0e5f 0000 0113 	.long0x113
 3936 0e63 06        	.uleb128 0x6
 3937 0e64 0000 0000 	.long.LASF238
 3938 0e68 38        	.byte0x38
 3939 0e69 14        	.byte0x14
 3940 0e6a 23        	.byte0x23
 3941 0e6b 0000 0EF4 	.long0xef4
 3942 0e6f 07        	.uleb128 0x7
 3943 0e70 0000 0000 	.long.LASF239
 3944 0e74 14        	.byte0x14
 3945 0e75 25        	.byte0x25
 3946 0e76 0000 006E 	.long0x6e
 3947 0e7a 00        	.byte0
 3948 0e7b 07        	.uleb128 0x7
 3949 0e7c 0000 0000 	.long.LASF240
 3950 0e80 14        	.byte0x14
 3951 0e81 26        	.byte0x26
 3952 0e82 0000 006E 	.long0x6e
 3953 0e86 04        	.byte0x4
 3954 0e87 07        	.uleb128 0x7
 3955 0e88 0000 0000 	.long.LASF241
 3956 0e8c 14        	.byte0x14
 3957 0e8d 27        	.byte0x27
 3958 0e8e 0000 0C52 	.long0xc52
 3959 0e92 08        	.byte0x8
 3960 0e93 07        	.uleb128 0x7
 3961 0e94 0000 0000 	.long.LASF242
 3962 0e98 14        	.byte0x14
 3963 0e99 29        	.byte0x29
 3964 0e9a 0000 0C52 	.long0xc52
 3965 0e9e 10        	.byte0x10
 3966 0e9f 07        	.uleb128 0x7
 3967 0ea0 0000 0000 	.long.LASF243
 3968 0ea4 14        	.byte0x14
 3969 0ea5 2A        	.byte0x2a
 3970 0ea6 0000 0C52 	.long0xc52
 3971 0eaa 18        	.byte0x18
 3972 0eab 07        	.uleb128 0x7
 3973 0eac 0000 0000 	.long.LASF244
 3974 0eb0 14        	.byte0x14
 3975 0eb1 2C        	.byte0x2c
 3976 0eb2 0000 0C5D 	.long0xc5d
 3977 0eb6 20        	.byte0x20
 3978 0eb7 07        	.uleb128 0x7
 3979 0eb8 0000 0000 	.long.LASF245
 3980 0ebc 14        	.byte0x14
 3981 0ebd 2D        	.byte0x2d
 3982 0ebe 0000 0C5D 	.long0xc5d
 3983 0ec2 24        	.byte0x24
 3984 0ec3 07        	.uleb128 0x7
68K GAS   			page 94


 3985 0ec4 0000 0000 	.long.LASF246
 3986 0ec8 14        	.byte0x14
 3987 0ec9 2E        	.byte0x2e
 3988 0eca 0000 0C5D 	.long0xc5d
 3989 0ece 28        	.byte0x28
 3990 0ecf 07        	.uleb128 0x7
 3991 0ed0 0000 0000 	.long.LASF247
 3992 0ed4 14        	.byte0x14
 3993 0ed5 30        	.byte0x30
 3994 0ed6 0000 006E 	.long0x6e
 3995 0eda 2C        	.byte0x2c
 3996 0edb 07        	.uleb128 0x7
 3997 0edc 0000 0000 	.long.LASF248
 3998 0ee0 14        	.byte0x14
 3999 0ee1 31        	.byte0x31
 4000 0ee2 0000 006E 	.long0x6e
 4001 0ee6 30        	.byte0x30
 4002 0ee7 07        	.uleb128 0x7
 4003 0ee8 0000 0000 	.long.LASF249
 4004 0eec 14        	.byte0x14
 4005 0eed 32        	.byte0x32
 4006 0eee 0000 006E 	.long0x6e
 4007 0ef2 34        	.byte0x34
 4008 0ef3 00        	.byte0
 4009 0ef4 04        	.uleb128 0x4
 4010 0ef5 0000 0000 	.long.LASF250
 4011 0ef9 15        	.byte0x15
 4012 0efa 23        	.byte0x23
 4013 0efb 0000 0BF1 	.long0xbf1
 4014 0eff 1F        	.uleb128 0x1f
 4015 0f00 0000 0000 	.long.LASF251
 4016 0f04 16        	.byte0x16
 4017 0f05 018D      	.word0x18d
 4018 0f07 0000 0450 	.long0x450
 4019 0f0b 12        	.uleb128 0x12
 4020 0f0c 34        	.byte0x34
 4021 0f0d 17        	.byte0x17
 4022 0f0e 7D        	.byte0x7d
 4023 0f0f 0000 0FA4 	.long0xfa4
 4024 0f13 14        	.uleb128 0x14
 4025 0f14 7372 00   	.string"sr"
 4026 0f17 17        	.byte0x17
 4027 0f18 7E        	.byte0x7e
 4028 0f19 0000 0BD6 	.long0xbd6
 4029 0f1d 00        	.byte0
 4030 0f1e 14        	.uleb128 0x14
 4031 0f1f 6432 00   	.string"d2"
 4032 0f22 17        	.byte0x17
 4033 0f23 7F        	.byte0x7f
 4034 0f24 0000 0BD6 	.long0xbd6
 4035 0f28 04        	.byte0x4
 4036 0f29 14        	.uleb128 0x14
 4037 0f2a 6433 00   	.string"d3"
 4038 0f2d 17        	.byte0x17
 4039 0f2e 80        	.byte0x80
 4040 0f2f 0000 0BD6 	.long0xbd6
 4041 0f33 08        	.byte0x8
68K GAS   			page 95


 4042 0f34 14        	.uleb128 0x14
 4043 0f35 6434 00   	.string"d4"
 4044 0f38 17        	.byte0x17
 4045 0f39 81        	.byte0x81
 4046 0f3a 0000 0BD6 	.long0xbd6
 4047 0f3e 0C        	.byte0xc
 4048 0f3f 14        	.uleb128 0x14
 4049 0f40 6435 00   	.string"d5"
 4050 0f43 17        	.byte0x17
 4051 0f44 82        	.byte0x82
 4052 0f45 0000 0BD6 	.long0xbd6
 4053 0f49 10        	.byte0x10
 4054 0f4a 14        	.uleb128 0x14
 4055 0f4b 6436 00   	.string"d6"
 4056 0f4e 17        	.byte0x17
 4057 0f4f 83        	.byte0x83
 4058 0f50 0000 0BD6 	.long0xbd6
 4059 0f54 14        	.byte0x14
 4060 0f55 14        	.uleb128 0x14
 4061 0f56 6437 00   	.string"d7"
 4062 0f59 17        	.byte0x17
 4063 0f5a 84        	.byte0x84
 4064 0f5b 0000 0BD6 	.long0xbd6
 4065 0f5f 18        	.byte0x18
 4066 0f60 14        	.uleb128 0x14
 4067 0f61 6132 00   	.string"a2"
 4068 0f64 17        	.byte0x17
 4069 0f65 85        	.byte0x85
 4070 0f66 0000 0450 	.long0x450
 4071 0f6a 1C        	.byte0x1c
 4072 0f6b 14        	.uleb128 0x14
 4073 0f6c 6133 00   	.string"a3"
 4074 0f6f 17        	.byte0x17
 4075 0f70 86        	.byte0x86
 4076 0f71 0000 0450 	.long0x450
 4077 0f75 20        	.byte0x20
 4078 0f76 14        	.uleb128 0x14
 4079 0f77 6134 00   	.string"a4"
 4080 0f7a 17        	.byte0x17
 4081 0f7b 87        	.byte0x87
 4082 0f7c 0000 0450 	.long0x450
 4083 0f80 24        	.byte0x24
 4084 0f81 14        	.uleb128 0x14
 4085 0f82 6135 00   	.string"a5"
 4086 0f85 17        	.byte0x17
 4087 0f86 88        	.byte0x88
 4088 0f87 0000 0450 	.long0x450
 4089 0f8b 28        	.byte0x28
 4090 0f8c 14        	.uleb128 0x14
 4091 0f8d 6136 00   	.string"a6"
 4092 0f90 17        	.byte0x17
 4093 0f91 89        	.byte0x89
 4094 0f92 0000 0450 	.long0x450
 4095 0f96 2C        	.byte0x2c
 4096 0f97 07        	.uleb128 0x7
 4097 0f98 0000 0000 	.long.LASF252
 4098 0f9c 17        	.byte0x17
68K GAS   			page 96


 4099 0f9d 8A        	.byte0x8a
 4100 0f9e 0000 0450 	.long0x450
 4101 0fa2 30        	.byte0x30
 4102 0fa3 00        	.byte0
 4103 0fa4 04        	.uleb128 0x4
 4104 0fa5 0000 0000 	.long.LASF253
 4105 0fa9 17        	.byte0x17
 4106 0faa 8E        	.byte0x8e
 4107 0fab 0000 0F0B 	.long0xf0b
 4108 0faf 0E        	.uleb128 0xe
 4109 0fb0 08        	.byte0x8
 4110 0fb1 17        	.byte0x17
 4111 0fb2 A5        	.byte0xa5
 4112 0fb3 0000 0FCC 	.long0xfcc
 4113 0fb7 24        	.uleb128 0x24
 4114 0fb8 7366 00   	.string"sf"
 4115 0fbb 17        	.byte0x17
 4116 0fbc A6        	.byte0xa6
 4117 0fbd 0000 0FCC 	.long0xfcc
 4118 0fc1 24        	.uleb128 0x24
 4119 0fc2 6466 00   	.string"df"
 4120 0fc5 17        	.byte0x17
 4121 0fc6 A7        	.byte0xa7
 4122 0fc7 0000 0FD3 	.long0xfd3
 4123 0fcb 00        	.byte0
 4124 0fcc 02        	.uleb128 0x2
 4125 0fcd 04        	.byte0x4
 4126 0fce 04        	.byte0x4
 4127 0fcf 0000 0000 	.long.LASF254
 4128 0fd3 02        	.uleb128 0x2
 4129 0fd4 08        	.byte0x8
 4130 0fd5 04        	.byte0x4
 4131 0fd6 0000 0000 	.long.LASF255
 4132 0fda 0E        	.uleb128 0xe
 4133 0fdb 08        	.byte0x8
 4134 0fdc 17        	.byte0x17
 4135 0fdd A9        	.byte0xa9
 4136 0fde 0000 0FF7 	.long0xff7
 4137 0fe2 24        	.uleb128 0x24
 4138 0fe3 7366 00   	.string"sf"
 4139 0fe6 17        	.byte0x17
 4140 0fe7 AA        	.byte0xaa
 4141 0fe8 0000 0FCC 	.long0xfcc
 4142 0fec 24        	.uleb128 0x24
 4143 0fed 6466 00   	.string"df"
 4144 0ff0 17        	.byte0x17
 4145 0ff1 AB        	.byte0xab
 4146 0ff2 0000 0FD3 	.long0xfd3
 4147 0ff6 00        	.byte0
 4148 0ff7 12        	.uleb128 0x12
 4149 0ff8 1C        	.byte0x1c
 4150 0ff9 17        	.byte0x17
 4151 0ffa 9E        	.byte0x9e
 4152 0ffb 0000 1060 	.long0x1060
 4153 0fff 07        	.uleb128 0x7
 4154 1000 0000 0000 	.long.LASF256
 4155 1004 17        	.byte0x17
68K GAS   			page 97


 4156 1005 9F        	.byte0x9f
 4157 1006 0000 0BBB 	.long0xbbb
 4158 100a 00        	.byte0
 4159 100b 07        	.uleb128 0x7
 4160 100c 0000 0000 	.long.LASF257
 4161 1010 17        	.byte0x17
 4162 1011 A0        	.byte0xa0
 4163 1012 0000 0BBB 	.long0xbbb
 4164 1016 02        	.byte0x2
 4165 1017 07        	.uleb128 0x7
 4166 1018 0000 0000 	.long.LASF258
 4167 101c 17        	.byte0x17
 4168 101d A1        	.byte0xa1
 4169 101e 0000 0BBB 	.long0xbbb
 4170 1022 04        	.byte0x4
 4171 1023 07        	.uleb128 0x7
 4172 1024 0000 0000 	.long.LASF259
 4173 1028 17        	.byte0x17
 4174 1029 A2        	.byte0xa2
 4175 102a 0000 0BBB 	.long0xbbb
 4176 102e 06        	.byte0x6
 4177 102f 07        	.uleb128 0x7
 4178 1030 0000 0000 	.long.LASF260
 4179 1034 17        	.byte0x17
 4180 1035 A3        	.byte0xa3
 4181 1036 0000 0BBB 	.long0xbbb
 4182 103a 08        	.byte0x8
 4183 103b 07        	.uleb128 0x7
 4184 103c 0000 0000 	.long.LASF261
 4185 1040 17        	.byte0x17
 4186 1041 A4        	.byte0xa4
 4187 1042 0000 0BBB 	.long0xbbb
 4188 1046 0A        	.byte0xa
 4189 1047 07        	.uleb128 0x7
 4190 1048 0000 0000 	.long.LASF262
 4191 104c 17        	.byte0x17
 4192 104d A8        	.byte0xa8
 4193 104e 0000 0FAF 	.long0xfaf
 4194 1052 0C        	.byte0xc
 4195 1053 07        	.uleb128 0x7
 4196 1054 0000 0000 	.long.LASF263
 4197 1058 17        	.byte0x17
 4198 1059 AC        	.byte0xac
 4199 105a 0000 0FDA 	.long0xfda
 4200 105e 14        	.byte0x14
 4201 105f 00        	.byte0
 4202 1060 04        	.uleb128 0x4
 4203 1061 0000 0000 	.long.LASF264
 4204 1065 17        	.byte0x17
 4205 1066 AD        	.byte0xad
 4206 1067 0000 0FF7 	.long0xff7
 4207 106b 10        	.uleb128 0x10
 4208 106c 0000 0033 	.long0x33
 4209 1070 0000 107B 	.long0x107b
 4210 1074 11        	.uleb128 0x11
 4211 1075 0000 006E 	.long0x6e
 4212 1079 FF        	.byte0xff
68K GAS   			page 98


 4213 107a 00        	.byte0
 4214 107b 03        	.uleb128 0x3
 4215 107c 0000 106B 	.long0x106b
 4216 1080 1F        	.uleb128 0x1f
 4217 1081 0000 0000 	.long.LASF265
 4218 1085 17        	.byte0x17
 4219 1086 01DE      	.word0x1de
 4220 1088 0000 107B 	.long0x107b
 4221 108c 10        	.uleb128 0x10
 4222 108d 0000 034D 	.long0x34d
 4223 1091 0000 1097 	.long0x1097
 4224 1095 23        	.uleb128 0x23
 4225 1096 00        	.byte0
 4226 1097 03        	.uleb128 0x3
 4227 1098 0000 108C 	.long0x108c
 4228 109c 22        	.uleb128 0x22
 4229 109d 0000 0000 	.long.LASF266
 4230 10a1 18        	.byte0x18
 4231 10a2 30        	.byte0x30
 4232 10a3 0000 1097 	.long0x1097
 4233 10a7 22        	.uleb128 0x22
 4234 10a8 0000 0000 	.long.LASF267
 4235 10ac 18        	.byte0x18
 4236 10ad 35        	.byte0x35
 4237 10ae 0000 1097 	.long0x1097
 4238 10b2 25        	.uleb128 0x25
 4239 10b3 07        	.byte0x7
 4240 10b4 04        	.byte0x4
 4241 10b5 0000 013F 	.long0x13f
 4242 10b9 19        	.byte0x19
 4243 10ba 2E        	.byte0x2e
 4244 10bb 0000 116E 	.long0x116e
 4245 10bf 26        	.uleb128 0x26
 4246 10c0 0000 0000 	.long.LASF268
 4247 10c4 00        	.byte0
 4248 10c5 26        	.uleb128 0x26
 4249 10c6 0000 0000 	.long.LASF269
 4250 10ca 01        	.byte0x1
 4251 10cb 26        	.uleb128 0x26
 4252 10cc 0000 0000 	.long.LASF270
 4253 10d0 02        	.byte0x2
 4254 10d1 26        	.uleb128 0x26
 4255 10d2 0000 0000 	.long.LASF271
 4256 10d6 03        	.byte0x3
 4257 10d7 26        	.uleb128 0x26
 4258 10d8 0000 0000 	.long.LASF272
 4259 10dc 04        	.byte0x4
 4260 10dd 26        	.uleb128 0x26
 4261 10de 0000 0000 	.long.LASF273
 4262 10e2 05        	.byte0x5
 4263 10e3 26        	.uleb128 0x26
 4264 10e4 0000 0000 	.long.LASF274
 4265 10e8 06        	.byte0x6
 4266 10e9 26        	.uleb128 0x26
 4267 10ea 0000 0000 	.long.LASF275
 4268 10ee 07        	.byte0x7
 4269 10ef 26        	.uleb128 0x26
68K GAS   			page 99


 4270 10f0 0000 0000 	.long.LASF276
 4271 10f4 08        	.byte0x8
 4272 10f5 26        	.uleb128 0x26
 4273 10f6 0000 0000 	.long.LASF277
 4274 10fa 09        	.byte0x9
 4275 10fb 26        	.uleb128 0x26
 4276 10fc 0000 0000 	.long.LASF278
 4277 1100 0A        	.byte0xa
 4278 1101 26        	.uleb128 0x26
 4279 1102 0000 0000 	.long.LASF279
 4280 1106 0B        	.byte0xb
 4281 1107 26        	.uleb128 0x26
 4282 1108 0000 0000 	.long.LASF280
 4283 110c 0C        	.byte0xc
 4284 110d 26        	.uleb128 0x26
 4285 110e 0000 0000 	.long.LASF281
 4286 1112 0D        	.byte0xd
 4287 1113 26        	.uleb128 0x26
 4288 1114 0000 0000 	.long.LASF282
 4289 1118 0E        	.byte0xe
 4290 1119 26        	.uleb128 0x26
 4291 111a 0000 0000 	.long.LASF283
 4292 111e 0F        	.byte0xf
 4293 111f 26        	.uleb128 0x26
 4294 1120 0000 0000 	.long.LASF284
 4295 1124 10        	.byte0x10
 4296 1125 26        	.uleb128 0x26
 4297 1126 0000 0000 	.long.LASF285
 4298 112a 11        	.byte0x11
 4299 112b 26        	.uleb128 0x26
 4300 112c 0000 0000 	.long.LASF286
 4301 1130 12        	.byte0x12
 4302 1131 26        	.uleb128 0x26
 4303 1132 0000 0000 	.long.LASF287
 4304 1136 13        	.byte0x13
 4305 1137 26        	.uleb128 0x26
 4306 1138 0000 0000 	.long.LASF288
 4307 113c 14        	.byte0x14
 4308 113d 26        	.uleb128 0x26
 4309 113e 0000 0000 	.long.LASF289
 4310 1142 15        	.byte0x15
 4311 1143 26        	.uleb128 0x26
 4312 1144 0000 0000 	.long.LASF290
 4313 1148 16        	.byte0x16
 4314 1149 26        	.uleb128 0x26
 4315 114a 0000 0000 	.long.LASF291
 4316 114e 17        	.byte0x17
 4317 114f 26        	.uleb128 0x26
 4318 1150 0000 0000 	.long.LASF292
 4319 1154 18        	.byte0x18
 4320 1155 26        	.uleb128 0x26
 4321 1156 0000 0000 	.long.LASF293
 4322 115a 19        	.byte0x19
 4323 115b 26        	.uleb128 0x26
 4324 115c 0000 0000 	.long.LASF294
 4325 1160 1A        	.byte0x1a
 4326 1161 26        	.uleb128 0x26
68K GAS   			page 100


 4327 1162 0000 0000 	.long.LASF295
 4328 1166 1B        	.byte0x1b
 4329 1167 26        	.uleb128 0x26
 4330 1168 0000 0000 	.long.LASF296
 4331 116c 1C        	.byte0x1c
 4332 116d 00        	.byte0
 4333 116e 04        	.uleb128 0x4
 4334 116f 0000 0000 	.long.LASF297
 4335 1173 19        	.byte0x19
 4336 1174 B5        	.byte0xb5
 4337 1175 0000 10B2 	.long0x10b2
 4338 1179 04        	.uleb128 0x4
 4339 117a 0000 0000 	.long.LASF298
 4340 117e 1A        	.byte0x1a
 4341 117f 2A        	.byte0x2a
 4342 1180 0000 0BD6 	.long0xbd6
 4343 1184 04        	.uleb128 0x4
 4344 1185 0000 0000 	.long.LASF299
 4345 1189 1B        	.byte0x1b
 4346 118a 68        	.byte0x68
 4347 118b 0000 013F 	.long0x13f
 4348 118f 02        	.uleb128 0x2
 4349 1190 01        	.byte0x1
 4350 1191 02        	.byte0x2
 4351 1192 0000 0000 	.long.LASF300
 4352 1196 04        	.uleb128 0x4
 4353 1197 0000 0000 	.long.LASF301
 4354 119b 1C        	.byte0x1c
 4355 119c 25        	.byte0x25
 4356 119d 0000 1184 	.long0x1184
 4357 11a1 12        	.uleb128 0x12
 4358 11a2 04        	.byte0x4
 4359 11a3 1D        	.byte0x1d
 4360 11a4 41        	.byte0x41
 4361 11a5 0000 11B6 	.long0x11b6
 4362 11a9 07        	.uleb128 0x7
 4363 11aa 0000 0000 	.long.LASF302
 4364 11ae 1D        	.byte0x1d
 4365 11af 45        	.byte0x45
 4366 11b0 0000 1179 	.long0x1179
 4367 11b4 00        	.byte0
 4368 11b5 00        	.byte0
 4369 11b6 04        	.uleb128 0x4
 4370 11b7 0000 0000 	.long.LASF303
 4371 11bb 1D        	.byte0x1d
 4372 11bc 4D        	.byte0x4d
 4373 11bd 0000 11A1 	.long0x11a1
 4374 11c1 04        	.uleb128 0x4
 4375 11c2 0000 0000 	.long.LASF304
 4376 11c6 1E        	.byte0x1e
 4377 11c7 30        	.byte0x30
 4378 11c8 0000 11CC 	.long0x11cc
 4379 11cc 06        	.uleb128 0x6
 4380 11cd 0000 0000 	.long.LASF305
 4381 11d1 08        	.byte0x8
 4382 11d2 1E        	.byte0x1e
 4383 11d3 41        	.byte0x41
68K GAS   			page 101


 4384 11d4 0000 11F1 	.long0x11f1
 4385 11d8 07        	.uleb128 0x7
 4386 11d9 0000 0000 	.long.LASF306
 4387 11dd 1E        	.byte0x1e
 4388 11de 43        	.byte0x43
 4389 11df 0000 11F1 	.long0x11f1
 4390 11e3 00        	.byte0
 4391 11e4 07        	.uleb128 0x7
 4392 11e5 0000 0000 	.long.LASF307
 4393 11e9 1E        	.byte0x1e
 4394 11ea 45        	.byte0x45
 4395 11eb 0000 11F1 	.long0x11f1
 4396 11ef 04        	.byte0x4
 4397 11f0 00        	.byte0
 4398 11f1 0A        	.uleb128 0xa
 4399 11f2 04        	.byte0x4
 4400 11f3 0000 11C1 	.long0x11c1
 4401 11f7 12        	.uleb128 0x12
 4402 11f8 0C        	.byte0xc
 4403 11f9 1E        	.byte0x1e
 4404 11fa 54        	.byte0x54
 4405 11fb 0000 1218 	.long0x1218
 4406 11ff 07        	.uleb128 0x7
 4407 1200 0000 0000 	.long.LASF308
 4408 1204 1E        	.byte0x1e
 4409 1205 55        	.byte0x55
 4410 1206 0000 11C1 	.long0x11c1
 4411 120a 00        	.byte0
 4412 120b 07        	.uleb128 0x7
 4413 120c 0000 0000 	.long.LASF309
 4414 1210 1E        	.byte0x1e
 4415 1211 56        	.byte0x56
 4416 1212 0000 11F1 	.long0x11f1
 4417 1216 08        	.byte0x8
 4418 1217 00        	.byte0
 4419 1218 12        	.uleb128 0x12
 4420 1219 0C        	.byte0xc
 4421 121a 1E        	.byte0x1e
 4422 121b 59        	.byte0x59
 4423 121c 0000 1239 	.long0x1239
 4424 1220 07        	.uleb128 0x7
 4425 1221 0000 0000 	.long.LASF309
 4426 1225 1E        	.byte0x1e
 4427 1226 5A        	.byte0x5a
 4428 1227 0000 11F1 	.long0x11f1
 4429 122b 00        	.byte0
 4430 122c 07        	.uleb128 0x7
 4431 122d 0000 0000 	.long.LASF308
 4432 1231 1E        	.byte0x1e
 4433 1232 5B        	.byte0x5b
 4434 1233 0000 11C1 	.long0x11c1
 4435 1237 04        	.byte0x4
 4436 1238 00        	.byte0
 4437 1239 0E        	.uleb128 0xe
 4438 123a 0C        	.byte0xc
 4439 123b 1E        	.byte0x1e
 4440 123c 53        	.byte0x53
68K GAS   			page 102


 4441 123d 0000 1258 	.long0x1258
 4442 1241 0F        	.uleb128 0xf
 4443 1242 0000 0000 	.long.LASF310
 4444 1246 1E        	.byte0x1e
 4445 1247 57        	.byte0x57
 4446 1248 0000 11F7 	.long0x11f7
 4447 124c 0F        	.uleb128 0xf
 4448 124d 0000 0000 	.long.LASF311
 4449 1251 1E        	.byte0x1e
 4450 1252 5C        	.byte0x5c
 4451 1253 0000 1218 	.long0x1218
 4452 1257 00        	.byte0
 4453 1258 04        	.uleb128 0x4
 4454 1259 0000 0000 	.long.LASF312
 4455 125d 1E        	.byte0x1e
 4456 125e 5D        	.byte0x5d
 4457 125f 0000 1239 	.long0x1239
 4458 1263 12        	.uleb128 0x12
 4459 1264 10        	.byte0x10
 4460 1265 1F        	.byte0x1f
 4461 1266 33        	.byte0x33
 4462 1267 0000 129C 	.long0x129c
 4463 126b 07        	.uleb128 0x7
 4464 126c 0000 0000 	.long.LASF313
 4465 1270 1F        	.byte0x1f
 4466 1271 33        	.byte0x33
 4467 1272 0000 12B5 	.long0x12b5
 4468 1276 00        	.byte0
 4469 1277 07        	.uleb128 0x7
 4470 1278 0000 0000 	.long.LASF314
 4471 127c 1F        	.byte0x1f
 4472 127d 33        	.byte0x33
 4473 127e 0000 12B5 	.long0x12b5
 4474 1282 04        	.byte0x4
 4475 1283 07        	.uleb128 0x7
 4476 1284 0000 0000 	.long.LASF315
 4477 1288 1F        	.byte0x1f
 4478 1289 33        	.byte0x33
 4479 128a 0000 12B5 	.long0x12b5
 4480 128e 08        	.byte0x8
 4481 128f 07        	.uleb128 0x7
 4482 1290 0000 0000 	.long.LASF316
 4483 1294 1F        	.byte0x1f
 4484 1295 33        	.byte0x33
 4485 1296 0000 0113 	.long0x113
 4486 129a 0C        	.byte0xc
 4487 129b 00        	.byte0
 4488 129c 06        	.uleb128 0x6
 4489 129d 0000 0000 	.long.LASF317
 4490 12a1 10        	.byte0x10
 4491 12a2 1F        	.byte0x1f
 4492 12a3 32        	.byte0x32
 4493 12a4 0000 12B5 	.long0x12b5
 4494 12a8 07        	.uleb128 0x7
 4495 12a9 0000 0000 	.long.LASF308
 4496 12ad 1F        	.byte0x1f
 4497 12ae 33        	.byte0x33
68K GAS   			page 103


 4498 12af 0000 1263 	.long0x1263
 4499 12b3 00        	.byte0
 4500 12b4 00        	.byte0
 4501 12b5 0A        	.uleb128 0xa
 4502 12b6 04        	.byte0x4
 4503 12b7 0000 129C 	.long0x129c
 4504 12bb 04        	.uleb128 0x4
 4505 12bc 0000 0000 	.long.LASF317
 4506 12c0 1F        	.byte0x1f
 4507 12c1 34        	.byte0x34
 4508 12c2 0000 129C 	.long0x129c
 4509 12c6 06        	.uleb128 0x6
 4510 12c7 0000 0000 	.long.LASF318
 4511 12cb 04        	.byte0x4
 4512 12cc 1F        	.byte0x1f
 4513 12cd 3C        	.byte0x3c
 4514 12ce 0000 12DF 	.long0x12df
 4515 12d2 07        	.uleb128 0x7
 4516 12d3 0000 0000 	.long.LASF319
 4517 12d7 1F        	.byte0x1f
 4518 12d8 3C        	.byte0x3c
 4519 12d9 0000 12B5 	.long0x12b5
 4520 12dd 00        	.byte0
 4521 12de 00        	.byte0
 4522 12df 04        	.uleb128 0x4
 4523 12e0 0000 0000 	.long.LASF318
 4524 12e4 1F        	.byte0x1f
 4525 12e5 3C        	.byte0x3c
 4526 12e6 0000 12C6 	.long0x12c6
 4527 12ea 0E        	.uleb128 0xe
 4528 12eb 04        	.byte0x4
 4529 12ec 20        	.byte0x20
 4530 12ed 45        	.byte0x45
 4531 12ee 0000 1309 	.long0x1309
 4532 12f2 0F        	.uleb128 0xf
 4533 12f3 0000 0000 	.long.LASF320
 4534 12f7 20        	.byte0x20
 4535 12f8 48        	.byte0x48
 4536 12f9 0000 033B 	.long0x33b
 4537 12fd 0F        	.uleb128 0xf
 4538 12fe 0000 0000 	.long.LASF321
 4539 1302 20        	.byte0x20
 4540 1303 4B        	.byte0x4b
 4541 1304 0000 0BD6 	.long0xbd6
 4542 1308 00        	.byte0
 4543 1309 04        	.uleb128 0x4
 4544 130a 0000 0000 	.long.LASF322
 4545 130e 20        	.byte0x20
 4546 130f 4C        	.byte0x4c
 4547 1310 0000 12EA 	.long0x12ea
 4548 1314 04        	.uleb128 0x4
 4549 1315 0000 0000 	.long.LASF323
 4550 1319 20        	.byte0x20
 4551 131a 7B        	.byte0x7b
 4552 131b 0000 0BD6 	.long0xbd6
 4553 131f 12        	.uleb128 0x12
 4554 1320 10        	.byte0x10
68K GAS   			page 104


 4555 1321 20        	.byte0x20
 4556 1322 E9        	.byte0xe9
 4557 1323 0000 134B 	.long0x134b
 4558 1327 07        	.uleb128 0x7
 4559 1328 0000 0000 	.long.LASF308
 4560 132c 20        	.byte0x20
 4561 132d EB        	.byte0xeb
 4562 132e 0000 11C1 	.long0x11c1
 4563 1332 00        	.byte0
 4564 1333 14        	.uleb128 0x14
 4565 1334 6964 00   	.string"id"
 4566 1337 20        	.byte0x20
 4567 1338 ED        	.byte0xed
 4568 1339 0000 1314 	.long0x1314
 4569 133d 08        	.byte0x8
 4570 133e 07        	.uleb128 0x7
 4571 133f 0000 0000 	.long.LASF211
 4572 1343 20        	.byte0x20
 4573 1344 EF        	.byte0xef
 4574 1345 0000 1309 	.long0x1309
 4575 1349 0C        	.byte0xc
 4576 134a 00        	.byte0
 4577 134b 04        	.uleb128 0x4
 4578 134c 0000 0000 	.long.LASF324
 4579 1350 20        	.byte0x20
 4580 1351 F0        	.byte0xf0
 4581 1352 0000 131F 	.long0x131f
 4582 1356 04        	.uleb128 0x4
 4583 1357 0000 0000 	.long.LASF325
 4584 135b 21        	.byte0x21
 4585 135c 42        	.byte0x42
 4586 135d 0000 0BE6 	.long0xbe6
 4587 1361 0E        	.uleb128 0xe
 4588 1362 10        	.byte0x10
 4589 1363 21        	.byte0x21
 4590 1364 62        	.byte0x62
 4591 1365 0000 1380 	.long0x1380
 4592 1369 0F        	.uleb128 0xf
 4593 136a 0000 0000 	.long.LASF326
 4594 136e 21        	.byte0x21
 4595 136f 63        	.byte0x63
 4596 1370 0000 11C1 	.long0x11c1
 4597 1374 0F        	.uleb128 0xf
 4598 1375 0000 0000 	.long.LASF327
 4599 1379 21        	.byte0x21
 4600 137a 64        	.byte0x64
 4601 137b 0000 12BB 	.long0x12bb
 4602 137f 00        	.byte0
 4603 1380 12        	.uleb128 0x12
 4604 1381 18        	.byte0x18
 4605 1382 21        	.byte0x21
 4606 1383 5E        	.byte0x5e
 4607 1384 0000 13A1 	.long0x13a1
 4608 1388 07        	.uleb128 0x7
 4609 1389 0000 0000 	.long.LASF308
 4610 138d 21        	.byte0x21
 4611 138e 65        	.byte0x65
68K GAS   			page 105


 4612 138f 0000 1361 	.long0x1361
 4613 1393 00        	.byte0
 4614 1394 07        	.uleb128 0x7
 4615 1395 0000 0000 	.long.LASF328
 4616 1399 21        	.byte0x21
 4617 139a 6A        	.byte0x6a
 4618 139b 0000 1356 	.long0x1356
 4619 139f 10        	.byte0x10
 4620 13a0 00        	.byte0
 4621 13a1 04        	.uleb128 0x4
 4622 13a2 0000 0000 	.long.LASF329
 4623 13a6 21        	.byte0x21
 4624 13a7 6B        	.byte0x6b
 4625 13a8 0000 1380 	.long0x1380
 4626 13ac 25        	.uleb128 0x25
 4627 13ad 07        	.byte0x7
 4628 13ae 04        	.byte0x4
 4629 13af 0000 013F 	.long0x13f
 4630 13b3 21        	.byte0x21
 4631 13b4 70        	.byte0x70
 4632 13b5 0000 13D2 	.long0x13d2
 4633 13b9 26        	.uleb128 0x26
 4634 13ba 0000 0000 	.long.LASF330
 4635 13be 00        	.byte0
 4636 13bf 26        	.uleb128 0x26
 4637 13c0 0000 0000 	.long.LASF331
 4638 13c4 01        	.byte0x1
 4639 13c5 26        	.uleb128 0x26
 4640 13c6 0000 0000 	.long.LASF332
 4641 13ca 02        	.byte0x2
 4642 13cb 26        	.uleb128 0x26
 4643 13cc 0000 0000 	.long.LASF333
 4644 13d0 03        	.byte0x3
 4645 13d1 00        	.byte0
 4646 13d2 04        	.uleb128 0x4
 4647 13d3 0000 0000 	.long.LASF334
 4648 13d7 21        	.byte0x21
 4649 13d8 75        	.byte0x75
 4650 13d9 0000 13AC 	.long0x13ac
 4651 13dd 04        	.uleb128 0x4
 4652 13de 0000 0000 	.long.LASF335
 4653 13e2 21        	.byte0x21
 4654 13e3 77        	.byte0x77
 4655 13e4 0000 13E8 	.long0x13e8
 4656 13e8 06        	.uleb128 0x6
 4657 13e9 0000 0000 	.long.LASF335
 4658 13ed 24        	.byte0x24
 4659 13ee 21        	.byte0x21
 4660 13ef 81        	.byte0x81
 4661 13f0 0000 1419 	.long0x1419
 4662 13f4 07        	.uleb128 0x7
 4663 13f5 0000 0000 	.long.LASF308
 4664 13f9 21        	.byte0x21
 4665 13fa 8F        	.byte0x8f
 4666 13fb 0000 13A1 	.long0x13a1
 4667 13ff 00        	.byte0
 4668 1400 07        	.uleb128 0x7
68K GAS   			page 106


 4669 1401 0000 0000 	.long.LASF336
 4670 1405 21        	.byte0x21
 4671 1406 95        	.byte0x95
 4672 1407 0000 12DF 	.long0x12df
 4673 140b 18        	.byte0x18
 4674 140c 07        	.uleb128 0x7
 4675 140d 0000 0000 	.long.LASF337
 4676 1411 21        	.byte0x21
 4677 1412 B3        	.byte0xb3
 4678 1413 0000 1419 	.long0x1419
 4679 1417 1C        	.byte0x1c
 4680 1418 00        	.byte0
 4681 1419 12        	.uleb128 0x12
 4682 141a 08        	.byte0x8
 4683 141b 21        	.byte0x21
 4684 141c A2        	.byte0xa2
 4685 141d 0000 143A 	.long0x143a
 4686 1421 07        	.uleb128 0x7
 4687 1422 0000 0000 	.long.LASF338
 4688 1426 21        	.byte0x21
 4689 1427 AD        	.byte0xad
 4690 1428 0000 143A 	.long0x143a
 4691 142c 00        	.byte0
 4692 142d 07        	.uleb128 0x7
 4693 142e 0000 0000 	.long.LASF339
 4694 1432 21        	.byte0x21
 4695 1433 B2        	.byte0xb2
 4696 1434 0000 13D2 	.long0x13d2
 4697 1438 04        	.byte0x4
 4698 1439 00        	.byte0
 4699 143a 0A        	.uleb128 0xa
 4700 143b 04        	.byte0x4
 4701 143c 0000 13A1 	.long0x13a1
 4702 1440 12        	.uleb128 0x12
 4703 1441 04        	.byte0x4
 4704 1442 21        	.byte0x21
 4705 1443 BD        	.byte0xbd
 4706 1444 0000 1455 	.long0x1455
 4707 1448 07        	.uleb128 0x7
 4708 1449 0000 0000 	.long.LASF340
 4709 144d 21        	.byte0x21
 4710 144e C1        	.byte0xc1
 4711 144f 0000 1455 	.long0x1455
 4712 1453 00        	.byte0
 4713 1454 00        	.byte0
 4714 1455 0A        	.uleb128 0xa
 4715 1456 04        	.byte0x4
 4716 1457 0000 13DD 	.long0x13dd
 4717 145b 04        	.uleb128 0x4
 4718 145c 0000 0000 	.long.LASF341
 4719 1460 21        	.byte0x21
 4720 1461 C2        	.byte0xc2
 4721 1462 0000 1440 	.long0x1440
 4722 1466 04        	.uleb128 0x4
 4723 1467 0000 0000 	.long.LASF342
 4724 146b 22        	.byte0x22
 4725 146c 3C        	.byte0x3c
68K GAS   			page 107


 4726 146d 0000 1471 	.long0x1471
 4727 1471 06        	.uleb128 0x6
 4728 1472 0000 0000 	.long.LASF342
 4729 1476 30        	.byte0x30
 4730 1477 22        	.byte0x22
 4731 1478 41        	.byte0x41
 4732 1479 0000 14A2 	.long0x14a2
 4733 147d 07        	.uleb128 0x7
 4734 147e 0000 0000 	.long.LASF343
 4735 1482 22        	.byte0x22
 4736 1483 6D        	.byte0x6d
 4737 1484 0000 0335 	.long0x335
 4738 1488 00        	.byte0
 4739 1489 07        	.uleb128 0x7
 4740 148a 0000 0000 	.long.LASF43
 4741 148e 22        	.byte0x22
 4742 148f 9F        	.byte0x9f
 4743 1490 0000 14A2 	.long0x14a2
 4744 1494 04        	.byte0x4
 4745 1495 07        	.uleb128 0x7
 4746 1496 0000 0000 	.long.LASF344
 4747 149a 22        	.byte0x22
 4748 149b C1        	.byte0xc1
 4749 149c 0000 14B7 	.long0x14b7
 4750 14a0 28        	.byte0x28
 4751 14a1 00        	.byte0
 4752 14a2 12        	.uleb128 0x12
 4753 14a3 24        	.byte0x24
 4754 14a4 22        	.byte0x22
 4755 14a5 9D        	.byte0x9d
 4756 14a6 0000 14B7 	.long0x14b7
 4757 14aa 07        	.uleb128 0x7
 4758 14ab 0000 0000 	.long.LASF344
 4759 14af 22        	.byte0x22
 4760 14b0 9E        	.byte0x9e
 4761 14b1 0000 13DD 	.long0x13dd
 4762 14b5 00        	.byte0
 4763 14b6 00        	.byte0
 4764 14b7 12        	.uleb128 0x12
 4765 14b8 08        	.byte0x8
 4766 14b9 22        	.byte0x22
 4767 14ba AC        	.byte0xac
 4768 14bb 0000 14CC 	.long0x14cc
 4769 14bf 07        	.uleb128 0x7
 4770 14c0 0000 0000 	.long.LASF345
 4771 14c4 22        	.byte0x22
 4772 14c5 B9        	.byte0xb9
 4773 14c6 0000 1356 	.long0x1356
 4774 14ca 00        	.byte0
 4775 14cb 00        	.byte0
 4776 14cc 12        	.uleb128 0x12
 4777 14cd 08        	.byte0x8
 4778 14ce 23        	.byte0x23
 4779 14cf 30        	.byte0x30
 4780 14d0 0000 14ED 	.long0x14ed
 4781 14d4 07        	.uleb128 0x7
 4782 14d5 0000 0000 	.long.LASF346
68K GAS   			page 108


 4783 14d9 23        	.byte0x23
 4784 14da 32        	.byte0x32
 4785 14db 0000 00AF 	.long0xaf
 4786 14df 00        	.byte0
 4787 14e0 07        	.uleb128 0x7
 4788 14e1 0000 0000 	.long.LASF347
 4789 14e5 23        	.byte0x23
 4790 14e6 34        	.byte0x34
 4791 14e7 0000 0450 	.long0x450
 4792 14eb 04        	.byte0x4
 4793 14ec 00        	.byte0
 4794 14ed 04        	.uleb128 0x4
 4795 14ee 0000 0000 	.long.LASF348
 4796 14f2 23        	.byte0x23
 4797 14f3 35        	.byte0x35
 4798 14f4 0000 14CC 	.long0x14cc
 4799 14f8 22        	.uleb128 0x22
 4800 14f9 0000 0000 	.long.LASF349
 4801 14fd 23        	.byte0x23
 4802 14fe 3C        	.byte0x3c
 4803 14ff 0000 0BD6 	.long0xbd6
 4804 1503 04        	.uleb128 0x4
 4805 1504 0000 0000 	.long.LASF350
 4806 1508 24        	.byte0x24
 4807 1509 29        	.byte0x29
 4808 150a 0000 0BD6 	.long0xbd6
 4809 150e 04        	.uleb128 0x4
 4810 150f 0000 0000 	.long.LASF351
 4811 1513 25        	.byte0x25
 4812 1514 2E        	.byte0x2e
 4813 1515 0000 1519 	.long0x1519
 4814 1519 06        	.uleb128 0x6
 4815 151a 0000 0000 	.long.LASF351
 4816 151e 1C        	.byte0x1c
 4817 151f 25        	.byte0x25
 4818 1520 61        	.byte0x61
 4819 1521 0000 154A 	.long0x154a
 4820 1525 07        	.uleb128 0x7
 4821 1526 0000 0000 	.long.LASF308
 4822 152a 25        	.byte0x25
 4823 152b 71        	.byte0x71
 4824 152c 0000 15AE 	.long0x15ae
 4825 1530 00        	.byte0
 4826 1531 07        	.uleb128 0x7
 4827 1532 0000 0000 	.long.LASF352
 4828 1536 25        	.byte0x25
 4829 1537 79        	.byte0x79
 4830 1538 0000 155A 	.long0x155a
 4831 153c 10        	.byte0x10
 4832 153d 07        	.uleb128 0x7
 4833 153e 0000 0000 	.long.LASF353
 4834 1542 25        	.byte0x25
 4835 1543 7C        	.byte0x7c
 4836 1544 0000 0BE6 	.long0xbe6
 4837 1548 14        	.byte0x14
 4838 1549 00        	.byte0
 4839 154a 04        	.uleb128 0x4
68K GAS   			page 109


 4840 154b 0000 0000 	.long.LASF354
 4841 154f 25        	.byte0x25
 4842 1550 35        	.byte0x35
 4843 1551 0000 0BD6 	.long0xbd6
 4844 1555 20        	.uleb128 0x20
 4845 1556 0000 154A 	.long0x154a
 4846 155a 04        	.uleb128 0x4
 4847 155b 0000 0000 	.long.LASF355
 4848 155f 25        	.byte0x25
 4849 1560 49        	.byte0x49
 4850 1561 0000 1565 	.long0x1565
 4851 1565 0A        	.uleb128 0xa
 4852 1566 04        	.byte0x4
 4853 1567 0000 156B 	.long0x156b
 4854 156b 1E        	.uleb128 0x1e
 4855 156c 0000 1576 	.long0x1576
 4856 1570 19        	.uleb128 0x19
 4857 1571 0000 1576 	.long0x1576
 4858 1575 00        	.byte0
 4859 1576 0A        	.uleb128 0xa
 4860 1577 04        	.byte0x4
 4861 1578 0000 150E 	.long0x150e
 4862 157c 12        	.uleb128 0x12
 4863 157d 08        	.byte0x8
 4864 157e 25        	.byte0x25
 4865 157f 4E        	.byte0x4e
 4866 1580 0000 159D 	.long0x159d
 4867 1584 07        	.uleb128 0x7
 4868 1585 0000 0000 	.long.LASF356
 4869 1589 25        	.byte0x25
 4870 158a 52        	.byte0x52
 4871 158b 0000 12DF 	.long0x12df
 4872 158f 00        	.byte0
 4873 1590 07        	.uleb128 0x7
 4874 1591 0000 0000 	.long.LASF357
 4875 1595 25        	.byte0x25
 4876 1596 58        	.byte0x58
 4877 1597 0000 159D 	.long0x159d
 4878 159b 04        	.byte0x4
 4879 159c 00        	.byte0
 4880 159d 0A        	.uleb128 0xa
 4881 159e 04        	.byte0x4
 4882 159f 0000 12BB 	.long0x12bb
 4883 15a3 04        	.uleb128 0x4
 4884 15a4 0000 0000 	.long.LASF358
 4885 15a8 25        	.byte0x25
 4886 15a9 59        	.byte0x59
 4887 15aa 0000 157C 	.long0x157c
 4888 15ae 0E        	.uleb128 0xe
 4889 15af 10        	.byte0x10
 4890 15b0 25        	.byte0x25
 4891 15b1 65        	.byte0x65
 4892 15b2 0000 15CD 	.long0x15cd
 4893 15b6 0F        	.uleb128 0xf
 4894 15b7 0000 0000 	.long.LASF327
 4895 15bb 25        	.byte0x25
 4896 15bc 6A        	.byte0x6a
68K GAS   			page 110


 4897 15bd 0000 12BB 	.long0x12bb
 4898 15c1 0F        	.uleb128 0xf
 4899 15c2 0000 0000 	.long.LASF326
 4900 15c6 25        	.byte0x25
 4901 15c7 70        	.byte0x70
 4902 15c8 0000 11C1 	.long0x11c1
 4903 15cc 00        	.byte0
 4904 15cd 22        	.uleb128 0x22
 4905 15ce 0000 0000 	.long.LASF359
 4906 15d2 25        	.byte0x25
 4907 15d3 84        	.byte0x84
 4908 15d4 0000 1555 	.long0x1555
 4909 15d8 22        	.uleb128 0x22
 4910 15d9 0000 0000 	.long.LASF360
 4911 15dd 25        	.byte0x25
 4912 15de 8C        	.byte0x8c
 4913 15df 0000 0BE1 	.long0xbe1
 4914 15e3 22        	.uleb128 0x22
 4915 15e4 0000 0000 	.long.LASF361
 4916 15e8 25        	.byte0x25
 4917 15e9 94        	.byte0x94
 4918 15ea 0000 0BE1 	.long0xbe1
 4919 15ee 04        	.uleb128 0x4
 4920 15ef 0000 0000 	.long.LASF362
 4921 15f3 06        	.byte0x6
 4922 15f4 2F        	.byte0x2f
 4923 15f5 0000 01BE 	.long0x1be
 4924 15f9 04        	.uleb128 0x4
 4925 15fa 0000 0000 	.long.LASF363
 4926 15fe 06        	.byte0x6
 4927 15ff 31        	.byte0x31
 4928 1600 0000 1604 	.long0x1604
 4929 1604 06        	.uleb128 0x6
 4930 1605 0000 0000 	.long.LASF363
 4931 1609 24        	.byte0x24
 4932 160a 06        	.byte0x6
 4933 160b BF        	.byte0xbf
 4934 160c 0000 165B 	.long0x165b
 4935 1610 07        	.uleb128 0x7
 4936 1611 0000 0000 	.long.LASF364
 4937 1615 06        	.byte0x6
 4938 1616 C4        	.byte0xc4
 4939 1617 0000 1773 	.long0x1773
 4940 161b 00        	.byte0
 4941 161c 07        	.uleb128 0x7
 4942 161d 0000 0000 	.long.LASF365
 4943 1621 06        	.byte0x6
 4944 1622 C9        	.byte0xc9
 4945 1623 0000 1503 	.long0x1503
 4946 1627 04        	.byte0x4
 4947 1628 07        	.uleb128 0x7
 4948 1629 0000 0000 	.long.LASF366
 4949 162d 06        	.byte0x6
 4950 162e D6        	.byte0xd6
 4951 162f 0000 16FA 	.long0x16fa
 4952 1633 08        	.byte0x8
 4953 1634 07        	.uleb128 0x7
68K GAS   			page 111


 4954 1635 0000 0000 	.long.LASF367
 4955 1639 06        	.byte0x6
 4956 163a E7        	.byte0xe7
 4957 163b 0000 177E 	.long0x177e
 4958 163f 0C        	.byte0xc
 4959 1640 09        	.uleb128 0x9
 4960 1641 0000 0000 	.long.LASF344
 4961 1645 06        	.byte0x6
 4962 1646 011F      	.word0x11f
 4963 1648 0000 179D 	.long0x179d
 4964 164c 10        	.byte0x10
 4965 164d 09        	.uleb128 0x9
 4966 164e 0000 0000 	.long.LASF368
 4967 1652 06        	.byte0x6
 4968 1653 0129      	.word0x129
 4969 1655 0000 1742 	.long0x1742
 4970 1659 20        	.byte0x20
 4971 165a 00        	.byte0
 4972 165b 04        	.uleb128 0x4
 4973 165c 0000 0000 	.long.LASF369
 4974 1660 06        	.byte0x6
 4975 1661 33        	.byte0x33
 4976 1662 0000 1666 	.long0x1666
 4977 1666 08        	.uleb128 0x8
 4978 1667 0000 0000 	.long.LASF369
 4979 166b 0C        	.byte0xc
 4980 166c 06        	.byte0x6
 4981 166d 0194      	.word0x194
 4982 166f 0000 169B 	.long0x169b
 4983 1673 09        	.uleb128 0x9
 4984 1674 0000 0000 	.long.LASF370
 4985 1678 06        	.byte0x6
 4986 1679 01AC      	.word0x1ac
 4987 167b 0000 1842 	.long0x1842
 4988 167f 00        	.byte0
 4989 1680 09        	.uleb128 0x9
 4990 1681 0000 0000 	.long.LASF343
 4991 1685 06        	.byte0x6
 4992 1686 01B1      	.word0x1b1
 4993 1688 0000 172B 	.long0x172b
 4994 168c 04        	.byte0x4
 4995 168d 09        	.uleb128 0x9
 4996 168e 0000 0000 	.long.LASF211
 4997 1692 06        	.byte0x6
 4998 1693 01B6      	.word0x1b6
 4999 1695 0000 033B 	.long0x33b
 5000 1699 08        	.byte0x8
 5001 169a 00        	.byte0
 5002 169b 04        	.uleb128 0x4
 5003 169c 0000 0000 	.long.LASF371
 5004 16a0 06        	.byte0x6
 5005 16a1 35        	.byte0x35
 5006 16a2 0000 16AB 	.long0x16ab
 5007 16a6 03        	.uleb128 0x3
 5008 16a7 0000 169B 	.long0x169b
 5009 16ab 08        	.uleb128 0x8
 5010 16ac 0000 0000 	.long.LASF371
68K GAS   			page 112


 5011 16b0 14        	.byte0x14
 5012 16b1 06        	.byte0x6
 5013 16b2 0207      	.word0x207
 5014 16b4 0000 16FA 	.long0x16fa
 5015 16b8 09        	.uleb128 0x9
 5016 16b9 0000 0000 	.long.LASF372
 5017 16bd 06        	.byte0x6
 5018 16be 020B      	.word0x20b
 5019 16c0 0000 1848 	.long0x1848
 5020 16c4 00        	.byte0
 5021 16c5 09        	.uleb128 0x9
 5022 16c6 0000 0000 	.long.LASF373
 5023 16ca 06        	.byte0x6
 5024 16cb 0212      	.word0x212
 5025 16cd 0000 1870 	.long0x1870
 5026 16d1 04        	.byte0x4
 5027 16d2 09        	.uleb128 0x9
 5028 16d3 0000 0000 	.long.LASF374
 5029 16d7 06        	.byte0x6
 5030 16d8 0219      	.word0x219
 5031 16da 0000 1897 	.long0x1897
 5032 16de 08        	.byte0x8
 5033 16df 09        	.uleb128 0x9
 5034 16e0 0000 0000 	.long.LASF375
 5035 16e4 06        	.byte0x6
 5036 16e5 021E      	.word0x21e
 5037 16e7 0000 18A3 	.long0x18a3
 5038 16eb 0C        	.byte0xc
 5039 16ec 09        	.uleb128 0x9
 5040 16ed 0000 0000 	.long.LASF357
 5041 16f1 06        	.byte0x6
 5042 16f2 0223      	.word0x223
 5043 16f4 0000 18D3 	.long0x18d3
 5044 16f8 10        	.byte0x10
 5045 16f9 00        	.byte0
 5046 16fa 04        	.uleb128 0x4
 5047 16fb 0000 0000 	.long.LASF376
 5048 16ff 06        	.byte0x6
 5049 1700 41        	.byte0x41
 5050 1701 0000 1705 	.long0x1705
 5051 1705 0A        	.uleb128 0xa
 5052 1706 04        	.byte0x4
 5053 1707 0000 170B 	.long0x170b
 5054 170b 1E        	.uleb128 0x1e
 5055 170c 0000 1725 	.long0x1725
 5056 1710 19        	.uleb128 0x19
 5057 1711 0000 1725 	.long0x1725
 5058 1715 19        	.uleb128 0x19
 5059 1716 0000 172B 	.long0x172b
 5060 171a 19        	.uleb128 0x19
 5061 171b 0000 1731 	.long0x1731
 5062 171f 19        	.uleb128 0x19
 5063 1720 0000 173C 	.long0x173c
 5064 1724 00        	.byte0
 5065 1725 0A        	.uleb128 0xa
 5066 1726 04        	.byte0x4
 5067 1727 0000 165B 	.long0x165b
68K GAS   			page 113


 5068 172b 0A        	.uleb128 0xa
 5069 172c 04        	.byte0x4
 5070 172d 0000 15EE 	.long0x15ee
 5071 1731 0A        	.uleb128 0xa
 5072 1732 04        	.byte0x4
 5073 1733 0000 1737 	.long0x1737
 5074 1737 1D        	.uleb128 0x1d
 5075 1738 0000 0000 	.long.LASF378
 5076 173c 0A        	.uleb128 0xa
 5077 173d 04        	.byte0x4
 5078 173e 0000 15F9 	.long0x15f9
 5079 1742 04        	.uleb128 0x4
 5080 1743 0000 0000 	.long.LASF379
 5081 1747 06        	.byte0x6
 5082 1748 4F        	.byte0x4f
 5083 1749 0000 174D 	.long0x174d
 5084 174d 0A        	.uleb128 0xa
 5085 174e 04        	.byte0x4
 5086 174f 0000 1753 	.long0x1753
 5087 1753 1E        	.uleb128 0x1e
 5088 1754 0000 175E 	.long0x175e
 5089 1758 19        	.uleb128 0x19
 5090 1759 0000 172B 	.long0x172b
 5091 175d 00        	.byte0
 5092 175e 12        	.uleb128 0x12
 5093 175f 04        	.byte0x4
 5094 1760 06        	.byte0x6
 5095 1761 76        	.byte0x76
 5096 1762 0000 1773 	.long0x1773
 5097 1766 07        	.uleb128 0x7
 5098 1767 0000 0000 	.long.LASF364
 5099 176b 06        	.byte0x6
 5100 176c 7B        	.byte0x7b
 5101 176d 0000 11B6 	.long0x11b6
 5102 1771 00        	.byte0
 5103 1772 00        	.byte0
 5104 1773 04        	.uleb128 0x4
 5105 1774 0000 0000 	.long.LASF380
 5106 1778 06        	.byte0x6
 5107 1779 8F        	.byte0x8f
 5108 177a 0000 175E 	.long0x175e
 5109 177e 0E        	.uleb128 0xe
 5110 177f 04        	.byte0x4
 5111 1780 06        	.byte0x6
 5112 1781 DD        	.byte0xdd
 5113 1782 0000 179D 	.long0x179d
 5114 1786 0F        	.uleb128 0xf
 5115 1787 0000 0000 	.long.LASF381
 5116 178b 06        	.byte0x6
 5117 178c E1        	.byte0xe1
 5118 178d 0000 154A 	.long0x154a
 5119 1791 24        	.uleb128 0x24
 5120 1792 6172 6700 	.string"arg"
 5121 1796 06        	.byte0x6
 5122 1797 E6        	.byte0xe6
 5123 1798 0000 0D09 	.long0xd09
 5124 179c 00        	.byte0
68K GAS   			page 114


 5125 179d 1A        	.uleb128 0x1a
 5126 179e 10        	.byte0x10
 5127 179f 06        	.byte0x6
 5128 17a0 010B      	.word0x10b
 5129 17a2 0000 17CE 	.long0x17ce
 5130 17a6 09        	.uleb128 0x9
 5131 17a7 0000 0000 	.long.LASF382
 5132 17ab 06        	.byte0x6
 5133 17ac 010F      	.word0x10f
 5134 17ae 0000 145B 	.long0x145b
 5135 17b2 00        	.byte0
 5136 17b3 09        	.uleb128 0x9
 5137 17b4 0000 0000 	.long.LASF383
 5138 17b8 06        	.byte0x6
 5139 17b9 0115      	.word0x115
 5140 17bb 0000 00AF 	.long0xaf
 5141 17bf 04        	.byte0x4
 5142 17c0 09        	.uleb128 0x9
 5143 17c1 0000 0000 	.long.LASF384
 5144 17c5 06        	.byte0x6
 5145 17c6 011E      	.word0x11e
 5146 17c8 0000 17CE 	.long0x17ce
 5147 17cc 08        	.byte0x8
 5148 17cd 00        	.byte0
 5149 17ce 10        	.uleb128 0x10
 5150 17cf 0000 172B 	.long0x172b
 5151 17d3 0000 17DE 	.long0x17de
 5152 17d7 11        	.uleb128 0x11
 5153 17d8 0000 006E 	.long0x6e
 5154 17dc 01        	.byte0x1
 5155 17dd 00        	.byte0
 5156 17de 1A        	.uleb128 0x1a
 5157 17df 28        	.byte0x28
 5158 17e0 06        	.byte0x6
 5159 17e1 013D      	.word0x13d
 5160 17e3 0000 1802 	.long0x1802
 5161 17e7 09        	.uleb128 0x9
 5162 17e8 0000 0000 	.long.LASF385
 5163 17ec 06        	.byte0x6
 5164 17ed 014B      	.word0x14b
 5165 17ef 0000 13DD 	.long0x13dd
 5166 17f3 00        	.byte0
 5167 17f4 09        	.uleb128 0x9
 5168 17f5 0000 0000 	.long.LASF386
 5169 17f9 06        	.byte0x6
 5170 17fa 0151      	.word0x151
 5171 17fc 0000 1802 	.long0x1802
 5172 1800 24        	.byte0x24
 5173 1801 00        	.byte0
 5174 1802 0A        	.uleb128 0xa
 5175 1803 04        	.byte0x4
 5176 1804 0000 1471 	.long0x1471
 5177 1808 0D        	.uleb128 0xd
 5178 1809 0000 0000 	.long.LASF387
 5179 180d 06        	.byte0x6
 5180 180e 0152      	.word0x152
 5181 1810 0000 17DE 	.long0x17de
68K GAS   			page 115


 5182 1814 1B        	.uleb128 0x1b
 5183 1815 28        	.byte0x28
 5184 1816 06        	.byte0x6
 5185 1817 0165      	.word0x165
 5186 1819 0000 1836 	.long0x1836
 5187 181d 1C        	.uleb128 0x1c
 5188 181e 0000 0000 	.long.LASF388
 5189 1822 06        	.byte0x6
 5190 1823 016D      	.word0x16d
 5191 1825 0000 1258 	.long0x1258
 5192 1829 1C        	.uleb128 0x1c
 5193 182a 0000 0000 	.long.LASF344
 5194 182e 06        	.byte0x6
 5195 182f 0173      	.word0x173
 5196 1831 0000 1808 	.long0x1808
 5197 1835 00        	.byte0
 5198 1836 0D        	.uleb128 0xd
 5199 1837 0000 0000 	.long.LASF389
 5200 183b 06        	.byte0x6
 5201 183c 0189      	.word0x189
 5202 183e 0000 0183 	.long0x183
 5203 1842 0A        	.uleb128 0xa
 5204 1843 04        	.byte0x4
 5205 1844 0000 1836 	.long0x1836
 5206 1848 0D        	.uleb128 0xd
 5207 1849 0000 0000 	.long.LASF390
 5208 184d 06        	.byte0x6
 5209 184e 01C2      	.word0x1c2
 5210 1850 0000 1854 	.long0x1854
 5211 1854 0A        	.uleb128 0xa
 5212 1855 04        	.byte0x4
 5213 1856 0000 185A 	.long0x185a
 5214 185a 1E        	.uleb128 0x1e
 5215 185b 0000 186A 	.long0x186a
 5216 185f 19        	.uleb128 0x19
 5217 1860 0000 1725 	.long0x1725
 5218 1864 19        	.uleb128 0x19
 5219 1865 0000 186A 	.long0x186a
 5220 1869 00        	.byte0
 5221 186a 0A        	.uleb128 0xa
 5222 186b 04        	.byte0x4
 5223 186c 0000 145B 	.long0x145b
 5224 1870 0D        	.uleb128 0xd
 5225 1871 0000 0000 	.long.LASF391
 5226 1875 06        	.byte0x6
 5227 1876 01D1      	.word0x1d1
 5228 1878 0000 187C 	.long0x187c
 5229 187c 0A        	.uleb128 0xa
 5230 187d 04        	.byte0x4
 5231 187e 0000 1882 	.long0x1882
 5232 1882 1E        	.uleb128 0x1e
 5233 1883 0000 1897 	.long0x1897
 5234 1887 19        	.uleb128 0x19
 5235 1888 0000 1725 	.long0x1725
 5236 188c 19        	.uleb128 0x19
 5237 188d 0000 172B 	.long0x172b
 5238 1891 19        	.uleb128 0x19
68K GAS   			page 116


 5239 1892 0000 173C 	.long0x173c
 5240 1896 00        	.byte0
 5241 1897 0D        	.uleb128 0xd
 5242 1898 0000 0000 	.long.LASF392
 5243 189c 06        	.byte0x6
 5244 189d 01DD      	.word0x1dd
 5245 189f 0000 187C 	.long0x187c
 5246 18a3 0D        	.uleb128 0xd
 5247 18a4 0000 0000 	.long.LASF393
 5248 18a8 06        	.byte0x6
 5249 18a9 01EE      	.word0x1ee
 5250 18ab 0000 18AF 	.long0x18af
 5251 18af 0A        	.uleb128 0xa
 5252 18b0 04        	.byte0x4
 5253 18b1 0000 18B5 	.long0x18b5
 5254 18b5 18        	.uleb128 0x18
 5255 18b6 0000 172B 	.long0x172b
 5256 18ba 0000 18D3 	.long0x18d3
 5257 18be 19        	.uleb128 0x19
 5258 18bf 0000 1725 	.long0x1725
 5259 18c3 19        	.uleb128 0x19
 5260 18c4 0000 1842 	.long0x1842
 5261 18c8 19        	.uleb128 0x19
 5262 18c9 0000 172B 	.long0x172b
 5263 18cd 19        	.uleb128 0x19
 5264 18ce 0000 173C 	.long0x173c
 5265 18d2 00        	.byte0
 5266 18d3 0D        	.uleb128 0xd
 5267 18d4 0000 0000 	.long.LASF394
 5268 18d8 06        	.byte0x6
 5269 18d9 01FE      	.word0x1fe
 5270 18db 0000 18DF 	.long0x18df
 5271 18df 0A        	.uleb128 0xa
 5272 18e0 04        	.byte0x4
 5273 18e1 0000 18E5 	.long0x18e5
 5274 18e5 18        	.uleb128 0x18
 5275 18e6 0000 172B 	.long0x172b
 5276 18ea 0000 18F4 	.long0x18f4
 5277 18ee 19        	.uleb128 0x19
 5278 18ef 0000 1842 	.long0x1842
 5279 18f3 00        	.byte0
 5280 18f4 1A        	.uleb128 0x1a
 5281 18f5 0C        	.byte0xc
 5282 18f6 06        	.byte0x6
 5283 18f7 022A      	.word0x22a
 5284 18f9 0000 190B 	.long0x190b
 5285 18fd 09        	.uleb128 0x9
 5286 18fe 0000 0000 	.long.LASF385
 5287 1902 06        	.byte0x6
 5288 1903 0249      	.word0x249
 5289 1905 0000 165B 	.long0x165b
 5290 1909 00        	.byte0
 5291 190a 00        	.byte0
 5292 190b 0D        	.uleb128 0xd
 5293 190c 0000 0000 	.long.LASF395
 5294 1910 06        	.byte0x6
 5295 1911 024A      	.word0x24a
68K GAS   			page 117


 5296 1913 0000 18F4 	.long0x18f4
 5297 1917 06        	.uleb128 0x6
 5298 1918 0000 0000 	.long.LASF396
 5299 191c 10        	.byte0x10
 5300 191d 26        	.byte0x26
 5301 191e 3F        	.byte0x3f
 5302 191f 0000 193C 	.long0x193c
 5303 1923 14        	.uleb128 0x14
 5304 1924 7365 6300 	.string"sec"
 5305 1928 26        	.byte0x26
 5306 1929 40        	.byte0x40
 5307 192a 0000 0BFC 	.long0xbfc
 5308 192e 00        	.byte0
 5309 192f 07        	.uleb128 0x7
 5310 1930 0000 0000 	.long.LASF397
 5311 1934 26        	.byte0x26
 5312 1935 41        	.byte0x41
 5313 1936 0000 0BE6 	.long0xbe6
 5314 193a 08        	.byte0x8
 5315 193b 00        	.byte0
 5316 193c 04        	.uleb128 0x4
 5317 193d 0000 0000 	.long.LASF398
 5318 1941 27        	.byte0x27
 5319 1942 37        	.byte0x37
 5320 1943 0000 0CC0 	.long0xcc0
 5321 1947 04        	.uleb128 0x4
 5322 1948 0000 0000 	.long.LASF399
 5323 194c 07        	.byte0x7
 5324 194d 69        	.byte0x69
 5325 194e 0000 0EF4 	.long0xef4
 5326 1952 12        	.uleb128 0x12
 5327 1953 04        	.byte0x4
 5328 1954 07        	.byte0x7
 5329 1955 6E        	.byte0x6e
 5330 1956 0000 1967 	.long0x1967
 5331 195a 07        	.uleb128 0x7
 5332 195b 0000 0000 	.long.LASF400
 5333 195f 07        	.byte0x7
 5334 1960 6F        	.byte0x6f
 5335 1961 0000 1976 	.long0x1976
 5336 1965 00        	.byte0
 5337 1966 00        	.byte0
 5338 1967 18        	.uleb128 0x18
 5339 1968 0000 0450 	.long0x450
 5340 196c 0000 1976 	.long0x1976
 5341 1970 19        	.uleb128 0x19
 5342 1971 0000 0BF1 	.long0xbf1
 5343 1975 00        	.byte0
 5344 1976 0A        	.uleb128 0xa
 5345 1977 04        	.byte0x4
 5346 1978 0000 1967 	.long0x1967
 5347 197c 04        	.uleb128 0x4
 5348 197d 0000 0000 	.long.LASF401
 5349 1981 07        	.byte0x7
 5350 1982 70        	.byte0x70
 5351 1983 0000 1952 	.long0x1952
 5352 1987 12        	.uleb128 0x12
68K GAS   			page 118


 5353 1988 08        	.byte0x8
 5354 1989 07        	.byte0x7
 5355 198a 75        	.byte0x75
 5356 198b 0000 19A8 	.long0x19a8
 5357 198f 07        	.uleb128 0x7
 5358 1990 0000 0000 	.long.LASF400
 5359 1994 07        	.byte0x7
 5360 1995 76        	.byte0x76
 5361 1996 0000 19B3 	.long0x19b3
 5362 199a 00        	.byte0
 5363 199b 07        	.uleb128 0x7
 5364 199c 0000 0000 	.long.LASF402
 5365 19a0 07        	.byte0x7
 5366 19a1 77        	.byte0x77
 5367 19a2 0000 1947 	.long0x1947
 5368 19a6 04        	.byte0x4
 5369 19a7 00        	.byte0
 5370 19a8 1E        	.uleb128 0x1e
 5371 19a9 0000 19B3 	.long0x19b3
 5372 19ad 19        	.uleb128 0x19
 5373 19ae 0000 1947 	.long0x1947
 5374 19b2 00        	.byte0
 5375 19b3 0A        	.uleb128 0xa
 5376 19b4 04        	.byte0x4
 5377 19b5 0000 19A8 	.long0x19a8
 5378 19b9 04        	.uleb128 0x4
 5379 19ba 0000 0000 	.long.LASF403
 5380 19be 07        	.byte0x7
 5381 19bf 78        	.byte0x78
 5382 19c0 0000 1987 	.long0x1987
 5383 19c4 12        	.uleb128 0x12
 5384 19c5 08        	.byte0x8
 5385 19c6 07        	.byte0x7
 5386 19c7 7E        	.byte0x7e
 5387 19c8 0000 19E5 	.long0x19e5
 5388 19cc 07        	.uleb128 0x7
 5389 19cd 0000 0000 	.long.LASF400
 5390 19d1 07        	.byte0x7
 5391 19d2 7F        	.byte0x7f
 5392 19d3 0000 19F4 	.long0x19f4
 5393 19d7 00        	.byte0
 5394 19d8 07        	.uleb128 0x7
 5395 19d9 0000 0000 	.long.LASF402
 5396 19dd 07        	.byte0x7
 5397 19de 80        	.byte0x80
 5398 19df 0000 0450 	.long0x450
 5399 19e3 04        	.byte0x4
 5400 19e4 00        	.byte0
 5401 19e5 18        	.uleb128 0x18
 5402 19e6 0000 0450 	.long0x450
 5403 19ea 0000 19F4 	.long0x19f4
 5404 19ee 19        	.uleb128 0x19
 5405 19ef 0000 0450 	.long0x450
 5406 19f3 00        	.byte0
 5407 19f4 0A        	.uleb128 0xa
 5408 19f5 04        	.byte0x4
 5409 19f6 0000 19E5 	.long0x19e5
68K GAS   			page 119


 5410 19fa 04        	.uleb128 0x4
 5411 19fb 0000 0000 	.long.LASF404
 5412 19ff 07        	.byte0x7
 5413 1a00 81        	.byte0x81
 5414 1a01 0000 19C4 	.long0x19c4
 5415 1a05 0E        	.uleb128 0xe
 5416 1a06 08        	.byte0x8
 5417 1a07 07        	.byte0x7
 5418 1a08 94        	.byte0x94
 5419 1a09 0000 1A2F 	.long0x1a2f
 5420 1a0d 0F        	.uleb128 0xf
 5421 1a0e 0000 0000 	.long.LASF405
 5422 1a12 07        	.byte0x7
 5423 1a13 95        	.byte0x95
 5424 1a14 0000 197C 	.long0x197c
 5425 1a18 0F        	.uleb128 0xf
 5426 1a19 0000 0000 	.long.LASF406
 5427 1a1d 07        	.byte0x7
 5428 1a1e 96        	.byte0x96
 5429 1a1f 0000 19B9 	.long0x19b9
 5430 1a23 0F        	.uleb128 0xf
 5431 1a24 0000 0000 	.long.LASF407
 5432 1a28 07        	.byte0x7
 5433 1a29 97        	.byte0x97
 5434 1a2a 0000 19FA 	.long0x19fa
 5435 1a2e 00        	.byte0
 5436 1a2f 12        	.uleb128 0x12
 5437 1a30 0C        	.byte0xc
 5438 1a31 07        	.byte0x7
 5439 1a32 86        	.byte0x86
 5440 1a33 0000 1A50 	.long0x1a50
 5441 1a37 07        	.uleb128 0x7
 5442 1a38 0000 0000 	.long.LASF408
 5443 1a3c 07        	.byte0x7
 5444 1a3d 8E        	.byte0x8e
 5445 1a3e 0000 174D 	.long0x174d
 5446 1a42 00        	.byte0
 5447 1a43 07        	.uleb128 0x7
 5448 1a44 0000 0000 	.long.LASF409
 5449 1a48 07        	.byte0x7
 5450 1a49 98        	.byte0x98
 5451 1a4a 0000 1A05 	.long0x1a05
 5452 1a4e 04        	.byte0x4
 5453 1a4f 00        	.byte0
 5454 1a50 04        	.uleb128 0x4
 5455 1a51 0000 0000 	.long.LASF410
 5456 1a55 07        	.byte0x7
 5457 1a56 99        	.byte0x99
 5458 1a57 0000 1A2F 	.long0x1a2f
 5459 1a5b 25        	.uleb128 0x25
 5460 1a5c 07        	.byte0x7
 5461 1a5d 04        	.byte0x4
 5462 1a5e 0000 013F 	.long0x13f
 5463 1a62 07        	.byte0x7
 5464 1a63 A2        	.byte0xa2
 5465 1a64 0000 1A81 	.long0x1a81
 5466 1a68 26        	.uleb128 0x26
68K GAS   			page 120


 5467 1a69 0000 0000 	.long.LASF411
 5468 1a6d 00        	.byte0
 5469 1a6e 26        	.uleb128 0x26
 5470 1a6f 0000 0000 	.long.LASF412
 5471 1a73 01        	.byte0x1
 5472 1a74 26        	.uleb128 0x26
 5473 1a75 0000 0000 	.long.LASF413
 5474 1a79 02        	.byte0x2
 5475 1a7a 26        	.uleb128 0x26
 5476 1a7b 0000 0000 	.long.LASF414
 5477 1a7f 03        	.byte0x3
 5478 1a80 00        	.byte0
 5479 1a81 04        	.uleb128 0x4
 5480 1a82 0000 0000 	.long.LASF415
 5481 1a86 07        	.byte0x7
 5482 1a87 AB        	.byte0xab
 5483 1a88 0000 1A5B 	.long0x1a5b
 5484 1a8c 04        	.uleb128 0x4
 5485 1a8d 0000 0000 	.long.LASF416
 5486 1a91 07        	.byte0x7
 5487 1a92 B0        	.byte0xb0
 5488 1a93 0000 174D 	.long0x174d
 5489 1a97 12        	.uleb128 0x12
 5490 1a98 3C        	.byte0x3c
 5491 1a99 07        	.byte0x7
 5492 1a9a B6        	.byte0xb6
 5493 1a9b 0000 1B24 	.long0x1b24
 5494 1a9f 07        	.uleb128 0x7
 5495 1aa0 0000 0000 	.long.LASF417
 5496 1aa4 07        	.byte0x7
 5497 1aa5 B8        	.byte0xb8
 5498 1aa6 0000 1A50 	.long0x1a50
 5499 1aaa 00        	.byte0
 5500 1aab 07        	.uleb128 0x7
 5501 1aac 0000 0000 	.long.LASF46
 5502 1ab0 07        	.byte0x7
 5503 1ab1 BD        	.byte0xbd
 5504 1ab2 0000 118F 	.long0x118f
 5505 1ab6 0C        	.byte0xc
 5506 1ab7 07        	.uleb128 0x7
 5507 1ab8 0000 0000 	.long.LASF50
 5508 1abc 07        	.byte0x7
 5509 1abd BF        	.byte0xbf
 5510 1abe 0000 1A81 	.long0x1a81
 5511 1ac2 10        	.byte0x10
 5512 1ac3 07        	.uleb128 0x7
 5513 1ac4 0000 0000 	.long.LASF51
 5514 1ac8 07        	.byte0x7
 5515 1ac9 C3        	.byte0xc3
 5516 1aca 0000 1A8C 	.long0x1a8c
 5517 1ace 14        	.byte0x14
 5518 1acf 07        	.uleb128 0x7
 5519 1ad0 0000 0000 	.long.LASF302
 5520 1ad4 07        	.byte0x7
 5521 1ad5 C5        	.byte0xc5
 5522 1ad6 0000 0BD6 	.long0xbd6
 5523 1ada 18        	.byte0x18
68K GAS   			page 121


 5524 1adb 07        	.uleb128 0x7
 5525 1adc 0000 0000 	.long.LASF418
 5526 1ae0 07        	.byte0x7
 5527 1ae1 C7        	.byte0xc7
 5528 1ae2 0000 1356 	.long0x1356
 5529 1ae6 1C        	.byte0x1c
 5530 1ae7 07        	.uleb128 0x7
 5531 1ae8 0000 0000 	.long.LASF419
 5532 1aec 07        	.byte0x7
 5533 1aed CA        	.byte0xca
 5534 1aee 0000 118F 	.long0x118f
 5535 1af2 24        	.byte0x24
 5536 1af3 07        	.uleb128 0x7
 5537 1af4 0000 0000 	.long.LASF420
 5538 1af8 07        	.byte0x7
 5539 1af9 CD        	.byte0xcd
 5540 1afa 0000 14ED 	.long0x14ed
 5541 1afe 28        	.byte0x28
 5542 1aff 07        	.uleb128 0x7
 5543 1b00 0000 0000 	.long.LASF56
 5544 1b04 07        	.byte0x7
 5545 1b05 D0        	.byte0xd0
 5546 1b06 0000 1B24 	.long0x1b24
 5547 1b0a 30        	.byte0x30
 5548 1b0b 07        	.uleb128 0x7
 5549 1b0c 0000 0000 	.long.LASF421
 5550 1b10 07        	.byte0x7
 5551 1b11 D3        	.byte0xd3
 5552 1b12 0000 0450 	.long0x450
 5553 1b16 34        	.byte0x34
 5554 1b17 07        	.uleb128 0x7
 5555 1b18 0000 0000 	.long.LASF422
 5556 1b1c 07        	.byte0x7
 5557 1b1d D5        	.byte0xd5
 5558 1b1e 0000 0450 	.long0x450
 5559 1b22 38        	.byte0x38
 5560 1b23 00        	.byte0
 5561 1b24 0A        	.uleb128 0xa
 5562 1b25 04        	.byte0x4
 5563 1b26 0000 1060 	.long0x1060
 5564 1b2a 04        	.uleb128 0x4
 5565 1b2b 0000 0000 	.long.LASF423
 5566 1b2f 07        	.byte0x7
 5567 1b30 D6        	.byte0xd6
 5568 1b31 0000 1A97 	.long0x1a97
 5569 1b35 12        	.uleb128 0x12
 5570 1b36 04        	.byte0x4
 5571 1b37 07        	.byte0x7
 5572 1b38 F9        	.byte0xf9
 5573 1b39 0000 1B4B 	.long0x1b4b
 5574 1b3d 09        	.uleb128 0x9
 5575 1b3e 0000 0000 	.long.LASF424
 5576 1b42 07        	.byte0x7
 5577 1b43 0146      	.word0x146
 5578 1b45 0000 1B4B 	.long0x1b4b
 5579 1b49 00        	.byte0
 5580 1b4a 00        	.byte0
68K GAS   			page 122


 5581 1b4b 0A        	.uleb128 0xa
 5582 1b4c 04        	.byte0x4
 5583 1b4d 0000 1466 	.long0x1466
 5584 1b51 0D        	.uleb128 0xd
 5585 1b52 0000 0000 	.long.LASF425
 5586 1b56 07        	.byte0x7
 5587 1b57 0147      	.word0x147
 5588 1b59 0000 1B35 	.long0x1b35
 5589 1b5d 1B        	.uleb128 0x1b
 5590 1b5e 04        	.byte0x4
 5591 1b5f 07        	.byte0x7
 5592 1b60 0153      	.word0x153
 5593 1b62 0000 1B7F 	.long0x1b7f
 5594 1b66 1C        	.uleb128 0x1c
 5595 1b67 0000 0000 	.long.LASF426
 5596 1b6b 07        	.byte0x7
 5597 1b6c 0154      	.word0x154
 5598 1b6e 0000 0450 	.long0x450
 5599 1b72 1C        	.uleb128 0x1c
 5600 1b73 0000 0000 	.long.LASF427
 5601 1b77 07        	.byte0x7
 5602 1b78 0155      	.word0x155
 5603 1b7a 0000 0D09 	.long0xd09
 5604 1b7e 00        	.byte0
 5605 1b7f 0D        	.uleb128 0xd
 5606 1b80 0000 0000 	.long.LASF428
 5607 1b84 07        	.byte0x7
 5608 1b85 0156      	.word0x156
 5609 1b87 0000 1B5D 	.long0x1b5d
 5610 1b8b 0D        	.uleb128 0xd
 5611 1b8c 0000 0000 	.long.LASF429
 5612 1b90 07        	.byte0x7
 5613 1b91 0166      	.word0x166
 5614 1b93 0000 013F 	.long0x13f
 5615 1b97 1A        	.uleb128 0x1a
 5616 1b98 24        	.byte0x24
 5617 1b99 07        	.byte0x7
 5618 1b9a 016E      	.word0x16e
 5619 1b9c 0000 1C16 	.long0x1c16
 5620 1ba0 09        	.uleb128 0x9
 5621 1ba1 0000 0000 	.long.LASF430
 5622 1ba5 07        	.byte0x7
 5623 1ba6 0177      	.word0x177
 5624 1ba8 0000 0BD6 	.long0xbd6
 5625 1bac 00        	.byte0
 5626 1bad 09        	.uleb128 0x9
 5627 1bae 0000 0000 	.long.LASF431
 5628 1bb2 07        	.byte0x7
 5629 1bb3 0179      	.word0x179
 5630 1bb5 0000 0450 	.long0x450
 5631 1bb9 04        	.byte0x4
 5632 1bba 09        	.uleb128 0x9
 5633 1bbb 0000 0000 	.long.LASF432
 5634 1bbf 07        	.byte0x7
 5635 1bc0 017C      	.word0x17c
 5636 1bc2 0000 1B7F 	.long0x1b7f
 5637 1bc6 08        	.byte0x8
68K GAS   			page 123


 5638 1bc7 09        	.uleb128 0x9
 5639 1bc8 0000 0000 	.long.LASF433
 5640 1bcc 07        	.byte0x7
 5641 1bcd 017E      	.word0x17e
 5642 1bcf 0000 0BD6 	.long0xbd6
 5643 1bd3 0C        	.byte0xc
 5644 1bd4 09        	.uleb128 0x9
 5645 1bd5 0000 0000 	.long.LASF434
 5646 1bd9 07        	.byte0x7
 5647 1bda 0184      	.word0x184
 5648 1bdc 0000 0BD6 	.long0xbd6
 5649 1be0 10        	.byte0x10
 5650 1be1 09        	.uleb128 0x9
 5651 1be2 0000 0000 	.long.LASF435
 5652 1be6 07        	.byte0x7
 5653 1be7 018D      	.word0x18d
 5654 1be9 0000 1B8B 	.long0x1b8b
 5655 1bed 14        	.byte0x14
 5656 1bee 09        	.uleb128 0x9
 5657 1bef 0000 0000 	.long.LASF436
 5658 1bf3 07        	.byte0x7
 5659 1bf4 01C9      	.word0x1c9
 5660 1bf6 0000 1725 	.long0x1725
 5661 1bfa 18        	.byte0x18
 5662 1bfb 09        	.uleb128 0x9
 5663 1bfc 0000 0000 	.long.LASF437
 5664 1c00 07        	.byte0x7
 5665 1c01 01D2      	.word0x1d2
 5666 1c03 0000 1C16 	.long0x1c16
 5667 1c07 1C        	.byte0x1c
 5668 1c08 09        	.uleb128 0x9
 5669 1c09 0000 0000 	.long.LASF438
 5670 1c0d 07        	.byte0x7
 5671 1c0e 01D4      	.word0x1d4
 5672 1c10 0000 1842 	.long0x1842
 5673 1c14 20        	.byte0x20
 5674 1c15 00        	.byte0
 5675 1c16 0A        	.uleb128 0xa
 5676 1c17 04        	.byte0x4
 5677 1c18 0000 16A6 	.long0x16a6
 5678 1c1c 0D        	.uleb128 0xd
 5679 1c1d 0000 0000 	.long.LASF439
 5680 1c21 07        	.byte0x7
 5681 1c22 01D5      	.word0x1d5
 5682 1c24 0000 1B97 	.long0x1b97
 5683 1c28 1A        	.uleb128 0x1a
 5684 1c29 20        	.byte0x20
 5685 1c2a 07        	.byte0x7
 5686 1c2b 01DA      	.word0x1da
 5687 1c2d 0000 1C4C 	.long0x1c4c
 5688 1c31 09        	.uleb128 0x9
 5689 1c32 0000 0000 	.long.LASF440
 5690 1c36 07        	.byte0x7
 5691 1c37 01DC      	.word0x1dc
 5692 1c39 0000 1C4C 	.long0x1c4c
 5693 1c3d 00        	.byte0
 5694 1c3e 09        	.uleb128 0x9
68K GAS   			page 124


 5695 1c3f 0000 0000 	.long.LASF441
 5696 1c43 07        	.byte0x7
 5697 1c44 01DD      	.word0x1dd
 5698 1c46 0000 150E 	.long0x150e
 5699 1c4a 04        	.byte0x4
 5700 1c4b 00        	.byte0
 5701 1c4c 0A        	.uleb128 0xa
 5702 1c4d 04        	.byte0x4
 5703 1c4e 0000 15A3 	.long0x15a3
 5704 1c52 0D        	.uleb128 0xd
 5705 1c53 0000 0000 	.long.LASF442
 5706 1c57 07        	.byte0x7
 5707 1c58 01DE      	.word0x1de
 5708 1c5a 0000 1C28 	.long0x1c28
 5709 1c5e 0D        	.uleb128 0xd
 5710 1c5f 0000 0000 	.long.LASF443
 5711 1c63 07        	.byte0x7
 5712 1c64 023A      	.word0x23a
 5713 1c66 0000 1C6A 	.long0x1c6a
 5714 1c6a 08        	.uleb128 0x8
 5715 1c6b 0000 0000 	.long.LASF443
 5716 1c6f 0C        	.byte0xc
 5717 1c70 07        	.byte0x7
 5718 1c71 0260      	.word0x260
 5719 1c73 0000 1C92 	.long0x1c92
 5720 1c77 09        	.uleb128 0x9
 5721 1c78 0000 0000 	.long.LASF308
 5722 1c7c 07        	.byte0x7
 5723 1c7d 0261      	.word0x261
 5724 1c7f 0000 11C1 	.long0x11c1
 5725 1c83 00        	.byte0
 5726 1c84 09        	.uleb128 0x9
 5727 1c85 0000 0000 	.long.LASF444
 5728 1c89 07        	.byte0x7
 5729 1c8a 0262      	.word0x262
 5730 1c8c 0000 1C92 	.long0x1c92
 5731 1c90 08        	.byte0x8
 5732 1c91 00        	.byte0
 5733 1c92 0D        	.uleb128 0xd
 5734 1c93 0000 0000 	.long.LASF445
 5735 1c97 07        	.byte0x7
 5736 1c98 024C      	.word0x24c
 5737 1c9a 0000 1C9E 	.long0x1c9e
 5738 1c9e 0A        	.uleb128 0xa
 5739 1c9f 04        	.byte0x4
 5740 1ca0 0000 1CA4 	.long0x1ca4
 5741 1ca4 1E        	.uleb128 0x1e
 5742 1ca5 0000 1CB9 	.long0x1cb9
 5743 1ca9 19        	.uleb128 0x19
 5744 1caa 0000 172B 	.long0x172b
 5745 1cae 19        	.uleb128 0x19
 5746 1caf 0000 1CB9 	.long0x1cb9
 5747 1cb3 19        	.uleb128 0x19
 5748 1cb4 0000 1CBF 	.long0x1cbf
 5749 1cb8 00        	.byte0
 5750 1cb9 0A        	.uleb128 0xa
 5751 1cba 04        	.byte0x4
68K GAS   			page 125


 5752 1cbb 0000 1C5E 	.long0x1c5e
 5753 1cbf 0A        	.uleb128 0xa
 5754 1cc0 04        	.byte0x4
 5755 1cc1 0000 11B6 	.long0x11b6
 5756 1cc5 1A        	.uleb128 0x1a
 5757 1cc6 04        	.byte0x4
 5758 1cc7 07        	.byte0x7
 5759 1cc8 0268      	.word0x268
 5760 1cca 0000 1CDC 	.long0x1cdc
 5761 1cce 09        	.uleb128 0x9
 5762 1ccf 0000 0000 	.long.LASF446
 5763 1cd3 07        	.byte0x7
 5764 1cd4 026C      	.word0x26c
 5765 1cd6 0000 12DF 	.long0x12df
 5766 1cda 00        	.byte0
 5767 1cdb 00        	.byte0
 5768 1cdc 0D        	.uleb128 0xd
 5769 1cdd 0000 0000 	.long.LASF447
 5770 1ce1 07        	.byte0x7
 5771 1ce2 0272      	.word0x272
 5772 1ce4 0000 1CC5 	.long0x1cc5
 5773 1ce8 1A        	.uleb128 0x1a
 5774 1ce9 0C        	.byte0xc
 5775 1cea 07        	.byte0x7
 5776 1ceb 0279      	.word0x279
 5777 1ced 0000 1CFF 	.long0x1cff
 5778 1cf1 09        	.uleb128 0x9
 5779 1cf2 0000 0000 	.long.LASF326
 5780 1cf6 07        	.byte0x7
 5781 1cf7 027A      	.word0x27a
 5782 1cf9 0000 1258 	.long0x1258
 5783 1cfd 00        	.byte0
 5784 1cfe 00        	.byte0
 5785 1cff 0D        	.uleb128 0xd
 5786 1d00 0000 0000 	.long.LASF448
 5787 1d04 07        	.byte0x7
 5788 1d05 027B      	.word0x27b
 5789 1d07 0000 1CE8 	.long0x1ce8
 5790 1d0b 27        	.uleb128 0x27
 5791 1d0c 07        	.byte0x7
 5792 1d0d 04        	.byte0x4
 5793 1d0e 0000 013F 	.long0x13f
 5794 1d12 07        	.byte0x7
 5795 1d13 0287      	.word0x287
 5796 1d15 0000 1D38 	.long0x1d38
 5797 1d19 26        	.uleb128 0x26
 5798 1d1a 0000 0000 	.long.LASF449
 5799 1d1e 01        	.byte0x1
 5800 1d1f 26        	.uleb128 0x26
 5801 1d20 0000 0000 	.long.LASF450
 5802 1d24 02        	.byte0x2
 5803 1d25 26        	.uleb128 0x26
 5804 1d26 0000 0000 	.long.LASF451
 5805 1d2a 04        	.byte0x4
 5806 1d2b 26        	.uleb128 0x26
 5807 1d2c 0000 0000 	.long.LASF452
 5808 1d30 08        	.byte0x8
68K GAS   			page 126


 5809 1d31 26        	.uleb128 0x26
 5810 1d32 0000 0000 	.long.LASF453
 5811 1d36 10        	.byte0x10
 5812 1d37 00        	.byte0
 5813 1d38 0D        	.uleb128 0xd
 5814 1d39 0000 0000 	.long.LASF454
 5815 1d3d 07        	.byte0x7
 5816 1d3e 028D      	.word0x28d
 5817 1d40 0000 1D0B 	.long0x1d0b
 5818 1d44 1A        	.uleb128 0x1a
 5819 1d45 18        	.byte0x18
 5820 1d46 07        	.byte0x7
 5821 1d47 0292      	.word0x292
 5822 1d49 0000 1D82 	.long0x1d82
 5823 1d4d 09        	.uleb128 0x9
 5824 1d4e 0000 0000 	.long.LASF337
 5825 1d52 07        	.byte0x7
 5826 1d53 0297      	.word0x297
 5827 1d55 0000 1C5E 	.long0x1c5e
 5828 1d59 00        	.byte0
 5829 1d5a 09        	.uleb128 0x9
 5830 1d5b 0000 0000 	.long.LASF455
 5831 1d5f 07        	.byte0x7
 5832 1d60 029C      	.word0x29c
 5833 1d62 0000 1D38 	.long0x1d38
 5834 1d66 0C        	.byte0xc
 5835 1d67 09        	.uleb128 0x9
 5836 1d68 0000 0000 	.long.LASF456
 5837 1d6c 07        	.byte0x7
 5838 1d6d 02A1      	.word0x2a1
 5839 1d6f 0000 0BD6 	.long0xbd6
 5840 1d73 10        	.byte0x10
 5841 1d74 09        	.uleb128 0x9
 5842 1d75 0000 0000 	.long.LASF457
 5843 1d79 07        	.byte0x7
 5844 1d7a 02AC      	.word0x2ac
 5845 1d7c 0000 0450 	.long0x450
 5846 1d80 14        	.byte0x14
 5847 1d81 00        	.byte0
 5848 1d82 0D        	.uleb128 0xd
 5849 1d83 0000 0000 	.long.LASF458
 5850 1d87 07        	.byte0x7
 5851 1d88 02AE      	.word0x2ae
 5852 1d8a 0000 1D44 	.long0x1d44
 5853 1d8e 1A        	.uleb128 0x1a
 5854 1d8f 08        	.byte0x8
 5855 1d90 07        	.byte0x7
 5856 1d91 02B0      	.word0x2b0
 5857 1d93 0000 1DB2 	.long0x1db2
 5858 1d97 09        	.uleb128 0x9
 5859 1d98 0000 0000 	.long.LASF435
 5860 1d9c 07        	.byte0x7
 5861 1d9d 02B1      	.word0x2b1
 5862 1d9f 0000 0BD6 	.long0xbd6
 5863 1da3 00        	.byte0
 5864 1da4 09        	.uleb128 0x9
 5865 1da5 0000 0000 	.long.LASF459
68K GAS   			page 127


 5866 1da9 07        	.byte0x7
 5867 1daa 02B2      	.word0x2b2
 5868 1dac 0000 0450 	.long0x450
 5869 1db0 04        	.byte0x4
 5870 1db1 00        	.byte0
 5871 1db2 0D        	.uleb128 0xd
 5872 1db3 0000 0000 	.long.LASF460
 5873 1db7 07        	.byte0x7
 5874 1db8 02B3      	.word0x2b3
 5875 1dba 0000 1D8E 	.long0x1d8e
 5876 1dbe 10        	.uleb128 0x10
 5877 1dbf 0000 0450 	.long0x450
 5878 1dc3 0000 1DCE 	.long0x1dce
 5879 1dc7 11        	.uleb128 0x11
 5880 1dc8 0000 006E 	.long0x6e
 5881 1dcc 01        	.byte0x1
 5882 1dcd 00        	.byte0
 5883 1dce 1D        	.uleb128 0x1d
 5884 1dcf 0000 0000 	.long.LASF461
 5885 1dd3 0A        	.uleb128 0xa
 5886 1dd4 04        	.byte0x4
 5887 1dd5 0000 1DCE 	.long0x1dce
 5888 1dd9 1D        	.uleb128 0x1d
 5889 1dda 0000 0000 	.long.LASF462
 5890 1dde 0A        	.uleb128 0xa
 5891 1ddf 04        	.byte0x4
 5892 1de0 0000 1DD9 	.long0x1dd9
 5893 1de4 10        	.uleb128 0x10
 5894 1de5 0000 0450 	.long0x450
 5895 1de9 0000 1DF3 	.long0x1df3
 5896 1ded 28        	.uleb128 0x28
 5897 1dee 0000 006E 	.long0x6e
 5898 1df2 00        	.byte0
 5899 1df3 1A        	.uleb128 0x1a
 5900 1df4 08        	.byte0x8
 5901 1df5 07        	.byte0x7
 5902 1df6 0368      	.word0x368
 5903 1df8 0000 1E17 	.long0x1e17
 5904 1dfc 09        	.uleb128 0x9
 5905 1dfd 0000 0000 	.long.LASF463
 5906 1e01 07        	.byte0x7
 5907 1e02 036E      	.word0x36e
 5908 1e04 0000 00AF 	.long0xaf
 5909 1e08 00        	.byte0
 5910 1e09 09        	.uleb128 0x9
 5911 1e0a 0000 0000 	.long.LASF464
 5912 1e0e 07        	.byte0x7
 5913 1e0f 0374      	.word0x374
 5914 1e11 0000 00AF 	.long0xaf
 5915 1e15 04        	.byte0x4
 5916 1e16 00        	.byte0
 5917 1e17 0D        	.uleb128 0xd
 5918 1e18 0000 0000 	.long.LASF465
 5919 1e1c 07        	.byte0x7
 5920 1e1d 0375      	.word0x375
 5921 1e1f 0000 1DF3 	.long0x1df3
 5922 1e23 03        	.uleb128 0x3
68K GAS   			page 128


 5923 1e24 0000 1E17 	.long0x1e17
 5924 1e28 10        	.uleb128 0x10
 5925 1e29 0000 1E23 	.long0x1e23
 5926 1e2d 0000 1E33 	.long0x1e33
 5927 1e31 23        	.uleb128 0x23
 5928 1e32 00        	.byte0
 5929 1e33 03        	.uleb128 0x3
 5930 1e34 0000 1E28 	.long0x1e28
 5931 1e38 1F        	.uleb128 0x1f
 5932 1e39 0000 0000 	.long.LASF466
 5933 1e3d 07        	.byte0x7
 5934 1e3e 0384      	.word0x384
 5935 1e40 0000 1E33 	.long0x1e33
 5936 1e44 1F        	.uleb128 0x1f
 5937 1e45 0000 0000 	.long.LASF467
 5938 1e49 07        	.byte0x7
 5939 1e4a 038D      	.word0x38d
 5940 1e4c 0000 00BA 	.long0xba
 5941 1e50 1F        	.uleb128 0x1f
 5942 1e51 0000 0000 	.long.LASF468
 5943 1e55 07        	.byte0x7
 5944 1e56 0396      	.word0x396
 5945 1e58 0000 00BA 	.long0xba
 5946 1e5c 1F        	.uleb128 0x1f
 5947 1e5d 0000 0000 	.long.LASF469
 5948 1e61 07        	.byte0x7
 5949 1e62 039E      	.word0x39e
 5950 1e64 0000 00BA 	.long0xba
 5951 1e68 04        	.uleb128 0x4
 5952 1e69 0000 0000 	.long.LASF470
 5953 1e6d 28        	.byte0x28
 5954 1e6e 2C        	.byte0x2c
 5955 1e6f 0000 0BD6 	.long0xbd6
 5956 1e73 22        	.uleb128 0x22
 5957 1e74 0000 0000 	.long.LASF471
 5958 1e78 28        	.byte0x28
 5959 1e79 6C        	.byte0x6c
 5960 1e7a 0000 0BE1 	.long0xbe1
 5961 1e7e 04        	.uleb128 0x4
 5962 1e7f 0000 0000 	.long.LASF472
 5963 1e83 29        	.byte0x29
 5964 1e84 4A        	.byte0x4a
 5965 1e85 0000 0BD6 	.long0xbd6
 5966 1e89 04        	.uleb128 0x4
 5967 1e8a 0000 0000 	.long.LASF473
 5968 1e8e 29        	.byte0x29
 5969 1e8f 50        	.byte0x50
 5970 1e90 0000 1314 	.long0x1314
 5971 1e94 04        	.uleb128 0x4
 5972 1e95 0000 0000 	.long.LASF474
 5973 1e99 29        	.byte0x29
 5974 1e9a 7C        	.byte0x7c
 5975 1e9b 0000 154A 	.long0x154a
 5976 1e9f 04        	.uleb128 0x4
 5977 1ea0 0000 0000 	.long.LASF475
 5978 1ea4 29        	.byte0x29
 5979 1ea5 AC        	.byte0xac
68K GAS   			page 129


 5980 1ea6 0000 1E68 	.long0x1e68
 5981 1eaa 12        	.uleb128 0x12
 5982 1eab 08        	.byte0x8
 5983 1eac 2A        	.byte0x2a
 5984 1ead 2A        	.byte0x2a
 5985 1eae 0000 1ECB 	.long0x1ecb
 5986 1eb2 07        	.uleb128 0x7
 5987 1eb3 0000 0000 	.long.LASF476
 5988 1eb7 2A        	.byte0x2a
 5989 1eb8 2C        	.byte0x2c
 5990 1eb9 0000 19F4 	.long0x19f4
 5991 1ebd 00        	.byte0
 5992 1ebe 07        	.uleb128 0x7
 5993 1ebf 0000 0000 	.long.LASF477
 5994 1ec3 2A        	.byte0x2a
 5995 1ec4 2E        	.byte0x2e
 5996 1ec5 0000 0113 	.long0x113
 5997 1ec9 04        	.byte0x4
 5998 1eca 00        	.byte0
 5999 1ecb 04        	.uleb128 0x4
 6000 1ecc 0000 0000 	.long.LASF478
 6001 1ed0 2A        	.byte0x2a
 6002 1ed1 2F        	.byte0x2f
 6003 1ed2 0000 1EAA 	.long0x1eaa
 6004 1ed6 12        	.uleb128 0x12
 6005 1ed7 20        	.byte0x20
 6006 1ed8 2A        	.byte0x2a
 6007 1ed9 3A        	.byte0x3a
 6008 1eda 0000 1F3F 	.long0x1f3f
 6009 1ede 07        	.uleb128 0x7
 6010 1edf 0000 0000 	.long.LASF479
 6011 1ee3 2A        	.byte0x2a
 6012 1ee4 3F        	.byte0x3f
 6013 1ee5 0000 0BD6 	.long0xbd6
 6014 1ee9 00        	.byte0
 6015 1eea 07        	.uleb128 0x7
 6016 1eeb 0000 0000 	.long.LASF480
 6017 1eef 2A        	.byte0x2a
 6018 1ef0 45        	.byte0x45
 6019 1ef1 0000 0BD6 	.long0xbd6
 6020 1ef5 04        	.byte0x4
 6021 1ef6 07        	.uleb128 0x7
 6022 1ef7 0000 0000 	.long.LASF481
 6023 1efb 2A        	.byte0x2a
 6024 1efc 4B        	.byte0x4b
 6025 1efd 0000 0BD6 	.long0xbd6
 6026 1f01 08        	.byte0x8
 6027 1f02 07        	.uleb128 0x7
 6028 1f03 0000 0000 	.long.LASF482
 6029 1f07 2A        	.byte0x2a
 6030 1f08 51        	.byte0x51
 6031 1f09 0000 0BD6 	.long0xbd6
 6032 1f0d 0C        	.byte0xc
 6033 1f0e 07        	.uleb128 0x7
 6034 1f0f 0000 0000 	.long.LASF483
 6035 1f13 2A        	.byte0x2a
 6036 1f14 57        	.byte0x57
68K GAS   			page 130


 6037 1f15 0000 0BD6 	.long0xbd6
 6038 1f19 10        	.byte0x10
 6039 1f1a 07        	.uleb128 0x7
 6040 1f1b 0000 0000 	.long.LASF484
 6041 1f1f 2A        	.byte0x2a
 6042 1f20 5C        	.byte0x5c
 6043 1f21 0000 0BD6 	.long0xbd6
 6044 1f25 14        	.byte0x14
 6045 1f26 07        	.uleb128 0x7
 6046 1f27 0000 0000 	.long.LASF485
 6047 1f2b 2A        	.byte0x2a
 6048 1f2c 62        	.byte0x62
 6049 1f2d 0000 0BD6 	.long0xbd6
 6050 1f31 18        	.byte0x18
 6051 1f32 07        	.uleb128 0x7
 6052 1f33 0000 0000 	.long.LASF486
 6053 1f37 2A        	.byte0x2a
 6054 1f38 67        	.byte0x67
 6055 1f39 0000 1F3F 	.long0x1f3f
 6056 1f3d 1C        	.byte0x1c
 6057 1f3e 00        	.byte0
 6058 1f3f 0A        	.uleb128 0xa
 6059 1f40 04        	.byte0x4
 6060 1f41 0000 1ECB 	.long0x1ecb
 6061 1f45 04        	.uleb128 0x4
 6062 1f46 0000 0000 	.long.LASF487
 6063 1f4a 2A        	.byte0x2a
 6064 1f4b 68        	.byte0x68
 6065 1f4c 0000 1ED6 	.long0x1ed6
 6066 1f50 22        	.uleb128 0x22
 6067 1f51 0000 0000 	.long.LASF488
 6068 1f55 2A        	.byte0x2a
 6069 1f56 70        	.byte0x70
 6070 1f57 0000 1F45 	.long0x1f45
 6071 1f5b 04        	.uleb128 0x4
 6072 1f5c 0000 0000 	.long.LASF489
 6073 1f60 0E        	.byte0xe
 6074 1f61 28        	.byte0x28
 6075 1f62 0000 0CCB 	.long0xccb
 6076 1f66 03        	.uleb128 0x3
 6077 1f67 0000 1F5B 	.long0x1f5b
 6078 1f6b 12        	.uleb128 0x12
 6079 1f6c 38        	.byte0x38
 6080 1f6d 0E        	.byte0xe
 6081 1f6e 2D        	.byte0x2d
 6082 1f6f 0000 201C 	.long0x201c
 6083 1f73 07        	.uleb128 0x7
 6084 1f74 0000 0000 	.long.LASF490
 6085 1f78 0E        	.byte0xe
 6086 1f79 2F        	.byte0x2f
 6087 1f7a 0000 202D 	.long0x202d
 6088 1f7e 00        	.byte0
 6089 1f7f 07        	.uleb128 0x7
 6090 1f80 0000 0000 	.long.LASF491
 6091 1f84 0E        	.byte0xe
 6092 1f85 32        	.byte0x32
 6093 1f86 0000 2043 	.long0x2043
68K GAS   			page 131


 6094 1f8a 04        	.byte0x4
 6095 1f8b 07        	.uleb128 0x7
 6096 1f8c 0000 0000 	.long.LASF492
 6097 1f90 0E        	.byte0xe
 6098 1f91 35        	.byte0x35
 6099 1f92 0000 205E 	.long0x205e
 6100 1f96 08        	.byte0x8
 6101 1f97 07        	.uleb128 0x7
 6102 1f98 0000 0000 	.long.LASF493
 6103 1f9c 0E        	.byte0xe
 6104 1f9d 3C        	.byte0x3c
 6105 1f9e 0000 205E 	.long0x205e
 6106 1fa2 0C        	.byte0xc
 6107 1fa3 07        	.uleb128 0x7
 6108 1fa4 0000 0000 	.long.LASF494
 6109 1fa8 0E        	.byte0xe
 6110 1fa9 43        	.byte0x43
 6111 1faa 0000 205E 	.long0x205e
 6112 1fae 10        	.byte0x10
 6113 1faf 07        	.uleb128 0x7
 6114 1fb0 0000 0000 	.long.LASF495
 6115 1fb4 0E        	.byte0xe
 6116 1fb5 4A        	.byte0x4a
 6117 1fb6 0000 205E 	.long0x205e
 6118 1fba 14        	.byte0x14
 6119 1fbb 07        	.uleb128 0x7
 6120 1fbc 0000 0000 	.long.LASF496
 6121 1fc0 0E        	.byte0xe
 6122 1fc1 51        	.byte0x51
 6123 1fc2 0000 2078 	.long0x2078
 6124 1fc6 18        	.byte0x18
 6125 1fc7 07        	.uleb128 0x7
 6126 1fc8 0000 0000 	.long.LASF497
 6127 1fcc 0E        	.byte0xe
 6128 1fcd 57        	.byte0x57
 6129 1fce 0000 2078 	.long0x2078
 6130 1fd2 1C        	.byte0x1c
 6131 1fd3 07        	.uleb128 0x7
 6132 1fd4 0000 0000 	.long.LASF498
 6133 1fd8 0E        	.byte0xe
 6134 1fd9 A5        	.byte0xa5
 6135 1fda 0000 2098 	.long0x2098
 6136 1fde 20        	.byte0x20
 6137 1fdf 07        	.uleb128 0x7
 6138 1fe0 0000 0000 	.long.LASF499
 6139 1fe4 0E        	.byte0xe
 6140 1fe5 AD        	.byte0xad
 6141 1fe6 0000 20AE 	.long0x20ae
 6142 1fea 24        	.byte0x24
 6143 1feb 07        	.uleb128 0x7
 6144 1fec 0000 0000 	.long.LASF500
 6145 1ff0 0E        	.byte0xe
 6146 1ff1 B0        	.byte0xb0
 6147 1ff2 0000 20D3 	.long0x20d3
 6148 1ff6 28        	.byte0x28
 6149 1ff7 07        	.uleb128 0x7
 6150 1ff8 0000 0000 	.long.LASF501
68K GAS   			page 132


 6151 1ffc 0E        	.byte0xe
 6152 1ffd B9        	.byte0xb9
 6153 1ffe 0000 20F3 	.long0x20f3
 6154 2002 2C        	.byte0x2c
 6155 2003 07        	.uleb128 0x7
 6156 2004 0000 0000 	.long.LASF502
 6157 2008 0E        	.byte0xe
 6158 2009 C1        	.byte0xc1
 6159 200a 0000 2043 	.long0x2043
 6160 200e 30        	.byte0x30
 6161 200f 07        	.uleb128 0x7
 6162 2010 0000 0000 	.long.LASF503
 6163 2014 0E        	.byte0xe
 6164 2015 C4        	.byte0xc4
 6165 2016 0000 210E 	.long0x210e
 6166 201a 34        	.byte0x34
 6167 201b 00        	.byte0
 6168 201c 1E        	.uleb128 0x1e
 6169 201d 0000 2027 	.long0x2027
 6170 2021 19        	.uleb128 0x19
 6171 2022 0000 2027 	.long0x2027
 6172 2026 00        	.byte0
 6173 2027 0A        	.uleb128 0xa
 6174 2028 04        	.byte0x4
 6175 2029 0000 1F66 	.long0x1f66
 6176 202d 0A        	.uleb128 0xa
 6177 202e 04        	.byte0x4
 6178 202f 0000 201C 	.long0x201c
 6179 2033 1E        	.uleb128 0x1e
 6180 2034 0000 2043 	.long0x2043
 6181 2038 19        	.uleb128 0x19
 6182 2039 0000 2027 	.long0x2027
 6183 203d 19        	.uleb128 0x19
 6184 203e 0000 172B 	.long0x172b
 6185 2042 00        	.byte0
 6186 2043 0A        	.uleb128 0xa
 6187 2044 04        	.byte0x4
 6188 2045 0000 2033 	.long0x2033
 6189 2049 1E        	.uleb128 0x1e
 6190 204a 0000 205E 	.long0x205e
 6191 204e 19        	.uleb128 0x19
 6192 204f 0000 2027 	.long0x2027
 6193 2053 19        	.uleb128 0x19
 6194 2054 0000 172B 	.long0x172b
 6195 2058 19        	.uleb128 0x19
 6196 2059 0000 1B4B 	.long0x1b4b
 6197 205d 00        	.byte0
 6198 205e 0A        	.uleb128 0xa
 6199 205f 04        	.byte0x4
 6200 2060 0000 2049 	.long0x2049
 6201 2064 18        	.uleb128 0x18
 6202 2065 0000 1356 	.long0x1356
 6203 2069 0000 2078 	.long0x2078
 6204 206d 19        	.uleb128 0x19
 6205 206e 0000 2027 	.long0x2027
 6206 2072 19        	.uleb128 0x19
 6207 2073 0000 1356 	.long0x1356
68K GAS   			page 133


 6208 2077 00        	.byte0
 6209 2078 0A        	.uleb128 0xa
 6210 2079 04        	.byte0x4
 6211 207a 0000 2064 	.long0x2064
 6212 207e 1E        	.uleb128 0x1e
 6213 207f 0000 2098 	.long0x2098
 6214 2083 19        	.uleb128 0x19
 6215 2084 0000 2027 	.long0x2027
 6216 2088 19        	.uleb128 0x19
 6217 2089 0000 1B4B 	.long0x1b4b
 6218 208d 19        	.uleb128 0x19
 6219 208e 0000 172B 	.long0x172b
 6220 2092 19        	.uleb128 0x19
 6221 2093 0000 1356 	.long0x1356
 6222 2097 00        	.byte0
 6223 2098 0A        	.uleb128 0xa
 6224 2099 04        	.byte0x4
 6225 209a 0000 207E 	.long0x207e
 6226 209e 1E        	.uleb128 0x1e
 6227 209f 0000 20AE 	.long0x20ae
 6228 20a3 19        	.uleb128 0x19
 6229 20a4 0000 2027 	.long0x2027
 6230 20a8 19        	.uleb128 0x19
 6231 20a9 0000 1B4B 	.long0x1b4b
 6232 20ad 00        	.byte0
 6233 20ae 0A        	.uleb128 0xa
 6234 20af 04        	.byte0x4
 6235 20b0 0000 209E 	.long0x209e
 6236 20b4 1E        	.uleb128 0x1e
 6237 20b5 0000 20D3 	.long0x20d3
 6238 20b9 19        	.uleb128 0x19
 6239 20ba 0000 2027 	.long0x2027
 6240 20be 19        	.uleb128 0x19
 6241 20bf 0000 172B 	.long0x172b
 6242 20c3 19        	.uleb128 0x19
 6243 20c4 0000 143A 	.long0x143a
 6244 20c8 19        	.uleb128 0x19
 6245 20c9 0000 0BE6 	.long0xbe6
 6246 20cd 19        	.uleb128 0x19
 6247 20ce 0000 173C 	.long0x173c
 6248 20d2 00        	.byte0
 6249 20d3 0A        	.uleb128 0xa
 6250 20d4 04        	.byte0x4
 6251 20d5 0000 20B4 	.long0x20b4
 6252 20d9 1E        	.uleb128 0x1e
 6253 20da 0000 20F3 	.long0x20f3
 6254 20de 19        	.uleb128 0x19
 6255 20df 0000 2027 	.long0x2027
 6256 20e3 19        	.uleb128 0x19
 6257 20e4 0000 172B 	.long0x172b
 6258 20e8 19        	.uleb128 0x19
 6259 20e9 0000 143A 	.long0x143a
 6260 20ed 19        	.uleb128 0x19
 6261 20ee 0000 173C 	.long0x173c
 6262 20f2 00        	.byte0
 6263 20f3 0A        	.uleb128 0xa
 6264 20f4 04        	.byte0x4
68K GAS   			page 134


 6265 20f5 0000 20D9 	.long0x20d9
 6266 20f9 1E        	.uleb128 0x1e
 6267 20fa 0000 210E 	.long0x210e
 6268 20fe 19        	.uleb128 0x19
 6269 20ff 0000 2027 	.long0x2027
 6270 2103 19        	.uleb128 0x19
 6271 2104 0000 172B 	.long0x172b
 6272 2108 19        	.uleb128 0x19
 6273 2109 0000 1731 	.long0x1731
 6274 210d 00        	.byte0
 6275 210e 0A        	.uleb128 0xa
 6276 210f 04        	.byte0x4
 6277 2110 0000 20F9 	.long0x20f9
 6278 2114 04        	.uleb128 0x4
 6279 2115 0000 0000 	.long.LASF504
 6280 2119 0E        	.byte0xe
 6281 211a D3        	.byte0xd3
 6282 211b 0000 1F6B 	.long0x1f6b
 6283 211f 29        	.uleb128 0x29
 6284 2120 0000 0000 	.long.LASF505
 6285 2124 00        	.byte0
 6286 2125 0E        	.byte0xe
 6287 2126 DB        	.byte0xdb
 6288 2127 04        	.uleb128 0x4
 6289 2128 0000 0000 	.long.LASF505
 6290 212c 0E        	.byte0xe
 6291 212d E7        	.byte0xe7
 6292 212e 0000 211F 	.long0x211f
 6293 2132 0A        	.uleb128 0xa
 6294 2133 04        	.byte0x4
 6295 2134 0000 2127 	.long0x2127
 6296 2138 10        	.uleb128 0x10
 6297 2139 0000 1F66 	.long0x1f66
 6298 213d 0000 2143 	.long0x2143
 6299 2141 23        	.uleb128 0x23
 6300 2142 00        	.byte0
 6301 2143 03        	.uleb128 0x3
 6302 2144 0000 2138 	.long0x2138
 6303 2148 1F        	.uleb128 0x1f
 6304 2149 0000 0000 	.long.LASF506
 6305 214d 0E        	.byte0xe
 6306 214e 010C      	.word0x10c
 6307 2150 0000 2143 	.long0x2143
 6308 2154 04        	.uleb128 0x4
 6309 2155 0000 0000 	.long.LASF507
 6310 2159 2B        	.byte0x2b
 6311 215a 2C        	.byte0x2c
 6312 215b 0000 0BD6 	.long0xbd6
 6313 215f 04        	.uleb128 0x4
 6314 2160 0000 0000 	.long.LASF508
 6315 2164 2C        	.byte0x2c
 6316 2165 4E        	.byte0x4e
 6317 2166 0000 0BD6 	.long0xbd6
 6318 216a 04        	.uleb128 0x4
 6319 216b 0000 0000 	.long.LASF509
 6320 216f 2C        	.byte0x2c
 6321 2170 7D        	.byte0x7d
68K GAS   			page 135


 6322 2171 0000 1947 	.long0x1947
 6323 2175 04        	.uleb128 0x4
 6324 2176 0000 0000 	.long.LASF510
 6325 217a 2C        	.byte0x2c
 6326 217b 82        	.byte0x82
 6327 217c 0000 2180 	.long0x2180
 6328 2180 0A        	.uleb128 0xa
 6329 2181 04        	.byte0x4
 6330 2182 0000 2186 	.long0x2186
 6331 2186 1E        	.uleb128 0x1e
 6332 2187 0000 2191 	.long0x2191
 6333 218b 19        	.uleb128 0x19
 6334 218c 0000 216A 	.long0x216a
 6335 2190 00        	.byte0
 6336 2191 12        	.uleb128 0x12
 6337 2192 1C        	.byte0x1c
 6338 2193 2C        	.byte0x2c
 6339 2194 8C        	.byte0x8c
 6340 2195 0000 21EE 	.long0x21ee
 6341 2199 07        	.uleb128 0x7
 6342 219a 0000 0000 	.long.LASF211
 6343 219e 2C        	.byte0x2c
 6344 219f 8E        	.byte0x8e
 6345 21a0 0000 1E7E 	.long0x1e7e
 6346 21a4 00        	.byte0
 6347 21a5 07        	.uleb128 0x7
 6348 21a6 0000 0000 	.long.LASF477
 6349 21aa 2C        	.byte0x2c
 6350 21ab 90        	.byte0x90
 6351 21ac 0000 00AF 	.long0xaf
 6352 21b0 04        	.byte0x4
 6353 21b1 07        	.uleb128 0x7
 6354 21b2 0000 0000 	.long.LASF418
 6355 21b6 2C        	.byte0x2c
 6356 21b7 92        	.byte0x92
 6357 21b8 0000 215F 	.long0x215f
 6358 21bc 08        	.byte0x8
 6359 21bd 07        	.uleb128 0x7
 6360 21be 0000 0000 	.long.LASF511
 6361 21c2 2C        	.byte0x2c
 6362 21c3 94        	.byte0x94
 6363 21c4 0000 2154 	.long0x2154
 6364 21c8 0C        	.byte0xc
 6365 21c9 07        	.uleb128 0x7
 6366 21ca 0000 0000 	.long.LASF512
 6367 21ce 2C        	.byte0x2c
 6368 21cf 96        	.byte0x96
 6369 21d0 0000 2175 	.long0x2175
 6370 21d4 10        	.byte0x10
 6371 21d5 07        	.uleb128 0x7
 6372 21d6 0000 0000 	.long.LASF513
 6373 21da 2C        	.byte0x2c
 6374 21db 98        	.byte0x98
 6375 21dc 0000 1E9F 	.long0x1e9f
 6376 21e0 14        	.byte0x14
 6377 21e1 07        	.uleb128 0x7
 6378 21e2 0000 0000 	.long.LASF402
68K GAS   			page 136


 6379 21e6 2C        	.byte0x2c
 6380 21e7 9A        	.byte0x9a
 6381 21e8 0000 216A 	.long0x216a
 6382 21ec 18        	.byte0x18
 6383 21ed 00        	.byte0
 6384 21ee 04        	.uleb128 0x4
 6385 21ef 0000 0000 	.long.LASF514
 6386 21f3 2C        	.byte0x2c
 6387 21f4 9B        	.byte0x9b
 6388 21f5 0000 2191 	.long0x2191
 6389 21f9 12        	.uleb128 0x12
 6390 21fa 2C        	.byte0x2c
 6391 21fb 2D        	.byte0x2d
 6392 21fc 31        	.byte0x31
 6393 21fd 0000 2286 	.long0x2286
 6394 2201 07        	.uleb128 0x7
 6395 2202 0000 0000 	.long.LASF515
 6396 2206 2D        	.byte0x2d
 6397 2207 36        	.byte0x36
 6398 2208 0000 0BD6 	.long0xbd6
 6399 220c 00        	.byte0
 6400 220d 07        	.uleb128 0x7
 6401 220e 0000 0000 	.long.LASF480
 6402 2212 2D        	.byte0x2d
 6403 2213 3C        	.byte0x3c
 6404 2214 0000 0BD6 	.long0xbd6
 6405 2218 04        	.byte0x4
 6406 2219 07        	.uleb128 0x7
 6407 221a 0000 0000 	.long.LASF483
 6408 221e 2D        	.byte0x2d
 6409 221f 42        	.byte0x42
 6410 2220 0000 0BD6 	.long0xbd6
 6411 2224 08        	.byte0x8
 6412 2225 07        	.uleb128 0x7
 6413 2226 0000 0000 	.long.LASF482
 6414 222a 2D        	.byte0x2d
 6415 222b 48        	.byte0x48
 6416 222c 0000 0BD6 	.long0xbd6
 6417 2230 0C        	.byte0xc
 6418 2231 07        	.uleb128 0x7
 6419 2232 0000 0000 	.long.LASF516
 6420 2236 2D        	.byte0x2d
 6421 2237 4E        	.byte0x4e
 6422 2238 0000 0BD6 	.long0xbd6
 6423 223c 10        	.byte0x10
 6424 223d 07        	.uleb128 0x7
 6425 223e 0000 0000 	.long.LASF517
 6426 2242 2D        	.byte0x2d
 6427 2243 54        	.byte0x54
 6428 2244 0000 0BD6 	.long0xbd6
 6429 2248 14        	.byte0x14
 6430 2249 07        	.uleb128 0x7
 6431 224a 0000 0000 	.long.LASF518
 6432 224e 2D        	.byte0x2d
 6433 224f 5B        	.byte0x5b
 6434 2250 0000 0BD6 	.long0xbd6
 6435 2254 18        	.byte0x18
68K GAS   			page 137


 6436 2255 07        	.uleb128 0x7
 6437 2256 0000 0000 	.long.LASF519
 6438 225a 2D        	.byte0x2d
 6439 225b 62        	.byte0x62
 6440 225c 0000 0BD6 	.long0xbd6
 6441 2260 1C        	.byte0x1c
 6442 2261 07        	.uleb128 0x7
 6443 2262 0000 0000 	.long.LASF520
 6444 2266 2D        	.byte0x2d
 6445 2267 68        	.byte0x68
 6446 2268 0000 0BD6 	.long0xbd6
 6447 226c 20        	.byte0x20
 6448 226d 07        	.uleb128 0x7
 6449 226e 0000 0000 	.long.LASF521
 6450 2272 2D        	.byte0x2d
 6451 2273 6E        	.byte0x6e
 6452 2274 0000 0BD6 	.long0xbd6
 6453 2278 24        	.byte0x24
 6454 2279 07        	.uleb128 0x7
 6455 227a 0000 0000 	.long.LASF522
 6456 227e 2D        	.byte0x2d
 6457 227f 74        	.byte0x74
 6458 2280 0000 2286 	.long0x2286
 6459 2284 28        	.byte0x28
 6460 2285 00        	.byte0
 6461 2286 0A        	.uleb128 0xa
 6462 2287 04        	.byte0x4
 6463 2288 0000 21EE 	.long0x21ee
 6464 228c 04        	.uleb128 0x4
 6465 228d 0000 0000 	.long.LASF523
 6466 2291 2D        	.byte0x2d
 6467 2292 75        	.byte0x75
 6468 2293 0000 21F9 	.long0x21f9
 6469 2297 22        	.uleb128 0x22
 6470 2298 0000 0000 	.long.LASF524
 6471 229c 2D        	.byte0x2d
 6472 229d 7D        	.byte0x7d
 6473 229e 0000 228C 	.long0x228c
 6474 22a2 25        	.uleb128 0x25
 6475 22a3 07        	.byte0x7
 6476 22a4 04        	.byte0x4
 6477 22a5 0000 013F 	.long0x13f
 6478 22a9 2E        	.byte0x2e
 6479 22aa 2D        	.byte0x2d
 6480 22ab 0000 2301 	.long0x2301
 6481 22af 26        	.uleb128 0x26
 6482 22b0 0000 0000 	.long.LASF525
 6483 22b4 00        	.byte0
 6484 22b5 26        	.uleb128 0x26
 6485 22b6 0000 0000 	.long.LASF526
 6486 22ba 01        	.byte0x1
 6487 22bb 26        	.uleb128 0x26
 6488 22bc 0000 0000 	.long.LASF527
 6489 22c0 02        	.byte0x2
 6490 22c1 26        	.uleb128 0x26
 6491 22c2 0000 0000 	.long.LASF528
 6492 22c6 03        	.byte0x3
68K GAS   			page 138


 6493 22c7 26        	.uleb128 0x26
 6494 22c8 0000 0000 	.long.LASF529
 6495 22cc 04        	.byte0x4
 6496 22cd 26        	.uleb128 0x26
 6497 22ce 0000 0000 	.long.LASF530
 6498 22d2 05        	.byte0x5
 6499 22d3 26        	.uleb128 0x26
 6500 22d4 0000 0000 	.long.LASF531
 6501 22d8 06        	.byte0x6
 6502 22d9 26        	.uleb128 0x26
 6503 22da 0000 0000 	.long.LASF532
 6504 22de 07        	.byte0x7
 6505 22df 26        	.uleb128 0x26
 6506 22e0 0000 0000 	.long.LASF533
 6507 22e4 08        	.byte0x8
 6508 22e5 26        	.uleb128 0x26
 6509 22e6 0000 0000 	.long.LASF534
 6510 22ea 09        	.byte0x9
 6511 22eb 26        	.uleb128 0x26
 6512 22ec 0000 0000 	.long.LASF535
 6513 22f0 0A        	.byte0xa
 6514 22f1 26        	.uleb128 0x26
 6515 22f2 0000 0000 	.long.LASF536
 6516 22f6 0B        	.byte0xb
 6517 22f7 2A        	.uleb128 0x2a
 6518 22f8 0000 0000 	.long.LASF537
 6519 22fc FFFF FFFF 	.long0xffffffff
 6520 2300 00        	.byte0
 6521 2301 04        	.uleb128 0x4
 6522 2302 0000 0000 	.long.LASF538
 6523 2306 2E        	.byte0x2e
 6524 2307 8C        	.byte0x8c
 6525 2308 0000 22A2 	.long0x22a2
 6526 230c 04        	.uleb128 0x4
 6527 230d 0000 0000 	.long.LASF539
 6528 2311 2E        	.byte0x2e
 6529 2312 C0        	.byte0xc0
 6530 2313 0000 0EF4 	.long0xef4
 6531 2317 12        	.uleb128 0x12
 6532 2318 08        	.byte0x8
 6533 2319 2E        	.byte0x2e
 6534 231a C5        	.byte0xc5
 6535 231b 0000 2338 	.long0x2338
 6536 231f 07        	.uleb128 0x7
 6537 2320 0000 0000 	.long.LASF540
 6538 2324 2E        	.byte0x2e
 6539 2325 C7        	.byte0xc7
 6540 2326 0000 2301 	.long0x2301
 6541 232a 00        	.byte0
 6542 232b 07        	.uleb128 0x7
 6543 232c 0000 0000 	.long.LASF541
 6544 2330 2E        	.byte0x2e
 6545 2331 C9        	.byte0xc9
 6546 2332 0000 230C 	.long0x230c
 6547 2336 04        	.byte0x4
 6548 2337 00        	.byte0
 6549 2338 04        	.uleb128 0x4
68K GAS   			page 139


 6550 2339 0000 0000 	.long.LASF542
 6551 233d 2E        	.byte0x2e
 6552 233e CA        	.byte0xca
 6553 233f 0000 2317 	.long0x2317
 6554 2343 22        	.uleb128 0x22
 6555 2344 0000 0000 	.long.LASF543
 6556 2348 2E        	.byte0x2e
 6557 2349 CF        	.byte0xcf
 6558 234a 0000 2338 	.long0x2338
 6559 234e 04        	.uleb128 0x4
 6560 234f 0000 0000 	.long.LASF544
 6561 2353 2F        	.byte0x2f
 6562 2354 47        	.byte0x47
 6563 2355 0000 2359 	.long0x2359
 6564 2359 0A        	.uleb128 0xa
 6565 235a 04        	.byte0x4
 6566 235b 0000 235F 	.long0x235f
 6567 235f 18        	.uleb128 0x18
 6568 2360 0000 118F 	.long0x118f
 6569 2364 0000 2373 	.long0x2373
 6570 2368 19        	.uleb128 0x19
 6571 2369 0000 172B 	.long0x172b
 6572 236d 19        	.uleb128 0x19
 6573 236e 0000 172B 	.long0x172b
 6574 2372 00        	.byte0
 6575 2373 04        	.uleb128 0x4
 6576 2374 0000 0000 	.long.LASF545
 6577 2378 2F        	.byte0x2f
 6578 2379 5B        	.byte0x5b
 6579 237a 0000 237E 	.long0x237e
 6580 237e 0A        	.uleb128 0xa
 6581 237f 04        	.byte0x4
 6582 2380 0000 2384 	.long0x2384
 6583 2384 1E        	.uleb128 0x1e
 6584 2385 0000 2394 	.long0x2394
 6585 2389 19        	.uleb128 0x19
 6586 238a 0000 172B 	.long0x172b
 6587 238e 19        	.uleb128 0x19
 6588 238f 0000 172B 	.long0x172b
 6589 2393 00        	.byte0
 6590 2394 04        	.uleb128 0x4
 6591 2395 0000 0000 	.long.LASF546
 6592 2399 2F        	.byte0x2f
 6593 239a 6F        	.byte0x6f
 6594 239b 0000 237E 	.long0x237e
 6595 239f 04        	.uleb128 0x4
 6596 23a0 0000 0000 	.long.LASF547
 6597 23a4 2F        	.byte0x2f
 6598 23a5 85        	.byte0x85
 6599 23a6 0000 237E 	.long0x237e
 6600 23aa 04        	.uleb128 0x4
 6601 23ab 0000 0000 	.long.LASF548
 6602 23af 2F        	.byte0x2f
 6603 23b0 9C        	.byte0x9c
 6604 23b1 0000 237E 	.long0x237e
 6605 23b5 04        	.uleb128 0x4
 6606 23b6 0000 0000 	.long.LASF549
68K GAS   			page 140


 6607 23ba 2F        	.byte0x2f
 6608 23bb AB        	.byte0xab
 6609 23bc 0000 174D 	.long0x174d
 6610 23c0 04        	.uleb128 0x4
 6611 23c1 0000 0000 	.long.LASF550
 6612 23c5 2F        	.byte0x2f
 6613 23c6 B9        	.byte0xb9
 6614 23c7 0000 174D 	.long0x174d
 6615 23cb 04        	.uleb128 0x4
 6616 23cc 0000 0000 	.long.LASF551
 6617 23d0 2F        	.byte0x2f
 6618 23d1 CB        	.byte0xcb
 6619 23d2 0000 23D6 	.long0x23d6
 6620 23d6 0A        	.uleb128 0xa
 6621 23d7 04        	.byte0x4
 6622 23d8 0000 23DC 	.long0x23dc
 6623 23dc 1E        	.uleb128 0x1e
 6624 23dd 0000 23F1 	.long0x23f1
 6625 23e1 19        	.uleb128 0x19
 6626 23e2 0000 2301 	.long0x2301
 6627 23e6 19        	.uleb128 0x19
 6628 23e7 0000 118F 	.long0x118f
 6629 23eb 19        	.uleb128 0x19
 6630 23ec 0000 230C 	.long0x230c
 6631 23f0 00        	.byte0
 6632 23f1 04        	.uleb128 0x4
 6633 23f2 0000 0000 	.long.LASF552
 6634 23f6 2F        	.byte0x2f
 6635 23f7 E1        	.byte0xe1
 6636 23f8 0000 174D 	.long0x174d
 6637 23fc 12        	.uleb128 0x12
 6638 23fd 24        	.byte0x24
 6639 23fe 2F        	.byte0x2f
 6640 23ff E8        	.byte0xe8
 6641 2400 0000 2471 	.long0x2471
 6642 2404 07        	.uleb128 0x7
 6643 2405 0000 0000 	.long.LASF553
 6644 2409 2F        	.byte0x2f
 6645 240a E9        	.byte0xe9
 6646 240b 0000 234E 	.long0x234e
 6647 240f 00        	.byte0
 6648 2410 07        	.uleb128 0x7
 6649 2411 0000 0000 	.long.LASF554
 6650 2415 2F        	.byte0x2f
 6651 2416 EA        	.byte0xea
 6652 2417 0000 2394 	.long0x2394
 6653 241b 04        	.byte0x4
 6654 241c 07        	.uleb128 0x7
 6655 241d 0000 0000 	.long.LASF555
 6656 2421 2F        	.byte0x2f
 6657 2422 EB        	.byte0xeb
 6658 2423 0000 239F 	.long0x239f
 6659 2427 08        	.byte0x8
 6660 2428 07        	.uleb128 0x7
 6661 2429 0000 0000 	.long.LASF556
 6662 242d 2F        	.byte0x2f
 6663 242e EC        	.byte0xec
68K GAS   			page 141


 6664 242f 0000 2373 	.long0x2373
 6665 2433 0C        	.byte0xc
 6666 2434 07        	.uleb128 0x7
 6667 2435 0000 0000 	.long.LASF557
 6668 2439 2F        	.byte0x2f
 6669 243a ED        	.byte0xed
 6670 243b 0000 23AA 	.long0x23aa
 6671 243f 10        	.byte0x10
 6672 2440 07        	.uleb128 0x7
 6673 2441 0000 0000 	.long.LASF558
 6674 2445 2F        	.byte0x2f
 6675 2446 EE        	.byte0xee
 6676 2447 0000 23B5 	.long0x23b5
 6677 244b 14        	.byte0x14
 6678 244c 07        	.uleb128 0x7
 6679 244d 0000 0000 	.long.LASF559
 6680 2451 2F        	.byte0x2f
 6681 2452 EF        	.byte0xef
 6682 2453 0000 23C0 	.long0x23c0
 6683 2457 18        	.byte0x18
 6684 2458 07        	.uleb128 0x7
 6685 2459 0000 0000 	.long.LASF560
 6686 245d 2F        	.byte0x2f
 6687 245e F0        	.byte0xf0
 6688 245f 0000 23CB 	.long0x23cb
 6689 2463 1C        	.byte0x1c
 6690 2464 07        	.uleb128 0x7
 6691 2465 0000 0000 	.long.LASF561
 6692 2469 2F        	.byte0x2f
 6693 246a F1        	.byte0xf1
 6694 246b 0000 23F1 	.long0x23f1
 6695 246f 20        	.byte0x20
 6696 2470 00        	.byte0
 6697 2471 04        	.uleb128 0x4
 6698 2472 0000 0000 	.long.LASF562
 6699 2476 2F        	.byte0x2f
 6700 2477 F2        	.byte0xf2
 6701 2478 0000 23FC 	.long0x23fc
 6702 247c 04        	.uleb128 0x4
 6703 247d 0000 0000 	.long.LASF563
 6704 2481 30        	.byte0x30
 6705 2482 AB        	.byte0xab
 6706 2483 0000 2471 	.long0x2471
 6707 2487 03        	.uleb128 0x3
 6708 2488 0000 247C 	.long0x247c
 6709 248c 04        	.uleb128 0x4
 6710 248d 0000 0000 	.long.LASF564
 6711 2491 31        	.byte0x31
 6712 2492 64        	.byte0x64
 6713 2493 0000 2497 	.long0x2497
 6714 2497 0A        	.uleb128 0xa
 6715 2498 04        	.byte0x4
 6716 2499 0000 249D 	.long0x249d
 6717 249d 1E        	.uleb128 0x1e
 6718 249e 0000 24A8 	.long0x24a8
 6719 24a2 19        	.uleb128 0x19
 6720 24a3 0000 00AF 	.long0xaf
68K GAS   			page 142


 6721 24a7 00        	.byte0
 6722 24a8 04        	.uleb128 0x4
 6723 24a9 0000 0000 	.long.LASF565
 6724 24ad 31        	.byte0x31
 6725 24ae 6E        	.byte0x6e
 6726 24af 0000 24B3 	.long0x24b3
 6727 24b3 0A        	.uleb128 0xa
 6728 24b4 04        	.byte0x4
 6729 24b5 0000 24B9 	.long0x24b9
 6730 24b9 18        	.uleb128 0x18
 6731 24ba 0000 0450 	.long0x450
 6732 24be 0000 24C8 	.long0x24c8
 6733 24c2 19        	.uleb128 0x19
 6734 24c3 0000 00AF 	.long0xaf
 6735 24c7 00        	.byte0
 6736 24c8 04        	.uleb128 0x4
 6737 24c9 0000 0000 	.long.LASF566
 6738 24cd 31        	.byte0x31
 6739 24ce 75        	.byte0x75
 6740 24cf 0000 24D3 	.long0x24d3
 6741 24d3 0A        	.uleb128 0xa
 6742 24d4 04        	.byte0x4
 6743 24d5 0000 24D9 	.long0x24d9
 6744 24d9 1E        	.uleb128 0x1e
 6745 24da 0000 24E4 	.long0x24e4
 6746 24de 19        	.uleb128 0x19
 6747 24df 0000 0450 	.long0x450
 6748 24e3 00        	.byte0
 6749 24e4 12        	.uleb128 0x12
 6750 24e5 40        	.byte0x40
 6751 24e6 31        	.byte0x31
 6752 24e7 82        	.byte0x82
 6753 24e8 0000 25C5 	.long0x25c5
 6754 24ec 07        	.uleb128 0x7
 6755 24ed 0000 0000 	.long.LASF567
 6756 24f1 31        	.byte0x31
 6757 24f2 86        	.byte0x86
 6758 24f3 0000 0BF1 	.long0xbf1
 6759 24f7 00        	.byte0
 6760 24f8 07        	.uleb128 0x7
 6761 24f9 0000 0000 	.long.LASF568
 6762 24fd 31        	.byte0x31
 6763 24fe 8B        	.byte0x8b
 6764 24ff 0000 0BF1 	.long0xbf1
 6765 2503 04        	.byte0x4
 6766 2504 07        	.uleb128 0x7
 6767 2505 0000 0000 	.long.LASF569
 6768 2509 31        	.byte0x31
 6769 250a 91        	.byte0x91
 6770 250b 0000 0BD6 	.long0xbd6
 6771 250f 08        	.byte0x8
 6772 2510 07        	.uleb128 0x7
 6773 2511 0000 0000 	.long.LASF570
 6774 2515 31        	.byte0x31
 6775 2516 97        	.byte0x97
 6776 2517 0000 0BD6 	.long0xbd6
 6777 251b 0C        	.byte0xc
68K GAS   			page 143


 6778 251c 07        	.uleb128 0x7
 6779 251d 0000 0000 	.long.LASF571
 6780 2521 31        	.byte0x31
 6781 2522 A1        	.byte0xa1
 6782 2523 0000 0BD6 	.long0xbd6
 6783 2527 10        	.byte0x10
 6784 2528 07        	.uleb128 0x7
 6785 2529 0000 0000 	.long.LASF572
 6786 252d 31        	.byte0x31
 6787 252e A7        	.byte0xa7
 6788 252f 0000 0BD6 	.long0xbd6
 6789 2533 14        	.byte0x14
 6790 2534 07        	.uleb128 0x7
 6791 2535 0000 0000 	.long.LASF573
 6792 2539 31        	.byte0x31
 6793 253a AC        	.byte0xac
 6794 253b 0000 0BD6 	.long0xbd6
 6795 253f 18        	.byte0x18
 6796 2540 07        	.uleb128 0x7
 6797 2541 0000 0000 	.long.LASF574
 6798 2545 31        	.byte0x31
 6799 2546 B2        	.byte0xb2
 6800 2547 0000 1976 	.long0x1976
 6801 254b 1C        	.byte0x1c
 6802 254c 07        	.uleb128 0x7
 6803 254d 0000 0000 	.long.LASF575
 6804 2551 31        	.byte0x31
 6805 2552 B9        	.byte0xb9
 6806 2553 0000 0BD6 	.long0xbd6
 6807 2557 20        	.byte0x20
 6808 2558 07        	.uleb128 0x7
 6809 2559 0000 0000 	.long.LASF576
 6810 255d 31        	.byte0x31
 6811 255e C0        	.byte0xc0
 6812 255f 0000 0BD6 	.long0xbd6
 6813 2563 24        	.byte0x24
 6814 2564 07        	.uleb128 0x7
 6815 2565 0000 0000 	.long.LASF577
 6816 2569 31        	.byte0x31
 6817 256a C5        	.byte0xc5
 6818 256b 0000 248C 	.long0x248c
 6819 256f 28        	.byte0x28
 6820 2570 07        	.uleb128 0x7
 6821 2571 0000 0000 	.long.LASF578
 6822 2575 31        	.byte0x31
 6823 2576 CA        	.byte0xca
 6824 2577 0000 24A8 	.long0x24a8
 6825 257b 2C        	.byte0x2c
 6826 257c 07        	.uleb128 0x7
 6827 257d 0000 0000 	.long.LASF579
 6828 2581 31        	.byte0x31
 6829 2582 CF        	.byte0xcf
 6830 2583 0000 24C8 	.long0x24c8
 6831 2587 30        	.byte0x30
 6832 2588 07        	.uleb128 0x7
 6833 2589 0000 0000 	.long.LASF580
 6834 258d 31        	.byte0x31
68K GAS   			page 144


 6835 258e D7        	.byte0xd7
 6836 258f 0000 118F 	.long0x118f
 6837 2593 34        	.byte0x34
 6838 2594 07        	.uleb128 0x7
 6839 2595 0000 0000 	.long.LASF581
 6840 2599 31        	.byte0x31
 6841 259a DF        	.byte0xdf
 6842 259b 0000 118F 	.long0x118f
 6843 259f 35        	.byte0x35
 6844 25a0 07        	.uleb128 0x7
 6845 25a1 0000 0000 	.long.LASF582
 6846 25a5 31        	.byte0x31
 6847 25a6 E8        	.byte0xe8
 6848 25a7 0000 118F 	.long0x118f
 6849 25ab 36        	.byte0x36
 6850 25ac 07        	.uleb128 0x7
 6851 25ad 0000 0000 	.long.LASF583
 6852 25b1 31        	.byte0x31
 6853 25b2 EE        	.byte0xee
 6854 25b3 0000 0BD6 	.long0xbd6
 6855 25b7 38        	.byte0x38
 6856 25b8 07        	.uleb128 0x7
 6857 25b9 0000 0000 	.long.LASF584
 6858 25bd 31        	.byte0x31
 6859 25be EF        	.byte0xef
 6860 25bf 0000 25C5 	.long0x25c5
 6861 25c3 3C        	.byte0x3c
 6862 25c4 00        	.byte0
 6863 25c5 0A        	.uleb128 0xa
 6864 25c6 04        	.byte0x4
 6865 25c7 0000 2487 	.long0x2487
 6866 25cb 04        	.uleb128 0x4
 6867 25cc 0000 0000 	.long.LASF585
 6868 25d0 31        	.byte0x31
 6869 25d1 F6        	.byte0xf6
 6870 25d2 0000 24E4 	.long0x24e4
 6871 25d6 03        	.uleb128 0x3
 6872 25d7 0000 25CB 	.long0x25cb
 6873 25db 22        	.uleb128 0x22
 6874 25dc 0000 0000 	.long.LASF586
 6875 25e0 31        	.byte0x31
 6876 25e1 FB        	.byte0xfb
 6877 25e2 0000 25D6 	.long0x25d6
 6878 25e6 04        	.uleb128 0x4
 6879 25e7 0000 0000 	.long.LASF587
 6880 25eb 32        	.byte0x32
 6881 25ec 2E        	.byte0x2e
 6882 25ed 0000 0BD6 	.long0xbd6
 6883 25f1 04        	.uleb128 0x4
 6884 25f2 0000 0000 	.long.LASF588
 6885 25f6 32        	.byte0x32
 6886 25f7 43        	.byte0x43
 6887 25f8 0000 25FC 	.long0x25fc
 6888 25fc 0A        	.uleb128 0xa
 6889 25fd 04        	.byte0x4
 6890 25fe 0000 2602 	.long0x2602
 6891 2602 1E        	.uleb128 0x1e
68K GAS   			page 145


 6892 2603 0000 260D 	.long0x260d
 6893 2607 19        	.uleb128 0x19
 6894 2608 0000 25E6 	.long0x25e6
 6895 260c 00        	.byte0
 6896 260d 10        	.uleb128 0x10
 6897 260e 0000 25F1 	.long0x25f1
 6898 2612 0000 261D 	.long0x261d
 6899 2616 11        	.uleb128 0x11
 6900 2617 0000 006E 	.long0x6e
 6901 261b FF        	.byte0xff
 6902 261c 00        	.byte0
 6903 261d 22        	.uleb128 0x22
 6904 261e 0000 0000 	.long.LASF589
 6905 2622 32        	.byte0x32
 6906 2623 4C        	.byte0x4c
 6907 2624 0000 260D 	.long0x260d
 6908 2628 04        	.uleb128 0x4
 6909 2629 0000 0000 	.long.LASF590
 6910 262d 33        	.byte0x33
 6911 262e 26        	.byte0x26
 6912 262f 0000 2633 	.long0x2633
 6913 2633 18        	.uleb128 0x18
 6914 2634 0000 0BD6 	.long0xbd6
 6915 2638 0000 2642 	.long0x2642
 6916 263c 19        	.uleb128 0x19
 6917 263d 0000 2642 	.long0x2642
 6918 2641 00        	.byte0
 6919 2642 0A        	.uleb128 0xa
 6920 2643 04        	.byte0x4
 6921 2644 0000 2648 	.long0x2648
 6922 2648 06        	.uleb128 0x6
 6923 2649 0000 0000 	.long.LASF591
 6924 264d 28        	.byte0x28
 6925 264e 33        	.byte0x33
 6926 264f 2E        	.byte0x2e
 6927 2650 0000 26C1 	.long0x26c1
 6928 2654 07        	.uleb128 0x7
 6929 2655 0000 0000 	.long.LASF592
 6930 2659 33        	.byte0x33
 6931 265a 2F        	.byte0x2f
 6932 265b 0000 26D7 	.long0x26d7
 6933 265f 00        	.byte0
 6934 2660 07        	.uleb128 0x7
 6935 2661 0000 0000 	.long.LASF593
 6936 2665 33        	.byte0x33
 6937 2666 35        	.byte0x35
 6938 2667 0000 26DD 	.long0x26dd
 6939 266b 04        	.byte0x4
 6940 266c 07        	.uleb128 0x7
 6941 266d 0000 0000 	.long.LASF594
 6942 2671 33        	.byte0x33
 6943 2672 3C        	.byte0x3c
 6944 2673 0000 0BD6 	.long0xbd6
 6945 2677 08        	.byte0x8
 6946 2678 07        	.uleb128 0x7
 6947 2679 0000 0000 	.long.LASF595
 6948 267d 33        	.byte0x33
68K GAS   			page 146


 6949 267e 3E        	.byte0x3e
 6950 267f 0000 0BE6 	.long0xbe6
 6951 2683 0C        	.byte0xc
 6952 2684 07        	.uleb128 0x7
 6953 2685 0000 0000 	.long.LASF596
 6954 2689 33        	.byte0x33
 6955 268a 40        	.byte0x40
 6956 268b 0000 033B 	.long0x33b
 6957 268f 14        	.byte0x14
 6958 2690 07        	.uleb128 0x7
 6959 2691 0000 0000 	.long.LASF597
 6960 2695 33        	.byte0x33
 6961 2696 42        	.byte0x42
 6962 2697 0000 0113 	.long0x113
 6963 269b 18        	.byte0x18
 6964 269c 07        	.uleb128 0x7
 6965 269d 0000 0000 	.long.LASF598
 6966 26a1 33        	.byte0x33
 6967 26a2 48        	.byte0x48
 6968 26a3 0000 0C31 	.long0xc31
 6969 26a7 1C        	.byte0x1c
 6970 26a8 07        	.uleb128 0x7
 6971 26a9 0000 0000 	.long.LASF599
 6972 26ad 33        	.byte0x33
 6973 26ae 4F        	.byte0x4f
 6974 26af 0000 0450 	.long0x450
 6975 26b3 20        	.byte0x20
 6976 26b4 07        	.uleb128 0x7
 6977 26b5 0000 0000 	.long.LASF600
 6978 26b9 33        	.byte0x33
 6979 26ba 51        	.byte0x51
 6980 26bb 0000 2642 	.long0x2642
 6981 26bf 24        	.byte0x24
 6982 26c0 00        	.byte0
 6983 26c1 04        	.uleb128 0x4
 6984 26c2 0000 0000 	.long.LASF601
 6985 26c6 33        	.byte0x33
 6986 26c7 28        	.byte0x28
 6987 26c8 0000 26CC 	.long0x26cc
 6988 26cc 1E        	.uleb128 0x1e
 6989 26cd 0000 26D7 	.long0x26d7
 6990 26d1 19        	.uleb128 0x19
 6991 26d2 0000 2642 	.long0x2642
 6992 26d6 00        	.byte0
 6993 26d7 0A        	.uleb128 0xa
 6994 26d8 04        	.byte0x4
 6995 26d9 0000 2628 	.long0x2628
 6996 26dd 0A        	.uleb128 0xa
 6997 26de 04        	.byte0x4
 6998 26df 0000 26C1 	.long0x26c1
 6999 26e3 22        	.uleb128 0x22
 7000 26e4 0000 0000 	.long.LASF591
 7001 26e8 33        	.byte0x33
 7002 26e9 59        	.byte0x59
 7003 26ea 0000 2642 	.long0x2642
 7004 26ee 22        	.uleb128 0x22
 7005 26ef 0000 0000 	.long.LASF602
68K GAS   			page 147


 7006 26f3 33        	.byte0x33
 7007 26f4 5A        	.byte0x5a
 7008 26f5 0000 0113 	.long0x113
 7009 26f9 22        	.uleb128 0x22
 7010 26fa 0000 0000 	.long.LASF603
 7011 26fe 34        	.byte0x34
 7012 26ff 23        	.byte0x23
 7013 2700 0000 0C07 	.long0xc07
 7014 2704 22        	.uleb128 0x22
 7015 2705 0000 0000 	.long.LASF604
 7016 2709 34        	.byte0x34
 7017 270a 24        	.byte0x24
 7018 270b 0000 0BD1 	.long0xbd1
 7019 270f 22        	.uleb128 0x22
 7020 2710 0000 0000 	.long.LASF605
 7021 2714 34        	.byte0x34
 7022 2715 25        	.byte0x25
 7023 2716 0000 1917 	.long0x1917
 7024 271a 22        	.uleb128 0x22
 7025 271b 0000 0000 	.long.LASF606
 7026 271f 35        	.byte0x35
 7027 2720 EC        	.byte0xec
 7028 2721 0000 2642 	.long0x2642
 7029 2725 04        	.uleb128 0x4
 7030 2726 0000 0000 	.long.LASF607
 7031 272a 36        	.byte0x36
 7032 272b 24        	.byte0x24
 7033 272c 0000 0BD6 	.long0xbd6
 7034 2730 04        	.uleb128 0x4
 7035 2731 0000 0000 	.long.LASF608
 7036 2735 36        	.byte0x36
 7037 2736 26        	.byte0x26
 7038 2737 0000 0BD6 	.long0xbd6
 7039 273b 04        	.uleb128 0x4
 7040 273c 0000 0000 	.long.LASF609
 7041 2740 36        	.byte0x36
 7042 2741 28        	.byte0x28
 7043 2742 0000 116E 	.long0x116e
 7044 2746 04        	.uleb128 0x4
 7045 2747 0000 0000 	.long.LASF610
 7046 274b 36        	.byte0x36
 7047 274c 2A        	.byte0x2a
 7048 274d 0000 2751 	.long0x2751
 7049 2751 0A        	.uleb128 0xa
 7050 2752 04        	.byte0x4
 7051 2753 0000 2757 	.long0x2757
 7052 2757 18        	.uleb128 0x18
 7053 2758 0000 273B 	.long0x273b
 7054 275c 0000 2770 	.long0x2770
 7055 2760 19        	.uleb128 0x19
 7056 2761 0000 2725 	.long0x2725
 7057 2765 19        	.uleb128 0x19
 7058 2766 0000 2730 	.long0x2730
 7059 276a 19        	.uleb128 0x19
 7060 276b 0000 0450 	.long0x450
 7061 276f 00        	.byte0
 7062 2770 12        	.uleb128 0x12
68K GAS   			page 148


 7063 2771 18        	.byte0x18
 7064 2772 36        	.byte0x36
 7065 2773 30        	.byte0x30
 7066 2774 0000 27C1 	.long0x27c1
 7067 2778 07        	.uleb128 0x7
 7068 2779 0000 0000 	.long.LASF611
 7069 277d 36        	.byte0x36
 7070 277e 31        	.byte0x31
 7071 277f 0000 2746 	.long0x2746
 7072 2783 00        	.byte0
 7073 2784 07        	.uleb128 0x7
 7074 2785 0000 0000 	.long.LASF612
 7075 2789 36        	.byte0x36
 7076 278a 32        	.byte0x32
 7077 278b 0000 2746 	.long0x2746
 7078 278f 04        	.byte0x4
 7079 2790 07        	.uleb128 0x7
 7080 2791 0000 0000 	.long.LASF613
 7081 2795 36        	.byte0x36
 7082 2796 33        	.byte0x33
 7083 2797 0000 2746 	.long0x2746
 7084 279b 08        	.byte0x8
 7085 279c 07        	.uleb128 0x7
 7086 279d 0000 0000 	.long.LASF614
 7087 27a1 36        	.byte0x36
 7088 27a2 34        	.byte0x34
 7089 27a3 0000 2746 	.long0x2746
 7090 27a7 0C        	.byte0xc
 7091 27a8 07        	.uleb128 0x7
 7092 27a9 0000 0000 	.long.LASF615
 7093 27ad 36        	.byte0x36
 7094 27ae 35        	.byte0x35
 7095 27af 0000 2746 	.long0x2746
 7096 27b3 10        	.byte0x10
 7097 27b4 07        	.uleb128 0x7
 7098 27b5 0000 0000 	.long.LASF616
 7099 27b9 36        	.byte0x36
 7100 27ba 36        	.byte0x36
 7101 27bb 0000 2746 	.long0x2746
 7102 27bf 14        	.byte0x14
 7103 27c0 00        	.byte0
 7104 27c1 04        	.uleb128 0x4
 7105 27c2 0000 0000 	.long.LASF617
 7106 27c6 36        	.byte0x36
 7107 27c7 37        	.byte0x37
 7108 27c8 0000 2770 	.long0x2770
 7109 27cc 03        	.uleb128 0x3
 7110 27cd 0000 27C1 	.long0x27c1
 7111 27d1 04        	.uleb128 0x4
 7112 27d2 0000 0000 	.long.LASF618
 7113 27d6 37        	.byte0x37
 7114 27d7 27        	.byte0x27
 7115 27d8 0000 006E 	.long0x6e
 7116 27dc 06        	.uleb128 0x6
 7117 27dd 0000 0000 	.long.LASF619
 7118 27e1 08        	.byte0x8
 7119 27e2 38        	.byte0x38
68K GAS   			page 149


 7120 27e3 2B        	.byte0x2b
 7121 27e4 0000 2801 	.long0x2801
 7122 27e8 07        	.uleb128 0x7
 7123 27e9 0000 0000 	.long.LASF620
 7124 27ed 38        	.byte0x38
 7125 27ee 2C        	.byte0x2c
 7126 27ef 0000 0450 	.long0x450
 7127 27f3 00        	.byte0
 7128 27f4 07        	.uleb128 0x7
 7129 27f5 0000 0000 	.long.LASF621
 7130 27f9 38        	.byte0x38
 7131 27fa 2D        	.byte0x2d
 7132 27fb 0000 00AF 	.long0xaf
 7133 27ff 04        	.byte0x4
 7134 2800 00        	.byte0
 7135 2801 03        	.uleb128 0x3
 7136 2802 0000 27DC 	.long0x27dc
 7137 2806 04        	.uleb128 0x4
 7138 2807 0000 0000 	.long.LASF622
 7139 280b 39        	.byte0x39
 7140 280c 25        	.byte0x25
 7141 280d 0000 11C1 	.long0x11c1
 7142 2811 04        	.uleb128 0x4
 7143 2812 0000 0000 	.long.LASF623
 7144 2816 39        	.byte0x39
 7145 2817 27        	.byte0x27
 7146 2818 0000 1258 	.long0x1258
 7147 281c 04        	.uleb128 0x4
 7148 281d 0000 0000 	.long.LASF624
 7149 2821 3A        	.byte0x3a
 7150 2822 25        	.byte0x25
 7151 2823 0000 2827 	.long0x2827
 7152 2827 08        	.uleb128 0x8
 7153 2828 0000 0000 	.long.LASF625
 7154 282c 2C        	.byte0x2c
 7155 282d 3B        	.byte0x3b
 7156 282e 0528      	.word0x528
 7157 2830 0000 2876 	.long0x2876
 7158 2834 09        	.uleb128 0x9
 7159 2835 0000 0000 	.long.LASF626
 7160 2839 3B        	.byte0x3b
 7161 283a 0529      	.word0x529
 7162 283c 0000 0C73 	.long0xc73
 7163 2840 00        	.byte0
 7164 2841 09        	.uleb128 0x9
 7165 2842 0000 0000 	.long.LASF435
 7166 2846 3B        	.byte0x3b
 7167 2847 052A      	.word0x52a
 7168 2849 0000 1196 	.long0x1196
 7169 284d 08        	.byte0x8
 7170 284e 09        	.uleb128 0x9
 7171 284f 0000 0000 	.long.LASF627
 7172 2853 3B        	.byte0x3b
 7173 2854 052B      	.word0x52b
 7174 2856 0000 2BA2 	.long0x2ba2
 7175 285a 0C        	.byte0xc
 7176 285b 09        	.uleb128 0x9
68K GAS   			page 150


 7177 285c 0000 0000 	.long.LASF628
 7178 2860 3B        	.byte0x3b
 7179 2861 052C      	.word0x52c
 7180 2863 0000 0BD6 	.long0xbd6
 7181 2867 24        	.byte0x24
 7182 2868 09        	.uleb128 0x9
 7183 2869 0000 0000 	.long.LASF629
 7184 286d 3B        	.byte0x3b
 7185 286e 052D      	.word0x52d
 7186 2870 0000 0450 	.long0x450
 7187 2874 28        	.byte0x28
 7188 2875 00        	.byte0
 7189 2876 04        	.uleb128 0x4
 7190 2877 0000 0000 	.long.LASF630
 7191 287b 3A        	.byte0x3a
 7192 287c 29        	.byte0x29
 7193 287d 0000 2886 	.long0x2886
 7194 2881 03        	.uleb128 0x3
 7195 2882 0000 2876 	.long0x2876
 7196 2886 08        	.uleb128 0x8
 7197 2887 0000 0000 	.long.LASF631
 7198 288b 40        	.byte0x40
 7199 288c 3B        	.byte0x3b
 7200 288d 0646      	.word0x646
 7201 288f 0000 294A 	.long0x294a
 7202 2893 09        	.uleb128 0x9
 7203 2894 0000 0000 	.long.LASF632
 7204 2898 3B        	.byte0x3b
 7205 2899 0647      	.word0x647
 7206 289b 0000 2806 	.long0x2806
 7207 289f 00        	.byte0
 7208 28a0 09        	.uleb128 0x9
 7209 28a1 0000 0000 	.long.LASF633
 7210 28a5 3B        	.byte0x3b
 7211 28a6 0648      	.word0x648
 7212 28a8 0000 0450 	.long0x450
 7213 28ac 08        	.byte0x8
 7214 28ad 2B        	.uleb128 0x2b
 7215 28ae 6F70 7300 	.string"ops"
 7216 28b2 3B        	.byte0x3b
 7217 28b3 0649      	.word0x649
 7218 28b5 0000 329B 	.long0x329b
 7219 28b9 0C        	.byte0xc
 7220 28ba 09        	.uleb128 0x9
 7221 28bb 0000 0000 	.long.LASF634
 7222 28bf 3B        	.byte0x3b
 7223 28c0 064A      	.word0x64a
 7224 28c2 0000 0D09 	.long0xd09
 7225 28c6 10        	.byte0x10
 7226 28c7 09        	.uleb128 0x9
 7227 28c8 0000 0000 	.long.LASF635
 7228 28cc 3B        	.byte0x3b
 7229 28cd 064B      	.word0x64b
 7230 28cf 0000 2811 	.long0x2811
 7231 28d3 14        	.byte0x14
 7232 28d4 09        	.uleb128 0x9
 7233 28d5 0000 0000 	.long.LASF636
68K GAS   			page 151


 7234 28d9 3B        	.byte0x3b
 7235 28da 064C      	.word0x64c
 7236 28dc 0000 2CA2 	.long0x2ca2
 7237 28e0 20        	.byte0x20
 7238 28e1 09        	.uleb128 0x9
 7239 28e2 0000 0000 	.long.LASF637
 7240 28e6 3B        	.byte0x3b
 7241 28e7 064D      	.word0x64d
 7242 28e9 0000 2CA2 	.long0x2ca2
 7243 28ed 24        	.byte0x24
 7244 28ee 09        	.uleb128 0x9
 7245 28ef 0000 0000 	.long.LASF638
 7246 28f3 3B        	.byte0x3b
 7247 28f4 064E      	.word0x64e
 7248 28f6 0000 118F 	.long0x118f
 7249 28fa 28        	.byte0x28
 7250 28fb 09        	.uleb128 0x9
 7251 28fc 0000 0000 	.long.LASF639
 7252 2900 3B        	.byte0x3b
 7253 2901 064F      	.word0x64f
 7254 2903 0000 118F 	.long0x118f
 7255 2907 29        	.byte0x29
 7256 2908 09        	.uleb128 0x9
 7257 2909 0000 0000 	.long.LASF640
 7258 290d 3B        	.byte0x3b
 7259 290e 0650      	.word0x650
 7260 2910 0000 32A1 	.long0x32a1
 7261 2914 2C        	.byte0x2c
 7262 2915 09        	.uleb128 0x9
 7263 2916 0000 0000 	.long.LASF641
 7264 291a 3B        	.byte0x3b
 7265 291b 0655      	.word0x655
 7266 291d 0000 033B 	.long0x33b
 7267 2921 30        	.byte0x30
 7268 2922 09        	.uleb128 0x9
 7269 2923 0000 0000 	.long.LASF339
 7270 2927 3B        	.byte0x3b
 7271 2928 065A      	.word0x65a
 7272 292a 0000 033B 	.long0x33b
 7273 292e 34        	.byte0x34
 7274 292f 2B        	.uleb128 0x2b
 7275 2930 6465 7600 	.string"dev"
 7276 2934 3B        	.byte0x3b
 7277 2935 0663      	.word0x663
 7278 2937 0000 087B 	.long0x87b
 7279 293b 38        	.byte0x38
 7280 293c 09        	.uleb128 0x9
 7281 293d 0000 0000 	.long.LASF642
 7282 2941 3B        	.byte0x3b
 7283 2942 066B      	.word0x66b
 7284 2944 0000 1E89 	.long0x1e89
 7285 2948 3C        	.byte0x3c
 7286 2949 00        	.byte0
 7287 294a 04        	.uleb128 0x4
 7288 294b 0000 0000 	.long.LASF643
 7289 294f 3A        	.byte0x3a
 7290 2950 2C        	.byte0x2c
68K GAS   			page 152


 7291 2951 0000 295A 	.long0x295a
 7292 2955 03        	.uleb128 0x3
 7293 2956 0000 294A 	.long0x294a
 7294 295a 08        	.uleb128 0x8
 7295 295b 0000 0000 	.long.LASF644
 7296 295f 40        	.byte0x40
 7297 2960 3B        	.byte0x3b
 7298 2961 03ED      	.word0x3ed
 7299 2963 0000 2A38 	.long0x2a38
 7300 2967 09        	.uleb128 0x9
 7301 2968 0000 0000 	.long.LASF645
 7302 296c 3B        	.byte0x3b
 7303 296d 03EE      	.word0x3ee
 7304 296f 0000 2F7F 	.long0x2f7f
 7305 2973 00        	.byte0
 7306 2974 09        	.uleb128 0x9
 7307 2975 0000 0000 	.long.LASF646
 7308 2979 3B        	.byte0x3b
 7309 297a 03EF      	.word0x3ef
 7310 297c 0000 2FB5 	.long0x2fb5
 7311 2980 04        	.byte0x4
 7312 2981 09        	.uleb128 0x9
 7313 2982 0000 0000 	.long.LASF647
 7314 2986 3B        	.byte0x3b
 7315 2987 03F0      	.word0x3f0
 7316 2989 0000 2FD6 	.long0x2fd6
 7317 298d 08        	.byte0x8
 7318 298e 09        	.uleb128 0x9
 7319 298f 0000 0000 	.long.LASF648
 7320 2993 3B        	.byte0x3b
 7321 2994 03F1      	.word0x3f1
 7322 2996 0000 3037 	.long0x3037
 7323 299a 0C        	.byte0xc
 7324 299b 09        	.uleb128 0x9
 7325 299c 0000 0000 	.long.LASF649
 7326 29a0 3B        	.byte0x3b
 7327 29a1 03F2      	.word0x3f2
 7328 29a3 0000 306E 	.long0x306e
 7329 29a7 10        	.byte0x10
 7330 29a8 09        	.uleb128 0x9
 7331 29a9 0000 0000 	.long.LASF650
 7332 29ad 3B        	.byte0x3b
 7333 29ae 03F3      	.word0x3f3
 7334 29b0 0000 3099 	.long0x3099
 7335 29b4 14        	.byte0x14
 7336 29b5 09        	.uleb128 0x9
 7337 29b6 0000 0000 	.long.LASF651
 7338 29ba 3B        	.byte0x3b
 7339 29bb 03F4      	.word0x3f4
 7340 29bd 0000 30C4 	.long0x30c4
 7341 29c1 18        	.byte0x18
 7342 29c2 09        	.uleb128 0x9
 7343 29c3 0000 0000 	.long.LASF652
 7344 29c7 3B        	.byte0x3b
 7345 29c8 03F5      	.word0x3f5
 7346 29ca 0000 30F0 	.long0x30f0
 7347 29ce 1C        	.byte0x1c
68K GAS   			page 153


 7348 29cf 09        	.uleb128 0x9
 7349 29d0 0000 0000 	.long.LASF653
 7350 29d4 3B        	.byte0x3b
 7351 29d5 03F6      	.word0x3f6
 7352 29d7 0000 3116 	.long0x3116
 7353 29db 20        	.byte0x20
 7354 29dc 09        	.uleb128 0x9
 7355 29dd 0000 0000 	.long.LASF654
 7356 29e1 3B        	.byte0x3b
 7357 29e2 03F7      	.word0x3f7
 7358 29e4 0000 3122 	.long0x3122
 7359 29e8 24        	.byte0x24
 7360 29e9 09        	.uleb128 0x9
 7361 29ea 0000 0000 	.long.LASF655
 7362 29ee 3B        	.byte0x3b
 7363 29ef 03F8      	.word0x3f8
 7364 29f1 0000 312E 	.long0x312e
 7365 29f5 28        	.byte0x28
 7366 29f6 09        	.uleb128 0x9
 7367 29f7 0000 0000 	.long.LASF656
 7368 29fb 3B        	.byte0x3b
 7369 29fc 03F9      	.word0x3f9
 7370 29fe 0000 3154 	.long0x3154
 7371 2a02 2C        	.byte0x2c
 7372 2a03 09        	.uleb128 0x9
 7373 2a04 0000 0000 	.long.LASF657
 7374 2a08 3B        	.byte0x3b
 7375 2a09 03FA      	.word0x3fa
 7376 2a0b 0000 3160 	.long0x3160
 7377 2a0f 30        	.byte0x30
 7378 2a10 09        	.uleb128 0x9
 7379 2a11 0000 0000 	.long.LASF658
 7380 2a15 3B        	.byte0x3b
 7381 2a16 03FB      	.word0x3fb
 7382 2a18 0000 3001 	.long0x3001
 7383 2a1c 34        	.byte0x34
 7384 2a1d 09        	.uleb128 0x9
 7385 2a1e 0000 0000 	.long.LASF659
 7386 2a22 3B        	.byte0x3b
 7387 2a23 03FC      	.word0x3fc
 7388 2a25 0000 3062 	.long0x3062
 7389 2a29 38        	.byte0x38
 7390 2a2a 09        	.uleb128 0x9
 7391 2a2b 0000 0000 	.long.LASF660
 7392 2a2f 3B        	.byte0x3b
 7393 2a30 03FD      	.word0x3fd
 7394 2a32 0000 3191 	.long0x3191
 7395 2a36 3C        	.byte0x3c
 7396 2a37 00        	.byte0
 7397 2a38 04        	.uleb128 0x4
 7398 2a39 0000 0000 	.long.LASF661
 7399 2a3d 3A        	.byte0x3a
 7400 2a3e 2E        	.byte0x2e
 7401 2a3f 0000 2A48 	.long0x2a48
 7402 2a43 03        	.uleb128 0x3
 7403 2a44 0000 2A38 	.long0x2a38
 7404 2a48 08        	.uleb128 0x8
68K GAS   			page 154


 7405 2a49 0000 0000 	.long.LASF662
 7406 2a4d 4C        	.byte0x4c
 7407 2a4e 3B        	.byte0x3b
 7408 2a4f 01D8      	.word0x1d8
 7409 2a51 0000 2B4D 	.long0x2b4d
 7410 2a55 09        	.uleb128 0x9
 7411 2a56 0000 0000 	.long.LASF663
 7412 2a5a 3B        	.byte0x3b
 7413 2a5b 01D9      	.word0x1d9
 7414 2a5d 0000 2C00 	.long0x2c00
 7415 2a61 00        	.byte0
 7416 2a62 09        	.uleb128 0x9
 7417 2a63 0000 0000 	.long.LASF664
 7418 2a67 3B        	.byte0x3b
 7419 2a68 01DA      	.word0x1da
 7420 2a6a 0000 2C22 	.long0x2c22
 7421 2a6e 04        	.byte0x4
 7422 2a6f 09        	.uleb128 0x9
 7423 2a70 0000 0000 	.long.LASF665
 7424 2a74 3B        	.byte0x3b
 7425 2a75 01DB      	.word0x1db
 7426 2a77 0000 2CB3 	.long0x2cb3
 7427 2a7b 08        	.byte0x8
 7428 2a7c 09        	.uleb128 0x9
 7429 2a7d 0000 0000 	.long.LASF666
 7430 2a81 3B        	.byte0x3b
 7431 2a82 01DC      	.word0x1dc
 7432 2a84 0000 2CD5 	.long0x2cd5
 7433 2a88 0C        	.byte0xc
 7434 2a89 09        	.uleb128 0x9
 7435 2a8a 0000 0000 	.long.LASF667
 7436 2a8e 3B        	.byte0x3b
 7437 2a8f 01DD      	.word0x1dd
 7438 2a91 0000 2E0B 	.long0x2e0b
 7439 2a95 10        	.byte0x10
 7440 2a96 09        	.uleb128 0x9
 7441 2a97 0000 0000 	.long.LASF668
 7442 2a9b 3B        	.byte0x3b
 7443 2a9c 01DE      	.word0x1de
 7444 2a9e 0000 2E31 	.long0x2e31
 7445 2aa2 14        	.byte0x14
 7446 2aa3 09        	.uleb128 0x9
 7447 2aa4 0000 0000 	.long.LASF669
 7448 2aa8 3B        	.byte0x3b
 7449 2aa9 01DF      	.word0x1df
 7450 2aab 0000 2E66 	.long0x2e66
 7451 2aaf 18        	.byte0x18
 7452 2ab0 09        	.uleb128 0x9
 7453 2ab1 0000 0000 	.long.LASF670
 7454 2ab5 3B        	.byte0x3b
 7455 2ab6 01E0      	.word0x1e0
 7456 2ab8 0000 2D0A 	.long0x2d0a
 7457 2abc 1C        	.byte0x1c
 7458 2abd 09        	.uleb128 0x9
 7459 2abe 0000 0000 	.long.LASF671
 7460 2ac2 3B        	.byte0x3b
 7461 2ac3 01E1      	.word0x1e1
68K GAS   			page 155


 7462 2ac5 0000 2D2F 	.long0x2d2f
 7463 2ac9 20        	.byte0x20
 7464 2aca 09        	.uleb128 0x9
 7465 2acb 0000 0000 	.long.LASF672
 7466 2acf 3B        	.byte0x3b
 7467 2ad0 01E2      	.word0x1e2
 7468 2ad2 0000 2D59 	.long0x2d59
 7469 2ad6 24        	.byte0x24
 7470 2ad7 09        	.uleb128 0x9
 7471 2ad8 0000 0000 	.long.LASF673
 7472 2adc 3B        	.byte0x3b
 7473 2add 01E3      	.word0x1e3
 7474 2adf 0000 2D7F 	.long0x2d7f
 7475 2ae3 28        	.byte0x28
 7476 2ae4 09        	.uleb128 0x9
 7477 2ae5 0000 0000 	.long.LASF674
 7478 2ae9 3B        	.byte0x3b
 7479 2aea 01E4      	.word0x1e4
 7480 2aec 0000 2D9B 	.long0x2d9b
 7481 2af0 2C        	.byte0x2c
 7482 2af1 09        	.uleb128 0x9
 7483 2af2 0000 0000 	.long.LASF675
 7484 2af6 3B        	.byte0x3b
 7485 2af7 01E5      	.word0x1e5
 7486 2af9 0000 2DE2 	.long0x2de2
 7487 2afd 30        	.byte0x30
 7488 2afe 09        	.uleb128 0x9
 7489 2aff 0000 0000 	.long.LASF676
 7490 2b03 3B        	.byte0x3b
 7491 2b04 01E6      	.word0x1e6
 7492 2b06 0000 2DEE 	.long0x2dee
 7493 2b0a 34        	.byte0x34
 7494 2b0b 09        	.uleb128 0x9
 7495 2b0c 0000 0000 	.long.LASF677
 7496 2b10 3B        	.byte0x3b
 7497 2b11 01E7      	.word0x1e7
 7498 2b13 0000 2E8C 	.long0x2e8c
 7499 2b17 38        	.byte0x38
 7500 2b18 09        	.uleb128 0x9
 7501 2b19 0000 0000 	.long.LASF678
 7502 2b1d 3B        	.byte0x3b
 7503 2b1e 01E8      	.word0x1e8
 7504 2b20 0000 2EB7 	.long0x2eb7
 7505 2b24 3C        	.byte0x3c
 7506 2b25 09        	.uleb128 0x9
 7507 2b26 0000 0000 	.long.LASF679
 7508 2b2a 3B        	.byte0x3b
 7509 2b2b 01E9      	.word0x1e9
 7510 2b2d 0000 2EE7 	.long0x2ee7
 7511 2b31 40        	.byte0x40
 7512 2b32 09        	.uleb128 0x9
 7513 2b33 0000 0000 	.long.LASF680
 7514 2b37 3B        	.byte0x3b
 7515 2b38 01EA      	.word0x1ea
 7516 2b3a 0000 2F12 	.long0x2f12
 7517 2b3e 44        	.byte0x44
 7518 2b3f 09        	.uleb128 0x9
68K GAS   			page 156


 7519 2b40 0000 0000 	.long.LASF681
 7520 2b44 3B        	.byte0x3b
 7521 2b45 01EB      	.word0x1eb
 7522 2b47 0000 2F47 	.long0x2f47
 7523 2b4b 48        	.byte0x48
 7524 2b4c 00        	.byte0
 7525 2b4d 06        	.uleb128 0x6
 7526 2b4e 0000 0000 	.long.LASF682
 7527 2b52 18        	.byte0x18
 7528 2b53 3A        	.byte0x3a
 7529 2b54 35        	.byte0x35
 7530 2b55 0000 2B96 	.long0x2b96
 7531 2b59 07        	.uleb128 0x7
 7532 2b5a 0000 0000 	.long.LASF683
 7533 2b5e 3A        	.byte0x3a
 7534 2b5f 36        	.byte0x36
 7535 2b60 0000 2806 	.long0x2806
 7536 2b64 00        	.byte0
 7537 2b65 07        	.uleb128 0x7
 7538 2b66 0000 0000 	.long.LASF684
 7539 2b6a 3A        	.byte0x3a
 7540 2b6b 37        	.byte0x37
 7541 2b6c 0000 0450 	.long0x450
 7542 2b70 08        	.byte0x8
 7543 2b71 07        	.uleb128 0x7
 7544 2b72 0000 0000 	.long.LASF685
 7545 2b76 3A        	.byte0x3a
 7546 2b77 38        	.byte0x38
 7547 2b78 0000 0450 	.long0x450
 7548 2b7c 0C        	.byte0xc
 7549 2b7d 07        	.uleb128 0x7
 7550 2b7e 0000 0000 	.long.LASF686
 7551 2b82 3A        	.byte0x3a
 7552 2b83 39        	.byte0x39
 7553 2b84 0000 2B96 	.long0x2b96
 7554 2b88 10        	.byte0x10
 7555 2b89 07        	.uleb128 0x7
 7556 2b8a 0000 0000 	.long.LASF687
 7557 2b8e 3A        	.byte0x3a
 7558 2b8f 3A        	.byte0x3a
 7559 2b90 0000 2B9C 	.long0x2b9c
 7560 2b94 14        	.byte0x14
 7561 2b95 00        	.byte0
 7562 2b96 0A        	.uleb128 0xa
 7563 2b97 04        	.byte0x4
 7564 2b98 0000 2955 	.long0x2955
 7565 2b9c 0A        	.uleb128 0xa
 7566 2b9d 04        	.byte0x4
 7567 2b9e 0000 2876 	.long0x2876
 7568 2ba2 04        	.uleb128 0x4
 7569 2ba3 0000 0000 	.long.LASF688
 7570 2ba7 3A        	.byte0x3a
 7571 2ba8 3B        	.byte0x3b
 7572 2ba9 0000 2B4D 	.long0x2b4d
 7573 2bad 03        	.uleb128 0x3
 7574 2bae 0000 2BA2 	.long0x2ba2
 7575 2bb2 06        	.uleb128 0x6
68K GAS   			page 157


 7576 2bb3 0000 0000 	.long.LASF689
 7577 2bb7 24        	.byte0x24
 7578 2bb8 3A        	.byte0x3a
 7579 2bb9 51        	.byte0x51
 7580 2bba 0000 2BEF 	.long0x2bef
 7581 2bbe 07        	.uleb128 0x7
 7582 2bbf 0000 0000 	.long.LASF690
 7583 2bc3 3A        	.byte0x3a
 7584 2bc4 52        	.byte0x52
 7585 2bc5 0000 2BA2 	.long0x2ba2
 7586 2bc9 00        	.byte0
 7587 2bca 07        	.uleb128 0x7
 7588 2bcb 0000 0000 	.long.LASF691
 7589 2bcf 3A        	.byte0x3a
 7590 2bd0 53        	.byte0x53
 7591 2bd1 0000 0113 	.long0x113
 7592 2bd5 18        	.byte0x18
 7593 2bd6 07        	.uleb128 0x7
 7594 2bd7 0000 0000 	.long.LASF692
 7595 2bdb 3A        	.byte0x3a
 7596 2bdc 5A        	.byte0x5a
 7597 2bdd 0000 2BEF 	.long0x2bef
 7598 2be1 1C        	.byte0x1c
 7599 2be2 07        	.uleb128 0x7
 7600 2be3 0000 0000 	.long.LASF693
 7601 2be7 3A        	.byte0x3a
 7602 2be8 60        	.byte0x60
 7603 2be9 0000 0113 	.long0x113
 7604 2bed 20        	.byte0x20
 7605 2bee 00        	.byte0
 7606 2bef 0A        	.uleb128 0xa
 7607 2bf0 04        	.byte0x4
 7608 2bf1 0000 2BB2 	.long0x2bb2
 7609 2bf5 04        	.uleb128 0x4
 7610 2bf6 0000 0000 	.long.LASF689
 7611 2bfa 3A        	.byte0x3a
 7612 2bfb 61        	.byte0x61
 7613 2bfc 0000 2BB2 	.long0x2bb2
 7614 2c00 04        	.uleb128 0x4
 7615 2c01 0000 0000 	.long.LASF694
 7616 2c05 3B        	.byte0x3b
 7617 2c06 42        	.byte0x42
 7618 2c07 0000 2C0B 	.long0x2c0b
 7619 2c0b 0A        	.uleb128 0xa
 7620 2c0c 04        	.byte0x4
 7621 2c0d 0000 2C11 	.long0x2c11
 7622 2c11 1E        	.uleb128 0x1e
 7623 2c12 0000 2C1C 	.long0x2c1c
 7624 2c16 19        	.uleb128 0x19
 7625 2c17 0000 2C1C 	.long0x2c1c
 7626 2c1b 00        	.byte0
 7627 2c1c 0A        	.uleb128 0xa
 7628 2c1d 04        	.byte0x4
 7629 2c1e 0000 2881 	.long0x2881
 7630 2c22 04        	.uleb128 0x4
 7631 2c23 0000 0000 	.long.LASF695
 7632 2c27 3B        	.byte0x3b
68K GAS   			page 158


 7633 2c28 4D        	.byte0x4d
 7634 2c29 0000 2C0B 	.long0x2c0b
 7635 2c2d 12        	.uleb128 0x12
 7636 2c2e 38        	.byte0x38
 7637 2c2f 3B        	.byte0x3b
 7638 2c30 54        	.byte0x54
 7639 2c31 0000 2CA2 	.long0x2ca2
 7640 2c35 07        	.uleb128 0x7
 7641 2c36 0000 0000 	.long.LASF696
 7642 2c3a 3B        	.byte0x3b
 7643 2c3b 58        	.byte0x58
 7644 2c3c 0000 033B 	.long0x33b
 7645 2c40 00        	.byte0
 7646 2c41 07        	.uleb128 0x7
 7647 2c42 0000 0000 	.long.LASF697
 7648 2c46 3B        	.byte0x3b
 7649 2c47 5D        	.byte0x5d
 7650 2c48 0000 00AF 	.long0xaf
 7651 2c4c 04        	.byte0x4
 7652 2c4d 07        	.uleb128 0x7
 7653 2c4e 0000 0000 	.long.LASF698
 7654 2c52 3B        	.byte0x3b
 7655 2c53 63        	.byte0x63
 7656 2c54 0000 033B 	.long0x33b
 7657 2c58 08        	.byte0x8
 7658 2c59 07        	.uleb128 0x7
 7659 2c5a 0000 0000 	.long.LASF699
 7660 2c5e 3B        	.byte0x3b
 7661 2c5f 69        	.byte0x69
 7662 2c60 0000 00AF 	.long0xaf
 7663 2c64 0C        	.byte0xc
 7664 2c65 07        	.uleb128 0x7
 7665 2c66 0000 0000 	.long.LASF435
 7666 2c6a 3B        	.byte0x3b
 7667 2c6b 77        	.byte0x77
 7668 2c6c 0000 0113 	.long0x113
 7669 2c70 10        	.byte0x10
 7670 2c71 07        	.uleb128 0x7
 7671 2c72 0000 0000 	.long.LASF700
 7672 2c76 3B        	.byte0x3b
 7673 2c77 7E        	.byte0x7e
 7674 2c78 0000 0113 	.long0x113
 7675 2c7c 14        	.byte0x14
 7676 2c7d 07        	.uleb128 0x7
 7677 2c7e 0000 0000 	.long.LASF701
 7678 2c82 3B        	.byte0x3b
 7679 2c83 87        	.byte0x87
 7680 2c84 0000 2BA2 	.long0x2ba2
 7681 2c88 18        	.byte0x18
 7682 2c89 07        	.uleb128 0x7
 7683 2c8a 0000 0000 	.long.LASF702
 7684 2c8e 3B        	.byte0x3b
 7685 2c8f 8D        	.byte0x8d
 7686 2c90 0000 2CA2 	.long0x2ca2
 7687 2c94 30        	.byte0x30
 7688 2c95 07        	.uleb128 0x7
 7689 2c96 0000 0000 	.long.LASF703
68K GAS   			page 159


 7690 2c9a 3B        	.byte0x3b
 7691 2c9b 93        	.byte0x93
 7692 2c9c 0000 2CA2 	.long0x2ca2
 7693 2ca0 34        	.byte0x34
 7694 2ca1 00        	.byte0
 7695 2ca2 0A        	.uleb128 0xa
 7696 2ca3 04        	.byte0x4
 7697 2ca4 0000 2BF5 	.long0x2bf5
 7698 2ca8 04        	.uleb128 0x4
 7699 2ca9 0000 0000 	.long.LASF704
 7700 2cad 3B        	.byte0x3b
 7701 2cae 94        	.byte0x94
 7702 2caf 0000 2C2D 	.long0x2c2d
 7703 2cb3 04        	.uleb128 0x4
 7704 2cb4 0000 0000 	.long.LASF705
 7705 2cb8 3B        	.byte0x3b
 7706 2cb9 9D        	.byte0x9d
 7707 2cba 0000 2CBE 	.long0x2cbe
 7708 2cbe 0A        	.uleb128 0xa
 7709 2cbf 04        	.byte0x4
 7710 2cc0 0000 2CC4 	.long0x2cc4
 7711 2cc4 1E        	.uleb128 0x1e
 7712 2cc5 0000 2CCF 	.long0x2ccf
 7713 2cc9 19        	.uleb128 0x19
 7714 2cca 0000 2CCF 	.long0x2ccf
 7715 2cce 00        	.byte0
 7716 2ccf 0A        	.uleb128 0xa
 7717 2cd0 04        	.byte0x4
 7718 2cd1 0000 2CA8 	.long0x2ca8
 7719 2cd5 04        	.uleb128 0x4
 7720 2cd6 0000 0000 	.long.LASF706
 7721 2cda 3B        	.byte0x3b
 7722 2cdb AE        	.byte0xae
 7723 2cdc 0000 2CE0 	.long0x2ce0
 7724 2ce0 0A        	.uleb128 0xa
 7725 2ce1 04        	.byte0x4
 7726 2ce2 0000 2CE6 	.long0x2ce6
 7727 2ce6 18        	.uleb128 0x18
 7728 2ce7 0000 0113 	.long0x113
 7729 2ceb 0000 2D04 	.long0x2d04
 7730 2cef 19        	.uleb128 0x19
 7731 2cf0 0000 2D04 	.long0x2d04
 7732 2cf4 19        	.uleb128 0x19
 7733 2cf5 0000 2D04 	.long0x2d04
 7734 2cf9 19        	.uleb128 0x19
 7735 2cfa 0000 033B 	.long0x33b
 7736 2cfe 19        	.uleb128 0x19
 7737 2cff 0000 00AF 	.long0xaf
 7738 2d03 00        	.byte0
 7739 2d04 0A        	.uleb128 0xa
 7740 2d05 04        	.byte0x4
 7741 2d06 0000 2BAD 	.long0x2bad
 7742 2d0a 04        	.uleb128 0x4
 7743 2d0b 0000 0000 	.long.LASF707
 7744 2d0f 3B        	.byte0x3b
 7745 2d10 C0        	.byte0xc0
 7746 2d11 0000 2D15 	.long0x2d15
68K GAS   			page 160


 7747 2d15 0A        	.uleb128 0xa
 7748 2d16 04        	.byte0x4
 7749 2d17 0000 2D1B 	.long0x2d1b
 7750 2d1b 18        	.uleb128 0x18
 7751 2d1c 0000 0113 	.long0x113
 7752 2d20 0000 2D2F 	.long0x2d2f
 7753 2d24 19        	.uleb128 0x19
 7754 2d25 0000 2D04 	.long0x2d04
 7755 2d29 19        	.uleb128 0x19
 7756 2d2a 0000 0CAA 	.long0xcaa
 7757 2d2e 00        	.byte0
 7758 2d2f 04        	.uleb128 0x4
 7759 2d30 0000 0000 	.long.LASF708
 7760 2d34 3B        	.byte0x3b
 7761 2d35 D1        	.byte0xd1
 7762 2d36 0000 2D3A 	.long0x2d3a
 7763 2d3a 0A        	.uleb128 0xa
 7764 2d3b 04        	.byte0x4
 7765 2d3c 0000 2D40 	.long0x2d40
 7766 2d40 18        	.uleb128 0x18
 7767 2d41 0000 0113 	.long0x113
 7768 2d45 0000 2D59 	.long0x2d59
 7769 2d49 19        	.uleb128 0x19
 7770 2d4a 0000 2D04 	.long0x2d04
 7771 2d4e 19        	.uleb128 0x19
 7772 2d4f 0000 0C89 	.long0xc89
 7773 2d53 19        	.uleb128 0x19
 7774 2d54 0000 0C94 	.long0xc94
 7775 2d58 00        	.byte0
 7776 2d59 04        	.uleb128 0x4
 7777 2d5a 0000 0000 	.long.LASF709
 7778 2d5e 3B        	.byte0x3b
 7779 2d5f E6        	.byte0xe6
 7780 2d60 0000 2D64 	.long0x2d64
 7781 2d64 0A        	.uleb128 0xa
 7782 2d65 04        	.byte0x4
 7783 2d66 0000 2D6A 	.long0x2d6a
 7784 2d6a 18        	.uleb128 0x18
 7785 2d6b 0000 0113 	.long0x113
 7786 2d6f 0000 2D79 	.long0x2d79
 7787 2d73 19        	.uleb128 0x19
 7788 2d74 0000 2D79 	.long0x2d79
 7789 2d78 00        	.byte0
 7790 2d79 0A        	.uleb128 0xa
 7791 2d7a 04        	.byte0x4
 7792 2d7b 0000 2BA2 	.long0x2ba2
 7793 2d7f 04        	.uleb128 0x4
 7794 2d80 0000 0000 	.long.LASF710
 7795 2d84 3B        	.byte0x3b
 7796 2d85 F1        	.byte0xf1
 7797 2d86 0000 2D8A 	.long0x2d8a
 7798 2d8a 0A        	.uleb128 0xa
 7799 2d8b 04        	.byte0x4
 7800 2d8c 0000 2D90 	.long0x2d90
 7801 2d90 1E        	.uleb128 0x1e
 7802 2d91 0000 2D9B 	.long0x2d9b
 7803 2d95 19        	.uleb128 0x19
68K GAS   			page 161


 7804 2d96 0000 2D04 	.long0x2d04
 7805 2d9a 00        	.byte0
 7806 2d9b 0D        	.uleb128 0xd
 7807 2d9c 0000 0000 	.long.LASF711
 7808 2da0 3B        	.byte0x3b
 7809 2da1 0105      	.word0x105
 7810 2da3 0000 2DA7 	.long0x2da7
 7811 2da7 0A        	.uleb128 0xa
 7812 2da8 04        	.byte0x4
 7813 2da9 0000 2DAD 	.long0x2dad
 7814 2dad 18        	.uleb128 0x18
 7815 2dae 0000 0113 	.long0x113
 7816 2db2 0000 2DBC 	.long0x2dbc
 7817 2db6 19        	.uleb128 0x19
 7818 2db7 0000 2B9C 	.long0x2b9c
 7819 2dbb 00        	.byte0
 7820 2dbc 0D        	.uleb128 0xd
 7821 2dbd 0000 0000 	.long.LASF712
 7822 2dc1 3B        	.byte0x3b
 7823 2dc2 0115      	.word0x115
 7824 2dc4 0000 2DC8 	.long0x2dc8
 7825 2dc8 0A        	.uleb128 0xa
 7826 2dc9 04        	.byte0x4
 7827 2dca 0000 2DCE 	.long0x2dce
 7828 2dce 18        	.uleb128 0x18
 7829 2dcf 0000 0113 	.long0x113
 7830 2dd3 0000 2DE2 	.long0x2de2
 7831 2dd7 19        	.uleb128 0x19
 7832 2dd8 0000 2B9C 	.long0x2b9c
 7833 2ddc 19        	.uleb128 0x19
 7834 2ddd 0000 0D09 	.long0xd09
 7835 2de1 00        	.byte0
 7836 2de2 0D        	.uleb128 0xd
 7837 2de3 0000 0000 	.long.LASF713
 7838 2de7 3B        	.byte0x3b
 7839 2de8 0128      	.word0x128
 7840 2dea 0000 2DA7 	.long0x2da7
 7841 2dee 0D        	.uleb128 0xd
 7842 2def 0000 0000 	.long.LASF714
 7843 2df3 3B        	.byte0x3b
 7844 2df4 0137      	.word0x137
 7845 2df6 0000 2DFA 	.long0x2dfa
 7846 2dfa 0A        	.uleb128 0xa
 7847 2dfb 04        	.byte0x4
 7848 2dfc 0000 2E00 	.long0x2e00
 7849 2e00 1E        	.uleb128 0x1e
 7850 2e01 0000 2E0B 	.long0x2e0b
 7851 2e05 19        	.uleb128 0x19
 7852 2e06 0000 2B9C 	.long0x2b9c
 7853 2e0a 00        	.byte0
 7854 2e0b 0D        	.uleb128 0xd
 7855 2e0c 0000 0000 	.long.LASF715
 7856 2e10 3B        	.byte0x3b
 7857 2e11 0149      	.word0x149
 7858 2e13 0000 2E17 	.long0x2e17
 7859 2e17 0A        	.uleb128 0xa
 7860 2e18 04        	.byte0x4
68K GAS   			page 162


 7861 2e19 0000 2E1D 	.long0x2e1d
 7862 2e1d 18        	.uleb128 0x18
 7863 2e1e 0000 118F 	.long0x118f
 7864 2e22 0000 2E31 	.long0x2e31
 7865 2e26 19        	.uleb128 0x19
 7866 2e27 0000 2D04 	.long0x2d04
 7867 2e2b 19        	.uleb128 0x19
 7868 2e2c 0000 2D04 	.long0x2d04
 7869 2e30 00        	.byte0
 7870 2e31 0D        	.uleb128 0xd
 7871 2e32 0000 0000 	.long.LASF716
 7872 2e36 3B        	.byte0x3b
 7873 2e37 015E      	.word0x15e
 7874 2e39 0000 2E3D 	.long0x2e3d
 7875 2e3d 0A        	.uleb128 0xa
 7876 2e3e 04        	.byte0x4
 7877 2e3f 0000 2E43 	.long0x2e43
 7878 2e43 18        	.uleb128 0x18
 7879 2e44 0000 0113 	.long0x113
 7880 2e48 0000 2E66 	.long0x2e66
 7881 2e4c 19        	.uleb128 0x19
 7882 2e4d 0000 2D04 	.long0x2d04
 7883 2e51 19        	.uleb128 0x19
 7884 2e52 0000 033B 	.long0x33b
 7885 2e56 19        	.uleb128 0x19
 7886 2e57 0000 00AF 	.long0xaf
 7887 2e5b 19        	.uleb128 0x19
 7888 2e5c 0000 0CAA 	.long0xcaa
 7889 2e60 19        	.uleb128 0x19
 7890 2e61 0000 0C7E 	.long0xc7e
 7891 2e65 00        	.byte0
 7892 2e66 0D        	.uleb128 0xd
 7893 2e67 0000 0000 	.long.LASF717
 7894 2e6b 3B        	.byte0x3b
 7895 2e6c 0171      	.word0x171
 7896 2e6e 0000 2E72 	.long0x2e72
 7897 2e72 0A        	.uleb128 0xa
 7898 2e73 04        	.byte0x4
 7899 2e74 0000 2E78 	.long0x2e78
 7900 2e78 18        	.uleb128 0x18
 7901 2e79 0000 0113 	.long0x113
 7902 2e7d 0000 2E8C 	.long0x2e8c
 7903 2e81 19        	.uleb128 0x19
 7904 2e82 0000 2D04 	.long0x2d04
 7905 2e86 19        	.uleb128 0x19
 7906 2e87 0000 2D04 	.long0x2d04
 7907 2e8b 00        	.byte0
 7908 2e8c 0D        	.uleb128 0xd
 7909 2e8d 0000 0000 	.long.LASF718
 7910 2e91 3B        	.byte0x3b
 7911 2e92 0182      	.word0x182
 7912 2e94 0000 2E98 	.long0x2e98
 7913 2e98 0A        	.uleb128 0xa
 7914 2e99 04        	.byte0x4
 7915 2e9a 0000 2E9E 	.long0x2e9e
 7916 2e9e 18        	.uleb128 0x18
 7917 2e9f 0000 0113 	.long0x113
68K GAS   			page 163


 7918 2ea3 0000 2EB7 	.long0x2eb7
 7919 2ea7 19        	.uleb128 0x19
 7920 2ea8 0000 2D04 	.long0x2d04
 7921 2eac 19        	.uleb128 0x19
 7922 2ead 0000 0BFC 	.long0xbfc
 7923 2eb1 19        	.uleb128 0x19
 7924 2eb2 0000 0BFC 	.long0xbfc
 7925 2eb6 00        	.byte0
 7926 2eb7 0D        	.uleb128 0xd
 7927 2eb8 0000 0000 	.long.LASF719
 7928 2ebc 3B        	.byte0x3b
 7929 2ebd 0196      	.word0x196
 7930 2ebf 0000 2EC3 	.long0x2ec3
 7931 2ec3 0A        	.uleb128 0xa
 7932 2ec4 04        	.byte0x4
 7933 2ec5 0000 2EC9 	.long0x2ec9
 7934 2ec9 18        	.uleb128 0x18
 7935 2eca 0000 0113 	.long0x113
 7936 2ece 0000 2EE7 	.long0x2ee7
 7937 2ed2 19        	.uleb128 0x19
 7938 2ed3 0000 2D04 	.long0x2d04
 7939 2ed7 19        	.uleb128 0x19
 7940 2ed8 0000 033B 	.long0x33b
 7941 2edc 19        	.uleb128 0x19
 7942 2edd 0000 00AF 	.long0xaf
 7943 2ee1 19        	.uleb128 0x19
 7944 2ee2 0000 033B 	.long0x33b
 7945 2ee6 00        	.byte0
 7946 2ee7 0D        	.uleb128 0xd
 7947 2ee8 0000 0000 	.long.LASF720
 7948 2eec 3B        	.byte0x3b
 7949 2eed 01A9      	.word0x1a9
 7950 2eef 0000 2EF3 	.long0x2ef3
 7951 2ef3 0A        	.uleb128 0xa
 7952 2ef4 04        	.byte0x4
 7953 2ef5 0000 2EF9 	.long0x2ef9
 7954 2ef9 18        	.uleb128 0x18
 7955 2efa 0000 0C9F 	.long0xc9f
 7956 2efe 0000 2F12 	.long0x2f12
 7957 2f02 19        	.uleb128 0x19
 7958 2f03 0000 2D04 	.long0x2d04
 7959 2f07 19        	.uleb128 0x19
 7960 2f08 0000 087B 	.long0x87b
 7961 2f0c 19        	.uleb128 0x19
 7962 2f0d 0000 00AF 	.long0xaf
 7963 2f11 00        	.byte0
 7964 2f12 0D        	.uleb128 0xd
 7965 2f13 0000 0000 	.long.LASF721
 7966 2f17 3B        	.byte0x3b
 7967 2f18 01BD      	.word0x1bd
 7968 2f1a 0000 2F1E 	.long0x2f1e
 7969 2f1e 0A        	.uleb128 0xa
 7970 2f1f 04        	.byte0x4
 7971 2f20 0000 2F24 	.long0x2f24
 7972 2f24 18        	.uleb128 0x18
 7973 2f25 0000 0113 	.long0x113
 7974 2f29 0000 2F47 	.long0x2f47
68K GAS   			page 164


 7975 2f2d 19        	.uleb128 0x19
 7976 2f2e 0000 2D04 	.long0x2d04
 7977 2f32 19        	.uleb128 0x19
 7978 2f33 0000 2D04 	.long0x2d04
 7979 2f37 19        	.uleb128 0x19
 7980 2f38 0000 2D04 	.long0x2d04
 7981 2f3c 19        	.uleb128 0x19
 7982 2f3d 0000 033B 	.long0x33b
 7983 2f41 19        	.uleb128 0x19
 7984 2f42 0000 00AF 	.long0xaf
 7985 2f46 00        	.byte0
 7986 2f47 0D        	.uleb128 0xd
 7987 2f48 0000 0000 	.long.LASF722
 7988 2f4c 3B        	.byte0x3b
 7989 2f4d 01D0      	.word0x1d0
 7990 2f4f 0000 2F53 	.long0x2f53
 7991 2f53 0A        	.uleb128 0xa
 7992 2f54 04        	.byte0x4
 7993 2f55 0000 2F59 	.long0x2f59
 7994 2f59 18        	.uleb128 0x18
 7995 2f5a 0000 0113 	.long0x113
 7996 2f5e 0000 2F6D 	.long0x2f6d
 7997 2f62 19        	.uleb128 0x19
 7998 2f63 0000 2D04 	.long0x2d04
 7999 2f67 19        	.uleb128 0x19
 8000 2f68 0000 2F6D 	.long0x2f6d
 8001 2f6c 00        	.byte0
 8002 2f6d 0A        	.uleb128 0xa
 8003 2f6e 04        	.byte0x4
 8004 2f6f 0000 0E63 	.long0xe63
 8005 2f73 1F        	.uleb128 0x1f
 8006 2f74 0000 0000 	.long.LASF723
 8007 2f78 3B        	.byte0x3b
 8008 2f79 01F2      	.word0x1f2
 8009 2f7b 0000 2A43 	.long0x2a43
 8010 2f7f 0D        	.uleb128 0xd
 8011 2f80 0000 0000 	.long.LASF724
 8012 2f84 3B        	.byte0x3b
 8013 2f85 02D5      	.word0x2d5
 8014 2f87 0000 2F8B 	.long0x2f8b
 8015 2f8b 0A        	.uleb128 0xa
 8016 2f8c 04        	.byte0x4
 8017 2f8d 0000 2F91 	.long0x2f91
 8018 2f91 18        	.uleb128 0x18
 8019 2f92 0000 0113 	.long0x113
 8020 2f96 0000 2FAF 	.long0x2faf
 8021 2f9a 19        	.uleb128 0x19
 8022 2f9b 0000 2FAF 	.long0x2faf
 8023 2f9f 19        	.uleb128 0x19
 8024 2fa0 0000 033B 	.long0x33b
 8025 2fa4 19        	.uleb128 0x19
 8026 2fa5 0000 0113 	.long0x113
 8027 2fa9 19        	.uleb128 0x19
 8028 2faa 0000 0CAA 	.long0xcaa
 8029 2fae 00        	.byte0
 8030 2faf 0A        	.uleb128 0xa
 8031 2fb0 04        	.byte0x4
68K GAS   			page 165


 8032 2fb1 0000 281C 	.long0x281c
 8033 2fb5 0D        	.uleb128 0xd
 8034 2fb6 0000 0000 	.long.LASF725
 8035 2fba 3B        	.byte0x3b
 8036 2fbb 02E6      	.word0x2e6
 8037 2fbd 0000 2FC1 	.long0x2fc1
 8038 2fc1 0A        	.uleb128 0xa
 8039 2fc2 04        	.byte0x4
 8040 2fc3 0000 2FC7 	.long0x2fc7
 8041 2fc7 18        	.uleb128 0x18
 8042 2fc8 0000 0113 	.long0x113
 8043 2fcc 0000 2FD6 	.long0x2fd6
 8044 2fd0 19        	.uleb128 0x19
 8045 2fd1 0000 2FAF 	.long0x2faf
 8046 2fd5 00        	.byte0
 8047 2fd6 0D        	.uleb128 0xd
 8048 2fd7 0000 0000 	.long.LASF726
 8049 2fdb 3B        	.byte0x3b
 8050 2fdc 02F8      	.word0x2f8
 8051 2fde 0000 2FE2 	.long0x2fe2
 8052 2fe2 0A        	.uleb128 0xa
 8053 2fe3 04        	.byte0x4
 8054 2fe4 0000 2FE8 	.long0x2fe8
 8055 2fe8 18        	.uleb128 0x18
 8056 2fe9 0000 0C9F 	.long0xc9f
 8057 2fed 0000 3001 	.long0x3001
 8058 2ff1 19        	.uleb128 0x19
 8059 2ff2 0000 2FAF 	.long0x2faf
 8060 2ff6 19        	.uleb128 0x19
 8061 2ff7 0000 0450 	.long0x450
 8062 2ffb 19        	.uleb128 0x19
 8063 2ffc 0000 00AF 	.long0xaf
 8064 3000 00        	.byte0
 8065 3001 0D        	.uleb128 0xd
 8066 3002 0000 0000 	.long.LASF727
 8067 3006 3B        	.byte0x3b
 8068 3007 030E      	.word0x30e
 8069 3009 0000 300D 	.long0x300d
 8070 300d 0A        	.uleb128 0xa
 8071 300e 04        	.byte0x4
 8072 300f 0000 3013 	.long0x3013
 8073 3013 18        	.uleb128 0x18
 8074 3014 0000 0C9F 	.long0xc9f
 8075 3018 0000 3031 	.long0x3031
 8076 301c 19        	.uleb128 0x19
 8077 301d 0000 2FAF 	.long0x2faf
 8078 3021 19        	.uleb128 0x19
 8079 3022 0000 3031 	.long0x3031
 8080 3026 19        	.uleb128 0x19
 8081 3027 0000 0113 	.long0x113
 8082 302b 19        	.uleb128 0x19
 8083 302c 0000 0C9F 	.long0xc9f
 8084 3030 00        	.byte0
 8085 3031 0A        	.uleb128 0xa
 8086 3032 04        	.byte0x4
 8087 3033 0000 2801 	.long0x2801
 8088 3037 0D        	.uleb128 0xd
68K GAS   			page 166


 8089 3038 0000 0000 	.long.LASF728
 8090 303c 3B        	.byte0x3b
 8091 303d 0323      	.word0x323
 8092 303f 0000 3043 	.long0x3043
 8093 3043 0A        	.uleb128 0xa
 8094 3044 04        	.byte0x4
 8095 3045 0000 3049 	.long0x3049
 8096 3049 18        	.uleb128 0x18
 8097 304a 0000 0C9F 	.long0xc9f
 8098 304e 0000 3062 	.long0x3062
 8099 3052 19        	.uleb128 0x19
 8100 3053 0000 2FAF 	.long0x2faf
 8101 3057 19        	.uleb128 0x19
 8102 3058 0000 0D09 	.long0xd09
 8103 305c 19        	.uleb128 0x19
 8104 305d 0000 00AF 	.long0xaf
 8105 3061 00        	.byte0
 8106 3062 0D        	.uleb128 0xd
 8107 3063 0000 0000 	.long.LASF729
 8108 3067 3B        	.byte0x3b
 8109 3068 0339      	.word0x339
 8110 306a 0000 300D 	.long0x300d
 8111 306e 0D        	.uleb128 0xd
 8112 306f 0000 0000 	.long.LASF730
 8113 3073 3B        	.byte0x3b
 8114 3074 034C      	.word0x34c
 8115 3076 0000 307A 	.long0x307a
 8116 307a 0A        	.uleb128 0xa
 8117 307b 04        	.byte0x4
 8118 307c 0000 3080 	.long0x3080
 8119 3080 18        	.uleb128 0x18
 8120 3081 0000 0113 	.long0x113
 8121 3085 0000 3099 	.long0x3099
 8122 3089 19        	.uleb128 0x19
 8123 308a 0000 2FAF 	.long0x2faf
 8124 308e 19        	.uleb128 0x19
 8125 308f 0000 27D1 	.long0x27d1
 8126 3093 19        	.uleb128 0x19
 8127 3094 0000 0450 	.long0x450
 8128 3098 00        	.byte0
 8129 3099 0D        	.uleb128 0xd
 8130 309a 0000 0000 	.long.LASF731
 8131 309e 3B        	.byte0x3b
 8132 309f 0360      	.word0x360
 8133 30a1 0000 30A5 	.long0x30a5
 8134 30a5 0A        	.uleb128 0xa
 8135 30a6 04        	.byte0x4
 8136 30a7 0000 30AB 	.long0x30ab
 8137 30ab 18        	.uleb128 0x18
 8138 30ac 0000 0C73 	.long0xc73
 8139 30b0 0000 30C4 	.long0x30c4
 8140 30b4 19        	.uleb128 0x19
 8141 30b5 0000 2FAF 	.long0x2faf
 8142 30b9 19        	.uleb128 0x19
 8143 30ba 0000 0C73 	.long0xc73
 8144 30be 19        	.uleb128 0x19
 8145 30bf 0000 0113 	.long0x113
68K GAS   			page 167


 8146 30c3 00        	.byte0
 8147 30c4 0D        	.uleb128 0xd
 8148 30c5 0000 0000 	.long.LASF732
 8149 30c9 3B        	.byte0x3b
 8150 30ca 0371      	.word0x371
 8151 30cc 0000 30D0 	.long0x30d0
 8152 30d0 0A        	.uleb128 0xa
 8153 30d1 04        	.byte0x4
 8154 30d2 0000 30D6 	.long0x30d6
 8155 30d6 18        	.uleb128 0x18
 8156 30d7 0000 0113 	.long0x113
 8157 30db 0000 30EA 	.long0x30ea
 8158 30df 19        	.uleb128 0x19
 8159 30e0 0000 2D04 	.long0x2d04
 8160 30e4 19        	.uleb128 0x19
 8161 30e5 0000 30EA 	.long0x30ea
 8162 30e9 00        	.byte0
 8163 30ea 0A        	.uleb128 0xa
 8164 30eb 04        	.byte0x4
 8165 30ec 0000 0D4C 	.long0xd4c
 8166 30f0 0D        	.uleb128 0xd
 8167 30f1 0000 0000 	.long.LASF733
 8168 30f5 3B        	.byte0x3b
 8169 30f6 0382      	.word0x382
 8170 30f8 0000 30FC 	.long0x30fc
 8171 30fc 0A        	.uleb128 0xa
 8172 30fd 04        	.byte0x4
 8173 30fe 0000 3102 	.long0x3102
 8174 3102 18        	.uleb128 0x18
 8175 3103 0000 0113 	.long0x113
 8176 3107 0000 3116 	.long0x3116
 8177 310b 19        	.uleb128 0x19
 8178 310c 0000 2FAF 	.long0x2faf
 8179 3110 19        	.uleb128 0x19
 8180 3111 0000 0C73 	.long0xc73
 8181 3115 00        	.byte0
 8182 3116 0D        	.uleb128 0xd
 8183 3117 0000 0000 	.long.LASF734
 8184 311b 3B        	.byte0x3b
 8185 311c 0392      	.word0x392
 8186 311e 0000 2FC1 	.long0x2fc1
 8187 3122 0D        	.uleb128 0xd
 8188 3123 0000 0000 	.long.LASF735
 8189 3127 3B        	.byte0x3b
 8190 3128 03A1      	.word0x3a1
 8191 312a 0000 2FC1 	.long0x2fc1
 8192 312e 0D        	.uleb128 0xd
 8193 312f 0000 0000 	.long.LASF736
 8194 3133 3B        	.byte0x3b
 8195 3134 03B0      	.word0x3b0
 8196 3136 0000 313A 	.long0x313a
 8197 313a 0A        	.uleb128 0xa
 8198 313b 04        	.byte0x4
 8199 313c 0000 3140 	.long0x3140
 8200 3140 18        	.uleb128 0x18
 8201 3141 0000 0113 	.long0x113
 8202 3145 0000 3154 	.long0x3154
68K GAS   			page 168


 8203 3149 19        	.uleb128 0x19
 8204 314a 0000 2FAF 	.long0x2faf
 8205 314e 19        	.uleb128 0x19
 8206 314f 0000 0113 	.long0x113
 8207 3153 00        	.byte0
 8208 3154 0D        	.uleb128 0xd
 8209 3155 0000 0000 	.long.LASF737
 8210 3159 3B        	.byte0x3b
 8211 315a 03BF      	.word0x3bf
 8212 315c 0000 313A 	.long0x313a
 8213 3160 0D        	.uleb128 0xd
 8214 3161 0000 0000 	.long.LASF738
 8215 3165 3B        	.byte0x3b
 8216 3166 03CF      	.word0x3cf
 8217 3168 0000 316C 	.long0x316c
 8218 316c 0A        	.uleb128 0xa
 8219 316d 04        	.byte0x4
 8220 316e 0000 3172 	.long0x3172
 8221 3172 18        	.uleb128 0x18
 8222 3173 0000 0113 	.long0x113
 8223 3177 0000 3186 	.long0x3186
 8224 317b 19        	.uleb128 0x19
 8225 317c 0000 2FAF 	.long0x2faf
 8226 3180 19        	.uleb128 0x19
 8227 3181 0000 3186 	.long0x3186
 8228 3185 00        	.byte0
 8229 3186 0A        	.uleb128 0xa
 8230 3187 04        	.byte0x4
 8231 3188 0000 318C 	.long0x318c
 8232 318c 1D        	.uleb128 0x1d
 8233 318d 0000 0000 	.long.LASF739
 8234 3191 0D        	.uleb128 0xd
 8235 3192 0000 0000 	.long.LASF740
 8236 3196 3B        	.byte0x3b
 8237 3197 03E2      	.word0x3e2
 8238 3199 0000 319D 	.long0x319d
 8239 319d 0A        	.uleb128 0xa
 8240 319e 04        	.byte0x4
 8241 319f 0000 31A3 	.long0x31a3
 8242 31a3 18        	.uleb128 0x18
 8243 31a4 0000 0113 	.long0x113
 8244 31a8 0000 31C6 	.long0x31c6
 8245 31ac 19        	.uleb128 0x19
 8246 31ad 0000 2FAF 	.long0x2faf
 8247 31b1 19        	.uleb128 0x19
 8248 31b2 0000 31C6 	.long0x31c6
 8249 31b6 19        	.uleb128 0x19
 8250 31b7 0000 00AF 	.long0xaf
 8251 31bb 19        	.uleb128 0x19
 8252 31bc 0000 0113 	.long0x113
 8253 31c0 19        	.uleb128 0x19
 8254 31c1 0000 0C73 	.long0xc73
 8255 31c5 00        	.byte0
 8256 31c6 0A        	.uleb128 0xa
 8257 31c7 04        	.byte0x4
 8258 31c8 0000 0450 	.long0x450
 8259 31cc 1F        	.uleb128 0x1f
68K GAS   			page 169


 8260 31cd 0000 0000 	.long.LASF741
 8261 31d1 3B        	.byte0x3b
 8262 31d2 0404      	.word0x404
 8263 31d4 0000 2955 	.long0x2955
 8264 31d8 1A        	.uleb128 0x1a
 8265 31d9 30        	.byte0x30
 8266 31da 3B        	.byte0x3b
 8267 31db 0509      	.word0x509
 8268 31dd 0000 327E 	.long0x327e
 8269 31e1 09        	.uleb128 0x9
 8270 31e2 0000 0000 	.long.LASF742
 8271 31e6 3B        	.byte0x3b
 8272 31e7 050A      	.word0x50a
 8273 31e9 0000 0113 	.long0x113
 8274 31ed 00        	.byte0
 8275 31ee 09        	.uleb128 0x9
 8276 31ef 0000 0000 	.long.LASF743
 8277 31f3 3B        	.byte0x3b
 8278 31f4 050B      	.word0x50b
 8279 31f6 0000 0113 	.long0x113
 8280 31fa 04        	.byte0x4
 8281 31fb 09        	.uleb128 0x9
 8282 31fc 0000 0000 	.long.LASF744
 8283 3200 3B        	.byte0x3b
 8284 3201 050C      	.word0x50c
 8285 3203 0000 0113 	.long0x113
 8286 3207 08        	.byte0x8
 8287 3208 09        	.uleb128 0x9
 8288 3209 0000 0000 	.long.LASF745
 8289 320d 3B        	.byte0x3b
 8290 320e 050D      	.word0x50d
 8291 3210 0000 0113 	.long0x113
 8292 3214 0C        	.byte0xc
 8293 3215 09        	.uleb128 0x9
 8294 3216 0000 0000 	.long.LASF746
 8295 321a 3B        	.byte0x3b
 8296 321b 050E      	.word0x50e
 8297 321d 0000 0113 	.long0x113
 8298 3221 10        	.byte0x10
 8299 3222 09        	.uleb128 0x9
 8300 3223 0000 0000 	.long.LASF747
 8301 3227 3B        	.byte0x3b
 8302 3228 050F      	.word0x50f
 8303 322a 0000 0113 	.long0x113
 8304 322e 14        	.byte0x14
 8305 322f 09        	.uleb128 0x9
 8306 3230 0000 0000 	.long.LASF748
 8307 3234 3B        	.byte0x3b
 8308 3235 0510      	.word0x510
 8309 3237 0000 0113 	.long0x113
 8310 323b 18        	.byte0x18
 8311 323c 09        	.uleb128 0x9
 8312 323d 0000 0000 	.long.LASF749
 8313 3241 3B        	.byte0x3b
 8314 3242 0511      	.word0x511
 8315 3244 0000 0113 	.long0x113
 8316 3248 1C        	.byte0x1c
68K GAS   			page 170


 8317 3249 09        	.uleb128 0x9
 8318 324a 0000 0000 	.long.LASF750
 8319 324e 3B        	.byte0x3b
 8320 324f 0512      	.word0x512
 8321 3251 0000 0113 	.long0x113
 8322 3255 20        	.byte0x20
 8323 3256 09        	.uleb128 0x9
 8324 3257 0000 0000 	.long.LASF751
 8325 325b 3B        	.byte0x3b
 8326 325c 0513      	.word0x513
 8327 325e 0000 0113 	.long0x113
 8328 3262 24        	.byte0x24
 8329 3263 09        	.uleb128 0x9
 8330 3264 0000 0000 	.long.LASF752
 8331 3268 3B        	.byte0x3b
 8332 3269 0514      	.word0x514
 8333 326b 0000 0113 	.long0x113
 8334 326f 28        	.byte0x28
 8335 3270 09        	.uleb128 0x9
 8336 3271 0000 0000 	.long.LASF753
 8337 3275 3B        	.byte0x3b
 8338 3276 0515      	.word0x515
 8339 3278 0000 0113 	.long0x113
 8340 327c 2C        	.byte0x2c
 8341 327d 00        	.byte0
 8342 327e 0D        	.uleb128 0xd
 8343 327f 0000 0000 	.long.LASF754
 8344 3283 3B        	.byte0x3b
 8345 3284 0516      	.word0x516
 8346 3286 0000 31D8 	.long0x31d8
 8347 328a 03        	.uleb128 0x3
 8348 328b 0000 327E 	.long0x327e
 8349 328f 1F        	.uleb128 0x1f
 8350 3290 0000 0000 	.long.LASF755
 8351 3294 3B        	.byte0x3b
 8352 3295 051E      	.word0x51e
 8353 3297 0000 328A 	.long0x328a
 8354 329b 0A        	.uleb128 0xa
 8355 329c 04        	.byte0x4
 8356 329d 0000 2A43 	.long0x2a43
 8357 32a1 0A        	.uleb128 0xa
 8358 32a2 04        	.byte0x4
 8359 32a3 0000 328A 	.long0x328a
 8360 32a7 27        	.uleb128 0x27
 8361 32a8 07        	.byte0x7
 8362 32a9 04        	.byte0x4
 8363 32aa 0000 013F 	.long0x13f
 8364 32ae 3B        	.byte0x3b
 8365 32af 0671      	.word0x671
 8366 32b1 0000 32C8 	.long0x32c8
 8367 32b5 26        	.uleb128 0x26
 8368 32b6 0000 0000 	.long.LASF756
 8369 32ba 00        	.byte0
 8370 32bb 26        	.uleb128 0x26
 8371 32bc 0000 0000 	.long.LASF757
 8372 32c0 01        	.byte0x1
 8373 32c1 26        	.uleb128 0x26
68K GAS   			page 171


 8374 32c2 0000 0000 	.long.LASF758
 8375 32c6 02        	.byte0x2
 8376 32c7 00        	.byte0
 8377 32c8 0D        	.uleb128 0xd
 8378 32c9 0000 0000 	.long.LASF759
 8379 32cd 3B        	.byte0x3b
 8380 32ce 0675      	.word0x675
 8381 32d0 0000 32A7 	.long0x32a7
 8382 32d4 08        	.uleb128 0x8
 8383 32d5 0000 0000 	.long.LASF760
 8384 32d9 08        	.byte0x8
 8385 32da 3B        	.byte0x3b
 8386 32db 067A      	.word0x67a
 8387 32dd 0000 32FC 	.long0x32fc
 8388 32e1 09        	.uleb128 0x9
 8389 32e2 0000 0000 	.long.LASF339
 8390 32e6 3B        	.byte0x3b
 8391 32e7 067B      	.word0x67b
 8392 32e9 0000 033B 	.long0x33b
 8393 32ed 00        	.byte0
 8394 32ee 09        	.uleb128 0x9
 8395 32ef 0000 0000 	.long.LASF674
 8396 32f3 3B        	.byte0x3b
 8397 32f4 067C      	.word0x67c
 8398 32f6 0000 2DBC 	.long0x2dbc
 8399 32fa 04        	.byte0x4
 8400 32fb 00        	.byte0
 8401 32fc 0D        	.uleb128 0xd
 8402 32fd 0000 0000 	.long.LASF760
 8403 3301 3B        	.byte0x3b
 8404 3302 067D      	.word0x67d
 8405 3304 0000 32D4 	.long0x32d4
 8406 3308 03        	.uleb128 0x3
 8407 3309 0000 32FC 	.long0x32fc
 8408 330d 10        	.uleb128 0x10
 8409 330e 0000 3308 	.long0x3308
 8410 3312 0000 3318 	.long0x3318
 8411 3316 23        	.uleb128 0x23
 8412 3317 00        	.byte0
 8413 3318 03        	.uleb128 0x3
 8414 3319 0000 330D 	.long0x330d
 8415 331d 1F        	.uleb128 0x1f
 8416 331e 0000 0000 	.long.LASF761
 8417 3322 3B        	.byte0x3b
 8418 3323 0684      	.word0x684
 8419 3325 0000 3318 	.long0x3318
 8420 3329 1F        	.uleb128 0x1f
 8421 332a 0000 0000 	.long.LASF762
 8422 332e 3B        	.byte0x3b
 8423 332f 0686      	.word0x686
 8424 3331 0000 2811 	.long0x2811
 8425 3335 1A        	.uleb128 0x1a
 8426 3336 14        	.byte0x14
 8427 3337 3B        	.byte0x3b
 8428 3338 0745      	.word0x745
 8429 333a 0000 3380 	.long0x3380
 8430 333e 09        	.uleb128 0x9
68K GAS   			page 172


 8431 333f 0000 0000 	.long.LASF763
 8432 3343 3B        	.byte0x3b
 8433 3344 0746      	.word0x746
 8434 3346 0000 033B 	.long0x33b
 8435 334a 00        	.byte0
 8436 334b 09        	.uleb128 0x9
 8437 334c 0000 0000 	.long.LASF641
 8438 3350 3B        	.byte0x3b
 8439 3351 0747      	.word0x747
 8440 3353 0000 033B 	.long0x33b
 8441 3357 04        	.byte0x4
 8442 3358 09        	.uleb128 0x9
 8443 3359 0000 0000 	.long.LASF764
 8444 335d 3B        	.byte0x3b
 8445 335e 0748      	.word0x748
 8446 3360 0000 033B 	.long0x33b
 8447 3364 08        	.byte0x8
 8448 3365 09        	.uleb128 0x9
 8449 3366 0000 0000 	.long.LASF765
 8450 336a 3B        	.byte0x3b
 8451 336b 0749      	.word0x749
 8452 336d 0000 32C8 	.long0x32c8
 8453 3371 0C        	.byte0xc
 8454 3372 09        	.uleb128 0x9
 8455 3373 0000 0000 	.long.LASF766
 8456 3377 3B        	.byte0x3b
 8457 3378 074A      	.word0x74a
 8458 337a 0000 0D09 	.long0xd09
 8459 337e 10        	.byte0x10
 8460 337f 00        	.byte0
 8461 3380 0D        	.uleb128 0xd
 8462 3381 0000 0000 	.long.LASF767
 8463 3385 3B        	.byte0x3b
 8464 3386 074B      	.word0x74b
 8465 3388 0000 3335 	.long0x3335
 8466 338c 03        	.uleb128 0x3
 8467 338d 0000 3380 	.long0x3380
 8468 3391 1F        	.uleb128 0x1f
 8469 3392 0000 0000 	.long.LASF768
 8470 3396 3B        	.byte0x3b
 8471 3397 074E      	.word0x74e
 8472 3399 0000 338C 	.long0x338c
 8473 339d 04        	.uleb128 0x4
 8474 339e 0000 0000 	.long.LASF769
 8475 33a2 3C        	.byte0x3c
 8476 33a3 2D        	.byte0x2d
 8477 33a4 0000 0BD6 	.long0xbd6
 8478 33a8 1F        	.uleb128 0x1f
 8479 33a9 0000 0000 	.long.LASF770
 8480 33ad 3D        	.byte0x3d
 8481 33ae 01C4      	.word0x1c4
 8482 33b0 0000 27CC 	.long0x27cc
 8483 33b4 22        	.uleb128 0x22
 8484 33b5 0000 0000 	.long.LASF771
 8485 33b9 3E        	.byte0x3e
 8486 33ba 7F        	.byte0x7f
 8487 33bb 0000 0113 	.long0x113
68K GAS   			page 173


 8488 33bf 06        	.uleb128 0x6
 8489 33c0 0000 0000 	.long.LASF772
 8490 33c4 0C        	.byte0xc
 8491 33c5 3F        	.byte0x3f
 8492 33c6 27        	.byte0x27
 8493 33c7 0000 33F0 	.long0x33f0
 8494 33cb 07        	.uleb128 0x7
 8495 33cc 0000 0000 	.long.LASF773
 8496 33d0 3F        	.byte0x3f
 8497 33d1 2B        	.byte0x2b
 8498 33d2 0000 0BD6 	.long0xbd6
 8499 33d6 00        	.byte0
 8500 33d7 07        	.uleb128 0x7
 8501 33d8 0000 0000 	.long.LASF774
 8502 33dc 3F        	.byte0x3f
 8503 33dd 30        	.byte0x30
 8504 33de 0000 339D 	.long0x339d
 8505 33e2 04        	.byte0x4
 8506 33e3 07        	.uleb128 0x7
 8507 33e4 0000 0000 	.long.LASF690
 8508 33e8 3F        	.byte0x3f
 8509 33e9 36        	.byte0x36
 8510 33ea 0000 0450 	.long0x450
 8511 33ee 08        	.byte0x8
 8512 33ef 00        	.byte0
 8513 33f0 04        	.uleb128 0x4
 8514 33f1 0000 0000 	.long.LASF772
 8515 33f5 3F        	.byte0x3f
 8516 33f6 37        	.byte0x37
 8517 33f7 0000 33BF 	.long0x33bf
 8518 33fb 10        	.uleb128 0x10
 8519 33fc 0000 33F0 	.long0x33f0
 8520 3400 0000 3406 	.long0x3406
 8521 3404 23        	.uleb128 0x23
 8522 3405 00        	.byte0
 8523 3406 22        	.uleb128 0x22
 8524 3407 0000 0000 	.long.LASF775
 8525 340b 3F        	.byte0x3f
 8526 340c 3F        	.byte0x3f
 8527 340d 0000 33FB 	.long0x33fb
 8528 3411 22        	.uleb128 0x22
 8529 3412 0000 0000 	.long.LASF776
 8530 3416 3F        	.byte0x3f
 8531 3417 47        	.byte0x47
 8532 3418 0000 00AF 	.long0xaf
 8533 341c 22        	.uleb128 0x22
 8534 341d 0000 0000 	.long.LASF777
 8535 3421 3F        	.byte0x3f
 8536 3422 8C        	.byte0x8c
 8537 3423 0000 27CC 	.long0x27cc
 8538 3427 06        	.uleb128 0x6
 8539 3428 0000 0000 	.long.LASF778
 8540 342c 18        	.byte0x18
 8541 342d 40        	.byte0x40
 8542 342e 24        	.byte0x24
 8543 342f 0000 3488 	.long0x3488
 8544 3433 07        	.uleb128 0x7
68K GAS   			page 174


 8545 3434 0000 0000 	.long.LASF773
 8546 3438 40        	.byte0x40
 8547 3439 29        	.byte0x29
 8548 343a 0000 00AF 	.long0xaf
 8549 343e 00        	.byte0
 8550 343f 07        	.uleb128 0x7
 8551 3440 0000 0000 	.long.LASF779
 8552 3444 40        	.byte0x40
 8553 3445 2E        	.byte0x2e
 8554 3446 0000 00AF 	.long0xaf
 8555 344a 04        	.byte0x4
 8556 344b 07        	.uleb128 0x7
 8557 344c 0000 0000 	.long.LASF780
 8558 3450 40        	.byte0x40
 8559 3451 33        	.byte0x33
 8560 3452 0000 00AF 	.long0xaf
 8561 3456 08        	.byte0x8
 8562 3457 07        	.uleb128 0x7
 8563 3458 0000 0000 	.long.LASF781
 8564 345c 40        	.byte0x40
 8565 345d 38        	.byte0x38
 8566 345e 0000 0113 	.long0x113
 8567 3462 0C        	.byte0xc
 8568 3463 07        	.uleb128 0x7
 8569 3464 0000 0000 	.long.LASF782
 8570 3468 40        	.byte0x40
 8571 3469 3D        	.byte0x3d
 8572 346a 0000 00AF 	.long0xaf
 8573 346e 10        	.byte0x10
 8574 346f 07        	.uleb128 0x7
 8575 3470 0000 0000 	.long.LASF783
 8576 3474 40        	.byte0x40
 8577 3475 42        	.byte0x42
 8578 3476 0000 118F 	.long0x118f
 8579 347a 14        	.byte0x14
 8580 347b 07        	.uleb128 0x7
 8581 347c 0000 0000 	.long.LASF784
 8582 3480 40        	.byte0x40
 8583 3481 47        	.byte0x47
 8584 3482 0000 118F 	.long0x118f
 8585 3486 15        	.byte0x15
 8586 3487 00        	.byte0
 8587 3488 04        	.uleb128 0x4
 8588 3489 0000 0000 	.long.LASF785
 8589 348d 40        	.byte0x40
 8590 348e 49        	.byte0x49
 8591 348f 0000 3427 	.long0x3427
 8592 3493 04        	.uleb128 0x4
 8593 3494 0000 0000 	.long.LASF786
 8594 3498 41        	.byte0x41
 8595 3499 E6        	.byte0xe6
 8596 349a 0000 002C 	.long0x2c
 8597 349e 04        	.uleb128 0x4
 8598 349f 0000 0000 	.long.LASF787
 8599 34a3 41        	.byte0x41
 8600 34a4 E9        	.byte0xe9
 8601 34a5 0000 005C 	.long0x5c
68K GAS   			page 175


 8602 34a9 04        	.uleb128 0x4
 8603 34aa 0000 0000 	.long.LASF788
 8604 34ae 41        	.byte0x41
 8605 34af EB        	.byte0xeb
 8606 34b0 0000 002C 	.long0x2c
 8607 34b4 04        	.uleb128 0x4
 8608 34b5 0000 0000 	.long.LASF789
 8609 34b9 41        	.byte0x41
 8610 34ba ED        	.byte0xed
 8611 34bb 0000 006E 	.long0x6e
 8612 34bf 04        	.uleb128 0x4
 8613 34c0 0000 0000 	.long.LASF790
 8614 34c4 41        	.byte0x41
 8615 34c5 EE        	.byte0xee
 8616 34c6 0000 0092 	.long0x92
 8617 34ca 0D        	.uleb128 0xd
 8618 34cb 0000 0000 	.long.LASF791
 8619 34cf 41        	.byte0x41
 8620 34d0 0131      	.word0x131
 8621 34d2 0000 3493 	.long0x3493
 8622 34d6 04        	.uleb128 0x4
 8623 34d7 0000 0000 	.long.LASF792
 8624 34db 42        	.byte0x42
 8625 34dc 79        	.byte0x79
 8626 34dd 0000 34E1 	.long0x34e1
 8627 34e1 10        	.uleb128 0x10
 8628 34e2 0000 0346 	.long0x346
 8629 34e6 0000 34F1 	.long0x34f1
 8630 34ea 11        	.uleb128 0x11
 8631 34eb 0000 006E 	.long0x6e
 8632 34ef 22        	.byte0x22
 8633 34f0 00        	.byte0
 8634 34f1 04        	.uleb128 0x4
 8635 34f2 0000 0000 	.long.LASF793
 8636 34f6 43        	.byte0x43
 8637 34f7 C5        	.byte0xc5
 8638 34f8 0000 34D6 	.long0x34d6
 8639 34fc 12        	.uleb128 0x12
 8640 34fd CC        	.byte0xcc
 8641 34fe 43        	.byte0x43
 8642 34ff CC        	.byte0xcc
 8643 3500 0000 3571 	.long0x3571
 8644 3504 07        	.uleb128 0x7
 8645 3505 0000 0000 	.long.LASF794
 8646 3509 43        	.byte0x43
 8647 350a CE        	.byte0xce
 8648 350b 0000 3571 	.long0x3571
 8649 350f 00        	.byte0
 8650 3510 07        	.uleb128 0x7
 8651 3511 0000 0000 	.long.LASF795
 8652 3515 43        	.byte0x43
 8653 3516 CF        	.byte0xcf
 8654 3517 0000 3581 	.long0x3581
 8655 351b 20        	.byte0x20
 8656 351c 07        	.uleb128 0x7
 8657 351d 0000 0000 	.long.LASF796
 8658 3521 43        	.byte0x43
68K GAS   			page 176


 8659 3522 D0        	.byte0xd0
 8660 3523 0000 34B4 	.long0x34b4
 8661 3527 60        	.byte0x60
 8662 3528 07        	.uleb128 0x7
 8663 3529 0000 0000 	.long.LASF797
 8664 352d 43        	.byte0x43
 8665 352e D1        	.byte0xd1
 8666 352f 0000 34A9 	.long0x34a9
 8667 3533 64        	.byte0x64
 8668 3534 07        	.uleb128 0x7
 8669 3535 0000 0000 	.long.LASF798
 8670 3539 43        	.byte0x43
 8671 353a D2        	.byte0xd2
 8672 353b 0000 34A9 	.long0x34a9
 8673 353f 65        	.byte0x65
 8674 3540 07        	.uleb128 0x7
 8675 3541 0000 0000 	.long.LASF799
 8676 3545 43        	.byte0x43
 8677 3546 D3        	.byte0xd3
 8678 3547 0000 34A9 	.long0x34a9
 8679 354b 66        	.byte0x66
 8680 354c 07        	.uleb128 0x7
 8681 354d 0000 0000 	.long.LASF800
 8682 3551 43        	.byte0x43
 8683 3552 D4        	.byte0xd4
 8684 3553 0000 3571 	.long0x3571
 8685 3557 67        	.byte0x67
 8686 3558 07        	.uleb128 0x7
 8687 3559 0000 0000 	.long.LASF801
 8688 355d 43        	.byte0x43
 8689 355e D5        	.byte0xd5
 8690 355f 0000 3581 	.long0x3581
 8691 3563 87        	.byte0x87
 8692 3564 07        	.uleb128 0x7
 8693 3565 0000 0000 	.long.LASF802
 8694 3569 43        	.byte0x43
 8695 356a D6        	.byte0xd6
 8696 356b 0000 34B4 	.long0x34b4
 8697 356f C8        	.byte0xc8
 8698 3570 00        	.byte0
 8699 3571 10        	.uleb128 0x10
 8700 3572 0000 0346 	.long0x346
 8701 3576 0000 3581 	.long0x3581
 8702 357a 11        	.uleb128 0x11
 8703 357b 0000 006E 	.long0x6e
 8704 357f 1F        	.byte0x1f
 8705 3580 00        	.byte0
 8706 3581 10        	.uleb128 0x10
 8707 3582 0000 0346 	.long0x346
 8708 3586 0000 3591 	.long0x3591
 8709 358a 11        	.uleb128 0x11
 8710 358b 0000 006E 	.long0x6e
 8711 358f 3F        	.byte0x3f
 8712 3590 00        	.byte0
 8713 3591 04        	.uleb128 0x4
 8714 3592 0000 0000 	.long.LASF803
 8715 3596 43        	.byte0x43
68K GAS   			page 177


 8716 3597 D8        	.byte0xd8
 8717 3598 0000 34FC 	.long0x34fc
 8718 359c 12        	.uleb128 0x12
 8719 359d 4C        	.byte0x4c
 8720 359e 43        	.byte0x43
 8721 359f DA        	.byte0xda
 8722 35a0 0000 35D5 	.long0x35d5
 8723 35a4 07        	.uleb128 0x7
 8724 35a5 0000 0000 	.long.LASF804
 8725 35a9 43        	.byte0x43
 8726 35aa DC        	.byte0xdc
 8727 35ab 0000 349E 	.long0x349e
 8728 35af 00        	.byte0
 8729 35b0 07        	.uleb128 0x7
 8730 35b1 0000 0000 	.long.LASF805
 8731 35b5 43        	.byte0x43
 8732 35b6 DD        	.byte0xdd
 8733 35b7 0000 3581 	.long0x3581
 8734 35bb 04        	.byte0x4
 8735 35bc 07        	.uleb128 0x7
 8736 35bd 0000 0000 	.long.LASF806
 8737 35c1 43        	.byte0x43
 8738 35c2 DE        	.byte0xde
 8739 35c3 0000 34B4 	.long0x34b4
 8740 35c7 44        	.byte0x44
 8741 35c8 07        	.uleb128 0x7
 8742 35c9 0000 0000 	.long.LASF807
 8743 35cd 43        	.byte0x43
 8744 35ce DF        	.byte0xdf
 8745 35cf 0000 34A9 	.long0x34a9
 8746 35d3 48        	.byte0x48
 8747 35d4 00        	.byte0
 8748 35d5 04        	.uleb128 0x4
 8749 35d6 0000 0000 	.long.LASF808
 8750 35da 43        	.byte0x43
 8751 35db E0        	.byte0xe0
 8752 35dc 0000 359C 	.long0x359c
 8753 35e0 12        	.uleb128 0x12
 8754 35e1 10        	.byte0x10
 8755 35e2 43        	.byte0x43
 8756 35e3 E2        	.byte0xe2
 8757 35e4 0000 3619 	.long0x3619
 8758 35e8 07        	.uleb128 0x7
 8759 35e9 0000 0000 	.long.LASF809
 8760 35ed 43        	.byte0x43
 8761 35ee E4        	.byte0xe4
 8762 35ef 0000 34B4 	.long0x34b4
 8763 35f3 00        	.byte0
 8764 35f4 07        	.uleb128 0x7
 8765 35f5 0000 0000 	.long.LASF810
 8766 35f9 43        	.byte0x43
 8767 35fa E5        	.byte0xe5
 8768 35fb 0000 34B4 	.long0x34b4
 8769 35ff 04        	.byte0x4
 8770 3600 07        	.uleb128 0x7
 8771 3601 0000 0000 	.long.LASF811
 8772 3605 43        	.byte0x43
68K GAS   			page 178


 8773 3606 E6        	.byte0xe6
 8774 3607 0000 34B4 	.long0x34b4
 8775 360b 08        	.byte0x8
 8776 360c 07        	.uleb128 0x7
 8777 360d 0000 0000 	.long.LASF812
 8778 3611 43        	.byte0x43
 8779 3612 E7        	.byte0xe7
 8780 3613 0000 34B4 	.long0x34b4
 8781 3617 0C        	.byte0xc
 8782 3618 00        	.byte0
 8783 3619 04        	.uleb128 0x4
 8784 361a 0000 0000 	.long.LASF813
 8785 361e 43        	.byte0x43
 8786 361f E8        	.byte0xe8
 8787 3620 0000 35E0 	.long0x35e0
 8788 3624 04        	.uleb128 0x4
 8789 3625 0000 0000 	.long.LASF814
 8790 3629 43        	.byte0x43
 8791 362a F1        	.byte0xf1
 8792 362b 0000 006E 	.long0x6e
 8793 362f 10        	.uleb128 0x10
 8794 3630 0000 3591 	.long0x3591
 8795 3634 0000 363F 	.long0x363f
 8796 3638 11        	.uleb128 0x11
 8797 3639 0000 006E 	.long0x6e
 8798 363d 0D        	.byte0xd
 8799 363e 00        	.byte0
 8800 363f 22        	.uleb128 0x22
 8801 3640 0000 0000 	.long.LASF815
 8802 3644 01        	.byte0x1
 8803 3645 42        	.byte0x42
 8804 3646 0000 362F 	.long0x362f
 8805 364a 10        	.uleb128 0x10
 8806 364b 0000 35D5 	.long0x35d5
 8807 364f 0000 365A 	.long0x365a
 8808 3653 11        	.uleb128 0x11
 8809 3654 0000 006E 	.long0x6e
 8810 3658 31        	.byte0x31
 8811 3659 00        	.byte0
 8812 365a 22        	.uleb128 0x22
 8813 365b 0000 0000 	.long.LASF816
 8814 365f 01        	.byte0x1
 8815 3660 47        	.byte0x47
 8816 3661 0000 364A 	.long0x364a
 8817 3665 22        	.uleb128 0x22
 8818 3666 0000 0000 	.long.LASF817
 8819 366a 01        	.byte0x1
 8820 366b 4D        	.byte0x4d
 8821 366c 0000 1E89 	.long0x1e89
 8822 3670 22        	.uleb128 0x22
 8823 3671 0000 0000 	.long.LASF818
 8824 3675 01        	.byte0x1
 8825 3676 59        	.byte0x59
 8826 3677 0000 27C1 	.long0x27c1
 8827 367b 22        	.uleb128 0x22
 8828 367c 0000 0000 	.long.LASF819
 8829 3680 01        	.byte0x1
68K GAS   			page 179


 8830 3681 5A        	.byte0x5a
 8831 3682 0000 2A43 	.long0x2a43
 8832 3686 2C        	.uleb128 0x2c
 8833 3687 0000 0000 	.long.LASF820
 8834 368b 01        	.byte0x1
 8835 368c 03D1      	.word0x3d1
 8836 368e 0000 349E 	.long0x349e
 8837 3692 0000 0000 	.long.LFB290
 8838 3696 0000 00AE 	.long.LFE290-.LFB290
 8839 369a 01        	.uleb128 0x1
 8840 369b 9C        	.byte0x9c
 8841 369c 0000 36BD 	.long0x36bd
 8842 36a0 2D        	.uleb128 0x2d
 8843 36a1 0000 0000 	.long.LASF822
 8844 36a5 01        	.byte0x1
 8845 36a6 03D1      	.word0x3d1
 8846 36a8 0000 36BD 	.long0x36bd
 8847 36ac 02        	.uleb128 0x2
 8848 36ad 91        	.byte0x91
 8849 36ae 00        	.sleb128 0
 8850 36af 2E        	.uleb128 0x2e
 8851 36b0 6900      	.string"i"
 8852 36b2 01        	.byte0x1
 8853 36b3 03D3      	.word0x3d3
 8854 36b5 0000 0113 	.long0x113
 8855 36b9 02        	.uleb128 0x2
 8856 36ba 91        	.byte0x91
 8857 36bb 78        	.sleb128 -8
 8858 36bc 00        	.byte0
 8859 36bd 0A        	.uleb128 0xa
 8860 36be 04        	.byte0x4
 8861 36bf 0000 3619 	.long0x3619
 8862 36c3 2F        	.uleb128 0x2f
 8863 36c4 0000 0000 	.long.LASF821
 8864 36c8 01        	.byte0x1
 8865 36c9 0398      	.word0x398
 8866 36cb 0000 349E 	.long0x349e
 8867 36cf 0000 0000 	.long.LFB289
 8868 36d3 0000 039C 	.long.LFE289-.LFB289
 8869 36d7 01        	.uleb128 0x1
 8870 36d8 9C        	.byte0x9c
 8871 36d9 0000 371A 	.long0x371a
 8872 36dd 2D        	.uleb128 0x2d
 8873 36de 0000 0000 	.long.LASF823
 8874 36e2 01        	.byte0x1
 8875 36e3 0398      	.word0x398
 8876 36e5 0000 349E 	.long0x349e
 8877 36e9 02        	.uleb128 0x2
 8878 36ea 91        	.byte0x91
 8879 36eb 00        	.sleb128 0
 8880 36ec 2D        	.uleb128 0x2d
 8881 36ed 0000 0000 	.long.LASF824
 8882 36f1 01        	.byte0x1
 8883 36f2 0398      	.word0x398
 8884 36f4 0000 371A 	.long0x371a
 8885 36f8 02        	.uleb128 0x2
 8886 36f9 91        	.byte0x91
68K GAS   			page 180


 8887 36fa 04        	.sleb128 4
 8888 36fb 30        	.uleb128 0x30
 8889 36fc 0000 0000 	.long.LASF825
 8890 3700 01        	.byte0x1
 8891 3701 03A3      	.word0x3a3
 8892 3703 0000 34F1 	.long0x34f1
 8893 3707 02        	.uleb128 0x2
 8894 3708 91        	.byte0x91
 8895 3709 55        	.sleb128 -43
 8896 370a 30        	.uleb128 0x30
 8897 370b 0000 0000 	.long.LASF434
 8898 370f 01        	.byte0x1
 8899 3710 03A4      	.word0x3a4
 8900 3712 0000 349E 	.long0x349e
 8901 3716 02        	.uleb128 0x2
 8902 3717 91        	.byte0x91
 8903 3718 78        	.sleb128 -8
 8904 3719 00        	.byte0
 8905 371a 0A        	.uleb128 0xa
 8906 371b 04        	.byte0x4
 8907 371c 0000 34F1 	.long0x34f1
 8908 3720 2F        	.uleb128 0x2f
 8909 3721 0000 0000 	.long.LASF826
 8910 3725 01        	.byte0x1
 8911 3726 0361      	.word0x361
 8912 3728 0000 349E 	.long0x349e
 8913 372c 0000 0000 	.long.LFB288
 8914 3730 0000 0074 	.long.LFE288-.LFB288
 8915 3734 01        	.uleb128 0x1
 8916 3735 9C        	.byte0x9c
 8917 3736 0000 3759 	.long0x3759
 8918 373a 2D        	.uleb128 0x2d
 8919 373b 0000 0000 	.long.LASF827
 8920 373f 01        	.byte0x1
 8921 3740 0361      	.word0x361
 8922 3742 0000 033B 	.long0x33b
 8923 3746 02        	.uleb128 0x2
 8924 3747 91        	.byte0x91
 8925 3748 00        	.sleb128 0
 8926 3749 2D        	.uleb128 0x2d
 8927 374a 0000 0000 	.long.LASF828
 8928 374e 01        	.byte0x1
 8929 374f 0361      	.word0x361
 8930 3751 0000 087B 	.long0x87b
 8931 3755 02        	.uleb128 0x2
 8932 3756 91        	.byte0x91
 8933 3757 04        	.sleb128 4
 8934 3758 00        	.byte0
 8935 3759 2F        	.uleb128 0x2f
 8936 375a 0000 0000 	.long.LASF829
 8937 375e 01        	.byte0x1
 8938 375f 032C      	.word0x32c
 8939 3761 0000 349E 	.long0x349e
 8940 3765 0000 0000 	.long.LFB287
 8941 3769 0000 00DC 	.long.LFE287-.LFB287
 8942 376d 01        	.uleb128 0x1
 8943 376e 9C        	.byte0x9c
68K GAS   			page 181


 8944 376f 0000 37AE 	.long0x37ae
 8945 3773 2D        	.uleb128 0x2d
 8946 3774 0000 0000 	.long.LASF830
 8947 3778 01        	.byte0x1
 8948 3779 032C      	.word0x32c
 8949 377b 0000 087B 	.long0x87b
 8950 377f 02        	.uleb128 0x2
 8951 3780 91        	.byte0x91
 8952 3781 00        	.sleb128 0
 8953 3782 2D        	.uleb128 0x2d
 8954 3783 0000 0000 	.long.LASF801
 8955 3787 01        	.byte0x1
 8956 3788 032C      	.word0x32c
 8957 378a 0000 087B 	.long0x87b
 8958 378e 02        	.uleb128 0x2
 8959 378f 91        	.byte0x91
 8960 3790 04        	.sleb128 4
 8961 3791 30        	.uleb128 0x30
 8962 3792 0000 0000 	.long.LASF831
 8963 3796 01        	.byte0x1
 8964 3797 032E      	.word0x32e
 8965 3799 0000 349E 	.long0x349e
 8966 379d 02        	.uleb128 0x2
 8967 379e 91        	.byte0x91
 8968 379f 78        	.sleb128 -8
 8969 37a0 2E        	.uleb128 0x2e
 8970 37a1 6900      	.string"i"
 8971 37a3 01        	.byte0x1
 8972 37a4 032F      	.word0x32f
 8973 37a6 0000 0113 	.long0x113
 8974 37aa 02        	.uleb128 0x2
 8975 37ab 91        	.byte0x91
 8976 37ac 74        	.sleb128 -12
 8977 37ad 00        	.byte0
 8978 37ae 2C        	.uleb128 0x2c
 8979 37af 0000 0000 	.long.LASF832
 8980 37b3 01        	.byte0x1
 8981 37b4 031D      	.word0x31d
 8982 37b6 0000 3624 	.long0x3624
 8983 37ba 0000 0000 	.long.LFB286
 8984 37be 0000 0010 	.long.LFE286-.LFB286
 8985 37c2 01        	.uleb128 0x1
 8986 37c3 9C        	.byte0x9c
 8987 37c4 0000 37E7 	.long0x37e7
 8988 37c8 2D        	.uleb128 0x2d
 8989 37c9 0000 0000 	.long.LASF211
 8990 37cd 01        	.byte0x1
 8991 37ce 031D      	.word0x31d
 8992 37d0 0000 033B 	.long0x33b
 8993 37d4 02        	.uleb128 0x2
 8994 37d5 91        	.byte0x91
 8995 37d6 00        	.sleb128 0
 8996 37d7 2D        	.uleb128 0x2d
 8997 37d8 0000 0000 	.long.LASF833
 8998 37dc 01        	.byte0x1
 8999 37dd 031D      	.word0x31d
 9000 37df 0000 34CA 	.long0x34ca
68K GAS   			page 182


 9001 37e3 02        	.uleb128 0x2
 9002 37e4 91        	.byte0x91
 9003 37e5 78        	.sleb128 -8
 9004 37e6 00        	.byte0
 9005 37e7 2F        	.uleb128 0x2f
 9006 37e8 0000 0000 	.long.LASF834
 9007 37ec 01        	.byte0x1
 9008 37ed 02DF      	.word0x2df
 9009 37ef 0000 349E 	.long0x349e
 9010 37f3 0000 0000 	.long.LFB285
 9011 37f7 0000 00EC 	.long.LFE285-.LFB285
 9012 37fb 01        	.uleb128 0x1
 9013 37fc 9C        	.byte0x9c
 9014 37fd 0000 387C 	.long0x387c
 9015 3801 2D        	.uleb128 0x2d
 9016 3802 0000 0000 	.long.LASF211
 9017 3806 01        	.byte0x1
 9018 3807 02DF      	.word0x2df
 9019 3809 0000 033B 	.long0x33b
 9020 380d 02        	.uleb128 0x2
 9021 380e 91        	.byte0x91
 9022 380f 00        	.sleb128 0
 9023 3810 2D        	.uleb128 0x2d
 9024 3811 0000 0000 	.long.LASF835
 9025 3815 01        	.byte0x1
 9026 3816 02DF      	.word0x2df
 9027 3818 0000 387C 	.long0x387c
 9028 381c 02        	.uleb128 0x2
 9029 381d 91        	.byte0x91
 9030 381e 04        	.sleb128 4
 9031 381f 30        	.uleb128 0x30
 9032 3820 0000 0000 	.long.LASF836
 9033 3824 01        	.byte0x1
 9034 3825 02E1      	.word0x2e1
 9035 3827 0000 0113 	.long0x113
 9036 382b 02        	.uleb128 0x2
 9037 382c 91        	.byte0x91
 9038 382d 70        	.sleb128 -16
 9039 382e 30        	.uleb128 0x30
 9040 382f 0000 0000 	.long.LASF837
 9041 3833 01        	.byte0x1
 9042 3834 02E2      	.word0x2e2
 9043 3836 0000 116E 	.long0x116e
 9044 383a 02        	.uleb128 0x2
 9045 383b 91        	.byte0x91
 9046 383c 74        	.sleb128 -12
 9047 383d 30        	.uleb128 0x30
 9048 383e 0000 0000 	.long.LASF838
 9049 3842 01        	.byte0x1
 9050 3843 02E3      	.word0x2e3
 9051 3845 0000 349E 	.long0x349e
 9052 3849 02        	.uleb128 0x2
 9053 384a 91        	.byte0x91
 9054 384b 78        	.sleb128 -8
 9055 384c 30        	.uleb128 0x30
 9056 384d 0000 0000 	.long.LASF839
 9057 3851 01        	.byte0x1
68K GAS   			page 183


 9058 3852 02E4      	.word0x2e4
 9059 3854 0000 0E63 	.long0xe63
 9060 3858 03        	.uleb128 0x3
 9061 3859 91        	.byte0x91
 9062 385a B07F      	.sleb128 -80
 9063 385c 30        	.uleb128 0x30
 9064 385d 0000 0000 	.long.LASF840
 9065 3861 01        	.byte0x1
 9066 3862 02E5      	.word0x2e5
 9067 3864 0000 34BF 	.long0x34bf
 9068 3868 02        	.uleb128 0x2
 9069 3869 91        	.byte0x91
 9070 386a 68        	.sleb128 -24
 9071 386b 30        	.uleb128 0x30
 9072 386c 0000 0000 	.long.LASF841
 9073 3870 01        	.byte0x1
 9074 3871 02E6      	.word0x2e6
 9075 3873 0000 3882 	.long0x3882
 9076 3877 03        	.uleb128 0x3
 9077 3878 91        	.byte0x91
 9078 3879 AF7E      	.sleb128 -209
 9079 387b 00        	.byte0
 9080 387c 0A        	.uleb128 0xa
 9081 387d 04        	.byte0x4
 9082 387e 0000 34BF 	.long0x34bf
 9083 3882 10        	.uleb128 0x10
 9084 3883 0000 0346 	.long0x346
 9085 3887 0000 3892 	.long0x3892
 9086 388b 11        	.uleb128 0x11
 9087 388c 0000 006E 	.long0x6e
 9088 3890 80        	.byte0x80
 9089 3891 00        	.byte0
 9090 3892 2F        	.uleb128 0x2f
 9091 3893 0000 0000 	.long.LASF842
 9092 3897 01        	.byte0x1
 9093 3898 02A2      	.word0x2a2
 9094 389a 0000 349E 	.long0x349e
 9095 389e 0000 0000 	.long.LFB284
 9096 38a2 0000 00A0 	.long.LFE284-.LFB284
 9097 38a6 01        	.uleb128 0x1
 9098 38a7 9C        	.byte0x9c
 9099 38a8 0000 3909 	.long0x3909
 9100 38ac 2D        	.uleb128 0x2d
 9101 38ad 0000 0000 	.long.LASF211
 9102 38b1 01        	.byte0x1
 9103 38b2 02A2      	.word0x2a2
 9104 38b4 0000 033B 	.long0x33b
 9105 38b8 02        	.uleb128 0x2
 9106 38b9 91        	.byte0x91
 9107 38ba 00        	.sleb128 0
 9108 38bb 30        	.uleb128 0x30
 9109 38bc 0000 0000 	.long.LASF836
 9110 38c0 01        	.byte0x1
 9111 38c1 02A5      	.word0x2a5
 9112 38c3 0000 0113 	.long0x113
 9113 38c7 02        	.uleb128 0x2
 9114 38c8 91        	.byte0x91
68K GAS   			page 184


 9115 38c9 70        	.sleb128 -16
 9116 38ca 30        	.uleb128 0x30
 9117 38cb 0000 0000 	.long.LASF838
 9118 38cf 01        	.byte0x1
 9119 38d0 02A6      	.word0x2a6
 9120 38d2 0000 349E 	.long0x349e
 9121 38d6 02        	.uleb128 0x2
 9122 38d7 91        	.byte0x91
 9123 38d8 78        	.sleb128 -8
 9124 38d9 30        	.uleb128 0x30
 9125 38da 0000 0000 	.long.LASF839
 9126 38de 01        	.byte0x1
 9127 38df 02A7      	.word0x2a7
 9128 38e1 0000 0E63 	.long0xe63
 9129 38e5 03        	.uleb128 0x3
 9130 38e6 91        	.byte0x91
 9131 38e7 B87F      	.sleb128 -72
 9132 38e9 30        	.uleb128 0x30
 9133 38ea 0000 0000 	.long.LASF837
 9134 38ee 01        	.byte0x1
 9135 38ef 02A8      	.word0x2a8
 9136 38f1 0000 116E 	.long0x116e
 9137 38f5 02        	.uleb128 0x2
 9138 38f6 91        	.byte0x91
 9139 38f7 74        	.sleb128 -12
 9140 38f8 30        	.uleb128 0x30
 9141 38f9 0000 0000 	.long.LASF841
 9142 38fd 01        	.byte0x1
 9143 38fe 02A9      	.word0x2a9
 9144 3900 0000 3882 	.long0x3882
 9145 3904 03        	.uleb128 0x3
 9146 3905 91        	.byte0x91
 9147 3906 B77E      	.sleb128 -201
 9148 3908 00        	.byte0
 9149 3909 2F        	.uleb128 0x2f
 9150 390a 0000 0000 	.long.LASF843
 9151 390e 01        	.byte0x1
 9152 390f 0242      	.word0x242
 9153 3911 0000 349E 	.long0x349e
 9154 3915 0000 0000 	.long.LFB283
 9155 3919 0000 020E 	.long.LFE283-.LFB283
 9156 391d 01        	.uleb128 0x1
 9157 391e 9C        	.byte0x9c
 9158 391f 0000 396E 	.long0x396e
 9159 3923 2D        	.uleb128 0x2d
 9160 3924 0000 0000 	.long.LASF844
 9161 3928 01        	.byte0x1
 9162 3929 0242      	.word0x242
 9163 392b 0000 033B 	.long0x33b
 9164 392f 02        	.uleb128 0x2
 9165 3930 91        	.byte0x91
 9166 3931 00        	.sleb128 0
 9167 3932 30        	.uleb128 0x30
 9168 3933 0000 0000 	.long.LASF845
 9169 3937 01        	.byte0x1
 9170 3938 0244      	.word0x244
 9171 393a 0000 396E 	.long0x396e
68K GAS   			page 185


 9172 393e 03        	.uleb128 0x3
 9173 393f 91        	.byte0x91
 9174 3940 F07E      	.sleb128 -144
 9175 3942 30        	.uleb128 0x30
 9176 3943 0000 0000 	.long.LASF836
 9177 3947 01        	.byte0x1
 9178 3948 0245      	.word0x245
 9179 394a 0000 349E 	.long0x349e
 9180 394e 02        	.uleb128 0x2
 9181 394f 91        	.byte0x91
 9182 3950 74        	.sleb128 -12
 9183 3951 30        	.uleb128 0x30
 9184 3952 0000 0000 	.long.LASF837
 9185 3956 01        	.byte0x1
 9186 3957 0246      	.word0x246
 9187 3959 0000 116E 	.long0x116e
 9188 395d 02        	.uleb128 0x2
 9189 395e 91        	.byte0x91
 9190 395f 70        	.sleb128 -16
 9191 3960 2E        	.uleb128 0x2e
 9192 3961 6900      	.string"i"
 9193 3963 01        	.byte0x1
 9194 3964 0247      	.word0x247
 9195 3966 0000 0113 	.long0x113
 9196 396a 02        	.uleb128 0x2
 9197 396b 91        	.byte0x91
 9198 396c 78        	.sleb128 -8
 9199 396d 00        	.byte0
 9200 396e 10        	.uleb128 0x10
 9201 396f 0000 0346 	.long0x346
 9202 3973 0000 397E 	.long0x397e
 9203 3977 11        	.uleb128 0x11
 9204 3978 0000 006E 	.long0x6e
 9205 397c 7F        	.byte0x7f
 9206 397d 00        	.byte0
 9207 397e 2F        	.uleb128 0x2f
 9208 397f 0000 0000 	.long.LASF846
 9209 3983 01        	.byte0x1
 9210 3984 01E3      	.word0x1e3
 9211 3986 0000 349E 	.long0x349e
 9212 398a 0000 0000 	.long.LFB282
 9213 398e 0000 0230 	.long.LFE282-.LFB282
 9214 3992 01        	.uleb128 0x1
 9215 3993 9C        	.byte0x9c
 9216 3994 0000 39D3 	.long0x39d3
 9217 3998 2D        	.uleb128 0x2d
 9218 3999 0000 0000 	.long.LASF847
 9219 399d 01        	.byte0x1
 9220 399e 01E3      	.word0x1e3
 9221 39a0 0000 033B 	.long0x33b
 9222 39a4 02        	.uleb128 0x2
 9223 39a5 91        	.byte0x91
 9224 39a6 00        	.sleb128 0
 9225 39a7 2D        	.uleb128 0x2d
 9226 39a8 0000 0000 	.long.LASF844
 9227 39ac 01        	.byte0x1
 9228 39ad 01E3      	.word0x1e3
68K GAS   			page 186


 9229 39af 0000 087B 	.long0x87b
 9230 39b3 02        	.uleb128 0x2
 9231 39b4 91        	.byte0x91
 9232 39b5 04        	.sleb128 4
 9233 39b6 2E        	.uleb128 0x2e
 9234 39b7 6900      	.string"i"
 9235 39b9 01        	.byte0x1
 9236 39ba 01E5      	.word0x1e5
 9237 39bc 0000 0113 	.long0x113
 9238 39c0 02        	.uleb128 0x2
 9239 39c1 91        	.byte0x91
 9240 39c2 78        	.sleb128 -8
 9241 39c3 30        	.uleb128 0x30
 9242 39c4 0000 0000 	.long.LASF837
 9243 39c8 01        	.byte0x1
 9244 39c9 01E6      	.word0x1e6
 9245 39cb 0000 116E 	.long0x116e
 9246 39cf 02        	.uleb128 0x2
 9247 39d0 91        	.byte0x91
 9248 39d1 74        	.sleb128 -12
 9249 39d2 00        	.byte0
 9250 39d3 2F        	.uleb128 0x2f
 9251 39d4 0000 0000 	.long.LASF848
 9252 39d8 01        	.byte0x1
 9253 39d9 0180      	.word0x180
 9254 39db 0000 349E 	.long0x349e
 9255 39df 0000 0000 	.long.LFB281
 9256 39e3 0000 0268 	.long.LFE281-.LFB281
 9257 39e7 01        	.uleb128 0x1
 9258 39e8 9C        	.byte0x9c
 9259 39e9 0000 3A64 	.long0x3a64
 9260 39ed 2D        	.uleb128 0x2d
 9261 39ee 0000 0000 	.long.LASF849
 9262 39f2 01        	.byte0x1
 9263 39f3 0180      	.word0x180
 9264 39f5 0000 087B 	.long0x87b
 9265 39f9 02        	.uleb128 0x2
 9266 39fa 91        	.byte0x91
 9267 39fb 00        	.sleb128 0
 9268 39fc 2D        	.uleb128 0x2d
 9269 39fd 0000 0000 	.long.LASF847
 9270 3a01 01        	.byte0x1
 9271 3a02 0180      	.word0x180
 9272 3a04 0000 087B 	.long0x87b
 9273 3a08 02        	.uleb128 0x2
 9274 3a09 91        	.byte0x91
 9275 3a0a 04        	.sleb128 4
 9276 3a0b 2D        	.uleb128 0x2d
 9277 3a0c 0000 0000 	.long.LASF850
 9278 3a10 01        	.byte0x1
 9279 3a11 0180      	.word0x180
 9280 3a13 0000 087B 	.long0x87b
 9281 3a17 02        	.uleb128 0x2
 9282 3a18 91        	.byte0x91
 9283 3a19 08        	.sleb128 8
 9284 3a1a 2D        	.uleb128 0x2d
 9285 3a1b 0000 0000 	.long.LASF851
68K GAS   			page 187


 9286 3a1f 01        	.byte0x1
 9287 3a20 0181      	.word0x181
 9288 3a22 0000 34B4 	.long0x34b4
 9289 3a26 02        	.uleb128 0x2
 9290 3a27 91        	.byte0x91
 9291 3a28 0C        	.sleb128 12
 9292 3a29 2D        	.uleb128 0x2d
 9293 3a2a 0000 0000 	.long.LASF852
 9294 3a2e 01        	.byte0x1
 9295 3a2f 0181      	.word0x181
 9296 3a31 0000 34B4 	.long0x34b4
 9297 3a35 02        	.uleb128 0x2
 9298 3a36 91        	.byte0x91
 9299 3a37 10        	.sleb128 16
 9300 3a38 2E        	.uleb128 0x2e
 9301 3a39 6900      	.string"i"
 9302 3a3b 01        	.byte0x1
 9303 3a3c 0183      	.word0x183
 9304 3a3e 0000 0113 	.long0x113
 9305 3a42 02        	.uleb128 0x2
 9306 3a43 91        	.byte0x91
 9307 3a44 78        	.sleb128 -8
 9308 3a45 30        	.uleb128 0x30
 9309 3a46 0000 0000 	.long.LASF831
 9310 3a4a 01        	.byte0x1
 9311 3a4b 0184      	.word0x184
 9312 3a4d 0000 349E 	.long0x349e
 9313 3a51 02        	.uleb128 0x2
 9314 3a52 91        	.byte0x91
 9315 3a53 74        	.sleb128 -12
 9316 3a54 30        	.uleb128 0x30
 9317 3a55 0000 0000 	.long.LASF837
 9318 3a59 01        	.byte0x1
 9319 3a5a 0185      	.word0x185
 9320 3a5c 0000 116E 	.long0x116e
 9321 3a60 02        	.uleb128 0x2
 9322 3a61 91        	.byte0x91
 9323 3a62 70        	.sleb128 -16
 9324 3a63 00        	.byte0
 9325 3a64 2F        	.uleb128 0x2f
 9326 3a65 0000 0000 	.long.LASF853
 9327 3a69 01        	.byte0x1
 9328 3a6a 013F      	.word0x13f
 9329 3a6c 0000 349E 	.long0x349e
 9330 3a70 0000 0000 	.long.LFB280
 9331 3a74 0000 0106 	.long.LFE280-.LFB280
 9332 3a78 01        	.uleb128 0x1
 9333 3a79 9C        	.byte0x9c
 9334 3a7a 0000 3AB9 	.long0x3ab9
 9335 3a7e 2D        	.uleb128 0x2d
 9336 3a7f 0000 0000 	.long.LASF847
 9337 3a83 01        	.byte0x1
 9338 3a84 013F      	.word0x13f
 9339 3a86 0000 087B 	.long0x87b
 9340 3a8a 02        	.uleb128 0x2
 9341 3a8b 91        	.byte0x91
 9342 3a8c 00        	.sleb128 0
68K GAS   			page 188


 9343 3a8d 2E        	.uleb128 0x2e
 9344 3a8e 6900      	.string"i"
 9345 3a90 01        	.byte0x1
 9346 3a91 0141      	.word0x141
 9347 3a93 0000 0113 	.long0x113
 9348 3a97 02        	.uleb128 0x2
 9349 3a98 91        	.byte0x91
 9350 3a99 78        	.sleb128 -8
 9351 3a9a 30        	.uleb128 0x30
 9352 3a9b 0000 0000 	.long.LASF831
 9353 3a9f 01        	.byte0x1
 9354 3aa0 0142      	.word0x142
 9355 3aa2 0000 349E 	.long0x349e
 9356 3aa6 02        	.uleb128 0x2
 9357 3aa7 91        	.byte0x91
 9358 3aa8 74        	.sleb128 -12
 9359 3aa9 30        	.uleb128 0x30
 9360 3aaa 0000 0000 	.long.LASF837
 9361 3aae 01        	.byte0x1
 9362 3aaf 0143      	.word0x143
 9363 3ab1 0000 116E 	.long0x116e
 9364 3ab5 02        	.uleb128 0x2
 9365 3ab6 91        	.byte0x91
 9366 3ab7 70        	.sleb128 -16
 9367 3ab8 00        	.byte0
 9368 3ab9 31        	.uleb128 0x31
 9369 3aba 0000 0000 	.long.LASF854
 9370 3abe 01        	.byte0x1
 9371 3abf C5        	.byte0xc5
 9372 3ac0 0000 349E 	.long0x349e
 9373 3ac4 0000 0000 	.long.LFB279
 9374 3ac8 0000 02BC 	.long.LFE279-.LFB279
 9375 3acc 01        	.uleb128 0x1
 9376 3acd 9C        	.byte0x9c
 9377 3ace 0000 3B4F 	.long0x3b4f
 9378 3ad2 32        	.uleb128 0x32
 9379 3ad3 0000 0000 	.long.LASF849
 9380 3ad7 01        	.byte0x1
 9381 3ad8 C5        	.byte0xc5
 9382 3ad9 0000 087B 	.long0x87b
 9383 3add 02        	.uleb128 0x2
 9384 3ade 91        	.byte0x91
 9385 3adf 00        	.sleb128 0
 9386 3ae0 32        	.uleb128 0x32
 9387 3ae1 0000 0000 	.long.LASF847
 9388 3ae5 01        	.byte0x1
 9389 3ae6 C5        	.byte0xc5
 9390 3ae7 0000 087B 	.long0x87b
 9391 3aeb 02        	.uleb128 0x2
 9392 3aec 91        	.byte0x91
 9393 3aed 04        	.sleb128 4
 9394 3aee 32        	.uleb128 0x32
 9395 3aef 0000 0000 	.long.LASF850
 9396 3af3 01        	.byte0x1
 9397 3af4 C5        	.byte0xc5
 9398 3af5 0000 087B 	.long0x87b
 9399 3af9 02        	.uleb128 0x2
68K GAS   			page 189


 9400 3afa 91        	.byte0x91
 9401 3afb 08        	.sleb128 8
 9402 3afc 32        	.uleb128 0x32
 9403 3afd 0000 0000 	.long.LASF851
 9404 3b01 01        	.byte0x1
 9405 3b02 C5        	.byte0xc5
 9406 3b03 0000 34B4 	.long0x34b4
 9407 3b07 02        	.uleb128 0x2
 9408 3b08 91        	.byte0x91
 9409 3b09 0C        	.sleb128 12
 9410 3b0a 32        	.uleb128 0x32
 9411 3b0b 0000 0000 	.long.LASF852
 9412 3b0f 01        	.byte0x1
 9413 3b10 C6        	.byte0xc6
 9414 3b11 0000 34B4 	.long0x34b4
 9415 3b15 02        	.uleb128 0x2
 9416 3b16 91        	.byte0x91
 9417 3b17 10        	.sleb128 16
 9418 3b18 33        	.uleb128 0x33
 9419 3b19 6900      	.string"i"
 9420 3b1b 01        	.byte0x1
 9421 3b1c C8        	.byte0xc8
 9422 3b1d 0000 0113 	.long0x113
 9423 3b21 02        	.uleb128 0x2
 9424 3b22 91        	.byte0x91
 9425 3b23 78        	.sleb128 -8
 9426 3b24 34        	.uleb128 0x34
 9427 3b25 0000 0000 	.long.LASF831
 9428 3b29 01        	.byte0x1
 9429 3b2a C9        	.byte0xc9
 9430 3b2b 0000 34B4 	.long0x34b4
 9431 3b2f 02        	.uleb128 0x2
 9432 3b30 91        	.byte0x91
 9433 3b31 74        	.sleb128 -12
 9434 3b32 34        	.uleb128 0x34
 9435 3b33 0000 0000 	.long.LASF855
 9436 3b37 01        	.byte0x1
 9437 3b38 CA        	.byte0xca
 9438 3b39 0000 3488 	.long0x3488
 9439 3b3d 02        	.uleb128 0x2
 9440 3b3e 91        	.byte0x91
 9441 3b3f 58        	.sleb128 -40
 9442 3b40 34        	.uleb128 0x34
 9443 3b41 0000 0000 	.long.LASF837
 9444 3b45 01        	.byte0x1
 9445 3b46 CB        	.byte0xcb
 9446 3b47 0000 116E 	.long0x116e
 9447 3b4b 02        	.uleb128 0x2
 9448 3b4c 91        	.byte0x91
 9449 3b4d 70        	.sleb128 -16
 9450 3b4e 00        	.byte0
 9451 3b4f 31        	.uleb128 0x31
 9452 3b50 0000 0000 	.long.LASF856
 9453 3b54 01        	.byte0x1
 9454 3b55 66        	.byte0x66
 9455 3b56 0000 349E 	.long0x349e
 9456 3b5a 0000 0000 	.long.LFB278
68K GAS   			page 190


 9457 3b5e 0000 00C2 	.long.LFE278-.LFB278
 9458 3b62 01        	.uleb128 0x1
 9459 3b63 9C        	.byte0x9c
 9460 3b64 0000 3BCA 	.long0x3bca
 9461 3b68 32        	.uleb128 0x32
 9462 3b69 0000 0000 	.long.LASF857
 9463 3b6d 01        	.byte0x1
 9464 3b6e 66        	.byte0x66
 9465 3b6f 0000 087B 	.long0x87b
 9466 3b73 02        	.uleb128 0x2
 9467 3b74 91        	.byte0x91
 9468 3b75 00        	.sleb128 0
 9469 3b76 32        	.uleb128 0x32
 9470 3b77 0000 0000 	.long.LASF849
 9471 3b7b 01        	.byte0x1
 9472 3b7c 66        	.byte0x66
 9473 3b7d 0000 3BCA 	.long0x3bca
 9474 3b81 02        	.uleb128 0x2
 9475 3b82 91        	.byte0x91
 9476 3b83 04        	.sleb128 4
 9477 3b84 32        	.uleb128 0x32
 9478 3b85 0000 0000 	.long.LASF773
 9479 3b89 01        	.byte0x1
 9480 3b8a 66        	.byte0x66
 9481 3b8b 0000 34B4 	.long0x34b4
 9482 3b8f 02        	.uleb128 0x2
 9483 3b90 91        	.byte0x91
 9484 3b91 08        	.sleb128 8
 9485 3b92 32        	.uleb128 0x32
 9486 3b93 0000 0000 	.long.LASF858
 9487 3b97 01        	.byte0x1
 9488 3b98 66        	.byte0x66
 9489 3b99 0000 34B4 	.long0x34b4
 9490 3b9d 02        	.uleb128 0x2
 9491 3b9e 91        	.byte0x91
 9492 3b9f 0C        	.sleb128 12
 9493 3ba0 34        	.uleb128 0x34
 9494 3ba1 0000 0000 	.long.LASF859
 9495 3ba5 01        	.byte0x1
 9496 3ba6 68        	.byte0x68
 9497 3ba7 0000 2725 	.long0x2725
 9498 3bab 02        	.uleb128 0x2
 9499 3bac 91        	.byte0x91
 9500 3bad 70        	.sleb128 -16
 9501 3bae 33        	.uleb128 0x33
 9502 3baf 7363 00   	.string"sc"
 9503 3bb2 01        	.byte0x1
 9504 3bb3 69        	.byte0x69
 9505 3bb4 0000 116E 	.long0x116e
 9506 3bb8 02        	.uleb128 0x2
 9507 3bb9 91        	.byte0x91
 9508 3bba 74        	.sleb128 -12
 9509 3bbb 34        	.uleb128 0x34
 9510 3bbc 0000 0000 	.long.LASF860
 9511 3bc0 01        	.byte0x1
 9512 3bc1 6A        	.byte0x6a
 9513 3bc2 0000 34B4 	.long0x34b4
68K GAS   			page 191


 9514 3bc6 02        	.uleb128 0x2
 9515 3bc7 91        	.byte0x91
 9516 3bc8 78        	.sleb128 -8
 9517 3bc9 00        	.byte0
 9518 3bca 0A        	.uleb128 0xa
 9519 3bcb 04        	.byte0x4
 9520 3bcc 0000 34B4 	.long0x34b4
 9521 3bd0 00        	.byte0
 9522               	.section.debug_abbrev,"",@progbits
 9523               	.Ldebug_abbrev0:
 9524 0000 01        	.uleb128 0x1
 9525 0001 11        	.uleb128 0x11
 9526 0002 01        	.byte0x1
 9527 0003 25        	.uleb128 0x25
 9528 0004 0E        	.uleb128 0xe
 9529 0005 13        	.uleb128 0x13
 9530 0006 0B        	.uleb128 0xb
 9531 0007 03        	.uleb128 0x3
 9532 0008 0E        	.uleb128 0xe
 9533 0009 1B        	.uleb128 0x1b
 9534 000a 0E        	.uleb128 0xe
 9535 000b 11        	.uleb128 0x11
 9536 000c 01        	.uleb128 0x1
 9537 000d 12        	.uleb128 0x12
 9538 000e 06        	.uleb128 0x6
 9539 000f 10        	.uleb128 0x10
 9540 0010 17        	.uleb128 0x17
 9541 0011 00        	.byte0
 9542 0012 00        	.byte0
 9543 0013 02        	.uleb128 0x2
 9544 0014 24        	.uleb128 0x24
 9545 0015 00        	.byte0
 9546 0016 0B        	.uleb128 0xb
 9547 0017 0B        	.uleb128 0xb
 9548 0018 3E        	.uleb128 0x3e
 9549 0019 0B        	.uleb128 0xb
 9550 001a 03        	.uleb128 0x3
 9551 001b 0E        	.uleb128 0xe
 9552 001c 00        	.byte0
 9553 001d 00        	.byte0
 9554 001e 03        	.uleb128 0x3
 9555 001f 26        	.uleb128 0x26
 9556 0020 00        	.byte0
 9557 0021 49        	.uleb128 0x49
 9558 0022 13        	.uleb128 0x13
 9559 0023 00        	.byte0
 9560 0024 00        	.byte0
 9561 0025 04        	.uleb128 0x4
 9562 0026 16        	.uleb128 0x16
 9563 0027 00        	.byte0
 9564 0028 03        	.uleb128 0x3
 9565 0029 0E        	.uleb128 0xe
 9566 002a 3A        	.uleb128 0x3a
 9567 002b 0B        	.uleb128 0xb
 9568 002c 3B        	.uleb128 0x3b
 9569 002d 0B        	.uleb128 0xb
 9570 002e 49        	.uleb128 0x49
68K GAS   			page 192


 9571 002f 13        	.uleb128 0x13
 9572 0030 00        	.byte0
 9573 0031 00        	.byte0
 9574 0032 05        	.uleb128 0x5
 9575 0033 24        	.uleb128 0x24
 9576 0034 00        	.byte0
 9577 0035 0B        	.uleb128 0xb
 9578 0036 0B        	.uleb128 0xb
 9579 0037 3E        	.uleb128 0x3e
 9580 0038 0B        	.uleb128 0xb
 9581 0039 03        	.uleb128 0x3
 9582 003a 08        	.uleb128 0x8
 9583 003b 00        	.byte0
 9584 003c 00        	.byte0
 9585 003d 06        	.uleb128 0x6
 9586 003e 13        	.uleb128 0x13
 9587 003f 01        	.byte0x1
 9588 0040 03        	.uleb128 0x3
 9589 0041 0E        	.uleb128 0xe
 9590 0042 0B        	.uleb128 0xb
 9591 0043 0B        	.uleb128 0xb
 9592 0044 3A        	.uleb128 0x3a
 9593 0045 0B        	.uleb128 0xb
 9594 0046 3B        	.uleb128 0x3b
 9595 0047 0B        	.uleb128 0xb
 9596 0048 01        	.uleb128 0x1
 9597 0049 13        	.uleb128 0x13
 9598 004a 00        	.byte0
 9599 004b 00        	.byte0
 9600 004c 07        	.uleb128 0x7
 9601 004d 0D        	.uleb128 0xd
 9602 004e 00        	.byte0
 9603 004f 03        	.uleb128 0x3
 9604 0050 0E        	.uleb128 0xe
 9605 0051 3A        	.uleb128 0x3a
 9606 0052 0B        	.uleb128 0xb
 9607 0053 3B        	.uleb128 0x3b
 9608 0054 0B        	.uleb128 0xb
 9609 0055 49        	.uleb128 0x49
 9610 0056 13        	.uleb128 0x13
 9611 0057 38        	.uleb128 0x38
 9612 0058 0B        	.uleb128 0xb
 9613 0059 00        	.byte0
 9614 005a 00        	.byte0
 9615 005b 08        	.uleb128 0x8
 9616 005c 13        	.uleb128 0x13
 9617 005d 01        	.byte0x1
 9618 005e 03        	.uleb128 0x3
 9619 005f 0E        	.uleb128 0xe
 9620 0060 0B        	.uleb128 0xb
 9621 0061 0B        	.uleb128 0xb
 9622 0062 3A        	.uleb128 0x3a
 9623 0063 0B        	.uleb128 0xb
 9624 0064 3B        	.uleb128 0x3b
 9625 0065 05        	.uleb128 0x5
 9626 0066 01        	.uleb128 0x1
 9627 0067 13        	.uleb128 0x13
68K GAS   			page 193


 9628 0068 00        	.byte0
 9629 0069 00        	.byte0
 9630 006a 09        	.uleb128 0x9
 9631 006b 0D        	.uleb128 0xd
 9632 006c 00        	.byte0
 9633 006d 03        	.uleb128 0x3
 9634 006e 0E        	.uleb128 0xe
 9635 006f 3A        	.uleb128 0x3a
 9636 0070 0B        	.uleb128 0xb
 9637 0071 3B        	.uleb128 0x3b
 9638 0072 05        	.uleb128 0x5
 9639 0073 49        	.uleb128 0x49
 9640 0074 13        	.uleb128 0x13
 9641 0075 38        	.uleb128 0x38
 9642 0076 0B        	.uleb128 0xb
 9643 0077 00        	.byte0
 9644 0078 00        	.byte0
 9645 0079 0A        	.uleb128 0xa
 9646 007a 0F        	.uleb128 0xf
 9647 007b 00        	.byte0
 9648 007c 0B        	.uleb128 0xb
 9649 007d 0B        	.uleb128 0xb
 9650 007e 49        	.uleb128 0x49
 9651 007f 13        	.uleb128 0x13
 9652 0080 00        	.byte0
 9653 0081 00        	.byte0
 9654 0082 0B        	.uleb128 0xb
 9655 0083 13        	.uleb128 0x13
 9656 0084 01        	.byte0x1
 9657 0085 03        	.uleb128 0x3
 9658 0086 0E        	.uleb128 0xe
 9659 0087 0B        	.uleb128 0xb
 9660 0088 05        	.uleb128 0x5
 9661 0089 3A        	.uleb128 0x3a
 9662 008a 0B        	.uleb128 0xb
 9663 008b 3B        	.uleb128 0x3b
 9664 008c 05        	.uleb128 0x5
 9665 008d 01        	.uleb128 0x1
 9666 008e 13        	.uleb128 0x13
 9667 008f 00        	.byte0
 9668 0090 00        	.byte0
 9669 0091 0C        	.uleb128 0xc
 9670 0092 0D        	.uleb128 0xd
 9671 0093 00        	.byte0
 9672 0094 03        	.uleb128 0x3
 9673 0095 0E        	.uleb128 0xe
 9674 0096 3A        	.uleb128 0x3a
 9675 0097 0B        	.uleb128 0xb
 9676 0098 3B        	.uleb128 0x3b
 9677 0099 05        	.uleb128 0x5
 9678 009a 49        	.uleb128 0x49
 9679 009b 13        	.uleb128 0x13
 9680 009c 38        	.uleb128 0x38
 9681 009d 05        	.uleb128 0x5
 9682 009e 00        	.byte0
 9683 009f 00        	.byte0
 9684 00a0 0D        	.uleb128 0xd
68K GAS   			page 194


 9685 00a1 16        	.uleb128 0x16
 9686 00a2 00        	.byte0
 9687 00a3 03        	.uleb128 0x3
 9688 00a4 0E        	.uleb128 0xe
 9689 00a5 3A        	.uleb128 0x3a
 9690 00a6 0B        	.uleb128 0xb
 9691 00a7 3B        	.uleb128 0x3b
 9692 00a8 05        	.uleb128 0x5
 9693 00a9 49        	.uleb128 0x49
 9694 00aa 13        	.uleb128 0x13
 9695 00ab 00        	.byte0
 9696 00ac 00        	.byte0
 9697 00ad 0E        	.uleb128 0xe
 9698 00ae 17        	.uleb128 0x17
 9699 00af 01        	.byte0x1
 9700 00b0 0B        	.uleb128 0xb
 9701 00b1 0B        	.uleb128 0xb
 9702 00b2 3A        	.uleb128 0x3a
 9703 00b3 0B        	.uleb128 0xb
 9704 00b4 3B        	.uleb128 0x3b
 9705 00b5 0B        	.uleb128 0xb
 9706 00b6 01        	.uleb128 0x1
 9707 00b7 13        	.uleb128 0x13
 9708 00b8 00        	.byte0
 9709 00b9 00        	.byte0
 9710 00ba 0F        	.uleb128 0xf
 9711 00bb 0D        	.uleb128 0xd
 9712 00bc 00        	.byte0
 9713 00bd 03        	.uleb128 0x3
 9714 00be 0E        	.uleb128 0xe
 9715 00bf 3A        	.uleb128 0x3a
 9716 00c0 0B        	.uleb128 0xb
 9717 00c1 3B        	.uleb128 0x3b
 9718 00c2 0B        	.uleb128 0xb
 9719 00c3 49        	.uleb128 0x49
 9720 00c4 13        	.uleb128 0x13
 9721 00c5 00        	.byte0
 9722 00c6 00        	.byte0
 9723 00c7 10        	.uleb128 0x10
 9724 00c8 01        	.uleb128 0x1
 9725 00c9 01        	.byte0x1
 9726 00ca 49        	.uleb128 0x49
 9727 00cb 13        	.uleb128 0x13
 9728 00cc 01        	.uleb128 0x1
 9729 00cd 13        	.uleb128 0x13
 9730 00ce 00        	.byte0
 9731 00cf 00        	.byte0
 9732 00d0 11        	.uleb128 0x11
 9733 00d1 21        	.uleb128 0x21
 9734 00d2 00        	.byte0
 9735 00d3 49        	.uleb128 0x49
 9736 00d4 13        	.uleb128 0x13
 9737 00d5 2F        	.uleb128 0x2f
 9738 00d6 0B        	.uleb128 0xb
 9739 00d7 00        	.byte0
 9740 00d8 00        	.byte0
 9741 00d9 12        	.uleb128 0x12
68K GAS   			page 195


 9742 00da 13        	.uleb128 0x13
 9743 00db 01        	.byte0x1
 9744 00dc 0B        	.uleb128 0xb
 9745 00dd 0B        	.uleb128 0xb
 9746 00de 3A        	.uleb128 0x3a
 9747 00df 0B        	.uleb128 0xb
 9748 00e0 3B        	.uleb128 0x3b
 9749 00e1 0B        	.uleb128 0xb
 9750 00e2 01        	.uleb128 0x1
 9751 00e3 13        	.uleb128 0x13
 9752 00e4 00        	.byte0
 9753 00e5 00        	.byte0
 9754 00e6 13        	.uleb128 0x13
 9755 00e7 0F        	.uleb128 0xf
 9756 00e8 00        	.byte0
 9757 00e9 0B        	.uleb128 0xb
 9758 00ea 0B        	.uleb128 0xb
 9759 00eb 00        	.byte0
 9760 00ec 00        	.byte0
 9761 00ed 14        	.uleb128 0x14
 9762 00ee 0D        	.uleb128 0xd
 9763 00ef 00        	.byte0
 9764 00f0 03        	.uleb128 0x3
 9765 00f1 08        	.uleb128 0x8
 9766 00f2 3A        	.uleb128 0x3a
 9767 00f3 0B        	.uleb128 0xb
 9768 00f4 3B        	.uleb128 0x3b
 9769 00f5 0B        	.uleb128 0xb
 9770 00f6 49        	.uleb128 0x49
 9771 00f7 13        	.uleb128 0x13
 9772 00f8 38        	.uleb128 0x38
 9773 00f9 0B        	.uleb128 0xb
 9774 00fa 00        	.byte0
 9775 00fb 00        	.byte0
 9776 00fc 15        	.uleb128 0x15
 9777 00fd 13        	.uleb128 0x13
 9778 00fe 01        	.byte0x1
 9779 00ff 03        	.uleb128 0x3
 9780 0100 0E        	.uleb128 0xe
 9781 0101 0B        	.uleb128 0xb
 9782 0102 05        	.uleb128 0x5
 9783 0103 3A        	.uleb128 0x3a
 9784 0104 0B        	.uleb128 0xb
 9785 0105 3B        	.uleb128 0x3b
 9786 0106 0B        	.uleb128 0xb
 9787 0107 01        	.uleb128 0x1
 9788 0108 13        	.uleb128 0x13
 9789 0109 00        	.byte0
 9790 010a 00        	.byte0
 9791 010b 16        	.uleb128 0x16
 9792 010c 0D        	.uleb128 0xd
 9793 010d 00        	.byte0
 9794 010e 03        	.uleb128 0x3
 9795 010f 0E        	.uleb128 0xe
 9796 0110 3A        	.uleb128 0x3a
 9797 0111 0B        	.uleb128 0xb
 9798 0112 3B        	.uleb128 0x3b
68K GAS   			page 196


 9799 0113 0B        	.uleb128 0xb
 9800 0114 49        	.uleb128 0x49
 9801 0115 13        	.uleb128 0x13
 9802 0116 38        	.uleb128 0x38
 9803 0117 05        	.uleb128 0x5
 9804 0118 00        	.byte0
 9805 0119 00        	.byte0
 9806 011a 17        	.uleb128 0x17
 9807 011b 15        	.uleb128 0x15
 9808 011c 00        	.byte0
 9809 011d 27        	.uleb128 0x27
 9810 011e 19        	.uleb128 0x19
 9811 011f 00        	.byte0
 9812 0120 00        	.byte0
 9813 0121 18        	.uleb128 0x18
 9814 0122 15        	.uleb128 0x15
 9815 0123 01        	.byte0x1
 9816 0124 27        	.uleb128 0x27
 9817 0125 19        	.uleb128 0x19
 9818 0126 49        	.uleb128 0x49
 9819 0127 13        	.uleb128 0x13
 9820 0128 01        	.uleb128 0x1
 9821 0129 13        	.uleb128 0x13
 9822 012a 00        	.byte0
 9823 012b 00        	.byte0
 9824 012c 19        	.uleb128 0x19
 9825 012d 05        	.uleb128 0x5
 9826 012e 00        	.byte0
 9827 012f 49        	.uleb128 0x49
 9828 0130 13        	.uleb128 0x13
 9829 0131 00        	.byte0
 9830 0132 00        	.byte0
 9831 0133 1A        	.uleb128 0x1a
 9832 0134 13        	.uleb128 0x13
 9833 0135 01        	.byte0x1
 9834 0136 0B        	.uleb128 0xb
 9835 0137 0B        	.uleb128 0xb
 9836 0138 3A        	.uleb128 0x3a
 9837 0139 0B        	.uleb128 0xb
 9838 013a 3B        	.uleb128 0x3b
 9839 013b 05        	.uleb128 0x5
 9840 013c 01        	.uleb128 0x1
 9841 013d 13        	.uleb128 0x13
 9842 013e 00        	.byte0
 9843 013f 00        	.byte0
 9844 0140 1B        	.uleb128 0x1b
 9845 0141 17        	.uleb128 0x17
 9846 0142 01        	.byte0x1
 9847 0143 0B        	.uleb128 0xb
 9848 0144 0B        	.uleb128 0xb
 9849 0145 3A        	.uleb128 0x3a
 9850 0146 0B        	.uleb128 0xb
 9851 0147 3B        	.uleb128 0x3b
 9852 0148 05        	.uleb128 0x5
 9853 0149 01        	.uleb128 0x1
 9854 014a 13        	.uleb128 0x13
 9855 014b 00        	.byte0
68K GAS   			page 197


 9856 014c 00        	.byte0
 9857 014d 1C        	.uleb128 0x1c
 9858 014e 0D        	.uleb128 0xd
 9859 014f 00        	.byte0
 9860 0150 03        	.uleb128 0x3
 9861 0151 0E        	.uleb128 0xe
 9862 0152 3A        	.uleb128 0x3a
 9863 0153 0B        	.uleb128 0xb
 9864 0154 3B        	.uleb128 0x3b
 9865 0155 05        	.uleb128 0x5
 9866 0156 49        	.uleb128 0x49
 9867 0157 13        	.uleb128 0x13
 9868 0158 00        	.byte0
 9869 0159 00        	.byte0
 9870 015a 1D        	.uleb128 0x1d
 9871 015b 13        	.uleb128 0x13
 9872 015c 00        	.byte0
 9873 015d 03        	.uleb128 0x3
 9874 015e 0E        	.uleb128 0xe
 9875 015f 3C        	.uleb128 0x3c
 9876 0160 19        	.uleb128 0x19
 9877 0161 00        	.byte0
 9878 0162 00        	.byte0
 9879 0163 1E        	.uleb128 0x1e
 9880 0164 15        	.uleb128 0x15
 9881 0165 01        	.byte0x1
 9882 0166 27        	.uleb128 0x27
 9883 0167 19        	.uleb128 0x19
 9884 0168 01        	.uleb128 0x1
 9885 0169 13        	.uleb128 0x13
 9886 016a 00        	.byte0
 9887 016b 00        	.byte0
 9888 016c 1F        	.uleb128 0x1f
 9889 016d 34        	.uleb128 0x34
 9890 016e 00        	.byte0
 9891 016f 03        	.uleb128 0x3
 9892 0170 0E        	.uleb128 0xe
 9893 0171 3A        	.uleb128 0x3a
 9894 0172 0B        	.uleb128 0xb
 9895 0173 3B        	.uleb128 0x3b
 9896 0174 05        	.uleb128 0x5
 9897 0175 49        	.uleb128 0x49
 9898 0176 13        	.uleb128 0x13
 9899 0177 3F        	.uleb128 0x3f
 9900 0178 19        	.uleb128 0x19
 9901 0179 3C        	.uleb128 0x3c
 9902 017a 19        	.uleb128 0x19
 9903 017b 00        	.byte0
 9904 017c 00        	.byte0
 9905 017d 20        	.uleb128 0x20
 9906 017e 35        	.uleb128 0x35
 9907 017f 00        	.byte0
 9908 0180 49        	.uleb128 0x49
 9909 0181 13        	.uleb128 0x13
 9910 0182 00        	.byte0
 9911 0183 00        	.byte0
 9912 0184 21        	.uleb128 0x21
68K GAS   			page 198


 9913 0185 26        	.uleb128 0x26
 9914 0186 00        	.byte0
 9915 0187 00        	.byte0
 9916 0188 00        	.byte0
 9917 0189 22        	.uleb128 0x22
 9918 018a 34        	.uleb128 0x34
 9919 018b 00        	.byte0
 9920 018c 03        	.uleb128 0x3
 9921 018d 0E        	.uleb128 0xe
 9922 018e 3A        	.uleb128 0x3a
 9923 018f 0B        	.uleb128 0xb
 9924 0190 3B        	.uleb128 0x3b
 9925 0191 0B        	.uleb128 0xb
 9926 0192 49        	.uleb128 0x49
 9927 0193 13        	.uleb128 0x13
 9928 0194 3F        	.uleb128 0x3f
 9929 0195 19        	.uleb128 0x19
 9930 0196 3C        	.uleb128 0x3c
 9931 0197 19        	.uleb128 0x19
 9932 0198 00        	.byte0
 9933 0199 00        	.byte0
 9934 019a 23        	.uleb128 0x23
 9935 019b 21        	.uleb128 0x21
 9936 019c 00        	.byte0
 9937 019d 00        	.byte0
 9938 019e 00        	.byte0
 9939 019f 24        	.uleb128 0x24
 9940 01a0 0D        	.uleb128 0xd
 9941 01a1 00        	.byte0
 9942 01a2 03        	.uleb128 0x3
 9943 01a3 08        	.uleb128 0x8
 9944 01a4 3A        	.uleb128 0x3a
 9945 01a5 0B        	.uleb128 0xb
 9946 01a6 3B        	.uleb128 0x3b
 9947 01a7 0B        	.uleb128 0xb
 9948 01a8 49        	.uleb128 0x49
 9949 01a9 13        	.uleb128 0x13
 9950 01aa 00        	.byte0
 9951 01ab 00        	.byte0
 9952 01ac 25        	.uleb128 0x25
 9953 01ad 04        	.uleb128 0x4
 9954 01ae 01        	.byte0x1
 9955 01af 3E        	.uleb128 0x3e
 9956 01b0 0B        	.uleb128 0xb
 9957 01b1 0B        	.uleb128 0xb
 9958 01b2 0B        	.uleb128 0xb
 9959 01b3 49        	.uleb128 0x49
 9960 01b4 13        	.uleb128 0x13
 9961 01b5 3A        	.uleb128 0x3a
 9962 01b6 0B        	.uleb128 0xb
 9963 01b7 3B        	.uleb128 0x3b
 9964 01b8 0B        	.uleb128 0xb
 9965 01b9 01        	.uleb128 0x1
 9966 01ba 13        	.uleb128 0x13
 9967 01bb 00        	.byte0
 9968 01bc 00        	.byte0
 9969 01bd 26        	.uleb128 0x26
68K GAS   			page 199


 9970 01be 28        	.uleb128 0x28
 9971 01bf 00        	.byte0
 9972 01c0 03        	.uleb128 0x3
 9973 01c1 0E        	.uleb128 0xe
 9974 01c2 1C        	.uleb128 0x1c
 9975 01c3 0B        	.uleb128 0xb
 9976 01c4 00        	.byte0
 9977 01c5 00        	.byte0
 9978 01c6 27        	.uleb128 0x27
 9979 01c7 04        	.uleb128 0x4
 9980 01c8 01        	.byte0x1
 9981 01c9 3E        	.uleb128 0x3e
 9982 01ca 0B        	.uleb128 0xb
 9983 01cb 0B        	.uleb128 0xb
 9984 01cc 0B        	.uleb128 0xb
 9985 01cd 49        	.uleb128 0x49
 9986 01ce 13        	.uleb128 0x13
 9987 01cf 3A        	.uleb128 0x3a
 9988 01d0 0B        	.uleb128 0xb
 9989 01d1 3B        	.uleb128 0x3b
 9990 01d2 05        	.uleb128 0x5
 9991 01d3 01        	.uleb128 0x1
 9992 01d4 13        	.uleb128 0x13
 9993 01d5 00        	.byte0
 9994 01d6 00        	.byte0
 9995 01d7 28        	.uleb128 0x28
 9996 01d8 21        	.uleb128 0x21
 9997 01d9 00        	.byte0
 9998 01da 49        	.uleb128 0x49
 9999 01db 13        	.uleb128 0x13
 10000 01dc 00        	.byte0
 10001 01dd 00        	.byte0
 10002 01de 29        	.uleb128 0x29
 10003 01df 13        	.uleb128 0x13
 10004 01e0 00        	.byte0
 10005 01e1 03        	.uleb128 0x3
 10006 01e2 0E        	.uleb128 0xe
 10007 01e3 0B        	.uleb128 0xb
 10008 01e4 0B        	.uleb128 0xb
 10009 01e5 3A        	.uleb128 0x3a
 10010 01e6 0B        	.uleb128 0xb
 10011 01e7 3B        	.uleb128 0x3b
 10012 01e8 0B        	.uleb128 0xb
 10013 01e9 00        	.byte0
 10014 01ea 00        	.byte0
 10015 01eb 2A        	.uleb128 0x2a
 10016 01ec 28        	.uleb128 0x28
 10017 01ed 00        	.byte0
 10018 01ee 03        	.uleb128 0x3
 10019 01ef 0E        	.uleb128 0xe
 10020 01f0 1C        	.uleb128 0x1c
 10021 01f1 06        	.uleb128 0x6
 10022 01f2 00        	.byte0
 10023 01f3 00        	.byte0
 10024 01f4 2B        	.uleb128 0x2b
 10025 01f5 0D        	.uleb128 0xd
 10026 01f6 00        	.byte0
68K GAS   			page 200


 10027 01f7 03        	.uleb128 0x3
 10028 01f8 08        	.uleb128 0x8
 10029 01f9 3A        	.uleb128 0x3a
 10030 01fa 0B        	.uleb128 0xb
 10031 01fb 3B        	.uleb128 0x3b
 10032 01fc 05        	.uleb128 0x5
 10033 01fd 49        	.uleb128 0x49
 10034 01fe 13        	.uleb128 0x13
 10035 01ff 38        	.uleb128 0x38
 10036 0200 0B        	.uleb128 0xb
 10037 0201 00        	.byte0
 10038 0202 00        	.byte0
 10039 0203 2C        	.uleb128 0x2c
 10040 0204 2E        	.uleb128 0x2e
 10041 0205 01        	.byte0x1
 10042 0206 3F        	.uleb128 0x3f
 10043 0207 19        	.uleb128 0x19
 10044 0208 03        	.uleb128 0x3
 10045 0209 0E        	.uleb128 0xe
 10046 020a 3A        	.uleb128 0x3a
 10047 020b 0B        	.uleb128 0xb
 10048 020c 3B        	.uleb128 0x3b
 10049 020d 05        	.uleb128 0x5
 10050 020e 27        	.uleb128 0x27
 10051 020f 19        	.uleb128 0x19
 10052 0210 49        	.uleb128 0x49
 10053 0211 13        	.uleb128 0x13
 10054 0212 11        	.uleb128 0x11
 10055 0213 01        	.uleb128 0x1
 10056 0214 12        	.uleb128 0x12
 10057 0215 06        	.uleb128 0x6
 10058 0216 40        	.uleb128 0x40
 10059 0217 18        	.uleb128 0x18
 10060 0218 9742      	.uleb128 0x2117
 10061 021a 19        	.uleb128 0x19
 10062 021b 01        	.uleb128 0x1
 10063 021c 13        	.uleb128 0x13
 10064 021d 00        	.byte0
 10065 021e 00        	.byte0
 10066 021f 2D        	.uleb128 0x2d
 10067 0220 05        	.uleb128 0x5
 10068 0221 00        	.byte0
 10069 0222 03        	.uleb128 0x3
 10070 0223 0E        	.uleb128 0xe
 10071 0224 3A        	.uleb128 0x3a
 10072 0225 0B        	.uleb128 0xb
 10073 0226 3B        	.uleb128 0x3b
 10074 0227 05        	.uleb128 0x5
 10075 0228 49        	.uleb128 0x49
 10076 0229 13        	.uleb128 0x13
 10077 022a 02        	.uleb128 0x2
 10078 022b 18        	.uleb128 0x18
 10079 022c 00        	.byte0
 10080 022d 00        	.byte0
 10081 022e 2E        	.uleb128 0x2e
 10082 022f 34        	.uleb128 0x34
 10083 0230 00        	.byte0
68K GAS   			page 201


 10084 0231 03        	.uleb128 0x3
 10085 0232 08        	.uleb128 0x8
 10086 0233 3A        	.uleb128 0x3a
 10087 0234 0B        	.uleb128 0xb
 10088 0235 3B        	.uleb128 0x3b
 10089 0236 05        	.uleb128 0x5
 10090 0237 49        	.uleb128 0x49
 10091 0238 13        	.uleb128 0x13
 10092 0239 02        	.uleb128 0x2
 10093 023a 18        	.uleb128 0x18
 10094 023b 00        	.byte0
 10095 023c 00        	.byte0
 10096 023d 2F        	.uleb128 0x2f
 10097 023e 2E        	.uleb128 0x2e
 10098 023f 01        	.byte0x1
 10099 0240 3F        	.uleb128 0x3f
 10100 0241 19        	.uleb128 0x19
 10101 0242 03        	.uleb128 0x3
 10102 0243 0E        	.uleb128 0xe
 10103 0244 3A        	.uleb128 0x3a
 10104 0245 0B        	.uleb128 0xb
 10105 0246 3B        	.uleb128 0x3b
 10106 0247 05        	.uleb128 0x5
 10107 0248 27        	.uleb128 0x27
 10108 0249 19        	.uleb128 0x19
 10109 024a 49        	.uleb128 0x49
 10110 024b 13        	.uleb128 0x13
 10111 024c 11        	.uleb128 0x11
 10112 024d 01        	.uleb128 0x1
 10113 024e 12        	.uleb128 0x12
 10114 024f 06        	.uleb128 0x6
 10115 0250 40        	.uleb128 0x40
 10116 0251 18        	.uleb128 0x18
 10117 0252 9642      	.uleb128 0x2116
 10118 0254 19        	.uleb128 0x19
 10119 0255 01        	.uleb128 0x1
 10120 0256 13        	.uleb128 0x13
 10121 0257 00        	.byte0
 10122 0258 00        	.byte0
 10123 0259 30        	.uleb128 0x30
 10124 025a 34        	.uleb128 0x34
 10125 025b 00        	.byte0
 10126 025c 03        	.uleb128 0x3
 10127 025d 0E        	.uleb128 0xe
 10128 025e 3A        	.uleb128 0x3a
 10129 025f 0B        	.uleb128 0xb
 10130 0260 3B        	.uleb128 0x3b
 10131 0261 05        	.uleb128 0x5
 10132 0262 49        	.uleb128 0x49
 10133 0263 13        	.uleb128 0x13
 10134 0264 02        	.uleb128 0x2
 10135 0265 18        	.uleb128 0x18
 10136 0266 00        	.byte0
 10137 0267 00        	.byte0
 10138 0268 31        	.uleb128 0x31
 10139 0269 2E        	.uleb128 0x2e
 10140 026a 01        	.byte0x1
68K GAS   			page 202


 10141 026b 3F        	.uleb128 0x3f
 10142 026c 19        	.uleb128 0x19
 10143 026d 03        	.uleb128 0x3
 10144 026e 0E        	.uleb128 0xe
 10145 026f 3A        	.uleb128 0x3a
 10146 0270 0B        	.uleb128 0xb
 10147 0271 3B        	.uleb128 0x3b
 10148 0272 0B        	.uleb128 0xb
 10149 0273 27        	.uleb128 0x27
 10150 0274 19        	.uleb128 0x19
 10151 0275 49        	.uleb128 0x49
 10152 0276 13        	.uleb128 0x13
 10153 0277 11        	.uleb128 0x11
 10154 0278 01        	.uleb128 0x1
 10155 0279 12        	.uleb128 0x12
 10156 027a 06        	.uleb128 0x6
 10157 027b 40        	.uleb128 0x40
 10158 027c 18        	.uleb128 0x18
 10159 027d 9642      	.uleb128 0x2116
 10160 027f 19        	.uleb128 0x19
 10161 0280 01        	.uleb128 0x1
 10162 0281 13        	.uleb128 0x13
 10163 0282 00        	.byte0
 10164 0283 00        	.byte0
 10165 0284 32        	.uleb128 0x32
 10166 0285 05        	.uleb128 0x5
 10167 0286 00        	.byte0
 10168 0287 03        	.uleb128 0x3
 10169 0288 0E        	.uleb128 0xe
 10170 0289 3A        	.uleb128 0x3a
 10171 028a 0B        	.uleb128 0xb
 10172 028b 3B        	.uleb128 0x3b
 10173 028c 0B        	.uleb128 0xb
 10174 028d 49        	.uleb128 0x49
 10175 028e 13        	.uleb128 0x13
 10176 028f 02        	.uleb128 0x2
 10177 0290 18        	.uleb128 0x18
 10178 0291 00        	.byte0
 10179 0292 00        	.byte0
 10180 0293 33        	.uleb128 0x33
 10181 0294 34        	.uleb128 0x34
 10182 0295 00        	.byte0
 10183 0296 03        	.uleb128 0x3
 10184 0297 08        	.uleb128 0x8
 10185 0298 3A        	.uleb128 0x3a
 10186 0299 0B        	.uleb128 0xb
 10187 029a 3B        	.uleb128 0x3b
 10188 029b 0B        	.uleb128 0xb
 10189 029c 49        	.uleb128 0x49
 10190 029d 13        	.uleb128 0x13
 10191 029e 02        	.uleb128 0x2
 10192 029f 18        	.uleb128 0x18
 10193 02a0 00        	.byte0
 10194 02a1 00        	.byte0
 10195 02a2 34        	.uleb128 0x34
 10196 02a3 34        	.uleb128 0x34
 10197 02a4 00        	.byte0
68K GAS   			page 203


 10198 02a5 03        	.uleb128 0x3
 10199 02a6 0E        	.uleb128 0xe
 10200 02a7 3A        	.uleb128 0x3a
 10201 02a8 0B        	.uleb128 0xb
 10202 02a9 3B        	.uleb128 0x3b
 10203 02aa 0B        	.uleb128 0xb
 10204 02ab 49        	.uleb128 0x49
 10205 02ac 13        	.uleb128 0x13
 10206 02ad 02        	.uleb128 0x2
 10207 02ae 18        	.uleb128 0x18
 10208 02af 00        	.byte0
 10209 02b0 00        	.byte0
 10210 02b1 00        	.byte0
 10211               	.section.debug_aranges,"",@progbits
 10212 0000 0000 001C 	.long0x1c
 10213 0004 0002      	.word0x2
 10214 0006 0000 0000 	.long.Ldebug_info0
 10215 000a 04        	.byte0x4
 10216 000b 00        	.byte0
 10217 000c 0000      	.word0
 10218 000e 0000      	.word0
 10219 0010 0000 0000 	.long.Ltext0
 10220 0014 0000 1260 	.long.Letext0-.Ltext0
 10221 0018 0000 0000 	.long0
 10222 001c 0000 0000 	.long0
 10223               	.section.debug_line,"",@progbits
 10224               	.Ldebug_line0:
 10225 0000 0000 0903 	.section.debug_str,"MS",@progbits,1
 10225      0002 0000 
 10225      06CF 0201 
 10225      FB0E 0D00 
 10225      0101 0101 
 10226               	.LASF483:
 10227 0000 6D61 7869 	.string"maximum_semaphores"
 10227      6D75 6D5F 
 10227      7365 6D61 
 10227      7068 6F72 
 10227      6573 00
 10228               	.LASF446:
 10229 0013 4B65 795F 	.string"Key_value_pairs"
 10229      7661 6C75 
 10229      655F 7061 
 10229      6972 7300 
 10230               	.LASF245:
 10231 0023 665F 6666 	.string"f_ffree"
 10231      7265 6500 
 10232               	.LASF700:
 10233 002b 7265 6375 	.string"recursionlevel"
 10233      7273 696F 
 10233      6E6C 6576 
 10233      656C 00
 10234               	.LASF473:
 10235 003a 7274 656D 	.string"rtems_id"
 10235      735F 6964 
 10235      00
 10236               	.LASF236:
 10237 0043 5F73 7973 	.string"_sys_errlist"
68K GAS   			page 204


 10237      5F65 7272 
 10237      6C69 7374 
 10237      00
 10238               	.LASF13:
 10239 0050 5F5F 696E 	.string"__int_least64_t"
 10239      745F 6C65 
 10239      6173 7436 
 10239      345F 7400 
 10240               	.LASF340:
 10241 0060 6163 7469 	.string"actions"
 10241      6F6E 7300 
 10242               	.LASF635:
 10243 0068 6C6F 6361 	.string"location_chain"
 10243      7469 6F6E 
 10243      5F63 6861 
 10243      696E 00
 10244               	.LASF460:
 10245 0077 5468 7265 	.string"Thread_Capture_control"
 10245      6164 5F43 
 10245      6170 7475 
 10245      7265 5F63 
 10245      6F6E 7472 
 10246               	.LASF682:
 10247 008e 7274 656D 	.string"rtems_filesystem_location_info_tt"
 10247      735F 6669 
 10247      6C65 7379 
 10247      7374 656D 
 10247      5F6C 6F63 
 10248               	.LASF420:
 10249 00b0 496E 6974 	.string"Initial_stack"
 10249      6961 6C5F 
 10249      7374 6163 
 10249      6B00 
 10250               	.LASF593:
 10251 00be 7463 5F70 	.string"tc_poll_pps"
 10251      6F6C 6C5F 
 10251      7070 7300 
 10252               	.LASF752:
 10253 00ca 706F 7369 	.string"posix_sync_io"
 10253      785F 7379 
 10253      6E63 5F69 
 10253      6F00 
 10254               	.LASF597:
 10255 00d8 7463 5F71 	.string"tc_quality"
 10255      7561 6C69 
 10255      7479 00
 10256               	.LASF202:
 10257 00e3 6769 645F 	.string"gid_t"
 10257      7400 
 10258               	.LASF518:
 10259 00e9 6D61 7869 	.string"maximum_ports"
 10259      6D75 6D5F 
 10259      706F 7274 
 10259      7300 
 10260               	.LASF747:
 10261 00f7 7069 7065 	.string"pipe_buf"
 10261      5F62 7566 
68K GAS   			page 205


 10261      00
 10262               	.LASF762:
 10263 0100 7274 656D 	.string"rtems_filesystem_mount_table"
 10263      735F 6669 
 10263      6C65 7379 
 10263      7374 656D 
 10263      5F6D 6F75 
 10264               	.LASF730:
 10265 011d 7274 656D 	.string"rtems_filesystem_ioctl_t"
 10265      735F 6669 
 10265      6C65 7379 
 10265      7374 656D 
 10265      5F69 6F63 
 10266               	.LASF275:
 10267 0136 5254 454D 	.string"RTEMS_OBJECT_WAS_DELETED"
 10267      535F 4F42 
 10267      4A45 4354 
 10267      5F57 4153 
 10267      5F44 454C 
 10268               	.LASF850:
 10269 014f 766F 6C6E 	.string"volname"
 10269      616D 6500 
 10270               	.LASF563:
 10271 0157 7274 656D 	.string"rtems_extensions_table"
 10271      735F 6578 
 10271      7465 6E73 
 10271      696F 6E73 
 10271      5F74 6162 
 10272               	.LASF493:
 10273 016e 626C 6F63 	.string"block"
 10273      6B00 
 10274               	.LASF617:
 10275 0174 7274 656D 	.string"rtems_driver_address_table"
 10275      735F 6472 
 10275      6976 6572 
 10275      5F61 6464 
 10275      7265 7373 
 10276               	.LASF265:
 10277 018f 5F43 5055 	.string"_CPU_m68k_BFFFO_table"
 10277      5F6D 3638 
 10277      6B5F 4246 
 10277      4646 4F5F 
 10277      7461 626C 
 10278               	.LASF517:
 10279 01a5 6D61 7869 	.string"maximum_regions"
 10279      6D75 6D5F 
 10279      7265 6769 
 10279      6F6E 7300 
 10280               	.LASF51:
 10281 01b5 6275 6467 	.string"budget_callout"
 10281      6574 5F63 
 10281      616C 6C6F 
 10281      7574 00
 10282               	.LASF128:
 10283 01c4 5F6D 6273 	.string"_mbstate"
 10283      7461 7465 
 10283      00
68K GAS   			page 206


 10284               	.LASF107:
 10285 01cd 5F61 7465 	.string"_atexit"
 10285      7869 7400 
 10286               	.LASF44:
 10287 01d5 5469 6D65 	.string"Timer"
 10287      7200 
 10288               	.LASF728:
 10289 01db 7274 656D 	.string"rtems_filesystem_write_t"
 10289      735F 6669 
 10289      6C65 7379 
 10289      7374 656D 
 10289      5F77 7269 
 10290               	.LASF513:
 10291 01f4 6D6F 6465 	.string"mode_set"
 10291      5F73 6574 
 10291      00
 10292               	.LASF675:
 10293 01fd 756E 6D6F 	.string"unmount_h"
 10293      756E 745F 
 10293      6800 
 10294               	.LASF300:
 10295 0207 5F42 6F6F 	.string"_Bool"
 10295      6C00 
 10296               	.LASF741:
 10297 020d 7274 656D 	.string"rtems_filesystem_handlers_default"
 10297      735F 6669 
 10297      6C65 7379 
 10297      7374 656D 
 10297      5F68 616E 
 10298               	.LASF97:
 10299 022f 5F5F 746D 	.string"__tm_mon"
 10299      5F6D 6F6E 
 10299      00
 10300               	.LASF105:
 10301 0238 5F66 6E74 	.string"_fntypes"
 10301      7970 6573 
 10301      00
 10302               	.LASF183:
 10303 0241 5F67 6C6F 	.string"_global_atexit"
 10303      6261 6C5F 
 10303      6174 6578 
 10303      6974 00
 10304               	.LASF24:
 10305 0250 5F6E 6578 	.string"_next_ticket"
 10305      745F 7469 
 10305      636B 6574 
 10305      00
 10306               	.LASF135:
 10307 025d 5F69 6E63 	.string"_inc"
 10307      00
 10308               	.LASF108:
 10309 0262 5F69 6E64 	.string"_ind"
 10309      00
 10310               	.LASF806:
 10311 0267 5573 6572 	.string"User"
 10311      00
 10312               	.LASF686:
68K GAS   			page 207


 10313 026c 6861 6E64 	.string"handlers"
 10313      6C65 7273 
 10313      00
 10314               	.LASF772:
 10315 0275 7274 656D 	.string"rtems_ramdisk_config"
 10315      735F 7261 
 10315      6D64 6973 
 10315      6B5F 636F 
 10315      6E66 6967 
 10316               	.LASF467:
 10317 028a 5F54 6872 	.string"_Thread_Control_add_on_count"
 10317      6561 645F 
 10317      436F 6E74 
 10317      726F 6C5F 
 10317      6164 645F 
 10318               	.LASF828:
 10319 02a7 4C6F 6361 	.string"LocalPath"
 10319      6C50 6174 
 10319      6800 
 10320               	.LASF592:
 10321 02b1 7463 5F67 	.string"tc_get_timecount"
 10321      6574 5F74 
 10321      696D 6563 
 10321      6F75 6E74 
 10321      00
 10322               	.LASF184:
 10323 02c2 7569 6E74 	.string"uint16_t"
 10323      3136 5F74 
 10323      00
 10324               	.LASF416:
 10325 02cb 5468 7265 	.string"Thread_CPU_budget_algorithm_callout"
 10325      6164 5F43 
 10325      5055 5F62 
 10325      7564 6765 
 10325      745F 616C 
 10326               	.LASF210:
 10327 02ef 6D61 7869 	.string"maximum_priority"
 10327      6D75 6D5F 
 10327      7072 696F 
 10327      7269 7479 
 10327      00
 10328               	.LASF189:
 10329 0300 7469 6D65 	.string"time_t"
 10329      5F74 00
 10330               	.LASF750:
 10331 0307 706F 7369 	.string"posix_no_trunc"
 10331      785F 6E6F 
 10331      5F74 7275 
 10331      6E63 00
 10332               	.LASF831:
 10333 0316 5265 7475 	.string"ReturnCode"
 10333      726E 436F 
 10333      6465 00
 10334               	.LASF114:
 10335 0321 5F66 6C61 	.string"_flags"
 10335      6773 00
 10336               	.LASF306:
68K GAS   			page 208


 10337 0328 6E65 7874 	.string"next"
 10337      00
 10338               	.LASF812:
 10339 032d 4672 6565 	.string"FreeVolumes"
 10339      566F 6C75 
 10339      6D65 7300 
 10340               	.LASF845:
 10341 0339 6C6F 6361 	.string"local_path"
 10341      6C5F 7061 
 10341      7468 00
 10342               	.LASF76:
 10343 0344 5F5F 6F66 	.string"__off_t"
 10343      665F 7400 
 10344               	.LASF145:
 10345 034c 5F63 7674 	.string"_cvtlen"
 10345      6C65 6E00 
 10346               	.LASF613:
 10347 0354 636C 6F73 	.string"close_entry"
 10347      655F 656E 
 10347      7472 7900 
 10348               	.LASF671:
 10349 0360 6368 6F77 	.string"chown_h"
 10349      6E5F 6800 
 10350               	.LASF148:
 10351 0368 5F73 6967 	.string"_sig_func"
 10351      5F66 756E 
 10351      6300 
 10352               	.LASF224:
 10353 0372 7374 5F73 	.string"st_size"
 10353      697A 6500 
 10354               	.LASF323:
 10355 037a 4F62 6A65 	.string"Objects_Id"
 10355      6374 735F 
 10355      4964 00
 10356               	.LASF53:
 10357 0385 5374 6172 	.string"Start"
 10357      7400 
 10358               	.LASF862:
 10359 038b 2F68 6F6D 	.string"/home/simulink/cFS_FreeRTOS_seL4/osal/src/os/rtems/osfilesys.c"
 10359      652F 7369 
 10359      6D75 6C69 
 10359      6E6B 2F63 
 10359      4653 5F46 
 10360               	.LASF837:
 10361 03ca 7274 656D 	.string"rtems_sc"
 10361      735F 7363 
 10361      00
 10362               	.LASF672:
 10363 03d3 636C 6F6E 	.string"clonenod_h"
 10363      656E 6F64 
 10363      5F68 00
 10364               	.LASF603:
 10365 03de 5F54 696D 	.string"_Timecounter_Time_second"
 10365      6563 6F75 
 10365      6E74 6572 
 10365      5F54 696D 
 10365      655F 7365 
68K GAS   			page 209


 10366               	.LASF397:
 10367 03f7 6672 6163 	.string"frac"
 10367      00
 10368               	.LASF127:
 10369 03fc 5F6C 6F63 	.string"_lock"
 10369      6B00 
 10370               	.LASF123:
 10371 0402 5F6E 6275 	.string"_nbuf"
 10371      6600 
 10372               	.LASF277:
 10373 0408 5254 454D 	.string"RTEMS_INVALID_ADDRESS"
 10373      535F 494E 
 10373      5641 4C49 
 10373      445F 4144 
 10373      4452 4553 
 10374               	.LASF179:
 10375 041e 5F75 6E75 	.string"_unused"
 10375      7365 6400 
 10376               	.LASF332:
 10377 0426 5052 494F 	.string"PRIORITY_ACTION_REMOVE"
 10377      5249 5459 
 10377      5F41 4354 
 10377      494F 4E5F 
 10377      5245 4D4F 
 10378               	.LASF556:
 10379 043d 7468 7265 	.string"thread_delete"
 10379      6164 5F64 
 10379      656C 6574 
 10379      6500 
 10380               	.LASF595:
 10381 044b 7463 5F66 	.string"tc_frequency"
 10381      7265 7175 
 10381      656E 6379 
 10381      00
 10382               	.LASF273:
 10383 0458 5254 454D 	.string"RTEMS_TOO_MANY"
 10383      535F 544F 
 10383      4F5F 4D41 
 10383      4E59 00
 10384               	.LASF47:
 10385 0467 6973 5F66 	.string"is_fp"
 10385      7000 
 10386               	.LASF240:
 10387 046d 665F 6672 	.string"f_frsize"
 10387      7369 7A65 
 10387      00
 10388               	.LASF35:
 10389 0476 4672 6565 	.string"Free_chain"
 10389      5F63 6861 
 10389      696E 00
 10390               	.LASF514:
 10391 0481 7274 656D 	.string"rtems_initialization_tasks_table"
 10391      735F 696E 
 10391      6974 6961 
 10391      6C69 7A61 
 10391      7469 6F6E 
 10392               	.LASF702:
68K GAS   			page 210


 10393 04a2 726F 6F74 	.string"rootloc"
 10393      6C6F 6300 
 10394               	.LASF352:
 10395 04aa 726F 7574 	.string"routine"
 10395      696E 6500 
 10396               	.LASF594:
 10397 04b2 7463 5F63 	.string"tc_counter_mask"
 10397      6F75 6E74 
 10397      6572 5F6D 
 10397      6173 6B00 
 10398               	.LASF228:
 10399 04c2 7374 5F62 	.string"st_blksize"
 10399      6C6B 7369 
 10399      7A65 00
 10400               	.LASF290:
 10401 04cd 5254 454D 	.string"RTEMS_NOT_CONFIGURED"
 10401      535F 4E4F 
 10401      545F 434F 
 10401      4E46 4947 
 10401      5552 4544 
 10402               	.LASF185:
 10403 04e2 696E 7433 	.string"int32_t"
 10403      325F 7400 
 10404               	.LASF816:
 10405 04ea 4F53 5F46 	.string"OS_FDTable"
 10405      4454 6162 
 10405      6C65 00
 10406               	.LASF692:
 10407 04f5 6465 6665 	.string"deferred_released_next"
 10407      7272 6564 
 10407      5F72 656C 
 10407      6561 7365 
 10407      645F 6E65 
 10408               	.LASF157:
 10409 050c 5F61 6464 	.string"_add"
 10409      00
 10410               	.LASF512:
 10411 0511 656E 7472 	.string"entry_point"
 10411      795F 706F 
 10411      696E 7400 
 10412               	.LASF827:
 10413 051d 5669 7274 	.string"VirtualPath"
 10413      7561 6C50 
 10413      6174 6800 
 10414               	.LASF579:
 10415 0529 7374 6163 	.string"stack_free_hook"
 10415      6B5F 6672 
 10415      6565 5F68 
 10415      6F6F 6B00 
 10416               	.LASF223:
 10417 0539 7374 5F72 	.string"st_rdev"
 10417      6465 7600 
 10418               	.LASF238:
 10419 0541 7374 6174 	.string"statvfs"
 10419      7666 7300 
 10420               	.LASF535:
 10421 0549 5254 454D 	.string"RTEMS_FATAL_SOURCE_SMP"
68K GAS   			page 211


 10421      535F 4641 
 10421      5441 4C5F 
 10421      534F 5552 
 10421      4345 5F53 
 10422               	.LASF198:
 10423 0560 696E 6F5F 	.string"ino_t"
 10423      7400 
 10424               	.LASF572:
 10425 0566 6D69 6372 	.string"microseconds_per_tick"
 10425      6F73 6563 
 10425      6F6E 6473 
 10425      5F70 6572 
 10425      5F74 6963 
 10426               	.LASF196:
 10427 057c 6673 626C 	.string"fsblkcnt_t"
 10427      6B63 6E74 
 10427      5F74 00
 10428               	.LASF840:
 10429 0587 6279 7465 	.string"bytes_free_local"
 10429      735F 6672 
 10429      6565 5F6C 
 10429      6F63 616C 
 10429      00
 10430               	.LASF623:
 10431 0598 7274 656D 	.string"rtems_chain_control"
 10431      735F 6368 
 10431      6169 6E5F 
 10431      636F 6E74 
 10431      726F 6C00 
 10432               	.LASF753:
 10433 05ac 706F 7369 	.string"posix_vdisable"
 10433      785F 7664 
 10433      6973 6162 
 10433      6C65 00
 10434               	.LASF328:
 10435 05bb 7072 696F 	.string"priority"
 10435      7269 7479 
 10435      00
 10436               	.LASF222:
 10437 05c4 7374 5F67 	.string"st_gid"
 10437      6964 00
 10438               	.LASF206:
 10439 05cb 7362 696E 	.string"sbintime_t"
 10439      7469 6D65 
 10439      5F74 00
 10440               	.LASF326:
 10441 05d6 4368 6169 	.string"Chain"
 10441      6E00 
 10442               	.LASF678:
 10443 05dc 7379 6D6C 	.string"symlink_h"
 10443      696E 6B5F 
 10443      6800 
 10444               	.LASF763:
 10445 05e6 736F 7572 	.string"source"
 10445      6365 00
 10446               	.LASF116:
 10447 05ed 5F6C 6266 	.string"_lbfsize"
68K GAS   			page 212


 10447      7369 7A65 
 10447      00
 10448               	.LASF788:
 10449 05f6 7569 6E74 	.string"uint8"
 10449      3800 
 10450               	.LASF209:
 10451 05fc 4F70 6572 	.string"Operations"
 10451      6174 696F 
 10451      6E73 00
 10452               	.LASF303:
 10453 0607 4953 525F 	.string"ISR_lock_Context"
 10453      6C6F 636B 
 10453      5F43 6F6E 
 10453      7465 7874 
 10453      00
 10454               	.LASF676:
 10455 0618 6673 756E 	.string"fsunmount_me_h"
 10455      6D6F 756E 
 10455      745F 6D65 
 10455      5F68 00
 10456               	.LASF287:
 10457 0627 5254 454D 	.string"RTEMS_INVALID_PRIORITY"
 10457      535F 494E 
 10457      5641 4C49 
 10457      445F 5052 
 10457      494F 5249 
 10458               	.LASF824:
 10459 063e 6572 725F 	.string"err_name"
 10459      6E61 6D65 
 10459      00
 10460               	.LASF358:
 10461 0647 5761 7463 	.string"Watchdog_Header"
 10461      6864 6F67 
 10461      5F48 6561 
 10461      6465 7200 
 10462               	.LASF220:
 10463 0657 7374 5F6E 	.string"st_nlink"
 10463      6C69 6E6B 
 10463      00
 10464               	.LASF805:
 10465 0660 5061 7468 	.string"Path"
 10465      00
 10466               	.LASF768:
 10467 0665 7274 656D 	.string"rtems_filesystem_root_configuration"
 10467      735F 6669 
 10467      6C65 7379 
 10467      7374 656D 
 10467      5F72 6F6F 
 10468               	.LASF227:
 10469 0689 7374 5F63 	.string"st_ctim"
 10469      7469 6D00 
 10470               	.LASF126:
 10471 0691 5F64 6174 	.string"_data"
 10471      6100 
 10472               	.LASF773:
 10473 0697 626C 6F63 	.string"block_size"
 10473      6B5F 7369 
68K GAS   			page 213


 10473      7A65 00
 10474               	.LASF214:
 10475 06a2 5F64 6179 	.string"_daylight"
 10475      6C69 6768 
 10475      7400 
 10476               	.LASF438:
 10477 06ac 7370 6172 	.string"spare_heads"
 10477      655F 6865 
 10477      6164 7300 
 10478               	.LASF130:
 10479 06b8 5F72 6565 	.string"_reent"
 10479      6E74 00
 10480               	.LASF511:
 10481 06bf 6174 7472 	.string"attribute_set"
 10481      6962 7574 
 10481      655F 7365 
 10481      7400 
 10482               	.LASF25:
 10483 06cd 5F6E 6F77 	.string"_now_serving"
 10483      5F73 6572 
 10483      7669 6E67 
 10483      00
 10484               	.LASF549:
 10485 06da 5573 6572 	.string"User_extensions_thread_begin_extension"
 10485      5F65 7874 
 10485      656E 7369 
 10485      6F6E 735F 
 10485      7468 7265 
 10486               	.LASF180:
 10487 0701 5F5F 7366 	.string"__sf"
 10487      00
 10488               	.LASF111:
 10489 0706 5F62 6173 	.string"_base"
 10489      6500 
 10490               	.LASF34:
 10491 070c 4865 6164 	.string"Heads"
 10491      7300 
 10492               	.LASF246:
 10493 0712 665F 6661 	.string"f_favail"
 10493      7661 696C 
 10493      00
 10494               	.LASF166:
 10495 071b 5F6D 6274 	.string"_mbtowc_state"
 10495      6F77 635F 
 10495      7374 6174 
 10495      6500 
 10496               	.LASF266:
 10497 0729 5F52 5445 	.string"_RTEMS_version"
 10497      4D53 5F76 
 10497      6572 7369 
 10497      6F6E 00
 10498               	.LASF520:
 10499 0738 6D61 7869 	.string"maximum_barriers"
 10499      6D75 6D5F 
 10499      6261 7272 
 10499      6965 7273 
 10499      00
68K GAS   			page 214


 10500               	.LASF534:
 10501 0749 5254 454D 	.string"RTEMS_FATAL_SOURCE_EXCEPTION"
 10501      535F 4641 
 10501      5441 4C5F 
 10501      534F 5552 
 10501      4345 5F45 
 10502               	.LASF636:
 10503 0766 6D74 5F70 	.string"mt_point_node"
 10503      6F69 6E74 
 10503      5F6E 6F64 
 10503      6500 
 10504               	.LASF745:
 10505 0774 6E61 6D65 	.string"name_max"
 10505      5F6D 6178 
 10505      00
 10506               	.LASF225:
 10507 077d 7374 5F61 	.string"st_atim"
 10507      7469 6D00 
 10508               	.LASF475:
 10509 0785 7274 656D 	.string"rtems_mode"
 10509      735F 6D6F 
 10509      6465 00
 10510               	.LASF321:
 10511 0790 6E61 6D65 	.string"name_u32"
 10511      5F75 3332 
 10511      00
 10512               	.LASF92:
 10513 0799 5F5F 746D 	.string"__tm"
 10513      00
 10514               	.LASF560:
 10515 079e 6661 7461 	.string"fatal"
 10515      6C00 
 10516               	.LASF231:
 10517 07a4 6F70 7461 	.string"optarg"
 10517      7267 00
 10518               	.LASF835:
 10519 07ab 6279 7465 	.string"bytes_free"
 10519      735F 6672 
 10519      6565 00
 10520               	.LASF307:
 10521 07b6 7072 6576 	.string"previous"
 10521      696F 7573 
 10521      00
 10522               	.LASF370:
 10523 07bf 6865 6164 	.string"heads"
 10523      7300 
 10524               	.LASF441:
 10525 07c5 5761 7463 	.string"Watchdog"
 10525      6864 6F67 
 10525      00
 10526               	.LASF607:
 10527 07ce 7274 656D 	.string"rtems_device_major_number"
 10527      735F 6465 
 10527      7669 6365 
 10527      5F6D 616A 
 10527      6F72 5F6E 
 10528               	.LASF698:
68K GAS   			page 215


 10529 07e8 746F 6B65 	.string"token"
 10529      6E00 
 10530               	.LASF100:
 10531 07ee 5F5F 746D 	.string"__tm_yday"
 10531      5F79 6461 
 10531      7900 
 10532               	.LASF562:
 10533 07f8 5573 6572 	.string"User_extensions_Table"
 10533      5F65 7874 
 10533      656E 7369 
 10533      6F6E 735F 
 10533      5461 626C 
 10534               	.LASF555:
 10535 080e 7468 7265 	.string"thread_restart"
 10535      6164 5F72 
 10535      6573 7461 
 10535      7274 00
 10536               	.LASF283:
 10537 081d 5254 454D 	.string"RTEMS_ALREADY_SUSPENDED"
 10537      535F 414C 
 10537      5245 4144 
 10537      595F 5355 
 10537      5350 454E 
 10538               	.LASF823:
 10539 0835 6572 726F 	.string"error_num"
 10539      725F 6E75 
 10539      6D00 
 10540               	.LASF339:
 10541 083f 7479 7065 	.string"type"
 10541      00
 10542               	.LASF583:
 10543 0844 6E75 6D62 	.string"number_of_initial_extensions"
 10543      6572 5F6F 
 10543      665F 696E 
 10543      6974 6961 
 10543      6C5F 6578 
 10544               	.LASF822:
 10545 0861 6669 6C65 	.string"filesys_info"
 10545      7379 735F 
 10545      696E 666F 
 10545      00
 10546               	.LASF792:
 10547 086e 6F73 5F65 	.string"os_err_name_t"
 10547      7272 5F6E 
 10547      616D 655F 
 10547      7400 
 10548               	.LASF589:
 10549 087c 5F49 5352 	.string"_ISR_Vector_table"
 10549      5F56 6563 
 10549      746F 725F 
 10549      7461 626C 
 10549      6500 
 10550               	.LASF325:
 10551 088e 5072 696F 	.string"Priority_Control"
 10551      7269 7479 
 10551      5F43 6F6E 
 10551      7472 6F6C 
68K GAS   			page 216


 10551      00
 10552               	.LASF616:
 10553 089f 636F 6E74 	.string"control_entry"
 10553      726F 6C5F 
 10553      656E 7472 
 10553      7900 
 10554               	.LASF424:
 10555 08ad 6E6F 6465 	.string"nodes"
 10555      7300 
 10556               	.LASF59:
 10557 08b3 4B65 7973 	.string"Keys"
 10557      00
 10558               	.LASF684:
 10559 08b8 6E6F 6465 	.string"node_access"
 10559      5F61 6363 
 10559      6573 7300 
 10560               	.LASF74:
 10561 08c4 5F5F 7569 	.string"__uid_t"
 10561      645F 7400 
 10562               	.LASF718:
 10563 08cc 7274 656D 	.string"rtems_filesystem_utime_t"
 10563      735F 6669 
 10563      6C65 7379 
 10563      7374 656D 
 10563      5F75 7469 
 10564               	.LASF4:
 10565 08e5 5F5F 7569 	.string"__uint16_t"
 10565      6E74 3136 
 10565      5F74 00
 10566               	.LASF481:
 10567 08f0 6D61 7869 	.string"maximum_queued_signals"
 10567      6D75 6D5F 
 10567      7175 6575 
 10567      6564 5F73 
 10567      6967 6E61 
 10568               	.LASF158:
 10569 0907 5F75 6E75 	.string"_unused_rand"
 10569      7365 645F 
 10569      7261 6E64 
 10569      00
 10570               	.LASF657:
 10571 0914 6B71 6669 	.string"kqfilter_h"
 10571      6C74 6572 
 10571      5F68 00
 10572               	.LASF774:
 10573 091f 626C 6F63 	.string"block_num"
 10573      6B5F 6E75 
 10573      6D00 
 10574               	.LASF62:
 10575 0929 6C61 7374 	.string"last_cleanup_context"
 10575      5F63 6C65 
 10575      616E 7570 
 10575      5F63 6F6E 
 10575      7465 7874 
 10576               	.LASF376:
 10577 093e 5468 7265 	.string"Thread_queue_Enqueue_callout"
 10577      6164 5F71 
68K GAS   			page 217


 10577      7565 7565 
 10577      5F45 6E71 
 10577      7565 7565 
 10578               	.LASF38:
 10579 095b 4F62 6A65 	.string"Object"
 10579      6374 00
 10580               	.LASF418:
 10581 0962 696E 6974 	.string"initial_priority"
 10581      6961 6C5F 
 10581      7072 696F 
 10581      7269 7479 
 10581      00
 10582               	.LASF856:
 10583 0973 7274 656D 	.string"rtems_setup_ramdisk"
 10583      735F 7365 
 10583      7475 705F 
 10583      7261 6D64 
 10583      6973 6B00 
 10584               	.LASF526:
 10585 0987 494E 5445 	.string"INTERNAL_ERROR_RTEMS_API"
 10585      524E 414C 
 10585      5F45 5252 
 10585      4F52 5F52 
 10585      5445 4D53 
 10586               	.LASF350:
 10587 09a0 5374 6174 	.string"States_Control"
 10587      6573 5F43 
 10587      6F6E 7472 
 10587      6F6C 00
 10588               	.LASF853:
 10589 09af 4F53 5F72 	.string"OS_rmfs"
 10589      6D66 7300 
 10590               	.LASF235:
 10591 09b7 6F70 7472 	.string"optreset"
 10591      6573 6574 
 10591      00
 10592               	.LASF484:
 10593 09c0 6D61 7869 	.string"maximum_shms"
 10593      6D75 6D5F 
 10593      7368 6D73 
 10593      00
 10594               	.LASF142:
 10595 09cd 5F72 6573 	.string"_result_k"
 10595      756C 745F 
 10595      6B00 
 10596               	.LASF134:
 10597 09d7 5F73 7464 	.string"_stderr"
 10597      6572 7200 
 10598               	.LASF141:
 10599 09df 5F72 6573 	.string"_result"
 10599      756C 7400 
 10600               	.LASF73:
 10601 09e7 5F5F 6673 	.string"__fsfilcnt_t"
 10601      6669 6C63 
 10601      6E74 5F74 
 10601      00
 10602               	.LASF523:
68K GAS   			page 218


 10603 09f4 7274 656D 	.string"rtems_api_configuration_table"
 10603      735F 6170 
 10603      695F 636F 
 10603      6E66 6967 
 10603      7572 6174 
 10604               	.LASF104:
 10605 0a12 5F64 736F 	.string"_dso_handle"
 10605      5F68 616E 
 10605      646C 6500 
 10606               	.LASF522:
 10607 0a1e 5573 6572 	.string"User_initialization_tasks_table"
 10607      5F69 6E69 
 10607      7469 616C 
 10607      697A 6174 
 10607      696F 6E5F 
 10608               	.LASF717:
 10609 0a3e 7274 656D 	.string"rtems_filesystem_rmnod_t"
 10609      735F 6669 
 10609      6C65 7379 
 10609      7374 656D 
 10609      5F72 6D6E 
 10610               	.LASF498:
 10611 0a57 6E6F 6465 	.string"node_initialize"
 10611      5F69 6E69 
 10611      7469 616C 
 10611      697A 6500 
 10612               	.LASF99:
 10613 0a67 5F5F 746D 	.string"__tm_wday"
 10613      5F77 6461 
 10613      7900 
 10614               	.LASF101:
 10615 0a71 5F5F 746D 	.string"__tm_isdst"
 10615      5F69 7364 
 10615      7374 00
 10616               	.LASF680:
 10617 0a7c 7265 6E61 	.string"rename_h"
 10617      6D65 5F68 
 10617      00
 10618               	.LASF540:
 10619 0a85 7468 655F 	.string"the_source"
 10619      736F 7572 
 10619      6365 00
 10620               	.LASF798:
 10621 0a90 4672 6565 	.string"FreeFlag"
 10621      466C 6167 
 10621      00
 10622               	.LASF282:
 10623 0a99 5254 454D 	.string"RTEMS_INCORRECT_STATE"
 10623      535F 494E 
 10623      434F 5252 
 10623      4543 545F 
 10623      5354 4154 
 10624               	.LASF1:
 10625 0aaf 756E 7369 	.string"unsigned char"
 10625      676E 6564 
 10625      2063 6861 
 10625      7200 
68K GAS   			page 219


 10626               	.LASF133:
 10627 0abd 5F73 7464 	.string"_stdout"
 10627      6F75 7400 
 10628               	.LASF257:
 10629 0ac5 5F74 7261 	.string"_trap_enable_bits"
 10629      705F 656E 
 10629      6162 6C65 
 10629      5F62 6974 
 10629      7300 
 10630               	.LASF333:
 10631 0ad7 5052 494F 	.string"PRIORITY_ACTION_INVALID"
 10631      5249 5459 
 10631      5F41 4354 
 10631      494F 4E5F 
 10631      494E 5641 
 10632               	.LASF857:
 10633 0aef 7068 7973 	.string"phys_dev_name"
 10633      5F64 6576 
 10633      5F6E 616D 
 10633      6500 
 10634               	.LASF504:
 10635 0afd 5363 6865 	.string"Scheduler_Operations"
 10635      6475 6C65 
 10635      725F 4F70 
 10635      6572 6174 
 10635      696F 6E73 
 10636               	.LASF17:
 10637 0b12 5F5F 626C 	.string"__blkcnt_t"
 10637      6B63 6E74 
 10637      5F74 00
 10638               	.LASF590:
 10639 0b1d 7469 6D65 	.string"timecounter_get_t"
 10639      636F 756E 
 10639      7465 725F 
 10639      6765 745F 
 10639      7400 
 10640               	.LASF173:
 10641 0b2f 5F6D 6273 	.string"_mbsrtowcs_state"
 10641      7274 6F77 
 10641      6373 5F73 
 10641      7461 7465 
 10641      00
 10642               	.LASF844:
 10643 0b40 6D6F 756E 	.string"mountpoint"
 10643      7470 6F69 
 10643      6E74 00
 10644               	.LASF91:
 10645 0b4b 5F77 6473 	.string"_wds"
 10645      00
 10646               	.LASF351:
 10647 0b50 5761 7463 	.string"Watchdog_Control"
 10647      6864 6F67 
 10647      5F43 6F6E 
 10647      7472 6F6C 
 10647      00
 10648               	.LASF254:
 10649 0b61 666C 6F61 	.string"float"
68K GAS   			page 220


 10649      7400 
 10650               	.LASF819:
 10651 0b67 7274 656D 	.string"rtems_rfs_ops"
 10651      735F 7266 
 10651      735F 6F70 
 10651      7300 
 10652               	.LASF27:
 10653 0b75 5F54 6963 	.string"_Ticket_lock_Control"
 10653      6B65 745F 
 10653      6C6F 636B 
 10653      5F43 6F6E 
 10653      7472 6F6C 
 10654               	.LASF736:
 10655 0b8a 7274 656D 	.string"rtems_filesystem_fcntl_t"
 10655      735F 6669 
 10655      6C65 7379 
 10655      7374 656D 
 10655      5F66 636E 
 10656               	.LASF637:
 10657 0ba3 6D74 5F66 	.string"mt_fs_root"
 10657      735F 726F 
 10657      6F74 00
 10658               	.LASF54:
 10659 0bae 506F 7374 	.string"Post_switch_actions"
 10659      5F73 7769 
 10659      7463 685F 
 10659      6163 7469 
 10659      6F6E 7300 
 10660               	.LASF112:
 10661 0bc2 5F73 697A 	.string"_size"
 10661      6500 
 10662               	.LASF419:
 10663 0bc8 636F 7265 	.string"core_allocated_stack"
 10663      5F61 6C6C 
 10663      6F63 6174 
 10663      6564 5F73 
 10663      7461 636B 
 10664               	.LASF818:
 10665 0bdd 7274 656D 	.string"rtems_ramdisk_io_ops"
 10665      735F 7261 
 10665      6D64 6973 
 10665      6B5F 696F 
 10665      5F6F 7073 
 10666               	.LASF439:
 10667 0bf2 5468 7265 	.string"Thread_Wait_information"
 10667      6164 5F57 
 10667      6169 745F 
 10667      696E 666F 
 10667      726D 6174 
 10668               	.LASF641:
 10669 0c0a 7461 7267 	.string"target"
 10669      6574 00
 10670               	.LASF327:
 10671 0c11 5242 5472 	.string"RBTree"
 10671      6565 00
 10672               	.LASF620:
 10673 0c18 696F 765F 	.string"iov_base"
68K GAS   			page 221


 10673      6261 7365 
 10673      00
 10674               	.LASF30:
 10675 0c21 5F68 6561 	.string"_heads"
 10675      6473 00
 10676               	.LASF119:
 10677 0c28 5F77 7269 	.string"_write"
 10677      7465 00
 10678               	.LASF527:
 10679 0c2f 494E 5445 	.string"INTERNAL_ERROR_POSIX_API"
 10679      524E 414C 
 10679      5F45 5252 
 10679      4F52 5F50 
 10679      4F53 4958 
 10680               	.LASF199:
 10681 0c48 6F66 665F 	.string"off_t"
 10681      7400 
 10682               	.LASF308:
 10683 0c4e 4E6F 6465 	.string"Node"
 10683      00
 10684               	.LASF459:
 10685 0c53 636F 6E74 	.string"control"
 10685      726F 6C00 
 10686               	.LASF820:
 10687 0c5b 4F53 5F47 	.string"OS_GetFsInfo"
 10687      6574 4673 
 10687      496E 666F 
 10687      00
 10688               	.LASF466:
 10689 0c68 5F54 6872 	.string"_Thread_Control_add_ons"
 10689      6561 645F 
 10689      436F 6E74 
 10689      726F 6C5F 
 10689      6164 645F 
 10690               	.LASF852:
 10691 0c80 6E75 6D62 	.string"numblocks"
 10691      6C6F 636B 
 10691      7300 
 10692               	.LASF639:
 10693 0c8a 7772 6974 	.string"writeable"
 10693      6561 626C 
 10693      6500 
 10694               	.LASF187:
 10695 0c94 7569 6E74 	.string"uint64_t"
 10695      3634 5F74 
 10695      00
 10696               	.LASF23:
 10697 0c9d 5F5F 6D6F 	.string"__mode_t"
 10697      6465 5F74 
 10697      00
 10698               	.LASF634:
 10699 0ca6 696D 6D75 	.string"immutable_fs_info"
 10699      7461 626C 
 10699      655F 6673 
 10699      5F69 6E66 
 10699      6F00 
 10700               	.LASF386:
68K GAS   			page 222


 10701 0cb8 7363 6865 	.string"scheduler_node"
 10701      6475 6C65 
 10701      725F 6E6F 
 10701      6465 00
 10702               	.LASF674:
 10703 0cc7 6D6F 756E 	.string"mount_h"
 10703      745F 6800 
 10704               	.LASF348:
 10705 0ccf 5374 6163 	.string"Stack_Control"
 10705      6B5F 436F 
 10705      6E74 726F 
 10705      6C00 
 10706               	.LASF783:
 10707 0cdd 696E 6974 	.string"initialise_inodes"
 10707      6961 6C69 
 10707      7365 5F69 
 10707      6E6F 6465 
 10707      7300 
 10708               	.LASF98:
 10709 0cef 5F5F 746D 	.string"__tm_year"
 10709      5F79 6561 
 10709      7200 
 10710               	.LASF384:
 10711 0cf9 7570 6461 	.string"update"
 10711      7465 00
 10712               	.LASF630:
 10713 0d00 7274 656D 	.string"rtems_filesystem_mount_table_entry_t"
 10713      735F 6669 
 10713      6C65 7379 
 10713      7374 656D 
 10713      5F6D 6F75 
 10714               	.LASF409:
 10715 0d25 4B69 6E64 	.string"Kinds"
 10715      7300 
 10716               	.LASF769:
 10717 0d2b 7274 656D 	.string"rtems_blkdev_bnum"
 10717      735F 626C 
 10717      6B64 6576 
 10717      5F62 6E75 
 10717      6D00 
 10718               	.LASF443:
 10719 0d3d 5468 7265 	.string"Thread_Action"
 10719      6164 5F41 
 10719      6374 696F 
 10719      6E00 
 10720               	.LASF156:
 10721 0d4b 5F6D 756C 	.string"_mult"
 10721      7400 
 10722               	.LASF602:
 10723 0d51 7463 5F6D 	.string"tc_min_ticktock_freq"
 10723      696E 5F74 
 10723      6963 6B74 
 10723      6F63 6B5F 
 10723      6672 6571 
 10724               	.LASF284:
 10725 0d66 5254 454D 	.string"RTEMS_ILLEGAL_ON_SELF"
 10725      535F 494C 
68K GAS   			page 223


 10725      4C45 4741 
 10725      4C5F 4F4E 
 10725      5F53 454C 
 10726               	.LASF171:
 10727 0d7c 5F6D 6272 	.string"_mbrlen_state"
 10727      6C65 6E5F 
 10727      7374 6174 
 10727      6500 
 10728               	.LASF642:
 10729 0d8a 756E 6D6F 	.string"unmount_task"
 10729      756E 745F 
 10729      7461 736B 
 10729      00
 10730               	.LASF383:
 10731 0d97 7570 6461 	.string"update_count"
 10731      7465 5F63 
 10731      6F75 6E74 
 10731      00
 10732               	.LASF697:
 10733 0da4 7061 7468 	.string"pathlen"
 10733      6C65 6E00 
 10734               	.LASF345:
 10735 0dac 7661 6C75 	.string"value"
 10735      6500 
 10736               	.LASF336:
 10737 0db2 436F 6E74 	.string"Contributors"
 10737      7269 6275 
 10737      746F 7273 
 10737      00
 10738               	.LASF437:
 10739 0dbf 6F70 6572 	.string"operations"
 10739      6174 696F 
 10739      6E73 00
 10740               	.LASF382:
 10741 0dca 4163 7469 	.string"Actions"
 10741      6F6E 7300 
 10742               	.LASF661:
 10743 0dd2 7274 656D 	.string"rtems_filesystem_operations_table"
 10743      735F 6669 
 10743      6C65 7379 
 10743      7374 656D 
 10743      5F6F 7065 
 10744               	.LASF132:
 10745 0df4 5F73 7464 	.string"_stdin"
 10745      696E 00
 10746               	.LASF691:
 10747 0dfb 7265 6665 	.string"reference_count"
 10747      7265 6E63 
 10747      655F 636F 
 10747      756E 7400 
 10748               	.LASF178:
 10749 0e0b 5F6E 6D61 	.string"_nmalloc"
 10749      6C6C 6F63 
 10749      00
 10750               	.LASF662:
 10751 0e14 5F72 7465 	.string"_rtems_filesystem_operations_table"
 10751      6D73 5F66 
68K GAS   			page 224


 10751      696C 6573 
 10751      7973 7465 
 10751      6D5F 6F70 
 10752               	.LASF608:
 10753 0e37 7274 656D 	.string"rtems_device_minor_number"
 10753      735F 6465 
 10753      7669 6365 
 10753      5F6D 696E 
 10753      6F72 5F6E 
 10754               	.LASF851:
 10755 0e51 626C 6F63 	.string"blocksize"
 10755      6B73 697A 
 10755      6500 
 10756               	.LASF710:
 10757 0e5b 7274 656D 	.string"rtems_filesystem_freenode_t"
 10757      735F 6669 
 10757      6C65 7379 
 10757      7374 656D 
 10757      5F66 7265 
 10758               	.LASF848:
 10759 0e77 4F53 5F69 	.string"OS_initfs"
 10759      6E69 7466 
 10759      7300 
 10760               	.LASF272:
 10761 0e81 5254 454D 	.string"RTEMS_INVALID_ID"
 10761      535F 494E 
 10761      5641 4C49 
 10761      445F 4944 
 10761      00
 10762               	.LASF428:
 10763 0e92 5468 7265 	.string"Thread_Wait_information_Object_argument_type"
 10763      6164 5F57 
 10763      6169 745F 
 10763      696E 666F 
 10763      726D 6174 
 10764               	.LASF755:
 10765 0ebf 7274 656D 	.string"rtems_filesystem_default_pathconf"
 10765      735F 6669 
 10765      6C65 7379 
 10765      7374 656D 
 10765      5F64 6566 
 10766               	.LASF542:
 10767 0ee1 496E 7465 	.string"Internal_errors_Information"
 10767      726E 616C 
 10767      5F65 7272 
 10767      6F72 735F 
 10767      496E 666F 
 10768               	.LASF285:
 10769 0efd 5254 454D 	.string"RTEMS_ILLEGAL_ON_REMOTE_OBJECT"
 10769      535F 494C 
 10769      4C45 4741 
 10769      4C5F 4F4E 
 10769      5F52 454D 
 10770               	.LASF322:
 10771 0f1c 4F62 6A65 	.string"Objects_Name"
 10771      6374 735F 
 10771      4E61 6D65 
68K GAS   			page 225


 10771      00
 10772               	.LASF354:
 10773 0f29 5761 7463 	.string"Watchdog_Interval"
 10773      6864 6F67 
 10773      5F49 6E74 
 10773      6572 7661 
 10773      6C00 
 10774               	.LASF543:
 10775 0f3b 5F49 6E74 	.string"_Internal_errors_What_happened"
 10775      6572 6E61 
 10775      6C5F 6572 
 10775      726F 7273 
 10775      5F57 6861 
 10776               	.LASF426:
 10777 0f5a 6D75 7461 	.string"mutable_object"
 10777      626C 655F 
 10777      6F62 6A65 
 10777      6374 00
 10778               	.LASF343:
 10779 0f69 6F77 6E65 	.string"owner"
 10779      7200 
 10780               	.LASF43:
 10781 0f6f 5761 6974 	.string"Wait"
 10781      00
 10782               	.LASF260:
 10783 0f74 5F66 6F72 	.string"_format"
 10783      6D61 7400 
 10784               	.LASF454:
 10785 0f7c 5468 7265 	.string"Thread_Life_state"
 10785      6164 5F4C 
 10785      6966 655F 
 10785      7374 6174 
 10785      6500 
 10786               	.LASF20:
 10787 0f8e 5F6F 6666 	.string"_off_t"
 10787      5F74 00
 10788               	.LASF15:
 10789 0f95 7369 7A65 	.string"size_t"
 10789      5F74 00
 10790               	.LASF161:
 10791 0f9c 5F6C 6F63 	.string"_localtime_buf"
 10791      616C 7469 
 10791      6D65 5F62 
 10791      7566 00
 10792               	.LASF588:
 10793 0fab 4953 525F 	.string"ISR_Handler_entry"
 10793      4861 6E64 
 10793      6C65 725F 
 10793      656E 7472 
 10793      7900 
 10794               	.LASF677:
 10795 0fbd 7574 696D 	.string"utime_h"
 10795      655F 6800 
 10796               	.LASF81:
 10797 0fc5 5F5F 636F 	.string"__count"
 10797      756E 7400 
 10798               	.LASF72:
68K GAS   			page 226


 10799 0fcd 5F5F 6673 	.string"__fsblkcnt_t"
 10799      626C 6B63 
 10799      6E74 5F74 
 10799      00
 10800               	.LASF461:
 10801 0fda 5F70 7468 	.string"_pthread_cleanup_context"
 10801      7265 6164 
 10801      5F63 6C65 
 10801      616E 7570 
 10801      5F63 6F6E 
 10802               	.LASF767:
 10803 0ff3 7274 656D 	.string"rtems_filesystem_mount_configuration"
 10803      735F 6669 
 10803      6C65 7379 
 10803      7374 656D 
 10803      5F6D 6F75 
 10804               	.LASF737:
 10805 1018 7274 656D 	.string"rtems_filesystem_poll_t"
 10805      735F 6669 
 10805      6C65 7379 
 10805      7374 656D 
 10805      5F70 6F6C 
 10806               	.LASF243:
 10807 1030 665F 6261 	.string"f_bavail"
 10807      7661 696C 
 10807      00
 10808               	.LASF532:
 10809 1039 5254 454D 	.string"RTEMS_FATAL_SOURCE_ASSERT"
 10809      535F 4641 
 10809      5441 4C5F 
 10809      534F 5552 
 10809      4345 5F41 
 10810               	.LASF701:
 10811 1053 6375 7272 	.string"currentloc"
 10811      656E 746C 
 10811      6F63 00
 10812               	.LASF310:
 10813 105e 4865 6164 	.string"Head"
 10813      00
 10814               	.LASF525:
 10815 1063 494E 5445 	.string"INTERNAL_ERROR_CORE"
 10815      524E 414C 
 10815      5F45 5252 
 10815      4F52 5F43 
 10815      4F52 4500 
 10816               	.LASF666:
 10817 1077 6C69 6E6B 	.string"link_h"
 10817      5F68 00
 10818               	.LASF729:
 10819 107e 7274 656D 	.string"rtems_filesystem_writev_t"
 10819      735F 6669 
 10819      6C65 7379 
 10819      7374 656D 
 10819      5F77 7269 
 10820               	.LASF146:
 10821 1098 5F63 7674 	.string"_cvtbuf"
 10821      6275 6600 
68K GAS   			page 227


 10822               	.LASF385:
 10823 10a0 5175 6575 	.string"Queue"
 10823      6500 
 10824               	.LASF780:
 10825 10a6 6772 6F75 	.string"group_inodes"
 10825      705F 696E 
 10825      6F64 6573 
 10825      00
 10826               	.LASF708:
 10827 10b3 7274 656D 	.string"rtems_filesystem_chown_t"
 10827      735F 6669 
 10827      6C65 7379 
 10827      7374 656D 
 10827      5F63 686F 
 10828               	.LASF832:
 10829 10cc 4F53 5F63 	.string"OS_chkfs"
 10829      686B 6673 
 10829      00
 10830               	.LASF353:
 10831 10d5 6578 7069 	.string"expire"
 10831      7265 00
 10832               	.LASF606:
 10833 10dc 5F54 696D 	.string"_Timecounter"
 10833      6563 6F75 
 10833      6E74 6572 
 10833      00
 10834               	.LASF465:
 10835 10e9 5468 7265 	.string"Thread_Control_add_on"
 10835      6164 5F43 
 10835      6F6E 7472 
 10835      6F6C 5F61 
 10835      6464 5F6F 
 10836               	.LASF55:
 10837 10ff 5265 6769 	.string"Registers"
 10837      7374 6572 
 10837      7300 
 10838               	.LASF301:
 10839 1109 4174 6F6D 	.string"Atomic_Uint"
 10839      6963 5F55 
 10839      696E 7400 
 10840               	.LASF619:
 10841 1115 696F 7665 	.string"iovec"
 10841      6300 
 10842               	.LASF685:
 10843 111b 6E6F 6465 	.string"node_access_2"
 10843      5F61 6363 
 10843      6573 735F 
 10843      3200 
 10844               	.LASF342:
 10845 1129 5363 6865 	.string"Scheduler_Node"
 10845      6475 6C65 
 10845      725F 4E6F 
 10845      6465 00
 10846               	.LASF581:
 10847 1138 756E 6966 	.string"unified_work_area"
 10847      6965 645F 
 10847      776F 726B 
68K GAS   			page 228


 10847      5F61 7265 
 10847      6100 
 10848               	.LASF457:
 10849 114a 6578 6974 	.string"exit_value"
 10849      5F76 616C 
 10849      7565 00
 10850               	.LASF230:
 10851 1155 656E 7669 	.string"environ"
 10851      726F 6E00 
 10852               	.LASF510:
 10853 115d 7274 656D 	.string"rtems_task_entry"
 10853      735F 7461 
 10853      736B 5F65 
 10853      6E74 7279 
 10853      00
 10854               	.LASF585:
 10855 116e 7274 656D 	.string"rtems_configuration_table"
 10855      735F 636F 
 10855      6E66 6967 
 10855      7572 6174 
 10855      696F 6E5F 
 10856               	.LASF69:
 10857 1188 5F4D 7574 	.string"_Mutex"
 10857      6578 00
 10858               	.LASF410:
 10859 118f 5468 7265 	.string"Thread_Entry_information"
 10859      6164 5F45 
 10859      6E74 7279 
 10859      5F69 6E66 
 10859      6F72 6D61 
 10860               	.LASF80:
 10861 11a8 5F5F 7763 	.string"__wchb"
 10861      6862 00
 10862               	.LASF172:
 10863 11af 5F6D 6272 	.string"_mbrtowc_state"
 10863      746F 7763 
 10863      5F73 7461 
 10863      7465 00
 10864               	.LASF530:
 10865 11be 5254 454D 	.string"RTEMS_FATAL_SOURCE_EXIT"
 10865      535F 4641 
 10865      5441 4C5F 
 10865      534F 5552 
 10865      4345 5F45 
 10866               	.LASF95:
 10867 11d6 5F5F 746D 	.string"__tm_hour"
 10867      5F68 6F75 
 10867      7200 
 10868               	.LASF357:
 10869 11e0 6669 7273 	.string"first"
 10869      7400 
 10870               	.LASF720:
 10871 11e6 7274 656D 	.string"rtems_filesystem_readlink_t"
 10871      735F 6669 
 10871      6C65 7379 
 10871      7374 656D 
 10871      5F72 6561 
68K GAS   			page 229


 10872               	.LASF664:
 10873 1202 756E 6C6F 	.string"unlock_h"
 10873      636B 5F68 
 10873      00
 10874               	.LASF271:
 10875 120b 5254 454D 	.string"RTEMS_INVALID_NAME"
 10875      535F 494E 
 10875      5641 4C49 
 10875      445F 4E41 
 10875      4D45 00
 10876               	.LASF78:
 10877 121e 7769 6E74 	.string"wint_t"
 10877      5F74 00
 10878               	.LASF711:
 10879 1225 7274 656D 	.string"rtems_filesystem_mount_t"
 10879      735F 6669 
 10879      6C65 7379 
 10879      7374 656D 
 10879      5F6D 6F75 
 10880               	.LASF147:
 10881 123e 5F6E 6577 	.string"_new"
 10881      00
 10882               	.LASF330:
 10883 1243 5052 494F 	.string"PRIORITY_ACTION_ADD"
 10883      5249 5459 
 10883      5F41 4354 
 10883      494F 4E5F 
 10883      4144 4400 
 10884               	.LASF727:
 10885 1257 7274 656D 	.string"rtems_filesystem_readv_t"
 10885      735F 6669 
 10885      6C65 7379 
 10885      7374 656D 
 10885      5F72 6561 
 10886               	.LASF625:
 10887 1270 7274 656D 	.string"rtems_libio_tt"
 10887      735F 6C69 
 10887      6269 6F5F 
 10887      7474 00
 10888               	.LASF33:
 10889 127f 5F54 6872 	.string"_Thread_queue_Heads"
 10889      6561 645F 
 10889      7175 6575 
 10889      655F 4865 
 10889      6164 7300 
 10890               	.LASF309:
 10891 1293 6669 6C6C 	.string"fill"
 10891      00
 10892               	.LASF492:
 10893 1298 7969 656C 	.string"yield"
 10893      6400 
 10894               	.LASF85:
 10895 129e 5F5F 6E6C 	.string"__nlink_t"
 10895      696E 6B5F 
 10895      7400 
 10896               	.LASF784:
 10897 12a8 7665 7262 	.string"verbose"
68K GAS   			page 230


 10897      6F73 6500 
 10898               	.LASF252:
 10899 12b0 6137 5F6D 	.string"a7_msp"
 10899      7370 00
 10900               	.LASF218:
 10901 12b7 7374 5F69 	.string"st_ino"
 10901      6E6F 00
 10902               	.LASF219:
 10903 12be 7374 5F6D 	.string"st_mode"
 10903      6F64 6500 
 10904               	.LASF651:
 10905 12c6 6673 7461 	.string"fstat_h"
 10905      745F 6800 
 10906               	.LASF131:
 10907 12ce 5F65 7272 	.string"_errno"
 10907      6E6F 00
 10908               	.LASF633:
 10909 12d5 6673 5F69 	.string"fs_info"
 10909      6E66 6F00 
 10910               	.LASF843:
 10911 12dd 4F53 5F75 	.string"OS_unmount"
 10911      6E6D 6F75 
 10911      6E74 00
 10912               	.LASF96:
 10913 12e8 5F5F 746D 	.string"__tm_mday"
 10913      5F6D 6461 
 10913      7900 
 10914               	.LASF714:
 10915 12f2 7274 656D 	.string"rtems_filesystem_fsunmount_me_t"
 10915      735F 6669 
 10915      6C65 7379 
 10915      7374 656D 
 10915      5F66 7375 
 10916               	.LASF764:
 10917 1312 6669 6C65 	.string"filesystemtype"
 10917      7379 7374 
 10917      656D 7479 
 10917      7065 00
 10918               	.LASF103:
 10919 1321 5F66 6E61 	.string"_fnargs"
 10919      7267 7300 
 10920               	.LASF553:
 10921 1329 7468 7265 	.string"thread_create"
 10921      6164 5F63 
 10921      7265 6174 
 10921      6500 
 10922               	.LASF31:
 10923 1337 5F6F 776E 	.string"_owner"
 10923      6572 00
 10924               	.LASF740:
 10925 133e 7274 656D 	.string"rtems_filesystem_mmap_t"
 10925      735F 6669 
 10925      6C65 7379 
 10925      7374 656D 
 10925      5F6D 6D61 
 10926               	.LASF274:
 10927 1356 5254 454D 	.string"RTEMS_TIMEOUT"
68K GAS   			page 231


 10927      535F 5449 
 10927      4D45 4F55 
 10927      5400 
 10928               	.LASF785:
 10929 1364 7274 656D 	.string"rtems_rfs_format_config"
 10929      735F 7266 
 10929      735F 666F 
 10929      726D 6174 
 10929      5F63 6F6E 
 10930               	.LASF412:
 10931 137c 5448 5245 	.string"THREAD_CPU_BUDGET_ALGORITHM_RESET_TIMESLICE"
 10931      4144 5F43 
 10931      5055 5F42 
 10931      5544 4745 
 10931      545F 414C 
 10932               	.LASF580:
 10933 13a8 646F 5F7A 	.string"do_zero_of_workspace"
 10933      6572 6F5F 
 10933      6F66 5F77 
 10933      6F72 6B73 
 10933      7061 6365 
 10934               	.LASF643:
 10935 13bd 7274 656D 	.string"rtems_filesystem_file_handlers_r"
 10935      735F 6669 
 10935      6C65 7379 
 10935      7374 656D 
 10935      5F66 696C 
 10936               	.LASF313:
 10937 13de 7262 655F 	.string"rbe_left"
 10937      6C65 6674 
 10937      00
 10938               	.LASF374:
 10939 13e7 6578 7472 	.string"extract"
 10939      6163 7400 
 10940               	.LASF719:
 10941 13ef 7274 656D 	.string"rtems_filesystem_symlink_t"
 10941      735F 6669 
 10941      6C65 7379 
 10941      7374 656D 
 10941      5F73 796D 
 10942               	.LASF9:
 10943 140a 5F5F 696E 	.string"__int64_t"
 10943      7436 345F 
 10943      7400 
 10944               	.LASF448:
 10945 1414 5468 7265 	.string"Thread_Action_control"
 10945      6164 5F41 
 10945      6374 696F 
 10945      6E5F 636F 
 10945      6E74 726F 
 10946               	.LASF779:
 10947 142a 6772 6F75 	.string"group_blocks"
 10947      705F 626C 
 10947      6F63 6B73 
 10947      00
 10948               	.LASF45:
 10949 1437 6973 5F69 	.string"is_idle"
68K GAS   			page 232


 10949      646C 6500 
 10950               	.LASF11:
 10951 143f 5F5F 7569 	.string"__uint64_t"
 10951      6E74 3634 
 10951      5F74 00
 10952               	.LASF429:
 10953 144a 5468 7265 	.string"Thread_Wait_flags"
 10953      6164 5F57 
 10953      6169 745F 
 10953      666C 6167 
 10953      7300 
 10954               	.LASF474:
 10955 145c 7274 656D 	.string"rtems_interval"
 10955      735F 696E 
 10955      7465 7276 
 10955      616C 00
 10956               	.LASF280:
 10957 146b 5254 454D 	.string"RTEMS_RESOURCE_IN_USE"
 10957      535F 5245 
 10957      534F 5552 
 10957      4345 5F49 
 10957      4E5F 5553 
 10958               	.LASF88:
 10959 1481 5F6E 6578 	.string"_next"
 10959      7400 
 10960               	.LASF516:
 10961 1487 6D61 7869 	.string"maximum_partitions"
 10961      6D75 6D5F 
 10961      7061 7274 
 10961      6974 696F 
 10961      6E73 00
 10962               	.LASF169:
 10963 149a 5F73 6967 	.string"_signal_buf"
 10963      6E61 6C5F 
 10963      6275 6600 
 10964               	.LASF63:
 10965 14a6 6C61 7374 	.string"last_user_extensions_iterator"
 10965      5F75 7365 
 10965      725F 6578 
 10965      7465 6E73 
 10965      696F 6E73 
 10966               	.LASF117:
 10967 14c4 5F63 6F6F 	.string"_cookie"
 10967      6B69 6500 
 10968               	.LASF215:
 10969 14cc 5F74 7A6E 	.string"_tzname"
 10969      616D 6500 
 10970               	.LASF502:
 10971 14d4 7469 636B 	.string"tick"
 10971      00
 10972               	.LASF366:
 10973 14d9 656E 7175 	.string"enqueue_callout"
 10973      6575 655F 
 10973      6361 6C6C 
 10973      6F75 7400 
 10974               	.LASF373:
 10975 14e9 656E 7175 	.string"enqueue"
68K GAS   			page 233


 10975      6575 6500 
 10976               	.LASF67:
 10977 14f1 5F51 7565 	.string"_Queue"
 10977      7565 00
 10978               	.LASF622:
 10979 14f8 7274 656D 	.string"rtems_chain_node"
 10979      735F 6368 
 10979      6169 6E5F 
 10979      6E6F 6465 
 10979      00
 10980               	.LASF614:
 10981 1509 7265 6164 	.string"read_entry"
 10981      5F65 6E74 
 10981      7279 00
 10982               	.LASF190:
 10983 1514 7469 6D65 	.string"timespec"
 10983      7370 6563 
 10983      00
 10984               	.LASF296:
 10985 151d 5254 454D 	.string"RTEMS_PROXY_BLOCKING"
 10985      535F 5052 
 10985      4F58 595F 
 10985      424C 4F43 
 10985      4B49 4E47 
 10986               	.LASF743:
 10987 1532 6D61 785F 	.string"max_canon"
 10987      6361 6E6F 
 10987      6E00 
 10988               	.LASF821:
 10989 153c 4F53 5F46 	.string"OS_FS_GetErrorName"
 10989      535F 4765 
 10989      7445 7272 
 10989      6F72 4E61 
 10989      6D65 00
 10990               	.LASF480:
 10991 154f 6D61 7869 	.string"maximum_timers"
 10991      6D75 6D5F 
 10991      7469 6D65 
 10991      7273 00
 10992               	.LASF472:
 10993 155e 7274 656D 	.string"rtems_name"
 10993      735F 6E61 
 10993      6D65 00
 10994               	.LASF449:
 10995 1569 5448 5245 	.string"THREAD_LIFE_PROTECTED"
 10995      4144 5F4C 
 10995      4946 455F 
 10995      5052 4F54 
 10995      4543 5445 
 10996               	.LASF574:
 10997 157f 6964 6C65 	.string"idle_task"
 10997      5F74 6173 
 10997      6B00 
 10998               	.LASF668:
 10999 1589 6D6B 6E6F 	.string"mknod_h"
 10999      645F 6800 
 11000               	.LASF452:
68K GAS   			page 234


 11001 1591 5448 5245 	.string"THREAD_LIFE_CHANGE_DEFERRED"
 11001      4144 5F4C 
 11001      4946 455F 
 11001      4348 414E 
 11001      4745 5F44 
 11002               	.LASF324:
 11003 15ad 4F62 6A65 	.string"Objects_Control"
 11003      6374 735F 
 11003      436F 6E74 
 11003      726F 6C00 
 11004               	.LASF503:
 11005 15bd 7374 6172 	.string"start_idle"
 11005      745F 6964 
 11005      6C65 00
 11006               	.LASF93:
 11007 15c8 5F5F 746D 	.string"__tm_sec"
 11007      5F73 6563 
 11007      00
 11008               	.LASF778:
 11009 15d1 5F72 7465 	.string"_rtems_rfs_format_config"
 11009      6D73 5F72 
 11009      6673 5F66 
 11009      6F72 6D61 
 11009      745F 636F 
 11010               	.LASF519:
 11011 15ea 6D61 7869 	.string"maximum_periods"
 11011      6D75 6D5F 
 11011      7065 7269 
 11011      6F64 7300 
 11012               	.LASF650:
 11013 15fa 6C73 6565 	.string"lseek_h"
 11013      6B5F 6800 
 11014               	.LASF61:
 11015 1602 4361 7074 	.string"Capture"
 11015      7572 6500 
 11016               	.LASF102:
 11017 160a 5F6F 6E5F 	.string"_on_exit_args"
 11017      6578 6974 
 11017      5F61 7267 
 11017      7300 
 11018               	.LASF208:
 11019 1618 636F 6E74 	.string"context"
 11019      6578 7400 
 11020               	.LASF341:
 11021 1620 5072 696F 	.string"Priority_Actions"
 11021      7269 7479 
 11021      5F41 6374 
 11021      696F 6E73 
 11021      00
 11022               	.LASF515:
 11023 1631 6D61 7869 	.string"maximum_tasks"
 11023      6D75 6D5F 
 11023      7461 736B 
 11023      7300 
 11024               	.LASF487:
 11025 163f 706F 7369 	.string"posix_api_configuration_table"
 11025      785F 6170 
68K GAS   			page 235


 11025      695F 636F 
 11025      6E66 6967 
 11025      7572 6174 
 11026               	.LASF817:
 11027 165d 4F53 5F56 	.string"OS_VolumeTableSem"
 11027      6F6C 756D 
 11027      6554 6162 
 11027      6C65 5365 
 11027      6D00 
 11028               	.LASF174:
 11029 166f 5F77 6372 	.string"_wcrtomb_state"
 11029      746F 6D62 
 11029      5F73 7461 
 11029      7465 00
 11030               	.LASF571:
 11031 167e 6D61 7869 	.string"maximum_key_value_pairs"
 11031      6D75 6D5F 
 11031      6B65 795F 
 11031      7661 6C75 
 11031      655F 7061 
 11032               	.LASF221:
 11033 1696 7374 5F75 	.string"st_uid"
 11033      6964 00
 11034               	.LASF195:
 11035 169d 626C 6B73 	.string"blksize_t"
 11035      697A 655F 
 11035      7400 
 11036               	.LASF654:
 11037 16a7 6664 6174 	.string"fdatasync_h"
 11037      6173 796E 
 11037      635F 6800 
 11038               	.LASF476:
 11039 16b3 7468 7265 	.string"thread_entry"
 11039      6164 5F65 
 11039      6E74 7279 
 11039      00
 11040               	.LASF445:
 11041 16c0 5468 7265 	.string"Thread_Action_handler"
 11041      6164 5F41 
 11041      6374 696F 
 11041      6E5F 6861 
 11041      6E64 6C65 
 11042               	.LASF863:
 11043 16d6 2F68 6F6D 	.string"/home/simulink/cFS_FreeRTOS_seL4/build/cpu1/cfe/osal"
 11043      652F 7369 
 11043      6D75 6C69 
 11043      6E6B 2F63 
 11043      4653 5F46 
 11044               	.LASF251:
 11045 170b 5F56 4252 	.string"_VBR"
 11045      00
 11046               	.LASF239:
 11047 1710 665F 6273 	.string"f_bsize"
 11047      697A 6500 
 11048               	.LASF39:
 11049 1718 4A6F 696E 	.string"Join_queue"
 11049      5F71 7565 
68K GAS   			page 236


 11049      7565 00
 11050               	.LASF447:
 11051 1723 5468 7265 	.string"Thread_Keys_information"
 11051      6164 5F4B 
 11051      6579 735F 
 11051      696E 666F 
 11051      726D 6174 
 11052               	.LASF615:
 11053 173b 7772 6974 	.string"write_entry"
 11053      655F 656E 
 11053      7472 7900 
 11054               	.LASF791:
 11055 1747 626F 6F6C 	.string"boolean"
 11055      6561 6E00 
 11056               	.LASF77:
 11057 174f 5F73 7369 	.string"_ssize_t"
 11057      7A65 5F74 
 11057      00
 11058               	.LASF211:
 11059 1758 6E61 6D65 	.string"name"
 11059      00
 11060               	.LASF64:
 11061 175d 6578 7465 	.string"extensions"
 11061      6E73 696F 
 11061      6E73 00
 11062               	.LASF724:
 11063 1768 7274 656D 	.string"rtems_filesystem_open_t"
 11063      735F 6669 
 11063      6C65 7379 
 11063      7374 656D 
 11063      5F6F 7065 
 11064               	.LASF421:
 11065 1780 7374 6163 	.string"stack"
 11065      6B00 
 11066               	.LASF722:
 11067 1786 7274 656D 	.string"rtems_filesystem_statvfs_t"
 11067      735F 6669 
 11067      6C65 7379 
 11067      7374 656D 
 11067      5F73 7461 
 11068               	.LASF413:
 11069 17a1 5448 5245 	.string"THREAD_CPU_BUDGET_ALGORITHM_EXHAUST_TIMESLICE"
 11069      4144 5F43 
 11069      5055 5F42 
 11069      5544 4745 
 11069      545F 414C 
 11070               	.LASF86:
 11071 17cf 5F5F 554C 	.string"__ULong"
 11071      6F6E 6700 
 11072               	.LASF371:
 11073 17d7 5468 7265 	.string"Thread_queue_Operations"
 11073      6164 5F71 
 11073      7565 7565 
 11073      5F4F 7065 
 11073      7261 7469 
 11074               	.LASF37:
 11075 17ef 5F54 6872 	.string"_Thread_Control"
68K GAS   			page 237


 11075      6561 645F 
 11075      436F 6E74 
 11075      726F 6C00 
 11076               	.LASF735:
 11077 17ff 7274 656D 	.string"rtems_filesystem_fdatasync_t"
 11077      735F 6669 
 11077      6C65 7379 
 11077      7374 656D 
 11077      5F66 6461 
 11078               	.LASF658:
 11079 181c 7265 6164 	.string"readv_h"
 11079      765F 6800 
 11080               	.LASF422:
 11081 1824 746C 735F 	.string"tls_area"
 11081      6172 6561 
 11081      00
 11082               	.LASF771:
 11083 182d 7274 656D 	.string"rtems_panic_in_progress"
 11083      735F 7061 
 11083      6E69 635F 
 11083      696E 5F70 
 11083      726F 6772 
 11084               	.LASF234:
 11085 1845 6F70 746F 	.string"optopt"
 11085      7074 00
 11086               	.LASF495:
 11087 184c 7570 6461 	.string"update_priority"
 11087      7465 5F70 
 11087      7269 6F72 
 11087      6974 7900 
 11088               	.LASF159:
 11089 185c 5F73 7472 	.string"_strtok_last"
 11089      746F 6B5F 
 11089      6C61 7374 
 11089      00
 11090               	.LASF689:
 11091 1869 7274 656D 	.string"rtems_filesystem_global_location_t"
 11091      735F 6669 
 11091      6C65 7379 
 11091      7374 656D 
 11091      5F67 6C6F 
 11092               	.LASF267:
 11093 188c 5F43 6F70 	.string"_Copyright_Notice"
 11093      7972 6967 
 11093      6874 5F4E 
 11093      6F74 6963 
 11093      6500 
 11094               	.LASF667:
 11095 189e 6172 655F 	.string"are_nodes_equal_h"
 11095      6E6F 6465 
 11095      735F 6571 
 11095      7561 6C5F 
 11095      6800 
 11096               	.LASF838:
 11097 18b0 4E61 6D65 	.string"NameStatus"
 11097      5374 6174 
 11097      7573 00
68K GAS   			page 238


 11098               	.LASF538:
 11099 18bb 496E 7465 	.string"Internal_errors_Source"
 11099      726E 616C 
 11099      5F65 7272 
 11099      6F72 735F 
 11099      536F 7572 
 11100               	.LASF600:
 11101 18d2 7463 5F6E 	.string"tc_next"
 11101      6578 7400 
 11102               	.LASF247:
 11103 18da 665F 6673 	.string"f_fsid"
 11103      6964 00
 11104               	.LASF414:
 11105 18e1 5448 5245 	.string"THREAD_CPU_BUDGET_ALGORITHM_CALLOUT"
 11105      4144 5F43 
 11105      5055 5F42 
 11105      5544 4745 
 11105      545F 414C 
 11106               	.LASF552:
 11107 1905 5573 6572 	.string"User_extensions_thread_terminate_extension"
 11107      5F65 7874 
 11107      656E 7369 
 11107      6F6E 735F 
 11107      7468 7265 
 11108               	.LASF155:
 11109 1930 5F73 6565 	.string"_seed"
 11109      6400 
 11110               	.LASF269:
 11111 1936 5254 454D 	.string"RTEMS_TASK_EXITTED"
 11111      535F 5441 
 11111      534B 5F45 
 11111      5849 5454 
 11111      4544 00
 11112               	.LASF120:
 11113 1949 5F73 6565 	.string"_seek"
 11113      6B00 
 11114               	.LASF795:
 11115 194f 5068 7973 	.string"PhysDevName"
 11115      4465 764E 
 11115      616D 6500 
 11116               	.LASF359:
 11117 195b 5F57 6174 	.string"_Watchdog_Ticks_since_boot"
 11117      6368 646F 
 11117      675F 5469 
 11117      636B 735F 
 11117      7369 6E63 
 11118               	.LASF3:
 11119 1976 7368 6F72 	.string"short unsigned int"
 11119      7420 756E 
 11119      7369 676E 
 11119      6564 2069 
 11119      6E74 00
 11120               	.LASF0:
 11121 1989 7369 676E 	.string"signed char"
 11121      6564 2063 
 11121      6861 7200 
 11122               	.LASF754:
68K GAS   			page 239


 11123 1995 7274 656D 	.string"rtems_filesystem_limits_and_options_t"
 11123      735F 6669 
 11123      6C65 7379 
 11123      7374 656D 
 11123      5F6C 696D 
 11124               	.LASF299:
 11125 19bb 4350 555F 	.string"CPU_atomic_Uint"
 11125      6174 6F6D 
 11125      6963 5F55 
 11125      696E 7400 
 11126               	.LASF18:
 11127 19cb 5F5F 626C 	.string"__blksize_t"
 11127      6B73 697A 
 11127      655F 7400 
 11128               	.LASF361:
 11129 19d7 5F57 6174 	.string"_Watchdog_Ticks_per_second"
 11129      6368 646F 
 11129      675F 5469 
 11129      636B 735F 
 11129      7065 725F 
 11130               	.LASF70:
 11131 19f2 5F6E 6573 	.string"_nest_level"
 11131      745F 6C65 
 11131      7665 6C00 
 11132               	.LASF801:
 11133 19fe 4D6F 756E 	.string"MountPoint"
 11133      7450 6F69 
 11133      6E74 00
 11134               	.LASF834:
 11135 1a09 4F53 5F66 	.string"OS_fsBytesFree"
 11135      7342 7974 
 11135      6573 4672 
 11135      6565 00
 11136               	.LASF836:
 11137 1a18 7374 6174 	.string"status"
 11137      7573 00
 11138               	.LASF430:
 11139 1a1f 636F 756E 	.string"count"
 11139      7400 
 11140               	.LASF814:
 11141 1a25 6F73 5F66 	.string"os_fshealth_t"
 11141      7368 6561 
 11141      6C74 685F 
 11141      7400 
 11142               	.LASF726:
 11143 1a33 7274 656D 	.string"rtems_filesystem_read_t"
 11143      735F 6669 
 11143      6C65 7379 
 11143      7374 656D 
 11143      5F72 6561 
 11144               	.LASF144:
 11145 1a4b 5F66 7265 	.string"_freelist"
 11145      656C 6973 
 11145      7400 
 11146               	.LASF849:
 11147 1a55 6164 6472 	.string"address"
 11147      6573 7300 
68K GAS   			page 240


 11148               	.LASF859:
 11149 1a5d 6D61 6A6F 	.string"major"
 11149      7200 
 11150               	.LASF395:
 11151 1a63 5468 7265 	.string"Thread_queue_Control"
 11151      6164 5F71 
 11151      7565 7565 
 11151      5F43 6F6E 
 11151      7472 6F6C 
 11152               	.LASF411:
 11153 1a78 5448 5245 	.string"THREAD_CPU_BUDGET_ALGORITHM_NONE"
 11153      4144 5F43 
 11153      5055 5F42 
 11153      5544 4745 
 11153      545F 414C 
 11154               	.LASF125:
 11155 1a99 5F6F 6666 	.string"_offset"
 11155      7365 7400 
 11156               	.LASF401:
 11157 1aa1 5468 7265 	.string"Thread_Entry_idle"
 11157      6164 5F45 
 11157      6E74 7279 
 11157      5F69 646C 
 11157      6500 
 11158               	.LASF316:
 11159 1ab3 7262 655F 	.string"rbe_color"
 11159      636F 6C6F 
 11159      7200 
 11160               	.LASF775:
 11161 1abd 7274 656D 	.string"rtems_ramdisk_configuration"
 11161      735F 7261 
 11161      6D64 6973 
 11161      6B5F 636F 
 11161      6E66 6967 
 11162               	.LASF506:
 11163 1ad9 5F53 6368 	.string"_Scheduler_Table"
 11163      6564 756C 
 11163      6572 5F54 
 11163      6162 6C65 
 11163      00
 11164               	.LASF455:
 11165 1aea 7374 6174 	.string"state"
 11165      6500 
 11166               	.LASF841:
 11167 1af0 746D 7046 	.string"tmpFileName"
 11167      696C 654E 
 11167      616D 6500 
 11168               	.LASF48:
 11169 1afc 7761 735F 	.string"was_created_with_inherited_scheduler"
 11169      6372 6561 
 11169      7465 645F 
 11169      7769 7468 
 11169      5F69 6E68 
 11170               	.LASF110:
 11171 1b21 5F5F 7362 	.string"__sbuf"
 11171      7566 00
 11172               	.LASF531:
68K GAS   			page 241


 11173 1b28 5254 454D 	.string"RTEMS_FATAL_SOURCE_BSP"
 11173      535F 4641 
 11173      5441 4C5F 
 11173      534F 5552 
 11173      4345 5F42 
 11174               	.LASF168:
 11175 1b3f 5F6C 3634 	.string"_l64a_buf"
 11175      615F 6275 
 11175      6600 
 11176               	.LASF471:
 11177 1b49 7274 656D 	.string"rtems_interrupt_mask"
 11177      735F 696E 
 11177      7465 7272 
 11177      7570 745F 
 11177      6D61 736B 
 11178               	.LASF696:
 11179 1b5e 7061 7468 	.string"path"
 11179      00
 11180               	.LASF152:
 11181 1b63 5F6E 696F 	.string"_niobs"
 11181      6273 00
 11182               	.LASF207:
 11183 1b6a 5F53 6368 	.string"_Scheduler_Control"
 11183      6564 756C 
 11183      6572 5F43 
 11183      6F6E 7472 
 11183      6F6C 00
 11184               	.LASF233:
 11185 1b7d 6F70 7465 	.string"opterr"
 11185      7272 00
 11186               	.LASF291:
 11187 1b84 5254 454D 	.string"RTEMS_NOT_OWNER_OF_RESOURCE"
 11187      535F 4E4F 
 11187      545F 4F57 
 11187      4E45 525F 
 11187      4F46 5F52 
 11188               	.LASF367:
 11189 1ba0 5469 6D65 	.string"Timeout"
 11189      6F75 7400 
 11190               	.LASF570:
 11191 1ba8 6D61 7869 	.string"maximum_keys"
 11191      6D75 6D5F 
 11191      6B65 7973 
 11191      00
 11192               	.LASF389:
 11193 1bb5 5468 7265 	.string"Thread_queue_Heads"
 11193      6164 5F71 
 11193      7565 7565 
 11193      5F48 6561 
 11193      6473 00
 11194               	.LASF160:
 11195 1bc8 5F61 7363 	.string"_asctime_buf"
 11195      7469 6D65 
 11195      5F62 7566 
 11195      00
 11196               	.LASF398:
 11197 1bd5 5469 6D65 	.string"Timestamp_Control"
68K GAS   			page 242


 11197      7374 616D 
 11197      705F 436F 
 11197      6E74 726F 
 11197      6C00 
 11198               	.LASF468:
 11199 1be7 5F54 6872 	.string"_Thread_Control_size"
 11199      6561 645F 
 11199      436F 6E74 
 11199      726F 6C5F 
 11199      7369 7A65 
 11200               	.LASF79:
 11201 1bfc 5F5F 7763 	.string"__wch"
 11201      6800 
 11202               	.LASF612:
 11203 1c02 6F70 656E 	.string"open_entry"
 11203      5F65 6E74 
 11203      7279 00
 11204               	.LASF810:
 11205 1c0d 4672 6565 	.string"FreeFds"
 11205      4664 7300 
 11206               	.LASF293:
 11207 1c15 5254 454D 	.string"RTEMS_INTERNAL_ERROR"
 11207      535F 494E 
 11207      5445 524E 
 11207      414C 5F45 
 11207      5252 4F52 
 11208               	.LASF175:
 11209 1c2a 5F77 6373 	.string"_wcsrtombs_state"
 11209      7274 6F6D 
 11209      6273 5F73 
 11209      7461 7465 
 11209      00
 11210               	.LASF604:
 11211 1c3b 5F54 696D 	.string"_Timecounter_Time_uptime"
 11211      6563 6F75 
 11211      6E74 6572 
 11211      5F54 696D 
 11211      655F 7570 
 11212               	.LASF28:
 11213 1c54 5F54 6872 	.string"_Thread_queue_Queue"
 11213      6561 645F 
 11213      7175 6575 
 11213      655F 5175 
 11213      6575 6500 
 11214               	.LASF653:
 11215 1c68 6673 796E 	.string"fsync_h"
 11215      635F 6800 
 11216               	.LASF362:
 11217 1c70 5468 7265 	.string"Thread_Control"
 11217      6164 5F43 
 11217      6F6E 7472 
 11217      6F6C 00
 11218               	.LASF839:
 11219 1c7f 7374 6174 	.string"stat_buf"
 11219      5F62 7566 
 11219      00
 11220               	.LASF546:
68K GAS   			page 243


 11221 1c88 5573 6572 	.string"User_extensions_thread_start_extension"
 11221      5F65 7874 
 11221      656E 7369 
 11221      6F6E 735F 
 11221      7468 7265 
 11222               	.LASF289:
 11223 1caf 5254 454D 	.string"RTEMS_INVALID_NODE"
 11223      535F 494E 
 11223      5641 4C49 
 11223      445F 4E4F 
 11223      4445 00
 11224               	.LASF599:
 11225 1cc2 7463 5F70 	.string"tc_priv"
 11225      7269 7600 
 11226               	.LASF71:
 11227 1cca 5F4C 4F43 	.string"_LOCK_RECURSIVE_T"
 11227      4B5F 5245 
 11227      4355 5253 
 11227      4956 455F 
 11227      5400 
 11228               	.LASF478:
 11229 1cdc 706F 7369 	.string"posix_initialization_threads_table"
 11229      785F 696E 
 11229      6974 6961 
 11229      6C69 7A61 
 11229      7469 6F6E 
 11230               	.LASF442:
 11231 1cff 5468 7265 	.string"Thread_Timer_information"
 11231      6164 5F54 
 11231      696D 6572 
 11231      5F69 6E66 
 11231      6F72 6D61 
 11232               	.LASF329:
 11233 1d18 5072 696F 	.string"Priority_Node"
 11233      7269 7479 
 11233      5F4E 6F64 
 11233      6500 
 11234               	.LASF632:
 11235 1d26 6D74 5F6E 	.string"mt_node"
 11235      6F64 6500 
 11236               	.LASF6:
 11237 1d2e 6C6F 6E67 	.string"long int"
 11237      2069 6E74 
 11237      00
 11238               	.LASF640:
 11239 1d37 7061 7468 	.string"pathconf_limits_and_options"
 11239      636F 6E66 
 11239      5F6C 696D 
 11239      6974 735F 
 11239      616E 645F 
 11240               	.LASF505:
 11241 1d53 5363 6865 	.string"Scheduler_Context"
 11241      6475 6C65 
 11241      725F 436F 
 11241      6E74 6578 
 11241      7400 
 11242               	.LASF167:
68K GAS   			page 244


 11243 1d65 5F77 6374 	.string"_wctomb_state"
 11243      6F6D 625F 
 11243      7374 6174 
 11243      6500 
 11244               	.LASF854:
 11245 1d73 4F53 5F6D 	.string"OS_mkfs"
 11245      6B66 7300 
 11246               	.LASF368:
 11247 1d7b 6465 6164 	.string"deadlock_callout"
 11247      6C6F 636B 
 11247      5F63 616C 
 11247      6C6F 7574 
 11247      00
 11248               	.LASF509:
 11249 1d8c 7274 656D 	.string"rtems_task_argument"
 11249      735F 7461 
 11249      736B 5F61 
 11249      7267 756D 
 11249      656E 7400 
 11250               	.LASF434:
 11251 1da0 7265 7475 	.string"return_code"
 11251      726E 5F63 
 11251      6F64 6500 
 11252               	.LASF477:
 11253 1dac 7374 6163 	.string"stack_size"
 11253      6B5F 7369 
 11253      7A65 00
 11254               	.LASF536:
 11255 1db7 5254 454D 	.string"RTEMS_FATAL_SOURCE_PANIC"
 11255      535F 4641 
 11255      5441 4C5F 
 11255      534F 5552 
 11255      4345 5F50 
 11256               	.LASF153:
 11257 1dd0 5F69 6F62 	.string"_iobs"
 11257      7300 
 11258               	.LASF136:
 11259 1dd6 5F65 6D65 	.string"_emergency"
 11259      7267 656E 
 11259      6379 00
 11260               	.LASF381:
 11261 1de1 7469 636B 	.string"ticks"
 11261      7300 
 11262               	.LASF739:
 11263 1de7 6B6E 6F74 	.string"knote"
 11263      6500 
 11264               	.LASF264:
 11265 1ded 436F 6E74 	.string"Context_Control_fp"
 11265      6578 745F 
 11265      436F 6E74 
 11265      726F 6C5F 
 11265      6670 00
 11266               	.LASF177:
 11267 1e00 5F6E 6578 	.string"_nextf"
 11267      7466 00
 11268               	.LASF163:
 11269 1e07 5F72 616E 	.string"_rand_next"
68K GAS   			page 245


 11269      645F 6E65 
 11269      7874 00
 11270               	.LASF375:
 11271 1e12 7375 7272 	.string"surrender"
 11271      656E 6465 
 11271      7200 
 11272               	.LASF811:
 11273 1e1c 4D61 7856 	.string"MaxVolumes"
 11273      6F6C 756D 
 11273      6573 00
 11274               	.LASF638:
 11275 1e27 6D6F 756E 	.string"mounted"
 11275      7465 6400 
 11276               	.LASF186:
 11277 1e2f 7569 6E74 	.string"uint32_t"
 11277      3332 5F74 
 11277      00
 11278               	.LASF355:
 11279 1e38 5761 7463 	.string"Watchdog_Service_routine_entry"
 11279      6864 6F67 
 11279      5F53 6572 
 11279      7669 6365 
 11279      5F72 6F75 
 11280               	.LASF417:
 11281 1e57 456E 7472 	.string"Entry"
 11281      7900 
 11282               	.LASF601:
 11283 1e5d 7469 6D65 	.string"timecounter_pps_t"
 11283      636F 756E 
 11283      7465 725F 
 11283      7070 735F 
 11283      7400 
 11284               	.LASF89:
 11285 1e6f 5F6D 6178 	.string"_maxwds"
 11285      7764 7300 
 11286               	.LASF731:
 11287 1e77 7274 656D 	.string"rtems_filesystem_lseek_t"
 11287      735F 6669 
 11287      6C65 7379 
 11287      7374 656D 
 11287      5F6C 7365 
 11288               	.LASF188:
 11289 1e90 7569 6E74 	.string"uintptr_t"
 11289      7074 725F 
 11289      7400 
 11290               	.LASF757:
 11291 1e9a 5254 454D 	.string"RTEMS_FILESYSTEM_READ_WRITE"
 11291      535F 4649 
 11291      4C45 5359 
 11291      5354 454D 
 11291      5F52 4541 
 11292               	.LASF758:
 11293 1eb6 5254 454D 	.string"RTEMS_FILESYSTEM_BAD_OPTIONS"
 11293      535F 4649 
 11293      4C45 5359 
 11293      5354 454D 
 11293      5F42 4144 
68K GAS   			page 246


 11294               	.LASF16:
 11295 1ed3 6C6F 6E67 	.string"long double"
 11295      2064 6F75 
 11295      626C 6500 
 11296               	.LASF212:
 11297 1edf 7375 626F 	.string"suboptarg"
 11297      7074 6172 
 11297      6700 
 11298               	.LASF52:
 11299 1ee9 6370 755F 	.string"cpu_time_used"
 11299      7469 6D65 
 11299      5F75 7365 
 11299      6400 
 11300               	.LASF621:
 11301 1ef7 696F 765F 	.string"iov_len"
 11301      6C65 6E00 
 11302               	.LASF241:
 11303 1eff 665F 626C 	.string"f_blocks"
 11303      6F63 6B73 
 11303      00
 11304               	.LASF29:
 11305 1f08 5F4C 6F63 	.string"_Lock"
 11305      6B00 
 11306               	.LASF646:
 11307 1f0e 636C 6F73 	.string"close_h"
 11307      655F 6800 
 11308               	.LASF344:
 11309 1f16 5072 696F 	.string"Priority"
 11309      7269 7479 
 11309      00
 11310               	.LASF482:
 11311 1f1f 6D61 7869 	.string"maximum_message_queues"
 11311      6D75 6D5F 
 11311      6D65 7373 
 11311      6167 655F 
 11311      7175 6575 
 11312               	.LASF8:
 11313 1f36 6C6F 6E67 	.string"long unsigned int"
 11313      2075 6E73 
 11313      6967 6E65 
 11313      6420 696E 
 11313      7400 
 11314               	.LASF539:
 11315 1f48 496E 7465 	.string"Internal_errors_t"
 11315      726E 616C 
 11315      5F65 7272 
 11315      6F72 735F 
 11315      7400 
 11316               	.LASF194:
 11317 1f5a 626C 6B63 	.string"blkcnt_t"
 11317      6E74 5F74 
 11317      00
 11318               	.LASF400:
 11319 1f63 656E 7472 	.string"entry"
 11319      7900 
 11320               	.LASF690:
 11321 1f69 6C6F 6361 	.string"location"
68K GAS   			page 247


 11321      7469 6F6E 
 11321      00
 11322               	.LASF317:
 11323 1f72 5242 5472 	.string"RBTree_Node"
 11323      6565 5F4E 
 11323      6F64 6500 
 11324               	.LASF464:
 11325 1f7e 736F 7572 	.string"source_offset"
 11325      6365 5F6F 
 11325      6666 7365 
 11325      7400 
 11326               	.LASF584:
 11327 1f8c 5573 6572 	.string"User_extension_table"
 11327      5F65 7874 
 11327      656E 7369 
 11327      6F6E 5F74 
 11327      6162 6C65 
 11328               	.LASF826:
 11329 1fa1 4F53 5F54 	.string"OS_TranslatePath"
 11329      7261 6E73 
 11329      6C61 7465 
 11329      5061 7468 
 11329      00
 11330               	.LASF800:
 11331 1fb2 566F 6C75 	.string"VolumeName"
 11331      6D65 4E61 
 11331      6D65 00
 11332               	.LASF575:
 11333 1fbd 6964 6C65 	.string"idle_task_stack_size"
 11333      5F74 6173 
 11333      6B5F 7374 
 11333      6163 6B5F 
 11333      7369 7A65 
 11334               	.LASF591:
 11335 1fd2 7469 6D65 	.string"timecounter"
 11335      636F 756E 
 11335      7465 7200 
 11336               	.LASF721:
 11337 1fde 7274 656D 	.string"rtems_filesystem_rename_t"
 11337      735F 6669 
 11337      6C65 7379 
 11337      7374 656D 
 11337      5F72 656E 
 11338               	.LASF121:
 11339 1ff8 5F63 6C6F 	.string"_close"
 11339      7365 00
 11340               	.LASF573:
 11341 1fff 7469 636B 	.string"ticks_per_timeslice"
 11341      735F 7065 
 11341      725F 7469 
 11341      6D65 736C 
 11341      6963 6500 
 11342               	.LASF586:
 11343 2013 436F 6E66 	.string"Configuration"
 11343      6967 7572 
 11343      6174 696F 
 11343      6E00 
68K GAS   			page 248


 11344               	.LASF65:
 11345 2021 6368 6172 	.string"char"
 11345      00
 11346               	.LASF770:
 11347 2026 7274 656D 	.string"rtems_blkdev_generic_ops"
 11347      735F 626C 
 11347      6B64 6576 
 11347      5F67 656E 
 11347      6572 6963 
 11348               	.LASF151:
 11349 203f 5F67 6C75 	.string"_glue"
 11349      6500 
 11350               	.LASF286:
 11351 2045 5254 454D 	.string"RTEMS_CALLED_FROM_ISR"
 11351      535F 4341 
 11351      4C4C 4544 
 11351      5F46 524F 
 11351      4D5F 4953 
 11352               	.LASF456:
 11353 205b 7065 6E64 	.string"pending_life_change_requests"
 11353      696E 675F 
 11353      6C69 6665 
 11353      5F63 6861 
 11353      6E67 655F 
 11354               	.LASF50:
 11355 2078 6275 6467 	.string"budget_algorithm"
 11355      6574 5F61 
 11355      6C67 6F72 
 11355      6974 686D 
 11355      00
 11356               	.LASF789:
 11357 2089 7569 6E74 	.string"uint32"
 11357      3332 00
 11358               	.LASF568:
 11359 2090 7374 6163 	.string"stack_space_size"
 11359      6B5F 7370 
 11359      6163 655F 
 11359      7369 7A65 
 11359      00
 11360               	.LASF761:
 11361 20a1 7274 656D 	.string"rtems_filesystem_table"
 11361      735F 6669 
 11361      6C65 7379 
 11361      7374 656D 
 11361      5F74 6162 
 11362               	.LASF605:
 11363 20b8 5F54 696D 	.string"_Timecounter_Boottimebin"
 11363      6563 6F75 
 11363      6E74 6572 
 11363      5F42 6F6F 
 11363      7474 696D 
 11364               	.LASF670:
 11365 20d1 6663 686D 	.string"fchmod_h"
 11365      6F64 5F68 
 11365      00
 11366               	.LASF392:
 11367 20da 5468 7265 	.string"Thread_queue_Extract_operation"
68K GAS   			page 249


 11367      6164 5F71 
 11367      7565 7565 
 11367      5F45 7874 
 11367      7261 6374 
 11368               	.LASF19:
 11369 20f9 5F5F 6465 	.string"__dev_t"
 11369      765F 7400 
 11370               	.LASF415:
 11371 2101 5468 7265 	.string"Thread_CPU_budget_algorithms"
 11371      6164 5F43 
 11371      5055 5F62 
 11371      7564 6765 
 11371      745F 616C 
 11372               	.LASF87:
 11373 211e 5F42 6967 	.string"_Bigint"
 11373      696E 7400 
 11374               	.LASF41:
 11375 2126 5265 616C 	.string"Real_priority"
 11375      5F70 7269 
 11375      6F72 6974 
 11375      7900 
 11376               	.LASF712:
 11377 2134 7274 656D 	.string"rtems_filesystem_fsmount_me_t"
 11377      735F 6669 
 11377      6C65 7379 
 11377      7374 656D 
 11377      5F66 736D 
 11378               	.LASF732:
 11379 2152 7274 656D 	.string"rtems_filesystem_fstat_t"
 11379      735F 6669 
 11379      6C65 7379 
 11379      7374 656D 
 11379      5F66 7374 
 11380               	.LASF404:
 11381 216b 5468 7265 	.string"Thread_Entry_pointer"
 11381      6164 5F45 
 11381      6E74 7279 
 11381      5F70 6F69 
 11381      6E74 6572 
 11382               	.LASF537:
 11383 2180 5254 454D 	.string"RTEMS_FATAL_SOURCE_LAST"
 11383      535F 4641 
 11383      5441 4C5F 
 11383      534F 5552 
 11383      4345 5F4C 
 11384               	.LASF550:
 11385 2198 5573 6572 	.string"User_extensions_thread_exitted_extension"
 11385      5F65 7874 
 11385      656E 7369 
 11385      6F6E 735F 
 11385      7468 7265 
 11386               	.LASF46:
 11387 21c1 6973 5F70 	.string"is_preemptible"
 11387      7265 656D 
 11387      7074 6962 
 11387      6C65 00
 11388               	.LASF360:
68K GAS   			page 250


 11389 21d0 5F57 6174 	.string"_Watchdog_Nanoseconds_per_tick"
 11389      6368 646F 
 11389      675F 4E61 
 11389      6E6F 7365 
 11389      636F 6E64 
 11390               	.LASF338:
 11391 21ef 6E6F 6465 	.string"node"
 11391      00
 11392               	.LASF14:
 11393 21f4 5F5F 7569 	.string"__uintptr_t"
 11393      6E74 7074 
 11393      725F 7400 
 11394               	.LASF742:
 11395 2200 6C69 6E6B 	.string"link_max"
 11395      5F6D 6178 
 11395      00
 11396               	.LASF548:
 11397 2209 5573 6572 	.string"User_extensions_thread_switch_extension"
 11397      5F65 7874 
 11397      656E 7369 
 11397      6F6E 735F 
 11397      7468 7265 
 11398               	.LASF751:
 11399 2231 706F 7369 	.string"posix_prio_io"
 11399      785F 7072 
 11399      696F 5F69 
 11399      6F00 
 11400               	.LASF598:
 11401 223f 7463 5F66 	.string"tc_flags"
 11401      6C61 6773 
 11401      00
 11402               	.LASF491:
 11403 2248 7363 6865 	.string"schedule"
 11403      6475 6C65 
 11403      00
 11404               	.LASF861:
 11405 2251 474E 5520 	.string"GNU C11 7.3.0 20180125 (RTEMS 5, RSB d2b25d131d55adcb38219f2cd8cbec2436ee78ab, Newlib 3.0.0) -malign-int -mcpu=528x -g -O0 -fomit-frame-pointer"
 11405      4331 3120 
 11405      372E 332E 
 11405      3020 3230 
 11405      3138 3031 
 11406               	.LASF248:
 11407 22e1 665F 666C 	.string"f_flag"
 11407      6167 00
 11408               	.LASF170:
 11409 22e8 5F67 6574 	.string"_getdate_err"
 11409      6461 7465 
 11409      5F65 7272 
 11409      00
 11410               	.LASF858:
 11411 22f5 6E75 6D5F 	.string"num_blocks"
 11411      626C 6F63 
 11411      6B73 00
 11412               	.LASF847:
 11413 2300 6465 766E 	.string"devname"
 11413      616D 6500 
 11414               	.LASF312:
68K GAS   			page 251


 11415 2308 4368 6169 	.string"Chain_Control"
 11415      6E5F 436F 
 11415      6E74 726F 
 11415      6C00 
 11416               	.LASF489:
 11417 2316 5363 6865 	.string"Scheduler_Control"
 11417      6475 6C65 
 11417      725F 436F 
 11417      6E74 726F 
 11417      6C00 
 11418               	.LASF261:
 11419 2328 5F6C 6173 	.string"_last_operation"
 11419      745F 6F70 
 11419      6572 6174 
 11419      696F 6E00 
 11420               	.LASF649:
 11421 2338 696F 6374 	.string"ioctl_h"
 11421      6C5F 6800 
 11422               	.LASF205:
 11423 2340 6E6C 696E 	.string"nlink_t"
 11423      6B5F 7400 
 11424               	.LASF278:
 11425 2348 5254 454D 	.string"RTEMS_INVALID_NUMBER"
 11425      535F 494E 
 11425      5641 4C49 
 11425      445F 4E55 
 11425      4D42 4552 
 11426               	.LASF790:
 11427 235d 7569 6E74 	.string"uint64"
 11427      3634 00
 11428               	.LASF346:
 11429 2364 7369 7A65 	.string"size"
 11429      00
 11430               	.LASF507:
 11431 2369 7274 656D 	.string"rtems_attribute"
 11431      735F 6174 
 11431      7472 6962 
 11431      7574 6500 
 11432               	.LASF181:
 11433 2379 5F69 6D70 	.string"_impure_ptr"
 11433      7572 655F 
 11433      7074 7200 
 11434               	.LASF644:
 11435 2385 5F72 7465 	.string"_rtems_filesystem_file_handlers_r"
 11435      6D73 5F66 
 11435      696C 6573 
 11435      7973 7465 
 11435      6D5F 6669 
 11436               	.LASF124:
 11437 23a7 5F62 6C6B 	.string"_blksize"
 11437      7369 7A65 
 11437      00
 11438               	.LASF347:
 11439 23b0 6172 6561 	.string"area"
 11439      00
 11440               	.LASF450:
 11441 23b5 5448 5245 	.string"THREAD_LIFE_RESTARTING"
68K GAS   			page 252


 11441      4144 5F4C 
 11441      4946 455F 
 11441      5245 5354 
 11441      4152 5449 
 11442               	.LASF122:
 11443 23cc 5F75 6275 	.string"_ubuf"
 11443      6600 
 11444               	.LASF334:
 11445 23d2 5072 696F 	.string"Priority_Action_type"
 11445      7269 7479 
 11445      5F41 6374 
 11445      696F 6E5F 
 11445      7479 7065 
 11446               	.LASF304:
 11447 23e7 4368 6169 	.string"Chain_Node"
 11447      6E5F 4E6F 
 11447      6465 00
 11448               	.LASF855:
 11449 23f2 636F 6E66 	.string"config"
 11449      6967 00
 11450               	.LASF165:
 11451 23f9 5F6D 626C 	.string"_mblen_state"
 11451      656E 5F73 
 11451      7461 7465 
 11451      00
 11452               	.LASF149:
 11453 2406 5F5F 7367 	.string"__sglue"
 11453      6C75 6500 
 11454               	.LASF377:
 11455 240e 5F5F 6C6F 	.string"__locale_t"
 11455      6361 6C65 
 11455      5F74 00
 11456               	.LASF193:
 11457 2419 755F 696E 	.string"u_int"
 11457      7400 
 11458               	.LASF776:
 11459 241f 7274 656D 	.string"rtems_ramdisk_configuration_size"
 11459      735F 7261 
 11459      6D64 6973 
 11459      6B5F 636F 
 11459      6E66 6967 
 11460               	.LASF242:
 11461 2440 665F 6266 	.string"f_bfree"
 11461      7265 6500 
 11462               	.LASF140:
 11463 2448 5F5F 636C 	.string"__cleanup"
 11463      6561 6E75 
 11463      7000 
 11464               	.LASF631:
 11465 2452 7274 656D 	.string"rtems_filesystem_mount_table_entry_tt"
 11465      735F 6669 
 11465      6C65 7379 
 11465      7374 656D 
 11465      5F6D 6F75 
 11466               	.LASF777:
 11467 2478 7261 6D64 	.string"ramdisk_ops"
 11467      6973 6B5F 
68K GAS   			page 253


 11467      6F70 7300 
 11468               	.LASF797:
 11469 2484 566F 6C61 	.string"VolatileFlag"
 11469      7469 6C65 
 11469      466C 6167 
 11469      00
 11470               	.LASF716:
 11471 2491 7274 656D 	.string"rtems_filesystem_mknod_t"
 11471      735F 6669 
 11471      6C65 7379 
 11471      7374 656D 
 11471      5F6D 6B6E 
 11472               	.LASF656:
 11473 24aa 706F 6C6C 	.string"poll_h"
 11473      5F68 00
 11474               	.LASF262:
 11475 24b1 5F6F 7065 	.string"_operand1"
 11475      7261 6E64 
 11475      3100 
 11476               	.LASF263:
 11477 24bb 5F6F 7065 	.string"_operand2"
 11477      7261 6E64 
 11477      3200 
 11478               	.LASF21:
 11479 24c5 5F66 706F 	.string"_fpos_t"
 11479      735F 7400 
 11480               	.LASF115:
 11481 24cd 5F66 696C 	.string"_file"
 11481      6500 
 11482               	.LASF60:
 11483 24d3 4C69 6665 	.string"Life"
 11483      00
 11484               	.LASF253:
 11485 24d8 436F 6E74 	.string"Context_Control"
 11485      6578 745F 
 11485      436F 6E74 
 11485      726F 6C00 
 11486               	.LASF349:
 11487 24e8 7274 656D 	.string"rtems_minimum_stack_size"
 11487      735F 6D69 
 11487      6E69 6D75 
 11487      6D5F 7374 
 11487      6163 6B5F 
 11488               	.LASF624:
 11489 2501 7274 656D 	.string"rtems_libio_t"
 11489      735F 6C69 
 11489      6269 6F5F 
 11489      7400 
 11490               	.LASF364:
 11491 250f 4C6F 636B 	.string"Lock_context"
 11491      5F63 6F6E 
 11491      7465 7874 
 11491      00
 11492               	.LASF113:
 11493 251c 5F5F 7346 	.string"__sFILE"
 11493      494C 4500 
 11494               	.LASF463:
68K GAS   			page 254


 11495 2524 6465 7374 	.string"destination_offset"
 11495      696E 6174 
 11495      696F 6E5F 
 11495      6F66 6673 
 11495      6574 00
 11496               	.LASF255:
 11497 2537 646F 7562 	.string"double"
 11497      6C65 00
 11498               	.LASF109:
 11499 253e 5F66 6E73 	.string"_fns"
 11499      00
 11500               	.LASF713:
 11501 2543 7274 656D 	.string"rtems_filesystem_unmount_t"
 11501      735F 6669 
 11501      6C65 7379 
 11501      7374 656D 
 11501      5F75 6E6D 
 11502               	.LASF693:
 11503 255e 6465 6665 	.string"deferred_released_count"
 11503      7272 6564 
 11503      5F72 656C 
 11503      6561 7365 
 11503      645F 636F 
 11504               	.LASF704:
 11505 2576 7274 656D 	.string"rtems_filesystem_eval_path_context_t"
 11505      735F 6669 
 11505      6C65 7379 
 11505      7374 656D 
 11505      5F65 7661 
 11506               	.LASF320:
 11507 259b 6E61 6D65 	.string"name_p"
 11507      5F70 00
 11508               	.LASF462:
 11509 25a2 5573 6572 	.string"User_extensions_Iterator"
 11509      5F65 7874 
 11509      656E 7369 
 11509      6F6E 735F 
 11509      4974 6572 
 11510               	.LASF387:
 11511 25bb 5468 7265 	.string"Thread_queue_Priority_queue"
 11511      6164 5F71 
 11511      7565 7565 
 11511      5F50 7269 
 11511      6F72 6974 
 11512               	.LASF268:
 11513 25d7 5254 454D 	.string"RTEMS_SUCCESSFUL"
 11513      535F 5355 
 11513      4343 4553 
 11513      5346 554C 
 11513      00
 11514               	.LASF83:
 11515 25e8 5F6D 6273 	.string"_mbstate_t"
 11515      7461 7465 
 11515      5F74 00
 11516               	.LASF176:
 11517 25f3 5F68 5F65 	.string"_h_errno"
 11517      7272 6E6F 
68K GAS   			page 255


 11517      00
 11518               	.LASF314:
 11519 25fc 7262 655F 	.string"rbe_right"
 11519      7269 6768 
 11519      7400 
 11520               	.LASF749:
 11521 2606 706F 7369 	.string"posix_chown_restrictions"
 11521      785F 6368 
 11521      6F77 6E5F 
 11521      7265 7374 
 11521      7269 6374 
 11522               	.LASF217:
 11523 261f 7374 5F64 	.string"st_dev"
 11523      6576 00
 11524               	.LASF203:
 11525 2626 7373 697A 	.string"ssize_t"
 11525      655F 7400 
 11526               	.LASF695:
 11527 262e 7274 656D 	.string"rtems_filesystem_mt_entry_unlock_t"
 11527      735F 6669 
 11527      6C65 7379 
 11527      7374 656D 
 11527      5F6D 745F 
 11528               	.LASF679:
 11529 2651 7265 6164 	.string"readlink_h"
 11529      6C69 6E6B 
 11529      5F68 00
 11530               	.LASF681:
 11531 265c 7374 6174 	.string"statvfs_h"
 11531      7666 735F 
 11531      6800 
 11532               	.LASF533:
 11533 2666 5254 454D 	.string"RTEMS_FATAL_SOURCE_STACK_CHECKER"
 11533      535F 4641 
 11533      5441 4C5F 
 11533      534F 5552 
 11533      4345 5F53 
 11534               	.LASF794:
 11535 2687 4465 7669 	.string"DeviceName"
 11535      6365 4E61 
 11535      6D65 00
 11536               	.LASF394:
 11537 2692 5468 7265 	.string"Thread_queue_First_operation"
 11537      6164 5F71 
 11537      7565 7565 
 11537      5F46 6972 
 11537      7374 5F6F 
 11538               	.LASF369:
 11539 26af 5468 7265 	.string"Thread_queue_Queue"
 11539      6164 5F71 
 11539      7565 7565 
 11539      5F51 7565 
 11539      7565 00
 11540               	.LASF807:
 11541 26c2 4973 5661 	.string"IsValid"
 11541      6C69 6400 
 11542               	.LASF5:
68K GAS   			page 256


 11543 26ca 5F5F 696E 	.string"__int32_t"
 11543      7433 325F 
 11543      7400 
 11544               	.LASF628:
 11545 26d4 6461 7461 	.string"data0"
 11545      3000 
 11546               	.LASF629:
 11547 26da 6461 7461 	.string"data1"
 11547      3100 
 11548               	.LASF7:
 11549 26e0 5F5F 7569 	.string"__uint32_t"
 11549      6E74 3332 
 11549      5F74 00
 11550               	.LASF766:
 11551 26eb 6461 7461 	.string"data"
 11551      00
 11552               	.LASF276:
 11553 26f0 5254 454D 	.string"RTEMS_INVALID_SIZE"
 11553      535F 494E 
 11553      5641 4C49 
 11553      445F 5349 
 11553      5A45 00
 11554               	.LASF335:
 11555 2703 5072 696F 	.string"Priority_Aggregation"
 11555      7269 7479 
 11555      5F41 6767 
 11555      7265 6761 
 11555      7469 6F6E 
 11556               	.LASF82:
 11557 2718 5F5F 7661 	.string"__value"
 11557      6C75 6500 
 11558               	.LASF106:
 11559 2720 5F69 735F 	.string"_is_cxa"
 11559      6378 6100 
 11560               	.LASF558:
 11561 2728 7468 7265 	.string"thread_begin"
 11561      6164 5F62 
 11561      6567 696E 
 11561      00
 11562               	.LASF298:
 11563 2735 4953 525F 	.string"ISR_Level"
 11563      4C65 7665 
 11563      6C00 
 11564               	.LASF808:
 11565 273f 4F53 5F46 	.string"OS_FDTableEntry"
 11565      4454 6162 
 11565      6C65 456E 
 11565      7472 7900 
 11566               	.LASF566:
 11567 274f 7274 656D 	.string"rtems_stack_free_hook"
 11567      735F 7374 
 11567      6163 6B5F 
 11567      6672 6565 
 11567      5F68 6F6F 
 11568               	.LASF427:
 11569 2765 696D 6D75 	.string"immutable_object"
 11569      7461 626C 
68K GAS   			page 257


 11569      655F 6F62 
 11569      6A65 6374 
 11569      00
 11570               	.LASF541:
 11571 2776 7468 655F 	.string"the_error"
 11571      6572 726F 
 11571      7200 
 11572               	.LASF444:
 11573 2780 6861 6E64 	.string"handler"
 11573      6C65 7200 
 11574               	.LASF143:
 11575 2788 5F70 3573 	.string"_p5s"
 11575      00
 11576               	.LASF58:
 11577 278d 4150 495F 	.string"API_Extensions"
 11577      4578 7465 
 11577      6E73 696F 
 11577      6E73 00
 11578               	.LASF813:
 11579 279c 6F73 5F66 	.string"os_fsinfo_t"
 11579      7369 6E66 
 11579      6F5F 7400 
 11580               	.LASF302:
 11581 27a8 6973 725F 	.string"isr_level"
 11581      6C65 7665 
 11581      6C00 
 11582               	.LASF294:
 11583 27b2 5254 454D 	.string"RTEMS_NO_MEMORY"
 11583      535F 4E4F 
 11583      5F4D 454D 
 11583      4F52 5900 
 11584               	.LASF56:
 11585 27c2 6670 5F63 	.string"fp_context"
 11585      6F6E 7465 
 11585      7874 00
 11586               	.LASF582:
 11587 27cd 7374 6163 	.string"stack_allocator_avoids_work_space"
 11587      6B5F 616C 
 11587      6C6F 6361 
 11587      746F 725F 
 11587      6176 6F69 
 11588               	.LASF611:
 11589 27ef 696E 6974 	.string"initialization_entry"
 11589      6961 6C69 
 11589      7A61 7469 
 11589      6F6E 5F65 
 11589      6E74 7279 
 11590               	.LASF256:
 11591 2804 5F65 7863 	.string"_exception_bits"
 11591      6570 7469 
 11591      6F6E 5F62 
 11591      6974 7300 
 11592               	.LASF40:
 11593 2814 6375 7272 	.string"current_state"
 11593      656E 745F 
 11593      7374 6174 
 11593      6500 
68K GAS   			page 258


 11594               	.LASF815:
 11595 2822 4F53 5F56 	.string"OS_VolumeTable"
 11595      6F6C 756D 
 11595      6554 6162 
 11595      6C65 00
 11596               	.LASF431:
 11597 2831 7265 7475 	.string"return_argument"
 11597      726E 5F61 
 11597      7267 756D 
 11597      656E 7400 
 11598               	.LASF390:
 11599 2841 5468 7265 	.string"Thread_queue_Priority_actions_operation"
 11599      6164 5F71 
 11599      7565 7565 
 11599      5F50 7269 
 11599      6F72 6974 
 11600               	.LASF652:
 11601 2869 6674 7275 	.string"ftruncate_h"
 11601      6E63 6174 
 11601      655F 6800 
 11602               	.LASF660:
 11603 2875 6D6D 6170 	.string"mmap_h"
 11603      5F68 00
 11604               	.LASF451:
 11605 287c 5448 5245 	.string"THREAD_LIFE_TERMINATING"
 11605      4144 5F4C 
 11605      4946 455F 
 11605      5445 524D 
 11605      494E 4154 
 11606               	.LASF561:
 11607 2894 7468 7265 	.string"thread_terminate"
 11607      6164 5F74 
 11607      6572 6D69 
 11607      6E61 7465 
 11607      00
 11608               	.LASF66:
 11609 28a5 5F4D 7574 	.string"_Mutex_Control"
 11609      6578 5F43 
 11609      6F6E 7472 
 11609      6F6C 00
 11610               	.LASF75:
 11611 28b4 5F5F 6769 	.string"__gid_t"
 11611      645F 7400 
 11612               	.LASF545:
 11613 28bc 5573 6572 	.string"User_extensions_thread_delete_extension"
 11613      5F65 7874 
 11613      656E 7369 
 11613      6F6E 735F 
 11613      7468 7265 
 11614               	.LASF609:
 11615 28e4 7274 656D 	.string"rtems_device_driver"
 11615      735F 6465 
 11615      7669 6365 
 11615      5F64 7269 
 11615      7665 7200 
 11616               	.LASF809:
 11617 28f8 4D61 7846 	.string"MaxFds"
68K GAS   			page 259


 11617      6473 00
 11618               	.LASF485:
 11619 28ff 6E75 6D62 	.string"number_of_initialization_threads"
 11619      6572 5F6F 
 11619      665F 696E 
 11619      6974 6961 
 11619      6C69 7A61 
 11620               	.LASF319:
 11621 2920 7262 685F 	.string"rbh_root"
 11621      726F 6F74 
 11621      00
 11622               	.LASF407:
 11623 2929 506F 696E 	.string"Pointer"
 11623      7465 7200 
 11624               	.LASF436:
 11625 2931 7175 6575 	.string"queue"
 11625      6500 
 11626               	.LASF559:
 11627 2937 7468 7265 	.string"thread_exitted"
 11627      6164 5F65 
 11627      7869 7474 
 11627      6564 00
 11628               	.LASF529:
 11629 2946 5254 454D 	.string"RTEMS_FATAL_SOURCE_APPLICATION"
 11629      535F 4641 
 11629      5441 4C5F 
 11629      534F 5552 
 11629      4345 5F41 
 11630               	.LASF665:
 11631 2965 6576 616C 	.string"eval_path_h"
 11631      5F70 6174 
 11631      685F 6800 
 11632               	.LASF204:
 11633 2971 6D6F 6465 	.string"mode_t"
 11633      5F74 00
 11634               	.LASF270:
 11635 2978 5254 454D 	.string"RTEMS_MP_NOT_CONFIGURED"
 11635      535F 4D50 
 11635      5F4E 4F54 
 11635      5F43 4F4E 
 11635      4649 4755 
 11636               	.LASF756:
 11637 2990 5254 454D 	.string"RTEMS_FILESYSTEM_READ_ONLY"
 11637      535F 4649 
 11637      4C45 5359 
 11637      5354 454D 
 11637      5F52 4541 
 11638               	.LASF213:
 11639 29ab 5F74 696D 	.string"_timezone"
 11639      657A 6F6E 
 11639      6500 
 11640               	.LASF191:
 11641 29b5 7476 5F73 	.string"tv_sec"
 11641      6563 00
 11642               	.LASF396:
 11643 29bc 6269 6E74 	.string"bintime"
 11643      696D 6500 
68K GAS   			page 260


 11644               	.LASF57:
 11645 29c4 6C69 6263 	.string"libc_reent"
 11645      5F72 6565 
 11645      6E74 00
 11646               	.LASF12:
 11647 29cf 6C6F 6E67 	.string"long long unsigned int"
 11647      206C 6F6E 
 11647      6720 756E 
 11647      7369 676E 
 11647      6564 2069 
 11648               	.LASF626:
 11649 29e6 6F66 6673 	.string"offset"
 11649      6574 00
 11650               	.LASF782:
 11651 29ed 6D61 785F 	.string"max_name_length"
 11651      6E61 6D65 
 11651      5F6C 656E 
 11651      6774 6800 
 11652               	.LASF378:
 11653 29fd 5065 725F 	.string"Per_CPU_Control"
 11653      4350 555F 
 11653      436F 6E74 
 11653      726F 6C00 
 11654               	.LASF578:
 11655 2a0d 7374 6163 	.string"stack_allocate_hook"
 11655      6B5F 616C 
 11655      6C6F 6361 
 11655      7465 5F68 
 11655      6F6F 6B00 
 11656               	.LASF403:
 11657 2a21 5468 7265 	.string"Thread_Entry_numeric"
 11657      6164 5F45 
 11657      6E74 7279 
 11657      5F6E 756D 
 11657      6572 6963 
 11658               	.LASF860:
 11659 2a36 6C6F 6361 	.string"local_address"
 11659      6C5F 6164 
 11659      6472 6573 
 11659      7300 
 11660               	.LASF201:
 11661 2a44 7569 645F 	.string"uid_t"
 11661      7400 
 11662               	.LASF36:
 11663 2a4a 4672 6565 	.string"Free_node"
 11663      5F6E 6F64 
 11663      6500 
 11664               	.LASF610:
 11665 2a54 7274 656D 	.string"rtems_device_driver_entry"
 11665      735F 6465 
 11665      7669 6365 
 11665      5F64 7269 
 11665      7665 725F 
 11666               	.LASF162:
 11667 2a6e 5F67 616D 	.string"_gamma_signgam"
 11667      6D61 5F73 
 11667      6967 6E67 
68K GAS   			page 261


 11667      616D 00
 11668               	.LASF229:
 11669 2a7d 7374 5F62 	.string"st_blocks"
 11669      6C6F 636B 
 11669      7300 
 11670               	.LASF479:
 11671 2a87 6D61 7869 	.string"maximum_threads"
 11671      6D75 6D5F 
 11671      7468 7265 
 11671      6164 7300 
 11672               	.LASF501:
 11673 2a97 6361 6E63 	.string"cancel_job"
 11673      656C 5F6A 
 11673      6F62 00
 11674               	.LASF687:
 11675 2aa2 6D74 5F65 	.string"mt_entry"
 11675      6E74 7279 
 11675      00
 11676               	.LASF569:
 11677 2aab 6D61 7869 	.string"maximum_extensions"
 11677      6D75 6D5F 
 11677      6578 7465 
 11677      6E73 696F 
 11677      6E73 00
 11678               	.LASF259:
 11679 2abe 5F72 6F75 	.string"_rounding_mode"
 11679      6E64 696E 
 11679      675F 6D6F 
 11679      6465 00
 11680               	.LASF705:
 11681 2acd 7274 656D 	.string"rtems_filesystem_eval_path_t"
 11681      735F 6669 
 11681      6C65 7379 
 11681      7374 656D 
 11681      5F65 7661 
 11682               	.LASF458:
 11683 2aea 5468 7265 	.string"Thread_Life_control"
 11683      6164 5F4C 
 11683      6966 655F 
 11683      636F 6E74 
 11683      726F 6C00 
 11684               	.LASF295:
 11685 2afe 5254 454D 	.string"RTEMS_IO_ERROR"
 11685      535F 494F 
 11685      5F45 5252 
 11685      4F52 00
 11686               	.LASF399:
 11687 2b0d 5468 7265 	.string"Thread_Entry_numeric_type"
 11687      6164 5F45 
 11687      6E74 7279 
 11687      5F6E 756D 
 11687      6572 6963 
 11688               	.LASF32:
 11689 2b27 5F6E 616D 	.string"_name"
 11689      6500 
 11690               	.LASF587:
 11691 2b2d 4953 525F 	.string"ISR_Vector_number"
68K GAS   			page 262


 11691      5665 6374 
 11691      6F72 5F6E 
 11691      756D 6265 
 11691      7200 
 11692               	.LASF528:
 11693 2b3f 5254 454D 	.string"RTEMS_FATAL_SOURCE_BDBUF"
 11693      535F 4641 
 11693      5441 4C5F 
 11693      534F 5552 
 11693      4345 5F42 
 11694               	.LASF490:
 11695 2b58 696E 6974 	.string"initialize"
 11695      6961 6C69 
 11695      7A65 00
 11696               	.LASF833:
 11697 2b63 7265 7061 	.string"repair"
 11697      6972 00
 11698               	.LASF182:
 11699 2b6a 5F67 6C6F 	.string"_global_impure_ptr"
 11699      6261 6C5F 
 11699      696D 7075 
 11699      7265 5F70 
 11699      7472 00
 11700               	.LASF618:
 11701 2b7d 696F 6374 	.string"ioctl_command_t"
 11701      6C5F 636F 
 11701      6D6D 616E 
 11701      645F 7400 
 11702               	.LASF781:
 11703 2b8d 696E 6F64 	.string"inode_overhead"
 11703      655F 6F76 
 11703      6572 6865 
 11703      6164 00
 11704               	.LASF137:
 11705 2b9c 5F75 6E73 	.string"_unspecified_locale_info"
 11705      7065 6369 
 11705      6669 6564 
 11705      5F6C 6F63 
 11705      616C 655F 
 11706               	.LASF388:
 11707 2bb5 4669 666F 	.string"Fifo"
 11707      00
 11708               	.LASF787:
 11709 2bba 696E 7433 	.string"int32"
 11709      3200 
 11710               	.LASF244:
 11711 2bc0 665F 6669 	.string"f_files"
 11711      6C65 7300 
 11712               	.LASF576:
 11713 2bc8 696E 7465 	.string"interrupt_stack_size"
 11713      7272 7570 
 11713      745F 7374 
 11713      6163 6B5F 
 11713      7369 7A65 
 11714               	.LASF694:
 11715 2bdd 7274 656D 	.string"rtems_filesystem_mt_entry_lock_t"
 11715      735F 6669 
68K GAS   			page 263


 11715      6C65 7379 
 11715      7374 656D 
 11715      5F6D 745F 
 11716               	.LASF829:
 11717 2bfe 4F53 5F46 	.string"OS_FS_GetPhysDriveName"
 11717      535F 4765 
 11717      7450 6879 
 11717      7344 7269 
 11717      7665 4E61 
 11718               	.LASF544:
 11719 2c15 5573 6572 	.string"User_extensions_thread_create_extension"
 11719      5F65 7874 
 11719      656E 7369 
 11719      6F6E 735F 
 11719      7468 7265 
 11720               	.LASF139:
 11721 2c3d 5F5F 7364 	.string"__sdidinit"
 11721      6964 696E 
 11721      6974 00
 11722               	.LASF393:
 11723 2c48 5468 7265 	.string"Thread_queue_Surrender_operation"
 11723      6164 5F71 
 11723      7565 7565 
 11723      5F53 7572 
 11723      7265 6E64 
 11724               	.LASF237:
 11725 2c69 5F73 7973 	.string"_sys_nerr"
 11725      5F6E 6572 
 11725      7200 
 11726               	.LASF799:
 11727 2c73 4973 4D6F 	.string"IsMounted"
 11727      756E 7465 
 11727      6400 
 11728               	.LASF281:
 11729 2c7d 5254 454D 	.string"RTEMS_UNSATISFIED"
 11729      535F 554E 
 11729      5341 5449 
 11729      5346 4945 
 11729      4400 
 11730               	.LASF84:
 11731 2c8f 5F66 6C6F 	.string"_flock_t"
 11731      636B 5F74 
 11731      00
 11732               	.LASF453:
 11733 2c98 5448 5245 	.string"THREAD_LIFE_DETACHED"
 11733      4144 5F4C 
 11733      4946 455F 
 11733      4445 5441 
 11733      4348 4544 
 11734               	.LASF486:
 11735 2cad 5573 6572 	.string"User_initialization_threads_table"
 11735      5F69 6E69 
 11735      7469 616C 
 11735      697A 6174 
 11735      696F 6E5F 
 11736               	.LASF440:
 11737 2ccf 6865 6164 	.string"header"
68K GAS   			page 264


 11737      6572 00
 11738               	.LASF734:
 11739 2cd6 7274 656D 	.string"rtems_filesystem_fsync_t"
 11739      735F 6669 
 11739      6C65 7379 
 11739      7374 656D 
 11739      5F66 7379 
 11740               	.LASF200:
 11741 2cef 6465 765F 	.string"dev_t"
 11741      7400 
 11742               	.LASF688:
 11743 2cf5 7274 656D 	.string"rtems_filesystem_location_info_t"
 11743      735F 6669 
 11743      6C65 7379 
 11743      7374 656D 
 11743      5F6C 6F63 
 11744               	.LASF551:
 11745 2d16 5573 6572 	.string"User_extensions_fatal_extension"
 11745      5F65 7874 
 11745      656E 7369 
 11745      6F6E 735F 
 11745      6661 7461 
 11746               	.LASF305:
 11747 2d36 4368 6169 	.string"Chain_Node_struct"
 11747      6E5F 4E6F 
 11747      6465 5F73 
 11747      7472 7563 
 11747      7400 
 11748               	.LASF311:
 11749 2d48 5461 696C 	.string"Tail"
 11749      00
 11750               	.LASF232:
 11751 2d4d 6F70 7469 	.string"optind"
 11751      6E64 00
 11752               	.LASF258:
 11753 2d54 5F73 7469 	.string"_sticky_bits"
 11753      636B 795F 
 11753      6269 7473 
 11753      00
 11754               	.LASF744:
 11755 2d61 6D61 785F 	.string"max_input"
 11755      696E 7075 
 11755      7400 
 11756               	.LASF10:
 11757 2d6b 6C6F 6E67 	.string"long long int"
 11757      206C 6F6E 
 11757      6720 696E 
 11757      7400 
 11758               	.LASF645:
 11759 2d79 6F70 656E 	.string"open_h"
 11759      5F68 00
 11760               	.LASF565:
 11761 2d80 7274 656D 	.string"rtems_stack_allocate_hook"
 11761      735F 7374 
 11761      6163 6B5F 
 11761      616C 6C6F 
 11761      6361 7465 
68K GAS   			page 265


 11762               	.LASF129:
 11763 2d9a 5F66 6C61 	.string"_flags2"
 11763      6773 3200 
 11764               	.LASF521:
 11765 2da2 6E75 6D62 	.string"number_of_initialization_tasks"
 11765      6572 5F6F 
 11765      665F 696E 
 11765      6974 6961 
 11765      6C69 7A61 
 11766               	.LASF356:
 11767 2dc1 5761 7463 	.string"Watchdogs"
 11767      6864 6F67 
 11767      7300 
 11768               	.LASF508:
 11769 2dcb 7274 656D 	.string"rtems_task_priority"
 11769      735F 7461 
 11769      736B 5F70 
 11769      7269 6F72 
 11769      6974 7900 
 11770               	.LASF830:
 11771 2ddf 5068 7973 	.string"PhysDriveName"
 11771      4472 6976 
 11771      654E 616D 
 11771      6500 
 11772               	.LASF250:
 11773 2ded 4350 555F 	.string"CPU_Uint32ptr"
 11773      5569 6E74 
 11773      3332 7074 
 11773      7200 
 11774               	.LASF192:
 11775 2dfb 7476 5F6E 	.string"tv_nsec"
 11775      7365 6300 
 11776               	.LASF391:
 11777 2e03 5468 7265 	.string"Thread_queue_Enqueue_operation"
 11777      6164 5F71 
 11777      7565 7565 
 11777      5F45 6E71 
 11777      7565 7565 
 11778               	.LASF793:
 11779 2e22 6F73 5F66 	.string"os_fs_err_name_t"
 11779      735F 6572 
 11779      725F 6E61 
 11779      6D65 5F74 
 11779      00
 11780               	.LASF138:
 11781 2e33 5F6C 6F63 	.string"_locale"
 11781      616C 6500 
 11782               	.LASF433:
 11783 2e3b 6F70 7469 	.string"option"
 11783      6F6E 00
 11784               	.LASF408:
 11785 2e42 6164 6170 	.string"adaptor"
 11785      746F 7200 
 11786               	.LASF557:
 11787 2e4a 7468 7265 	.string"thread_switch"
 11787      6164 5F73 
 11787      7769 7463 
68K GAS   			page 266


 11787      6800 
 11788               	.LASF288:
 11789 2e58 5254 454D 	.string"RTEMS_INVALID_CLOCK"
 11789      535F 494E 
 11789      5641 4C49 
 11789      445F 434C 
 11789      4F43 4B00 
 11790               	.LASF804:
 11791 2e6c 4F53 6664 	.string"OSfd"
 11791      00
 11792               	.LASF554:
 11793 2e71 7468 7265 	.string"thread_start"
 11793      6164 5F73 
 11793      7461 7274 
 11793      00
 11794               	.LASF494:
 11795 2e7e 756E 626C 	.string"unblock"
 11795      6F63 6B00 
 11796               	.LASF22:
 11797 2e86 5F5F 696E 	.string"__ino_t"
 11797      6F5F 7400 
 11798               	.LASF524:
 11799 2e8e 436F 6E66 	.string"Configuration_RTEMS_API"
 11799      6967 7572 
 11799      6174 696F 
 11799      6E5F 5254 
 11799      454D 535F 
 11800               	.LASF402:
 11801 2ea6 6172 6775 	.string"argument"
 11801      6D65 6E74 
 11801      00
 11802               	.LASF659:
 11803 2eaf 7772 6974 	.string"writev_h"
 11803      6576 5F68 
 11803      00
 11804               	.LASF405:
 11805 2eb8 4964 6C65 	.string"Idle"
 11805      00
 11806               	.LASF292:
 11807 2ebd 5254 454D 	.string"RTEMS_NOT_IMPLEMENTED"
 11807      535F 4E4F 
 11807      545F 494D 
 11807      504C 454D 
 11807      454E 5445 
 11808               	.LASF423:
 11809 2ed3 5468 7265 	.string"Thread_Start_information"
 11809      6164 5F53 
 11809      7461 7274 
 11809      5F69 6E66 
 11809      6F72 6D61 
 11810               	.LASF331:
 11811 2eec 5052 494F 	.string"PRIORITY_ACTION_CHANGE"
 11811      5249 5459 
 11811      5F41 4354 
 11811      494F 4E5F 
 11811      4348 414E 
 11812               	.LASF499:
68K GAS   			page 267


 11813 2f03 6E6F 6465 	.string"node_destroy"
 11813      5F64 6573 
 11813      7472 6F79 
 11813      00
 11814               	.LASF497:
 11815 2f10 756E 6D61 	.string"unmap_priority"
 11815      705F 7072 
 11815      696F 7269 
 11815      7479 00
 11816               	.LASF802:
 11817 2f1f 426C 6F63 	.string"BlockSize"
 11817      6B53 697A 
 11817      6500 
 11818               	.LASF669:
 11819 2f29 726D 6E6F 	.string"rmnod_h"
 11819      645F 6800 
 11820               	.LASF803:
 11821 2f31 4F53 5F56 	.string"OS_VolumeInfo_t"
 11821      6F6C 756D 
 11821      6549 6E66 
 11821      6F5F 7400 
 11822               	.LASF796:
 11823 2f41 566F 6C75 	.string"VolumeType"
 11823      6D65 5479 
 11823      7065 00
 11824               	.LASF627:
 11825 2f4c 7061 7468 	.string"pathinfo"
 11825      696E 666F 
 11825      00
 11826               	.LASF746:
 11827 2f55 7061 7468 	.string"path_max"
 11827      5F6D 6178 
 11827      00
 11828               	.LASF709:
 11829 2f5e 7274 656D 	.string"rtems_filesystem_clonenode_t"
 11829      735F 6669 
 11829      6C65 7379 
 11829      7374 656D 
 11829      5F63 6C6F 
 11830               	.LASF663:
 11831 2f7b 6C6F 636B 	.string"lock_h"
 11831      5F68 00
 11832               	.LASF380:
 11833 2f82 5468 7265 	.string"Thread_queue_Lock_context"
 11833      6164 5F71 
 11833      7565 7565 
 11833      5F4C 6F63 
 11833      6B5F 636F 
 11834               	.LASF707:
 11835 2f9c 7274 656D 	.string"rtems_filesystem_fchmod_t"
 11835      735F 6669 
 11835      6C65 7379 
 11835      7374 656D 
 11835      5F66 6368 
 11836               	.LASF150:
 11837 2fb6 5F5F 4649 	.string"__FILE"
 11837      4C45 00
68K GAS   			page 268


 11838               	.LASF432:
 11839 2fbd 7265 7475 	.string"return_argument_second"
 11839      726E 5F61 
 11839      7267 756D 
 11839      656E 745F 
 11839      7365 636F 
 11840               	.LASF363:
 11841 2fd4 5468 7265 	.string"Thread_queue_Context"
 11841      6164 5F71 
 11841      7565 7565 
 11841      5F43 6F6E 
 11841      7465 7874 
 11842               	.LASF715:
 11843 2fe9 7274 656D 	.string"rtems_filesystem_are_nodes_equal_t"
 11843      735F 6669 
 11843      6C65 7379 
 11843      7374 656D 
 11843      5F61 7265 
 11844               	.LASF648:
 11845 300c 7772 6974 	.string"write_h"
 11845      655F 6800 
 11846               	.LASF90:
 11847 3014 5F73 6967 	.string"_sign"
 11847      6E00 
 11848               	.LASF725:
 11849 301a 7274 656D 	.string"rtems_filesystem_close_t"
 11849      735F 6669 
 11849      6C65 7379 
 11849      7374 656D 
 11849      5F63 6C6F 
 11850               	.LASF733:
 11851 3033 7274 656D 	.string"rtems_filesystem_ftruncate_t"
 11851      735F 6669 
 11851      6C65 7379 
 11851      7374 656D 
 11851      5F66 7472 
 11852               	.LASF337:
 11853 3050 4163 7469 	.string"Action"
 11853      6F6E 00
 11854               	.LASF365:
 11855 3057 7468 7265 	.string"thread_state"
 11855      6164 5F73 
 11855      7461 7465 
 11855      00
 11856               	.LASF94:
 11857 3064 5F5F 746D 	.string"__tm_min"
 11857      5F6D 696E 
 11857      00
 11858               	.LASF596:
 11859 306d 7463 5F6E 	.string"tc_name"
 11859      616D 6500 
 11860               	.LASF647:
 11861 3075 7265 6164 	.string"read_h"
 11861      5F68 00
 11862               	.LASF297:
 11863 307c 7274 656D 	.string"rtems_status_code"
 11863      735F 7374 
68K GAS   			page 269


 11863      6174 7573 
 11863      5F63 6F64 
 11863      6500 
 11864               	.LASF470:
 11865 308e 4D6F 6465 	.string"Modes_Control"
 11865      735F 436F 
 11865      6E74 726F 
 11865      6C00 
 11866               	.LASF279:
 11867 309c 5254 454D 	.string"RTEMS_NOT_DEFINED"
 11867      535F 4E4F 
 11867      545F 4445 
 11867      4649 4E45 
 11867      4400 
 11868               	.LASF786:
 11869 30ae 6F73 616C 	.string"osalbool"
 11869      626F 6F6C 
 11869      00
 11870               	.LASF547:
 11871 30b7 5573 6572 	.string"User_extensions_thread_restart_extension"
 11871      5F65 7874 
 11871      656E 7369 
 11871      6F6E 735F 
 11871      7468 7265 
 11872               	.LASF655:
 11873 30e0 6663 6E74 	.string"fcntl_h"
 11873      6C5F 6800 
 11874               	.LASF759:
 11875 30e8 7274 656D 	.string"rtems_filesystem_options_t"
 11875      735F 6669 
 11875      6C65 7379 
 11875      7374 656D 
 11875      5F6F 7074 
 11876               	.LASF49:
 11877 3103 6370 755F 	.string"cpu_time_budget"
 11877      7469 6D65 
 11877      5F62 7564 
 11877      6765 7400 
 11878               	.LASF318:
 11879 3113 5242 5472 	.string"RBTree_Control"
 11879      6565 5F43 
 11879      6F6E 7472 
 11879      6F6C 00
 11880               	.LASF673:
 11881 3122 6672 6565 	.string"freenod_h"
 11881      6E6F 645F 
 11881      6800 
 11882               	.LASF26:
 11883 312c 756E 7369 	.string"unsigned int"
 11883      676E 6564 
 11883      2069 6E74 
 11883      00
 11884               	.LASF706:
 11885 3139 7274 656D 	.string"rtems_filesystem_link_t"
 11885      735F 6669 
 11885      6C65 7379 
 11885      7374 656D 
68K GAS   			page 270


 11885      5F6C 696E 
 11886               	.LASF164:
 11887 3151 5F72 3438 	.string"_r48"
 11887      00
 11888               	.LASF699:
 11889 3156 746F 6B65 	.string"tokenlen"
 11889      6E6C 656E 
 11889      00
 11890               	.LASF425:
 11891 315f 5468 7265 	.string"Thread_Scheduler_control"
 11891      6164 5F53 
 11891      6368 6564 
 11891      756C 6572 
 11891      5F63 6F6E 
 11892               	.LASF703:
 11893 3178 7374 6172 	.string"startloc"
 11893      746C 6F63 
 11893      00
 11894               	.LASF500:
 11895 3181 7265 6C65 	.string"release_job"
 11895      6173 655F 
 11895      6A6F 6200 
 11896               	.LASF406:
 11897 318d 4E75 6D65 	.string"Numeric"
 11897      7269 6300 
 11898               	.LASF760:
 11899 3195 7274 656D 	.string"rtems_filesystem_table_t"
 11899      735F 6669 
 11899      6C65 7379 
 11899      7374 656D 
 11899      5F74 6162 
 11900               	.LASF249:
 11901 31ae 665F 6E61 	.string"f_namemax"
 11901      6D65 6D61 
 11901      7800 
 11902               	.LASF226:
 11903 31b8 7374 5F6D 	.string"st_mtim"
 11903      7469 6D00 
 11904               	.LASF683:
 11905 31c0 6D74 5F65 	.string"mt_entry_node"
 11905      6E74 7279 
 11905      5F6E 6F64 
 11905      6500 
 11906               	.LASF68:
 11907 31ce 5F4D 7574 	.string"_Mutex_recursive_Control"
 11907      6578 5F72 
 11907      6563 7572 
 11907      7369 7665 
 11907      5F43 6F6E 
 11908               	.LASF2:
 11909 31e7 7368 6F72 	.string"short int"
 11909      7420 696E 
 11909      7400 
 11910               	.LASF488:
 11911 31f1 436F 6E66 	.string"Configuration_POSIX_API"
 11911      6967 7572 
 11911      6174 696F 
68K GAS   			page 271


 11911      6E5F 504F 
 11911      5349 585F 
 11912               	.LASF42:
 11913 3209 5363 6865 	.string"Scheduler"
 11913      6475 6C65 
 11913      7200 
 11914               	.LASF846:
 11915 3213 4F53 5F6D 	.string"OS_mount"
 11915      6F75 6E74 
 11915      00
 11916               	.LASF118:
 11917 321c 5F72 6561 	.string"_read"
 11917      6400 
 11918               	.LASF842:
 11919 3222 4F53 5F66 	.string"OS_fsBlocksFree"
 11919      7342 6C6F 
 11919      636B 7346 
 11919      7265 6500 
 11920               	.LASF372:
 11921 3232 7072 696F 	.string"priority_actions"
 11921      7269 7479 
 11921      5F61 6374 
 11921      696F 6E73 
 11921      00
 11922               	.LASF496:
 11923 3243 6D61 705F 	.string"map_priority"
 11923      7072 696F 
 11923      7269 7479 
 11923      00
 11924               	.LASF154:
 11925 3250 5F72 616E 	.string"_rand48"
 11925      6434 3800 
 11926               	.LASF379:
 11927 3258 5468 7265 	.string"Thread_queue_Deadlock_callout"
 11927      6164 5F71 
 11927      7565 7565 
 11927      5F44 6561 
 11927      646C 6F63 
 11928               	.LASF765:
 11929 3276 6F70 7469 	.string"options"
 11929      6F6E 7300 
 11930               	.LASF469:
 11931 327e 5F54 6872 	.string"_Thread_Maximum_name_size"
 11931      6561 645F 
 11931      4D61 7869 
 11931      6D75 6D5F 
 11931      6E61 6D65 
 11932               	.LASF748:
 11933 3298 706F 7369 	.string"posix_async_io"
 11933      785F 6173 
 11933      796E 635F 
 11933      696F 00
 11934               	.LASF567:
 11935 32a7 776F 726B 	.string"work_space_size"
 11935      5F73 7061 
 11935      6365 5F73 
 11935      697A 6500 
68K GAS   			page 272


 11936               	.LASF577:
 11937 32b7 7374 6163 	.string"stack_allocate_init_hook"
 11937      6B5F 616C 
 11937      6C6F 6361 
 11937      7465 5F69 
 11937      6E69 745F 
 11938               	.LASF825:
 11939 32d0 6C6F 6361 	.string"local_name"
 11939      6C5F 6E61 
 11939      6D65 00
 11940               	.LASF216:
 11941 32db 7374 6174 	.string"stat"
 11941      00
 11942               	.LASF435:
 11943 32e0 666C 6167 	.string"flags"
 11943      7300 
 11944               	.LASF738:
 11945 32e6 7274 656D 	.string"rtems_filesystem_kqfilter_t"
 11945      735F 6669 
 11945      6C65 7379 
 11945      7374 656D 
 11945      5F6B 7166 
 11946               	.LASF723:
 11947 3302 7274 656D 	.string"rtems_filesystem_operations_default"
 11947      735F 6669 
 11947      6C65 7379 
 11947      7374 656D 
 11947      5F6F 7065 
 11948               	.LASF197:
 11949 3326 6673 6669 	.string"fsfilcnt_t"
 11949      6C63 6E74 
 11949      5F74 00
 11950               	.LASF564:
 11951 3331 7274 656D 	.string"rtems_stack_allocate_init_hook"
 11951      735F 7374 
 11951      6163 6B5F 
 11951      616C 6C6F 
 11951      6361 7465 
 11952               	.LASF315:
 11953 3350 7262 655F 	.string"rbe_parent"
 11953      7061 7265 
 11953      6E74 00
 11954               	.ident"GCC: (GNU) 7.3.0 20180125 (RTEMS 5, RSB d2b25d131d55adcb38219f2cd8cbec2436ee78ab, Newlib 3.0.0)"
68K GAS   			page 273


DEFINED SYMBOLS
                            *ABS*:0000000000000000 osfilesys.c
    {standard input}:9      .text:0000000000000000 rtems_setup_ramdisk
    {standard input}:111    .text:00000000000000c2 OS_mkfs
    {standard input}:394    .text:000000000000037e OS_rmfs
    {standard input}:520    .text:0000000000000484 OS_initfs
    {standard input}:773    .text:00000000000006ec OS_mount
    {standard input}:1018   .text:000000000000091c OS_unmount
    {standard input}:1598   .text:0000000000000da2 OS_TranslatePath
    {standard input}:1240   .text:0000000000000b2a OS_fsBlocksFree
    {standard input}:1332   .text:0000000000000bca OS_fsBytesFree
    {standard input}:1457   .text:0000000000000cb6 OS_chkfs
    {standard input}:1477   .text:0000000000000cc6 OS_FS_GetPhysDriveName
    {standard input}:1675   .text:0000000000000e16 OS_FS_GetErrorName
    {standard input}:2037   .text:00000000000011b2 OS_GetFsInfo

UNDEFINED SYMBOLS
malloc
memset
rtems_ramdisk_configuration
rtems_ramdisk_io_ops
rtems_io_register_driver
strlen
OS_VolumeTableSem
rtems_semaphore_obtain
OS_VolumeTable
strcmp
rtems_semaphore_release
rtems_rfs_format
strcpy
mount
unmount
statvfs
__muldi3
strncmp
strncpy
OS_FDTable
