68K GAS   			page 1


   1               	
   2               	.file"cfe_fs_decompress.c"
   3               	.text
   4               	.Ltext0:
   5               	.cfi_sections.debug_frame
   6               	.commCFE_FS_Decompress_State_NR,122848,4
   7               	.localtrace
   8               	.commtrace,12,4
   9               	.align2
  10               	.globlCFE_FS_Decompress
  11               	.typeCFE_FS_Decompress, @function
  12               	CFE_FS_Decompress:
  13               	.LFB59:
  14               	.file 1 "/home/simulink/cFS_FreeRTOS_seL4/cfe/fsw/cfe-core/src/fs/cfe_fs_decompress.c"
   1:/home/simulink/cFS_FreeRTOS_seL4/cfe/fsw/cfe-core/src/fs/cfe_fs_decompress.c **** /*
   2:/home/simulink/cFS_FreeRTOS_seL4/cfe/fsw/cfe-core/src/fs/cfe_fs_decompress.c **** ** $Id: cfe_fs_decompress.c 1.14 2014/04/14 15:21:52GMT-05:00 lwalling Exp  $
   3:/home/simulink/cFS_FreeRTOS_seL4/cfe/fsw/cfe-core/src/fs/cfe_fs_decompress.c **** **
   4:/home/simulink/cFS_FreeRTOS_seL4/cfe/fsw/cfe-core/src/fs/cfe_fs_decompress.c **** **   File: CFE_FS_decompress.c
   5:/home/simulink/cFS_FreeRTOS_seL4/cfe/fsw/cfe-core/src/fs/cfe_fs_decompress.c **** **
   6:/home/simulink/cFS_FreeRTOS_seL4/cfe/fsw/cfe-core/src/fs/cfe_fs_decompress.c **** **
   7:/home/simulink/cFS_FreeRTOS_seL4/cfe/fsw/cfe-core/src/fs/cfe_fs_decompress.c **** **      Copyright (c) 2004-2012, United States government as represented by the 
   8:/home/simulink/cFS_FreeRTOS_seL4/cfe/fsw/cfe-core/src/fs/cfe_fs_decompress.c **** **      administrator of the National Aeronautics Space Administration.  
   9:/home/simulink/cFS_FreeRTOS_seL4/cfe/fsw/cfe-core/src/fs/cfe_fs_decompress.c **** **      All rights reserved. This software(cFE) was created at NASA's Goddard 
  10:/home/simulink/cFS_FreeRTOS_seL4/cfe/fsw/cfe-core/src/fs/cfe_fs_decompress.c **** **      Space Flight Center pursuant to government contracts.
  11:/home/simulink/cFS_FreeRTOS_seL4/cfe/fsw/cfe-core/src/fs/cfe_fs_decompress.c **** **
  12:/home/simulink/cFS_FreeRTOS_seL4/cfe/fsw/cfe-core/src/fs/cfe_fs_decompress.c **** **      This is governed by the NASA Open Source Agreement and may be used, 
  13:/home/simulink/cFS_FreeRTOS_seL4/cfe/fsw/cfe-core/src/fs/cfe_fs_decompress.c **** **      distributed and modified only pursuant to the terms of that agreement.
  14:/home/simulink/cFS_FreeRTOS_seL4/cfe/fsw/cfe-core/src/fs/cfe_fs_decompress.c **** ** 
  15:/home/simulink/cFS_FreeRTOS_seL4/cfe/fsw/cfe-core/src/fs/cfe_fs_decompress.c **** **
  16:/home/simulink/cFS_FreeRTOS_seL4/cfe/fsw/cfe-core/src/fs/cfe_fs_decompress.c **** **
  17:/home/simulink/cFS_FreeRTOS_seL4/cfe/fsw/cfe-core/src/fs/cfe_fs_decompress.c **** **   Author:   A. Cudmore,    NASA/GSFC Code 582
  18:/home/simulink/cFS_FreeRTOS_seL4/cfe/fsw/cfe-core/src/fs/cfe_fs_decompress.c **** **             Ported from JWST, which was ported from Swift/BAT, 
  19:/home/simulink/cFS_FreeRTOS_seL4/cfe/fsw/cfe-core/src/fs/cfe_fs_decompress.c **** **             which was ported from the GNU zip sources.
  20:/home/simulink/cFS_FreeRTOS_seL4/cfe/fsw/cfe-core/src/fs/cfe_fs_decompress.c **** **
  21:/home/simulink/cFS_FreeRTOS_seL4/cfe/fsw/cfe-core/src/fs/cfe_fs_decompress.c **** **   Purpose: cFE Port of the gzunzip software ported from Triana->Swift->JWST 
  22:/home/simulink/cFS_FreeRTOS_seL4/cfe/fsw/cfe-core/src/fs/cfe_fs_decompress.c **** **
  23:/home/simulink/cFS_FreeRTOS_seL4/cfe/fsw/cfe-core/src/fs/cfe_fs_decompress.c **** ** $Log: cfe_fs_decompress.c  $
  24:/home/simulink/cFS_FreeRTOS_seL4/cfe/fsw/cfe-core/src/fs/cfe_fs_decompress.c **** ** Revision 1.14 2014/04/14 15:21:52GMT-05:00 lwalling 
  25:/home/simulink/cFS_FreeRTOS_seL4/cfe/fsw/cfe-core/src/fs/cfe_fs_decompress.c **** ** Delete unsuccessful decompression output file
  26:/home/simulink/cFS_FreeRTOS_seL4/cfe/fsw/cfe-core/src/fs/cfe_fs_decompress.c **** ** Revision 1.13 2012/02/08 14:09:20EST lwalling 
  27:/home/simulink/cFS_FreeRTOS_seL4/cfe/fsw/cfe-core/src/fs/cfe_fs_decompress.c **** ** Remove unused variable
  28:/home/simulink/cFS_FreeRTOS_seL4/cfe/fsw/cfe-core/src/fs/cfe_fs_decompress.c **** ** Revision 1.12 2012/01/13 12:11:28EST acudmore 
  29:/home/simulink/cFS_FreeRTOS_seL4/cfe/fsw/cfe-core/src/fs/cfe_fs_decompress.c **** ** Changed license text to reflect open source
  30:/home/simulink/cFS_FreeRTOS_seL4/cfe/fsw/cfe-core/src/fs/cfe_fs_decompress.c **** ** Revision 1.11 2012/01/10 18:37:46EST aschoeni 
  31:/home/simulink/cFS_FreeRTOS_seL4/cfe/fsw/cfe-core/src/fs/cfe_fs_decompress.c **** ** CFE return codes set directly; FS_gz_huft_build return code is now properly redefined
  32:/home/simulink/cFS_FreeRTOS_seL4/cfe/fsw/cfe-core/src/fs/cfe_fs_decompress.c **** ** Revision 1.10 2011/09/02 14:59:15EDT jmdagost 
  33:/home/simulink/cFS_FreeRTOS_seL4/cfe/fsw/cfe-core/src/fs/cfe_fs_decompress.c **** ** Added new-line characters where missing in syslog calls.
  34:/home/simulink/cFS_FreeRTOS_seL4/cfe/fsw/cfe-core/src/fs/cfe_fs_decompress.c **** ** Revision 1.9 2011/07/13 18:24:32EDT lwalling 
  35:/home/simulink/cFS_FreeRTOS_seL4/cfe/fsw/cfe-core/src/fs/cfe_fs_decompress.c **** ** Initialized local variables r.b, r.e, r.v.n and r.v.t
  36:/home/simulink/cFS_FreeRTOS_seL4/cfe/fsw/cfe-core/src/fs/cfe_fs_decompress.c **** ** Revision 1.8 2011/07/13 17:42:22EDT lwalling 
  37:/home/simulink/cFS_FreeRTOS_seL4/cfe/fsw/cfe-core/src/fs/cfe_fs_decompress.c **** ** Initialized local variable huft_index_t
  38:/home/simulink/cFS_FreeRTOS_seL4/cfe/fsw/cfe-core/src/fs/cfe_fs_decompress.c **** ** Revision 1.7 2011/01/19 18:00:59EST lwalling 
  39:/home/simulink/cFS_FreeRTOS_seL4/cfe/fsw/cfe-core/src/fs/cfe_fs_decompress.c **** ** Restore use of heritage error codes
  40:/home/simulink/cFS_FreeRTOS_seL4/cfe/fsw/cfe-core/src/fs/cfe_fs_decompress.c **** ** Revision 1.6 2011/01/19 15:09:17EST lwalling 
  41:/home/simulink/cFS_FreeRTOS_seL4/cfe/fsw/cfe-core/src/fs/cfe_fs_decompress.c **** ** Change calls from memset() to CFE_PSP_MemSet()
  42:/home/simulink/cFS_FreeRTOS_seL4/cfe/fsw/cfe-core/src/fs/cfe_fs_decompress.c **** ** Revision 1.5 2010/10/25 18:26:06EDT jmdagost 
  43:/home/simulink/cFS_FreeRTOS_seL4/cfe/fsw/cfe-core/src/fs/cfe_fs_decompress.c **** ** Added test to while-loop to make sure array index does not go negative.
68K GAS   			page 2


  44:/home/simulink/cFS_FreeRTOS_seL4/cfe/fsw/cfe-core/src/fs/cfe_fs_decompress.c **** **
  45:/home/simulink/cFS_FreeRTOS_seL4/cfe/fsw/cfe-core/src/fs/cfe_fs_decompress.c **** */
  46:/home/simulink/cFS_FreeRTOS_seL4/cfe/fsw/cfe-core/src/fs/cfe_fs_decompress.c **** 
  47:/home/simulink/cFS_FreeRTOS_seL4/cfe/fsw/cfe-core/src/fs/cfe_fs_decompress.c **** /* Original Credit:
  48:/home/simulink/cFS_FreeRTOS_seL4/cfe/fsw/cfe-core/src/fs/cfe_fs_decompress.c ****  *
  49:/home/simulink/cFS_FreeRTOS_seL4/cfe/fsw/cfe-core/src/fs/cfe_fs_decompress.c ****  * inflate.c -- Not copyrighted 1992 by Mark Adler version c10p1, 10 January
  50:/home/simulink/cFS_FreeRTOS_seL4/cfe/fsw/cfe-core/src/fs/cfe_fs_decompress.c ****  * 1993
  51:/home/simulink/cFS_FreeRTOS_seL4/cfe/fsw/cfe-core/src/fs/cfe_fs_decompress.c ****  *
  52:/home/simulink/cFS_FreeRTOS_seL4/cfe/fsw/cfe-core/src/fs/cfe_fs_decompress.c ****  * You can do whatever you like with this source file, though I would prefer
  53:/home/simulink/cFS_FreeRTOS_seL4/cfe/fsw/cfe-core/src/fs/cfe_fs_decompress.c ****  * that if you modify it and redistribute it that you include comments to
  54:/home/simulink/cFS_FreeRTOS_seL4/cfe/fsw/cfe-core/src/fs/cfe_fs_decompress.c ****  * that effect with your name and the date.  Thank you. [The history has been
  55:/home/simulink/cFS_FreeRTOS_seL4/cfe/fsw/cfe-core/src/fs/cfe_fs_decompress.c ****  * moved to the file ChangeLog.]
  56:/home/simulink/cFS_FreeRTOS_seL4/cfe/fsw/cfe-core/src/fs/cfe_fs_decompress.c ****  */
  57:/home/simulink/cFS_FreeRTOS_seL4/cfe/fsw/cfe-core/src/fs/cfe_fs_decompress.c **** 
  58:/home/simulink/cFS_FreeRTOS_seL4/cfe/fsw/cfe-core/src/fs/cfe_fs_decompress.c **** /*
  59:/home/simulink/cFS_FreeRTOS_seL4/cfe/fsw/cfe-core/src/fs/cfe_fs_decompress.c **** ** Includes
  60:/home/simulink/cFS_FreeRTOS_seL4/cfe/fsw/cfe-core/src/fs/cfe_fs_decompress.c **** */
  61:/home/simulink/cFS_FreeRTOS_seL4/cfe/fsw/cfe-core/src/fs/cfe_fs_decompress.c **** #include "cfe_fs_decompress.h"
  62:/home/simulink/cFS_FreeRTOS_seL4/cfe/fsw/cfe-core/src/fs/cfe_fs_decompress.c **** 
  63:/home/simulink/cFS_FreeRTOS_seL4/cfe/fsw/cfe-core/src/fs/cfe_fs_decompress.c **** /*
  64:/home/simulink/cFS_FreeRTOS_seL4/cfe/fsw/cfe-core/src/fs/cfe_fs_decompress.c **** ** Global data -- Note: The following Global Data should be removed. The CFE_FS_Decompress API is n
  65:/home/simulink/cFS_FreeRTOS_seL4/cfe/fsw/cfe-core/src/fs/cfe_fs_decompress.c **** **                re-entrant! In order to make sure that two apps will not corrupt the data
  66:/home/simulink/cFS_FreeRTOS_seL4/cfe/fsw/cfe-core/src/fs/cfe_fs_decompress.c **** **                the API is guarded with a Mutex. This will have serious implications on 
  67:/home/simulink/cFS_FreeRTOS_seL4/cfe/fsw/cfe-core/src/fs/cfe_fs_decompress.c **** **                real time performance if an application blocks while another is in the API.
  68:/home/simulink/cFS_FreeRTOS_seL4/cfe/fsw/cfe-core/src/fs/cfe_fs_decompress.c **** **               
  69:/home/simulink/cFS_FreeRTOS_seL4/cfe/fsw/cfe-core/src/fs/cfe_fs_decompress.c **** */
  70:/home/simulink/cFS_FreeRTOS_seL4/cfe/fsw/cfe-core/src/fs/cfe_fs_decompress.c **** CFE_FS_Decompress_State_t CFE_FS_Decompress_State_NR;
  71:/home/simulink/cFS_FreeRTOS_seL4/cfe/fsw/cfe-core/src/fs/cfe_fs_decompress.c **** 
  72:/home/simulink/cFS_FreeRTOS_seL4/cfe/fsw/cfe-core/src/fs/cfe_fs_decompress.c **** static uint32     trace[ 3 ];
  73:/home/simulink/cFS_FreeRTOS_seL4/cfe/fsw/cfe-core/src/fs/cfe_fs_decompress.c **** 
  74:/home/simulink/cFS_FreeRTOS_seL4/cfe/fsw/cfe-core/src/fs/cfe_fs_decompress.c **** /*
  75:/home/simulink/cFS_FreeRTOS_seL4/cfe/fsw/cfe-core/src/fs/cfe_fs_decompress.c **** ** Code
  76:/home/simulink/cFS_FreeRTOS_seL4/cfe/fsw/cfe-core/src/fs/cfe_fs_decompress.c **** */
  77:/home/simulink/cFS_FreeRTOS_seL4/cfe/fsw/cfe-core/src/fs/cfe_fs_decompress.c **** 
  78:/home/simulink/cFS_FreeRTOS_seL4/cfe/fsw/cfe-core/src/fs/cfe_fs_decompress.c **** /* Main API entry point to decompress a file -
  79:/home/simulink/cFS_FreeRTOS_seL4/cfe/fsw/cfe-core/src/fs/cfe_fs_decompress.c ****  * Uses a global state buffer but protects the global by a mutex, so it may block if
  80:/home/simulink/cFS_FreeRTOS_seL4/cfe/fsw/cfe-core/src/fs/cfe_fs_decompress.c ****  * more than one thread tries to do this at any given time.
  81:/home/simulink/cFS_FreeRTOS_seL4/cfe/fsw/cfe-core/src/fs/cfe_fs_decompress.c ****  */
  82:/home/simulink/cFS_FreeRTOS_seL4/cfe/fsw/cfe-core/src/fs/cfe_fs_decompress.c **** int32 CFE_FS_Decompress( const char * srcFileName, const char * dstFileName )
  83:/home/simulink/cFS_FreeRTOS_seL4/cfe/fsw/cfe-core/src/fs/cfe_fs_decompress.c **** {
  15               	.loc 1 83 0
  16               	.cfi_startproc
  17 0000 598F      	subq.l #4,%sp
  18               	.cfi_def_cfa_offset 8
  84:/home/simulink/cFS_FreeRTOS_seL4/cfe/fsw/cfe-core/src/fs/cfe_fs_decompress.c **** 
  85:/home/simulink/cFS_FreeRTOS_seL4/cfe/fsw/cfe-core/src/fs/cfe_fs_decompress.c ****    int32 rc;
  86:/home/simulink/cFS_FreeRTOS_seL4/cfe/fsw/cfe-core/src/fs/cfe_fs_decompress.c **** 
  87:/home/simulink/cFS_FreeRTOS_seL4/cfe/fsw/cfe-core/src/fs/cfe_fs_decompress.c ****    /*
  88:/home/simulink/cFS_FreeRTOS_seL4/cfe/fsw/cfe-core/src/fs/cfe_fs_decompress.c ****    ** Lock the API with the FS Mutex
  89:/home/simulink/cFS_FreeRTOS_seL4/cfe/fsw/cfe-core/src/fs/cfe_fs_decompress.c ****    */
  90:/home/simulink/cFS_FreeRTOS_seL4/cfe/fsw/cfe-core/src/fs/cfe_fs_decompress.c ****    CFE_FS_LockSharedData(__func__);
  19               	.loc 1 90 0
  20 0002 4879 0000 	pea __func__.5610
  20      0000 
  21               	.cfi_def_cfa_offset 12
  22 0008 4EB9 0000 	jsr CFE_FS_LockSharedData
  22      0000 
68K GAS   			page 3


  23 000e 588F      	addq.l #4,%sp
  24               	.cfi_def_cfa_offset 8
  91:/home/simulink/cFS_FreeRTOS_seL4/cfe/fsw/cfe-core/src/fs/cfe_fs_decompress.c **** 
  92:/home/simulink/cFS_FreeRTOS_seL4/cfe/fsw/cfe-core/src/fs/cfe_fs_decompress.c ****    rc = CFE_FS_Decompress_Reentrant(&CFE_FS_Decompress_State_NR, srcFileName, dstFileName );
  25               	.loc 1 92 0
  26 0010 2F2F 000C 	move.l 12(%sp),-(%sp)
  27               	.cfi_def_cfa_offset 12
  28 0014 2F2F 000C 	move.l 12(%sp),-(%sp)
  29               	.cfi_def_cfa_offset 16
  30 0018 4879 0000 	pea CFE_FS_Decompress_State_NR
  30      0000 
  31               	.cfi_def_cfa_offset 20
  32 001e 4EB9 0000 	jsr CFE_FS_Decompress_Reentrant
  32      0000 
  33 0024 4FEF 000C 	lea (12,%sp),%sp
  34               	.cfi_def_cfa_offset 8
  35 0028 2E80      	move.l %d0,(%sp)
  93:/home/simulink/cFS_FreeRTOS_seL4/cfe/fsw/cfe-core/src/fs/cfe_fs_decompress.c **** 
  94:/home/simulink/cFS_FreeRTOS_seL4/cfe/fsw/cfe-core/src/fs/cfe_fs_decompress.c ****    /*
  95:/home/simulink/cFS_FreeRTOS_seL4/cfe/fsw/cfe-core/src/fs/cfe_fs_decompress.c ****    ** Unlock FS Shared data mutex
  96:/home/simulink/cFS_FreeRTOS_seL4/cfe/fsw/cfe-core/src/fs/cfe_fs_decompress.c ****    */
  97:/home/simulink/cFS_FreeRTOS_seL4/cfe/fsw/cfe-core/src/fs/cfe_fs_decompress.c ****    CFE_FS_UnlockSharedData(__func__);
  36               	.loc 1 97 0
  37 002a 4879 0000 	pea __func__.5610
  37      0000 
  38               	.cfi_def_cfa_offset 12
  39 0030 4EB9 0000 	jsr CFE_FS_UnlockSharedData
  39      0000 
  40 0036 588F      	addq.l #4,%sp
  41               	.cfi_def_cfa_offset 8
  98:/home/simulink/cFS_FreeRTOS_seL4/cfe/fsw/cfe-core/src/fs/cfe_fs_decompress.c **** 
  99:/home/simulink/cFS_FreeRTOS_seL4/cfe/fsw/cfe-core/src/fs/cfe_fs_decompress.c ****    return rc;
  42               	.loc 1 99 0
  43 0038 2017      	move.l (%sp),%d0
 100:/home/simulink/cFS_FreeRTOS_seL4/cfe/fsw/cfe-core/src/fs/cfe_fs_decompress.c **** }
  44               	.loc 1 100 0
  45 003a 588F      	addq.l #4,%sp
  46 003c 4E75      	rts
  47               	.cfi_endproc
  48               	.LFE59:
  49               	.sizeCFE_FS_Decompress, .-CFE_FS_Decompress
  50               	.section.rodata
  51               	.LC0:
  52 0000 4346 455F 	.string"CFE_FS_Decompress: Cannot open source file: %s\n"
  52      4653 5F44 
  52      6563 6F6D 
  52      7072 6573 
  52      733A 2043 
  53               	.LC1:
  54 0030 4346 455F 	.string"CFE_FS_Decompress: Cannot open destination file: %s\n"
  54      4653 5F44 
  54      6563 6F6D 
  54      7072 6573 
  54      733A 2043 
  55               	.text
  56               	.align2
  57               	.globlCFE_FS_Decompress_Reentrant
68K GAS   			page 4


  58               	.typeCFE_FS_Decompress_Reentrant, @function
  59               	CFE_FS_Decompress_Reentrant:
  60               	.LFB60:
 101:/home/simulink/cFS_FreeRTOS_seL4/cfe/fsw/cfe-core/src/fs/cfe_fs_decompress.c **** 
 102:/home/simulink/cFS_FreeRTOS_seL4/cfe/fsw/cfe-core/src/fs/cfe_fs_decompress.c **** 
 103:/home/simulink/cFS_FreeRTOS_seL4/cfe/fsw/cfe-core/src/fs/cfe_fs_decompress.c **** int32 CFE_FS_Decompress_Reentrant(CFE_FS_Decompress_State_t *State, const char * srcFileName, const
 104:/home/simulink/cFS_FreeRTOS_seL4/cfe/fsw/cfe-core/src/fs/cfe_fs_decompress.c **** {
  61               	.loc 1 104 0
  62               	.cfi_startproc
  63 003e 598F      	subq.l #4,%sp
  64               	.cfi_def_cfa_offset 8
 105:/home/simulink/cFS_FreeRTOS_seL4/cfe/fsw/cfe-core/src/fs/cfe_fs_decompress.c **** 
 106:/home/simulink/cFS_FreeRTOS_seL4/cfe/fsw/cfe-core/src/fs/cfe_fs_decompress.c ****    int32 guzerror;
 107:/home/simulink/cFS_FreeRTOS_seL4/cfe/fsw/cfe-core/src/fs/cfe_fs_decompress.c **** 
 108:/home/simulink/cFS_FreeRTOS_seL4/cfe/fsw/cfe-core/src/fs/cfe_fs_decompress.c ****    State->Error = CFE_SUCCESS; /*Initialize this variable.  */
  65               	.loc 1 108 0
  66 0040 206F 0008 	move.l 8(%sp),%a0
  67 0044 42A8 0024 	clr.l 36(%a0)
 109:/home/simulink/cFS_FreeRTOS_seL4/cfe/fsw/cfe-core/src/fs/cfe_fs_decompress.c **** 
 110:/home/simulink/cFS_FreeRTOS_seL4/cfe/fsw/cfe-core/src/fs/cfe_fs_decompress.c ****    /*
 111:/home/simulink/cFS_FreeRTOS_seL4/cfe/fsw/cfe-core/src/fs/cfe_fs_decompress.c ****    ** initialize max number of Huffman tables allocated to zero 
 112:/home/simulink/cFS_FreeRTOS_seL4/cfe/fsw/cfe-core/src/fs/cfe_fs_decompress.c ****    */
 113:/home/simulink/cFS_FreeRTOS_seL4/cfe/fsw/cfe-core/src/fs/cfe_fs_decompress.c ****    State->max_hufts = 0;
  68               	.loc 1 113 0
  69 0048 206F 0008 	move.l 8(%sp),%a0
  70 004c 203C 0001 	move.l #116844,%d0
  70      C86C 
  71 0052 42B0 0800 	clr.l (%a0,%d0.l)
 114:/home/simulink/cFS_FreeRTOS_seL4/cfe/fsw/cfe-core/src/fs/cfe_fs_decompress.c **** 
 115:/home/simulink/cFS_FreeRTOS_seL4/cfe/fsw/cfe-core/src/fs/cfe_fs_decompress.c ****    /*  
 116:/home/simulink/cFS_FreeRTOS_seL4/cfe/fsw/cfe-core/src/fs/cfe_fs_decompress.c ****    ** Open input file 
 117:/home/simulink/cFS_FreeRTOS_seL4/cfe/fsw/cfe-core/src/fs/cfe_fs_decompress.c ****    */
 118:/home/simulink/cFS_FreeRTOS_seL4/cfe/fsw/cfe-core/src/fs/cfe_fs_decompress.c ****    State->srcFile_fd = OS_open( srcFileName, OS_READ_ONLY, 0 );
  72               	.loc 1 118 0
  73 0056 42A7      	clr.l -(%sp)
  74               	.cfi_def_cfa_offset 12
  75 0058 42A7      	clr.l -(%sp)
  76               	.cfi_def_cfa_offset 16
  77 005a 2F2F 0014 	move.l 20(%sp),-(%sp)
  78               	.cfi_def_cfa_offset 20
  79 005e 4EB9 0000 	jsr OS_open
  79      0000 
  80 0064 4FEF 000C 	lea (12,%sp),%sp
  81               	.cfi_def_cfa_offset 8
  82 0068 206F 0008 	move.l 8(%sp),%a0
  83 006c 2080      	move.l %d0,(%a0)
 119:/home/simulink/cFS_FreeRTOS_seL4/cfe/fsw/cfe-core/src/fs/cfe_fs_decompress.c **** 
 120:/home/simulink/cFS_FreeRTOS_seL4/cfe/fsw/cfe-core/src/fs/cfe_fs_decompress.c ****    /*
 121:/home/simulink/cFS_FreeRTOS_seL4/cfe/fsw/cfe-core/src/fs/cfe_fs_decompress.c ****    ** if input file could not be opened, return cFE error code 
 122:/home/simulink/cFS_FreeRTOS_seL4/cfe/fsw/cfe-core/src/fs/cfe_fs_decompress.c ****    */
 123:/home/simulink/cFS_FreeRTOS_seL4/cfe/fsw/cfe-core/src/fs/cfe_fs_decompress.c ****    if ( State->srcFile_fd < 0 )
  84               	.loc 1 123 0
  85 006e 206F 0008 	move.l 8(%sp),%a0
  86 0072 2010      	move.l (%a0),%d0
  87 0074 4A80      	tst.l %d0
  88 0076 6C1C      	jge .L4
 124:/home/simulink/cFS_FreeRTOS_seL4/cfe/fsw/cfe-core/src/fs/cfe_fs_decompress.c ****    {
68K GAS   			page 5


 125:/home/simulink/cFS_FreeRTOS_seL4/cfe/fsw/cfe-core/src/fs/cfe_fs_decompress.c ****       CFE_ES_WriteToSysLog("CFE_FS_Decompress: Cannot open source file: %s\n",
  89               	.loc 1 125 0
  90 0078 2F2F 000C 	move.l 12(%sp),-(%sp)
  91               	.cfi_def_cfa_offset 12
  92 007c 4879 0000 	pea .LC0
  92      0000 
  93               	.cfi_def_cfa_offset 16
  94 0082 4EB9 0000 	jsr CFE_ES_WriteToSysLog
  94      0000 
  95 0088 508F      	addq.l #8,%sp
  96               	.cfi_def_cfa_offset 8
 126:/home/simulink/cFS_FreeRTOS_seL4/cfe/fsw/cfe-core/src/fs/cfe_fs_decompress.c ****                             srcFileName);
 127:/home/simulink/cFS_FreeRTOS_seL4/cfe/fsw/cfe-core/src/fs/cfe_fs_decompress.c ****       return (CFE_FS_GZIP_OPEN_INPUT);
  97               	.loc 1 127 0
  98 008a 203C C600 	move.l #-973078516,%d0
  98      000C 
  99 0090 6000 00E4 	jra .L5
 100               	.L4:
 128:/home/simulink/cFS_FreeRTOS_seL4/cfe/fsw/cfe-core/src/fs/cfe_fs_decompress.c ****    }
 129:/home/simulink/cFS_FreeRTOS_seL4/cfe/fsw/cfe-core/src/fs/cfe_fs_decompress.c **** 
 130:/home/simulink/cFS_FreeRTOS_seL4/cfe/fsw/cfe-core/src/fs/cfe_fs_decompress.c ****    /*
 131:/home/simulink/cFS_FreeRTOS_seL4/cfe/fsw/cfe-core/src/fs/cfe_fs_decompress.c ****    ** open output file 
 132:/home/simulink/cFS_FreeRTOS_seL4/cfe/fsw/cfe-core/src/fs/cfe_fs_decompress.c ****    */
 133:/home/simulink/cFS_FreeRTOS_seL4/cfe/fsw/cfe-core/src/fs/cfe_fs_decompress.c ****    State->dstFile_fd = OS_creat( dstFileName, OS_WRITE_ONLY);
 101               	.loc 1 133 0
 102 0094 4878 0001 	pea 1.w
 103               	.cfi_def_cfa_offset 12
 104 0098 2F2F 0014 	move.l 20(%sp),-(%sp)
 105               	.cfi_def_cfa_offset 16
 106 009c 4EB9 0000 	jsr OS_creat
 106      0000 
 107 00a2 508F      	addq.l #8,%sp
 108               	.cfi_def_cfa_offset 8
 109 00a4 206F 0008 	move.l 8(%sp),%a0
 110 00a8 2140 0004 	move.l %d0,4(%a0)
 134:/home/simulink/cFS_FreeRTOS_seL4/cfe/fsw/cfe-core/src/fs/cfe_fs_decompress.c **** 
 135:/home/simulink/cFS_FreeRTOS_seL4/cfe/fsw/cfe-core/src/fs/cfe_fs_decompress.c ****    /*
 136:/home/simulink/cFS_FreeRTOS_seL4/cfe/fsw/cfe-core/src/fs/cfe_fs_decompress.c ****    ** if output file could not be opened, return cFE error code
 137:/home/simulink/cFS_FreeRTOS_seL4/cfe/fsw/cfe-core/src/fs/cfe_fs_decompress.c ****    */ 
 138:/home/simulink/cFS_FreeRTOS_seL4/cfe/fsw/cfe-core/src/fs/cfe_fs_decompress.c ****    if ( State->dstFile_fd < 0 )
 111               	.loc 1 138 0
 112 00ac 206F 0008 	move.l 8(%sp),%a0
 113 00b0 2028 0004 	move.l 4(%a0),%d0
 114 00b4 4A80      	tst.l %d0
 115 00b6 6C2C      	jge .L6
 139:/home/simulink/cFS_FreeRTOS_seL4/cfe/fsw/cfe-core/src/fs/cfe_fs_decompress.c ****    {
 140:/home/simulink/cFS_FreeRTOS_seL4/cfe/fsw/cfe-core/src/fs/cfe_fs_decompress.c ****       CFE_ES_WriteToSysLog("CFE_FS_Decompress: Cannot open destination file: %s\n",
 116               	.loc 1 140 0
 117 00b8 2F2F 0010 	move.l 16(%sp),-(%sp)
 118               	.cfi_def_cfa_offset 12
 119 00bc 4879 0000 	pea .LC1
 119      0000 
 120               	.cfi_def_cfa_offset 16
 121 00c2 4EB9 0000 	jsr CFE_ES_WriteToSysLog
 121      0000 
 122 00c8 508F      	addq.l #8,%sp
 123               	.cfi_def_cfa_offset 8
68K GAS   			page 6


 141:/home/simulink/cFS_FreeRTOS_seL4/cfe/fsw/cfe-core/src/fs/cfe_fs_decompress.c ****                             dstFileName);
 142:/home/simulink/cFS_FreeRTOS_seL4/cfe/fsw/cfe-core/src/fs/cfe_fs_decompress.c **** 
 143:/home/simulink/cFS_FreeRTOS_seL4/cfe/fsw/cfe-core/src/fs/cfe_fs_decompress.c ****       /* close the source file before bailing out */
 144:/home/simulink/cFS_FreeRTOS_seL4/cfe/fsw/cfe-core/src/fs/cfe_fs_decompress.c ****       OS_close( State->srcFile_fd );
 124               	.loc 1 144 0
 125 00ca 206F 0008 	move.l 8(%sp),%a0
 126 00ce 2010      	move.l (%a0),%d0
 127 00d0 2F00      	move.l %d0,-(%sp)
 128               	.cfi_def_cfa_offset 12
 129 00d2 4EB9 0000 	jsr OS_close
 129      0000 
 130 00d8 588F      	addq.l #4,%sp
 131               	.cfi_def_cfa_offset 8
 145:/home/simulink/cFS_FreeRTOS_seL4/cfe/fsw/cfe-core/src/fs/cfe_fs_decompress.c **** 
 146:/home/simulink/cFS_FreeRTOS_seL4/cfe/fsw/cfe-core/src/fs/cfe_fs_decompress.c ****       return (CFE_FS_GZIP_OPEN_OUTPUT);
 132               	.loc 1 146 0
 133 00da 203C C600 	move.l #-973078517,%d0
 133      000B 
 134 00e0 6000 0094 	jra .L5
 135               	.L6:
 147:/home/simulink/cFS_FreeRTOS_seL4/cfe/fsw/cfe-core/src/fs/cfe_fs_decompress.c ****    }
 148:/home/simulink/cFS_FreeRTOS_seL4/cfe/fsw/cfe-core/src/fs/cfe_fs_decompress.c **** 
 149:/home/simulink/cFS_FreeRTOS_seL4/cfe/fsw/cfe-core/src/fs/cfe_fs_decompress.c ****    CFE_PSP_MemSet( State->hufTable,  0, MAX_HUF_TABLES * sizeof(HufTable) );
 136               	.loc 1 149 0
 137 00e4 202F 0008 	move.l 8(%sp),%d0
 138 00e8 0680 0001 	add.l #116848,%d0
 138      C870 
 139 00ee 4878 1770 	pea 6000.w
 140               	.cfi_def_cfa_offset 12
 141 00f2 42A7      	clr.l -(%sp)
 142               	.cfi_def_cfa_offset 16
 143 00f4 2F00      	move.l %d0,-(%sp)
 144               	.cfi_def_cfa_offset 20
 145 00f6 4EB9 0000 	jsr CFE_PSP_MemSet
 145      0000 
 146 00fc 4FEF 000C 	lea (12,%sp),%sp
 147               	.cfi_def_cfa_offset 8
 150:/home/simulink/cFS_FreeRTOS_seL4/cfe/fsw/cfe-core/src/fs/cfe_fs_decompress.c ****    CFE_PSP_MemSet( State->window, 0, WSIZE_X2 );
 148               	.loc 1 150 0
 149 0100 202F 0008 	move.l 8(%sp),%d0
 150 0104 0680 0000 	add.l #51304,%d0
 150      C868 
 151 010a 2F3C 0001 	move.l #65536,-(%sp)
 151      0000 
 152               	.cfi_def_cfa_offset 12
 153 0110 42A7      	clr.l -(%sp)
 154               	.cfi_def_cfa_offset 16
 155 0112 2F00      	move.l %d0,-(%sp)
 156               	.cfi_def_cfa_offset 20
 157 0114 4EB9 0000 	jsr CFE_PSP_MemSet
 157      0000 
 158 011a 4FEF 000C 	lea (12,%sp),%sp
 159               	.cfi_def_cfa_offset 8
 151:/home/simulink/cFS_FreeRTOS_seL4/cfe/fsw/cfe-core/src/fs/cfe_fs_decompress.c ****    CFE_PSP_MemSet( trace,     0, 3 * sizeof(uint32) ); 
 160               	.loc 1 151 0
 161 011e 4878 000C 	pea 12.w
 162               	.cfi_def_cfa_offset 12
68K GAS   			page 7


 163 0122 42A7      	clr.l -(%sp)
 164               	.cfi_def_cfa_offset 16
 165 0124 4879 0000 	pea trace
 165      0000 
 166               	.cfi_def_cfa_offset 20
 167 012a 4EB9 0000 	jsr CFE_PSP_MemSet
 167      0000 
 168 0130 4FEF 000C 	lea (12,%sp),%sp
 169               	.cfi_def_cfa_offset 8
 152:/home/simulink/cFS_FreeRTOS_seL4/cfe/fsw/cfe-core/src/fs/cfe_fs_decompress.c **** 		
 153:/home/simulink/cFS_FreeRTOS_seL4/cfe/fsw/cfe-core/src/fs/cfe_fs_decompress.c ****    /* 
 154:/home/simulink/cFS_FreeRTOS_seL4/cfe/fsw/cfe-core/src/fs/cfe_fs_decompress.c ****    ** uncompress the file 
 155:/home/simulink/cFS_FreeRTOS_seL4/cfe/fsw/cfe-core/src/fs/cfe_fs_decompress.c ****    */
 156:/home/simulink/cFS_FreeRTOS_seL4/cfe/fsw/cfe-core/src/fs/cfe_fs_decompress.c ****    guzerror = FS_gz_unzip_Reentrant(State);
 170               	.loc 1 156 0
 171 0134 2F2F 0008 	move.l 8(%sp),-(%sp)
 172               	.cfi_def_cfa_offset 12
 173 0138 4EB9 0000 	jsr FS_gz_unzip_Reentrant
 173      0000 
 174 013e 588F      	addq.l #4,%sp
 175               	.cfi_def_cfa_offset 8
 176 0140 2E80      	move.l %d0,(%sp)
 157:/home/simulink/cFS_FreeRTOS_seL4/cfe/fsw/cfe-core/src/fs/cfe_fs_decompress.c **** 
 158:/home/simulink/cFS_FreeRTOS_seL4/cfe/fsw/cfe-core/src/fs/cfe_fs_decompress.c ****    /* 
 159:/home/simulink/cFS_FreeRTOS_seL4/cfe/fsw/cfe-core/src/fs/cfe_fs_decompress.c ****    ** close input and output files 
 160:/home/simulink/cFS_FreeRTOS_seL4/cfe/fsw/cfe-core/src/fs/cfe_fs_decompress.c ****    */
 161:/home/simulink/cFS_FreeRTOS_seL4/cfe/fsw/cfe-core/src/fs/cfe_fs_decompress.c ****    OS_close( State->dstFile_fd );
 177               	.loc 1 161 0
 178 0142 206F 0008 	move.l 8(%sp),%a0
 179 0146 2028 0004 	move.l 4(%a0),%d0
 180 014a 2F00      	move.l %d0,-(%sp)
 181               	.cfi_def_cfa_offset 12
 182 014c 4EB9 0000 	jsr OS_close
 182      0000 
 183 0152 588F      	addq.l #4,%sp
 184               	.cfi_def_cfa_offset 8
 162:/home/simulink/cFS_FreeRTOS_seL4/cfe/fsw/cfe-core/src/fs/cfe_fs_decompress.c ****    OS_close( State->srcFile_fd );
 185               	.loc 1 162 0
 186 0154 206F 0008 	move.l 8(%sp),%a0
 187 0158 2010      	move.l (%a0),%d0
 188 015a 2F00      	move.l %d0,-(%sp)
 189               	.cfi_def_cfa_offset 12
 190 015c 4EB9 0000 	jsr OS_close
 190      0000 
 191 0162 588F      	addq.l #4,%sp
 192               	.cfi_def_cfa_offset 8
 163:/home/simulink/cFS_FreeRTOS_seL4/cfe/fsw/cfe-core/src/fs/cfe_fs_decompress.c **** 
 164:/home/simulink/cFS_FreeRTOS_seL4/cfe/fsw/cfe-core/src/fs/cfe_fs_decompress.c ****    /* 
 165:/home/simulink/cFS_FreeRTOS_seL4/cfe/fsw/cfe-core/src/fs/cfe_fs_decompress.c ****    ** delete output file after error
 166:/home/simulink/cFS_FreeRTOS_seL4/cfe/fsw/cfe-core/src/fs/cfe_fs_decompress.c ****    */
 167:/home/simulink/cFS_FreeRTOS_seL4/cfe/fsw/cfe-core/src/fs/cfe_fs_decompress.c ****    if (guzerror != CFE_SUCCESS)
 193               	.loc 1 167 0
 194 0164 4A97      	tst.l (%sp)
 195 0166 670C      	jeq .L7
 168:/home/simulink/cFS_FreeRTOS_seL4/cfe/fsw/cfe-core/src/fs/cfe_fs_decompress.c ****    {
 169:/home/simulink/cFS_FreeRTOS_seL4/cfe/fsw/cfe-core/src/fs/cfe_fs_decompress.c ****       OS_remove(dstFileName);
 196               	.loc 1 169 0
68K GAS   			page 8


 197 0168 2F2F 0010 	move.l 16(%sp),-(%sp)
 198               	.cfi_def_cfa_offset 12
 199 016c 4EB9 0000 	jsr OS_remove
 199      0000 
 200 0172 588F      	addq.l #4,%sp
 201               	.cfi_def_cfa_offset 8
 202               	.L7:
 170:/home/simulink/cFS_FreeRTOS_seL4/cfe/fsw/cfe-core/src/fs/cfe_fs_decompress.c ****    }
 171:/home/simulink/cFS_FreeRTOS_seL4/cfe/fsw/cfe-core/src/fs/cfe_fs_decompress.c **** 
 172:/home/simulink/cFS_FreeRTOS_seL4/cfe/fsw/cfe-core/src/fs/cfe_fs_decompress.c **** 
 173:/home/simulink/cFS_FreeRTOS_seL4/cfe/fsw/cfe-core/src/fs/cfe_fs_decompress.c ****    /* 
 174:/home/simulink/cFS_FreeRTOS_seL4/cfe/fsw/cfe-core/src/fs/cfe_fs_decompress.c ****    ** return cFE error code
 175:/home/simulink/cFS_FreeRTOS_seL4/cfe/fsw/cfe-core/src/fs/cfe_fs_decompress.c ****    */
 176:/home/simulink/cFS_FreeRTOS_seL4/cfe/fsw/cfe-core/src/fs/cfe_fs_decompress.c ****    return(guzerror);
 203               	.loc 1 176 0
 204 0174 2017      	move.l (%sp),%d0
 205               	.L5:
 177:/home/simulink/cFS_FreeRTOS_seL4/cfe/fsw/cfe-core/src/fs/cfe_fs_decompress.c **** }
 206               	.loc 1 177 0
 207 0176 588F      	addq.l #4,%sp
 208 0178 4E75      	rts
 209               	.cfi_endproc
 210               	.LFE60:
 211               	.sizeCFE_FS_Decompress_Reentrant, .-CFE_FS_Decompress_Reentrant
 212               	.align2
 213               	.globlFS_gz_clear_bufs_Reentrant
 214               	.typeFS_gz_clear_bufs_Reentrant, @function
 215               	FS_gz_clear_bufs_Reentrant:
 216               	.LFB61:
 178:/home/simulink/cFS_FreeRTOS_seL4/cfe/fsw/cfe-core/src/fs/cfe_fs_decompress.c **** 
 179:/home/simulink/cFS_FreeRTOS_seL4/cfe/fsw/cfe-core/src/fs/cfe_fs_decompress.c **** 
 180:/home/simulink/cFS_FreeRTOS_seL4/cfe/fsw/cfe-core/src/fs/cfe_fs_decompress.c **** void FS_gz_clear_bufs_Reentrant( CFE_FS_Decompress_State_t *State )
 181:/home/simulink/cFS_FreeRTOS_seL4/cfe/fsw/cfe-core/src/fs/cfe_fs_decompress.c **** {
 217               	.loc 1 181 0
 218               	.cfi_startproc
 182:/home/simulink/cFS_FreeRTOS_seL4/cfe/fsw/cfe-core/src/fs/cfe_fs_decompress.c **** 	State->outcnt = 0;
 219               	.loc 1 182 0
 220 017a 206F 0004 	move.l 4(%sp),%a0
 221 017e 42A8 0010 	clr.l 16(%a0)
 183:/home/simulink/cFS_FreeRTOS_seL4/cfe/fsw/cfe-core/src/fs/cfe_fs_decompress.c **** 	State->insize = 0;
 222               	.loc 1 183 0
 223 0182 206F 0004 	move.l 4(%sp),%a0
 224 0186 42A8 0014 	clr.l 20(%a0)
 184:/home/simulink/cFS_FreeRTOS_seL4/cfe/fsw/cfe-core/src/fs/cfe_fs_decompress.c **** 	State->inptr  = 0;
 225               	.loc 1 184 0
 226 018a 206F 0004 	move.l 4(%sp),%a0
 227 018e 42A8 0018 	clr.l 24(%a0)
 185:/home/simulink/cFS_FreeRTOS_seL4/cfe/fsw/cfe-core/src/fs/cfe_fs_decompress.c **** 
 186:/home/simulink/cFS_FreeRTOS_seL4/cfe/fsw/cfe-core/src/fs/cfe_fs_decompress.c **** 	State->bytes_in  = 0L;
 228               	.loc 1 186 0
 229 0192 206F 0004 	move.l 4(%sp),%a0
 230 0196 42A8 001C 	clr.l 28(%a0)
 187:/home/simulink/cFS_FreeRTOS_seL4/cfe/fsw/cfe-core/src/fs/cfe_fs_decompress.c **** 	State->bytes_out = 0L;
 231               	.loc 1 187 0
 232 019a 206F 0004 	move.l 4(%sp),%a0
 233 019e 42A8 0020 	clr.l 32(%a0)
 188:/home/simulink/cFS_FreeRTOS_seL4/cfe/fsw/cfe-core/src/fs/cfe_fs_decompress.c **** }
68K GAS   			page 9


 234               	.loc 1 188 0
 235 01a2 4E71      	nop
 236 01a4 4E75      	rts
 237               	.cfi_endproc
 238               	.LFE61:
 239               	.sizeFS_gz_clear_bufs_Reentrant, .-FS_gz_clear_bufs_Reentrant
 240               	.section.rodata
 241               	.LC2:
 242 0065 1F8B 00   	.string"\037\213"
 243               	.LC3:
 244 0068 1F9E 00   	.string"\037\236"
 245               	.text
 246               	.align2
 247               	.globlFS_gz_eat_header_Reentrant
 248               	.typeFS_gz_eat_header_Reentrant, @function
 249               	FS_gz_eat_header_Reentrant:
 250               	.LFB62:
 189:/home/simulink/cFS_FreeRTOS_seL4/cfe/fsw/cfe-core/src/fs/cfe_fs_decompress.c **** 
 190:/home/simulink/cFS_FreeRTOS_seL4/cfe/fsw/cfe-core/src/fs/cfe_fs_decompress.c **** 
 191:/home/simulink/cFS_FreeRTOS_seL4/cfe/fsw/cfe-core/src/fs/cfe_fs_decompress.c **** int32 FS_gz_eat_header_Reentrant( CFE_FS_Decompress_State_t *State )
 192:/home/simulink/cFS_FreeRTOS_seL4/cfe/fsw/cfe-core/src/fs/cfe_fs_decompress.c **** {
 251               	.loc 1 192 0
 252               	.cfi_startproc
 253 01a6 4FEF FFEC 	lea (-20,%sp),%sp
 254               	.cfi_def_cfa_offset 24
 193:/home/simulink/cFS_FreeRTOS_seL4/cfe/fsw/cfe-core/src/fs/cfe_fs_decompress.c **** 	uint8   flags;                  /* compression flags */
 194:/home/simulink/cFS_FreeRTOS_seL4/cfe/fsw/cfe-core/src/fs/cfe_fs_decompress.c **** 	int8    magic[2];               /* magic header      */
 195:/home/simulink/cFS_FreeRTOS_seL4/cfe/fsw/cfe-core/src/fs/cfe_fs_decompress.c **** 	int8    thisByte;				     /* temporary holder for current byte in a string read */
 196:/home/simulink/cFS_FreeRTOS_seL4/cfe/fsw/cfe-core/src/fs/cfe_fs_decompress.c **** 	uint32  stamp;                  /* time stamp        */
 197:/home/simulink/cFS_FreeRTOS_seL4/cfe/fsw/cfe-core/src/fs/cfe_fs_decompress.c **** 	boolean keep_going;
 198:/home/simulink/cFS_FreeRTOS_seL4/cfe/fsw/cfe-core/src/fs/cfe_fs_decompress.c **** 
 199:/home/simulink/cFS_FreeRTOS_seL4/cfe/fsw/cfe-core/src/fs/cfe_fs_decompress.c **** 	/*  read input buffer (check for read error) */
 200:/home/simulink/cFS_FreeRTOS_seL4/cfe/fsw/cfe-core/src/fs/cfe_fs_decompress.c **** 	magic[0] = (int8)NEXTBYTE();
 255               	.loc 1 200 0
 256 01aa 206F 0018 	move.l 24(%sp),%a0
 257 01ae 2228 0018 	move.l 24(%a0),%d1
 258 01b2 206F 0018 	move.l 24(%sp),%a0
 259 01b6 2028 0014 	move.l 20(%a0),%d0
 260 01ba B081      	cmp.l %d1,%d0
 261 01bc 631E      	jls .L10
 262               	.loc 1 200 0 is_stmt 0 discriminator 1
 263 01be 206F 0018 	move.l 24(%sp),%a0
 264 01c2 2028 0018 	move.l 24(%a0),%d0
 265 01c6 2200      	move.l %d0,%d1
 266 01c8 5281      	addq.l #1,%d1
 267 01ca 206F 0018 	move.l 24(%sp),%a0
 268 01ce 2141 0018 	move.l %d1,24(%a0)
 269 01d2 206F 0018 	move.l 24(%sp),%a0
 270 01d6 1030 0828 	move.b 40(%a0,%d0.l),%d0
 271 01da 600E      	jra .L11
 272               	.L10:
 273               	.loc 1 200 0 discriminator 2
 274 01dc 2F2F 0018 	move.l 24(%sp),-(%sp)
 275               	.cfi_def_cfa_offset 28
 276 01e0 4EB9 0000 	jsr FS_gz_fill_inbuf_Reentrant
 276      0000 
 277 01e6 588F      	addq.l #4,%sp
68K GAS   			page 10


 278               	.cfi_def_cfa_offset 24
 279 01e8 1000      	move.b %d0,%d0
 280               	.L11:
 281               	.loc 1 200 0 discriminator 4
 282 01ea 1F40 0001 	move.b %d0,1(%sp)
 201:/home/simulink/cFS_FreeRTOS_seL4/cfe/fsw/cfe-core/src/fs/cfe_fs_decompress.c **** 	if( State->Error != CFE_SUCCESS ) return CFE_FS_GZIP_READ_ERROR_HEADER;
 283               	.loc 1 201 0 is_stmt 1 discriminator 4
 284 01ee 206F 0018 	move.l 24(%sp),%a0
 285 01f2 2028 0024 	move.l 36(%a0),%d0
 286 01f6 4A80      	tst.l %d0
 287 01f8 670A      	jeq .L12
 288               	.loc 1 201 0 is_stmt 0 discriminator 1
 289 01fa 203C C600 	move.l #-973078515,%d0
 289      000D 
 290 0200 6000 06B2 	jra .L75
 291               	.L12:
 202:/home/simulink/cFS_FreeRTOS_seL4/cfe/fsw/cfe-core/src/fs/cfe_fs_decompress.c **** 
 203:/home/simulink/cFS_FreeRTOS_seL4/cfe/fsw/cfe-core/src/fs/cfe_fs_decompress.c **** 	magic[1] = (int8)NEXTBYTE();
 292               	.loc 1 203 0 is_stmt 1
 293 0204 206F 0018 	move.l 24(%sp),%a0
 294 0208 2228 0018 	move.l 24(%a0),%d1
 295 020c 206F 0018 	move.l 24(%sp),%a0
 296 0210 2028 0014 	move.l 20(%a0),%d0
 297 0214 B081      	cmp.l %d1,%d0
 298 0216 631E      	jls .L14
 299               	.loc 1 203 0 is_stmt 0 discriminator 1
 300 0218 206F 0018 	move.l 24(%sp),%a0
 301 021c 2028 0018 	move.l 24(%a0),%d0
 302 0220 2200      	move.l %d0,%d1
 303 0222 5281      	addq.l #1,%d1
 304 0224 206F 0018 	move.l 24(%sp),%a0
 305 0228 2141 0018 	move.l %d1,24(%a0)
 306 022c 206F 0018 	move.l 24(%sp),%a0
 307 0230 1030 0828 	move.b 40(%a0,%d0.l),%d0
 308 0234 600E      	jra .L15
 309               	.L14:
 310               	.loc 1 203 0 discriminator 2
 311 0236 2F2F 0018 	move.l 24(%sp),-(%sp)
 312               	.cfi_def_cfa_offset 28
 313 023a 4EB9 0000 	jsr FS_gz_fill_inbuf_Reentrant
 313      0000 
 314 0240 588F      	addq.l #4,%sp
 315               	.cfi_def_cfa_offset 24
 316 0242 1000      	move.b %d0,%d0
 317               	.L15:
 318               	.loc 1 203 0 discriminator 4
 319 0244 1F40 0002 	move.b %d0,2(%sp)
 204:/home/simulink/cFS_FreeRTOS_seL4/cfe/fsw/cfe-core/src/fs/cfe_fs_decompress.c **** 	if ( State->Error != CFE_SUCCESS ) return CFE_FS_GZIP_READ_ERROR_HEADER;
 320               	.loc 1 204 0 is_stmt 1 discriminator 4
 321 0248 206F 0018 	move.l 24(%sp),%a0
 322 024c 2028 0024 	move.l 36(%a0),%d0
 323 0250 4A80      	tst.l %d0
 324 0252 670A      	jeq .L16
 325               	.loc 1 204 0 is_stmt 0 discriminator 1
 326 0254 203C C600 	move.l #-973078515,%d0
 326      000D 
 327 025a 6000 0658 	jra .L75
68K GAS   			page 11


 328               	.L16:
 205:/home/simulink/cFS_FreeRTOS_seL4/cfe/fsw/cfe-core/src/fs/cfe_fs_decompress.c **** 
 206:/home/simulink/cFS_FreeRTOS_seL4/cfe/fsw/cfe-core/src/fs/cfe_fs_decompress.c **** 	if ( memcmp( magic, GZIP_MAGIC, 2 ) == 0 || memcmp( magic, OLD_GZIP_MAGIC, 2 ) == 0 ) 
 329               	.loc 1 206 0 is_stmt 1
 330 025e 4878 0002 	pea 2.w
 331               	.cfi_def_cfa_offset 28
 332 0262 4879 0000 	pea .LC2
 332      0000 
 333               	.cfi_def_cfa_offset 32
 334 0268 200F      	move.l %sp,%d0
 335 026a 0680 0000 	add.l #9,%d0
 335      0009 
 336 0270 2F00      	move.l %d0,-(%sp)
 337               	.cfi_def_cfa_offset 36
 338 0272 4EB9 0000 	jsr memcmp
 338      0000 
 339 0278 4FEF 000C 	lea (12,%sp),%sp
 340               	.cfi_def_cfa_offset 24
 341 027c 4A80      	tst.l %d0
 342 027e 6724      	jeq .L17
 343               	.loc 1 206 0 is_stmt 0 discriminator 1
 344 0280 4878 0002 	pea 2.w
 345               	.cfi_def_cfa_offset 28
 346 0284 4879 0000 	pea .LC3
 346      0000 
 347               	.cfi_def_cfa_offset 32
 348 028a 200F      	move.l %sp,%d0
 349 028c 0680 0000 	add.l #9,%d0
 349      0009 
 350 0292 2F00      	move.l %d0,-(%sp)
 351               	.cfi_def_cfa_offset 36
 352 0294 4EB9 0000 	jsr memcmp
 352      0000 
 353 029a 4FEF 000C 	lea (12,%sp),%sp
 354               	.cfi_def_cfa_offset 24
 355 029e 4A80      	tst.l %d0
 356 02a0 6600 05FC 	jne .L18
 357               	.L17:
 207:/home/simulink/cFS_FreeRTOS_seL4/cfe/fsw/cfe-core/src/fs/cfe_fs_decompress.c ****    {
 208:/home/simulink/cFS_FreeRTOS_seL4/cfe/fsw/cfe-core/src/fs/cfe_fs_decompress.c **** 		
 209:/home/simulink/cFS_FreeRTOS_seL4/cfe/fsw/cfe-core/src/fs/cfe_fs_decompress.c **** 		NEXTBYTE();
 358               	.loc 1 209 0 is_stmt 1
 359 02a4 206F 0018 	move.l 24(%sp),%a0
 360 02a8 2228 0018 	move.l 24(%a0),%d1
 361 02ac 206F 0018 	move.l 24(%sp),%a0
 362 02b0 2028 0014 	move.l 20(%a0),%d0
 363 02b4 B081      	cmp.l %d1,%d0
 364 02b6 6314      	jls .L19
 365               	.loc 1 209 0 is_stmt 0 discriminator 1
 366 02b8 206F 0018 	move.l 24(%sp),%a0
 367 02bc 2028 0018 	move.l 24(%a0),%d0
 368 02c0 5280      	addq.l #1,%d0
 369 02c2 206F 0018 	move.l 24(%sp),%a0
 370 02c6 2140 0018 	move.l %d0,24(%a0)
 371 02ca 600C      	jra .L20
 372               	.L19:
 373               	.loc 1 209 0 discriminator 2
68K GAS   			page 12


 374 02cc 2F2F 0018 	move.l 24(%sp),-(%sp)
 375               	.cfi_def_cfa_offset 28
 376 02d0 4EB9 0000 	jsr FS_gz_fill_inbuf_Reentrant
 376      0000 
 377 02d6 588F      	addq.l #4,%sp
 378               	.cfi_def_cfa_offset 24
 379               	.L20:
 210:/home/simulink/cFS_FreeRTOS_seL4/cfe/fsw/cfe-core/src/fs/cfe_fs_decompress.c **** 		if ( State->Error != CFE_SUCCESS ) return CFE_FS_GZIP_READ_ERROR_HEADER;
 380               	.loc 1 210 0 is_stmt 1
 381 02d8 206F 0018 	move.l 24(%sp),%a0
 382 02dc 2028 0024 	move.l 36(%a0),%d0
 383 02e0 4A80      	tst.l %d0
 384 02e2 670A      	jeq .L21
 385               	.loc 1 210 0 is_stmt 0 discriminator 1
 386 02e4 203C C600 	move.l #-973078515,%d0
 386      000D 
 387 02ea 6000 05C8 	jra .L75
 388               	.L21:
 211:/home/simulink/cFS_FreeRTOS_seL4/cfe/fsw/cfe-core/src/fs/cfe_fs_decompress.c **** 		
 212:/home/simulink/cFS_FreeRTOS_seL4/cfe/fsw/cfe-core/src/fs/cfe_fs_decompress.c **** 		flags = NEXTBYTE();
 389               	.loc 1 212 0 is_stmt 1
 390 02ee 206F 0018 	move.l 24(%sp),%a0
 391 02f2 2228 0018 	move.l 24(%a0),%d1
 392 02f6 206F 0018 	move.l 24(%sp),%a0
 393 02fa 2028 0014 	move.l 20(%a0),%d0
 394 02fe B081      	cmp.l %d1,%d0
 395 0300 631E      	jls .L22
 396               	.loc 1 212 0 is_stmt 0 discriminator 1
 397 0302 206F 0018 	move.l 24(%sp),%a0
 398 0306 2028 0018 	move.l 24(%a0),%d0
 399 030a 2200      	move.l %d0,%d1
 400 030c 5281      	addq.l #1,%d1
 401 030e 206F 0018 	move.l 24(%sp),%a0
 402 0312 2141 0018 	move.l %d1,24(%a0)
 403 0316 206F 0018 	move.l 24(%sp),%a0
 404 031a 1030 0828 	move.b 40(%a0,%d0.l),%d0
 405 031e 600E      	jra .L23
 406               	.L22:
 407               	.loc 1 212 0 discriminator 2
 408 0320 2F2F 0018 	move.l 24(%sp),-(%sp)
 409               	.cfi_def_cfa_offset 28
 410 0324 4EB9 0000 	jsr FS_gz_fill_inbuf_Reentrant
 410      0000 
 411 032a 588F      	addq.l #4,%sp
 412               	.cfi_def_cfa_offset 24
 413 032c 1000      	move.b %d0,%d0
 414               	.L23:
 415               	.loc 1 212 0 discriminator 4
 416 032e 1F40 000B 	move.b %d0,11(%sp)
 213:/home/simulink/cFS_FreeRTOS_seL4/cfe/fsw/cfe-core/src/fs/cfe_fs_decompress.c **** 		if ( State->Error != CFE_SUCCESS ) return CFE_FS_GZIP_READ_ERROR_HEADER;
 417               	.loc 1 213 0 is_stmt 1 discriminator 4
 418 0332 206F 0018 	move.l 24(%sp),%a0
 419 0336 2028 0024 	move.l 36(%a0),%d0
 420 033a 4A80      	tst.l %d0
 421 033c 670A      	jeq .L24
 422               	.loc 1 213 0 is_stmt 0 discriminator 1
 423 033e 203C C600 	move.l #-973078515,%d0
68K GAS   			page 13


 423      000D 
 424 0344 6000 056E 	jra .L75
 425               	.L24:
 214:/home/simulink/cFS_FreeRTOS_seL4/cfe/fsw/cfe-core/src/fs/cfe_fs_decompress.c **** 		
 215:/home/simulink/cFS_FreeRTOS_seL4/cfe/fsw/cfe-core/src/fs/cfe_fs_decompress.c **** 		stamp  = (uint32)NEXTBYTE();
 426               	.loc 1 215 0 is_stmt 1
 427 0348 206F 0018 	move.l 24(%sp),%a0
 428 034c 2228 0018 	move.l 24(%a0),%d1
 429 0350 206F 0018 	move.l 24(%sp),%a0
 430 0354 2028 0014 	move.l 20(%a0),%d0
 431 0358 B081      	cmp.l %d1,%d0
 432 035a 6326      	jls .L25
 433               	.loc 1 215 0 is_stmt 0 discriminator 1
 434 035c 206F 0018 	move.l 24(%sp),%a0
 435 0360 2028 0018 	move.l 24(%a0),%d0
 436 0364 2200      	move.l %d0,%d1
 437 0366 5281      	addq.l #1,%d1
 438 0368 206F 0018 	move.l 24(%sp),%a0
 439 036c 2141 0018 	move.l %d1,24(%a0)
 440 0370 206F 0018 	move.l 24(%sp),%a0
 441 0374 1030 0828 	move.b 40(%a0,%d0.l),%d0
 442 0378 1000      	move.b %d0,%d0
 443 037a 0280 0000 	and.l #255,%d0
 443      00FF 
 444 0380 6016      	jra .L26
 445               	.L25:
 446               	.loc 1 215 0 discriminator 2
 447 0382 2F2F 0018 	move.l 24(%sp),-(%sp)
 448               	.cfi_def_cfa_offset 28
 449 0386 4EB9 0000 	jsr FS_gz_fill_inbuf_Reentrant
 449      0000 
 450 038c 588F      	addq.l #4,%sp
 451               	.cfi_def_cfa_offset 24
 452 038e 1000      	move.b %d0,%d0
 453 0390 1000      	move.b %d0,%d0
 454 0392 0280 0000 	and.l #255,%d0
 454      00FF 
 455               	.L26:
 456               	.loc 1 215 0 discriminator 4
 457 0398 2F40 0004 	move.l %d0,4(%sp)
 216:/home/simulink/cFS_FreeRTOS_seL4/cfe/fsw/cfe-core/src/fs/cfe_fs_decompress.c **** 		if( State->Error != CFE_SUCCESS ) return CFE_FS_GZIP_READ_ERROR_HEADER;
 458               	.loc 1 216 0 is_stmt 1 discriminator 4
 459 039c 206F 0018 	move.l 24(%sp),%a0
 460 03a0 2028 0024 	move.l 36(%a0),%d0
 461 03a4 4A80      	tst.l %d0
 462 03a6 670A      	jeq .L27
 463               	.loc 1 216 0 is_stmt 0 discriminator 1
 464 03a8 203C C600 	move.l #-973078515,%d0
 464      000D 
 465 03ae 6000 0504 	jra .L75
 466               	.L27:
 217:/home/simulink/cFS_FreeRTOS_seL4/cfe/fsw/cfe-core/src/fs/cfe_fs_decompress.c **** 		stamp |= (uint32)NEXTBYTE() <<  8;
 467               	.loc 1 217 0 is_stmt 1
 468 03b2 206F 0018 	move.l 24(%sp),%a0
 469 03b6 2228 0018 	move.l 24(%a0),%d1
 470 03ba 206F 0018 	move.l 24(%sp),%a0
 471 03be 2028 0014 	move.l 20(%a0),%d0
68K GAS   			page 14


 472 03c2 B081      	cmp.l %d1,%d0
 473 03c4 6328      	jls .L28
 474               	.loc 1 217 0 is_stmt 0 discriminator 1
 475 03c6 206F 0018 	move.l 24(%sp),%a0
 476 03ca 2028 0018 	move.l 24(%a0),%d0
 477 03ce 2200      	move.l %d0,%d1
 478 03d0 5281      	addq.l #1,%d1
 479 03d2 206F 0018 	move.l 24(%sp),%a0
 480 03d6 2141 0018 	move.l %d1,24(%a0)
 481 03da 206F 0018 	move.l 24(%sp),%a0
 482 03de 1030 0828 	move.b 40(%a0,%d0.l),%d0
 483 03e2 1000      	move.b %d0,%d0
 484 03e4 0280 0000 	and.l #255,%d0
 484      00FF 
 485 03ea E188      	lsl.l #8,%d0
 486 03ec 6018      	jra .L29
 487               	.L28:
 488               	.loc 1 217 0 discriminator 2
 489 03ee 2F2F 0018 	move.l 24(%sp),-(%sp)
 490               	.cfi_def_cfa_offset 28
 491 03f2 4EB9 0000 	jsr FS_gz_fill_inbuf_Reentrant
 491      0000 
 492 03f8 588F      	addq.l #4,%sp
 493               	.cfi_def_cfa_offset 24
 494 03fa 1000      	move.b %d0,%d0
 495 03fc 1000      	move.b %d0,%d0
 496 03fe 0280 0000 	and.l #255,%d0
 496      00FF 
 497 0404 E188      	lsl.l #8,%d0
 498               	.L29:
 499               	.loc 1 217 0 discriminator 4
 500 0406 81AF 0004 	or.l %d0,4(%sp)
 218:/home/simulink/cFS_FreeRTOS_seL4/cfe/fsw/cfe-core/src/fs/cfe_fs_decompress.c **** 		if( State->Error != CFE_SUCCESS ) return CFE_FS_GZIP_READ_ERROR_HEADER;
 501               	.loc 1 218 0 is_stmt 1 discriminator 4
 502 040a 206F 0018 	move.l 24(%sp),%a0
 503 040e 2028 0024 	move.l 36(%a0),%d0
 504 0412 4A80      	tst.l %d0
 505 0414 670A      	jeq .L30
 506               	.loc 1 218 0 is_stmt 0 discriminator 1
 507 0416 203C C600 	move.l #-973078515,%d0
 507      000D 
 508 041c 6000 0496 	jra .L75
 509               	.L30:
 219:/home/simulink/cFS_FreeRTOS_seL4/cfe/fsw/cfe-core/src/fs/cfe_fs_decompress.c **** 		stamp |= (uint32)NEXTBYTE() << 16;
 510               	.loc 1 219 0 is_stmt 1
 511 0420 206F 0018 	move.l 24(%sp),%a0
 512 0424 2228 0018 	move.l 24(%a0),%d1
 513 0428 206F 0018 	move.l 24(%sp),%a0
 514 042c 2028 0014 	move.l 20(%a0),%d0
 515 0430 B081      	cmp.l %d1,%d0
 516 0432 632A      	jls .L31
 517               	.loc 1 219 0 is_stmt 0 discriminator 1
 518 0434 206F 0018 	move.l 24(%sp),%a0
 519 0438 2028 0018 	move.l 24(%a0),%d0
 520 043c 2200      	move.l %d0,%d1
 521 043e 5281      	addq.l #1,%d1
 522 0440 206F 0018 	move.l 24(%sp),%a0
68K GAS   			page 15


 523 0444 2141 0018 	move.l %d1,24(%a0)
 524 0448 206F 0018 	move.l 24(%sp),%a0
 525 044c 1030 0828 	move.b 40(%a0,%d0.l),%d0
 526 0450 1000      	move.b %d0,%d0
 527 0452 0280 0000 	and.l #255,%d0
 527      00FF 
 528 0458 4840      	swap %d0
 529 045a 4240      	clr.w %d0
 530 045c 601A      	jra .L32
 531               	.L31:
 532               	.loc 1 219 0 discriminator 2
 533 045e 2F2F 0018 	move.l 24(%sp),-(%sp)
 534               	.cfi_def_cfa_offset 28
 535 0462 4EB9 0000 	jsr FS_gz_fill_inbuf_Reentrant
 535      0000 
 536 0468 588F      	addq.l #4,%sp
 537               	.cfi_def_cfa_offset 24
 538 046a 1000      	move.b %d0,%d0
 539 046c 1000      	move.b %d0,%d0
 540 046e 0280 0000 	and.l #255,%d0
 540      00FF 
 541 0474 4840      	swap %d0
 542 0476 4240      	clr.w %d0
 543               	.L32:
 544               	.loc 1 219 0 discriminator 4
 545 0478 81AF 0004 	or.l %d0,4(%sp)
 220:/home/simulink/cFS_FreeRTOS_seL4/cfe/fsw/cfe-core/src/fs/cfe_fs_decompress.c **** 		if( State->Error != CFE_SUCCESS ) return CFE_FS_GZIP_READ_ERROR_HEADER;
 546               	.loc 1 220 0 is_stmt 1 discriminator 4
 547 047c 206F 0018 	move.l 24(%sp),%a0
 548 0480 2028 0024 	move.l 36(%a0),%d0
 549 0484 4A80      	tst.l %d0
 550 0486 670A      	jeq .L33
 551               	.loc 1 220 0 is_stmt 0 discriminator 1
 552 0488 203C C600 	move.l #-973078515,%d0
 552      000D 
 553 048e 6000 0424 	jra .L75
 554               	.L33:
 221:/home/simulink/cFS_FreeRTOS_seL4/cfe/fsw/cfe-core/src/fs/cfe_fs_decompress.c **** 		stamp |= (uint32)NEXTBYTE() << 24;
 555               	.loc 1 221 0 is_stmt 1
 556 0492 206F 0018 	move.l 24(%sp),%a0
 557 0496 2228 0018 	move.l 24(%a0),%d1
 558 049a 206F 0018 	move.l 24(%sp),%a0
 559 049e 2028 0014 	move.l 20(%a0),%d0
 560 04a2 B081      	cmp.l %d1,%d0
 561 04a4 632A      	jls .L34
 562               	.loc 1 221 0 is_stmt 0 discriminator 1
 563 04a6 206F 0018 	move.l 24(%sp),%a0
 564 04aa 2028 0018 	move.l 24(%a0),%d0
 565 04ae 2200      	move.l %d0,%d1
 566 04b0 5281      	addq.l #1,%d1
 567 04b2 206F 0018 	move.l 24(%sp),%a0
 568 04b6 2141 0018 	move.l %d1,24(%a0)
 569 04ba 206F 0018 	move.l 24(%sp),%a0
 570 04be 1030 0828 	move.b 40(%a0,%d0.l),%d0
 571 04c2 1000      	move.b %d0,%d0
 572 04c4 0280 0000 	and.l #255,%d0
 572      00FF 
68K GAS   			page 16


 573 04ca 7218      	moveq #24,%d1
 574 04cc E3A8      	lsl.l %d1,%d0
 575 04ce 601A      	jra .L35
 576               	.L34:
 577               	.loc 1 221 0 discriminator 2
 578 04d0 2F2F 0018 	move.l 24(%sp),-(%sp)
 579               	.cfi_def_cfa_offset 28
 580 04d4 4EB9 0000 	jsr FS_gz_fill_inbuf_Reentrant
 580      0000 
 581 04da 588F      	addq.l #4,%sp
 582               	.cfi_def_cfa_offset 24
 583 04dc 1000      	move.b %d0,%d0
 584 04de 1000      	move.b %d0,%d0
 585 04e0 0280 0000 	and.l #255,%d0
 585      00FF 
 586 04e6 7218      	moveq #24,%d1
 587 04e8 E3A8      	lsl.l %d1,%d0
 588               	.L35:
 589               	.loc 1 221 0 discriminator 4
 590 04ea 81AF 0004 	or.l %d0,4(%sp)
 222:/home/simulink/cFS_FreeRTOS_seL4/cfe/fsw/cfe-core/src/fs/cfe_fs_decompress.c **** 		if( State->Error != CFE_SUCCESS ) return CFE_FS_GZIP_READ_ERROR_HEADER;
 591               	.loc 1 222 0 is_stmt 1 discriminator 4
 592 04ee 206F 0018 	move.l 24(%sp),%a0
 593 04f2 2028 0024 	move.l 36(%a0),%d0
 594 04f6 4A80      	tst.l %d0
 595 04f8 670A      	jeq .L36
 596               	.loc 1 222 0 is_stmt 0 discriminator 1
 597 04fa 203C C600 	move.l #-973078515,%d0
 597      000D 
 598 0500 6000 03B2 	jra .L75
 599               	.L36:
 223:/home/simulink/cFS_FreeRTOS_seL4/cfe/fsw/cfe-core/src/fs/cfe_fs_decompress.c **** 		
 224:/home/simulink/cFS_FreeRTOS_seL4/cfe/fsw/cfe-core/src/fs/cfe_fs_decompress.c **** 		NEXTBYTE();		/* Ignore extra flags for the moment */
 600               	.loc 1 224 0 is_stmt 1
 601 0504 206F 0018 	move.l 24(%sp),%a0
 602 0508 2228 0018 	move.l 24(%a0),%d1
 603 050c 206F 0018 	move.l 24(%sp),%a0
 604 0510 2028 0014 	move.l 20(%a0),%d0
 605 0514 B081      	cmp.l %d1,%d0
 606 0516 6314      	jls .L37
 607               	.loc 1 224 0 is_stmt 0 discriminator 1
 608 0518 206F 0018 	move.l 24(%sp),%a0
 609 051c 2028 0018 	move.l 24(%a0),%d0
 610 0520 5280      	addq.l #1,%d0
 611 0522 206F 0018 	move.l 24(%sp),%a0
 612 0526 2140 0018 	move.l %d0,24(%a0)
 613 052a 600C      	jra .L38
 614               	.L37:
 615               	.loc 1 224 0 discriminator 2
 616 052c 2F2F 0018 	move.l 24(%sp),-(%sp)
 617               	.cfi_def_cfa_offset 28
 618 0530 4EB9 0000 	jsr FS_gz_fill_inbuf_Reentrant
 618      0000 
 619 0536 588F      	addq.l #4,%sp
 620               	.cfi_def_cfa_offset 24
 621               	.L38:
 225:/home/simulink/cFS_FreeRTOS_seL4/cfe/fsw/cfe-core/src/fs/cfe_fs_decompress.c **** 		if( State->Error != CFE_SUCCESS ) return CFE_FS_GZIP_READ_ERROR_HEADER;
68K GAS   			page 17


 622               	.loc 1 225 0 is_stmt 1
 623 0538 206F 0018 	move.l 24(%sp),%a0
 624 053c 2028 0024 	move.l 36(%a0),%d0
 625 0540 4A80      	tst.l %d0
 626 0542 670A      	jeq .L39
 627               	.loc 1 225 0 is_stmt 0 discriminator 1
 628 0544 203C C600 	move.l #-973078515,%d0
 628      000D 
 629 054a 6000 0368 	jra .L75
 630               	.L39:
 226:/home/simulink/cFS_FreeRTOS_seL4/cfe/fsw/cfe-core/src/fs/cfe_fs_decompress.c **** 		NEXTBYTE();		/* Ignore OS type for the moment */ 
 631               	.loc 1 226 0 is_stmt 1
 632 054e 206F 0018 	move.l 24(%sp),%a0
 633 0552 2228 0018 	move.l 24(%a0),%d1
 634 0556 206F 0018 	move.l 24(%sp),%a0
 635 055a 2028 0014 	move.l 20(%a0),%d0
 636 055e B081      	cmp.l %d1,%d0
 637 0560 6314      	jls .L40
 638               	.loc 1 226 0 is_stmt 0 discriminator 1
 639 0562 206F 0018 	move.l 24(%sp),%a0
 640 0566 2028 0018 	move.l 24(%a0),%d0
 641 056a 5280      	addq.l #1,%d0
 642 056c 206F 0018 	move.l 24(%sp),%a0
 643 0570 2140 0018 	move.l %d0,24(%a0)
 644 0574 600C      	jra .L41
 645               	.L40:
 646               	.loc 1 226 0 discriminator 2
 647 0576 2F2F 0018 	move.l 24(%sp),-(%sp)
 648               	.cfi_def_cfa_offset 28
 649 057a 4EB9 0000 	jsr FS_gz_fill_inbuf_Reentrant
 649      0000 
 650 0580 588F      	addq.l #4,%sp
 651               	.cfi_def_cfa_offset 24
 652               	.L41:
 227:/home/simulink/cFS_FreeRTOS_seL4/cfe/fsw/cfe-core/src/fs/cfe_fs_decompress.c **** 		if( State->Error != CFE_SUCCESS ) return CFE_FS_GZIP_READ_ERROR_HEADER;
 653               	.loc 1 227 0 is_stmt 1
 654 0582 206F 0018 	move.l 24(%sp),%a0
 655 0586 2028 0024 	move.l 36(%a0),%d0
 656 058a 4A80      	tst.l %d0
 657 058c 670A      	jeq .L42
 658               	.loc 1 227 0 is_stmt 0 discriminator 1
 659 058e 203C C600 	move.l #-973078515,%d0
 659      000D 
 660 0594 6000 031E 	jra .L75
 661               	.L42:
 228:/home/simulink/cFS_FreeRTOS_seL4/cfe/fsw/cfe-core/src/fs/cfe_fs_decompress.c **** 		
 229:/home/simulink/cFS_FreeRTOS_seL4/cfe/fsw/cfe-core/src/fs/cfe_fs_decompress.c **** 		if ( (flags & CONTINUATION) != 0 ) {
 662               	.loc 1 229 0 is_stmt 1
 663 0598 4280      	clr.l %d0
 664 059a 102F 000B 	move.b 11(%sp),%d0
 665 059e 7202      	moveq #2,%d1
 666 05a0 C081      	and.l %d1,%d0
 667 05a2 4A80      	tst.l %d0
 668 05a4 6700 0096 	jeq .L43
 230:/home/simulink/cFS_FreeRTOS_seL4/cfe/fsw/cfe-core/src/fs/cfe_fs_decompress.c **** 			NEXTBYTE();
 669               	.loc 1 230 0
 670 05a8 206F 0018 	move.l 24(%sp),%a0
68K GAS   			page 18


 671 05ac 2228 0018 	move.l 24(%a0),%d1
 672 05b0 206F 0018 	move.l 24(%sp),%a0
 673 05b4 2028 0014 	move.l 20(%a0),%d0
 674 05b8 B081      	cmp.l %d1,%d0
 675 05ba 6314      	jls .L44
 676               	.loc 1 230 0 is_stmt 0 discriminator 1
 677 05bc 206F 0018 	move.l 24(%sp),%a0
 678 05c0 2028 0018 	move.l 24(%a0),%d0
 679 05c4 5280      	addq.l #1,%d0
 680 05c6 206F 0018 	move.l 24(%sp),%a0
 681 05ca 2140 0018 	move.l %d0,24(%a0)
 682 05ce 600C      	jra .L45
 683               	.L44:
 684               	.loc 1 230 0 discriminator 2
 685 05d0 2F2F 0018 	move.l 24(%sp),-(%sp)
 686               	.cfi_def_cfa_offset 28
 687 05d4 4EB9 0000 	jsr FS_gz_fill_inbuf_Reentrant
 687      0000 
 688 05da 588F      	addq.l #4,%sp
 689               	.cfi_def_cfa_offset 24
 690               	.L45:
 231:/home/simulink/cFS_FreeRTOS_seL4/cfe/fsw/cfe-core/src/fs/cfe_fs_decompress.c **** 			if( State->Error != CFE_SUCCESS ) return CFE_FS_GZIP_READ_ERROR_HEADER;
 691               	.loc 1 231 0 is_stmt 1
 692 05dc 206F 0018 	move.l 24(%sp),%a0
 693 05e0 2028 0024 	move.l 36(%a0),%d0
 694 05e4 4A80      	tst.l %d0
 695 05e6 670A      	jeq .L46
 696               	.loc 1 231 0 is_stmt 0 discriminator 1
 697 05e8 203C C600 	move.l #-973078515,%d0
 697      000D 
 698 05ee 6000 02C4 	jra .L75
 699               	.L46:
 232:/home/simulink/cFS_FreeRTOS_seL4/cfe/fsw/cfe-core/src/fs/cfe_fs_decompress.c **** 			NEXTBYTE();
 700               	.loc 1 232 0 is_stmt 1
 701 05f2 206F 0018 	move.l 24(%sp),%a0
 702 05f6 2228 0018 	move.l 24(%a0),%d1
 703 05fa 206F 0018 	move.l 24(%sp),%a0
 704 05fe 2028 0014 	move.l 20(%a0),%d0
 705 0602 B081      	cmp.l %d1,%d0
 706 0604 6314      	jls .L47
 707               	.loc 1 232 0 is_stmt 0 discriminator 1
 708 0606 206F 0018 	move.l 24(%sp),%a0
 709 060a 2028 0018 	move.l 24(%a0),%d0
 710 060e 5280      	addq.l #1,%d0
 711 0610 206F 0018 	move.l 24(%sp),%a0
 712 0614 2140 0018 	move.l %d0,24(%a0)
 713 0618 600C      	jra .L48
 714               	.L47:
 715               	.loc 1 232 0 discriminator 2
 716 061a 2F2F 0018 	move.l 24(%sp),-(%sp)
 717               	.cfi_def_cfa_offset 28
 718 061e 4EB9 0000 	jsr FS_gz_fill_inbuf_Reentrant
 718      0000 
 719 0624 588F      	addq.l #4,%sp
 720               	.cfi_def_cfa_offset 24
 721               	.L48:
 233:/home/simulink/cFS_FreeRTOS_seL4/cfe/fsw/cfe-core/src/fs/cfe_fs_decompress.c **** 			if( State->Error != CFE_SUCCESS ) return CFE_FS_GZIP_READ_ERROR_HEADER;
68K GAS   			page 19


 722               	.loc 1 233 0 is_stmt 1
 723 0626 206F 0018 	move.l 24(%sp),%a0
 724 062a 2028 0024 	move.l 36(%a0),%d0
 725 062e 4A80      	tst.l %d0
 726 0630 670A      	jeq .L43
 727               	.loc 1 233 0 is_stmt 0 discriminator 1
 728 0632 203C C600 	move.l #-973078515,%d0
 728      000D 
 729 0638 6000 027A 	jra .L75
 730               	.L43:
 234:/home/simulink/cFS_FreeRTOS_seL4/cfe/fsw/cfe-core/src/fs/cfe_fs_decompress.c **** 		}
 235:/home/simulink/cFS_FreeRTOS_seL4/cfe/fsw/cfe-core/src/fs/cfe_fs_decompress.c **** 		
 236:/home/simulink/cFS_FreeRTOS_seL4/cfe/fsw/cfe-core/src/fs/cfe_fs_decompress.c **** 		if ( (flags & EXTRA_FIELD) != 0 ) {
 731               	.loc 1 236 0 is_stmt 1
 732 063c 4280      	clr.l %d0
 733 063e 102F 000B 	move.b 11(%sp),%d0
 734 0642 7204      	moveq #4,%d1
 735 0644 C081      	and.l %d1,%d0
 736 0646 4A80      	tst.l %d0
 737 0648 6700 0134 	jeq .L49
 738               	.LBB2:
 237:/home/simulink/cFS_FreeRTOS_seL4/cfe/fsw/cfe-core/src/fs/cfe_fs_decompress.c **** 			uint32 len;
 238:/home/simulink/cFS_FreeRTOS_seL4/cfe/fsw/cfe-core/src/fs/cfe_fs_decompress.c **** 			len  = NEXTBYTE();
 739               	.loc 1 238 0
 740 064c 206F 0018 	move.l 24(%sp),%a0
 741 0650 2228 0018 	move.l 24(%a0),%d1
 742 0654 206F 0018 	move.l 24(%sp),%a0
 743 0658 2028 0014 	move.l 20(%a0),%d0
 744 065c B081      	cmp.l %d1,%d0
 745 065e 6326      	jls .L50
 746               	.loc 1 238 0 is_stmt 0 discriminator 1
 747 0660 206F 0018 	move.l 24(%sp),%a0
 748 0664 2028 0018 	move.l 24(%a0),%d0
 749 0668 2200      	move.l %d0,%d1
 750 066a 5281      	addq.l #1,%d1
 751 066c 206F 0018 	move.l 24(%sp),%a0
 752 0670 2141 0018 	move.l %d1,24(%a0)
 753 0674 206F 0018 	move.l 24(%sp),%a0
 754 0678 1030 0828 	move.b 40(%a0,%d0.l),%d0
 755 067c 1000      	move.b %d0,%d0
 756 067e 0280 0000 	and.l #255,%d0
 756      00FF 
 757 0684 6016      	jra .L51
 758               	.L50:
 759               	.loc 1 238 0 discriminator 2
 760 0686 2F2F 0018 	move.l 24(%sp),-(%sp)
 761               	.cfi_def_cfa_offset 28
 762 068a 4EB9 0000 	jsr FS_gz_fill_inbuf_Reentrant
 762      0000 
 763 0690 588F      	addq.l #4,%sp
 764               	.cfi_def_cfa_offset 24
 765 0692 1000      	move.b %d0,%d0
 766 0694 1000      	move.b %d0,%d0
 767 0696 0280 0000 	and.l #255,%d0
 767      00FF 
 768               	.L51:
 769               	.loc 1 238 0 discriminator 4
68K GAS   			page 20


 770 069c 2F40 000C 	move.l %d0,12(%sp)
 239:/home/simulink/cFS_FreeRTOS_seL4/cfe/fsw/cfe-core/src/fs/cfe_fs_decompress.c **** 			if( State->Error != CFE_SUCCESS ) return CFE_FS_GZIP_READ_ERROR_HEADER;
 771               	.loc 1 239 0 is_stmt 1 discriminator 4
 772 06a0 206F 0018 	move.l 24(%sp),%a0
 773 06a4 2028 0024 	move.l 36(%a0),%d0
 774 06a8 4A80      	tst.l %d0
 775 06aa 670A      	jeq .L52
 776               	.loc 1 239 0 is_stmt 0 discriminator 1
 777 06ac 203C C600 	move.l #-973078515,%d0
 777      000D 
 778 06b2 6000 0200 	jra .L75
 779               	.L52:
 240:/home/simulink/cFS_FreeRTOS_seL4/cfe/fsw/cfe-core/src/fs/cfe_fs_decompress.c **** 			len |= NEXTBYTE() << 8;
 780               	.loc 1 240 0 is_stmt 1
 781 06b6 206F 0018 	move.l 24(%sp),%a0
 782 06ba 2228 0018 	move.l 24(%a0),%d1
 783 06be 206F 0018 	move.l 24(%sp),%a0
 784 06c2 2028 0014 	move.l 20(%a0),%d0
 785 06c6 B081      	cmp.l %d1,%d0
 786 06c8 6328      	jls .L53
 787               	.loc 1 240 0 is_stmt 0 discriminator 1
 788 06ca 206F 0018 	move.l 24(%sp),%a0
 789 06ce 2028 0018 	move.l 24(%a0),%d0
 790 06d2 2200      	move.l %d0,%d1
 791 06d4 5281      	addq.l #1,%d1
 792 06d6 206F 0018 	move.l 24(%sp),%a0
 793 06da 2141 0018 	move.l %d1,24(%a0)
 794 06de 206F 0018 	move.l 24(%sp),%a0
 795 06e2 1030 0828 	move.b 40(%a0,%d0.l),%d0
 796 06e6 1000      	move.b %d0,%d0
 797 06e8 0280 0000 	and.l #255,%d0
 797      00FF 
 798 06ee E188      	lsl.l #8,%d0
 799 06f0 6018      	jra .L54
 800               	.L53:
 801               	.loc 1 240 0 discriminator 2
 802 06f2 2F2F 0018 	move.l 24(%sp),-(%sp)
 803               	.cfi_def_cfa_offset 28
 804 06f6 4EB9 0000 	jsr FS_gz_fill_inbuf_Reentrant
 804      0000 
 805 06fc 588F      	addq.l #4,%sp
 806               	.cfi_def_cfa_offset 24
 807 06fe 1000      	move.b %d0,%d0
 808 0700 1000      	move.b %d0,%d0
 809 0702 0280 0000 	and.l #255,%d0
 809      00FF 
 810 0708 E188      	lsl.l #8,%d0
 811               	.L54:
 812               	.loc 1 240 0 discriminator 4
 813 070a 81AF 000C 	or.l %d0,12(%sp)
 241:/home/simulink/cFS_FreeRTOS_seL4/cfe/fsw/cfe-core/src/fs/cfe_fs_decompress.c **** 			if( State->Error != CFE_SUCCESS ) return CFE_FS_GZIP_READ_ERROR_HEADER;
 814               	.loc 1 241 0 is_stmt 1 discriminator 4
 815 070e 206F 0018 	move.l 24(%sp),%a0
 816 0712 2028 0024 	move.l 36(%a0),%d0
 817 0716 4A80      	tst.l %d0
 818 0718 6754      	jeq .L56
 819               	.loc 1 241 0 is_stmt 0 discriminator 1
68K GAS   			page 21


 820 071a 203C C600 	move.l #-973078515,%d0
 820      000D 
 821 0720 6000 0192 	jra .L75
 822               	.L59:
 242:/home/simulink/cFS_FreeRTOS_seL4/cfe/fsw/cfe-core/src/fs/cfe_fs_decompress.c **** 			while (len--) {
 243:/home/simulink/cFS_FreeRTOS_seL4/cfe/fsw/cfe-core/src/fs/cfe_fs_decompress.c **** 				NEXTBYTE();
 823               	.loc 1 243 0 is_stmt 1
 824 0724 206F 0018 	move.l 24(%sp),%a0
 825 0728 2228 0018 	move.l 24(%a0),%d1
 826 072c 206F 0018 	move.l 24(%sp),%a0
 827 0730 2028 0014 	move.l 20(%a0),%d0
 828 0734 B081      	cmp.l %d1,%d0
 829 0736 6314      	jls .L57
 830               	.loc 1 243 0 is_stmt 0 discriminator 1
 831 0738 206F 0018 	move.l 24(%sp),%a0
 832 073c 2028 0018 	move.l 24(%a0),%d0
 833 0740 5280      	addq.l #1,%d0
 834 0742 206F 0018 	move.l 24(%sp),%a0
 835 0746 2140 0018 	move.l %d0,24(%a0)
 836 074a 600C      	jra .L58
 837               	.L57:
 838               	.loc 1 243 0 discriminator 2
 839 074c 2F2F 0018 	move.l 24(%sp),-(%sp)
 840               	.cfi_def_cfa_offset 28
 841 0750 4EB9 0000 	jsr FS_gz_fill_inbuf_Reentrant
 841      0000 
 842 0756 588F      	addq.l #4,%sp
 843               	.cfi_def_cfa_offset 24
 844               	.L58:
 244:/home/simulink/cFS_FreeRTOS_seL4/cfe/fsw/cfe-core/src/fs/cfe_fs_decompress.c **** 				if( State->Error != CFE_SUCCESS ) return CFE_FS_GZIP_READ_ERROR_HEADER;
 845               	.loc 1 244 0 is_stmt 1
 846 0758 206F 0018 	move.l 24(%sp),%a0
 847 075c 2028 0024 	move.l 36(%a0),%d0
 848 0760 4A80      	tst.l %d0
 849 0762 670A      	jeq .L56
 850               	.loc 1 244 0 is_stmt 0 discriminator 1
 851 0764 203C C600 	move.l #-973078515,%d0
 851      000D 
 852 076a 6000 0148 	jra .L75
 853               	.L56:
 242:/home/simulink/cFS_FreeRTOS_seL4/cfe/fsw/cfe-core/src/fs/cfe_fs_decompress.c **** 			while (len--) {
 854               	.loc 1 242 0 is_stmt 1
 855 076e 202F 000C 	move.l 12(%sp),%d0
 856 0772 2200      	move.l %d0,%d1
 857 0774 5381      	subq.l #1,%d1
 858 0776 2F41 000C 	move.l %d1,12(%sp)
 859 077a 4A80      	tst.l %d0
 860 077c 66A6      	jne .L59
 861               	.L49:
 862               	.LBE2:
 245:/home/simulink/cFS_FreeRTOS_seL4/cfe/fsw/cfe-core/src/fs/cfe_fs_decompress.c **** 			}
 246:/home/simulink/cFS_FreeRTOS_seL4/cfe/fsw/cfe-core/src/fs/cfe_fs_decompress.c **** 		}
 247:/home/simulink/cFS_FreeRTOS_seL4/cfe/fsw/cfe-core/src/fs/cfe_fs_decompress.c **** 		
 248:/home/simulink/cFS_FreeRTOS_seL4/cfe/fsw/cfe-core/src/fs/cfe_fs_decompress.c **** 		/* Get original file name if it was truncated */
 249:/home/simulink/cFS_FreeRTOS_seL4/cfe/fsw/cfe-core/src/fs/cfe_fs_decompress.c **** 		if ( (flags & ORIG_NAME) != 0 ) {
 863               	.loc 1 249 0
 864 077e 4280      	clr.l %d0
68K GAS   			page 22


 865 0780 102F 000B 	move.b 11(%sp),%d0
 866 0784 7208      	moveq #8,%d1
 867 0786 C081      	and.l %d1,%d0
 868 0788 4A80      	tst.l %d0
 869 078a 6700 0082 	jeq .L60
 250:/home/simulink/cFS_FreeRTOS_seL4/cfe/fsw/cfe-core/src/fs/cfe_fs_decompress.c **** 			keep_going = TRUE;
 870               	.loc 1 250 0
 871 078e 7001      	moveq #1,%d0
 872 0790 1F40 0013 	move.b %d0,19(%sp)
 251:/home/simulink/cFS_FreeRTOS_seL4/cfe/fsw/cfe-core/src/fs/cfe_fs_decompress.c **** 			while ( keep_going ) {
 873               	.loc 1 251 0
 874 0794 6072      	jra .L61
 875               	.L66:
 252:/home/simulink/cFS_FreeRTOS_seL4/cfe/fsw/cfe-core/src/fs/cfe_fs_decompress.c **** 
 253:/home/simulink/cFS_FreeRTOS_seL4/cfe/fsw/cfe-core/src/fs/cfe_fs_decompress.c **** 				/* Get the next byte */
 254:/home/simulink/cFS_FreeRTOS_seL4/cfe/fsw/cfe-core/src/fs/cfe_fs_decompress.c **** 				thisByte = NEXTBYTE();
 876               	.loc 1 254 0
 877 0796 206F 0018 	move.l 24(%sp),%a0
 878 079a 2228 0018 	move.l 24(%a0),%d1
 879 079e 206F 0018 	move.l 24(%sp),%a0
 880 07a2 2028 0014 	move.l 20(%a0),%d0
 881 07a6 B081      	cmp.l %d1,%d0
 882 07a8 631E      	jls .L62
 883               	.loc 1 254 0 is_stmt 0 discriminator 1
 884 07aa 206F 0018 	move.l 24(%sp),%a0
 885 07ae 2028 0018 	move.l 24(%a0),%d0
 886 07b2 2200      	move.l %d0,%d1
 887 07b4 5281      	addq.l #1,%d1
 888 07b6 206F 0018 	move.l 24(%sp),%a0
 889 07ba 2141 0018 	move.l %d1,24(%a0)
 890 07be 206F 0018 	move.l 24(%sp),%a0
 891 07c2 1030 0828 	move.b 40(%a0,%d0.l),%d0
 892 07c6 600E      	jra .L63
 893               	.L62:
 894               	.loc 1 254 0 discriminator 2
 895 07c8 2F2F 0018 	move.l 24(%sp),-(%sp)
 896               	.cfi_def_cfa_offset 28
 897 07cc 4EB9 0000 	jsr FS_gz_fill_inbuf_Reentrant
 897      0000 
 898 07d2 588F      	addq.l #4,%sp
 899               	.cfi_def_cfa_offset 24
 900 07d4 1000      	move.b %d0,%d0
 901               	.L63:
 902               	.loc 1 254 0 discriminator 4
 903 07d6 1F40 0003 	move.b %d0,3(%sp)
 255:/home/simulink/cFS_FreeRTOS_seL4/cfe/fsw/cfe-core/src/fs/cfe_fs_decompress.c **** 
 256:/home/simulink/cFS_FreeRTOS_seL4/cfe/fsw/cfe-core/src/fs/cfe_fs_decompress.c **** 				/* Header failure when end of file is reached or a read failure occurs */
 257:/home/simulink/cFS_FreeRTOS_seL4/cfe/fsw/cfe-core/src/fs/cfe_fs_decompress.c **** 				if ((thisByte == EOF) || (State->Error != CFE_SUCCESS)) return CFE_FS_GZIP_READ_ERROR_HEADER;
 904               	.loc 1 257 0 is_stmt 1 discriminator 4
 905 07da 102F 0003 	move.b 3(%sp),%d0
 906 07de 49C0      	extb.l %d0
 907 07e0 72FF      	moveq #-1,%d1
 908 07e2 B280      	cmp.l %d0,%d1
 909 07e4 670C      	jeq .L64
 910               	.loc 1 257 0 is_stmt 0 discriminator 2
 911 07e6 206F 0018 	move.l 24(%sp),%a0
 912 07ea 2028 0024 	move.l 36(%a0),%d0
68K GAS   			page 23


 913 07ee 4A80      	tst.l %d0
 914 07f0 670A      	jeq .L65
 915               	.L64:
 916               	.loc 1 257 0 discriminator 3
 917 07f2 203C C600 	move.l #-973078515,%d0
 917      000D 
 918 07f8 6000 00BA 	jra .L75
 919               	.L65:
 258:/home/simulink/cFS_FreeRTOS_seL4/cfe/fsw/cfe-core/src/fs/cfe_fs_decompress.c **** 
 259:/home/simulink/cFS_FreeRTOS_seL4/cfe/fsw/cfe-core/src/fs/cfe_fs_decompress.c **** 				/* End of string was found */
 260:/home/simulink/cFS_FreeRTOS_seL4/cfe/fsw/cfe-core/src/fs/cfe_fs_decompress.c **** 				if (thisByte == 0) keep_going = FALSE;
 920               	.loc 1 260 0 is_stmt 1
 921 07fc 4A2F 0003 	tst.b 3(%sp)
 922 0800 6606      	jne .L61
 923               	.loc 1 260 0 is_stmt 0 discriminator 1
 924 0802 4200      	clr.b %d0
 925 0804 1F40 0013 	move.b %d0,19(%sp)
 926               	.L61:
 251:/home/simulink/cFS_FreeRTOS_seL4/cfe/fsw/cfe-core/src/fs/cfe_fs_decompress.c **** 
 927               	.loc 1 251 0 is_stmt 1
 928 0808 4A2F 0013 	tst.b 19(%sp)
 929 080c 6688      	jne .L66
 930               	.L60:
 261:/home/simulink/cFS_FreeRTOS_seL4/cfe/fsw/cfe-core/src/fs/cfe_fs_decompress.c **** 			}
 262:/home/simulink/cFS_FreeRTOS_seL4/cfe/fsw/cfe-core/src/fs/cfe_fs_decompress.c **** 		}
 263:/home/simulink/cFS_FreeRTOS_seL4/cfe/fsw/cfe-core/src/fs/cfe_fs_decompress.c **** 		
 264:/home/simulink/cFS_FreeRTOS_seL4/cfe/fsw/cfe-core/src/fs/cfe_fs_decompress.c **** 		/*  Discard file comment if any  */
 265:/home/simulink/cFS_FreeRTOS_seL4/cfe/fsw/cfe-core/src/fs/cfe_fs_decompress.c **** 		if ( (flags & COMMENT) != 0 ) {
 931               	.loc 1 265 0
 932 080e 4280      	clr.l %d0
 933 0810 102F 000B 	move.b 11(%sp),%d0
 934 0814 7210      	moveq #16,%d1
 935 0816 C081      	and.l %d1,%d0
 936 0818 4A80      	tst.l %d0
 937 081a 6700 0090 	jeq .L74
 266:/home/simulink/cFS_FreeRTOS_seL4/cfe/fsw/cfe-core/src/fs/cfe_fs_decompress.c **** 			keep_going = TRUE;
 938               	.loc 1 266 0
 939 081e 7001      	moveq #1,%d0
 940 0820 1F40 0013 	move.b %d0,19(%sp)
 267:/home/simulink/cFS_FreeRTOS_seL4/cfe/fsw/cfe-core/src/fs/cfe_fs_decompress.c **** 			while ( keep_going ) {
 941               	.loc 1 267 0
 942 0824 6070      	jra .L68
 943               	.L73:
 268:/home/simulink/cFS_FreeRTOS_seL4/cfe/fsw/cfe-core/src/fs/cfe_fs_decompress.c **** 
 269:/home/simulink/cFS_FreeRTOS_seL4/cfe/fsw/cfe-core/src/fs/cfe_fs_decompress.c **** 				/* Get the next byte */
 270:/home/simulink/cFS_FreeRTOS_seL4/cfe/fsw/cfe-core/src/fs/cfe_fs_decompress.c **** 				thisByte = NEXTBYTE();
 944               	.loc 1 270 0
 945 0826 206F 0018 	move.l 24(%sp),%a0
 946 082a 2228 0018 	move.l 24(%a0),%d1
 947 082e 206F 0018 	move.l 24(%sp),%a0
 948 0832 2028 0014 	move.l 20(%a0),%d0
 949 0836 B081      	cmp.l %d1,%d0
 950 0838 631E      	jls .L69
 951               	.loc 1 270 0 is_stmt 0 discriminator 1
 952 083a 206F 0018 	move.l 24(%sp),%a0
 953 083e 2028 0018 	move.l 24(%a0),%d0
 954 0842 2200      	move.l %d0,%d1
68K GAS   			page 24


 955 0844 5281      	addq.l #1,%d1
 956 0846 206F 0018 	move.l 24(%sp),%a0
 957 084a 2141 0018 	move.l %d1,24(%a0)
 958 084e 206F 0018 	move.l 24(%sp),%a0
 959 0852 1030 0828 	move.b 40(%a0,%d0.l),%d0
 960 0856 600E      	jra .L70
 961               	.L69:
 962               	.loc 1 270 0 discriminator 2
 963 0858 2F2F 0018 	move.l 24(%sp),-(%sp)
 964               	.cfi_def_cfa_offset 28
 965 085c 4EB9 0000 	jsr FS_gz_fill_inbuf_Reentrant
 965      0000 
 966 0862 588F      	addq.l #4,%sp
 967               	.cfi_def_cfa_offset 24
 968 0864 1000      	move.b %d0,%d0
 969               	.L70:
 970               	.loc 1 270 0 discriminator 4
 971 0866 1F40 0003 	move.b %d0,3(%sp)
 271:/home/simulink/cFS_FreeRTOS_seL4/cfe/fsw/cfe-core/src/fs/cfe_fs_decompress.c **** 
 272:/home/simulink/cFS_FreeRTOS_seL4/cfe/fsw/cfe-core/src/fs/cfe_fs_decompress.c **** 				/* Header failure when end of file is reached or a read failure occurs */
 273:/home/simulink/cFS_FreeRTOS_seL4/cfe/fsw/cfe-core/src/fs/cfe_fs_decompress.c **** 				if ((thisByte == EOF) || (State->Error != CFE_SUCCESS)) return CFE_FS_GZIP_READ_ERROR_HEADER;
 972               	.loc 1 273 0 is_stmt 1 discriminator 4
 973 086a 102F 0003 	move.b 3(%sp),%d0
 974 086e 49C0      	extb.l %d0
 975 0870 72FF      	moveq #-1,%d1
 976 0872 B280      	cmp.l %d0,%d1
 977 0874 670C      	jeq .L71
 978               	.loc 1 273 0 is_stmt 0 discriminator 2
 979 0876 206F 0018 	move.l 24(%sp),%a0
 980 087a 2028 0024 	move.l 36(%a0),%d0
 981 087e 4A80      	tst.l %d0
 982 0880 6708      	jeq .L72
 983               	.L71:
 984               	.loc 1 273 0 discriminator 3
 985 0882 203C C600 	move.l #-973078515,%d0
 985      000D 
 986 0888 602A      	jra .L75
 987               	.L72:
 274:/home/simulink/cFS_FreeRTOS_seL4/cfe/fsw/cfe-core/src/fs/cfe_fs_decompress.c **** 
 275:/home/simulink/cFS_FreeRTOS_seL4/cfe/fsw/cfe-core/src/fs/cfe_fs_decompress.c **** 				/* End of string was found */
 276:/home/simulink/cFS_FreeRTOS_seL4/cfe/fsw/cfe-core/src/fs/cfe_fs_decompress.c **** 				if (thisByte == 0) keep_going = FALSE;
 988               	.loc 1 276 0 is_stmt 1
 989 088a 4A2F 0003 	tst.b 3(%sp)
 990 088e 6606      	jne .L68
 991               	.loc 1 276 0 is_stmt 0 discriminator 1
 992 0890 4200      	clr.b %d0
 993 0892 1F40 0013 	move.b %d0,19(%sp)
 994               	.L68:
 267:/home/simulink/cFS_FreeRTOS_seL4/cfe/fsw/cfe-core/src/fs/cfe_fs_decompress.c **** 
 995               	.loc 1 267 0 is_stmt 1
 996 0896 4A2F 0013 	tst.b 19(%sp)
 997 089a 668A      	jne .L73
 265:/home/simulink/cFS_FreeRTOS_seL4/cfe/fsw/cfe-core/src/fs/cfe_fs_decompress.c **** 			keep_going = TRUE;
 998               	.loc 1 265 0
 999 089c 600E      	jra .L74
 1000               	.L18:
 277:/home/simulink/cFS_FreeRTOS_seL4/cfe/fsw/cfe-core/src/fs/cfe_fs_decompress.c **** 			}
68K GAS   			page 25


 278:/home/simulink/cFS_FreeRTOS_seL4/cfe/fsw/cfe-core/src/fs/cfe_fs_decompress.c **** 		}
 279:/home/simulink/cFS_FreeRTOS_seL4/cfe/fsw/cfe-core/src/fs/cfe_fs_decompress.c **** 	}
 280:/home/simulink/cFS_FreeRTOS_seL4/cfe/fsw/cfe-core/src/fs/cfe_fs_decompress.c **** 	else
 281:/home/simulink/cFS_FreeRTOS_seL4/cfe/fsw/cfe-core/src/fs/cfe_fs_decompress.c **** 	{
 282:/home/simulink/cFS_FreeRTOS_seL4/cfe/fsw/cfe-core/src/fs/cfe_fs_decompress.c **** 		State->Error = CFE_FS_GZIP_NON_ZIP_FILE;
 1001               	.loc 1 282 0
 1002 089e 206F 0018 	move.l 24(%sp),%a0
 1003 08a2 223C C600 	move.l #-973078513,%d1
 1003      000F 
 1004 08a8 2141 0024 	move.l %d1,36(%a0)
 1005               	.L74:
 283:/home/simulink/cFS_FreeRTOS_seL4/cfe/fsw/cfe-core/src/fs/cfe_fs_decompress.c **** 	}
 284:/home/simulink/cFS_FreeRTOS_seL4/cfe/fsw/cfe-core/src/fs/cfe_fs_decompress.c **** 
 285:/home/simulink/cFS_FreeRTOS_seL4/cfe/fsw/cfe-core/src/fs/cfe_fs_decompress.c **** 	return State->Error;
 1006               	.loc 1 285 0
 1007 08ac 206F 0018 	move.l 24(%sp),%a0
 1008 08b0 2028 0024 	move.l 36(%a0),%d0
 1009               	.L75:
 286:/home/simulink/cFS_FreeRTOS_seL4/cfe/fsw/cfe-core/src/fs/cfe_fs_decompress.c **** }
 1010               	.loc 1 286 0 discriminator 1
 1011 08b4 4FEF 0014 	lea (20,%sp),%sp
 1012 08b8 4E75      	rts
 1013               	.cfi_endproc
 1014               	.LFE62:
 1015               	.sizeFS_gz_eat_header_Reentrant, .-FS_gz_eat_header_Reentrant
 1016               	.align2
 1017               	.globlFS_gz_fill_inbuf_Reentrant
 1018               	.typeFS_gz_fill_inbuf_Reentrant, @function
 1019               	FS_gz_fill_inbuf_Reentrant:
 1020               	.LFB63:
 287:/home/simulink/cFS_FreeRTOS_seL4/cfe/fsw/cfe-core/src/fs/cfe_fs_decompress.c **** 
 288:/home/simulink/cFS_FreeRTOS_seL4/cfe/fsw/cfe-core/src/fs/cfe_fs_decompress.c **** /*
 289:/home/simulink/cFS_FreeRTOS_seL4/cfe/fsw/cfe-core/src/fs/cfe_fs_decompress.c **** ** Fill the input buffer. This is called only when the buffer is empty. 
 290:/home/simulink/cFS_FreeRTOS_seL4/cfe/fsw/cfe-core/src/fs/cfe_fs_decompress.c **** */
 291:/home/simulink/cFS_FreeRTOS_seL4/cfe/fsw/cfe-core/src/fs/cfe_fs_decompress.c **** int16 FS_gz_fill_inbuf_Reentrant( CFE_FS_Decompress_State_t *State )
 292:/home/simulink/cFS_FreeRTOS_seL4/cfe/fsw/cfe-core/src/fs/cfe_fs_decompress.c **** {
 1021               	.loc 1 292 0
 1022               	.cfi_startproc
 1023 08ba 598F      	subq.l #4,%sp
 1024               	.cfi_def_cfa_offset 8
 293:/home/simulink/cFS_FreeRTOS_seL4/cfe/fsw/cfe-core/src/fs/cfe_fs_decompress.c **** 	int32 len;
 294:/home/simulink/cFS_FreeRTOS_seL4/cfe/fsw/cfe-core/src/fs/cfe_fs_decompress.c **** 
 295:/home/simulink/cFS_FreeRTOS_seL4/cfe/fsw/cfe-core/src/fs/cfe_fs_decompress.c **** 	/*  Read as much as possible */
 296:/home/simulink/cFS_FreeRTOS_seL4/cfe/fsw/cfe-core/src/fs/cfe_fs_decompress.c **** 	State->insize = 0;
 1025               	.loc 1 296 0
 1026 08bc 206F 0008 	move.l 8(%sp),%a0
 1027 08c0 42A8 0014 	clr.l 20(%a0)
 1028               	.L78:
 297:/home/simulink/cFS_FreeRTOS_seL4/cfe/fsw/cfe-core/src/fs/cfe_fs_decompress.c **** 
 298:/home/simulink/cFS_FreeRTOS_seL4/cfe/fsw/cfe-core/src/fs/cfe_fs_decompress.c **** 	do 
 299:/home/simulink/cFS_FreeRTOS_seL4/cfe/fsw/cfe-core/src/fs/cfe_fs_decompress.c ****    {
 300:/home/simulink/cFS_FreeRTOS_seL4/cfe/fsw/cfe-core/src/fs/cfe_fs_decompress.c **** 		len = OS_read( State->srcFile_fd, (int8*)State->inbuf + State->insize, INBUFSIZ - State->insize )
 1029               	.loc 1 300 0
 1030 08c4 206F 0008 	move.l 8(%sp),%a0
 1031 08c8 2028 0014 	move.l 20(%a0),%d0
 1032 08cc 227C 0000 	move.l #32768,%a1
 1032      8000 
68K GAS   			page 26


 1033 08d2 93C0      	sub.l %d0,%a1
 1034 08d4 202F 0008 	move.l 8(%sp),%d0
 1035 08d8 0680 0000 	add.l #40,%d0
 1035      0028 
 1036 08de 206F 0008 	move.l 8(%sp),%a0
 1037 08e2 2228 0014 	move.l 20(%a0),%d1
 1038 08e6 D280      	add.l %d0,%d1
 1039 08e8 206F 0008 	move.l 8(%sp),%a0
 1040 08ec 2010      	move.l (%a0),%d0
 1041 08ee 2F09      	move.l %a1,-(%sp)
 1042               	.cfi_def_cfa_offset 12
 1043 08f0 2F01      	move.l %d1,-(%sp)
 1044               	.cfi_def_cfa_offset 16
 1045 08f2 2F00      	move.l %d0,-(%sp)
 1046               	.cfi_def_cfa_offset 20
 1047 08f4 4EB9 0000 	jsr OS_read
 1047      0000 
 1048 08fa 4FEF 000C 	lea (12,%sp),%sp
 1049               	.cfi_def_cfa_offset 8
 1050 08fe 2E80      	move.l %d0,(%sp)
 301:/home/simulink/cFS_FreeRTOS_seL4/cfe/fsw/cfe-core/src/fs/cfe_fs_decompress.c **** 		
 302:/home/simulink/cFS_FreeRTOS_seL4/cfe/fsw/cfe-core/src/fs/cfe_fs_decompress.c **** 		if ( len == 0 || len == EOF || len == OS_FS_ERROR ) break;
 1051               	.loc 1 302 0
 1052 0900 4A97      	tst.l (%sp)
 1053 0902 6730      	jeq .L77
 1054               	.loc 1 302 0 is_stmt 0 discriminator 1
 1055 0904 70FF      	moveq #-1,%d0
 1056 0906 B097      	cmp.l (%sp),%d0
 1057 0908 672A      	jeq .L77
 1058               	.loc 1 302 0 discriminator 2
 1059 090a 70FF      	moveq #-1,%d0
 1060 090c B097      	cmp.l (%sp),%d0
 1061 090e 6724      	jeq .L77
 303:/home/simulink/cFS_FreeRTOS_seL4/cfe/fsw/cfe-core/src/fs/cfe_fs_decompress.c **** 		
 304:/home/simulink/cFS_FreeRTOS_seL4/cfe/fsw/cfe-core/src/fs/cfe_fs_decompress.c **** 		State->insize += len;
 1062               	.loc 1 304 0 is_stmt 1
 1063 0910 206F 0008 	move.l 8(%sp),%a0
 1064 0914 2228 0014 	move.l 20(%a0),%d1
 1065 0918 2017      	move.l (%sp),%d0
 1066 091a D081      	add.l %d1,%d0
 1067 091c 206F 0008 	move.l 8(%sp),%a0
 1068 0920 2140 0014 	move.l %d0,20(%a0)
 305:/home/simulink/cFS_FreeRTOS_seL4/cfe/fsw/cfe-core/src/fs/cfe_fs_decompress.c **** 		
 306:/home/simulink/cFS_FreeRTOS_seL4/cfe/fsw/cfe-core/src/fs/cfe_fs_decompress.c **** 	} while ( State->insize < INBUFSIZ );
 1069               	.loc 1 306 0
 1070 0924 206F 0008 	move.l 8(%sp),%a0
 1071 0928 2028 0014 	move.l 20(%a0),%d0
 1072 092c 0C80 0000 	cmp.l #32767,%d0
 1072      7FFF 
 1073 0932 6390      	jls .L78
 1074               	.L77:
 307:/home/simulink/cFS_FreeRTOS_seL4/cfe/fsw/cfe-core/src/fs/cfe_fs_decompress.c **** 
 308:/home/simulink/cFS_FreeRTOS_seL4/cfe/fsw/cfe-core/src/fs/cfe_fs_decompress.c **** 
 309:/home/simulink/cFS_FreeRTOS_seL4/cfe/fsw/cfe-core/src/fs/cfe_fs_decompress.c **** 	if ( State->insize == 0 ) return EOF;
 1075               	.loc 1 309 0
 1076 0934 206F 0008 	move.l 8(%sp),%a0
 1077 0938 2028 0014 	move.l 20(%a0),%d0
68K GAS   			page 27


 1078 093c 4A80      	tst.l %d0
 1079 093e 6604      	jne .L79
 1080               	.loc 1 309 0 is_stmt 0 discriminator 1
 1081 0940 70FF      	moveq #-1,%d0
 1082 0942 6050      	jra .L80
 1083               	.L79:
 310:/home/simulink/cFS_FreeRTOS_seL4/cfe/fsw/cfe-core/src/fs/cfe_fs_decompress.c **** 
 311:/home/simulink/cFS_FreeRTOS_seL4/cfe/fsw/cfe-core/src/fs/cfe_fs_decompress.c **** 	if ( len == OS_FS_ERROR ) 
 1084               	.loc 1 311 0 is_stmt 1
 1085 0944 70FF      	moveq #-1,%d0
 1086 0946 B097      	cmp.l (%sp),%d0
 1087 0948 6612      	jne .L81
 312:/home/simulink/cFS_FreeRTOS_seL4/cfe/fsw/cfe-core/src/fs/cfe_fs_decompress.c ****    {
 313:/home/simulink/cFS_FreeRTOS_seL4/cfe/fsw/cfe-core/src/fs/cfe_fs_decompress.c **** 		State->Error = CFE_FS_GZIP_READ_ERROR;
 1088               	.loc 1 313 0
 1089 094a 206F 0008 	move.l 8(%sp),%a0
 1090 094e 203C C600 	move.l #-973078518,%d0
 1090      000A 
 1091 0954 2140 0024 	move.l %d0,36(%a0)
 314:/home/simulink/cFS_FreeRTOS_seL4/cfe/fsw/cfe-core/src/fs/cfe_fs_decompress.c **** 		return EOF;
 1092               	.loc 1 314 0
 1093 0958 70FF      	moveq #-1,%d0
 1094 095a 6038      	jra .L80
 1095               	.L81:
 315:/home/simulink/cFS_FreeRTOS_seL4/cfe/fsw/cfe-core/src/fs/cfe_fs_decompress.c **** 	}
 316:/home/simulink/cFS_FreeRTOS_seL4/cfe/fsw/cfe-core/src/fs/cfe_fs_decompress.c **** 
 317:/home/simulink/cFS_FreeRTOS_seL4/cfe/fsw/cfe-core/src/fs/cfe_fs_decompress.c **** 	State->bytes_in += (uint32)State->insize;
 1096               	.loc 1 317 0
 1097 095c 206F 0008 	move.l 8(%sp),%a0
 1098 0960 2028 001C 	move.l 28(%a0),%d0
 1099 0964 2200      	move.l %d0,%d1
 1100 0966 206F 0008 	move.l 8(%sp),%a0
 1101 096a 2028 0014 	move.l 20(%a0),%d0
 1102 096e D081      	add.l %d1,%d0
 1103 0970 206F 0008 	move.l 8(%sp),%a0
 1104 0974 2140 001C 	move.l %d0,28(%a0)
 318:/home/simulink/cFS_FreeRTOS_seL4/cfe/fsw/cfe-core/src/fs/cfe_fs_decompress.c **** 	State->inptr = 1;
 1105               	.loc 1 318 0
 1106 0978 206F 0008 	move.l 8(%sp),%a0
 1107 097c 7001      	moveq #1,%d0
 1108 097e 2140 0018 	move.l %d0,24(%a0)
 319:/home/simulink/cFS_FreeRTOS_seL4/cfe/fsw/cfe-core/src/fs/cfe_fs_decompress.c **** 
 320:/home/simulink/cFS_FreeRTOS_seL4/cfe/fsw/cfe-core/src/fs/cfe_fs_decompress.c **** 	return State->inbuf[0];
 1109               	.loc 1 320 0
 1110 0982 206F 0008 	move.l 8(%sp),%a0
 1111 0986 1028 0028 	move.b 40(%a0),%d0
 1112 098a 1000      	move.b %d0,%d0
 1113 098c 0280 0000 	and.l #255,%d0
 1113      00FF 
 1114 0992 3000      	move.w %d0,%d0
 1115               	.L80:
 321:/home/simulink/cFS_FreeRTOS_seL4/cfe/fsw/cfe-core/src/fs/cfe_fs_decompress.c **** }
 1116               	.loc 1 321 0
 1117 0994 588F      	addq.l #4,%sp
 1118 0996 4E75      	rts
 1119               	.cfi_endproc
 1120               	.LFE63:
68K GAS   			page 28


 1121               	.sizeFS_gz_fill_inbuf_Reentrant, .-FS_gz_fill_inbuf_Reentrant
 1122               	.align2
 1123               	.globlFS_gz_flush_window_Reentrant
 1124               	.typeFS_gz_flush_window_Reentrant, @function
 1125               	FS_gz_flush_window_Reentrant:
 1126               	.LFB64:
 322:/home/simulink/cFS_FreeRTOS_seL4/cfe/fsw/cfe-core/src/fs/cfe_fs_decompress.c **** 
 323:/home/simulink/cFS_FreeRTOS_seL4/cfe/fsw/cfe-core/src/fs/cfe_fs_decompress.c **** 
 324:/home/simulink/cFS_FreeRTOS_seL4/cfe/fsw/cfe-core/src/fs/cfe_fs_decompress.c **** /*  Write the output window window[0..State->outcnt-1] and update crc and */
 325:/home/simulink/cFS_FreeRTOS_seL4/cfe/fsw/cfe-core/src/fs/cfe_fs_decompress.c **** /*   State->bytes_out. (Used for the decompressed data only.) */
 326:/home/simulink/cFS_FreeRTOS_seL4/cfe/fsw/cfe-core/src/fs/cfe_fs_decompress.c **** /*  merged original State->flush_window & State->write_buf together - glw */
 327:/home/simulink/cFS_FreeRTOS_seL4/cfe/fsw/cfe-core/src/fs/cfe_fs_decompress.c **** /* fix for infinite loop when file store is full -dds */
 328:/home/simulink/cFS_FreeRTOS_seL4/cfe/fsw/cfe-core/src/fs/cfe_fs_decompress.c **** void FS_gz_flush_window_Reentrant( CFE_FS_Decompress_State_t *State )
 329:/home/simulink/cFS_FreeRTOS_seL4/cfe/fsw/cfe-core/src/fs/cfe_fs_decompress.c **** {
 1127               	.loc 1 329 0
 1128               	.cfi_startproc
 1129 0998 4FEF FFF4 	lea (-12,%sp),%sp
 1130               	.cfi_def_cfa_offset 16
 330:/home/simulink/cFS_FreeRTOS_seL4/cfe/fsw/cfe-core/src/fs/cfe_fs_decompress.c **** 
 331:/home/simulink/cFS_FreeRTOS_seL4/cfe/fsw/cfe-core/src/fs/cfe_fs_decompress.c **** 	int32  n;
 332:/home/simulink/cFS_FreeRTOS_seL4/cfe/fsw/cfe-core/src/fs/cfe_fs_decompress.c **** 	uint32  cnt;
 333:/home/simulink/cFS_FreeRTOS_seL4/cfe/fsw/cfe-core/src/fs/cfe_fs_decompress.c **** 	uint8   *gz_window_position;
 334:/home/simulink/cFS_FreeRTOS_seL4/cfe/fsw/cfe-core/src/fs/cfe_fs_decompress.c **** 
 335:/home/simulink/cFS_FreeRTOS_seL4/cfe/fsw/cfe-core/src/fs/cfe_fs_decompress.c **** 	if ( State->outcnt == 0 ) return;
 1131               	.loc 1 335 0
 1132 099c 206F 0010 	move.l 16(%sp),%a0
 1133 09a0 2028 0010 	move.l 16(%a0),%d0
 1134 09a4 4A80      	tst.l %d0
 1135 09a6 6700 00B4 	jeq .L89
 336:/home/simulink/cFS_FreeRTOS_seL4/cfe/fsw/cfe-core/src/fs/cfe_fs_decompress.c **** 
 337:/home/simulink/cFS_FreeRTOS_seL4/cfe/fsw/cfe-core/src/fs/cfe_fs_decompress.c **** 	FS_gz_updcrc( State->window, State->outcnt );
 1136               	.loc 1 337 0
 1137 09aa 206F 0010 	move.l 16(%sp),%a0
 1138 09ae 2228 0010 	move.l 16(%a0),%d1
 1139 09b2 202F 0010 	move.l 16(%sp),%d0
 1140 09b6 0680 0000 	add.l #51304,%d0
 1140      C868 
 1141 09bc 2F01      	move.l %d1,-(%sp)
 1142               	.cfi_def_cfa_offset 20
 1143 09be 2F00      	move.l %d0,-(%sp)
 1144               	.cfi_def_cfa_offset 24
 1145 09c0 4EB9 0000 	jsr FS_gz_updcrc
 1145      0000 
 1146 09c6 508F      	addq.l #8,%sp
 1147               	.cfi_def_cfa_offset 16
 338:/home/simulink/cFS_FreeRTOS_seL4/cfe/fsw/cfe-core/src/fs/cfe_fs_decompress.c **** 
 339:/home/simulink/cFS_FreeRTOS_seL4/cfe/fsw/cfe-core/src/fs/cfe_fs_decompress.c **** 	cnt = State->outcnt;
 1148               	.loc 1 339 0
 1149 09c8 206F 0010 	move.l 16(%sp),%a0
 1150 09cc 2F68 0010 	move.l 16(%a0),8(%sp)
 1150      0008 
 340:/home/simulink/cFS_FreeRTOS_seL4/cfe/fsw/cfe-core/src/fs/cfe_fs_decompress.c **** 	gz_window_position = State->window;
 1151               	.loc 1 340 0
 1152 09d2 202F 0010 	move.l 16(%sp),%d0
 1153 09d6 0680 0000 	add.l #51304,%d0
 1153      C868 
 1154 09dc 2F40 0004 	move.l %d0,4(%sp)
68K GAS   			page 29


 341:/home/simulink/cFS_FreeRTOS_seL4/cfe/fsw/cfe-core/src/fs/cfe_fs_decompress.c **** 
 342:/home/simulink/cFS_FreeRTOS_seL4/cfe/fsw/cfe-core/src/fs/cfe_fs_decompress.c **** 	while ( State->Error != CFE_FS_GZIP_WRITE_ERROR  &&
 1155               	.loc 1 342 0
 1156 09e0 601E      	jra .L85
 1157               	.L88:
 343:/home/simulink/cFS_FreeRTOS_seL4/cfe/fsw/cfe-core/src/fs/cfe_fs_decompress.c **** 		    ( n = OS_write(State->dstFile_fd, (int8 *)gz_window_position, cnt) ) != cnt )
 344:/home/simulink/cFS_FreeRTOS_seL4/cfe/fsw/cfe-core/src/fs/cfe_fs_decompress.c **** 	{ 
 345:/home/simulink/cFS_FreeRTOS_seL4/cfe/fsw/cfe-core/src/fs/cfe_fs_decompress.c **** 		if ( n <= 0 ) State->Error = CFE_FS_GZIP_WRITE_ERROR;
 1158               	.loc 1 345 0
 1159 09e2 4A97      	tst.l (%sp)
 1160 09e4 6E0E      	jgt .L86
 1161               	.loc 1 345 0 is_stmt 0 discriminator 1
 1162 09e6 206F 0010 	move.l 16(%sp),%a0
 1163 09ea 203C C600 	move.l #-973078519,%d0
 1163      0009 
 1164 09f0 2140 0024 	move.l %d0,36(%a0)
 1165               	.L86:
 346:/home/simulink/cFS_FreeRTOS_seL4/cfe/fsw/cfe-core/src/fs/cfe_fs_decompress.c **** 		
 347:/home/simulink/cFS_FreeRTOS_seL4/cfe/fsw/cfe-core/src/fs/cfe_fs_decompress.c **** 		cnt -= n;
 1166               	.loc 1 347 0 is_stmt 1
 1167 09f4 2017      	move.l (%sp),%d0
 1168 09f6 91AF 0008 	sub.l %d0,8(%sp)
 348:/home/simulink/cFS_FreeRTOS_seL4/cfe/fsw/cfe-core/src/fs/cfe_fs_decompress.c **** 		gz_window_position += n;
 1169               	.loc 1 348 0
 1170 09fa 2017      	move.l (%sp),%d0
 1171 09fc D1AF 0004 	add.l %d0,4(%sp)
 1172               	.L85:
 342:/home/simulink/cFS_FreeRTOS_seL4/cfe/fsw/cfe-core/src/fs/cfe_fs_decompress.c **** 		    ( n = OS_write(State->dstFile_fd, (int8 *)gz_window_position, cnt) ) != cnt )
 1173               	.loc 1 342 0
 1174 0a00 206F 0010 	move.l 16(%sp),%a0
 1175 0a04 2028 0024 	move.l 36(%a0),%d0
 1176 0a08 0C80 C600 	cmp.l #-973078519,%d0
 1176      0009 
 1177 0a0e 6726      	jeq .L87
 343:/home/simulink/cFS_FreeRTOS_seL4/cfe/fsw/cfe-core/src/fs/cfe_fs_decompress.c **** 	{ 
 1178               	.loc 1 343 0 discriminator 1
 1179 0a10 206F 0010 	move.l 16(%sp),%a0
 1180 0a14 2028 0004 	move.l 4(%a0),%d0
 342:/home/simulink/cFS_FreeRTOS_seL4/cfe/fsw/cfe-core/src/fs/cfe_fs_decompress.c **** 		    ( n = OS_write(State->dstFile_fd, (int8 *)gz_window_position, cnt) ) != cnt )
 1181               	.loc 1 342 0 discriminator 1
 1182 0a18 2F2F 0008 	move.l 8(%sp),-(%sp)
 1183               	.cfi_def_cfa_offset 20
 1184 0a1c 2F2F 0008 	move.l 8(%sp),-(%sp)
 1185               	.cfi_def_cfa_offset 24
 1186 0a20 2F00      	move.l %d0,-(%sp)
 1187               	.cfi_def_cfa_offset 28
 1188 0a22 4EB9 0000 	jsr OS_write
 1188      0000 
 1189 0a28 4FEF 000C 	lea (12,%sp),%sp
 1190               	.cfi_def_cfa_offset 16
 1191 0a2c 2E80      	move.l %d0,(%sp)
 343:/home/simulink/cFS_FreeRTOS_seL4/cfe/fsw/cfe-core/src/fs/cfe_fs_decompress.c **** 	{ 
 1192               	.loc 1 343 0 discriminator 1
 1193 0a2e 2017      	move.l (%sp),%d0
 342:/home/simulink/cFS_FreeRTOS_seL4/cfe/fsw/cfe-core/src/fs/cfe_fs_decompress.c **** 		    ( n = OS_write(State->dstFile_fd, (int8 *)gz_window_position, cnt) ) != cnt )
 1194               	.loc 1 342 0 discriminator 1
 1195 0a30 B0AF 0008 	cmp.l 8(%sp),%d0
68K GAS   			page 30


 1196 0a34 66AC      	jne .L88
 1197               	.L87:
 349:/home/simulink/cFS_FreeRTOS_seL4/cfe/fsw/cfe-core/src/fs/cfe_fs_decompress.c **** 	}
 350:/home/simulink/cFS_FreeRTOS_seL4/cfe/fsw/cfe-core/src/fs/cfe_fs_decompress.c **** 
 351:/home/simulink/cFS_FreeRTOS_seL4/cfe/fsw/cfe-core/src/fs/cfe_fs_decompress.c **** 	State->bytes_out += (uint32)State->outcnt;
 1198               	.loc 1 351 0
 1199 0a36 206F 0010 	move.l 16(%sp),%a0
 1200 0a3a 2028 0020 	move.l 32(%a0),%d0
 1201 0a3e 2200      	move.l %d0,%d1
 1202 0a40 206F 0010 	move.l 16(%sp),%a0
 1203 0a44 2028 0010 	move.l 16(%a0),%d0
 1204 0a48 D081      	add.l %d1,%d0
 1205 0a4a 206F 0010 	move.l 16(%sp),%a0
 1206 0a4e 2140 0020 	move.l %d0,32(%a0)
 352:/home/simulink/cFS_FreeRTOS_seL4/cfe/fsw/cfe-core/src/fs/cfe_fs_decompress.c **** 
 353:/home/simulink/cFS_FreeRTOS_seL4/cfe/fsw/cfe-core/src/fs/cfe_fs_decompress.c **** 	State->outcnt = 0;
 1207               	.loc 1 353 0
 1208 0a52 206F 0010 	move.l 16(%sp),%a0
 1209 0a56 42A8 0010 	clr.l 16(%a0)
 1210 0a5a 6002      	jra .L82
 1211               	.L89:
 335:/home/simulink/cFS_FreeRTOS_seL4/cfe/fsw/cfe-core/src/fs/cfe_fs_decompress.c **** 
 1212               	.loc 1 335 0
 1213 0a5c 4E71      	nop
 1214               	.L82:
 354:/home/simulink/cFS_FreeRTOS_seL4/cfe/fsw/cfe-core/src/fs/cfe_fs_decompress.c **** }
 1215               	.loc 1 354 0
 1216 0a5e 4FEF 000C 	lea (12,%sp),%sp
 1217 0a62 4E75      	rts
 1218               	.cfi_endproc
 1219               	.LFE64:
 1220               	.sizeFS_gz_flush_window_Reentrant, .-FS_gz_flush_window_Reentrant
 1221               	.align2
 1222               	.globlFS_gz_huft_build_Reentrant
 1223               	.typeFS_gz_huft_build_Reentrant, @function
 1224               	FS_gz_huft_build_Reentrant:
 1225               	.LFB65:
 355:/home/simulink/cFS_FreeRTOS_seL4/cfe/fsw/cfe-core/src/fs/cfe_fs_decompress.c **** 
 356:/home/simulink/cFS_FreeRTOS_seL4/cfe/fsw/cfe-core/src/fs/cfe_fs_decompress.c **** 
 357:/home/simulink/cFS_FreeRTOS_seL4/cfe/fsw/cfe-core/src/fs/cfe_fs_decompress.c **** /*  Given a list of code lengths and a maximum table size, make a set of */
 358:/home/simulink/cFS_FreeRTOS_seL4/cfe/fsw/cfe-core/src/fs/cfe_fs_decompress.c **** /*  tables to decode that set of codes.  Return zero on success, one if the */
 359:/home/simulink/cFS_FreeRTOS_seL4/cfe/fsw/cfe-core/src/fs/cfe_fs_decompress.c **** /*  given code set is incomplete (the tables are still built in this case), */
 360:/home/simulink/cFS_FreeRTOS_seL4/cfe/fsw/cfe-core/src/fs/cfe_fs_decompress.c **** /*  two if the input is invalid (all zero length codes or an oversubscribed */
 361:/home/simulink/cFS_FreeRTOS_seL4/cfe/fsw/cfe-core/src/fs/cfe_fs_decompress.c **** /*  set of lengths), and three if not enough memory. */
 362:/home/simulink/cFS_FreeRTOS_seL4/cfe/fsw/cfe-core/src/fs/cfe_fs_decompress.c **** 
 363:/home/simulink/cFS_FreeRTOS_seL4/cfe/fsw/cfe-core/src/fs/cfe_fs_decompress.c **** /*  INPUT:  */
 364:/home/simulink/cFS_FreeRTOS_seL4/cfe/fsw/cfe-core/src/fs/cfe_fs_decompress.c **** /*	uint32    *b;      */             /* code lengths in bits (all assumed <= BMAX) */
 365:/home/simulink/cFS_FreeRTOS_seL4/cfe/fsw/cfe-core/src/fs/cfe_fs_decompress.c **** /*	uint32     n;      */             /* number of codes (assumed <= N_MAX)         */
 366:/home/simulink/cFS_FreeRTOS_seL4/cfe/fsw/cfe-core/src/fs/cfe_fs_decompress.c **** /*	uint32     s;       */            /* number of simple-valued codes (0..s-1)     */
 367:/home/simulink/cFS_FreeRTOS_seL4/cfe/fsw/cfe-core/src/fs/cfe_fs_decompress.c **** /*	uint16    *d;       */            /* list of base values for non-simple codes   */
 368:/home/simulink/cFS_FreeRTOS_seL4/cfe/fsw/cfe-core/src/fs/cfe_fs_decompress.c **** /*	uint16    *e;       */            /* list of extra bits for non-simple codes    */
 369:/home/simulink/cFS_FreeRTOS_seL4/cfe/fsw/cfe-core/src/fs/cfe_fs_decompress.c **** /*	int32     *m;       */            /* maximum lookup bits, returns actual        */
 370:/home/simulink/cFS_FreeRTOS_seL4/cfe/fsw/cfe-core/src/fs/cfe_fs_decompress.c **** 
 371:/home/simulink/cFS_FreeRTOS_seL4/cfe/fsw/cfe-core/src/fs/cfe_fs_decompress.c **** int32 FS_gz_huft_build_Reentrant( CFE_FS_Decompress_State_t *State, uint32 * b, uint32 n, uint32 s,
 372:/home/simulink/cFS_FreeRTOS_seL4/cfe/fsw/cfe-core/src/fs/cfe_fs_decompress.c **** {
 1226               	.loc 1 372 0
 1227               	.cfi_startproc
68K GAS   			page 31


 1228 0a64 4FEF FA64 	lea (-1436,%sp),%sp
 1229               	.cfi_def_cfa_offset 1440
 1230 0a68 48D7 04FC 	movem.l #1276,(%sp)
 1231               	.cfi_offset 2, -1440
 1232               	.cfi_offset 3, -1436
 1233               	.cfi_offset 4, -1432
 1234               	.cfi_offset 5, -1428
 1235               	.cfi_offset 6, -1424
 1236               	.cfi_offset 7, -1420
 1237               	.cfi_offset 10, -1416
 373:/home/simulink/cFS_FreeRTOS_seL4/cfe/fsw/cfe-core/src/fs/cfe_fs_decompress.c **** 
 374:/home/simulink/cFS_FreeRTOS_seL4/cfe/fsw/cfe-core/src/fs/cfe_fs_decompress.c **** 	uint32  a;              /* counter for codes of length k        */
 375:/home/simulink/cFS_FreeRTOS_seL4/cfe/fsw/cfe-core/src/fs/cfe_fs_decompress.c **** 	uint32  c[BMAX + 1];    /* bit length count table               */
 376:/home/simulink/cFS_FreeRTOS_seL4/cfe/fsw/cfe-core/src/fs/cfe_fs_decompress.c **** 	uint32  f;              /* i repeats in table every f entries   */
 377:/home/simulink/cFS_FreeRTOS_seL4/cfe/fsw/cfe-core/src/fs/cfe_fs_decompress.c **** 	int32   g;              /* maximum code length                  */
 378:/home/simulink/cFS_FreeRTOS_seL4/cfe/fsw/cfe-core/src/fs/cfe_fs_decompress.c **** 	int32   h;              /* table level                          */
 379:/home/simulink/cFS_FreeRTOS_seL4/cfe/fsw/cfe-core/src/fs/cfe_fs_decompress.c **** 	register uint32 i;      /* counter, current code                */
 380:/home/simulink/cFS_FreeRTOS_seL4/cfe/fsw/cfe-core/src/fs/cfe_fs_decompress.c **** 	register uint32 j;      /* counter                              */
 381:/home/simulink/cFS_FreeRTOS_seL4/cfe/fsw/cfe-core/src/fs/cfe_fs_decompress.c **** 	register int32  k;      /* number of bits in current code       */
 382:/home/simulink/cFS_FreeRTOS_seL4/cfe/fsw/cfe-core/src/fs/cfe_fs_decompress.c **** 	int32  l;               /* bits per table (returned in m)       */
 383:/home/simulink/cFS_FreeRTOS_seL4/cfe/fsw/cfe-core/src/fs/cfe_fs_decompress.c **** 	uint32 lu;              /* l unsigned                           */
 384:/home/simulink/cFS_FreeRTOS_seL4/cfe/fsw/cfe-core/src/fs/cfe_fs_decompress.c **** 	register uint32 *p;     /* pointer into c[], b[], or v[]        */
 385:/home/simulink/cFS_FreeRTOS_seL4/cfe/fsw/cfe-core/src/fs/cfe_fs_decompress.c **** 	register HufTable *q;   /* points to current table              */
 386:/home/simulink/cFS_FreeRTOS_seL4/cfe/fsw/cfe-core/src/fs/cfe_fs_decompress.c **** 	HufTable r;             /* table entry for structure assignment */
 387:/home/simulink/cFS_FreeRTOS_seL4/cfe/fsw/cfe-core/src/fs/cfe_fs_decompress.c **** 	HufTable *u[BMAX];      /* table stack                          */
 388:/home/simulink/cFS_FreeRTOS_seL4/cfe/fsw/cfe-core/src/fs/cfe_fs_decompress.c **** 	uint32 v[N_MAX];        /* values in order of bit length        */
 389:/home/simulink/cFS_FreeRTOS_seL4/cfe/fsw/cfe-core/src/fs/cfe_fs_decompress.c **** 	register int32 w;       /* bits before this table == (l * h)    */
 390:/home/simulink/cFS_FreeRTOS_seL4/cfe/fsw/cfe-core/src/fs/cfe_fs_decompress.c **** 	uint32 x[BMAX + 1];     /* bit offsets, then code stack         */
 391:/home/simulink/cFS_FreeRTOS_seL4/cfe/fsw/cfe-core/src/fs/cfe_fs_decompress.c **** 	uint32 *xp;             /* pointer into x                       */
 392:/home/simulink/cFS_FreeRTOS_seL4/cfe/fsw/cfe-core/src/fs/cfe_fs_decompress.c **** 	int32 y;                /* number of dummy codes added          */
 393:/home/simulink/cFS_FreeRTOS_seL4/cfe/fsw/cfe-core/src/fs/cfe_fs_decompress.c **** 	uint32 z;               /* number of entries in current table   */
 394:/home/simulink/cFS_FreeRTOS_seL4/cfe/fsw/cfe-core/src/fs/cfe_fs_decompress.c **** 
 395:/home/simulink/cFS_FreeRTOS_seL4/cfe/fsw/cfe-core/src/fs/cfe_fs_decompress.c **** 	uint32 huft_index_q;
 396:/home/simulink/cFS_FreeRTOS_seL4/cfe/fsw/cfe-core/src/fs/cfe_fs_decompress.c **** 	uint32 huft_index_t = 0;
 1238               	.loc 1 396 0
 1239 0a6c 42AF 0578 	clr.l 1400(%sp)
 397:/home/simulink/cFS_FreeRTOS_seL4/cfe/fsw/cfe-core/src/fs/cfe_fs_decompress.c **** 	boolean   not_first_table = FALSE;
 1240               	.loc 1 397 0
 1241 0a70 4200      	clr.b %d0
 1242 0a72 1F40 0577 	move.b %d0,1399(%sp)
 398:/home/simulink/cFS_FreeRTOS_seL4/cfe/fsw/cfe-core/src/fs/cfe_fs_decompress.c **** 	huft_index_t = 0;
 1243               	.loc 1 398 0
 1244 0a76 42AF 0578 	clr.l 1400(%sp)
 399:/home/simulink/cFS_FreeRTOS_seL4/cfe/fsw/cfe-core/src/fs/cfe_fs_decompress.c **** 
 400:/home/simulink/cFS_FreeRTOS_seL4/cfe/fsw/cfe-core/src/fs/cfe_fs_decompress.c **** 	/*  Generate counts for each bit length  */
 401:/home/simulink/cFS_FreeRTOS_seL4/cfe/fsw/cfe-core/src/fs/cfe_fs_decompress.c **** 	CFE_PSP_MemSet( (void*)(c), 0, sizeof(c) );
 1245               	.loc 1 401 0
 1246 0a7a 4878 0044 	pea 68.w
 1247               	.cfi_def_cfa_offset 1444
 1248 0a7e 42A7      	clr.l -(%sp)
 1249               	.cfi_def_cfa_offset 1448
 1250 0a80 200F      	move.l %sp,%d0
 1251 0a82 0680 0000 	add.l #1328,%d0
 1251      0530 
 1252 0a88 2F00      	move.l %d0,-(%sp)
 1253               	.cfi_def_cfa_offset 1452
 1254 0a8a 4EB9 0000 	jsr CFE_PSP_MemSet
68K GAS   			page 32


 1254      0000 
 1255 0a90 4FEF 000C 	lea (12,%sp),%sp
 1256               	.cfi_def_cfa_offset 1440
 402:/home/simulink/cFS_FreeRTOS_seL4/cfe/fsw/cfe-core/src/fs/cfe_fs_decompress.c **** 	r.b=0;
 1257               	.loc 1 402 0
 1258 0a94 4201      	clr.b %d1
 1259 0a96 1F41 0523 	move.b %d1,1315(%sp)
 403:/home/simulink/cFS_FreeRTOS_seL4/cfe/fsw/cfe-core/src/fs/cfe_fs_decompress.c **** 	r.e=0;
 1260               	.loc 1 403 0
 1261 0a9a 4202      	clr.b %d2
 1262 0a9c 1F42 0522 	move.b %d2,1314(%sp)
 404:/home/simulink/cFS_FreeRTOS_seL4/cfe/fsw/cfe-core/src/fs/cfe_fs_decompress.c **** 	r.v.n=0;
 1263               	.loc 1 404 0
 1264 0aa0 4244      	clr.w %d4
 1265 0aa2 3F44 0524 	move.w %d4,1316(%sp)
 405:/home/simulink/cFS_FreeRTOS_seL4/cfe/fsw/cfe-core/src/fs/cfe_fs_decompress.c **** 	r.v.t=0;
 1266               	.loc 1 405 0
 1267 0aa6 4247      	clr.w %d7
 1268 0aa8 3F47 0526 	move.w %d7,1318(%sp)
 406:/home/simulink/cFS_FreeRTOS_seL4/cfe/fsw/cfe-core/src/fs/cfe_fs_decompress.c **** 	p = b;
 1269               	.loc 1 406 0
 1270 0aac 246F 05A4 	move.l 1444(%sp),%a2
 407:/home/simulink/cFS_FreeRTOS_seL4/cfe/fsw/cfe-core/src/fs/cfe_fs_decompress.c **** 	i = n;
 1271               	.loc 1 407 0
 1272 0ab0 262F 05A8 	move.l 1448(%sp),%d3
 1273               	.L91:
 408:/home/simulink/cFS_FreeRTOS_seL4/cfe/fsw/cfe-core/src/fs/cfe_fs_decompress.c **** 	do 
 409:/home/simulink/cFS_FreeRTOS_seL4/cfe/fsw/cfe-core/src/fs/cfe_fs_decompress.c ****    {
 410:/home/simulink/cFS_FreeRTOS_seL4/cfe/fsw/cfe-core/src/fs/cfe_fs_decompress.c **** 		c[*p]++;
 1274               	.loc 1 410 0 discriminator 1
 1275 0ab4 2012      	move.l (%a2),%d0
 1276 0ab6 41EF 0528 	lea (1320,%sp),%a0
 1277 0aba 2230 0C00 	move.l (%a0,%d0.l*4),%d1
 1278 0abe 5281      	addq.l #1,%d1
 1279 0ac0 43EF 0528 	lea (1320,%sp),%a1
 1280 0ac4 2381 0C00 	move.l %d1,(%a1,%d0.l*4)
 411:/home/simulink/cFS_FreeRTOS_seL4/cfe/fsw/cfe-core/src/fs/cfe_fs_decompress.c **** 		p++;
 1281               	.loc 1 411 0 discriminator 1
 1282 0ac8 588A      	addq.l #4,%a2
 412:/home/simulink/cFS_FreeRTOS_seL4/cfe/fsw/cfe-core/src/fs/cfe_fs_decompress.c **** 	} while (--i);
 1283               	.loc 1 412 0 discriminator 1
 1284 0aca 5383      	subq.l #1,%d3
 1285 0acc 4A83      	tst.l %d3
 1286 0ace 66E4      	jne .L91
 413:/home/simulink/cFS_FreeRTOS_seL4/cfe/fsw/cfe-core/src/fs/cfe_fs_decompress.c **** 	
 414:/home/simulink/cFS_FreeRTOS_seL4/cfe/fsw/cfe-core/src/fs/cfe_fs_decompress.c ****    if (c[0] == n) 
 1287               	.loc 1 414 0
 1288 0ad0 202F 0528 	move.l 1320(%sp),%d0
 1289 0ad4 B0AF 05A8 	cmp.l 1448(%sp),%d0
 1290 0ad8 660C      	jne .L92
 415:/home/simulink/cFS_FreeRTOS_seL4/cfe/fsw/cfe-core/src/fs/cfe_fs_decompress.c ****    {			/* null input--all zero length codes */
 416:/home/simulink/cFS_FreeRTOS_seL4/cfe/fsw/cfe-core/src/fs/cfe_fs_decompress.c **** 		*m = 0;
 1291               	.loc 1 416 0
 1292 0ada 206F 05B8 	move.l 1464(%sp),%a0
 1293 0ade 4290      	clr.l (%a0)
 417:/home/simulink/cFS_FreeRTOS_seL4/cfe/fsw/cfe-core/src/fs/cfe_fs_decompress.c **** 		return CFE_SUCCESS;
 1294               	.loc 1 417 0
68K GAS   			page 33


 1295 0ae0 4280      	clr.l %d0
 1296 0ae2 6000 054A 	jra .L141
 1297               	.L92:
 418:/home/simulink/cFS_FreeRTOS_seL4/cfe/fsw/cfe-core/src/fs/cfe_fs_decompress.c **** 	}
 419:/home/simulink/cFS_FreeRTOS_seL4/cfe/fsw/cfe-core/src/fs/cfe_fs_decompress.c **** 
 420:/home/simulink/cFS_FreeRTOS_seL4/cfe/fsw/cfe-core/src/fs/cfe_fs_decompress.c **** 
 421:/home/simulink/cFS_FreeRTOS_seL4/cfe/fsw/cfe-core/src/fs/cfe_fs_decompress.c **** 	/*  Find minimum and maximum length, bound *m by those */
 422:/home/simulink/cFS_FreeRTOS_seL4/cfe/fsw/cfe-core/src/fs/cfe_fs_decompress.c **** 	l = *m;
 1298               	.loc 1 422 0
 1299 0ae6 206F 05B8 	move.l 1464(%sp),%a0
 1300 0aea 2F50 058C 	move.l (%a0),1420(%sp)
 423:/home/simulink/cFS_FreeRTOS_seL4/cfe/fsw/cfe-core/src/fs/cfe_fs_decompress.c **** 	for ( j = 1; j <= BMAX; j++ ) if ( c[j] ) break;
 1301               	.loc 1 423 0
 1302 0aee 7401      	moveq #1,%d2
 1303 0af0 600E      	jra .L94
 1304               	.L97:
 1305               	.loc 1 423 0 is_stmt 0 discriminator 4
 1306 0af2 41EF 0528 	lea (1320,%sp),%a0
 1307 0af6 2030 2C00 	move.l (%a0,%d2.l*4),%d0
 1308 0afa 4A80      	tst.l %d0
 1309 0afc 660A      	jne .L142
 1310               	.loc 1 423 0 discriminator 2
 1311 0afe 5282      	addq.l #1,%d2
 1312               	.L94:
 1313               	.loc 1 423 0 discriminator 3
 1314 0b00 7010      	moveq #16,%d0
 1315 0b02 B082      	cmp.l %d2,%d0
 1316 0b04 64EC      	jcc .L97
 1317 0b06 6002      	jra .L96
 1318               	.L142:
 1319               	.loc 1 423 0
 1320 0b08 4E71      	nop
 1321               	.L96:
 424:/home/simulink/cFS_FreeRTOS_seL4/cfe/fsw/cfe-core/src/fs/cfe_fs_decompress.c **** 	k = j;
 1322               	.loc 1 424 0 is_stmt 1
 1323 0b0a 2A02      	move.l %d2,%d5
 425:/home/simulink/cFS_FreeRTOS_seL4/cfe/fsw/cfe-core/src/fs/cfe_fs_decompress.c **** 	lu = (uint32)l;				   		               /* minimum code length */
 1324               	.loc 1 425 0
 1325 0b0c 2F6F 058C 	move.l 1420(%sp),1416(%sp)
 1325      0588 
 426:/home/simulink/cFS_FreeRTOS_seL4/cfe/fsw/cfe-core/src/fs/cfe_fs_decompress.c **** 	if ( lu < j ) { l = j; lu = (uint32)l; }
 1326               	.loc 1 426 0
 1327 0b12 B4AF 0588 	cmp.l 1416(%sp),%d2
 1328 0b16 630A      	jls .L98
 1329               	.loc 1 426 0 is_stmt 0 discriminator 1
 1330 0b18 2F42 058C 	move.l %d2,1420(%sp)
 1331 0b1c 2F6F 058C 	move.l 1420(%sp),1416(%sp)
 1331      0588 
 1332               	.L98:
 427:/home/simulink/cFS_FreeRTOS_seL4/cfe/fsw/cfe-core/src/fs/cfe_fs_decompress.c **** 	for ( i = BMAX; i; i-- ) if (c[i]) break;
 1333               	.loc 1 427 0 is_stmt 1
 1334 0b22 7610      	moveq #16,%d3
 1335 0b24 600E      	jra .L99
 1336               	.L102:
 1337               	.loc 1 427 0 is_stmt 0 discriminator 4
 1338 0b26 41EF 0528 	lea (1320,%sp),%a0
 1339 0b2a 2030 3C00 	move.l (%a0,%d3.l*4),%d0
68K GAS   			page 34


 1340 0b2e 4A80      	tst.l %d0
 1341 0b30 6608      	jne .L143
 1342               	.loc 1 427 0 discriminator 2
 1343 0b32 5383      	subq.l #1,%d3
 1344               	.L99:
 1345               	.loc 1 427 0 discriminator 3
 1346 0b34 4A83      	tst.l %d3
 1347 0b36 66EE      	jne .L102
 1348 0b38 6002      	jra .L101
 1349               	.L143:
 1350               	.loc 1 427 0
 1351 0b3a 4E71      	nop
 1352               	.L101:
 428:/home/simulink/cFS_FreeRTOS_seL4/cfe/fsw/cfe-core/src/fs/cfe_fs_decompress.c **** 	g = i;						                       /* maximum code length */
 1353               	.loc 1 428 0 is_stmt 1
 1354 0b3c 2F43 0570 	move.l %d3,1392(%sp)
 429:/home/simulink/cFS_FreeRTOS_seL4/cfe/fsw/cfe-core/src/fs/cfe_fs_decompress.c **** 	if ( lu > i ) { l = i; lu = (uint32)l; }
 1355               	.loc 1 429 0
 1356 0b40 B6AF 0588 	cmp.l 1416(%sp),%d3
 1357 0b44 640A      	jcc .L103
 1358               	.loc 1 429 0 is_stmt 0 discriminator 1
 1359 0b46 2F43 058C 	move.l %d3,1420(%sp)
 1360 0b4a 2F6F 058C 	move.l 1420(%sp),1416(%sp)
 1360      0588 
 1361               	.L103:
 430:/home/simulink/cFS_FreeRTOS_seL4/cfe/fsw/cfe-core/src/fs/cfe_fs_decompress.c **** 	*m = l;
 1362               	.loc 1 430 0 is_stmt 1
 1363 0b50 206F 05B8 	move.l 1464(%sp),%a0
 1364 0b54 20AF 058C 	move.l 1420(%sp),(%a0)
 431:/home/simulink/cFS_FreeRTOS_seL4/cfe/fsw/cfe-core/src/fs/cfe_fs_decompress.c **** 
 432:/home/simulink/cFS_FreeRTOS_seL4/cfe/fsw/cfe-core/src/fs/cfe_fs_decompress.c **** 
 433:/home/simulink/cFS_FreeRTOS_seL4/cfe/fsw/cfe-core/src/fs/cfe_fs_decompress.c **** 	/*  Adjust last length count to fill out codes, if needed */
 434:/home/simulink/cFS_FreeRTOS_seL4/cfe/fsw/cfe-core/src/fs/cfe_fs_decompress.c **** 	for ( y = 1 << j; j < i; j++, y <<= 1 )
 1365               	.loc 1 434 0
 1366 0b58 7001      	moveq #1,%d0
 1367 0b5a E5A8      	lsl.l %d2,%d0
 1368 0b5c 2F40 0580 	move.l %d0,1408(%sp)
 1369 0b60 6032      	jra .L104
 1370               	.L106:
 435:/home/simulink/cFS_FreeRTOS_seL4/cfe/fsw/cfe-core/src/fs/cfe_fs_decompress.c **** 	if ( ( y -= c[j] ) < 0 )  return CFE_FS_GZIP_BAD_CODE_BLOCK;    /* bad input: more codes than bits
 1371               	.loc 1 435 0
 1372 0b62 222F 0580 	move.l 1408(%sp),%d1
 1373 0b66 43EF 0528 	lea (1320,%sp),%a1
 1374 0b6a 2031 2C00 	move.l (%a1,%d2.l*4),%d0
 1375 0b6e 2801      	move.l %d1,%d4
 1376 0b70 9880      	sub.l %d0,%d4
 1377 0b72 2004      	move.l %d4,%d0
 1378 0b74 2F40 0580 	move.l %d0,1408(%sp)
 1379 0b78 4AAF 0580 	tst.l 1408(%sp)
 1380 0b7c 6C0A      	jge .L105
 1381               	.loc 1 435 0 is_stmt 0 discriminator 1
 1382 0b7e 203C C600 	move.l #-973078523,%d0
 1382      0005 
 1383 0b84 6000 04A8 	jra .L141
 1384               	.L105:
 434:/home/simulink/cFS_FreeRTOS_seL4/cfe/fsw/cfe-core/src/fs/cfe_fs_decompress.c **** 	if ( ( y -= c[j] ) < 0 )  return CFE_FS_GZIP_BAD_CODE_BLOCK;    /* bad input: more codes than bits
 1385               	.loc 1 434 0 is_stmt 1 discriminator 2
68K GAS   			page 35


 1386 0b88 5282      	addq.l #1,%d2
 1387 0b8a 202F 0580 	move.l 1408(%sp),%d0
 1388 0b8e D080      	add.l %d0,%d0
 1389 0b90 2F40 0580 	move.l %d0,1408(%sp)
 1390               	.L104:
 434:/home/simulink/cFS_FreeRTOS_seL4/cfe/fsw/cfe-core/src/fs/cfe_fs_decompress.c **** 	if ( ( y -= c[j] ) < 0 )  return CFE_FS_GZIP_BAD_CODE_BLOCK;    /* bad input: more codes than bits
 1391               	.loc 1 434 0 is_stmt 0 discriminator 1
 1392 0b94 B682      	cmp.l %d2,%d3
 1393 0b96 62CA      	jhi .L106
 436:/home/simulink/cFS_FreeRTOS_seL4/cfe/fsw/cfe-core/src/fs/cfe_fs_decompress.c **** 	if ( (y -= c[i] ) < 0 )  return CFE_FS_GZIP_BAD_CODE_BLOCK;
 1394               	.loc 1 436 0 is_stmt 1
 1395 0b98 222F 0580 	move.l 1408(%sp),%d1
 1396 0b9c 41EF 0528 	lea (1320,%sp),%a0
 1397 0ba0 2030 3C00 	move.l (%a0,%d3.l*4),%d0
 1398 0ba4 2401      	move.l %d1,%d2
 1399 0ba6 9480      	sub.l %d0,%d2
 1400 0ba8 2002      	move.l %d2,%d0
 1401 0baa 2F40 0580 	move.l %d0,1408(%sp)
 1402 0bae 4AAF 0580 	tst.l 1408(%sp)
 1403 0bb2 6C0A      	jge .L107
 1404               	.loc 1 436 0 is_stmt 0 discriminator 1
 1405 0bb4 203C C600 	move.l #-973078523,%d0
 1405      0005 
 1406 0bba 6000 0472 	jra .L141
 1407               	.L107:
 437:/home/simulink/cFS_FreeRTOS_seL4/cfe/fsw/cfe-core/src/fs/cfe_fs_decompress.c **** 	c[i] += y;
 1408               	.loc 1 437 0 is_stmt 1
 1409 0bbe 41EF 0528 	lea (1320,%sp),%a0
 1410 0bc2 2230 3C00 	move.l (%a0,%d3.l*4),%d1
 1411 0bc6 202F 0580 	move.l 1408(%sp),%d0
 1412 0bca D081      	add.l %d1,%d0
 1413 0bcc 43EF 0528 	lea (1320,%sp),%a1
 1414 0bd0 2380 3C00 	move.l %d0,(%a1,%d3.l*4)
 438:/home/simulink/cFS_FreeRTOS_seL4/cfe/fsw/cfe-core/src/fs/cfe_fs_decompress.c **** 
 439:/home/simulink/cFS_FreeRTOS_seL4/cfe/fsw/cfe-core/src/fs/cfe_fs_decompress.c **** 
 440:/home/simulink/cFS_FreeRTOS_seL4/cfe/fsw/cfe-core/src/fs/cfe_fs_decompress.c **** 	/*  Generate starting offsets into the value table for each length */
 441:/home/simulink/cFS_FreeRTOS_seL4/cfe/fsw/cfe-core/src/fs/cfe_fs_decompress.c **** 	x[1] = j = 0;
 1415               	.loc 1 441 0
 1416 0bd4 4282      	clr.l %d2
 1417 0bd6 2F42 0020 	move.l %d2,32(%sp)
 442:/home/simulink/cFS_FreeRTOS_seL4/cfe/fsw/cfe-core/src/fs/cfe_fs_decompress.c **** 	p = c + 1;
 1418               	.loc 1 442 0
 1419 0bda 45EF 0528 	lea (1320,%sp),%a2
 1420 0bde 588A      	addq.l #4,%a2
 443:/home/simulink/cFS_FreeRTOS_seL4/cfe/fsw/cfe-core/src/fs/cfe_fs_decompress.c **** 	xp = x + 2;
 1421               	.loc 1 443 0
 1422 0be0 200F      	move.l %sp,%d0
 1423 0be2 0680 0000 	add.l #28,%d0
 1423      001C 
 1424 0be8 2200      	move.l %d0,%d1
 1425 0bea 5081      	addq.l #8,%d1
 1426 0bec 2F41 0584 	move.l %d1,1412(%sp)
 444:/home/simulink/cFS_FreeRTOS_seL4/cfe/fsw/cfe-core/src/fs/cfe_fs_decompress.c **** 	while (--i) {					/* note that i == g from above */
 1427               	.loc 1 444 0
 1428 0bf0 6018      	jra .L108
 1429               	.L109:
 445:/home/simulink/cFS_FreeRTOS_seL4/cfe/fsw/cfe-core/src/fs/cfe_fs_decompress.c **** 		j += *p++;
68K GAS   			page 36


 1430               	.loc 1 445 0
 1431 0bf2 204A      	move.l %a2,%a0
 1432 0bf4 45E8 0004 	lea (4,%a0),%a2
 1433 0bf8 2010      	move.l (%a0),%d0
 1434 0bfa D480      	add.l %d0,%d2
 446:/home/simulink/cFS_FreeRTOS_seL4/cfe/fsw/cfe-core/src/fs/cfe_fs_decompress.c **** 		*xp++ = j;
 1435               	.loc 1 446 0
 1436 0bfc 206F 0584 	move.l 1412(%sp),%a0
 1437 0c00 2808      	move.l %a0,%d4
 1438 0c02 5884      	addq.l #4,%d4
 1439 0c04 2F44 0584 	move.l %d4,1412(%sp)
 1440 0c08 2082      	move.l %d2,(%a0)
 1441               	.L108:
 444:/home/simulink/cFS_FreeRTOS_seL4/cfe/fsw/cfe-core/src/fs/cfe_fs_decompress.c **** 	while (--i) {					/* note that i == g from above */
 1442               	.loc 1 444 0
 1443 0c0a 5383      	subq.l #1,%d3
 1444 0c0c 4A83      	tst.l %d3
 1445 0c0e 66E2      	jne .L109
 447:/home/simulink/cFS_FreeRTOS_seL4/cfe/fsw/cfe-core/src/fs/cfe_fs_decompress.c **** 	}
 448:/home/simulink/cFS_FreeRTOS_seL4/cfe/fsw/cfe-core/src/fs/cfe_fs_decompress.c **** 
 449:/home/simulink/cFS_FreeRTOS_seL4/cfe/fsw/cfe-core/src/fs/cfe_fs_decompress.c **** 
 450:/home/simulink/cFS_FreeRTOS_seL4/cfe/fsw/cfe-core/src/fs/cfe_fs_decompress.c **** 	/*  Make a table of values in order of bit lengths */
 451:/home/simulink/cFS_FreeRTOS_seL4/cfe/fsw/cfe-core/src/fs/cfe_fs_decompress.c **** 	p = b;
 1446               	.loc 1 451 0
 1447 0c10 246F 05A4 	move.l 1444(%sp),%a2
 452:/home/simulink/cFS_FreeRTOS_seL4/cfe/fsw/cfe-core/src/fs/cfe_fs_decompress.c **** 	i = 0;
 1448               	.loc 1 452 0
 1449 0c14 4283      	clr.l %d3
 1450               	.L111:
 453:/home/simulink/cFS_FreeRTOS_seL4/cfe/fsw/cfe-core/src/fs/cfe_fs_decompress.c **** 	do {
 454:/home/simulink/cFS_FreeRTOS_seL4/cfe/fsw/cfe-core/src/fs/cfe_fs_decompress.c **** 		if ( (j = *p++) != 0 ) v[x[j]++] = i;
 1451               	.loc 1 454 0
 1452 0c16 204A      	move.l %a2,%a0
 1453 0c18 45E8 0004 	lea (4,%a0),%a2
 1454 0c1c 2410      	move.l (%a0),%d2
 1455 0c1e 4A82      	tst.l %d2
 1456 0c20 673C      	jeq .L110
 1457               	.loc 1 454 0 is_stmt 0 discriminator 1
 1458 0c22 2002      	move.l %d2,%d0
 1459 0c24 E588      	lsl.l #2,%d0
 1460 0c26 2E3C 0000 	move.l #1436,%d7
 1460      059C 
 1461 0c2c DE8F      	add.l %sp,%d7
 1462 0c2e D087      	add.l %d7,%d0
 1463 0c30 2040      	move.l %d0,%a0
 1464 0c32 2228 FA80 	move.l -1408(%a0),%d1
 1465 0c36 2041      	move.l %d1,%a0
 1466 0c38 5288      	addq.l #1,%a0
 1467 0c3a 2002      	move.l %d2,%d0
 1468 0c3c E588      	lsl.l #2,%d0
 1469 0c3e 43EF 059C 	lea (1436,%sp),%a1
 1470 0c42 D089      	add.l %a1,%d0
 1471 0c44 2240      	move.l %d0,%a1
 1472 0c46 2348 FA80 	move.l %a0,-1408(%a1)
 1473 0c4a 2001      	move.l %d1,%d0
 1474 0c4c E588      	lsl.l #2,%d0
 1475 0c4e 223C 0000 	move.l #1436,%d1
68K GAS   			page 37


 1475      059C 
 1476 0c54 D28F      	add.l %sp,%d1
 1477 0c56 D081      	add.l %d1,%d0
 1478 0c58 2040      	move.l %d0,%a0
 1479 0c5a 2143 FAC4 	move.l %d3,-1340(%a0)
 1480               	.L110:
 455:/home/simulink/cFS_FreeRTOS_seL4/cfe/fsw/cfe-core/src/fs/cfe_fs_decompress.c **** 	} while ( ++i < n );
 1481               	.loc 1 455 0 is_stmt 1
 1482 0c5e 5283      	addq.l #1,%d3
 1483 0c60 B6AF 05A8 	cmp.l 1448(%sp),%d3
 1484 0c64 65B0      	jcs .L111
 456:/home/simulink/cFS_FreeRTOS_seL4/cfe/fsw/cfe-core/src/fs/cfe_fs_decompress.c **** 
 457:/home/simulink/cFS_FreeRTOS_seL4/cfe/fsw/cfe-core/src/fs/cfe_fs_decompress.c **** 
 458:/home/simulink/cFS_FreeRTOS_seL4/cfe/fsw/cfe-core/src/fs/cfe_fs_decompress.c **** 	/*  Generate the Huffman codes and for each, make the table entries  */
 459:/home/simulink/cFS_FreeRTOS_seL4/cfe/fsw/cfe-core/src/fs/cfe_fs_decompress.c **** 	x[0] = i = 0;				  /* first Huffman code is zero   */
 1485               	.loc 1 459 0
 1486 0c66 4283      	clr.l %d3
 1487 0c68 2F43 001C 	move.l %d3,28(%sp)
 460:/home/simulink/cFS_FreeRTOS_seL4/cfe/fsw/cfe-core/src/fs/cfe_fs_decompress.c **** 	p = v;						  /* grab values in bit order     */
 1488               	.loc 1 460 0
 1489 0c6c 45EF 0060 	lea (96,%sp),%a2
 461:/home/simulink/cFS_FreeRTOS_seL4/cfe/fsw/cfe-core/src/fs/cfe_fs_decompress.c **** 	h = -1;						  /* no tables yet--level -1      */
 1490               	.loc 1 461 0
 1491 0c70 70FF      	moveq #-1,%d0
 1492 0c72 2F40 0590 	move.l %d0,1424(%sp)
 462:/home/simulink/cFS_FreeRTOS_seL4/cfe/fsw/cfe-core/src/fs/cfe_fs_decompress.c **** 	w = -l;						  /* bits decoded == (l * h)      */
 1493               	.loc 1 462 0
 1494 0c76 282F 058C 	move.l 1420(%sp),%d4
 1495 0c7a 4484      	neg.l %d4
 463:/home/simulink/cFS_FreeRTOS_seL4/cfe/fsw/cfe-core/src/fs/cfe_fs_decompress.c **** 	u[0] = (HufTable *)NULL;      /* just to keep compilers happy */
 1496               	.loc 1 463 0
 1497 0c7c 42AF 04E0 	clr.l 1248(%sp)
 464:/home/simulink/cFS_FreeRTOS_seL4/cfe/fsw/cfe-core/src/fs/cfe_fs_decompress.c **** 	q = (HufTable *)NULL;         /* ditto */
 1498               	.loc 1 464 0
 1499 0c80 4286      	clr.l %d6
 465:/home/simulink/cFS_FreeRTOS_seL4/cfe/fsw/cfe-core/src/fs/cfe_fs_decompress.c **** 	z = 0;                        /* ditto */
 1500               	.loc 1 465 0
 1501 0c82 42AF 057C 	clr.l 1404(%sp)
 466:/home/simulink/cFS_FreeRTOS_seL4/cfe/fsw/cfe-core/src/fs/cfe_fs_decompress.c **** 
 467:/home/simulink/cFS_FreeRTOS_seL4/cfe/fsw/cfe-core/src/fs/cfe_fs_decompress.c **** 
 468:/home/simulink/cFS_FreeRTOS_seL4/cfe/fsw/cfe-core/src/fs/cfe_fs_decompress.c **** 	/*  go through the bit lengths (k already is bits in shortest code) */
 469:/home/simulink/cFS_FreeRTOS_seL4/cfe/fsw/cfe-core/src/fs/cfe_fs_decompress.c **** 	for (; k <= g; k++) {
 1502               	.loc 1 469 0
 1503 0c86 6000 0386 	jra .L112
 1504               	.L139:
 470:/home/simulink/cFS_FreeRTOS_seL4/cfe/fsw/cfe-core/src/fs/cfe_fs_decompress.c **** 		a = c[k];
 1505               	.loc 1 470 0
 1506 0c8a 41EF 0528 	lea (1320,%sp),%a0
 1507 0c8e 43F0 5C00 	lea (%a0,%d5.l*4),%a1
 1508 0c92 2F51 0598 	move.l (%a1),1432(%sp)
 471:/home/simulink/cFS_FreeRTOS_seL4/cfe/fsw/cfe-core/src/fs/cfe_fs_decompress.c **** 		while (a--) {
 1509               	.loc 1 471 0
 1510 0c96 6000 0362 	jra .L113
 1511               	.L125:
 472:/home/simulink/cFS_FreeRTOS_seL4/cfe/fsw/cfe-core/src/fs/cfe_fs_decompress.c **** 			
 473:/home/simulink/cFS_FreeRTOS_seL4/cfe/fsw/cfe-core/src/fs/cfe_fs_decompress.c **** 			/*      here i is the Huffman code of length k bits for value *p */
 474:/home/simulink/cFS_FreeRTOS_seL4/cfe/fsw/cfe-core/src/fs/cfe_fs_decompress.c **** 			/*      make tables up to required level */
68K GAS   			page 38


 475:/home/simulink/cFS_FreeRTOS_seL4/cfe/fsw/cfe-core/src/fs/cfe_fs_decompress.c **** 	        while (k > w + l) {
 476:/home/simulink/cFS_FreeRTOS_seL4/cfe/fsw/cfe-core/src/fs/cfe_fs_decompress.c **** 				h++;
 1512               	.loc 1 476 0
 1513 0c9a 52AF 0590 	addq.l #1,1424(%sp)
 477:/home/simulink/cFS_FreeRTOS_seL4/cfe/fsw/cfe-core/src/fs/cfe_fs_decompress.c **** 				w += l;			/* previous table always l bits */
 1514               	.loc 1 477 0
 1515 0c9e D8AF 058C 	add.l 1420(%sp),%d4
 478:/home/simulink/cFS_FreeRTOS_seL4/cfe/fsw/cfe-core/src/fs/cfe_fs_decompress.c **** 				
 479:/home/simulink/cFS_FreeRTOS_seL4/cfe/fsw/cfe-core/src/fs/cfe_fs_decompress.c **** 				/*        compute minimum size table less than or equal to l bits */
 480:/home/simulink/cFS_FreeRTOS_seL4/cfe/fsw/cfe-core/src/fs/cfe_fs_decompress.c **** 				z = g - w;
 1516               	.loc 1 480 0
 1517 0ca2 202F 0570 	move.l 1392(%sp),%d0
 1518 0ca6 9084      	sub.l %d4,%d0
 1519 0ca8 2F40 057C 	move.l %d0,1404(%sp)
 481:/home/simulink/cFS_FreeRTOS_seL4/cfe/fsw/cfe-core/src/fs/cfe_fs_decompress.c **** 				z = ( z > lu ? l : z );                        /* upper limit on table size */
 1520               	.loc 1 481 0
 1521 0cac 202F 0588 	move.l 1416(%sp),%d0
 1522 0cb0 B0AF 057C 	cmp.l 1404(%sp),%d0
 1523 0cb4 6406      	jcc .L115
 1524               	.loc 1 481 0 is_stmt 0 discriminator 1
 1525 0cb6 202F 058C 	move.l 1420(%sp),%d0
 1526 0cba 6004      	jra .L116
 1527               	.L115:
 1528               	.loc 1 481 0 discriminator 2
 1529 0cbc 202F 057C 	move.l 1404(%sp),%d0
 1530               	.L116:
 1531               	.loc 1 481 0 discriminator 4
 1532 0cc0 2F40 057C 	move.l %d0,1404(%sp)
 482:/home/simulink/cFS_FreeRTOS_seL4/cfe/fsw/cfe-core/src/fs/cfe_fs_decompress.c **** 				j = k - w;
 1533               	.loc 1 482 0 is_stmt 1 discriminator 4
 1534 0cc4 2005      	move.l %d5,%d0
 1535 0cc6 9084      	sub.l %d4,%d0
 1536 0cc8 2400      	move.l %d0,%d2
 483:/home/simulink/cFS_FreeRTOS_seL4/cfe/fsw/cfe-core/src/fs/cfe_fs_decompress.c **** 				f = 1<<j;
 1537               	.loc 1 483 0 discriminator 4
 1538 0cca 7001      	moveq #1,%d0
 1539 0ccc E5A8      	lsl.l %d2,%d0
 1540 0cce 2F40 0594 	move.l %d0,1428(%sp)
 484:/home/simulink/cFS_FreeRTOS_seL4/cfe/fsw/cfe-core/src/fs/cfe_fs_decompress.c **** 				if ( f > a + 1 )  {                            /* try a k-w bit table */
 1541               	.loc 1 484 0 discriminator 4
 1542 0cd2 202F 0598 	move.l 1432(%sp),%d0
 1543 0cd6 5280      	addq.l #1,%d0
 1544 0cd8 B0AF 0594 	cmp.l 1428(%sp),%d0
 1545 0cdc 6456      	jcc .L117
 485:/home/simulink/cFS_FreeRTOS_seL4/cfe/fsw/cfe-core/src/fs/cfe_fs_decompress.c **** 					
 486:/home/simulink/cFS_FreeRTOS_seL4/cfe/fsw/cfe-core/src/fs/cfe_fs_decompress.c **** 					/*          too few codes for k-w bit table  */
 487:/home/simulink/cFS_FreeRTOS_seL4/cfe/fsw/cfe-core/src/fs/cfe_fs_decompress.c **** 					f -= a + 1;                         /* deduct codes from patterns left */
 1546               	.loc 1 487 0
 1547 0cde 202F 0594 	move.l 1428(%sp),%d0
 1548 0ce2 90AF 0598 	sub.l 1432(%sp),%d0
 1549 0ce6 2200      	move.l %d0,%d1
 1550 0ce8 5381      	subq.l #1,%d1
 1551 0cea 2F41 0594 	move.l %d1,1428(%sp)
 488:/home/simulink/cFS_FreeRTOS_seL4/cfe/fsw/cfe-core/src/fs/cfe_fs_decompress.c **** 					xp = c + k;
 1552               	.loc 1 488 0
 1553 0cee 2005      	move.l %d5,%d0
 1554 0cf0 E588      	lsl.l #2,%d0
68K GAS   			page 39


 1555 0cf2 220F      	move.l %sp,%d1
 1556 0cf4 0681 0000 	add.l #1320,%d1
 1556      0528 
 1557 0cfa 2E01      	move.l %d1,%d7
 1558 0cfc DE80      	add.l %d0,%d7
 1559 0cfe 2F47 0584 	move.l %d7,1412(%sp)
 489:/home/simulink/cFS_FreeRTOS_seL4/cfe/fsw/cfe-core/src/fs/cfe_fs_decompress.c **** 					while ( ++j < z )  {                /* try smaller tables up to z bits */
 1560               	.loc 1 489 0
 1561 0d02 6024      	jra .L118
 1562               	.L120:
 490:/home/simulink/cFS_FreeRTOS_seL4/cfe/fsw/cfe-core/src/fs/cfe_fs_decompress.c **** 						f <<= 1;
 1563               	.loc 1 490 0
 1564 0d04 202F 0594 	move.l 1428(%sp),%d0
 1565 0d08 D080      	add.l %d0,%d0
 1566 0d0a 2F40 0594 	move.l %d0,1428(%sp)
 491:/home/simulink/cFS_FreeRTOS_seL4/cfe/fsw/cfe-core/src/fs/cfe_fs_decompress.c **** 						if ( f <= *++xp ) break;	        /* enough codes to use up j bits   */
 1567               	.loc 1 491 0
 1568 0d0e 58AF 0584 	addq.l #4,1412(%sp)
 1569 0d12 206F 0584 	move.l 1412(%sp),%a0
 1570 0d16 2010      	move.l (%a0),%d0
 1571 0d18 B0AF 0594 	cmp.l 1428(%sp),%d0
 1572 0d1c 6414      	jcc .L144
 492:/home/simulink/cFS_FreeRTOS_seL4/cfe/fsw/cfe-core/src/fs/cfe_fs_decompress.c **** 						f -= *xp;                         /* else deduct codes from patterns */
 1573               	.loc 1 492 0
 1574 0d1e 206F 0584 	move.l 1412(%sp),%a0
 1575 0d22 2010      	move.l (%a0),%d0
 1576 0d24 91AF 0594 	sub.l %d0,1428(%sp)
 1577               	.L118:
 489:/home/simulink/cFS_FreeRTOS_seL4/cfe/fsw/cfe-core/src/fs/cfe_fs_decompress.c **** 						f <<= 1;
 1578               	.loc 1 489 0
 1579 0d28 5282      	addq.l #1,%d2
 1580 0d2a B4AF 057C 	cmp.l 1404(%sp),%d2
 1581 0d2e 65D4      	jcs .L120
 1582 0d30 6002      	jra .L117
 1583               	.L144:
 491:/home/simulink/cFS_FreeRTOS_seL4/cfe/fsw/cfe-core/src/fs/cfe_fs_decompress.c **** 						if ( f <= *++xp ) break;	        /* enough codes to use up j bits   */
 1584               	.loc 1 491 0
 1585 0d32 4E71      	nop
 1586               	.L117:
 493:/home/simulink/cFS_FreeRTOS_seL4/cfe/fsw/cfe-core/src/fs/cfe_fs_decompress.c **** 					}
 494:/home/simulink/cFS_FreeRTOS_seL4/cfe/fsw/cfe-core/src/fs/cfe_fs_decompress.c **** 					
 495:/home/simulink/cFS_FreeRTOS_seL4/cfe/fsw/cfe-core/src/fs/cfe_fs_decompress.c **** 				}
 496:/home/simulink/cFS_FreeRTOS_seL4/cfe/fsw/cfe-core/src/fs/cfe_fs_decompress.c **** 				z = 1 << j;                           /* table entries for j-bit table   */
 1587               	.loc 1 496 0
 1588 0d34 7001      	moveq #1,%d0
 1589 0d36 E5A8      	lsl.l %d2,%d0
 1590 0d38 2F40 057C 	move.l %d0,1404(%sp)
 497:/home/simulink/cFS_FreeRTOS_seL4/cfe/fsw/cfe-core/src/fs/cfe_fs_decompress.c **** 				
 498:/home/simulink/cFS_FreeRTOS_seL4/cfe/fsw/cfe-core/src/fs/cfe_fs_decompress.c **** 				/*        if space remains in the Huffman table memory array, "allocate" and link in new table 
 499:/home/simulink/cFS_FreeRTOS_seL4/cfe/fsw/cfe-core/src/fs/cfe_fs_decompress.c **** 				if ( State->hufts + (z + 1) > MAX_HUF_TABLES ) return CFE_FS_GZIP_NO_MEMORY;
 1591               	.loc 1 499 0
 1592 0d3c 206F 05A0 	move.l 1440(%sp),%a0
 1593 0d40 203C 0001 	move.l #116840,%d0
 1593      C868 
 1594 0d46 2030 0800 	move.l (%a0,%d0.l),%d0
 1595 0d4a D0AF 057C 	add.l 1404(%sp),%d0
 1596 0d4e 5280      	addq.l #1,%d0
68K GAS   			page 40


 1597 0d50 0C80 0000 	cmp.l #1000,%d0
 1597      03E8 
 1598 0d56 630A      	jls .L121
 1599               	.loc 1 499 0 is_stmt 0 discriminator 1
 1600 0d58 203C C600 	move.l #-973078522,%d0
 1600      0006 
 1601 0d5e 6000 02CE 	jra .L141
 1602               	.L121:
 500:/home/simulink/cFS_FreeRTOS_seL4/cfe/fsw/cfe-core/src/fs/cfe_fs_decompress.c **** 				
 501:/home/simulink/cFS_FreeRTOS_seL4/cfe/fsw/cfe-core/src/fs/cfe_fs_decompress.c **** 				q = &State->hufTable[State->hufts];
 1603               	.loc 1 501 0 is_stmt 1
 1604 0d62 206F 05A0 	move.l 1440(%sp),%a0
 1605 0d66 203C 0001 	move.l #116840,%d0
 1605      C868 
 1606 0d6c 2030 0800 	move.l (%a0,%d0.l),%d0
 1607 0d70 7206      	moveq #6,%d1
 1608 0d72 4C01 0800 	muls.l %d1,%d0
 1609 0d76 0680 0001 	add.l #116848,%d0
 1609      C870 
 1610 0d7c 2C2F 05A0 	move.l 1440(%sp),%d6
 1611 0d80 DC80      	add.l %d0,%d6
 502:/home/simulink/cFS_FreeRTOS_seL4/cfe/fsw/cfe-core/src/fs/cfe_fs_decompress.c **** 				huft_index_q = State->hufts;
 1612               	.loc 1 502 0
 1613 0d82 206F 05A0 	move.l 1440(%sp),%a0
 1614 0d86 203C 0001 	move.l #116840,%d0
 1614      C868 
 1615 0d8c 43F0 0800 	lea (%a0,%d0.l),%a1
 1616 0d90 2F51 056C 	move.l (%a1),1388(%sp)
 503:/home/simulink/cFS_FreeRTOS_seL4/cfe/fsw/cfe-core/src/fs/cfe_fs_decompress.c **** 				State->hufts += z + 1;
 1617               	.loc 1 503 0
 1618 0d94 206F 05A0 	move.l 1440(%sp),%a0
 1619 0d98 203C 0001 	move.l #116840,%d0
 1619      C868 
 1620 0d9e 2030 0800 	move.l (%a0,%d0.l),%d0
 1621 0da2 D0AF 057C 	add.l 1404(%sp),%d0
 1622 0da6 2200      	move.l %d0,%d1
 1623 0da8 5281      	addq.l #1,%d1
 1624 0daa 206F 05A0 	move.l 1440(%sp),%a0
 1625 0dae 203C 0001 	move.l #116840,%d0
 1625      C868 
 1626 0db4 2181 0800 	move.l %d1,(%a0,%d0.l)
 504:/home/simulink/cFS_FreeRTOS_seL4/cfe/fsw/cfe-core/src/fs/cfe_fs_decompress.c **** 				if ( State->hufts > State->max_hufts ) State->max_hufts = State->hufts;
 1627               	.loc 1 504 0
 1628 0db8 206F 05A0 	move.l 1440(%sp),%a0
 1629 0dbc 203C 0001 	move.l #116840,%d0
 1629      C868 
 1630 0dc2 2230 0800 	move.l (%a0,%d0.l),%d1
 1631 0dc6 206F 05A0 	move.l 1440(%sp),%a0
 1632 0dca 203C 0001 	move.l #116844,%d0
 1632      C86C 
 1633 0dd0 2030 0800 	move.l (%a0,%d0.l),%d0
 1634 0dd4 B081      	cmp.l %d1,%d0
 1635 0dd6 641C      	jcc .L122
 1636               	.loc 1 504 0 is_stmt 0 discriminator 1
 1637 0dd8 206F 05A0 	move.l 1440(%sp),%a0
 1638 0ddc 203C 0001 	move.l #116840,%d0
 1638      C868 
68K GAS   			page 41


 1639 0de2 2230 0800 	move.l (%a0,%d0.l),%d1
 1640 0de6 206F 05A0 	move.l 1440(%sp),%a0
 1641 0dea 203C 0001 	move.l #116844,%d0
 1641      C86C 
 1642 0df0 2181 0800 	move.l %d1,(%a0,%d0.l)
 1643               	.L122:
 505:/home/simulink/cFS_FreeRTOS_seL4/cfe/fsw/cfe-core/src/fs/cfe_fs_decompress.c **** 				
 506:/home/simulink/cFS_FreeRTOS_seL4/cfe/fsw/cfe-core/src/fs/cfe_fs_decompress.c **** 				if ( not_first_table ) State->hufTable[huft_index_t].v.t = huft_index_q + 1;
 1644               	.loc 1 506 0 is_stmt 1
 1645 0df4 4A2F 0577 	tst.b 1399(%sp)
 1646 0df8 6726      	jeq .L123
 1647               	.loc 1 506 0 is_stmt 0 discriminator 1
 1648 0dfa 202F 056C 	move.l 1388(%sp),%d0
 1649 0dfe 3000      	move.w %d0,%d0
 1650 0e00 5280      	addq.l #1,%d0
 1651 0e02 3000      	move.w %d0,%d0
 1652 0e04 206F 05A0 	move.l 1440(%sp),%a0
 1653 0e08 222F 0578 	move.l 1400(%sp),%d1
 1654 0e0c 7E06      	moveq #6,%d7
 1655 0e0e 4C07 1800 	muls.l %d7,%d1
 1656 0e12 D288      	add.l %a0,%d1
 1657 0e14 2041      	move.l %d1,%a0
 1658 0e16 D1FC 0001 	add.l #116852,%a0
 1658      C874 
 1659 0e1c 3080      	move.w %d0,(%a0)
 1660 0e1e 6006      	jra .L124
 1661               	.L123:
 507:/home/simulink/cFS_FreeRTOS_seL4/cfe/fsw/cfe-core/src/fs/cfe_fs_decompress.c **** 				else                   not_first_table = TRUE;
 1662               	.loc 1 507 0 is_stmt 1
 1663 0e20 7001      	moveq #1,%d0
 1664 0e22 1F40 0577 	move.b %d0,1399(%sp)
 1665               	.L124:
 508:/home/simulink/cFS_FreeRTOS_seL4/cfe/fsw/cfe-core/src/fs/cfe_fs_decompress.c **** 				
 509:/home/simulink/cFS_FreeRTOS_seL4/cfe/fsw/cfe-core/src/fs/cfe_fs_decompress.c **** 				huft_index_t = huft_index_q;
 1666               	.loc 1 509 0
 1667 0e26 2F6F 056C 	move.l 1388(%sp),1400(%sp)
 1667      0578 
 510:/home/simulink/cFS_FreeRTOS_seL4/cfe/fsw/cfe-core/src/fs/cfe_fs_decompress.c **** 				State->hufTable[huft_index_t].v.t = 0xffff;               /* stand-in for NULL */
 1668               	.loc 1 510 0
 1669 0e2c 222F 05A0 	move.l 1440(%sp),%d1
 1670 0e30 202F 0578 	move.l 1400(%sp),%d0
 1671 0e34 7E06      	moveq #6,%d7
 1672 0e36 4C07 0800 	muls.l %d7,%d0
 1673 0e3a D081      	add.l %d1,%d0
 1674 0e3c 2040      	move.l %d0,%a0
 1675 0e3e D1FC 0001 	add.l #116852,%a0
 1675      C874 
 1676 0e44 30BC FFFF 	move.w #-1,(%a0)
 511:/home/simulink/cFS_FreeRTOS_seL4/cfe/fsw/cfe-core/src/fs/cfe_fs_decompress.c **** 				
 512:/home/simulink/cFS_FreeRTOS_seL4/cfe/fsw/cfe-core/src/fs/cfe_fs_decompress.c **** 				u[h] = ++q;		                        /* table starts after link */
 1677               	.loc 1 512 0
 1678 0e48 5C86      	addq.l #6,%d6
 1679 0e4a 202F 0590 	move.l 1424(%sp),%d0
 1680 0e4e E588      	lsl.l #2,%d0
 1681 0e50 41EF 059C 	lea (1436,%sp),%a0
 1682 0e54 D088      	add.l %a0,%d0
 1683 0e56 2240      	move.l %d0,%a1
68K GAS   			page 42


 1684 0e58 2346 FF44 	move.l %d6,-188(%a1)
 513:/home/simulink/cFS_FreeRTOS_seL4/cfe/fsw/cfe-core/src/fs/cfe_fs_decompress.c **** 				huft_index_q++;
 1685               	.loc 1 513 0
 1686 0e5c 52AF 056C 	addq.l #1,1388(%sp)
 514:/home/simulink/cFS_FreeRTOS_seL4/cfe/fsw/cfe-core/src/fs/cfe_fs_decompress.c **** 				
 515:/home/simulink/cFS_FreeRTOS_seL4/cfe/fsw/cfe-core/src/fs/cfe_fs_decompress.c **** 				/*        connect to last table, if there is one */
 516:/home/simulink/cFS_FreeRTOS_seL4/cfe/fsw/cfe-core/src/fs/cfe_fs_decompress.c **** 				if ( h ) {
 1687               	.loc 1 516 0
 1688 0e60 4AAF 0590 	tst.l 1424(%sp)
 1689 0e64 676A      	jeq .L114
 517:/home/simulink/cFS_FreeRTOS_seL4/cfe/fsw/cfe-core/src/fs/cfe_fs_decompress.c **** 					x[h] = i;                /* save pattern for backing up    */
 1690               	.loc 1 517 0
 1691 0e66 202F 0590 	move.l 1424(%sp),%d0
 1692 0e6a E588      	lsl.l #2,%d0
 1693 0e6c 223C 0000 	move.l #1436,%d1
 1693      059C 
 1694 0e72 D28F      	add.l %sp,%d1
 1695 0e74 D081      	add.l %d1,%d0
 1696 0e76 2040      	move.l %d0,%a0
 1697 0e78 2143 FA80 	move.l %d3,-1408(%a0)
 518:/home/simulink/cFS_FreeRTOS_seL4/cfe/fsw/cfe-core/src/fs/cfe_fs_decompress.c **** 					r.b = (uint8)l;     	  /* bits to dump before this table */
 1698               	.loc 1 518 0
 1699 0e7c 202F 058C 	move.l 1420(%sp),%d0
 1700 0e80 1000      	move.b %d0,%d0
 1701 0e82 1F40 0523 	move.b %d0,1315(%sp)
 519:/home/simulink/cFS_FreeRTOS_seL4/cfe/fsw/cfe-core/src/fs/cfe_fs_decompress.c **** 					r.e = (uint8)(16 + j);	  /* bits in this table             */
 1702               	.loc 1 519 0
 1703 0e86 1002      	move.b %d2,%d0
 1704 0e88 0680 0000 	add.l #16,%d0
 1704      0010 
 1705 0e8e 1000      	move.b %d0,%d0
 1706 0e90 1F40 0522 	move.b %d0,1314(%sp)
 520:/home/simulink/cFS_FreeRTOS_seL4/cfe/fsw/cfe-core/src/fs/cfe_fs_decompress.c **** 					/*             r.t = q;  */               /* pointer to this table          */
 521:/home/simulink/cFS_FreeRTOS_seL4/cfe/fsw/cfe-core/src/fs/cfe_fs_decompress.c **** 					r.v.t = huft_index_q;    /* pointer to this table          */
 1707               	.loc 1 521 0
 1708 0e94 202F 056C 	move.l 1388(%sp),%d0
 1709 0e98 3000      	move.w %d0,%d0
 1710 0e9a 3F40 0526 	move.w %d0,1318(%sp)
 522:/home/simulink/cFS_FreeRTOS_seL4/cfe/fsw/cfe-core/src/fs/cfe_fs_decompress.c **** 					j = i >> (w - l);        /* (get around Turbo C bug)       */
 1711               	.loc 1 522 0
 1712 0e9e 2004      	move.l %d4,%d0
 1713 0ea0 90AF 058C 	sub.l 1420(%sp),%d0
 1714 0ea4 2403      	move.l %d3,%d2
 1715 0ea6 E0AA      	lsr.l %d0,%d2
 523:/home/simulink/cFS_FreeRTOS_seL4/cfe/fsw/cfe-core/src/fs/cfe_fs_decompress.c **** 					u[h - 1][j] = r;         /* connect to last table          */ 
 1716               	.loc 1 523 0
 1717 0ea8 202F 0590 	move.l 1424(%sp),%d0
 1718 0eac 5380      	subq.l #1,%d0
 1719 0eae E588      	lsl.l #2,%d0
 1720 0eb0 43EF 059C 	lea (1436,%sp),%a1
 1721 0eb4 D089      	add.l %a1,%d0
 1722 0eb6 2040      	move.l %d0,%a0
 1723 0eb8 2228 FF44 	move.l -188(%a0),%d1
 1724 0ebc 7006      	moveq #6,%d0
 1725 0ebe 4C02 0800 	muls.l %d2,%d0
 1726 0ec2 2041      	move.l %d1,%a0
 1727 0ec4 D1C0      	add.l %d0,%a0
68K GAS   			page 43


 1728 0ec6 20AF 0522 	move.l 1314(%sp),(%a0)
 1729 0eca 316F 0526 	move.w 1318(%sp),4(%a0)
 1729      0004 
 1730               	.L114:
 475:/home/simulink/cFS_FreeRTOS_seL4/cfe/fsw/cfe-core/src/fs/cfe_fs_decompress.c **** 				h++;
 1731               	.loc 1 475 0
 1732 0ed0 2004      	move.l %d4,%d0
 1733 0ed2 D0AF 058C 	add.l 1420(%sp),%d0
 1734 0ed6 B085      	cmp.l %d5,%d0
 1735 0ed8 6D00 FDC0 	jlt .L125
 524:/home/simulink/cFS_FreeRTOS_seL4/cfe/fsw/cfe-core/src/fs/cfe_fs_decompress.c **** 				}
 525:/home/simulink/cFS_FreeRTOS_seL4/cfe/fsw/cfe-core/src/fs/cfe_fs_decompress.c **** 				
 526:/home/simulink/cFS_FreeRTOS_seL4/cfe/fsw/cfe-core/src/fs/cfe_fs_decompress.c **** 	        }
 527:/home/simulink/cFS_FreeRTOS_seL4/cfe/fsw/cfe-core/src/fs/cfe_fs_decompress.c **** 			
 528:/home/simulink/cFS_FreeRTOS_seL4/cfe/fsw/cfe-core/src/fs/cfe_fs_decompress.c **** 			/*      set up table entry in r */
 529:/home/simulink/cFS_FreeRTOS_seL4/cfe/fsw/cfe-core/src/fs/cfe_fs_decompress.c **** 	        r.b = (uint8)(k - w);
 1736               	.loc 1 529 0
 1737 0edc 1205      	move.b %d5,%d1
 1738 0ede 1004      	move.b %d4,%d0
 1739 0ee0 2401      	move.l %d1,%d2
 1740 0ee2 9480      	sub.l %d0,%d2
 1741 0ee4 2002      	move.l %d2,%d0
 1742 0ee6 1000      	move.b %d0,%d0
 1743 0ee8 1F40 0523 	move.b %d0,1315(%sp)
 530:/home/simulink/cFS_FreeRTOS_seL4/cfe/fsw/cfe-core/src/fs/cfe_fs_decompress.c **** 	        if (p >= v + n) {
 1744               	.loc 1 530 0
 1745 0eec 202F 05A8 	move.l 1448(%sp),%d0
 1746 0ef0 E588      	lsl.l #2,%d0
 1747 0ef2 220F      	move.l %sp,%d1
 1748 0ef4 0681 0000 	add.l #96,%d1
 1748      0060 
 1749 0efa D081      	add.l %d1,%d0
 1750 0efc B08A      	cmp.l %a2,%d0
 1751 0efe 6208      	jhi .L126
 531:/home/simulink/cFS_FreeRTOS_seL4/cfe/fsw/cfe-core/src/fs/cfe_fs_decompress.c **** 				r.e = 99;                             /* out of values--invalid code     */
 1752               	.loc 1 531 0
 1753 0f00 7E63      	moveq #99,%d7
 1754 0f02 1F47 0522 	move.b %d7,1314(%sp)
 1755 0f06 6058      	jra .L127
 1756               	.L126:
 532:/home/simulink/cFS_FreeRTOS_seL4/cfe/fsw/cfe-core/src/fs/cfe_fs_decompress.c **** 	        } else if ( *p < s ) {
 1757               	.loc 1 532 0
 1758 0f08 2012      	move.l (%a2),%d0
 1759 0f0a B0AF 05AC 	cmp.l 1452(%sp),%d0
 1760 0f0e 6420      	jcc .L128
 533:/home/simulink/cFS_FreeRTOS_seL4/cfe/fsw/cfe-core/src/fs/cfe_fs_decompress.c **** 				r.e = (uint8)( *p < 256 ? 16 : 15 );	/* 256 is end-of-block code        */
 1761               	.loc 1 533 0
 1762 0f10 2012      	move.l (%a2),%d0
 1763 0f12 0C80 0000 	cmp.l #255,%d0
 1763      00FF 
 1764 0f18 6204      	jhi .L129
 1765               	.loc 1 533 0 is_stmt 0 discriminator 1
 1766 0f1a 7010      	moveq #16,%d0
 1767 0f1c 6002      	jra .L130
 1768               	.L129:
 1769               	.loc 1 533 0 discriminator 2
 1770 0f1e 700F      	moveq #15,%d0
68K GAS   			page 44


 1771               	.L130:
 1772               	.loc 1 533 0 discriminator 4
 1773 0f20 1F40 0522 	move.b %d0,1314(%sp)
 534:/home/simulink/cFS_FreeRTOS_seL4/cfe/fsw/cfe-core/src/fs/cfe_fs_decompress.c **** 				r.v.n = *p;          	                /* simple code is just the value   */
 1774               	.loc 1 534 0 is_stmt 1 discriminator 4
 1775 0f24 2012      	move.l (%a2),%d0
 1776 0f26 3000      	move.w %d0,%d0
 1777 0f28 3F40 0524 	move.w %d0,1316(%sp)
 535:/home/simulink/cFS_FreeRTOS_seL4/cfe/fsw/cfe-core/src/fs/cfe_fs_decompress.c **** 				p++;                                  /* one compiler does not like *p++ */
 1778               	.loc 1 535 0 discriminator 4
 1779 0f2c 588A      	addq.l #4,%a2
 1780 0f2e 6030      	jra .L127
 1781               	.L128:
 536:/home/simulink/cFS_FreeRTOS_seL4/cfe/fsw/cfe-core/src/fs/cfe_fs_decompress.c **** 	        } else {
 537:/home/simulink/cFS_FreeRTOS_seL4/cfe/fsw/cfe-core/src/fs/cfe_fs_decompress.c **** 				r.e = (uint8)( e[*p - s] );           /* non-simple--look up in lists */
 1782               	.loc 1 537 0
 1783 0f30 2012      	move.l (%a2),%d0
 1784 0f32 90AF 05AC 	sub.l 1452(%sp),%d0
 1785 0f36 D080      	add.l %d0,%d0
 1786 0f38 206F 05B4 	move.l 1460(%sp),%a0
 1787 0f3c D1C0      	add.l %d0,%a0
 1788 0f3e 3010      	move.w (%a0),%d0
 1789 0f40 1000      	move.b %d0,%d0
 1790 0f42 1F40 0522 	move.b %d0,1314(%sp)
 538:/home/simulink/cFS_FreeRTOS_seL4/cfe/fsw/cfe-core/src/fs/cfe_fs_decompress.c **** 				r.v.n = d[*p++ - s];
 1791               	.loc 1 538 0
 1792 0f46 204A      	move.l %a2,%a0
 1793 0f48 45E8 0004 	lea (4,%a0),%a2
 1794 0f4c 2010      	move.l (%a0),%d0
 1795 0f4e 90AF 05AC 	sub.l 1452(%sp),%d0
 1796 0f52 D080      	add.l %d0,%d0
 1797 0f54 206F 05B0 	move.l 1456(%sp),%a0
 1798 0f58 D1C0      	add.l %d0,%a0
 1799 0f5a 3010      	move.w (%a0),%d0
 1800 0f5c 3F40 0524 	move.w %d0,1316(%sp)
 1801               	.L127:
 539:/home/simulink/cFS_FreeRTOS_seL4/cfe/fsw/cfe-core/src/fs/cfe_fs_decompress.c **** 	        }
 540:/home/simulink/cFS_FreeRTOS_seL4/cfe/fsw/cfe-core/src/fs/cfe_fs_decompress.c **** 			
 541:/home/simulink/cFS_FreeRTOS_seL4/cfe/fsw/cfe-core/src/fs/cfe_fs_decompress.c **** 			/*      fill code-like entries with r */
 542:/home/simulink/cFS_FreeRTOS_seL4/cfe/fsw/cfe-core/src/fs/cfe_fs_decompress.c **** 	        f = 1 << (k - w);
 1802               	.loc 1 542 0
 1803 0f60 2205      	move.l %d5,%d1
 1804 0f62 9284      	sub.l %d4,%d1
 1805 0f64 7001      	moveq #1,%d0
 1806 0f66 E3A8      	lsl.l %d1,%d0
 1807 0f68 2F40 0594 	move.l %d0,1428(%sp)
 543:/home/simulink/cFS_FreeRTOS_seL4/cfe/fsw/cfe-core/src/fs/cfe_fs_decompress.c **** 			j = i >> w;
 1808               	.loc 1 543 0
 1809 0f6c 2403      	move.l %d3,%d2
 1810 0f6e E8AA      	lsr.l %d4,%d2
 544:/home/simulink/cFS_FreeRTOS_seL4/cfe/fsw/cfe-core/src/fs/cfe_fs_decompress.c **** 
 545:/home/simulink/cFS_FreeRTOS_seL4/cfe/fsw/cfe-core/src/fs/cfe_fs_decompress.c **** 			if( (q == (HufTable *)NULL) && (j < z) )
 1811               	.loc 1 545 0
 1812 0f70 4A86      	tst.l %d6
 1813 0f72 6610      	jne .L131
 1814               	.loc 1 545 0 is_stmt 0 discriminator 1
 1815 0f74 B4AF 057C 	cmp.l 1404(%sp),%d2
68K GAS   			page 45


 1816 0f78 640A      	jcc .L131
 546:/home/simulink/cFS_FreeRTOS_seL4/cfe/fsw/cfe-core/src/fs/cfe_fs_decompress.c **** 			{
 547:/home/simulink/cFS_FreeRTOS_seL4/cfe/fsw/cfe-core/src/fs/cfe_fs_decompress.c **** 				return CFE_FS_GZIP_BAD_CODE_BLOCK;
 1817               	.loc 1 547 0 is_stmt 1
 1818 0f7a 203C C600 	move.l #-973078523,%d0
 1818      0005 
 1819 0f80 6000 00AC 	jra .L141
 1820               	.L131:
 548:/home/simulink/cFS_FreeRTOS_seL4/cfe/fsw/cfe-core/src/fs/cfe_fs_decompress.c **** 			}
 549:/home/simulink/cFS_FreeRTOS_seL4/cfe/fsw/cfe-core/src/fs/cfe_fs_decompress.c **** 			else
 550:/home/simulink/cFS_FreeRTOS_seL4/cfe/fsw/cfe-core/src/fs/cfe_fs_decompress.c **** 			{
 551:/home/simulink/cFS_FreeRTOS_seL4/cfe/fsw/cfe-core/src/fs/cfe_fs_decompress.c **** 	        	for ( j = i >> w; j < z; j += f ) q[j] = r;
 1821               	.loc 1 551 0
 1822 0f84 2403      	move.l %d3,%d2
 1823 0f86 E8AA      	lsr.l %d4,%d2
 1824 0f88 6018      	jra .L132
 1825               	.L133:
 1826               	.loc 1 551 0 is_stmt 0 discriminator 3
 1827 0f8a 7006      	moveq #6,%d0
 1828 0f8c 4C02 0800 	muls.l %d2,%d0
 1829 0f90 2046      	move.l %d6,%a0
 1830 0f92 D1C0      	add.l %d0,%a0
 1831 0f94 20AF 0522 	move.l 1314(%sp),(%a0)
 1832 0f98 316F 0526 	move.w 1318(%sp),4(%a0)
 1832      0004 
 1833 0f9e D4AF 0594 	add.l 1428(%sp),%d2
 1834               	.L132:
 1835               	.loc 1 551 0 discriminator 1
 1836 0fa2 B4AF 057C 	cmp.l 1404(%sp),%d2
 1837 0fa6 65E2      	jcs .L133
 552:/home/simulink/cFS_FreeRTOS_seL4/cfe/fsw/cfe-core/src/fs/cfe_fs_decompress.c **** 			}
 553:/home/simulink/cFS_FreeRTOS_seL4/cfe/fsw/cfe-core/src/fs/cfe_fs_decompress.c **** 			
 554:/home/simulink/cFS_FreeRTOS_seL4/cfe/fsw/cfe-core/src/fs/cfe_fs_decompress.c **** 			/*      backwards increment the k-bit code i */
 555:/home/simulink/cFS_FreeRTOS_seL4/cfe/fsw/cfe-core/src/fs/cfe_fs_decompress.c **** 	        for ( j = 1 << (k - 1); i & j; j >>= 1 ) i ^= j;
 1838               	.loc 1 555 0 is_stmt 1
 1839 0fa8 2005      	move.l %d5,%d0
 1840 0faa 5380      	subq.l #1,%d0
 1841 0fac 7201      	moveq #1,%d1
 1842 0fae 2401      	move.l %d1,%d2
 1843 0fb0 E1AA      	lsl.l %d0,%d2
 1844 0fb2 2002      	move.l %d2,%d0
 1845 0fb4 2400      	move.l %d0,%d2
 1846 0fb6 6004      	jra .L134
 1847               	.L135:
 1848               	.loc 1 555 0 is_stmt 0 discriminator 3
 1849 0fb8 B583      	eor.l %d2,%d3
 1850 0fba E28A      	lsr.l #1,%d2
 1851               	.L134:
 1852               	.loc 1 555 0 discriminator 1
 1853 0fbc 2003      	move.l %d3,%d0
 1854 0fbe C082      	and.l %d2,%d0
 1855 0fc0 4A80      	tst.l %d0
 1856 0fc2 66F4      	jne .L135
 556:/home/simulink/cFS_FreeRTOS_seL4/cfe/fsw/cfe-core/src/fs/cfe_fs_decompress.c **** 	        i ^= j;
 1857               	.loc 1 556 0 is_stmt 1
 1858 0fc4 B583      	eor.l %d2,%d3
 557:/home/simulink/cFS_FreeRTOS_seL4/cfe/fsw/cfe-core/src/fs/cfe_fs_decompress.c **** 			
68K GAS   			page 46


 558:/home/simulink/cFS_FreeRTOS_seL4/cfe/fsw/cfe-core/src/fs/cfe_fs_decompress.c **** 			/*      backup over finished tables */
 559:/home/simulink/cFS_FreeRTOS_seL4/cfe/fsw/cfe-core/src/fs/cfe_fs_decompress.c **** 	        while (( h >= 0 ) && ( ( i & ((1 << w) - 1) ) != x[h] )) {
 1859               	.loc 1 559 0
 1860 0fc6 6008      	jra .L136
 1861               	.L137:
 560:/home/simulink/cFS_FreeRTOS_seL4/cfe/fsw/cfe-core/src/fs/cfe_fs_decompress.c **** 				h--;                                       /* don't need to update q */
 1862               	.loc 1 560 0
 1863 0fc8 53AF 0590 	subq.l #1,1424(%sp)
 561:/home/simulink/cFS_FreeRTOS_seL4/cfe/fsw/cfe-core/src/fs/cfe_fs_decompress.c **** 				w -= l;
 1864               	.loc 1 561 0
 1865 0fcc 98AF 058C 	sub.l 1420(%sp),%d4
 1866               	.L136:
 559:/home/simulink/cFS_FreeRTOS_seL4/cfe/fsw/cfe-core/src/fs/cfe_fs_decompress.c **** 				h--;                                       /* don't need to update q */
 1867               	.loc 1 559 0
 1868 0fd0 4AAF 0590 	tst.l 1424(%sp)
 1869 0fd4 6D24      	jlt .L113
 559:/home/simulink/cFS_FreeRTOS_seL4/cfe/fsw/cfe-core/src/fs/cfe_fs_decompress.c **** 				h--;                                       /* don't need to update q */
 1870               	.loc 1 559 0 is_stmt 0 discriminator 1
 1871 0fd6 7001      	moveq #1,%d0
 1872 0fd8 E9A8      	lsl.l %d4,%d0
 1873 0fda 5380      	subq.l #1,%d0
 1874 0fdc 2203      	move.l %d3,%d1
 1875 0fde C280      	and.l %d0,%d1
 1876 0fe0 202F 0590 	move.l 1424(%sp),%d0
 1877 0fe4 E588      	lsl.l #2,%d0
 1878 0fe6 2E3C 0000 	move.l #1436,%d7
 1878      059C 
 1879 0fec DE8F      	add.l %sp,%d7
 1880 0fee D087      	add.l %d7,%d0
 1881 0ff0 2040      	move.l %d0,%a0
 1882 0ff2 2028 FA80 	move.l -1408(%a0),%d0
 1883 0ff6 B081      	cmp.l %d1,%d0
 1884 0ff8 66CE      	jne .L137
 1885               	.L113:
 471:/home/simulink/cFS_FreeRTOS_seL4/cfe/fsw/cfe-core/src/fs/cfe_fs_decompress.c **** 			
 1886               	.loc 1 471 0 is_stmt 1
 1887 0ffa 202F 0598 	move.l 1432(%sp),%d0
 1888 0ffe 2240      	move.l %d0,%a1
 1889 1000 5389      	subq.l #1,%a1
 1890 1002 2F49 0598 	move.l %a1,1432(%sp)
 1891 1006 4A80      	tst.l %d0
 1892 1008 6600 FEC6 	jne .L114
 469:/home/simulink/cFS_FreeRTOS_seL4/cfe/fsw/cfe-core/src/fs/cfe_fs_decompress.c **** 		a = c[k];
 1893               	.loc 1 469 0
 1894 100c 5285      	addq.l #1,%d5
 1895               	.L112:
 469:/home/simulink/cFS_FreeRTOS_seL4/cfe/fsw/cfe-core/src/fs/cfe_fs_decompress.c **** 		a = c[k];
 1896               	.loc 1 469 0 is_stmt 0 discriminator 1
 1897 100e BAAF 0570 	cmp.l 1392(%sp),%d5
 1898 1012 6F00 FC76 	jle .L139
 562:/home/simulink/cFS_FreeRTOS_seL4/cfe/fsw/cfe-core/src/fs/cfe_fs_decompress.c **** 	        }
 563:/home/simulink/cFS_FreeRTOS_seL4/cfe/fsw/cfe-core/src/fs/cfe_fs_decompress.c **** 			
 564:/home/simulink/cFS_FreeRTOS_seL4/cfe/fsw/cfe-core/src/fs/cfe_fs_decompress.c **** 		}
 565:/home/simulink/cFS_FreeRTOS_seL4/cfe/fsw/cfe-core/src/fs/cfe_fs_decompress.c **** 		
 566:/home/simulink/cFS_FreeRTOS_seL4/cfe/fsw/cfe-core/src/fs/cfe_fs_decompress.c **** 	}
 567:/home/simulink/cFS_FreeRTOS_seL4/cfe/fsw/cfe-core/src/fs/cfe_fs_decompress.c **** 
 568:/home/simulink/cFS_FreeRTOS_seL4/cfe/fsw/cfe-core/src/fs/cfe_fs_decompress.c **** 	/*  Return true (1) if we were given an incomplete table  */
68K GAS   			page 47


 569:/home/simulink/cFS_FreeRTOS_seL4/cfe/fsw/cfe-core/src/fs/cfe_fs_decompress.c **** 	if((y != 0 && g != 1))
 1899               	.loc 1 569 0 is_stmt 1
 1900 1016 4AAF 0580 	tst.l 1408(%sp)
 1901 101a 6710      	jeq .L140
 1902               	.loc 1 569 0 is_stmt 0 discriminator 1
 1903 101c 7001      	moveq #1,%d0
 1904 101e B0AF 0570 	cmp.l 1392(%sp),%d0
 1905 1022 6708      	jeq .L140
 570:/home/simulink/cFS_FreeRTOS_seL4/cfe/fsw/cfe-core/src/fs/cfe_fs_decompress.c **** 	{
 571:/home/simulink/cFS_FreeRTOS_seL4/cfe/fsw/cfe-core/src/fs/cfe_fs_decompress.c **** 		return CFE_FS_GZIP_BAD_DATA;
 1906               	.loc 1 571 0 is_stmt 1
 1907 1024 203C C600 	move.l #-973078524,%d0
 1907      0004 
 1908 102a 6002      	jra .L141
 1909               	.L140:
 572:/home/simulink/cFS_FreeRTOS_seL4/cfe/fsw/cfe-core/src/fs/cfe_fs_decompress.c **** 	}
 573:/home/simulink/cFS_FreeRTOS_seL4/cfe/fsw/cfe-core/src/fs/cfe_fs_decompress.c **** 
 574:/home/simulink/cFS_FreeRTOS_seL4/cfe/fsw/cfe-core/src/fs/cfe_fs_decompress.c **** 	return CFE_SUCCESS;
 1910               	.loc 1 574 0
 1911 102c 4280      	clr.l %d0
 1912               	.L141:
 575:/home/simulink/cFS_FreeRTOS_seL4/cfe/fsw/cfe-core/src/fs/cfe_fs_decompress.c **** 
 576:/home/simulink/cFS_FreeRTOS_seL4/cfe/fsw/cfe-core/src/fs/cfe_fs_decompress.c **** }
 1913               	.loc 1 576 0 discriminator 1
 1914 102e 4CD7 04FC 	movem.l (%sp),#1276
 1915 1032 4FEF 059C 	lea (1436,%sp),%sp
 1916 1036 4E75      	rts
 1917               	.cfi_endproc
 1918               	.LFE65:
 1919               	.sizeFS_gz_huft_build_Reentrant, .-FS_gz_huft_build_Reentrant
 1920               	.align2
 1921               	.globlFS_gz_inflate_Reentrant
 1922               	.typeFS_gz_inflate_Reentrant, @function
 1923               	FS_gz_inflate_Reentrant:
 1924               	.LFB66:
 577:/home/simulink/cFS_FreeRTOS_seL4/cfe/fsw/cfe-core/src/fs/cfe_fs_decompress.c **** 
 578:/home/simulink/cFS_FreeRTOS_seL4/cfe/fsw/cfe-core/src/fs/cfe_fs_decompress.c **** 
 579:/home/simulink/cFS_FreeRTOS_seL4/cfe/fsw/cfe-core/src/fs/cfe_fs_decompress.c **** 
 580:/home/simulink/cFS_FreeRTOS_seL4/cfe/fsw/cfe-core/src/fs/cfe_fs_decompress.c **** int32 FS_gz_inflate_Reentrant( CFE_FS_Decompress_State_t *State )
 581:/home/simulink/cFS_FreeRTOS_seL4/cfe/fsw/cfe-core/src/fs/cfe_fs_decompress.c **** {
 1925               	.loc 1 581 0
 1926               	.cfi_startproc
 1927 1038 518F      	subq.l #8,%sp
 1928               	.cfi_def_cfa_offset 12
 582:/home/simulink/cFS_FreeRTOS_seL4/cfe/fsw/cfe-core/src/fs/cfe_fs_decompress.c **** 
 583:/home/simulink/cFS_FreeRTOS_seL4/cfe/fsw/cfe-core/src/fs/cfe_fs_decompress.c **** 	int32           e;        /* last block flag */
 584:/home/simulink/cFS_FreeRTOS_seL4/cfe/fsw/cfe-core/src/fs/cfe_fs_decompress.c **** 	int32   r;        /* result code     */
 585:/home/simulink/cFS_FreeRTOS_seL4/cfe/fsw/cfe-core/src/fs/cfe_fs_decompress.c **** 
 586:/home/simulink/cFS_FreeRTOS_seL4/cfe/fsw/cfe-core/src/fs/cfe_fs_decompress.c **** 	/*  initialize window, bit buffer */
 587:/home/simulink/cFS_FreeRTOS_seL4/cfe/fsw/cfe-core/src/fs/cfe_fs_decompress.c **** 	State->outcnt = 0;
 1929               	.loc 1 587 0
 1930 103a 206F 000C 	move.l 12(%sp),%a0
 1931 103e 42A8 0010 	clr.l 16(%a0)
 588:/home/simulink/cFS_FreeRTOS_seL4/cfe/fsw/cfe-core/src/fs/cfe_fs_decompress.c **** 	State->bk     = 0;
 1932               	.loc 1 588 0
 1933 1042 206F 000C 	move.l 12(%sp),%a0
 1934 1046 42A8 000C 	clr.l 12(%a0)
68K GAS   			page 48


 589:/home/simulink/cFS_FreeRTOS_seL4/cfe/fsw/cfe-core/src/fs/cfe_fs_decompress.c **** 	State->bb     = 0;
 1935               	.loc 1 589 0
 1936 104a 206F 000C 	move.l 12(%sp),%a0
 1937 104e 42A8 0008 	clr.l 8(%a0)
 1938               	.L148:
 590:/home/simulink/cFS_FreeRTOS_seL4/cfe/fsw/cfe-core/src/fs/cfe_fs_decompress.c **** 
 591:/home/simulink/cFS_FreeRTOS_seL4/cfe/fsw/cfe-core/src/fs/cfe_fs_decompress.c **** 	/*  decompress until the last block */
 592:/home/simulink/cFS_FreeRTOS_seL4/cfe/fsw/cfe-core/src/fs/cfe_fs_decompress.c **** 	do {
 593:/home/simulink/cFS_FreeRTOS_seL4/cfe/fsw/cfe-core/src/fs/cfe_fs_decompress.c **** 		r = FS_gz_inflate_block_Reentrant( State, &e);
 1939               	.loc 1 593 0
 1940 1052 200F      	move.l %sp,%d0
 1941 1054 2F00      	move.l %d0,-(%sp)
 1942               	.cfi_def_cfa_offset 16
 1943 1056 2F2F 0010 	move.l 16(%sp),-(%sp)
 1944               	.cfi_def_cfa_offset 20
 1945 105a 4EB9 0000 	jsr FS_gz_inflate_block_Reentrant
 1945      0000 
 1946 1060 508F      	addq.l #8,%sp
 1947               	.cfi_def_cfa_offset 12
 1948 1062 2F40 0004 	move.l %d0,4(%sp)
 594:/home/simulink/cFS_FreeRTOS_seL4/cfe/fsw/cfe-core/src/fs/cfe_fs_decompress.c **** 		if ( r != CFE_SUCCESS ) return r;
 1949               	.loc 1 594 0
 1950 1066 4AAF 0004 	tst.l 4(%sp)
 1951 106a 6706      	jeq .L146
 1952               	.loc 1 594 0 is_stmt 0 discriminator 1
 1953 106c 202F 0004 	move.l 4(%sp),%d0
 1954 1070 6048      	jra .L151
 1955               	.L146:
 595:/home/simulink/cFS_FreeRTOS_seL4/cfe/fsw/cfe-core/src/fs/cfe_fs_decompress.c **** 	} while (!e);
 1956               	.loc 1 595 0 is_stmt 1
 1957 1072 2017      	move.l (%sp),%d0
 1958 1074 4A80      	tst.l %d0
 1959 1076 67DA      	jeq .L148
 596:/home/simulink/cFS_FreeRTOS_seL4/cfe/fsw/cfe-core/src/fs/cfe_fs_decompress.c **** 
 597:/home/simulink/cFS_FreeRTOS_seL4/cfe/fsw/cfe-core/src/fs/cfe_fs_decompress.c **** 	/*  Undo too much lookahead. The next read will be byte aligned so we can */
 598:/home/simulink/cFS_FreeRTOS_seL4/cfe/fsw/cfe-core/src/fs/cfe_fs_decompress.c **** 	/*  discard unused bits in the last meaningful byte. */
 599:/home/simulink/cFS_FreeRTOS_seL4/cfe/fsw/cfe-core/src/fs/cfe_fs_decompress.c **** 	while ( State->bk >= 8 ) {
 1960               	.loc 1 599 0
 1961 1078 6024      	jra .L149
 1962               	.L150:
 600:/home/simulink/cFS_FreeRTOS_seL4/cfe/fsw/cfe-core/src/fs/cfe_fs_decompress.c **** 		State->bk -= 8;
 1963               	.loc 1 600 0
 1964 107a 206F 000C 	move.l 12(%sp),%a0
 1965 107e 2028 000C 	move.l 12(%a0),%d0
 1966 1082 5180      	subq.l #8,%d0
 1967 1084 206F 000C 	move.l 12(%sp),%a0
 1968 1088 2140 000C 	move.l %d0,12(%a0)
 601:/home/simulink/cFS_FreeRTOS_seL4/cfe/fsw/cfe-core/src/fs/cfe_fs_decompress.c **** 		State->inptr--;
 1969               	.loc 1 601 0
 1970 108c 206F 000C 	move.l 12(%sp),%a0
 1971 1090 2028 0018 	move.l 24(%a0),%d0
 1972 1094 5380      	subq.l #1,%d0
 1973 1096 206F 000C 	move.l 12(%sp),%a0
 1974 109a 2140 0018 	move.l %d0,24(%a0)
 1975               	.L149:
 599:/home/simulink/cFS_FreeRTOS_seL4/cfe/fsw/cfe-core/src/fs/cfe_fs_decompress.c **** 		State->bk -= 8;
 1976               	.loc 1 599 0
68K GAS   			page 49


 1977 109e 206F 000C 	move.l 12(%sp),%a0
 1978 10a2 2028 000C 	move.l 12(%a0),%d0
 1979 10a6 7207      	moveq #7,%d1
 1980 10a8 B280      	cmp.l %d0,%d1
 1981 10aa 65CE      	jcs .L150
 602:/home/simulink/cFS_FreeRTOS_seL4/cfe/fsw/cfe-core/src/fs/cfe_fs_decompress.c **** 	}
 603:/home/simulink/cFS_FreeRTOS_seL4/cfe/fsw/cfe-core/src/fs/cfe_fs_decompress.c **** 
 604:/home/simulink/cFS_FreeRTOS_seL4/cfe/fsw/cfe-core/src/fs/cfe_fs_decompress.c **** 	/*  flush out sliding window */
 605:/home/simulink/cFS_FreeRTOS_seL4/cfe/fsw/cfe-core/src/fs/cfe_fs_decompress.c **** 	FS_gz_flush_window_Reentrant(State);
 1982               	.loc 1 605 0
 1983 10ac 2F2F 000C 	move.l 12(%sp),-(%sp)
 1984               	.cfi_def_cfa_offset 16
 1985 10b0 4EB9 0000 	jsr FS_gz_flush_window_Reentrant
 1985      0000 
 1986 10b6 588F      	addq.l #4,%sp
 1987               	.cfi_def_cfa_offset 12
 606:/home/simulink/cFS_FreeRTOS_seL4/cfe/fsw/cfe-core/src/fs/cfe_fs_decompress.c **** 
 607:/home/simulink/cFS_FreeRTOS_seL4/cfe/fsw/cfe-core/src/fs/cfe_fs_decompress.c **** 	/*  return success */
 608:/home/simulink/cFS_FreeRTOS_seL4/cfe/fsw/cfe-core/src/fs/cfe_fs_decompress.c **** 	return CFE_SUCCESS;
 1988               	.loc 1 608 0
 1989 10b8 4280      	clr.l %d0
 1990               	.L151:
 609:/home/simulink/cFS_FreeRTOS_seL4/cfe/fsw/cfe-core/src/fs/cfe_fs_decompress.c **** 
 610:/home/simulink/cFS_FreeRTOS_seL4/cfe/fsw/cfe-core/src/fs/cfe_fs_decompress.c **** }
 1991               	.loc 1 610 0 discriminator 1
 1992 10ba 508F      	addq.l #8,%sp
 1993 10bc 4E75      	rts
 1994               	.cfi_endproc
 1995               	.LFE66:
 1996               	.sizeFS_gz_inflate_Reentrant, .-FS_gz_inflate_Reentrant
 1997               	.align2
 1998               	.globlFS_gz_inflate_block_Reentrant
 1999               	.typeFS_gz_inflate_block_Reentrant, @function
 2000               	FS_gz_inflate_block_Reentrant:
 2001               	.LFB67:
 611:/home/simulink/cFS_FreeRTOS_seL4/cfe/fsw/cfe-core/src/fs/cfe_fs_decompress.c **** 
 612:/home/simulink/cFS_FreeRTOS_seL4/cfe/fsw/cfe-core/src/fs/cfe_fs_decompress.c **** 
 613:/home/simulink/cFS_FreeRTOS_seL4/cfe/fsw/cfe-core/src/fs/cfe_fs_decompress.c **** /*  
 614:/home/simulink/cFS_FreeRTOS_seL4/cfe/fsw/cfe-core/src/fs/cfe_fs_decompress.c **** ** decompress an inflated block 
 615:/home/simulink/cFS_FreeRTOS_seL4/cfe/fsw/cfe-core/src/fs/cfe_fs_decompress.c **** */
 616:/home/simulink/cFS_FreeRTOS_seL4/cfe/fsw/cfe-core/src/fs/cfe_fs_decompress.c **** int32 FS_gz_inflate_block_Reentrant( CFE_FS_Decompress_State_t *State, int32 * e )
 617:/home/simulink/cFS_FreeRTOS_seL4/cfe/fsw/cfe-core/src/fs/cfe_fs_decompress.c **** {
 2002               	.loc 1 617 0
 2003               	.cfi_startproc
 2004 10be 4FEF FFF0 	lea (-16,%sp),%sp
 2005               	.cfi_def_cfa_offset 20
 618:/home/simulink/cFS_FreeRTOS_seL4/cfe/fsw/cfe-core/src/fs/cfe_fs_decompress.c **** 
 619:/home/simulink/cFS_FreeRTOS_seL4/cfe/fsw/cfe-core/src/fs/cfe_fs_decompress.c **** 	uint32  t;          /* block type */
 620:/home/simulink/cFS_FreeRTOS_seL4/cfe/fsw/cfe-core/src/fs/cfe_fs_decompress.c **** 	uint32  b;          /* bit buffer */
 621:/home/simulink/cFS_FreeRTOS_seL4/cfe/fsw/cfe-core/src/fs/cfe_fs_decompress.c **** 	uint32  k;          /* number of bits in bit buffer */
 622:/home/simulink/cFS_FreeRTOS_seL4/cfe/fsw/cfe-core/src/fs/cfe_fs_decompress.c **** 
 623:/home/simulink/cFS_FreeRTOS_seL4/cfe/fsw/cfe-core/src/fs/cfe_fs_decompress.c **** 	int32 res;
 624:/home/simulink/cFS_FreeRTOS_seL4/cfe/fsw/cfe-core/src/fs/cfe_fs_decompress.c **** 
 625:/home/simulink/cFS_FreeRTOS_seL4/cfe/fsw/cfe-core/src/fs/cfe_fs_decompress.c **** 	/*  make local bit buffer */
 626:/home/simulink/cFS_FreeRTOS_seL4/cfe/fsw/cfe-core/src/fs/cfe_fs_decompress.c **** 	b = State->bb;
 2006               	.loc 1 626 0
 2007 10c2 206F 0014 	move.l 20(%sp),%a0
68K GAS   			page 50


 2008 10c6 2F68 0008 	move.l 8(%a0),12(%sp)
 2008      000C 
 627:/home/simulink/cFS_FreeRTOS_seL4/cfe/fsw/cfe-core/src/fs/cfe_fs_decompress.c **** 	k = State->bk;
 2009               	.loc 1 627 0
 2010 10cc 206F 0014 	move.l 20(%sp),%a0
 2011 10d0 2F68 000C 	move.l 12(%a0),8(%sp)
 2011      0008 
 628:/home/simulink/cFS_FreeRTOS_seL4/cfe/fsw/cfe-core/src/fs/cfe_fs_decompress.c **** 
 629:/home/simulink/cFS_FreeRTOS_seL4/cfe/fsw/cfe-core/src/fs/cfe_fs_decompress.c **** 	/*  read in last block bit */
 630:/home/simulink/cFS_FreeRTOS_seL4/cfe/fsw/cfe-core/src/fs/cfe_fs_decompress.c **** 	NEEDBITS(1)
 2012               	.loc 1 630 0
 2013 10d6 6076      	jra .L153
 2014               	.L158:
 2015               	.loc 1 630 0 is_stmt 0 discriminator 8
 2016 10d8 206F 0014 	move.l 20(%sp),%a0
 2017 10dc 2228 0018 	move.l 24(%a0),%d1
 2018 10e0 206F 0014 	move.l 20(%sp),%a0
 2019 10e4 2028 0014 	move.l 20(%a0),%d0
 2020 10e8 B081      	cmp.l %d1,%d0
 2021 10ea 6326      	jls .L154
 2022               	.loc 1 630 0 discriminator 1
 2023 10ec 206F 0014 	move.l 20(%sp),%a0
 2024 10f0 2028 0018 	move.l 24(%a0),%d0
 2025 10f4 2200      	move.l %d0,%d1
 2026 10f6 5281      	addq.l #1,%d1
 2027 10f8 206F 0014 	move.l 20(%sp),%a0
 2028 10fc 2141 0018 	move.l %d1,24(%a0)
 2029 1100 206F 0014 	move.l 20(%sp),%a0
 2030 1104 1030 0828 	move.b 40(%a0,%d0.l),%d0
 2031 1108 1000      	move.b %d0,%d0
 2032 110a 0280 0000 	and.l #255,%d0
 2032      00FF 
 2033 1110 6016      	jra .L155
 2034               	.L154:
 2035               	.loc 1 630 0 discriminator 2
 2036 1112 2F2F 0014 	move.l 20(%sp),-(%sp)
 2037               	.cfi_def_cfa_offset 24
 2038 1116 4EB9 0000 	jsr FS_gz_fill_inbuf_Reentrant
 2038      0000 
 2039 111c 588F      	addq.l #4,%sp
 2040               	.cfi_def_cfa_offset 20
 2041 111e 1000      	move.b %d0,%d0
 2042 1120 1000      	move.b %d0,%d0
 2043 1122 0280 0000 	and.l #255,%d0
 2043      00FF 
 2044               	.L155:
 2045               	.loc 1 630 0 discriminator 4
 2046 1128 222F 0008 	move.l 8(%sp),%d1
 2047 112c E3A8      	lsl.l %d1,%d0
 2048 112e 81AF 000C 	or.l %d0,12(%sp)
 2049 1132 206F 0014 	move.l 20(%sp),%a0
 2050 1136 2028 0024 	move.l 36(%a0),%d0
 2051 113a 4A80      	tst.l %d0
 2052 113c 670C      	jeq .L156
 2053               	.loc 1 630 0 discriminator 5
 2054 113e 206F 0014 	move.l 20(%sp),%a0
 2055 1142 2028 0024 	move.l 36(%a0),%d0
68K GAS   			page 51


 2056 1146 6000 0150 	jra .L157
 2057               	.L156:
 2058               	.loc 1 630 0 discriminator 6
 2059 114a 50AF 0008 	addq.l #8,8(%sp)
 2060               	.L153:
 2061               	.loc 1 630 0 discriminator 7
 2062 114e 4AAF 0008 	tst.l 8(%sp)
 2063 1152 6784      	jeq .L158
 631:/home/simulink/cFS_FreeRTOS_seL4/cfe/fsw/cfe-core/src/fs/cfe_fs_decompress.c **** 	*e = (int32)b & 1;
 2064               	.loc 1 631 0 is_stmt 1
 2065 1154 202F 000C 	move.l 12(%sp),%d0
 2066 1158 7201      	moveq #1,%d1
 2067 115a C081      	and.l %d1,%d0
 2068 115c 206F 0018 	move.l 24(%sp),%a0
 2069 1160 2080      	move.l %d0,(%a0)
 632:/home/simulink/cFS_FreeRTOS_seL4/cfe/fsw/cfe-core/src/fs/cfe_fs_decompress.c **** 	DUMPBITS(1)
 2070               	.loc 1 632 0
 2071 1162 202F 000C 	move.l 12(%sp),%d0
 2072 1166 E288      	lsr.l #1,%d0
 2073 1168 2F40 000C 	move.l %d0,12(%sp)
 2074 116c 53AF 0008 	subq.l #1,8(%sp)
 633:/home/simulink/cFS_FreeRTOS_seL4/cfe/fsw/cfe-core/src/fs/cfe_fs_decompress.c **** 
 634:/home/simulink/cFS_FreeRTOS_seL4/cfe/fsw/cfe-core/src/fs/cfe_fs_decompress.c **** 
 635:/home/simulink/cFS_FreeRTOS_seL4/cfe/fsw/cfe-core/src/fs/cfe_fs_decompress.c **** 	/*  read in block type */
 636:/home/simulink/cFS_FreeRTOS_seL4/cfe/fsw/cfe-core/src/fs/cfe_fs_decompress.c **** 	NEEDBITS(2)
 2075               	.loc 1 636 0
 2076 1170 6076      	jra .L159
 2077               	.L163:
 2078               	.loc 1 636 0 is_stmt 0 discriminator 8
 2079 1172 206F 0014 	move.l 20(%sp),%a0
 2080 1176 2228 0018 	move.l 24(%a0),%d1
 2081 117a 206F 0014 	move.l 20(%sp),%a0
 2082 117e 2028 0014 	move.l 20(%a0),%d0
 2083 1182 B081      	cmp.l %d1,%d0
 2084 1184 6326      	jls .L160
 2085               	.loc 1 636 0 discriminator 1
 2086 1186 206F 0014 	move.l 20(%sp),%a0
 2087 118a 2028 0018 	move.l 24(%a0),%d0
 2088 118e 2200      	move.l %d0,%d1
 2089 1190 5281      	addq.l #1,%d1
 2090 1192 206F 0014 	move.l 20(%sp),%a0
 2091 1196 2141 0018 	move.l %d1,24(%a0)
 2092 119a 206F 0014 	move.l 20(%sp),%a0
 2093 119e 1030 0828 	move.b 40(%a0,%d0.l),%d0
 2094 11a2 1000      	move.b %d0,%d0
 2095 11a4 0280 0000 	and.l #255,%d0
 2095      00FF 
 2096 11aa 6016      	jra .L161
 2097               	.L160:
 2098               	.loc 1 636 0 discriminator 2
 2099 11ac 2F2F 0014 	move.l 20(%sp),-(%sp)
 2100               	.cfi_def_cfa_offset 24
 2101 11b0 4EB9 0000 	jsr FS_gz_fill_inbuf_Reentrant
 2101      0000 
 2102 11b6 588F      	addq.l #4,%sp
 2103               	.cfi_def_cfa_offset 20
 2104 11b8 1000      	move.b %d0,%d0
68K GAS   			page 52


 2105 11ba 1000      	move.b %d0,%d0
 2106 11bc 0280 0000 	and.l #255,%d0
 2106      00FF 
 2107               	.L161:
 2108               	.loc 1 636 0 discriminator 4
 2109 11c2 222F 0008 	move.l 8(%sp),%d1
 2110 11c6 E3A8      	lsl.l %d1,%d0
 2111 11c8 81AF 000C 	or.l %d0,12(%sp)
 2112 11cc 206F 0014 	move.l 20(%sp),%a0
 2113 11d0 2028 0024 	move.l 36(%a0),%d0
 2114 11d4 4A80      	tst.l %d0
 2115 11d6 670C      	jeq .L162
 2116               	.loc 1 636 0 discriminator 5
 2117 11d8 206F 0014 	move.l 20(%sp),%a0
 2118 11dc 2028 0024 	move.l 36(%a0),%d0
 2119 11e0 6000 00B6 	jra .L157
 2120               	.L162:
 2121               	.loc 1 636 0 discriminator 6
 2122 11e4 50AF 0008 	addq.l #8,8(%sp)
 2123               	.L159:
 2124               	.loc 1 636 0 discriminator 7
 2125 11e8 7001      	moveq #1,%d0
 2126 11ea B0AF 0008 	cmp.l 8(%sp),%d0
 2127 11ee 6482      	jcc .L163
 637:/home/simulink/cFS_FreeRTOS_seL4/cfe/fsw/cfe-core/src/fs/cfe_fs_decompress.c **** 	t = (uint32)b & 3;
 2128               	.loc 1 637 0 is_stmt 1
 2129 11f0 7203      	moveq #3,%d1
 2130 11f2 C2AF 000C 	and.l 12(%sp),%d1
 2131 11f6 2E81      	move.l %d1,(%sp)
 638:/home/simulink/cFS_FreeRTOS_seL4/cfe/fsw/cfe-core/src/fs/cfe_fs_decompress.c **** 	DUMPBITS(2)
 2132               	.loc 1 638 0
 2133 11f8 202F 000C 	move.l 12(%sp),%d0
 2134 11fc E488      	lsr.l #2,%d0
 2135 11fe 2F40 000C 	move.l %d0,12(%sp)
 2136 1202 55AF 0008 	subq.l #2,8(%sp)
 639:/home/simulink/cFS_FreeRTOS_seL4/cfe/fsw/cfe-core/src/fs/cfe_fs_decompress.c **** 
 640:/home/simulink/cFS_FreeRTOS_seL4/cfe/fsw/cfe-core/src/fs/cfe_fs_decompress.c **** 
 641:/home/simulink/cFS_FreeRTOS_seL4/cfe/fsw/cfe-core/src/fs/cfe_fs_decompress.c **** 	/*  restore the global bit buffer */
 642:/home/simulink/cFS_FreeRTOS_seL4/cfe/fsw/cfe-core/src/fs/cfe_fs_decompress.c **** 	State->bb = b;
 2137               	.loc 1 642 0
 2138 1206 206F 0014 	move.l 20(%sp),%a0
 2139 120a 216F 000C 	move.l 12(%sp),8(%a0)
 2139      0008 
 643:/home/simulink/cFS_FreeRTOS_seL4/cfe/fsw/cfe-core/src/fs/cfe_fs_decompress.c **** 	State->bk = k;
 2140               	.loc 1 643 0
 2141 1210 206F 0014 	move.l 20(%sp),%a0
 2142 1214 216F 0008 	move.l 8(%sp),12(%a0)
 2142      000C 
 644:/home/simulink/cFS_FreeRTOS_seL4/cfe/fsw/cfe-core/src/fs/cfe_fs_decompress.c **** 
 645:/home/simulink/cFS_FreeRTOS_seL4/cfe/fsw/cfe-core/src/fs/cfe_fs_decompress.c **** 
 646:/home/simulink/cFS_FreeRTOS_seL4/cfe/fsw/cfe-core/src/fs/cfe_fs_decompress.c **** 	/*  inflate that block type */
 647:/home/simulink/cFS_FreeRTOS_seL4/cfe/fsw/cfe-core/src/fs/cfe_fs_decompress.c **** 	if      ( t == 0 ) { res = FS_gz_inflate_stored_Reentrant(State);  trace[0]++; }
 2143               	.loc 1 647 0
 2144 121a 4A97      	tst.l (%sp)
 2145 121c 6620      	jne .L164
 2146               	.loc 1 647 0 is_stmt 0 discriminator 1
 2147 121e 2F2F 0014 	move.l 20(%sp),-(%sp)
68K GAS   			page 53


 2148               	.cfi_def_cfa_offset 24
 2149 1222 4EB9 0000 	jsr FS_gz_inflate_stored_Reentrant
 2149      0000 
 2150 1228 588F      	addq.l #4,%sp
 2151               	.cfi_def_cfa_offset 20
 2152 122a 2F40 0004 	move.l %d0,4(%sp)
 2153 122e 2039 0000 	move.l trace,%d0
 2153      0000 
 2154 1234 5280      	addq.l #1,%d0
 2155 1236 23C0 0000 	move.l %d0,trace
 2155      0000 
 2156 123c 6056      	jra .L165
 2157               	.L164:
 648:/home/simulink/cFS_FreeRTOS_seL4/cfe/fsw/cfe-core/src/fs/cfe_fs_decompress.c **** 	else if ( t == 1 ) { res = FS_gz_inflate_fixed_Reentrant(State);   trace[1]++; }
 2158               	.loc 1 648 0 is_stmt 1
 2159 123e 7001      	moveq #1,%d0
 2160 1240 B097      	cmp.l (%sp),%d0
 2161 1242 6620      	jne .L166
 2162               	.loc 1 648 0 is_stmt 0 discriminator 1
 2163 1244 2F2F 0014 	move.l 20(%sp),-(%sp)
 2164               	.cfi_def_cfa_offset 24
 2165 1248 4EB9 0000 	jsr FS_gz_inflate_fixed_Reentrant
 2165      0000 
 2166 124e 588F      	addq.l #4,%sp
 2167               	.cfi_def_cfa_offset 20
 2168 1250 2F40 0004 	move.l %d0,4(%sp)
 2169 1254 2039 0000 	move.l trace+4,%d0
 2169      0000 
 2170 125a 5280      	addq.l #1,%d0
 2171 125c 23C0 0000 	move.l %d0,trace+4
 2171      0000 
 2172 1262 6030      	jra .L165
 2173               	.L166:
 649:/home/simulink/cFS_FreeRTOS_seL4/cfe/fsw/cfe-core/src/fs/cfe_fs_decompress.c **** 	else if ( t == 2 ) { res = FS_gz_inflate_dynamic_Reentrant(State); trace[2]++; }
 2174               	.loc 1 649 0 is_stmt 1
 2175 1264 7202      	moveq #2,%d1
 2176 1266 B297      	cmp.l (%sp),%d1
 2177 1268 6620      	jne .L167
 2178               	.loc 1 649 0 is_stmt 0 discriminator 1
 2179 126a 2F2F 0014 	move.l 20(%sp),-(%sp)
 2180               	.cfi_def_cfa_offset 24
 2181 126e 4EB9 0000 	jsr FS_gz_inflate_dynamic_Reentrant
 2181      0000 
 2182 1274 588F      	addq.l #4,%sp
 2183               	.cfi_def_cfa_offset 20
 2184 1276 2F40 0004 	move.l %d0,4(%sp)
 2185 127a 2039 0000 	move.l trace+8,%d0
 2185      0000 
 2186 1280 5280      	addq.l #1,%d0
 2187 1282 23C0 0000 	move.l %d0,trace+8
 2187      0000 
 2188 1288 600A      	jra .L165
 2189               	.L167:
 650:/home/simulink/cFS_FreeRTOS_seL4/cfe/fsw/cfe-core/src/fs/cfe_fs_decompress.c **** 
 651:/home/simulink/cFS_FreeRTOS_seL4/cfe/fsw/cfe-core/src/fs/cfe_fs_decompress.c **** 	else               res = CFE_FS_GZIP_BAD_CODE_BLOCK;    
 2190               	.loc 1 651 0 is_stmt 1
 2191 128a 203C C600 	move.l #-973078523,%d0
68K GAS   			page 54


 2191      0005 
 2192 1290 2F40 0004 	move.l %d0,4(%sp)
 2193               	.L165:
 652:/home/simulink/cFS_FreeRTOS_seL4/cfe/fsw/cfe-core/src/fs/cfe_fs_decompress.c **** 
 653:/home/simulink/cFS_FreeRTOS_seL4/cfe/fsw/cfe-core/src/fs/cfe_fs_decompress.c **** 	return res;
 2194               	.loc 1 653 0
 2195 1294 202F 0004 	move.l 4(%sp),%d0
 2196               	.L157:
 654:/home/simulink/cFS_FreeRTOS_seL4/cfe/fsw/cfe-core/src/fs/cfe_fs_decompress.c **** 
 655:/home/simulink/cFS_FreeRTOS_seL4/cfe/fsw/cfe-core/src/fs/cfe_fs_decompress.c **** }
 2197               	.loc 1 655 0
 2198 1298 4FEF 0010 	lea (16,%sp),%sp
 2199 129c 4E75      	rts
 2200               	.cfi_endproc
 2201               	.LFE67:
 2202               	.sizeFS_gz_inflate_block_Reentrant, .-FS_gz_inflate_block_Reentrant
 2203               	.align2
 2204               	.globlFS_gz_inflate_codes_Reentrant
 2205               	.typeFS_gz_inflate_codes_Reentrant, @function
 2206               	FS_gz_inflate_codes_Reentrant:
 2207               	.LFB68:
 656:/home/simulink/cFS_FreeRTOS_seL4/cfe/fsw/cfe-core/src/fs/cfe_fs_decompress.c **** 
 657:/home/simulink/cFS_FreeRTOS_seL4/cfe/fsw/cfe-core/src/fs/cfe_fs_decompress.c **** /* Inflate (decompress) the codes in a deflated (compressed) block.  */
 658:/home/simulink/cFS_FreeRTOS_seL4/cfe/fsw/cfe-core/src/fs/cfe_fs_decompress.c **** /* Return an error code or zero if it all goes ok. */
 659:/home/simulink/cFS_FreeRTOS_seL4/cfe/fsw/cfe-core/src/fs/cfe_fs_decompress.c **** int32 FS_gz_inflate_codes_Reentrant( CFE_FS_Decompress_State_t *State, HufTable * tl, HufTable * td
 660:/home/simulink/cFS_FreeRTOS_seL4/cfe/fsw/cfe-core/src/fs/cfe_fs_decompress.c **** {
 2208               	.loc 1 660 0
 2209               	.cfi_startproc
 2210 129e 4FEF FFD8 	lea (-40,%sp),%sp
 2211               	.cfi_def_cfa_offset 44
 2212 12a2 2F02      	move.l %d2,-(%sp)
 2213               	.cfi_def_cfa_offset 48
 2214               	.cfi_offset 2, -48
 661:/home/simulink/cFS_FreeRTOS_seL4/cfe/fsw/cfe-core/src/fs/cfe_fs_decompress.c **** 
 662:/home/simulink/cFS_FreeRTOS_seL4/cfe/fsw/cfe-core/src/fs/cfe_fs_decompress.c **** 	static uint16 mask_bits[] = {
 663:/home/simulink/cFS_FreeRTOS_seL4/cfe/fsw/cfe-core/src/fs/cfe_fs_decompress.c **** 		0x0000,
 664:/home/simulink/cFS_FreeRTOS_seL4/cfe/fsw/cfe-core/src/fs/cfe_fs_decompress.c **** 			0x0001, 0x0003, 0x0007, 0x000f, 0x001f, 0x003f, 0x007f, 0x00ff,
 665:/home/simulink/cFS_FreeRTOS_seL4/cfe/fsw/cfe-core/src/fs/cfe_fs_decompress.c **** 			0x01ff, 0x03ff, 0x07ff, 0x0fff, 0x1fff, 0x3fff, 0x7fff, 0xffff
 666:/home/simulink/cFS_FreeRTOS_seL4/cfe/fsw/cfe-core/src/fs/cfe_fs_decompress.c **** 	};
 667:/home/simulink/cFS_FreeRTOS_seL4/cfe/fsw/cfe-core/src/fs/cfe_fs_decompress.c **** 
 668:/home/simulink/cFS_FreeRTOS_seL4/cfe/fsw/cfe-core/src/fs/cfe_fs_decompress.c **** 
 669:/home/simulink/cFS_FreeRTOS_seL4/cfe/fsw/cfe-core/src/fs/cfe_fs_decompress.c **** 	uint32      e;          /* table entry flag/number of extra bits  */
 670:/home/simulink/cFS_FreeRTOS_seL4/cfe/fsw/cfe-core/src/fs/cfe_fs_decompress.c **** 	uint32      n, d;       /* length and index for copy              */
 671:/home/simulink/cFS_FreeRTOS_seL4/cfe/fsw/cfe-core/src/fs/cfe_fs_decompress.c **** 	uint32      w;          /* current window position                */
 672:/home/simulink/cFS_FreeRTOS_seL4/cfe/fsw/cfe-core/src/fs/cfe_fs_decompress.c **** 	HufTable   *t;          /* pointer to table entry                 */
 673:/home/simulink/cFS_FreeRTOS_seL4/cfe/fsw/cfe-core/src/fs/cfe_fs_decompress.c **** 	uint32      ml, md;     /* masks for bl and bd bits               */
 674:/home/simulink/cFS_FreeRTOS_seL4/cfe/fsw/cfe-core/src/fs/cfe_fs_decompress.c **** 	uint32      b;          /* bit buffer                             */
 675:/home/simulink/cFS_FreeRTOS_seL4/cfe/fsw/cfe-core/src/fs/cfe_fs_decompress.c **** 	uint32      k;          /* number of bits in bit buffer           */
 676:/home/simulink/cFS_FreeRTOS_seL4/cfe/fsw/cfe-core/src/fs/cfe_fs_decompress.c **** 
 677:/home/simulink/cFS_FreeRTOS_seL4/cfe/fsw/cfe-core/src/fs/cfe_fs_decompress.c **** 	uint32 index;
 678:/home/simulink/cFS_FreeRTOS_seL4/cfe/fsw/cfe-core/src/fs/cfe_fs_decompress.c **** 
 679:/home/simulink/cFS_FreeRTOS_seL4/cfe/fsw/cfe-core/src/fs/cfe_fs_decompress.c **** 	/*  make local copies of globals  */
 680:/home/simulink/cFS_FreeRTOS_seL4/cfe/fsw/cfe-core/src/fs/cfe_fs_decompress.c **** 	b = State->bb;					/* initialize bit buffer */
 2215               	.loc 1 680 0
 2216 12a4 206F 0030 	move.l 48(%sp),%a0
 2217 12a8 2F68 0008 	move.l 8(%a0),20(%sp)
 2217      0014 
68K GAS   			page 55


 681:/home/simulink/cFS_FreeRTOS_seL4/cfe/fsw/cfe-core/src/fs/cfe_fs_decompress.c **** 	k = State->bk;
 2218               	.loc 1 681 0
 2219 12ae 206F 0030 	move.l 48(%sp),%a0
 2220 12b2 2F68 000C 	move.l 12(%a0),16(%sp)
 2220      0010 
 682:/home/simulink/cFS_FreeRTOS_seL4/cfe/fsw/cfe-core/src/fs/cfe_fs_decompress.c **** 	w = State->outcnt;				/* initialize window position */
 2221               	.loc 1 682 0
 2222 12b8 206F 0030 	move.l 48(%sp),%a0
 2223 12bc 2F68 0010 	move.l 16(%a0),28(%sp)
 2223      001C 
 683:/home/simulink/cFS_FreeRTOS_seL4/cfe/fsw/cfe-core/src/fs/cfe_fs_decompress.c **** 
 684:/home/simulink/cFS_FreeRTOS_seL4/cfe/fsw/cfe-core/src/fs/cfe_fs_decompress.c **** 	/*  inflate the coded data */
 685:/home/simulink/cFS_FreeRTOS_seL4/cfe/fsw/cfe-core/src/fs/cfe_fs_decompress.c **** 	ml = mask_bits[bl];			/* precompute masks for speed */
 2224               	.loc 1 685 0
 2225 12c2 202F 003C 	move.l 60(%sp),%d0
 2226 12c6 D080      	add.l %d0,%d0
 2227 12c8 41F9 0000 	lea mask_bits.5753,%a0
 2227      0000 
 2228 12ce 3030 0800 	move.w (%a0,%d0.l),%d0
 2229 12d2 3000      	move.w %d0,%d0
 2230 12d4 0280 0000 	and.l #65535,%d0
 2230      FFFF 
 2231 12da 2F40 000C 	move.l %d0,12(%sp)
 686:/home/simulink/cFS_FreeRTOS_seL4/cfe/fsw/cfe-core/src/fs/cfe_fs_decompress.c **** 	md = mask_bits[bd];
 2232               	.loc 1 686 0
 2233 12de 202F 0040 	move.l 64(%sp),%d0
 2234 12e2 D080      	add.l %d0,%d0
 2235 12e4 41F9 0000 	lea mask_bits.5753,%a0
 2235      0000 
 2236 12ea 3030 0800 	move.w (%a0,%d0.l),%d0
 2237 12ee 3000      	move.w %d0,%d0
 2238 12f0 0280 0000 	and.l #65535,%d0
 2238      FFFF 
 2239 12f6 2F40 0008 	move.l %d0,8(%sp)
 687:/home/simulink/cFS_FreeRTOS_seL4/cfe/fsw/cfe-core/src/fs/cfe_fs_decompress.c **** 
 688:/home/simulink/cFS_FreeRTOS_seL4/cfe/fsw/cfe-core/src/fs/cfe_fs_decompress.c **** 	for (;;) 
 689:/home/simulink/cFS_FreeRTOS_seL4/cfe/fsw/cfe-core/src/fs/cfe_fs_decompress.c ****    {					/* do until end of block */
 690:/home/simulink/cFS_FreeRTOS_seL4/cfe/fsw/cfe-core/src/fs/cfe_fs_decompress.c **** 		
 691:/home/simulink/cFS_FreeRTOS_seL4/cfe/fsw/cfe-core/src/fs/cfe_fs_decompress.c **** 		NEEDBITS((uint32)bl);
 2240               	.loc 1 691 0
 2241 12fa 6076      	jra .L169
 2242               	.L174:
 2243               	.loc 1 691 0 is_stmt 0 discriminator 8
 2244 12fc 206F 0030 	move.l 48(%sp),%a0
 2245 1300 2228 0018 	move.l 24(%a0),%d1
 2246 1304 206F 0030 	move.l 48(%sp),%a0
 2247 1308 2028 0014 	move.l 20(%a0),%d0
 2248 130c B081      	cmp.l %d1,%d0
 2249 130e 6326      	jls .L170
 2250               	.loc 1 691 0 discriminator 1
 2251 1310 206F 0030 	move.l 48(%sp),%a0
 2252 1314 2028 0018 	move.l 24(%a0),%d0
 2253 1318 2200      	move.l %d0,%d1
 2254 131a 5281      	addq.l #1,%d1
 2255 131c 206F 0030 	move.l 48(%sp),%a0
 2256 1320 2141 0018 	move.l %d1,24(%a0)
 2257 1324 206F 0030 	move.l 48(%sp),%a0
68K GAS   			page 56


 2258 1328 1030 0828 	move.b 40(%a0,%d0.l),%d0
 2259 132c 1000      	move.b %d0,%d0
 2260 132e 0280 0000 	and.l #255,%d0
 2260      00FF 
 2261 1334 6016      	jra .L171
 2262               	.L170:
 2263               	.loc 1 691 0 discriminator 2
 2264 1336 2F2F 0030 	move.l 48(%sp),-(%sp)
 2265               	.cfi_def_cfa_offset 52
 2266 133a 4EB9 0000 	jsr FS_gz_fill_inbuf_Reentrant
 2266      0000 
 2267 1340 588F      	addq.l #4,%sp
 2268               	.cfi_def_cfa_offset 48
 2269 1342 1000      	move.b %d0,%d0
 2270 1344 1000      	move.b %d0,%d0
 2271 1346 0280 0000 	and.l #255,%d0
 2271      00FF 
 2272               	.L171:
 2273               	.loc 1 691 0 discriminator 4
 2274 134c 222F 0010 	move.l 16(%sp),%d1
 2275 1350 E3A8      	lsl.l %d1,%d0
 2276 1352 81AF 0014 	or.l %d0,20(%sp)
 2277 1356 206F 0030 	move.l 48(%sp),%a0
 2278 135a 2028 0024 	move.l 36(%a0),%d0
 2279 135e 4A80      	tst.l %d0
 2280 1360 670C      	jeq .L172
 2281               	.loc 1 691 0 discriminator 5
 2282 1362 206F 0030 	move.l 48(%sp),%a0
 2283 1366 2028 0024 	move.l 36(%a0),%d0
 2284 136a 6000 0726 	jra .L173
 2285               	.L172:
 2286               	.loc 1 691 0 discriminator 6
 2287 136e 50AF 0010 	addq.l #8,16(%sp)
 2288               	.L169:
 2289               	.loc 1 691 0 discriminator 7
 2290 1372 202F 003C 	move.l 60(%sp),%d0
 2291 1376 B0AF 0010 	cmp.l 16(%sp),%d0
 2292 137a 6280      	jhi .L174
 692:/home/simulink/cFS_FreeRTOS_seL4/cfe/fsw/cfe-core/src/fs/cfe_fs_decompress.c ****       t = tl + ((uint32)b & ml);
 2293               	.loc 1 692 0 is_stmt 1
 2294 137c 202F 0014 	move.l 20(%sp),%d0
 2295 1380 C0AF 000C 	and.l 12(%sp),%d0
 2296 1384 7406      	moveq #6,%d2
 2297 1386 4C02 0800 	muls.l %d2,%d0
 2298 138a 206F 0034 	move.l 52(%sp),%a0
 2299 138e D1C0      	add.l %d0,%a0
 2300 1390 2F48 0018 	move.l %a0,24(%sp)
 693:/home/simulink/cFS_FreeRTOS_seL4/cfe/fsw/cfe-core/src/fs/cfe_fs_decompress.c **** 		e = t->e;
 2301               	.loc 1 693 0
 2302 1394 206F 0018 	move.l 24(%sp),%a0
 2303 1398 1010      	move.b (%a0),%d0
 2304 139a 1000      	move.b %d0,%d0
 2305 139c 0280 0000 	and.l #255,%d0
 2305      00FF 
 2306 13a2 2F40 0028 	move.l %d0,40(%sp)
 694:/home/simulink/cFS_FreeRTOS_seL4/cfe/fsw/cfe-core/src/fs/cfe_fs_decompress.c **** 		if ( e > 16 ) 
 2307               	.loc 1 694 0
68K GAS   			page 57


 2308 13a6 7010      	moveq #16,%d0
 2309 13a8 B0AF 0028 	cmp.l 40(%sp),%d0
 2310 13ac 6400 0154 	jcc .L175
 2311               	.L184:
 695:/home/simulink/cFS_FreeRTOS_seL4/cfe/fsw/cfe-core/src/fs/cfe_fs_decompress.c ****       {
 696:/home/simulink/cFS_FreeRTOS_seL4/cfe/fsw/cfe-core/src/fs/cfe_fs_decompress.c **** 	        do 
 697:/home/simulink/cFS_FreeRTOS_seL4/cfe/fsw/cfe-core/src/fs/cfe_fs_decompress.c ****            {
 698:/home/simulink/cFS_FreeRTOS_seL4/cfe/fsw/cfe-core/src/fs/cfe_fs_decompress.c ****               if (e == 99) return CFE_FS_GZIP_BAD_DATA;
 2312               	.loc 1 698 0
 2313 13b0 7263      	moveq #99,%d1
 2314 13b2 B2AF 0028 	cmp.l 40(%sp),%d1
 2315 13b6 660A      	jne .L176
 2316               	.loc 1 698 0 is_stmt 0 discriminator 1
 2317 13b8 203C C600 	move.l #-973078524,%d0
 2317      0004 
 2318 13be 6000 06D2 	jra .L173
 2319               	.L176:
 699:/home/simulink/cFS_FreeRTOS_seL4/cfe/fsw/cfe-core/src/fs/cfe_fs_decompress.c ****               DUMPBITS(t->b);
 2320               	.loc 1 699 0 is_stmt 1
 2321 13c2 206F 0018 	move.l 24(%sp),%a0
 2322 13c6 1028 0001 	move.b 1(%a0),%d0
 2323 13ca 1000      	move.b %d0,%d0
 2324 13cc 0280 0000 	and.l #255,%d0
 2324      00FF 
 2325 13d2 222F 0014 	move.l 20(%sp),%d1
 2326 13d6 2401      	move.l %d1,%d2
 2327 13d8 E0AA      	lsr.l %d0,%d2
 2328 13da 2002      	move.l %d2,%d0
 2329 13dc 2F40 0014 	move.l %d0,20(%sp)
 2330 13e0 206F 0018 	move.l 24(%sp),%a0
 2331 13e4 1028 0001 	move.b 1(%a0),%d0
 2332 13e8 1000      	move.b %d0,%d0
 2333 13ea 0280 0000 	and.l #255,%d0
 2333      00FF 
 2334 13f0 91AF 0010 	sub.l %d0,16(%sp)
 700:/home/simulink/cFS_FreeRTOS_seL4/cfe/fsw/cfe-core/src/fs/cfe_fs_decompress.c ****               e -= 16;
 2335               	.loc 1 700 0
 2336 13f4 70F0      	moveq #-16,%d0
 2337 13f6 D1AF 0028 	add.l %d0,40(%sp)
 701:/home/simulink/cFS_FreeRTOS_seL4/cfe/fsw/cfe-core/src/fs/cfe_fs_decompress.c **** 				  NEEDBITS(e);
 2338               	.loc 1 701 0
 2339 13fa 6076      	jra .L177
 2340               	.L181:
 2341               	.loc 1 701 0 is_stmt 0 discriminator 8
 2342 13fc 206F 0030 	move.l 48(%sp),%a0
 2343 1400 2228 0018 	move.l 24(%a0),%d1
 2344 1404 206F 0030 	move.l 48(%sp),%a0
 2345 1408 2028 0014 	move.l 20(%a0),%d0
 2346 140c B081      	cmp.l %d1,%d0
 2347 140e 6326      	jls .L178
 2348               	.loc 1 701 0 discriminator 1
 2349 1410 206F 0030 	move.l 48(%sp),%a0
 2350 1414 2028 0018 	move.l 24(%a0),%d0
 2351 1418 2200      	move.l %d0,%d1
 2352 141a 5281      	addq.l #1,%d1
 2353 141c 206F 0030 	move.l 48(%sp),%a0
 2354 1420 2141 0018 	move.l %d1,24(%a0)
68K GAS   			page 58


 2355 1424 206F 0030 	move.l 48(%sp),%a0
 2356 1428 1030 0828 	move.b 40(%a0,%d0.l),%d0
 2357 142c 1000      	move.b %d0,%d0
 2358 142e 0280 0000 	and.l #255,%d0
 2358      00FF 
 2359 1434 6016      	jra .L179
 2360               	.L178:
 2361               	.loc 1 701 0 discriminator 2
 2362 1436 2F2F 0030 	move.l 48(%sp),-(%sp)
 2363               	.cfi_def_cfa_offset 52
 2364 143a 4EB9 0000 	jsr FS_gz_fill_inbuf_Reentrant
 2364      0000 
 2365 1440 588F      	addq.l #4,%sp
 2366               	.cfi_def_cfa_offset 48
 2367 1442 1000      	move.b %d0,%d0
 2368 1444 1000      	move.b %d0,%d0
 2369 1446 0280 0000 	and.l #255,%d0
 2369      00FF 
 2370               	.L179:
 2371               	.loc 1 701 0 discriminator 4
 2372 144c 222F 0010 	move.l 16(%sp),%d1
 2373 1450 E3A8      	lsl.l %d1,%d0
 2374 1452 81AF 0014 	or.l %d0,20(%sp)
 2375 1456 206F 0030 	move.l 48(%sp),%a0
 2376 145a 2028 0024 	move.l 36(%a0),%d0
 2377 145e 4A80      	tst.l %d0
 2378 1460 670C      	jeq .L180
 2379               	.loc 1 701 0 discriminator 5
 2380 1462 206F 0030 	move.l 48(%sp),%a0
 2381 1466 2028 0024 	move.l 36(%a0),%d0
 2382 146a 6000 0626 	jra .L173
 2383               	.L180:
 2384               	.loc 1 701 0 discriminator 6
 2385 146e 50AF 0010 	addq.l #8,16(%sp)
 2386               	.L177:
 2387               	.loc 1 701 0 discriminator 7
 2388 1472 242F 0028 	move.l 40(%sp),%d2
 2389 1476 B4AF 0010 	cmp.l 16(%sp),%d2
 2390 147a 6280      	jhi .L181
 702:/home/simulink/cFS_FreeRTOS_seL4/cfe/fsw/cfe-core/src/fs/cfe_fs_decompress.c ****               index = t->v.t + ( (uint32)b & mask_bits[e] );
 2391               	.loc 1 702 0 is_stmt 1
 2392 147c 206F 0018 	move.l 24(%sp),%a0
 2393 1480 3028 0004 	move.w 4(%a0),%d0
 2394 1484 4281      	clr.l %d1
 2395 1486 3200      	move.w %d0,%d1
 2396 1488 202F 0028 	move.l 40(%sp),%d0
 2397 148c D080      	add.l %d0,%d0
 2398 148e 41F9 0000 	lea mask_bits.5753,%a0
 2398      0000 
 2399 1494 3030 0800 	move.w (%a0,%d0.l),%d0
 2400 1498 3000      	move.w %d0,%d0
 2401 149a 0280 0000 	and.l #65535,%d0
 2401      FFFF 
 2402 14a0 C0AF 0014 	and.l 20(%sp),%d0
 2403 14a4 2041      	move.l %d1,%a0
 2404 14a6 D1C0      	add.l %d0,%a0
 2405 14a8 2F48 0004 	move.l %a0,4(%sp)
68K GAS   			page 59


 703:/home/simulink/cFS_FreeRTOS_seL4/cfe/fsw/cfe-core/src/fs/cfe_fs_decompress.c **** 				  if ( index >= 0  &&  index < State->hufts )
 2406               	.loc 1 703 0
 2407 14ac 206F 0030 	move.l 48(%sp),%a0
 2408 14b0 203C 0001 	move.l #116840,%d0
 2408      C868 
 2409 14b6 2030 0800 	move.l (%a0,%d0.l),%d0
 2410 14ba B0AF 0004 	cmp.l 4(%sp),%d0
 2411 14be 631C      	jls .L182
 704:/home/simulink/cFS_FreeRTOS_seL4/cfe/fsw/cfe-core/src/fs/cfe_fs_decompress.c ****                  t = &( State->hufTable[index] );
 2412               	.loc 1 704 0
 2413 14c0 202F 0004 	move.l 4(%sp),%d0
 2414 14c4 7206      	moveq #6,%d1
 2415 14c6 4C01 0800 	muls.l %d1,%d0
 2416 14ca 0680 0001 	add.l #116848,%d0
 2416      C870 
 2417 14d0 242F 0030 	move.l 48(%sp),%d2
 2418 14d4 D480      	add.l %d0,%d2
 2419 14d6 2F42 0018 	move.l %d2,24(%sp)
 2420 14da 600A      	jra .L222
 2421               	.L182:
 705:/home/simulink/cFS_FreeRTOS_seL4/cfe/fsw/cfe-core/src/fs/cfe_fs_decompress.c **** 				  else  
 706:/home/simulink/cFS_FreeRTOS_seL4/cfe/fsw/cfe-core/src/fs/cfe_fs_decompress.c ****                  return CFE_FS_GZIP_INDEX_ERROR;
 2422               	.loc 1 706 0
 2423 14dc 203C C600 	move.l #-973078514,%d0
 2423      000E 
 2424 14e2 6000 05AE 	jra .L173
 2425               	.L222:
 707:/home/simulink/cFS_FreeRTOS_seL4/cfe/fsw/cfe-core/src/fs/cfe_fs_decompress.c **** 				  e = t->e;
 2426               	.loc 1 707 0
 2427 14e6 206F 0018 	move.l 24(%sp),%a0
 2428 14ea 1010      	move.b (%a0),%d0
 2429 14ec 1000      	move.b %d0,%d0
 2430 14ee 0280 0000 	and.l #255,%d0
 2430      00FF 
 2431 14f4 2F40 0028 	move.l %d0,40(%sp)
 708:/home/simulink/cFS_FreeRTOS_seL4/cfe/fsw/cfe-core/src/fs/cfe_fs_decompress.c **** 	        } while ( e > 16 );
 2432               	.loc 1 708 0
 2433 14f8 7010      	moveq #16,%d0
 2434 14fa B0AF 0028 	cmp.l 40(%sp),%d0
 2435 14fe 6500 FEB0 	jcs .L184
 2436               	.L175:
 709:/home/simulink/cFS_FreeRTOS_seL4/cfe/fsw/cfe-core/src/fs/cfe_fs_decompress.c **** 		}
 710:/home/simulink/cFS_FreeRTOS_seL4/cfe/fsw/cfe-core/src/fs/cfe_fs_decompress.c **** 		
 711:/home/simulink/cFS_FreeRTOS_seL4/cfe/fsw/cfe-core/src/fs/cfe_fs_decompress.c **** 		DUMPBITS(t->b);
 2437               	.loc 1 711 0
 2438 1502 206F 0018 	move.l 24(%sp),%a0
 2439 1506 1028 0001 	move.b 1(%a0),%d0
 2440 150a 1000      	move.b %d0,%d0
 2441 150c 0280 0000 	and.l #255,%d0
 2441      00FF 
 2442 1512 222F 0014 	move.l 20(%sp),%d1
 2443 1516 2401      	move.l %d1,%d2
 2444 1518 E0AA      	lsr.l %d0,%d2
 2445 151a 2002      	move.l %d2,%d0
 2446 151c 2F40 0014 	move.l %d0,20(%sp)
 2447 1520 206F 0018 	move.l 24(%sp),%a0
 2448 1524 1028 0001 	move.b 1(%a0),%d0
68K GAS   			page 60


 2449 1528 1000      	move.b %d0,%d0
 2450 152a 0280 0000 	and.l #255,%d0
 2450      00FF 
 2451 1530 91AF 0010 	sub.l %d0,16(%sp)
 712:/home/simulink/cFS_FreeRTOS_seL4/cfe/fsw/cfe-core/src/fs/cfe_fs_decompress.c **** 			
 713:/home/simulink/cFS_FreeRTOS_seL4/cfe/fsw/cfe-core/src/fs/cfe_fs_decompress.c ****       if ( e == 16 ) 
 2452               	.loc 1 713 0
 2453 1534 7010      	moveq #16,%d0
 2454 1536 B0AF 0028 	cmp.l 40(%sp),%d0
 2455 153a 6652      	jne .L185
 714:/home/simulink/cFS_FreeRTOS_seL4/cfe/fsw/cfe-core/src/fs/cfe_fs_decompress.c ****       {                 /* then it's a literal */
 715:/home/simulink/cFS_FreeRTOS_seL4/cfe/fsw/cfe-core/src/fs/cfe_fs_decompress.c **** 				
 716:/home/simulink/cFS_FreeRTOS_seL4/cfe/fsw/cfe-core/src/fs/cfe_fs_decompress.c ****          /* gz_window[w++] = (uint8)(t->n); */
 717:/home/simulink/cFS_FreeRTOS_seL4/cfe/fsw/cfe-core/src/fs/cfe_fs_decompress.c ****          State->window[w++] = (uint8)(t->v.n);
 2456               	.loc 1 717 0
 2457 153c 206F 0018 	move.l 24(%sp),%a0
 2458 1540 3228 0002 	move.w 2(%a0),%d1
 2459 1544 202F 001C 	move.l 28(%sp),%d0
 2460 1548 2400      	move.l %d0,%d2
 2461 154a 5282      	addq.l #1,%d2
 2462 154c 2F42 001C 	move.l %d2,28(%sp)
 2463 1550 1201      	move.b %d1,%d1
 2464 1552 206F 0030 	move.l 48(%sp),%a0
 2465 1556 D088      	add.l %a0,%d0
 2466 1558 2040      	move.l %d0,%a0
 2467 155a D1FC 0000 	add.l #51304,%a0
 2467      C868 
 2468 1560 1081      	move.b %d1,(%a0)
 718:/home/simulink/cFS_FreeRTOS_seL4/cfe/fsw/cfe-core/src/fs/cfe_fs_decompress.c ****          if ( w == WSIZE ) 
 2469               	.loc 1 718 0
 2470 1562 207C 0000 	move.l #32768,%a0
 2470      8000 
 2471 1568 B1EF 001C 	cmp.l 28(%sp),%a0
 2472 156c 6600 FE04 	jne .L169
 719:/home/simulink/cFS_FreeRTOS_seL4/cfe/fsw/cfe-core/src/fs/cfe_fs_decompress.c ****          {
 720:/home/simulink/cFS_FreeRTOS_seL4/cfe/fsw/cfe-core/src/fs/cfe_fs_decompress.c ****             State->outcnt = w;
 2473               	.loc 1 720 0
 2474 1570 206F 0030 	move.l 48(%sp),%a0
 2475 1574 216F 001C 	move.l 28(%sp),16(%a0)
 2475      0010 
 721:/home/simulink/cFS_FreeRTOS_seL4/cfe/fsw/cfe-core/src/fs/cfe_fs_decompress.c ****             FS_gz_flush_window_Reentrant(State);
 2476               	.loc 1 721 0
 2477 157a 2F2F 0030 	move.l 48(%sp),-(%sp)
 2478               	.cfi_def_cfa_offset 52
 2479 157e 4EB9 0000 	jsr FS_gz_flush_window_Reentrant
 2479      0000 
 2480 1584 588F      	addq.l #4,%sp
 2481               	.cfi_def_cfa_offset 48
 722:/home/simulink/cFS_FreeRTOS_seL4/cfe/fsw/cfe-core/src/fs/cfe_fs_decompress.c ****             w = 0;
 2482               	.loc 1 722 0
 2483 1586 42AF 001C 	clr.l 28(%sp)
 2484 158a 6000 FDE6 	jra .L169
 2485               	.L185:
 723:/home/simulink/cFS_FreeRTOS_seL4/cfe/fsw/cfe-core/src/fs/cfe_fs_decompress.c ****          }
 724:/home/simulink/cFS_FreeRTOS_seL4/cfe/fsw/cfe-core/src/fs/cfe_fs_decompress.c **** 				
 725:/home/simulink/cFS_FreeRTOS_seL4/cfe/fsw/cfe-core/src/fs/cfe_fs_decompress.c ****       } 
 726:/home/simulink/cFS_FreeRTOS_seL4/cfe/fsw/cfe-core/src/fs/cfe_fs_decompress.c ****       else 
68K GAS   			page 61


 727:/home/simulink/cFS_FreeRTOS_seL4/cfe/fsw/cfe-core/src/fs/cfe_fs_decompress.c ****       {                        /* it's an EOB or a length */
 728:/home/simulink/cFS_FreeRTOS_seL4/cfe/fsw/cfe-core/src/fs/cfe_fs_decompress.c **** 				
 729:/home/simulink/cFS_FreeRTOS_seL4/cfe/fsw/cfe-core/src/fs/cfe_fs_decompress.c ****          /*  exit if end of block  */
 730:/home/simulink/cFS_FreeRTOS_seL4/cfe/fsw/cfe-core/src/fs/cfe_fs_decompress.c ****          if ( e == 15 ) break;
 2486               	.loc 1 730 0
 2487 158e 700F      	moveq #15,%d0
 2488 1590 B0AF 0028 	cmp.l 40(%sp),%d0
 2489 1594 6700 04DA 	jeq .L225
 731:/home/simulink/cFS_FreeRTOS_seL4/cfe/fsw/cfe-core/src/fs/cfe_fs_decompress.c **** 				
 732:/home/simulink/cFS_FreeRTOS_seL4/cfe/fsw/cfe-core/src/fs/cfe_fs_decompress.c ****          /*  get length of block to copy */
 733:/home/simulink/cFS_FreeRTOS_seL4/cfe/fsw/cfe-core/src/fs/cfe_fs_decompress.c ****          NEEDBITS(e);
 2490               	.loc 1 733 0
 2491 1598 6076      	jra .L190
 2492               	.L194:
 2493               	.loc 1 733 0 is_stmt 0 discriminator 8
 2494 159a 206F 0030 	move.l 48(%sp),%a0
 2495 159e 2228 0018 	move.l 24(%a0),%d1
 2496 15a2 206F 0030 	move.l 48(%sp),%a0
 2497 15a6 2028 0014 	move.l 20(%a0),%d0
 2498 15aa B081      	cmp.l %d1,%d0
 2499 15ac 6326      	jls .L191
 2500               	.loc 1 733 0 discriminator 1
 2501 15ae 206F 0030 	move.l 48(%sp),%a0
 2502 15b2 2028 0018 	move.l 24(%a0),%d0
 2503 15b6 2200      	move.l %d0,%d1
 2504 15b8 5281      	addq.l #1,%d1
 2505 15ba 206F 0030 	move.l 48(%sp),%a0
 2506 15be 2141 0018 	move.l %d1,24(%a0)
 2507 15c2 206F 0030 	move.l 48(%sp),%a0
 2508 15c6 1030 0828 	move.b 40(%a0,%d0.l),%d0
 2509 15ca 1000      	move.b %d0,%d0
 2510 15cc 0280 0000 	and.l #255,%d0
 2510      00FF 
 2511 15d2 6016      	jra .L192
 2512               	.L191:
 2513               	.loc 1 733 0 discriminator 2
 2514 15d4 2F2F 0030 	move.l 48(%sp),-(%sp)
 2515               	.cfi_def_cfa_offset 52
 2516 15d8 4EB9 0000 	jsr FS_gz_fill_inbuf_Reentrant
 2516      0000 
 2517 15de 588F      	addq.l #4,%sp
 2518               	.cfi_def_cfa_offset 48
 2519 15e0 1000      	move.b %d0,%d0
 2520 15e2 1000      	move.b %d0,%d0
 2521 15e4 0280 0000 	and.l #255,%d0
 2521      00FF 
 2522               	.L192:
 2523               	.loc 1 733 0 discriminator 4
 2524 15ea 222F 0010 	move.l 16(%sp),%d1
 2525 15ee E3A8      	lsl.l %d1,%d0
 2526 15f0 81AF 0014 	or.l %d0,20(%sp)
 2527 15f4 206F 0030 	move.l 48(%sp),%a0
 2528 15f8 2028 0024 	move.l 36(%a0),%d0
 2529 15fc 4A80      	tst.l %d0
 2530 15fe 670C      	jeq .L193
 2531               	.loc 1 733 0 discriminator 5
 2532 1600 206F 0030 	move.l 48(%sp),%a0
68K GAS   			page 62


 2533 1604 2028 0024 	move.l 36(%a0),%d0
 2534 1608 6000 0488 	jra .L173
 2535               	.L193:
 2536               	.loc 1 733 0 discriminator 6
 2537 160c 50AF 0010 	addq.l #8,16(%sp)
 2538               	.L190:
 2539               	.loc 1 733 0 discriminator 7
 2540 1610 242F 0028 	move.l 40(%sp),%d2
 2541 1614 B4AF 0010 	cmp.l 16(%sp),%d2
 2542 1618 6280      	jhi .L194
 734:/home/simulink/cFS_FreeRTOS_seL4/cfe/fsw/cfe-core/src/fs/cfe_fs_decompress.c ****          n = t->v.n + ( (uint32)b & mask_bits[e] );
 2543               	.loc 1 734 0 is_stmt 1
 2544 161a 206F 0018 	move.l 24(%sp),%a0
 2545 161e 3028 0002 	move.w 2(%a0),%d0
 2546 1622 4281      	clr.l %d1
 2547 1624 3200      	move.w %d0,%d1
 2548 1626 202F 0028 	move.l 40(%sp),%d0
 2549 162a D080      	add.l %d0,%d0
 2550 162c 41F9 0000 	lea mask_bits.5753,%a0
 2550      0000 
 2551 1632 3030 0800 	move.w (%a0,%d0.l),%d0
 2552 1636 3000      	move.w %d0,%d0
 2553 1638 0280 0000 	and.l #65535,%d0
 2553      FFFF 
 2554 163e C0AF 0014 	and.l 20(%sp),%d0
 2555 1642 2041      	move.l %d1,%a0
 2556 1644 D1C0      	add.l %d0,%a0
 2557 1646 2F48 0024 	move.l %a0,36(%sp)
 735:/home/simulink/cFS_FreeRTOS_seL4/cfe/fsw/cfe-core/src/fs/cfe_fs_decompress.c ****          DUMPBITS(e);
 2558               	.loc 1 735 0
 2559 164a 202F 0014 	move.l 20(%sp),%d0
 2560 164e 222F 0028 	move.l 40(%sp),%d1
 2561 1652 E2A8      	lsr.l %d1,%d0
 2562 1654 2F40 0014 	move.l %d0,20(%sp)
 2563 1658 242F 0028 	move.l 40(%sp),%d2
 2564 165c 95AF 0010 	sub.l %d2,16(%sp)
 736:/home/simulink/cFS_FreeRTOS_seL4/cfe/fsw/cfe-core/src/fs/cfe_fs_decompress.c **** 				
 737:/home/simulink/cFS_FreeRTOS_seL4/cfe/fsw/cfe-core/src/fs/cfe_fs_decompress.c ****          /*  decode distance of block to copy  */
 738:/home/simulink/cFS_FreeRTOS_seL4/cfe/fsw/cfe-core/src/fs/cfe_fs_decompress.c ****          NEEDBITS((uint32)bd);
 2565               	.loc 1 738 0
 2566 1660 6076      	jra .L195
 2567               	.L199:
 2568               	.loc 1 738 0 is_stmt 0 discriminator 8
 2569 1662 206F 0030 	move.l 48(%sp),%a0
 2570 1666 2228 0018 	move.l 24(%a0),%d1
 2571 166a 206F 0030 	move.l 48(%sp),%a0
 2572 166e 2028 0014 	move.l 20(%a0),%d0
 2573 1672 B081      	cmp.l %d1,%d0
 2574 1674 6326      	jls .L196
 2575               	.loc 1 738 0 discriminator 1
 2576 1676 206F 0030 	move.l 48(%sp),%a0
 2577 167a 2028 0018 	move.l 24(%a0),%d0
 2578 167e 2200      	move.l %d0,%d1
 2579 1680 5281      	addq.l #1,%d1
 2580 1682 206F 0030 	move.l 48(%sp),%a0
 2581 1686 2141 0018 	move.l %d1,24(%a0)
 2582 168a 206F 0030 	move.l 48(%sp),%a0
68K GAS   			page 63


 2583 168e 1030 0828 	move.b 40(%a0,%d0.l),%d0
 2584 1692 1000      	move.b %d0,%d0
 2585 1694 0280 0000 	and.l #255,%d0
 2585      00FF 
 2586 169a 6016      	jra .L197
 2587               	.L196:
 2588               	.loc 1 738 0 discriminator 2
 2589 169c 2F2F 0030 	move.l 48(%sp),-(%sp)
 2590               	.cfi_def_cfa_offset 52
 2591 16a0 4EB9 0000 	jsr FS_gz_fill_inbuf_Reentrant
 2591      0000 
 2592 16a6 588F      	addq.l #4,%sp
 2593               	.cfi_def_cfa_offset 48
 2594 16a8 1000      	move.b %d0,%d0
 2595 16aa 1000      	move.b %d0,%d0
 2596 16ac 0280 0000 	and.l #255,%d0
 2596      00FF 
 2597               	.L197:
 2598               	.loc 1 738 0 discriminator 4
 2599 16b2 222F 0010 	move.l 16(%sp),%d1
 2600 16b6 E3A8      	lsl.l %d1,%d0
 2601 16b8 81AF 0014 	or.l %d0,20(%sp)
 2602 16bc 206F 0030 	move.l 48(%sp),%a0
 2603 16c0 2028 0024 	move.l 36(%a0),%d0
 2604 16c4 4A80      	tst.l %d0
 2605 16c6 670C      	jeq .L198
 2606               	.loc 1 738 0 discriminator 5
 2607 16c8 206F 0030 	move.l 48(%sp),%a0
 2608 16cc 2028 0024 	move.l 36(%a0),%d0
 2609 16d0 6000 03C0 	jra .L173
 2610               	.L198:
 2611               	.loc 1 738 0 discriminator 6
 2612 16d4 50AF 0010 	addq.l #8,16(%sp)
 2613               	.L195:
 2614               	.loc 1 738 0 discriminator 7
 2615 16d8 202F 0040 	move.l 64(%sp),%d0
 2616 16dc B0AF 0010 	cmp.l 16(%sp),%d0
 2617 16e0 6280      	jhi .L199
 739:/home/simulink/cFS_FreeRTOS_seL4/cfe/fsw/cfe-core/src/fs/cfe_fs_decompress.c ****          t = td + ((uint32)b & md);
 2618               	.loc 1 739 0 is_stmt 1
 2619 16e2 202F 0014 	move.l 20(%sp),%d0
 2620 16e6 C0AF 0008 	and.l 8(%sp),%d0
 2621 16ea 7406      	moveq #6,%d2
 2622 16ec 4C02 0800 	muls.l %d2,%d0
 2623 16f0 206F 0038 	move.l 56(%sp),%a0
 2624 16f4 D1C0      	add.l %d0,%a0
 2625 16f6 2F48 0018 	move.l %a0,24(%sp)
 740:/home/simulink/cFS_FreeRTOS_seL4/cfe/fsw/cfe-core/src/fs/cfe_fs_decompress.c ****          e = t->e;
 2626               	.loc 1 740 0
 2627 16fa 206F 0018 	move.l 24(%sp),%a0
 2628 16fe 1010      	move.b (%a0),%d0
 2629 1700 1000      	move.b %d0,%d0
 2630 1702 0280 0000 	and.l #255,%d0
 2630      00FF 
 2631 1708 2F40 0028 	move.l %d0,40(%sp)
 741:/home/simulink/cFS_FreeRTOS_seL4/cfe/fsw/cfe-core/src/fs/cfe_fs_decompress.c ****          if ( e > 16 ) 
 2632               	.loc 1 741 0
68K GAS   			page 64


 2633 170c 7010      	moveq #16,%d0
 2634 170e B0AF 0028 	cmp.l 40(%sp),%d0
 2635 1712 6400 0154 	jcc .L200
 2636               	.L209:
 742:/home/simulink/cFS_FreeRTOS_seL4/cfe/fsw/cfe-core/src/fs/cfe_fs_decompress.c ****          {
 743:/home/simulink/cFS_FreeRTOS_seL4/cfe/fsw/cfe-core/src/fs/cfe_fs_decompress.c ****             do 
 744:/home/simulink/cFS_FreeRTOS_seL4/cfe/fsw/cfe-core/src/fs/cfe_fs_decompress.c ****             {
 745:/home/simulink/cFS_FreeRTOS_seL4/cfe/fsw/cfe-core/src/fs/cfe_fs_decompress.c ****                if (e == 99) return CFE_FS_GZIP_BAD_DATA;
 2637               	.loc 1 745 0
 2638 1716 7263      	moveq #99,%d1
 2639 1718 B2AF 0028 	cmp.l 40(%sp),%d1
 2640 171c 660A      	jne .L201
 2641               	.loc 1 745 0 is_stmt 0 discriminator 1
 2642 171e 203C C600 	move.l #-973078524,%d0
 2642      0004 
 2643 1724 6000 036C 	jra .L173
 2644               	.L201:
 746:/home/simulink/cFS_FreeRTOS_seL4/cfe/fsw/cfe-core/src/fs/cfe_fs_decompress.c ****                DUMPBITS(t->b);
 2645               	.loc 1 746 0 is_stmt 1
 2646 1728 206F 0018 	move.l 24(%sp),%a0
 2647 172c 1028 0001 	move.b 1(%a0),%d0
 2648 1730 1000      	move.b %d0,%d0
 2649 1732 0280 0000 	and.l #255,%d0
 2649      00FF 
 2650 1738 222F 0014 	move.l 20(%sp),%d1
 2651 173c 2401      	move.l %d1,%d2
 2652 173e E0AA      	lsr.l %d0,%d2
 2653 1740 2002      	move.l %d2,%d0
 2654 1742 2F40 0014 	move.l %d0,20(%sp)
 2655 1746 206F 0018 	move.l 24(%sp),%a0
 2656 174a 1028 0001 	move.b 1(%a0),%d0
 2657 174e 1000      	move.b %d0,%d0
 2658 1750 0280 0000 	and.l #255,%d0
 2658      00FF 
 2659 1756 91AF 0010 	sub.l %d0,16(%sp)
 747:/home/simulink/cFS_FreeRTOS_seL4/cfe/fsw/cfe-core/src/fs/cfe_fs_decompress.c ****                e -= 16;
 2660               	.loc 1 747 0
 2661 175a 70F0      	moveq #-16,%d0
 2662 175c D1AF 0028 	add.l %d0,40(%sp)
 748:/home/simulink/cFS_FreeRTOS_seL4/cfe/fsw/cfe-core/src/fs/cfe_fs_decompress.c ****                NEEDBITS(e);
 2663               	.loc 1 748 0
 2664 1760 6076      	jra .L202
 2665               	.L206:
 2666               	.loc 1 748 0 is_stmt 0 discriminator 8
 2667 1762 206F 0030 	move.l 48(%sp),%a0
 2668 1766 2228 0018 	move.l 24(%a0),%d1
 2669 176a 206F 0030 	move.l 48(%sp),%a0
 2670 176e 2028 0014 	move.l 20(%a0),%d0
 2671 1772 B081      	cmp.l %d1,%d0
 2672 1774 6326      	jls .L203
 2673               	.loc 1 748 0 discriminator 1
 2674 1776 206F 0030 	move.l 48(%sp),%a0
 2675 177a 2028 0018 	move.l 24(%a0),%d0
 2676 177e 2200      	move.l %d0,%d1
 2677 1780 5281      	addq.l #1,%d1
 2678 1782 206F 0030 	move.l 48(%sp),%a0
 2679 1786 2141 0018 	move.l %d1,24(%a0)
68K GAS   			page 65


 2680 178a 206F 0030 	move.l 48(%sp),%a0
 2681 178e 1030 0828 	move.b 40(%a0,%d0.l),%d0
 2682 1792 1000      	move.b %d0,%d0
 2683 1794 0280 0000 	and.l #255,%d0
 2683      00FF 
 2684 179a 6016      	jra .L204
 2685               	.L203:
 2686               	.loc 1 748 0 discriminator 2
 2687 179c 2F2F 0030 	move.l 48(%sp),-(%sp)
 2688               	.cfi_def_cfa_offset 52
 2689 17a0 4EB9 0000 	jsr FS_gz_fill_inbuf_Reentrant
 2689      0000 
 2690 17a6 588F      	addq.l #4,%sp
 2691               	.cfi_def_cfa_offset 48
 2692 17a8 1000      	move.b %d0,%d0
 2693 17aa 1000      	move.b %d0,%d0
 2694 17ac 0280 0000 	and.l #255,%d0
 2694      00FF 
 2695               	.L204:
 2696               	.loc 1 748 0 discriminator 4
 2697 17b2 222F 0010 	move.l 16(%sp),%d1
 2698 17b6 E3A8      	lsl.l %d1,%d0
 2699 17b8 81AF 0014 	or.l %d0,20(%sp)
 2700 17bc 206F 0030 	move.l 48(%sp),%a0
 2701 17c0 2028 0024 	move.l 36(%a0),%d0
 2702 17c4 4A80      	tst.l %d0
 2703 17c6 670C      	jeq .L205
 2704               	.loc 1 748 0 discriminator 5
 2705 17c8 206F 0030 	move.l 48(%sp),%a0
 2706 17cc 2028 0024 	move.l 36(%a0),%d0
 2707 17d0 6000 02C0 	jra .L173
 2708               	.L205:
 2709               	.loc 1 748 0 discriminator 6
 2710 17d4 50AF 0010 	addq.l #8,16(%sp)
 2711               	.L202:
 2712               	.loc 1 748 0 discriminator 7
 2713 17d8 242F 0028 	move.l 40(%sp),%d2
 2714 17dc B4AF 0010 	cmp.l 16(%sp),%d2
 2715 17e0 6280      	jhi .L206
 749:/home/simulink/cFS_FreeRTOS_seL4/cfe/fsw/cfe-core/src/fs/cfe_fs_decompress.c ****                index = t->v.t + ( (uint32)b & mask_bits[e] );
 2716               	.loc 1 749 0 is_stmt 1
 2717 17e2 206F 0018 	move.l 24(%sp),%a0
 2718 17e6 3028 0004 	move.w 4(%a0),%d0
 2719 17ea 4281      	clr.l %d1
 2720 17ec 3200      	move.w %d0,%d1
 2721 17ee 202F 0028 	move.l 40(%sp),%d0
 2722 17f2 D080      	add.l %d0,%d0
 2723 17f4 41F9 0000 	lea mask_bits.5753,%a0
 2723      0000 
 2724 17fa 3030 0800 	move.w (%a0,%d0.l),%d0
 2725 17fe 3000      	move.w %d0,%d0
 2726 1800 0280 0000 	and.l #65535,%d0
 2726      FFFF 
 2727 1806 C0AF 0014 	and.l 20(%sp),%d0
 2728 180a 2041      	move.l %d1,%a0
 2729 180c D1C0      	add.l %d0,%a0
 2730 180e 2F48 0004 	move.l %a0,4(%sp)
68K GAS   			page 66


 750:/home/simulink/cFS_FreeRTOS_seL4/cfe/fsw/cfe-core/src/fs/cfe_fs_decompress.c ****                if ( index >= 0  &&  index < State->hufts )
 2731               	.loc 1 750 0
 2732 1812 206F 0030 	move.l 48(%sp),%a0
 2733 1816 203C 0001 	move.l #116840,%d0
 2733      C868 
 2734 181c 2030 0800 	move.l (%a0,%d0.l),%d0
 2735 1820 B0AF 0004 	cmp.l 4(%sp),%d0
 2736 1824 631C      	jls .L207
 751:/home/simulink/cFS_FreeRTOS_seL4/cfe/fsw/cfe-core/src/fs/cfe_fs_decompress.c ****                   t = &( State->hufTable[index] );
 2737               	.loc 1 751 0
 2738 1826 202F 0004 	move.l 4(%sp),%d0
 2739 182a 7206      	moveq #6,%d1
 2740 182c 4C01 0800 	muls.l %d1,%d0
 2741 1830 0680 0001 	add.l #116848,%d0
 2741      C870 
 2742 1836 242F 0030 	move.l 48(%sp),%d2
 2743 183a D480      	add.l %d0,%d2
 2744 183c 2F42 0018 	move.l %d2,24(%sp)
 2745 1840 600A      	jra .L224
 2746               	.L207:
 752:/home/simulink/cFS_FreeRTOS_seL4/cfe/fsw/cfe-core/src/fs/cfe_fs_decompress.c ****                else  
 753:/home/simulink/cFS_FreeRTOS_seL4/cfe/fsw/cfe-core/src/fs/cfe_fs_decompress.c ****                   return CFE_FS_GZIP_INDEX_ERROR;
 2747               	.loc 1 753 0
 2748 1842 203C C600 	move.l #-973078514,%d0
 2748      000E 
 2749 1848 6000 0248 	jra .L173
 2750               	.L224:
 754:/home/simulink/cFS_FreeRTOS_seL4/cfe/fsw/cfe-core/src/fs/cfe_fs_decompress.c ****                e = t->e;
 2751               	.loc 1 754 0
 2752 184c 206F 0018 	move.l 24(%sp),%a0
 2753 1850 1010      	move.b (%a0),%d0
 2754 1852 1000      	move.b %d0,%d0
 2755 1854 0280 0000 	and.l #255,%d0
 2755      00FF 
 2756 185a 2F40 0028 	move.l %d0,40(%sp)
 755:/home/simulink/cFS_FreeRTOS_seL4/cfe/fsw/cfe-core/src/fs/cfe_fs_decompress.c ****             } while ( e > 16 );
 2757               	.loc 1 755 0
 2758 185e 7010      	moveq #16,%d0
 2759 1860 B0AF 0028 	cmp.l 40(%sp),%d0
 2760 1864 6500 FEB0 	jcs .L209
 2761               	.L200:
 756:/home/simulink/cFS_FreeRTOS_seL4/cfe/fsw/cfe-core/src/fs/cfe_fs_decompress.c ****          }
 757:/home/simulink/cFS_FreeRTOS_seL4/cfe/fsw/cfe-core/src/fs/cfe_fs_decompress.c ****          DUMPBITS(t->b);
 2762               	.loc 1 757 0
 2763 1868 206F 0018 	move.l 24(%sp),%a0
 2764 186c 1028 0001 	move.b 1(%a0),%d0
 2765 1870 1000      	move.b %d0,%d0
 2766 1872 0280 0000 	and.l #255,%d0
 2766      00FF 
 2767 1878 222F 0014 	move.l 20(%sp),%d1
 2768 187c 2401      	move.l %d1,%d2
 2769 187e E0AA      	lsr.l %d0,%d2
 2770 1880 2002      	move.l %d2,%d0
 2771 1882 2F40 0014 	move.l %d0,20(%sp)
 2772 1886 206F 0018 	move.l 24(%sp),%a0
 2773 188a 1028 0001 	move.b 1(%a0),%d0
 2774 188e 1000      	move.b %d0,%d0
68K GAS   			page 67


 2775 1890 0280 0000 	and.l #255,%d0
 2775      00FF 
 2776 1896 91AF 0010 	sub.l %d0,16(%sp)
 758:/home/simulink/cFS_FreeRTOS_seL4/cfe/fsw/cfe-core/src/fs/cfe_fs_decompress.c **** 					
 759:/home/simulink/cFS_FreeRTOS_seL4/cfe/fsw/cfe-core/src/fs/cfe_fs_decompress.c ****          NEEDBITS(e);
 2777               	.loc 1 759 0
 2778 189a 6076      	jra .L210
 2779               	.L214:
 2780               	.loc 1 759 0 is_stmt 0 discriminator 8
 2781 189c 206F 0030 	move.l 48(%sp),%a0
 2782 18a0 2228 0018 	move.l 24(%a0),%d1
 2783 18a4 206F 0030 	move.l 48(%sp),%a0
 2784 18a8 2028 0014 	move.l 20(%a0),%d0
 2785 18ac B081      	cmp.l %d1,%d0
 2786 18ae 6326      	jls .L211
 2787               	.loc 1 759 0 discriminator 1
 2788 18b0 206F 0030 	move.l 48(%sp),%a0
 2789 18b4 2028 0018 	move.l 24(%a0),%d0
 2790 18b8 2200      	move.l %d0,%d1
 2791 18ba 5281      	addq.l #1,%d1
 2792 18bc 206F 0030 	move.l 48(%sp),%a0
 2793 18c0 2141 0018 	move.l %d1,24(%a0)
 2794 18c4 206F 0030 	move.l 48(%sp),%a0
 2795 18c8 1030 0828 	move.b 40(%a0,%d0.l),%d0
 2796 18cc 1000      	move.b %d0,%d0
 2797 18ce 0280 0000 	and.l #255,%d0
 2797      00FF 
 2798 18d4 6016      	jra .L212
 2799               	.L211:
 2800               	.loc 1 759 0 discriminator 2
 2801 18d6 2F2F 0030 	move.l 48(%sp),-(%sp)
 2802               	.cfi_def_cfa_offset 52
 2803 18da 4EB9 0000 	jsr FS_gz_fill_inbuf_Reentrant
 2803      0000 
 2804 18e0 588F      	addq.l #4,%sp
 2805               	.cfi_def_cfa_offset 48
 2806 18e2 1000      	move.b %d0,%d0
 2807 18e4 1000      	move.b %d0,%d0
 2808 18e6 0280 0000 	and.l #255,%d0
 2808      00FF 
 2809               	.L212:
 2810               	.loc 1 759 0 discriminator 4
 2811 18ec 222F 0010 	move.l 16(%sp),%d1
 2812 18f0 E3A8      	lsl.l %d1,%d0
 2813 18f2 81AF 0014 	or.l %d0,20(%sp)
 2814 18f6 206F 0030 	move.l 48(%sp),%a0
 2815 18fa 2028 0024 	move.l 36(%a0),%d0
 2816 18fe 4A80      	tst.l %d0
 2817 1900 670C      	jeq .L213
 2818               	.loc 1 759 0 discriminator 5
 2819 1902 206F 0030 	move.l 48(%sp),%a0
 2820 1906 2028 0024 	move.l 36(%a0),%d0
 2821 190a 6000 0186 	jra .L173
 2822               	.L213:
 2823               	.loc 1 759 0 discriminator 6
 2824 190e 50AF 0010 	addq.l #8,16(%sp)
 2825               	.L210:
68K GAS   			page 68


 2826               	.loc 1 759 0 discriminator 7
 2827 1912 242F 0028 	move.l 40(%sp),%d2
 2828 1916 B4AF 0010 	cmp.l 16(%sp),%d2
 2829 191a 6280      	jhi .L214
 760:/home/simulink/cFS_FreeRTOS_seL4/cfe/fsw/cfe-core/src/fs/cfe_fs_decompress.c ****          d = w - t->v.n - ((uint32)b & mask_bits[e]);
 2830               	.loc 1 760 0 is_stmt 1
 2831 191c 206F 0018 	move.l 24(%sp),%a0
 2832 1920 3028 0002 	move.w 2(%a0),%d0
 2833 1924 3000      	move.w %d0,%d0
 2834 1926 0280 0000 	and.l #65535,%d0
 2834      FFFF 
 2835 192c 222F 001C 	move.l 28(%sp),%d1
 2836 1930 9280      	sub.l %d0,%d1
 2837 1932 2001      	move.l %d1,%d0
 2838 1934 222F 0028 	move.l 40(%sp),%d1
 2839 1938 D281      	add.l %d1,%d1
 2840 193a 41F9 0000 	lea mask_bits.5753,%a0
 2840      0000 
 2841 1940 3230 1800 	move.w (%a0,%d1.l),%d1
 2842 1944 3201      	move.w %d1,%d1
 2843 1946 0281 0000 	and.l #65535,%d1
 2843      FFFF 
 2844 194c C2AF 0014 	and.l 20(%sp),%d1
 2845 1950 2400      	move.l %d0,%d2
 2846 1952 9481      	sub.l %d1,%d2
 2847 1954 2F42 0020 	move.l %d2,32(%sp)
 761:/home/simulink/cFS_FreeRTOS_seL4/cfe/fsw/cfe-core/src/fs/cfe_fs_decompress.c ****          DUMPBITS(e);
 2848               	.loc 1 761 0
 2849 1958 202F 0014 	move.l 20(%sp),%d0
 2850 195c 222F 0028 	move.l 40(%sp),%d1
 2851 1960 E2A8      	lsr.l %d1,%d0
 2852 1962 2F40 0014 	move.l %d0,20(%sp)
 2853 1966 242F 0028 	move.l 40(%sp),%d2
 2854 196a 95AF 0010 	sub.l %d2,16(%sp)
 2855               	.L220:
 762:/home/simulink/cFS_FreeRTOS_seL4/cfe/fsw/cfe-core/src/fs/cfe_fs_decompress.c **** 					
 763:/home/simulink/cFS_FreeRTOS_seL4/cfe/fsw/cfe-core/src/fs/cfe_fs_decompress.c ****          /* do the copy */
 764:/home/simulink/cFS_FreeRTOS_seL4/cfe/fsw/cfe-core/src/fs/cfe_fs_decompress.c ****          do 
 765:/home/simulink/cFS_FreeRTOS_seL4/cfe/fsw/cfe-core/src/fs/cfe_fs_decompress.c ****          {
 766:/home/simulink/cFS_FreeRTOS_seL4/cfe/fsw/cfe-core/src/fs/cfe_fs_decompress.c **** 						
 767:/home/simulink/cFS_FreeRTOS_seL4/cfe/fsw/cfe-core/src/fs/cfe_fs_decompress.c ****             d &= WSIZE - 1;
 2856               	.loc 1 767 0
 2857 196e 203C 0000 	move.l #32767,%d0
 2857      7FFF 
 2858 1974 C1AF 0020 	and.l %d0,32(%sp)
 768:/home/simulink/cFS_FreeRTOS_seL4/cfe/fsw/cfe-core/src/fs/cfe_fs_decompress.c ****             e = WSIZE - ( d > w ? d : w);
 2859               	.loc 1 768 0
 2860 1978 222F 0020 	move.l 32(%sp),%d1
 2861 197c 202F 001C 	move.l 28(%sp),%d0
 2862 1980 B280      	cmp.l %d0,%d1
 2863 1982 6302      	jls .L215
 2864 1984 2001      	move.l %d1,%d0
 2865               	.L215:
 2866 1986 223C 0000 	move.l #32768,%d1
 2866      8000 
 2867 198c 9280      	sub.l %d0,%d1
 2868 198e 2F41 0028 	move.l %d1,40(%sp)
68K GAS   			page 69


 769:/home/simulink/cFS_FreeRTOS_seL4/cfe/fsw/cfe-core/src/fs/cfe_fs_decompress.c ****             e = ( e > n ? n : e );
 2869               	.loc 1 769 0
 2870 1992 222F 0024 	move.l 36(%sp),%d1
 2871 1996 202F 0028 	move.l 40(%sp),%d0
 2872 199a B280      	cmp.l %d0,%d1
 2873 199c 6402      	jcc .L216
 2874 199e 2001      	move.l %d1,%d0
 2875               	.L216:
 2876 19a0 2F40 0028 	move.l %d0,40(%sp)
 770:/home/simulink/cFS_FreeRTOS_seL4/cfe/fsw/cfe-core/src/fs/cfe_fs_decompress.c ****             n -= e;
 2877               	.loc 1 770 0
 2878 19a4 242F 0028 	move.l 40(%sp),%d2
 2879 19a8 95AF 0024 	sub.l %d2,36(%sp)
 771:/home/simulink/cFS_FreeRTOS_seL4/cfe/fsw/cfe-core/src/fs/cfe_fs_decompress.c **** 						
 772:/home/simulink/cFS_FreeRTOS_seL4/cfe/fsw/cfe-core/src/fs/cfe_fs_decompress.c ****             if ( w - d >= e ) 
 2880               	.loc 1 772 0
 2881 19ac 202F 001C 	move.l 28(%sp),%d0
 2882 19b0 90AF 0020 	sub.l 32(%sp),%d0
 2883 19b4 B0AF 0028 	cmp.l 40(%sp),%d0
 2884 19b8 6542      	jcs .L217
 773:/home/simulink/cFS_FreeRTOS_seL4/cfe/fsw/cfe-core/src/fs/cfe_fs_decompress.c ****             { /* (this test assumes unsigned comparison) */
 774:/home/simulink/cFS_FreeRTOS_seL4/cfe/fsw/cfe-core/src/fs/cfe_fs_decompress.c **** 							
 775:/home/simulink/cFS_FreeRTOS_seL4/cfe/fsw/cfe-core/src/fs/cfe_fs_decompress.c ****                memcpy( State->window + w, State->window + d, e );
 2885               	.loc 1 775 0
 2886 19ba 202F 0030 	move.l 48(%sp),%d0
 2887 19be 0680 0000 	add.l #51304,%d0
 2887      C868 
 2888 19c4 2200      	move.l %d0,%d1
 2889 19c6 D2AF 0020 	add.l 32(%sp),%d1
 2890 19ca 202F 0030 	move.l 48(%sp),%d0
 2891 19ce 0680 0000 	add.l #51304,%d0
 2891      C868 
 2892 19d4 D0AF 001C 	add.l 28(%sp),%d0
 2893 19d8 2F2F 0028 	move.l 40(%sp),-(%sp)
 2894               	.cfi_def_cfa_offset 52
 2895 19dc 2F01      	move.l %d1,-(%sp)
 2896               	.cfi_def_cfa_offset 56
 2897 19de 2F00      	move.l %d0,-(%sp)
 2898               	.cfi_def_cfa_offset 60
 2899 19e0 4EB9 0000 	jsr memcpy
 2899      0000 
 2900 19e6 4FEF 000C 	lea (12,%sp),%sp
 2901               	.cfi_def_cfa_offset 48
 776:/home/simulink/cFS_FreeRTOS_seL4/cfe/fsw/cfe-core/src/fs/cfe_fs_decompress.c ****                w += e;
 2902               	.loc 1 776 0
 2903 19ea 202F 0028 	move.l 40(%sp),%d0
 2904 19ee D1AF 001C 	add.l %d0,28(%sp)
 777:/home/simulink/cFS_FreeRTOS_seL4/cfe/fsw/cfe-core/src/fs/cfe_fs_decompress.c ****                d += e;
 2905               	.loc 1 777 0
 2906 19f2 222F 0028 	move.l 40(%sp),%d1
 2907 19f6 D3AF 0020 	add.l %d1,32(%sp)
 2908 19fa 6042      	jra .L218
 2909               	.L217:
 778:/home/simulink/cFS_FreeRTOS_seL4/cfe/fsw/cfe-core/src/fs/cfe_fs_decompress.c **** 							
 779:/home/simulink/cFS_FreeRTOS_seL4/cfe/fsw/cfe-core/src/fs/cfe_fs_decompress.c ****             } 
 780:/home/simulink/cFS_FreeRTOS_seL4/cfe/fsw/cfe-core/src/fs/cfe_fs_decompress.c ****             else 
 781:/home/simulink/cFS_FreeRTOS_seL4/cfe/fsw/cfe-core/src/fs/cfe_fs_decompress.c ****             { /* do it slow to avoid memcpy() overlap */
68K GAS   			page 70


 782:/home/simulink/cFS_FreeRTOS_seL4/cfe/fsw/cfe-core/src/fs/cfe_fs_decompress.c **** 							
 783:/home/simulink/cFS_FreeRTOS_seL4/cfe/fsw/cfe-core/src/fs/cfe_fs_decompress.c ****                do 
 784:/home/simulink/cFS_FreeRTOS_seL4/cfe/fsw/cfe-core/src/fs/cfe_fs_decompress.c ****                {
 785:/home/simulink/cFS_FreeRTOS_seL4/cfe/fsw/cfe-core/src/fs/cfe_fs_decompress.c ****                   State->window[w++] = State->window[d++];
 2910               	.loc 1 785 0 discriminator 1
 2911 19fc 222F 0020 	move.l 32(%sp),%d1
 2912 1a00 2401      	move.l %d1,%d2
 2913 1a02 5282      	addq.l #1,%d2
 2914 1a04 2F42 0020 	move.l %d2,32(%sp)
 2915 1a08 202F 001C 	move.l 28(%sp),%d0
 2916 1a0c 2040      	move.l %d0,%a0
 2917 1a0e 5288      	addq.l #1,%a0
 2918 1a10 2F48 001C 	move.l %a0,28(%sp)
 2919 1a14 206F 0030 	move.l 48(%sp),%a0
 2920 1a18 D288      	add.l %a0,%d1
 2921 1a1a 2041      	move.l %d1,%a0
 2922 1a1c D1FC 0000 	add.l #51304,%a0
 2922      C868 
 2923 1a22 1210      	move.b (%a0),%d1
 2924 1a24 206F 0030 	move.l 48(%sp),%a0
 2925 1a28 D088      	add.l %a0,%d0
 2926 1a2a 2040      	move.l %d0,%a0
 2927 1a2c D1FC 0000 	add.l #51304,%a0
 2927      C868 
 2928 1a32 1081      	move.b %d1,(%a0)
 786:/home/simulink/cFS_FreeRTOS_seL4/cfe/fsw/cfe-core/src/fs/cfe_fs_decompress.c ****                } while (--e);
 2929               	.loc 1 786 0 discriminator 1
 2930 1a34 53AF 0028 	subq.l #1,40(%sp)
 2931 1a38 4AAF 0028 	tst.l 40(%sp)
 2932 1a3c 66BE      	jne .L217
 2933               	.L218:
 787:/home/simulink/cFS_FreeRTOS_seL4/cfe/fsw/cfe-core/src/fs/cfe_fs_decompress.c **** 							
 788:/home/simulink/cFS_FreeRTOS_seL4/cfe/fsw/cfe-core/src/fs/cfe_fs_decompress.c ****             }
 789:/home/simulink/cFS_FreeRTOS_seL4/cfe/fsw/cfe-core/src/fs/cfe_fs_decompress.c **** 						
 790:/home/simulink/cFS_FreeRTOS_seL4/cfe/fsw/cfe-core/src/fs/cfe_fs_decompress.c ****             if ( w == WSIZE ) 
 2934               	.loc 1 790 0
 2935 1a3e 203C 0000 	move.l #32768,%d0
 2935      8000 
 2936 1a44 B0AF 001C 	cmp.l 28(%sp),%d0
 2937 1a48 661A      	jne .L219
 791:/home/simulink/cFS_FreeRTOS_seL4/cfe/fsw/cfe-core/src/fs/cfe_fs_decompress.c ****             {
 792:/home/simulink/cFS_FreeRTOS_seL4/cfe/fsw/cfe-core/src/fs/cfe_fs_decompress.c ****                State->outcnt = w;
 2938               	.loc 1 792 0
 2939 1a4a 206F 0030 	move.l 48(%sp),%a0
 2940 1a4e 216F 001C 	move.l 28(%sp),16(%a0)
 2940      0010 
 793:/home/simulink/cFS_FreeRTOS_seL4/cfe/fsw/cfe-core/src/fs/cfe_fs_decompress.c ****                FS_gz_flush_window_Reentrant(State);
 2941               	.loc 1 793 0
 2942 1a54 2F2F 0030 	move.l 48(%sp),-(%sp)
 2943               	.cfi_def_cfa_offset 52
 2944 1a58 4EB9 0000 	jsr FS_gz_flush_window_Reentrant
 2944      0000 
 2945 1a5e 588F      	addq.l #4,%sp
 2946               	.cfi_def_cfa_offset 48
 794:/home/simulink/cFS_FreeRTOS_seL4/cfe/fsw/cfe-core/src/fs/cfe_fs_decompress.c ****                w = 0;
 2947               	.loc 1 794 0
 2948 1a60 42AF 001C 	clr.l 28(%sp)
68K GAS   			page 71


 2949               	.L219:
 795:/home/simulink/cFS_FreeRTOS_seL4/cfe/fsw/cfe-core/src/fs/cfe_fs_decompress.c ****             }
 796:/home/simulink/cFS_FreeRTOS_seL4/cfe/fsw/cfe-core/src/fs/cfe_fs_decompress.c **** 						
 797:/home/simulink/cFS_FreeRTOS_seL4/cfe/fsw/cfe-core/src/fs/cfe_fs_decompress.c ****          } while (n);
 2950               	.loc 1 797 0
 2951 1a64 4AAF 0024 	tst.l 36(%sp)
 2952 1a68 6600 FF04 	jne .L220
 691:/home/simulink/cFS_FreeRTOS_seL4/cfe/fsw/cfe-core/src/fs/cfe_fs_decompress.c ****       t = tl + ((uint32)b & ml);
 2953               	.loc 1 691 0 discriminator 1
 2954 1a6c 6000 F904 	jra .L169
 2955               	.L225:
 730:/home/simulink/cFS_FreeRTOS_seL4/cfe/fsw/cfe-core/src/fs/cfe_fs_decompress.c **** 				
 2956               	.loc 1 730 0
 2957 1a70 4E71      	nop
 798:/home/simulink/cFS_FreeRTOS_seL4/cfe/fsw/cfe-core/src/fs/cfe_fs_decompress.c **** 					
 799:/home/simulink/cFS_FreeRTOS_seL4/cfe/fsw/cfe-core/src/fs/cfe_fs_decompress.c ****       }
 800:/home/simulink/cFS_FreeRTOS_seL4/cfe/fsw/cfe-core/src/fs/cfe_fs_decompress.c **** 			
 801:/home/simulink/cFS_FreeRTOS_seL4/cfe/fsw/cfe-core/src/fs/cfe_fs_decompress.c ****    }
 802:/home/simulink/cFS_FreeRTOS_seL4/cfe/fsw/cfe-core/src/fs/cfe_fs_decompress.c **** 
 803:/home/simulink/cFS_FreeRTOS_seL4/cfe/fsw/cfe-core/src/fs/cfe_fs_decompress.c **** 	/*  restore the globals from the locals */
 804:/home/simulink/cFS_FreeRTOS_seL4/cfe/fsw/cfe-core/src/fs/cfe_fs_decompress.c **** 	State->outcnt = w;				/* restore global window pointer */
 2958               	.loc 1 804 0
 2959 1a72 206F 0030 	move.l 48(%sp),%a0
 2960 1a76 216F 001C 	move.l 28(%sp),16(%a0)
 2960      0010 
 805:/home/simulink/cFS_FreeRTOS_seL4/cfe/fsw/cfe-core/src/fs/cfe_fs_decompress.c **** 	State->bb = b;					/* restore global bit buffer */
 2961               	.loc 1 805 0
 2962 1a7c 206F 0030 	move.l 48(%sp),%a0
 2963 1a80 216F 0014 	move.l 20(%sp),8(%a0)
 2963      0008 
 806:/home/simulink/cFS_FreeRTOS_seL4/cfe/fsw/cfe-core/src/fs/cfe_fs_decompress.c **** 	State->bk = k;
 2964               	.loc 1 806 0
 2965 1a86 206F 0030 	move.l 48(%sp),%a0
 2966 1a8a 216F 0010 	move.l 16(%sp),12(%a0)
 2966      000C 
 807:/home/simulink/cFS_FreeRTOS_seL4/cfe/fsw/cfe-core/src/fs/cfe_fs_decompress.c **** 
 808:/home/simulink/cFS_FreeRTOS_seL4/cfe/fsw/cfe-core/src/fs/cfe_fs_decompress.c **** 	return CFE_SUCCESS;
 2967               	.loc 1 808 0
 2968 1a90 4280      	clr.l %d0
 2969               	.L173:
 809:/home/simulink/cFS_FreeRTOS_seL4/cfe/fsw/cfe-core/src/fs/cfe_fs_decompress.c **** }
 2970               	.loc 1 809 0
 2971 1a92 241F      	move.l (%sp)+,%d2
 2972 1a94 4FEF 0028 	lea (40,%sp),%sp
 2973 1a98 4E75      	rts
 2974               	.cfi_endproc
 2975               	.LFE68:
 2976               	.sizeFS_gz_inflate_codes_Reentrant, .-FS_gz_inflate_codes_Reentrant
 2977               	.align2
 2978               	.globlFS_gz_inflate_dynamic_Reentrant
 2979               	.typeFS_gz_inflate_dynamic_Reentrant, @function
 2980               	FS_gz_inflate_dynamic_Reentrant:
 2981               	.LFB69:
 810:/home/simulink/cFS_FreeRTOS_seL4/cfe/fsw/cfe-core/src/fs/cfe_fs_decompress.c **** 
 811:/home/simulink/cFS_FreeRTOS_seL4/cfe/fsw/cfe-core/src/fs/cfe_fs_decompress.c **** /*
 812:/home/simulink/cFS_FreeRTOS_seL4/cfe/fsw/cfe-core/src/fs/cfe_fs_decompress.c **** ** removed gz_huft_free, no longer needed - glw 
 813:/home/simulink/cFS_FreeRTOS_seL4/cfe/fsw/cfe-core/src/fs/cfe_fs_decompress.c **** ** -- decompress an inflated type 2 (dynamic Huffman codes) block. 
68K GAS   			page 72


 814:/home/simulink/cFS_FreeRTOS_seL4/cfe/fsw/cfe-core/src/fs/cfe_fs_decompress.c **** */
 815:/home/simulink/cFS_FreeRTOS_seL4/cfe/fsw/cfe-core/src/fs/cfe_fs_decompress.c **** int32 FS_gz_inflate_dynamic_Reentrant( CFE_FS_Decompress_State_t *State )
 816:/home/simulink/cFS_FreeRTOS_seL4/cfe/fsw/cfe-core/src/fs/cfe_fs_decompress.c **** {
 2982               	.loc 1 816 0
 2983               	.cfi_startproc
 2984 1a9a 4FEF FAD4 	lea (-1324,%sp),%sp
 2985               	.cfi_def_cfa_offset 1328
 817:/home/simulink/cFS_FreeRTOS_seL4/cfe/fsw/cfe-core/src/fs/cfe_fs_decompress.c **** 
 818:/home/simulink/cFS_FreeRTOS_seL4/cfe/fsw/cfe-core/src/fs/cfe_fs_decompress.c **** 	static int32 lbits = 9;      /* bits in base literal/length lookup table */
 819:/home/simulink/cFS_FreeRTOS_seL4/cfe/fsw/cfe-core/src/fs/cfe_fs_decompress.c **** 	static int32 dbits = 6;      /* bits in base distance lookup table */
 820:/home/simulink/cFS_FreeRTOS_seL4/cfe/fsw/cfe-core/src/fs/cfe_fs_decompress.c **** 
 821:/home/simulink/cFS_FreeRTOS_seL4/cfe/fsw/cfe-core/src/fs/cfe_fs_decompress.c **** 	/*  Order of the bit length code lengths */
 822:/home/simulink/cFS_FreeRTOS_seL4/cfe/fsw/cfe-core/src/fs/cfe_fs_decompress.c **** 	static uint32 border[] = {
 823:/home/simulink/cFS_FreeRTOS_seL4/cfe/fsw/cfe-core/src/fs/cfe_fs_decompress.c **** 		16, 17, 18, 0, 8, 7, 9, 6, 10, 5, 11, 4, 12, 3, 13, 2, 14, 1, 15
 824:/home/simulink/cFS_FreeRTOS_seL4/cfe/fsw/cfe-core/src/fs/cfe_fs_decompress.c **** 	};
 825:/home/simulink/cFS_FreeRTOS_seL4/cfe/fsw/cfe-core/src/fs/cfe_fs_decompress.c **** 
 826:/home/simulink/cFS_FreeRTOS_seL4/cfe/fsw/cfe-core/src/fs/cfe_fs_decompress.c **** 	/*  Copy lengths for literal codes 257..285 */
 827:/home/simulink/cFS_FreeRTOS_seL4/cfe/fsw/cfe-core/src/fs/cfe_fs_decompress.c **** 	static uint16 cplens[] = {
 828:/home/simulink/cFS_FreeRTOS_seL4/cfe/fsw/cfe-core/src/fs/cfe_fs_decompress.c **** 		3, 4, 5, 6, 7, 8, 9, 10, 11, 13, 15, 17, 19, 23, 27, 31,
 829:/home/simulink/cFS_FreeRTOS_seL4/cfe/fsw/cfe-core/src/fs/cfe_fs_decompress.c **** 			35, 43, 51, 59, 67, 83, 99, 115, 131, 163, 195, 227, 258, 0, 0
 830:/home/simulink/cFS_FreeRTOS_seL4/cfe/fsw/cfe-core/src/fs/cfe_fs_decompress.c **** 	};
 831:/home/simulink/cFS_FreeRTOS_seL4/cfe/fsw/cfe-core/src/fs/cfe_fs_decompress.c **** 
 832:/home/simulink/cFS_FreeRTOS_seL4/cfe/fsw/cfe-core/src/fs/cfe_fs_decompress.c **** 	/*  Extra bits for literal codes 257..285    ( 99==invalid ) */
 833:/home/simulink/cFS_FreeRTOS_seL4/cfe/fsw/cfe-core/src/fs/cfe_fs_decompress.c **** 	static uint16 cplext[] = {
 834:/home/simulink/cFS_FreeRTOS_seL4/cfe/fsw/cfe-core/src/fs/cfe_fs_decompress.c **** 		0, 0, 0, 0, 0, 0, 0, 0, 1, 1, 1, 1, 2, 2, 2, 2,
 835:/home/simulink/cFS_FreeRTOS_seL4/cfe/fsw/cfe-core/src/fs/cfe_fs_decompress.c **** 			3, 3, 3, 3, 4, 4, 4, 4, 5, 5, 5, 5, 0, 99, 99
 836:/home/simulink/cFS_FreeRTOS_seL4/cfe/fsw/cfe-core/src/fs/cfe_fs_decompress.c **** 	};
 837:/home/simulink/cFS_FreeRTOS_seL4/cfe/fsw/cfe-core/src/fs/cfe_fs_decompress.c ****  
 838:/home/simulink/cFS_FreeRTOS_seL4/cfe/fsw/cfe-core/src/fs/cfe_fs_decompress.c **** 	/*  Copy offsets for distance codes 0..29 */
 839:/home/simulink/cFS_FreeRTOS_seL4/cfe/fsw/cfe-core/src/fs/cfe_fs_decompress.c **** 	static uint16 cpdist[] = {
 840:/home/simulink/cFS_FreeRTOS_seL4/cfe/fsw/cfe-core/src/fs/cfe_fs_decompress.c **** 		1, 2, 3, 4, 5, 7, 9, 13, 17, 25, 33, 49, 65, 97, 129, 193,
 841:/home/simulink/cFS_FreeRTOS_seL4/cfe/fsw/cfe-core/src/fs/cfe_fs_decompress.c **** 			257, 385, 513, 769, 1025, 1537, 2049, 3073, 4097, 6145,
 842:/home/simulink/cFS_FreeRTOS_seL4/cfe/fsw/cfe-core/src/fs/cfe_fs_decompress.c **** 			8193, 12289, 16385, 24577
 843:/home/simulink/cFS_FreeRTOS_seL4/cfe/fsw/cfe-core/src/fs/cfe_fs_decompress.c **** 	};
 844:/home/simulink/cFS_FreeRTOS_seL4/cfe/fsw/cfe-core/src/fs/cfe_fs_decompress.c **** 
 845:/home/simulink/cFS_FreeRTOS_seL4/cfe/fsw/cfe-core/src/fs/cfe_fs_decompress.c **** 	/*  Extra bits for distance codes */
 846:/home/simulink/cFS_FreeRTOS_seL4/cfe/fsw/cfe-core/src/fs/cfe_fs_decompress.c **** 	static uint16 cpdext[] = {
 847:/home/simulink/cFS_FreeRTOS_seL4/cfe/fsw/cfe-core/src/fs/cfe_fs_decompress.c **** 		0, 0, 0, 0, 1, 1, 2, 2, 3, 3, 4, 4, 5, 5, 6, 6,
 848:/home/simulink/cFS_FreeRTOS_seL4/cfe/fsw/cfe-core/src/fs/cfe_fs_decompress.c **** 			7, 7, 8, 8, 9, 9, 10, 10, 11, 11, 12, 12, 13, 13
 849:/home/simulink/cFS_FreeRTOS_seL4/cfe/fsw/cfe-core/src/fs/cfe_fs_decompress.c **** 	};
 850:/home/simulink/cFS_FreeRTOS_seL4/cfe/fsw/cfe-core/src/fs/cfe_fs_decompress.c **** 
 851:/home/simulink/cFS_FreeRTOS_seL4/cfe/fsw/cfe-core/src/fs/cfe_fs_decompress.c **** 	static uint16 mask_bits[] = {
 852:/home/simulink/cFS_FreeRTOS_seL4/cfe/fsw/cfe-core/src/fs/cfe_fs_decompress.c **** 		0x0000,
 853:/home/simulink/cFS_FreeRTOS_seL4/cfe/fsw/cfe-core/src/fs/cfe_fs_decompress.c **** 			0x0001, 0x0003, 0x0007, 0x000f, 0x001f, 0x003f, 0x007f, 0x00ff,
 854:/home/simulink/cFS_FreeRTOS_seL4/cfe/fsw/cfe-core/src/fs/cfe_fs_decompress.c **** 			0x01ff, 0x03ff, 0x07ff, 0x0fff, 0x1fff, 0x3fff, 0x7fff, 0xffff
 855:/home/simulink/cFS_FreeRTOS_seL4/cfe/fsw/cfe-core/src/fs/cfe_fs_decompress.c **** 	};
 856:/home/simulink/cFS_FreeRTOS_seL4/cfe/fsw/cfe-core/src/fs/cfe_fs_decompress.c **** 
 857:/home/simulink/cFS_FreeRTOS_seL4/cfe/fsw/cfe-core/src/fs/cfe_fs_decompress.c **** 
 858:/home/simulink/cFS_FreeRTOS_seL4/cfe/fsw/cfe-core/src/fs/cfe_fs_decompress.c **** 	int32      i;               /* temporary variables                      */
 859:/home/simulink/cFS_FreeRTOS_seL4/cfe/fsw/cfe-core/src/fs/cfe_fs_decompress.c **** 	uint32     j;
 860:/home/simulink/cFS_FreeRTOS_seL4/cfe/fsw/cfe-core/src/fs/cfe_fs_decompress.c **** 	uint32     l;               /* last length                              */
 861:/home/simulink/cFS_FreeRTOS_seL4/cfe/fsw/cfe-core/src/fs/cfe_fs_decompress.c **** 	uint32     m;               /* mask for bit lengths table               */
 862:/home/simulink/cFS_FreeRTOS_seL4/cfe/fsw/cfe-core/src/fs/cfe_fs_decompress.c **** 	uint32     n;               /* number of lengths to get                 */
 863:/home/simulink/cFS_FreeRTOS_seL4/cfe/fsw/cfe-core/src/fs/cfe_fs_decompress.c **** 	HufTable  *tl;              /* literal/length code table                */
 864:/home/simulink/cFS_FreeRTOS_seL4/cfe/fsw/cfe-core/src/fs/cfe_fs_decompress.c **** 	HufTable  *td;              /* distance code table                      */
 865:/home/simulink/cFS_FreeRTOS_seL4/cfe/fsw/cfe-core/src/fs/cfe_fs_decompress.c **** 	int32      bl;              /* lookup bits for tl                       */
 866:/home/simulink/cFS_FreeRTOS_seL4/cfe/fsw/cfe-core/src/fs/cfe_fs_decompress.c **** 	int32      bd;              /* lookup bits for td                       */
68K GAS   			page 73


 867:/home/simulink/cFS_FreeRTOS_seL4/cfe/fsw/cfe-core/src/fs/cfe_fs_decompress.c **** 	uint32     nb;              /* number of bit length codes               */
 868:/home/simulink/cFS_FreeRTOS_seL4/cfe/fsw/cfe-core/src/fs/cfe_fs_decompress.c **** 	uint32     nl;              /* number of literal/length codes           */
 869:/home/simulink/cFS_FreeRTOS_seL4/cfe/fsw/cfe-core/src/fs/cfe_fs_decompress.c **** 	uint32     nd;              /* number of distance codes                 */
 870:/home/simulink/cFS_FreeRTOS_seL4/cfe/fsw/cfe-core/src/fs/cfe_fs_decompress.c **** 	uint32     ll[286 + 30];    /* literal/length and distance code lengths */
 871:/home/simulink/cFS_FreeRTOS_seL4/cfe/fsw/cfe-core/src/fs/cfe_fs_decompress.c **** 
 872:/home/simulink/cFS_FreeRTOS_seL4/cfe/fsw/cfe-core/src/fs/cfe_fs_decompress.c **** 	uint32     b;               /* bit buffer                   */
 873:/home/simulink/cFS_FreeRTOS_seL4/cfe/fsw/cfe-core/src/fs/cfe_fs_decompress.c **** 	uint32     k;               /* number of bits in bit buffer */
 874:/home/simulink/cFS_FreeRTOS_seL4/cfe/fsw/cfe-core/src/fs/cfe_fs_decompress.c **** 
 875:/home/simulink/cFS_FreeRTOS_seL4/cfe/fsw/cfe-core/src/fs/cfe_fs_decompress.c **** 	int32 error_code;
 876:/home/simulink/cFS_FreeRTOS_seL4/cfe/fsw/cfe-core/src/fs/cfe_fs_decompress.c **** 
 877:/home/simulink/cFS_FreeRTOS_seL4/cfe/fsw/cfe-core/src/fs/cfe_fs_decompress.c **** 	/*  make local bit buffer */
 878:/home/simulink/cFS_FreeRTOS_seL4/cfe/fsw/cfe-core/src/fs/cfe_fs_decompress.c **** 	b = State->bb;
 2986               	.loc 1 878 0
 2987 1a9e 206F 0530 	move.l 1328(%sp),%a0
 2988 1aa2 2F68 0008 	move.l 8(%a0),1308(%sp)
 2988      051C 
 879:/home/simulink/cFS_FreeRTOS_seL4/cfe/fsw/cfe-core/src/fs/cfe_fs_decompress.c **** 	k = State->bk;
 2989               	.loc 1 879 0
 2990 1aa8 206F 0530 	move.l 1328(%sp),%a0
 2991 1aac 2F68 000C 	move.l 12(%a0),1304(%sp)
 2991      0518 
 880:/home/simulink/cFS_FreeRTOS_seL4/cfe/fsw/cfe-core/src/fs/cfe_fs_decompress.c **** 
 881:/home/simulink/cFS_FreeRTOS_seL4/cfe/fsw/cfe-core/src/fs/cfe_fs_decompress.c **** 	/*  read in table lengths */ 
 882:/home/simulink/cFS_FreeRTOS_seL4/cfe/fsw/cfe-core/src/fs/cfe_fs_decompress.c **** 	NEEDBITS(5);
 2992               	.loc 1 882 0
 2993 1ab2 6076      	jra .L227
 2994               	.L232:
 2995               	.loc 1 882 0 is_stmt 0 discriminator 8
 2996 1ab4 206F 0530 	move.l 1328(%sp),%a0
 2997 1ab8 2228 0018 	move.l 24(%a0),%d1
 2998 1abc 206F 0530 	move.l 1328(%sp),%a0
 2999 1ac0 2028 0014 	move.l 20(%a0),%d0
 3000 1ac4 B081      	cmp.l %d1,%d0
 3001 1ac6 6326      	jls .L228
 3002               	.loc 1 882 0 discriminator 1
 3003 1ac8 206F 0530 	move.l 1328(%sp),%a0
 3004 1acc 2028 0018 	move.l 24(%a0),%d0
 3005 1ad0 2200      	move.l %d0,%d1
 3006 1ad2 5281      	addq.l #1,%d1
 3007 1ad4 206F 0530 	move.l 1328(%sp),%a0
 3008 1ad8 2141 0018 	move.l %d1,24(%a0)
 3009 1adc 206F 0530 	move.l 1328(%sp),%a0
 3010 1ae0 1030 0828 	move.b 40(%a0,%d0.l),%d0
 3011 1ae4 1000      	move.b %d0,%d0
 3012 1ae6 0280 0000 	and.l #255,%d0
 3012      00FF 
 3013 1aec 6016      	jra .L229
 3014               	.L228:
 3015               	.loc 1 882 0 discriminator 2
 3016 1aee 2F2F 0530 	move.l 1328(%sp),-(%sp)
 3017               	.cfi_def_cfa_offset 1332
 3018 1af2 4EB9 0000 	jsr FS_gz_fill_inbuf_Reentrant
 3018      0000 
 3019 1af8 588F      	addq.l #4,%sp
 3020               	.cfi_def_cfa_offset 1328
 3021 1afa 1000      	move.b %d0,%d0
 3022 1afc 1000      	move.b %d0,%d0
68K GAS   			page 74


 3023 1afe 0280 0000 	and.l #255,%d0
 3023      00FF 
 3024               	.L229:
 3025               	.loc 1 882 0 discriminator 4
 3026 1b04 222F 0518 	move.l 1304(%sp),%d1
 3027 1b08 E3A8      	lsl.l %d1,%d0
 3028 1b0a 81AF 051C 	or.l %d0,1308(%sp)
 3029 1b0e 206F 0530 	move.l 1328(%sp),%a0
 3030 1b12 2028 0024 	move.l 36(%a0),%d0
 3031 1b16 4A80      	tst.l %d0
 3032 1b18 670C      	jeq .L230
 3033               	.loc 1 882 0 discriminator 5
 3034 1b1a 206F 0530 	move.l 1328(%sp),%a0
 3035 1b1e 2028 0024 	move.l 36(%a0),%d0
 3036 1b22 6000 0806 	jra .L291
 3037               	.L230:
 3038               	.loc 1 882 0 discriminator 6
 3039 1b26 50AF 0518 	addq.l #8,1304(%sp)
 3040               	.L227:
 3041               	.loc 1 882 0 discriminator 7
 3042 1b2a 7004      	moveq #4,%d0
 3043 1b2c B0AF 0518 	cmp.l 1304(%sp),%d0
 3044 1b30 6482      	jcc .L232
 883:/home/simulink/cFS_FreeRTOS_seL4/cfe/fsw/cfe-core/src/fs/cfe_fs_decompress.c **** 	nl = 257 + ((uint32)b & 0x1f);	/* number of literal/length codes */
 3045               	.loc 1 883 0 is_stmt 1
 3046 1b32 701F      	moveq #31,%d0
 3047 1b34 C0AF 051C 	and.l 1308(%sp),%d0
 3048 1b38 2040      	move.l %d0,%a0
 3049 1b3a 41E8 0101 	lea (257,%a0),%a0
 3050 1b3e 2F48 0514 	move.l %a0,1300(%sp)
 884:/home/simulink/cFS_FreeRTOS_seL4/cfe/fsw/cfe-core/src/fs/cfe_fs_decompress.c **** 	DUMPBITS(5);
 3051               	.loc 1 884 0
 3052 1b42 202F 051C 	move.l 1308(%sp),%d0
 3053 1b46 EA88      	lsr.l #5,%d0
 3054 1b48 2F40 051C 	move.l %d0,1308(%sp)
 3055 1b4c 5BAF 0518 	subq.l #5,1304(%sp)
 885:/home/simulink/cFS_FreeRTOS_seL4/cfe/fsw/cfe-core/src/fs/cfe_fs_decompress.c **** 
 886:/home/simulink/cFS_FreeRTOS_seL4/cfe/fsw/cfe-core/src/fs/cfe_fs_decompress.c **** 	NEEDBITS(5);
 3056               	.loc 1 886 0
 3057 1b50 6076      	jra .L233
 3058               	.L237:
 3059               	.loc 1 886 0 is_stmt 0 discriminator 8
 3060 1b52 206F 0530 	move.l 1328(%sp),%a0
 3061 1b56 2228 0018 	move.l 24(%a0),%d1
 3062 1b5a 206F 0530 	move.l 1328(%sp),%a0
 3063 1b5e 2028 0014 	move.l 20(%a0),%d0
 3064 1b62 B081      	cmp.l %d1,%d0
 3065 1b64 6326      	jls .L234
 3066               	.loc 1 886 0 discriminator 1
 3067 1b66 206F 0530 	move.l 1328(%sp),%a0
 3068 1b6a 2028 0018 	move.l 24(%a0),%d0
 3069 1b6e 2200      	move.l %d0,%d1
 3070 1b70 5281      	addq.l #1,%d1
 3071 1b72 206F 0530 	move.l 1328(%sp),%a0
 3072 1b76 2141 0018 	move.l %d1,24(%a0)
 3073 1b7a 206F 0530 	move.l 1328(%sp),%a0
 3074 1b7e 1030 0828 	move.b 40(%a0,%d0.l),%d0
68K GAS   			page 75


 3075 1b82 1000      	move.b %d0,%d0
 3076 1b84 0280 0000 	and.l #255,%d0
 3076      00FF 
 3077 1b8a 6016      	jra .L235
 3078               	.L234:
 3079               	.loc 1 886 0 discriminator 2
 3080 1b8c 2F2F 0530 	move.l 1328(%sp),-(%sp)
 3081               	.cfi_def_cfa_offset 1332
 3082 1b90 4EB9 0000 	jsr FS_gz_fill_inbuf_Reentrant
 3082      0000 
 3083 1b96 588F      	addq.l #4,%sp
 3084               	.cfi_def_cfa_offset 1328
 3085 1b98 1000      	move.b %d0,%d0
 3086 1b9a 1000      	move.b %d0,%d0
 3087 1b9c 0280 0000 	and.l #255,%d0
 3087      00FF 
 3088               	.L235:
 3089               	.loc 1 886 0 discriminator 4
 3090 1ba2 222F 0518 	move.l 1304(%sp),%d1
 3091 1ba6 E3A8      	lsl.l %d1,%d0
 3092 1ba8 81AF 051C 	or.l %d0,1308(%sp)
 3093 1bac 206F 0530 	move.l 1328(%sp),%a0
 3094 1bb0 2028 0024 	move.l 36(%a0),%d0
 3095 1bb4 4A80      	tst.l %d0
 3096 1bb6 670C      	jeq .L236
 3097               	.loc 1 886 0 discriminator 5
 3098 1bb8 206F 0530 	move.l 1328(%sp),%a0
 3099 1bbc 2028 0024 	move.l 36(%a0),%d0
 3100 1bc0 6000 0768 	jra .L291
 3101               	.L236:
 3102               	.loc 1 886 0 discriminator 6
 3103 1bc4 50AF 0518 	addq.l #8,1304(%sp)
 3104               	.L233:
 3105               	.loc 1 886 0 discriminator 7
 3106 1bc8 7004      	moveq #4,%d0
 3107 1bca B0AF 0518 	cmp.l 1304(%sp),%d0
 3108 1bce 6482      	jcc .L237
 887:/home/simulink/cFS_FreeRTOS_seL4/cfe/fsw/cfe-core/src/fs/cfe_fs_decompress.c **** 	nd = 1 + ((uint32) b & 0x1f);	/* number of distance codes */
 3109               	.loc 1 887 0 is_stmt 1
 3110 1bd0 701F      	moveq #31,%d0
 3111 1bd2 C0AF 051C 	and.l 1308(%sp),%d0
 3112 1bd6 2200      	move.l %d0,%d1
 3113 1bd8 5281      	addq.l #1,%d1
 3114 1bda 2F41 0510 	move.l %d1,1296(%sp)
 888:/home/simulink/cFS_FreeRTOS_seL4/cfe/fsw/cfe-core/src/fs/cfe_fs_decompress.c **** 	DUMPBITS(5);
 3115               	.loc 1 888 0
 3116 1bde 202F 051C 	move.l 1308(%sp),%d0
 3117 1be2 EA88      	lsr.l #5,%d0
 3118 1be4 2F40 051C 	move.l %d0,1308(%sp)
 3119 1be8 5BAF 0518 	subq.l #5,1304(%sp)
 889:/home/simulink/cFS_FreeRTOS_seL4/cfe/fsw/cfe-core/src/fs/cfe_fs_decompress.c **** 
 890:/home/simulink/cFS_FreeRTOS_seL4/cfe/fsw/cfe-core/src/fs/cfe_fs_decompress.c **** 	NEEDBITS(4);
 3120               	.loc 1 890 0
 3121 1bec 6076      	jra .L238
 3122               	.L242:
 3123               	.loc 1 890 0 is_stmt 0 discriminator 8
 3124 1bee 206F 0530 	move.l 1328(%sp),%a0
68K GAS   			page 76


 3125 1bf2 2228 0018 	move.l 24(%a0),%d1
 3126 1bf6 206F 0530 	move.l 1328(%sp),%a0
 3127 1bfa 2028 0014 	move.l 20(%a0),%d0
 3128 1bfe B081      	cmp.l %d1,%d0
 3129 1c00 6326      	jls .L239
 3130               	.loc 1 890 0 discriminator 1
 3131 1c02 206F 0530 	move.l 1328(%sp),%a0
 3132 1c06 2028 0018 	move.l 24(%a0),%d0
 3133 1c0a 2200      	move.l %d0,%d1
 3134 1c0c 5281      	addq.l #1,%d1
 3135 1c0e 206F 0530 	move.l 1328(%sp),%a0
 3136 1c12 2141 0018 	move.l %d1,24(%a0)
 3137 1c16 206F 0530 	move.l 1328(%sp),%a0
 3138 1c1a 1030 0828 	move.b 40(%a0,%d0.l),%d0
 3139 1c1e 1000      	move.b %d0,%d0
 3140 1c20 0280 0000 	and.l #255,%d0
 3140      00FF 
 3141 1c26 6016      	jra .L240
 3142               	.L239:
 3143               	.loc 1 890 0 discriminator 2
 3144 1c28 2F2F 0530 	move.l 1328(%sp),-(%sp)
 3145               	.cfi_def_cfa_offset 1332
 3146 1c2c 4EB9 0000 	jsr FS_gz_fill_inbuf_Reentrant
 3146      0000 
 3147 1c32 588F      	addq.l #4,%sp
 3148               	.cfi_def_cfa_offset 1328
 3149 1c34 1000      	move.b %d0,%d0
 3150 1c36 1000      	move.b %d0,%d0
 3151 1c38 0280 0000 	and.l #255,%d0
 3151      00FF 
 3152               	.L240:
 3153               	.loc 1 890 0 discriminator 4
 3154 1c3e 222F 0518 	move.l 1304(%sp),%d1
 3155 1c42 E3A8      	lsl.l %d1,%d0
 3156 1c44 81AF 051C 	or.l %d0,1308(%sp)
 3157 1c48 206F 0530 	move.l 1328(%sp),%a0
 3158 1c4c 2028 0024 	move.l 36(%a0),%d0
 3159 1c50 4A80      	tst.l %d0
 3160 1c52 670C      	jeq .L241
 3161               	.loc 1 890 0 discriminator 5
 3162 1c54 206F 0530 	move.l 1328(%sp),%a0
 3163 1c58 2028 0024 	move.l 36(%a0),%d0
 3164 1c5c 6000 06CC 	jra .L291
 3165               	.L241:
 3166               	.loc 1 890 0 discriminator 6
 3167 1c60 50AF 0518 	addq.l #8,1304(%sp)
 3168               	.L238:
 3169               	.loc 1 890 0 discriminator 7
 3170 1c64 7003      	moveq #3,%d0
 3171 1c66 B0AF 0518 	cmp.l 1304(%sp),%d0
 3172 1c6a 6482      	jcc .L242
 891:/home/simulink/cFS_FreeRTOS_seL4/cfe/fsw/cfe-core/src/fs/cfe_fs_decompress.c **** 	nb = 4 + ((uint32) b & 0xf);	/* number of bit length codes */
 3173               	.loc 1 891 0 is_stmt 1
 3174 1c6c 700F      	moveq #15,%d0
 3175 1c6e C0AF 051C 	and.l 1308(%sp),%d0
 3176 1c72 2200      	move.l %d0,%d1
 3177 1c74 5881      	addq.l #4,%d1
68K GAS   			page 77


 3178 1c76 2F41 050C 	move.l %d1,1292(%sp)
 892:/home/simulink/cFS_FreeRTOS_seL4/cfe/fsw/cfe-core/src/fs/cfe_fs_decompress.c **** 	DUMPBITS(4);
 3179               	.loc 1 892 0
 3180 1c7a 202F 051C 	move.l 1308(%sp),%d0
 3181 1c7e E888      	lsr.l #4,%d0
 3182 1c80 2F40 051C 	move.l %d0,1308(%sp)
 3183 1c84 59AF 0518 	subq.l #4,1304(%sp)
 893:/home/simulink/cFS_FreeRTOS_seL4/cfe/fsw/cfe-core/src/fs/cfe_fs_decompress.c **** 
 894:/home/simulink/cFS_FreeRTOS_seL4/cfe/fsw/cfe-core/src/fs/cfe_fs_decompress.c **** 	if (nl > 286 || nd > 30)  return CFE_FS_GZIP_BAD_DATA;				/* bad lengths */
 3184               	.loc 1 894 0
 3185 1c88 307C 011E 	move.w #286,%a0
 3186 1c8c B1EF 0514 	cmp.l 1300(%sp),%a0
 3187 1c90 6508      	jcs .L243
 3188               	.loc 1 894 0 is_stmt 0 discriminator 2
 3189 1c92 701E      	moveq #30,%d0
 3190 1c94 B0AF 0510 	cmp.l 1296(%sp),%d0
 3191 1c98 640A      	jcc .L244
 3192               	.L243:
 3193               	.loc 1 894 0 discriminator 3
 3194 1c9a 203C C600 	move.l #-973078524,%d0
 3194      0004 
 3195 1ca0 6000 0688 	jra .L291
 3196               	.L244:
 895:/home/simulink/cFS_FreeRTOS_seL4/cfe/fsw/cfe-core/src/fs/cfe_fs_decompress.c **** 
 896:/home/simulink/cFS_FreeRTOS_seL4/cfe/fsw/cfe-core/src/fs/cfe_fs_decompress.c **** 	/*  read in bit-length-code lengths */
 897:/home/simulink/cFS_FreeRTOS_seL4/cfe/fsw/cfe-core/src/fs/cfe_fs_decompress.c **** 	for (j = 0; j < nb; j++) {
 3197               	.loc 1 897 0 is_stmt 1
 3198 1ca4 42AF 0524 	clr.l 1316(%sp)
 3199 1ca8 6000 00B6 	jra .L245
 3200               	.L250:
 898:/home/simulink/cFS_FreeRTOS_seL4/cfe/fsw/cfe-core/src/fs/cfe_fs_decompress.c **** 		NEEDBITS(3);
 3201               	.loc 1 898 0 discriminator 8
 3202 1cac 206F 0530 	move.l 1328(%sp),%a0
 3203 1cb0 2228 0018 	move.l 24(%a0),%d1
 3204 1cb4 206F 0530 	move.l 1328(%sp),%a0
 3205 1cb8 2028 0014 	move.l 20(%a0),%d0
 3206 1cbc B081      	cmp.l %d1,%d0
 3207 1cbe 6326      	jls .L247
 3208               	.loc 1 898 0 is_stmt 0 discriminator 1
 3209 1cc0 206F 0530 	move.l 1328(%sp),%a0
 3210 1cc4 2028 0018 	move.l 24(%a0),%d0
 3211 1cc8 2200      	move.l %d0,%d1
 3212 1cca 5281      	addq.l #1,%d1
 3213 1ccc 206F 0530 	move.l 1328(%sp),%a0
 3214 1cd0 2141 0018 	move.l %d1,24(%a0)
 3215 1cd4 206F 0530 	move.l 1328(%sp),%a0
 3216 1cd8 1030 0828 	move.b 40(%a0,%d0.l),%d0
 3217 1cdc 1000      	move.b %d0,%d0
 3218 1cde 0280 0000 	and.l #255,%d0
 3218      00FF 
 3219 1ce4 6016      	jra .L248
 3220               	.L247:
 3221               	.loc 1 898 0 discriminator 2
 3222 1ce6 2F2F 0530 	move.l 1328(%sp),-(%sp)
 3223               	.cfi_def_cfa_offset 1332
 3224 1cea 4EB9 0000 	jsr FS_gz_fill_inbuf_Reentrant
 3224      0000 
68K GAS   			page 78


 3225 1cf0 588F      	addq.l #4,%sp
 3226               	.cfi_def_cfa_offset 1328
 3227 1cf2 1000      	move.b %d0,%d0
 3228 1cf4 1000      	move.b %d0,%d0
 3229 1cf6 0280 0000 	and.l #255,%d0
 3229      00FF 
 3230               	.L248:
 3231               	.loc 1 898 0 discriminator 4
 3232 1cfc 222F 0518 	move.l 1304(%sp),%d1
 3233 1d00 E3A8      	lsl.l %d1,%d0
 3234 1d02 81AF 051C 	or.l %d0,1308(%sp)
 3235 1d06 206F 0530 	move.l 1328(%sp),%a0
 3236 1d0a 2028 0024 	move.l 36(%a0),%d0
 3237 1d0e 4A80      	tst.l %d0
 3238 1d10 670C      	jeq .L249
 3239               	.loc 1 898 0 discriminator 5
 3240 1d12 206F 0530 	move.l 1328(%sp),%a0
 3241 1d16 2028 0024 	move.l 36(%a0),%d0
 3242 1d1a 6000 060E 	jra .L291
 3243               	.L249:
 3244               	.loc 1 898 0 discriminator 6
 3245 1d1e 50AF 0518 	addq.l #8,1304(%sp)
 3246               	.L246:
 3247               	.loc 1 898 0 discriminator 7
 3248 1d22 7002      	moveq #2,%d0
 3249 1d24 B0AF 0518 	cmp.l 1304(%sp),%d0
 3250 1d28 6482      	jcc .L250
 899:/home/simulink/cFS_FreeRTOS_seL4/cfe/fsw/cfe-core/src/fs/cfe_fs_decompress.c **** 			ll[border[j]] = (uint32)b & 7;
 3251               	.loc 1 899 0 is_stmt 1 discriminator 2
 3252 1d2a 202F 0524 	move.l 1316(%sp),%d0
 3253 1d2e E588      	lsl.l #2,%d0
 3254 1d30 41F9 0000 	lea border.5797,%a0
 3254      0000 
 3255 1d36 2030 0800 	move.l (%a0,%d0.l),%d0
 3256 1d3a 7207      	moveq #7,%d1
 3257 1d3c C2AF 051C 	and.l 1308(%sp),%d1
 3258 1d40 E588      	lsl.l #2,%d0
 3259 1d42 41EF 052C 	lea (1324,%sp),%a0
 3260 1d46 D088      	add.l %a0,%d0
 3261 1d48 2240      	move.l %d0,%a1
 3262 1d4a 2341 FAD4 	move.l %d1,-1324(%a1)
 900:/home/simulink/cFS_FreeRTOS_seL4/cfe/fsw/cfe-core/src/fs/cfe_fs_decompress.c **** 		DUMPBITS(3);
 3263               	.loc 1 900 0 discriminator 2
 3264 1d4e 202F 051C 	move.l 1308(%sp),%d0
 3265 1d52 E688      	lsr.l #3,%d0
 3266 1d54 2F40 051C 	move.l %d0,1308(%sp)
 3267 1d58 57AF 0518 	subq.l #3,1304(%sp)
 897:/home/simulink/cFS_FreeRTOS_seL4/cfe/fsw/cfe-core/src/fs/cfe_fs_decompress.c **** 		NEEDBITS(3);
 3268               	.loc 1 897 0 discriminator 2
 3269 1d5c 52AF 0524 	addq.l #1,1316(%sp)
 3270               	.L245:
 897:/home/simulink/cFS_FreeRTOS_seL4/cfe/fsw/cfe-core/src/fs/cfe_fs_decompress.c **** 		NEEDBITS(3);
 3271               	.loc 1 897 0 is_stmt 0 discriminator 1
 3272 1d60 202F 050C 	move.l 1292(%sp),%d0
 3273 1d64 B0AF 0524 	cmp.l 1316(%sp),%d0
 3274 1d68 62B8      	jhi .L246
 901:/home/simulink/cFS_FreeRTOS_seL4/cfe/fsw/cfe-core/src/fs/cfe_fs_decompress.c **** 	}
68K GAS   			page 79


 902:/home/simulink/cFS_FreeRTOS_seL4/cfe/fsw/cfe-core/src/fs/cfe_fs_decompress.c **** 	for (; j < 19; j++) ll[border[j]] = 0;
 3275               	.loc 1 902 0 is_stmt 1
 3276 1d6a 6026      	jra .L252
 3277               	.L253:
 3278               	.loc 1 902 0 is_stmt 0 discriminator 2
 3279 1d6c 202F 0524 	move.l 1316(%sp),%d0
 3280 1d70 E588      	lsl.l #2,%d0
 3281 1d72 41F9 0000 	lea border.5797,%a0
 3281      0000 
 3282 1d78 2030 0800 	move.l (%a0,%d0.l),%d0
 3283 1d7c E588      	lsl.l #2,%d0
 3284 1d7e 223C 0000 	move.l #1324,%d1
 3284      052C 
 3285 1d84 D28F      	add.l %sp,%d1
 3286 1d86 D081      	add.l %d1,%d0
 3287 1d88 2040      	move.l %d0,%a0
 3288 1d8a 42A8 FAD4 	clr.l -1324(%a0)
 3289 1d8e 52AF 0524 	addq.l #1,1316(%sp)
 3290               	.L252:
 3291               	.loc 1 902 0 discriminator 1
 3292 1d92 7012      	moveq #18,%d0
 3293 1d94 B0AF 0524 	cmp.l 1316(%sp),%d0
 3294 1d98 64D2      	jcc .L253
 903:/home/simulink/cFS_FreeRTOS_seL4/cfe/fsw/cfe-core/src/fs/cfe_fs_decompress.c **** 
 904:/home/simulink/cFS_FreeRTOS_seL4/cfe/fsw/cfe-core/src/fs/cfe_fs_decompress.c **** 	/*  build decoding table for trees--single level, 7 bit lookup  */
 905:/home/simulink/cFS_FreeRTOS_seL4/cfe/fsw/cfe-core/src/fs/cfe_fs_decompress.c **** 	bl = 7;
 3295               	.loc 1 905 0 is_stmt 1
 3296 1d9a 7207      	moveq #7,%d1
 3297 1d9c 2F41 04F4 	move.l %d1,1268(%sp)
 906:/home/simulink/cFS_FreeRTOS_seL4/cfe/fsw/cfe-core/src/fs/cfe_fs_decompress.c **** 	State->hufts = 0;             /* initialize Huff Table memory */
 3298               	.loc 1 906 0
 3299 1da0 206F 0530 	move.l 1328(%sp),%a0
 3300 1da4 203C 0001 	move.l #116840,%d0
 3300      C868 
 3301 1daa 42B0 0800 	clr.l (%a0,%d0.l)
 907:/home/simulink/cFS_FreeRTOS_seL4/cfe/fsw/cfe-core/src/fs/cfe_fs_decompress.c **** 	tl = &State->hufTable[1];        /* set known position given alloc removed - glw */
 3302               	.loc 1 907 0
 3303 1dae 206F 0530 	move.l 1328(%sp),%a0
 3304 1db2 D1FC 0001 	add.l #116854,%a0
 3304      C876 
 3305 1db8 2F48 0508 	move.l %a0,1288(%sp)
 908:/home/simulink/cFS_FreeRTOS_seL4/cfe/fsw/cfe-core/src/fs/cfe_fs_decompress.c **** 	error_code = FS_gz_huft_build_Reentrant(State, ll, 19, 19, (uint16 *)NULL, (uint16 *)NULL, &bl );
 3306               	.loc 1 908 0
 3307 1dbc 200F      	move.l %sp,%d0
 3308 1dbe 0680 0000 	add.l #1268,%d0
 3308      04F4 
 3309 1dc4 2F00      	move.l %d0,-(%sp)
 3310               	.cfi_def_cfa_offset 1332
 3311 1dc6 42A7      	clr.l -(%sp)
 3312               	.cfi_def_cfa_offset 1336
 3313 1dc8 42A7      	clr.l -(%sp)
 3314               	.cfi_def_cfa_offset 1340
 3315 1dca 4878 0013 	pea 19.w
 3316               	.cfi_def_cfa_offset 1344
 3317 1dce 4878 0013 	pea 19.w
 3318               	.cfi_def_cfa_offset 1348
 3319 1dd2 200F      	move.l %sp,%d0
68K GAS   			page 80


 3320 1dd4 0680 0000 	add.l #20,%d0
 3320      0014 
 3321 1dda 2F00      	move.l %d0,-(%sp)
 3322               	.cfi_def_cfa_offset 1352
 3323 1ddc 2F2F 0548 	move.l 1352(%sp),-(%sp)
 3324               	.cfi_def_cfa_offset 1356
 3325 1de0 4EB9 0000 	jsr FS_gz_huft_build_Reentrant
 3325      0000 
 3326 1de6 4FEF 001C 	lea (28,%sp),%sp
 3327               	.cfi_def_cfa_offset 1328
 3328 1dea 2F40 0504 	move.l %d0,1284(%sp)
 909:/home/simulink/cFS_FreeRTOS_seL4/cfe/fsw/cfe-core/src/fs/cfe_fs_decompress.c **** 	if ( error_code != CFE_SUCCESS )  return error_code; 
 3329               	.loc 1 909 0
 3330 1dee 4AAF 0504 	tst.l 1284(%sp)
 3331 1df2 6708      	jeq .L254
 3332               	.loc 1 909 0 is_stmt 0 discriminator 1
 3333 1df4 202F 0504 	move.l 1284(%sp),%d0
 3334 1df8 6000 0530 	jra .L291
 3335               	.L254:
 910:/home/simulink/cFS_FreeRTOS_seL4/cfe/fsw/cfe-core/src/fs/cfe_fs_decompress.c **** 
 911:/home/simulink/cFS_FreeRTOS_seL4/cfe/fsw/cfe-core/src/fs/cfe_fs_decompress.c **** 	/*  read in literal and distance code lengths */
 912:/home/simulink/cFS_FreeRTOS_seL4/cfe/fsw/cfe-core/src/fs/cfe_fs_decompress.c **** 	n = nl + nd;
 3336               	.loc 1 912 0 is_stmt 1
 3337 1dfc 226F 0514 	move.l 1300(%sp),%a1
 3338 1e00 D3EF 0510 	add.l 1296(%sp),%a1
 3339 1e04 2F49 0500 	move.l %a1,1280(%sp)
 913:/home/simulink/cFS_FreeRTOS_seL4/cfe/fsw/cfe-core/src/fs/cfe_fs_decompress.c **** 	m = mask_bits[bl];
 3340               	.loc 1 913 0
 3341 1e08 202F 04F4 	move.l 1268(%sp),%d0
 3342 1e0c D080      	add.l %d0,%d0
 3343 1e0e 41F9 0000 	lea mask_bits.5802,%a0
 3343      0000 
 3344 1e14 3030 0800 	move.w (%a0,%d0.l),%d0
 3345 1e18 3000      	move.w %d0,%d0
 3346 1e1a 0280 0000 	and.l #65535,%d0
 3346      FFFF 
 3347 1e20 2F40 04FC 	move.l %d0,1276(%sp)
 914:/home/simulink/cFS_FreeRTOS_seL4/cfe/fsw/cfe-core/src/fs/cfe_fs_decompress.c **** 	i = l = 0;
 3348               	.loc 1 914 0
 3349 1e24 42AF 0520 	clr.l 1312(%sp)
 3350 1e28 42AF 0528 	clr.l 1320(%sp)
 915:/home/simulink/cFS_FreeRTOS_seL4/cfe/fsw/cfe-core/src/fs/cfe_fs_decompress.c **** 	while ( (uint32)i < n ) 
 3351               	.loc 1 915 0
 3352 1e2c 6000 03CE 	jra .L255
 3353               	.L260:
 916:/home/simulink/cFS_FreeRTOS_seL4/cfe/fsw/cfe-core/src/fs/cfe_fs_decompress.c ****    {
 917:/home/simulink/cFS_FreeRTOS_seL4/cfe/fsw/cfe-core/src/fs/cfe_fs_decompress.c **** 		NEEDBITS((uint32)bl);
 3354               	.loc 1 917 0 discriminator 8
 3355 1e30 206F 0530 	move.l 1328(%sp),%a0
 3356 1e34 2228 0018 	move.l 24(%a0),%d1
 3357 1e38 206F 0530 	move.l 1328(%sp),%a0
 3358 1e3c 2028 0014 	move.l 20(%a0),%d0
 3359 1e40 B081      	cmp.l %d1,%d0
 3360 1e42 6326      	jls .L257
 3361               	.loc 1 917 0 is_stmt 0 discriminator 1
 3362 1e44 206F 0530 	move.l 1328(%sp),%a0
 3363 1e48 2028 0018 	move.l 24(%a0),%d0
68K GAS   			page 81


 3364 1e4c 2200      	move.l %d0,%d1
 3365 1e4e 5281      	addq.l #1,%d1
 3366 1e50 206F 0530 	move.l 1328(%sp),%a0
 3367 1e54 2141 0018 	move.l %d1,24(%a0)
 3368 1e58 206F 0530 	move.l 1328(%sp),%a0
 3369 1e5c 1030 0828 	move.b 40(%a0,%d0.l),%d0
 3370 1e60 1000      	move.b %d0,%d0
 3371 1e62 0280 0000 	and.l #255,%d0
 3371      00FF 
 3372 1e68 6016      	jra .L258
 3373               	.L257:
 3374               	.loc 1 917 0 discriminator 2
 3375 1e6a 2F2F 0530 	move.l 1328(%sp),-(%sp)
 3376               	.cfi_def_cfa_offset 1332
 3377 1e6e 4EB9 0000 	jsr FS_gz_fill_inbuf_Reentrant
 3377      0000 
 3378 1e74 588F      	addq.l #4,%sp
 3379               	.cfi_def_cfa_offset 1328
 3380 1e76 1000      	move.b %d0,%d0
 3381 1e78 1000      	move.b %d0,%d0
 3382 1e7a 0280 0000 	and.l #255,%d0
 3382      00FF 
 3383               	.L258:
 3384               	.loc 1 917 0 discriminator 4
 3385 1e80 222F 0518 	move.l 1304(%sp),%d1
 3386 1e84 E3A8      	lsl.l %d1,%d0
 3387 1e86 81AF 051C 	or.l %d0,1308(%sp)
 3388 1e8a 206F 0530 	move.l 1328(%sp),%a0
 3389 1e8e 2028 0024 	move.l 36(%a0),%d0
 3390 1e92 4A80      	tst.l %d0
 3391 1e94 670C      	jeq .L259
 3392               	.loc 1 917 0 discriminator 5
 3393 1e96 206F 0530 	move.l 1328(%sp),%a0
 3394 1e9a 2028 0024 	move.l 36(%a0),%d0
 3395 1e9e 6000 048A 	jra .L291
 3396               	.L259:
 3397               	.loc 1 917 0 discriminator 6
 3398 1ea2 50AF 0518 	addq.l #8,1304(%sp)
 3399               	.L256:
 3400               	.loc 1 917 0 discriminator 7
 3401 1ea6 202F 04F4 	move.l 1268(%sp),%d0
 3402 1eaa B0AF 0518 	cmp.l 1304(%sp),%d0
 3403 1eae 6280      	jhi .L260
 918:/home/simulink/cFS_FreeRTOS_seL4/cfe/fsw/cfe-core/src/fs/cfe_fs_decompress.c ****       td = tl + ((uint32)b & m);
 3404               	.loc 1 918 0 is_stmt 1
 3405 1eb0 202F 051C 	move.l 1308(%sp),%d0
 3406 1eb4 C0AF 04FC 	and.l 1276(%sp),%d0
 3407 1eb8 7206      	moveq #6,%d1
 3408 1eba 4C01 0800 	muls.l %d1,%d0
 3409 1ebe 206F 0508 	move.l 1288(%sp),%a0
 3410 1ec2 D1C0      	add.l %d0,%a0
 3411 1ec4 2F48 04F8 	move.l %a0,1272(%sp)
 919:/home/simulink/cFS_FreeRTOS_seL4/cfe/fsw/cfe-core/src/fs/cfe_fs_decompress.c **** 		j = td->b;
 3412               	.loc 1 919 0
 3413 1ec8 206F 04F8 	move.l 1272(%sp),%a0
 3414 1ecc 1028 0001 	move.b 1(%a0),%d0
 3415 1ed0 1000      	move.b %d0,%d0
68K GAS   			page 82


 3416 1ed2 0280 0000 	and.l #255,%d0
 3416      00FF 
 3417 1ed8 2F40 0524 	move.l %d0,1316(%sp)
 920:/home/simulink/cFS_FreeRTOS_seL4/cfe/fsw/cfe-core/src/fs/cfe_fs_decompress.c **** 		DUMPBITS(j);
 3418               	.loc 1 920 0
 3419 1edc 202F 051C 	move.l 1308(%sp),%d0
 3420 1ee0 222F 0524 	move.l 1316(%sp),%d1
 3421 1ee4 E2A8      	lsr.l %d1,%d0
 3422 1ee6 2F40 051C 	move.l %d0,1308(%sp)
 3423 1eea 202F 0524 	move.l 1316(%sp),%d0
 3424 1eee 91AF 0518 	sub.l %d0,1304(%sp)
 921:/home/simulink/cFS_FreeRTOS_seL4/cfe/fsw/cfe-core/src/fs/cfe_fs_decompress.c ****       j = td->v.n;
 3425               	.loc 1 921 0
 3426 1ef2 206F 04F8 	move.l 1272(%sp),%a0
 3427 1ef6 3028 0002 	move.w 2(%a0),%d0
 3428 1efa 3000      	move.w %d0,%d0
 3429 1efc 0280 0000 	and.l #65535,%d0
 3429      FFFF 
 3430 1f02 2F40 0524 	move.l %d0,1316(%sp)
 922:/home/simulink/cFS_FreeRTOS_seL4/cfe/fsw/cfe-core/src/fs/cfe_fs_decompress.c **** 		if ( j < 16 ) 
 3431               	.loc 1 922 0
 3432 1f06 720F      	moveq #15,%d1
 3433 1f08 B2AF 0524 	cmp.l 1316(%sp),%d1
 3434 1f0c 6528      	jcs .L261
 923:/home/simulink/cFS_FreeRTOS_seL4/cfe/fsw/cfe-core/src/fs/cfe_fs_decompress.c ****       {            /* length of code in bits (0..15) */
 924:/home/simulink/cFS_FreeRTOS_seL4/cfe/fsw/cfe-core/src/fs/cfe_fs_decompress.c ****          ll[i++] = l = j;         /* save last length in l */
 3435               	.loc 1 924 0
 3436 1f0e 2F6F 0524 	move.l 1316(%sp),1312(%sp)
 3436      0520 
 3437 1f14 202F 0528 	move.l 1320(%sp),%d0
 3438 1f18 2040      	move.l %d0,%a0
 3439 1f1a 5288      	addq.l #1,%a0
 3440 1f1c 2F48 0528 	move.l %a0,1320(%sp)
 3441 1f20 E588      	lsl.l #2,%d0
 3442 1f22 43EF 052C 	lea (1324,%sp),%a1
 3443 1f26 D089      	add.l %a1,%d0
 3444 1f28 43EF 0520 	lea (1312,%sp),%a1
 3445 1f2c 2040      	move.l %d0,%a0
 3446 1f2e 2151 FAD4 	move.l (%a1),-1324(%a0)
 3447 1f32 6000 02C8 	jra .L255
 3448               	.L261:
 925:/home/simulink/cFS_FreeRTOS_seL4/cfe/fsw/cfe-core/src/fs/cfe_fs_decompress.c **** 		} 
 926:/home/simulink/cFS_FreeRTOS_seL4/cfe/fsw/cfe-core/src/fs/cfe_fs_decompress.c ****       else if ( j == 16 ) 
 3449               	.loc 1 926 0
 3450 1f36 7010      	moveq #16,%d0
 3451 1f38 B0AF 0524 	cmp.l 1316(%sp),%d0
 3452 1f3c 6600 00E8 	jne .L262
 927:/home/simulink/cFS_FreeRTOS_seL4/cfe/fsw/cfe-core/src/fs/cfe_fs_decompress.c ****       {    /* repeat last length 3 to 6 times */
 928:/home/simulink/cFS_FreeRTOS_seL4/cfe/fsw/cfe-core/src/fs/cfe_fs_decompress.c ****          NEEDBITS(2);
 3453               	.loc 1 928 0
 3454 1f40 6076      	jra .L263
 3455               	.L267:
 3456               	.loc 1 928 0 is_stmt 0 discriminator 8
 3457 1f42 206F 0530 	move.l 1328(%sp),%a0
 3458 1f46 2228 0018 	move.l 24(%a0),%d1
 3459 1f4a 206F 0530 	move.l 1328(%sp),%a0
 3460 1f4e 2028 0014 	move.l 20(%a0),%d0
68K GAS   			page 83


 3461 1f52 B081      	cmp.l %d1,%d0
 3462 1f54 6326      	jls .L264
 3463               	.loc 1 928 0 discriminator 1
 3464 1f56 206F 0530 	move.l 1328(%sp),%a0
 3465 1f5a 2028 0018 	move.l 24(%a0),%d0
 3466 1f5e 2200      	move.l %d0,%d1
 3467 1f60 5281      	addq.l #1,%d1
 3468 1f62 206F 0530 	move.l 1328(%sp),%a0
 3469 1f66 2141 0018 	move.l %d1,24(%a0)
 3470 1f6a 206F 0530 	move.l 1328(%sp),%a0
 3471 1f6e 1030 0828 	move.b 40(%a0,%d0.l),%d0
 3472 1f72 1000      	move.b %d0,%d0
 3473 1f74 0280 0000 	and.l #255,%d0
 3473      00FF 
 3474 1f7a 6016      	jra .L265
 3475               	.L264:
 3476               	.loc 1 928 0 discriminator 2
 3477 1f7c 2F2F 0530 	move.l 1328(%sp),-(%sp)
 3478               	.cfi_def_cfa_offset 1332
 3479 1f80 4EB9 0000 	jsr FS_gz_fill_inbuf_Reentrant
 3479      0000 
 3480 1f86 588F      	addq.l #4,%sp
 3481               	.cfi_def_cfa_offset 1328
 3482 1f88 1000      	move.b %d0,%d0
 3483 1f8a 1000      	move.b %d0,%d0
 3484 1f8c 0280 0000 	and.l #255,%d0
 3484      00FF 
 3485               	.L265:
 3486               	.loc 1 928 0 discriminator 4
 3487 1f92 222F 0518 	move.l 1304(%sp),%d1
 3488 1f96 E3A8      	lsl.l %d1,%d0
 3489 1f98 81AF 051C 	or.l %d0,1308(%sp)
 3490 1f9c 206F 0530 	move.l 1328(%sp),%a0
 3491 1fa0 2028 0024 	move.l 36(%a0),%d0
 3492 1fa4 4A80      	tst.l %d0
 3493 1fa6 670C      	jeq .L266
 3494               	.loc 1 928 0 discriminator 5
 3495 1fa8 206F 0530 	move.l 1328(%sp),%a0
 3496 1fac 2028 0024 	move.l 36(%a0),%d0
 3497 1fb0 6000 0378 	jra .L291
 3498               	.L266:
 3499               	.loc 1 928 0 discriminator 6
 3500 1fb4 50AF 0518 	addq.l #8,1304(%sp)
 3501               	.L263:
 3502               	.loc 1 928 0 discriminator 7
 3503 1fb8 7001      	moveq #1,%d0
 3504 1fba B0AF 0518 	cmp.l 1304(%sp),%d0
 3505 1fbe 6482      	jcc .L267
 929:/home/simulink/cFS_FreeRTOS_seL4/cfe/fsw/cfe-core/src/fs/cfe_fs_decompress.c ****          j = 3 + ( (uint32)b & 3 );
 3506               	.loc 1 929 0 is_stmt 1
 3507 1fc0 7003      	moveq #3,%d0
 3508 1fc2 C0AF 051C 	and.l 1308(%sp),%d0
 3509 1fc6 2200      	move.l %d0,%d1
 3510 1fc8 5681      	addq.l #3,%d1
 3511 1fca 2F41 0524 	move.l %d1,1316(%sp)
 930:/home/simulink/cFS_FreeRTOS_seL4/cfe/fsw/cfe-core/src/fs/cfe_fs_decompress.c ****          DUMPBITS(2);
 3512               	.loc 1 930 0
68K GAS   			page 84


 3513 1fce 202F 051C 	move.l 1308(%sp),%d0
 3514 1fd2 E488      	lsr.l #2,%d0
 3515 1fd4 2F40 051C 	move.l %d0,1308(%sp)
 3516 1fd8 55AF 0518 	subq.l #2,1304(%sp)
 931:/home/simulink/cFS_FreeRTOS_seL4/cfe/fsw/cfe-core/src/fs/cfe_fs_decompress.c ****          if ( (uint32)i + j > n ) return CFE_FS_GZIP_BAD_DATA;
 3517               	.loc 1 931 0
 3518 1fdc 202F 0528 	move.l 1320(%sp),%d0
 3519 1fe0 D0AF 0524 	add.l 1316(%sp),%d0
 3520 1fe4 B0AF 0500 	cmp.l 1280(%sp),%d0
 3521 1fe8 6328      	jls .L269
 3522               	.loc 1 931 0 is_stmt 0 discriminator 1
 3523 1fea 203C C600 	move.l #-973078524,%d0
 3523      0004 
 3524 1ff0 6000 0338 	jra .L291
 3525               	.L270:
 932:/home/simulink/cFS_FreeRTOS_seL4/cfe/fsw/cfe-core/src/fs/cfe_fs_decompress.c ****          while (j--) ll[i++] = l;
 3526               	.loc 1 932 0 is_stmt 1 discriminator 2
 3527 1ff4 202F 0528 	move.l 1320(%sp),%d0
 3528 1ff8 2040      	move.l %d0,%a0
 3529 1ffa 5288      	addq.l #1,%a0
 3530 1ffc 2F48 0528 	move.l %a0,1320(%sp)
 3531 2000 E588      	lsl.l #2,%d0
 3532 2002 43EF 052C 	lea (1324,%sp),%a1
 3533 2006 D089      	add.l %a1,%d0
 3534 2008 43EF 0520 	lea (1312,%sp),%a1
 3535 200c 2040      	move.l %d0,%a0
 3536 200e 2151 FAD4 	move.l (%a1),-1324(%a0)
 3537               	.L269:
 3538               	.loc 1 932 0 is_stmt 0 discriminator 1
 3539 2012 202F 0524 	move.l 1316(%sp),%d0
 3540 2016 2200      	move.l %d0,%d1
 3541 2018 5381      	subq.l #1,%d1
 3542 201a 2F41 0524 	move.l %d1,1316(%sp)
 3543 201e 4A80      	tst.l %d0
 3544 2020 66D2      	jne .L270
 3545 2022 6000 01D8 	jra .L255
 3546               	.L262:
 933:/home/simulink/cFS_FreeRTOS_seL4/cfe/fsw/cfe-core/src/fs/cfe_fs_decompress.c **** 		} 
 934:/home/simulink/cFS_FreeRTOS_seL4/cfe/fsw/cfe-core/src/fs/cfe_fs_decompress.c ****       else if (j == 17) 
 3547               	.loc 1 934 0 is_stmt 1
 3548 2026 7011      	moveq #17,%d0
 3549 2028 B0AF 0524 	cmp.l 1316(%sp),%d0
 3550 202c 6600 015E 	jne .L280
 935:/home/simulink/cFS_FreeRTOS_seL4/cfe/fsw/cfe-core/src/fs/cfe_fs_decompress.c ****       {    /* 3 to 10 zero length codes */
 936:/home/simulink/cFS_FreeRTOS_seL4/cfe/fsw/cfe-core/src/fs/cfe_fs_decompress.c ****          NEEDBITS(3);
 3551               	.loc 1 936 0
 3552 2030 6076      	jra .L272
 3553               	.L276:
 3554               	.loc 1 936 0 is_stmt 0 discriminator 8
 3555 2032 206F 0530 	move.l 1328(%sp),%a0
 3556 2036 2228 0018 	move.l 24(%a0),%d1
 3557 203a 206F 0530 	move.l 1328(%sp),%a0
 3558 203e 2028 0014 	move.l 20(%a0),%d0
 3559 2042 B081      	cmp.l %d1,%d0
 3560 2044 6326      	jls .L273
 3561               	.loc 1 936 0 discriminator 1
 3562 2046 206F 0530 	move.l 1328(%sp),%a0
68K GAS   			page 85


 3563 204a 2028 0018 	move.l 24(%a0),%d0
 3564 204e 2200      	move.l %d0,%d1
 3565 2050 5281      	addq.l #1,%d1
 3566 2052 206F 0530 	move.l 1328(%sp),%a0
 3567 2056 2141 0018 	move.l %d1,24(%a0)
 3568 205a 206F 0530 	move.l 1328(%sp),%a0
 3569 205e 1030 0828 	move.b 40(%a0,%d0.l),%d0
 3570 2062 1000      	move.b %d0,%d0
 3571 2064 0280 0000 	and.l #255,%d0
 3571      00FF 
 3572 206a 6016      	jra .L274
 3573               	.L273:
 3574               	.loc 1 936 0 discriminator 2
 3575 206c 2F2F 0530 	move.l 1328(%sp),-(%sp)
 3576               	.cfi_def_cfa_offset 1332
 3577 2070 4EB9 0000 	jsr FS_gz_fill_inbuf_Reentrant
 3577      0000 
 3578 2076 588F      	addq.l #4,%sp
 3579               	.cfi_def_cfa_offset 1328
 3580 2078 1000      	move.b %d0,%d0
 3581 207a 1000      	move.b %d0,%d0
 3582 207c 0280 0000 	and.l #255,%d0
 3582      00FF 
 3583               	.L274:
 3584               	.loc 1 936 0 discriminator 4
 3585 2082 222F 0518 	move.l 1304(%sp),%d1
 3586 2086 E3A8      	lsl.l %d1,%d0
 3587 2088 81AF 051C 	or.l %d0,1308(%sp)
 3588 208c 206F 0530 	move.l 1328(%sp),%a0
 3589 2090 2028 0024 	move.l 36(%a0),%d0
 3590 2094 4A80      	tst.l %d0
 3591 2096 670C      	jeq .L275
 3592               	.loc 1 936 0 discriminator 5
 3593 2098 206F 0530 	move.l 1328(%sp),%a0
 3594 209c 2028 0024 	move.l 36(%a0),%d0
 3595 20a0 6000 0288 	jra .L291
 3596               	.L275:
 3597               	.loc 1 936 0 discriminator 6
 3598 20a4 50AF 0518 	addq.l #8,1304(%sp)
 3599               	.L272:
 3600               	.loc 1 936 0 discriminator 7
 3601 20a8 7002      	moveq #2,%d0
 3602 20aa B0AF 0518 	cmp.l 1304(%sp),%d0
 3603 20ae 6482      	jcc .L276
 937:/home/simulink/cFS_FreeRTOS_seL4/cfe/fsw/cfe-core/src/fs/cfe_fs_decompress.c ****          j = 3 + ( (uint32)b & 7 );
 3604               	.loc 1 937 0 is_stmt 1
 3605 20b0 7007      	moveq #7,%d0
 3606 20b2 C0AF 051C 	and.l 1308(%sp),%d0
 3607 20b6 2200      	move.l %d0,%d1
 3608 20b8 5681      	addq.l #3,%d1
 3609 20ba 2F41 0524 	move.l %d1,1316(%sp)
 938:/home/simulink/cFS_FreeRTOS_seL4/cfe/fsw/cfe-core/src/fs/cfe_fs_decompress.c ****          DUMPBITS(3);
 3610               	.loc 1 938 0
 3611 20be 202F 051C 	move.l 1308(%sp),%d0
 3612 20c2 E688      	lsr.l #3,%d0
 3613 20c4 2F40 051C 	move.l %d0,1308(%sp)
 3614 20c8 57AF 0518 	subq.l #3,1304(%sp)
68K GAS   			page 86


 939:/home/simulink/cFS_FreeRTOS_seL4/cfe/fsw/cfe-core/src/fs/cfe_fs_decompress.c ****          if ( (uint32)i + j > n ) return CFE_FS_GZIP_BAD_DATA;
 3615               	.loc 1 939 0
 3616 20cc 202F 0528 	move.l 1320(%sp),%d0
 3617 20d0 D0AF 0524 	add.l 1316(%sp),%d0
 3618 20d4 B0AF 0500 	cmp.l 1280(%sp),%d0
 3619 20d8 6324      	jls .L278
 3620               	.loc 1 939 0 is_stmt 0 discriminator 1
 3621 20da 203C C600 	move.l #-973078524,%d0
 3621      0004 
 3622 20e0 6000 0248 	jra .L291
 3623               	.L279:
 940:/home/simulink/cFS_FreeRTOS_seL4/cfe/fsw/cfe-core/src/fs/cfe_fs_decompress.c ****          while (j--) ll[i++] = 0;
 3624               	.loc 1 940 0 is_stmt 1 discriminator 2
 3625 20e4 202F 0528 	move.l 1320(%sp),%d0
 3626 20e8 2040      	move.l %d0,%a0
 3627 20ea 5288      	addq.l #1,%a0
 3628 20ec 2F48 0528 	move.l %a0,1320(%sp)
 3629 20f0 E588      	lsl.l #2,%d0
 3630 20f2 43EF 052C 	lea (1324,%sp),%a1
 3631 20f6 D089      	add.l %a1,%d0
 3632 20f8 2040      	move.l %d0,%a0
 3633 20fa 42A8 FAD4 	clr.l -1324(%a0)
 3634               	.L278:
 3635               	.loc 1 940 0 is_stmt 0 discriminator 1
 3636 20fe 202F 0524 	move.l 1316(%sp),%d0
 3637 2102 2240      	move.l %d0,%a1
 3638 2104 5389      	subq.l #1,%a1
 3639 2106 2F49 0524 	move.l %a1,1316(%sp)
 3640 210a 4A80      	tst.l %d0
 3641 210c 66D6      	jne .L279
 941:/home/simulink/cFS_FreeRTOS_seL4/cfe/fsw/cfe-core/src/fs/cfe_fs_decompress.c ****          l = 0;
 3642               	.loc 1 941 0 is_stmt 1
 3643 210e 42AF 0520 	clr.l 1312(%sp)
 3644 2112 6000 00E8 	jra .L255
 3645               	.L284:
 942:/home/simulink/cFS_FreeRTOS_seL4/cfe/fsw/cfe-core/src/fs/cfe_fs_decompress.c **** 		} 
 943:/home/simulink/cFS_FreeRTOS_seL4/cfe/fsw/cfe-core/src/fs/cfe_fs_decompress.c ****       else 
 944:/home/simulink/cFS_FreeRTOS_seL4/cfe/fsw/cfe-core/src/fs/cfe_fs_decompress.c ****       {                 /* j == 18: 11 to 138 zero length codes */
 945:/home/simulink/cFS_FreeRTOS_seL4/cfe/fsw/cfe-core/src/fs/cfe_fs_decompress.c ****          NEEDBITS(7);
 3646               	.loc 1 945 0 discriminator 8
 3647 2116 206F 0530 	move.l 1328(%sp),%a0
 3648 211a 2228 0018 	move.l 24(%a0),%d1
 3649 211e 206F 0530 	move.l 1328(%sp),%a0
 3650 2122 2028 0014 	move.l 20(%a0),%d0
 3651 2126 B081      	cmp.l %d1,%d0
 3652 2128 6326      	jls .L281
 3653               	.loc 1 945 0 is_stmt 0 discriminator 1
 3654 212a 206F 0530 	move.l 1328(%sp),%a0
 3655 212e 2028 0018 	move.l 24(%a0),%d0
 3656 2132 2200      	move.l %d0,%d1
 3657 2134 5281      	addq.l #1,%d1
 3658 2136 206F 0530 	move.l 1328(%sp),%a0
 3659 213a 2141 0018 	move.l %d1,24(%a0)
 3660 213e 206F 0530 	move.l 1328(%sp),%a0
 3661 2142 1030 0828 	move.b 40(%a0,%d0.l),%d0
 3662 2146 1000      	move.b %d0,%d0
 3663 2148 0280 0000 	and.l #255,%d0
68K GAS   			page 87


 3663      00FF 
 3664 214e 6016      	jra .L282
 3665               	.L281:
 3666               	.loc 1 945 0 discriminator 2
 3667 2150 2F2F 0530 	move.l 1328(%sp),-(%sp)
 3668               	.cfi_def_cfa_offset 1332
 3669 2154 4EB9 0000 	jsr FS_gz_fill_inbuf_Reentrant
 3669      0000 
 3670 215a 588F      	addq.l #4,%sp
 3671               	.cfi_def_cfa_offset 1328
 3672 215c 1000      	move.b %d0,%d0
 3673 215e 1000      	move.b %d0,%d0
 3674 2160 0280 0000 	and.l #255,%d0
 3674      00FF 
 3675               	.L282:
 3676               	.loc 1 945 0 discriminator 4
 3677 2166 222F 0518 	move.l 1304(%sp),%d1
 3678 216a E3A8      	lsl.l %d1,%d0
 3679 216c 81AF 051C 	or.l %d0,1308(%sp)
 3680 2170 206F 0530 	move.l 1328(%sp),%a0
 3681 2174 2028 0024 	move.l 36(%a0),%d0
 3682 2178 4A80      	tst.l %d0
 3683 217a 670C      	jeq .L283
 3684               	.loc 1 945 0 discriminator 5
 3685 217c 206F 0530 	move.l 1328(%sp),%a0
 3686 2180 2028 0024 	move.l 36(%a0),%d0
 3687 2184 6000 01A4 	jra .L291
 3688               	.L283:
 3689               	.loc 1 945 0 discriminator 6
 3690 2188 50AF 0518 	addq.l #8,1304(%sp)
 3691               	.L280:
 3692               	.loc 1 945 0 discriminator 7
 3693 218c 7006      	moveq #6,%d0
 3694 218e B0AF 0518 	cmp.l 1304(%sp),%d0
 3695 2192 6482      	jcc .L284
 946:/home/simulink/cFS_FreeRTOS_seL4/cfe/fsw/cfe-core/src/fs/cfe_fs_decompress.c ****          j = 11 + ( (uint32)b & 0x7f );
 3696               	.loc 1 946 0 is_stmt 1
 3697 2194 707F      	moveq #127,%d0
 3698 2196 C0AF 051C 	and.l 1308(%sp),%d0
 3699 219a 2040      	move.l %d0,%a0
 3700 219c 41E8 000B 	lea (11,%a0),%a0
 3701 21a0 2F48 0524 	move.l %a0,1316(%sp)
 947:/home/simulink/cFS_FreeRTOS_seL4/cfe/fsw/cfe-core/src/fs/cfe_fs_decompress.c ****          DUMPBITS(7);
 3702               	.loc 1 947 0
 3703 21a4 202F 051C 	move.l 1308(%sp),%d0
 3704 21a8 EE88      	lsr.l #7,%d0
 3705 21aa 2F40 051C 	move.l %d0,1308(%sp)
 3706 21ae 5FAF 0518 	subq.l #7,1304(%sp)
 948:/home/simulink/cFS_FreeRTOS_seL4/cfe/fsw/cfe-core/src/fs/cfe_fs_decompress.c ****          if ( (uint32)i + j > n ) return CFE_FS_GZIP_BAD_DATA;
 3707               	.loc 1 948 0
 3708 21b2 202F 0528 	move.l 1320(%sp),%d0
 3709 21b6 D0AF 0524 	add.l 1316(%sp),%d0
 3710 21ba B0AF 0500 	cmp.l 1280(%sp),%d0
 3711 21be 6328      	jls .L286
 3712               	.loc 1 948 0 is_stmt 0 discriminator 1
 3713 21c0 203C C600 	move.l #-973078524,%d0
 3713      0004 
68K GAS   			page 88


 3714 21c6 6000 0162 	jra .L291
 3715               	.L287:
 949:/home/simulink/cFS_FreeRTOS_seL4/cfe/fsw/cfe-core/src/fs/cfe_fs_decompress.c ****          while (j--) ll[i++] = 0;
 3716               	.loc 1 949 0 is_stmt 1 discriminator 2
 3717 21ca 202F 0528 	move.l 1320(%sp),%d0
 3718 21ce 2240      	move.l %d0,%a1
 3719 21d0 5289      	addq.l #1,%a1
 3720 21d2 2F49 0528 	move.l %a1,1320(%sp)
 3721 21d6 E588      	lsl.l #2,%d0
 3722 21d8 223C 0000 	move.l #1324,%d1
 3722      052C 
 3723 21de D28F      	add.l %sp,%d1
 3724 21e0 D081      	add.l %d1,%d0
 3725 21e2 2040      	move.l %d0,%a0
 3726 21e4 42A8 FAD4 	clr.l -1324(%a0)
 3727               	.L286:
 3728               	.loc 1 949 0 is_stmt 0 discriminator 1
 3729 21e8 202F 0524 	move.l 1316(%sp),%d0
 3730 21ec 2240      	move.l %d0,%a1
 3731 21ee 5389      	subq.l #1,%a1
 3732 21f0 2F49 0524 	move.l %a1,1316(%sp)
 3733 21f4 4A80      	tst.l %d0
 3734 21f6 66D2      	jne .L287
 950:/home/simulink/cFS_FreeRTOS_seL4/cfe/fsw/cfe-core/src/fs/cfe_fs_decompress.c ****          l = 0;
 3735               	.loc 1 950 0 is_stmt 1
 3736 21f8 42AF 0520 	clr.l 1312(%sp)
 3737               	.L255:
 915:/home/simulink/cFS_FreeRTOS_seL4/cfe/fsw/cfe-core/src/fs/cfe_fs_decompress.c ****    {
 3738               	.loc 1 915 0
 3739 21fc 202F 0528 	move.l 1320(%sp),%d0
 3740 2200 B0AF 0500 	cmp.l 1280(%sp),%d0
 3741 2204 6500 FCA0 	jcs .L256
 951:/home/simulink/cFS_FreeRTOS_seL4/cfe/fsw/cfe-core/src/fs/cfe_fs_decompress.c **** 		}
 952:/home/simulink/cFS_FreeRTOS_seL4/cfe/fsw/cfe-core/src/fs/cfe_fs_decompress.c **** 	}
 953:/home/simulink/cFS_FreeRTOS_seL4/cfe/fsw/cfe-core/src/fs/cfe_fs_decompress.c **** 
 954:/home/simulink/cFS_FreeRTOS_seL4/cfe/fsw/cfe-core/src/fs/cfe_fs_decompress.c **** 	/*  restore the global bit buffer  */
 955:/home/simulink/cFS_FreeRTOS_seL4/cfe/fsw/cfe-core/src/fs/cfe_fs_decompress.c **** 	State->bb = b;
 3742               	.loc 1 955 0
 3743 2208 206F 0530 	move.l 1328(%sp),%a0
 3744 220c 216F 051C 	move.l 1308(%sp),8(%a0)
 3744      0008 
 956:/home/simulink/cFS_FreeRTOS_seL4/cfe/fsw/cfe-core/src/fs/cfe_fs_decompress.c **** 	State->bk = k;
 3745               	.loc 1 956 0
 3746 2212 206F 0530 	move.l 1328(%sp),%a0
 3747 2216 216F 0518 	move.l 1304(%sp),12(%a0)
 3747      000C 
 957:/home/simulink/cFS_FreeRTOS_seL4/cfe/fsw/cfe-core/src/fs/cfe_fs_decompress.c **** 
 958:/home/simulink/cFS_FreeRTOS_seL4/cfe/fsw/cfe-core/src/fs/cfe_fs_decompress.c **** 	/*  build the decoding tables for literal/length and distance codes */
 959:/home/simulink/cFS_FreeRTOS_seL4/cfe/fsw/cfe-core/src/fs/cfe_fs_decompress.c **** 	bl = lbits;
 3748               	.loc 1 959 0
 3749 221c 2039 0000 	move.l lbits.5795,%d0
 3749      0000 
 3750 2222 2F40 04F4 	move.l %d0,1268(%sp)
 960:/home/simulink/cFS_FreeRTOS_seL4/cfe/fsw/cfe-core/src/fs/cfe_fs_decompress.c **** 	State->hufts = 0;                 /* initialize Huff Table memory */
 3751               	.loc 1 960 0
 3752 2226 206F 0530 	move.l 1328(%sp),%a0
 3753 222a 203C 0001 	move.l #116840,%d0
68K GAS   			page 89


 3753      C868 
 3754 2230 42B0 0800 	clr.l (%a0,%d0.l)
 961:/home/simulink/cFS_FreeRTOS_seL4/cfe/fsw/cfe-core/src/fs/cfe_fs_decompress.c **** 	tl = &State->hufTable[1];            /* set known position given alloc removed - glw */
 3755               	.loc 1 961 0
 3756 2234 202F 0530 	move.l 1328(%sp),%d0
 3757 2238 0680 0001 	add.l #116854,%d0
 3757      C876 
 3758 223e 2F40 0508 	move.l %d0,1288(%sp)
 962:/home/simulink/cFS_FreeRTOS_seL4/cfe/fsw/cfe-core/src/fs/cfe_fs_decompress.c **** 	error_code = FS_gz_huft_build_Reentrant(State, ll, nl, 257, cplens, cplext, &bl );
 3759               	.loc 1 962 0
 3760 2242 200F      	move.l %sp,%d0
 3761 2244 0680 0000 	add.l #1268,%d0
 3761      04F4 
 3762 224a 2F00      	move.l %d0,-(%sp)
 3763               	.cfi_def_cfa_offset 1332
 3764 224c 4879 0000 	pea cplext.5799
 3764      0000 
 3765               	.cfi_def_cfa_offset 1336
 3766 2252 4879 0000 	pea cplens.5798
 3766      0000 
 3767               	.cfi_def_cfa_offset 1340
 3768 2258 4878 0101 	pea 257.w
 3769               	.cfi_def_cfa_offset 1344
 3770 225c 2F2F 0524 	move.l 1316(%sp),-(%sp)
 3771               	.cfi_def_cfa_offset 1348
 3772 2260 200F      	move.l %sp,%d0
 3773 2262 0680 0000 	add.l #20,%d0
 3773      0014 
 3774 2268 2F00      	move.l %d0,-(%sp)
 3775               	.cfi_def_cfa_offset 1352
 3776 226a 2F2F 0548 	move.l 1352(%sp),-(%sp)
 3777               	.cfi_def_cfa_offset 1356
 3778 226e 4EB9 0000 	jsr FS_gz_huft_build_Reentrant
 3778      0000 
 3779 2274 4FEF 001C 	lea (28,%sp),%sp
 3780               	.cfi_def_cfa_offset 1328
 3781 2278 2F40 0504 	move.l %d0,1284(%sp)
 963:/home/simulink/cFS_FreeRTOS_seL4/cfe/fsw/cfe-core/src/fs/cfe_fs_decompress.c **** 	if ( error_code != CFE_SUCCESS ) return error_code;
 3782               	.loc 1 963 0
 3783 227c 4AAF 0504 	tst.l 1284(%sp)
 3784 2280 6708      	jeq .L289
 3785               	.loc 1 963 0 is_stmt 0 discriminator 1
 3786 2282 202F 0504 	move.l 1284(%sp),%d0
 3787 2286 6000 00A2 	jra .L291
 3788               	.L289:
 964:/home/simulink/cFS_FreeRTOS_seL4/cfe/fsw/cfe-core/src/fs/cfe_fs_decompress.c **** 
 965:/home/simulink/cFS_FreeRTOS_seL4/cfe/fsw/cfe-core/src/fs/cfe_fs_decompress.c **** 	bd = dbits;
 3789               	.loc 1 965 0 is_stmt 1
 3790 228a 2039 0000 	move.l dbits.5796,%d0
 3790      0000 
 3791 2290 2F40 04F0 	move.l %d0,1264(%sp)
 966:/home/simulink/cFS_FreeRTOS_seL4/cfe/fsw/cfe-core/src/fs/cfe_fs_decompress.c **** 	td = &State->hufTable[State->hufts+1];   /* set known position given alloc removed - glw */
 3792               	.loc 1 966 0
 3793 2294 206F 0530 	move.l 1328(%sp),%a0
 3794 2298 203C 0001 	move.l #116840,%d0
 3794      C868 
 3795 229e 2030 0800 	move.l (%a0,%d0.l),%d0
68K GAS   			page 90


 3796 22a2 5280      	addq.l #1,%d0
 3797 22a4 7206      	moveq #6,%d1
 3798 22a6 4C01 0800 	muls.l %d1,%d0
 3799 22aa 0680 0001 	add.l #116848,%d0
 3799      C870 
 3800 22b0 206F 0530 	move.l 1328(%sp),%a0
 3801 22b4 D1C0      	add.l %d0,%a0
 3802 22b6 2F48 04F8 	move.l %a0,1272(%sp)
 967:/home/simulink/cFS_FreeRTOS_seL4/cfe/fsw/cfe-core/src/fs/cfe_fs_decompress.c **** 	error_code = FS_gz_huft_build_Reentrant(State, ll + nl, nd, 0, cpdist, cpdext, &bd );
 3803               	.loc 1 967 0
 3804 22ba 202F 0514 	move.l 1300(%sp),%d0
 3805 22be E588      	lsl.l #2,%d0
 3806 22c0 220F      	move.l %sp,%d1
 3807 22c2 D280      	add.l %d0,%d1
 3808 22c4 200F      	move.l %sp,%d0
 3809 22c6 0680 0000 	add.l #1264,%d0
 3809      04F0 
 3810 22cc 2F00      	move.l %d0,-(%sp)
 3811               	.cfi_def_cfa_offset 1332
 3812 22ce 4879 0000 	pea cpdext.5801
 3812      0000 
 3813               	.cfi_def_cfa_offset 1336
 3814 22d4 4879 0000 	pea cpdist.5800
 3814      0000 
 3815               	.cfi_def_cfa_offset 1340
 3816 22da 42A7      	clr.l -(%sp)
 3817               	.cfi_def_cfa_offset 1344
 3818 22dc 2F2F 0520 	move.l 1312(%sp),-(%sp)
 3819               	.cfi_def_cfa_offset 1348
 3820 22e0 2F01      	move.l %d1,-(%sp)
 3821               	.cfi_def_cfa_offset 1352
 3822 22e2 2F2F 0548 	move.l 1352(%sp),-(%sp)
 3823               	.cfi_def_cfa_offset 1356
 3824 22e6 4EB9 0000 	jsr FS_gz_huft_build_Reentrant
 3824      0000 
 3825 22ec 4FEF 001C 	lea (28,%sp),%sp
 3826               	.cfi_def_cfa_offset 1328
 3827 22f0 2F40 0504 	move.l %d0,1284(%sp)
 968:/home/simulink/cFS_FreeRTOS_seL4/cfe/fsw/cfe-core/src/fs/cfe_fs_decompress.c **** 	if ( error_code != CFE_SUCCESS ) return error_code;
 3828               	.loc 1 968 0
 3829 22f4 4AAF 0504 	tst.l 1284(%sp)
 3830 22f8 6706      	jeq .L290
 3831               	.loc 1 968 0 is_stmt 0 discriminator 1
 3832 22fa 202F 0504 	move.l 1284(%sp),%d0
 3833 22fe 602A      	jra .L291
 3834               	.L290:
 969:/home/simulink/cFS_FreeRTOS_seL4/cfe/fsw/cfe-core/src/fs/cfe_fs_decompress.c **** 
 970:/home/simulink/cFS_FreeRTOS_seL4/cfe/fsw/cfe-core/src/fs/cfe_fs_decompress.c **** 	/*  decompress until an end-of-block code */
 971:/home/simulink/cFS_FreeRTOS_seL4/cfe/fsw/cfe-core/src/fs/cfe_fs_decompress.c **** 	error_code = FS_gz_inflate_codes_Reentrant(State, tl, td, bl, bd );
 3835               	.loc 1 971 0 is_stmt 1
 3836 2300 222F 04F0 	move.l 1264(%sp),%d1
 3837 2304 202F 04F4 	move.l 1268(%sp),%d0
 3838 2308 2F01      	move.l %d1,-(%sp)
 3839               	.cfi_def_cfa_offset 1332
 3840 230a 2F00      	move.l %d0,-(%sp)
 3841               	.cfi_def_cfa_offset 1336
 3842 230c 2F2F 0500 	move.l 1280(%sp),-(%sp)
68K GAS   			page 91


 3843               	.cfi_def_cfa_offset 1340
 3844 2310 2F2F 0514 	move.l 1300(%sp),-(%sp)
 3845               	.cfi_def_cfa_offset 1344
 3846 2314 2F2F 0540 	move.l 1344(%sp),-(%sp)
 3847               	.cfi_def_cfa_offset 1348
 3848 2318 4EB9 0000 	jsr FS_gz_inflate_codes_Reentrant
 3848      0000 
 3849 231e 4FEF 0014 	lea (20,%sp),%sp
 3850               	.cfi_def_cfa_offset 1328
 3851 2322 2F40 0504 	move.l %d0,1284(%sp)
 972:/home/simulink/cFS_FreeRTOS_seL4/cfe/fsw/cfe-core/src/fs/cfe_fs_decompress.c ****    
 973:/home/simulink/cFS_FreeRTOS_seL4/cfe/fsw/cfe-core/src/fs/cfe_fs_decompress.c **** 	return error_code;
 3852               	.loc 1 973 0
 3853 2326 202F 0504 	move.l 1284(%sp),%d0
 3854               	.L291:
 974:/home/simulink/cFS_FreeRTOS_seL4/cfe/fsw/cfe-core/src/fs/cfe_fs_decompress.c **** }
 3855               	.loc 1 974 0 discriminator 1
 3856 232a 4FEF 052C 	lea (1324,%sp),%sp
 3857 232e 4E75      	rts
 3858               	.cfi_endproc
 3859               	.LFE69:
 3860               	.sizeFS_gz_inflate_dynamic_Reentrant, .-FS_gz_inflate_dynamic_Reentrant
 3861               	.align2
 3862               	.globlFS_gz_inflate_fixed_Reentrant
 3863               	.typeFS_gz_inflate_fixed_Reentrant, @function
 3864               	FS_gz_inflate_fixed_Reentrant:
 3865               	.LFB70:
 975:/home/simulink/cFS_FreeRTOS_seL4/cfe/fsw/cfe-core/src/fs/cfe_fs_decompress.c **** 
 976:/home/simulink/cFS_FreeRTOS_seL4/cfe/fsw/cfe-core/src/fs/cfe_fs_decompress.c **** 
 977:/home/simulink/cFS_FreeRTOS_seL4/cfe/fsw/cfe-core/src/fs/cfe_fs_decompress.c **** /* Decompress an inflated type 1 (fixed Huffman codes) block.   */
 978:/home/simulink/cFS_FreeRTOS_seL4/cfe/fsw/cfe-core/src/fs/cfe_fs_decompress.c **** /*  We should either replace this with a custom decoder,  */
 979:/home/simulink/cFS_FreeRTOS_seL4/cfe/fsw/cfe-core/src/fs/cfe_fs_decompress.c **** /*  or at least precompute the Huffman tables. */
 980:/home/simulink/cFS_FreeRTOS_seL4/cfe/fsw/cfe-core/src/fs/cfe_fs_decompress.c **** 
 981:/home/simulink/cFS_FreeRTOS_seL4/cfe/fsw/cfe-core/src/fs/cfe_fs_decompress.c **** /* removed gz_huft_free, no longer needed - glw */
 982:/home/simulink/cFS_FreeRTOS_seL4/cfe/fsw/cfe-core/src/fs/cfe_fs_decompress.c **** int32 FS_gz_inflate_fixed_Reentrant( CFE_FS_Decompress_State_t *State )
 983:/home/simulink/cFS_FreeRTOS_seL4/cfe/fsw/cfe-core/src/fs/cfe_fs_decompress.c **** {
 3866               	.loc 1 983 0
 3867               	.cfi_startproc
 3868 2330 4FEF FB68 	lea (-1176,%sp),%sp
 3869               	.cfi_def_cfa_offset 1180
 984:/home/simulink/cFS_FreeRTOS_seL4/cfe/fsw/cfe-core/src/fs/cfe_fs_decompress.c **** 	/*  Copy lengths for literal codes 257..285 */
 985:/home/simulink/cFS_FreeRTOS_seL4/cfe/fsw/cfe-core/src/fs/cfe_fs_decompress.c **** 	static uint16 cplens[] = {
 986:/home/simulink/cFS_FreeRTOS_seL4/cfe/fsw/cfe-core/src/fs/cfe_fs_decompress.c **** 		3, 4, 5, 6, 7, 8, 9, 10, 11, 13, 15, 17, 19, 23, 27, 31,
 987:/home/simulink/cFS_FreeRTOS_seL4/cfe/fsw/cfe-core/src/fs/cfe_fs_decompress.c **** 			35, 43, 51, 59, 67, 83, 99, 115, 131, 163, 195, 227, 258, 0, 0
 988:/home/simulink/cFS_FreeRTOS_seL4/cfe/fsw/cfe-core/src/fs/cfe_fs_decompress.c **** 	};
 989:/home/simulink/cFS_FreeRTOS_seL4/cfe/fsw/cfe-core/src/fs/cfe_fs_decompress.c **** 
 990:/home/simulink/cFS_FreeRTOS_seL4/cfe/fsw/cfe-core/src/fs/cfe_fs_decompress.c **** 	/*  Extra bits for literal codes 257..285    ( 99==invalid ) */
 991:/home/simulink/cFS_FreeRTOS_seL4/cfe/fsw/cfe-core/src/fs/cfe_fs_decompress.c **** 	static uint16 cplext[] = {
 992:/home/simulink/cFS_FreeRTOS_seL4/cfe/fsw/cfe-core/src/fs/cfe_fs_decompress.c **** 		0, 0, 0, 0, 0, 0, 0, 0, 1, 1, 1, 1, 2, 2, 2, 2,
 993:/home/simulink/cFS_FreeRTOS_seL4/cfe/fsw/cfe-core/src/fs/cfe_fs_decompress.c **** 			3, 3, 3, 3, 4, 4, 4, 4, 5, 5, 5, 5, 0, 99, 99
 994:/home/simulink/cFS_FreeRTOS_seL4/cfe/fsw/cfe-core/src/fs/cfe_fs_decompress.c **** 	};
 995:/home/simulink/cFS_FreeRTOS_seL4/cfe/fsw/cfe-core/src/fs/cfe_fs_decompress.c **** 
 996:/home/simulink/cFS_FreeRTOS_seL4/cfe/fsw/cfe-core/src/fs/cfe_fs_decompress.c **** 	/*  Copy offsets for distance codes 0..29 */
 997:/home/simulink/cFS_FreeRTOS_seL4/cfe/fsw/cfe-core/src/fs/cfe_fs_decompress.c **** 	static uint16 cpdist[] = {
 998:/home/simulink/cFS_FreeRTOS_seL4/cfe/fsw/cfe-core/src/fs/cfe_fs_decompress.c **** 		1, 2, 3, 4, 5, 7, 9, 13, 17, 25, 33, 49, 65, 97, 129, 193,
 999:/home/simulink/cFS_FreeRTOS_seL4/cfe/fsw/cfe-core/src/fs/cfe_fs_decompress.c **** 			257, 385, 513, 769, 1025, 1537, 2049, 3073, 4097, 6145,
1000:/home/simulink/cFS_FreeRTOS_seL4/cfe/fsw/cfe-core/src/fs/cfe_fs_decompress.c **** 			8193, 12289, 16385, 24577
68K GAS   			page 92


1001:/home/simulink/cFS_FreeRTOS_seL4/cfe/fsw/cfe-core/src/fs/cfe_fs_decompress.c **** 	};
1002:/home/simulink/cFS_FreeRTOS_seL4/cfe/fsw/cfe-core/src/fs/cfe_fs_decompress.c **** 
1003:/home/simulink/cFS_FreeRTOS_seL4/cfe/fsw/cfe-core/src/fs/cfe_fs_decompress.c **** 	/*  Extra bits for distance codes */
1004:/home/simulink/cFS_FreeRTOS_seL4/cfe/fsw/cfe-core/src/fs/cfe_fs_decompress.c **** 	static uint16 cpdext[] = {
1005:/home/simulink/cFS_FreeRTOS_seL4/cfe/fsw/cfe-core/src/fs/cfe_fs_decompress.c **** 		0, 0, 0, 0, 1, 1, 2, 2, 3, 3, 4, 4, 5, 5, 6, 6,
1006:/home/simulink/cFS_FreeRTOS_seL4/cfe/fsw/cfe-core/src/fs/cfe_fs_decompress.c **** 			7, 7, 8, 8, 9, 9, 10, 10, 11, 11, 12, 12, 13, 13
1007:/home/simulink/cFS_FreeRTOS_seL4/cfe/fsw/cfe-core/src/fs/cfe_fs_decompress.c **** 	};
1008:/home/simulink/cFS_FreeRTOS_seL4/cfe/fsw/cfe-core/src/fs/cfe_fs_decompress.c **** 
1009:/home/simulink/cFS_FreeRTOS_seL4/cfe/fsw/cfe-core/src/fs/cfe_fs_decompress.c **** 	int32     i;            /* temporary variable            */
1010:/home/simulink/cFS_FreeRTOS_seL4/cfe/fsw/cfe-core/src/fs/cfe_fs_decompress.c **** 	HufTable *tl;           /* literal/length code table     */
1011:/home/simulink/cFS_FreeRTOS_seL4/cfe/fsw/cfe-core/src/fs/cfe_fs_decompress.c **** 	HufTable *td;           /* distance code table           */
1012:/home/simulink/cFS_FreeRTOS_seL4/cfe/fsw/cfe-core/src/fs/cfe_fs_decompress.c **** 	int32     bl;           /* lookup bits for tl            */
1013:/home/simulink/cFS_FreeRTOS_seL4/cfe/fsw/cfe-core/src/fs/cfe_fs_decompress.c **** 	int32     bd;           /* lookup bits for td            */
1014:/home/simulink/cFS_FreeRTOS_seL4/cfe/fsw/cfe-core/src/fs/cfe_fs_decompress.c **** 	uint32    l[288];       /* length list for gz_huft_build */
1015:/home/simulink/cFS_FreeRTOS_seL4/cfe/fsw/cfe-core/src/fs/cfe_fs_decompress.c **** 
1016:/home/simulink/cFS_FreeRTOS_seL4/cfe/fsw/cfe-core/src/fs/cfe_fs_decompress.c **** 	int32 error_code;
1017:/home/simulink/cFS_FreeRTOS_seL4/cfe/fsw/cfe-core/src/fs/cfe_fs_decompress.c **** 
1018:/home/simulink/cFS_FreeRTOS_seL4/cfe/fsw/cfe-core/src/fs/cfe_fs_decompress.c **** 	/*  set up literal table */
1019:/home/simulink/cFS_FreeRTOS_seL4/cfe/fsw/cfe-core/src/fs/cfe_fs_decompress.c **** 	for (i = 0; i < 144; i++) l[i] = 8;
 3870               	.loc 1 1019 0
 3871 2334 42AF 0494 	clr.l 1172(%sp)
 3872 2338 601C      	jra .L293
 3873               	.L294:
 3874               	.loc 1 1019 0 is_stmt 0 discriminator 3
 3875 233a 202F 0494 	move.l 1172(%sp),%d0
 3876 233e E588      	lsl.l #2,%d0
 3877 2340 223C 0000 	move.l #1176,%d1
 3877      0498 
 3878 2346 D28F      	add.l %sp,%d1
 3879 2348 D081      	add.l %d1,%d0
 3880 234a 7208      	moveq #8,%d1
 3881 234c 2040      	move.l %d0,%a0
 3882 234e 2141 FB68 	move.l %d1,-1176(%a0)
 3883 2352 52AF 0494 	addq.l #1,1172(%sp)
 3884               	.L293:
 3885               	.loc 1 1019 0 discriminator 1
 3886 2356 203C 0000 	move.l #143,%d0
 3886      008F 
 3887 235c B0AF 0494 	cmp.l 1172(%sp),%d0
 3888 2360 6CD8      	jge .L294
1020:/home/simulink/cFS_FreeRTOS_seL4/cfe/fsw/cfe-core/src/fs/cfe_fs_decompress.c **** 	for (; i < 256; i++)      l[i] = 9;
 3889               	.loc 1 1020 0 is_stmt 1
 3890 2362 601C      	jra .L295
 3891               	.L296:
 3892               	.loc 1 1020 0 is_stmt 0 discriminator 2
 3893 2364 202F 0494 	move.l 1172(%sp),%d0
 3894 2368 E588      	lsl.l #2,%d0
 3895 236a 223C 0000 	move.l #1176,%d1
 3895      0498 
 3896 2370 D28F      	add.l %sp,%d1
 3897 2372 D081      	add.l %d1,%d0
 3898 2374 7209      	moveq #9,%d1
 3899 2376 2040      	move.l %d0,%a0
 3900 2378 2141 FB68 	move.l %d1,-1176(%a0)
 3901 237c 52AF 0494 	addq.l #1,1172(%sp)
 3902               	.L295:
 3903               	.loc 1 1020 0 discriminator 1
68K GAS   			page 93


 3904 2380 203C 0000 	move.l #255,%d0
 3904      00FF 
 3905 2386 B0AF 0494 	cmp.l 1172(%sp),%d0
 3906 238a 6CD8      	jge .L296
1021:/home/simulink/cFS_FreeRTOS_seL4/cfe/fsw/cfe-core/src/fs/cfe_fs_decompress.c **** 	for (; i < 280; i++)      l[i] = 7;
 3907               	.loc 1 1021 0 is_stmt 1
 3908 238c 601C      	jra .L297
 3909               	.L298:
 3910               	.loc 1 1021 0 is_stmt 0 discriminator 2
 3911 238e 202F 0494 	move.l 1172(%sp),%d0
 3912 2392 E588      	lsl.l #2,%d0
 3913 2394 223C 0000 	move.l #1176,%d1
 3913      0498 
 3914 239a D28F      	add.l %sp,%d1
 3915 239c D081      	add.l %d1,%d0
 3916 239e 7207      	moveq #7,%d1
 3917 23a0 2040      	move.l %d0,%a0
 3918 23a2 2141 FB68 	move.l %d1,-1176(%a0)
 3919 23a6 52AF 0494 	addq.l #1,1172(%sp)
 3920               	.L297:
 3921               	.loc 1 1021 0 discriminator 1
 3922 23aa 203C 0000 	move.l #279,%d0
 3922      0117 
 3923 23b0 B0AF 0494 	cmp.l 1172(%sp),%d0
 3924 23b4 6CD8      	jge .L298
1022:/home/simulink/cFS_FreeRTOS_seL4/cfe/fsw/cfe-core/src/fs/cfe_fs_decompress.c **** 	for (; i < 288; i++)      l[i] = 8;       /* make a complete, but wrong code set */
 3925               	.loc 1 1022 0 is_stmt 1
 3926 23b6 601C      	jra .L299
 3927               	.L300:
 3928               	.loc 1 1022 0 is_stmt 0 discriminator 2
 3929 23b8 202F 0494 	move.l 1172(%sp),%d0
 3930 23bc E588      	lsl.l #2,%d0
 3931 23be 223C 0000 	move.l #1176,%d1
 3931      0498 
 3932 23c4 D28F      	add.l %sp,%d1
 3933 23c6 D081      	add.l %d1,%d0
 3934 23c8 7208      	moveq #8,%d1
 3935 23ca 2040      	move.l %d0,%a0
 3936 23cc 2141 FB68 	move.l %d1,-1176(%a0)
 3937 23d0 52AF 0494 	addq.l #1,1172(%sp)
 3938               	.L299:
 3939               	.loc 1 1022 0 discriminator 1
 3940 23d4 203C 0000 	move.l #287,%d0
 3940      011F 
 3941 23da B0AF 0494 	cmp.l 1172(%sp),%d0
 3942 23de 6CD8      	jge .L300
1023:/home/simulink/cFS_FreeRTOS_seL4/cfe/fsw/cfe-core/src/fs/cfe_fs_decompress.c **** 
1024:/home/simulink/cFS_FreeRTOS_seL4/cfe/fsw/cfe-core/src/fs/cfe_fs_decompress.c **** 	bl = 7;
 3943               	.loc 1 1024 0 is_stmt 1
 3944 23e0 7207      	moveq #7,%d1
 3945 23e2 2F41 0484 	move.l %d1,1156(%sp)
1025:/home/simulink/cFS_FreeRTOS_seL4/cfe/fsw/cfe-core/src/fs/cfe_fs_decompress.c **** 	State->hufts = 0;              /* initialize huff table "allocation" position  */
 3946               	.loc 1 1025 0
 3947 23e6 206F 049C 	move.l 1180(%sp),%a0
 3948 23ea 203C 0001 	move.l #116840,%d0
 3948      C868 
 3949 23f0 42B0 0800 	clr.l (%a0,%d0.l)
68K GAS   			page 94


1026:/home/simulink/cFS_FreeRTOS_seL4/cfe/fsw/cfe-core/src/fs/cfe_fs_decompress.c **** 	tl = &State->hufTable[1];         /* set known position given alloc removed - glw */
 3950               	.loc 1 1026 0
 3951 23f4 206F 049C 	move.l 1180(%sp),%a0
 3952 23f8 D1FC 0001 	add.l #116854,%a0
 3952      C876 
 3953 23fe 2F48 0490 	move.l %a0,1168(%sp)
1027:/home/simulink/cFS_FreeRTOS_seL4/cfe/fsw/cfe-core/src/fs/cfe_fs_decompress.c **** 	error_code = FS_gz_huft_build_Reentrant(State, l, 288, 257, cplens, cplext, &bl );
 3954               	.loc 1 1027 0
 3955 2402 200F      	move.l %sp,%d0
 3956 2404 0680 0000 	add.l #1156,%d0
 3956      0484 
 3957 240a 2F00      	move.l %d0,-(%sp)
 3958               	.cfi_def_cfa_offset 1184
 3959 240c 4879 0000 	pea cplext.5865
 3959      0000 
 3960               	.cfi_def_cfa_offset 1188
 3961 2412 4879 0000 	pea cplens.5864
 3961      0000 
 3962               	.cfi_def_cfa_offset 1192
 3963 2418 4878 0101 	pea 257.w
 3964               	.cfi_def_cfa_offset 1196
 3965 241c 4878 0120 	pea 288.w
 3966               	.cfi_def_cfa_offset 1200
 3967 2420 200F      	move.l %sp,%d0
 3968 2422 0680 0000 	add.l #20,%d0
 3968      0014 
 3969 2428 2F00      	move.l %d0,-(%sp)
 3970               	.cfi_def_cfa_offset 1204
 3971 242a 2F2F 04B4 	move.l 1204(%sp),-(%sp)
 3972               	.cfi_def_cfa_offset 1208
 3973 242e 4EB9 0000 	jsr FS_gz_huft_build_Reentrant
 3973      0000 
 3974 2434 4FEF 001C 	lea (28,%sp),%sp
 3975               	.cfi_def_cfa_offset 1180
 3976 2438 2F40 048C 	move.l %d0,1164(%sp)
1028:/home/simulink/cFS_FreeRTOS_seL4/cfe/fsw/cfe-core/src/fs/cfe_fs_decompress.c **** 
1029:/home/simulink/cFS_FreeRTOS_seL4/cfe/fsw/cfe-core/src/fs/cfe_fs_decompress.c **** 	if ( error_code != CFE_SUCCESS ) return error_code;
 3977               	.loc 1 1029 0
 3978 243c 4AAF 048C 	tst.l 1164(%sp)
 3979 2440 6708      	jeq .L301
 3980               	.loc 1 1029 0 is_stmt 0 discriminator 1
 3981 2442 202F 048C 	move.l 1164(%sp),%d0
 3982 2446 6000 00D2 	jra .L306
 3983               	.L301:
1030:/home/simulink/cFS_FreeRTOS_seL4/cfe/fsw/cfe-core/src/fs/cfe_fs_decompress.c **** 
1031:/home/simulink/cFS_FreeRTOS_seL4/cfe/fsw/cfe-core/src/fs/cfe_fs_decompress.c **** 	/*  set up distance table */
1032:/home/simulink/cFS_FreeRTOS_seL4/cfe/fsw/cfe-core/src/fs/cfe_fs_decompress.c **** 	for ( i = 0; i < 30; i++ ) l[i] = 5;      /* make an incomplete code set */
 3984               	.loc 1 1032 0 is_stmt 1
 3985 244a 42AF 0494 	clr.l 1172(%sp)
 3986 244e 601C      	jra .L303
 3987               	.L304:
 3988               	.loc 1 1032 0 is_stmt 0 discriminator 3
 3989 2450 202F 0494 	move.l 1172(%sp),%d0
 3990 2454 E588      	lsl.l #2,%d0
 3991 2456 223C 0000 	move.l #1176,%d1
 3991      0498 
 3992 245c D28F      	add.l %sp,%d1
68K GAS   			page 95


 3993 245e D081      	add.l %d1,%d0
 3994 2460 7205      	moveq #5,%d1
 3995 2462 2040      	move.l %d0,%a0
 3996 2464 2141 FB68 	move.l %d1,-1176(%a0)
 3997 2468 52AF 0494 	addq.l #1,1172(%sp)
 3998               	.L303:
 3999               	.loc 1 1032 0 discriminator 1
 4000 246c 701D      	moveq #29,%d0
 4001 246e B0AF 0494 	cmp.l 1172(%sp),%d0
 4002 2472 6CDC      	jge .L304
1033:/home/simulink/cFS_FreeRTOS_seL4/cfe/fsw/cfe-core/src/fs/cfe_fs_decompress.c **** 	bd = 5;
 4003               	.loc 1 1033 0 is_stmt 1
 4004 2474 7205      	moveq #5,%d1
 4005 2476 2F41 0480 	move.l %d1,1152(%sp)
1034:/home/simulink/cFS_FreeRTOS_seL4/cfe/fsw/cfe-core/src/fs/cfe_fs_decompress.c **** 	td = &State->hufTable[State->hufts+1];               /* set known position given alloc removed - g
 4006               	.loc 1 1034 0
 4007 247a 206F 049C 	move.l 1180(%sp),%a0
 4008 247e 203C 0001 	move.l #116840,%d0
 4008      C868 
 4009 2484 2030 0800 	move.l (%a0,%d0.l),%d0
 4010 2488 5280      	addq.l #1,%d0
 4011 248a 7206      	moveq #6,%d1
 4012 248c 4C01 0800 	muls.l %d1,%d0
 4013 2490 0680 0001 	add.l #116848,%d0
 4013      C870 
 4014 2496 206F 049C 	move.l 1180(%sp),%a0
 4015 249a D1C0      	add.l %d0,%a0
 4016 249c 2F48 0488 	move.l %a0,1160(%sp)
1035:/home/simulink/cFS_FreeRTOS_seL4/cfe/fsw/cfe-core/src/fs/cfe_fs_decompress.c **** 	error_code = FS_gz_huft_build_Reentrant(State, l, 30, 0, cpdist, cpdext, &bd );
 4017               	.loc 1 1035 0
 4018 24a0 200F      	move.l %sp,%d0
 4019 24a2 0680 0000 	add.l #1152,%d0
 4019      0480 
 4020 24a8 2F00      	move.l %d0,-(%sp)
 4021               	.cfi_def_cfa_offset 1184
 4022 24aa 4879 0000 	pea cpdext.5867
 4022      0000 
 4023               	.cfi_def_cfa_offset 1188
 4024 24b0 4879 0000 	pea cpdist.5866
 4024      0000 
 4025               	.cfi_def_cfa_offset 1192
 4026 24b6 42A7      	clr.l -(%sp)
 4027               	.cfi_def_cfa_offset 1196
 4028 24b8 4878 001E 	pea 30.w
 4029               	.cfi_def_cfa_offset 1200
 4030 24bc 200F      	move.l %sp,%d0
 4031 24be 0680 0000 	add.l #20,%d0
 4031      0014 
 4032 24c4 2F00      	move.l %d0,-(%sp)
 4033               	.cfi_def_cfa_offset 1204
 4034 24c6 2F2F 04B4 	move.l 1204(%sp),-(%sp)
 4035               	.cfi_def_cfa_offset 1208
 4036 24ca 4EB9 0000 	jsr FS_gz_huft_build_Reentrant
 4036      0000 
 4037 24d0 4FEF 001C 	lea (28,%sp),%sp
 4038               	.cfi_def_cfa_offset 1180
 4039 24d4 2F40 048C 	move.l %d0,1164(%sp)
68K GAS   			page 96


1036:/home/simulink/cFS_FreeRTOS_seL4/cfe/fsw/cfe-core/src/fs/cfe_fs_decompress.c **** 
1037:/home/simulink/cFS_FreeRTOS_seL4/cfe/fsw/cfe-core/src/fs/cfe_fs_decompress.c **** 	if ( error_code != CFE_SUCCESS && error_code != CFE_FS_GZIP_BAD_DATA ) return error_code;
 4040               	.loc 1 1037 0
 4041 24d8 4AAF 048C 	tst.l 1164(%sp)
 4042 24dc 6712      	jeq .L305
 4043               	.loc 1 1037 0 is_stmt 0 discriminator 1
 4044 24de 203C C600 	move.l #-973078524,%d0
 4044      0004 
 4045 24e4 B0AF 048C 	cmp.l 1164(%sp),%d0
 4046 24e8 6706      	jeq .L305
 4047               	.loc 1 1037 0 discriminator 2
 4048 24ea 202F 048C 	move.l 1164(%sp),%d0
 4049 24ee 602A      	jra .L306
 4050               	.L305:
1038:/home/simulink/cFS_FreeRTOS_seL4/cfe/fsw/cfe-core/src/fs/cfe_fs_decompress.c **** 	/*  --- seems odd that BAD DATA is let through, but original did so --- */
1039:/home/simulink/cFS_FreeRTOS_seL4/cfe/fsw/cfe-core/src/fs/cfe_fs_decompress.c **** 	/*  decompress until an end-of-block code  */
1040:/home/simulink/cFS_FreeRTOS_seL4/cfe/fsw/cfe-core/src/fs/cfe_fs_decompress.c **** 	error_code = FS_gz_inflate_codes_Reentrant(State, tl, td, bl, bd );
 4051               	.loc 1 1040 0 is_stmt 1
 4052 24f0 222F 0480 	move.l 1152(%sp),%d1
 4053 24f4 202F 0484 	move.l 1156(%sp),%d0
 4054 24f8 2F01      	move.l %d1,-(%sp)
 4055               	.cfi_def_cfa_offset 1184
 4056 24fa 2F00      	move.l %d0,-(%sp)
 4057               	.cfi_def_cfa_offset 1188
 4058 24fc 2F2F 0490 	move.l 1168(%sp),-(%sp)
 4059               	.cfi_def_cfa_offset 1192
 4060 2500 2F2F 049C 	move.l 1180(%sp),-(%sp)
 4061               	.cfi_def_cfa_offset 1196
 4062 2504 2F2F 04AC 	move.l 1196(%sp),-(%sp)
 4063               	.cfi_def_cfa_offset 1200
 4064 2508 4EB9 0000 	jsr FS_gz_inflate_codes_Reentrant
 4064      0000 
 4065 250e 4FEF 0014 	lea (20,%sp),%sp
 4066               	.cfi_def_cfa_offset 1180
 4067 2512 2F40 048C 	move.l %d0,1164(%sp)
1041:/home/simulink/cFS_FreeRTOS_seL4/cfe/fsw/cfe-core/src/fs/cfe_fs_decompress.c **** 
1042:/home/simulink/cFS_FreeRTOS_seL4/cfe/fsw/cfe-core/src/fs/cfe_fs_decompress.c **** 	return error_code;
 4068               	.loc 1 1042 0
 4069 2516 202F 048C 	move.l 1164(%sp),%d0
 4070               	.L306:
1043:/home/simulink/cFS_FreeRTOS_seL4/cfe/fsw/cfe-core/src/fs/cfe_fs_decompress.c **** 
1044:/home/simulink/cFS_FreeRTOS_seL4/cfe/fsw/cfe-core/src/fs/cfe_fs_decompress.c **** }
 4071               	.loc 1 1044 0 discriminator 1
 4072 251a 4FEF 0498 	lea (1176,%sp),%sp
 4073 251e 4E75      	rts
 4074               	.cfi_endproc
 4075               	.LFE70:
 4076               	.sizeFS_gz_inflate_fixed_Reentrant, .-FS_gz_inflate_fixed_Reentrant
 4077               	.align2
 4078               	.globlFS_gz_inflate_stored_Reentrant
 4079               	.typeFS_gz_inflate_stored_Reentrant, @function
 4080               	FS_gz_inflate_stored_Reentrant:
 4081               	.LFB71:
1045:/home/simulink/cFS_FreeRTOS_seL4/cfe/fsw/cfe-core/src/fs/cfe_fs_decompress.c **** 
1046:/home/simulink/cFS_FreeRTOS_seL4/cfe/fsw/cfe-core/src/fs/cfe_fs_decompress.c **** /* 
1047:/home/simulink/cFS_FreeRTOS_seL4/cfe/fsw/cfe-core/src/fs/cfe_fs_decompress.c **** ** "decompress" an inflated type 0 (stored) block. 
1048:/home/simulink/cFS_FreeRTOS_seL4/cfe/fsw/cfe-core/src/fs/cfe_fs_decompress.c **** */
68K GAS   			page 97


1049:/home/simulink/cFS_FreeRTOS_seL4/cfe/fsw/cfe-core/src/fs/cfe_fs_decompress.c **** int32 FS_gz_inflate_stored_Reentrant( CFE_FS_Decompress_State_t *State )
1050:/home/simulink/cFS_FreeRTOS_seL4/cfe/fsw/cfe-core/src/fs/cfe_fs_decompress.c **** {
 4082               	.loc 1 1050 0
 4083               	.cfi_startproc
 4084 2520 518F      	subq.l #8,%sp
 4085               	.cfi_def_cfa_offset 12
 4086 2522 2F03      	move.l %d3,-(%sp)
 4087               	.cfi_def_cfa_offset 16
 4088               	.cfi_offset 3, -16
 4089 2524 2F02      	move.l %d2,-(%sp)
 4090               	.cfi_def_cfa_offset 20
 4091               	.cfi_offset 2, -20
1051:/home/simulink/cFS_FreeRTOS_seL4/cfe/fsw/cfe-core/src/fs/cfe_fs_decompress.c **** 
1052:/home/simulink/cFS_FreeRTOS_seL4/cfe/fsw/cfe-core/src/fs/cfe_fs_decompress.c **** 	uint32          n;     /* number of bytes in block */
1053:/home/simulink/cFS_FreeRTOS_seL4/cfe/fsw/cfe-core/src/fs/cfe_fs_decompress.c **** 	uint32          w;     /* current window position */
1054:/home/simulink/cFS_FreeRTOS_seL4/cfe/fsw/cfe-core/src/fs/cfe_fs_decompress.c **** 	register uint32 b;     /* bit buffer */
1055:/home/simulink/cFS_FreeRTOS_seL4/cfe/fsw/cfe-core/src/fs/cfe_fs_decompress.c **** 	register uint16 k;     /* number of bits in bit buffer */
1056:/home/simulink/cFS_FreeRTOS_seL4/cfe/fsw/cfe-core/src/fs/cfe_fs_decompress.c **** 
1057:/home/simulink/cFS_FreeRTOS_seL4/cfe/fsw/cfe-core/src/fs/cfe_fs_decompress.c **** 
1058:/home/simulink/cFS_FreeRTOS_seL4/cfe/fsw/cfe-core/src/fs/cfe_fs_decompress.c **** 	/*  make local copies of globals */
1059:/home/simulink/cFS_FreeRTOS_seL4/cfe/fsw/cfe-core/src/fs/cfe_fs_decompress.c **** 	b = State->bb;             /* initialize bit buffer */
 4092               	.loc 1 1059 0
 4093 2526 206F 0014 	move.l 20(%sp),%a0
 4094 252a 2628 0008 	move.l 8(%a0),%d3
1060:/home/simulink/cFS_FreeRTOS_seL4/cfe/fsw/cfe-core/src/fs/cfe_fs_decompress.c **** 	k = State->bk;
 4095               	.loc 1 1060 0
 4096 252e 206F 0014 	move.l 20(%sp),%a0
 4097 2532 2028 000C 	move.l 12(%a0),%d0
 4098 2536 3400      	move.w %d0,%d2
1061:/home/simulink/cFS_FreeRTOS_seL4/cfe/fsw/cfe-core/src/fs/cfe_fs_decompress.c **** 	w = State->outcnt;         /* initialize window position */
 4099               	.loc 1 1061 0
 4100 2538 206F 0014 	move.l 20(%sp),%a0
 4101 253c 2F68 0010 	move.l 16(%a0),8(%sp)
 4101      0008 
1062:/home/simulink/cFS_FreeRTOS_seL4/cfe/fsw/cfe-core/src/fs/cfe_fs_decompress.c **** 
1063:/home/simulink/cFS_FreeRTOS_seL4/cfe/fsw/cfe-core/src/fs/cfe_fs_decompress.c **** 
1064:/home/simulink/cFS_FreeRTOS_seL4/cfe/fsw/cfe-core/src/fs/cfe_fs_decompress.c **** 	/*  go to byte boundary */
1065:/home/simulink/cFS_FreeRTOS_seL4/cfe/fsw/cfe-core/src/fs/cfe_fs_decompress.c **** 	n = k & 7;
 4102               	.loc 1 1065 0
 4103 2542 4280      	clr.l %d0
 4104 2544 3002      	move.w %d2,%d0
 4105 2546 7207      	moveq #7,%d1
 4106 2548 C280      	and.l %d0,%d1
 4107 254a 2F41 000C 	move.l %d1,12(%sp)
1066:/home/simulink/cFS_FreeRTOS_seL4/cfe/fsw/cfe-core/src/fs/cfe_fs_decompress.c **** 	DUMPBITS(n);
 4108               	.loc 1 1066 0
 4109 254e 202F 000C 	move.l 12(%sp),%d0
 4110 2552 E0AB      	lsr.l %d0,%d3
 4111 2554 202F 000C 	move.l 12(%sp),%d0
 4112 2558 3000      	move.w %d0,%d0
 4113 255a 2202      	move.l %d2,%d1
 4114 255c 9280      	sub.l %d0,%d1
 4115 255e 2001      	move.l %d1,%d0
 4116 2560 3400      	move.w %d0,%d2
1067:/home/simulink/cFS_FreeRTOS_seL4/cfe/fsw/cfe-core/src/fs/cfe_fs_decompress.c **** 
1068:/home/simulink/cFS_FreeRTOS_seL4/cfe/fsw/cfe-core/src/fs/cfe_fs_decompress.c **** 	/*  get the length and its complement */
1069:/home/simulink/cFS_FreeRTOS_seL4/cfe/fsw/cfe-core/src/fs/cfe_fs_decompress.c **** 	NEEDBITS(16);
68K GAS   			page 98


 4117               	.loc 1 1069 0
 4118 2562 6076      	jra .L308
 4119               	.L313:
 4120               	.loc 1 1069 0 is_stmt 0 discriminator 8
 4121 2564 206F 0014 	move.l 20(%sp),%a0
 4122 2568 2228 0018 	move.l 24(%a0),%d1
 4123 256c 206F 0014 	move.l 20(%sp),%a0
 4124 2570 2028 0014 	move.l 20(%a0),%d0
 4125 2574 B081      	cmp.l %d1,%d0
 4126 2576 6326      	jls .L309
 4127               	.loc 1 1069 0 discriminator 1
 4128 2578 206F 0014 	move.l 20(%sp),%a0
 4129 257c 2028 0018 	move.l 24(%a0),%d0
 4130 2580 2200      	move.l %d0,%d1
 4131 2582 5281      	addq.l #1,%d1
 4132 2584 206F 0014 	move.l 20(%sp),%a0
 4133 2588 2141 0018 	move.l %d1,24(%a0)
 4134 258c 206F 0014 	move.l 20(%sp),%a0
 4135 2590 1030 0828 	move.b 40(%a0,%d0.l),%d0
 4136 2594 1000      	move.b %d0,%d0
 4137 2596 0280 0000 	and.l #255,%d0
 4137      00FF 
 4138 259c 6016      	jra .L310
 4139               	.L309:
 4140               	.loc 1 1069 0 discriminator 2
 4141 259e 2F2F 0014 	move.l 20(%sp),-(%sp)
 4142               	.cfi_def_cfa_offset 24
 4143 25a2 4EB9 0000 	jsr FS_gz_fill_inbuf_Reentrant
 4143      0000 
 4144 25a8 588F      	addq.l #4,%sp
 4145               	.cfi_def_cfa_offset 20
 4146 25aa 1000      	move.b %d0,%d0
 4147 25ac 1000      	move.b %d0,%d0
 4148 25ae 0280 0000 	and.l #255,%d0
 4148      00FF 
 4149               	.L310:
 4150               	.loc 1 1069 0 discriminator 4
 4151 25b4 4281      	clr.l %d1
 4152 25b6 3202      	move.w %d2,%d1
 4153 25b8 E3A8      	lsl.l %d1,%d0
 4154 25ba 8680      	or.l %d0,%d3
 4155 25bc 206F 0014 	move.l 20(%sp),%a0
 4156 25c0 2028 0024 	move.l 36(%a0),%d0
 4157 25c4 4A80      	tst.l %d0
 4158 25c6 670C      	jeq .L311
 4159               	.loc 1 1069 0 discriminator 5
 4160 25c8 206F 0014 	move.l 20(%sp),%a0
 4161 25cc 2028 0024 	move.l 36(%a0),%d0
 4162 25d0 6000 01D6 	jra .L312
 4163               	.L311:
 4164               	.loc 1 1069 0 discriminator 6
 4165 25d4 2002      	move.l %d2,%d0
 4166 25d6 5080      	addq.l #8,%d0
 4167 25d8 3400      	move.w %d0,%d2
 4168               	.L308:
 4169               	.loc 1 1069 0 discriminator 7
 4170 25da 4280      	clr.l %d0
68K GAS   			page 99


 4171 25dc 3002      	move.w %d2,%d0
 4172 25de 720F      	moveq #15,%d1
 4173 25e0 B280      	cmp.l %d0,%d1
 4174 25e2 6480      	jcc .L313
1070:/home/simulink/cFS_FreeRTOS_seL4/cfe/fsw/cfe-core/src/fs/cfe_fs_decompress.c **** 	n = ( (uint32)b & 0xffff );
 4175               	.loc 1 1070 0 is_stmt 1
 4176 25e4 2003      	move.l %d3,%d0
 4177 25e6 0280 0000 	and.l #65535,%d0
 4177      FFFF 
 4178 25ec 2F40 000C 	move.l %d0,12(%sp)
1071:/home/simulink/cFS_FreeRTOS_seL4/cfe/fsw/cfe-core/src/fs/cfe_fs_decompress.c **** 	DUMPBITS(16);
 4179               	.loc 1 1071 0
 4180 25f0 4243      	clr.w %d3
 4181 25f2 4843      	swap %d3
 4182 25f4 2002      	move.l %d2,%d0
 4183 25f6 0680 FFFF 	add.l #-16,%d0
 4183      FFF0 
 4184 25fc 3400      	move.w %d0,%d2
1072:/home/simulink/cFS_FreeRTOS_seL4/cfe/fsw/cfe-core/src/fs/cfe_fs_decompress.c **** 
1073:/home/simulink/cFS_FreeRTOS_seL4/cfe/fsw/cfe-core/src/fs/cfe_fs_decompress.c **** 	NEEDBITS(16);
 4185               	.loc 1 1073 0
 4186 25fe 6076      	jra .L314
 4187               	.L318:
 4188               	.loc 1 1073 0 is_stmt 0 discriminator 8
 4189 2600 206F 0014 	move.l 20(%sp),%a0
 4190 2604 2228 0018 	move.l 24(%a0),%d1
 4191 2608 206F 0014 	move.l 20(%sp),%a0
 4192 260c 2028 0014 	move.l 20(%a0),%d0
 4193 2610 B081      	cmp.l %d1,%d0
 4194 2612 6326      	jls .L315
 4195               	.loc 1 1073 0 discriminator 1
 4196 2614 206F 0014 	move.l 20(%sp),%a0
 4197 2618 2028 0018 	move.l 24(%a0),%d0
 4198 261c 2200      	move.l %d0,%d1
 4199 261e 5281      	addq.l #1,%d1
 4200 2620 206F 0014 	move.l 20(%sp),%a0
 4201 2624 2141 0018 	move.l %d1,24(%a0)
 4202 2628 206F 0014 	move.l 20(%sp),%a0
 4203 262c 1030 0828 	move.b 40(%a0,%d0.l),%d0
 4204 2630 1000      	move.b %d0,%d0
 4205 2632 0280 0000 	and.l #255,%d0
 4205      00FF 
 4206 2638 6016      	jra .L316
 4207               	.L315:
 4208               	.loc 1 1073 0 discriminator 2
 4209 263a 2F2F 0014 	move.l 20(%sp),-(%sp)
 4210               	.cfi_def_cfa_offset 24
 4211 263e 4EB9 0000 	jsr FS_gz_fill_inbuf_Reentrant
 4211      0000 
 4212 2644 588F      	addq.l #4,%sp
 4213               	.cfi_def_cfa_offset 20
 4214 2646 1000      	move.b %d0,%d0
 4215 2648 1000      	move.b %d0,%d0
 4216 264a 0280 0000 	and.l #255,%d0
 4216      00FF 
 4217               	.L316:
 4218               	.loc 1 1073 0 discriminator 4
68K GAS   			page 100


 4219 2650 4281      	clr.l %d1
 4220 2652 3202      	move.w %d2,%d1
 4221 2654 E3A8      	lsl.l %d1,%d0
 4222 2656 8680      	or.l %d0,%d3
 4223 2658 206F 0014 	move.l 20(%sp),%a0
 4224 265c 2028 0024 	move.l 36(%a0),%d0
 4225 2660 4A80      	tst.l %d0
 4226 2662 670C      	jeq .L317
 4227               	.loc 1 1073 0 discriminator 5
 4228 2664 206F 0014 	move.l 20(%sp),%a0
 4229 2668 2028 0024 	move.l 36(%a0),%d0
 4230 266c 6000 013A 	jra .L312
 4231               	.L317:
 4232               	.loc 1 1073 0 discriminator 6
 4233 2670 2002      	move.l %d2,%d0
 4234 2672 5080      	addq.l #8,%d0
 4235 2674 3400      	move.w %d0,%d2
 4236               	.L314:
 4237               	.loc 1 1073 0 discriminator 7
 4238 2676 4280      	clr.l %d0
 4239 2678 3002      	move.w %d2,%d0
 4240 267a 720F      	moveq #15,%d1
 4241 267c B280      	cmp.l %d0,%d1
 4242 267e 6480      	jcc .L318
1074:/home/simulink/cFS_FreeRTOS_seL4/cfe/fsw/cfe-core/src/fs/cfe_fs_decompress.c **** 	if ( n != (uint32)( (~b) & 0xffff) )  return CFE_FS_GZIP_BAD_DATA;    /* error in compressed data 
 4243               	.loc 1 1074 0 is_stmt 1
 4244 2680 2003      	move.l %d3,%d0
 4245 2682 4680      	not.l %d0
 4246 2684 0280 0000 	and.l #65535,%d0
 4246      FFFF 
 4247 268a B0AF 000C 	cmp.l 12(%sp),%d0
 4248 268e 670A      	jeq .L319
 4249               	.loc 1 1074 0 is_stmt 0 discriminator 1
 4250 2690 203C C600 	move.l #-973078524,%d0
 4250      0004 
 4251 2696 6000 0110 	jra .L312
 4252               	.L319:
1075:/home/simulink/cFS_FreeRTOS_seL4/cfe/fsw/cfe-core/src/fs/cfe_fs_decompress.c **** 	DUMPBITS(16);
 4253               	.loc 1 1075 0 is_stmt 1
 4254 269a 4243      	clr.w %d3
 4255 269c 4843      	swap %d3
 4256 269e 2002      	move.l %d2,%d0
 4257 26a0 0680 FFFF 	add.l #-16,%d0
 4257      FFF0 
 4258 26a6 3400      	move.w %d0,%d2
1076:/home/simulink/cFS_FreeRTOS_seL4/cfe/fsw/cfe-core/src/fs/cfe_fs_decompress.c **** 
1077:/home/simulink/cFS_FreeRTOS_seL4/cfe/fsw/cfe-core/src/fs/cfe_fs_decompress.c **** 
1078:/home/simulink/cFS_FreeRTOS_seL4/cfe/fsw/cfe-core/src/fs/cfe_fs_decompress.c **** 	/*  read and output the compressed data */
1079:/home/simulink/cFS_FreeRTOS_seL4/cfe/fsw/cfe-core/src/fs/cfe_fs_decompress.c **** 	while (n--) 
 4259               	.loc 1 1079 0
 4260 26a8 6000 00CE 	jra .L320
 4261               	.L325:
1080:/home/simulink/cFS_FreeRTOS_seL4/cfe/fsw/cfe-core/src/fs/cfe_fs_decompress.c ****    {
1081:/home/simulink/cFS_FreeRTOS_seL4/cfe/fsw/cfe-core/src/fs/cfe_fs_decompress.c **** 		NEEDBITS(8);
 4262               	.loc 1 1081 0 discriminator 8
 4263 26ac 206F 0014 	move.l 20(%sp),%a0
 4264 26b0 2228 0018 	move.l 24(%a0),%d1
68K GAS   			page 101


 4265 26b4 206F 0014 	move.l 20(%sp),%a0
 4266 26b8 2028 0014 	move.l 20(%a0),%d0
 4267 26bc B081      	cmp.l %d1,%d0
 4268 26be 6326      	jls .L322
 4269               	.loc 1 1081 0 is_stmt 0 discriminator 1
 4270 26c0 206F 0014 	move.l 20(%sp),%a0
 4271 26c4 2028 0018 	move.l 24(%a0),%d0
 4272 26c8 2200      	move.l %d0,%d1
 4273 26ca 5281      	addq.l #1,%d1
 4274 26cc 206F 0014 	move.l 20(%sp),%a0
 4275 26d0 2141 0018 	move.l %d1,24(%a0)
 4276 26d4 206F 0014 	move.l 20(%sp),%a0
 4277 26d8 1030 0828 	move.b 40(%a0,%d0.l),%d0
 4278 26dc 1000      	move.b %d0,%d0
 4279 26de 0280 0000 	and.l #255,%d0
 4279      00FF 
 4280 26e4 6016      	jra .L323
 4281               	.L322:
 4282               	.loc 1 1081 0 discriminator 2
 4283 26e6 2F2F 0014 	move.l 20(%sp),-(%sp)
 4284               	.cfi_def_cfa_offset 24
 4285 26ea 4EB9 0000 	jsr FS_gz_fill_inbuf_Reentrant
 4285      0000 
 4286 26f0 588F      	addq.l #4,%sp
 4287               	.cfi_def_cfa_offset 20
 4288 26f2 1000      	move.b %d0,%d0
 4289 26f4 1000      	move.b %d0,%d0
 4290 26f6 0280 0000 	and.l #255,%d0
 4290      00FF 
 4291               	.L323:
 4292               	.loc 1 1081 0 discriminator 4
 4293 26fc 4281      	clr.l %d1
 4294 26fe 3202      	move.w %d2,%d1
 4295 2700 E3A8      	lsl.l %d1,%d0
 4296 2702 8680      	or.l %d0,%d3
 4297 2704 206F 0014 	move.l 20(%sp),%a0
 4298 2708 2028 0024 	move.l 36(%a0),%d0
 4299 270c 4A80      	tst.l %d0
 4300 270e 670C      	jeq .L324
 4301               	.loc 1 1081 0 discriminator 5
 4302 2710 206F 0014 	move.l 20(%sp),%a0
 4303 2714 2028 0024 	move.l 36(%a0),%d0
 4304 2718 6000 008E 	jra .L312
 4305               	.L324:
 4306               	.loc 1 1081 0 discriminator 6
 4307 271c 2002      	move.l %d2,%d0
 4308 271e 5080      	addq.l #8,%d0
 4309 2720 3400      	move.w %d0,%d2
 4310               	.L321:
 4311               	.loc 1 1081 0 discriminator 7
 4312 2722 4280      	clr.l %d0
 4313 2724 3002      	move.w %d2,%d0
 4314 2726 7207      	moveq #7,%d1
 4315 2728 B280      	cmp.l %d0,%d1
 4316 272a 6480      	jcc .L325
1082:/home/simulink/cFS_FreeRTOS_seL4/cfe/fsw/cfe-core/src/fs/cfe_fs_decompress.c ****       State->window[w++] = (uint8)b;
 4317               	.loc 1 1082 0 is_stmt 1
68K GAS   			page 102


 4318 272c 202F 0008 	move.l 8(%sp),%d0
 4319 2730 2200      	move.l %d0,%d1
 4320 2732 5281      	addq.l #1,%d1
 4321 2734 2F41 0008 	move.l %d1,8(%sp)
 4322 2738 1203      	move.b %d3,%d1
 4323 273a 206F 0014 	move.l 20(%sp),%a0
 4324 273e D088      	add.l %a0,%d0
 4325 2740 2040      	move.l %d0,%a0
 4326 2742 D1FC 0000 	add.l #51304,%a0
 4326      C868 
 4327 2748 1081      	move.b %d1,(%a0)
1083:/home/simulink/cFS_FreeRTOS_seL4/cfe/fsw/cfe-core/src/fs/cfe_fs_decompress.c **** 		if ( w == WSIZE ) 
 4328               	.loc 1 1083 0
 4329 274a 203C 0000 	move.l #32768,%d0
 4329      8000 
 4330 2750 B0AF 0008 	cmp.l 8(%sp),%d0
 4331 2754 661A      	jne .L326
1084:/home/simulink/cFS_FreeRTOS_seL4/cfe/fsw/cfe-core/src/fs/cfe_fs_decompress.c ****       {
1085:/home/simulink/cFS_FreeRTOS_seL4/cfe/fsw/cfe-core/src/fs/cfe_fs_decompress.c **** 	        State->outcnt = w;
 4332               	.loc 1 1085 0
 4333 2756 206F 0014 	move.l 20(%sp),%a0
 4334 275a 216F 0008 	move.l 8(%sp),16(%a0)
 4334      0010 
1086:/home/simulink/cFS_FreeRTOS_seL4/cfe/fsw/cfe-core/src/fs/cfe_fs_decompress.c **** 	        FS_gz_flush_window_Reentrant(State);
 4335               	.loc 1 1086 0
 4336 2760 2F2F 0014 	move.l 20(%sp),-(%sp)
 4337               	.cfi_def_cfa_offset 24
 4338 2764 4EB9 0000 	jsr FS_gz_flush_window_Reentrant
 4338      0000 
 4339 276a 588F      	addq.l #4,%sp
 4340               	.cfi_def_cfa_offset 20
1087:/home/simulink/cFS_FreeRTOS_seL4/cfe/fsw/cfe-core/src/fs/cfe_fs_decompress.c **** 	        w = 0;
 4341               	.loc 1 1087 0
 4342 276c 42AF 0008 	clr.l 8(%sp)
 4343               	.L326:
1088:/home/simulink/cFS_FreeRTOS_seL4/cfe/fsw/cfe-core/src/fs/cfe_fs_decompress.c **** 		}
1089:/home/simulink/cFS_FreeRTOS_seL4/cfe/fsw/cfe-core/src/fs/cfe_fs_decompress.c **** 		DUMPBITS(8);
 4344               	.loc 1 1089 0
 4345 2770 E08B      	lsr.l #8,%d3
 4346 2772 2002      	move.l %d2,%d0
 4347 2774 5180      	subq.l #8,%d0
 4348 2776 3400      	move.w %d0,%d2
 4349               	.L320:
1079:/home/simulink/cFS_FreeRTOS_seL4/cfe/fsw/cfe-core/src/fs/cfe_fs_decompress.c ****    {
 4350               	.loc 1 1079 0
 4351 2778 202F 000C 	move.l 12(%sp),%d0
 4352 277c 2200      	move.l %d0,%d1
 4353 277e 5381      	subq.l #1,%d1
 4354 2780 2F41 000C 	move.l %d1,12(%sp)
 4355 2784 4A80      	tst.l %d0
 4356 2786 669A      	jne .L321
1090:/home/simulink/cFS_FreeRTOS_seL4/cfe/fsw/cfe-core/src/fs/cfe_fs_decompress.c **** 	}
1091:/home/simulink/cFS_FreeRTOS_seL4/cfe/fsw/cfe-core/src/fs/cfe_fs_decompress.c **** 
1092:/home/simulink/cFS_FreeRTOS_seL4/cfe/fsw/cfe-core/src/fs/cfe_fs_decompress.c **** 	/*  restore the globals from the locals */
1093:/home/simulink/cFS_FreeRTOS_seL4/cfe/fsw/cfe-core/src/fs/cfe_fs_decompress.c **** 	State->outcnt = w;					/* restore global window pointer */
 4357               	.loc 1 1093 0
 4358 2788 206F 0014 	move.l 20(%sp),%a0
68K GAS   			page 103


 4359 278c 216F 0008 	move.l 8(%sp),16(%a0)
 4359      0010 
1094:/home/simulink/cFS_FreeRTOS_seL4/cfe/fsw/cfe-core/src/fs/cfe_fs_decompress.c **** 	State->bb     = b;					/* restore global bit buffer */
 4360               	.loc 1 1094 0
 4361 2792 206F 0014 	move.l 20(%sp),%a0
 4362 2796 2143 0008 	move.l %d3,8(%a0)
1095:/home/simulink/cFS_FreeRTOS_seL4/cfe/fsw/cfe-core/src/fs/cfe_fs_decompress.c **** 	State->bk     = k;
 4363               	.loc 1 1095 0
 4364 279a 4280      	clr.l %d0
 4365 279c 3002      	move.w %d2,%d0
 4366 279e 206F 0014 	move.l 20(%sp),%a0
 4367 27a2 2140 000C 	move.l %d0,12(%a0)
1096:/home/simulink/cFS_FreeRTOS_seL4/cfe/fsw/cfe-core/src/fs/cfe_fs_decompress.c **** 
1097:/home/simulink/cFS_FreeRTOS_seL4/cfe/fsw/cfe-core/src/fs/cfe_fs_decompress.c **** 	return CFE_SUCCESS;
 4368               	.loc 1 1097 0
 4369 27a6 4280      	clr.l %d0
 4370               	.L312:
1098:/home/simulink/cFS_FreeRTOS_seL4/cfe/fsw/cfe-core/src/fs/cfe_fs_decompress.c **** 
1099:/home/simulink/cFS_FreeRTOS_seL4/cfe/fsw/cfe-core/src/fs/cfe_fs_decompress.c **** }
 4371               	.loc 1 1099 0
 4372 27a8 241F      	move.l (%sp)+,%d2
 4373 27aa 261F      	move.l (%sp)+,%d3
 4374 27ac 508F      	addq.l #8,%sp
 4375 27ae 4E75      	rts
 4376               	.cfi_endproc
 4377               	.LFE71:
 4378               	.sizeFS_gz_inflate_stored_Reentrant, .-FS_gz_inflate_stored_Reentrant
 4379               	.align2
 4380               	.globlFS_gz_unzip_Reentrant
 4381               	.typeFS_gz_unzip_Reentrant, @function
 4382               	FS_gz_unzip_Reentrant:
 4383               	.LFB72:
1100:/home/simulink/cFS_FreeRTOS_seL4/cfe/fsw/cfe-core/src/fs/cfe_fs_decompress.c **** 
1101:/home/simulink/cFS_FreeRTOS_seL4/cfe/fsw/cfe-core/src/fs/cfe_fs_decompress.c **** 
1102:/home/simulink/cFS_FreeRTOS_seL4/cfe/fsw/cfe-core/src/fs/cfe_fs_decompress.c **** /* > merged original gunzip & unzip into a single routine */
1103:/home/simulink/cFS_FreeRTOS_seL4/cfe/fsw/cfe-core/src/fs/cfe_fs_decompress.c **** /* > replaced Read & Write indirection */
1104:/home/simulink/cFS_FreeRTOS_seL4/cfe/fsw/cfe-core/src/fs/cfe_fs_decompress.c **** 
1105:/home/simulink/cFS_FreeRTOS_seL4/cfe/fsw/cfe-core/src/fs/cfe_fs_decompress.c **** int32 FS_gz_unzip_Reentrant( CFE_FS_Decompress_State_t *State )
1106:/home/simulink/cFS_FreeRTOS_seL4/cfe/fsw/cfe-core/src/fs/cfe_fs_decompress.c **** {
 4384               	.loc 1 1106 0
 4385               	.cfi_startproc
 4386 27b0 4FEF FFDC 	lea (-36,%sp),%sp
 4387               	.cfi_def_cfa_offset 40
 4388 27b4 2F02      	move.l %d2,-(%sp)
 4389               	.cfi_def_cfa_offset 44
 4390               	.cfi_offset 2, -44
1107:/home/simulink/cFS_FreeRTOS_seL4/cfe/fsw/cfe-core/src/fs/cfe_fs_decompress.c **** 	/*  -- -- -- -- -- -- -- -- -- -- -- -- -- -- -- -- -- -- */
1108:/home/simulink/cFS_FreeRTOS_seL4/cfe/fsw/cfe-core/src/fs/cfe_fs_decompress.c **** 	/*  Unzip in to out.  This routine works on both gzip files. */
1109:/home/simulink/cFS_FreeRTOS_seL4/cfe/fsw/cfe-core/src/fs/cfe_fs_decompress.c **** 
1110:/home/simulink/cFS_FreeRTOS_seL4/cfe/fsw/cfe-core/src/fs/cfe_fs_decompress.c **** 	/*  IN assertions: the buffer State->inbuf contains already the beginning of the */
1111:/home/simulink/cFS_FreeRTOS_seL4/cfe/fsw/cfe-core/src/fs/cfe_fs_decompress.c **** 	/*   compressed data, from offsets State->inptr to State->insize-1 included. The magic */
1112:/home/simulink/cFS_FreeRTOS_seL4/cfe/fsw/cfe-core/src/fs/cfe_fs_decompress.c **** 	/*   header has already been checked. The output buffer is cleared. */
1113:/home/simulink/cFS_FreeRTOS_seL4/cfe/fsw/cfe-core/src/fs/cfe_fs_decompress.c **** 
1114:/home/simulink/cFS_FreeRTOS_seL4/cfe/fsw/cfe-core/src/fs/cfe_fs_decompress.c **** 	int32          guzerror;
1115:/home/simulink/cFS_FreeRTOS_seL4/cfe/fsw/cfe-core/src/fs/cfe_fs_decompress.c **** 	uint32         orig_crc = 0;        /* original crc */
 4391               	.loc 1 1115 0
 4392 27b6 42AF 0020 	clr.l 32(%sp)
68K GAS   			page 104


1116:/home/simulink/cFS_FreeRTOS_seL4/cfe/fsw/cfe-core/src/fs/cfe_fs_decompress.c **** 	uint32         orig_len = 0;        /* original uncompressed length */
 4393               	.loc 1 1116 0
 4394 27ba 42AF 001C 	clr.l 28(%sp)
1117:/home/simulink/cFS_FreeRTOS_seL4/cfe/fsw/cfe-core/src/fs/cfe_fs_decompress.c **** 	int32          n;
1118:/home/simulink/cFS_FreeRTOS_seL4/cfe/fsw/cfe-core/src/fs/cfe_fs_decompress.c **** 	uint8          buf[EXTHDR];         /* extended local header */
1119:/home/simulink/cFS_FreeRTOS_seL4/cfe/fsw/cfe-core/src/fs/cfe_fs_decompress.c **** 	int32          res;
1120:/home/simulink/cFS_FreeRTOS_seL4/cfe/fsw/cfe-core/src/fs/cfe_fs_decompress.c **** 
1121:/home/simulink/cFS_FreeRTOS_seL4/cfe/fsw/cfe-core/src/fs/cfe_fs_decompress.c **** 	FS_gz_clear_bufs_Reentrant(State);
 4395               	.loc 1 1121 0
 4396 27be 2F2F 002C 	move.l 44(%sp),-(%sp)
 4397               	.cfi_def_cfa_offset 48
 4398 27c2 4EB9 0000 	jsr FS_gz_clear_bufs_Reentrant
 4398      0000 
 4399 27c8 588F      	addq.l #4,%sp
 4400               	.cfi_def_cfa_offset 44
1122:/home/simulink/cFS_FreeRTOS_seL4/cfe/fsw/cfe-core/src/fs/cfe_fs_decompress.c **** 
1123:/home/simulink/cFS_FreeRTOS_seL4/cfe/fsw/cfe-core/src/fs/cfe_fs_decompress.c **** 	/*  Snarf up the header for the zip file, check for read error */
1124:/home/simulink/cFS_FreeRTOS_seL4/cfe/fsw/cfe-core/src/fs/cfe_fs_decompress.c **** 	guzerror = FS_gz_eat_header_Reentrant(State);
 4401               	.loc 1 1124 0
 4402 27ca 2F2F 002C 	move.l 44(%sp),-(%sp)
 4403               	.cfi_def_cfa_offset 48
 4404 27ce 4EB9 0000 	jsr FS_gz_eat_header_Reentrant
 4404      0000 
 4405 27d4 588F      	addq.l #4,%sp
 4406               	.cfi_def_cfa_offset 44
 4407 27d6 2F40 0018 	move.l %d0,24(%sp)
1125:/home/simulink/cFS_FreeRTOS_seL4/cfe/fsw/cfe-core/src/fs/cfe_fs_decompress.c **** 
1126:/home/simulink/cFS_FreeRTOS_seL4/cfe/fsw/cfe-core/src/fs/cfe_fs_decompress.c **** 	if( guzerror != CFE_SUCCESS ) return guzerror;
 4408               	.loc 1 1126 0
 4409 27da 4AAF 0018 	tst.l 24(%sp)
 4410 27de 6708      	jeq .L329
 4411               	.loc 1 1126 0 is_stmt 0 discriminator 1
 4412 27e0 202F 0018 	move.l 24(%sp),%d0
 4413 27e4 6000 015A 	jra .L339
 4414               	.L329:
1127:/home/simulink/cFS_FreeRTOS_seL4/cfe/fsw/cfe-core/src/fs/cfe_fs_decompress.c **** 
1128:/home/simulink/cFS_FreeRTOS_seL4/cfe/fsw/cfe-core/src/fs/cfe_fs_decompress.c **** 	FS_gz_updcrc(NULL, 0);	                /* initialize crc */
 4415               	.loc 1 1128 0 is_stmt 1
 4416 27e8 42A7      	clr.l -(%sp)
 4417               	.cfi_def_cfa_offset 48
 4418 27ea 42A7      	clr.l -(%sp)
 4419               	.cfi_def_cfa_offset 52
 4420 27ec 4EB9 0000 	jsr FS_gz_updcrc
 4420      0000 
 4421 27f2 508F      	addq.l #8,%sp
 4422               	.cfi_def_cfa_offset 44
1129:/home/simulink/cFS_FreeRTOS_seL4/cfe/fsw/cfe-core/src/fs/cfe_fs_decompress.c **** 
1130:/home/simulink/cFS_FreeRTOS_seL4/cfe/fsw/cfe-core/src/fs/cfe_fs_decompress.c **** 	res = FS_gz_inflate_Reentrant(State);
 4423               	.loc 1 1130 0
 4424 27f4 2F2F 002C 	move.l 44(%sp),-(%sp)
 4425               	.cfi_def_cfa_offset 48
 4426 27f8 4EB9 0000 	jsr FS_gz_inflate_Reentrant
 4426      0000 
 4427 27fe 588F      	addq.l #4,%sp
 4428               	.cfi_def_cfa_offset 44
 4429 2800 2F40 0014 	move.l %d0,20(%sp)
1131:/home/simulink/cFS_FreeRTOS_seL4/cfe/fsw/cfe-core/src/fs/cfe_fs_decompress.c **** 
68K GAS   			page 105


1132:/home/simulink/cFS_FreeRTOS_seL4/cfe/fsw/cfe-core/src/fs/cfe_fs_decompress.c **** 	if ( res != CFE_SUCCESS ) return res;
 4430               	.loc 1 1132 0
 4431 2804 4AAF 0014 	tst.l 20(%sp)
 4432 2808 6708      	jeq .L331
 4433               	.loc 1 1132 0 is_stmt 0 discriminator 1
 4434 280a 202F 0014 	move.l 20(%sp),%d0
 4435 280e 6000 0130 	jra .L339
 4436               	.L331:
1133:/home/simulink/cFS_FreeRTOS_seL4/cfe/fsw/cfe-core/src/fs/cfe_fs_decompress.c **** 
1134:/home/simulink/cFS_FreeRTOS_seL4/cfe/fsw/cfe-core/src/fs/cfe_fs_decompress.c **** 	/*  Get the crc and original length */
1135:/home/simulink/cFS_FreeRTOS_seL4/cfe/fsw/cfe-core/src/fs/cfe_fs_decompress.c **** 	/*    crc32  (see algorithm.doc) uncompressed input size modulo 2^32 */
1136:/home/simulink/cFS_FreeRTOS_seL4/cfe/fsw/cfe-core/src/fs/cfe_fs_decompress.c **** 	for ( n = 0; n < 8; n++ ) 
 4437               	.loc 1 1136 0 is_stmt 1
 4438 2812 42AF 0024 	clr.l 36(%sp)
 4439 2816 6068      	jra .L332
 4440               	.L336:
1137:/home/simulink/cFS_FreeRTOS_seL4/cfe/fsw/cfe-core/src/fs/cfe_fs_decompress.c ****    {
1138:/home/simulink/cFS_FreeRTOS_seL4/cfe/fsw/cfe-core/src/fs/cfe_fs_decompress.c **** 		buf[n] = NEXTBYTE();      
 4441               	.loc 1 1138 0
 4442 2818 206F 002C 	move.l 44(%sp),%a0
 4443 281c 2228 0018 	move.l 24(%a0),%d1
 4444 2820 206F 002C 	move.l 44(%sp),%a0
 4445 2824 2028 0014 	move.l 20(%a0),%d0
 4446 2828 B081      	cmp.l %d1,%d0
 4447 282a 631E      	jls .L333
 4448               	.loc 1 1138 0 is_stmt 0 discriminator 1
 4449 282c 206F 002C 	move.l 44(%sp),%a0
 4450 2830 2028 0018 	move.l 24(%a0),%d0
 4451 2834 2200      	move.l %d0,%d1
 4452 2836 5281      	addq.l #1,%d1
 4453 2838 206F 002C 	move.l 44(%sp),%a0
 4454 283c 2141 0018 	move.l %d1,24(%a0)
 4455 2840 206F 002C 	move.l 44(%sp),%a0
 4456 2844 1030 0828 	move.b 40(%a0,%d0.l),%d0
 4457 2848 600E      	jra .L334
 4458               	.L333:
 4459               	.loc 1 1138 0 discriminator 2
 4460 284a 2F2F 002C 	move.l 44(%sp),-(%sp)
 4461               	.cfi_def_cfa_offset 48
 4462 284e 4EB9 0000 	jsr FS_gz_fill_inbuf_Reentrant
 4462      0000 
 4463 2854 588F      	addq.l #4,%sp
 4464               	.cfi_def_cfa_offset 44
 4465 2856 1000      	move.b %d0,%d0
 4466               	.L334:
 4467               	.loc 1 1138 0 discriminator 4
 4468 2858 220F      	move.l %sp,%d1
 4469 285a 5881      	addq.l #4,%d1
 4470 285c 2041      	move.l %d1,%a0
 4471 285e D1EF 0024 	add.l 36(%sp),%a0
 4472 2862 1080      	move.b %d0,(%a0)
1139:/home/simulink/cFS_FreeRTOS_seL4/cfe/fsw/cfe-core/src/fs/cfe_fs_decompress.c **** 		if ( State->Error != CFE_SUCCESS ) return State->Error;
 4473               	.loc 1 1139 0 is_stmt 1 discriminator 4
 4474 2864 206F 002C 	move.l 44(%sp),%a0
 4475 2868 2028 0024 	move.l 36(%a0),%d0
 4476 286c 4A80      	tst.l %d0
 4477 286e 670C      	jeq .L335
68K GAS   			page 106


 4478               	.loc 1 1139 0 is_stmt 0 discriminator 1
 4479 2870 206F 002C 	move.l 44(%sp),%a0
 4480 2874 2028 0024 	move.l 36(%a0),%d0
 4481 2878 6000 00C6 	jra .L339
 4482               	.L335:
1136:/home/simulink/cFS_FreeRTOS_seL4/cfe/fsw/cfe-core/src/fs/cfe_fs_decompress.c ****    {
 4483               	.loc 1 1136 0 is_stmt 1 discriminator 2
 4484 287c 52AF 0024 	addq.l #1,36(%sp)
 4485               	.L332:
1136:/home/simulink/cFS_FreeRTOS_seL4/cfe/fsw/cfe-core/src/fs/cfe_fs_decompress.c ****    {
 4486               	.loc 1 1136 0 is_stmt 0 discriminator 1
 4487 2880 7007      	moveq #7,%d0
 4488 2882 B0AF 0024 	cmp.l 36(%sp),%d0
 4489 2886 6C90      	jge .L336
1140:/home/simulink/cFS_FreeRTOS_seL4/cfe/fsw/cfe-core/src/fs/cfe_fs_decompress.c **** 	}
1141:/home/simulink/cFS_FreeRTOS_seL4/cfe/fsw/cfe-core/src/fs/cfe_fs_decompress.c **** 	orig_crc = LG(buf);
 4490               	.loc 1 1141 0 is_stmt 1
 4491 2888 102F 0004 	move.b 4(%sp),%d0
 4492 288c 4281      	clr.l %d1
 4493 288e 1200      	move.b %d0,%d1
 4494 2890 102F 0005 	move.b 5(%sp),%d0
 4495 2894 1000      	move.b %d0,%d0
 4496 2896 0280 0000 	and.l #255,%d0
 4496      00FF 
 4497 289c E188      	lsl.l #8,%d0
 4498 289e 8081      	or.l %d1,%d0
 4499 28a0 2200      	move.l %d0,%d1
 4500 28a2 102F 0006 	move.b 6(%sp),%d0
 4501 28a6 4282      	clr.l %d2
 4502 28a8 1400      	move.b %d0,%d2
 4503 28aa 102F 0007 	move.b 7(%sp),%d0
 4504 28ae 1000      	move.b %d0,%d0
 4505 28b0 0280 0000 	and.l #255,%d0
 4505      00FF 
 4506 28b6 E188      	lsl.l #8,%d0
 4507 28b8 8082      	or.l %d2,%d0
 4508 28ba 4840      	swap %d0
 4509 28bc 4240      	clr.w %d0
 4510 28be 2401      	move.l %d1,%d2
 4511 28c0 8480      	or.l %d0,%d2
 4512 28c2 2F42 0020 	move.l %d2,32(%sp)
1142:/home/simulink/cFS_FreeRTOS_seL4/cfe/fsw/cfe-core/src/fs/cfe_fs_decompress.c **** 	orig_len = LG(buf + 4);
 4513               	.loc 1 1142 0
 4514 28c6 102F 0008 	move.b 8(%sp),%d0
 4515 28ca 4281      	clr.l %d1
 4516 28cc 1200      	move.b %d0,%d1
 4517 28ce 102F 0009 	move.b 9(%sp),%d0
 4518 28d2 1000      	move.b %d0,%d0
 4519 28d4 0280 0000 	and.l #255,%d0
 4519      00FF 
 4520 28da E188      	lsl.l #8,%d0
 4521 28dc 8081      	or.l %d1,%d0
 4522 28de 2200      	move.l %d0,%d1
 4523 28e0 102F 000A 	move.b 10(%sp),%d0
 4524 28e4 4282      	clr.l %d2
 4525 28e6 1400      	move.b %d0,%d2
 4526 28e8 102F 000B 	move.b 11(%sp),%d0
68K GAS   			page 107


 4527 28ec 1000      	move.b %d0,%d0
 4528 28ee 0280 0000 	and.l #255,%d0
 4528      00FF 
 4529 28f4 E188      	lsl.l #8,%d0
 4530 28f6 8082      	or.l %d2,%d0
 4531 28f8 4840      	swap %d0
 4532 28fa 4240      	clr.w %d0
 4533 28fc 2401      	move.l %d1,%d2
 4534 28fe 8480      	or.l %d0,%d2
 4535 2900 2F42 001C 	move.l %d2,28(%sp)
1143:/home/simulink/cFS_FreeRTOS_seL4/cfe/fsw/cfe-core/src/fs/cfe_fs_decompress.c **** 
1144:/home/simulink/cFS_FreeRTOS_seL4/cfe/fsw/cfe-core/src/fs/cfe_fs_decompress.c **** 	/*  Validate decompression */
1145:/home/simulink/cFS_FreeRTOS_seL4/cfe/fsw/cfe-core/src/fs/cfe_fs_decompress.c **** 	if ( orig_crc != FS_gz_updcrc( State->outbuf, 0 ) ) return CFE_FS_GZIP_CRC_ERROR;
 4536               	.loc 1 1145 0
 4537 2904 202F 002C 	move.l 44(%sp),%d0
 4538 2908 0680 0000 	add.l #32872,%d0
 4538      8068 
 4539 290e 42A7      	clr.l -(%sp)
 4540               	.cfi_def_cfa_offset 48
 4541 2910 2F00      	move.l %d0,-(%sp)
 4542               	.cfi_def_cfa_offset 52
 4543 2912 4EB9 0000 	jsr FS_gz_updcrc
 4543      0000 
 4544 2918 508F      	addq.l #8,%sp
 4545               	.cfi_def_cfa_offset 44
 4546 291a B0AF 0020 	cmp.l 32(%sp),%d0
 4547 291e 6708      	jeq .L337
 4548               	.loc 1 1145 0 is_stmt 0 discriminator 1
 4549 2920 203C C600 	move.l #-973078521,%d0
 4549      0007 
 4550 2926 6018      	jra .L339
 4551               	.L337:
1146:/home/simulink/cFS_FreeRTOS_seL4/cfe/fsw/cfe-core/src/fs/cfe_fs_decompress.c **** 	if ( orig_len != (uint32)State->bytes_out )      return CFE_FS_GZIP_LENGTH_ERROR;
 4552               	.loc 1 1146 0 is_stmt 1
 4553 2928 206F 002C 	move.l 44(%sp),%a0
 4554 292c 2028 0020 	move.l 32(%a0),%d0
 4555 2930 B0AF 001C 	cmp.l 28(%sp),%d0
 4556 2934 6708      	jeq .L338
 4557               	.loc 1 1146 0 is_stmt 0 discriminator 1
 4558 2936 203C C600 	move.l #-973078520,%d0
 4558      0008 
 4559 293c 6002      	jra .L339
 4560               	.L338:
1147:/home/simulink/cFS_FreeRTOS_seL4/cfe/fsw/cfe-core/src/fs/cfe_fs_decompress.c **** 
1148:/home/simulink/cFS_FreeRTOS_seL4/cfe/fsw/cfe-core/src/fs/cfe_fs_decompress.c **** 	return CFE_SUCCESS;
 4561               	.loc 1 1148 0 is_stmt 1
 4562 293e 4280      	clr.l %d0
 4563               	.L339:
1149:/home/simulink/cFS_FreeRTOS_seL4/cfe/fsw/cfe-core/src/fs/cfe_fs_decompress.c **** 
1150:/home/simulink/cFS_FreeRTOS_seL4/cfe/fsw/cfe-core/src/fs/cfe_fs_decompress.c **** }
 4564               	.loc 1 1150 0 discriminator 1
 4565 2940 241F      	move.l (%sp)+,%d2
 4566 2942 4FEF 0024 	lea (36,%sp),%sp
 4567 2946 4E75      	rts
 4568               	.cfi_endproc
 4569               	.LFE72:
 4570               	.sizeFS_gz_unzip_Reentrant, .-FS_gz_unzip_Reentrant
68K GAS   			page 108


 4571               	.align2
 4572               	.globlFS_gz_updcrc
 4573               	.typeFS_gz_updcrc, @function
 4574               	FS_gz_updcrc:
 4575               	.LFB73:
1151:/home/simulink/cFS_FreeRTOS_seL4/cfe/fsw/cfe-core/src/fs/cfe_fs_decompress.c **** 
1152:/home/simulink/cFS_FreeRTOS_seL4/cfe/fsw/cfe-core/src/fs/cfe_fs_decompress.c **** 
1153:/home/simulink/cFS_FreeRTOS_seL4/cfe/fsw/cfe-core/src/fs/cfe_fs_decompress.c **** /*  Run a set of bytes through the crc shift register.  If s is a NULL */
1154:/home/simulink/cFS_FreeRTOS_seL4/cfe/fsw/cfe-core/src/fs/cfe_fs_decompress.c **** /*   pointer, then initialize the crc shift register contents instead. */ 
1155:/home/simulink/cFS_FreeRTOS_seL4/cfe/fsw/cfe-core/src/fs/cfe_fs_decompress.c **** /*   Return the current crc in either case. */
1156:/home/simulink/cFS_FreeRTOS_seL4/cfe/fsw/cfe-core/src/fs/cfe_fs_decompress.c **** 
1157:/home/simulink/cFS_FreeRTOS_seL4/cfe/fsw/cfe-core/src/fs/cfe_fs_decompress.c **** /*  input: */
1158:/home/simulink/cFS_FreeRTOS_seL4/cfe/fsw/cfe-core/src/fs/cfe_fs_decompress.c **** /*	  s  pointer to bytes to pump through */
1159:/home/simulink/cFS_FreeRTOS_seL4/cfe/fsw/cfe-core/src/fs/cfe_fs_decompress.c **** /*	  n	 number of bytes in s[] */
1160:/home/simulink/cFS_FreeRTOS_seL4/cfe/fsw/cfe-core/src/fs/cfe_fs_decompress.c **** uint32 FS_gz_updcrc( uint8 * s, uint32 n )
1161:/home/simulink/cFS_FreeRTOS_seL4/cfe/fsw/cfe-core/src/fs/cfe_fs_decompress.c **** {
 4576               	.loc 1 1161 0
 4577               	.cfi_startproc
 4578 2948 2F02      	move.l %d2,-(%sp)
 4579               	.cfi_def_cfa_offset 8
 4580               	.cfi_offset 2, -8
1162:/home/simulink/cFS_FreeRTOS_seL4/cfe/fsw/cfe-core/src/fs/cfe_fs_decompress.c **** 	static uint32 crc_32_tab[] = {
1163:/home/simulink/cFS_FreeRTOS_seL4/cfe/fsw/cfe-core/src/fs/cfe_fs_decompress.c **** 			0x00000000L, 0x77073096L, 0xee0e612cL, 0x990951baL, 0x076dc419L,
1164:/home/simulink/cFS_FreeRTOS_seL4/cfe/fsw/cfe-core/src/fs/cfe_fs_decompress.c **** 			0x706af48fL, 0xe963a535L, 0x9e6495a3L, 0x0edb8832L, 0x79dcb8a4L,
1165:/home/simulink/cFS_FreeRTOS_seL4/cfe/fsw/cfe-core/src/fs/cfe_fs_decompress.c **** 			0xe0d5e91eL, 0x97d2d988L, 0x09b64c2bL, 0x7eb17cbdL, 0xe7b82d07L,
1166:/home/simulink/cFS_FreeRTOS_seL4/cfe/fsw/cfe-core/src/fs/cfe_fs_decompress.c **** 			0x90bf1d91L, 0x1db71064L, 0x6ab020f2L, 0xf3b97148L, 0x84be41deL,
1167:/home/simulink/cFS_FreeRTOS_seL4/cfe/fsw/cfe-core/src/fs/cfe_fs_decompress.c **** 			0x1adad47dL, 0x6ddde4ebL, 0xf4d4b551L, 0x83d385c7L, 0x136c9856L,
1168:/home/simulink/cFS_FreeRTOS_seL4/cfe/fsw/cfe-core/src/fs/cfe_fs_decompress.c **** 			0x646ba8c0L, 0xfd62f97aL, 0x8a65c9ecL, 0x14015c4fL, 0x63066cd9L,
1169:/home/simulink/cFS_FreeRTOS_seL4/cfe/fsw/cfe-core/src/fs/cfe_fs_decompress.c **** 			0xfa0f3d63L, 0x8d080df5L, 0x3b6e20c8L, 0x4c69105eL, 0xd56041e4L,
1170:/home/simulink/cFS_FreeRTOS_seL4/cfe/fsw/cfe-core/src/fs/cfe_fs_decompress.c **** 			0xa2677172L, 0x3c03e4d1L, 0x4b04d447L, 0xd20d85fdL, 0xa50ab56bL,
1171:/home/simulink/cFS_FreeRTOS_seL4/cfe/fsw/cfe-core/src/fs/cfe_fs_decompress.c **** 			0x35b5a8faL, 0x42b2986cL, 0xdbbbc9d6L, 0xacbcf940L, 0x32d86ce3L,
1172:/home/simulink/cFS_FreeRTOS_seL4/cfe/fsw/cfe-core/src/fs/cfe_fs_decompress.c **** 			0x45df5c75L, 0xdcd60dcfL, 0xabd13d59L, 0x26d930acL, 0x51de003aL,
1173:/home/simulink/cFS_FreeRTOS_seL4/cfe/fsw/cfe-core/src/fs/cfe_fs_decompress.c **** 			0xc8d75180L, 0xbfd06116L, 0x21b4f4b5L, 0x56b3c423L, 0xcfba9599L,
1174:/home/simulink/cFS_FreeRTOS_seL4/cfe/fsw/cfe-core/src/fs/cfe_fs_decompress.c **** 			0xb8bda50fL, 0x2802b89eL, 0x5f058808L, 0xc60cd9b2L, 0xb10be924L,
1175:/home/simulink/cFS_FreeRTOS_seL4/cfe/fsw/cfe-core/src/fs/cfe_fs_decompress.c **** 			0x2f6f7c87L, 0x58684c11L, 0xc1611dabL, 0xb6662d3dL, 0x76dc4190L,
1176:/home/simulink/cFS_FreeRTOS_seL4/cfe/fsw/cfe-core/src/fs/cfe_fs_decompress.c **** 			0x01db7106L, 0x98d220bcL, 0xefd5102aL, 0x71b18589L, 0x06b6b51fL,
1177:/home/simulink/cFS_FreeRTOS_seL4/cfe/fsw/cfe-core/src/fs/cfe_fs_decompress.c **** 			0x9fbfe4a5L, 0xe8b8d433L, 0x7807c9a2L, 0x0f00f934L, 0x9609a88eL,
1178:/home/simulink/cFS_FreeRTOS_seL4/cfe/fsw/cfe-core/src/fs/cfe_fs_decompress.c **** 			0xe10e9818L, 0x7f6a0dbbL, 0x086d3d2dL, 0x91646c97L, 0xe6635c01L,
1179:/home/simulink/cFS_FreeRTOS_seL4/cfe/fsw/cfe-core/src/fs/cfe_fs_decompress.c **** 			0x6b6b51f4L, 0x1c6c6162L, 0x856530d8L, 0xf262004eL, 0x6c0695edL,
1180:/home/simulink/cFS_FreeRTOS_seL4/cfe/fsw/cfe-core/src/fs/cfe_fs_decompress.c **** 			0x1b01a57bL, 0x8208f4c1L, 0xf50fc457L, 0x65b0d9c6L, 0x12b7e950L,
1181:/home/simulink/cFS_FreeRTOS_seL4/cfe/fsw/cfe-core/src/fs/cfe_fs_decompress.c **** 			0x8bbeb8eaL, 0xfcb9887cL, 0x62dd1ddfL, 0x15da2d49L, 0x8cd37cf3L,
1182:/home/simulink/cFS_FreeRTOS_seL4/cfe/fsw/cfe-core/src/fs/cfe_fs_decompress.c **** 			0xfbd44c65L, 0x4db26158L, 0x3ab551ceL, 0xa3bc0074L, 0xd4bb30e2L,
1183:/home/simulink/cFS_FreeRTOS_seL4/cfe/fsw/cfe-core/src/fs/cfe_fs_decompress.c **** 			0x4adfa541L, 0x3dd895d7L, 0xa4d1c46dL, 0xd3d6f4fbL, 0x4369e96aL,
1184:/home/simulink/cFS_FreeRTOS_seL4/cfe/fsw/cfe-core/src/fs/cfe_fs_decompress.c **** 			0x346ed9fcL, 0xad678846L, 0xda60b8d0L, 0x44042d73L, 0x33031de5L,
1185:/home/simulink/cFS_FreeRTOS_seL4/cfe/fsw/cfe-core/src/fs/cfe_fs_decompress.c **** 			0xaa0a4c5fL, 0xdd0d7cc9L, 0x5005713cL, 0x270241aaL, 0xbe0b1010L,
1186:/home/simulink/cFS_FreeRTOS_seL4/cfe/fsw/cfe-core/src/fs/cfe_fs_decompress.c **** 			0xc90c2086L, 0x5768b525L, 0x206f85b3L, 0xb966d409L, 0xce61e49fL,
1187:/home/simulink/cFS_FreeRTOS_seL4/cfe/fsw/cfe-core/src/fs/cfe_fs_decompress.c **** 			0x5edef90eL, 0x29d9c998L, 0xb0d09822L, 0xc7d7a8b4L, 0x59b33d17L,
1188:/home/simulink/cFS_FreeRTOS_seL4/cfe/fsw/cfe-core/src/fs/cfe_fs_decompress.c **** 			0x2eb40d81L, 0xb7bd5c3bL, 0xc0ba6cadL, 0xedb88320L, 0x9abfb3b6L,
1189:/home/simulink/cFS_FreeRTOS_seL4/cfe/fsw/cfe-core/src/fs/cfe_fs_decompress.c **** 			0x03b6e20cL, 0x74b1d29aL, 0xead54739L, 0x9dd277afL, 0x04db2615L,
1190:/home/simulink/cFS_FreeRTOS_seL4/cfe/fsw/cfe-core/src/fs/cfe_fs_decompress.c **** 			0x73dc1683L, 0xe3630b12L, 0x94643b84L, 0x0d6d6a3eL, 0x7a6a5aa8L,
1191:/home/simulink/cFS_FreeRTOS_seL4/cfe/fsw/cfe-core/src/fs/cfe_fs_decompress.c **** 			0xe40ecf0bL, 0x9309ff9dL, 0x0a00ae27L, 0x7d079eb1L, 0xf00f9344L,
1192:/home/simulink/cFS_FreeRTOS_seL4/cfe/fsw/cfe-core/src/fs/cfe_fs_decompress.c **** 			0x8708a3d2L, 0x1e01f268L, 0x6906c2feL, 0xf762575dL, 0x806567cbL,
1193:/home/simulink/cFS_FreeRTOS_seL4/cfe/fsw/cfe-core/src/fs/cfe_fs_decompress.c **** 			0x196c3671L, 0x6e6b06e7L, 0xfed41b76L, 0x89d32be0L, 0x10da7a5aL,
1194:/home/simulink/cFS_FreeRTOS_seL4/cfe/fsw/cfe-core/src/fs/cfe_fs_decompress.c **** 			0x67dd4accL, 0xf9b9df6fL, 0x8ebeeff9L, 0x17b7be43L, 0x60b08ed5L,
1195:/home/simulink/cFS_FreeRTOS_seL4/cfe/fsw/cfe-core/src/fs/cfe_fs_decompress.c **** 			0xd6d6a3e8L, 0xa1d1937eL, 0x38d8c2c4L, 0x4fdff252L, 0xd1bb67f1L,
1196:/home/simulink/cFS_FreeRTOS_seL4/cfe/fsw/cfe-core/src/fs/cfe_fs_decompress.c **** 			0xa6bc5767L, 0x3fb506ddL, 0x48b2364bL, 0xd80d2bdaL, 0xaf0a1b4cL,
1197:/home/simulink/cFS_FreeRTOS_seL4/cfe/fsw/cfe-core/src/fs/cfe_fs_decompress.c **** 			0x36034af6L, 0x41047a60L, 0xdf60efc3L, 0xa867df55L, 0x316e8eefL,
68K GAS   			page 109


1198:/home/simulink/cFS_FreeRTOS_seL4/cfe/fsw/cfe-core/src/fs/cfe_fs_decompress.c **** 			0x4669be79L, 0xcb61b38cL, 0xbc66831aL, 0x256fd2a0L, 0x5268e236L,
1199:/home/simulink/cFS_FreeRTOS_seL4/cfe/fsw/cfe-core/src/fs/cfe_fs_decompress.c **** 			0xcc0c7795L, 0xbb0b4703L, 0x220216b9L, 0x5505262fL, 0xc5ba3bbeL,
1200:/home/simulink/cFS_FreeRTOS_seL4/cfe/fsw/cfe-core/src/fs/cfe_fs_decompress.c **** 			0xb2bd0b28L, 0x2bb45a92L, 0x5cb36a04L, 0xc2d7ffa7L, 0xb5d0cf31L,
1201:/home/simulink/cFS_FreeRTOS_seL4/cfe/fsw/cfe-core/src/fs/cfe_fs_decompress.c **** 			0x2cd99e8bL, 0x5bdeae1dL, 0x9b64c2b0L, 0xec63f226L, 0x756aa39cL,
1202:/home/simulink/cFS_FreeRTOS_seL4/cfe/fsw/cfe-core/src/fs/cfe_fs_decompress.c **** 			0x026d930aL, 0x9c0906a9L, 0xeb0e363fL, 0x72076785L, 0x05005713L,
1203:/home/simulink/cFS_FreeRTOS_seL4/cfe/fsw/cfe-core/src/fs/cfe_fs_decompress.c **** 			0x95bf4a82L, 0xe2b87a14L, 0x7bb12baeL, 0x0cb61b38L, 0x92d28e9bL,
1204:/home/simulink/cFS_FreeRTOS_seL4/cfe/fsw/cfe-core/src/fs/cfe_fs_decompress.c **** 			0xe5d5be0dL, 0x7cdcefb7L, 0x0bdbdf21L, 0x86d3d2d4L, 0xf1d4e242L,
1205:/home/simulink/cFS_FreeRTOS_seL4/cfe/fsw/cfe-core/src/fs/cfe_fs_decompress.c **** 			0x68ddb3f8L, 0x1fda836eL, 0x81be16cdL, 0xf6b9265bL, 0x6fb077e1L,
1206:/home/simulink/cFS_FreeRTOS_seL4/cfe/fsw/cfe-core/src/fs/cfe_fs_decompress.c **** 			0x18b74777L, 0x88085ae6L, 0xff0f6a70L, 0x66063bcaL, 0x11010b5cL,
1207:/home/simulink/cFS_FreeRTOS_seL4/cfe/fsw/cfe-core/src/fs/cfe_fs_decompress.c **** 			0x8f659effL, 0xf862ae69L, 0x616bffd3L, 0x166ccf45L, 0xa00ae278L,
1208:/home/simulink/cFS_FreeRTOS_seL4/cfe/fsw/cfe-core/src/fs/cfe_fs_decompress.c **** 			0xd70dd2eeL, 0x4e048354L, 0x3903b3c2L, 0xa7672661L, 0xd06016f7L,
1209:/home/simulink/cFS_FreeRTOS_seL4/cfe/fsw/cfe-core/src/fs/cfe_fs_decompress.c **** 			0x4969474dL, 0x3e6e77dbL, 0xaed16a4aL, 0xd9d65adcL, 0x40df0b66L,
1210:/home/simulink/cFS_FreeRTOS_seL4/cfe/fsw/cfe-core/src/fs/cfe_fs_decompress.c **** 			0x37d83bf0L, 0xa9bcae53L, 0xdebb9ec5L, 0x47b2cf7fL, 0x30b5ffe9L,
1211:/home/simulink/cFS_FreeRTOS_seL4/cfe/fsw/cfe-core/src/fs/cfe_fs_decompress.c **** 			0xbdbdf21cL, 0xcabac28aL, 0x53b39330L, 0x24b4a3a6L, 0xbad03605L,
1212:/home/simulink/cFS_FreeRTOS_seL4/cfe/fsw/cfe-core/src/fs/cfe_fs_decompress.c **** 			0xcdd70693L, 0x54de5729L, 0x23d967bfL, 0xb3667a2eL, 0xc4614ab8L,
1213:/home/simulink/cFS_FreeRTOS_seL4/cfe/fsw/cfe-core/src/fs/cfe_fs_decompress.c **** 			0x5d681b02L, 0x2a6f2b94L, 0xb40bbe37L, 0xc30c8ea1L, 0x5a05df1bL,
1214:/home/simulink/cFS_FreeRTOS_seL4/cfe/fsw/cfe-core/src/fs/cfe_fs_decompress.c **** 			0x2d02ef8dL
1215:/home/simulink/cFS_FreeRTOS_seL4/cfe/fsw/cfe-core/src/fs/cfe_fs_decompress.c **** 	};
1216:/home/simulink/cFS_FreeRTOS_seL4/cfe/fsw/cfe-core/src/fs/cfe_fs_decompress.c **** 
1217:/home/simulink/cFS_FreeRTOS_seL4/cfe/fsw/cfe-core/src/fs/cfe_fs_decompress.c **** 	register uint32 c;                           /* temporary variable      */
1218:/home/simulink/cFS_FreeRTOS_seL4/cfe/fsw/cfe-core/src/fs/cfe_fs_decompress.c **** 
1219:/home/simulink/cFS_FreeRTOS_seL4/cfe/fsw/cfe-core/src/fs/cfe_fs_decompress.c **** 	static uint32 crc = (uint32)0xffffffffL;     /* shift register contents */
1220:/home/simulink/cFS_FreeRTOS_seL4/cfe/fsw/cfe-core/src/fs/cfe_fs_decompress.c **** 
1221:/home/simulink/cFS_FreeRTOS_seL4/cfe/fsw/cfe-core/src/fs/cfe_fs_decompress.c **** 	if (s == NULL) 
 4581               	.loc 1 1221 0
 4582 294a 4AAF 0008 	tst.l 8(%sp)
 4583 294e 6604      	jne .L341
1222:/home/simulink/cFS_FreeRTOS_seL4/cfe/fsw/cfe-core/src/fs/cfe_fs_decompress.c ****    {
1223:/home/simulink/cFS_FreeRTOS_seL4/cfe/fsw/cfe-core/src/fs/cfe_fs_decompress.c **** 		c = 0xffffffffL;
 4584               	.loc 1 1223 0
 4585 2950 74FF      	moveq #-1,%d2
 4586 2952 604E      	jra .L342
 4587               	.L341:
1224:/home/simulink/cFS_FreeRTOS_seL4/cfe/fsw/cfe-core/src/fs/cfe_fs_decompress.c **** 	} 
1225:/home/simulink/cFS_FreeRTOS_seL4/cfe/fsw/cfe-core/src/fs/cfe_fs_decompress.c ****    else 
1226:/home/simulink/cFS_FreeRTOS_seL4/cfe/fsw/cfe-core/src/fs/cfe_fs_decompress.c ****    {
1227:/home/simulink/cFS_FreeRTOS_seL4/cfe/fsw/cfe-core/src/fs/cfe_fs_decompress.c **** 		
1228:/home/simulink/cFS_FreeRTOS_seL4/cfe/fsw/cfe-core/src/fs/cfe_fs_decompress.c **** 		c = crc;
 4588               	.loc 1 1228 0
 4589 2954 2439 0000 	move.l crc.5927,%d2
 4589      0000 
1229:/home/simulink/cFS_FreeRTOS_seL4/cfe/fsw/cfe-core/src/fs/cfe_fs_decompress.c **** 		if (n) 
 4590               	.loc 1 1229 0
 4591 295a 4AAF 000C 	tst.l 12(%sp)
 4592 295e 6742      	jeq .L342
 4593               	.L343:
1230:/home/simulink/cFS_FreeRTOS_seL4/cfe/fsw/cfe-core/src/fs/cfe_fs_decompress.c ****       {
1231:/home/simulink/cFS_FreeRTOS_seL4/cfe/fsw/cfe-core/src/fs/cfe_fs_decompress.c ****          do
1232:/home/simulink/cFS_FreeRTOS_seL4/cfe/fsw/cfe-core/src/fs/cfe_fs_decompress.c ****          {
1233:/home/simulink/cFS_FreeRTOS_seL4/cfe/fsw/cfe-core/src/fs/cfe_fs_decompress.c **** 				c = crc_32_tab[ ( (int16)c ^ (*s++) ) & 0xff ] ^ (c >> 8);
 4594               	.loc 1 1233 0 discriminator 1
 4595 2960 3002      	move.w %d2,%d0
 4596 2962 3200      	move.w %d0,%d1
 4597 2964 48C1      	ext.l %d1
 4598 2966 206F 0008 	move.l 8(%sp),%a0
 4599 296a 2008      	move.l %a0,%d0
 4600 296c 5280      	addq.l #1,%d0
68K GAS   			page 110


 4601 296e 2F40 0008 	move.l %d0,8(%sp)
 4602 2972 1010      	move.b (%a0),%d0
 4603 2974 1000      	move.b %d0,%d0
 4604 2976 0280 0000 	and.l #255,%d0
 4604      00FF 
 4605 297c B380      	eor.l %d1,%d0
 4606 297e 0280 0000 	and.l #255,%d0
 4606      00FF 
 4607 2984 E588      	lsl.l #2,%d0
 4608 2986 41F9 0000 	lea crc_32_tab.5925,%a0
 4608      0000 
 4609 298c 2230 0800 	move.l (%a0,%d0.l),%d1
 4610 2990 2002      	move.l %d2,%d0
 4611 2992 E088      	lsr.l #8,%d0
 4612 2994 2401      	move.l %d1,%d2
 4613 2996 B182      	eor.l %d0,%d2
1234:/home/simulink/cFS_FreeRTOS_seL4/cfe/fsw/cfe-core/src/fs/cfe_fs_decompress.c **** 				
1235:/home/simulink/cFS_FreeRTOS_seL4/cfe/fsw/cfe-core/src/fs/cfe_fs_decompress.c ****          } while (--n);			
 4614               	.loc 1 1235 0 discriminator 1
 4615 2998 53AF 000C 	subq.l #1,12(%sp)
 4616 299c 4AAF 000C 	tst.l 12(%sp)
 4617 29a0 66BE      	jne .L343
 4618               	.L342:
1236:/home/simulink/cFS_FreeRTOS_seL4/cfe/fsw/cfe-core/src/fs/cfe_fs_decompress.c **** 		}		
1237:/home/simulink/cFS_FreeRTOS_seL4/cfe/fsw/cfe-core/src/fs/cfe_fs_decompress.c **** 	}
1238:/home/simulink/cFS_FreeRTOS_seL4/cfe/fsw/cfe-core/src/fs/cfe_fs_decompress.c **** 
1239:/home/simulink/cFS_FreeRTOS_seL4/cfe/fsw/cfe-core/src/fs/cfe_fs_decompress.c **** 	crc = c;
 4619               	.loc 1 1239 0
 4620 29a2 23C2 0000 	move.l %d2,crc.5927
 4620      0000 
1240:/home/simulink/cFS_FreeRTOS_seL4/cfe/fsw/cfe-core/src/fs/cfe_fs_decompress.c **** 
1241:/home/simulink/cFS_FreeRTOS_seL4/cfe/fsw/cfe-core/src/fs/cfe_fs_decompress.c **** 	return c ^ 0xffffffffL;      /* (instead of ~c for 64-bit machines) */
 4621               	.loc 1 1241 0
 4622 29a8 2002      	move.l %d2,%d0
 4623 29aa 4680      	not.l %d0
1242:/home/simulink/cFS_FreeRTOS_seL4/cfe/fsw/cfe-core/src/fs/cfe_fs_decompress.c **** 
1243:/home/simulink/cFS_FreeRTOS_seL4/cfe/fsw/cfe-core/src/fs/cfe_fs_decompress.c **** }
 4624               	.loc 1 1243 0
 4625 29ac 241F      	move.l (%sp)+,%d2
 4626 29ae 4E75      	rts
 4627               	.cfi_endproc
 4628               	.LFE73:
 4629               	.sizeFS_gz_updcrc, .-FS_gz_updcrc
 4630               	.section.rodata
 4631               	.type__func__.5610, @object
 4632               	.size__func__.5610, 18
 4633               	__func__.5610:
 4634 006b 4346 455F 	.string"CFE_FS_Decompress"
 4634      4653 5F44 
 4634      6563 6F6D 
 4634      7072 6573 
 4634      7300 
 4635               	.data
 4636               	.align2
 4637               	.typemask_bits.5753, @object
 4638               	.sizemask_bits.5753, 34
 4639               	mask_bits.5753:
68K GAS   			page 111


 4640 0000 0000      	.word0
 4641 0002 0001      	.word1
 4642 0004 0003      	.word3
 4643 0006 0007      	.word7
 4644 0008 000F      	.word15
 4645 000a 001F      	.word31
 4646 000c 003F      	.word63
 4647 000e 007F      	.word127
 4648 0010 00FF      	.word255
 4649 0012 01FF      	.word511
 4650 0014 03FF      	.word1023
 4651 0016 07FF      	.word2047
 4652 0018 0FFF      	.word4095
 4653 001a 1FFF      	.word8191
 4654 001c 3FFF      	.word16383
 4655 001e 7FFF      	.word32767
 4656 0020 FFFF      	.word-1
 4657 0022 0000      	.align4
 4658               	.typeborder.5797, @object
 4659               	.sizeborder.5797, 76
 4660               	border.5797:
 4661 0024 0000 0010 	.long16
 4662 0028 0000 0011 	.long17
 4663 002c 0000 0012 	.long18
 4664 0030 0000 0000 	.long0
 4665 0034 0000 0008 	.long8
 4666 0038 0000 0007 	.long7
 4667 003c 0000 0009 	.long9
 4668 0040 0000 0006 	.long6
 4669 0044 0000 000A 	.long10
 4670 0048 0000 0005 	.long5
 4671 004c 0000 000B 	.long11
 4672 0050 0000 0004 	.long4
 4673 0054 0000 000C 	.long12
 4674 0058 0000 0003 	.long3
 4675 005c 0000 000D 	.long13
 4676 0060 0000 0002 	.long2
 4677 0064 0000 000E 	.long14
 4678 0068 0000 0001 	.long1
 4679 006c 0000 000F 	.long15
 4680               	.align2
 4681               	.typemask_bits.5802, @object
 4682               	.sizemask_bits.5802, 34
 4683               	mask_bits.5802:
 4684 0070 0000      	.word0
 4685 0072 0001      	.word1
 4686 0074 0003      	.word3
 4687 0076 0007      	.word7
 4688 0078 000F      	.word15
 4689 007a 001F      	.word31
 4690 007c 003F      	.word63
 4691 007e 007F      	.word127
 4692 0080 00FF      	.word255
 4693 0082 01FF      	.word511
 4694 0084 03FF      	.word1023
 4695 0086 07FF      	.word2047
 4696 0088 0FFF      	.word4095
68K GAS   			page 112


 4697 008a 1FFF      	.word8191
 4698 008c 3FFF      	.word16383
 4699 008e 7FFF      	.word32767
 4700 0090 FFFF      	.word-1
 4701 0092 0000      	.align4
 4702               	.typelbits.5795, @object
 4703               	.sizelbits.5795, 4
 4704               	lbits.5795:
 4705 0094 0000 0009 	.long9
 4706               	.align2
 4707               	.typecplens.5798, @object
 4708               	.sizecplens.5798, 62
 4709               	cplens.5798:
 4710 0098 0003      	.word3
 4711 009a 0004      	.word4
 4712 009c 0005      	.word5
 4713 009e 0006      	.word6
 4714 00a0 0007      	.word7
 4715 00a2 0008      	.word8
 4716 00a4 0009      	.word9
 4717 00a6 000A      	.word10
 4718 00a8 000B      	.word11
 4719 00aa 000D      	.word13
 4720 00ac 000F      	.word15
 4721 00ae 0011      	.word17
 4722 00b0 0013      	.word19
 4723 00b2 0017      	.word23
 4724 00b4 001B      	.word27
 4725 00b6 001F      	.word31
 4726 00b8 0023      	.word35
 4727 00ba 002B      	.word43
 4728 00bc 0033      	.word51
 4729 00be 003B      	.word59
 4730 00c0 0043      	.word67
 4731 00c2 0053      	.word83
 4732 00c4 0063      	.word99
 4733 00c6 0073      	.word115
 4734 00c8 0083      	.word131
 4735 00ca 00A3      	.word163
 4736 00cc 00C3      	.word195
 4737 00ce 00E3      	.word227
 4738 00d0 0102      	.word258
 4739 00d2 0000      	.word0
 4740 00d4 0000      	.word0
 4741               	.align2
 4742               	.typecplext.5799, @object
 4743               	.sizecplext.5799, 62
 4744               	cplext.5799:
 4745 00d6 0000      	.word0
 4746 00d8 0000      	.word0
 4747 00da 0000      	.word0
 4748 00dc 0000      	.word0
 4749 00de 0000      	.word0
 4750 00e0 0000      	.word0
 4751 00e2 0000      	.word0
 4752 00e4 0000      	.word0
 4753 00e6 0001      	.word1
68K GAS   			page 113


 4754 00e8 0001      	.word1
 4755 00ea 0001      	.word1
 4756 00ec 0001      	.word1
 4757 00ee 0002      	.word2
 4758 00f0 0002      	.word2
 4759 00f2 0002      	.word2
 4760 00f4 0002      	.word2
 4761 00f6 0003      	.word3
 4762 00f8 0003      	.word3
 4763 00fa 0003      	.word3
 4764 00fc 0003      	.word3
 4765 00fe 0004      	.word4
 4766 0100 0004      	.word4
 4767 0102 0004      	.word4
 4768 0104 0004      	.word4
 4769 0106 0005      	.word5
 4770 0108 0005      	.word5
 4771 010a 0005      	.word5
 4772 010c 0005      	.word5
 4773 010e 0000      	.word0
 4774 0110 0063      	.word99
 4775 0112 0063      	.word99
 4776               	.align4
 4777               	.typedbits.5796, @object
 4778               	.sizedbits.5796, 4
 4779               	dbits.5796:
 4780 0114 0000 0006 	.long6
 4781               	.align2
 4782               	.typecpdist.5800, @object
 4783               	.sizecpdist.5800, 60
 4784               	cpdist.5800:
 4785 0118 0001      	.word1
 4786 011a 0002      	.word2
 4787 011c 0003      	.word3
 4788 011e 0004      	.word4
 4789 0120 0005      	.word5
 4790 0122 0007      	.word7
 4791 0124 0009      	.word9
 4792 0126 000D      	.word13
 4793 0128 0011      	.word17
 4794 012a 0019      	.word25
 4795 012c 0021      	.word33
 4796 012e 0031      	.word49
 4797 0130 0041      	.word65
 4798 0132 0061      	.word97
 4799 0134 0081      	.word129
 4800 0136 00C1      	.word193
 4801 0138 0101      	.word257
 4802 013a 0181      	.word385
 4803 013c 0201      	.word513
 4804 013e 0301      	.word769
 4805 0140 0401      	.word1025
 4806 0142 0601      	.word1537
 4807 0144 0801      	.word2049
 4808 0146 0C01      	.word3073
 4809 0148 1001      	.word4097
 4810 014a 1801      	.word6145
68K GAS   			page 114


 4811 014c 2001      	.word8193
 4812 014e 3001      	.word12289
 4813 0150 4001      	.word16385
 4814 0152 6001      	.word24577
 4815               	.align2
 4816               	.typecpdext.5801, @object
 4817               	.sizecpdext.5801, 60
 4818               	cpdext.5801:
 4819 0154 0000      	.word0
 4820 0156 0000      	.word0
 4821 0158 0000      	.word0
 4822 015a 0000      	.word0
 4823 015c 0001      	.word1
 4824 015e 0001      	.word1
 4825 0160 0002      	.word2
 4826 0162 0002      	.word2
 4827 0164 0003      	.word3
 4828 0166 0003      	.word3
 4829 0168 0004      	.word4
 4830 016a 0004      	.word4
 4831 016c 0005      	.word5
 4832 016e 0005      	.word5
 4833 0170 0006      	.word6
 4834 0172 0006      	.word6
 4835 0174 0007      	.word7
 4836 0176 0007      	.word7
 4837 0178 0008      	.word8
 4838 017a 0008      	.word8
 4839 017c 0009      	.word9
 4840 017e 0009      	.word9
 4841 0180 000A      	.word10
 4842 0182 000A      	.word10
 4843 0184 000B      	.word11
 4844 0186 000B      	.word11
 4845 0188 000C      	.word12
 4846 018a 000C      	.word12
 4847 018c 000D      	.word13
 4848 018e 000D      	.word13
 4849               	.align2
 4850               	.typecplens.5864, @object
 4851               	.sizecplens.5864, 62
 4852               	cplens.5864:
 4853 0190 0003      	.word3
 4854 0192 0004      	.word4
 4855 0194 0005      	.word5
 4856 0196 0006      	.word6
 4857 0198 0007      	.word7
 4858 019a 0008      	.word8
 4859 019c 0009      	.word9
 4860 019e 000A      	.word10
 4861 01a0 000B      	.word11
 4862 01a2 000D      	.word13
 4863 01a4 000F      	.word15
 4864 01a6 0011      	.word17
 4865 01a8 0013      	.word19
 4866 01aa 0017      	.word23
 4867 01ac 001B      	.word27
68K GAS   			page 115


 4868 01ae 001F      	.word31
 4869 01b0 0023      	.word35
 4870 01b2 002B      	.word43
 4871 01b4 0033      	.word51
 4872 01b6 003B      	.word59
 4873 01b8 0043      	.word67
 4874 01ba 0053      	.word83
 4875 01bc 0063      	.word99
 4876 01be 0073      	.word115
 4877 01c0 0083      	.word131
 4878 01c2 00A3      	.word163
 4879 01c4 00C3      	.word195
 4880 01c6 00E3      	.word227
 4881 01c8 0102      	.word258
 4882 01ca 0000      	.word0
 4883 01cc 0000      	.word0
 4884               	.align2
 4885               	.typecplext.5865, @object
 4886               	.sizecplext.5865, 62
 4887               	cplext.5865:
 4888 01ce 0000      	.word0
 4889 01d0 0000      	.word0
 4890 01d2 0000      	.word0
 4891 01d4 0000      	.word0
 4892 01d6 0000      	.word0
 4893 01d8 0000      	.word0
 4894 01da 0000      	.word0
 4895 01dc 0000      	.word0
 4896 01de 0001      	.word1
 4897 01e0 0001      	.word1
 4898 01e2 0001      	.word1
 4899 01e4 0001      	.word1
 4900 01e6 0002      	.word2
 4901 01e8 0002      	.word2
 4902 01ea 0002      	.word2
 4903 01ec 0002      	.word2
 4904 01ee 0003      	.word3
 4905 01f0 0003      	.word3
 4906 01f2 0003      	.word3
 4907 01f4 0003      	.word3
 4908 01f6 0004      	.word4
 4909 01f8 0004      	.word4
 4910 01fa 0004      	.word4
 4911 01fc 0004      	.word4
 4912 01fe 0005      	.word5
 4913 0200 0005      	.word5
 4914 0202 0005      	.word5
 4915 0204 0005      	.word5
 4916 0206 0000      	.word0
 4917 0208 0063      	.word99
 4918 020a 0063      	.word99
 4919               	.align2
 4920               	.typecpdist.5866, @object
 4921               	.sizecpdist.5866, 60
 4922               	cpdist.5866:
 4923 020c 0001      	.word1
 4924 020e 0002      	.word2
68K GAS   			page 116


 4925 0210 0003      	.word3
 4926 0212 0004      	.word4
 4927 0214 0005      	.word5
 4928 0216 0007      	.word7
 4929 0218 0009      	.word9
 4930 021a 000D      	.word13
 4931 021c 0011      	.word17
 4932 021e 0019      	.word25
 4933 0220 0021      	.word33
 4934 0222 0031      	.word49
 4935 0224 0041      	.word65
 4936 0226 0061      	.word97
 4937 0228 0081      	.word129
 4938 022a 00C1      	.word193
 4939 022c 0101      	.word257
 4940 022e 0181      	.word385
 4941 0230 0201      	.word513
 4942 0232 0301      	.word769
 4943 0234 0401      	.word1025
 4944 0236 0601      	.word1537
 4945 0238 0801      	.word2049
 4946 023a 0C01      	.word3073
 4947 023c 1001      	.word4097
 4948 023e 1801      	.word6145
 4949 0240 2001      	.word8193
 4950 0242 3001      	.word12289
 4951 0244 4001      	.word16385
 4952 0246 6001      	.word24577
 4953               	.align2
 4954               	.typecpdext.5867, @object
 4955               	.sizecpdext.5867, 60
 4956               	cpdext.5867:
 4957 0248 0000      	.word0
 4958 024a 0000      	.word0
 4959 024c 0000      	.word0
 4960 024e 0000      	.word0
 4961 0250 0001      	.word1
 4962 0252 0001      	.word1
 4963 0254 0002      	.word2
 4964 0256 0002      	.word2
 4965 0258 0003      	.word3
 4966 025a 0003      	.word3
 4967 025c 0004      	.word4
 4968 025e 0004      	.word4
 4969 0260 0005      	.word5
 4970 0262 0005      	.word5
 4971 0264 0006      	.word6
 4972 0266 0006      	.word6
 4973 0268 0007      	.word7
 4974 026a 0007      	.word7
 4975 026c 0008      	.word8
 4976 026e 0008      	.word8
 4977 0270 0009      	.word9
 4978 0272 0009      	.word9
 4979 0274 000A      	.word10
 4980 0276 000A      	.word10
 4981 0278 000B      	.word11
68K GAS   			page 117


 4982 027a 000B      	.word11
 4983 027c 000C      	.word12
 4984 027e 000C      	.word12
 4985 0280 000D      	.word13
 4986 0282 000D      	.word13
 4987               	.align4
 4988               	.typecrc.5927, @object
 4989               	.sizecrc.5927, 4
 4990               	crc.5927:
 4991 0284 FFFF FFFF 	.long-1
 4992               	.align4
 4993               	.typecrc_32_tab.5925, @object
 4994               	.sizecrc_32_tab.5925, 1024
 4995               	crc_32_tab.5925:
 4996 0288 0000 0000 	.long0
 4997 028c 7707 3096 	.long1996959894
 4998 0290 EE0E 612C 	.long-301047508
 4999 0294 9909 51BA 	.long-1727442502
 5000 0298 076D C419 	.long124634137
 5001 029c 706A F48F 	.long1886057615
 5002 02a0 E963 A535 	.long-379345611
 5003 02a4 9E64 95A3 	.long-1637575261
 5004 02a8 0EDB 8832 	.long249268274
 5005 02ac 79DC B8A4 	.long2044508324
 5006 02b0 E0D5 E91E 	.long-522852066
 5007 02b4 97D2 D988 	.long-1747789432
 5008 02b8 09B6 4C2B 	.long162941995
 5009 02bc 7EB1 7CBD 	.long2125561021
 5010 02c0 E7B8 2D07 	.long-407360249
 5011 02c4 90BF 1D91 	.long-1866523247
 5012 02c8 1DB7 1064 	.long498536548
 5013 02cc 6AB0 20F2 	.long1789927666
 5014 02d0 F3B9 7148 	.long-205950648
 5015 02d4 84BE 41DE 	.long-2067906082
 5016 02d8 1ADA D47D 	.long450548861
 5017 02dc 6DDD E4EB 	.long1843258603
 5018 02e0 F4D4 B551 	.long-187386543
 5019 02e4 83D3 85C7 	.long-2083289657
 5020 02e8 136C 9856 	.long325883990
 5021 02ec 646B A8C0 	.long1684777152
 5022 02f0 FD62 F97A 	.long-43845254
 5023 02f4 8A65 C9EC 	.long-1973040660
 5024 02f8 1401 5C4F 	.long335633487
 5025 02fc 6306 6CD9 	.long1661365465
 5026 0300 FA0F 3D63 	.long-99664541
 5027 0304 8D08 0DF5 	.long-1928851979
 5028 0308 3B6E 20C8 	.long997073096
 5029 030c 4C69 105E 	.long1281953886
 5030 0310 D560 41E4 	.long-715111964
 5031 0314 A267 7172 	.long-1570279054
 5032 0318 3C03 E4D1 	.long1006888145
 5033 031c 4B04 D447 	.long1258607687
 5034 0320 D20D 85FD 	.long-770865667
 5035 0324 A50A B56B 	.long-1526024853
 5036 0328 35B5 A8FA 	.long901097722
 5037 032c 42B2 986C 	.long1119000684
 5038 0330 DBBB C9D6 	.long-608450090
68K GAS   			page 118


 5039 0334 ACBC F940 	.long-1396901568
 5040 0338 32D8 6CE3 	.long853044451
 5041 033c 45DF 5C75 	.long1172266101
 5042 0340 DCD6 0DCF 	.long-589951537
 5043 0344 ABD1 3D59 	.long-1412350631
 5044 0348 26D9 30AC 	.long651767980
 5045 034c 51DE 003A 	.long1373503546
 5046 0350 C8D7 5180 	.long-925412992
 5047 0354 BFD0 6116 	.long-1076862698
 5048 0358 21B4 F4B5 	.long565507253
 5049 035c 56B3 C423 	.long1454621731
 5050 0360 CFBA 9599 	.long-809855591
 5051 0364 B8BD A50F 	.long-1195530993
 5052 0368 2802 B89E 	.long671266974
 5053 036c 5F05 8808 	.long1594198024
 5054 0370 C60C D9B2 	.long-972236366
 5055 0374 B10B E924 	.long-1324619484
 5056 0378 2F6F 7C87 	.long795835527
 5057 037c 5868 4C11 	.long1483230225
 5058 0380 C161 1DAB 	.long-1050600021
 5059 0384 B666 2D3D 	.long-1234817731
 5060 0388 76DC 4190 	.long1994146192
 5061 038c 01DB 7106 	.long31158534
 5062 0390 98D2 20BC 	.long-1731059524
 5063 0394 EFD5 102A 	.long-271249366
 5064 0398 71B1 8589 	.long1907459465
 5065 039c 06B6 B51F 	.long112637215
 5066 03a0 9FBF E4A5 	.long-1614814043
 5067 03a4 E8B8 D433 	.long-390540237
 5068 03a8 7807 C9A2 	.long2013776290
 5069 03ac 0F00 F934 	.long251722036
 5070 03b0 9609 A88E 	.long-1777751922
 5071 03b4 E10E 9818 	.long-519137256
 5072 03b8 7F6A 0DBB 	.long2137656763
 5073 03bc 086D 3D2D 	.long141376813
 5074 03c0 9164 6C97 	.long-1855689577
 5075 03c4 E663 5C01 	.long-429695999
 5076 03c8 6B6B 51F4 	.long1802195444
 5077 03cc 1C6C 6162 	.long476864866
 5078 03d0 8565 30D8 	.long-2056965928
 5079 03d4 F262 004E 	.long-228458418
 5080 03d8 6C06 95ED 	.long1812370925
 5081 03dc 1B01 A57B 	.long453092731
 5082 03e0 8208 F4C1 	.long-2113342271
 5083 03e4 F50F C457 	.long-183516073
 5084 03e8 65B0 D9C6 	.long1706088902
 5085 03ec 12B7 E950 	.long314042704
 5086 03f0 8BBE B8EA 	.long-1950435094
 5087 03f4 FCB9 887C 	.long-54949764
 5088 03f8 62DD 1DDF 	.long1658658271
 5089 03fc 15DA 2D49 	.long366619977
 5090 0400 8CD3 7CF3 	.long-1932296973
 5091 0404 FBD4 4C65 	.long-69972891
 5092 0408 4DB2 6158 	.long1303535960
 5093 040c 3AB5 51CE 	.long984961486
 5094 0410 A3BC 0074 	.long-1547960204
 5095 0414 D4BB 30E2 	.long-725929758
68K GAS   			page 119


 5096 0418 4ADF A541 	.long1256170817
 5097 041c 3DD8 95D7 	.long1037604311
 5098 0420 A4D1 C46D 	.long-1529756563
 5099 0424 D3D6 F4FB 	.long-740887301
 5100 0428 4369 E96A 	.long1131014506
 5101 042c 346E D9FC 	.long879679996
 5102 0430 AD67 8846 	.long-1385723834
 5103 0434 DA60 B8D0 	.long-631195440
 5104 0438 4404 2D73 	.long1141124467
 5105 043c 3303 1DE5 	.long855842277
 5106 0440 AA0A 4C5F 	.long-1442165665
 5107 0444 DD0D 7CC9 	.long-586318647
 5108 0448 5005 713C 	.long1342533948
 5109 044c 2702 41AA 	.long654459306
 5110 0450 BE0B 1010 	.long-1106571248
 5111 0454 C90C 2086 	.long-921952122
 5112 0458 5768 B525 	.long1466479909
 5113 045c 206F 85B3 	.long544179635
 5114 0460 B966 D409 	.long-1184443383
 5115 0464 CE61 E49F 	.long-832445281
 5116 0468 5EDE F90E 	.long1591671054
 5117 046c 29D9 C998 	.long702138776
 5118 0470 B0D0 9822 	.long-1328506846
 5119 0474 C7D7 A8B4 	.long-942167884
 5120 0478 59B3 3D17 	.long1504918807
 5121 047c 2EB4 0D81 	.long783551873
 5122 0480 B7BD 5C3B 	.long-1212326853
 5123 0484 C0BA 6CAD 	.long-1061524307
 5124 0488 EDB8 8320 	.long-306674912
 5125 048c 9ABF B3B6 	.long-1698712650
 5126 0490 03B6 E20C 	.long62317068
 5127 0494 74B1 D29A 	.long1957810842
 5128 0498 EAD5 4739 	.long-355121351
 5129 049c 9DD2 77AF 	.long-1647151185
 5130 04a0 04DB 2615 	.long81470997
 5131 04a4 73DC 1683 	.long1943803523
 5132 04a8 E363 0B12 	.long-480048366
 5133 04ac 9464 3B84 	.long-1805370492
 5134 04b0 0D6D 6A3E 	.long225274430
 5135 04b4 7A6A 5AA8 	.long2053790376
 5136 04b8 E40E CF0B 	.long-468791541
 5137 04bc 9309 FF9D 	.long-1828061283
 5138 04c0 0A00 AE27 	.long167816743
 5139 04c4 7D07 9EB1 	.long2097651377
 5140 04c8 F00F 9344 	.long-267414716
 5141 04cc 8708 A3D2 	.long-2029476910
 5142 04d0 1E01 F268 	.long503444072
 5143 04d4 6906 C2FE 	.long1762050814
 5144 04d8 F762 575D 	.long-144550051
 5145 04dc 8065 67CB 	.long-2140837941
 5146 04e0 196C 3671 	.long426522225
 5147 04e4 6E6B 06E7 	.long1852507879
 5148 04e8 FED4 1B76 	.long-19653770
 5149 04ec 89D3 2BE0 	.long-1982649376
 5150 04f0 10DA 7A5A 	.long282753626
 5151 04f4 67DD 4ACC 	.long1742555852
 5152 04f8 F9B9 DF6F 	.long-105259153
68K GAS   			page 120


 5153 04fc 8EBE EFF9 	.long-1900089351
 5154 0500 17B7 BE43 	.long397917763
 5155 0504 60B0 8ED5 	.long1622183637
 5156 0508 D6D6 A3E8 	.long-690576408
 5157 050c A1D1 937E 	.long-1580100738
 5158 0510 38D8 C2C4 	.long953729732
 5159 0514 4FDF F252 	.long1340076626
 5160 0518 D1BB 67F1 	.long-776247311
 5161 051c A6BC 5767 	.long-1497606297
 5162 0520 3FB5 06DD 	.long1068828381
 5163 0524 48B2 364B 	.long1219638859
 5164 0528 D80D 2BDA 	.long-670225446
 5165 052c AF0A 1B4C 	.long-1358292148
 5166 0530 3603 4AF6 	.long906185462
 5167 0534 4104 7A60 	.long1090812512
 5168 0538 DF60 EFC3 	.long-547295293
 5169 053c A867 DF55 	.long-1469587627
 5170 0540 316E 8EEF 	.long829329135
 5171 0544 4669 BE79 	.long1181335161
 5172 0548 CB61 B38C 	.long-882789492
 5173 054c BC66 831A 	.long-1134132454
 5174 0550 256F D2A0 	.long628085408
 5175 0554 5268 E236 	.long1382605366
 5176 0558 CC0C 7795 	.long-871598187
 5177 055c BB0B 4703 	.long-1156888829
 5178 0560 2202 16B9 	.long570562233
 5179 0564 5505 262F 	.long1426400815
 5180 0568 C5BA 3BBE 	.long-977650754
 5181 056c B2BD 0B28 	.long-1296233688
 5182 0570 2BB4 5A92 	.long733239954
 5183 0574 5CB3 6A04 	.long1555261956
 5184 0578 C2D7 FFA7 	.long-1026031705
 5185 057c B5D0 CF31 	.long-1244606671
 5186 0580 2CD9 9E8B 	.long752459403
 5187 0584 5BDE AE1D 	.long1541320221
 5188 0588 9B64 C2B0 	.long-1687895376
 5189 058c EC63 F226 	.long-328994266
 5190 0590 756A A39C 	.long1969922972
 5191 0594 026D 930A 	.long40735498
 5192 0598 9C09 06A9 	.long-1677130071
 5193 059c EB0E 363F 	.long-351390145
 5194 05a0 7207 6785 	.long1913087877
 5195 05a4 0500 5713 	.long83908371
 5196 05a8 95BF 4A82 	.long-1782625662
 5197 05ac E2B8 7A14 	.long-491226604
 5198 05b0 7BB1 2BAE 	.long2075208622
 5199 05b4 0CB6 1B38 	.long213261112
 5200 05b8 92D2 8E9B 	.long-1831694693
 5201 05bc E5D5 BE0D 	.long-438977011
 5202 05c0 7CDC EFB7 	.long2094854071
 5203 05c4 0BDB DF21 	.long198958881
 5204 05c8 86D3 D2D4 	.long-2032938284
 5205 05cc F1D4 E242 	.long-237706686
 5206 05d0 68DD B3F8 	.long1759359992
 5207 05d4 1FDA 836E 	.long534414190
 5208 05d8 81BE 16CD 	.long-2118248755
 5209 05dc F6B9 265B 	.long-155638181
68K GAS   			page 121


 5210 05e0 6FB0 77E1 	.long1873836001
 5211 05e4 18B7 4777 	.long414664567
 5212 05e8 8808 5AE6 	.long-2012718362
 5213 05ec FF0F 6A70 	.long-15766928
 5214 05f0 6606 3BCA 	.long1711684554
 5215 05f4 1101 0B5C 	.long285281116
 5216 05f8 8F65 9EFF 	.long-1889165569
 5217 05fc F862 AE69 	.long-127750551
 5218 0600 616B FFD3 	.long1634467795
 5219 0604 166C CF45 	.long376229701
 5220 0608 A00A E278 	.long-1609899400
 5221 060c D70D D2EE 	.long-686959890
 5222 0610 4E04 8354 	.long1308918612
 5223 0614 3903 B3C2 	.long956543938
 5224 0618 A767 2661 	.long-1486412191
 5225 061c D060 16F7 	.long-799009033
 5226 0620 4969 474D 	.long1231636301
 5227 0624 3E6E 77DB 	.long1047427035
 5228 0628 AED1 6A4A 	.long-1362007478
 5229 062c D9D6 5ADC 	.long-640263460
 5230 0630 40DF 0B66 	.long1088359270
 5231 0634 37D8 3BF0 	.long936918000
 5232 0638 A9BC AE53 	.long-1447252397
 5233 063c DEBB 9EC5 	.long-558129467
 5234 0640 47B2 CF7F 	.long1202900863
 5235 0644 30B5 FFE9 	.long817233897
 5236 0648 BDBD F21C 	.long-1111625188
 5237 064c CABA C28A 	.long-893730166
 5238 0650 53B3 9330 	.long1404277552
 5239 0654 24B4 A3A6 	.long615818150
 5240 0658 BAD0 3605 	.long-1160759803
 5241 065c CDD7 0693 	.long-841546093
 5242 0660 54DE 5729 	.long1423857449
 5243 0664 23D9 67BF 	.long601450431
 5244 0668 B366 7A2E 	.long-1285129682
 5245 066c C461 4AB8 	.long-1000256840
 5246 0670 5D68 1B02 	.long1567103746
 5247 0674 2A6F 2B94 	.long711928724
 5248 0678 B40B BE37 	.long-1274298825
 5249 067c C30C 8EA1 	.long-1022587231
 5250 0680 5A05 DF1B 	.long1510334235
 5251 0684 2D02 EF8D 	.long755167117
 5252               	.text
 5253               	.Letext0:
 5254               	.file 2 "/home/simulink/cFS_FreeRTOS_seL4/osal/src/os/inc/common_types.h"
 5255               	.file 3 "/home/simulink/development/rtems/5/m68k-rtems5/include/machine/_default_types.h"
 5256               	.file 4 "/home/simulink/development/rtems/5/m68k-rtems5/include/machine/_types.h"
 5257               	.file 5 "/home/simulink/development/rtems/5/m68k-rtems5/include/sys/lock.h"
 5258               	.file 6 "/home/simulink/development/rtems/5/m68k-rtems5/include/sys/_types.h"
 5259               	.file 7 "/home/simulink/development/rtems/5/lib/gcc/m68k-rtems5/7.3.0/include/stddef.h"
 5260               	.file 8 "/home/simulink/development/rtems/5/m68k-rtems5/include/sys/reent.h"
 5261               	.file 9 "/home/simulink/development/rtems/5/m68k-rtems5/include/stdlib.h"
 5262               	.file 10 "/home/simulink/development/rtems/5/m68k-rtems5/include/time.h"
 5263               	.file 11 "/home/simulink/cFS_FreeRTOS_seL4/cfe/fsw/cfe-core/src/inc/cfe_sb.h"
 5264               	.file 12 "/home/simulink/development/rtems/5/m68k-rtems5/include/sys/unistd.h"
 5265               	.file 13 "/home/simulink/cFS_FreeRTOS_seL4/cfe/fsw/cfe-core/src/fs/cfe_fs_decompress.h"
 5266               	.section.debug_info,"",@progbits
68K GAS   			page 122


 5267               	.Ldebug_info0:
 5268 0000 0000 15C9 	.long0x15c9
 5269 0004 0004      	.word0x4
 5270 0006 0000 0000 	.long.Ldebug_abbrev0
 5271 000a 04        	.byte0x4
 5272 000b 01        	.uleb128 0x1
 5273 000c 0000 0000 	.long.LASF219
 5274 0010 0C        	.byte0xc
 5275 0011 0000 0000 	.long.LASF220
 5276 0015 0000 0000 	.long.LASF221
 5277 0019 0000 0000 	.long.Ltext0
 5278 001d 0000 29B0 	.long.Letext0-.Ltext0
 5279 0021 0000 0000 	.long.Ldebug_line0
 5280 0025 02        	.uleb128 0x2
 5281 0026 0000 0000 	.long.LASF0
 5282 002a 02        	.byte0x2
 5283 002b E6        	.byte0xe6
 5284 002c 0000 0030 	.long0x30
 5285 0030 03        	.uleb128 0x3
 5286 0031 01        	.byte0x1
 5287 0032 08        	.byte0x8
 5288 0033 0000 0000 	.long.LASF2
 5289 0037 02        	.uleb128 0x2
 5290 0038 0000 0000 	.long.LASF1
 5291 003c 02        	.byte0x2
 5292 003d E7        	.byte0xe7
 5293 003e 0000 0042 	.long0x42
 5294 0042 03        	.uleb128 0x3
 5295 0043 01        	.byte0x1
 5296 0044 06        	.byte0x6
 5297 0045 0000 0000 	.long.LASF3
 5298 0049 02        	.uleb128 0x2
 5299 004a 0000 0000 	.long.LASF4
 5300 004e 02        	.byte0x2
 5301 004f E8        	.byte0xe8
 5302 0050 0000 0054 	.long0x54
 5303 0054 03        	.uleb128 0x3
 5304 0055 02        	.byte0x2
 5305 0056 05        	.byte0x5
 5306 0057 0000 0000 	.long.LASF5
 5307 005b 02        	.uleb128 0x2
 5308 005c 0000 0000 	.long.LASF6
 5309 0060 02        	.byte0x2
 5310 0061 E9        	.byte0xe9
 5311 0062 0000 0066 	.long0x66
 5312 0066 03        	.uleb128 0x3
 5313 0067 04        	.byte0x4
 5314 0068 05        	.byte0x5
 5315 0069 0000 0000 	.long.LASF7
 5316 006d 03        	.uleb128 0x3
 5317 006e 08        	.byte0x8
 5318 006f 05        	.byte0x5
 5319 0070 0000 0000 	.long.LASF8
 5320 0074 02        	.uleb128 0x2
 5321 0075 0000 0000 	.long.LASF9
 5322 0079 02        	.byte0x2
 5323 007a EB        	.byte0xeb
68K GAS   			page 123


 5324 007b 0000 0030 	.long0x30
 5325 007f 02        	.uleb128 0x2
 5326 0080 0000 0000 	.long.LASF10
 5327 0084 02        	.byte0x2
 5328 0085 EC        	.byte0xec
 5329 0086 0000 008A 	.long0x8a
 5330 008a 03        	.uleb128 0x3
 5331 008b 02        	.byte0x2
 5332 008c 07        	.byte0x7
 5333 008d 0000 0000 	.long.LASF11
 5334 0091 02        	.uleb128 0x2
 5335 0092 0000 0000 	.long.LASF12
 5336 0096 02        	.byte0x2
 5337 0097 ED        	.byte0xed
 5338 0098 0000 009C 	.long0x9c
 5339 009c 03        	.uleb128 0x3
 5340 009d 04        	.byte0x4
 5341 009e 07        	.byte0x7
 5342 009f 0000 0000 	.long.LASF13
 5343 00a3 03        	.uleb128 0x3
 5344 00a4 08        	.byte0x8
 5345 00a5 07        	.byte0x7
 5346 00a6 0000 0000 	.long.LASF14
 5347 00aa 04        	.uleb128 0x4
 5348 00ab 0000 0000 	.long.LASF15
 5349 00af 02        	.byte0x2
 5350 00b0 0131      	.word0x131
 5351 00b2 0000 0025 	.long0x25
 5352 00b6 03        	.uleb128 0x3
 5353 00b7 01        	.byte0x1
 5354 00b8 06        	.byte0x6
 5355 00b9 0000 0000 	.long.LASF16
 5356 00bd 05        	.uleb128 0x5
 5357 00be 0000 00B6 	.long0xb6
 5358 00c2 06        	.uleb128 0x6
 5359 00c3 04        	.byte0x4
 5360 00c4 02        	.uleb128 0x2
 5361 00c5 0000 0000 	.long.LASF17
 5362 00c9 03        	.byte0x3
 5363 00ca 67        	.byte0x67
 5364 00cb 0000 006D 	.long0x6d
 5365 00cf 03        	.uleb128 0x3
 5366 00d0 08        	.byte0x8
 5367 00d1 04        	.byte0x4
 5368 00d2 0000 0000 	.long.LASF18
 5369 00d6 02        	.uleb128 0x2
 5370 00d7 0000 0000 	.long.LASF19
 5371 00db 04        	.byte0x4
 5372 00dc 10        	.byte0x10
 5373 00dd 0000 00C4 	.long0xc4
 5374 00e1 02        	.uleb128 0x2
 5375 00e2 0000 0000 	.long.LASF20
 5376 00e6 04        	.byte0x4
 5377 00e7 16        	.byte0x16
 5378 00e8 0000 00D6 	.long0xd6
 5379 00ec 07        	.uleb128 0x7
 5380 00ed 04        	.byte0x4
68K GAS   			page 124


 5381 00ee 05        	.byte0x5
 5382 00ef 696E 7400 	.string"int"
 5383 00f3 08        	.uleb128 0x8
 5384 00f4 0000 0000 	.long.LASF24
 5385 00f8 08        	.byte0x8
 5386 00f9 05        	.byte0x5
 5387 00fa 28        	.byte0x28
 5388 00fb 0000 0118 	.long0x118
 5389 00ff 09        	.uleb128 0x9
 5390 0100 0000 0000 	.long.LASF21
 5391 0104 05        	.byte0x5
 5392 0105 29        	.byte0x29
 5393 0106 0000 0118 	.long0x118
 5394 010a 00        	.byte0
 5395 010b 09        	.uleb128 0x9
 5396 010c 0000 0000 	.long.LASF22
 5397 0110 05        	.byte0x5
 5398 0111 2A        	.byte0x2a
 5399 0112 0000 0118 	.long0x118
 5400 0116 04        	.byte0x4
 5401 0117 00        	.byte0
 5402 0118 03        	.uleb128 0x3
 5403 0119 04        	.byte0x4
 5404 011a 07        	.byte0x7
 5405 011b 0000 0000 	.long.LASF23
 5406 011f 08        	.uleb128 0x8
 5407 0120 0000 0000 	.long.LASF25
 5408 0124 14        	.byte0x14
 5409 0125 05        	.byte0x5
 5410 0126 2D        	.byte0x2d
 5411 0127 0000 015C 	.long0x15c
 5412 012b 09        	.uleb128 0x9
 5413 012c 0000 0000 	.long.LASF26
 5414 0130 05        	.byte0x5
 5415 0131 2E        	.byte0x2e
 5416 0132 0000 00F3 	.long0xf3
 5417 0136 00        	.byte0
 5418 0137 09        	.uleb128 0x9
 5419 0138 0000 0000 	.long.LASF27
 5420 013c 05        	.byte0x5
 5421 013d 2F        	.byte0x2f
 5422 013e 0000 0161 	.long0x161
 5423 0142 08        	.byte0x8
 5424 0143 09        	.uleb128 0x9
 5425 0144 0000 0000 	.long.LASF28
 5426 0148 05        	.byte0x5
 5427 0149 30        	.byte0x30
 5428 014a 0000 016C 	.long0x16c
 5429 014e 0C        	.byte0xc
 5430 014f 09        	.uleb128 0x9
 5431 0150 0000 0000 	.long.LASF29
 5432 0154 05        	.byte0x5
 5433 0155 31        	.byte0x31
 5434 0156 0000 0172 	.long0x172
 5435 015a 10        	.byte0x10
 5436 015b 00        	.byte0
 5437 015c 0A        	.uleb128 0xa
68K GAS   			page 125


 5438 015d 0000 0000 	.long.LASF30
 5439 0161 0B        	.uleb128 0xb
 5440 0162 04        	.byte0x4
 5441 0163 0000 015C 	.long0x15c
 5442 0167 0A        	.uleb128 0xa
 5443 0168 0000 0000 	.long.LASF31
 5444 016c 0B        	.uleb128 0xb
 5445 016d 04        	.byte0x4
 5446 016e 0000 0167 	.long0x167
 5447 0172 0B        	.uleb128 0xb
 5448 0173 04        	.byte0x4
 5449 0174 0000 00BD 	.long0xbd
 5450 0178 08        	.uleb128 0x8
 5451 0179 0000 0000 	.long.LASF32
 5452 017d 14        	.byte0x14
 5453 017e 05        	.byte0x5
 5454 017f 34        	.byte0x34
 5455 0180 0000 0191 	.long0x191
 5456 0184 09        	.uleb128 0x9
 5457 0185 0000 0000 	.long.LASF33
 5458 0189 05        	.byte0x5
 5459 018a 35        	.byte0x35
 5460 018b 0000 011F 	.long0x11f
 5461 018f 00        	.byte0
 5462 0190 00        	.byte0
 5463 0191 08        	.uleb128 0x8
 5464 0192 0000 0000 	.long.LASF34
 5465 0196 18        	.byte0x18
 5466 0197 05        	.byte0x5
 5467 0198 38        	.byte0x38
 5468 0199 0000 01B6 	.long0x1b6
 5469 019d 09        	.uleb128 0x9
 5470 019e 0000 0000 	.long.LASF35
 5471 01a2 05        	.byte0x5
 5472 01a3 39        	.byte0x39
 5473 01a4 0000 0178 	.long0x178
 5474 01a8 00        	.byte0
 5475 01a9 09        	.uleb128 0x9
 5476 01aa 0000 0000 	.long.LASF36
 5477 01ae 05        	.byte0x5
 5478 01af 3A        	.byte0x3a
 5479 01b0 0000 0118 	.long0x118
 5480 01b4 14        	.byte0x14
 5481 01b5 00        	.byte0
 5482 01b6 04        	.uleb128 0x4
 5483 01b7 0000 0000 	.long.LASF37
 5484 01bb 05        	.byte0x5
 5485 01bc 0171      	.word0x171
 5486 01be 0000 0191 	.long0x191
 5487 01c2 02        	.uleb128 0x2
 5488 01c3 0000 0000 	.long.LASF38
 5489 01c7 06        	.byte0x6
 5490 01c8 91        	.byte0x91
 5491 01c9 0000 0066 	.long0x66
 5492 01cd 04        	.uleb128 0x4
 5493 01ce 0000 0000 	.long.LASF39
 5494 01d2 07        	.byte0x7
68K GAS   			page 126


 5495 01d3 0165      	.word0x165
 5496 01d5 0000 0118 	.long0x118
 5497 01d9 0C        	.uleb128 0xc
 5498 01da 04        	.byte0x4
 5499 01db 06        	.byte0x6
 5500 01dc A6        	.byte0xa6
 5501 01dd 0000 01F8 	.long0x1f8
 5502 01e1 0D        	.uleb128 0xd
 5503 01e2 0000 0000 	.long.LASF40
 5504 01e6 06        	.byte0x6
 5505 01e7 A8        	.byte0xa8
 5506 01e8 0000 01CD 	.long0x1cd
 5507 01ec 0D        	.uleb128 0xd
 5508 01ed 0000 0000 	.long.LASF41
 5509 01f1 06        	.byte0x6
 5510 01f2 A9        	.byte0xa9
 5511 01f3 0000 01F8 	.long0x1f8
 5512 01f7 00        	.byte0
 5513 01f8 0E        	.uleb128 0xe
 5514 01f9 0000 0030 	.long0x30
 5515 01fd 0000 0208 	.long0x208
 5516 0201 0F        	.uleb128 0xf
 5517 0202 0000 009C 	.long0x9c
 5518 0206 03        	.byte0x3
 5519 0207 00        	.byte0
 5520 0208 10        	.uleb128 0x10
 5521 0209 08        	.byte0x8
 5522 020a 06        	.byte0x6
 5523 020b A3        	.byte0xa3
 5524 020c 0000 0229 	.long0x229
 5525 0210 09        	.uleb128 0x9
 5526 0211 0000 0000 	.long.LASF42
 5527 0215 06        	.byte0x6
 5528 0216 A5        	.byte0xa5
 5529 0217 0000 00EC 	.long0xec
 5530 021b 00        	.byte0
 5531 021c 09        	.uleb128 0x9
 5532 021d 0000 0000 	.long.LASF43
 5533 0221 06        	.byte0x6
 5534 0222 AA        	.byte0xaa
 5535 0223 0000 01D9 	.long0x1d9
 5536 0227 04        	.byte0x4
 5537 0228 00        	.byte0
 5538 0229 02        	.uleb128 0x2
 5539 022a 0000 0000 	.long.LASF44
 5540 022e 06        	.byte0x6
 5541 022f AB        	.byte0xab
 5542 0230 0000 0208 	.long0x208
 5543 0234 02        	.uleb128 0x2
 5544 0235 0000 0000 	.long.LASF45
 5545 0239 06        	.byte0x6
 5546 023a AF        	.byte0xaf
 5547 023b 0000 01B6 	.long0x1b6
 5548 023f 02        	.uleb128 0x2
 5549 0240 0000 0000 	.long.LASF46
 5550 0244 08        	.byte0x8
 5551 0245 16        	.byte0x16
68K GAS   			page 127


 5552 0246 0000 009C 	.long0x9c
 5553 024a 08        	.uleb128 0x8
 5554 024b 0000 0000 	.long.LASF47
 5555 024f 18        	.byte0x18
 5556 0250 08        	.byte0x8
 5557 0251 2F        	.byte0x2f
 5558 0252 0000 029D 	.long0x29d
 5559 0256 09        	.uleb128 0x9
 5560 0257 0000 0000 	.long.LASF48
 5561 025b 08        	.byte0x8
 5562 025c 31        	.byte0x31
 5563 025d 0000 029D 	.long0x29d
 5564 0261 00        	.byte0
 5565 0262 11        	.uleb128 0x11
 5566 0263 5F6B 00   	.string"_k"
 5567 0266 08        	.byte0x8
 5568 0267 32        	.byte0x32
 5569 0268 0000 00EC 	.long0xec
 5570 026c 04        	.byte0x4
 5571 026d 09        	.uleb128 0x9
 5572 026e 0000 0000 	.long.LASF49
 5573 0272 08        	.byte0x8
 5574 0273 32        	.byte0x32
 5575 0274 0000 00EC 	.long0xec
 5576 0278 08        	.byte0x8
 5577 0279 09        	.uleb128 0x9
 5578 027a 0000 0000 	.long.LASF50
 5579 027e 08        	.byte0x8
 5580 027f 32        	.byte0x32
 5581 0280 0000 00EC 	.long0xec
 5582 0284 0C        	.byte0xc
 5583 0285 09        	.uleb128 0x9
 5584 0286 0000 0000 	.long.LASF51
 5585 028a 08        	.byte0x8
 5586 028b 32        	.byte0x32
 5587 028c 0000 00EC 	.long0xec
 5588 0290 10        	.byte0x10
 5589 0291 11        	.uleb128 0x11
 5590 0292 5F78 00   	.string"_x"
 5591 0295 08        	.byte0x8
 5592 0296 33        	.byte0x33
 5593 0297 0000 02A3 	.long0x2a3
 5594 029b 14        	.byte0x14
 5595 029c 00        	.byte0
 5596 029d 0B        	.uleb128 0xb
 5597 029e 04        	.byte0x4
 5598 029f 0000 024A 	.long0x24a
 5599 02a3 0E        	.uleb128 0xe
 5600 02a4 0000 023F 	.long0x23f
 5601 02a8 0000 02B3 	.long0x2b3
 5602 02ac 0F        	.uleb128 0xf
 5603 02ad 0000 009C 	.long0x9c
 5604 02b1 00        	.byte0
 5605 02b2 00        	.byte0
 5606 02b3 08        	.uleb128 0x8
 5607 02b4 0000 0000 	.long.LASF52
 5608 02b8 24        	.byte0x24
68K GAS   			page 128


 5609 02b9 08        	.byte0x8
 5610 02ba 37        	.byte0x37
 5611 02bb 0000 032C 	.long0x32c
 5612 02bf 09        	.uleb128 0x9
 5613 02c0 0000 0000 	.long.LASF53
 5614 02c4 08        	.byte0x8
 5615 02c5 39        	.byte0x39
 5616 02c6 0000 00EC 	.long0xec
 5617 02ca 00        	.byte0
 5618 02cb 09        	.uleb128 0x9
 5619 02cc 0000 0000 	.long.LASF54
 5620 02d0 08        	.byte0x8
 5621 02d1 3A        	.byte0x3a
 5622 02d2 0000 00EC 	.long0xec
 5623 02d6 04        	.byte0x4
 5624 02d7 09        	.uleb128 0x9
 5625 02d8 0000 0000 	.long.LASF55
 5626 02dc 08        	.byte0x8
 5627 02dd 3B        	.byte0x3b
 5628 02de 0000 00EC 	.long0xec
 5629 02e2 08        	.byte0x8
 5630 02e3 09        	.uleb128 0x9
 5631 02e4 0000 0000 	.long.LASF56
 5632 02e8 08        	.byte0x8
 5633 02e9 3C        	.byte0x3c
 5634 02ea 0000 00EC 	.long0xec
 5635 02ee 0C        	.byte0xc
 5636 02ef 09        	.uleb128 0x9
 5637 02f0 0000 0000 	.long.LASF57
 5638 02f4 08        	.byte0x8
 5639 02f5 3D        	.byte0x3d
 5640 02f6 0000 00EC 	.long0xec
 5641 02fa 10        	.byte0x10
 5642 02fb 09        	.uleb128 0x9
 5643 02fc 0000 0000 	.long.LASF58
 5644 0300 08        	.byte0x8
 5645 0301 3E        	.byte0x3e
 5646 0302 0000 00EC 	.long0xec
 5647 0306 14        	.byte0x14
 5648 0307 09        	.uleb128 0x9
 5649 0308 0000 0000 	.long.LASF59
 5650 030c 08        	.byte0x8
 5651 030d 3F        	.byte0x3f
 5652 030e 0000 00EC 	.long0xec
 5653 0312 18        	.byte0x18
 5654 0313 09        	.uleb128 0x9
 5655 0314 0000 0000 	.long.LASF60
 5656 0318 08        	.byte0x8
 5657 0319 40        	.byte0x40
 5658 031a 0000 00EC 	.long0xec
 5659 031e 1C        	.byte0x1c
 5660 031f 09        	.uleb128 0x9
 5661 0320 0000 0000 	.long.LASF61
 5662 0324 08        	.byte0x8
 5663 0325 41        	.byte0x41
 5664 0326 0000 00EC 	.long0xec
 5665 032a 20        	.byte0x20
68K GAS   			page 129


 5666 032b 00        	.byte0
 5667 032c 12        	.uleb128 0x12
 5668 032d 0000 0000 	.long.LASF62
 5669 0331 0108      	.word0x108
 5670 0333 08        	.byte0x8
 5671 0334 4A        	.byte0x4a
 5672 0335 0000 036C 	.long0x36c
 5673 0339 09        	.uleb128 0x9
 5674 033a 0000 0000 	.long.LASF63
 5675 033e 08        	.byte0x8
 5676 033f 4B        	.byte0x4b
 5677 0340 0000 036C 	.long0x36c
 5678 0344 00        	.byte0
 5679 0345 09        	.uleb128 0x9
 5680 0346 0000 0000 	.long.LASF64
 5681 034a 08        	.byte0x8
 5682 034b 4C        	.byte0x4c
 5683 034c 0000 036C 	.long0x36c
 5684 0350 80        	.byte0x80
 5685 0351 13        	.uleb128 0x13
 5686 0352 0000 0000 	.long.LASF65
 5687 0356 08        	.byte0x8
 5688 0357 4E        	.byte0x4e
 5689 0358 0000 023F 	.long0x23f
 5690 035c 0100      	.word0x100
 5691 035e 13        	.uleb128 0x13
 5692 035f 0000 0000 	.long.LASF66
 5693 0363 08        	.byte0x8
 5694 0364 51        	.byte0x51
 5695 0365 0000 023F 	.long0x23f
 5696 0369 0104      	.word0x104
 5697 036b 00        	.byte0
 5698 036c 0E        	.uleb128 0xe
 5699 036d 0000 00C2 	.long0xc2
 5700 0371 0000 037C 	.long0x37c
 5701 0375 0F        	.uleb128 0xf
 5702 0376 0000 009C 	.long0x9c
 5703 037a 1F        	.byte0x1f
 5704 037b 00        	.byte0
 5705 037c 12        	.uleb128 0x12
 5706 037d 0000 0000 	.long.LASF67
 5707 0381 0190      	.word0x190
 5708 0383 08        	.byte0x8
 5709 0384 5D        	.byte0x5d
 5710 0385 0000 03BA 	.long0x3ba
 5711 0389 09        	.uleb128 0x9
 5712 038a 0000 0000 	.long.LASF48
 5713 038e 08        	.byte0x8
 5714 038f 5E        	.byte0x5e
 5715 0390 0000 03BA 	.long0x3ba
 5716 0394 00        	.byte0
 5717 0395 09        	.uleb128 0x9
 5718 0396 0000 0000 	.long.LASF68
 5719 039a 08        	.byte0x8
 5720 039b 5F        	.byte0x5f
 5721 039c 0000 00EC 	.long0xec
 5722 03a0 04        	.byte0x4
68K GAS   			page 130


 5723 03a1 09        	.uleb128 0x9
 5724 03a2 0000 0000 	.long.LASF69
 5725 03a6 08        	.byte0x8
 5726 03a7 61        	.byte0x61
 5727 03a8 0000 03C0 	.long0x3c0
 5728 03ac 08        	.byte0x8
 5729 03ad 09        	.uleb128 0x9
 5730 03ae 0000 0000 	.long.LASF62
 5731 03b2 08        	.byte0x8
 5732 03b3 62        	.byte0x62
 5733 03b4 0000 032C 	.long0x32c
 5734 03b8 88        	.byte0x88
 5735 03b9 00        	.byte0
 5736 03ba 0B        	.uleb128 0xb
 5737 03bb 04        	.byte0x4
 5738 03bc 0000 037C 	.long0x37c
 5739 03c0 0E        	.uleb128 0xe
 5740 03c1 0000 03D0 	.long0x3d0
 5741 03c5 0000 03D0 	.long0x3d0
 5742 03c9 0F        	.uleb128 0xf
 5743 03ca 0000 009C 	.long0x9c
 5744 03ce 1F        	.byte0x1f
 5745 03cf 00        	.byte0
 5746 03d0 0B        	.uleb128 0xb
 5747 03d1 04        	.byte0x4
 5748 03d2 0000 03D6 	.long0x3d6
 5749 03d6 14        	.uleb128 0x14
 5750 03d7 08        	.uleb128 0x8
 5751 03d8 0000 0000 	.long.LASF70
 5752 03dc 08        	.byte0x8
 5753 03dd 08        	.byte0x8
 5754 03de 75        	.byte0x75
 5755 03df 0000 03FC 	.long0x3fc
 5756 03e3 09        	.uleb128 0x9
 5757 03e4 0000 0000 	.long.LASF71
 5758 03e8 08        	.byte0x8
 5759 03e9 76        	.byte0x76
 5760 03ea 0000 03FC 	.long0x3fc
 5761 03ee 00        	.byte0
 5762 03ef 09        	.uleb128 0x9
 5763 03f0 0000 0000 	.long.LASF72
 5764 03f4 08        	.byte0x8
 5765 03f5 77        	.byte0x77
 5766 03f6 0000 00EC 	.long0xec
 5767 03fa 04        	.byte0x4
 5768 03fb 00        	.byte0
 5769 03fc 0B        	.uleb128 0xb
 5770 03fd 04        	.byte0x4
 5771 03fe 0000 0030 	.long0x30
 5772 0402 08        	.uleb128 0x8
 5773 0403 0000 0000 	.long.LASF73
 5774 0407 80        	.byte0x80
 5775 0408 08        	.byte0x8
 5776 0409 B5        	.byte0xb5
 5777 040a 0000 052C 	.long0x52c
 5778 040e 11        	.uleb128 0x11
 5779 040f 5F70 00   	.string"_p"
68K GAS   			page 131


 5780 0412 08        	.byte0x8
 5781 0413 B6        	.byte0xb6
 5782 0414 0000 03FC 	.long0x3fc
 5783 0418 00        	.byte0
 5784 0419 11        	.uleb128 0x11
 5785 041a 5F72 00   	.string"_r"
 5786 041d 08        	.byte0x8
 5787 041e B7        	.byte0xb7
 5788 041f 0000 00EC 	.long0xec
 5789 0423 04        	.byte0x4
 5790 0424 11        	.uleb128 0x11
 5791 0425 5F77 00   	.string"_w"
 5792 0428 08        	.byte0x8
 5793 0429 B8        	.byte0xb8
 5794 042a 0000 00EC 	.long0xec
 5795 042e 08        	.byte0x8
 5796 042f 09        	.uleb128 0x9
 5797 0430 0000 0000 	.long.LASF74
 5798 0434 08        	.byte0x8
 5799 0435 B9        	.byte0xb9
 5800 0436 0000 0054 	.long0x54
 5801 043a 0C        	.byte0xc
 5802 043b 09        	.uleb128 0x9
 5803 043c 0000 0000 	.long.LASF75
 5804 0440 08        	.byte0x8
 5805 0441 BA        	.byte0xba
 5806 0442 0000 0054 	.long0x54
 5807 0446 0E        	.byte0xe
 5808 0447 11        	.uleb128 0x11
 5809 0448 5F62 6600 	.string"_bf"
 5810 044c 08        	.byte0x8
 5811 044d BB        	.byte0xbb
 5812 044e 0000 03D7 	.long0x3d7
 5813 0452 10        	.byte0x10
 5814 0453 09        	.uleb128 0x9
 5815 0454 0000 0000 	.long.LASF76
 5816 0458 08        	.byte0x8
 5817 0459 BC        	.byte0xbc
 5818 045a 0000 00EC 	.long0xec
 5819 045e 18        	.byte0x18
 5820 045f 09        	.uleb128 0x9
 5821 0460 0000 0000 	.long.LASF77
 5822 0464 08        	.byte0x8
 5823 0465 C3        	.byte0xc3
 5824 0466 0000 00C2 	.long0xc2
 5825 046a 1C        	.byte0x1c
 5826 046b 09        	.uleb128 0x9
 5827 046c 0000 0000 	.long.LASF78
 5828 0470 08        	.byte0x8
 5829 0471 C5        	.byte0xc5
 5830 0472 0000 0663 	.long0x663
 5831 0476 20        	.byte0x20
 5832 0477 09        	.uleb128 0x9
 5833 0478 0000 0000 	.long.LASF79
 5834 047c 08        	.byte0x8
 5835 047d C7        	.byte0xc7
 5836 047e 0000 0687 	.long0x687
68K GAS   			page 132


 5837 0482 24        	.byte0x24
 5838 0483 09        	.uleb128 0x9
 5839 0484 0000 0000 	.long.LASF80
 5840 0488 08        	.byte0x8
 5841 0489 CA        	.byte0xca
 5842 048a 0000 06AB 	.long0x6ab
 5843 048e 28        	.byte0x28
 5844 048f 09        	.uleb128 0x9
 5845 0490 0000 0000 	.long.LASF81
 5846 0494 08        	.byte0x8
 5847 0495 CB        	.byte0xcb
 5848 0496 0000 06C5 	.long0x6c5
 5849 049a 2C        	.byte0x2c
 5850 049b 11        	.uleb128 0x11
 5851 049c 5F75 6200 	.string"_ub"
 5852 04a0 08        	.byte0x8
 5853 04a1 CE        	.byte0xce
 5854 04a2 0000 03D7 	.long0x3d7
 5855 04a6 30        	.byte0x30
 5856 04a7 11        	.uleb128 0x11
 5857 04a8 5F75 7000 	.string"_up"
 5858 04ac 08        	.byte0x8
 5859 04ad CF        	.byte0xcf
 5860 04ae 0000 03FC 	.long0x3fc
 5861 04b2 38        	.byte0x38
 5862 04b3 11        	.uleb128 0x11
 5863 04b4 5F75 7200 	.string"_ur"
 5864 04b8 08        	.byte0x8
 5865 04b9 D0        	.byte0xd0
 5866 04ba 0000 00EC 	.long0xec
 5867 04be 3C        	.byte0x3c
 5868 04bf 09        	.uleb128 0x9
 5869 04c0 0000 0000 	.long.LASF82
 5870 04c4 08        	.byte0x8
 5871 04c5 D3        	.byte0xd3
 5872 04c6 0000 06CB 	.long0x6cb
 5873 04ca 40        	.byte0x40
 5874 04cb 09        	.uleb128 0x9
 5875 04cc 0000 0000 	.long.LASF83
 5876 04d0 08        	.byte0x8
 5877 04d1 D4        	.byte0xd4
 5878 04d2 0000 06DB 	.long0x6db
 5879 04d6 43        	.byte0x43
 5880 04d7 11        	.uleb128 0x11
 5881 04d8 5F6C 6200 	.string"_lb"
 5882 04dc 08        	.byte0x8
 5883 04dd D7        	.byte0xd7
 5884 04de 0000 03D7 	.long0x3d7
 5885 04e2 44        	.byte0x44
 5886 04e3 09        	.uleb128 0x9
 5887 04e4 0000 0000 	.long.LASF84
 5888 04e8 08        	.byte0x8
 5889 04e9 DA        	.byte0xda
 5890 04ea 0000 00EC 	.long0xec
 5891 04ee 4C        	.byte0x4c
 5892 04ef 09        	.uleb128 0x9
 5893 04f0 0000 0000 	.long.LASF85
68K GAS   			page 133


 5894 04f4 08        	.byte0x8
 5895 04f5 DB        	.byte0xdb
 5896 04f6 0000 00D6 	.long0xd6
 5897 04fa 50        	.byte0x50
 5898 04fb 09        	.uleb128 0x9
 5899 04fc 0000 0000 	.long.LASF86
 5900 0500 08        	.byte0x8
 5901 0501 DE        	.byte0xde
 5902 0502 0000 054A 	.long0x54a
 5903 0506 58        	.byte0x58
 5904 0507 09        	.uleb128 0x9
 5905 0508 0000 0000 	.long.LASF87
 5906 050c 08        	.byte0x8
 5907 050d E2        	.byte0xe2
 5908 050e 0000 0234 	.long0x234
 5909 0512 5C        	.byte0x5c
 5910 0513 09        	.uleb128 0x9
 5911 0514 0000 0000 	.long.LASF88
 5912 0518 08        	.byte0x8
 5913 0519 E4        	.byte0xe4
 5914 051a 0000 0229 	.long0x229
 5915 051e 74        	.byte0x74
 5916 051f 09        	.uleb128 0x9
 5917 0520 0000 0000 	.long.LASF89
 5918 0524 08        	.byte0x8
 5919 0525 E5        	.byte0xe5
 5920 0526 0000 00EC 	.long0xec
 5921 052a 7C        	.byte0x7c
 5922 052b 00        	.byte0
 5923 052c 15        	.uleb128 0x15
 5924 052d 0000 01C2 	.long0x1c2
 5925 0531 0000 054A 	.long0x54a
 5926 0535 16        	.uleb128 0x16
 5927 0536 0000 054A 	.long0x54a
 5928 053a 16        	.uleb128 0x16
 5929 053b 0000 00C2 	.long0xc2
 5930 053f 16        	.uleb128 0x16
 5931 0540 0000 065D 	.long0x65d
 5932 0544 16        	.uleb128 0x16
 5933 0545 0000 00EC 	.long0xec
 5934 0549 00        	.byte0
 5935 054a 0B        	.uleb128 0xb
 5936 054b 04        	.byte0x4
 5937 054c 0000 0555 	.long0x555
 5938 0550 05        	.uleb128 0x5
 5939 0551 0000 054A 	.long0x54a
 5940 0555 17        	.uleb128 0x17
 5941 0556 0000 0000 	.long.LASF90
 5942 055a 0158      	.word0x158
 5943 055c 08        	.byte0x8
 5944 055d 0239      	.word0x239
 5945 055f 0000 065D 	.long0x65d
 5946 0563 18        	.uleb128 0x18
 5947 0564 0000 0000 	.long.LASF91
 5948 0568 08        	.byte0x8
 5949 0569 023B      	.word0x23b
 5950 056b 0000 00EC 	.long0xec
68K GAS   			page 134


 5951 056f 00        	.byte0
 5952 0570 18        	.uleb128 0x18
 5953 0571 0000 0000 	.long.LASF92
 5954 0575 08        	.byte0x8
 5955 0576 0240      	.word0x240
 5956 0578 0000 0732 	.long0x732
 5957 057c 04        	.byte0x4
 5958 057d 18        	.uleb128 0x18
 5959 057e 0000 0000 	.long.LASF93
 5960 0582 08        	.byte0x8
 5961 0583 0240      	.word0x240
 5962 0585 0000 0732 	.long0x732
 5963 0589 08        	.byte0x8
 5964 058a 18        	.uleb128 0x18
 5965 058b 0000 0000 	.long.LASF94
 5966 058f 08        	.byte0x8
 5967 0590 0240      	.word0x240
 5968 0592 0000 0732 	.long0x732
 5969 0596 0C        	.byte0xc
 5970 0597 18        	.uleb128 0x18
 5971 0598 0000 0000 	.long.LASF95
 5972 059c 08        	.byte0x8
 5973 059d 0242      	.word0x242
 5974 059f 0000 00EC 	.long0xec
 5975 05a3 10        	.byte0x10
 5976 05a4 18        	.uleb128 0x18
 5977 05a5 0000 0000 	.long.LASF96
 5978 05a9 08        	.byte0x8
 5979 05aa 0243      	.word0x243
 5980 05ac 0000 0914 	.long0x914
 5981 05b0 14        	.byte0x14
 5982 05b1 18        	.uleb128 0x18
 5983 05b2 0000 0000 	.long.LASF97
 5984 05b6 08        	.byte0x8
 5985 05b7 0246      	.word0x246
 5986 05b9 0000 00EC 	.long0xec
 5987 05bd 30        	.byte0x30
 5988 05be 18        	.uleb128 0x18
 5989 05bf 0000 0000 	.long.LASF98
 5990 05c3 08        	.byte0x8
 5991 05c4 0247      	.word0x247
 5992 05c6 0000 0929 	.long0x929
 5993 05ca 34        	.byte0x34
 5994 05cb 18        	.uleb128 0x18
 5995 05cc 0000 0000 	.long.LASF99
 5996 05d0 08        	.byte0x8
 5997 05d1 0249      	.word0x249
 5998 05d3 0000 00EC 	.long0xec
 5999 05d7 38        	.byte0x38
 6000 05d8 18        	.uleb128 0x18
 6001 05d9 0000 0000 	.long.LASF100
 6002 05dd 08        	.byte0x8
 6003 05de 024B      	.word0x24b
 6004 05e0 0000 093A 	.long0x93a
 6005 05e4 3C        	.byte0x3c
 6006 05e5 18        	.uleb128 0x18
 6007 05e6 0000 0000 	.long.LASF101
68K GAS   			page 135


 6008 05ea 08        	.byte0x8
 6009 05eb 024E      	.word0x24e
 6010 05ed 0000 029D 	.long0x29d
 6011 05f1 40        	.byte0x40
 6012 05f2 18        	.uleb128 0x18
 6013 05f3 0000 0000 	.long.LASF102
 6014 05f7 08        	.byte0x8
 6015 05f8 024F      	.word0x24f
 6016 05fa 0000 00EC 	.long0xec
 6017 05fe 44        	.byte0x44
 6018 05ff 18        	.uleb128 0x18
 6019 0600 0000 0000 	.long.LASF103
 6020 0604 08        	.byte0x8
 6021 0605 0250      	.word0x250
 6022 0607 0000 029D 	.long0x29d
 6023 060b 48        	.byte0x48
 6024 060c 18        	.uleb128 0x18
 6025 060d 0000 0000 	.long.LASF104
 6026 0611 08        	.byte0x8
 6027 0612 0251      	.word0x251
 6028 0614 0000 0940 	.long0x940
 6029 0618 4C        	.byte0x4c
 6030 0619 18        	.uleb128 0x18
 6031 061a 0000 0000 	.long.LASF105
 6032 061e 08        	.byte0x8
 6033 061f 0254      	.word0x254
 6034 0621 0000 00EC 	.long0xec
 6035 0625 50        	.byte0x50
 6036 0626 18        	.uleb128 0x18
 6037 0627 0000 0000 	.long.LASF106
 6038 062b 08        	.byte0x8
 6039 062c 0255      	.word0x255
 6040 062e 0000 065D 	.long0x65d
 6041 0632 54        	.byte0x54
 6042 0633 18        	.uleb128 0x18
 6043 0634 0000 0000 	.long.LASF107
 6044 0638 08        	.byte0x8
 6045 0639 0278      	.word0x278
 6046 063b 0000 08F2 	.long0x8f2
 6047 063f 58        	.byte0x58
 6048 0640 19        	.uleb128 0x19
 6049 0641 0000 0000 	.long.LASF108
 6050 0645 08        	.byte0x8
 6051 0646 0281      	.word0x281
 6052 0648 0000 0951 	.long0x951
 6053 064c 0148      	.word0x148
 6054 064e 19        	.uleb128 0x19
 6055 064f 0000 0000 	.long.LASF109
 6056 0653 08        	.byte0x8
 6057 0654 0286      	.word0x286
 6058 0656 0000 06F7 	.long0x6f7
 6059 065a 014C      	.word0x14c
 6060 065c 00        	.byte0
 6061 065d 0B        	.uleb128 0xb
 6062 065e 04        	.byte0x4
 6063 065f 0000 00B6 	.long0xb6
 6064 0663 0B        	.uleb128 0xb
68K GAS   			page 136


 6065 0664 04        	.byte0x4
 6066 0665 0000 052C 	.long0x52c
 6067 0669 15        	.uleb128 0x15
 6068 066a 0000 01C2 	.long0x1c2
 6069 066e 0000 0687 	.long0x687
 6070 0672 16        	.uleb128 0x16
 6071 0673 0000 054A 	.long0x54a
 6072 0677 16        	.uleb128 0x16
 6073 0678 0000 00C2 	.long0xc2
 6074 067c 16        	.uleb128 0x16
 6075 067d 0000 0172 	.long0x172
 6076 0681 16        	.uleb128 0x16
 6077 0682 0000 00EC 	.long0xec
 6078 0686 00        	.byte0
 6079 0687 0B        	.uleb128 0xb
 6080 0688 04        	.byte0x4
 6081 0689 0000 0669 	.long0x669
 6082 068d 15        	.uleb128 0x15
 6083 068e 0000 00E1 	.long0xe1
 6084 0692 0000 06AB 	.long0x6ab
 6085 0696 16        	.uleb128 0x16
 6086 0697 0000 054A 	.long0x54a
 6087 069b 16        	.uleb128 0x16
 6088 069c 0000 00C2 	.long0xc2
 6089 06a0 16        	.uleb128 0x16
 6090 06a1 0000 00E1 	.long0xe1
 6091 06a5 16        	.uleb128 0x16
 6092 06a6 0000 00EC 	.long0xec
 6093 06aa 00        	.byte0
 6094 06ab 0B        	.uleb128 0xb
 6095 06ac 04        	.byte0x4
 6096 06ad 0000 068D 	.long0x68d
 6097 06b1 15        	.uleb128 0x15
 6098 06b2 0000 00EC 	.long0xec
 6099 06b6 0000 06C5 	.long0x6c5
 6100 06ba 16        	.uleb128 0x16
 6101 06bb 0000 054A 	.long0x54a
 6102 06bf 16        	.uleb128 0x16
 6103 06c0 0000 00C2 	.long0xc2
 6104 06c4 00        	.byte0
 6105 06c5 0B        	.uleb128 0xb
 6106 06c6 04        	.byte0x4
 6107 06c7 0000 06B1 	.long0x6b1
 6108 06cb 0E        	.uleb128 0xe
 6109 06cc 0000 0030 	.long0x30
 6110 06d0 0000 06DB 	.long0x6db
 6111 06d4 0F        	.uleb128 0xf
 6112 06d5 0000 009C 	.long0x9c
 6113 06d9 02        	.byte0x2
 6114 06da 00        	.byte0
 6115 06db 0E        	.uleb128 0xe
 6116 06dc 0000 0030 	.long0x30
 6117 06e0 0000 06EB 	.long0x6eb
 6118 06e4 0F        	.uleb128 0xf
 6119 06e5 0000 009C 	.long0x9c
 6120 06e9 00        	.byte0
 6121 06ea 00        	.byte0
68K GAS   			page 137


 6122 06eb 04        	.uleb128 0x4
 6123 06ec 0000 0000 	.long.LASF110
 6124 06f0 08        	.byte0x8
 6125 06f1 011F      	.word0x11f
 6126 06f3 0000 0402 	.long0x402
 6127 06f7 1A        	.uleb128 0x1a
 6128 06f8 0000 0000 	.long.LASF111
 6129 06fc 0C        	.byte0xc
 6130 06fd 08        	.byte0x8
 6131 06fe 0123      	.word0x123
 6132 0700 0000 072C 	.long0x72c
 6133 0704 18        	.uleb128 0x18
 6134 0705 0000 0000 	.long.LASF48
 6135 0709 08        	.byte0x8
 6136 070a 0125      	.word0x125
 6137 070c 0000 072C 	.long0x72c
 6138 0710 00        	.byte0
 6139 0711 18        	.uleb128 0x18
 6140 0712 0000 0000 	.long.LASF112
 6141 0716 08        	.byte0x8
 6142 0717 0126      	.word0x126
 6143 0719 0000 00EC 	.long0xec
 6144 071d 04        	.byte0x4
 6145 071e 18        	.uleb128 0x18
 6146 071f 0000 0000 	.long.LASF113
 6147 0723 08        	.byte0x8
 6148 0724 0127      	.word0x127
 6149 0726 0000 0732 	.long0x732
 6150 072a 08        	.byte0x8
 6151 072b 00        	.byte0
 6152 072c 0B        	.uleb128 0xb
 6153 072d 04        	.byte0x4
 6154 072e 0000 06F7 	.long0x6f7
 6155 0732 0B        	.uleb128 0xb
 6156 0733 04        	.byte0x4
 6157 0734 0000 06EB 	.long0x6eb
 6158 0738 1A        	.uleb128 0x1a
 6159 0739 0000 0000 	.long.LASF114
 6160 073d 0E        	.byte0xe
 6161 073e 08        	.byte0x8
 6162 073f 013F      	.word0x13f
 6163 0741 0000 076D 	.long0x76d
 6164 0745 18        	.uleb128 0x18
 6165 0746 0000 0000 	.long.LASF115
 6166 074a 08        	.byte0x8
 6167 074b 0140      	.word0x140
 6168 074d 0000 076D 	.long0x76d
 6169 0751 00        	.byte0
 6170 0752 18        	.uleb128 0x18
 6171 0753 0000 0000 	.long.LASF116
 6172 0757 08        	.byte0x8
 6173 0758 0141      	.word0x141
 6174 075a 0000 076D 	.long0x76d
 6175 075e 06        	.byte0x6
 6176 075f 18        	.uleb128 0x18
 6177 0760 0000 0000 	.long.LASF117
 6178 0764 08        	.byte0x8
68K GAS   			page 138


 6179 0765 0142      	.word0x142
 6180 0767 0000 008A 	.long0x8a
 6181 076b 0C        	.byte0xc
 6182 076c 00        	.byte0
 6183 076d 0E        	.uleb128 0xe
 6184 076e 0000 008A 	.long0x8a
 6185 0772 0000 077D 	.long0x77d
 6186 0776 0F        	.uleb128 0xf
 6187 0777 0000 009C 	.long0x9c
 6188 077b 02        	.byte0x2
 6189 077c 00        	.byte0
 6190 077d 1B        	.uleb128 0x1b
 6191 077e CC        	.byte0xcc
 6192 077f 08        	.byte0x8
 6193 0780 0259      	.word0x259
 6194 0782 0000 087E 	.long0x87e
 6195 0786 18        	.uleb128 0x18
 6196 0787 0000 0000 	.long.LASF118
 6197 078b 08        	.byte0x8
 6198 078c 025B      	.word0x25b
 6199 078e 0000 0118 	.long0x118
 6200 0792 00        	.byte0
 6201 0793 18        	.uleb128 0x18
 6202 0794 0000 0000 	.long.LASF119
 6203 0798 08        	.byte0x8
 6204 0799 025C      	.word0x25c
 6205 079b 0000 065D 	.long0x65d
 6206 079f 04        	.byte0x4
 6207 07a0 18        	.uleb128 0x18
 6208 07a1 0000 0000 	.long.LASF120
 6209 07a5 08        	.byte0x8
 6210 07a6 025D      	.word0x25d
 6211 07a8 0000 087E 	.long0x87e
 6212 07ac 08        	.byte0x8
 6213 07ad 18        	.uleb128 0x18
 6214 07ae 0000 0000 	.long.LASF121
 6215 07b2 08        	.byte0x8
 6216 07b3 025E      	.word0x25e
 6217 07b5 0000 02B3 	.long0x2b3
 6218 07b9 24        	.byte0x24
 6219 07ba 18        	.uleb128 0x18
 6220 07bb 0000 0000 	.long.LASF122
 6221 07bf 08        	.byte0x8
 6222 07c0 025F      	.word0x25f
 6223 07c2 0000 00EC 	.long0xec
 6224 07c6 48        	.byte0x48
 6225 07c7 18        	.uleb128 0x18
 6226 07c8 0000 0000 	.long.LASF123
 6227 07cc 08        	.byte0x8
 6228 07cd 0260      	.word0x260
 6229 07cf 0000 00A3 	.long0xa3
 6230 07d3 4C        	.byte0x4c
 6231 07d4 18        	.uleb128 0x18
 6232 07d5 0000 0000 	.long.LASF124
 6233 07d9 08        	.byte0x8
 6234 07da 0261      	.word0x261
 6235 07dc 0000 0738 	.long0x738
68K GAS   			page 139


 6236 07e0 54        	.byte0x54
 6237 07e1 18        	.uleb128 0x18
 6238 07e2 0000 0000 	.long.LASF125
 6239 07e6 08        	.byte0x8
 6240 07e7 0262      	.word0x262
 6241 07e9 0000 0229 	.long0x229
 6242 07ed 64        	.byte0x64
 6243 07ee 18        	.uleb128 0x18
 6244 07ef 0000 0000 	.long.LASF126
 6245 07f3 08        	.byte0x8
 6246 07f4 0263      	.word0x263
 6247 07f6 0000 0229 	.long0x229
 6248 07fa 6C        	.byte0x6c
 6249 07fb 18        	.uleb128 0x18
 6250 07fc 0000 0000 	.long.LASF127
 6251 0800 08        	.byte0x8
 6252 0801 0264      	.word0x264
 6253 0803 0000 0229 	.long0x229
 6254 0807 74        	.byte0x74
 6255 0808 18        	.uleb128 0x18
 6256 0809 0000 0000 	.long.LASF128
 6257 080d 08        	.byte0x8
 6258 080e 0265      	.word0x265
 6259 0810 0000 088E 	.long0x88e
 6260 0814 7C        	.byte0x7c
 6261 0815 18        	.uleb128 0x18
 6262 0816 0000 0000 	.long.LASF129
 6263 081a 08        	.byte0x8
 6264 081b 0266      	.word0x266
 6265 081d 0000 089E 	.long0x89e
 6266 0821 84        	.byte0x84
 6267 0822 18        	.uleb128 0x18
 6268 0823 0000 0000 	.long.LASF130
 6269 0827 08        	.byte0x8
 6270 0828 0267      	.word0x267
 6271 082a 0000 00EC 	.long0xec
 6272 082e 9C        	.byte0x9c
 6273 082f 18        	.uleb128 0x18
 6274 0830 0000 0000 	.long.LASF131
 6275 0834 08        	.byte0x8
 6276 0835 0268      	.word0x268
 6277 0837 0000 0229 	.long0x229
 6278 083b A0        	.byte0xa0
 6279 083c 18        	.uleb128 0x18
 6280 083d 0000 0000 	.long.LASF132
 6281 0841 08        	.byte0x8
 6282 0842 0269      	.word0x269
 6283 0844 0000 0229 	.long0x229
 6284 0848 A8        	.byte0xa8
 6285 0849 18        	.uleb128 0x18
 6286 084a 0000 0000 	.long.LASF133
 6287 084e 08        	.byte0x8
 6288 084f 026A      	.word0x26a
 6289 0851 0000 0229 	.long0x229
 6290 0855 B0        	.byte0xb0
 6291 0856 18        	.uleb128 0x18
 6292 0857 0000 0000 	.long.LASF134
68K GAS   			page 140


 6293 085b 08        	.byte0x8
 6294 085c 026B      	.word0x26b
 6295 085e 0000 0229 	.long0x229
 6296 0862 B8        	.byte0xb8
 6297 0863 18        	.uleb128 0x18
 6298 0864 0000 0000 	.long.LASF135
 6299 0868 08        	.byte0x8
 6300 0869 026C      	.word0x26c
 6301 086b 0000 0229 	.long0x229
 6302 086f C0        	.byte0xc0
 6303 0870 18        	.uleb128 0x18
 6304 0871 0000 0000 	.long.LASF136
 6305 0875 08        	.byte0x8
 6306 0876 026D      	.word0x26d
 6307 0878 0000 00EC 	.long0xec
 6308 087c C8        	.byte0xc8
 6309 087d 00        	.byte0
 6310 087e 0E        	.uleb128 0xe
 6311 087f 0000 00B6 	.long0xb6
 6312 0883 0000 088E 	.long0x88e
 6313 0887 0F        	.uleb128 0xf
 6314 0888 0000 009C 	.long0x9c
 6315 088c 19        	.byte0x19
 6316 088d 00        	.byte0
 6317 088e 0E        	.uleb128 0xe
 6318 088f 0000 00B6 	.long0xb6
 6319 0893 0000 089E 	.long0x89e
 6320 0897 0F        	.uleb128 0xf
 6321 0898 0000 009C 	.long0x9c
 6322 089c 07        	.byte0x7
 6323 089d 00        	.byte0
 6324 089e 0E        	.uleb128 0xe
 6325 089f 0000 00B6 	.long0xb6
 6326 08a3 0000 08AE 	.long0x8ae
 6327 08a7 0F        	.uleb128 0xf
 6328 08a8 0000 009C 	.long0x9c
 6329 08ac 17        	.byte0x17
 6330 08ad 00        	.byte0
 6331 08ae 1B        	.uleb128 0x1b
 6332 08af F0        	.byte0xf0
 6333 08b0 08        	.byte0x8
 6334 08b1 0272      	.word0x272
 6335 08b3 0000 08D2 	.long0x8d2
 6336 08b7 18        	.uleb128 0x18
 6337 08b8 0000 0000 	.long.LASF137
 6338 08bc 08        	.byte0x8
 6339 08bd 0275      	.word0x275
 6340 08bf 0000 08D2 	.long0x8d2
 6341 08c3 00        	.byte0
 6342 08c4 18        	.uleb128 0x18
 6343 08c5 0000 0000 	.long.LASF138
 6344 08c9 08        	.byte0x8
 6345 08ca 0276      	.word0x276
 6346 08cc 0000 08E2 	.long0x8e2
 6347 08d0 78        	.byte0x78
 6348 08d1 00        	.byte0
 6349 08d2 0E        	.uleb128 0xe
68K GAS   			page 141


 6350 08d3 0000 03FC 	.long0x3fc
 6351 08d7 0000 08E2 	.long0x8e2
 6352 08db 0F        	.uleb128 0xf
 6353 08dc 0000 009C 	.long0x9c
 6354 08e0 1D        	.byte0x1d
 6355 08e1 00        	.byte0
 6356 08e2 0E        	.uleb128 0xe
 6357 08e3 0000 0118 	.long0x118
 6358 08e7 0000 08F2 	.long0x8f2
 6359 08eb 0F        	.uleb128 0xf
 6360 08ec 0000 009C 	.long0x9c
 6361 08f0 1D        	.byte0x1d
 6362 08f1 00        	.byte0
 6363 08f2 1C        	.uleb128 0x1c
 6364 08f3 F0        	.byte0xf0
 6365 08f4 08        	.byte0x8
 6366 08f5 0257      	.word0x257
 6367 08f7 0000 0914 	.long0x914
 6368 08fb 1D        	.uleb128 0x1d
 6369 08fc 0000 0000 	.long.LASF90
 6370 0900 08        	.byte0x8
 6371 0901 026E      	.word0x26e
 6372 0903 0000 077D 	.long0x77d
 6373 0907 1D        	.uleb128 0x1d
 6374 0908 0000 0000 	.long.LASF139
 6375 090c 08        	.byte0x8
 6376 090d 0277      	.word0x277
 6377 090f 0000 08AE 	.long0x8ae
 6378 0913 00        	.byte0
 6379 0914 0E        	.uleb128 0xe
 6380 0915 0000 00B6 	.long0xb6
 6381 0919 0000 0924 	.long0x924
 6382 091d 0F        	.uleb128 0xf
 6383 091e 0000 009C 	.long0x9c
 6384 0922 18        	.byte0x18
 6385 0923 00        	.byte0
 6386 0924 0A        	.uleb128 0xa
 6387 0925 0000 0000 	.long.LASF140
 6388 0929 0B        	.uleb128 0xb
 6389 092a 04        	.byte0x4
 6390 092b 0000 0924 	.long0x924
 6391 092f 1E        	.uleb128 0x1e
 6392 0930 0000 093A 	.long0x93a
 6393 0934 16        	.uleb128 0x16
 6394 0935 0000 054A 	.long0x54a
 6395 0939 00        	.byte0
 6396 093a 0B        	.uleb128 0xb
 6397 093b 04        	.byte0x4
 6398 093c 0000 092F 	.long0x92f
 6399 0940 0B        	.uleb128 0xb
 6400 0941 04        	.byte0x4
 6401 0942 0000 029D 	.long0x29d
 6402 0946 1E        	.uleb128 0x1e
 6403 0947 0000 0951 	.long0x951
 6404 094b 16        	.uleb128 0x16
 6405 094c 0000 00EC 	.long0xec
 6406 0950 00        	.byte0
68K GAS   			page 142


 6407 0951 0B        	.uleb128 0xb
 6408 0952 04        	.byte0x4
 6409 0953 0000 0957 	.long0x957
 6410 0957 0B        	.uleb128 0xb
 6411 0958 04        	.byte0x4
 6412 0959 0000 0946 	.long0x946
 6413 095d 0E        	.uleb128 0xe
 6414 095e 0000 06EB 	.long0x6eb
 6415 0962 0000 096D 	.long0x96d
 6416 0966 0F        	.uleb128 0xf
 6417 0967 0000 009C 	.long0x9c
 6418 096b 02        	.byte0x2
 6419 096c 00        	.byte0
 6420 096d 1F        	.uleb128 0x1f
 6421 096e 0000 0000 	.long.LASF141
 6422 0972 08        	.byte0x8
 6423 0973 028D      	.word0x28d
 6424 0975 0000 095D 	.long0x95d
 6425 0979 1F        	.uleb128 0x1f
 6426 097a 0000 0000 	.long.LASF142
 6427 097e 08        	.byte0x8
 6428 097f 0307      	.word0x307
 6429 0981 0000 054A 	.long0x54a
 6430 0985 1F        	.uleb128 0x1f
 6431 0986 0000 0000 	.long.LASF143
 6432 098a 08        	.byte0x8
 6433 098b 0308      	.word0x308
 6434 098d 0000 0550 	.long0x550
 6435 0991 1F        	.uleb128 0x1f
 6436 0992 0000 0000 	.long.LASF144
 6437 0996 08        	.byte0x8
 6438 0997 031A      	.word0x31a
 6439 0999 0000 03BA 	.long0x3ba
 6440 099d 20        	.uleb128 0x20
 6441 099e 0000 0000 	.long.LASF145
 6442 09a2 09        	.byte0x9
 6443 09a3 63        	.byte0x63
 6444 09a4 0000 065D 	.long0x65d
 6445 09a8 20        	.uleb128 0x20
 6446 09a9 0000 0000 	.long.LASF146
 6447 09ad 0A        	.byte0xa
 6448 09ae 9A        	.byte0x9a
 6449 09af 0000 0066 	.long0x66
 6450 09b3 20        	.uleb128 0x20
 6451 09b4 0000 0000 	.long.LASF147
 6452 09b8 0A        	.byte0xa
 6453 09b9 9B        	.byte0x9b
 6454 09ba 0000 00EC 	.long0xec
 6455 09be 0E        	.uleb128 0xe
 6456 09bf 0000 065D 	.long0x65d
 6457 09c3 0000 09CE 	.long0x9ce
 6458 09c7 0F        	.uleb128 0xf
 6459 09c8 0000 009C 	.long0x9c
 6460 09cc 01        	.byte0x1
 6461 09cd 00        	.byte0
 6462 09ce 20        	.uleb128 0x20
 6463 09cf 0000 0000 	.long.LASF148
68K GAS   			page 143


 6464 09d3 0A        	.byte0xa
 6465 09d4 9E        	.byte0x9e
 6466 09d5 0000 09BE 	.long0x9be
 6467 09d9 0B        	.uleb128 0xb
 6468 09da 04        	.byte0x4
 6469 09db 0000 0074 	.long0x74
 6470 09df 10        	.uleb128 0x10
 6471 09e0 02        	.byte0x2
 6472 09e1 0B        	.byte0xb
 6473 09e2 B1        	.byte0xb1
 6474 09e3 0000 0A00 	.long0xa00
 6475 09e7 09        	.uleb128 0x9
 6476 09e8 0000 0000 	.long.LASF149
 6477 09ec 0B        	.byte0xb
 6478 09ed B2        	.byte0xb2
 6479 09ee 0000 0074 	.long0x74
 6480 09f2 00        	.byte0
 6481 09f3 09        	.uleb128 0x9
 6482 09f4 0000 0000 	.long.LASF150
 6483 09f8 0B        	.byte0xb
 6484 09f9 B3        	.byte0xb3
 6485 09fa 0000 0074 	.long0x74
 6486 09fe 01        	.byte0x1
 6487 09ff 00        	.byte0
 6488 0a00 02        	.uleb128 0x2
 6489 0a01 0000 0000 	.long.LASF151
 6490 0a05 0B        	.byte0xb
 6491 0a06 B4        	.byte0xb4
 6492 0a07 0000 09DF 	.long0x9df
 6493 0a0b 20        	.uleb128 0x20
 6494 0a0c 0000 0000 	.long.LASF152
 6495 0a10 0B        	.byte0xb
 6496 0a11 B6        	.byte0xb6
 6497 0a12 0000 0A00 	.long0xa00
 6498 0a16 20        	.uleb128 0x20
 6499 0a17 0000 0000 	.long.LASF153
 6500 0a1b 0C        	.byte0xc
 6501 0a1c 10        	.byte0x10
 6502 0a1d 0000 0A21 	.long0xa21
 6503 0a21 0B        	.uleb128 0xb
 6504 0a22 04        	.byte0x4
 6505 0a23 0000 065D 	.long0x65d
 6506 0a27 20        	.uleb128 0x20
 6507 0a28 0000 0000 	.long.LASF154
 6508 0a2c 0C        	.byte0xc
 6509 0a2d FC        	.byte0xfc
 6510 0a2e 0000 065D 	.long0x65d
 6511 0a32 20        	.uleb128 0x20
 6512 0a33 0000 0000 	.long.LASF155
 6513 0a37 0C        	.byte0xc
 6514 0a38 FD        	.byte0xfd
 6515 0a39 0000 00EC 	.long0xec
 6516 0a3d 20        	.uleb128 0x20
 6517 0a3e 0000 0000 	.long.LASF156
 6518 0a42 0C        	.byte0xc
 6519 0a43 FD        	.byte0xfd
 6520 0a44 0000 00EC 	.long0xec
68K GAS   			page 144


 6521 0a48 20        	.uleb128 0x20
 6522 0a49 0000 0000 	.long.LASF157
 6523 0a4d 0C        	.byte0xc
 6524 0a4e FD        	.byte0xfd
 6525 0a4f 0000 00EC 	.long0xec
 6526 0a53 20        	.uleb128 0x20
 6527 0a54 0000 0000 	.long.LASF158
 6528 0a58 0C        	.byte0xc
 6529 0a59 FF        	.byte0xff
 6530 0a5a 0000 00EC 	.long0xec
 6531 0a5e 10        	.uleb128 0x10
 6532 0a5f 04        	.byte0x4
 6533 0a60 0D        	.byte0xd
 6534 0a61 5B        	.byte0x5b
 6535 0a62 0000 0A7B 	.long0xa7b
 6536 0a66 11        	.uleb128 0x11
 6537 0a67 6E00      	.string"n"
 6538 0a69 0D        	.byte0xd
 6539 0a6a 5D        	.byte0x5d
 6540 0a6b 0000 007F 	.long0x7f
 6541 0a6f 00        	.byte0
 6542 0a70 11        	.uleb128 0x11
 6543 0a71 7400      	.string"t"
 6544 0a73 0D        	.byte0xd
 6545 0a74 5E        	.byte0x5e
 6546 0a75 0000 007F 	.long0x7f
 6547 0a79 02        	.byte0x2
 6548 0a7a 00        	.byte0
 6549 0a7b 02        	.uleb128 0x2
 6550 0a7c 0000 0000 	.long.LASF159
 6551 0a80 0D        	.byte0xd
 6552 0a81 60        	.byte0x60
 6553 0a82 0000 0A5E 	.long0xa5e
 6554 0a86 10        	.uleb128 0x10
 6555 0a87 06        	.byte0x6
 6556 0a88 0D        	.byte0xd
 6557 0a89 62        	.byte0x62
 6558 0a8a 0000 0AAD 	.long0xaad
 6559 0a8e 11        	.uleb128 0x11
 6560 0a8f 6500      	.string"e"
 6561 0a91 0D        	.byte0xd
 6562 0a92 64        	.byte0x64
 6563 0a93 0000 0074 	.long0x74
 6564 0a97 00        	.byte0
 6565 0a98 11        	.uleb128 0x11
 6566 0a99 6200      	.string"b"
 6567 0a9b 0D        	.byte0xd
 6568 0a9c 65        	.byte0x65
 6569 0a9d 0000 0074 	.long0x74
 6570 0aa1 01        	.byte0x1
 6571 0aa2 11        	.uleb128 0x11
 6572 0aa3 7600      	.string"v"
 6573 0aa5 0D        	.byte0xd
 6574 0aa6 66        	.byte0x66
 6575 0aa7 0000 0A7B 	.long0xa7b
 6576 0aab 02        	.byte0x2
 6577 0aac 00        	.byte0
68K GAS   			page 145


 6578 0aad 02        	.uleb128 0x2
 6579 0aae 0000 0000 	.long.LASF160
 6580 0ab2 0D        	.byte0xd
 6581 0ab3 68        	.byte0x68
 6582 0ab4 0000 0A86 	.long0xa86
 6583 0ab8 21        	.uleb128 0x21
 6584 0ab9 0001 DFE0 	.long0x1dfe0
 6585 0abd 0D        	.byte0xd
 6586 0abe 6A        	.byte0x6a
 6587 0abf 0000 0B8D 	.long0xb8d
 6588 0ac3 09        	.uleb128 0x9
 6589 0ac4 0000 0000 	.long.LASF161
 6590 0ac8 0D        	.byte0xd
 6591 0ac9 6C        	.byte0x6c
 6592 0aca 0000 00EC 	.long0xec
 6593 0ace 00        	.byte0
 6594 0acf 09        	.uleb128 0x9
 6595 0ad0 0000 0000 	.long.LASF162
 6596 0ad4 0D        	.byte0xd
 6597 0ad5 6D        	.byte0x6d
 6598 0ad6 0000 00EC 	.long0xec
 6599 0ada 04        	.byte0x4
 6600 0adb 11        	.uleb128 0x11
 6601 0adc 6262 00   	.string"bb"
 6602 0adf 0D        	.byte0xd
 6603 0ae0 6F        	.byte0x6f
 6604 0ae1 0000 0091 	.long0x91
 6605 0ae5 08        	.byte0x8
 6606 0ae6 11        	.uleb128 0x11
 6607 0ae7 626B 00   	.string"bk"
 6608 0aea 0D        	.byte0xd
 6609 0aeb 70        	.byte0x70
 6610 0aec 0000 0091 	.long0x91
 6611 0af0 0C        	.byte0xc
 6612 0af1 09        	.uleb128 0x9
 6613 0af2 0000 0000 	.long.LASF163
 6614 0af6 0D        	.byte0xd
 6615 0af7 71        	.byte0x71
 6616 0af8 0000 0091 	.long0x91
 6617 0afc 10        	.byte0x10
 6618 0afd 09        	.uleb128 0x9
 6619 0afe 0000 0000 	.long.LASF164
 6620 0b02 0D        	.byte0xd
 6621 0b03 72        	.byte0x72
 6622 0b04 0000 0091 	.long0x91
 6623 0b08 14        	.byte0x14
 6624 0b09 09        	.uleb128 0x9
 6625 0b0a 0000 0000 	.long.LASF165
 6626 0b0e 0D        	.byte0xd
 6627 0b0f 73        	.byte0x73
 6628 0b10 0000 0091 	.long0x91
 6629 0b14 18        	.byte0x18
 6630 0b15 09        	.uleb128 0x9
 6631 0b16 0000 0000 	.long.LASF166
 6632 0b1a 0D        	.byte0xd
 6633 0b1b 74        	.byte0x74
 6634 0b1c 0000 005B 	.long0x5b
68K GAS   			page 146


 6635 0b20 1C        	.byte0x1c
 6636 0b21 09        	.uleb128 0x9
 6637 0b22 0000 0000 	.long.LASF167
 6638 0b26 0D        	.byte0xd
 6639 0b27 75        	.byte0x75
 6640 0b28 0000 005B 	.long0x5b
 6641 0b2c 20        	.byte0x20
 6642 0b2d 09        	.uleb128 0x9
 6643 0b2e 0000 0000 	.long.LASF168
 6644 0b32 0D        	.byte0xd
 6645 0b33 77        	.byte0x77
 6646 0b34 0000 005B 	.long0x5b
 6647 0b38 24        	.byte0x24
 6648 0b39 09        	.uleb128 0x9
 6649 0b3a 0000 0000 	.long.LASF169
 6650 0b3e 0D        	.byte0xd
 6651 0b3f 79        	.byte0x79
 6652 0b40 0000 0B8D 	.long0xb8d
 6653 0b44 28        	.byte0x28
 6654 0b45 13        	.uleb128 0x13
 6655 0b46 0000 0000 	.long.LASF170
 6656 0b4a 0D        	.byte0xd
 6657 0b4b 7A        	.byte0x7a
 6658 0b4c 0000 0B9E 	.long0xb9e
 6659 0b50 8068      	.word0x8068
 6660 0b52 13        	.uleb128 0x13
 6661 0b53 0000 0000 	.long.LASF171
 6662 0b57 0D        	.byte0xd
 6663 0b58 7B        	.byte0x7b
 6664 0b59 0000 0BAF 	.long0xbaf
 6665 0b5d C868      	.word0xc868
 6666 0b5f 22        	.uleb128 0x22
 6667 0b60 0000 0000 	.long.LASF172
 6668 0b64 0D        	.byte0xd
 6669 0b65 7C        	.byte0x7c
 6670 0b66 0000 0091 	.long0x91
 6671 0b6a 0001 C868 	.long0x1c868
 6672 0b6e 22        	.uleb128 0x22
 6673 0b6f 0000 0000 	.long.LASF173
 6674 0b73 0D        	.byte0xd
 6675 0b74 7D        	.byte0x7d
 6676 0b75 0000 0091 	.long0x91
 6677 0b79 0001 C86C 	.long0x1c86c
 6678 0b7d 22        	.uleb128 0x22
 6679 0b7e 0000 0000 	.long.LASF174
 6680 0b82 0D        	.byte0xd
 6681 0b83 7F        	.byte0x7f
 6682 0b84 0000 0BC0 	.long0xbc0
 6683 0b88 0001 C870 	.long0x1c870
 6684 0b8c 00        	.byte0
 6685 0b8d 0E        	.uleb128 0xe
 6686 0b8e 0000 0074 	.long0x74
 6687 0b92 0000 0B9E 	.long0xb9e
 6688 0b96 23        	.uleb128 0x23
 6689 0b97 0000 009C 	.long0x9c
 6690 0b9b 803F      	.word0x803f
 6691 0b9d 00        	.byte0
68K GAS   			page 147


 6692 0b9e 0E        	.uleb128 0xe
 6693 0b9f 0000 0074 	.long0x74
 6694 0ba3 0000 0BAF 	.long0xbaf
 6695 0ba7 23        	.uleb128 0x23
 6696 0ba8 0000 009C 	.long0x9c
 6697 0bac 47FF      	.word0x47ff
 6698 0bae 00        	.byte0
 6699 0baf 0E        	.uleb128 0xe
 6700 0bb0 0000 0074 	.long0x74
 6701 0bb4 0000 0BC0 	.long0xbc0
 6702 0bb8 23        	.uleb128 0x23
 6703 0bb9 0000 009C 	.long0x9c
 6704 0bbd FFFF      	.word0xffff
 6705 0bbf 00        	.byte0
 6706 0bc0 0E        	.uleb128 0xe
 6707 0bc1 0000 0AAD 	.long0xaad
 6708 0bc5 0000 0BD1 	.long0xbd1
 6709 0bc9 23        	.uleb128 0x23
 6710 0bca 0000 009C 	.long0x9c
 6711 0bce 03E7      	.word0x3e7
 6712 0bd0 00        	.byte0
 6713 0bd1 02        	.uleb128 0x2
 6714 0bd2 0000 0000 	.long.LASF175
 6715 0bd6 0D        	.byte0xd
 6716 0bd7 81        	.byte0x81
 6717 0bd8 0000 0AB8 	.long0xab8
 6718 0bdc 24        	.uleb128 0x24
 6719 0bdd 0000 0000 	.long.LASF176
 6720 0be1 01        	.byte0x1
 6721 0be2 46        	.byte0x46
 6722 0be3 0000 0BD1 	.long0xbd1
 6723 0be7 05        	.uleb128 0x5
 6724 0be8 03        	.byte0x3
 6725 0be9 0000 0000 	.longCFE_FS_Decompress_State_NR
 6726 0bed 0E        	.uleb128 0xe
 6727 0bee 0000 0091 	.long0x91
 6728 0bf2 0000 0BFD 	.long0xbfd
 6729 0bf6 0F        	.uleb128 0xf
 6730 0bf7 0000 009C 	.long0x9c
 6731 0bfb 02        	.byte0x2
 6732 0bfc 00        	.byte0
 6733 0bfd 25        	.uleb128 0x25
 6734 0bfe 0000 0000 	.long.LASF177
 6735 0c02 01        	.byte0x1
 6736 0c03 48        	.byte0x48
 6737 0c04 0000 0BED 	.long0xbed
 6738 0c08 05        	.uleb128 0x5
 6739 0c09 03        	.byte0x3
 6740 0c0a 0000 0000 	.longtrace
 6741 0c0e 26        	.uleb128 0x26
 6742 0c0f 0000 0000 	.long.LASF179
 6743 0c13 01        	.byte0x1
 6744 0c14 0488      	.word0x488
 6745 0c16 0000 0091 	.long0x91
 6746 0c1a 0000 0000 	.long.LFB73
 6747 0c1e 0000 0068 	.long.LFE73-.LFB73
 6748 0c22 01        	.uleb128 0x1
68K GAS   			page 148


 6749 0c23 9C        	.byte0x9c
 6750 0c24 0000 0C73 	.long0xc73
 6751 0c28 27        	.uleb128 0x27
 6752 0c29 7300      	.string"s"
 6753 0c2b 01        	.byte0x1
 6754 0c2c 0488      	.word0x488
 6755 0c2e 0000 09D9 	.long0x9d9
 6756 0c32 02        	.uleb128 0x2
 6757 0c33 91        	.byte0x91
 6758 0c34 00        	.sleb128 0
 6759 0c35 27        	.uleb128 0x27
 6760 0c36 6E00      	.string"n"
 6761 0c38 01        	.byte0x1
 6762 0c39 0488      	.word0x488
 6763 0c3b 0000 0091 	.long0x91
 6764 0c3f 02        	.uleb128 0x2
 6765 0c40 91        	.byte0x91
 6766 0c41 04        	.sleb128 4
 6767 0c42 28        	.uleb128 0x28
 6768 0c43 0000 0000 	.long.LASF178
 6769 0c47 01        	.byte0x1
 6770 0c48 048A      	.word0x48a
 6771 0c4a 0000 0C73 	.long0xc73
 6772 0c4e 05        	.uleb128 0x5
 6773 0c4f 03        	.byte0x3
 6774 0c50 0000 0000 	.longcrc_32_tab.5925
 6775 0c54 29        	.uleb128 0x29
 6776 0c55 6300      	.string"c"
 6777 0c57 01        	.byte0x1
 6778 0c58 04C1      	.word0x4c1
 6779 0c5a 0000 0091 	.long0x91
 6780 0c5e 01        	.uleb128 0x1
 6781 0c5f 52        	.byte0x52
 6782 0c60 29        	.uleb128 0x29
 6783 0c61 6372 6300 	.string"crc"
 6784 0c65 01        	.byte0x1
 6785 0c66 04C3      	.word0x4c3
 6786 0c68 0000 0091 	.long0x91
 6787 0c6c 05        	.uleb128 0x5
 6788 0c6d 03        	.byte0x3
 6789 0c6e 0000 0000 	.longcrc.5927
 6790 0c72 00        	.byte0
 6791 0c73 0E        	.uleb128 0xe
 6792 0c74 0000 0091 	.long0x91
 6793 0c78 0000 0C83 	.long0xc83
 6794 0c7c 0F        	.uleb128 0xf
 6795 0c7d 0000 009C 	.long0x9c
 6796 0c81 FF        	.byte0xff
 6797 0c82 00        	.byte0
 6798 0c83 2A        	.uleb128 0x2a
 6799 0c84 0000 0000 	.long.LASF180
 6800 0c88 01        	.byte0x1
 6801 0c89 0451      	.word0x451
 6802 0c8b 0000 005B 	.long0x5b
 6803 0c8f 0000 0000 	.long.LFB72
 6804 0c93 0000 0198 	.long.LFE72-.LFB72
 6805 0c97 01        	.uleb128 0x1
68K GAS   			page 149


 6806 0c98 9C        	.byte0x9c
 6807 0c99 0000 0D05 	.long0xd05
 6808 0c9d 2B        	.uleb128 0x2b
 6809 0c9e 0000 0000 	.long.LASF181
 6810 0ca2 01        	.byte0x1
 6811 0ca3 0451      	.word0x451
 6812 0ca5 0000 0D05 	.long0xd05
 6813 0ca9 02        	.uleb128 0x2
 6814 0caa 91        	.byte0x91
 6815 0cab 00        	.sleb128 0
 6816 0cac 28        	.uleb128 0x28
 6817 0cad 0000 0000 	.long.LASF182
 6818 0cb1 01        	.byte0x1
 6819 0cb2 045A      	.word0x45a
 6820 0cb4 0000 005B 	.long0x5b
 6821 0cb8 02        	.uleb128 0x2
 6822 0cb9 91        	.byte0x91
 6823 0cba 6C        	.sleb128 -20
 6824 0cbb 28        	.uleb128 0x28
 6825 0cbc 0000 0000 	.long.LASF183
 6826 0cc0 01        	.byte0x1
 6827 0cc1 045B      	.word0x45b
 6828 0cc3 0000 0091 	.long0x91
 6829 0cc7 02        	.uleb128 0x2
 6830 0cc8 91        	.byte0x91
 6831 0cc9 74        	.sleb128 -12
 6832 0cca 28        	.uleb128 0x28
 6833 0ccb 0000 0000 	.long.LASF184
 6834 0ccf 01        	.byte0x1
 6835 0cd0 045C      	.word0x45c
 6836 0cd2 0000 0091 	.long0x91
 6837 0cd6 02        	.uleb128 0x2
 6838 0cd7 91        	.byte0x91
 6839 0cd8 70        	.sleb128 -16
 6840 0cd9 29        	.uleb128 0x29
 6841 0cda 6E00      	.string"n"
 6842 0cdc 01        	.byte0x1
 6843 0cdd 045D      	.word0x45d
 6844 0cdf 0000 005B 	.long0x5b
 6845 0ce3 02        	.uleb128 0x2
 6846 0ce4 91        	.byte0x91
 6847 0ce5 78        	.sleb128 -8
 6848 0ce6 29        	.uleb128 0x29
 6849 0ce7 6275 6600 	.string"buf"
 6850 0ceb 01        	.byte0x1
 6851 0cec 045E      	.word0x45e
 6852 0cee 0000 0D0B 	.long0xd0b
 6853 0cf2 02        	.uleb128 0x2
 6854 0cf3 91        	.byte0x91
 6855 0cf4 58        	.sleb128 -40
 6856 0cf5 29        	.uleb128 0x29
 6857 0cf6 7265 7300 	.string"res"
 6858 0cfa 01        	.byte0x1
 6859 0cfb 045F      	.word0x45f
 6860 0cfd 0000 005B 	.long0x5b
 6861 0d01 02        	.uleb128 0x2
 6862 0d02 91        	.byte0x91
68K GAS   			page 150


 6863 0d03 68        	.sleb128 -24
 6864 0d04 00        	.byte0
 6865 0d05 0B        	.uleb128 0xb
 6866 0d06 04        	.byte0x4
 6867 0d07 0000 0BD1 	.long0xbd1
 6868 0d0b 0E        	.uleb128 0xe
 6869 0d0c 0000 0074 	.long0x74
 6870 0d10 0000 0D1B 	.long0xd1b
 6871 0d14 0F        	.uleb128 0xf
 6872 0d15 0000 009C 	.long0x9c
 6873 0d19 0F        	.byte0xf
 6874 0d1a 00        	.byte0
 6875 0d1b 2A        	.uleb128 0x2a
 6876 0d1c 0000 0000 	.long.LASF185
 6877 0d20 01        	.byte0x1
 6878 0d21 0419      	.word0x419
 6879 0d23 0000 005B 	.long0x5b
 6880 0d27 0000 0000 	.long.LFB71
 6881 0d2b 0000 0290 	.long.LFE71-.LFB71
 6882 0d2f 01        	.uleb128 0x1
 6883 0d30 9C        	.byte0x9c
 6884 0d31 0000 0D77 	.long0xd77
 6885 0d35 2B        	.uleb128 0x2b
 6886 0d36 0000 0000 	.long.LASF181
 6887 0d3a 01        	.byte0x1
 6888 0d3b 0419      	.word0x419
 6889 0d3d 0000 0D05 	.long0xd05
 6890 0d41 02        	.uleb128 0x2
 6891 0d42 91        	.byte0x91
 6892 0d43 00        	.sleb128 0
 6893 0d44 29        	.uleb128 0x29
 6894 0d45 6E00      	.string"n"
 6895 0d47 01        	.byte0x1
 6896 0d48 041C      	.word0x41c
 6897 0d4a 0000 0091 	.long0x91
 6898 0d4e 02        	.uleb128 0x2
 6899 0d4f 91        	.byte0x91
 6900 0d50 78        	.sleb128 -8
 6901 0d51 29        	.uleb128 0x29
 6902 0d52 7700      	.string"w"
 6903 0d54 01        	.byte0x1
 6904 0d55 041D      	.word0x41d
 6905 0d57 0000 0091 	.long0x91
 6906 0d5b 02        	.uleb128 0x2
 6907 0d5c 91        	.byte0x91
 6908 0d5d 74        	.sleb128 -12
 6909 0d5e 29        	.uleb128 0x29
 6910 0d5f 6200      	.string"b"
 6911 0d61 01        	.byte0x1
 6912 0d62 041E      	.word0x41e
 6913 0d64 0000 0091 	.long0x91
 6914 0d68 01        	.uleb128 0x1
 6915 0d69 53        	.byte0x53
 6916 0d6a 29        	.uleb128 0x29
 6917 0d6b 6B00      	.string"k"
 6918 0d6d 01        	.byte0x1
 6919 0d6e 041F      	.word0x41f
68K GAS   			page 151


 6920 0d70 0000 007F 	.long0x7f
 6921 0d74 01        	.uleb128 0x1
 6922 0d75 52        	.byte0x52
 6923 0d76 00        	.byte0
 6924 0d77 2A        	.uleb128 0x2a
 6925 0d78 0000 0000 	.long.LASF186
 6926 0d7c 01        	.byte0x1
 6927 0d7d 03D6      	.word0x3d6
 6928 0d7f 0000 005B 	.long0x5b
 6929 0d83 0000 0000 	.long.LFB70
 6930 0d87 0000 01F0 	.long.LFE70-.LFB70
 6931 0d8b 01        	.uleb128 0x1
 6932 0d8c 9C        	.byte0x9c
 6933 0d8d 0000 0E4B 	.long0xe4b
 6934 0d91 2B        	.uleb128 0x2b
 6935 0d92 0000 0000 	.long.LASF181
 6936 0d96 01        	.byte0x1
 6937 0d97 03D6      	.word0x3d6
 6938 0d99 0000 0D05 	.long0xd05
 6939 0d9d 02        	.uleb128 0x2
 6940 0d9e 91        	.byte0x91
 6941 0d9f 00        	.sleb128 0
 6942 0da0 28        	.uleb128 0x28
 6943 0da1 0000 0000 	.long.LASF187
 6944 0da5 01        	.byte0x1
 6945 0da6 03D9      	.word0x3d9
 6946 0da8 0000 0E4B 	.long0xe4b
 6947 0dac 05        	.uleb128 0x5
 6948 0dad 03        	.byte0x3
 6949 0dae 0000 0000 	.longcplens.5864
 6950 0db2 28        	.uleb128 0x28
 6951 0db3 0000 0000 	.long.LASF188
 6952 0db7 01        	.byte0x1
 6953 0db8 03DF      	.word0x3df
 6954 0dba 0000 0E4B 	.long0xe4b
 6955 0dbe 05        	.uleb128 0x5
 6956 0dbf 03        	.byte0x3
 6957 0dc0 0000 0000 	.longcplext.5865
 6958 0dc4 28        	.uleb128 0x28
 6959 0dc5 0000 0000 	.long.LASF189
 6960 0dc9 01        	.byte0x1
 6961 0dca 03E5      	.word0x3e5
 6962 0dcc 0000 0E5B 	.long0xe5b
 6963 0dd0 05        	.uleb128 0x5
 6964 0dd1 03        	.byte0x3
 6965 0dd2 0000 0000 	.longcpdist.5866
 6966 0dd6 28        	.uleb128 0x28
 6967 0dd7 0000 0000 	.long.LASF190
 6968 0ddb 01        	.byte0x1
 6969 0ddc 03EC      	.word0x3ec
 6970 0dde 0000 0E5B 	.long0xe5b
 6971 0de2 05        	.uleb128 0x5
 6972 0de3 03        	.byte0x3
 6973 0de4 0000 0000 	.longcpdext.5867
 6974 0de8 29        	.uleb128 0x29
 6975 0de9 6900      	.string"i"
 6976 0deb 01        	.byte0x1
68K GAS   			page 152


 6977 0dec 03F1      	.word0x3f1
 6978 0dee 0000 005B 	.long0x5b
 6979 0df2 02        	.uleb128 0x2
 6980 0df3 91        	.byte0x91
 6981 0df4 78        	.sleb128 -8
 6982 0df5 29        	.uleb128 0x29
 6983 0df6 746C 00   	.string"tl"
 6984 0df9 01        	.byte0x1
 6985 0dfa 03F2      	.word0x3f2
 6986 0dfc 0000 0E6B 	.long0xe6b
 6987 0e00 02        	.uleb128 0x2
 6988 0e01 91        	.byte0x91
 6989 0e02 74        	.sleb128 -12
 6990 0e03 29        	.uleb128 0x29
 6991 0e04 7464 00   	.string"td"
 6992 0e07 01        	.byte0x1
 6993 0e08 03F3      	.word0x3f3
 6994 0e0a 0000 0E6B 	.long0xe6b
 6995 0e0e 02        	.uleb128 0x2
 6996 0e0f 91        	.byte0x91
 6997 0e10 6C        	.sleb128 -20
 6998 0e11 29        	.uleb128 0x29
 6999 0e12 626C 00   	.string"bl"
 7000 0e15 01        	.byte0x1
 7001 0e16 03F4      	.word0x3f4
 7002 0e18 0000 005B 	.long0x5b
 7003 0e1c 02        	.uleb128 0x2
 7004 0e1d 91        	.byte0x91
 7005 0e1e 68        	.sleb128 -24
 7006 0e1f 29        	.uleb128 0x29
 7007 0e20 6264 00   	.string"bd"
 7008 0e23 01        	.byte0x1
 7009 0e24 03F5      	.word0x3f5
 7010 0e26 0000 005B 	.long0x5b
 7011 0e2a 02        	.uleb128 0x2
 7012 0e2b 91        	.byte0x91
 7013 0e2c 64        	.sleb128 -28
 7014 0e2d 29        	.uleb128 0x29
 7015 0e2e 6C00      	.string"l"
 7016 0e30 01        	.byte0x1
 7017 0e31 03F6      	.word0x3f6
 7018 0e33 0000 0E71 	.long0xe71
 7019 0e37 03        	.uleb128 0x3
 7020 0e38 91        	.byte0x91
 7021 0e39 E476      	.sleb128 -1180
 7022 0e3b 28        	.uleb128 0x28
 7023 0e3c 0000 0000 	.long.LASF191
 7024 0e40 01        	.byte0x1
 7025 0e41 03F8      	.word0x3f8
 7026 0e43 0000 005B 	.long0x5b
 7027 0e47 02        	.uleb128 0x2
 7028 0e48 91        	.byte0x91
 7029 0e49 70        	.sleb128 -16
 7030 0e4a 00        	.byte0
 7031 0e4b 0E        	.uleb128 0xe
 7032 0e4c 0000 007F 	.long0x7f
 7033 0e50 0000 0E5B 	.long0xe5b
68K GAS   			page 153


 7034 0e54 0F        	.uleb128 0xf
 7035 0e55 0000 009C 	.long0x9c
 7036 0e59 1E        	.byte0x1e
 7037 0e5a 00        	.byte0
 7038 0e5b 0E        	.uleb128 0xe
 7039 0e5c 0000 007F 	.long0x7f
 7040 0e60 0000 0E6B 	.long0xe6b
 7041 0e64 0F        	.uleb128 0xf
 7042 0e65 0000 009C 	.long0x9c
 7043 0e69 1D        	.byte0x1d
 7044 0e6a 00        	.byte0
 7045 0e6b 0B        	.uleb128 0xb
 7046 0e6c 04        	.byte0x4
 7047 0e6d 0000 0AAD 	.long0xaad
 7048 0e71 0E        	.uleb128 0xe
 7049 0e72 0000 0091 	.long0x91
 7050 0e76 0000 0E82 	.long0xe82
 7051 0e7a 23        	.uleb128 0x23
 7052 0e7b 0000 009C 	.long0x9c
 7053 0e7f 011F      	.word0x11f
 7054 0e81 00        	.byte0
 7055 0e82 2A        	.uleb128 0x2a
 7056 0e83 0000 0000 	.long.LASF192
 7057 0e87 01        	.byte0x1
 7058 0e88 032F      	.word0x32f
 7059 0e8a 0000 005B 	.long0x5b
 7060 0e8e 0000 0000 	.long.LFB69
 7061 0e92 0000 0896 	.long.LFE69-.LFB69
 7062 0e96 01        	.uleb128 0x1
 7063 0e97 9C        	.byte0x9c
 7064 0e98 0000 1017 	.long0x1017
 7065 0e9c 2B        	.uleb128 0x2b
 7066 0e9d 0000 0000 	.long.LASF181
 7067 0ea1 01        	.byte0x1
 7068 0ea2 032F      	.word0x32f
 7069 0ea4 0000 0D05 	.long0xd05
 7070 0ea8 02        	.uleb128 0x2
 7071 0ea9 91        	.byte0x91
 7072 0eaa 00        	.sleb128 0
 7073 0eab 28        	.uleb128 0x28
 7074 0eac 0000 0000 	.long.LASF193
 7075 0eb0 01        	.byte0x1
 7076 0eb1 0332      	.word0x332
 7077 0eb3 0000 005B 	.long0x5b
 7078 0eb7 05        	.uleb128 0x5
 7079 0eb8 03        	.byte0x3
 7080 0eb9 0000 0000 	.longlbits.5795
 7081 0ebd 28        	.uleb128 0x28
 7082 0ebe 0000 0000 	.long.LASF194
 7083 0ec2 01        	.byte0x1
 7084 0ec3 0333      	.word0x333
 7085 0ec5 0000 005B 	.long0x5b
 7086 0ec9 05        	.uleb128 0x5
 7087 0eca 03        	.byte0x3
 7088 0ecb 0000 0000 	.longdbits.5796
 7089 0ecf 28        	.uleb128 0x28
 7090 0ed0 0000 0000 	.long.LASF195
68K GAS   			page 154


 7091 0ed4 01        	.byte0x1
 7092 0ed5 0336      	.word0x336
 7093 0ed7 0000 1017 	.long0x1017
 7094 0edb 05        	.uleb128 0x5
 7095 0edc 03        	.byte0x3
 7096 0edd 0000 0000 	.longborder.5797
 7097 0ee1 28        	.uleb128 0x28
 7098 0ee2 0000 0000 	.long.LASF187
 7099 0ee6 01        	.byte0x1
 7100 0ee7 033B      	.word0x33b
 7101 0ee9 0000 0E4B 	.long0xe4b
 7102 0eed 05        	.uleb128 0x5
 7103 0eee 03        	.byte0x3
 7104 0eef 0000 0000 	.longcplens.5798
 7105 0ef3 28        	.uleb128 0x28
 7106 0ef4 0000 0000 	.long.LASF188
 7107 0ef8 01        	.byte0x1
 7108 0ef9 0341      	.word0x341
 7109 0efb 0000 0E4B 	.long0xe4b
 7110 0eff 05        	.uleb128 0x5
 7111 0f00 03        	.byte0x3
 7112 0f01 0000 0000 	.longcplext.5799
 7113 0f05 28        	.uleb128 0x28
 7114 0f06 0000 0000 	.long.LASF189
 7115 0f0a 01        	.byte0x1
 7116 0f0b 0347      	.word0x347
 7117 0f0d 0000 0E5B 	.long0xe5b
 7118 0f11 05        	.uleb128 0x5
 7119 0f12 03        	.byte0x3
 7120 0f13 0000 0000 	.longcpdist.5800
 7121 0f17 28        	.uleb128 0x28
 7122 0f18 0000 0000 	.long.LASF190
 7123 0f1c 01        	.byte0x1
 7124 0f1d 034E      	.word0x34e
 7125 0f1f 0000 0E5B 	.long0xe5b
 7126 0f23 05        	.uleb128 0x5
 7127 0f24 03        	.byte0x3
 7128 0f25 0000 0000 	.longcpdext.5801
 7129 0f29 28        	.uleb128 0x28
 7130 0f2a 0000 0000 	.long.LASF196
 7131 0f2e 01        	.byte0x1
 7132 0f2f 0353      	.word0x353
 7133 0f31 0000 1027 	.long0x1027
 7134 0f35 05        	.uleb128 0x5
 7135 0f36 03        	.byte0x3
 7136 0f37 0000 0000 	.longmask_bits.5802
 7137 0f3b 29        	.uleb128 0x29
 7138 0f3c 6900      	.string"i"
 7139 0f3e 01        	.byte0x1
 7140 0f3f 035A      	.word0x35a
 7141 0f41 0000 005B 	.long0x5b
 7142 0f45 02        	.uleb128 0x2
 7143 0f46 91        	.byte0x91
 7144 0f47 78        	.sleb128 -8
 7145 0f48 29        	.uleb128 0x29
 7146 0f49 6A00      	.string"j"
 7147 0f4b 01        	.byte0x1
68K GAS   			page 155


 7148 0f4c 035B      	.word0x35b
 7149 0f4e 0000 0091 	.long0x91
 7150 0f52 02        	.uleb128 0x2
 7151 0f53 91        	.byte0x91
 7152 0f54 74        	.sleb128 -12
 7153 0f55 29        	.uleb128 0x29
 7154 0f56 6C00      	.string"l"
 7155 0f58 01        	.byte0x1
 7156 0f59 035C      	.word0x35c
 7157 0f5b 0000 0091 	.long0x91
 7158 0f5f 02        	.uleb128 0x2
 7159 0f60 91        	.byte0x91
 7160 0f61 70        	.sleb128 -16
 7161 0f62 29        	.uleb128 0x29
 7162 0f63 6D00      	.string"m"
 7163 0f65 01        	.byte0x1
 7164 0f66 035D      	.word0x35d
 7165 0f68 0000 0091 	.long0x91
 7166 0f6c 02        	.uleb128 0x2
 7167 0f6d 91        	.byte0x91
 7168 0f6e 4C        	.sleb128 -52
 7169 0f6f 29        	.uleb128 0x29
 7170 0f70 6E00      	.string"n"
 7171 0f72 01        	.byte0x1
 7172 0f73 035E      	.word0x35e
 7173 0f75 0000 0091 	.long0x91
 7174 0f79 02        	.uleb128 0x2
 7175 0f7a 91        	.byte0x91
 7176 0f7b 50        	.sleb128 -48
 7177 0f7c 29        	.uleb128 0x29
 7178 0f7d 746C 00   	.string"tl"
 7179 0f80 01        	.byte0x1
 7180 0f81 035F      	.word0x35f
 7181 0f83 0000 0E6B 	.long0xe6b
 7182 0f87 02        	.uleb128 0x2
 7183 0f88 91        	.byte0x91
 7184 0f89 58        	.sleb128 -40
 7185 0f8a 29        	.uleb128 0x29
 7186 0f8b 7464 00   	.string"td"
 7187 0f8e 01        	.byte0x1
 7188 0f8f 0360      	.word0x360
 7189 0f91 0000 0E6B 	.long0xe6b
 7190 0f95 02        	.uleb128 0x2
 7191 0f96 91        	.byte0x91
 7192 0f97 48        	.sleb128 -56
 7193 0f98 29        	.uleb128 0x29
 7194 0f99 626C 00   	.string"bl"
 7195 0f9c 01        	.byte0x1
 7196 0f9d 0361      	.word0x361
 7197 0f9f 0000 005B 	.long0x5b
 7198 0fa3 02        	.uleb128 0x2
 7199 0fa4 91        	.byte0x91
 7200 0fa5 44        	.sleb128 -60
 7201 0fa6 29        	.uleb128 0x29
 7202 0fa7 6264 00   	.string"bd"
 7203 0faa 01        	.byte0x1
 7204 0fab 0362      	.word0x362
68K GAS   			page 156


 7205 0fad 0000 005B 	.long0x5b
 7206 0fb1 02        	.uleb128 0x2
 7207 0fb2 91        	.byte0x91
 7208 0fb3 40        	.sleb128 -64
 7209 0fb4 29        	.uleb128 0x29
 7210 0fb5 6E62 00   	.string"nb"
 7211 0fb8 01        	.byte0x1
 7212 0fb9 0363      	.word0x363
 7213 0fbb 0000 0091 	.long0x91
 7214 0fbf 02        	.uleb128 0x2
 7215 0fc0 91        	.byte0x91
 7216 0fc1 5C        	.sleb128 -36
 7217 0fc2 29        	.uleb128 0x29
 7218 0fc3 6E6C 00   	.string"nl"
 7219 0fc6 01        	.byte0x1
 7220 0fc7 0364      	.word0x364
 7221 0fc9 0000 0091 	.long0x91
 7222 0fcd 02        	.uleb128 0x2
 7223 0fce 91        	.byte0x91
 7224 0fcf 64        	.sleb128 -28
 7225 0fd0 29        	.uleb128 0x29
 7226 0fd1 6E64 00   	.string"nd"
 7227 0fd4 01        	.byte0x1
 7228 0fd5 0365      	.word0x365
 7229 0fd7 0000 0091 	.long0x91
 7230 0fdb 02        	.uleb128 0x2
 7231 0fdc 91        	.byte0x91
 7232 0fdd 60        	.sleb128 -32
 7233 0fde 29        	.uleb128 0x29
 7234 0fdf 6C6C 00   	.string"ll"
 7235 0fe2 01        	.byte0x1
 7236 0fe3 0366      	.word0x366
 7237 0fe5 0000 1037 	.long0x1037
 7238 0fe9 03        	.uleb128 0x3
 7239 0fea 91        	.byte0x91
 7240 0feb D075      	.sleb128 -1328
 7241 0fed 29        	.uleb128 0x29
 7242 0fee 6200      	.string"b"
 7243 0ff0 01        	.byte0x1
 7244 0ff1 0368      	.word0x368
 7245 0ff3 0000 0091 	.long0x91
 7246 0ff7 02        	.uleb128 0x2
 7247 0ff8 91        	.byte0x91
 7248 0ff9 6C        	.sleb128 -20
 7249 0ffa 29        	.uleb128 0x29
 7250 0ffb 6B00      	.string"k"
 7251 0ffd 01        	.byte0x1
 7252 0ffe 0369      	.word0x369
 7253 1000 0000 0091 	.long0x91
 7254 1004 02        	.uleb128 0x2
 7255 1005 91        	.byte0x91
 7256 1006 68        	.sleb128 -24
 7257 1007 28        	.uleb128 0x28
 7258 1008 0000 0000 	.long.LASF191
 7259 100c 01        	.byte0x1
 7260 100d 036B      	.word0x36b
 7261 100f 0000 005B 	.long0x5b
68K GAS   			page 157


 7262 1013 02        	.uleb128 0x2
 7263 1014 91        	.byte0x91
 7264 1015 54        	.sleb128 -44
 7265 1016 00        	.byte0
 7266 1017 0E        	.uleb128 0xe
 7267 1018 0000 0091 	.long0x91
 7268 101c 0000 1027 	.long0x1027
 7269 1020 0F        	.uleb128 0xf
 7270 1021 0000 009C 	.long0x9c
 7271 1025 12        	.byte0x12
 7272 1026 00        	.byte0
 7273 1027 0E        	.uleb128 0xe
 7274 1028 0000 007F 	.long0x7f
 7275 102c 0000 1037 	.long0x1037
 7276 1030 0F        	.uleb128 0xf
 7277 1031 0000 009C 	.long0x9c
 7278 1035 10        	.byte0x10
 7279 1036 00        	.byte0
 7280 1037 0E        	.uleb128 0xe
 7281 1038 0000 0091 	.long0x91
 7282 103c 0000 1048 	.long0x1048
 7283 1040 23        	.uleb128 0x23
 7284 1041 0000 009C 	.long0x9c
 7285 1045 013B      	.word0x13b
 7286 1047 00        	.byte0
 7287 1048 2A        	.uleb128 0x2a
 7288 1049 0000 0000 	.long.LASF197
 7289 104d 01        	.byte0x1
 7290 104e 0293      	.word0x293
 7291 1050 0000 005B 	.long0x5b
 7292 1054 0000 0000 	.long.LFB68
 7293 1058 0000 07FC 	.long.LFE68-.LFB68
 7294 105c 01        	.uleb128 0x1
 7295 105d 9C        	.byte0x9c
 7296 105e 0000 1142 	.long0x1142
 7297 1062 2B        	.uleb128 0x2b
 7298 1063 0000 0000 	.long.LASF181
 7299 1067 01        	.byte0x1
 7300 1068 0293      	.word0x293
 7301 106a 0000 0D05 	.long0xd05
 7302 106e 02        	.uleb128 0x2
 7303 106f 91        	.byte0x91
 7304 1070 00        	.sleb128 0
 7305 1071 27        	.uleb128 0x27
 7306 1072 746C 00   	.string"tl"
 7307 1075 01        	.byte0x1
 7308 1076 0293      	.word0x293
 7309 1078 0000 0E6B 	.long0xe6b
 7310 107c 02        	.uleb128 0x2
 7311 107d 91        	.byte0x91
 7312 107e 04        	.sleb128 4
 7313 107f 27        	.uleb128 0x27
 7314 1080 7464 00   	.string"td"
 7315 1083 01        	.byte0x1
 7316 1084 0293      	.word0x293
 7317 1086 0000 0E6B 	.long0xe6b
 7318 108a 02        	.uleb128 0x2
68K GAS   			page 158


 7319 108b 91        	.byte0x91
 7320 108c 08        	.sleb128 8
 7321 108d 27        	.uleb128 0x27
 7322 108e 626C 00   	.string"bl"
 7323 1091 01        	.byte0x1
 7324 1092 0293      	.word0x293
 7325 1094 0000 005B 	.long0x5b
 7326 1098 02        	.uleb128 0x2
 7327 1099 91        	.byte0x91
 7328 109a 0C        	.sleb128 12
 7329 109b 27        	.uleb128 0x27
 7330 109c 6264 00   	.string"bd"
 7331 109f 01        	.byte0x1
 7332 10a0 0293      	.word0x293
 7333 10a2 0000 005B 	.long0x5b
 7334 10a6 02        	.uleb128 0x2
 7335 10a7 91        	.byte0x91
 7336 10a8 10        	.sleb128 16
 7337 10a9 28        	.uleb128 0x28
 7338 10aa 0000 0000 	.long.LASF196
 7339 10ae 01        	.byte0x1
 7340 10af 0296      	.word0x296
 7341 10b1 0000 1027 	.long0x1027
 7342 10b5 05        	.uleb128 0x5
 7343 10b6 03        	.byte0x3
 7344 10b7 0000 0000 	.longmask_bits.5753
 7345 10bb 29        	.uleb128 0x29
 7346 10bc 6500      	.string"e"
 7347 10be 01        	.byte0x1
 7348 10bf 029D      	.word0x29d
 7349 10c1 0000 0091 	.long0x91
 7350 10c5 02        	.uleb128 0x2
 7351 10c6 91        	.byte0x91
 7352 10c7 78        	.sleb128 -8
 7353 10c8 29        	.uleb128 0x29
 7354 10c9 6E00      	.string"n"
 7355 10cb 01        	.byte0x1
 7356 10cc 029E      	.word0x29e
 7357 10ce 0000 0091 	.long0x91
 7358 10d2 02        	.uleb128 0x2
 7359 10d3 91        	.byte0x91
 7360 10d4 74        	.sleb128 -12
 7361 10d5 29        	.uleb128 0x29
 7362 10d6 6400      	.string"d"
 7363 10d8 01        	.byte0x1
 7364 10d9 029E      	.word0x29e
 7365 10db 0000 0091 	.long0x91
 7366 10df 02        	.uleb128 0x2
 7367 10e0 91        	.byte0x91
 7368 10e1 70        	.sleb128 -16
 7369 10e2 29        	.uleb128 0x29
 7370 10e3 7700      	.string"w"
 7371 10e5 01        	.byte0x1
 7372 10e6 029F      	.word0x29f
 7373 10e8 0000 0091 	.long0x91
 7374 10ec 02        	.uleb128 0x2
 7375 10ed 91        	.byte0x91
68K GAS   			page 159


 7376 10ee 6C        	.sleb128 -20
 7377 10ef 29        	.uleb128 0x29
 7378 10f0 7400      	.string"t"
 7379 10f2 01        	.byte0x1
 7380 10f3 02A0      	.word0x2a0
 7381 10f5 0000 0E6B 	.long0xe6b
 7382 10f9 02        	.uleb128 0x2
 7383 10fa 91        	.byte0x91
 7384 10fb 68        	.sleb128 -24
 7385 10fc 29        	.uleb128 0x29
 7386 10fd 6D6C 00   	.string"ml"
 7387 1100 01        	.byte0x1
 7388 1101 02A1      	.word0x2a1
 7389 1103 0000 0091 	.long0x91
 7390 1107 02        	.uleb128 0x2
 7391 1108 91        	.byte0x91
 7392 1109 5C        	.sleb128 -36
 7393 110a 29        	.uleb128 0x29
 7394 110b 6D64 00   	.string"md"
 7395 110e 01        	.byte0x1
 7396 110f 02A1      	.word0x2a1
 7397 1111 0000 0091 	.long0x91
 7398 1115 02        	.uleb128 0x2
 7399 1116 91        	.byte0x91
 7400 1117 58        	.sleb128 -40
 7401 1118 29        	.uleb128 0x29
 7402 1119 6200      	.string"b"
 7403 111b 01        	.byte0x1
 7404 111c 02A2      	.word0x2a2
 7405 111e 0000 0091 	.long0x91
 7406 1122 02        	.uleb128 0x2
 7407 1123 91        	.byte0x91
 7408 1124 64        	.sleb128 -28
 7409 1125 29        	.uleb128 0x29
 7410 1126 6B00      	.string"k"
 7411 1128 01        	.byte0x1
 7412 1129 02A3      	.word0x2a3
 7413 112b 0000 0091 	.long0x91
 7414 112f 02        	.uleb128 0x2
 7415 1130 91        	.byte0x91
 7416 1131 60        	.sleb128 -32
 7417 1132 28        	.uleb128 0x28
 7418 1133 0000 0000 	.long.LASF198
 7419 1137 01        	.byte0x1
 7420 1138 02A5      	.word0x2a5
 7421 113a 0000 0091 	.long0x91
 7422 113e 02        	.uleb128 0x2
 7423 113f 91        	.byte0x91
 7424 1140 54        	.sleb128 -44
 7425 1141 00        	.byte0
 7426 1142 2A        	.uleb128 0x2a
 7427 1143 0000 0000 	.long.LASF199
 7428 1147 01        	.byte0x1
 7429 1148 0268      	.word0x268
 7430 114a 0000 005B 	.long0x5b
 7431 114e 0000 0000 	.long.LFB67
 7432 1152 0000 01E0 	.long.LFE67-.LFB67
68K GAS   			page 160


 7433 1156 01        	.uleb128 0x1
 7434 1157 9C        	.byte0x9c
 7435 1158 0000 11AF 	.long0x11af
 7436 115c 2B        	.uleb128 0x2b
 7437 115d 0000 0000 	.long.LASF181
 7438 1161 01        	.byte0x1
 7439 1162 0268      	.word0x268
 7440 1164 0000 0D05 	.long0xd05
 7441 1168 02        	.uleb128 0x2
 7442 1169 91        	.byte0x91
 7443 116a 00        	.sleb128 0
 7444 116b 27        	.uleb128 0x27
 7445 116c 6500      	.string"e"
 7446 116e 01        	.byte0x1
 7447 116f 0268      	.word0x268
 7448 1171 0000 11AF 	.long0x11af
 7449 1175 02        	.uleb128 0x2
 7450 1176 91        	.byte0x91
 7451 1177 04        	.sleb128 4
 7452 1178 29        	.uleb128 0x29
 7453 1179 7400      	.string"t"
 7454 117b 01        	.byte0x1
 7455 117c 026B      	.word0x26b
 7456 117e 0000 0091 	.long0x91
 7457 1182 02        	.uleb128 0x2
 7458 1183 91        	.byte0x91
 7459 1184 6C        	.sleb128 -20
 7460 1185 29        	.uleb128 0x29
 7461 1186 6200      	.string"b"
 7462 1188 01        	.byte0x1
 7463 1189 026C      	.word0x26c
 7464 118b 0000 0091 	.long0x91
 7465 118f 02        	.uleb128 0x2
 7466 1190 91        	.byte0x91
 7467 1191 78        	.sleb128 -8
 7468 1192 29        	.uleb128 0x29
 7469 1193 6B00      	.string"k"
 7470 1195 01        	.byte0x1
 7471 1196 026D      	.word0x26d
 7472 1198 0000 0091 	.long0x91
 7473 119c 02        	.uleb128 0x2
 7474 119d 91        	.byte0x91
 7475 119e 74        	.sleb128 -12
 7476 119f 29        	.uleb128 0x29
 7477 11a0 7265 7300 	.string"res"
 7478 11a4 01        	.byte0x1
 7479 11a5 026F      	.word0x26f
 7480 11a7 0000 005B 	.long0x5b
 7481 11ab 02        	.uleb128 0x2
 7482 11ac 91        	.byte0x91
 7483 11ad 70        	.sleb128 -16
 7484 11ae 00        	.byte0
 7485 11af 0B        	.uleb128 0xb
 7486 11b0 04        	.byte0x4
 7487 11b1 0000 005B 	.long0x5b
 7488 11b5 2A        	.uleb128 0x2a
 7489 11b6 0000 0000 	.long.LASF200
68K GAS   			page 161


 7490 11ba 01        	.byte0x1
 7491 11bb 0244      	.word0x244
 7492 11bd 0000 005B 	.long0x5b
 7493 11c1 0000 0000 	.long.LFB66
 7494 11c5 0000 0086 	.long.LFE66-.LFB66
 7495 11c9 01        	.uleb128 0x1
 7496 11ca 9C        	.byte0x9c
 7497 11cb 0000 11F9 	.long0x11f9
 7498 11cf 2B        	.uleb128 0x2b
 7499 11d0 0000 0000 	.long.LASF181
 7500 11d4 01        	.byte0x1
 7501 11d5 0244      	.word0x244
 7502 11d7 0000 0D05 	.long0xd05
 7503 11db 02        	.uleb128 0x2
 7504 11dc 91        	.byte0x91
 7505 11dd 00        	.sleb128 0
 7506 11de 29        	.uleb128 0x29
 7507 11df 6500      	.string"e"
 7508 11e1 01        	.byte0x1
 7509 11e2 0247      	.word0x247
 7510 11e4 0000 005B 	.long0x5b
 7511 11e8 02        	.uleb128 0x2
 7512 11e9 91        	.byte0x91
 7513 11ea 74        	.sleb128 -12
 7514 11eb 29        	.uleb128 0x29
 7515 11ec 7200      	.string"r"
 7516 11ee 01        	.byte0x1
 7517 11ef 0248      	.word0x248
 7518 11f1 0000 005B 	.long0x5b
 7519 11f5 02        	.uleb128 0x2
 7520 11f6 91        	.byte0x91
 7521 11f7 78        	.sleb128 -8
 7522 11f8 00        	.byte0
 7523 11f9 2A        	.uleb128 0x2a
 7524 11fa 0000 0000 	.long.LASF201
 7525 11fe 01        	.byte0x1
 7526 11ff 0173      	.word0x173
 7527 1201 0000 005B 	.long0x5b
 7528 1205 0000 0000 	.long.LFB65
 7529 1209 0000 05D4 	.long.LFE65-.LFB65
 7530 120d 01        	.uleb128 0x1
 7531 120e 9C        	.byte0x9c
 7532 120f 0000 13A3 	.long0x13a3
 7533 1213 2B        	.uleb128 0x2b
 7534 1214 0000 0000 	.long.LASF181
 7535 1218 01        	.byte0x1
 7536 1219 0173      	.word0x173
 7537 121b 0000 0D05 	.long0xd05
 7538 121f 02        	.uleb128 0x2
 7539 1220 91        	.byte0x91
 7540 1221 00        	.sleb128 0
 7541 1222 27        	.uleb128 0x27
 7542 1223 6200      	.string"b"
 7543 1225 01        	.byte0x1
 7544 1226 0173      	.word0x173
 7545 1228 0000 13A3 	.long0x13a3
 7546 122c 02        	.uleb128 0x2
68K GAS   			page 162


 7547 122d 91        	.byte0x91
 7548 122e 04        	.sleb128 4
 7549 122f 27        	.uleb128 0x27
 7550 1230 6E00      	.string"n"
 7551 1232 01        	.byte0x1
 7552 1233 0173      	.word0x173
 7553 1235 0000 0091 	.long0x91
 7554 1239 02        	.uleb128 0x2
 7555 123a 91        	.byte0x91
 7556 123b 08        	.sleb128 8
 7557 123c 27        	.uleb128 0x27
 7558 123d 7300      	.string"s"
 7559 123f 01        	.byte0x1
 7560 1240 0173      	.word0x173
 7561 1242 0000 0091 	.long0x91
 7562 1246 02        	.uleb128 0x2
 7563 1247 91        	.byte0x91
 7564 1248 0C        	.sleb128 12
 7565 1249 27        	.uleb128 0x27
 7566 124a 6400      	.string"d"
 7567 124c 01        	.byte0x1
 7568 124d 0173      	.word0x173
 7569 124f 0000 13A9 	.long0x13a9
 7570 1253 02        	.uleb128 0x2
 7571 1254 91        	.byte0x91
 7572 1255 10        	.sleb128 16
 7573 1256 27        	.uleb128 0x27
 7574 1257 6500      	.string"e"
 7575 1259 01        	.byte0x1
 7576 125a 0173      	.word0x173
 7577 125c 0000 13A9 	.long0x13a9
 7578 1260 02        	.uleb128 0x2
 7579 1261 91        	.byte0x91
 7580 1262 14        	.sleb128 20
 7581 1263 27        	.uleb128 0x27
 7582 1264 6D00      	.string"m"
 7583 1266 01        	.byte0x1
 7584 1267 0173      	.word0x173
 7585 1269 0000 11AF 	.long0x11af
 7586 126d 02        	.uleb128 0x2
 7587 126e 91        	.byte0x91
 7588 126f 18        	.sleb128 24
 7589 1270 29        	.uleb128 0x29
 7590 1271 6100      	.string"a"
 7591 1273 01        	.byte0x1
 7592 1274 0176      	.word0x176
 7593 1276 0000 0091 	.long0x91
 7594 127a 02        	.uleb128 0x2
 7595 127b 91        	.byte0x91
 7596 127c 78        	.sleb128 -8
 7597 127d 29        	.uleb128 0x29
 7598 127e 6300      	.string"c"
 7599 1280 01        	.byte0x1
 7600 1281 0177      	.word0x177
 7601 1283 0000 13AF 	.long0x13af
 7602 1287 03        	.uleb128 0x3
 7603 1288 91        	.byte0x91
68K GAS   			page 163


 7604 1289 887F      	.sleb128 -120
 7605 128b 29        	.uleb128 0x29
 7606 128c 6600      	.string"f"
 7607 128e 01        	.byte0x1
 7608 128f 0178      	.word0x178
 7609 1291 0000 0091 	.long0x91
 7610 1295 02        	.uleb128 0x2
 7611 1296 91        	.byte0x91
 7612 1297 74        	.sleb128 -12
 7613 1298 29        	.uleb128 0x29
 7614 1299 6700      	.string"g"
 7615 129b 01        	.byte0x1
 7616 129c 0179      	.word0x179
 7617 129e 0000 005B 	.long0x5b
 7618 12a2 02        	.uleb128 0x2
 7619 12a3 91        	.byte0x91
 7620 12a4 50        	.sleb128 -48
 7621 12a5 29        	.uleb128 0x29
 7622 12a6 6800      	.string"h"
 7623 12a8 01        	.byte0x1
 7624 12a9 017A      	.word0x17a
 7625 12ab 0000 005B 	.long0x5b
 7626 12af 02        	.uleb128 0x2
 7627 12b0 91        	.byte0x91
 7628 12b1 70        	.sleb128 -16
 7629 12b2 29        	.uleb128 0x29
 7630 12b3 6900      	.string"i"
 7631 12b5 01        	.byte0x1
 7632 12b6 017B      	.word0x17b
 7633 12b8 0000 0091 	.long0x91
 7634 12bc 01        	.uleb128 0x1
 7635 12bd 53        	.byte0x53
 7636 12be 29        	.uleb128 0x29
 7637 12bf 6A00      	.string"j"
 7638 12c1 01        	.byte0x1
 7639 12c2 017C      	.word0x17c
 7640 12c4 0000 0091 	.long0x91
 7641 12c8 01        	.uleb128 0x1
 7642 12c9 52        	.byte0x52
 7643 12ca 29        	.uleb128 0x29
 7644 12cb 6B00      	.string"k"
 7645 12cd 01        	.byte0x1
 7646 12ce 017D      	.word0x17d
 7647 12d0 0000 005B 	.long0x5b
 7648 12d4 01        	.uleb128 0x1
 7649 12d5 55        	.byte0x55
 7650 12d6 29        	.uleb128 0x29
 7651 12d7 6C00      	.string"l"
 7652 12d9 01        	.byte0x1
 7653 12da 017E      	.word0x17e
 7654 12dc 0000 005B 	.long0x5b
 7655 12e0 02        	.uleb128 0x2
 7656 12e1 91        	.byte0x91
 7657 12e2 6C        	.sleb128 -20
 7658 12e3 29        	.uleb128 0x29
 7659 12e4 6C75 00   	.string"lu"
 7660 12e7 01        	.byte0x1
68K GAS   			page 164


 7661 12e8 017F      	.word0x17f
 7662 12ea 0000 0091 	.long0x91
 7663 12ee 02        	.uleb128 0x2
 7664 12ef 91        	.byte0x91
 7665 12f0 68        	.sleb128 -24
 7666 12f1 29        	.uleb128 0x29
 7667 12f2 7000      	.string"p"
 7668 12f4 01        	.byte0x1
 7669 12f5 0180      	.word0x180
 7670 12f7 0000 13A3 	.long0x13a3
 7671 12fb 01        	.uleb128 0x1
 7672 12fc 5A        	.byte0x5a
 7673 12fd 29        	.uleb128 0x29
 7674 12fe 7100      	.string"q"
 7675 1300 01        	.byte0x1
 7676 1301 0181      	.word0x181
 7677 1303 0000 0E6B 	.long0xe6b
 7678 1307 01        	.uleb128 0x1
 7679 1308 56        	.byte0x56
 7680 1309 29        	.uleb128 0x29
 7681 130a 7200      	.string"r"
 7682 130c 01        	.byte0x1
 7683 130d 0182      	.word0x182
 7684 130f 0000 0AAD 	.long0xaad
 7685 1313 03        	.uleb128 0x3
 7686 1314 91        	.byte0x91
 7687 1315 827F      	.sleb128 -126
 7688 1317 29        	.uleb128 0x29
 7689 1318 7500      	.string"u"
 7690 131a 01        	.byte0x1
 7691 131b 0183      	.word0x183
 7692 131d 0000 13BF 	.long0x13bf
 7693 1321 03        	.uleb128 0x3
 7694 1322 91        	.byte0x91
 7695 1323 C07E      	.sleb128 -192
 7696 1325 29        	.uleb128 0x29
 7697 1326 7600      	.string"v"
 7698 1328 01        	.byte0x1
 7699 1329 0184      	.word0x184
 7700 132b 0000 0E71 	.long0xe71
 7701 132f 03        	.uleb128 0x3
 7702 1330 91        	.byte0x91
 7703 1331 C075      	.sleb128 -1344
 7704 1333 29        	.uleb128 0x29
 7705 1334 7700      	.string"w"
 7706 1336 01        	.byte0x1
 7707 1337 0185      	.word0x185
 7708 1339 0000 005B 	.long0x5b
 7709 133d 01        	.uleb128 0x1
 7710 133e 54        	.byte0x54
 7711 133f 29        	.uleb128 0x29
 7712 1340 7800      	.string"x"
 7713 1342 01        	.byte0x1
 7714 1343 0186      	.word0x186
 7715 1345 0000 13AF 	.long0x13af
 7716 1349 03        	.uleb128 0x3
 7717 134a 91        	.byte0x91
68K GAS   			page 165


 7718 134b FC74      	.sleb128 -1412
 7719 134d 29        	.uleb128 0x29
 7720 134e 7870 00   	.string"xp"
 7721 1351 01        	.byte0x1
 7722 1352 0187      	.word0x187
 7723 1354 0000 13A3 	.long0x13a3
 7724 1358 02        	.uleb128 0x2
 7725 1359 91        	.byte0x91
 7726 135a 64        	.sleb128 -28
 7727 135b 29        	.uleb128 0x29
 7728 135c 7900      	.string"y"
 7729 135e 01        	.byte0x1
 7730 135f 0188      	.word0x188
 7731 1361 0000 005B 	.long0x5b
 7732 1365 02        	.uleb128 0x2
 7733 1366 91        	.byte0x91
 7734 1367 60        	.sleb128 -32
 7735 1368 29        	.uleb128 0x29
 7736 1369 7A00      	.string"z"
 7737 136b 01        	.byte0x1
 7738 136c 0189      	.word0x189
 7739 136e 0000 0091 	.long0x91
 7740 1372 02        	.uleb128 0x2
 7741 1373 91        	.byte0x91
 7742 1374 5C        	.sleb128 -36
 7743 1375 28        	.uleb128 0x28
 7744 1376 0000 0000 	.long.LASF202
 7745 137a 01        	.byte0x1
 7746 137b 018B      	.word0x18b
 7747 137d 0000 0091 	.long0x91
 7748 1381 02        	.uleb128 0x2
 7749 1382 91        	.byte0x91
 7750 1383 4C        	.sleb128 -52
 7751 1384 28        	.uleb128 0x28
 7752 1385 0000 0000 	.long.LASF203
 7753 1389 01        	.byte0x1
 7754 138a 018C      	.word0x18c
 7755 138c 0000 0091 	.long0x91
 7756 1390 02        	.uleb128 0x2
 7757 1391 91        	.byte0x91
 7758 1392 58        	.sleb128 -40
 7759 1393 28        	.uleb128 0x28
 7760 1394 0000 0000 	.long.LASF204
 7761 1398 01        	.byte0x1
 7762 1399 018D      	.word0x18d
 7763 139b 0000 00AA 	.long0xaa
 7764 139f 02        	.uleb128 0x2
 7765 13a0 91        	.byte0x91
 7766 13a1 57        	.sleb128 -41
 7767 13a2 00        	.byte0
 7768 13a3 0B        	.uleb128 0xb
 7769 13a4 04        	.byte0x4
 7770 13a5 0000 0091 	.long0x91
 7771 13a9 0B        	.uleb128 0xb
 7772 13aa 04        	.byte0x4
 7773 13ab 0000 007F 	.long0x7f
 7774 13af 0E        	.uleb128 0xe
68K GAS   			page 166


 7775 13b0 0000 0091 	.long0x91
 7776 13b4 0000 13BF 	.long0x13bf
 7777 13b8 0F        	.uleb128 0xf
 7778 13b9 0000 009C 	.long0x9c
 7779 13bd 10        	.byte0x10
 7780 13be 00        	.byte0
 7781 13bf 0E        	.uleb128 0xe
 7782 13c0 0000 0E6B 	.long0xe6b
 7783 13c4 0000 13CF 	.long0x13cf
 7784 13c8 0F        	.uleb128 0xf
 7785 13c9 0000 009C 	.long0x9c
 7786 13cd 0F        	.byte0xf
 7787 13ce 00        	.byte0
 7788 13cf 2C        	.uleb128 0x2c
 7789 13d0 0000 0000 	.long.LASF213
 7790 13d4 01        	.byte0x1
 7791 13d5 0148      	.word0x148
 7792 13d7 0000 0000 	.long.LFB64
 7793 13db 0000 00CC 	.long.LFE64-.LFB64
 7794 13df 01        	.uleb128 0x1
 7795 13e0 9C        	.byte0x9c
 7796 13e1 0000 1420 	.long0x1420
 7797 13e5 2B        	.uleb128 0x2b
 7798 13e6 0000 0000 	.long.LASF181
 7799 13ea 01        	.byte0x1
 7800 13eb 0148      	.word0x148
 7801 13ed 0000 0D05 	.long0xd05
 7802 13f1 02        	.uleb128 0x2
 7803 13f2 91        	.byte0x91
 7804 13f3 00        	.sleb128 0
 7805 13f4 29        	.uleb128 0x29
 7806 13f5 6E00      	.string"n"
 7807 13f7 01        	.byte0x1
 7808 13f8 014B      	.word0x14b
 7809 13fa 0000 005B 	.long0x5b
 7810 13fe 02        	.uleb128 0x2
 7811 13ff 91        	.byte0x91
 7812 1400 70        	.sleb128 -16
 7813 1401 29        	.uleb128 0x29
 7814 1402 636E 7400 	.string"cnt"
 7815 1406 01        	.byte0x1
 7816 1407 014C      	.word0x14c
 7817 1409 0000 0091 	.long0x91
 7818 140d 02        	.uleb128 0x2
 7819 140e 91        	.byte0x91
 7820 140f 78        	.sleb128 -8
 7821 1410 28        	.uleb128 0x28
 7822 1411 0000 0000 	.long.LASF205
 7823 1415 01        	.byte0x1
 7824 1416 014D      	.word0x14d
 7825 1418 0000 09D9 	.long0x9d9
 7826 141c 02        	.uleb128 0x2
 7827 141d 91        	.byte0x91
 7828 141e 74        	.sleb128 -12
 7829 141f 00        	.byte0
 7830 1420 2A        	.uleb128 0x2a
 7831 1421 0000 0000 	.long.LASF206
68K GAS   			page 167


 7832 1425 01        	.byte0x1
 7833 1426 0123      	.word0x123
 7834 1428 0000 0049 	.long0x49
 7835 142c 0000 0000 	.long.LFB63
 7836 1430 0000 00DE 	.long.LFE63-.LFB63
 7837 1434 01        	.uleb128 0x1
 7838 1435 9C        	.byte0x9c
 7839 1436 0000 1459 	.long0x1459
 7840 143a 2B        	.uleb128 0x2b
 7841 143b 0000 0000 	.long.LASF181
 7842 143f 01        	.byte0x1
 7843 1440 0123      	.word0x123
 7844 1442 0000 0D05 	.long0xd05
 7845 1446 02        	.uleb128 0x2
 7846 1447 91        	.byte0x91
 7847 1448 00        	.sleb128 0
 7848 1449 29        	.uleb128 0x29
 7849 144a 6C65 6E00 	.string"len"
 7850 144e 01        	.byte0x1
 7851 144f 0125      	.word0x125
 7852 1451 0000 005B 	.long0x5b
 7853 1455 02        	.uleb128 0x2
 7854 1456 91        	.byte0x91
 7855 1457 78        	.sleb128 -8
 7856 1458 00        	.byte0
 7857 1459 2D        	.uleb128 0x2d
 7858 145a 0000 0000 	.long.LASF207
 7859 145e 01        	.byte0x1
 7860 145f BF        	.byte0xbf
 7861 1460 0000 005B 	.long0x5b
 7862 1464 0000 0000 	.long.LFB62
 7863 1468 0000 0714 	.long.LFE62-.LFB62
 7864 146c 01        	.uleb128 0x1
 7865 146d 9C        	.byte0x9c
 7866 146e 0000 14DF 	.long0x14df
 7867 1472 2E        	.uleb128 0x2e
 7868 1473 0000 0000 	.long.LASF181
 7869 1477 01        	.byte0x1
 7870 1478 BF        	.byte0xbf
 7871 1479 0000 0D05 	.long0xd05
 7872 147d 02        	.uleb128 0x2
 7873 147e 91        	.byte0x91
 7874 147f 00        	.sleb128 0
 7875 1480 25        	.uleb128 0x25
 7876 1481 0000 0000 	.long.LASF208
 7877 1485 01        	.byte0x1
 7878 1486 C1        	.byte0xc1
 7879 1487 0000 0074 	.long0x74
 7880 148b 02        	.uleb128 0x2
 7881 148c 91        	.byte0x91
 7882 148d 73        	.sleb128 -13
 7883 148e 25        	.uleb128 0x25
 7884 148f 0000 0000 	.long.LASF209
 7885 1493 01        	.byte0x1
 7886 1494 C2        	.byte0xc2
 7887 1495 0000 14DF 	.long0x14df
 7888 1499 02        	.uleb128 0x2
68K GAS   			page 168


 7889 149a 91        	.byte0x91
 7890 149b 69        	.sleb128 -23
 7891 149c 25        	.uleb128 0x25
 7892 149d 0000 0000 	.long.LASF210
 7893 14a1 01        	.byte0x1
 7894 14a2 C3        	.byte0xc3
 7895 14a3 0000 0037 	.long0x37
 7896 14a7 02        	.uleb128 0x2
 7897 14a8 91        	.byte0x91
 7898 14a9 6B        	.sleb128 -21
 7899 14aa 25        	.uleb128 0x25
 7900 14ab 0000 0000 	.long.LASF211
 7901 14af 01        	.byte0x1
 7902 14b0 C4        	.byte0xc4
 7903 14b1 0000 0091 	.long0x91
 7904 14b5 02        	.uleb128 0x2
 7905 14b6 91        	.byte0x91
 7906 14b7 6C        	.sleb128 -20
 7907 14b8 25        	.uleb128 0x25
 7908 14b9 0000 0000 	.long.LASF212
 7909 14bd 01        	.byte0x1
 7910 14be C5        	.byte0xc5
 7911 14bf 0000 00AA 	.long0xaa
 7912 14c3 02        	.uleb128 0x2
 7913 14c4 91        	.byte0x91
 7914 14c5 7B        	.sleb128 -5
 7915 14c6 2F        	.uleb128 0x2f
 7916 14c7 0000 0000 	.long.LBB2
 7917 14cb 0000 0132 	.long.LBE2-.LBB2
 7918 14cf 30        	.uleb128 0x30
 7919 14d0 6C65 6E00 	.string"len"
 7920 14d4 01        	.byte0x1
 7921 14d5 ED        	.byte0xed
 7922 14d6 0000 0091 	.long0x91
 7923 14da 02        	.uleb128 0x2
 7924 14db 91        	.byte0x91
 7925 14dc 74        	.sleb128 -12
 7926 14dd 00        	.byte0
 7927 14de 00        	.byte0
 7928 14df 0E        	.uleb128 0xe
 7929 14e0 0000 0037 	.long0x37
 7930 14e4 0000 14EF 	.long0x14ef
 7931 14e8 0F        	.uleb128 0xf
 7932 14e9 0000 009C 	.long0x9c
 7933 14ed 01        	.byte0x1
 7934 14ee 00        	.byte0
 7935 14ef 31        	.uleb128 0x31
 7936 14f0 0000 0000 	.long.LASF214
 7937 14f4 01        	.byte0x1
 7938 14f5 B4        	.byte0xb4
 7939 14f6 0000 0000 	.long.LFB61
 7940 14fa 0000 002C 	.long.LFE61-.LFB61
 7941 14fe 01        	.uleb128 0x1
 7942 14ff 9C        	.byte0x9c
 7943 1500 0000 1513 	.long0x1513
 7944 1504 2E        	.uleb128 0x2e
 7945 1505 0000 0000 	.long.LASF181
68K GAS   			page 169


 7946 1509 01        	.byte0x1
 7947 150a B4        	.byte0xb4
 7948 150b 0000 0D05 	.long0xd05
 7949 150f 02        	.uleb128 0x2
 7950 1510 91        	.byte0x91
 7951 1511 00        	.sleb128 0
 7952 1512 00        	.byte0
 7953 1513 2D        	.uleb128 0x2d
 7954 1514 0000 0000 	.long.LASF215
 7955 1518 01        	.byte0x1
 7956 1519 67        	.byte0x67
 7957 151a 0000 005B 	.long0x5b
 7958 151e 0000 0000 	.long.LFB60
 7959 1522 0000 013C 	.long.LFE60-.LFB60
 7960 1526 01        	.uleb128 0x1
 7961 1527 9C        	.byte0x9c
 7962 1528 0000 1565 	.long0x1565
 7963 152c 2E        	.uleb128 0x2e
 7964 152d 0000 0000 	.long.LASF181
 7965 1531 01        	.byte0x1
 7966 1532 67        	.byte0x67
 7967 1533 0000 0D05 	.long0xd05
 7968 1537 02        	.uleb128 0x2
 7969 1538 91        	.byte0x91
 7970 1539 00        	.sleb128 0
 7971 153a 2E        	.uleb128 0x2e
 7972 153b 0000 0000 	.long.LASF216
 7973 153f 01        	.byte0x1
 7974 1540 67        	.byte0x67
 7975 1541 0000 0172 	.long0x172
 7976 1545 02        	.uleb128 0x2
 7977 1546 91        	.byte0x91
 7978 1547 04        	.sleb128 4
 7979 1548 2E        	.uleb128 0x2e
 7980 1549 0000 0000 	.long.LASF217
 7981 154d 01        	.byte0x1
 7982 154e 67        	.byte0x67
 7983 154f 0000 0172 	.long0x172
 7984 1553 02        	.uleb128 0x2
 7985 1554 91        	.byte0x91
 7986 1555 08        	.sleb128 8
 7987 1556 25        	.uleb128 0x25
 7988 1557 0000 0000 	.long.LASF182
 7989 155b 01        	.byte0x1
 7990 155c 6A        	.byte0x6a
 7991 155d 0000 005B 	.long0x5b
 7992 1561 02        	.uleb128 0x2
 7993 1562 91        	.byte0x91
 7994 1563 78        	.sleb128 -8
 7995 1564 00        	.byte0
 7996 1565 2D        	.uleb128 0x2d
 7997 1566 0000 0000 	.long.LASF218
 7998 156a 01        	.byte0x1
 7999 156b 52        	.byte0x52
 8000 156c 0000 005B 	.long0x5b
 8001 1570 0000 0000 	.long.LFB59
 8002 1574 0000 003E 	.long.LFE59-.LFB59
68K GAS   			page 170


 8003 1578 01        	.uleb128 0x1
 8004 1579 9C        	.byte0x9c
 8005 157a 0000 15B7 	.long0x15b7
 8006 157e 2E        	.uleb128 0x2e
 8007 157f 0000 0000 	.long.LASF216
 8008 1583 01        	.byte0x1
 8009 1584 52        	.byte0x52
 8010 1585 0000 0172 	.long0x172
 8011 1589 02        	.uleb128 0x2
 8012 158a 91        	.byte0x91
 8013 158b 00        	.sleb128 0
 8014 158c 2E        	.uleb128 0x2e
 8015 158d 0000 0000 	.long.LASF217
 8016 1591 01        	.byte0x1
 8017 1592 52        	.byte0x52
 8018 1593 0000 0172 	.long0x172
 8019 1597 02        	.uleb128 0x2
 8020 1598 91        	.byte0x91
 8021 1599 04        	.sleb128 4
 8022 159a 30        	.uleb128 0x30
 8023 159b 7263 00   	.string"rc"
 8024 159e 01        	.byte0x1
 8025 159f 55        	.byte0x55
 8026 15a0 0000 005B 	.long0x5b
 8027 15a4 02        	.uleb128 0x2
 8028 15a5 91        	.byte0x91
 8029 15a6 78        	.sleb128 -8
 8030 15a7 32        	.uleb128 0x32
 8031 15a8 0000 0000 	.long.LASF222
 8032 15ac 0000 15C7 	.long0x15c7
 8033 15b0 05        	.uleb128 0x5
 8034 15b1 03        	.byte0x3
 8035 15b2 0000 0000 	.long__func__.5610
 8036 15b6 00        	.byte0
 8037 15b7 0E        	.uleb128 0xe
 8038 15b8 0000 00BD 	.long0xbd
 8039 15bc 0000 15C7 	.long0x15c7
 8040 15c0 0F        	.uleb128 0xf
 8041 15c1 0000 009C 	.long0x9c
 8042 15c5 11        	.byte0x11
 8043 15c6 00        	.byte0
 8044 15c7 05        	.uleb128 0x5
 8045 15c8 0000 15B7 	.long0x15b7
 8046 15cc 00        	.byte0
 8047               	.section.debug_abbrev,"",@progbits
 8048               	.Ldebug_abbrev0:
 8049 0000 01        	.uleb128 0x1
 8050 0001 11        	.uleb128 0x11
 8051 0002 01        	.byte0x1
 8052 0003 25        	.uleb128 0x25
 8053 0004 0E        	.uleb128 0xe
 8054 0005 13        	.uleb128 0x13
 8055 0006 0B        	.uleb128 0xb
 8056 0007 03        	.uleb128 0x3
 8057 0008 0E        	.uleb128 0xe
 8058 0009 1B        	.uleb128 0x1b
 8059 000a 0E        	.uleb128 0xe
68K GAS   			page 171


 8060 000b 11        	.uleb128 0x11
 8061 000c 01        	.uleb128 0x1
 8062 000d 12        	.uleb128 0x12
 8063 000e 06        	.uleb128 0x6
 8064 000f 10        	.uleb128 0x10
 8065 0010 17        	.uleb128 0x17
 8066 0011 00        	.byte0
 8067 0012 00        	.byte0
 8068 0013 02        	.uleb128 0x2
 8069 0014 16        	.uleb128 0x16
 8070 0015 00        	.byte0
 8071 0016 03        	.uleb128 0x3
 8072 0017 0E        	.uleb128 0xe
 8073 0018 3A        	.uleb128 0x3a
 8074 0019 0B        	.uleb128 0xb
 8075 001a 3B        	.uleb128 0x3b
 8076 001b 0B        	.uleb128 0xb
 8077 001c 49        	.uleb128 0x49
 8078 001d 13        	.uleb128 0x13
 8079 001e 00        	.byte0
 8080 001f 00        	.byte0
 8081 0020 03        	.uleb128 0x3
 8082 0021 24        	.uleb128 0x24
 8083 0022 00        	.byte0
 8084 0023 0B        	.uleb128 0xb
 8085 0024 0B        	.uleb128 0xb
 8086 0025 3E        	.uleb128 0x3e
 8087 0026 0B        	.uleb128 0xb
 8088 0027 03        	.uleb128 0x3
 8089 0028 0E        	.uleb128 0xe
 8090 0029 00        	.byte0
 8091 002a 00        	.byte0
 8092 002b 04        	.uleb128 0x4
 8093 002c 16        	.uleb128 0x16
 8094 002d 00        	.byte0
 8095 002e 03        	.uleb128 0x3
 8096 002f 0E        	.uleb128 0xe
 8097 0030 3A        	.uleb128 0x3a
 8098 0031 0B        	.uleb128 0xb
 8099 0032 3B        	.uleb128 0x3b
 8100 0033 05        	.uleb128 0x5
 8101 0034 49        	.uleb128 0x49
 8102 0035 13        	.uleb128 0x13
 8103 0036 00        	.byte0
 8104 0037 00        	.byte0
 8105 0038 05        	.uleb128 0x5
 8106 0039 26        	.uleb128 0x26
 8107 003a 00        	.byte0
 8108 003b 49        	.uleb128 0x49
 8109 003c 13        	.uleb128 0x13
 8110 003d 00        	.byte0
 8111 003e 00        	.byte0
 8112 003f 06        	.uleb128 0x6
 8113 0040 0F        	.uleb128 0xf
 8114 0041 00        	.byte0
 8115 0042 0B        	.uleb128 0xb
 8116 0043 0B        	.uleb128 0xb
68K GAS   			page 172


 8117 0044 00        	.byte0
 8118 0045 00        	.byte0
 8119 0046 07        	.uleb128 0x7
 8120 0047 24        	.uleb128 0x24
 8121 0048 00        	.byte0
 8122 0049 0B        	.uleb128 0xb
 8123 004a 0B        	.uleb128 0xb
 8124 004b 3E        	.uleb128 0x3e
 8125 004c 0B        	.uleb128 0xb
 8126 004d 03        	.uleb128 0x3
 8127 004e 08        	.uleb128 0x8
 8128 004f 00        	.byte0
 8129 0050 00        	.byte0
 8130 0051 08        	.uleb128 0x8
 8131 0052 13        	.uleb128 0x13
 8132 0053 01        	.byte0x1
 8133 0054 03        	.uleb128 0x3
 8134 0055 0E        	.uleb128 0xe
 8135 0056 0B        	.uleb128 0xb
 8136 0057 0B        	.uleb128 0xb
 8137 0058 3A        	.uleb128 0x3a
 8138 0059 0B        	.uleb128 0xb
 8139 005a 3B        	.uleb128 0x3b
 8140 005b 0B        	.uleb128 0xb
 8141 005c 01        	.uleb128 0x1
 8142 005d 13        	.uleb128 0x13
 8143 005e 00        	.byte0
 8144 005f 00        	.byte0
 8145 0060 09        	.uleb128 0x9
 8146 0061 0D        	.uleb128 0xd
 8147 0062 00        	.byte0
 8148 0063 03        	.uleb128 0x3
 8149 0064 0E        	.uleb128 0xe
 8150 0065 3A        	.uleb128 0x3a
 8151 0066 0B        	.uleb128 0xb
 8152 0067 3B        	.uleb128 0x3b
 8153 0068 0B        	.uleb128 0xb
 8154 0069 49        	.uleb128 0x49
 8155 006a 13        	.uleb128 0x13
 8156 006b 38        	.uleb128 0x38
 8157 006c 0B        	.uleb128 0xb
 8158 006d 00        	.byte0
 8159 006e 00        	.byte0
 8160 006f 0A        	.uleb128 0xa
 8161 0070 13        	.uleb128 0x13
 8162 0071 00        	.byte0
 8163 0072 03        	.uleb128 0x3
 8164 0073 0E        	.uleb128 0xe
 8165 0074 3C        	.uleb128 0x3c
 8166 0075 19        	.uleb128 0x19
 8167 0076 00        	.byte0
 8168 0077 00        	.byte0
 8169 0078 0B        	.uleb128 0xb
 8170 0079 0F        	.uleb128 0xf
 8171 007a 00        	.byte0
 8172 007b 0B        	.uleb128 0xb
 8173 007c 0B        	.uleb128 0xb
68K GAS   			page 173


 8174 007d 49        	.uleb128 0x49
 8175 007e 13        	.uleb128 0x13
 8176 007f 00        	.byte0
 8177 0080 00        	.byte0
 8178 0081 0C        	.uleb128 0xc
 8179 0082 17        	.uleb128 0x17
 8180 0083 01        	.byte0x1
 8181 0084 0B        	.uleb128 0xb
 8182 0085 0B        	.uleb128 0xb
 8183 0086 3A        	.uleb128 0x3a
 8184 0087 0B        	.uleb128 0xb
 8185 0088 3B        	.uleb128 0x3b
 8186 0089 0B        	.uleb128 0xb
 8187 008a 01        	.uleb128 0x1
 8188 008b 13        	.uleb128 0x13
 8189 008c 00        	.byte0
 8190 008d 00        	.byte0
 8191 008e 0D        	.uleb128 0xd
 8192 008f 0D        	.uleb128 0xd
 8193 0090 00        	.byte0
 8194 0091 03        	.uleb128 0x3
 8195 0092 0E        	.uleb128 0xe
 8196 0093 3A        	.uleb128 0x3a
 8197 0094 0B        	.uleb128 0xb
 8198 0095 3B        	.uleb128 0x3b
 8199 0096 0B        	.uleb128 0xb
 8200 0097 49        	.uleb128 0x49
 8201 0098 13        	.uleb128 0x13
 8202 0099 00        	.byte0
 8203 009a 00        	.byte0
 8204 009b 0E        	.uleb128 0xe
 8205 009c 01        	.uleb128 0x1
 8206 009d 01        	.byte0x1
 8207 009e 49        	.uleb128 0x49
 8208 009f 13        	.uleb128 0x13
 8209 00a0 01        	.uleb128 0x1
 8210 00a1 13        	.uleb128 0x13
 8211 00a2 00        	.byte0
 8212 00a3 00        	.byte0
 8213 00a4 0F        	.uleb128 0xf
 8214 00a5 21        	.uleb128 0x21
 8215 00a6 00        	.byte0
 8216 00a7 49        	.uleb128 0x49
 8217 00a8 13        	.uleb128 0x13
 8218 00a9 2F        	.uleb128 0x2f
 8219 00aa 0B        	.uleb128 0xb
 8220 00ab 00        	.byte0
 8221 00ac 00        	.byte0
 8222 00ad 10        	.uleb128 0x10
 8223 00ae 13        	.uleb128 0x13
 8224 00af 01        	.byte0x1
 8225 00b0 0B        	.uleb128 0xb
 8226 00b1 0B        	.uleb128 0xb
 8227 00b2 3A        	.uleb128 0x3a
 8228 00b3 0B        	.uleb128 0xb
 8229 00b4 3B        	.uleb128 0x3b
 8230 00b5 0B        	.uleb128 0xb
68K GAS   			page 174


 8231 00b6 01        	.uleb128 0x1
 8232 00b7 13        	.uleb128 0x13
 8233 00b8 00        	.byte0
 8234 00b9 00        	.byte0
 8235 00ba 11        	.uleb128 0x11
 8236 00bb 0D        	.uleb128 0xd
 8237 00bc 00        	.byte0
 8238 00bd 03        	.uleb128 0x3
 8239 00be 08        	.uleb128 0x8
 8240 00bf 3A        	.uleb128 0x3a
 8241 00c0 0B        	.uleb128 0xb
 8242 00c1 3B        	.uleb128 0x3b
 8243 00c2 0B        	.uleb128 0xb
 8244 00c3 49        	.uleb128 0x49
 8245 00c4 13        	.uleb128 0x13
 8246 00c5 38        	.uleb128 0x38
 8247 00c6 0B        	.uleb128 0xb
 8248 00c7 00        	.byte0
 8249 00c8 00        	.byte0
 8250 00c9 12        	.uleb128 0x12
 8251 00ca 13        	.uleb128 0x13
 8252 00cb 01        	.byte0x1
 8253 00cc 03        	.uleb128 0x3
 8254 00cd 0E        	.uleb128 0xe
 8255 00ce 0B        	.uleb128 0xb
 8256 00cf 05        	.uleb128 0x5
 8257 00d0 3A        	.uleb128 0x3a
 8258 00d1 0B        	.uleb128 0xb
 8259 00d2 3B        	.uleb128 0x3b
 8260 00d3 0B        	.uleb128 0xb
 8261 00d4 01        	.uleb128 0x1
 8262 00d5 13        	.uleb128 0x13
 8263 00d6 00        	.byte0
 8264 00d7 00        	.byte0
 8265 00d8 13        	.uleb128 0x13
 8266 00d9 0D        	.uleb128 0xd
 8267 00da 00        	.byte0
 8268 00db 03        	.uleb128 0x3
 8269 00dc 0E        	.uleb128 0xe
 8270 00dd 3A        	.uleb128 0x3a
 8271 00de 0B        	.uleb128 0xb
 8272 00df 3B        	.uleb128 0x3b
 8273 00e0 0B        	.uleb128 0xb
 8274 00e1 49        	.uleb128 0x49
 8275 00e2 13        	.uleb128 0x13
 8276 00e3 38        	.uleb128 0x38
 8277 00e4 05        	.uleb128 0x5
 8278 00e5 00        	.byte0
 8279 00e6 00        	.byte0
 8280 00e7 14        	.uleb128 0x14
 8281 00e8 15        	.uleb128 0x15
 8282 00e9 00        	.byte0
 8283 00ea 27        	.uleb128 0x27
 8284 00eb 19        	.uleb128 0x19
 8285 00ec 00        	.byte0
 8286 00ed 00        	.byte0
 8287 00ee 15        	.uleb128 0x15
68K GAS   			page 175


 8288 00ef 15        	.uleb128 0x15
 8289 00f0 01        	.byte0x1
 8290 00f1 27        	.uleb128 0x27
 8291 00f2 19        	.uleb128 0x19
 8292 00f3 49        	.uleb128 0x49
 8293 00f4 13        	.uleb128 0x13
 8294 00f5 01        	.uleb128 0x1
 8295 00f6 13        	.uleb128 0x13
 8296 00f7 00        	.byte0
 8297 00f8 00        	.byte0
 8298 00f9 16        	.uleb128 0x16
 8299 00fa 05        	.uleb128 0x5
 8300 00fb 00        	.byte0
 8301 00fc 49        	.uleb128 0x49
 8302 00fd 13        	.uleb128 0x13
 8303 00fe 00        	.byte0
 8304 00ff 00        	.byte0
 8305 0100 17        	.uleb128 0x17
 8306 0101 13        	.uleb128 0x13
 8307 0102 01        	.byte0x1
 8308 0103 03        	.uleb128 0x3
 8309 0104 0E        	.uleb128 0xe
 8310 0105 0B        	.uleb128 0xb
 8311 0106 05        	.uleb128 0x5
 8312 0107 3A        	.uleb128 0x3a
 8313 0108 0B        	.uleb128 0xb
 8314 0109 3B        	.uleb128 0x3b
 8315 010a 05        	.uleb128 0x5
 8316 010b 01        	.uleb128 0x1
 8317 010c 13        	.uleb128 0x13
 8318 010d 00        	.byte0
 8319 010e 00        	.byte0
 8320 010f 18        	.uleb128 0x18
 8321 0110 0D        	.uleb128 0xd
 8322 0111 00        	.byte0
 8323 0112 03        	.uleb128 0x3
 8324 0113 0E        	.uleb128 0xe
 8325 0114 3A        	.uleb128 0x3a
 8326 0115 0B        	.uleb128 0xb
 8327 0116 3B        	.uleb128 0x3b
 8328 0117 05        	.uleb128 0x5
 8329 0118 49        	.uleb128 0x49
 8330 0119 13        	.uleb128 0x13
 8331 011a 38        	.uleb128 0x38
 8332 011b 0B        	.uleb128 0xb
 8333 011c 00        	.byte0
 8334 011d 00        	.byte0
 8335 011e 19        	.uleb128 0x19
 8336 011f 0D        	.uleb128 0xd
 8337 0120 00        	.byte0
 8338 0121 03        	.uleb128 0x3
 8339 0122 0E        	.uleb128 0xe
 8340 0123 3A        	.uleb128 0x3a
 8341 0124 0B        	.uleb128 0xb
 8342 0125 3B        	.uleb128 0x3b
 8343 0126 05        	.uleb128 0x5
 8344 0127 49        	.uleb128 0x49
68K GAS   			page 176


 8345 0128 13        	.uleb128 0x13
 8346 0129 38        	.uleb128 0x38
 8347 012a 05        	.uleb128 0x5
 8348 012b 00        	.byte0
 8349 012c 00        	.byte0
 8350 012d 1A        	.uleb128 0x1a
 8351 012e 13        	.uleb128 0x13
 8352 012f 01        	.byte0x1
 8353 0130 03        	.uleb128 0x3
 8354 0131 0E        	.uleb128 0xe
 8355 0132 0B        	.uleb128 0xb
 8356 0133 0B        	.uleb128 0xb
 8357 0134 3A        	.uleb128 0x3a
 8358 0135 0B        	.uleb128 0xb
 8359 0136 3B        	.uleb128 0x3b
 8360 0137 05        	.uleb128 0x5
 8361 0138 01        	.uleb128 0x1
 8362 0139 13        	.uleb128 0x13
 8363 013a 00        	.byte0
 8364 013b 00        	.byte0
 8365 013c 1B        	.uleb128 0x1b
 8366 013d 13        	.uleb128 0x13
 8367 013e 01        	.byte0x1
 8368 013f 0B        	.uleb128 0xb
 8369 0140 0B        	.uleb128 0xb
 8370 0141 3A        	.uleb128 0x3a
 8371 0142 0B        	.uleb128 0xb
 8372 0143 3B        	.uleb128 0x3b
 8373 0144 05        	.uleb128 0x5
 8374 0145 01        	.uleb128 0x1
 8375 0146 13        	.uleb128 0x13
 8376 0147 00        	.byte0
 8377 0148 00        	.byte0
 8378 0149 1C        	.uleb128 0x1c
 8379 014a 17        	.uleb128 0x17
 8380 014b 01        	.byte0x1
 8381 014c 0B        	.uleb128 0xb
 8382 014d 0B        	.uleb128 0xb
 8383 014e 3A        	.uleb128 0x3a
 8384 014f 0B        	.uleb128 0xb
 8385 0150 3B        	.uleb128 0x3b
 8386 0151 05        	.uleb128 0x5
 8387 0152 01        	.uleb128 0x1
 8388 0153 13        	.uleb128 0x13
 8389 0154 00        	.byte0
 8390 0155 00        	.byte0
 8391 0156 1D        	.uleb128 0x1d
 8392 0157 0D        	.uleb128 0xd
 8393 0158 00        	.byte0
 8394 0159 03        	.uleb128 0x3
 8395 015a 0E        	.uleb128 0xe
 8396 015b 3A        	.uleb128 0x3a
 8397 015c 0B        	.uleb128 0xb
 8398 015d 3B        	.uleb128 0x3b
 8399 015e 05        	.uleb128 0x5
 8400 015f 49        	.uleb128 0x49
 8401 0160 13        	.uleb128 0x13
68K GAS   			page 177


 8402 0161 00        	.byte0
 8403 0162 00        	.byte0
 8404 0163 1E        	.uleb128 0x1e
 8405 0164 15        	.uleb128 0x15
 8406 0165 01        	.byte0x1
 8407 0166 27        	.uleb128 0x27
 8408 0167 19        	.uleb128 0x19
 8409 0168 01        	.uleb128 0x1
 8410 0169 13        	.uleb128 0x13
 8411 016a 00        	.byte0
 8412 016b 00        	.byte0
 8413 016c 1F        	.uleb128 0x1f
 8414 016d 34        	.uleb128 0x34
 8415 016e 00        	.byte0
 8416 016f 03        	.uleb128 0x3
 8417 0170 0E        	.uleb128 0xe
 8418 0171 3A        	.uleb128 0x3a
 8419 0172 0B        	.uleb128 0xb
 8420 0173 3B        	.uleb128 0x3b
 8421 0174 05        	.uleb128 0x5
 8422 0175 49        	.uleb128 0x49
 8423 0176 13        	.uleb128 0x13
 8424 0177 3F        	.uleb128 0x3f
 8425 0178 19        	.uleb128 0x19
 8426 0179 3C        	.uleb128 0x3c
 8427 017a 19        	.uleb128 0x19
 8428 017b 00        	.byte0
 8429 017c 00        	.byte0
 8430 017d 20        	.uleb128 0x20
 8431 017e 34        	.uleb128 0x34
 8432 017f 00        	.byte0
 8433 0180 03        	.uleb128 0x3
 8434 0181 0E        	.uleb128 0xe
 8435 0182 3A        	.uleb128 0x3a
 8436 0183 0B        	.uleb128 0xb
 8437 0184 3B        	.uleb128 0x3b
 8438 0185 0B        	.uleb128 0xb
 8439 0186 49        	.uleb128 0x49
 8440 0187 13        	.uleb128 0x13
 8441 0188 3F        	.uleb128 0x3f
 8442 0189 19        	.uleb128 0x19
 8443 018a 3C        	.uleb128 0x3c
 8444 018b 19        	.uleb128 0x19
 8445 018c 00        	.byte0
 8446 018d 00        	.byte0
 8447 018e 21        	.uleb128 0x21
 8448 018f 13        	.uleb128 0x13
 8449 0190 01        	.byte0x1
 8450 0191 0B        	.uleb128 0xb
 8451 0192 06        	.uleb128 0x6
 8452 0193 3A        	.uleb128 0x3a
 8453 0194 0B        	.uleb128 0xb
 8454 0195 3B        	.uleb128 0x3b
 8455 0196 0B        	.uleb128 0xb
 8456 0197 01        	.uleb128 0x1
 8457 0198 13        	.uleb128 0x13
 8458 0199 00        	.byte0
68K GAS   			page 178


 8459 019a 00        	.byte0
 8460 019b 22        	.uleb128 0x22
 8461 019c 0D        	.uleb128 0xd
 8462 019d 00        	.byte0
 8463 019e 03        	.uleb128 0x3
 8464 019f 0E        	.uleb128 0xe
 8465 01a0 3A        	.uleb128 0x3a
 8466 01a1 0B        	.uleb128 0xb
 8467 01a2 3B        	.uleb128 0x3b
 8468 01a3 0B        	.uleb128 0xb
 8469 01a4 49        	.uleb128 0x49
 8470 01a5 13        	.uleb128 0x13
 8471 01a6 38        	.uleb128 0x38
 8472 01a7 06        	.uleb128 0x6
 8473 01a8 00        	.byte0
 8474 01a9 00        	.byte0
 8475 01aa 23        	.uleb128 0x23
 8476 01ab 21        	.uleb128 0x21
 8477 01ac 00        	.byte0
 8478 01ad 49        	.uleb128 0x49
 8479 01ae 13        	.uleb128 0x13
 8480 01af 2F        	.uleb128 0x2f
 8481 01b0 05        	.uleb128 0x5
 8482 01b1 00        	.byte0
 8483 01b2 00        	.byte0
 8484 01b3 24        	.uleb128 0x24
 8485 01b4 34        	.uleb128 0x34
 8486 01b5 00        	.byte0
 8487 01b6 03        	.uleb128 0x3
 8488 01b7 0E        	.uleb128 0xe
 8489 01b8 3A        	.uleb128 0x3a
 8490 01b9 0B        	.uleb128 0xb
 8491 01ba 3B        	.uleb128 0x3b
 8492 01bb 0B        	.uleb128 0xb
 8493 01bc 49        	.uleb128 0x49
 8494 01bd 13        	.uleb128 0x13
 8495 01be 3F        	.uleb128 0x3f
 8496 01bf 19        	.uleb128 0x19
 8497 01c0 02        	.uleb128 0x2
 8498 01c1 18        	.uleb128 0x18
 8499 01c2 00        	.byte0
 8500 01c3 00        	.byte0
 8501 01c4 25        	.uleb128 0x25
 8502 01c5 34        	.uleb128 0x34
 8503 01c6 00        	.byte0
 8504 01c7 03        	.uleb128 0x3
 8505 01c8 0E        	.uleb128 0xe
 8506 01c9 3A        	.uleb128 0x3a
 8507 01ca 0B        	.uleb128 0xb
 8508 01cb 3B        	.uleb128 0x3b
 8509 01cc 0B        	.uleb128 0xb
 8510 01cd 49        	.uleb128 0x49
 8511 01ce 13        	.uleb128 0x13
 8512 01cf 02        	.uleb128 0x2
 8513 01d0 18        	.uleb128 0x18
 8514 01d1 00        	.byte0
 8515 01d2 00        	.byte0
68K GAS   			page 179


 8516 01d3 26        	.uleb128 0x26
 8517 01d4 2E        	.uleb128 0x2e
 8518 01d5 01        	.byte0x1
 8519 01d6 3F        	.uleb128 0x3f
 8520 01d7 19        	.uleb128 0x19
 8521 01d8 03        	.uleb128 0x3
 8522 01d9 0E        	.uleb128 0xe
 8523 01da 3A        	.uleb128 0x3a
 8524 01db 0B        	.uleb128 0xb
 8525 01dc 3B        	.uleb128 0x3b
 8526 01dd 05        	.uleb128 0x5
 8527 01de 27        	.uleb128 0x27
 8528 01df 19        	.uleb128 0x19
 8529 01e0 49        	.uleb128 0x49
 8530 01e1 13        	.uleb128 0x13
 8531 01e2 11        	.uleb128 0x11
 8532 01e3 01        	.uleb128 0x1
 8533 01e4 12        	.uleb128 0x12
 8534 01e5 06        	.uleb128 0x6
 8535 01e6 40        	.uleb128 0x40
 8536 01e7 18        	.uleb128 0x18
 8537 01e8 9742      	.uleb128 0x2117
 8538 01ea 19        	.uleb128 0x19
 8539 01eb 01        	.uleb128 0x1
 8540 01ec 13        	.uleb128 0x13
 8541 01ed 00        	.byte0
 8542 01ee 00        	.byte0
 8543 01ef 27        	.uleb128 0x27
 8544 01f0 05        	.uleb128 0x5
 8545 01f1 00        	.byte0
 8546 01f2 03        	.uleb128 0x3
 8547 01f3 08        	.uleb128 0x8
 8548 01f4 3A        	.uleb128 0x3a
 8549 01f5 0B        	.uleb128 0xb
 8550 01f6 3B        	.uleb128 0x3b
 8551 01f7 05        	.uleb128 0x5
 8552 01f8 49        	.uleb128 0x49
 8553 01f9 13        	.uleb128 0x13
 8554 01fa 02        	.uleb128 0x2
 8555 01fb 18        	.uleb128 0x18
 8556 01fc 00        	.byte0
 8557 01fd 00        	.byte0
 8558 01fe 28        	.uleb128 0x28
 8559 01ff 34        	.uleb128 0x34
 8560 0200 00        	.byte0
 8561 0201 03        	.uleb128 0x3
 8562 0202 0E        	.uleb128 0xe
 8563 0203 3A        	.uleb128 0x3a
 8564 0204 0B        	.uleb128 0xb
 8565 0205 3B        	.uleb128 0x3b
 8566 0206 05        	.uleb128 0x5
 8567 0207 49        	.uleb128 0x49
 8568 0208 13        	.uleb128 0x13
 8569 0209 02        	.uleb128 0x2
 8570 020a 18        	.uleb128 0x18
 8571 020b 00        	.byte0
 8572 020c 00        	.byte0
68K GAS   			page 180


 8573 020d 29        	.uleb128 0x29
 8574 020e 34        	.uleb128 0x34
 8575 020f 00        	.byte0
 8576 0210 03        	.uleb128 0x3
 8577 0211 08        	.uleb128 0x8
 8578 0212 3A        	.uleb128 0x3a
 8579 0213 0B        	.uleb128 0xb
 8580 0214 3B        	.uleb128 0x3b
 8581 0215 05        	.uleb128 0x5
 8582 0216 49        	.uleb128 0x49
 8583 0217 13        	.uleb128 0x13
 8584 0218 02        	.uleb128 0x2
 8585 0219 18        	.uleb128 0x18
 8586 021a 00        	.byte0
 8587 021b 00        	.byte0
 8588 021c 2A        	.uleb128 0x2a
 8589 021d 2E        	.uleb128 0x2e
 8590 021e 01        	.byte0x1
 8591 021f 3F        	.uleb128 0x3f
 8592 0220 19        	.uleb128 0x19
 8593 0221 03        	.uleb128 0x3
 8594 0222 0E        	.uleb128 0xe
 8595 0223 3A        	.uleb128 0x3a
 8596 0224 0B        	.uleb128 0xb
 8597 0225 3B        	.uleb128 0x3b
 8598 0226 05        	.uleb128 0x5
 8599 0227 27        	.uleb128 0x27
 8600 0228 19        	.uleb128 0x19
 8601 0229 49        	.uleb128 0x49
 8602 022a 13        	.uleb128 0x13
 8603 022b 11        	.uleb128 0x11
 8604 022c 01        	.uleb128 0x1
 8605 022d 12        	.uleb128 0x12
 8606 022e 06        	.uleb128 0x6
 8607 022f 40        	.uleb128 0x40
 8608 0230 18        	.uleb128 0x18
 8609 0231 9642      	.uleb128 0x2116
 8610 0233 19        	.uleb128 0x19
 8611 0234 01        	.uleb128 0x1
 8612 0235 13        	.uleb128 0x13
 8613 0236 00        	.byte0
 8614 0237 00        	.byte0
 8615 0238 2B        	.uleb128 0x2b
 8616 0239 05        	.uleb128 0x5
 8617 023a 00        	.byte0
 8618 023b 03        	.uleb128 0x3
 8619 023c 0E        	.uleb128 0xe
 8620 023d 3A        	.uleb128 0x3a
 8621 023e 0B        	.uleb128 0xb
 8622 023f 3B        	.uleb128 0x3b
 8623 0240 05        	.uleb128 0x5
 8624 0241 49        	.uleb128 0x49
 8625 0242 13        	.uleb128 0x13
 8626 0243 02        	.uleb128 0x2
 8627 0244 18        	.uleb128 0x18
 8628 0245 00        	.byte0
 8629 0246 00        	.byte0
68K GAS   			page 181


 8630 0247 2C        	.uleb128 0x2c
 8631 0248 2E        	.uleb128 0x2e
 8632 0249 01        	.byte0x1
 8633 024a 3F        	.uleb128 0x3f
 8634 024b 19        	.uleb128 0x19
 8635 024c 03        	.uleb128 0x3
 8636 024d 0E        	.uleb128 0xe
 8637 024e 3A        	.uleb128 0x3a
 8638 024f 0B        	.uleb128 0xb
 8639 0250 3B        	.uleb128 0x3b
 8640 0251 05        	.uleb128 0x5
 8641 0252 27        	.uleb128 0x27
 8642 0253 19        	.uleb128 0x19
 8643 0254 11        	.uleb128 0x11
 8644 0255 01        	.uleb128 0x1
 8645 0256 12        	.uleb128 0x12
 8646 0257 06        	.uleb128 0x6
 8647 0258 40        	.uleb128 0x40
 8648 0259 18        	.uleb128 0x18
 8649 025a 9642      	.uleb128 0x2116
 8650 025c 19        	.uleb128 0x19
 8651 025d 01        	.uleb128 0x1
 8652 025e 13        	.uleb128 0x13
 8653 025f 00        	.byte0
 8654 0260 00        	.byte0
 8655 0261 2D        	.uleb128 0x2d
 8656 0262 2E        	.uleb128 0x2e
 8657 0263 01        	.byte0x1
 8658 0264 3F        	.uleb128 0x3f
 8659 0265 19        	.uleb128 0x19
 8660 0266 03        	.uleb128 0x3
 8661 0267 0E        	.uleb128 0xe
 8662 0268 3A        	.uleb128 0x3a
 8663 0269 0B        	.uleb128 0xb
 8664 026a 3B        	.uleb128 0x3b
 8665 026b 0B        	.uleb128 0xb
 8666 026c 27        	.uleb128 0x27
 8667 026d 19        	.uleb128 0x19
 8668 026e 49        	.uleb128 0x49
 8669 026f 13        	.uleb128 0x13
 8670 0270 11        	.uleb128 0x11
 8671 0271 01        	.uleb128 0x1
 8672 0272 12        	.uleb128 0x12
 8673 0273 06        	.uleb128 0x6
 8674 0274 40        	.uleb128 0x40
 8675 0275 18        	.uleb128 0x18
 8676 0276 9642      	.uleb128 0x2116
 8677 0278 19        	.uleb128 0x19
 8678 0279 01        	.uleb128 0x1
 8679 027a 13        	.uleb128 0x13
 8680 027b 00        	.byte0
 8681 027c 00        	.byte0
 8682 027d 2E        	.uleb128 0x2e
 8683 027e 05        	.uleb128 0x5
 8684 027f 00        	.byte0
 8685 0280 03        	.uleb128 0x3
 8686 0281 0E        	.uleb128 0xe
68K GAS   			page 182


 8687 0282 3A        	.uleb128 0x3a
 8688 0283 0B        	.uleb128 0xb
 8689 0284 3B        	.uleb128 0x3b
 8690 0285 0B        	.uleb128 0xb
 8691 0286 49        	.uleb128 0x49
 8692 0287 13        	.uleb128 0x13
 8693 0288 02        	.uleb128 0x2
 8694 0289 18        	.uleb128 0x18
 8695 028a 00        	.byte0
 8696 028b 00        	.byte0
 8697 028c 2F        	.uleb128 0x2f
 8698 028d 0B        	.uleb128 0xb
 8699 028e 01        	.byte0x1
 8700 028f 11        	.uleb128 0x11
 8701 0290 01        	.uleb128 0x1
 8702 0291 12        	.uleb128 0x12
 8703 0292 06        	.uleb128 0x6
 8704 0293 00        	.byte0
 8705 0294 00        	.byte0
 8706 0295 30        	.uleb128 0x30
 8707 0296 34        	.uleb128 0x34
 8708 0297 00        	.byte0
 8709 0298 03        	.uleb128 0x3
 8710 0299 08        	.uleb128 0x8
 8711 029a 3A        	.uleb128 0x3a
 8712 029b 0B        	.uleb128 0xb
 8713 029c 3B        	.uleb128 0x3b
 8714 029d 0B        	.uleb128 0xb
 8715 029e 49        	.uleb128 0x49
 8716 029f 13        	.uleb128 0x13
 8717 02a0 02        	.uleb128 0x2
 8718 02a1 18        	.uleb128 0x18
 8719 02a2 00        	.byte0
 8720 02a3 00        	.byte0
 8721 02a4 31        	.uleb128 0x31
 8722 02a5 2E        	.uleb128 0x2e
 8723 02a6 01        	.byte0x1
 8724 02a7 3F        	.uleb128 0x3f
 8725 02a8 19        	.uleb128 0x19
 8726 02a9 03        	.uleb128 0x3
 8727 02aa 0E        	.uleb128 0xe
 8728 02ab 3A        	.uleb128 0x3a
 8729 02ac 0B        	.uleb128 0xb
 8730 02ad 3B        	.uleb128 0x3b
 8731 02ae 0B        	.uleb128 0xb
 8732 02af 27        	.uleb128 0x27
 8733 02b0 19        	.uleb128 0x19
 8734 02b1 11        	.uleb128 0x11
 8735 02b2 01        	.uleb128 0x1
 8736 02b3 12        	.uleb128 0x12
 8737 02b4 06        	.uleb128 0x6
 8738 02b5 40        	.uleb128 0x40
 8739 02b6 18        	.uleb128 0x18
 8740 02b7 9742      	.uleb128 0x2117
 8741 02b9 19        	.uleb128 0x19
 8742 02ba 01        	.uleb128 0x1
 8743 02bb 13        	.uleb128 0x13
68K GAS   			page 183


 8744 02bc 00        	.byte0
 8745 02bd 00        	.byte0
 8746 02be 32        	.uleb128 0x32
 8747 02bf 34        	.uleb128 0x34
 8748 02c0 00        	.byte0
 8749 02c1 03        	.uleb128 0x3
 8750 02c2 0E        	.uleb128 0xe
 8751 02c3 49        	.uleb128 0x49
 8752 02c4 13        	.uleb128 0x13
 8753 02c5 34        	.uleb128 0x34
 8754 02c6 19        	.uleb128 0x19
 8755 02c7 02        	.uleb128 0x2
 8756 02c8 18        	.uleb128 0x18
 8757 02c9 00        	.byte0
 8758 02ca 00        	.byte0
 8759 02cb 00        	.byte0
 8760               	.section.debug_aranges,"",@progbits
 8761 0000 0000 001C 	.long0x1c
 8762 0004 0002      	.word0x2
 8763 0006 0000 0000 	.long.Ldebug_info0
 8764 000a 04        	.byte0x4
 8765 000b 00        	.byte0
 8766 000c 0000      	.word0
 8767 000e 0000      	.word0
 8768 0010 0000 0000 	.long.Ltext0
 8769 0014 0000 29B0 	.long.Letext0-.Ltext0
 8770 0018 0000 0000 	.long0
 8771 001c 0000 0000 	.long0
 8772               	.section.debug_line,"",@progbits
 8773               	.Ldebug_line0:
 8774 0000 0000 0BC1 	.section.debug_str,"MS",@progbits,1
 8774      0002 0000 
 8774      0268 0201 
 8774      FB0E 0D00 
 8774      0101 0101 
 8775               	.LASF38:
 8776 0000 5F73 7369 	.string"_ssize_t"
 8776      7A65 5F74 
 8776      00
 8777               	.LASF161:
 8778 0009 7372 6346 	.string"srcFile_fd"
 8778      696C 655F 
 8778      6664 00
 8779               	.LASF140:
 8780 0014 5F5F 6C6F 	.string"__locale_t"
 8780      6361 6C65 
 8780      5F74 00
 8781               	.LASF43:
 8782 001f 5F5F 7661 	.string"__value"
 8782      6C75 6500 
 8783               	.LASF141:
 8784 0027 5F5F 7366 	.string"__sf"
 8784      00
 8785               	.LASF78:
 8786 002c 5F72 6561 	.string"_read"
 8786      6400 
 8787               	.LASF79:
68K GAS   			page 184


 8788 0032 5F77 7269 	.string"_write"
 8788      7465 00
 8789               	.LASF120:
 8790 0039 5F61 7363 	.string"_asctime_buf"
 8790      7469 6D65 
 8790      5F62 7566 
 8790      00
 8791               	.LASF105:
 8792 0046 5F63 7674 	.string"_cvtlen"
 8792      6C65 6E00 
 8793               	.LASF32:
 8794 004e 5F4D 7574 	.string"_Mutex_Control"
 8794      6578 5F43 
 8794      6F6E 7472 
 8794      6F6C 00
 8795               	.LASF215:
 8796 005d 4346 455F 	.string"CFE_FS_Decompress_Reentrant"
 8796      4653 5F44 
 8796      6563 6F6D 
 8796      7072 6573 
 8796      735F 5265 
 8797               	.LASF222:
 8798 0079 5F5F 6675 	.string"__func__"
 8798      6E63 5F5F 
 8798      00
 8799               	.LASF144:
 8800 0082 5F67 6C6F 	.string"_global_atexit"
 8800      6261 6C5F 
 8800      6174 6578 
 8800      6974 00
 8801               	.LASF185:
 8802 0091 4653 5F67 	.string"FS_gz_inflate_stored_Reentrant"
 8802      7A5F 696E 
 8802      666C 6174 
 8802      655F 7374 
 8802      6F72 6564 
 8803               	.LASF162:
 8804 00b0 6473 7446 	.string"dstFile_fd"
 8804      696C 655F 
 8804      6664 00
 8805               	.LASF12:
 8806 00bb 7569 6E74 	.string"uint32"
 8806      3332 00
 8807               	.LASF139:
 8808 00c2 5F75 6E75 	.string"_unused"
 8808      7365 6400 
 8809               	.LASF52:
 8810 00ca 5F5F 746D 	.string"__tm"
 8810      00
 8811               	.LASF135:
 8812 00cf 5F77 6373 	.string"_wcsrtombs_state"
 8812      7274 6F6D 
 8812      6273 5F73 
 8812      7461 7465 
 8812      00
 8813               	.LASF83:
 8814 00e0 5F6E 6275 	.string"_nbuf"
68K GAS   			page 185


 8814      6600 
 8815               	.LASF53:
 8816 00e6 5F5F 746D 	.string"__tm_sec"
 8816      5F73 6563 
 8816      00
 8817               	.LASF31:
 8818 00ef 5F54 6872 	.string"_Thread_Control"
 8818      6561 645F 
 8818      436F 6E74 
 8818      726F 6C00 
 8819               	.LASF128:
 8820 00ff 5F6C 3634 	.string"_l64a_buf"
 8820      615F 6275 
 8820      6600 
 8821               	.LASF171:
 8822 0109 7769 6E64 	.string"window"
 8822      6F77 00
 8823               	.LASF220:
 8824 0110 2F68 6F6D 	.string"/home/simulink/cFS_FreeRTOS_seL4/cfe/fsw/cfe-core/src/fs/cfe_fs_decompress.c"
 8824      652F 7369 
 8824      6D75 6C69 
 8824      6E6B 2F63 
 8824      4653 5F46 
 8825               	.LASF92:
 8826 015d 5F73 7464 	.string"_stdin"
 8826      696E 00
 8827               	.LASF80:
 8828 0164 5F73 6565 	.string"_seek"
 8828      6B00 
 8829               	.LASF116:
 8830 016a 5F6D 756C 	.string"_mult"
 8830      7400 
 8831               	.LASF199:
 8832 0170 4653 5F67 	.string"FS_gz_inflate_block_Reentrant"
 8832      7A5F 696E 
 8832      666C 6174 
 8832      655F 626C 
 8832      6F63 6B5F 
 8833               	.LASF1:
 8834 018e 696E 7438 	.string"int8"
 8834      00
 8835               	.LASF40:
 8836 0193 5F5F 7763 	.string"__wch"
 8836      6800 
 8837               	.LASF75:
 8838 0199 5F66 696C 	.string"_file"
 8838      6500 
 8839               	.LASF62:
 8840 019f 5F6F 6E5F 	.string"_on_exit_args"
 8840      6578 6974 
 8840      5F61 7267 
 8840      7300 
 8841               	.LASF168:
 8842 01ad 4572 726F 	.string"Error"
 8842      7200 
 8843               	.LASF131:
 8844 01b3 5F6D 6272 	.string"_mbrlen_state"
68K GAS   			page 186


 8844      6C65 6E5F 
 8844      7374 6174 
 8844      6500 
 8845               	.LASF7:
 8846 01c1 6C6F 6E67 	.string"long int"
 8846      2069 6E74 
 8846      00
 8847               	.LASF142:
 8848 01ca 5F69 6D70 	.string"_impure_ptr"
 8848      7572 655F 
 8848      7074 7200 
 8849               	.LASF102:
 8850 01d6 5F72 6573 	.string"_result_k"
 8850      756C 745F 
 8850      6B00 
 8851               	.LASF72:
 8852 01e0 5F73 697A 	.string"_size"
 8852      6500 
 8853               	.LASF121:
 8854 01e6 5F6C 6F63 	.string"_localtime_buf"
 8854      616C 7469 
 8854      6D65 5F62 
 8854      7566 00
 8855               	.LASF190:
 8856 01f5 6370 6465 	.string"cpdext"
 8856      7874 00
 8857               	.LASF149:
 8858 01fc 5072 696F 	.string"Priority"
 8858      7269 7479 
 8858      00
 8859               	.LASF57:
 8860 0205 5F5F 746D 	.string"__tm_mon"
 8860      5F6D 6F6E 
 8860      00
 8861               	.LASF118:
 8862 020e 5F75 6E75 	.string"_unused_rand"
 8862      7365 645F 
 8862      7261 6E64 
 8862      00
 8863               	.LASF3:
 8864 021b 7369 676E 	.string"signed char"
 8864      6564 2063 
 8864      6861 7200 
 8865               	.LASF182:
 8866 0227 6775 7A65 	.string"guzerror"
 8866      7272 6F72 
 8866      00
 8867               	.LASF15:
 8868 0230 626F 6F6C 	.string"boolean"
 8868      6561 6E00 
 8869               	.LASF210:
 8870 0238 7468 6973 	.string"thisByte"
 8870      4279 7465 
 8870      00
 8871               	.LASF212:
 8872 0241 6B65 6570 	.string"keep_going"
 8872      5F67 6F69 
68K GAS   			page 187


 8872      6E67 00
 8873               	.LASF30:
 8874 024c 5F54 6872 	.string"_Thread_queue_Heads"
 8874      6561 645F 
 8874      7175 6575 
 8874      655F 4865 
 8874      6164 7300 
 8875               	.LASF153:
 8876 0260 656E 7669 	.string"environ"
 8876      726F 6E00 
 8877               	.LASF2:
 8878 0268 756E 7369 	.string"unsigned char"
 8878      676E 6564 
 8878      2063 6861 
 8878      7200 
 8879               	.LASF204:
 8880 0276 6E6F 745F 	.string"not_first_table"
 8880      6669 7273 
 8880      745F 7461 
 8880      626C 6500 
 8881               	.LASF97:
 8882 0286 5F75 6E73 	.string"_unspecified_locale_info"
 8882      7065 6369 
 8882      6669 6564 
 8882      5F6C 6F63 
 8882      616C 655F 
 8883               	.LASF90:
 8884 029f 5F72 6565 	.string"_reent"
 8884      6E74 00
 8885               	.LASF143:
 8886 02a6 5F67 6C6F 	.string"_global_impure_ptr"
 8886      6261 6C5F 
 8886      696D 7075 
 8886      7265 5F70 
 8886      7472 00
 8887               	.LASF164:
 8888 02b9 696E 7369 	.string"insize"
 8888      7A65 00
 8889               	.LASF25:
 8890 02c0 5F54 6872 	.string"_Thread_queue_Queue"
 8890      6561 645F 
 8890      7175 6575 
 8890      655F 5175 
 8890      6575 6500 
 8891               	.LASF16:
 8892 02d4 6368 6172 	.string"char"
 8892      00
 8893               	.LASF176:
 8894 02d9 4346 455F 	.string"CFE_FS_Decompress_State_NR"
 8894      4653 5F44 
 8894      6563 6F6D 
 8894      7072 6573 
 8894      735F 5374 
 8895               	.LASF69:
 8896 02f4 5F66 6E73 	.string"_fns"
 8896      00
 8897               	.LASF186:
68K GAS   			page 188


 8898 02f9 4653 5F67 	.string"FS_gz_inflate_fixed_Reentrant"
 8898      7A5F 696E 
 8898      666C 6174 
 8898      655F 6669 
 8898      7865 645F 
 8899               	.LASF81:
 8900 0317 5F63 6C6F 	.string"_close"
 8900      7365 00
 8901               	.LASF221:
 8902 031e 2F68 6F6D 	.string"/home/simulink/cFS_FreeRTOS_seL4/build/cpu1/cfe/fs"
 8902      652F 7369 
 8902      6D75 6C69 
 8902      6E6B 2F63 
 8902      4653 5F46 
 8903               	.LASF218:
 8904 0351 4346 455F 	.string"CFE_FS_Decompress"
 8904      4653 5F44 
 8904      6563 6F6D 
 8904      7072 6573 
 8904      7300 
 8905               	.LASF24:
 8906 0363 5F54 6963 	.string"_Ticket_lock_Control"
 8906      6B65 745F 
 8906      6C6F 636B 
 8906      5F43 6F6E 
 8906      7472 6F6C 
 8907               	.LASF165:
 8908 0378 696E 7074 	.string"inptr"
 8908      7200 
 8909               	.LASF174:
 8910 037e 6875 6654 	.string"hufTable"
 8910      6162 6C65 
 8910      00
 8911               	.LASF208:
 8912 0387 666C 6167 	.string"flags"
 8912      7300 
 8913               	.LASF187:
 8914 038d 6370 6C65 	.string"cplens"
 8914      6E73 00
 8915               	.LASF201:
 8916 0394 4653 5F67 	.string"FS_gz_huft_build_Reentrant"
 8916      7A5F 6875 
 8916      6674 5F62 
 8916      7569 6C64 
 8916      5F52 6565 
 8917               	.LASF28:
 8918 03af 5F6F 776E 	.string"_owner"
 8918      6572 00
 8919               	.LASF158:
 8920 03b6 6F70 7472 	.string"optreset"
 8920      6573 6574 
 8920      00
 8921               	.LASF159:
 8922 03bf 4875 6654 	.string"HufTableV"
 8922      6162 6C65 
 8922      5600 
 8923               	.LASF200:
68K GAS   			page 189


 8924 03c9 4653 5F67 	.string"FS_gz_inflate_Reentrant"
 8924      7A5F 696E 
 8924      666C 6174 
 8924      655F 5265 
 8924      656E 7472 
 8925               	.LASF177:
 8926 03e1 7472 6163 	.string"trace"
 8926      6500 
 8927               	.LASF148:
 8928 03e7 5F74 7A6E 	.string"_tzname"
 8928      616D 6500 
 8929               	.LASF166:
 8930 03ef 6279 7465 	.string"bytes_in"
 8930      735F 696E 
 8930      00
 8931               	.LASF36:
 8932 03f8 5F6E 6573 	.string"_nest_level"
 8932      745F 6C65 
 8932      7665 6C00 
 8933               	.LASF77:
 8934 0404 5F63 6F6F 	.string"_cookie"
 8934      6B69 6500 
 8935               	.LASF193:
 8936 040c 6C62 6974 	.string"lbits"
 8936      7300 
 8937               	.LASF51:
 8938 0412 5F77 6473 	.string"_wds"
 8938      00
 8939               	.LASF108:
 8940 0417 5F73 6967 	.string"_sig_func"
 8940      5F66 756E 
 8940      6300 
 8941               	.LASF85:
 8942 0421 5F6F 6666 	.string"_offset"
 8942      7365 7400 
 8943               	.LASF106:
 8944 0429 5F63 7674 	.string"_cvtbuf"
 8944      6275 6600 
 8945               	.LASF178:
 8946 0431 6372 635F 	.string"crc_32_tab"
 8946      3332 5F74 
 8946      6162 00
 8947               	.LASF198:
 8948 043c 696E 6465 	.string"index"
 8948      7800 
 8949               	.LASF21:
 8950 0442 5F6E 6578 	.string"_next_ticket"
 8950      745F 7469 
 8950      636B 6574 
 8950      00
 8951               	.LASF216:
 8952 044f 7372 6346 	.string"srcFileName"
 8952      696C 654E 
 8952      616D 6500 
 8953               	.LASF155:
 8954 045b 6F70 7469 	.string"optind"
 8954      6E64 00
68K GAS   			page 190


 8955               	.LASF103:
 8956 0462 5F70 3573 	.string"_p5s"
 8956      00
 8957               	.LASF13:
 8958 0467 6C6F 6E67 	.string"long unsigned int"
 8958      2075 6E73 
 8958      6967 6E65 
 8958      6420 696E 
 8958      7400 
 8959               	.LASF163:
 8960 0479 6F75 7463 	.string"outcnt"
 8960      6E74 00
 8961               	.LASF73:
 8962 0480 5F5F 7346 	.string"__sFILE"
 8962      494C 4500 
 8963               	.LASF99:
 8964 0488 5F5F 7364 	.string"__sdidinit"
 8964      6964 696E 
 8964      6974 00
 8965               	.LASF89:
 8966 0493 5F66 6C61 	.string"_flags2"
 8966      6773 3200 
 8967               	.LASF175:
 8968 049b 4346 455F 	.string"CFE_FS_Decompress_State_t"
 8968      4653 5F44 
 8968      6563 6F6D 
 8968      7072 6573 
 8968      735F 5374 
 8969               	.LASF37:
 8970 04b5 5F4C 4F43 	.string"_LOCK_RECURSIVE_T"
 8970      4B5F 5245 
 8970      4355 5253 
 8970      4956 455F 
 8970      5400 
 8971               	.LASF91:
 8972 04c7 5F65 7272 	.string"_errno"
 8972      6E6F 00
 8973               	.LASF170:
 8974 04ce 6F75 7462 	.string"outbuf"
 8974      7566 00
 8975               	.LASF206:
 8976 04d5 4653 5F67 	.string"FS_gz_fill_inbuf_Reentrant"
 8976      7A5F 6669 
 8976      6C6C 5F69 
 8976      6E62 7566 
 8976      5F52 6565 
 8977               	.LASF129:
 8978 04f0 5F73 6967 	.string"_signal_buf"
 8978      6E61 6C5F 
 8978      6275 6600 
 8979               	.LASF47:
 8980 04fc 5F42 6967 	.string"_Bigint"
 8980      696E 7400 
 8981               	.LASF49:
 8982 0504 5F6D 6178 	.string"_maxwds"
 8982      7764 7300 
 8983               	.LASF100:
68K GAS   			page 191


 8984 050c 5F5F 636C 	.string"__cleanup"
 8984      6561 6E75 
 8984      7000 
 8985               	.LASF214:
 8986 0516 4653 5F67 	.string"FS_gz_clear_bufs_Reentrant"
 8986      7A5F 636C 
 8986      6561 725F 
 8986      6275 6673 
 8986      5F52 6565 
 8987               	.LASF96:
 8988 0531 5F65 6D65 	.string"_emergency"
 8988      7267 656E 
 8988      6379 00
 8989               	.LASF8:
 8990 053c 6C6F 6E67 	.string"long long int"
 8990      206C 6F6E 
 8990      6720 696E 
 8990      7400 
 8991               	.LASF112:
 8992 054a 5F6E 696F 	.string"_niobs"
 8992      6273 00
 8993               	.LASF169:
 8994 0551 696E 6275 	.string"inbuf"
 8994      6600 
 8995               	.LASF109:
 8996 0557 5F5F 7367 	.string"__sglue"
 8996      6C75 6500 
 8997               	.LASF138:
 8998 055f 5F6E 6D61 	.string"_nmalloc"
 8998      6C6C 6F63 
 8998      00
 8999               	.LASF122:
 9000 0568 5F67 616D 	.string"_gamma_signgam"
 9000      6D61 5F73 
 9000      6967 6E67 
 9000      616D 00
 9001               	.LASF213:
 9002 0577 4653 5F67 	.string"FS_gz_flush_window_Reentrant"
 9002      7A5F 666C 
 9002      7573 685F 
 9002      7769 6E64 
 9002      6F77 5F52 
 9003               	.LASF104:
 9004 0594 5F66 7265 	.string"_freelist"
 9004      656C 6973 
 9004      7400 
 9005               	.LASF113:
 9006 059e 5F69 6F62 	.string"_iobs"
 9006      7300 
 9007               	.LASF111:
 9008 05a4 5F67 6C75 	.string"_glue"
 9008      6500 
 9009               	.LASF50:
 9010 05aa 5F73 6967 	.string"_sign"
 9010      6E00 
 9011               	.LASF183:
 9012 05b0 6F72 6967 	.string"orig_crc"
68K GAS   			page 192


 9012      5F63 7263 
 9012      00
 9013               	.LASF23:
 9014 05b9 756E 7369 	.string"unsigned int"
 9014      676E 6564 
 9014      2069 6E74 
 9014      00
 9015               	.LASF146:
 9016 05c6 5F74 696D 	.string"_timezone"
 9016      657A 6F6E 
 9016      6500 
 9017               	.LASF136:
 9018 05d0 5F68 5F65 	.string"_h_errno"
 9018      7272 6E6F 
 9018      00
 9019               	.LASF134:
 9020 05d9 5F77 6372 	.string"_wcrtomb_state"
 9020      746F 6D62 
 9020      5F73 7461 
 9020      7465 00
 9021               	.LASF56:
 9022 05e8 5F5F 746D 	.string"__tm_mday"
 9022      5F6D 6461 
 9022      7900 
 9023               	.LASF107:
 9024 05f2 5F6E 6577 	.string"_new"
 9024      00
 9025               	.LASF29:
 9026 05f7 5F6E 616D 	.string"_name"
 9026      6500 
 9027               	.LASF82:
 9028 05fd 5F75 6275 	.string"_ubuf"
 9028      6600 
 9029               	.LASF150:
 9030 0603 5265 6C69 	.string"Reliability"
 9030      6162 696C 
 9030      6974 7900 
 9031               	.LASF94:
 9032 060f 5F73 7464 	.string"_stderr"
 9032      6572 7200 
 9033               	.LASF127:
 9034 0617 5F77 6374 	.string"_wctomb_state"
 9034      6F6D 625F 
 9034      7374 6174 
 9034      6500 
 9035               	.LASF88:
 9036 0625 5F6D 6273 	.string"_mbstate"
 9036      7461 7465 
 9036      00
 9037               	.LASF123:
 9038 062e 5F72 616E 	.string"_rand_next"
 9038      645F 6E65 
 9038      7874 00
 9039               	.LASF74:
 9040 0639 5F66 6C61 	.string"_flags"
 9040      6773 00
 9041               	.LASF194:
68K GAS   			page 193


 9042 0640 6462 6974 	.string"dbits"
 9042      7300 
 9043               	.LASF67:
 9044 0646 5F61 7465 	.string"_atexit"
 9044      7869 7400 
 9045               	.LASF42:
 9046 064e 5F5F 636F 	.string"__count"
 9046      756E 7400 
 9047               	.LASF59:
 9048 0656 5F5F 746D 	.string"__tm_wday"
 9048      5F77 6461 
 9048      7900 
 9049               	.LASF18:
 9050 0660 6C6F 6E67 	.string"long double"
 9050      2064 6F75 
 9050      626C 6500 
 9051               	.LASF160:
 9052 066c 4875 6654 	.string"HufTable"
 9052      6162 6C65 
 9052      00
 9053               	.LASF207:
 9054 0675 4653 5F67 	.string"FS_gz_eat_header_Reentrant"
 9054      7A5F 6561 
 9054      745F 6865 
 9054      6164 6572 
 9054      5F52 6565 
 9055               	.LASF60:
 9056 0690 5F5F 746D 	.string"__tm_yday"
 9056      5F79 6461 
 9056      7900 
 9057               	.LASF34:
 9058 069a 5F4D 7574 	.string"_Mutex_recursive_Control"
 9058      6578 5F72 
 9058      6563 7572 
 9058      7369 7665 
 9058      5F43 6F6E 
 9059               	.LASF205:
 9060 06b3 677A 5F77 	.string"gz_window_position"
 9060      696E 646F 
 9060      775F 706F 
 9060      7369 7469 
 9060      6F6E 00
 9061               	.LASF27:
 9062 06c6 5F68 6561 	.string"_heads"
 9062      6473 00
 9063               	.LASF115:
 9064 06cd 5F73 6565 	.string"_seed"
 9064      6400 
 9065               	.LASF33:
 9066 06d3 5F51 7565 	.string"_Queue"
 9066      7565 00
 9067               	.LASF217:
 9068 06da 6473 7446 	.string"dstFileName"
 9068      696C 654E 
 9068      616D 6500 
 9069               	.LASF20:
 9070 06e6 5F66 706F 	.string"_fpos_t"
68K GAS   			page 194


 9070      735F 7400 
 9071               	.LASF41:
 9072 06ee 5F5F 7763 	.string"__wchb"
 9072      6862 00
 9073               	.LASF126:
 9074 06f5 5F6D 6274 	.string"_mbtowc_state"
 9074      6F77 635F 
 9074      7374 6174 
 9074      6500 
 9075               	.LASF157:
 9076 0703 6F70 746F 	.string"optopt"
 9076      7074 00
 9077               	.LASF14:
 9078 070a 6C6F 6E67 	.string"long long unsigned int"
 9078      206C 6F6E 
 9078      6720 756E 
 9078      7369 676E 
 9078      6564 2069 
 9079               	.LASF192:
 9080 0721 4653 5F67 	.string"FS_gz_inflate_dynamic_Reentrant"
 9080      7A5F 696E 
 9080      666C 6174 
 9080      655F 6479 
 9080      6E61 6D69 
 9081               	.LASF64:
 9082 0741 5F64 736F 	.string"_dso_handle"
 9082      5F68 616E 
 9082      646C 6500 
 9083               	.LASF114:
 9084 074d 5F72 616E 	.string"_rand48"
 9084      6434 3800 
 9085               	.LASF93:
 9086 0755 5F73 7464 	.string"_stdout"
 9086      6F75 7400 
 9087               	.LASF181:
 9088 075d 5374 6174 	.string"State"
 9088      6500 
 9089               	.LASF197:
 9090 0763 4653 5F67 	.string"FS_gz_inflate_codes_Reentrant"
 9090      7A5F 696E 
 9090      666C 6174 
 9090      655F 636F 
 9090      6465 735F 
 9091               	.LASF84:
 9092 0781 5F62 6C6B 	.string"_blksize"
 9092      7369 7A65 
 9092      00
 9093               	.LASF71:
 9094 078a 5F62 6173 	.string"_base"
 9094      6500 
 9095               	.LASF156:
 9096 0790 6F70 7465 	.string"opterr"
 9096      7272 00
 9097               	.LASF119:
 9098 0797 5F73 7472 	.string"_strtok_last"
 9098      746F 6B5F 
 9098      6C61 7374 
68K GAS   			page 195


 9098      00
 9099               	.LASF132:
 9100 07a4 5F6D 6272 	.string"_mbrtowc_state"
 9100      746F 7763 
 9100      5F73 7461 
 9100      7465 00
 9101               	.LASF45:
 9102 07b3 5F66 6C6F 	.string"_flock_t"
 9102      636B 5F74 
 9102      00
 9103               	.LASF191:
 9104 07bc 6572 726F 	.string"error_code"
 9104      725F 636F 
 9104      6465 00
 9105               	.LASF110:
 9106 07c7 5F5F 4649 	.string"__FILE"
 9106      4C45 00
 9107               	.LASF196:
 9108 07ce 6D61 736B 	.string"mask_bits"
 9108      5F62 6974 
 9108      7300 
 9109               	.LASF87:
 9110 07d8 5F6C 6F63 	.string"_lock"
 9110      6B00 
 9111               	.LASF202:
 9112 07de 6875 6674 	.string"huft_index_q"
 9112      5F69 6E64 
 9112      6578 5F71 
 9112      00
 9113               	.LASF44:
 9114 07eb 5F6D 6273 	.string"_mbstate_t"
 9114      7461 7465 
 9114      5F74 00
 9115               	.LASF203:
 9116 07f6 6875 6674 	.string"huft_index_t"
 9116      5F69 6E64 
 9116      6578 5F74 
 9116      00
 9117               	.LASF124:
 9118 0803 5F72 3438 	.string"_r48"
 9118      00
 9119               	.LASF39:
 9120 0808 7769 6E74 	.string"wint_t"
 9120      5F74 00
 9121               	.LASF0:
 9122 080f 6F73 616C 	.string"osalbool"
 9122      626F 6F6C 
 9122      00
 9123               	.LASF48:
 9124 0818 5F6E 6578 	.string"_next"
 9124      7400 
 9125               	.LASF86:
 9126 081e 5F64 6174 	.string"_data"
 9126      6100 
 9127               	.LASF152:
 9128 0824 4346 455F 	.string"CFE_SB_Default_Qos"
 9128      5342 5F44 
68K GAS   			page 196


 9128      6566 6175 
 9128      6C74 5F51 
 9128      6F73 00
 9129               	.LASF35:
 9130 0837 5F4D 7574 	.string"_Mutex"
 9130      6578 00
 9131               	.LASF179:
 9132 083e 4653 5F67 	.string"FS_gz_updcrc"
 9132      7A5F 7570 
 9132      6463 7263 
 9132      00
 9133               	.LASF9:
 9134 084b 7569 6E74 	.string"uint8"
 9134      3800 
 9135               	.LASF189:
 9136 0851 6370 6469 	.string"cpdist"
 9136      7374 00
 9137               	.LASF125:
 9138 0858 5F6D 626C 	.string"_mblen_state"
 9138      656E 5F73 
 9138      7461 7465 
 9138      00
 9139               	.LASF5:
 9140 0865 7368 6F72 	.string"short int"
 9140      7420 696E 
 9140      7400 
 9141               	.LASF145:
 9142 086f 7375 626F 	.string"suboptarg"
 9142      7074 6172 
 9142      6700 
 9143               	.LASF65:
 9144 0879 5F66 6E74 	.string"_fntypes"
 9144      7970 6573 
 9144      00
 9145               	.LASF58:
 9146 0882 5F5F 746D 	.string"__tm_year"
 9146      5F79 6561 
 9146      7200 
 9147               	.LASF211:
 9148 088c 7374 616D 	.string"stamp"
 9148      7000 
 9149               	.LASF76:
 9150 0892 5F6C 6266 	.string"_lbfsize"
 9150      7369 7A65 
 9150      00
 9151               	.LASF95:
 9152 089b 5F69 6E63 	.string"_inc"
 9152      00
 9153               	.LASF68:
 9154 08a0 5F69 6E64 	.string"_ind"
 9154      00
 9155               	.LASF17:
 9156 08a5 5F5F 696E 	.string"__int64_t"
 9156      7436 345F 
 9156      7400 
 9157               	.LASF4:
 9158 08af 696E 7431 	.string"int16"
68K GAS   			page 197


 9158      3600 
 9159               	.LASF70:
 9160 08b5 5F5F 7362 	.string"__sbuf"
 9160      7566 00
 9161               	.LASF66:
 9162 08bc 5F69 735F 	.string"_is_cxa"
 9162      6378 6100 
 9163               	.LASF137:
 9164 08c4 5F6E 6578 	.string"_nextf"
 9164      7466 00
 9165               	.LASF180:
 9166 08cb 4653 5F67 	.string"FS_gz_unzip_Reentrant"
 9166      7A5F 756E 
 9166      7A69 705F 
 9166      5265 656E 
 9166      7472 616E 
 9167               	.LASF167:
 9168 08e1 6279 7465 	.string"bytes_out"
 9168      735F 6F75 
 9168      7400 
 9169               	.LASF98:
 9170 08eb 5F6C 6F63 	.string"_locale"
 9170      616C 6500 
 9171               	.LASF46:
 9172 08f3 5F5F 554C 	.string"__ULong"
 9172      6F6E 6700 
 9173               	.LASF101:
 9174 08fb 5F72 6573 	.string"_result"
 9174      756C 7400 
 9175               	.LASF173:
 9176 0903 6D61 785F 	.string"max_hufts"
 9176      6875 6674 
 9176      7300 
 9177               	.LASF26:
 9178 090d 5F4C 6F63 	.string"_Lock"
 9178      6B00 
 9179               	.LASF22:
 9180 0913 5F6E 6F77 	.string"_now_serving"
 9180      5F73 6572 
 9180      7669 6E67 
 9180      00
 9181               	.LASF154:
 9182 0920 6F70 7461 	.string"optarg"
 9182      7267 00
 9183               	.LASF19:
 9184 0927 5F6F 6666 	.string"_off_t"
 9184      5F74 00
 9185               	.LASF117:
 9186 092e 5F61 6464 	.string"_add"
 9186      00
 9187               	.LASF219:
 9188 0933 474E 5520 	.string"GNU C11 7.3.0 20180125 (RTEMS 5, RSB d2b25d131d55adcb38219f2cd8cbec2436ee78ab, Newlib 3.0.0) -malign-int -mcpu=528x -g -O0 -fomit-frame-pointer"
 9188      4331 3120 
 9188      372E 332E 
 9188      3020 3230 
 9188      3138 3031 
 9189               	.LASF11:
68K GAS   			page 198


 9190 09c3 7368 6F72 	.string"short unsigned int"
 9190      7420 756E 
 9190      7369 676E 
 9190      6564 2069 
 9190      6E74 00
 9191               	.LASF209:
 9192 09d6 6D61 6769 	.string"magic"
 9192      6300 
 9193               	.LASF55:
 9194 09dc 5F5F 746D 	.string"__tm_hour"
 9194      5F68 6F75 
 9194      7200 
 9195               	.LASF184:
 9196 09e6 6F72 6967 	.string"orig_len"
 9196      5F6C 656E 
 9196      00
 9197               	.LASF6:
 9198 09ef 696E 7433 	.string"int32"
 9198      3200 
 9199               	.LASF133:
 9200 09f5 5F6D 6273 	.string"_mbsrtowcs_state"
 9200      7274 6F77 
 9200      6373 5F73 
 9200      7461 7465 
 9200      00
 9201               	.LASF195:
 9202 0a06 626F 7264 	.string"border"
 9202      6572 00
 9203               	.LASF63:
 9204 0a0d 5F66 6E61 	.string"_fnargs"
 9204      7267 7300 
 9205               	.LASF188:
 9206 0a15 6370 6C65 	.string"cplext"
 9206      7874 00
 9207               	.LASF61:
 9208 0a1c 5F5F 746D 	.string"__tm_isdst"
 9208      5F69 7364 
 9208      7374 00
 9209               	.LASF172:
 9210 0a27 6875 6674 	.string"hufts"
 9210      7300 
 9211               	.LASF147:
 9212 0a2d 5F64 6179 	.string"_daylight"
 9212      6C69 6768 
 9212      7400 
 9213               	.LASF54:
 9214 0a37 5F5F 746D 	.string"__tm_min"
 9214      5F6D 696E 
 9214      00
 9215               	.LASF10:
 9216 0a40 7569 6E74 	.string"uint16"
 9216      3136 00
 9217               	.LASF130:
 9218 0a47 5F67 6574 	.string"_getdate_err"
 9218      6461 7465 
 9218      5F65 7272 
 9218      00
68K GAS   			page 199


 9219               	.LASF151:
 9220 0a54 4346 455F 	.string"CFE_SB_Qos_t"
 9220      5342 5F51 
 9220      6F73 5F74 
 9220      00
 9221               	.ident"GCC: (GNU) 7.3.0 20180125 (RTEMS 5, RSB d2b25d131d55adcb38219f2cd8cbec2436ee78ab, Newlib 3.0.0)"
68K GAS   			page 200


DEFINED SYMBOLS
                            *ABS*:0000000000000000 cfe_fs_decompress.c
                            *COM*:000000000001dfe0 CFE_FS_Decompress_State_NR
    {standard input}:8      .bss:0000000000000000 trace
    {standard input}:12     .text:0000000000000000 CFE_FS_Decompress
    {standard input}:4633   .rodata:000000000000006b __func__.5610
    {standard input}:59     .text:000000000000003e CFE_FS_Decompress_Reentrant
    {standard input}:4382   .text:00000000000027b0 FS_gz_unzip_Reentrant
    {standard input}:215    .text:000000000000017a FS_gz_clear_bufs_Reentrant
    {standard input}:249    .text:00000000000001a6 FS_gz_eat_header_Reentrant
    {standard input}:1019   .text:00000000000008ba FS_gz_fill_inbuf_Reentrant
    {standard input}:1125   .text:0000000000000998 FS_gz_flush_window_Reentrant
    {standard input}:4574   .text:0000000000002948 FS_gz_updcrc
    {standard input}:1224   .text:0000000000000a64 FS_gz_huft_build_Reentrant
    {standard input}:1923   .text:0000000000001038 FS_gz_inflate_Reentrant
    {standard input}:2000   .text:00000000000010be FS_gz_inflate_block_Reentrant
    {standard input}:4080   .text:0000000000002520 FS_gz_inflate_stored_Reentrant
    {standard input}:3864   .text:0000000000002330 FS_gz_inflate_fixed_Reentrant
    {standard input}:2980   .text:0000000000001a9a FS_gz_inflate_dynamic_Reentrant
    {standard input}:2206   .text:000000000000129e FS_gz_inflate_codes_Reentrant
    {standard input}:4639   .data:0000000000000000 mask_bits.5753
    {standard input}:4660   .data:0000000000000024 border.5797
    {standard input}:4683   .data:0000000000000070 mask_bits.5802
    {standard input}:4704   .data:0000000000000094 lbits.5795
    {standard input}:4744   .data:00000000000000d6 cplext.5799
    {standard input}:4709   .data:0000000000000098 cplens.5798
    {standard input}:4779   .data:0000000000000114 dbits.5796
    {standard input}:4818   .data:0000000000000154 cpdext.5801
    {standard input}:4784   .data:0000000000000118 cpdist.5800
    {standard input}:4887   .data:00000000000001ce cplext.5865
    {standard input}:4852   .data:0000000000000190 cplens.5864
    {standard input}:4956   .data:0000000000000248 cpdext.5867
    {standard input}:4922   .data:000000000000020c cpdist.5866
    {standard input}:4990   .data:0000000000000284 crc.5927
    {standard input}:4995   .data:0000000000000288 crc_32_tab.5925

UNDEFINED SYMBOLS
CFE_FS_LockSharedData
CFE_FS_UnlockSharedData
OS_open
CFE_ES_WriteToSysLog
OS_creat
OS_close
CFE_PSP_MemSet
OS_remove
memcmp
OS_read
OS_write
memcpy
