68K GAS   			page 1


   1               	
   2               	.file"cfe_es_cds.c"
   3               	.text
   4               	.Ltext0:
   5               	.cfi_sections.debug_frame
   6               	.section.rodata
   7               	.LC0:
   8 0000 4346 455F 	.string"CFE_CDS:EarlyInit-Read error validating CDS (Err=0x%08X)\n"
   8      4344 533A 
   8      4561 726C 
   8      7949 6E69 
   8      742D 5265 
   9               	.LC1:
  10 003a 4344 535F 	.string"CDS_REG_MUT"
  10      5245 475F 
  10      4D55 5400 
  11               	.LC2:
  12 0046 4346 455F 	.string"CFE_CDS:EarlyInit-CDS Size (%d) less than required (%d)\n"
  12      4344 533A 
  12      4561 726C 
  12      7949 6E69 
  12      742D 4344 
  13               	.LC3:
  14 007f 4346 455F 	.string"CFE_CDS:EarlyInit-Unable to obtain CDS Size from BSP (Err=0x%08X)\n"
  14      4344 533A 
  14      4561 726C 
  14      7949 6E69 
  14      742D 556E 
  15               	.text
  16               	.align2
  17               	.globlCFE_ES_CDS_EarlyInit
  18               	.typeCFE_ES_CDS_EarlyInit, @function
  19               	CFE_ES_CDS_EarlyInit:
  20               	.LFB59:
  21               	.file 1 "/home/simulink/cFS_FreeRTOS_seL4/cfe/fsw/cfe-core/src/es/cfe_es_cds.c"
   1:/home/simulink/cFS_FreeRTOS_seL4/cfe/fsw/cfe-core/src/es/cfe_es_cds.c **** /*
   2:/home/simulink/cFS_FreeRTOS_seL4/cfe/fsw/cfe-core/src/es/cfe_es_cds.c **** **  File:  
   3:/home/simulink/cFS_FreeRTOS_seL4/cfe/fsw/cfe-core/src/es/cfe_es_cds.c **** **    cfe_es_cds.c
   4:/home/simulink/cFS_FreeRTOS_seL4/cfe/fsw/cfe-core/src/es/cfe_es_cds.c **** **
   5:/home/simulink/cFS_FreeRTOS_seL4/cfe/fsw/cfe-core/src/es/cfe_es_cds.c **** **
   6:/home/simulink/cFS_FreeRTOS_seL4/cfe/fsw/cfe-core/src/es/cfe_es_cds.c **** **
   7:/home/simulink/cFS_FreeRTOS_seL4/cfe/fsw/cfe-core/src/es/cfe_es_cds.c **** **      Copyright (c) 2004-2012, United States government as represented by the 
   8:/home/simulink/cFS_FreeRTOS_seL4/cfe/fsw/cfe-core/src/es/cfe_es_cds.c **** **      administrator of the National Aeronautics Space Administration.  
   9:/home/simulink/cFS_FreeRTOS_seL4/cfe/fsw/cfe-core/src/es/cfe_es_cds.c **** **      All rights reserved. This software(cFE) was created at NASA Goddard 
  10:/home/simulink/cFS_FreeRTOS_seL4/cfe/fsw/cfe-core/src/es/cfe_es_cds.c **** **      Space Flight Center pursuant to government contracts.
  11:/home/simulink/cFS_FreeRTOS_seL4/cfe/fsw/cfe-core/src/es/cfe_es_cds.c **** **
  12:/home/simulink/cFS_FreeRTOS_seL4/cfe/fsw/cfe-core/src/es/cfe_es_cds.c **** **      This is governed by the NASA Open Source Agreement and may be used, 
  13:/home/simulink/cFS_FreeRTOS_seL4/cfe/fsw/cfe-core/src/es/cfe_es_cds.c **** **      distributed and modified only pursuant to the terms of that agreement.
  14:/home/simulink/cFS_FreeRTOS_seL4/cfe/fsw/cfe-core/src/es/cfe_es_cds.c **** **
  15:/home/simulink/cFS_FreeRTOS_seL4/cfe/fsw/cfe-core/src/es/cfe_es_cds.c **** **  Purpose:  
  16:/home/simulink/cFS_FreeRTOS_seL4/cfe/fsw/cfe-core/src/es/cfe_es_cds.c **** **    This file implements the cFE Executive Services Critical Data Store functions.
  17:/home/simulink/cFS_FreeRTOS_seL4/cfe/fsw/cfe-core/src/es/cfe_es_cds.c **** **
  18:/home/simulink/cFS_FreeRTOS_seL4/cfe/fsw/cfe-core/src/es/cfe_es_cds.c **** **  References:
  19:/home/simulink/cFS_FreeRTOS_seL4/cfe/fsw/cfe-core/src/es/cfe_es_cds.c **** **     Flight Software Branch C Coding Standard Version 1.0a
  20:/home/simulink/cFS_FreeRTOS_seL4/cfe/fsw/cfe-core/src/es/cfe_es_cds.c **** **     cFE Flight Software Application Developers Guide
  21:/home/simulink/cFS_FreeRTOS_seL4/cfe/fsw/cfe-core/src/es/cfe_es_cds.c **** **
  22:/home/simulink/cFS_FreeRTOS_seL4/cfe/fsw/cfe-core/src/es/cfe_es_cds.c **** **  Notes:
68K GAS   			page 2


  23:/home/simulink/cFS_FreeRTOS_seL4/cfe/fsw/cfe-core/src/es/cfe_es_cds.c **** ** 
  24:/home/simulink/cFS_FreeRTOS_seL4/cfe/fsw/cfe-core/src/es/cfe_es_cds.c **** **  Modification History:
  25:/home/simulink/cFS_FreeRTOS_seL4/cfe/fsw/cfe-core/src/es/cfe_es_cds.c **** **
  26:/home/simulink/cFS_FreeRTOS_seL4/cfe/fsw/cfe-core/src/es/cfe_es_cds.c **** ** $Log: cfe_es_cds.c  $
  27:/home/simulink/cFS_FreeRTOS_seL4/cfe/fsw/cfe-core/src/es/cfe_es_cds.c **** ** Revision 1.7 2014/08/22 15:50:11GMT-05:00 lwalling 
  28:/home/simulink/cFS_FreeRTOS_seL4/cfe/fsw/cfe-core/src/es/cfe_es_cds.c **** ** Changed signed loop counters to unsigned
  29:/home/simulink/cFS_FreeRTOS_seL4/cfe/fsw/cfe-core/src/es/cfe_es_cds.c **** ** Revision 1.6 2014/05/05 13:21:40EDT acudmore 
  30:/home/simulink/cFS_FreeRTOS_seL4/cfe/fsw/cfe-core/src/es/cfe_es_cds.c **** ** Changed strncpy call to use correct define ( CFE_ES_CDS_MAX_FULL_NAME_LEN )
  31:/home/simulink/cFS_FreeRTOS_seL4/cfe/fsw/cfe-core/src/es/cfe_es_cds.c **** ** Revision 1.5 2014/04/23 15:25:52GMT-05:00 acudmore 
  32:/home/simulink/cFS_FreeRTOS_seL4/cfe/fsw/cfe-core/src/es/cfe_es_cds.c **** ** Reversed "if" clause order to check if array index is out of bounds before using it.
  33:/home/simulink/cFS_FreeRTOS_seL4/cfe/fsw/cfe-core/src/es/cfe_es_cds.c **** ** Revision 1.4 2012/02/08 16:24:11GMT-05:00 lwalling 
  34:/home/simulink/cFS_FreeRTOS_seL4/cfe/fsw/cfe-core/src/es/cfe_es_cds.c **** ** Added test for function result
  35:/home/simulink/cFS_FreeRTOS_seL4/cfe/fsw/cfe-core/src/es/cfe_es_cds.c **** ** Revision 1.3 2012/01/13 11:50:00EST acudmore 
  36:/home/simulink/cFS_FreeRTOS_seL4/cfe/fsw/cfe-core/src/es/cfe_es_cds.c **** ** Changed license text to reflect open source
  37:/home/simulink/cFS_FreeRTOS_seL4/cfe/fsw/cfe-core/src/es/cfe_es_cds.c **** ** Revision 1.2 2009/06/10 09:08:53EDT acudmore 
  38:/home/simulink/cFS_FreeRTOS_seL4/cfe/fsw/cfe-core/src/es/cfe_es_cds.c **** ** Converted OS_Mem* and OS_BSP* API to CFE_PSP_* API
  39:/home/simulink/cFS_FreeRTOS_seL4/cfe/fsw/cfe-core/src/es/cfe_es_cds.c **** ** Revision 1.1 2008/04/17 08:05:03EDT ruperera 
  40:/home/simulink/cFS_FreeRTOS_seL4/cfe/fsw/cfe-core/src/es/cfe_es_cds.c **** ** Initial revision
  41:/home/simulink/cFS_FreeRTOS_seL4/cfe/fsw/cfe-core/src/es/cfe_es_cds.c **** ** Member added to project c:/MKSDATA/MKS-REPOSITORY/MKS-CFE-PROJECT/fsw/cfe-core/src/es/project.pj
  42:/home/simulink/cFS_FreeRTOS_seL4/cfe/fsw/cfe-core/src/es/cfe_es_cds.c **** ** Revision 1.2.1.16 2007/07/11 11:42:30EDT David Kobe (dlkobe) 
  43:/home/simulink/cFS_FreeRTOS_seL4/cfe/fsw/cfe-core/src/es/cfe_es_cds.c **** ** Only allocates CDS Registry Record after successful registration
  44:/home/simulink/cFS_FreeRTOS_seL4/cfe/fsw/cfe-core/src/es/cfe_es_cds.c **** ** Revision 1.2.1.15 2007/06/07 09:35:33EDT dlkobe 
  45:/home/simulink/cFS_FreeRTOS_seL4/cfe/fsw/cfe-core/src/es/cfe_es_cds.c **** ** Corrected Error in Delete CDS function
  46:/home/simulink/cFS_FreeRTOS_seL4/cfe/fsw/cfe-core/src/es/cfe_es_cds.c **** ** Revision 1.2.1.14 2007/05/04 15:51:31EDT dlkobe 
  47:/home/simulink/cFS_FreeRTOS_seL4/cfe/fsw/cfe-core/src/es/cfe_es_cds.c **** ** Added CFE_ES_DeleteCDS function to allow TBL and ES to use common code
  48:/home/simulink/cFS_FreeRTOS_seL4/cfe/fsw/cfe-core/src/es/cfe_es_cds.c **** ** Revision 1.2.1.13 2007/04/28 16:08:07EDT dlkobe 
  49:/home/simulink/cFS_FreeRTOS_seL4/cfe/fsw/cfe-core/src/es/cfe_es_cds.c **** ** Corrected yet another file corruption
  50:/home/simulink/cFS_FreeRTOS_seL4/cfe/fsw/cfe-core/src/es/cfe_es_cds.c **** ** Revision 1.2.1.12 2007/04/28 15:57:01EDT dlkobe 
  51:/home/simulink/cFS_FreeRTOS_seL4/cfe/fsw/cfe-core/src/es/cfe_es_cds.c **** ** Added "cfe_es_cds.h" includes to resolve sudden errors.
  52:/home/simulink/cFS_FreeRTOS_seL4/cfe/fsw/cfe-core/src/es/cfe_es_cds.c **** ** Revision 1.2.1.11 2007/04/28 15:50:26EDT dlkobe 
  53:/home/simulink/cFS_FreeRTOS_seL4/cfe/fsw/cfe-core/src/es/cfe_es_cds.c **** ** Fixed typos leftover from restructuring
  54:/home/simulink/cFS_FreeRTOS_seL4/cfe/fsw/cfe-core/src/es/cfe_es_cds.c **** ** Revision 1.2.1.10 2007/04/28 15:48:45EDT dlkobe 
  55:/home/simulink/cFS_FreeRTOS_seL4/cfe/fsw/cfe-core/src/es/cfe_es_cds.c **** ** Correcting Corrupted File
  56:/home/simulink/cFS_FreeRTOS_seL4/cfe/fsw/cfe-core/src/es/cfe_es_cds.c **** ** Revision 1.2.1.9 2007/04/28 15:35:20EDT dlkobe 
  57:/home/simulink/cFS_FreeRTOS_seL4/cfe/fsw/cfe-core/src/es/cfe_es_cds.c **** ** Corrected Typos from restructuring
  58:/home/simulink/cFS_FreeRTOS_seL4/cfe/fsw/cfe-core/src/es/cfe_es_cds.c **** ** Revision 1.2.1.8 2007/04/28 15:32:38EDT dlkobe 
  59:/home/simulink/cFS_FreeRTOS_seL4/cfe/fsw/cfe-core/src/es/cfe_es_cds.c **** ** Restructured CFE_ES_RegisterCDS call to avoid Application Unknown Error
  60:/home/simulink/cFS_FreeRTOS_seL4/cfe/fsw/cfe-core/src/es/cfe_es_cds.c **** ** Revision 1.2.1.7 2007/04/28 15:04:43EDT dlkobe 
  61:/home/simulink/cFS_FreeRTOS_seL4/cfe/fsw/cfe-core/src/es/cfe_es_cds.c **** ** Corrected Variable Name Typo
  62:/home/simulink/cFS_FreeRTOS_seL4/cfe/fsw/cfe-core/src/es/cfe_es_cds.c **** ** Revision 1.2.1.6 2007/04/28 14:49:02EDT dlkobe 
  63:/home/simulink/cFS_FreeRTOS_seL4/cfe/fsw/cfe-core/src/es/cfe_es_cds.c **** ** Baseline Implementation of Critical Tables
  64:/home/simulink/cFS_FreeRTOS_seL4/cfe/fsw/cfe-core/src/es/cfe_es_cds.c **** ** Revision 1.2.1.5 2007/04/26 15:39:35EDT rjmcgraw 
  65:/home/simulink/cFS_FreeRTOS_seL4/cfe/fsw/cfe-core/src/es/cfe_es_cds.c **** ** Added error returns in CFE_ES_CDS_EarlyInit
  66:/home/simulink/cFS_FreeRTOS_seL4/cfe/fsw/cfe-core/src/es/cfe_es_cds.c **** ** Revision 1.2.1.4 2007/04/13 16:24:02EDT apcudmore 
  67:/home/simulink/cFS_FreeRTOS_seL4/cfe/fsw/cfe-core/src/es/cfe_es_cds.c **** ** Changed EarlyInit function to return int32 status
  68:/home/simulink/cFS_FreeRTOS_seL4/cfe/fsw/cfe-core/src/es/cfe_es_cds.c **** ** Revision 1.2.1.3 2007/04/04 16:06:41EDT dlkobe 
  69:/home/simulink/cFS_FreeRTOS_seL4/cfe/fsw/cfe-core/src/es/cfe_es_cds.c **** ** Made numerous changes to correct issues identified during ES code walkthrough
  70:/home/simulink/cFS_FreeRTOS_seL4/cfe/fsw/cfe-core/src/es/cfe_es_cds.c **** ** Revision 1.2.1.2 2006/10/30 15:28:29GMT-05:00 dlkobe 
  71:/home/simulink/cFS_FreeRTOS_seL4/cfe/fsw/cfe-core/src/es/cfe_es_cds.c **** ** Removed extra "PoolSize" variable
  72:/home/simulink/cFS_FreeRTOS_seL4/cfe/fsw/cfe-core/src/es/cfe_es_cds.c **** ** Revision 1.2.1.1 2006/10/30 11:05:04GMT-05:00 dlkobe 
  73:/home/simulink/cFS_FreeRTOS_seL4/cfe/fsw/cfe-core/src/es/cfe_es_cds.c **** ** Initial revision
  74:/home/simulink/cFS_FreeRTOS_seL4/cfe/fsw/cfe-core/src/es/cfe_es_cds.c **** ** Member added to project d:/mksdata/MKS-CFE-PROJECT/fsw/cfe-core/src/es/project.pj
  75:/home/simulink/cFS_FreeRTOS_seL4/cfe/fsw/cfe-core/src/es/cfe_es_cds.c **** **
  76:/home/simulink/cFS_FreeRTOS_seL4/cfe/fsw/cfe-core/src/es/cfe_es_cds.c **** */
  77:/home/simulink/cFS_FreeRTOS_seL4/cfe/fsw/cfe-core/src/es/cfe_es_cds.c **** 
  78:/home/simulink/cFS_FreeRTOS_seL4/cfe/fsw/cfe-core/src/es/cfe_es_cds.c **** /*
  79:/home/simulink/cFS_FreeRTOS_seL4/cfe/fsw/cfe-core/src/es/cfe_es_cds.c **** ** Required header files.
68K GAS   			page 3


  80:/home/simulink/cFS_FreeRTOS_seL4/cfe/fsw/cfe-core/src/es/cfe_es_cds.c **** */
  81:/home/simulink/cFS_FreeRTOS_seL4/cfe/fsw/cfe-core/src/es/cfe_es_cds.c **** #include "private/cfe_private.h"
  82:/home/simulink/cFS_FreeRTOS_seL4/cfe/fsw/cfe-core/src/es/cfe_es_cds.c **** #include "cfe_es_apps.h"
  83:/home/simulink/cFS_FreeRTOS_seL4/cfe/fsw/cfe-core/src/es/cfe_es_cds.c **** #include "cfe_es_cds.h"
  84:/home/simulink/cFS_FreeRTOS_seL4/cfe/fsw/cfe-core/src/es/cfe_es_cds.c **** #include "cfe_es_global.h"
  85:/home/simulink/cFS_FreeRTOS_seL4/cfe/fsw/cfe-core/src/es/cfe_es_cds.c **** #include "cfe_psp.h"
  86:/home/simulink/cFS_FreeRTOS_seL4/cfe/fsw/cfe-core/src/es/cfe_es_cds.c **** #include "cfe_es_cds_mempool.h"
  87:/home/simulink/cFS_FreeRTOS_seL4/cfe/fsw/cfe-core/src/es/cfe_es_cds.c **** 
  88:/home/simulink/cFS_FreeRTOS_seL4/cfe/fsw/cfe-core/src/es/cfe_es_cds.c **** #include <string.h>
  89:/home/simulink/cFS_FreeRTOS_seL4/cfe/fsw/cfe-core/src/es/cfe_es_cds.c **** #include <stdio.h>
  90:/home/simulink/cFS_FreeRTOS_seL4/cfe/fsw/cfe-core/src/es/cfe_es_cds.c **** #include <stdarg.h>
  91:/home/simulink/cFS_FreeRTOS_seL4/cfe/fsw/cfe-core/src/es/cfe_es_cds.c **** 
  92:/home/simulink/cFS_FreeRTOS_seL4/cfe/fsw/cfe-core/src/es/cfe_es_cds.c **** /* Define offset addresses for CDS data segments */
  93:/home/simulink/cFS_FreeRTOS_seL4/cfe/fsw/cfe-core/src/es/cfe_es_cds.c **** /* Each segment is guaranteed to start at a 4-byte offset boundary */
  94:/home/simulink/cFS_FreeRTOS_seL4/cfe/fsw/cfe-core/src/es/cfe_es_cds.c **** #define CDS_REG_SIZE_OFFSET ((sizeof(CFE_ES_Global.CDSVars.ValidityField)+3) & 0xfffffffc)
  95:/home/simulink/cFS_FreeRTOS_seL4/cfe/fsw/cfe-core/src/es/cfe_es_cds.c **** #define CDS_REG_OFFSET      (((CDS_REG_SIZE_OFFSET + sizeof(CFE_ES_Global.CDSVars.MaxNumRegEntries)
  96:/home/simulink/cFS_FreeRTOS_seL4/cfe/fsw/cfe-core/src/es/cfe_es_cds.c **** #define CDS_POOL_OFFSET     (((CDS_REG_OFFSET + (CFE_ES_CDS_MAX_NUM_ENTRIES * sizeof(CFE_ES_CDS_Reg
  97:/home/simulink/cFS_FreeRTOS_seL4/cfe/fsw/cfe-core/src/es/cfe_es_cds.c **** 
  98:/home/simulink/cFS_FreeRTOS_seL4/cfe/fsw/cfe-core/src/es/cfe_es_cds.c **** /*****************************************************************************/
  99:/home/simulink/cFS_FreeRTOS_seL4/cfe/fsw/cfe-core/src/es/cfe_es_cds.c **** /**
 100:/home/simulink/cFS_FreeRTOS_seL4/cfe/fsw/cfe-core/src/es/cfe_es_cds.c **** ** \brief Determines whether a CDS currently exists
 101:/home/simulink/cFS_FreeRTOS_seL4/cfe/fsw/cfe-core/src/es/cfe_es_cds.c **** **
 102:/home/simulink/cFS_FreeRTOS_seL4/cfe/fsw/cfe-core/src/es/cfe_es_cds.c **** ** \par Description
 103:/home/simulink/cFS_FreeRTOS_seL4/cfe/fsw/cfe-core/src/es/cfe_es_cds.c **** **        Reads a set of bytes from the beginning and end of the CDS memory
 104:/home/simulink/cFS_FreeRTOS_seL4/cfe/fsw/cfe-core/src/es/cfe_es_cds.c **** **        area and determines if a fixed pattern is present, thus determining
 105:/home/simulink/cFS_FreeRTOS_seL4/cfe/fsw/cfe-core/src/es/cfe_es_cds.c **** **        whether the CDS still likely contains valid data or not.
 106:/home/simulink/cFS_FreeRTOS_seL4/cfe/fsw/cfe-core/src/es/cfe_es_cds.c **** **
 107:/home/simulink/cFS_FreeRTOS_seL4/cfe/fsw/cfe-core/src/es/cfe_es_cds.c **** ** \par Assumptions, External Events, and Notes:
 108:/home/simulink/cFS_FreeRTOS_seL4/cfe/fsw/cfe-core/src/es/cfe_es_cds.c **** **          None
 109:/home/simulink/cFS_FreeRTOS_seL4/cfe/fsw/cfe-core/src/es/cfe_es_cds.c **** **
 110:/home/simulink/cFS_FreeRTOS_seL4/cfe/fsw/cfe-core/src/es/cfe_es_cds.c **** ** \return #CFE_SUCCESS         \copydoc CFE_SUCCESS
 111:/home/simulink/cFS_FreeRTOS_seL4/cfe/fsw/cfe-core/src/es/cfe_es_cds.c **** ** \return #CFE_ES_CDS_INVALID  \copydoc CFE_ES_CDS_INVALID
 112:/home/simulink/cFS_FreeRTOS_seL4/cfe/fsw/cfe-core/src/es/cfe_es_cds.c **** ** \return Any of the return values from #CFE_PSP_ReadFromCDS
 113:/home/simulink/cFS_FreeRTOS_seL4/cfe/fsw/cfe-core/src/es/cfe_es_cds.c **** **                     
 114:/home/simulink/cFS_FreeRTOS_seL4/cfe/fsw/cfe-core/src/es/cfe_es_cds.c **** ******************************************************************************/
 115:/home/simulink/cFS_FreeRTOS_seL4/cfe/fsw/cfe-core/src/es/cfe_es_cds.c **** int32 CFE_ES_ValidateCDS(void);
 116:/home/simulink/cFS_FreeRTOS_seL4/cfe/fsw/cfe-core/src/es/cfe_es_cds.c **** 
 117:/home/simulink/cFS_FreeRTOS_seL4/cfe/fsw/cfe-core/src/es/cfe_es_cds.c **** /*****************************************************************************/
 118:/home/simulink/cFS_FreeRTOS_seL4/cfe/fsw/cfe-core/src/es/cfe_es_cds.c **** /**
 119:/home/simulink/cFS_FreeRTOS_seL4/cfe/fsw/cfe-core/src/es/cfe_es_cds.c **** ** \brief Initializes the contents of the CDS
 120:/home/simulink/cFS_FreeRTOS_seL4/cfe/fsw/cfe-core/src/es/cfe_es_cds.c **** **
 121:/home/simulink/cFS_FreeRTOS_seL4/cfe/fsw/cfe-core/src/es/cfe_es_cds.c **** ** \par Description
 122:/home/simulink/cFS_FreeRTOS_seL4/cfe/fsw/cfe-core/src/es/cfe_es_cds.c **** **        Stores a fixed pattern at the beginning and end of the CDS memory
 123:/home/simulink/cFS_FreeRTOS_seL4/cfe/fsw/cfe-core/src/es/cfe_es_cds.c **** **        to tag it for future verification following a reset.
 124:/home/simulink/cFS_FreeRTOS_seL4/cfe/fsw/cfe-core/src/es/cfe_es_cds.c **** **
 125:/home/simulink/cFS_FreeRTOS_seL4/cfe/fsw/cfe-core/src/es/cfe_es_cds.c **** ** \par Assumptions, External Events, and Notes:
 126:/home/simulink/cFS_FreeRTOS_seL4/cfe/fsw/cfe-core/src/es/cfe_es_cds.c **** **          None
 127:/home/simulink/cFS_FreeRTOS_seL4/cfe/fsw/cfe-core/src/es/cfe_es_cds.c **** **
 128:/home/simulink/cFS_FreeRTOS_seL4/cfe/fsw/cfe-core/src/es/cfe_es_cds.c **** ** \param[in]  CDSSize Total size of CDS memory area (in bytes)
 129:/home/simulink/cFS_FreeRTOS_seL4/cfe/fsw/cfe-core/src/es/cfe_es_cds.c **** **
 130:/home/simulink/cFS_FreeRTOS_seL4/cfe/fsw/cfe-core/src/es/cfe_es_cds.c **** ** \return #OS_SUCCESS          \copydoc OS_SUCCESS
 131:/home/simulink/cFS_FreeRTOS_seL4/cfe/fsw/cfe-core/src/es/cfe_es_cds.c **** ** \return Any of the return values from #CFE_PSP_WriteToCDS
 132:/home/simulink/cFS_FreeRTOS_seL4/cfe/fsw/cfe-core/src/es/cfe_es_cds.c **** ** \return Any of the return values from #CFE_ES_CreateCDSPool
 133:/home/simulink/cFS_FreeRTOS_seL4/cfe/fsw/cfe-core/src/es/cfe_es_cds.c **** **                     
 134:/home/simulink/cFS_FreeRTOS_seL4/cfe/fsw/cfe-core/src/es/cfe_es_cds.c **** ******************************************************************************/
 135:/home/simulink/cFS_FreeRTOS_seL4/cfe/fsw/cfe-core/src/es/cfe_es_cds.c **** int32 CFE_ES_InitializeCDS(uint32 CDSSize);
 136:/home/simulink/cFS_FreeRTOS_seL4/cfe/fsw/cfe-core/src/es/cfe_es_cds.c **** 
68K GAS   			page 4


 137:/home/simulink/cFS_FreeRTOS_seL4/cfe/fsw/cfe-core/src/es/cfe_es_cds.c **** /*****************************************************************************/
 138:/home/simulink/cFS_FreeRTOS_seL4/cfe/fsw/cfe-core/src/es/cfe_es_cds.c **** /**
 139:/home/simulink/cFS_FreeRTOS_seL4/cfe/fsw/cfe-core/src/es/cfe_es_cds.c **** ** \brief Initializes the CDS Registry
 140:/home/simulink/cFS_FreeRTOS_seL4/cfe/fsw/cfe-core/src/es/cfe_es_cds.c **** **
 141:/home/simulink/cFS_FreeRTOS_seL4/cfe/fsw/cfe-core/src/es/cfe_es_cds.c **** ** \par Description
 142:/home/simulink/cFS_FreeRTOS_seL4/cfe/fsw/cfe-core/src/es/cfe_es_cds.c **** **        Initializes the data structure used to keep track of CDS blocks and
 143:/home/simulink/cFS_FreeRTOS_seL4/cfe/fsw/cfe-core/src/es/cfe_es_cds.c **** **        who they belong to.
 144:/home/simulink/cFS_FreeRTOS_seL4/cfe/fsw/cfe-core/src/es/cfe_es_cds.c **** **
 145:/home/simulink/cFS_FreeRTOS_seL4/cfe/fsw/cfe-core/src/es/cfe_es_cds.c **** ** \par Assumptions, External Events, and Notes:
 146:/home/simulink/cFS_FreeRTOS_seL4/cfe/fsw/cfe-core/src/es/cfe_es_cds.c **** **          None
 147:/home/simulink/cFS_FreeRTOS_seL4/cfe/fsw/cfe-core/src/es/cfe_es_cds.c **** **
 148:/home/simulink/cFS_FreeRTOS_seL4/cfe/fsw/cfe-core/src/es/cfe_es_cds.c **** ** \retval #CFE_SUCCESS         \copydoc CFE_SUCCESS
 149:/home/simulink/cFS_FreeRTOS_seL4/cfe/fsw/cfe-core/src/es/cfe_es_cds.c **** **                     
 150:/home/simulink/cFS_FreeRTOS_seL4/cfe/fsw/cfe-core/src/es/cfe_es_cds.c **** ******************************************************************************/
 151:/home/simulink/cFS_FreeRTOS_seL4/cfe/fsw/cfe-core/src/es/cfe_es_cds.c **** int32 CFE_ES_InitCDSRegistry(void);
 152:/home/simulink/cFS_FreeRTOS_seL4/cfe/fsw/cfe-core/src/es/cfe_es_cds.c **** 
 153:/home/simulink/cFS_FreeRTOS_seL4/cfe/fsw/cfe-core/src/es/cfe_es_cds.c **** 
 154:/home/simulink/cFS_FreeRTOS_seL4/cfe/fsw/cfe-core/src/es/cfe_es_cds.c **** /*****************************************************************************/
 155:/home/simulink/cFS_FreeRTOS_seL4/cfe/fsw/cfe-core/src/es/cfe_es_cds.c **** /**
 156:/home/simulink/cFS_FreeRTOS_seL4/cfe/fsw/cfe-core/src/es/cfe_es_cds.c **** ** \brief Rebuilds memory pool for CDS and recovers existing registry
 157:/home/simulink/cFS_FreeRTOS_seL4/cfe/fsw/cfe-core/src/es/cfe_es_cds.c **** **
 158:/home/simulink/cFS_FreeRTOS_seL4/cfe/fsw/cfe-core/src/es/cfe_es_cds.c **** ** \par Description
 159:/home/simulink/cFS_FreeRTOS_seL4/cfe/fsw/cfe-core/src/es/cfe_es_cds.c **** **        Scans memory for existing CDS and initializes memory pool and registry
 160:/home/simulink/cFS_FreeRTOS_seL4/cfe/fsw/cfe-core/src/es/cfe_es_cds.c **** **        settings accordingly
 161:/home/simulink/cFS_FreeRTOS_seL4/cfe/fsw/cfe-core/src/es/cfe_es_cds.c **** **
 162:/home/simulink/cFS_FreeRTOS_seL4/cfe/fsw/cfe-core/src/es/cfe_es_cds.c **** ** \par Assumptions, External Events, and Notes:
 163:/home/simulink/cFS_FreeRTOS_seL4/cfe/fsw/cfe-core/src/es/cfe_es_cds.c **** **        -# Assumes the validity of the CDS has already been determined
 164:/home/simulink/cFS_FreeRTOS_seL4/cfe/fsw/cfe-core/src/es/cfe_es_cds.c **** **
 165:/home/simulink/cFS_FreeRTOS_seL4/cfe/fsw/cfe-core/src/es/cfe_es_cds.c **** ** \return #CFE_SUCCESS         \copydoc CFE_SUCCESS
 166:/home/simulink/cFS_FreeRTOS_seL4/cfe/fsw/cfe-core/src/es/cfe_es_cds.c **** ** \return Any of the return values from #CFE_PSP_ReadFromCDS
 167:/home/simulink/cFS_FreeRTOS_seL4/cfe/fsw/cfe-core/src/es/cfe_es_cds.c **** **                     
 168:/home/simulink/cFS_FreeRTOS_seL4/cfe/fsw/cfe-core/src/es/cfe_es_cds.c **** ******************************************************************************/
 169:/home/simulink/cFS_FreeRTOS_seL4/cfe/fsw/cfe-core/src/es/cfe_es_cds.c **** int32 CFE_ES_RebuildCDS(void);
 170:/home/simulink/cFS_FreeRTOS_seL4/cfe/fsw/cfe-core/src/es/cfe_es_cds.c **** 
 171:/home/simulink/cFS_FreeRTOS_seL4/cfe/fsw/cfe-core/src/es/cfe_es_cds.c **** /*****************************************************************************/
 172:/home/simulink/cFS_FreeRTOS_seL4/cfe/fsw/cfe-core/src/es/cfe_es_cds.c **** /**
 173:/home/simulink/cFS_FreeRTOS_seL4/cfe/fsw/cfe-core/src/es/cfe_es_cds.c **** ** \brief Initializes CDS data constructs
 174:/home/simulink/cFS_FreeRTOS_seL4/cfe/fsw/cfe-core/src/es/cfe_es_cds.c **** **
 175:/home/simulink/cFS_FreeRTOS_seL4/cfe/fsw/cfe-core/src/es/cfe_es_cds.c **** ** \par Description
 176:/home/simulink/cFS_FreeRTOS_seL4/cfe/fsw/cfe-core/src/es/cfe_es_cds.c **** **        Locates and validates any pre-existing CDS memory or initializes the
 177:/home/simulink/cFS_FreeRTOS_seL4/cfe/fsw/cfe-core/src/es/cfe_es_cds.c **** **        memory as a fresh CDS.
 178:/home/simulink/cFS_FreeRTOS_seL4/cfe/fsw/cfe-core/src/es/cfe_es_cds.c **** **
 179:/home/simulink/cFS_FreeRTOS_seL4/cfe/fsw/cfe-core/src/es/cfe_es_cds.c **** ** \par Assumptions, External Events, and Notes:
 180:/home/simulink/cFS_FreeRTOS_seL4/cfe/fsw/cfe-core/src/es/cfe_es_cds.c **** **          None
 181:/home/simulink/cFS_FreeRTOS_seL4/cfe/fsw/cfe-core/src/es/cfe_es_cds.c **** **
 182:/home/simulink/cFS_FreeRTOS_seL4/cfe/fsw/cfe-core/src/es/cfe_es_cds.c **** ** \par SysLog Messages
 183:/home/simulink/cFS_FreeRTOS_seL4/cfe/fsw/cfe-core/src/es/cfe_es_cds.c **** **
 184:/home/simulink/cFS_FreeRTOS_seL4/cfe/fsw/cfe-core/src/es/cfe_es_cds.c **** **
 185:/home/simulink/cFS_FreeRTOS_seL4/cfe/fsw/cfe-core/src/es/cfe_es_cds.c **** ** \return None
 186:/home/simulink/cFS_FreeRTOS_seL4/cfe/fsw/cfe-core/src/es/cfe_es_cds.c **** **
 187:/home/simulink/cFS_FreeRTOS_seL4/cfe/fsw/cfe-core/src/es/cfe_es_cds.c **** ******************************************************************************/
 188:/home/simulink/cFS_FreeRTOS_seL4/cfe/fsw/cfe-core/src/es/cfe_es_cds.c **** int32 CFE_ES_CDS_EarlyInit(void)
 189:/home/simulink/cFS_FreeRTOS_seL4/cfe/fsw/cfe-core/src/es/cfe_es_cds.c **** {
  22               	.loc 1 189 0
  23               	.cfi_startproc
  24 0000 518F      	subq.l #8,%sp
  25               	.cfi_def_cfa_offset 12
68K GAS   			page 5


 190:/home/simulink/cFS_FreeRTOS_seL4/cfe/fsw/cfe-core/src/es/cfe_es_cds.c ****     uint32  MinRequiredSize = 0;
  26               	.loc 1 190 0
  27 0002 4297      	clr.l (%sp)
 191:/home/simulink/cFS_FreeRTOS_seL4/cfe/fsw/cfe-core/src/es/cfe_es_cds.c ****     int32   Status = CFE_SUCCESS;
  28               	.loc 1 191 0
  29 0004 42AF 0004 	clr.l 4(%sp)
 192:/home/simulink/cFS_FreeRTOS_seL4/cfe/fsw/cfe-core/src/es/cfe_es_cds.c ****     
 193:/home/simulink/cFS_FreeRTOS_seL4/cfe/fsw/cfe-core/src/es/cfe_es_cds.c ****     /* Compute the minimum size required for the CDS with the current configuration of the cFE */
 194:/home/simulink/cFS_FreeRTOS_seL4/cfe/fsw/cfe-core/src/es/cfe_es_cds.c ****     MinRequiredSize = (sizeof(CFE_ES_Global.CDSVars.ValidityField) * 2) +            /* Minimum siz
 195:/home/simulink/cFS_FreeRTOS_seL4/cfe/fsw/cfe-core/src/es/cfe_es_cds.c ****                       (CFE_ES_CDS_MAX_NUM_ENTRIES * sizeof(CFE_ES_CDS_RegRec_t)) +   /* Minimum siz
 196:/home/simulink/cFS_FreeRTOS_seL4/cfe/fsw/cfe-core/src/es/cfe_es_cds.c ****                       CFE_ES_CDSReqdMinSize(CFE_ES_CDS_MAX_NUM_ENTRIES);             /* Max # of Mi
  30               	.loc 1 196 0
  31 0008 4878 0200 	pea 512.w
  32               	.cfi_def_cfa_offset 16
  33 000c 4EB9 0000 	jsr CFE_ES_CDSReqdMinSize
  33      0000 
  34 0012 588F      	addq.l #4,%sp
  35               	.cfi_def_cfa_offset 12
 194:/home/simulink/cFS_FreeRTOS_seL4/cfe/fsw/cfe-core/src/es/cfe_es_cds.c ****                       (CFE_ES_CDS_MAX_NUM_ENTRIES * sizeof(CFE_ES_CDS_RegRec_t)) +   /* Minimum siz
  36               	.loc 1 194 0
  37 0014 2040      	move.l %d0,%a0
  38 0016 41E8 6810 	lea (26640,%a0),%a0
  39 001a 2E88      	move.l %a0,(%sp)
 197:/home/simulink/cFS_FreeRTOS_seL4/cfe/fsw/cfe-core/src/es/cfe_es_cds.c ****     
 198:/home/simulink/cFS_FreeRTOS_seL4/cfe/fsw/cfe-core/src/es/cfe_es_cds.c ****     /* Get CDS size from OS BSP */
 199:/home/simulink/cFS_FreeRTOS_seL4/cfe/fsw/cfe-core/src/es/cfe_es_cds.c ****     Status = CFE_PSP_GetCDSSize(&CFE_ES_Global.CDSVars.CDSSize);
  40               	.loc 1 199 0
  41 001c 4879 0000 	pea CFE_ES_Global+8168
  41      0000 
  42               	.cfi_def_cfa_offset 16
  43 0022 4EB9 0000 	jsr CFE_PSP_GetCDSSize
  43      0000 
  44 0028 588F      	addq.l #4,%sp
  45               	.cfi_def_cfa_offset 12
  46 002a 2F40 0004 	move.l %d0,4(%sp)
 200:/home/simulink/cFS_FreeRTOS_seL4/cfe/fsw/cfe-core/src/es/cfe_es_cds.c ****     
 201:/home/simulink/cFS_FreeRTOS_seL4/cfe/fsw/cfe-core/src/es/cfe_es_cds.c ****     /* If the size was obtained successfully and meets the minimum requirements, then check its con
 202:/home/simulink/cFS_FreeRTOS_seL4/cfe/fsw/cfe-core/src/es/cfe_es_cds.c ****     if (Status == CFE_PSP_SUCCESS)
  47               	.loc 1 202 0
  48 002e 4AAF 0004 	tst.l 4(%sp)
  49 0032 6600 00E4 	jne .L2
 203:/home/simulink/cFS_FreeRTOS_seL4/cfe/fsw/cfe-core/src/es/cfe_es_cds.c ****     {
 204:/home/simulink/cFS_FreeRTOS_seL4/cfe/fsw/cfe-core/src/es/cfe_es_cds.c ****         /* Always truncate the size to the nearest 4 byte boundary */
 205:/home/simulink/cFS_FreeRTOS_seL4/cfe/fsw/cfe-core/src/es/cfe_es_cds.c ****         CFE_ES_Global.CDSVars.CDSSize &= 0xfffffffc;
  50               	.loc 1 205 0
  51 0036 2039 0000 	move.l CFE_ES_Global+8168,%d0
  51      0000 
  52 003c 72FC      	moveq #-4,%d1
  53 003e C081      	and.l %d1,%d0
  54 0040 23C0 0000 	move.l %d0,CFE_ES_Global+8168
  54      0000 
 206:/home/simulink/cFS_FreeRTOS_seL4/cfe/fsw/cfe-core/src/es/cfe_es_cds.c ****         
 207:/home/simulink/cFS_FreeRTOS_seL4/cfe/fsw/cfe-core/src/es/cfe_es_cds.c ****         if (CFE_ES_Global.CDSVars.CDSSize >= MinRequiredSize)
  55               	.loc 1 207 0
  56 0046 2039 0000 	move.l CFE_ES_Global+8168,%d0
  56      0000 
  57 004c B097      	cmp.l (%sp),%d0
68K GAS   			page 6


  58 004e 6500 00A0 	jcs .L3
 208:/home/simulink/cFS_FreeRTOS_seL4/cfe/fsw/cfe-core/src/es/cfe_es_cds.c ****         {
 209:/home/simulink/cFS_FreeRTOS_seL4/cfe/fsw/cfe-core/src/es/cfe_es_cds.c ****             Status = CFE_ES_ValidateCDS();
  59               	.loc 1 209 0
  60 0052 4EB9 0000 	jsr CFE_ES_ValidateCDS
  60      0000 
  61 0058 2F40 0004 	move.l %d0,4(%sp)
 210:/home/simulink/cFS_FreeRTOS_seL4/cfe/fsw/cfe-core/src/es/cfe_es_cds.c ****             
 211:/home/simulink/cFS_FreeRTOS_seL4/cfe/fsw/cfe-core/src/es/cfe_es_cds.c ****             /* If the CDS is accessible but invalid, then create a new one */
 212:/home/simulink/cFS_FreeRTOS_seL4/cfe/fsw/cfe-core/src/es/cfe_es_cds.c ****             if (Status == CFE_ES_CDS_INVALID)
  62               	.loc 1 212 0
  63 005c 207C C400 	move.l #-1006632942,%a0
  63      0012 
  64 0062 B1EF 0004 	cmp.l 4(%sp),%a0
  65 0066 6616      	jne .L4
 213:/home/simulink/cFS_FreeRTOS_seL4/cfe/fsw/cfe-core/src/es/cfe_es_cds.c ****             {
 214:/home/simulink/cFS_FreeRTOS_seL4/cfe/fsw/cfe-core/src/es/cfe_es_cds.c ****                 Status = CFE_ES_InitializeCDS(CFE_ES_Global.CDSVars.CDSSize);
  66               	.loc 1 214 0
  67 0068 2039 0000 	move.l CFE_ES_Global+8168,%d0
  67      0000 
  68 006e 2F00      	move.l %d0,-(%sp)
  69               	.cfi_def_cfa_offset 16
  70 0070 4EB9 0000 	jsr CFE_ES_InitializeCDS
  70      0000 
  71 0076 588F      	addq.l #4,%sp
  72               	.cfi_def_cfa_offset 12
  73 0078 2F40 0004 	move.l %d0,4(%sp)
  74 007c 6052      	jra .L5
  75               	.L4:
 215:/home/simulink/cFS_FreeRTOS_seL4/cfe/fsw/cfe-core/src/es/cfe_es_cds.c ****             }
 216:/home/simulink/cFS_FreeRTOS_seL4/cfe/fsw/cfe-core/src/es/cfe_es_cds.c ****             else if (Status == CFE_SUCCESS)
  76               	.loc 1 216 0
  77 007e 4AAF 0004 	tst.l 4(%sp)
  78 0082 662C      	jne .L6
 217:/home/simulink/cFS_FreeRTOS_seL4/cfe/fsw/cfe-core/src/es/cfe_es_cds.c ****             {
 218:/home/simulink/cFS_FreeRTOS_seL4/cfe/fsw/cfe-core/src/es/cfe_es_cds.c ****                 /* If a valid CDS was found, rebuild the memory pool */
 219:/home/simulink/cFS_FreeRTOS_seL4/cfe/fsw/cfe-core/src/es/cfe_es_cds.c ****                 Status = CFE_ES_RebuildCDS();
  79               	.loc 1 219 0
  80 0084 4EB9 0000 	jsr CFE_ES_RebuildCDS
  80      0000 
  81 008a 2F40 0004 	move.l %d0,4(%sp)
 220:/home/simulink/cFS_FreeRTOS_seL4/cfe/fsw/cfe-core/src/es/cfe_es_cds.c ****                 
 221:/home/simulink/cFS_FreeRTOS_seL4/cfe/fsw/cfe-core/src/es/cfe_es_cds.c ****                 /* If rebuilding is not possible, then create a new one from scratch */
 222:/home/simulink/cFS_FreeRTOS_seL4/cfe/fsw/cfe-core/src/es/cfe_es_cds.c ****                 if (Status == CFE_ES_CDS_INVALID)
  82               	.loc 1 222 0
  83 008e 203C C400 	move.l #-1006632942,%d0
  83      0012 
  84 0094 B0AF 0004 	cmp.l 4(%sp),%d0
  85 0098 6636      	jne .L5
 223:/home/simulink/cFS_FreeRTOS_seL4/cfe/fsw/cfe-core/src/es/cfe_es_cds.c ****                 {
 224:/home/simulink/cFS_FreeRTOS_seL4/cfe/fsw/cfe-core/src/es/cfe_es_cds.c ****                     Status = CFE_ES_InitializeCDS(CFE_ES_Global.CDSVars.CDSSize);
  86               	.loc 1 224 0
  87 009a 2039 0000 	move.l CFE_ES_Global+8168,%d0
  87      0000 
  88 00a0 2F00      	move.l %d0,-(%sp)
  89               	.cfi_def_cfa_offset 16
  90 00a2 4EB9 0000 	jsr CFE_ES_InitializeCDS
68K GAS   			page 7


  90      0000 
  91 00a8 588F      	addq.l #4,%sp
  92               	.cfi_def_cfa_offset 12
  93 00aa 2F40 0004 	move.l %d0,4(%sp)
  94 00ae 6020      	jra .L5
  95               	.L6:
 225:/home/simulink/cFS_FreeRTOS_seL4/cfe/fsw/cfe-core/src/es/cfe_es_cds.c ****                 }
 226:/home/simulink/cFS_FreeRTOS_seL4/cfe/fsw/cfe-core/src/es/cfe_es_cds.c ****             }
 227:/home/simulink/cFS_FreeRTOS_seL4/cfe/fsw/cfe-core/src/es/cfe_es_cds.c ****             else /* Unrecoverable error while reading the CDS */
 228:/home/simulink/cFS_FreeRTOS_seL4/cfe/fsw/cfe-core/src/es/cfe_es_cds.c ****             {
 229:/home/simulink/cFS_FreeRTOS_seL4/cfe/fsw/cfe-core/src/es/cfe_es_cds.c ****                 CFE_ES_WriteToSysLog("CFE_CDS:EarlyInit-Read error validating CDS (Err=0x%08X)\n", 
  96               	.loc 1 229 0
  97 00b0 202F 0004 	move.l 4(%sp),%d0
  98 00b4 2F00      	move.l %d0,-(%sp)
  99               	.cfi_def_cfa_offset 16
 100 00b6 4879 0000 	pea .LC0
 100      0000 
 101               	.cfi_def_cfa_offset 20
 102 00bc 4EB9 0000 	jsr CFE_ES_WriteToSysLog
 102      0000 
 103 00c2 508F      	addq.l #8,%sp
 104               	.cfi_def_cfa_offset 12
 230:/home/simulink/cFS_FreeRTOS_seL4/cfe/fsw/cfe-core/src/es/cfe_es_cds.c ****                 CFE_ES_Global.CDSVars.MemPoolSize = 0;
 105               	.loc 1 230 0
 106 00c4 42B9 0000 	clr.l CFE_ES_Global+8172
 106      0000 
 231:/home/simulink/cFS_FreeRTOS_seL4/cfe/fsw/cfe-core/src/es/cfe_es_cds.c ****                 return Status;
 107               	.loc 1 231 0
 108 00ca 202F 0004 	move.l 4(%sp),%d0
 109 00ce 606A      	jra .L8
 110               	.L5:
 232:/home/simulink/cFS_FreeRTOS_seL4/cfe/fsw/cfe-core/src/es/cfe_es_cds.c ****             }
 233:/home/simulink/cFS_FreeRTOS_seL4/cfe/fsw/cfe-core/src/es/cfe_es_cds.c **** 
 234:/home/simulink/cFS_FreeRTOS_seL4/cfe/fsw/cfe-core/src/es/cfe_es_cds.c ****             if (Status == CFE_SUCCESS)
 111               	.loc 1 234 0
 112 00d0 4AAF 0004 	tst.l 4(%sp)
 113 00d4 6662      	jne .L10
 235:/home/simulink/cFS_FreeRTOS_seL4/cfe/fsw/cfe-core/src/es/cfe_es_cds.c ****             {
 236:/home/simulink/cFS_FreeRTOS_seL4/cfe/fsw/cfe-core/src/es/cfe_es_cds.c ****                 /* Create CDS registry access mutex */
 237:/home/simulink/cFS_FreeRTOS_seL4/cfe/fsw/cfe-core/src/es/cfe_es_cds.c ****                 OS_MutSemCreate(&CFE_ES_Global.CDSVars.RegistryMutex,
 114               	.loc 1 237 0
 115 00d6 42A7      	clr.l -(%sp)
 116               	.cfi_def_cfa_offset 16
 117 00d8 4879 0000 	pea .LC1
 117      0000 
 118               	.cfi_def_cfa_offset 20
 119 00de 4879 0000 	pea CFE_ES_Global+8164
 119      0000 
 120               	.cfi_def_cfa_offset 24
 121 00e4 4EB9 0000 	jsr OS_MutSemCreate
 121      0000 
 122 00ea 4FEF 000C 	lea (12,%sp),%sp
 123               	.cfi_def_cfa_offset 12
 124 00ee 6048      	jra .L10
 125               	.L3:
 238:/home/simulink/cFS_FreeRTOS_seL4/cfe/fsw/cfe-core/src/es/cfe_es_cds.c ****                                  CFE_ES_CDS_MUT_REG_NAME,
 239:/home/simulink/cFS_FreeRTOS_seL4/cfe/fsw/cfe-core/src/es/cfe_es_cds.c ****                                  CFE_ES_CDS_MUT_REG_VALUE);
68K GAS   			page 8


 240:/home/simulink/cFS_FreeRTOS_seL4/cfe/fsw/cfe-core/src/es/cfe_es_cds.c ****             }     
 241:/home/simulink/cFS_FreeRTOS_seL4/cfe/fsw/cfe-core/src/es/cfe_es_cds.c ****         }
 242:/home/simulink/cFS_FreeRTOS_seL4/cfe/fsw/cfe-core/src/es/cfe_es_cds.c ****         else /* Size < MinRequiredSize */
 243:/home/simulink/cFS_FreeRTOS_seL4/cfe/fsw/cfe-core/src/es/cfe_es_cds.c ****         {
 244:/home/simulink/cFS_FreeRTOS_seL4/cfe/fsw/cfe-core/src/es/cfe_es_cds.c ****             CFE_ES_WriteToSysLog("CFE_CDS:EarlyInit-CDS Size (%d) less than required (%d)\n", 
 126               	.loc 1 244 0
 127 00f0 2217      	move.l (%sp),%d1
 245:/home/simulink/cFS_FreeRTOS_seL4/cfe/fsw/cfe-core/src/es/cfe_es_cds.c **** 	                         (int)CFE_ES_Global.CDSVars.CDSSize, (int)MinRequiredSize);
 128               	.loc 1 245 0
 129 00f2 2039 0000 	move.l CFE_ES_Global+8168,%d0
 129      0000 
 244:/home/simulink/cFS_FreeRTOS_seL4/cfe/fsw/cfe-core/src/es/cfe_es_cds.c **** 	                         (int)CFE_ES_Global.CDSVars.CDSSize, (int)MinRequiredSize);
 130               	.loc 1 244 0
 131 00f8 2F01      	move.l %d1,-(%sp)
 132               	.cfi_def_cfa_offset 16
 133 00fa 2F00      	move.l %d0,-(%sp)
 134               	.cfi_def_cfa_offset 20
 135 00fc 4879 0000 	pea .LC2
 135      0000 
 136               	.cfi_def_cfa_offset 24
 137 0102 4EB9 0000 	jsr CFE_ES_WriteToSysLog
 137      0000 
 138 0108 4FEF 000C 	lea (12,%sp),%sp
 139               	.cfi_def_cfa_offset 12
 246:/home/simulink/cFS_FreeRTOS_seL4/cfe/fsw/cfe-core/src/es/cfe_es_cds.c ****             CFE_ES_Global.CDSVars.MemPoolSize = 0;
 140               	.loc 1 246 0
 141 010c 42B9 0000 	clr.l CFE_ES_Global+8172
 141      0000 
 247:/home/simulink/cFS_FreeRTOS_seL4/cfe/fsw/cfe-core/src/es/cfe_es_cds.c ****             return Status;
 142               	.loc 1 247 0
 143 0112 202F 0004 	move.l 4(%sp),%d0
 144 0116 6022      	jra .L8
 145               	.L2:
 248:/home/simulink/cFS_FreeRTOS_seL4/cfe/fsw/cfe-core/src/es/cfe_es_cds.c ****         }
 249:/home/simulink/cFS_FreeRTOS_seL4/cfe/fsw/cfe-core/src/es/cfe_es_cds.c ****     }
 250:/home/simulink/cFS_FreeRTOS_seL4/cfe/fsw/cfe-core/src/es/cfe_es_cds.c ****     else /* Error getting the size of the CDS from the BSP */
 251:/home/simulink/cFS_FreeRTOS_seL4/cfe/fsw/cfe-core/src/es/cfe_es_cds.c ****     {
 252:/home/simulink/cFS_FreeRTOS_seL4/cfe/fsw/cfe-core/src/es/cfe_es_cds.c ****         CFE_ES_WriteToSysLog("CFE_CDS:EarlyInit-Unable to obtain CDS Size from BSP (Err=0x%08X)\n",
 146               	.loc 1 252 0
 147 0118 202F 0004 	move.l 4(%sp),%d0
 148 011c 2F00      	move.l %d0,-(%sp)
 149               	.cfi_def_cfa_offset 16
 150 011e 4879 0000 	pea .LC3
 150      0000 
 151               	.cfi_def_cfa_offset 20
 152 0124 4EB9 0000 	jsr CFE_ES_WriteToSysLog
 152      0000 
 153 012a 508F      	addq.l #8,%sp
 154               	.cfi_def_cfa_offset 12
 253:/home/simulink/cFS_FreeRTOS_seL4/cfe/fsw/cfe-core/src/es/cfe_es_cds.c ****         CFE_ES_Global.CDSVars.MemPoolSize = 0;
 155               	.loc 1 253 0
 156 012c 42B9 0000 	clr.l CFE_ES_Global+8172
 156      0000 
 254:/home/simulink/cFS_FreeRTOS_seL4/cfe/fsw/cfe-core/src/es/cfe_es_cds.c ****         return Status;
 157               	.loc 1 254 0
 158 0132 202F 0004 	move.l 4(%sp),%d0
 159 0136 6002      	jra .L8
68K GAS   			page 9


 160               	.L10:
 255:/home/simulink/cFS_FreeRTOS_seL4/cfe/fsw/cfe-core/src/es/cfe_es_cds.c ****     }
 256:/home/simulink/cFS_FreeRTOS_seL4/cfe/fsw/cfe-core/src/es/cfe_es_cds.c ****     
 257:/home/simulink/cFS_FreeRTOS_seL4/cfe/fsw/cfe-core/src/es/cfe_es_cds.c ****     
 258:/home/simulink/cFS_FreeRTOS_seL4/cfe/fsw/cfe-core/src/es/cfe_es_cds.c ****     return(CFE_SUCCESS);
 161               	.loc 1 258 0
 162 0138 4280      	clr.l %d0
 163               	.L8:
 259:/home/simulink/cFS_FreeRTOS_seL4/cfe/fsw/cfe-core/src/es/cfe_es_cds.c ****     
 260:/home/simulink/cFS_FreeRTOS_seL4/cfe/fsw/cfe-core/src/es/cfe_es_cds.c **** }   /* End of CFE_ES_CDS_EarlyInit() */
 164               	.loc 1 260 0
 165 013a 508F      	addq.l #8,%sp
 166 013c 4E75      	rts
 167               	.cfi_endproc
 168               	.LFE59:
 169               	.sizeCFE_ES_CDS_EarlyInit, .-CFE_ES_CDS_EarlyInit
 170               	.section.rodata
 171               	.LC4:
 172 00c2 4346 455F 	.string"CFE_CDS:Register-Registry full\n"
 172      4344 533A 
 172      5265 6769 
 172      7374 6572 
 172      2D52 6567 
 173               	.LC5:
 174 00e2 4346 455F 	.string"CFE_CDS:RegCDS-Failed to update CDS Registry (Stat=0x%08X)\n"
 174      4344 533A 
 174      5265 6743 
 174      4453 2D46 
 174      6169 6C65 
 175               	.text
 176               	.align2
 177               	.globlCFE_ES_RegisterCDSEx
 178               	.typeCFE_ES_RegisterCDSEx, @function
 179               	CFE_ES_RegisterCDSEx:
 180               	.LFB60:
 261:/home/simulink/cFS_FreeRTOS_seL4/cfe/fsw/cfe-core/src/es/cfe_es_cds.c **** 
 262:/home/simulink/cFS_FreeRTOS_seL4/cfe/fsw/cfe-core/src/es/cfe_es_cds.c **** /*******************************************************************
 263:/home/simulink/cFS_FreeRTOS_seL4/cfe/fsw/cfe-core/src/es/cfe_es_cds.c **** **
 264:/home/simulink/cFS_FreeRTOS_seL4/cfe/fsw/cfe-core/src/es/cfe_es_cds.c **** ** CFE_ES_RegisterCDSEx
 265:/home/simulink/cFS_FreeRTOS_seL4/cfe/fsw/cfe-core/src/es/cfe_es_cds.c **** **
 266:/home/simulink/cFS_FreeRTOS_seL4/cfe/fsw/cfe-core/src/es/cfe_es_cds.c **** ** NOTE: For complete prolog information, see 'cfe_es_cds.h'
 267:/home/simulink/cFS_FreeRTOS_seL4/cfe/fsw/cfe-core/src/es/cfe_es_cds.c **** ********************************************************************/
 268:/home/simulink/cFS_FreeRTOS_seL4/cfe/fsw/cfe-core/src/es/cfe_es_cds.c **** 
 269:/home/simulink/cFS_FreeRTOS_seL4/cfe/fsw/cfe-core/src/es/cfe_es_cds.c **** int32 CFE_ES_RegisterCDSEx(CFE_ES_CDSHandle_t *HandlePtr, int32 BlockSize, const char *Name, boolea
 270:/home/simulink/cFS_FreeRTOS_seL4/cfe/fsw/cfe-core/src/es/cfe_es_cds.c **** {
 181               	.loc 1 270 0
 182               	.cfi_startproc
 183 013e 4FEF FFF0 	lea (-16,%sp),%sp
 184               	.cfi_def_cfa_offset 20
 185 0142 202F 0020 	move.l 32(%sp),%d0
 186 0146 1000      	move.b %d0,%d0
 187 0148 1E80      	move.b %d0,(%sp)
 271:/home/simulink/cFS_FreeRTOS_seL4/cfe/fsw/cfe-core/src/es/cfe_es_cds.c ****     int32   Status = CFE_SUCCESS;
 188               	.loc 1 271 0
 189 014a 42AF 000C 	clr.l 12(%sp)
 272:/home/simulink/cFS_FreeRTOS_seL4/cfe/fsw/cfe-core/src/es/cfe_es_cds.c ****     uint32  RegIndx;
 273:/home/simulink/cFS_FreeRTOS_seL4/cfe/fsw/cfe-core/src/es/cfe_es_cds.c ****     CFE_ES_CDS_RegRec_t *RegRecPtr = NULL;
68K GAS   			page 10


 190               	.loc 1 273 0
 191 014e 42AF 0004 	clr.l 4(%sp)
 274:/home/simulink/cFS_FreeRTOS_seL4/cfe/fsw/cfe-core/src/es/cfe_es_cds.c ****     
 275:/home/simulink/cFS_FreeRTOS_seL4/cfe/fsw/cfe-core/src/es/cfe_es_cds.c ****     /* Lock Registry for update.  This prevents two applications from */
 276:/home/simulink/cFS_FreeRTOS_seL4/cfe/fsw/cfe-core/src/es/cfe_es_cds.c ****     /* trying to register CDSs at the same location at the same time  */
 277:/home/simulink/cFS_FreeRTOS_seL4/cfe/fsw/cfe-core/src/es/cfe_es_cds.c ****     CFE_ES_LockCDSRegistry();
 192               	.loc 1 277 0
 193 0152 4EB9 0000 	jsr CFE_ES_LockCDSRegistry
 193      0000 
 278:/home/simulink/cFS_FreeRTOS_seL4/cfe/fsw/cfe-core/src/es/cfe_es_cds.c **** 
 279:/home/simulink/cFS_FreeRTOS_seL4/cfe/fsw/cfe-core/src/es/cfe_es_cds.c ****     /* Check for duplicate CDS name */
 280:/home/simulink/cFS_FreeRTOS_seL4/cfe/fsw/cfe-core/src/es/cfe_es_cds.c ****     RegIndx = CFE_ES_FindCDSInRegistry(Name);
 194               	.loc 1 280 0
 195 0158 2F2F 001C 	move.l 28(%sp),-(%sp)
 196               	.cfi_def_cfa_offset 24
 197 015c 4EB9 0000 	jsr CFE_ES_FindCDSInRegistry
 197      0000 
 198 0162 588F      	addq.l #4,%sp
 199               	.cfi_def_cfa_offset 20
 200 0164 2F40 0008 	move.l %d0,8(%sp)
 281:/home/simulink/cFS_FreeRTOS_seL4/cfe/fsw/cfe-core/src/es/cfe_es_cds.c **** 
 282:/home/simulink/cFS_FreeRTOS_seL4/cfe/fsw/cfe-core/src/es/cfe_es_cds.c ****     /* Check to see if CDS is already in the registry */
 283:/home/simulink/cFS_FreeRTOS_seL4/cfe/fsw/cfe-core/src/es/cfe_es_cds.c ****     if (RegIndx != CFE_ES_CDS_NOT_FOUND)
 201               	.loc 1 283 0
 202 0168 70FF      	moveq #-1,%d0
 203 016a B0AF 0008 	cmp.l 8(%sp),%d0
 204 016e 6758      	jeq .L12
 284:/home/simulink/cFS_FreeRTOS_seL4/cfe/fsw/cfe-core/src/es/cfe_es_cds.c ****     {
 285:/home/simulink/cFS_FreeRTOS_seL4/cfe/fsw/cfe-core/src/es/cfe_es_cds.c ****         /* Get pointer to Registry Record Entry to speed up processing */
 286:/home/simulink/cFS_FreeRTOS_seL4/cfe/fsw/cfe-core/src/es/cfe_es_cds.c ****         RegRecPtr = &CFE_ES_Global.CDSVars.Registry[RegIndx];
 205               	.loc 1 286 0
 206 0170 202F 0008 	move.l 8(%sp),%d0
 207 0174 7234      	moveq #52,%d1
 208 0176 4C01 0800 	muls.l %d1,%d0
 209 017a 0680 0000 	add.l #8180,%d0
 209      1FF4 
 210 0180 2200      	move.l %d0,%d1
 211 0182 0681 0000 	add.l #CFE_ES_Global,%d1
 211      0000 
 212 0188 2F41 0004 	move.l %d1,4(%sp)
 287:/home/simulink/cFS_FreeRTOS_seL4/cfe/fsw/cfe-core/src/es/cfe_es_cds.c **** 
 288:/home/simulink/cFS_FreeRTOS_seL4/cfe/fsw/cfe-core/src/es/cfe_es_cds.c ****         /* If the new CDS is the same size as the old, then no need to reallocate memory */
 289:/home/simulink/cFS_FreeRTOS_seL4/cfe/fsw/cfe-core/src/es/cfe_es_cds.c ****         if (BlockSize != RegRecPtr->Size)
 213               	.loc 1 289 0
 214 018c 206F 0004 	move.l 4(%sp),%a0
 215 0190 2228 002C 	move.l 44(%a0),%d1
 216 0194 202F 0018 	move.l 24(%sp),%d0
 217 0198 B081      	cmp.l %d1,%d0
 218 019a 6718      	jeq .L13
 290:/home/simulink/cFS_FreeRTOS_seL4/cfe/fsw/cfe-core/src/es/cfe_es_cds.c ****         {
 291:/home/simulink/cFS_FreeRTOS_seL4/cfe/fsw/cfe-core/src/es/cfe_es_cds.c ****             /* If the new size is different, the old CDS must be deleted first  */
 292:/home/simulink/cFS_FreeRTOS_seL4/cfe/fsw/cfe-core/src/es/cfe_es_cds.c ****             /* Free the old memory */
 293:/home/simulink/cFS_FreeRTOS_seL4/cfe/fsw/cfe-core/src/es/cfe_es_cds.c ****             Status = CFE_ES_PutCDSBlock(RegRecPtr->MemHandle);
 219               	.loc 1 293 0
 220 019c 206F 0004 	move.l 4(%sp),%a0
 221 01a0 2028 0028 	move.l 40(%a0),%d0
 222 01a4 2F00      	move.l %d0,-(%sp)
68K GAS   			page 11


 223               	.cfi_def_cfa_offset 24
 224 01a6 4EB9 0000 	jsr CFE_ES_PutCDSBlock
 224      0000 
 225 01ac 588F      	addq.l #4,%sp
 226               	.cfi_def_cfa_offset 20
 227 01ae 2F40 000C 	move.l %d0,12(%sp)
 228 01b2 605C      	jra .L15
 229               	.L13:
 294:/home/simulink/cFS_FreeRTOS_seL4/cfe/fsw/cfe-core/src/es/cfe_es_cds.c ****         }
 295:/home/simulink/cFS_FreeRTOS_seL4/cfe/fsw/cfe-core/src/es/cfe_es_cds.c ****         else
 296:/home/simulink/cFS_FreeRTOS_seL4/cfe/fsw/cfe-core/src/es/cfe_es_cds.c ****         {
 297:/home/simulink/cFS_FreeRTOS_seL4/cfe/fsw/cfe-core/src/es/cfe_es_cds.c ****             /* Warn calling application that this is a duplicate registration */
 298:/home/simulink/cFS_FreeRTOS_seL4/cfe/fsw/cfe-core/src/es/cfe_es_cds.c ****             Status = CFE_ES_CDS_ALREADY_EXISTS;
 230               	.loc 1 298 0
 231 01b4 203C 4400 	move.l #1140850701,%d0
 231      000D 
 232 01ba 2F40 000C 	move.l %d0,12(%sp)
 299:/home/simulink/cFS_FreeRTOS_seL4/cfe/fsw/cfe-core/src/es/cfe_es_cds.c ****                
 300:/home/simulink/cFS_FreeRTOS_seL4/cfe/fsw/cfe-core/src/es/cfe_es_cds.c ****             /* Return the index into the registry as the handle to the CDS */
 301:/home/simulink/cFS_FreeRTOS_seL4/cfe/fsw/cfe-core/src/es/cfe_es_cds.c ****             *HandlePtr = RegIndx;
 233               	.loc 1 301 0
 234 01be 206F 0014 	move.l 20(%sp),%a0
 235 01c2 20AF 0008 	move.l 8(%sp),(%a0)
 236 01c6 6048      	jra .L15
 237               	.L12:
 302:/home/simulink/cFS_FreeRTOS_seL4/cfe/fsw/cfe-core/src/es/cfe_es_cds.c ****         }
 303:/home/simulink/cFS_FreeRTOS_seL4/cfe/fsw/cfe-core/src/es/cfe_es_cds.c ****     }
 304:/home/simulink/cFS_FreeRTOS_seL4/cfe/fsw/cfe-core/src/es/cfe_es_cds.c ****     else  /* CDS not already in registry */
 305:/home/simulink/cFS_FreeRTOS_seL4/cfe/fsw/cfe-core/src/es/cfe_es_cds.c ****     {
 306:/home/simulink/cFS_FreeRTOS_seL4/cfe/fsw/cfe-core/src/es/cfe_es_cds.c ****         /* Locate empty slot in table registry */
 307:/home/simulink/cFS_FreeRTOS_seL4/cfe/fsw/cfe-core/src/es/cfe_es_cds.c ****         RegIndx = CFE_ES_FindFreeCDSRegistryEntry();
 238               	.loc 1 307 0
 239 01c8 4EB9 0000 	jsr CFE_ES_FindFreeCDSRegistryEntry
 239      0000 
 240 01ce 2F40 0008 	move.l %d0,8(%sp)
 308:/home/simulink/cFS_FreeRTOS_seL4/cfe/fsw/cfe-core/src/es/cfe_es_cds.c ****         
 309:/home/simulink/cFS_FreeRTOS_seL4/cfe/fsw/cfe-core/src/es/cfe_es_cds.c ****         /* Check to make sure we found a free entry in registry */
 310:/home/simulink/cFS_FreeRTOS_seL4/cfe/fsw/cfe-core/src/es/cfe_es_cds.c ****         if (RegIndx == CFE_ES_CDS_NOT_FOUND)
 241               	.loc 1 310 0
 242 01d2 72FF      	moveq #-1,%d1
 243 01d4 B2AF 0008 	cmp.l 8(%sp),%d1
 244 01d8 661A      	jne .L16
 311:/home/simulink/cFS_FreeRTOS_seL4/cfe/fsw/cfe-core/src/es/cfe_es_cds.c ****         {
 312:/home/simulink/cFS_FreeRTOS_seL4/cfe/fsw/cfe-core/src/es/cfe_es_cds.c ****             Status = CFE_ES_CDS_REGISTRY_FULL;
 245               	.loc 1 312 0
 246 01da 203C C400 	move.l #-1006632943,%d0
 246      0011 
 247 01e0 2F40 000C 	move.l %d0,12(%sp)
 313:/home/simulink/cFS_FreeRTOS_seL4/cfe/fsw/cfe-core/src/es/cfe_es_cds.c ****             CFE_ES_WriteToSysLog("CFE_CDS:Register-Registry full\n");
 248               	.loc 1 313 0
 249 01e4 4879 0000 	pea .LC4
 249      0000 
 250               	.cfi_def_cfa_offset 24
 251 01ea 4EB9 0000 	jsr CFE_ES_WriteToSysLog
 251      0000 
 252 01f0 588F      	addq.l #4,%sp
 253               	.cfi_def_cfa_offset 20
68K GAS   			page 12


 254 01f2 601C      	jra .L15
 255               	.L16:
 314:/home/simulink/cFS_FreeRTOS_seL4/cfe/fsw/cfe-core/src/es/cfe_es_cds.c ****         }
 315:/home/simulink/cFS_FreeRTOS_seL4/cfe/fsw/cfe-core/src/es/cfe_es_cds.c ****         else
 316:/home/simulink/cFS_FreeRTOS_seL4/cfe/fsw/cfe-core/src/es/cfe_es_cds.c ****         {
 317:/home/simulink/cFS_FreeRTOS_seL4/cfe/fsw/cfe-core/src/es/cfe_es_cds.c ****             RegRecPtr = &CFE_ES_Global.CDSVars.Registry[RegIndx];
 256               	.loc 1 317 0
 257 01f4 202F 0008 	move.l 8(%sp),%d0
 258 01f8 7234      	moveq #52,%d1
 259 01fa 4C01 0800 	muls.l %d1,%d0
 260 01fe 0680 0000 	add.l #8180,%d0
 260      1FF4 
 261 0204 2200      	move.l %d0,%d1
 262 0206 0681 0000 	add.l #CFE_ES_Global,%d1
 262      0000 
 263 020c 2F41 0004 	move.l %d1,4(%sp)
 264               	.L15:
 318:/home/simulink/cFS_FreeRTOS_seL4/cfe/fsw/cfe-core/src/es/cfe_es_cds.c ****         }
 319:/home/simulink/cFS_FreeRTOS_seL4/cfe/fsw/cfe-core/src/es/cfe_es_cds.c ****     }
 320:/home/simulink/cFS_FreeRTOS_seL4/cfe/fsw/cfe-core/src/es/cfe_es_cds.c **** 
 321:/home/simulink/cFS_FreeRTOS_seL4/cfe/fsw/cfe-core/src/es/cfe_es_cds.c ****     /* If no errors, then initialize the CDS registry entry     */
 322:/home/simulink/cFS_FreeRTOS_seL4/cfe/fsw/cfe-core/src/es/cfe_es_cds.c ****     if (Status == CFE_SUCCESS)
 265               	.loc 1 322 0
 266 0210 4AAF 000C 	tst.l 12(%sp)
 267 0214 6600 0088 	jne .L17
 323:/home/simulink/cFS_FreeRTOS_seL4/cfe/fsw/cfe-core/src/es/cfe_es_cds.c ****     {
 324:/home/simulink/cFS_FreeRTOS_seL4/cfe/fsw/cfe-core/src/es/cfe_es_cds.c ****         /* Allocate the memory buffer for the CDS */
 325:/home/simulink/cFS_FreeRTOS_seL4/cfe/fsw/cfe-core/src/es/cfe_es_cds.c ****         Status = CFE_ES_GetCDSBlock((CFE_ES_CDSBlockHandle_t *)&RegRecPtr->MemHandle, BlockSize);
 268               	.loc 1 325 0
 269 0218 222F 0018 	move.l 24(%sp),%d1
 270 021c 202F 0004 	move.l 4(%sp),%d0
 271 0220 0680 0000 	add.l #40,%d0
 271      0028 
 272 0226 2F01      	move.l %d1,-(%sp)
 273               	.cfi_def_cfa_offset 24
 274 0228 2F00      	move.l %d0,-(%sp)
 275               	.cfi_def_cfa_offset 28
 276 022a 4EB9 0000 	jsr CFE_ES_GetCDSBlock
 276      0000 
 277 0230 508F      	addq.l #8,%sp
 278               	.cfi_def_cfa_offset 20
 279 0232 2F40 000C 	move.l %d0,12(%sp)
 326:/home/simulink/cFS_FreeRTOS_seL4/cfe/fsw/cfe-core/src/es/cfe_es_cds.c ****             
 327:/home/simulink/cFS_FreeRTOS_seL4/cfe/fsw/cfe-core/src/es/cfe_es_cds.c ****         if (Status == CFE_SUCCESS)
 280               	.loc 1 327 0
 281 0236 4AAF 000C 	tst.l 12(%sp)
 282 023a 6662      	jne .L17
 328:/home/simulink/cFS_FreeRTOS_seL4/cfe/fsw/cfe-core/src/es/cfe_es_cds.c ****         {
 329:/home/simulink/cFS_FreeRTOS_seL4/cfe/fsw/cfe-core/src/es/cfe_es_cds.c ****            RegRecPtr->Taken = TRUE;
 283               	.loc 1 329 0
 284 023c 206F 0004 	move.l 4(%sp),%a0
 285 0240 7001      	moveq #1,%d0
 286 0242 1140 0030 	move.b %d0,48(%a0)
 330:/home/simulink/cFS_FreeRTOS_seL4/cfe/fsw/cfe-core/src/es/cfe_es_cds.c ****         
 331:/home/simulink/cFS_FreeRTOS_seL4/cfe/fsw/cfe-core/src/es/cfe_es_cds.c ****            /* Save the size of the CDS */
 332:/home/simulink/cFS_FreeRTOS_seL4/cfe/fsw/cfe-core/src/es/cfe_es_cds.c ****            RegRecPtr->Size = BlockSize;
 287               	.loc 1 332 0
68K GAS   			page 13


 288 0246 202F 0018 	move.l 24(%sp),%d0
 289 024a 206F 0004 	move.l 4(%sp),%a0
 290 024e 2140 002C 	move.l %d0,44(%a0)
 333:/home/simulink/cFS_FreeRTOS_seL4/cfe/fsw/cfe-core/src/es/cfe_es_cds.c ****         
 334:/home/simulink/cFS_FreeRTOS_seL4/cfe/fsw/cfe-core/src/es/cfe_es_cds.c ****            /* Save flag indicating whether it is a Critical Table or not */
 335:/home/simulink/cFS_FreeRTOS_seL4/cfe/fsw/cfe-core/src/es/cfe_es_cds.c ****            RegRecPtr->Table = CriticalTbl;
 291               	.loc 1 335 0
 292 0252 206F 0004 	move.l 4(%sp),%a0
 293 0256 1157 0031 	move.b (%sp),49(%a0)
 336:/home/simulink/cFS_FreeRTOS_seL4/cfe/fsw/cfe-core/src/es/cfe_es_cds.c **** 
 337:/home/simulink/cFS_FreeRTOS_seL4/cfe/fsw/cfe-core/src/es/cfe_es_cds.c ****            /* Save CDS Name in Registry */
 338:/home/simulink/cFS_FreeRTOS_seL4/cfe/fsw/cfe-core/src/es/cfe_es_cds.c ****            strncpy(RegRecPtr->Name, Name, CFE_ES_CDS_MAX_FULL_NAME_LEN);
 294               	.loc 1 338 0
 295 025a 202F 0004 	move.l 4(%sp),%d0
 296 025e 4878 0026 	pea 38.w
 297               	.cfi_def_cfa_offset 24
 298 0262 2F2F 0020 	move.l 32(%sp),-(%sp)
 299               	.cfi_def_cfa_offset 28
 300 0266 2F00      	move.l %d0,-(%sp)
 301               	.cfi_def_cfa_offset 32
 302 0268 4EB9 0000 	jsr strncpy
 302      0000 
 303 026e 4FEF 000C 	lea (12,%sp),%sp
 304               	.cfi_def_cfa_offset 20
 339:/home/simulink/cFS_FreeRTOS_seL4/cfe/fsw/cfe-core/src/es/cfe_es_cds.c ****                
 340:/home/simulink/cFS_FreeRTOS_seL4/cfe/fsw/cfe-core/src/es/cfe_es_cds.c ****            /* Return the index into the registry as the handle to the CDS */
 341:/home/simulink/cFS_FreeRTOS_seL4/cfe/fsw/cfe-core/src/es/cfe_es_cds.c ****            *HandlePtr = RegIndx;
 305               	.loc 1 341 0
 306 0272 206F 0014 	move.l 20(%sp),%a0
 307 0276 20AF 0008 	move.l 8(%sp),(%a0)
 342:/home/simulink/cFS_FreeRTOS_seL4/cfe/fsw/cfe-core/src/es/cfe_es_cds.c ****         
 343:/home/simulink/cFS_FreeRTOS_seL4/cfe/fsw/cfe-core/src/es/cfe_es_cds.c ****            /* If we succeeded at creating a CDS, save updated registry in the CDS */
 344:/home/simulink/cFS_FreeRTOS_seL4/cfe/fsw/cfe-core/src/es/cfe_es_cds.c ****            Status = CFE_ES_UpdateCDSRegistry();
 308               	.loc 1 344 0
 309 027a 4EB9 0000 	jsr CFE_ES_UpdateCDSRegistry
 309      0000 
 310 0280 2F40 000C 	move.l %d0,12(%sp)
 345:/home/simulink/cFS_FreeRTOS_seL4/cfe/fsw/cfe-core/src/es/cfe_es_cds.c ****                 
 346:/home/simulink/cFS_FreeRTOS_seL4/cfe/fsw/cfe-core/src/es/cfe_es_cds.c ****            if (Status != CFE_SUCCESS)
 311               	.loc 1 346 0
 312 0284 4AAF 000C 	tst.l 12(%sp)
 313 0288 6714      	jeq .L17
 347:/home/simulink/cFS_FreeRTOS_seL4/cfe/fsw/cfe-core/src/es/cfe_es_cds.c ****            {
 348:/home/simulink/cFS_FreeRTOS_seL4/cfe/fsw/cfe-core/src/es/cfe_es_cds.c ****               CFE_ES_WriteToSysLog("CFE_CDS:RegCDS-Failed to update CDS Registry (Stat=0x%08X)\n", 
 314               	.loc 1 348 0
 315 028a 202F 000C 	move.l 12(%sp),%d0
 316 028e 2F00      	move.l %d0,-(%sp)
 317               	.cfi_def_cfa_offset 24
 318 0290 4879 0000 	pea .LC5
 318      0000 
 319               	.cfi_def_cfa_offset 28
 320 0296 4EB9 0000 	jsr CFE_ES_WriteToSysLog
 320      0000 
 321 029c 508F      	addq.l #8,%sp
 322               	.cfi_def_cfa_offset 20
 323               	.L17:
 349:/home/simulink/cFS_FreeRTOS_seL4/cfe/fsw/cfe-core/src/es/cfe_es_cds.c ****            }
68K GAS   			page 14


 350:/home/simulink/cFS_FreeRTOS_seL4/cfe/fsw/cfe-core/src/es/cfe_es_cds.c ****         }
 351:/home/simulink/cFS_FreeRTOS_seL4/cfe/fsw/cfe-core/src/es/cfe_es_cds.c ****     }
 352:/home/simulink/cFS_FreeRTOS_seL4/cfe/fsw/cfe-core/src/es/cfe_es_cds.c **** 
 353:/home/simulink/cFS_FreeRTOS_seL4/cfe/fsw/cfe-core/src/es/cfe_es_cds.c ****     /* Unlock Registry for update */
 354:/home/simulink/cFS_FreeRTOS_seL4/cfe/fsw/cfe-core/src/es/cfe_es_cds.c ****     CFE_ES_UnlockCDSRegistry();
 324               	.loc 1 354 0
 325 029e 4EB9 0000 	jsr CFE_ES_UnlockCDSRegistry
 325      0000 
 355:/home/simulink/cFS_FreeRTOS_seL4/cfe/fsw/cfe-core/src/es/cfe_es_cds.c ****     
 356:/home/simulink/cFS_FreeRTOS_seL4/cfe/fsw/cfe-core/src/es/cfe_es_cds.c ****     return (Status);
 326               	.loc 1 356 0
 327 02a4 202F 000C 	move.l 12(%sp),%d0
 357:/home/simulink/cFS_FreeRTOS_seL4/cfe/fsw/cfe-core/src/es/cfe_es_cds.c **** 
 358:/home/simulink/cFS_FreeRTOS_seL4/cfe/fsw/cfe-core/src/es/cfe_es_cds.c **** }  /* End of CFE_ES_RegisterCDSEx() */
 328               	.loc 1 358 0
 329 02a8 4FEF 0010 	lea (16,%sp),%sp
 330 02ac 4E75      	rts
 331               	.cfi_endproc
 332               	.LFE60:
 333               	.sizeCFE_ES_RegisterCDSEx, .-CFE_ES_RegisterCDSEx
 334               	.section.rodata
 335               	.LC6:
 336 011e 5F43 4453 	.string"_CDSBeg_"
 336      4265 675F 
 336      00
 337               	.LC7:
 338 0127 5F43 4453 	.string"_CDSEnd_"
 338      456E 645F 
 338      00
 339               	.LC8:
 340 0130 4346 455F 	.string"CFE_CDS:Validate-2nd ReadFromCDS Failed. Status=0x%X\n"
 340      4344 533A 
 340      5661 6C69 
 340      6461 7465 
 340      2D32 6E64 
 341               	.LC9:
 342 0166 4346 455F 	.string"CFE_CDS:Validate-1st ReadFromCDS Failed. Status=0x%X\n"
 342      4344 533A 
 342      5661 6C69 
 342      6461 7465 
 342      2D31 7374 
 343               	.text
 344               	.align2
 345               	.globlCFE_ES_ValidateCDS
 346               	.typeCFE_ES_ValidateCDS, @function
 347               	CFE_ES_ValidateCDS:
 348               	.LFB61:
 359:/home/simulink/cFS_FreeRTOS_seL4/cfe/fsw/cfe-core/src/es/cfe_es_cds.c **** 
 360:/home/simulink/cFS_FreeRTOS_seL4/cfe/fsw/cfe-core/src/es/cfe_es_cds.c **** /*******************************************************************
 361:/home/simulink/cFS_FreeRTOS_seL4/cfe/fsw/cfe-core/src/es/cfe_es_cds.c **** **
 362:/home/simulink/cFS_FreeRTOS_seL4/cfe/fsw/cfe-core/src/es/cfe_es_cds.c **** ** CFE_ES_ValidateCDS
 363:/home/simulink/cFS_FreeRTOS_seL4/cfe/fsw/cfe-core/src/es/cfe_es_cds.c **** **
 364:/home/simulink/cFS_FreeRTOS_seL4/cfe/fsw/cfe-core/src/es/cfe_es_cds.c **** ** NOTE: For complete prolog information, see prototype above
 365:/home/simulink/cFS_FreeRTOS_seL4/cfe/fsw/cfe-core/src/es/cfe_es_cds.c **** ********************************************************************/
 366:/home/simulink/cFS_FreeRTOS_seL4/cfe/fsw/cfe-core/src/es/cfe_es_cds.c **** 
 367:/home/simulink/cFS_FreeRTOS_seL4/cfe/fsw/cfe-core/src/es/cfe_es_cds.c **** int32 CFE_ES_ValidateCDS(void)
 368:/home/simulink/cFS_FreeRTOS_seL4/cfe/fsw/cfe-core/src/es/cfe_es_cds.c **** {
68K GAS   			page 15


 349               	.loc 1 368 0
 350               	.cfi_startproc
 351 02ae 598F      	subq.l #4,%sp
 352               	.cfi_def_cfa_offset 8
 369:/home/simulink/cFS_FreeRTOS_seL4/cfe/fsw/cfe-core/src/es/cfe_es_cds.c ****     /* Assume the CDS is invalid */
 370:/home/simulink/cFS_FreeRTOS_seL4/cfe/fsw/cfe-core/src/es/cfe_es_cds.c ****     int32 Status;
 371:/home/simulink/cFS_FreeRTOS_seL4/cfe/fsw/cfe-core/src/es/cfe_es_cds.c ****     
 372:/home/simulink/cFS_FreeRTOS_seL4/cfe/fsw/cfe-core/src/es/cfe_es_cds.c ****     /* Perform 2 checks to validate the CDS Memory Pool */
 373:/home/simulink/cFS_FreeRTOS_seL4/cfe/fsw/cfe-core/src/es/cfe_es_cds.c ****     /* First, determine if the first validity check field is correct */
 374:/home/simulink/cFS_FreeRTOS_seL4/cfe/fsw/cfe-core/src/es/cfe_es_cds.c ****     Status = CFE_PSP_ReadFromCDS(&CFE_ES_Global.CDSVars.ValidityField, 0, sizeof(CFE_ES_Global.CDSV
 353               	.loc 1 374 0
 354 02b0 4878 0008 	pea 8.w
 355               	.cfi_def_cfa_offset 12
 356 02b4 42A7      	clr.l -(%sp)
 357               	.cfi_def_cfa_offset 16
 358 02b6 4879 0000 	pea CFE_ES_Global+34804
 358      0000 
 359               	.cfi_def_cfa_offset 20
 360 02bc 4EB9 0000 	jsr CFE_PSP_ReadFromCDS
 360      0000 
 361 02c2 4FEF 000C 	lea (12,%sp),%sp
 362               	.cfi_def_cfa_offset 8
 363 02c6 2E80      	move.l %d0,(%sp)
 375:/home/simulink/cFS_FreeRTOS_seL4/cfe/fsw/cfe-core/src/es/cfe_es_cds.c **** 
 376:/home/simulink/cFS_FreeRTOS_seL4/cfe/fsw/cfe-core/src/es/cfe_es_cds.c ****     if (Status == CFE_PSP_SUCCESS)
 364               	.loc 1 376 0
 365 02c8 4A97      	tst.l (%sp)
 366 02ca 6600 008A 	jne .L20
 377:/home/simulink/cFS_FreeRTOS_seL4/cfe/fsw/cfe-core/src/es/cfe_es_cds.c ****     {
 378:/home/simulink/cFS_FreeRTOS_seL4/cfe/fsw/cfe-core/src/es/cfe_es_cds.c ****         if (strncmp(CFE_ES_Global.CDSVars.ValidityField, "_CDSBeg_", sizeof(CFE_ES_Global.CDSVars.V
 367               	.loc 1 378 0
 368 02ce 4878 0008 	pea 8.w
 369               	.cfi_def_cfa_offset 12
 370 02d2 4879 0000 	pea .LC6
 370      0000 
 371               	.cfi_def_cfa_offset 16
 372 02d8 4879 0000 	pea CFE_ES_Global+34804
 372      0000 
 373               	.cfi_def_cfa_offset 20
 374 02de 4EB9 0000 	jsr strncmp
 374      0000 
 375 02e4 4FEF 000C 	lea (12,%sp),%sp
 376               	.cfi_def_cfa_offset 8
 377 02e8 4A80      	tst.l %d0
 378 02ea 6662      	jne .L21
 379:/home/simulink/cFS_FreeRTOS_seL4/cfe/fsw/cfe-core/src/es/cfe_es_cds.c ****         {
 380:/home/simulink/cFS_FreeRTOS_seL4/cfe/fsw/cfe-core/src/es/cfe_es_cds.c ****             Status = CFE_PSP_ReadFromCDS(&CFE_ES_Global.CDSVars.ValidityField, 
 381:/home/simulink/cFS_FreeRTOS_seL4/cfe/fsw/cfe-core/src/es/cfe_es_cds.c ****                                        (CFE_ES_Global.CDSVars.CDSSize-sizeof(CFE_ES_Global.CDSVars.
 379               	.loc 1 381 0
 380 02ec 2039 0000 	move.l CFE_ES_Global+8168,%d0
 380      0000 
 380:/home/simulink/cFS_FreeRTOS_seL4/cfe/fsw/cfe-core/src/es/cfe_es_cds.c ****                                        (CFE_ES_Global.CDSVars.CDSSize-sizeof(CFE_ES_Global.CDSVars.
 381               	.loc 1 380 0
 382 02f2 5180      	subq.l #8,%d0
 383 02f4 4878 0008 	pea 8.w
 384               	.cfi_def_cfa_offset 12
 385 02f8 2F00      	move.l %d0,-(%sp)
68K GAS   			page 16


 386               	.cfi_def_cfa_offset 16
 387 02fa 4879 0000 	pea CFE_ES_Global+34804
 387      0000 
 388               	.cfi_def_cfa_offset 20
 389 0300 4EB9 0000 	jsr CFE_PSP_ReadFromCDS
 389      0000 
 390 0306 4FEF 000C 	lea (12,%sp),%sp
 391               	.cfi_def_cfa_offset 8
 392 030a 2E80      	move.l %d0,(%sp)
 382:/home/simulink/cFS_FreeRTOS_seL4/cfe/fsw/cfe-core/src/es/cfe_es_cds.c ****                                        sizeof(CFE_ES_Global.CDSVars.ValidityField));
 383:/home/simulink/cFS_FreeRTOS_seL4/cfe/fsw/cfe-core/src/es/cfe_es_cds.c ****         
 384:/home/simulink/cFS_FreeRTOS_seL4/cfe/fsw/cfe-core/src/es/cfe_es_cds.c ****             if (Status == CFE_PSP_SUCCESS)
 393               	.loc 1 384 0
 394 030c 4A97      	tst.l (%sp)
 395 030e 662A      	jne .L22
 385:/home/simulink/cFS_FreeRTOS_seL4/cfe/fsw/cfe-core/src/es/cfe_es_cds.c ****             {
 386:/home/simulink/cFS_FreeRTOS_seL4/cfe/fsw/cfe-core/src/es/cfe_es_cds.c ****                 if (strncmp(CFE_ES_Global.CDSVars.ValidityField, "_CDSEnd_", sizeof(CFE_ES_Global.C
 396               	.loc 1 386 0
 397 0310 4878 0008 	pea 8.w
 398               	.cfi_def_cfa_offset 12
 399 0314 4879 0000 	pea .LC7
 399      0000 
 400               	.cfi_def_cfa_offset 16
 401 031a 4879 0000 	pea CFE_ES_Global+34804
 401      0000 
 402               	.cfi_def_cfa_offset 20
 403 0320 4EB9 0000 	jsr strncmp
 403      0000 
 404 0326 4FEF 000C 	lea (12,%sp),%sp
 405               	.cfi_def_cfa_offset 8
 406 032a 4A80      	tst.l %d0
 407 032c 6604      	jne .L23
 387:/home/simulink/cFS_FreeRTOS_seL4/cfe/fsw/cfe-core/src/es/cfe_es_cds.c ****                 {
 388:/home/simulink/cFS_FreeRTOS_seL4/cfe/fsw/cfe-core/src/es/cfe_es_cds.c ****                     Status = CFE_SUCCESS;
 408               	.loc 1 388 0
 409 032e 4297      	clr.l (%sp)
 410 0330 6036      	jra .L27
 411               	.L23:
 389:/home/simulink/cFS_FreeRTOS_seL4/cfe/fsw/cfe-core/src/es/cfe_es_cds.c ****                 }
 390:/home/simulink/cFS_FreeRTOS_seL4/cfe/fsw/cfe-core/src/es/cfe_es_cds.c ****                 else /* Validity Field failed */
 391:/home/simulink/cFS_FreeRTOS_seL4/cfe/fsw/cfe-core/src/es/cfe_es_cds.c ****                 {
 392:/home/simulink/cFS_FreeRTOS_seL4/cfe/fsw/cfe-core/src/es/cfe_es_cds.c ****                     Status = CFE_ES_CDS_INVALID;
 412               	.loc 1 392 0
 413 0332 2EBC C400 	move.l #-1006632942,(%sp)
 413      0012 
 414 0338 602E      	jra .L27
 415               	.L22:
 393:/home/simulink/cFS_FreeRTOS_seL4/cfe/fsw/cfe-core/src/es/cfe_es_cds.c ****                 }
 394:/home/simulink/cFS_FreeRTOS_seL4/cfe/fsw/cfe-core/src/es/cfe_es_cds.c ****             }
 395:/home/simulink/cFS_FreeRTOS_seL4/cfe/fsw/cfe-core/src/es/cfe_es_cds.c ****             else /* BSP reported an error reading from CDS */
 396:/home/simulink/cFS_FreeRTOS_seL4/cfe/fsw/cfe-core/src/es/cfe_es_cds.c ****             {
 397:/home/simulink/cFS_FreeRTOS_seL4/cfe/fsw/cfe-core/src/es/cfe_es_cds.c ****                 CFE_ES_WriteToSysLog("CFE_CDS:Validate-2nd ReadFromCDS Failed. Status=0x%X\n", (uns
 416               	.loc 1 397 0
 417 033a 2017      	move.l (%sp),%d0
 418 033c 2F00      	move.l %d0,-(%sp)
 419               	.cfi_def_cfa_offset 12
 420 033e 4879 0000 	pea .LC8
68K GAS   			page 17


 420      0000 
 421               	.cfi_def_cfa_offset 16
 422 0344 4EB9 0000 	jsr CFE_ES_WriteToSysLog
 422      0000 
 423 034a 508F      	addq.l #8,%sp
 424               	.cfi_def_cfa_offset 8
 425 034c 601A      	jra .L27
 426               	.L21:
 398:/home/simulink/cFS_FreeRTOS_seL4/cfe/fsw/cfe-core/src/es/cfe_es_cds.c ****             }
 399:/home/simulink/cFS_FreeRTOS_seL4/cfe/fsw/cfe-core/src/es/cfe_es_cds.c ****         }
 400:/home/simulink/cFS_FreeRTOS_seL4/cfe/fsw/cfe-core/src/es/cfe_es_cds.c ****         else /* Validity Field failed */
 401:/home/simulink/cFS_FreeRTOS_seL4/cfe/fsw/cfe-core/src/es/cfe_es_cds.c ****         {
 402:/home/simulink/cFS_FreeRTOS_seL4/cfe/fsw/cfe-core/src/es/cfe_es_cds.c ****             Status = CFE_ES_CDS_INVALID;
 427               	.loc 1 402 0
 428 034e 2EBC C400 	move.l #-1006632942,(%sp)
 428      0012 
 429 0354 6012      	jra .L27
 430               	.L20:
 403:/home/simulink/cFS_FreeRTOS_seL4/cfe/fsw/cfe-core/src/es/cfe_es_cds.c ****         }
 404:/home/simulink/cFS_FreeRTOS_seL4/cfe/fsw/cfe-core/src/es/cfe_es_cds.c ****     }
 405:/home/simulink/cFS_FreeRTOS_seL4/cfe/fsw/cfe-core/src/es/cfe_es_cds.c ****     else /* BSP reported an error reading from CDS */
 406:/home/simulink/cFS_FreeRTOS_seL4/cfe/fsw/cfe-core/src/es/cfe_es_cds.c ****     {
 407:/home/simulink/cFS_FreeRTOS_seL4/cfe/fsw/cfe-core/src/es/cfe_es_cds.c ****         CFE_ES_WriteToSysLog("CFE_CDS:Validate-1st ReadFromCDS Failed. Status=0x%X\n", (unsigned in
 431               	.loc 1 407 0
 432 0356 2017      	move.l (%sp),%d0
 433 0358 2F00      	move.l %d0,-(%sp)
 434               	.cfi_def_cfa_offset 12
 435 035a 4879 0000 	pea .LC9
 435      0000 
 436               	.cfi_def_cfa_offset 16
 437 0360 4EB9 0000 	jsr CFE_ES_WriteToSysLog
 437      0000 
 438 0366 508F      	addq.l #8,%sp
 439               	.cfi_def_cfa_offset 8
 440               	.L27:
 408:/home/simulink/cFS_FreeRTOS_seL4/cfe/fsw/cfe-core/src/es/cfe_es_cds.c ****     }
 409:/home/simulink/cFS_FreeRTOS_seL4/cfe/fsw/cfe-core/src/es/cfe_es_cds.c ****     
 410:/home/simulink/cFS_FreeRTOS_seL4/cfe/fsw/cfe-core/src/es/cfe_es_cds.c ****     return Status;
 441               	.loc 1 410 0
 442 0368 2017      	move.l (%sp),%d0
 411:/home/simulink/cFS_FreeRTOS_seL4/cfe/fsw/cfe-core/src/es/cfe_es_cds.c **** }   /* End of CFE_ES_ValidateCDS() */
 443               	.loc 1 411 0
 444 036a 588F      	addq.l #4,%sp
 445 036c 4E75      	rts
 446               	.cfi_endproc
 447               	.LFE61:
 448               	.sizeCFE_ES_ValidateCDS, .-CFE_ES_ValidateCDS
 449               	.section.rodata
 450               	.LC10:
 451 019c 4346 455F 	.string"CFE_CDS:Init-Clear CDS failed @ Offset=%d Status=0x%08X\n"
 451      4344 533A 
 451      496E 6974 
 451      2D43 6C65 
 451      6172 2043 
 452               	.LC11:
 453 01d5 4346 455F 	.string"CFE_CDS:Init-'_CDSEnd_' write failed. Status=0x%08X\n"
 453      4344 533A 
68K GAS   			page 18


 453      496E 6974 
 453      2D27 5F43 
 453      4453 456E 
 454               	.LC12:
 455 020a 4346 455F 	.string"CFE_CDS:Init-'_CDSBeg_' write failed. Status=0x%08X\n"
 455      4344 533A 
 455      496E 6974 
 455      2D27 5F43 
 455      4453 4265 
 456               	.text
 457               	.align2
 458               	.globlCFE_ES_InitializeCDS
 459               	.typeCFE_ES_InitializeCDS, @function
 460               	CFE_ES_InitializeCDS:
 461               	.LFB62:
 412:/home/simulink/cFS_FreeRTOS_seL4/cfe/fsw/cfe-core/src/es/cfe_es_cds.c **** 
 413:/home/simulink/cFS_FreeRTOS_seL4/cfe/fsw/cfe-core/src/es/cfe_es_cds.c **** /*******************************************************************
 414:/home/simulink/cFS_FreeRTOS_seL4/cfe/fsw/cfe-core/src/es/cfe_es_cds.c **** **
 415:/home/simulink/cFS_FreeRTOS_seL4/cfe/fsw/cfe-core/src/es/cfe_es_cds.c **** ** CFE_ES_InitializeCDS
 416:/home/simulink/cFS_FreeRTOS_seL4/cfe/fsw/cfe-core/src/es/cfe_es_cds.c **** **
 417:/home/simulink/cFS_FreeRTOS_seL4/cfe/fsw/cfe-core/src/es/cfe_es_cds.c **** ** NOTE: For complete prolog information, see prototype above
 418:/home/simulink/cFS_FreeRTOS_seL4/cfe/fsw/cfe-core/src/es/cfe_es_cds.c **** ********************************************************************/
 419:/home/simulink/cFS_FreeRTOS_seL4/cfe/fsw/cfe-core/src/es/cfe_es_cds.c **** 
 420:/home/simulink/cFS_FreeRTOS_seL4/cfe/fsw/cfe-core/src/es/cfe_es_cds.c **** int32 CFE_ES_InitializeCDS(uint32 CDSSize)
 421:/home/simulink/cFS_FreeRTOS_seL4/cfe/fsw/cfe-core/src/es/cfe_es_cds.c **** {
 462               	.loc 1 421 0
 463               	.cfi_startproc
 464 036e 4FEF FF74 	lea (-140,%sp),%sp
 465               	.cfi_def_cfa_offset 144
 422:/home/simulink/cFS_FreeRTOS_seL4/cfe/fsw/cfe-core/src/es/cfe_es_cds.c ****     int32  Status = CFE_SUCCESS;
 466               	.loc 1 422 0
 467 0372 42AF 0088 	clr.l 136(%sp)
 423:/home/simulink/cFS_FreeRTOS_seL4/cfe/fsw/cfe-core/src/es/cfe_es_cds.c ****     uint32 MemBlock[32];
 424:/home/simulink/cFS_FreeRTOS_seL4/cfe/fsw/cfe-core/src/es/cfe_es_cds.c ****     uint32 NumWritten=0;
 468               	.loc 1 424 0
 469 0376 42AF 0084 	clr.l 132(%sp)
 425:/home/simulink/cFS_FreeRTOS_seL4/cfe/fsw/cfe-core/src/es/cfe_es_cds.c ****     uint32 Uint32Zero=0;
 470               	.loc 1 425 0
 471 037a 4297      	clr.l (%sp)
 426:/home/simulink/cFS_FreeRTOS_seL4/cfe/fsw/cfe-core/src/es/cfe_es_cds.c ****     
 427:/home/simulink/cFS_FreeRTOS_seL4/cfe/fsw/cfe-core/src/es/cfe_es_cds.c ****     /* Clear the CDS to ensure everything is gone */
 428:/home/simulink/cFS_FreeRTOS_seL4/cfe/fsw/cfe-core/src/es/cfe_es_cds.c ****     /* Create a block of zeros to write to the CDS */
 429:/home/simulink/cFS_FreeRTOS_seL4/cfe/fsw/cfe-core/src/es/cfe_es_cds.c ****     CFE_PSP_MemSet(MemBlock, 0, sizeof(MemBlock));
 472               	.loc 1 429 0
 473 037c 4878 0080 	pea 128.w
 474               	.cfi_def_cfa_offset 148
 475 0380 42A7      	clr.l -(%sp)
 476               	.cfi_def_cfa_offset 152
 477 0382 200F      	move.l %sp,%d0
 478 0384 0680 0000 	add.l #12,%d0
 478      000C 
 479 038a 2F00      	move.l %d0,-(%sp)
 480               	.cfi_def_cfa_offset 156
 481 038c 4EB9 0000 	jsr CFE_PSP_MemSet
 481      0000 
 482 0392 4FEF 000C 	lea (12,%sp),%sp
 483               	.cfi_def_cfa_offset 144
68K GAS   			page 19


 430:/home/simulink/cFS_FreeRTOS_seL4/cfe/fsw/cfe-core/src/es/cfe_es_cds.c ****     
 431:/home/simulink/cFS_FreeRTOS_seL4/cfe/fsw/cfe-core/src/es/cfe_es_cds.c ****     /* While there is space to write another block of zeros, then do so */
 432:/home/simulink/cFS_FreeRTOS_seL4/cfe/fsw/cfe-core/src/es/cfe_es_cds.c ****     while (((NumWritten + sizeof(MemBlock)) < CDSSize) && (Status == OS_SUCCESS))
 484               	.loc 1 432 0
 485 0396 6030      	jra .L30
 486               	.L32:
 433:/home/simulink/cFS_FreeRTOS_seL4/cfe/fsw/cfe-core/src/es/cfe_es_cds.c ****     {
 434:/home/simulink/cFS_FreeRTOS_seL4/cfe/fsw/cfe-core/src/es/cfe_es_cds.c ****         Status = CFE_PSP_WriteToCDS(MemBlock, NumWritten, sizeof(MemBlock));
 487               	.loc 1 434 0
 488 0398 4878 0080 	pea 128.w
 489               	.cfi_def_cfa_offset 148
 490 039c 2F2F 0088 	move.l 136(%sp),-(%sp)
 491               	.cfi_def_cfa_offset 152
 492 03a0 200F      	move.l %sp,%d0
 493 03a2 0680 0000 	add.l #12,%d0
 493      000C 
 494 03a8 2F00      	move.l %d0,-(%sp)
 495               	.cfi_def_cfa_offset 156
 496 03aa 4EB9 0000 	jsr CFE_PSP_WriteToCDS
 496      0000 
 497 03b0 4FEF 000C 	lea (12,%sp),%sp
 498               	.cfi_def_cfa_offset 144
 499 03b4 2F40 0088 	move.l %d0,136(%sp)
 435:/home/simulink/cFS_FreeRTOS_seL4/cfe/fsw/cfe-core/src/es/cfe_es_cds.c ****         
 436:/home/simulink/cFS_FreeRTOS_seL4/cfe/fsw/cfe-core/src/es/cfe_es_cds.c ****         if (Status == CFE_PSP_SUCCESS)
 500               	.loc 1 436 0
 501 03b8 4AAF 0088 	tst.l 136(%sp)
 502 03bc 660A      	jne .L30
 437:/home/simulink/cFS_FreeRTOS_seL4/cfe/fsw/cfe-core/src/es/cfe_es_cds.c ****         {
 438:/home/simulink/cFS_FreeRTOS_seL4/cfe/fsw/cfe-core/src/es/cfe_es_cds.c ****             NumWritten += sizeof(MemBlock);
 503               	.loc 1 438 0
 504 03be 203C 0000 	move.l #128,%d0
 504      0080 
 505 03c4 D1AF 0084 	add.l %d0,132(%sp)
 506               	.L30:
 432:/home/simulink/cFS_FreeRTOS_seL4/cfe/fsw/cfe-core/src/es/cfe_es_cds.c ****     {
 507               	.loc 1 432 0
 508 03c8 202F 0084 	move.l 132(%sp),%d0
 509 03cc 0680 0000 	add.l #128,%d0
 509      0080 
 510 03d2 B0AF 0090 	cmp.l 144(%sp),%d0
 511 03d6 6406      	jcc .L31
 432:/home/simulink/cFS_FreeRTOS_seL4/cfe/fsw/cfe-core/src/es/cfe_es_cds.c ****     {
 512               	.loc 1 432 0 is_stmt 0 discriminator 1
 513 03d8 4AAF 0088 	tst.l 136(%sp)
 514 03dc 67BA      	jeq .L32
 515               	.L31:
 439:/home/simulink/cFS_FreeRTOS_seL4/cfe/fsw/cfe-core/src/es/cfe_es_cds.c ****         }
 440:/home/simulink/cFS_FreeRTOS_seL4/cfe/fsw/cfe-core/src/es/cfe_es_cds.c ****     }
 441:/home/simulink/cFS_FreeRTOS_seL4/cfe/fsw/cfe-core/src/es/cfe_es_cds.c ****     
 442:/home/simulink/cFS_FreeRTOS_seL4/cfe/fsw/cfe-core/src/es/cfe_es_cds.c ****     /* While there is space to write a uint32 of zeros, then do so */
 443:/home/simulink/cFS_FreeRTOS_seL4/cfe/fsw/cfe-core/src/es/cfe_es_cds.c ****     if ((Status == CFE_PSP_SUCCESS) && (NumWritten < CDSSize))
 516               	.loc 1 443 0 is_stmt 1
 517 03de 4AAF 0088 	tst.l 136(%sp)
 518 03e2 6644      	jne .L33
 519               	.loc 1 443 0 is_stmt 0 discriminator 1
 520 03e4 202F 0090 	move.l 144(%sp),%d0
68K GAS   			page 20


 521 03e8 B0AF 0084 	cmp.l 132(%sp),%d0
 522 03ec 633A      	jls .L33
 444:/home/simulink/cFS_FreeRTOS_seL4/cfe/fsw/cfe-core/src/es/cfe_es_cds.c ****     {
 445:/home/simulink/cFS_FreeRTOS_seL4/cfe/fsw/cfe-core/src/es/cfe_es_cds.c ****         while (((NumWritten + sizeof(uint32)) < CDSSize) && (Status == CFE_PSP_SUCCESS))
 523               	.loc 1 445 0 is_stmt 1
 524 03ee 6026      	jra .L34
 525               	.L35:
 446:/home/simulink/cFS_FreeRTOS_seL4/cfe/fsw/cfe-core/src/es/cfe_es_cds.c ****         {
 447:/home/simulink/cFS_FreeRTOS_seL4/cfe/fsw/cfe-core/src/es/cfe_es_cds.c ****             Status = CFE_PSP_WriteToCDS(&Uint32Zero, NumWritten, sizeof(uint32));
 526               	.loc 1 447 0
 527 03f0 4878 0004 	pea 4.w
 528               	.cfi_def_cfa_offset 148
 529 03f4 2F2F 0088 	move.l 136(%sp),-(%sp)
 530               	.cfi_def_cfa_offset 152
 531 03f8 200F      	move.l %sp,%d0
 532 03fa 5080      	addq.l #8,%d0
 533 03fc 2F00      	move.l %d0,-(%sp)
 534               	.cfi_def_cfa_offset 156
 535 03fe 4EB9 0000 	jsr CFE_PSP_WriteToCDS
 535      0000 
 536 0404 4FEF 000C 	lea (12,%sp),%sp
 537               	.cfi_def_cfa_offset 144
 538 0408 2F40 0088 	move.l %d0,136(%sp)
 448:/home/simulink/cFS_FreeRTOS_seL4/cfe/fsw/cfe-core/src/es/cfe_es_cds.c ****             
 449:/home/simulink/cFS_FreeRTOS_seL4/cfe/fsw/cfe-core/src/es/cfe_es_cds.c ****             if (Status == CFE_PSP_SUCCESS)
 539               	.loc 1 449 0
 540 040c 4AAF 0088 	tst.l 136(%sp)
 541 0410 6604      	jne .L34
 450:/home/simulink/cFS_FreeRTOS_seL4/cfe/fsw/cfe-core/src/es/cfe_es_cds.c ****             {
 451:/home/simulink/cFS_FreeRTOS_seL4/cfe/fsw/cfe-core/src/es/cfe_es_cds.c ****                 NumWritten += sizeof(uint32);
 542               	.loc 1 451 0
 543 0412 58AF 0084 	addq.l #4,132(%sp)
 544               	.L34:
 445:/home/simulink/cFS_FreeRTOS_seL4/cfe/fsw/cfe-core/src/es/cfe_es_cds.c ****         {
 545               	.loc 1 445 0
 546 0416 202F 0084 	move.l 132(%sp),%d0
 547 041a 5880      	addq.l #4,%d0
 548 041c B0AF 0090 	cmp.l 144(%sp),%d0
 549 0420 6406      	jcc .L33
 445:/home/simulink/cFS_FreeRTOS_seL4/cfe/fsw/cfe-core/src/es/cfe_es_cds.c ****         {
 550               	.loc 1 445 0 is_stmt 0 discriminator 1
 551 0422 4AAF 0088 	tst.l 136(%sp)
 552 0426 67C8      	jeq .L35
 553               	.L33:
 452:/home/simulink/cFS_FreeRTOS_seL4/cfe/fsw/cfe-core/src/es/cfe_es_cds.c ****             }
 453:/home/simulink/cFS_FreeRTOS_seL4/cfe/fsw/cfe-core/src/es/cfe_es_cds.c ****         }
 454:/home/simulink/cFS_FreeRTOS_seL4/cfe/fsw/cfe-core/src/es/cfe_es_cds.c ****     }
 455:/home/simulink/cFS_FreeRTOS_seL4/cfe/fsw/cfe-core/src/es/cfe_es_cds.c **** 
 456:/home/simulink/cFS_FreeRTOS_seL4/cfe/fsw/cfe-core/src/es/cfe_es_cds.c ****     if (Status != CFE_PSP_SUCCESS)
 554               	.loc 1 456 0 is_stmt 1
 555 0428 4AAF 0088 	tst.l 136(%sp)
 556 042c 6720      	jeq .L36
 457:/home/simulink/cFS_FreeRTOS_seL4/cfe/fsw/cfe-core/src/es/cfe_es_cds.c ****     {
 458:/home/simulink/cFS_FreeRTOS_seL4/cfe/fsw/cfe-core/src/es/cfe_es_cds.c ****         CFE_ES_WriteToSysLog("CFE_CDS:Init-Clear CDS failed @ Offset=%d Status=0x%08X\n", (int)NumW
 557               	.loc 1 458 0
 558 042e 222F 0088 	move.l 136(%sp),%d1
 559 0432 202F 0084 	move.l 132(%sp),%d0
68K GAS   			page 21


 560 0436 2F01      	move.l %d1,-(%sp)
 561               	.cfi_def_cfa_offset 148
 562 0438 2F00      	move.l %d0,-(%sp)
 563               	.cfi_def_cfa_offset 152
 564 043a 4879 0000 	pea .LC10
 564      0000 
 565               	.cfi_def_cfa_offset 156
 566 0440 4EB9 0000 	jsr CFE_ES_WriteToSysLog
 566      0000 
 567 0446 4FEF 000C 	lea (12,%sp),%sp
 568               	.cfi_def_cfa_offset 144
 569 044a 6000 00C2 	jra .L37
 570               	.L36:
 459:/home/simulink/cFS_FreeRTOS_seL4/cfe/fsw/cfe-core/src/es/cfe_es_cds.c ****     }
 460:/home/simulink/cFS_FreeRTOS_seL4/cfe/fsw/cfe-core/src/es/cfe_es_cds.c ****     else
 461:/home/simulink/cFS_FreeRTOS_seL4/cfe/fsw/cfe-core/src/es/cfe_es_cds.c ****     {
 462:/home/simulink/cFS_FreeRTOS_seL4/cfe/fsw/cfe-core/src/es/cfe_es_cds.c ****         /* Initialize the Validity Check strings */
 463:/home/simulink/cFS_FreeRTOS_seL4/cfe/fsw/cfe-core/src/es/cfe_es_cds.c ****         Status = CFE_PSP_WriteToCDS("_CDSBeg_", 0, sizeof(CFE_ES_Global.CDSVars.ValidityField));
 571               	.loc 1 463 0
 572 044e 4878 0008 	pea 8.w
 573               	.cfi_def_cfa_offset 148
 574 0452 42A7      	clr.l -(%sp)
 575               	.cfi_def_cfa_offset 152
 576 0454 4879 0000 	pea .LC6
 576      0000 
 577               	.cfi_def_cfa_offset 156
 578 045a 4EB9 0000 	jsr CFE_PSP_WriteToCDS
 578      0000 
 579 0460 4FEF 000C 	lea (12,%sp),%sp
 580               	.cfi_def_cfa_offset 144
 581 0464 2F40 0088 	move.l %d0,136(%sp)
 464:/home/simulink/cFS_FreeRTOS_seL4/cfe/fsw/cfe-core/src/es/cfe_es_cds.c ****         if (Status == CFE_PSP_SUCCESS)
 582               	.loc 1 464 0
 583 0468 4AAF 0088 	tst.l 136(%sp)
 584 046c 6600 008C 	jne .L38
 465:/home/simulink/cFS_FreeRTOS_seL4/cfe/fsw/cfe-core/src/es/cfe_es_cds.c ****         {
 466:/home/simulink/cFS_FreeRTOS_seL4/cfe/fsw/cfe-core/src/es/cfe_es_cds.c ****             Status = CFE_PSP_WriteToCDS("_CDSEnd_", 
 585               	.loc 1 466 0
 586 0470 202F 0090 	move.l 144(%sp),%d0
 587 0474 5180      	subq.l #8,%d0
 588 0476 4878 0008 	pea 8.w
 589               	.cfi_def_cfa_offset 148
 590 047a 2F00      	move.l %d0,-(%sp)
 591               	.cfi_def_cfa_offset 152
 592 047c 4879 0000 	pea .LC7
 592      0000 
 593               	.cfi_def_cfa_offset 156
 594 0482 4EB9 0000 	jsr CFE_PSP_WriteToCDS
 594      0000 
 595 0488 4FEF 000C 	lea (12,%sp),%sp
 596               	.cfi_def_cfa_offset 144
 597 048c 2F40 0088 	move.l %d0,136(%sp)
 467:/home/simulink/cFS_FreeRTOS_seL4/cfe/fsw/cfe-core/src/es/cfe_es_cds.c ****                                       (CDSSize-sizeof(CFE_ES_Global.CDSVars.ValidityField)), 
 468:/home/simulink/cFS_FreeRTOS_seL4/cfe/fsw/cfe-core/src/es/cfe_es_cds.c ****                                       sizeof(CFE_ES_Global.CDSVars.ValidityField));
 469:/home/simulink/cFS_FreeRTOS_seL4/cfe/fsw/cfe-core/src/es/cfe_es_cds.c ****             if (Status != CFE_PSP_SUCCESS)
 598               	.loc 1 469 0
 599 0490 4AAF 0088 	tst.l 136(%sp)
68K GAS   			page 22


 600 0494 6716      	jeq .L39
 470:/home/simulink/cFS_FreeRTOS_seL4/cfe/fsw/cfe-core/src/es/cfe_es_cds.c ****             {
 471:/home/simulink/cFS_FreeRTOS_seL4/cfe/fsw/cfe-core/src/es/cfe_es_cds.c ****                 CFE_ES_WriteToSysLog("CFE_CDS:Init-'_CDSEnd_' write failed. Status=0x%08X\n", (unsi
 601               	.loc 1 471 0
 602 0496 202F 0088 	move.l 136(%sp),%d0
 603 049a 2F00      	move.l %d0,-(%sp)
 604               	.cfi_def_cfa_offset 148
 605 049c 4879 0000 	pea .LC11
 605      0000 
 606               	.cfi_def_cfa_offset 152
 607 04a2 4EB9 0000 	jsr CFE_ES_WriteToSysLog
 607      0000 
 608 04a8 508F      	addq.l #8,%sp
 609               	.cfi_def_cfa_offset 144
 610 04aa 6062      	jra .L37
 611               	.L39:
 472:/home/simulink/cFS_FreeRTOS_seL4/cfe/fsw/cfe-core/src/es/cfe_es_cds.c ****             }
 473:/home/simulink/cFS_FreeRTOS_seL4/cfe/fsw/cfe-core/src/es/cfe_es_cds.c ****             else
 474:/home/simulink/cFS_FreeRTOS_seL4/cfe/fsw/cfe-core/src/es/cfe_es_cds.c ****             {
 475:/home/simulink/cFS_FreeRTOS_seL4/cfe/fsw/cfe-core/src/es/cfe_es_cds.c ****                 /* Determine the amount of CDS memory is available for the CDS Memory Pool */
 476:/home/simulink/cFS_FreeRTOS_seL4/cfe/fsw/cfe-core/src/es/cfe_es_cds.c ****                 /* Total CDS Size minus the validity fields and the space for the registry and the 
 477:/home/simulink/cFS_FreeRTOS_seL4/cfe/fsw/cfe-core/src/es/cfe_es_cds.c ****                 if (CDSSize < (CDS_POOL_OFFSET + sizeof(CFE_ES_Global.CDSVars.ValidityField)))
 612               	.loc 1 477 0
 613 04ac 203C 0000 	move.l #26643,%d0
 613      6813 
 614 04b2 B0AF 0090 	cmp.l 144(%sp),%d0
 615 04b6 6508      	jcs .L41
 478:/home/simulink/cFS_FreeRTOS_seL4/cfe/fsw/cfe-core/src/es/cfe_es_cds.c ****                 {
 479:/home/simulink/cFS_FreeRTOS_seL4/cfe/fsw/cfe-core/src/es/cfe_es_cds.c ****                     /* Invalid - passing zero will cause the CFE_ES_CreateCDSPool() to fail */
 480:/home/simulink/cFS_FreeRTOS_seL4/cfe/fsw/cfe-core/src/es/cfe_es_cds.c ****                     CFE_ES_Global.CDSVars.MemPoolSize = 0;
 616               	.loc 1 480 0
 617 04b8 42B9 0000 	clr.l CFE_ES_Global+8172
 617      0000 
 618 04be 6010      	jra .L42
 619               	.L41:
 481:/home/simulink/cFS_FreeRTOS_seL4/cfe/fsw/cfe-core/src/es/cfe_es_cds.c ****                 }
 482:/home/simulink/cFS_FreeRTOS_seL4/cfe/fsw/cfe-core/src/es/cfe_es_cds.c ****                 else
 483:/home/simulink/cFS_FreeRTOS_seL4/cfe/fsw/cfe-core/src/es/cfe_es_cds.c ****                 {
 484:/home/simulink/cFS_FreeRTOS_seL4/cfe/fsw/cfe-core/src/es/cfe_es_cds.c ****                     CFE_ES_Global.CDSVars.MemPoolSize = CDSSize - CDS_POOL_OFFSET - sizeof(CFE_ES_G
 620               	.loc 1 484 0
 621 04c0 202F 0090 	move.l 144(%sp),%d0
 622 04c4 0680 FFFF 	add.l #-26644,%d0
 622      97EC 
 623 04ca 23C0 0000 	move.l %d0,CFE_ES_Global+8172
 623      0000 
 624               	.L42:
 485:/home/simulink/cFS_FreeRTOS_seL4/cfe/fsw/cfe-core/src/es/cfe_es_cds.c ****                 }
 486:/home/simulink/cFS_FreeRTOS_seL4/cfe/fsw/cfe-core/src/es/cfe_es_cds.c **** 
 487:/home/simulink/cFS_FreeRTOS_seL4/cfe/fsw/cfe-core/src/es/cfe_es_cds.c ****                 /* Initialize the variables for managing the CDS Memory Pool */
 488:/home/simulink/cFS_FreeRTOS_seL4/cfe/fsw/cfe-core/src/es/cfe_es_cds.c ****                 Status = CFE_ES_CreateCDSPool(CFE_ES_Global.CDSVars.MemPoolSize, CDS_POOL_OFFSET);
 625               	.loc 1 488 0
 626 04d0 2039 0000 	move.l CFE_ES_Global+8172,%d0
 626      0000 
 627 04d6 4878 680C 	pea 26636.w
 628               	.cfi_def_cfa_offset 148
 629 04da 2F00      	move.l %d0,-(%sp)
 630               	.cfi_def_cfa_offset 152
68K GAS   			page 23


 631 04dc 4EB9 0000 	jsr CFE_ES_CreateCDSPool
 631      0000 
 632 04e2 508F      	addq.l #8,%sp
 633               	.cfi_def_cfa_offset 144
 634 04e4 2F40 0088 	move.l %d0,136(%sp)
 489:/home/simulink/cFS_FreeRTOS_seL4/cfe/fsw/cfe-core/src/es/cfe_es_cds.c ****                 
 490:/home/simulink/cFS_FreeRTOS_seL4/cfe/fsw/cfe-core/src/es/cfe_es_cds.c ****                 if (Status == CFE_SUCCESS)
 635               	.loc 1 490 0
 636 04e8 4AAF 0088 	tst.l 136(%sp)
 637 04ec 6620      	jne .L37
 491:/home/simulink/cFS_FreeRTOS_seL4/cfe/fsw/cfe-core/src/es/cfe_es_cds.c ****                 {
 492:/home/simulink/cFS_FreeRTOS_seL4/cfe/fsw/cfe-core/src/es/cfe_es_cds.c ****                     Status = CFE_ES_InitCDSRegistry();
 638               	.loc 1 492 0
 639 04ee 4EB9 0000 	jsr CFE_ES_InitCDSRegistry
 639      0000 
 640 04f4 2F40 0088 	move.l %d0,136(%sp)
 641 04f8 6014      	jra .L37
 642               	.L38:
 493:/home/simulink/cFS_FreeRTOS_seL4/cfe/fsw/cfe-core/src/es/cfe_es_cds.c ****                 }
 494:/home/simulink/cFS_FreeRTOS_seL4/cfe/fsw/cfe-core/src/es/cfe_es_cds.c ****             }
 495:/home/simulink/cFS_FreeRTOS_seL4/cfe/fsw/cfe-core/src/es/cfe_es_cds.c ****         }
 496:/home/simulink/cFS_FreeRTOS_seL4/cfe/fsw/cfe-core/src/es/cfe_es_cds.c ****         else /* BSP reported an error writing to CDS */
 497:/home/simulink/cFS_FreeRTOS_seL4/cfe/fsw/cfe-core/src/es/cfe_es_cds.c ****         {
 498:/home/simulink/cFS_FreeRTOS_seL4/cfe/fsw/cfe-core/src/es/cfe_es_cds.c ****             CFE_ES_WriteToSysLog("CFE_CDS:Init-'_CDSBeg_' write failed. Status=0x%08X\n", (unsigned
 643               	.loc 1 498 0
 644 04fa 202F 0088 	move.l 136(%sp),%d0
 645 04fe 2F00      	move.l %d0,-(%sp)
 646               	.cfi_def_cfa_offset 148
 647 0500 4879 0000 	pea .LC12
 647      0000 
 648               	.cfi_def_cfa_offset 152
 649 0506 4EB9 0000 	jsr CFE_ES_WriteToSysLog
 649      0000 
 650 050c 508F      	addq.l #8,%sp
 651               	.cfi_def_cfa_offset 144
 652               	.L37:
 499:/home/simulink/cFS_FreeRTOS_seL4/cfe/fsw/cfe-core/src/es/cfe_es_cds.c ****         }
 500:/home/simulink/cFS_FreeRTOS_seL4/cfe/fsw/cfe-core/src/es/cfe_es_cds.c ****     }
 501:/home/simulink/cFS_FreeRTOS_seL4/cfe/fsw/cfe-core/src/es/cfe_es_cds.c ****     
 502:/home/simulink/cFS_FreeRTOS_seL4/cfe/fsw/cfe-core/src/es/cfe_es_cds.c ****     return Status;
 653               	.loc 1 502 0
 654 050e 202F 0088 	move.l 136(%sp),%d0
 503:/home/simulink/cFS_FreeRTOS_seL4/cfe/fsw/cfe-core/src/es/cfe_es_cds.c **** }   /* End of CFE_ES_InitializeCDS() */
 655               	.loc 1 503 0
 656 0512 4FEF 008C 	lea (140,%sp),%sp
 657 0516 4E75      	rts
 658               	.cfi_endproc
 659               	.LFE62:
 660               	.sizeCFE_ES_InitializeCDS, .-CFE_ES_InitializeCDS
 661               	.section.rodata
 662               	.LC13:
 663 023f 4346 455F 	.string"CFE_CDS:InitReg-Failed to write Reg Size. Status=0x%08X\n"
 663      4344 533A 
 663      496E 6974 
 663      5265 672D 
 663      4661 696C 
 664               	.text
68K GAS   			page 24


 665               	.align2
 666               	.globlCFE_ES_InitCDSRegistry
 667               	.typeCFE_ES_InitCDSRegistry, @function
 668               	CFE_ES_InitCDSRegistry:
 669               	.LFB63:
 504:/home/simulink/cFS_FreeRTOS_seL4/cfe/fsw/cfe-core/src/es/cfe_es_cds.c **** 
 505:/home/simulink/cFS_FreeRTOS_seL4/cfe/fsw/cfe-core/src/es/cfe_es_cds.c **** /*******************************************************************
 506:/home/simulink/cFS_FreeRTOS_seL4/cfe/fsw/cfe-core/src/es/cfe_es_cds.c **** **
 507:/home/simulink/cFS_FreeRTOS_seL4/cfe/fsw/cfe-core/src/es/cfe_es_cds.c **** ** CFE_ES_InitCDSRegistry
 508:/home/simulink/cFS_FreeRTOS_seL4/cfe/fsw/cfe-core/src/es/cfe_es_cds.c **** **
 509:/home/simulink/cFS_FreeRTOS_seL4/cfe/fsw/cfe-core/src/es/cfe_es_cds.c **** ** NOTE: For complete prolog information, see prototype above
 510:/home/simulink/cFS_FreeRTOS_seL4/cfe/fsw/cfe-core/src/es/cfe_es_cds.c **** ********************************************************************/
 511:/home/simulink/cFS_FreeRTOS_seL4/cfe/fsw/cfe-core/src/es/cfe_es_cds.c **** 
 512:/home/simulink/cFS_FreeRTOS_seL4/cfe/fsw/cfe-core/src/es/cfe_es_cds.c **** int32 CFE_ES_InitCDSRegistry(void)
 513:/home/simulink/cFS_FreeRTOS_seL4/cfe/fsw/cfe-core/src/es/cfe_es_cds.c **** {
 670               	.loc 1 513 0
 671               	.cfi_startproc
 672 0518 518F      	subq.l #8,%sp
 673               	.cfi_def_cfa_offset 12
 514:/home/simulink/cFS_FreeRTOS_seL4/cfe/fsw/cfe-core/src/es/cfe_es_cds.c ****     int32 Status = CFE_SUCCESS;
 674               	.loc 1 514 0
 675 051a 42AF 0004 	clr.l 4(%sp)
 515:/home/simulink/cFS_FreeRTOS_seL4/cfe/fsw/cfe-core/src/es/cfe_es_cds.c ****     uint32 i = 0;
 676               	.loc 1 515 0
 677 051e 4297      	clr.l (%sp)
 516:/home/simulink/cFS_FreeRTOS_seL4/cfe/fsw/cfe-core/src/es/cfe_es_cds.c ****     
 517:/home/simulink/cFS_FreeRTOS_seL4/cfe/fsw/cfe-core/src/es/cfe_es_cds.c ****     /* Initialize the local CDS Registry */
 518:/home/simulink/cFS_FreeRTOS_seL4/cfe/fsw/cfe-core/src/es/cfe_es_cds.c ****     CFE_ES_Global.CDSVars.MaxNumRegEntries = CFE_ES_CDS_MAX_NUM_ENTRIES;
 678               	.loc 1 518 0
 679 0520 203C 0000 	move.l #512,%d0
 679      0200 
 680 0526 23C0 0000 	move.l %d0,CFE_ES_Global+8176
 680      0000 
 519:/home/simulink/cFS_FreeRTOS_seL4/cfe/fsw/cfe-core/src/es/cfe_es_cds.c ****     for (i=0; i<CFE_ES_Global.CDSVars.MaxNumRegEntries; i++)
 681               	.loc 1 519 0
 682 052c 4297      	clr.l (%sp)
 683 052e 6062      	jra .L45
 684               	.L46:
 520:/home/simulink/cFS_FreeRTOS_seL4/cfe/fsw/cfe-core/src/es/cfe_es_cds.c ****     {
 521:/home/simulink/cFS_FreeRTOS_seL4/cfe/fsw/cfe-core/src/es/cfe_es_cds.c ****         CFE_ES_Global.CDSVars.Registry[i].Name[0] = '\0';
 685               	.loc 1 521 0 discriminator 3
 686 0530 2017      	move.l (%sp),%d0
 687 0532 7234      	moveq #52,%d1
 688 0534 4C01 0800 	muls.l %d1,%d0
 689 0538 41F9 0000 	lea CFE_ES_Global+8180,%a0
 689      0000 
 690 053e 4201      	clr.b %d1
 691 0540 1181 0800 	move.b %d1,(%a0,%d0.l)
 522:/home/simulink/cFS_FreeRTOS_seL4/cfe/fsw/cfe-core/src/es/cfe_es_cds.c ****         CFE_ES_Global.CDSVars.Registry[i].Size = 0;
 692               	.loc 1 522 0 discriminator 3
 693 0544 2017      	move.l (%sp),%d0
 694 0546 7234      	moveq #52,%d1
 695 0548 4C01 0800 	muls.l %d1,%d0
 696 054c 41F9 0000 	lea CFE_ES_Global+8224,%a0
 696      0000 
 697 0552 42B0 0800 	clr.l (%a0,%d0.l)
 523:/home/simulink/cFS_FreeRTOS_seL4/cfe/fsw/cfe-core/src/es/cfe_es_cds.c ****         CFE_ES_Global.CDSVars.Registry[i].MemHandle = 0;
68K GAS   			page 25


 698               	.loc 1 523 0 discriminator 3
 699 0556 2017      	move.l (%sp),%d0
 700 0558 7234      	moveq #52,%d1
 701 055a 4C01 0800 	muls.l %d1,%d0
 702 055e 41F9 0000 	lea CFE_ES_Global+8220,%a0
 702      0000 
 703 0564 42B0 0800 	clr.l (%a0,%d0.l)
 524:/home/simulink/cFS_FreeRTOS_seL4/cfe/fsw/cfe-core/src/es/cfe_es_cds.c ****         CFE_ES_Global.CDSVars.Registry[i].Taken = FALSE;
 704               	.loc 1 524 0 discriminator 3
 705 0568 2017      	move.l (%sp),%d0
 706 056a 7234      	moveq #52,%d1
 707 056c 4C01 0800 	muls.l %d1,%d0
 708 0570 41F9 0000 	lea CFE_ES_Global+8228,%a0
 708      0000 
 709 0576 4201      	clr.b %d1
 710 0578 1181 0800 	move.b %d1,(%a0,%d0.l)
 525:/home/simulink/cFS_FreeRTOS_seL4/cfe/fsw/cfe-core/src/es/cfe_es_cds.c ****         CFE_ES_Global.CDSVars.Registry[i].Table = FALSE;
 711               	.loc 1 525 0 discriminator 3
 712 057c 2017      	move.l (%sp),%d0
 713 057e 7234      	moveq #52,%d1
 714 0580 4C01 0800 	muls.l %d1,%d0
 715 0584 41F9 0000 	lea CFE_ES_Global+8229,%a0
 715      0000 
 716 058a 4201      	clr.b %d1
 717 058c 1181 0800 	move.b %d1,(%a0,%d0.l)
 519:/home/simulink/cFS_FreeRTOS_seL4/cfe/fsw/cfe-core/src/es/cfe_es_cds.c ****     {
 718               	.loc 1 519 0 discriminator 3
 719 0590 5297      	addq.l #1,(%sp)
 720               	.L45:
 519:/home/simulink/cFS_FreeRTOS_seL4/cfe/fsw/cfe-core/src/es/cfe_es_cds.c ****     {
 721               	.loc 1 519 0 is_stmt 0 discriminator 1
 722 0592 2039 0000 	move.l CFE_ES_Global+8176,%d0
 722      0000 
 723 0598 B097      	cmp.l (%sp),%d0
 724 059a 6294      	jhi .L46
 526:/home/simulink/cFS_FreeRTOS_seL4/cfe/fsw/cfe-core/src/es/cfe_es_cds.c ****     }
 527:/home/simulink/cFS_FreeRTOS_seL4/cfe/fsw/cfe-core/src/es/cfe_es_cds.c ****     
 528:/home/simulink/cFS_FreeRTOS_seL4/cfe/fsw/cfe-core/src/es/cfe_es_cds.c ****     /* Copy the number of registry entries to the CDS */
 529:/home/simulink/cFS_FreeRTOS_seL4/cfe/fsw/cfe-core/src/es/cfe_es_cds.c ****     Status = CFE_PSP_WriteToCDS(&CFE_ES_Global.CDSVars.MaxNumRegEntries, 
 725               	.loc 1 529 0 is_stmt 1
 726 059c 4878 0004 	pea 4.w
 727               	.cfi_def_cfa_offset 16
 728 05a0 4878 0008 	pea 8.w
 729               	.cfi_def_cfa_offset 20
 730 05a4 4879 0000 	pea CFE_ES_Global+8176
 730      0000 
 731               	.cfi_def_cfa_offset 24
 732 05aa 4EB9 0000 	jsr CFE_PSP_WriteToCDS
 732      0000 
 733 05b0 4FEF 000C 	lea (12,%sp),%sp
 734               	.cfi_def_cfa_offset 12
 735 05b4 2F40 0004 	move.l %d0,4(%sp)
 530:/home/simulink/cFS_FreeRTOS_seL4/cfe/fsw/cfe-core/src/es/cfe_es_cds.c ****                                CDS_REG_SIZE_OFFSET, 
 531:/home/simulink/cFS_FreeRTOS_seL4/cfe/fsw/cfe-core/src/es/cfe_es_cds.c ****                                sizeof(CFE_ES_Global.CDSVars.MaxNumRegEntries));
 532:/home/simulink/cFS_FreeRTOS_seL4/cfe/fsw/cfe-core/src/es/cfe_es_cds.c ****     
 533:/home/simulink/cFS_FreeRTOS_seL4/cfe/fsw/cfe-core/src/es/cfe_es_cds.c ****     if (Status == CFE_PSP_SUCCESS)
 736               	.loc 1 533 0
68K GAS   			page 26


 737 05b8 4AAF 0004 	tst.l 4(%sp)
 738 05bc 660C      	jne .L47
 534:/home/simulink/cFS_FreeRTOS_seL4/cfe/fsw/cfe-core/src/es/cfe_es_cds.c ****     {
 535:/home/simulink/cFS_FreeRTOS_seL4/cfe/fsw/cfe-core/src/es/cfe_es_cds.c ****         Status = CFE_ES_UpdateCDSRegistry();
 739               	.loc 1 535 0
 740 05be 4EB9 0000 	jsr CFE_ES_UpdateCDSRegistry
 740      0000 
 741 05c4 2F40 0004 	move.l %d0,4(%sp)
 742 05c8 6014      	jra .L48
 743               	.L47:
 536:/home/simulink/cFS_FreeRTOS_seL4/cfe/fsw/cfe-core/src/es/cfe_es_cds.c ****     }
 537:/home/simulink/cFS_FreeRTOS_seL4/cfe/fsw/cfe-core/src/es/cfe_es_cds.c ****     else
 538:/home/simulink/cFS_FreeRTOS_seL4/cfe/fsw/cfe-core/src/es/cfe_es_cds.c ****     {
 539:/home/simulink/cFS_FreeRTOS_seL4/cfe/fsw/cfe-core/src/es/cfe_es_cds.c ****         CFE_ES_WriteToSysLog("CFE_CDS:InitReg-Failed to write Reg Size. Status=0x%08X\n", (unsigned
 744               	.loc 1 539 0
 745 05ca 202F 0004 	move.l 4(%sp),%d0
 746 05ce 2F00      	move.l %d0,-(%sp)
 747               	.cfi_def_cfa_offset 16
 748 05d0 4879 0000 	pea .LC13
 748      0000 
 749               	.cfi_def_cfa_offset 20
 750 05d6 4EB9 0000 	jsr CFE_ES_WriteToSysLog
 750      0000 
 751 05dc 508F      	addq.l #8,%sp
 752               	.cfi_def_cfa_offset 12
 753               	.L48:
 540:/home/simulink/cFS_FreeRTOS_seL4/cfe/fsw/cfe-core/src/es/cfe_es_cds.c ****     }
 541:/home/simulink/cFS_FreeRTOS_seL4/cfe/fsw/cfe-core/src/es/cfe_es_cds.c ****     
 542:/home/simulink/cFS_FreeRTOS_seL4/cfe/fsw/cfe-core/src/es/cfe_es_cds.c ****     return Status;
 754               	.loc 1 542 0
 755 05de 202F 0004 	move.l 4(%sp),%d0
 543:/home/simulink/cFS_FreeRTOS_seL4/cfe/fsw/cfe-core/src/es/cfe_es_cds.c **** }   /* End of CFE_ES_InitCDSRegistry() */
 756               	.loc 1 543 0
 757 05e2 508F      	addq.l #8,%sp
 758 05e4 4E75      	rts
 759               	.cfi_endproc
 760               	.LFE63:
 761               	.sizeCFE_ES_InitCDSRegistry, .-CFE_ES_InitCDSRegistry
 762               	.section.rodata
 763               	.LC14:
 764 0278 4346 455F 	.string"CFE_CDS:UpdateReg-Failed to write CDS Registry. Status=0x%08X\n"
 764      4344 533A 
 764      5570 6461 
 764      7465 5265 
 764      672D 4661 
 765               	.text
 766               	.align2
 767               	.globlCFE_ES_UpdateCDSRegistry
 768               	.typeCFE_ES_UpdateCDSRegistry, @function
 769               	CFE_ES_UpdateCDSRegistry:
 770               	.LFB64:
 544:/home/simulink/cFS_FreeRTOS_seL4/cfe/fsw/cfe-core/src/es/cfe_es_cds.c **** 
 545:/home/simulink/cFS_FreeRTOS_seL4/cfe/fsw/cfe-core/src/es/cfe_es_cds.c **** /*******************************************************************
 546:/home/simulink/cFS_FreeRTOS_seL4/cfe/fsw/cfe-core/src/es/cfe_es_cds.c **** **
 547:/home/simulink/cFS_FreeRTOS_seL4/cfe/fsw/cfe-core/src/es/cfe_es_cds.c **** ** CFE_ES_UpdateCDSRegistry
 548:/home/simulink/cFS_FreeRTOS_seL4/cfe/fsw/cfe-core/src/es/cfe_es_cds.c **** **
 549:/home/simulink/cFS_FreeRTOS_seL4/cfe/fsw/cfe-core/src/es/cfe_es_cds.c **** ** NOTE: For complete prolog information, see 'cfe_es_cds.h'
68K GAS   			page 27


 550:/home/simulink/cFS_FreeRTOS_seL4/cfe/fsw/cfe-core/src/es/cfe_es_cds.c **** ********************************************************************/
 551:/home/simulink/cFS_FreeRTOS_seL4/cfe/fsw/cfe-core/src/es/cfe_es_cds.c **** 
 552:/home/simulink/cFS_FreeRTOS_seL4/cfe/fsw/cfe-core/src/es/cfe_es_cds.c **** int32 CFE_ES_UpdateCDSRegistry(void)
 553:/home/simulink/cFS_FreeRTOS_seL4/cfe/fsw/cfe-core/src/es/cfe_es_cds.c **** {
 771               	.loc 1 553 0
 772               	.cfi_startproc
 773 05e6 598F      	subq.l #4,%sp
 774               	.cfi_def_cfa_offset 8
 554:/home/simulink/cFS_FreeRTOS_seL4/cfe/fsw/cfe-core/src/es/cfe_es_cds.c ****     int32 Status = CFE_SUCCESS;
 775               	.loc 1 554 0
 776 05e8 4297      	clr.l (%sp)
 555:/home/simulink/cFS_FreeRTOS_seL4/cfe/fsw/cfe-core/src/es/cfe_es_cds.c ****     
 556:/home/simulink/cFS_FreeRTOS_seL4/cfe/fsw/cfe-core/src/es/cfe_es_cds.c ****     /* Copy the contents of the local registry to the CDS */
 557:/home/simulink/cFS_FreeRTOS_seL4/cfe/fsw/cfe-core/src/es/cfe_es_cds.c ****     Status = CFE_PSP_WriteToCDS(CFE_ES_Global.CDSVars.Registry, 
 777               	.loc 1 557 0
 778 05ea 4878 6800 	pea 26624.w
 779               	.cfi_def_cfa_offset 12
 780 05ee 4878 000C 	pea 12.w
 781               	.cfi_def_cfa_offset 16
 782 05f2 4879 0000 	pea CFE_ES_Global+8180
 782      0000 
 783               	.cfi_def_cfa_offset 20
 784 05f8 4EB9 0000 	jsr CFE_PSP_WriteToCDS
 784      0000 
 785 05fe 4FEF 000C 	lea (12,%sp),%sp
 786               	.cfi_def_cfa_offset 8
 787 0602 2E80      	move.l %d0,(%sp)
 558:/home/simulink/cFS_FreeRTOS_seL4/cfe/fsw/cfe-core/src/es/cfe_es_cds.c ****                               CDS_REG_OFFSET,
 559:/home/simulink/cFS_FreeRTOS_seL4/cfe/fsw/cfe-core/src/es/cfe_es_cds.c ****                               sizeof(CFE_ES_Global.CDSVars.Registry));
 560:/home/simulink/cFS_FreeRTOS_seL4/cfe/fsw/cfe-core/src/es/cfe_es_cds.c ****     
 561:/home/simulink/cFS_FreeRTOS_seL4/cfe/fsw/cfe-core/src/es/cfe_es_cds.c ****     if (Status != OS_SUCCESS)
 788               	.loc 1 561 0
 789 0604 4A97      	tst.l (%sp)
 790 0606 6712      	jeq .L51
 562:/home/simulink/cFS_FreeRTOS_seL4/cfe/fsw/cfe-core/src/es/cfe_es_cds.c ****     {
 563:/home/simulink/cFS_FreeRTOS_seL4/cfe/fsw/cfe-core/src/es/cfe_es_cds.c ****         CFE_ES_WriteToSysLog("CFE_CDS:UpdateReg-Failed to write CDS Registry. Status=0x%08X\n", (un
 791               	.loc 1 563 0
 792 0608 2017      	move.l (%sp),%d0
 793 060a 2F00      	move.l %d0,-(%sp)
 794               	.cfi_def_cfa_offset 12
 795 060c 4879 0000 	pea .LC14
 795      0000 
 796               	.cfi_def_cfa_offset 16
 797 0612 4EB9 0000 	jsr CFE_ES_WriteToSysLog
 797      0000 
 798 0618 508F      	addq.l #8,%sp
 799               	.cfi_def_cfa_offset 8
 800               	.L51:
 564:/home/simulink/cFS_FreeRTOS_seL4/cfe/fsw/cfe-core/src/es/cfe_es_cds.c ****     }
 565:/home/simulink/cFS_FreeRTOS_seL4/cfe/fsw/cfe-core/src/es/cfe_es_cds.c ****     
 566:/home/simulink/cFS_FreeRTOS_seL4/cfe/fsw/cfe-core/src/es/cfe_es_cds.c ****     return Status;
 801               	.loc 1 566 0
 802 061a 2017      	move.l (%sp),%d0
 567:/home/simulink/cFS_FreeRTOS_seL4/cfe/fsw/cfe-core/src/es/cfe_es_cds.c **** }
 803               	.loc 1 567 0
 804 061c 588F      	addq.l #4,%sp
 805 061e 4E75      	rts
68K GAS   			page 28


 806               	.cfi_endproc
 807               	.LFE64:
 808               	.sizeCFE_ES_UpdateCDSRegistry, .-CFE_ES_UpdateCDSRegistry
 809               	.section.rodata
 810               	.LC15:
 811 02b7 4346 455F 	.string"CFE_CDS:ValidateAppID-AppId=%d > Max Apps (%d)\n"
 811      4344 533A 
 811      5661 6C69 
 811      6461 7465 
 811      4170 7049 
 812               	.LC16:
 813 02e7 4346 455F 	.string"CFE_CDS:ValidateAppID-GetAppID failed (Stat=0x%08X)\n"
 813      4344 533A 
 813      5661 6C69 
 813      6461 7465 
 813      4170 7049 
 814               	.text
 815               	.align2
 816               	.globlCFE_ES_CDS_ValidateAppID
 817               	.typeCFE_ES_CDS_ValidateAppID, @function
 818               	CFE_ES_CDS_ValidateAppID:
 819               	.LFB65:
 568:/home/simulink/cFS_FreeRTOS_seL4/cfe/fsw/cfe-core/src/es/cfe_es_cds.c **** 
 569:/home/simulink/cFS_FreeRTOS_seL4/cfe/fsw/cfe-core/src/es/cfe_es_cds.c **** /*******************************************************************
 570:/home/simulink/cFS_FreeRTOS_seL4/cfe/fsw/cfe-core/src/es/cfe_es_cds.c **** **
 571:/home/simulink/cFS_FreeRTOS_seL4/cfe/fsw/cfe-core/src/es/cfe_es_cds.c **** ** CFE_ES_CDS_ValidateAppID
 572:/home/simulink/cFS_FreeRTOS_seL4/cfe/fsw/cfe-core/src/es/cfe_es_cds.c **** **
 573:/home/simulink/cFS_FreeRTOS_seL4/cfe/fsw/cfe-core/src/es/cfe_es_cds.c **** ** NOTE: For complete prolog information, see 'cfe_es_cds.h'
 574:/home/simulink/cFS_FreeRTOS_seL4/cfe/fsw/cfe-core/src/es/cfe_es_cds.c **** ********************************************************************/
 575:/home/simulink/cFS_FreeRTOS_seL4/cfe/fsw/cfe-core/src/es/cfe_es_cds.c **** 
 576:/home/simulink/cFS_FreeRTOS_seL4/cfe/fsw/cfe-core/src/es/cfe_es_cds.c **** int32 CFE_ES_CDS_ValidateAppID(uint32 *AppIdPtr)
 577:/home/simulink/cFS_FreeRTOS_seL4/cfe/fsw/cfe-core/src/es/cfe_es_cds.c **** {
 820               	.loc 1 577 0
 821               	.cfi_startproc
 822 0620 598F      	subq.l #4,%sp
 823               	.cfi_def_cfa_offset 8
 578:/home/simulink/cFS_FreeRTOS_seL4/cfe/fsw/cfe-core/src/es/cfe_es_cds.c ****     int32 Status = CFE_ES_GetAppID(AppIdPtr);
 824               	.loc 1 578 0
 825 0622 2F2F 0008 	move.l 8(%sp),-(%sp)
 826               	.cfi_def_cfa_offset 12
 827 0626 4EB9 0000 	jsr CFE_ES_GetAppID
 827      0000 
 828 062c 588F      	addq.l #4,%sp
 829               	.cfi_def_cfa_offset 8
 830 062e 2E80      	move.l %d0,(%sp)
 579:/home/simulink/cFS_FreeRTOS_seL4/cfe/fsw/cfe-core/src/es/cfe_es_cds.c **** 
 580:/home/simulink/cFS_FreeRTOS_seL4/cfe/fsw/cfe-core/src/es/cfe_es_cds.c ****     if (Status == CFE_SUCCESS)
 831               	.loc 1 580 0
 832 0630 4A97      	tst.l (%sp)
 833 0632 6630      	jne .L54
 581:/home/simulink/cFS_FreeRTOS_seL4/cfe/fsw/cfe-core/src/es/cfe_es_cds.c ****     {
 582:/home/simulink/cFS_FreeRTOS_seL4/cfe/fsw/cfe-core/src/es/cfe_es_cds.c ****         if (*AppIdPtr >= CFE_ES_MAX_APPLICATIONS)
 834               	.loc 1 582 0
 835 0634 206F 0008 	move.l 8(%sp),%a0
 836 0638 2010      	move.l (%a0),%d0
 837 063a 721F      	moveq #31,%d1
 838 063c B280      	cmp.l %d0,%d1
68K GAS   			page 29


 839 063e 6436      	jcc .L56
 583:/home/simulink/cFS_FreeRTOS_seL4/cfe/fsw/cfe-core/src/es/cfe_es_cds.c ****         {
 584:/home/simulink/cFS_FreeRTOS_seL4/cfe/fsw/cfe-core/src/es/cfe_es_cds.c ****             Status = CFE_ES_ERR_APPID;
 840               	.loc 1 584 0
 841 0640 2EBC C400 	move.l #-1006632959,(%sp)
 841      0001 
 585:/home/simulink/cFS_FreeRTOS_seL4/cfe/fsw/cfe-core/src/es/cfe_es_cds.c **** 
 586:/home/simulink/cFS_FreeRTOS_seL4/cfe/fsw/cfe-core/src/es/cfe_es_cds.c ****             CFE_ES_WriteToSysLog("CFE_CDS:ValidateAppID-AppId=%d > Max Apps (%d)\n",
 587:/home/simulink/cFS_FreeRTOS_seL4/cfe/fsw/cfe-core/src/es/cfe_es_cds.c ****                                  (int)(*AppIdPtr), CFE_ES_MAX_APPLICATIONS);
 842               	.loc 1 587 0
 843 0646 206F 0008 	move.l 8(%sp),%a0
 844 064a 2010      	move.l (%a0),%d0
 586:/home/simulink/cFS_FreeRTOS_seL4/cfe/fsw/cfe-core/src/es/cfe_es_cds.c ****                                  (int)(*AppIdPtr), CFE_ES_MAX_APPLICATIONS);
 845               	.loc 1 586 0
 846 064c 4878 0020 	pea 32.w
 847               	.cfi_def_cfa_offset 12
 848 0650 2F00      	move.l %d0,-(%sp)
 849               	.cfi_def_cfa_offset 16
 850 0652 4879 0000 	pea .LC15
 850      0000 
 851               	.cfi_def_cfa_offset 20
 852 0658 4EB9 0000 	jsr CFE_ES_WriteToSysLog
 852      0000 
 853 065e 4FEF 000C 	lea (12,%sp),%sp
 854               	.cfi_def_cfa_offset 8
 855 0662 6012      	jra .L56
 856               	.L54:
 588:/home/simulink/cFS_FreeRTOS_seL4/cfe/fsw/cfe-core/src/es/cfe_es_cds.c ****         }
 589:/home/simulink/cFS_FreeRTOS_seL4/cfe/fsw/cfe-core/src/es/cfe_es_cds.c ****     }
 590:/home/simulink/cFS_FreeRTOS_seL4/cfe/fsw/cfe-core/src/es/cfe_es_cds.c ****     else
 591:/home/simulink/cFS_FreeRTOS_seL4/cfe/fsw/cfe-core/src/es/cfe_es_cds.c ****     {
 592:/home/simulink/cFS_FreeRTOS_seL4/cfe/fsw/cfe-core/src/es/cfe_es_cds.c ****         CFE_ES_WriteToSysLog("CFE_CDS:ValidateAppID-GetAppID failed (Stat=0x%08X)\n", (unsigned int
 857               	.loc 1 592 0
 858 0664 2017      	move.l (%sp),%d0
 859 0666 2F00      	move.l %d0,-(%sp)
 860               	.cfi_def_cfa_offset 12
 861 0668 4879 0000 	pea .LC16
 861      0000 
 862               	.cfi_def_cfa_offset 16
 863 066e 4EB9 0000 	jsr CFE_ES_WriteToSysLog
 863      0000 
 864 0674 508F      	addq.l #8,%sp
 865               	.cfi_def_cfa_offset 8
 866               	.L56:
 593:/home/simulink/cFS_FreeRTOS_seL4/cfe/fsw/cfe-core/src/es/cfe_es_cds.c ****     }
 594:/home/simulink/cFS_FreeRTOS_seL4/cfe/fsw/cfe-core/src/es/cfe_es_cds.c **** 
 595:/home/simulink/cFS_FreeRTOS_seL4/cfe/fsw/cfe-core/src/es/cfe_es_cds.c ****     return Status;
 867               	.loc 1 595 0
 868 0676 2017      	move.l (%sp),%d0
 596:/home/simulink/cFS_FreeRTOS_seL4/cfe/fsw/cfe-core/src/es/cfe_es_cds.c **** }   /* End of CFE_ES_CDS_ValidateAppID() */
 869               	.loc 1 596 0
 870 0678 588F      	addq.l #4,%sp
 871 067a 4E75      	rts
 872               	.cfi_endproc
 873               	.LFE65:
 874               	.sizeCFE_ES_CDS_ValidateAppID, .-CFE_ES_CDS_ValidateAppID
 875               	.section.rodata
68K GAS   			page 30


 876               	.LC17:
 877 031c 2573 2E25 	.string"%s.%s"
 877      7300 
 878               	.text
 879               	.align2
 880               	.globlCFE_ES_FormCDSName
 881               	.typeCFE_ES_FormCDSName, @function
 882               	CFE_ES_FormCDSName:
 883               	.LFB66:
 597:/home/simulink/cFS_FreeRTOS_seL4/cfe/fsw/cfe-core/src/es/cfe_es_cds.c **** 
 598:/home/simulink/cFS_FreeRTOS_seL4/cfe/fsw/cfe-core/src/es/cfe_es_cds.c **** 
 599:/home/simulink/cFS_FreeRTOS_seL4/cfe/fsw/cfe-core/src/es/cfe_es_cds.c **** /*******************************************************************
 600:/home/simulink/cFS_FreeRTOS_seL4/cfe/fsw/cfe-core/src/es/cfe_es_cds.c **** **
 601:/home/simulink/cFS_FreeRTOS_seL4/cfe/fsw/cfe-core/src/es/cfe_es_cds.c **** ** CFE_ES_FormCDSName
 602:/home/simulink/cFS_FreeRTOS_seL4/cfe/fsw/cfe-core/src/es/cfe_es_cds.c **** **
 603:/home/simulink/cFS_FreeRTOS_seL4/cfe/fsw/cfe-core/src/es/cfe_es_cds.c **** ** NOTE: For complete prolog information, see 'cfe_es_cds.h'
 604:/home/simulink/cFS_FreeRTOS_seL4/cfe/fsw/cfe-core/src/es/cfe_es_cds.c **** ********************************************************************/
 605:/home/simulink/cFS_FreeRTOS_seL4/cfe/fsw/cfe-core/src/es/cfe_es_cds.c **** 
 606:/home/simulink/cFS_FreeRTOS_seL4/cfe/fsw/cfe-core/src/es/cfe_es_cds.c **** void CFE_ES_FormCDSName(char *FullCDSName, const char *CDSName, uint32 ThisAppId)
 607:/home/simulink/cFS_FreeRTOS_seL4/cfe/fsw/cfe-core/src/es/cfe_es_cds.c **** {
 884               	.loc 1 607 0
 885               	.cfi_startproc
 886 067c 4FEF FFEC 	lea (-20,%sp),%sp
 887               	.cfi_def_cfa_offset 24
 608:/home/simulink/cFS_FreeRTOS_seL4/cfe/fsw/cfe-core/src/es/cfe_es_cds.c ****     char AppName[OS_MAX_API_NAME];
 609:/home/simulink/cFS_FreeRTOS_seL4/cfe/fsw/cfe-core/src/es/cfe_es_cds.c **** 
 610:/home/simulink/cFS_FreeRTOS_seL4/cfe/fsw/cfe-core/src/es/cfe_es_cds.c ****     CFE_ES_GetAppName(AppName, ThisAppId, OS_MAX_API_NAME);
 888               	.loc 1 610 0
 889 0680 4878 0014 	pea 20.w
 890               	.cfi_def_cfa_offset 28
 891 0684 2F2F 0024 	move.l 36(%sp),-(%sp)
 892               	.cfi_def_cfa_offset 32
 893 0688 200F      	move.l %sp,%d0
 894 068a 5080      	addq.l #8,%d0
 895 068c 2F00      	move.l %d0,-(%sp)
 896               	.cfi_def_cfa_offset 36
 897 068e 4EB9 0000 	jsr CFE_ES_GetAppName
 897      0000 
 898 0694 4FEF 000C 	lea (12,%sp),%sp
 899               	.cfi_def_cfa_offset 24
 611:/home/simulink/cFS_FreeRTOS_seL4/cfe/fsw/cfe-core/src/es/cfe_es_cds.c **** 
 612:/home/simulink/cFS_FreeRTOS_seL4/cfe/fsw/cfe-core/src/es/cfe_es_cds.c ****     /* Ensure that AppName is null terminated */
 613:/home/simulink/cFS_FreeRTOS_seL4/cfe/fsw/cfe-core/src/es/cfe_es_cds.c ****     AppName[OS_MAX_API_NAME-1] = '\0';
 900               	.loc 1 613 0
 901 0698 4200      	clr.b %d0
 902 069a 1F40 0013 	move.b %d0,19(%sp)
 614:/home/simulink/cFS_FreeRTOS_seL4/cfe/fsw/cfe-core/src/es/cfe_es_cds.c **** 
 615:/home/simulink/cFS_FreeRTOS_seL4/cfe/fsw/cfe-core/src/es/cfe_es_cds.c ****     /* Complete formation of processor specific table name */
 616:/home/simulink/cFS_FreeRTOS_seL4/cfe/fsw/cfe-core/src/es/cfe_es_cds.c ****     sprintf(FullCDSName, "%s.%s", AppName, CDSName);
 903               	.loc 1 616 0
 904 069e 2F2F 001C 	move.l 28(%sp),-(%sp)
 905               	.cfi_def_cfa_offset 28
 906 06a2 200F      	move.l %sp,%d0
 907 06a4 5880      	addq.l #4,%d0
 908 06a6 2F00      	move.l %d0,-(%sp)
 909               	.cfi_def_cfa_offset 32
 910 06a8 4879 0000 	pea .LC17
68K GAS   			page 31


 910      0000 
 911               	.cfi_def_cfa_offset 36
 912 06ae 2F2F 0024 	move.l 36(%sp),-(%sp)
 913               	.cfi_def_cfa_offset 40
 914 06b2 4EB9 0000 	jsr sprintf
 914      0000 
 915 06b8 4FEF 0010 	lea (16,%sp),%sp
 916               	.cfi_def_cfa_offset 24
 617:/home/simulink/cFS_FreeRTOS_seL4/cfe/fsw/cfe-core/src/es/cfe_es_cds.c **** 
 618:/home/simulink/cFS_FreeRTOS_seL4/cfe/fsw/cfe-core/src/es/cfe_es_cds.c ****     return;
 917               	.loc 1 618 0
 918 06bc 4E71      	nop
 619:/home/simulink/cFS_FreeRTOS_seL4/cfe/fsw/cfe-core/src/es/cfe_es_cds.c **** }   /* End of CFE_ES_FormCDSName() */
 919               	.loc 1 619 0
 920 06be 4FEF 0014 	lea (20,%sp),%sp
 921 06c2 4E75      	rts
 922               	.cfi_endproc
 923               	.LFE66:
 924               	.sizeCFE_ES_FormCDSName, .-CFE_ES_FormCDSName
 925               	.align2
 926               	.globlCFE_ES_LockCDSRegistry
 927               	.typeCFE_ES_LockCDSRegistry, @function
 928               	CFE_ES_LockCDSRegistry:
 929               	.LFB67:
 620:/home/simulink/cFS_FreeRTOS_seL4/cfe/fsw/cfe-core/src/es/cfe_es_cds.c **** 
 621:/home/simulink/cFS_FreeRTOS_seL4/cfe/fsw/cfe-core/src/es/cfe_es_cds.c **** 
 622:/home/simulink/cFS_FreeRTOS_seL4/cfe/fsw/cfe-core/src/es/cfe_es_cds.c **** /*******************************************************************
 623:/home/simulink/cFS_FreeRTOS_seL4/cfe/fsw/cfe-core/src/es/cfe_es_cds.c **** **
 624:/home/simulink/cFS_FreeRTOS_seL4/cfe/fsw/cfe-core/src/es/cfe_es_cds.c **** ** CFE_ES_LockCDSRegistry
 625:/home/simulink/cFS_FreeRTOS_seL4/cfe/fsw/cfe-core/src/es/cfe_es_cds.c **** **
 626:/home/simulink/cFS_FreeRTOS_seL4/cfe/fsw/cfe-core/src/es/cfe_es_cds.c **** ** NOTE: For complete prolog information, see 'cfe_es_cds.h'
 627:/home/simulink/cFS_FreeRTOS_seL4/cfe/fsw/cfe-core/src/es/cfe_es_cds.c **** ********************************************************************/
 628:/home/simulink/cFS_FreeRTOS_seL4/cfe/fsw/cfe-core/src/es/cfe_es_cds.c **** 
 629:/home/simulink/cFS_FreeRTOS_seL4/cfe/fsw/cfe-core/src/es/cfe_es_cds.c **** int32 CFE_ES_LockCDSRegistry(void)
 630:/home/simulink/cFS_FreeRTOS_seL4/cfe/fsw/cfe-core/src/es/cfe_es_cds.c **** {
 930               	.loc 1 630 0
 931               	.cfi_startproc
 932 06c4 598F      	subq.l #4,%sp
 933               	.cfi_def_cfa_offset 8
 631:/home/simulink/cFS_FreeRTOS_seL4/cfe/fsw/cfe-core/src/es/cfe_es_cds.c ****     int32   Status;
 632:/home/simulink/cFS_FreeRTOS_seL4/cfe/fsw/cfe-core/src/es/cfe_es_cds.c **** 
 633:/home/simulink/cFS_FreeRTOS_seL4/cfe/fsw/cfe-core/src/es/cfe_es_cds.c ****     Status = OS_MutSemTake(CFE_ES_Global.CDSVars.RegistryMutex);
 934               	.loc 1 633 0
 935 06c6 2039 0000 	move.l CFE_ES_Global+8164,%d0
 935      0000 
 936 06cc 2F00      	move.l %d0,-(%sp)
 937               	.cfi_def_cfa_offset 12
 938 06ce 4EB9 0000 	jsr OS_MutSemTake
 938      0000 
 939 06d4 588F      	addq.l #4,%sp
 940               	.cfi_def_cfa_offset 8
 941 06d6 2E80      	move.l %d0,(%sp)
 634:/home/simulink/cFS_FreeRTOS_seL4/cfe/fsw/cfe-core/src/es/cfe_es_cds.c **** 
 635:/home/simulink/cFS_FreeRTOS_seL4/cfe/fsw/cfe-core/src/es/cfe_es_cds.c ****     if (Status == OS_SUCCESS)
 942               	.loc 1 635 0
 943 06d8 4A97      	tst.l (%sp)
 944 06da 6602      	jne .L61
68K GAS   			page 32


 636:/home/simulink/cFS_FreeRTOS_seL4/cfe/fsw/cfe-core/src/es/cfe_es_cds.c ****     {
 637:/home/simulink/cFS_FreeRTOS_seL4/cfe/fsw/cfe-core/src/es/cfe_es_cds.c ****         Status = CFE_SUCCESS;
 945               	.loc 1 637 0
 946 06dc 4297      	clr.l (%sp)
 947               	.L61:
 638:/home/simulink/cFS_FreeRTOS_seL4/cfe/fsw/cfe-core/src/es/cfe_es_cds.c ****     }
 639:/home/simulink/cFS_FreeRTOS_seL4/cfe/fsw/cfe-core/src/es/cfe_es_cds.c **** 
 640:/home/simulink/cFS_FreeRTOS_seL4/cfe/fsw/cfe-core/src/es/cfe_es_cds.c ****     return Status;
 948               	.loc 1 640 0
 949 06de 2017      	move.l (%sp),%d0
 641:/home/simulink/cFS_FreeRTOS_seL4/cfe/fsw/cfe-core/src/es/cfe_es_cds.c **** 
 642:/home/simulink/cFS_FreeRTOS_seL4/cfe/fsw/cfe-core/src/es/cfe_es_cds.c **** }   /* End of CFE_ES_LockCDSRegistry() */
 950               	.loc 1 642 0
 951 06e0 588F      	addq.l #4,%sp
 952 06e2 4E75      	rts
 953               	.cfi_endproc
 954               	.LFE67:
 955               	.sizeCFE_ES_LockCDSRegistry, .-CFE_ES_LockCDSRegistry
 956               	.align2
 957               	.globlCFE_ES_UnlockCDSRegistry
 958               	.typeCFE_ES_UnlockCDSRegistry, @function
 959               	CFE_ES_UnlockCDSRegistry:
 960               	.LFB68:
 643:/home/simulink/cFS_FreeRTOS_seL4/cfe/fsw/cfe-core/src/es/cfe_es_cds.c **** 
 644:/home/simulink/cFS_FreeRTOS_seL4/cfe/fsw/cfe-core/src/es/cfe_es_cds.c **** 
 645:/home/simulink/cFS_FreeRTOS_seL4/cfe/fsw/cfe-core/src/es/cfe_es_cds.c **** /*******************************************************************
 646:/home/simulink/cFS_FreeRTOS_seL4/cfe/fsw/cfe-core/src/es/cfe_es_cds.c **** **
 647:/home/simulink/cFS_FreeRTOS_seL4/cfe/fsw/cfe-core/src/es/cfe_es_cds.c **** ** CFE_ES_UnlockCDSRegistry
 648:/home/simulink/cFS_FreeRTOS_seL4/cfe/fsw/cfe-core/src/es/cfe_es_cds.c **** **
 649:/home/simulink/cFS_FreeRTOS_seL4/cfe/fsw/cfe-core/src/es/cfe_es_cds.c **** ** NOTE: For complete prolog information, see 'cfe_es_cds.h'
 650:/home/simulink/cFS_FreeRTOS_seL4/cfe/fsw/cfe-core/src/es/cfe_es_cds.c **** ********************************************************************/
 651:/home/simulink/cFS_FreeRTOS_seL4/cfe/fsw/cfe-core/src/es/cfe_es_cds.c **** 
 652:/home/simulink/cFS_FreeRTOS_seL4/cfe/fsw/cfe-core/src/es/cfe_es_cds.c **** int32 CFE_ES_UnlockCDSRegistry(void)
 653:/home/simulink/cFS_FreeRTOS_seL4/cfe/fsw/cfe-core/src/es/cfe_es_cds.c **** {
 961               	.loc 1 653 0
 962               	.cfi_startproc
 963 06e4 598F      	subq.l #4,%sp
 964               	.cfi_def_cfa_offset 8
 654:/home/simulink/cFS_FreeRTOS_seL4/cfe/fsw/cfe-core/src/es/cfe_es_cds.c ****     int32   Status;
 655:/home/simulink/cFS_FreeRTOS_seL4/cfe/fsw/cfe-core/src/es/cfe_es_cds.c **** 
 656:/home/simulink/cFS_FreeRTOS_seL4/cfe/fsw/cfe-core/src/es/cfe_es_cds.c ****     Status = OS_MutSemGive(CFE_ES_Global.CDSVars.RegistryMutex);
 965               	.loc 1 656 0
 966 06e6 2039 0000 	move.l CFE_ES_Global+8164,%d0
 966      0000 
 967 06ec 2F00      	move.l %d0,-(%sp)
 968               	.cfi_def_cfa_offset 12
 969 06ee 4EB9 0000 	jsr OS_MutSemGive
 969      0000 
 970 06f4 588F      	addq.l #4,%sp
 971               	.cfi_def_cfa_offset 8
 972 06f6 2E80      	move.l %d0,(%sp)
 657:/home/simulink/cFS_FreeRTOS_seL4/cfe/fsw/cfe-core/src/es/cfe_es_cds.c **** 
 658:/home/simulink/cFS_FreeRTOS_seL4/cfe/fsw/cfe-core/src/es/cfe_es_cds.c ****     if (Status == OS_SUCCESS)
 973               	.loc 1 658 0
 974 06f8 4A97      	tst.l (%sp)
 975 06fa 6602      	jne .L64
 659:/home/simulink/cFS_FreeRTOS_seL4/cfe/fsw/cfe-core/src/es/cfe_es_cds.c ****     {
68K GAS   			page 33


 660:/home/simulink/cFS_FreeRTOS_seL4/cfe/fsw/cfe-core/src/es/cfe_es_cds.c ****         Status = CFE_SUCCESS;
 976               	.loc 1 660 0
 977 06fc 4297      	clr.l (%sp)
 978               	.L64:
 661:/home/simulink/cFS_FreeRTOS_seL4/cfe/fsw/cfe-core/src/es/cfe_es_cds.c ****     }
 662:/home/simulink/cFS_FreeRTOS_seL4/cfe/fsw/cfe-core/src/es/cfe_es_cds.c **** 
 663:/home/simulink/cFS_FreeRTOS_seL4/cfe/fsw/cfe-core/src/es/cfe_es_cds.c ****     return Status;
 979               	.loc 1 663 0
 980 06fe 2017      	move.l (%sp),%d0
 664:/home/simulink/cFS_FreeRTOS_seL4/cfe/fsw/cfe-core/src/es/cfe_es_cds.c **** 
 665:/home/simulink/cFS_FreeRTOS_seL4/cfe/fsw/cfe-core/src/es/cfe_es_cds.c **** }   /* End of CFE_ES_UnlockCDSRegistry() */
 981               	.loc 1 665 0
 982 0700 588F      	addq.l #4,%sp
 983 0702 4E75      	rts
 984               	.cfi_endproc
 985               	.LFE68:
 986               	.sizeCFE_ES_UnlockCDSRegistry, .-CFE_ES_UnlockCDSRegistry
 987               	.align2
 988               	.globlCFE_ES_FindCDSInRegistry
 989               	.typeCFE_ES_FindCDSInRegistry, @function
 990               	CFE_ES_FindCDSInRegistry:
 991               	.LFB69:
 666:/home/simulink/cFS_FreeRTOS_seL4/cfe/fsw/cfe-core/src/es/cfe_es_cds.c **** 
 667:/home/simulink/cFS_FreeRTOS_seL4/cfe/fsw/cfe-core/src/es/cfe_es_cds.c **** 
 668:/home/simulink/cFS_FreeRTOS_seL4/cfe/fsw/cfe-core/src/es/cfe_es_cds.c **** /*******************************************************************
 669:/home/simulink/cFS_FreeRTOS_seL4/cfe/fsw/cfe-core/src/es/cfe_es_cds.c **** **
 670:/home/simulink/cFS_FreeRTOS_seL4/cfe/fsw/cfe-core/src/es/cfe_es_cds.c **** ** CFE_ES_FindCDSInRegistry
 671:/home/simulink/cFS_FreeRTOS_seL4/cfe/fsw/cfe-core/src/es/cfe_es_cds.c **** **
 672:/home/simulink/cFS_FreeRTOS_seL4/cfe/fsw/cfe-core/src/es/cfe_es_cds.c **** ** NOTE: For complete prolog information, see 'cfe_es_cds.h'
 673:/home/simulink/cFS_FreeRTOS_seL4/cfe/fsw/cfe-core/src/es/cfe_es_cds.c **** ********************************************************************/
 674:/home/simulink/cFS_FreeRTOS_seL4/cfe/fsw/cfe-core/src/es/cfe_es_cds.c **** 
 675:/home/simulink/cFS_FreeRTOS_seL4/cfe/fsw/cfe-core/src/es/cfe_es_cds.c **** int32 CFE_ES_FindCDSInRegistry(const char *CDSName)
 676:/home/simulink/cFS_FreeRTOS_seL4/cfe/fsw/cfe-core/src/es/cfe_es_cds.c **** {
 992               	.loc 1 676 0
 993               	.cfi_startproc
 994 0704 518F      	subq.l #8,%sp
 995               	.cfi_def_cfa_offset 12
 677:/home/simulink/cFS_FreeRTOS_seL4/cfe/fsw/cfe-core/src/es/cfe_es_cds.c ****     int32 RegIndx = CFE_ES_CDS_NOT_FOUND;
 996               	.loc 1 677 0
 997 0706 70FF      	moveq #-1,%d0
 998 0708 2F40 0004 	move.l %d0,4(%sp)
 678:/home/simulink/cFS_FreeRTOS_seL4/cfe/fsw/cfe-core/src/es/cfe_es_cds.c ****     int32 i = -1;
 999               	.loc 1 678 0
 1000 070c 2EBC FFFF 	move.l #-1,(%sp)
 1000      FFFF 
 1001               	.L69:
 679:/home/simulink/cFS_FreeRTOS_seL4/cfe/fsw/cfe-core/src/es/cfe_es_cds.c **** 
 680:/home/simulink/cFS_FreeRTOS_seL4/cfe/fsw/cfe-core/src/es/cfe_es_cds.c ****     do
 681:/home/simulink/cFS_FreeRTOS_seL4/cfe/fsw/cfe-core/src/es/cfe_es_cds.c ****     {
 682:/home/simulink/cFS_FreeRTOS_seL4/cfe/fsw/cfe-core/src/es/cfe_es_cds.c ****         /* Point to next record in the CDS Registry */
 683:/home/simulink/cFS_FreeRTOS_seL4/cfe/fsw/cfe-core/src/es/cfe_es_cds.c ****         i++;
 1002               	.loc 1 683 0
 1003 0712 5297      	addq.l #1,(%sp)
 684:/home/simulink/cFS_FreeRTOS_seL4/cfe/fsw/cfe-core/src/es/cfe_es_cds.c **** 
 685:/home/simulink/cFS_FreeRTOS_seL4/cfe/fsw/cfe-core/src/es/cfe_es_cds.c ****         /* Check to see if the record is currently being used */
 686:/home/simulink/cFS_FreeRTOS_seL4/cfe/fsw/cfe-core/src/es/cfe_es_cds.c ****         if (CFE_ES_Global.CDSVars.Registry[i].Taken == TRUE)
 1004               	.loc 1 686 0
68K GAS   			page 34


 1005 0714 2017      	move.l (%sp),%d0
 1006 0716 7234      	moveq #52,%d1
 1007 0718 4C01 0800 	muls.l %d1,%d0
 1008 071c 41F9 0000 	lea CFE_ES_Global+8228,%a0
 1008      0000 
 1009 0722 1030 0800 	move.b (%a0,%d0.l),%d0
 1010 0726 1000      	move.b %d0,%d0
 1011 0728 0280 0000 	and.l #255,%d0
 1011      00FF 
 1012 072e 7201      	moveq #1,%d1
 1013 0730 B280      	cmp.l %d0,%d1
 1014 0732 6628      	jne .L67
 687:/home/simulink/cFS_FreeRTOS_seL4/cfe/fsw/cfe-core/src/es/cfe_es_cds.c ****         {
 688:/home/simulink/cFS_FreeRTOS_seL4/cfe/fsw/cfe-core/src/es/cfe_es_cds.c ****             /* Perform a case sensitive name comparison */
 689:/home/simulink/cFS_FreeRTOS_seL4/cfe/fsw/cfe-core/src/es/cfe_es_cds.c ****             if (strcmp(CDSName, CFE_ES_Global.CDSVars.Registry[i].Name) == 0)
 1015               	.loc 1 689 0
 1016 0734 7034      	moveq #52,%d0
 1017 0736 4C17 0800 	muls.l (%sp),%d0
 1018 073a 0680 0000 	add.l #8180,%d0
 1018      1FF4 
 1019 0740 0680 0000 	add.l #CFE_ES_Global,%d0
 1019      0000 
 1020 0746 2F00      	move.l %d0,-(%sp)
 1021               	.cfi_def_cfa_offset 16
 1022 0748 2F2F 0010 	move.l 16(%sp),-(%sp)
 1023               	.cfi_def_cfa_offset 20
 1024 074c 4EB9 0000 	jsr strcmp
 1024      0000 
 1025 0752 508F      	addq.l #8,%sp
 1026               	.cfi_def_cfa_offset 12
 1027 0754 4A80      	tst.l %d0
 1028 0756 6604      	jne .L67
 690:/home/simulink/cFS_FreeRTOS_seL4/cfe/fsw/cfe-core/src/es/cfe_es_cds.c ****             {
 691:/home/simulink/cFS_FreeRTOS_seL4/cfe/fsw/cfe-core/src/es/cfe_es_cds.c ****                 /* If the names match, then return the index */
 692:/home/simulink/cFS_FreeRTOS_seL4/cfe/fsw/cfe-core/src/es/cfe_es_cds.c ****                 RegIndx = i;
 1029               	.loc 1 692 0
 1030 0758 2F57 0004 	move.l (%sp),4(%sp)
 1031               	.L67:
 693:/home/simulink/cFS_FreeRTOS_seL4/cfe/fsw/cfe-core/src/es/cfe_es_cds.c ****             }
 694:/home/simulink/cFS_FreeRTOS_seL4/cfe/fsw/cfe-core/src/es/cfe_es_cds.c ****         }
 695:/home/simulink/cFS_FreeRTOS_seL4/cfe/fsw/cfe-core/src/es/cfe_es_cds.c ****     } while ( (RegIndx == CFE_ES_CDS_NOT_FOUND) && (i < (CFE_ES_Global.CDSVars.MaxNumRegEntries-1))
 1032               	.loc 1 695 0
 1033 075c 70FF      	moveq #-1,%d0
 1034 075e B0AF 0004 	cmp.l 4(%sp),%d0
 1035 0762 6610      	jne .L68
 1036               	.loc 1 695 0 is_stmt 0 discriminator 1
 1037 0764 2039 0000 	move.l CFE_ES_Global+8176,%d0
 1037      0000 
 1038 076a 2200      	move.l %d0,%d1
 1039 076c 5381      	subq.l #1,%d1
 1040 076e 2017      	move.l (%sp),%d0
 1041 0770 B081      	cmp.l %d1,%d0
 1042 0772 659E      	jcs .L69
 1043               	.L68:
 696:/home/simulink/cFS_FreeRTOS_seL4/cfe/fsw/cfe-core/src/es/cfe_es_cds.c **** 
 697:/home/simulink/cFS_FreeRTOS_seL4/cfe/fsw/cfe-core/src/es/cfe_es_cds.c ****     return RegIndx;
 1044               	.loc 1 697 0 is_stmt 1
68K GAS   			page 35


 1045 0774 202F 0004 	move.l 4(%sp),%d0
 698:/home/simulink/cFS_FreeRTOS_seL4/cfe/fsw/cfe-core/src/es/cfe_es_cds.c **** }   /* End of CFE_ES_FindCDSInRegistry() */
 1046               	.loc 1 698 0
 1047 0778 508F      	addq.l #8,%sp
 1048 077a 4E75      	rts
 1049               	.cfi_endproc
 1050               	.LFE69:
 1051               	.sizeCFE_ES_FindCDSInRegistry, .-CFE_ES_FindCDSInRegistry
 1052               	.align2
 1053               	.globlCFE_ES_FindFreeCDSRegistryEntry
 1054               	.typeCFE_ES_FindFreeCDSRegistryEntry, @function
 1055               	CFE_ES_FindFreeCDSRegistryEntry:
 1056               	.LFB70:
 699:/home/simulink/cFS_FreeRTOS_seL4/cfe/fsw/cfe-core/src/es/cfe_es_cds.c **** 
 700:/home/simulink/cFS_FreeRTOS_seL4/cfe/fsw/cfe-core/src/es/cfe_es_cds.c **** 
 701:/home/simulink/cFS_FreeRTOS_seL4/cfe/fsw/cfe-core/src/es/cfe_es_cds.c **** /*******************************************************************
 702:/home/simulink/cFS_FreeRTOS_seL4/cfe/fsw/cfe-core/src/es/cfe_es_cds.c **** **
 703:/home/simulink/cFS_FreeRTOS_seL4/cfe/fsw/cfe-core/src/es/cfe_es_cds.c **** ** CFE_ES_FindFreeCDSRegistryEntry
 704:/home/simulink/cFS_FreeRTOS_seL4/cfe/fsw/cfe-core/src/es/cfe_es_cds.c **** **
 705:/home/simulink/cFS_FreeRTOS_seL4/cfe/fsw/cfe-core/src/es/cfe_es_cds.c **** ** NOTE: For complete prolog information, see 'cfe_es_cds.h'
 706:/home/simulink/cFS_FreeRTOS_seL4/cfe/fsw/cfe-core/src/es/cfe_es_cds.c **** ********************************************************************/
 707:/home/simulink/cFS_FreeRTOS_seL4/cfe/fsw/cfe-core/src/es/cfe_es_cds.c **** 
 708:/home/simulink/cFS_FreeRTOS_seL4/cfe/fsw/cfe-core/src/es/cfe_es_cds.c **** int32 CFE_ES_FindFreeCDSRegistryEntry(void)
 709:/home/simulink/cFS_FreeRTOS_seL4/cfe/fsw/cfe-core/src/es/cfe_es_cds.c **** {
 1057               	.loc 1 709 0
 1058               	.cfi_startproc
 1059 077c 518F      	subq.l #8,%sp
 1060               	.cfi_def_cfa_offset 12
 710:/home/simulink/cFS_FreeRTOS_seL4/cfe/fsw/cfe-core/src/es/cfe_es_cds.c ****     int32 RegIndx = CFE_ES_CDS_NOT_FOUND;
 1061               	.loc 1 710 0
 1062 077e 70FF      	moveq #-1,%d0
 1063 0780 2F40 0004 	move.l %d0,4(%sp)
 711:/home/simulink/cFS_FreeRTOS_seL4/cfe/fsw/cfe-core/src/es/cfe_es_cds.c ****     int32 i = 0;
 1064               	.loc 1 711 0
 1065 0784 4297      	clr.l (%sp)
 712:/home/simulink/cFS_FreeRTOS_seL4/cfe/fsw/cfe-core/src/es/cfe_es_cds.c **** 
 713:/home/simulink/cFS_FreeRTOS_seL4/cfe/fsw/cfe-core/src/es/cfe_es_cds.c ****     while ( (RegIndx == CFE_ES_CDS_NOT_FOUND) && (i < CFE_ES_Global.CDSVars.MaxNumRegEntries) )
 1066               	.loc 1 713 0
 1067 0786 601E      	jra .L72
 1068               	.L75:
 714:/home/simulink/cFS_FreeRTOS_seL4/cfe/fsw/cfe-core/src/es/cfe_es_cds.c ****     {
 715:/home/simulink/cFS_FreeRTOS_seL4/cfe/fsw/cfe-core/src/es/cfe_es_cds.c ****         if (CFE_ES_Global.CDSVars.Registry[i].Taken == FALSE)
 1069               	.loc 1 715 0
 1070 0788 2017      	move.l (%sp),%d0
 1071 078a 7234      	moveq #52,%d1
 1072 078c 4C01 0800 	muls.l %d1,%d0
 1073 0790 41F9 0000 	lea CFE_ES_Global+8228,%a0
 1073      0000 
 1074 0796 1030 0800 	move.b (%a0,%d0.l),%d0
 1075 079a 4A00      	tst.b %d0
 1076 079c 6606      	jne .L73
 716:/home/simulink/cFS_FreeRTOS_seL4/cfe/fsw/cfe-core/src/es/cfe_es_cds.c ****         {
 717:/home/simulink/cFS_FreeRTOS_seL4/cfe/fsw/cfe-core/src/es/cfe_es_cds.c ****             RegIndx = i;
 1077               	.loc 1 717 0
 1078 079e 2F57 0004 	move.l (%sp),4(%sp)
 1079 07a2 6002      	jra .L72
 1080               	.L73:
68K GAS   			page 36


 718:/home/simulink/cFS_FreeRTOS_seL4/cfe/fsw/cfe-core/src/es/cfe_es_cds.c ****         }
 719:/home/simulink/cFS_FreeRTOS_seL4/cfe/fsw/cfe-core/src/es/cfe_es_cds.c ****         else
 720:/home/simulink/cFS_FreeRTOS_seL4/cfe/fsw/cfe-core/src/es/cfe_es_cds.c ****         {
 721:/home/simulink/cFS_FreeRTOS_seL4/cfe/fsw/cfe-core/src/es/cfe_es_cds.c ****             i++;
 1081               	.loc 1 721 0
 1082 07a4 5297      	addq.l #1,(%sp)
 1083               	.L72:
 713:/home/simulink/cFS_FreeRTOS_seL4/cfe/fsw/cfe-core/src/es/cfe_es_cds.c ****     {
 1084               	.loc 1 713 0
 1085 07a6 70FF      	moveq #-1,%d0
 1086 07a8 B0AF 0004 	cmp.l 4(%sp),%d0
 1087 07ac 660C      	jne .L74
 713:/home/simulink/cFS_FreeRTOS_seL4/cfe/fsw/cfe-core/src/es/cfe_es_cds.c ****     {
 1088               	.loc 1 713 0 is_stmt 0 discriminator 1
 1089 07ae 2239 0000 	move.l CFE_ES_Global+8176,%d1
 1089      0000 
 1090 07b4 2017      	move.l (%sp),%d0
 1091 07b6 B081      	cmp.l %d1,%d0
 1092 07b8 65CE      	jcs .L75
 1093               	.L74:
 722:/home/simulink/cFS_FreeRTOS_seL4/cfe/fsw/cfe-core/src/es/cfe_es_cds.c ****         }
 723:/home/simulink/cFS_FreeRTOS_seL4/cfe/fsw/cfe-core/src/es/cfe_es_cds.c ****     }
 724:/home/simulink/cFS_FreeRTOS_seL4/cfe/fsw/cfe-core/src/es/cfe_es_cds.c **** 
 725:/home/simulink/cFS_FreeRTOS_seL4/cfe/fsw/cfe-core/src/es/cfe_es_cds.c ****     return RegIndx;
 1094               	.loc 1 725 0 is_stmt 1
 1095 07ba 202F 0004 	move.l 4(%sp),%d0
 726:/home/simulink/cFS_FreeRTOS_seL4/cfe/fsw/cfe-core/src/es/cfe_es_cds.c **** }   /* End of CFE_ES_FindFreeCDSRegistryEntry() */
 1096               	.loc 1 726 0
 1097 07be 508F      	addq.l #8,%sp
 1098 07c0 4E75      	rts
 1099               	.cfi_endproc
 1100               	.LFE70:
 1101               	.sizeCFE_ES_FindFreeCDSRegistryEntry, .-CFE_ES_FindFreeCDSRegistryEntry
 1102               	.section.rodata
 1103               	.LC18:
 1104 0322 4346 455F 	.string"CFE_CDS:Rebuild-Registry in CDS is unreadable\n"
 1104      4344 533A 
 1104      5265 6275 
 1104      696C 642D 
 1104      5265 6769 
 1105               	.LC19:
 1106 0351 4346 455F 	.string"CFE_CDS:Rebuild-Registry in CDS too large to recover\n"
 1106      4344 533A 
 1106      5265 6275 
 1106      696C 642D 
 1106      5265 6769 
 1107               	.text
 1108               	.align2
 1109               	.globlCFE_ES_RebuildCDS
 1110               	.typeCFE_ES_RebuildCDS, @function
 1111               	CFE_ES_RebuildCDS:
 1112               	.LFB71:
 727:/home/simulink/cFS_FreeRTOS_seL4/cfe/fsw/cfe-core/src/es/cfe_es_cds.c **** 
 728:/home/simulink/cFS_FreeRTOS_seL4/cfe/fsw/cfe-core/src/es/cfe_es_cds.c **** 
 729:/home/simulink/cFS_FreeRTOS_seL4/cfe/fsw/cfe-core/src/es/cfe_es_cds.c **** /*******************************************************************
 730:/home/simulink/cFS_FreeRTOS_seL4/cfe/fsw/cfe-core/src/es/cfe_es_cds.c **** **
 731:/home/simulink/cFS_FreeRTOS_seL4/cfe/fsw/cfe-core/src/es/cfe_es_cds.c **** ** CFE_ES_RebuildCDS
68K GAS   			page 37


 732:/home/simulink/cFS_FreeRTOS_seL4/cfe/fsw/cfe-core/src/es/cfe_es_cds.c **** **
 733:/home/simulink/cFS_FreeRTOS_seL4/cfe/fsw/cfe-core/src/es/cfe_es_cds.c **** ** NOTE: For complete prolog information, see above
 734:/home/simulink/cFS_FreeRTOS_seL4/cfe/fsw/cfe-core/src/es/cfe_es_cds.c **** ********************************************************************/
 735:/home/simulink/cFS_FreeRTOS_seL4/cfe/fsw/cfe-core/src/es/cfe_es_cds.c **** 
 736:/home/simulink/cFS_FreeRTOS_seL4/cfe/fsw/cfe-core/src/es/cfe_es_cds.c **** int32 CFE_ES_RebuildCDS(void)
 737:/home/simulink/cFS_FreeRTOS_seL4/cfe/fsw/cfe-core/src/es/cfe_es_cds.c **** {
 1113               	.loc 1 737 0
 1114               	.cfi_startproc
 1115 07c2 518F      	subq.l #8,%sp
 1116               	.cfi_def_cfa_offset 12
 1117 07c4 2F02      	move.l %d2,-(%sp)
 1118               	.cfi_def_cfa_offset 16
 1119               	.cfi_offset 2, -16
 738:/home/simulink/cFS_FreeRTOS_seL4/cfe/fsw/cfe-core/src/es/cfe_es_cds.c ****     int32 Status = CFE_SUCCESS;
 1120               	.loc 1 738 0
 1121 07c6 42AF 0008 	clr.l 8(%sp)
 739:/home/simulink/cFS_FreeRTOS_seL4/cfe/fsw/cfe-core/src/es/cfe_es_cds.c ****     int32 PoolOffset;
 740:/home/simulink/cFS_FreeRTOS_seL4/cfe/fsw/cfe-core/src/es/cfe_es_cds.c ****     
 741:/home/simulink/cFS_FreeRTOS_seL4/cfe/fsw/cfe-core/src/es/cfe_es_cds.c ****     /* First, determine if the CDS registry stored in the CDS is smaller or equal */
 742:/home/simulink/cFS_FreeRTOS_seL4/cfe/fsw/cfe-core/src/es/cfe_es_cds.c ****     /* in size to the CDS registry we are currently configured for                */
 743:/home/simulink/cFS_FreeRTOS_seL4/cfe/fsw/cfe-core/src/es/cfe_es_cds.c ****     /* Copy the number of registry entries to the CDS */
 744:/home/simulink/cFS_FreeRTOS_seL4/cfe/fsw/cfe-core/src/es/cfe_es_cds.c ****     Status = CFE_PSP_ReadFromCDS(&CFE_ES_Global.CDSVars.MaxNumRegEntries, 
 1122               	.loc 1 744 0
 1123 07ca 4878 0004 	pea 4.w
 1124               	.cfi_def_cfa_offset 20
 1125 07ce 4878 0008 	pea 8.w
 1126               	.cfi_def_cfa_offset 24
 1127 07d2 4879 0000 	pea CFE_ES_Global+8176
 1127      0000 
 1128               	.cfi_def_cfa_offset 28
 1129 07d8 4EB9 0000 	jsr CFE_PSP_ReadFromCDS
 1129      0000 
 1130 07de 4FEF 000C 	lea (12,%sp),%sp
 1131               	.cfi_def_cfa_offset 16
 1132 07e2 2F40 0008 	move.l %d0,8(%sp)
 745:/home/simulink/cFS_FreeRTOS_seL4/cfe/fsw/cfe-core/src/es/cfe_es_cds.c ****                                CDS_REG_SIZE_OFFSET, 
 746:/home/simulink/cFS_FreeRTOS_seL4/cfe/fsw/cfe-core/src/es/cfe_es_cds.c ****                                sizeof(CFE_ES_Global.CDSVars.MaxNumRegEntries));
 747:/home/simulink/cFS_FreeRTOS_seL4/cfe/fsw/cfe-core/src/es/cfe_es_cds.c ****                                
 748:/home/simulink/cFS_FreeRTOS_seL4/cfe/fsw/cfe-core/src/es/cfe_es_cds.c ****     if ((Status == CFE_PSP_SUCCESS)  &&
 1133               	.loc 1 748 0
 1134 07e6 4AAF 0008 	tst.l 8(%sp)
 1135 07ea 6600 00A6 	jne .L78
 749:/home/simulink/cFS_FreeRTOS_seL4/cfe/fsw/cfe-core/src/es/cfe_es_cds.c ****         (CFE_ES_Global.CDSVars.MaxNumRegEntries <= CFE_ES_CDS_MAX_NUM_ENTRIES))
 1136               	.loc 1 749 0 discriminator 1
 1137 07ee 2039 0000 	move.l CFE_ES_Global+8176,%d0
 1137      0000 
 748:/home/simulink/cFS_FreeRTOS_seL4/cfe/fsw/cfe-core/src/es/cfe_es_cds.c ****         (CFE_ES_Global.CDSVars.MaxNumRegEntries <= CFE_ES_CDS_MAX_NUM_ENTRIES))
 1138               	.loc 1 748 0 discriminator 1
 1139 07f4 0C80 0000 	cmp.l #512,%d0
 1139      0200 
 1140 07fa 6200 0096 	jhi .L78
 750:/home/simulink/cFS_FreeRTOS_seL4/cfe/fsw/cfe-core/src/es/cfe_es_cds.c ****     {
 751:/home/simulink/cFS_FreeRTOS_seL4/cfe/fsw/cfe-core/src/es/cfe_es_cds.c ****         Status = CFE_PSP_ReadFromCDS(&CFE_ES_Global.CDSVars.Registry,
 752:/home/simulink/cFS_FreeRTOS_seL4/cfe/fsw/cfe-core/src/es/cfe_es_cds.c ****                                    CDS_REG_OFFSET,
 753:/home/simulink/cFS_FreeRTOS_seL4/cfe/fsw/cfe-core/src/es/cfe_es_cds.c ****                                    (CFE_ES_Global.CDSVars.MaxNumRegEntries * sizeof(CFE_ES_CDS_RegR
 1141               	.loc 1 753 0
 1142 07fe 2039 0000 	move.l CFE_ES_Global+8176,%d0
68K GAS   			page 38


 1142      0000 
 751:/home/simulink/cFS_FreeRTOS_seL4/cfe/fsw/cfe-core/src/es/cfe_es_cds.c ****                                    CDS_REG_OFFSET,
 1143               	.loc 1 751 0
 1144 0804 7234      	moveq #52,%d1
 1145 0806 4C01 0800 	muls.l %d1,%d0
 1146 080a 2F00      	move.l %d0,-(%sp)
 1147               	.cfi_def_cfa_offset 20
 1148 080c 4878 000C 	pea 12.w
 1149               	.cfi_def_cfa_offset 24
 1150 0810 4879 0000 	pea CFE_ES_Global+8180
 1150      0000 
 1151               	.cfi_def_cfa_offset 28
 1152 0816 4EB9 0000 	jsr CFE_PSP_ReadFromCDS
 1152      0000 
 1153 081c 4FEF 000C 	lea (12,%sp),%sp
 1154               	.cfi_def_cfa_offset 16
 1155 0820 2F40 0008 	move.l %d0,8(%sp)
 754:/home/simulink/cFS_FreeRTOS_seL4/cfe/fsw/cfe-core/src/es/cfe_es_cds.c ****                             
 755:/home/simulink/cFS_FreeRTOS_seL4/cfe/fsw/cfe-core/src/es/cfe_es_cds.c ****         if (Status == CFE_PSP_SUCCESS)
 1156               	.loc 1 755 0
 1157 0824 4AAF 0008 	tst.l 8(%sp)
 1158 0828 664E      	jne .L79
 756:/home/simulink/cFS_FreeRTOS_seL4/cfe/fsw/cfe-core/src/es/cfe_es_cds.c ****         {
 757:/home/simulink/cFS_FreeRTOS_seL4/cfe/fsw/cfe-core/src/es/cfe_es_cds.c ****             /* Calculate the starting offset of the memory pool */
 758:/home/simulink/cFS_FreeRTOS_seL4/cfe/fsw/cfe-core/src/es/cfe_es_cds.c ****             PoolOffset = (CDS_REG_OFFSET + (CFE_ES_Global.CDSVars.MaxNumRegEntries * sizeof(CFE_ES_
 1159               	.loc 1 758 0
 1160 082a 2039 0000 	move.l CFE_ES_Global+8176,%d0
 1160      0000 
 1161 0830 7434      	moveq #52,%d2
 1162 0832 4C02 0800 	muls.l %d2,%d0
 1163 0836 0680 0000 	add.l #15,%d0
 1163      000F 
 1164 083c 72FC      	moveq #-4,%d1
 1165 083e C280      	and.l %d0,%d1
 1166 0840 2F41 0004 	move.l %d1,4(%sp)
 759:/home/simulink/cFS_FreeRTOS_seL4/cfe/fsw/cfe-core/src/es/cfe_es_cds.c **** 
 760:/home/simulink/cFS_FreeRTOS_seL4/cfe/fsw/cfe-core/src/es/cfe_es_cds.c ****             /* Calculate the size of the memory pool */
 761:/home/simulink/cFS_FreeRTOS_seL4/cfe/fsw/cfe-core/src/es/cfe_es_cds.c ****             CFE_ES_Global.CDSVars.MemPoolSize = CFE_ES_Global.CDSVars.CDSSize - PoolOffset - sizeof
 1167               	.loc 1 761 0
 1168 0844 2239 0000 	move.l CFE_ES_Global+8168,%d1
 1168      0000 
 1169 084a 202F 0004 	move.l 4(%sp),%d0
 1170 084e 2401      	move.l %d1,%d2
 1171 0850 9480      	sub.l %d0,%d2
 1172 0852 2002      	move.l %d2,%d0
 1173 0854 5180      	subq.l #8,%d0
 1174 0856 23C0 0000 	move.l %d0,CFE_ES_Global+8172
 1174      0000 
 762:/home/simulink/cFS_FreeRTOS_seL4/cfe/fsw/cfe-core/src/es/cfe_es_cds.c ****             
 763:/home/simulink/cFS_FreeRTOS_seL4/cfe/fsw/cfe-core/src/es/cfe_es_cds.c ****             /* Scan the memory pool and identify the created but currently unused memory blocks */
 764:/home/simulink/cFS_FreeRTOS_seL4/cfe/fsw/cfe-core/src/es/cfe_es_cds.c ****             Status = CFE_ES_RebuildCDSPool(CFE_ES_Global.CDSVars.MemPoolSize, PoolOffset);
 1175               	.loc 1 764 0
 1176 085c 222F 0004 	move.l 4(%sp),%d1
 1177 0860 2039 0000 	move.l CFE_ES_Global+8172,%d0
 1177      0000 
 1178 0866 2F01      	move.l %d1,-(%sp)
 1179               	.cfi_def_cfa_offset 20
68K GAS   			page 39


 1180 0868 2F00      	move.l %d0,-(%sp)
 1181               	.cfi_def_cfa_offset 24
 1182 086a 4EB9 0000 	jsr CFE_ES_RebuildCDSPool
 1182      0000 
 1183 0870 508F      	addq.l #8,%sp
 1184               	.cfi_def_cfa_offset 16
 1185 0872 2F40 0008 	move.l %d0,8(%sp)
 755:/home/simulink/cFS_FreeRTOS_seL4/cfe/fsw/cfe-core/src/es/cfe_es_cds.c ****         {
 1186               	.loc 1 755 0
 1187 0876 6032      	jra .L81
 1188               	.L79:
 765:/home/simulink/cFS_FreeRTOS_seL4/cfe/fsw/cfe-core/src/es/cfe_es_cds.c ****         }
 766:/home/simulink/cFS_FreeRTOS_seL4/cfe/fsw/cfe-core/src/es/cfe_es_cds.c ****         else
 767:/home/simulink/cFS_FreeRTOS_seL4/cfe/fsw/cfe-core/src/es/cfe_es_cds.c ****         {
 768:/home/simulink/cFS_FreeRTOS_seL4/cfe/fsw/cfe-core/src/es/cfe_es_cds.c ****             /* Registry in CDS is unreadable */
 769:/home/simulink/cFS_FreeRTOS_seL4/cfe/fsw/cfe-core/src/es/cfe_es_cds.c ****             Status = CFE_ES_CDS_INVALID;
 1189               	.loc 1 769 0
 1190 0878 203C C400 	move.l #-1006632942,%d0
 1190      0012 
 1191 087e 2F40 0008 	move.l %d0,8(%sp)
 770:/home/simulink/cFS_FreeRTOS_seL4/cfe/fsw/cfe-core/src/es/cfe_es_cds.c ****             CFE_ES_WriteToSysLog("CFE_CDS:Rebuild-Registry in CDS is unreadable\n");
 1192               	.loc 1 770 0
 1193 0882 4879 0000 	pea .LC18
 1193      0000 
 1194               	.cfi_def_cfa_offset 20
 1195 0888 4EB9 0000 	jsr CFE_ES_WriteToSysLog
 1195      0000 
 1196 088e 588F      	addq.l #4,%sp
 1197               	.cfi_def_cfa_offset 16
 755:/home/simulink/cFS_FreeRTOS_seL4/cfe/fsw/cfe-core/src/es/cfe_es_cds.c ****         {
 1198               	.loc 1 755 0
 1199 0890 6018      	jra .L81
 1200               	.L78:
 771:/home/simulink/cFS_FreeRTOS_seL4/cfe/fsw/cfe-core/src/es/cfe_es_cds.c ****         }
 772:/home/simulink/cFS_FreeRTOS_seL4/cfe/fsw/cfe-core/src/es/cfe_es_cds.c ****     }
 773:/home/simulink/cFS_FreeRTOS_seL4/cfe/fsw/cfe-core/src/es/cfe_es_cds.c ****     else
 774:/home/simulink/cFS_FreeRTOS_seL4/cfe/fsw/cfe-core/src/es/cfe_es_cds.c ****     {
 775:/home/simulink/cFS_FreeRTOS_seL4/cfe/fsw/cfe-core/src/es/cfe_es_cds.c ****         /* Registry in CDS is too large to recover */
 776:/home/simulink/cFS_FreeRTOS_seL4/cfe/fsw/cfe-core/src/es/cfe_es_cds.c ****         Status = CFE_ES_CDS_INVALID;
 1201               	.loc 1 776 0
 1202 0892 223C C400 	move.l #-1006632942,%d1
 1202      0012 
 1203 0898 2F41 0008 	move.l %d1,8(%sp)
 777:/home/simulink/cFS_FreeRTOS_seL4/cfe/fsw/cfe-core/src/es/cfe_es_cds.c ****         CFE_ES_WriteToSysLog("CFE_CDS:Rebuild-Registry in CDS too large to recover\n");
 1204               	.loc 1 777 0
 1205 089c 4879 0000 	pea .LC19
 1205      0000 
 1206               	.cfi_def_cfa_offset 20
 1207 08a2 4EB9 0000 	jsr CFE_ES_WriteToSysLog
 1207      0000 
 1208 08a8 588F      	addq.l #4,%sp
 1209               	.cfi_def_cfa_offset 16
 1210               	.L81:
 778:/home/simulink/cFS_FreeRTOS_seL4/cfe/fsw/cfe-core/src/es/cfe_es_cds.c ****     }
 779:/home/simulink/cFS_FreeRTOS_seL4/cfe/fsw/cfe-core/src/es/cfe_es_cds.c ****            
 780:/home/simulink/cFS_FreeRTOS_seL4/cfe/fsw/cfe-core/src/es/cfe_es_cds.c ****     return Status;    
 1211               	.loc 1 780 0
68K GAS   			page 40


 1212 08aa 202F 0008 	move.l 8(%sp),%d0
 781:/home/simulink/cFS_FreeRTOS_seL4/cfe/fsw/cfe-core/src/es/cfe_es_cds.c **** }
 1213               	.loc 1 781 0
 1214 08ae 241F      	move.l (%sp)+,%d2
 1215 08b0 508F      	addq.l #8,%sp
 1216 08b2 4E75      	rts
 1217               	.cfi_endproc
 1218               	.LFE71:
 1219               	.sizeCFE_ES_RebuildCDS, .-CFE_ES_RebuildCDS
 1220               	.section.rodata
 1221               	.LC20:
 1222 0387 4346 455F 	.string"CFE_ES:DeleteCDS-Failed to free CDS Mem Block (Handle=0x%08lX)(Stat=0x%08X)\n"
 1222      4553 3A44 
 1222      656C 6574 
 1222      6543 4453 
 1222      2D46 6169 
 1223               	.LC21:
 1224 03d4 4346 455F 	.string"CFE_ES:DeleteCDS-Failed to update CDS Registry (Stat=0x%08X)\n"
 1224      4553 3A44 
 1224      656C 6574 
 1224      6543 4453 
 1224      2D46 6169 
 1225               	.text
 1226               	.align2
 1227               	.globlCFE_ES_DeleteCDS
 1228               	.typeCFE_ES_DeleteCDS, @function
 1229               	CFE_ES_DeleteCDS:
 1230               	.LFB72:
 782:/home/simulink/cFS_FreeRTOS_seL4/cfe/fsw/cfe-core/src/es/cfe_es_cds.c **** 
 783:/home/simulink/cFS_FreeRTOS_seL4/cfe/fsw/cfe-core/src/es/cfe_es_cds.c **** 
 784:/home/simulink/cFS_FreeRTOS_seL4/cfe/fsw/cfe-core/src/es/cfe_es_cds.c **** /*******************************************************************
 785:/home/simulink/cFS_FreeRTOS_seL4/cfe/fsw/cfe-core/src/es/cfe_es_cds.c **** **
 786:/home/simulink/cFS_FreeRTOS_seL4/cfe/fsw/cfe-core/src/es/cfe_es_cds.c **** ** CFE_ES_DeleteCDS
 787:/home/simulink/cFS_FreeRTOS_seL4/cfe/fsw/cfe-core/src/es/cfe_es_cds.c **** **
 788:/home/simulink/cFS_FreeRTOS_seL4/cfe/fsw/cfe-core/src/es/cfe_es_cds.c **** ** NOTE: For complete prolog information, see 'cfe_es_cds.h'
 789:/home/simulink/cFS_FreeRTOS_seL4/cfe/fsw/cfe-core/src/es/cfe_es_cds.c **** ********************************************************************/
 790:/home/simulink/cFS_FreeRTOS_seL4/cfe/fsw/cfe-core/src/es/cfe_es_cds.c **** 
 791:/home/simulink/cFS_FreeRTOS_seL4/cfe/fsw/cfe-core/src/es/cfe_es_cds.c **** int32 CFE_ES_DeleteCDS(const char *CDSName, boolean CalledByTblServices)
 792:/home/simulink/cFS_FreeRTOS_seL4/cfe/fsw/cfe-core/src/es/cfe_es_cds.c **** {
 1231               	.loc 1 792 0
 1232               	.cfi_startproc
 1233 08b4 4FEF FFD4 	lea (-44,%sp),%sp
 1234               	.cfi_def_cfa_offset 48
 1235 08b8 202F 0034 	move.l 52(%sp),%d0
 1236 08bc 1000      	move.b %d0,%d0
 1237 08be 1E80      	move.b %d0,(%sp)
 793:/home/simulink/cFS_FreeRTOS_seL4/cfe/fsw/cfe-core/src/es/cfe_es_cds.c ****     int32                Status;
 794:/home/simulink/cFS_FreeRTOS_seL4/cfe/fsw/cfe-core/src/es/cfe_es_cds.c ****     int32                RegIndx;
 795:/home/simulink/cFS_FreeRTOS_seL4/cfe/fsw/cfe-core/src/es/cfe_es_cds.c ****     CFE_ES_CDS_RegRec_t *RegRecPtr = NULL;
 1238               	.loc 1 795 0
 1239 08c0 42AF 0020 	clr.l 32(%sp)
 796:/home/simulink/cFS_FreeRTOS_seL4/cfe/fsw/cfe-core/src/es/cfe_es_cds.c ****     char                 OwnerName[OS_MAX_API_NAME];
 797:/home/simulink/cFS_FreeRTOS_seL4/cfe/fsw/cfe-core/src/es/cfe_es_cds.c ****     uint32               AppId;
 798:/home/simulink/cFS_FreeRTOS_seL4/cfe/fsw/cfe-core/src/es/cfe_es_cds.c ****     uint32               i;
 799:/home/simulink/cFS_FreeRTOS_seL4/cfe/fsw/cfe-core/src/es/cfe_es_cds.c ****     
 800:/home/simulink/cFS_FreeRTOS_seL4/cfe/fsw/cfe-core/src/es/cfe_es_cds.c ****     /* Lock Registry for update.  This prevents two applications from */
 801:/home/simulink/cFS_FreeRTOS_seL4/cfe/fsw/cfe-core/src/es/cfe_es_cds.c ****     /* trying to change the CDS registry at the same time  */
68K GAS   			page 41


 802:/home/simulink/cFS_FreeRTOS_seL4/cfe/fsw/cfe-core/src/es/cfe_es_cds.c ****     CFE_ES_LockCDSRegistry();
 1240               	.loc 1 802 0
 1241 08c4 4EB9 0000 	jsr CFE_ES_LockCDSRegistry
 1241      0000 
 803:/home/simulink/cFS_FreeRTOS_seL4/cfe/fsw/cfe-core/src/es/cfe_es_cds.c **** 
 804:/home/simulink/cFS_FreeRTOS_seL4/cfe/fsw/cfe-core/src/es/cfe_es_cds.c ****     /* Find CDS name in registry */
 805:/home/simulink/cFS_FreeRTOS_seL4/cfe/fsw/cfe-core/src/es/cfe_es_cds.c ****     RegIndx = CFE_ES_FindCDSInRegistry(CDSName);
 1242               	.loc 1 805 0
 1243 08ca 2F2F 0030 	move.l 48(%sp),-(%sp)
 1244               	.cfi_def_cfa_offset 52
 1245 08ce 4EB9 0000 	jsr CFE_ES_FindCDSInRegistry
 1245      0000 
 1246 08d4 588F      	addq.l #4,%sp
 1247               	.cfi_def_cfa_offset 48
 1248 08d6 2F40 001C 	move.l %d0,28(%sp)
 806:/home/simulink/cFS_FreeRTOS_seL4/cfe/fsw/cfe-core/src/es/cfe_es_cds.c **** 
 807:/home/simulink/cFS_FreeRTOS_seL4/cfe/fsw/cfe-core/src/es/cfe_es_cds.c ****     /* Check to see if CDS is already in the registry */
 808:/home/simulink/cFS_FreeRTOS_seL4/cfe/fsw/cfe-core/src/es/cfe_es_cds.c ****     if (RegIndx != CFE_ES_CDS_NOT_FOUND)
 1249               	.loc 1 808 0
 1250 08da 70FF      	moveq #-1,%d0
 1251 08dc B0AF 001C 	cmp.l 28(%sp),%d0
 1252 08e0 6700 012C 	jeq .L84
 809:/home/simulink/cFS_FreeRTOS_seL4/cfe/fsw/cfe-core/src/es/cfe_es_cds.c ****     {
 810:/home/simulink/cFS_FreeRTOS_seL4/cfe/fsw/cfe-core/src/es/cfe_es_cds.c ****         /* Get pointer to Registry Record Entry to speed up processing */
 811:/home/simulink/cFS_FreeRTOS_seL4/cfe/fsw/cfe-core/src/es/cfe_es_cds.c ****         RegRecPtr = &CFE_ES_Global.CDSVars.Registry[RegIndx];
 1253               	.loc 1 811 0
 1254 08e4 202F 001C 	move.l 28(%sp),%d0
 1255 08e8 7234      	moveq #52,%d1
 1256 08ea 4C01 0800 	muls.l %d1,%d0
 1257 08ee 0680 0000 	add.l #8180,%d0
 1257      1FF4 
 1258 08f4 2200      	move.l %d0,%d1
 1259 08f6 0681 0000 	add.l #CFE_ES_Global,%d1
 1259      0000 
 1260 08fc 2F41 0020 	move.l %d1,32(%sp)
 812:/home/simulink/cFS_FreeRTOS_seL4/cfe/fsw/cfe-core/src/es/cfe_es_cds.c ****         
 813:/home/simulink/cFS_FreeRTOS_seL4/cfe/fsw/cfe-core/src/es/cfe_es_cds.c ****         /* Critical tables are not allowed to be deleted via an ES Command. */
 814:/home/simulink/cFS_FreeRTOS_seL4/cfe/fsw/cfe-core/src/es/cfe_es_cds.c ****         /* They must be deleted by a Table Services Command */
 815:/home/simulink/cFS_FreeRTOS_seL4/cfe/fsw/cfe-core/src/es/cfe_es_cds.c ****         if (RegRecPtr->Table != CalledByTblServices)
 1261               	.loc 1 815 0
 1262 0900 206F 0020 	move.l 32(%sp),%a0
 1263 0904 1028 0031 	move.b 49(%a0),%d0
 1264 0908 4281      	clr.l %d1
 1265 090a 1217      	move.b (%sp),%d1
 1266 090c 1000      	move.b %d0,%d0
 1267 090e 0280 0000 	and.l #255,%d0
 1267      00FF 
 1268 0914 B081      	cmp.l %d1,%d0
 1269 0916 670E      	jeq .L85
 816:/home/simulink/cFS_FreeRTOS_seL4/cfe/fsw/cfe-core/src/es/cfe_es_cds.c ****         {
 817:/home/simulink/cFS_FreeRTOS_seL4/cfe/fsw/cfe-core/src/es/cfe_es_cds.c ****             Status = CFE_ES_CDS_WRONG_TYPE_ERR;
 1270               	.loc 1 817 0
 1271 0918 203C C400 	move.l #-1006632928,%d0
 1271      0020 
 1272 091e 2F40 0028 	move.l %d0,40(%sp)
 1273 0922 6000 00F4 	jra .L93
 1274               	.L85:
68K GAS   			page 42


 818:/home/simulink/cFS_FreeRTOS_seL4/cfe/fsw/cfe-core/src/es/cfe_es_cds.c ****         }
 819:/home/simulink/cFS_FreeRTOS_seL4/cfe/fsw/cfe-core/src/es/cfe_es_cds.c ****         else
 820:/home/simulink/cFS_FreeRTOS_seL4/cfe/fsw/cfe-core/src/es/cfe_es_cds.c ****         {
 821:/home/simulink/cFS_FreeRTOS_seL4/cfe/fsw/cfe-core/src/es/cfe_es_cds.c ****             /* Check to see if the owning application is still active */
 822:/home/simulink/cFS_FreeRTOS_seL4/cfe/fsw/cfe-core/src/es/cfe_es_cds.c ****             /* First, extract the owning application name */
 823:/home/simulink/cFS_FreeRTOS_seL4/cfe/fsw/cfe-core/src/es/cfe_es_cds.c ****             i=0;
 1275               	.loc 1 823 0
 1276 0926 42AF 0024 	clr.l 36(%sp)
 824:/home/simulink/cFS_FreeRTOS_seL4/cfe/fsw/cfe-core/src/es/cfe_es_cds.c ****             while ((i < (OS_MAX_API_NAME-1) && (RegRecPtr->Name[i] != '.')))
 1277               	.loc 1 824 0
 1278 092a 601C      	jra .L87
 1279               	.L89:
 825:/home/simulink/cFS_FreeRTOS_seL4/cfe/fsw/cfe-core/src/es/cfe_es_cds.c ****             {
 826:/home/simulink/cFS_FreeRTOS_seL4/cfe/fsw/cfe-core/src/es/cfe_es_cds.c ****                 OwnerName[i] = RegRecPtr->Name[i];
 1280               	.loc 1 826 0
 1281 092c 206F 0020 	move.l 32(%sp),%a0
 1282 0930 202F 0024 	move.l 36(%sp),%d0
 1283 0934 1230 0800 	move.b (%a0,%d0.l),%d1
 1284 0938 200F      	move.l %sp,%d0
 1285 093a 5080      	addq.l #8,%d0
 1286 093c 2040      	move.l %d0,%a0
 1287 093e D1EF 0024 	add.l 36(%sp),%a0
 1288 0942 1081      	move.b %d1,(%a0)
 827:/home/simulink/cFS_FreeRTOS_seL4/cfe/fsw/cfe-core/src/es/cfe_es_cds.c ****                 i++;
 1289               	.loc 1 827 0
 1290 0944 52AF 0024 	addq.l #1,36(%sp)
 1291               	.L87:
 824:/home/simulink/cFS_FreeRTOS_seL4/cfe/fsw/cfe-core/src/es/cfe_es_cds.c ****             while ((i < (OS_MAX_API_NAME-1) && (RegRecPtr->Name[i] != '.')))
 1292               	.loc 1 824 0
 1293 0948 7212      	moveq #18,%d1
 1294 094a B2AF 0024 	cmp.l 36(%sp),%d1
 1295 094e 6514      	jcs .L88
 824:/home/simulink/cFS_FreeRTOS_seL4/cfe/fsw/cfe-core/src/es/cfe_es_cds.c ****             while ((i < (OS_MAX_API_NAME-1) && (RegRecPtr->Name[i] != '.')))
 1296               	.loc 1 824 0 is_stmt 0 discriminator 1
 1297 0950 206F 0020 	move.l 32(%sp),%a0
 1298 0954 202F 0024 	move.l 36(%sp),%d0
 1299 0958 1030 0800 	move.b (%a0,%d0.l),%d0
 1300 095c 49C0      	extb.l %d0
 1301 095e 722E      	moveq #46,%d1
 1302 0960 B280      	cmp.l %d0,%d1
 1303 0962 66C8      	jne .L89
 1304               	.L88:
 828:/home/simulink/cFS_FreeRTOS_seL4/cfe/fsw/cfe-core/src/es/cfe_es_cds.c ****             }
 829:/home/simulink/cFS_FreeRTOS_seL4/cfe/fsw/cfe-core/src/es/cfe_es_cds.c ****             
 830:/home/simulink/cFS_FreeRTOS_seL4/cfe/fsw/cfe-core/src/es/cfe_es_cds.c ****             /* Null terminate the application name */
 831:/home/simulink/cFS_FreeRTOS_seL4/cfe/fsw/cfe-core/src/es/cfe_es_cds.c ****             OwnerName[i] = '\0';
 1305               	.loc 1 831 0 is_stmt 1
 1306 0964 200F      	move.l %sp,%d0
 1307 0966 5080      	addq.l #8,%d0
 1308 0968 2040      	move.l %d0,%a0
 1309 096a D1EF 0024 	add.l 36(%sp),%a0
 1310 096e 4210      	clr.b (%a0)
 832:/home/simulink/cFS_FreeRTOS_seL4/cfe/fsw/cfe-core/src/es/cfe_es_cds.c ****             
 833:/home/simulink/cFS_FreeRTOS_seL4/cfe/fsw/cfe-core/src/es/cfe_es_cds.c ****             /* Check to see if the Application Name is in the Registered Apps list */
 834:/home/simulink/cFS_FreeRTOS_seL4/cfe/fsw/cfe-core/src/es/cfe_es_cds.c ****             Status = CFE_ES_GetAppIDByName(&AppId, OwnerName);
 1311               	.loc 1 834 0
 1312 0970 200F      	move.l %sp,%d0
68K GAS   			page 43


 1313 0972 5080      	addq.l #8,%d0
 1314 0974 2F00      	move.l %d0,-(%sp)
 1315               	.cfi_def_cfa_offset 52
 1316 0976 200F      	move.l %sp,%d0
 1317 0978 5080      	addq.l #8,%d0
 1318 097a 2F00      	move.l %d0,-(%sp)
 1319               	.cfi_def_cfa_offset 56
 1320 097c 4EB9 0000 	jsr CFE_ES_GetAppIDByName
 1320      0000 
 1321 0982 508F      	addq.l #8,%sp
 1322               	.cfi_def_cfa_offset 48
 1323 0984 2F40 0028 	move.l %d0,40(%sp)
 835:/home/simulink/cFS_FreeRTOS_seL4/cfe/fsw/cfe-core/src/es/cfe_es_cds.c ****             
 836:/home/simulink/cFS_FreeRTOS_seL4/cfe/fsw/cfe-core/src/es/cfe_es_cds.c ****             /* If we can't find the name, then things are good */
 837:/home/simulink/cFS_FreeRTOS_seL4/cfe/fsw/cfe-core/src/es/cfe_es_cds.c ****             if (Status == CFE_ES_ERR_APPNAME)
 1324               	.loc 1 837 0
 1325 0988 203C C400 	move.l #-1006632958,%d0
 1325      0002 
 1326 098e B0AF 0028 	cmp.l 40(%sp),%d0
 1327 0992 666E      	jne .L90
 838:/home/simulink/cFS_FreeRTOS_seL4/cfe/fsw/cfe-core/src/es/cfe_es_cds.c ****             {
 839:/home/simulink/cFS_FreeRTOS_seL4/cfe/fsw/cfe-core/src/es/cfe_es_cds.c ****                 /* Free the registry entry and the CDS memory block associated with it */
 840:/home/simulink/cFS_FreeRTOS_seL4/cfe/fsw/cfe-core/src/es/cfe_es_cds.c ****                 Status = CFE_ES_PutCDSBlock(RegRecPtr->MemHandle);
 1328               	.loc 1 840 0
 1329 0994 206F 0020 	move.l 32(%sp),%a0
 1330 0998 2028 0028 	move.l 40(%a0),%d0
 1331 099c 2F00      	move.l %d0,-(%sp)
 1332               	.cfi_def_cfa_offset 52
 1333 099e 4EB9 0000 	jsr CFE_ES_PutCDSBlock
 1333      0000 
 1334 09a4 588F      	addq.l #4,%sp
 1335               	.cfi_def_cfa_offset 48
 1336 09a6 2F40 0028 	move.l %d0,40(%sp)
 841:/home/simulink/cFS_FreeRTOS_seL4/cfe/fsw/cfe-core/src/es/cfe_es_cds.c ****     
 842:/home/simulink/cFS_FreeRTOS_seL4/cfe/fsw/cfe-core/src/es/cfe_es_cds.c ****                 /* Report any errors incurred while freeing the CDS Memory Block */
 843:/home/simulink/cFS_FreeRTOS_seL4/cfe/fsw/cfe-core/src/es/cfe_es_cds.c ****                 if (Status < 0)
 1337               	.loc 1 843 0
 1338 09aa 4AAF 0028 	tst.l 40(%sp)
 1339 09ae 6C22      	jge .L91
 844:/home/simulink/cFS_FreeRTOS_seL4/cfe/fsw/cfe-core/src/es/cfe_es_cds.c ****                 {
 845:/home/simulink/cFS_FreeRTOS_seL4/cfe/fsw/cfe-core/src/es/cfe_es_cds.c ****                     CFE_ES_WriteToSysLog("CFE_ES:DeleteCDS-Failed to free CDS Mem Block (Handle=0x%
 1340               	.loc 1 845 0
 1341 09b0 222F 0028 	move.l 40(%sp),%d1
 846:/home/simulink/cFS_FreeRTOS_seL4/cfe/fsw/cfe-core/src/es/cfe_es_cds.c ****                             (unsigned long)RegRecPtr->MemHandle, (unsigned int)Status);
 1342               	.loc 1 846 0
 1343 09b4 206F 0020 	move.l 32(%sp),%a0
 1344 09b8 2028 0028 	move.l 40(%a0),%d0
 845:/home/simulink/cFS_FreeRTOS_seL4/cfe/fsw/cfe-core/src/es/cfe_es_cds.c ****                             (unsigned long)RegRecPtr->MemHandle, (unsigned int)Status);
 1345               	.loc 1 845 0
 1346 09bc 2F01      	move.l %d1,-(%sp)
 1347               	.cfi_def_cfa_offset 52
 1348 09be 2F00      	move.l %d0,-(%sp)
 1349               	.cfi_def_cfa_offset 56
 1350 09c0 4879 0000 	pea .LC20
 1350      0000 
 1351               	.cfi_def_cfa_offset 60
 1352 09c6 4EB9 0000 	jsr CFE_ES_WriteToSysLog
68K GAS   			page 44


 1352      0000 
 1353 09cc 4FEF 000C 	lea (12,%sp),%sp
 1354               	.cfi_def_cfa_offset 48
 1355 09d0 6046      	jra .L93
 1356               	.L91:
 847:/home/simulink/cFS_FreeRTOS_seL4/cfe/fsw/cfe-core/src/es/cfe_es_cds.c ****                 }
 848:/home/simulink/cFS_FreeRTOS_seL4/cfe/fsw/cfe-core/src/es/cfe_es_cds.c ****                 else
 849:/home/simulink/cFS_FreeRTOS_seL4/cfe/fsw/cfe-core/src/es/cfe_es_cds.c ****                 {
 850:/home/simulink/cFS_FreeRTOS_seL4/cfe/fsw/cfe-core/src/es/cfe_es_cds.c ****                     /* Remove entry from the CDS Registry */
 851:/home/simulink/cFS_FreeRTOS_seL4/cfe/fsw/cfe-core/src/es/cfe_es_cds.c ****                     RegRecPtr->Taken = FALSE;
 1357               	.loc 1 851 0
 1358 09d2 206F 0020 	move.l 32(%sp),%a0
 1359 09d6 4201      	clr.b %d1
 1360 09d8 1141 0030 	move.b %d1,48(%a0)
 852:/home/simulink/cFS_FreeRTOS_seL4/cfe/fsw/cfe-core/src/es/cfe_es_cds.c ****         
 853:/home/simulink/cFS_FreeRTOS_seL4/cfe/fsw/cfe-core/src/es/cfe_es_cds.c ****                     Status = CFE_ES_UpdateCDSRegistry();
 1361               	.loc 1 853 0
 1362 09dc 4EB9 0000 	jsr CFE_ES_UpdateCDSRegistry
 1362      0000 
 1363 09e2 2F40 0028 	move.l %d0,40(%sp)
 854:/home/simulink/cFS_FreeRTOS_seL4/cfe/fsw/cfe-core/src/es/cfe_es_cds.c ****             
 855:/home/simulink/cFS_FreeRTOS_seL4/cfe/fsw/cfe-core/src/es/cfe_es_cds.c ****                     if (Status != CFE_SUCCESS)
 1364               	.loc 1 855 0
 1365 09e6 4AAF 0028 	tst.l 40(%sp)
 1366 09ea 672C      	jeq .L93
 856:/home/simulink/cFS_FreeRTOS_seL4/cfe/fsw/cfe-core/src/es/cfe_es_cds.c ****                     {
 857:/home/simulink/cFS_FreeRTOS_seL4/cfe/fsw/cfe-core/src/es/cfe_es_cds.c ****                         CFE_ES_WriteToSysLog("CFE_ES:DeleteCDS-Failed to update CDS Registry (Stat=
 1367               	.loc 1 857 0
 1368 09ec 202F 0028 	move.l 40(%sp),%d0
 1369 09f0 2F00      	move.l %d0,-(%sp)
 1370               	.cfi_def_cfa_offset 52
 1371 09f2 4879 0000 	pea .LC21
 1371      0000 
 1372               	.cfi_def_cfa_offset 56
 1373 09f8 4EB9 0000 	jsr CFE_ES_WriteToSysLog
 1373      0000 
 1374 09fe 508F      	addq.l #8,%sp
 1375               	.cfi_def_cfa_offset 48
 1376 0a00 6016      	jra .L93
 1377               	.L90:
 858:/home/simulink/cFS_FreeRTOS_seL4/cfe/fsw/cfe-core/src/es/cfe_es_cds.c ****                     }
 859:/home/simulink/cFS_FreeRTOS_seL4/cfe/fsw/cfe-core/src/es/cfe_es_cds.c ****                 }
 860:/home/simulink/cFS_FreeRTOS_seL4/cfe/fsw/cfe-core/src/es/cfe_es_cds.c ****             }
 861:/home/simulink/cFS_FreeRTOS_seL4/cfe/fsw/cfe-core/src/es/cfe_es_cds.c ****             else
 862:/home/simulink/cFS_FreeRTOS_seL4/cfe/fsw/cfe-core/src/es/cfe_es_cds.c ****             {
 863:/home/simulink/cFS_FreeRTOS_seL4/cfe/fsw/cfe-core/src/es/cfe_es_cds.c ****                 Status = CFE_ES_CDS_OWNER_ACTIVE_ERR;
 1378               	.loc 1 863 0
 1379 0a02 203C C400 	move.l #-1006632926,%d0
 1379      0022 
 1380 0a08 2F40 0028 	move.l %d0,40(%sp)
 1381 0a0c 600A      	jra .L93
 1382               	.L84:
 864:/home/simulink/cFS_FreeRTOS_seL4/cfe/fsw/cfe-core/src/es/cfe_es_cds.c ****             }
 865:/home/simulink/cFS_FreeRTOS_seL4/cfe/fsw/cfe-core/src/es/cfe_es_cds.c ****         }
 866:/home/simulink/cFS_FreeRTOS_seL4/cfe/fsw/cfe-core/src/es/cfe_es_cds.c ****     }
 867:/home/simulink/cFS_FreeRTOS_seL4/cfe/fsw/cfe-core/src/es/cfe_es_cds.c ****     else  /* Error - CDS not in registry */
 868:/home/simulink/cFS_FreeRTOS_seL4/cfe/fsw/cfe-core/src/es/cfe_es_cds.c ****     {
68K GAS   			page 45


 869:/home/simulink/cFS_FreeRTOS_seL4/cfe/fsw/cfe-core/src/es/cfe_es_cds.c ****         Status = CFE_ES_CDS_NOT_FOUND_ERR;
 1383               	.loc 1 869 0
 1384 0a0e 223C C400 	move.l #-1006632927,%d1
 1384      0021 
 1385 0a14 2F41 0028 	move.l %d1,40(%sp)
 1386               	.L93:
 870:/home/simulink/cFS_FreeRTOS_seL4/cfe/fsw/cfe-core/src/es/cfe_es_cds.c ****     }
 871:/home/simulink/cFS_FreeRTOS_seL4/cfe/fsw/cfe-core/src/es/cfe_es_cds.c **** 
 872:/home/simulink/cFS_FreeRTOS_seL4/cfe/fsw/cfe-core/src/es/cfe_es_cds.c ****     /* Unlock Registry for future updates */
 873:/home/simulink/cFS_FreeRTOS_seL4/cfe/fsw/cfe-core/src/es/cfe_es_cds.c ****     CFE_ES_UnlockCDSRegistry();
 1387               	.loc 1 873 0
 1388 0a18 4EB9 0000 	jsr CFE_ES_UnlockCDSRegistry
 1388      0000 
 874:/home/simulink/cFS_FreeRTOS_seL4/cfe/fsw/cfe-core/src/es/cfe_es_cds.c **** 
 875:/home/simulink/cFS_FreeRTOS_seL4/cfe/fsw/cfe-core/src/es/cfe_es_cds.c ****     return Status;
 1389               	.loc 1 875 0
 1390 0a1e 202F 0028 	move.l 40(%sp),%d0
 876:/home/simulink/cFS_FreeRTOS_seL4/cfe/fsw/cfe-core/src/es/cfe_es_cds.c **** }   /* End of CFE_ES_DeleteCDS() */
 1391               	.loc 1 876 0
 1392 0a22 4FEF 002C 	lea (44,%sp),%sp
 1393 0a26 4E75      	rts
 1394               	.cfi_endproc
 1395               	.LFE72:
 1396               	.sizeCFE_ES_DeleteCDS, .-CFE_ES_DeleteCDS
 1397               	.Letext0:
 1398               	.file 2 "/home/simulink/cFS_FreeRTOS_seL4/osal/src/os/inc/common_types.h"
 1399               	.file 3 "/home/simulink/development/rtems/5/m68k-rtems5/include/machine/_default_types.h"
 1400               	.file 4 "/home/simulink/development/rtems/5/m68k-rtems5/include/machine/_types.h"
 1401               	.file 5 "/home/simulink/development/rtems/5/m68k-rtems5/include/sys/lock.h"
 1402               	.file 6 "/home/simulink/development/rtems/5/m68k-rtems5/include/sys/_types.h"
 1403               	.file 7 "/home/simulink/development/rtems/5/lib/gcc/m68k-rtems5/7.3.0/include/stddef.h"
 1404               	.file 8 "/home/simulink/development/rtems/5/m68k-rtems5/include/sys/reent.h"
 1405               	.file 9 "/home/simulink/development/rtems/5/m68k-rtems5/include/stdlib.h"
 1406               	.file 10 "/home/simulink/development/rtems/5/m68k-rtems5/include/time.h"
 1407               	.file 11 "/home/simulink/cFS_FreeRTOS_seL4/cfe/fsw/cfe-core/src/inc/cfe_es.h"
 1408               	.file 12 "/home/simulink/cFS_FreeRTOS_seL4/cfe/fsw/cfe-core/src/inc/cfe_time.h"
 1409               	.file 13 "/home/simulink/cFS_FreeRTOS_seL4/cfe/fsw/cfe-core/src/inc/cfe_sb.h"
 1410               	.file 14 "/home/simulink/cFS_FreeRTOS_seL4/cfe/fsw/cfe-core/src/inc/cfe_evs_msg.h"
 1411               	.file 15 "/home/simulink/cFS_FreeRTOS_seL4/cfe/fsw/cfe-core/src/es/cfe_es_apps.h"
 1412               	.file 16 "/home/simulink/cFS_FreeRTOS_seL4/cfe/fsw/cfe-core/src/es/cfe_es_cds_mempool.h"
 1413               	.file 17 "/home/simulink/cFS_FreeRTOS_seL4/cfe/fsw/cfe-core/src/es/cfe_es_cds.h"
 1414               	.file 18 "/home/simulink/cFS_FreeRTOS_seL4/cfe/fsw/cfe-core/src/inc/private/cfe_es_erlog_typedef.h"
 1415               	.file 19 "/home/simulink/cFS_FreeRTOS_seL4/cfe/fsw/cfe-core/src/inc/private/cfe_es_perfdata_typedef.h"
 1416               	.file 20 "/home/simulink/cFS_FreeRTOS_seL4/cfe/fsw/cfe-core/src/inc/private/cfe_evs_log_typedef.h"
 1417               	.file 21 "/home/simulink/cFS_FreeRTOS_seL4/cfe/fsw/cfe-core/src/inc/private/cfe_es_resetdata_typedef.h"
 1418               	.file 22 "/home/simulink/cFS_FreeRTOS_seL4/cfe/fsw/cfe-core/src/es/cfe_es_perf.h"
 1419               	.file 23 "/home/simulink/cFS_FreeRTOS_seL4/cfe/fsw/cfe-core/src/es/cfe_es_global.h"
 1420               	.section.debug_info,"",@progbits
 1421               	.Ldebug_info0:
 1422 0000 0000 1916 	.long0x1916
 1423 0004 0004      	.word0x4
 1424 0006 0000 0000 	.long.Ldebug_abbrev0
 1425 000a 04        	.byte0x4
 1426 000b 01        	.uleb128 0x1
 1427 000c 0000 0000 	.long.LASF357
 1428 0010 0C        	.byte0xc
 1429 0011 0000 0000 	.long.LASF358
68K GAS   			page 46


 1430 0015 0000 0000 	.long.LASF359
 1431 0019 0000 0000 	.long.Ltext0
 1432 001d 0000 0A28 	.long.Letext0-.Ltext0
 1433 0021 0000 0000 	.long.Ldebug_line0
 1434 0025 02        	.uleb128 0x2
 1435 0026 0000 0000 	.long.LASF2
 1436 002a 02        	.byte0x2
 1437 002b E6        	.byte0xe6
 1438 002c 0000 0030 	.long0x30
 1439 0030 03        	.uleb128 0x3
 1440 0031 01        	.byte0x1
 1441 0032 08        	.byte0x8
 1442 0033 0000 0000 	.long.LASF0
 1443 0037 03        	.uleb128 0x3
 1444 0038 01        	.byte0x1
 1445 0039 06        	.byte0x6
 1446 003a 0000 0000 	.long.LASF1
 1447 003e 02        	.uleb128 0x2
 1448 003f 0000 0000 	.long.LASF3
 1449 0043 02        	.byte0x2
 1450 0044 E8        	.byte0xe8
 1451 0045 0000 0049 	.long0x49
 1452 0049 03        	.uleb128 0x3
 1453 004a 02        	.byte0x2
 1454 004b 05        	.byte0x5
 1455 004c 0000 0000 	.long.LASF4
 1456 0050 02        	.uleb128 0x2
 1457 0051 0000 0000 	.long.LASF5
 1458 0055 02        	.byte0x2
 1459 0056 E9        	.byte0xe9
 1460 0057 0000 005B 	.long0x5b
 1461 005b 03        	.uleb128 0x3
 1462 005c 04        	.byte0x4
 1463 005d 05        	.byte0x5
 1464 005e 0000 0000 	.long.LASF6
 1465 0062 03        	.uleb128 0x3
 1466 0063 08        	.byte0x8
 1467 0064 05        	.byte0x5
 1468 0065 0000 0000 	.long.LASF7
 1469 0069 02        	.uleb128 0x2
 1470 006a 0000 0000 	.long.LASF8
 1471 006e 02        	.byte0x2
 1472 006f EB        	.byte0xeb
 1473 0070 0000 0030 	.long0x30
 1474 0074 02        	.uleb128 0x2
 1475 0075 0000 0000 	.long.LASF9
 1476 0079 02        	.byte0x2
 1477 007a EC        	.byte0xec
 1478 007b 0000 007F 	.long0x7f
 1479 007f 03        	.uleb128 0x3
 1480 0080 02        	.byte0x2
 1481 0081 07        	.byte0x7
 1482 0082 0000 0000 	.long.LASF10
 1483 0086 02        	.uleb128 0x2
 1484 0087 0000 0000 	.long.LASF11
 1485 008b 02        	.byte0x2
 1486 008c ED        	.byte0xed
68K GAS   			page 47


 1487 008d 0000 0091 	.long0x91
 1488 0091 03        	.uleb128 0x3
 1489 0092 04        	.byte0x4
 1490 0093 07        	.byte0x7
 1491 0094 0000 0000 	.long.LASF12
 1492 0098 03        	.uleb128 0x3
 1493 0099 08        	.byte0x8
 1494 009a 07        	.byte0x7
 1495 009b 0000 0000 	.long.LASF13
 1496 009f 02        	.uleb128 0x2
 1497 00a0 0000 0000 	.long.LASF14
 1498 00a4 02        	.byte0x2
 1499 00a5 F0        	.byte0xf0
 1500 00a6 0000 0091 	.long0x91
 1501 00aa 04        	.uleb128 0x4
 1502 00ab 0000 0000 	.long.LASF15
 1503 00af 02        	.byte0x2
 1504 00b0 0131      	.word0x131
 1505 00b2 0000 0025 	.long0x25
 1506 00b6 03        	.uleb128 0x3
 1507 00b7 01        	.byte0x1
 1508 00b8 06        	.byte0x6
 1509 00b9 0000 0000 	.long.LASF16
 1510 00bd 05        	.uleb128 0x5
 1511 00be 0000 00B6 	.long0xb6
 1512 00c2 06        	.uleb128 0x6
 1513 00c3 0000 00B6 	.long0xb6
 1514 00c7 0000 00D2 	.long0xd2
 1515 00cb 07        	.uleb128 0x7
 1516 00cc 0000 0091 	.long0x91
 1517 00d0 13        	.byte0x13
 1518 00d1 00        	.byte0
 1519 00d2 08        	.uleb128 0x8
 1520 00d3 04        	.byte0x4
 1521 00d4 02        	.uleb128 0x2
 1522 00d5 0000 0000 	.long.LASF17
 1523 00d9 03        	.byte0x3
 1524 00da 67        	.byte0x67
 1525 00db 0000 0062 	.long0x62
 1526 00df 03        	.uleb128 0x3
 1527 00e0 08        	.byte0x8
 1528 00e1 04        	.byte0x4
 1529 00e2 0000 0000 	.long.LASF18
 1530 00e6 02        	.uleb128 0x2
 1531 00e7 0000 0000 	.long.LASF19
 1532 00eb 04        	.byte0x4
 1533 00ec 10        	.byte0x10
 1534 00ed 0000 00D4 	.long0xd4
 1535 00f1 02        	.uleb128 0x2
 1536 00f2 0000 0000 	.long.LASF20
 1537 00f6 04        	.byte0x4
 1538 00f7 16        	.byte0x16
 1539 00f8 0000 00E6 	.long0xe6
 1540 00fc 09        	.uleb128 0x9
 1541 00fd 04        	.byte0x4
 1542 00fe 05        	.byte0x5
 1543 00ff 696E 7400 	.string"int"
68K GAS   			page 48


 1544 0103 0A        	.uleb128 0xa
 1545 0104 0000 0000 	.long.LASF24
 1546 0108 08        	.byte0x8
 1547 0109 05        	.byte0x5
 1548 010a 28        	.byte0x28
 1549 010b 0000 0128 	.long0x128
 1550 010f 0B        	.uleb128 0xb
 1551 0110 0000 0000 	.long.LASF21
 1552 0114 05        	.byte0x5
 1553 0115 29        	.byte0x29
 1554 0116 0000 0128 	.long0x128
 1555 011a 00        	.byte0
 1556 011b 0B        	.uleb128 0xb
 1557 011c 0000 0000 	.long.LASF22
 1558 0120 05        	.byte0x5
 1559 0121 2A        	.byte0x2a
 1560 0122 0000 0128 	.long0x128
 1561 0126 04        	.byte0x4
 1562 0127 00        	.byte0
 1563 0128 03        	.uleb128 0x3
 1564 0129 04        	.byte0x4
 1565 012a 07        	.byte0x7
 1566 012b 0000 0000 	.long.LASF23
 1567 012f 0A        	.uleb128 0xa
 1568 0130 0000 0000 	.long.LASF25
 1569 0134 14        	.byte0x14
 1570 0135 05        	.byte0x5
 1571 0136 2D        	.byte0x2d
 1572 0137 0000 016C 	.long0x16c
 1573 013b 0B        	.uleb128 0xb
 1574 013c 0000 0000 	.long.LASF26
 1575 0140 05        	.byte0x5
 1576 0141 2E        	.byte0x2e
 1577 0142 0000 0103 	.long0x103
 1578 0146 00        	.byte0
 1579 0147 0B        	.uleb128 0xb
 1580 0148 0000 0000 	.long.LASF27
 1581 014c 05        	.byte0x5
 1582 014d 2F        	.byte0x2f
 1583 014e 0000 0171 	.long0x171
 1584 0152 08        	.byte0x8
 1585 0153 0B        	.uleb128 0xb
 1586 0154 0000 0000 	.long.LASF28
 1587 0158 05        	.byte0x5
 1588 0159 30        	.byte0x30
 1589 015a 0000 017C 	.long0x17c
 1590 015e 0C        	.byte0xc
 1591 015f 0B        	.uleb128 0xb
 1592 0160 0000 0000 	.long.LASF29
 1593 0164 05        	.byte0x5
 1594 0165 31        	.byte0x31
 1595 0166 0000 0182 	.long0x182
 1596 016a 10        	.byte0x10
 1597 016b 00        	.byte0
 1598 016c 0C        	.uleb128 0xc
 1599 016d 0000 0000 	.long.LASF30
 1600 0171 0D        	.uleb128 0xd
68K GAS   			page 49


 1601 0172 04        	.byte0x4
 1602 0173 0000 016C 	.long0x16c
 1603 0177 0C        	.uleb128 0xc
 1604 0178 0000 0000 	.long.LASF31
 1605 017c 0D        	.uleb128 0xd
 1606 017d 04        	.byte0x4
 1607 017e 0000 0177 	.long0x177
 1608 0182 0D        	.uleb128 0xd
 1609 0183 04        	.byte0x4
 1610 0184 0000 00BD 	.long0xbd
 1611 0188 0A        	.uleb128 0xa
 1612 0189 0000 0000 	.long.LASF32
 1613 018d 14        	.byte0x14
 1614 018e 05        	.byte0x5
 1615 018f 34        	.byte0x34
 1616 0190 0000 01A1 	.long0x1a1
 1617 0194 0B        	.uleb128 0xb
 1618 0195 0000 0000 	.long.LASF33
 1619 0199 05        	.byte0x5
 1620 019a 35        	.byte0x35
 1621 019b 0000 012F 	.long0x12f
 1622 019f 00        	.byte0
 1623 01a0 00        	.byte0
 1624 01a1 0A        	.uleb128 0xa
 1625 01a2 0000 0000 	.long.LASF34
 1626 01a6 18        	.byte0x18
 1627 01a7 05        	.byte0x5
 1628 01a8 38        	.byte0x38
 1629 01a9 0000 01C6 	.long0x1c6
 1630 01ad 0B        	.uleb128 0xb
 1631 01ae 0000 0000 	.long.LASF35
 1632 01b2 05        	.byte0x5
 1633 01b3 39        	.byte0x39
 1634 01b4 0000 0188 	.long0x188
 1635 01b8 00        	.byte0
 1636 01b9 0B        	.uleb128 0xb
 1637 01ba 0000 0000 	.long.LASF36
 1638 01be 05        	.byte0x5
 1639 01bf 3A        	.byte0x3a
 1640 01c0 0000 0128 	.long0x128
 1641 01c4 14        	.byte0x14
 1642 01c5 00        	.byte0
 1643 01c6 04        	.uleb128 0x4
 1644 01c7 0000 0000 	.long.LASF37
 1645 01cb 05        	.byte0x5
 1646 01cc 0171      	.word0x171
 1647 01ce 0000 01A1 	.long0x1a1
 1648 01d2 02        	.uleb128 0x2
 1649 01d3 0000 0000 	.long.LASF38
 1650 01d7 06        	.byte0x6
 1651 01d8 91        	.byte0x91
 1652 01d9 0000 005B 	.long0x5b
 1653 01dd 04        	.uleb128 0x4
 1654 01de 0000 0000 	.long.LASF39
 1655 01e2 07        	.byte0x7
 1656 01e3 0165      	.word0x165
 1657 01e5 0000 0128 	.long0x128
68K GAS   			page 50


 1658 01e9 0E        	.uleb128 0xe
 1659 01ea 04        	.byte0x4
 1660 01eb 06        	.byte0x6
 1661 01ec A6        	.byte0xa6
 1662 01ed 0000 0208 	.long0x208
 1663 01f1 0F        	.uleb128 0xf
 1664 01f2 0000 0000 	.long.LASF40
 1665 01f6 06        	.byte0x6
 1666 01f7 A8        	.byte0xa8
 1667 01f8 0000 01DD 	.long0x1dd
 1668 01fc 0F        	.uleb128 0xf
 1669 01fd 0000 0000 	.long.LASF41
 1670 0201 06        	.byte0x6
 1671 0202 A9        	.byte0xa9
 1672 0203 0000 0208 	.long0x208
 1673 0207 00        	.byte0
 1674 0208 06        	.uleb128 0x6
 1675 0209 0000 0030 	.long0x30
 1676 020d 0000 0218 	.long0x218
 1677 0211 07        	.uleb128 0x7
 1678 0212 0000 0091 	.long0x91
 1679 0216 03        	.byte0x3
 1680 0217 00        	.byte0
 1681 0218 10        	.uleb128 0x10
 1682 0219 08        	.byte0x8
 1683 021a 06        	.byte0x6
 1684 021b A3        	.byte0xa3
 1685 021c 0000 0239 	.long0x239
 1686 0220 0B        	.uleb128 0xb
 1687 0221 0000 0000 	.long.LASF42
 1688 0225 06        	.byte0x6
 1689 0226 A5        	.byte0xa5
 1690 0227 0000 00FC 	.long0xfc
 1691 022b 00        	.byte0
 1692 022c 0B        	.uleb128 0xb
 1693 022d 0000 0000 	.long.LASF43
 1694 0231 06        	.byte0x6
 1695 0232 AA        	.byte0xaa
 1696 0233 0000 01E9 	.long0x1e9
 1697 0237 04        	.byte0x4
 1698 0238 00        	.byte0
 1699 0239 02        	.uleb128 0x2
 1700 023a 0000 0000 	.long.LASF44
 1701 023e 06        	.byte0x6
 1702 023f AB        	.byte0xab
 1703 0240 0000 0218 	.long0x218
 1704 0244 02        	.uleb128 0x2
 1705 0245 0000 0000 	.long.LASF45
 1706 0249 06        	.byte0x6
 1707 024a AF        	.byte0xaf
 1708 024b 0000 01C6 	.long0x1c6
 1709 024f 02        	.uleb128 0x2
 1710 0250 0000 0000 	.long.LASF46
 1711 0254 08        	.byte0x8
 1712 0255 16        	.byte0x16
 1713 0256 0000 0091 	.long0x91
 1714 025a 0A        	.uleb128 0xa
68K GAS   			page 51


 1715 025b 0000 0000 	.long.LASF47
 1716 025f 18        	.byte0x18
 1717 0260 08        	.byte0x8
 1718 0261 2F        	.byte0x2f
 1719 0262 0000 02AD 	.long0x2ad
 1720 0266 0B        	.uleb128 0xb
 1721 0267 0000 0000 	.long.LASF48
 1722 026b 08        	.byte0x8
 1723 026c 31        	.byte0x31
 1724 026d 0000 02AD 	.long0x2ad
 1725 0271 00        	.byte0
 1726 0272 11        	.uleb128 0x11
 1727 0273 5F6B 00   	.string"_k"
 1728 0276 08        	.byte0x8
 1729 0277 32        	.byte0x32
 1730 0278 0000 00FC 	.long0xfc
 1731 027c 04        	.byte0x4
 1732 027d 0B        	.uleb128 0xb
 1733 027e 0000 0000 	.long.LASF49
 1734 0282 08        	.byte0x8
 1735 0283 32        	.byte0x32
 1736 0284 0000 00FC 	.long0xfc
 1737 0288 08        	.byte0x8
 1738 0289 0B        	.uleb128 0xb
 1739 028a 0000 0000 	.long.LASF50
 1740 028e 08        	.byte0x8
 1741 028f 32        	.byte0x32
 1742 0290 0000 00FC 	.long0xfc
 1743 0294 0C        	.byte0xc
 1744 0295 0B        	.uleb128 0xb
 1745 0296 0000 0000 	.long.LASF51
 1746 029a 08        	.byte0x8
 1747 029b 32        	.byte0x32
 1748 029c 0000 00FC 	.long0xfc
 1749 02a0 10        	.byte0x10
 1750 02a1 11        	.uleb128 0x11
 1751 02a2 5F78 00   	.string"_x"
 1752 02a5 08        	.byte0x8
 1753 02a6 33        	.byte0x33
 1754 02a7 0000 02B3 	.long0x2b3
 1755 02ab 14        	.byte0x14
 1756 02ac 00        	.byte0
 1757 02ad 0D        	.uleb128 0xd
 1758 02ae 04        	.byte0x4
 1759 02af 0000 025A 	.long0x25a
 1760 02b3 06        	.uleb128 0x6
 1761 02b4 0000 024F 	.long0x24f
 1762 02b8 0000 02C3 	.long0x2c3
 1763 02bc 07        	.uleb128 0x7
 1764 02bd 0000 0091 	.long0x91
 1765 02c1 00        	.byte0
 1766 02c2 00        	.byte0
 1767 02c3 0A        	.uleb128 0xa
 1768 02c4 0000 0000 	.long.LASF52
 1769 02c8 24        	.byte0x24
 1770 02c9 08        	.byte0x8
 1771 02ca 37        	.byte0x37
68K GAS   			page 52


 1772 02cb 0000 033C 	.long0x33c
 1773 02cf 0B        	.uleb128 0xb
 1774 02d0 0000 0000 	.long.LASF53
 1775 02d4 08        	.byte0x8
 1776 02d5 39        	.byte0x39
 1777 02d6 0000 00FC 	.long0xfc
 1778 02da 00        	.byte0
 1779 02db 0B        	.uleb128 0xb
 1780 02dc 0000 0000 	.long.LASF54
 1781 02e0 08        	.byte0x8
 1782 02e1 3A        	.byte0x3a
 1783 02e2 0000 00FC 	.long0xfc
 1784 02e6 04        	.byte0x4
 1785 02e7 0B        	.uleb128 0xb
 1786 02e8 0000 0000 	.long.LASF55
 1787 02ec 08        	.byte0x8
 1788 02ed 3B        	.byte0x3b
 1789 02ee 0000 00FC 	.long0xfc
 1790 02f2 08        	.byte0x8
 1791 02f3 0B        	.uleb128 0xb
 1792 02f4 0000 0000 	.long.LASF56
 1793 02f8 08        	.byte0x8
 1794 02f9 3C        	.byte0x3c
 1795 02fa 0000 00FC 	.long0xfc
 1796 02fe 0C        	.byte0xc
 1797 02ff 0B        	.uleb128 0xb
 1798 0300 0000 0000 	.long.LASF57
 1799 0304 08        	.byte0x8
 1800 0305 3D        	.byte0x3d
 1801 0306 0000 00FC 	.long0xfc
 1802 030a 10        	.byte0x10
 1803 030b 0B        	.uleb128 0xb
 1804 030c 0000 0000 	.long.LASF58
 1805 0310 08        	.byte0x8
 1806 0311 3E        	.byte0x3e
 1807 0312 0000 00FC 	.long0xfc
 1808 0316 14        	.byte0x14
 1809 0317 0B        	.uleb128 0xb
 1810 0318 0000 0000 	.long.LASF59
 1811 031c 08        	.byte0x8
 1812 031d 3F        	.byte0x3f
 1813 031e 0000 00FC 	.long0xfc
 1814 0322 18        	.byte0x18
 1815 0323 0B        	.uleb128 0xb
 1816 0324 0000 0000 	.long.LASF60
 1817 0328 08        	.byte0x8
 1818 0329 40        	.byte0x40
 1819 032a 0000 00FC 	.long0xfc
 1820 032e 1C        	.byte0x1c
 1821 032f 0B        	.uleb128 0xb
 1822 0330 0000 0000 	.long.LASF61
 1823 0334 08        	.byte0x8
 1824 0335 41        	.byte0x41
 1825 0336 0000 00FC 	.long0xfc
 1826 033a 20        	.byte0x20
 1827 033b 00        	.byte0
 1828 033c 12        	.uleb128 0x12
68K GAS   			page 53


 1829 033d 0000 0000 	.long.LASF62
 1830 0341 0108      	.word0x108
 1831 0343 08        	.byte0x8
 1832 0344 4A        	.byte0x4a
 1833 0345 0000 037C 	.long0x37c
 1834 0349 0B        	.uleb128 0xb
 1835 034a 0000 0000 	.long.LASF63
 1836 034e 08        	.byte0x8
 1837 034f 4B        	.byte0x4b
 1838 0350 0000 037C 	.long0x37c
 1839 0354 00        	.byte0
 1840 0355 0B        	.uleb128 0xb
 1841 0356 0000 0000 	.long.LASF64
 1842 035a 08        	.byte0x8
 1843 035b 4C        	.byte0x4c
 1844 035c 0000 037C 	.long0x37c
 1845 0360 80        	.byte0x80
 1846 0361 13        	.uleb128 0x13
 1847 0362 0000 0000 	.long.LASF65
 1848 0366 08        	.byte0x8
 1849 0367 4E        	.byte0x4e
 1850 0368 0000 024F 	.long0x24f
 1851 036c 0100      	.word0x100
 1852 036e 13        	.uleb128 0x13
 1853 036f 0000 0000 	.long.LASF66
 1854 0373 08        	.byte0x8
 1855 0374 51        	.byte0x51
 1856 0375 0000 024F 	.long0x24f
 1857 0379 0104      	.word0x104
 1858 037b 00        	.byte0
 1859 037c 06        	.uleb128 0x6
 1860 037d 0000 00D2 	.long0xd2
 1861 0381 0000 038C 	.long0x38c
 1862 0385 07        	.uleb128 0x7
 1863 0386 0000 0091 	.long0x91
 1864 038a 1F        	.byte0x1f
 1865 038b 00        	.byte0
 1866 038c 12        	.uleb128 0x12
 1867 038d 0000 0000 	.long.LASF67
 1868 0391 0190      	.word0x190
 1869 0393 08        	.byte0x8
 1870 0394 5D        	.byte0x5d
 1871 0395 0000 03CA 	.long0x3ca
 1872 0399 0B        	.uleb128 0xb
 1873 039a 0000 0000 	.long.LASF48
 1874 039e 08        	.byte0x8
 1875 039f 5E        	.byte0x5e
 1876 03a0 0000 03CA 	.long0x3ca
 1877 03a4 00        	.byte0
 1878 03a5 0B        	.uleb128 0xb
 1879 03a6 0000 0000 	.long.LASF68
 1880 03aa 08        	.byte0x8
 1881 03ab 5F        	.byte0x5f
 1882 03ac 0000 00FC 	.long0xfc
 1883 03b0 04        	.byte0x4
 1884 03b1 0B        	.uleb128 0xb
 1885 03b2 0000 0000 	.long.LASF69
68K GAS   			page 54


 1886 03b6 08        	.byte0x8
 1887 03b7 61        	.byte0x61
 1888 03b8 0000 03D0 	.long0x3d0
 1889 03bc 08        	.byte0x8
 1890 03bd 0B        	.uleb128 0xb
 1891 03be 0000 0000 	.long.LASF62
 1892 03c2 08        	.byte0x8
 1893 03c3 62        	.byte0x62
 1894 03c4 0000 033C 	.long0x33c
 1895 03c8 88        	.byte0x88
 1896 03c9 00        	.byte0
 1897 03ca 0D        	.uleb128 0xd
 1898 03cb 04        	.byte0x4
 1899 03cc 0000 038C 	.long0x38c
 1900 03d0 06        	.uleb128 0x6
 1901 03d1 0000 03E0 	.long0x3e0
 1902 03d5 0000 03E0 	.long0x3e0
 1903 03d9 07        	.uleb128 0x7
 1904 03da 0000 0091 	.long0x91
 1905 03de 1F        	.byte0x1f
 1906 03df 00        	.byte0
 1907 03e0 0D        	.uleb128 0xd
 1908 03e1 04        	.byte0x4
 1909 03e2 0000 03E6 	.long0x3e6
 1910 03e6 14        	.uleb128 0x14
 1911 03e7 0A        	.uleb128 0xa
 1912 03e8 0000 0000 	.long.LASF70
 1913 03ec 08        	.byte0x8
 1914 03ed 08        	.byte0x8
 1915 03ee 75        	.byte0x75
 1916 03ef 0000 040C 	.long0x40c
 1917 03f3 0B        	.uleb128 0xb
 1918 03f4 0000 0000 	.long.LASF71
 1919 03f8 08        	.byte0x8
 1920 03f9 76        	.byte0x76
 1921 03fa 0000 040C 	.long0x40c
 1922 03fe 00        	.byte0
 1923 03ff 0B        	.uleb128 0xb
 1924 0400 0000 0000 	.long.LASF72
 1925 0404 08        	.byte0x8
 1926 0405 77        	.byte0x77
 1927 0406 0000 00FC 	.long0xfc
 1928 040a 04        	.byte0x4
 1929 040b 00        	.byte0
 1930 040c 0D        	.uleb128 0xd
 1931 040d 04        	.byte0x4
 1932 040e 0000 0030 	.long0x30
 1933 0412 0A        	.uleb128 0xa
 1934 0413 0000 0000 	.long.LASF73
 1935 0417 80        	.byte0x80
 1936 0418 08        	.byte0x8
 1937 0419 B5        	.byte0xb5
 1938 041a 0000 053C 	.long0x53c
 1939 041e 11        	.uleb128 0x11
 1940 041f 5F70 00   	.string"_p"
 1941 0422 08        	.byte0x8
 1942 0423 B6        	.byte0xb6
68K GAS   			page 55


 1943 0424 0000 040C 	.long0x40c
 1944 0428 00        	.byte0
 1945 0429 11        	.uleb128 0x11
 1946 042a 5F72 00   	.string"_r"
 1947 042d 08        	.byte0x8
 1948 042e B7        	.byte0xb7
 1949 042f 0000 00FC 	.long0xfc
 1950 0433 04        	.byte0x4
 1951 0434 11        	.uleb128 0x11
 1952 0435 5F77 00   	.string"_w"
 1953 0438 08        	.byte0x8
 1954 0439 B8        	.byte0xb8
 1955 043a 0000 00FC 	.long0xfc
 1956 043e 08        	.byte0x8
 1957 043f 0B        	.uleb128 0xb
 1958 0440 0000 0000 	.long.LASF74
 1959 0444 08        	.byte0x8
 1960 0445 B9        	.byte0xb9
 1961 0446 0000 0049 	.long0x49
 1962 044a 0C        	.byte0xc
 1963 044b 0B        	.uleb128 0xb
 1964 044c 0000 0000 	.long.LASF75
 1965 0450 08        	.byte0x8
 1966 0451 BA        	.byte0xba
 1967 0452 0000 0049 	.long0x49
 1968 0456 0E        	.byte0xe
 1969 0457 11        	.uleb128 0x11
 1970 0458 5F62 6600 	.string"_bf"
 1971 045c 08        	.byte0x8
 1972 045d BB        	.byte0xbb
 1973 045e 0000 03E7 	.long0x3e7
 1974 0462 10        	.byte0x10
 1975 0463 0B        	.uleb128 0xb
 1976 0464 0000 0000 	.long.LASF76
 1977 0468 08        	.byte0x8
 1978 0469 BC        	.byte0xbc
 1979 046a 0000 00FC 	.long0xfc
 1980 046e 18        	.byte0x18
 1981 046f 0B        	.uleb128 0xb
 1982 0470 0000 0000 	.long.LASF77
 1983 0474 08        	.byte0x8
 1984 0475 C3        	.byte0xc3
 1985 0476 0000 00D2 	.long0xd2
 1986 047a 1C        	.byte0x1c
 1987 047b 0B        	.uleb128 0xb
 1988 047c 0000 0000 	.long.LASF78
 1989 0480 08        	.byte0x8
 1990 0481 C5        	.byte0xc5
 1991 0482 0000 0673 	.long0x673
 1992 0486 20        	.byte0x20
 1993 0487 0B        	.uleb128 0xb
 1994 0488 0000 0000 	.long.LASF79
 1995 048c 08        	.byte0x8
 1996 048d C7        	.byte0xc7
 1997 048e 0000 0697 	.long0x697
 1998 0492 24        	.byte0x24
 1999 0493 0B        	.uleb128 0xb
68K GAS   			page 56


 2000 0494 0000 0000 	.long.LASF80
 2001 0498 08        	.byte0x8
 2002 0499 CA        	.byte0xca
 2003 049a 0000 06BB 	.long0x6bb
 2004 049e 28        	.byte0x28
 2005 049f 0B        	.uleb128 0xb
 2006 04a0 0000 0000 	.long.LASF81
 2007 04a4 08        	.byte0x8
 2008 04a5 CB        	.byte0xcb
 2009 04a6 0000 06D5 	.long0x6d5
 2010 04aa 2C        	.byte0x2c
 2011 04ab 11        	.uleb128 0x11
 2012 04ac 5F75 6200 	.string"_ub"
 2013 04b0 08        	.byte0x8
 2014 04b1 CE        	.byte0xce
 2015 04b2 0000 03E7 	.long0x3e7
 2016 04b6 30        	.byte0x30
 2017 04b7 11        	.uleb128 0x11
 2018 04b8 5F75 7000 	.string"_up"
 2019 04bc 08        	.byte0x8
 2020 04bd CF        	.byte0xcf
 2021 04be 0000 040C 	.long0x40c
 2022 04c2 38        	.byte0x38
 2023 04c3 11        	.uleb128 0x11
 2024 04c4 5F75 7200 	.string"_ur"
 2025 04c8 08        	.byte0x8
 2026 04c9 D0        	.byte0xd0
 2027 04ca 0000 00FC 	.long0xfc
 2028 04ce 3C        	.byte0x3c
 2029 04cf 0B        	.uleb128 0xb
 2030 04d0 0000 0000 	.long.LASF82
 2031 04d4 08        	.byte0x8
 2032 04d5 D3        	.byte0xd3
 2033 04d6 0000 06DB 	.long0x6db
 2034 04da 40        	.byte0x40
 2035 04db 0B        	.uleb128 0xb
 2036 04dc 0000 0000 	.long.LASF83
 2037 04e0 08        	.byte0x8
 2038 04e1 D4        	.byte0xd4
 2039 04e2 0000 06EB 	.long0x6eb
 2040 04e6 43        	.byte0x43
 2041 04e7 11        	.uleb128 0x11
 2042 04e8 5F6C 6200 	.string"_lb"
 2043 04ec 08        	.byte0x8
 2044 04ed D7        	.byte0xd7
 2045 04ee 0000 03E7 	.long0x3e7
 2046 04f2 44        	.byte0x44
 2047 04f3 0B        	.uleb128 0xb
 2048 04f4 0000 0000 	.long.LASF84
 2049 04f8 08        	.byte0x8
 2050 04f9 DA        	.byte0xda
 2051 04fa 0000 00FC 	.long0xfc
 2052 04fe 4C        	.byte0x4c
 2053 04ff 0B        	.uleb128 0xb
 2054 0500 0000 0000 	.long.LASF85
 2055 0504 08        	.byte0x8
 2056 0505 DB        	.byte0xdb
68K GAS   			page 57


 2057 0506 0000 00E6 	.long0xe6
 2058 050a 50        	.byte0x50
 2059 050b 0B        	.uleb128 0xb
 2060 050c 0000 0000 	.long.LASF86
 2061 0510 08        	.byte0x8
 2062 0511 DE        	.byte0xde
 2063 0512 0000 055A 	.long0x55a
 2064 0516 58        	.byte0x58
 2065 0517 0B        	.uleb128 0xb
 2066 0518 0000 0000 	.long.LASF87
 2067 051c 08        	.byte0x8
 2068 051d E2        	.byte0xe2
 2069 051e 0000 0244 	.long0x244
 2070 0522 5C        	.byte0x5c
 2071 0523 0B        	.uleb128 0xb
 2072 0524 0000 0000 	.long.LASF88
 2073 0528 08        	.byte0x8
 2074 0529 E4        	.byte0xe4
 2075 052a 0000 0239 	.long0x239
 2076 052e 74        	.byte0x74
 2077 052f 0B        	.uleb128 0xb
 2078 0530 0000 0000 	.long.LASF89
 2079 0534 08        	.byte0x8
 2080 0535 E5        	.byte0xe5
 2081 0536 0000 00FC 	.long0xfc
 2082 053a 7C        	.byte0x7c
 2083 053b 00        	.byte0
 2084 053c 15        	.uleb128 0x15
 2085 053d 0000 01D2 	.long0x1d2
 2086 0541 0000 055A 	.long0x55a
 2087 0545 16        	.uleb128 0x16
 2088 0546 0000 055A 	.long0x55a
 2089 054a 16        	.uleb128 0x16
 2090 054b 0000 00D2 	.long0xd2
 2091 054f 16        	.uleb128 0x16
 2092 0550 0000 066D 	.long0x66d
 2093 0554 16        	.uleb128 0x16
 2094 0555 0000 00FC 	.long0xfc
 2095 0559 00        	.byte0
 2096 055a 0D        	.uleb128 0xd
 2097 055b 04        	.byte0x4
 2098 055c 0000 0565 	.long0x565
 2099 0560 05        	.uleb128 0x5
 2100 0561 0000 055A 	.long0x55a
 2101 0565 17        	.uleb128 0x17
 2102 0566 0000 0000 	.long.LASF90
 2103 056a 0158      	.word0x158
 2104 056c 08        	.byte0x8
 2105 056d 0239      	.word0x239
 2106 056f 0000 066D 	.long0x66d
 2107 0573 18        	.uleb128 0x18
 2108 0574 0000 0000 	.long.LASF91
 2109 0578 08        	.byte0x8
 2110 0579 023B      	.word0x23b
 2111 057b 0000 00FC 	.long0xfc
 2112 057f 00        	.byte0
 2113 0580 18        	.uleb128 0x18
68K GAS   			page 58


 2114 0581 0000 0000 	.long.LASF92
 2115 0585 08        	.byte0x8
 2116 0586 0240      	.word0x240
 2117 0588 0000 0742 	.long0x742
 2118 058c 04        	.byte0x4
 2119 058d 18        	.uleb128 0x18
 2120 058e 0000 0000 	.long.LASF93
 2121 0592 08        	.byte0x8
 2122 0593 0240      	.word0x240
 2123 0595 0000 0742 	.long0x742
 2124 0599 08        	.byte0x8
 2125 059a 18        	.uleb128 0x18
 2126 059b 0000 0000 	.long.LASF94
 2127 059f 08        	.byte0x8
 2128 05a0 0240      	.word0x240
 2129 05a2 0000 0742 	.long0x742
 2130 05a6 0C        	.byte0xc
 2131 05a7 18        	.uleb128 0x18
 2132 05a8 0000 0000 	.long.LASF95
 2133 05ac 08        	.byte0x8
 2134 05ad 0242      	.word0x242
 2135 05af 0000 00FC 	.long0xfc
 2136 05b3 10        	.byte0x10
 2137 05b4 18        	.uleb128 0x18
 2138 05b5 0000 0000 	.long.LASF96
 2139 05b9 08        	.byte0x8
 2140 05ba 0243      	.word0x243
 2141 05bc 0000 0924 	.long0x924
 2142 05c0 14        	.byte0x14
 2143 05c1 18        	.uleb128 0x18
 2144 05c2 0000 0000 	.long.LASF97
 2145 05c6 08        	.byte0x8
 2146 05c7 0246      	.word0x246
 2147 05c9 0000 00FC 	.long0xfc
 2148 05cd 30        	.byte0x30
 2149 05ce 18        	.uleb128 0x18
 2150 05cf 0000 0000 	.long.LASF98
 2151 05d3 08        	.byte0x8
 2152 05d4 0247      	.word0x247
 2153 05d6 0000 0939 	.long0x939
 2154 05da 34        	.byte0x34
 2155 05db 18        	.uleb128 0x18
 2156 05dc 0000 0000 	.long.LASF99
 2157 05e0 08        	.byte0x8
 2158 05e1 0249      	.word0x249
 2159 05e3 0000 00FC 	.long0xfc
 2160 05e7 38        	.byte0x38
 2161 05e8 18        	.uleb128 0x18
 2162 05e9 0000 0000 	.long.LASF100
 2163 05ed 08        	.byte0x8
 2164 05ee 024B      	.word0x24b
 2165 05f0 0000 094A 	.long0x94a
 2166 05f4 3C        	.byte0x3c
 2167 05f5 18        	.uleb128 0x18
 2168 05f6 0000 0000 	.long.LASF101
 2169 05fa 08        	.byte0x8
 2170 05fb 024E      	.word0x24e
68K GAS   			page 59


 2171 05fd 0000 02AD 	.long0x2ad
 2172 0601 40        	.byte0x40
 2173 0602 18        	.uleb128 0x18
 2174 0603 0000 0000 	.long.LASF102
 2175 0607 08        	.byte0x8
 2176 0608 024F      	.word0x24f
 2177 060a 0000 00FC 	.long0xfc
 2178 060e 44        	.byte0x44
 2179 060f 18        	.uleb128 0x18
 2180 0610 0000 0000 	.long.LASF103
 2181 0614 08        	.byte0x8
 2182 0615 0250      	.word0x250
 2183 0617 0000 02AD 	.long0x2ad
 2184 061b 48        	.byte0x48
 2185 061c 18        	.uleb128 0x18
 2186 061d 0000 0000 	.long.LASF104
 2187 0621 08        	.byte0x8
 2188 0622 0251      	.word0x251
 2189 0624 0000 0950 	.long0x950
 2190 0628 4C        	.byte0x4c
 2191 0629 18        	.uleb128 0x18
 2192 062a 0000 0000 	.long.LASF105
 2193 062e 08        	.byte0x8
 2194 062f 0254      	.word0x254
 2195 0631 0000 00FC 	.long0xfc
 2196 0635 50        	.byte0x50
 2197 0636 18        	.uleb128 0x18
 2198 0637 0000 0000 	.long.LASF106
 2199 063b 08        	.byte0x8
 2200 063c 0255      	.word0x255
 2201 063e 0000 066D 	.long0x66d
 2202 0642 54        	.byte0x54
 2203 0643 18        	.uleb128 0x18
 2204 0644 0000 0000 	.long.LASF107
 2205 0648 08        	.byte0x8
 2206 0649 0278      	.word0x278
 2207 064b 0000 0902 	.long0x902
 2208 064f 58        	.byte0x58
 2209 0650 19        	.uleb128 0x19
 2210 0651 0000 0000 	.long.LASF108
 2211 0655 08        	.byte0x8
 2212 0656 0281      	.word0x281
 2213 0658 0000 0961 	.long0x961
 2214 065c 0148      	.word0x148
 2215 065e 19        	.uleb128 0x19
 2216 065f 0000 0000 	.long.LASF109
 2217 0663 08        	.byte0x8
 2218 0664 0286      	.word0x286
 2219 0666 0000 0707 	.long0x707
 2220 066a 014C      	.word0x14c
 2221 066c 00        	.byte0
 2222 066d 0D        	.uleb128 0xd
 2223 066e 04        	.byte0x4
 2224 066f 0000 00B6 	.long0xb6
 2225 0673 0D        	.uleb128 0xd
 2226 0674 04        	.byte0x4
 2227 0675 0000 053C 	.long0x53c
68K GAS   			page 60


 2228 0679 15        	.uleb128 0x15
 2229 067a 0000 01D2 	.long0x1d2
 2230 067e 0000 0697 	.long0x697
 2231 0682 16        	.uleb128 0x16
 2232 0683 0000 055A 	.long0x55a
 2233 0687 16        	.uleb128 0x16
 2234 0688 0000 00D2 	.long0xd2
 2235 068c 16        	.uleb128 0x16
 2236 068d 0000 0182 	.long0x182
 2237 0691 16        	.uleb128 0x16
 2238 0692 0000 00FC 	.long0xfc
 2239 0696 00        	.byte0
 2240 0697 0D        	.uleb128 0xd
 2241 0698 04        	.byte0x4
 2242 0699 0000 0679 	.long0x679
 2243 069d 15        	.uleb128 0x15
 2244 069e 0000 00F1 	.long0xf1
 2245 06a2 0000 06BB 	.long0x6bb
 2246 06a6 16        	.uleb128 0x16
 2247 06a7 0000 055A 	.long0x55a
 2248 06ab 16        	.uleb128 0x16
 2249 06ac 0000 00D2 	.long0xd2
 2250 06b0 16        	.uleb128 0x16
 2251 06b1 0000 00F1 	.long0xf1
 2252 06b5 16        	.uleb128 0x16
 2253 06b6 0000 00FC 	.long0xfc
 2254 06ba 00        	.byte0
 2255 06bb 0D        	.uleb128 0xd
 2256 06bc 04        	.byte0x4
 2257 06bd 0000 069D 	.long0x69d
 2258 06c1 15        	.uleb128 0x15
 2259 06c2 0000 00FC 	.long0xfc
 2260 06c6 0000 06D5 	.long0x6d5
 2261 06ca 16        	.uleb128 0x16
 2262 06cb 0000 055A 	.long0x55a
 2263 06cf 16        	.uleb128 0x16
 2264 06d0 0000 00D2 	.long0xd2
 2265 06d4 00        	.byte0
 2266 06d5 0D        	.uleb128 0xd
 2267 06d6 04        	.byte0x4
 2268 06d7 0000 06C1 	.long0x6c1
 2269 06db 06        	.uleb128 0x6
 2270 06dc 0000 0030 	.long0x30
 2271 06e0 0000 06EB 	.long0x6eb
 2272 06e4 07        	.uleb128 0x7
 2273 06e5 0000 0091 	.long0x91
 2274 06e9 02        	.byte0x2
 2275 06ea 00        	.byte0
 2276 06eb 06        	.uleb128 0x6
 2277 06ec 0000 0030 	.long0x30
 2278 06f0 0000 06FB 	.long0x6fb
 2279 06f4 07        	.uleb128 0x7
 2280 06f5 0000 0091 	.long0x91
 2281 06f9 00        	.byte0
 2282 06fa 00        	.byte0
 2283 06fb 04        	.uleb128 0x4
 2284 06fc 0000 0000 	.long.LASF110
68K GAS   			page 61


 2285 0700 08        	.byte0x8
 2286 0701 011F      	.word0x11f
 2287 0703 0000 0412 	.long0x412
 2288 0707 1A        	.uleb128 0x1a
 2289 0708 0000 0000 	.long.LASF111
 2290 070c 0C        	.byte0xc
 2291 070d 08        	.byte0x8
 2292 070e 0123      	.word0x123
 2293 0710 0000 073C 	.long0x73c
 2294 0714 18        	.uleb128 0x18
 2295 0715 0000 0000 	.long.LASF48
 2296 0719 08        	.byte0x8
 2297 071a 0125      	.word0x125
 2298 071c 0000 073C 	.long0x73c
 2299 0720 00        	.byte0
 2300 0721 18        	.uleb128 0x18
 2301 0722 0000 0000 	.long.LASF112
 2302 0726 08        	.byte0x8
 2303 0727 0126      	.word0x126
 2304 0729 0000 00FC 	.long0xfc
 2305 072d 04        	.byte0x4
 2306 072e 18        	.uleb128 0x18
 2307 072f 0000 0000 	.long.LASF113
 2308 0733 08        	.byte0x8
 2309 0734 0127      	.word0x127
 2310 0736 0000 0742 	.long0x742
 2311 073a 08        	.byte0x8
 2312 073b 00        	.byte0
 2313 073c 0D        	.uleb128 0xd
 2314 073d 04        	.byte0x4
 2315 073e 0000 0707 	.long0x707
 2316 0742 0D        	.uleb128 0xd
 2317 0743 04        	.byte0x4
 2318 0744 0000 06FB 	.long0x6fb
 2319 0748 1A        	.uleb128 0x1a
 2320 0749 0000 0000 	.long.LASF114
 2321 074d 0E        	.byte0xe
 2322 074e 08        	.byte0x8
 2323 074f 013F      	.word0x13f
 2324 0751 0000 077D 	.long0x77d
 2325 0755 18        	.uleb128 0x18
 2326 0756 0000 0000 	.long.LASF115
 2327 075a 08        	.byte0x8
 2328 075b 0140      	.word0x140
 2329 075d 0000 077D 	.long0x77d
 2330 0761 00        	.byte0
 2331 0762 18        	.uleb128 0x18
 2332 0763 0000 0000 	.long.LASF116
 2333 0767 08        	.byte0x8
 2334 0768 0141      	.word0x141
 2335 076a 0000 077D 	.long0x77d
 2336 076e 06        	.byte0x6
 2337 076f 18        	.uleb128 0x18
 2338 0770 0000 0000 	.long.LASF117
 2339 0774 08        	.byte0x8
 2340 0775 0142      	.word0x142
 2341 0777 0000 007F 	.long0x7f
68K GAS   			page 62


 2342 077b 0C        	.byte0xc
 2343 077c 00        	.byte0
 2344 077d 06        	.uleb128 0x6
 2345 077e 0000 007F 	.long0x7f
 2346 0782 0000 078D 	.long0x78d
 2347 0786 07        	.uleb128 0x7
 2348 0787 0000 0091 	.long0x91
 2349 078b 02        	.byte0x2
 2350 078c 00        	.byte0
 2351 078d 1B        	.uleb128 0x1b
 2352 078e CC        	.byte0xcc
 2353 078f 08        	.byte0x8
 2354 0790 0259      	.word0x259
 2355 0792 0000 088E 	.long0x88e
 2356 0796 18        	.uleb128 0x18
 2357 0797 0000 0000 	.long.LASF118
 2358 079b 08        	.byte0x8
 2359 079c 025B      	.word0x25b
 2360 079e 0000 0128 	.long0x128
 2361 07a2 00        	.byte0
 2362 07a3 18        	.uleb128 0x18
 2363 07a4 0000 0000 	.long.LASF119
 2364 07a8 08        	.byte0x8
 2365 07a9 025C      	.word0x25c
 2366 07ab 0000 066D 	.long0x66d
 2367 07af 04        	.byte0x4
 2368 07b0 18        	.uleb128 0x18
 2369 07b1 0000 0000 	.long.LASF120
 2370 07b5 08        	.byte0x8
 2371 07b6 025D      	.word0x25d
 2372 07b8 0000 088E 	.long0x88e
 2373 07bc 08        	.byte0x8
 2374 07bd 18        	.uleb128 0x18
 2375 07be 0000 0000 	.long.LASF121
 2376 07c2 08        	.byte0x8
 2377 07c3 025E      	.word0x25e
 2378 07c5 0000 02C3 	.long0x2c3
 2379 07c9 24        	.byte0x24
 2380 07ca 18        	.uleb128 0x18
 2381 07cb 0000 0000 	.long.LASF122
 2382 07cf 08        	.byte0x8
 2383 07d0 025F      	.word0x25f
 2384 07d2 0000 00FC 	.long0xfc
 2385 07d6 48        	.byte0x48
 2386 07d7 18        	.uleb128 0x18
 2387 07d8 0000 0000 	.long.LASF123
 2388 07dc 08        	.byte0x8
 2389 07dd 0260      	.word0x260
 2390 07df 0000 0098 	.long0x98
 2391 07e3 4C        	.byte0x4c
 2392 07e4 18        	.uleb128 0x18
 2393 07e5 0000 0000 	.long.LASF124
 2394 07e9 08        	.byte0x8
 2395 07ea 0261      	.word0x261
 2396 07ec 0000 0748 	.long0x748
 2397 07f0 54        	.byte0x54
 2398 07f1 18        	.uleb128 0x18
68K GAS   			page 63


 2399 07f2 0000 0000 	.long.LASF125
 2400 07f6 08        	.byte0x8
 2401 07f7 0262      	.word0x262
 2402 07f9 0000 0239 	.long0x239
 2403 07fd 64        	.byte0x64
 2404 07fe 18        	.uleb128 0x18
 2405 07ff 0000 0000 	.long.LASF126
 2406 0803 08        	.byte0x8
 2407 0804 0263      	.word0x263
 2408 0806 0000 0239 	.long0x239
 2409 080a 6C        	.byte0x6c
 2410 080b 18        	.uleb128 0x18
 2411 080c 0000 0000 	.long.LASF127
 2412 0810 08        	.byte0x8
 2413 0811 0264      	.word0x264
 2414 0813 0000 0239 	.long0x239
 2415 0817 74        	.byte0x74
 2416 0818 18        	.uleb128 0x18
 2417 0819 0000 0000 	.long.LASF128
 2418 081d 08        	.byte0x8
 2419 081e 0265      	.word0x265
 2420 0820 0000 089E 	.long0x89e
 2421 0824 7C        	.byte0x7c
 2422 0825 18        	.uleb128 0x18
 2423 0826 0000 0000 	.long.LASF129
 2424 082a 08        	.byte0x8
 2425 082b 0266      	.word0x266
 2426 082d 0000 08AE 	.long0x8ae
 2427 0831 84        	.byte0x84
 2428 0832 18        	.uleb128 0x18
 2429 0833 0000 0000 	.long.LASF130
 2430 0837 08        	.byte0x8
 2431 0838 0267      	.word0x267
 2432 083a 0000 00FC 	.long0xfc
 2433 083e 9C        	.byte0x9c
 2434 083f 18        	.uleb128 0x18
 2435 0840 0000 0000 	.long.LASF131
 2436 0844 08        	.byte0x8
 2437 0845 0268      	.word0x268
 2438 0847 0000 0239 	.long0x239
 2439 084b A0        	.byte0xa0
 2440 084c 18        	.uleb128 0x18
 2441 084d 0000 0000 	.long.LASF132
 2442 0851 08        	.byte0x8
 2443 0852 0269      	.word0x269
 2444 0854 0000 0239 	.long0x239
 2445 0858 A8        	.byte0xa8
 2446 0859 18        	.uleb128 0x18
 2447 085a 0000 0000 	.long.LASF133
 2448 085e 08        	.byte0x8
 2449 085f 026A      	.word0x26a
 2450 0861 0000 0239 	.long0x239
 2451 0865 B0        	.byte0xb0
 2452 0866 18        	.uleb128 0x18
 2453 0867 0000 0000 	.long.LASF134
 2454 086b 08        	.byte0x8
 2455 086c 026B      	.word0x26b
68K GAS   			page 64


 2456 086e 0000 0239 	.long0x239
 2457 0872 B8        	.byte0xb8
 2458 0873 18        	.uleb128 0x18
 2459 0874 0000 0000 	.long.LASF135
 2460 0878 08        	.byte0x8
 2461 0879 026C      	.word0x26c
 2462 087b 0000 0239 	.long0x239
 2463 087f C0        	.byte0xc0
 2464 0880 18        	.uleb128 0x18
 2465 0881 0000 0000 	.long.LASF136
 2466 0885 08        	.byte0x8
 2467 0886 026D      	.word0x26d
 2468 0888 0000 00FC 	.long0xfc
 2469 088c C8        	.byte0xc8
 2470 088d 00        	.byte0
 2471 088e 06        	.uleb128 0x6
 2472 088f 0000 00B6 	.long0xb6
 2473 0893 0000 089E 	.long0x89e
 2474 0897 07        	.uleb128 0x7
 2475 0898 0000 0091 	.long0x91
 2476 089c 19        	.byte0x19
 2477 089d 00        	.byte0
 2478 089e 06        	.uleb128 0x6
 2479 089f 0000 00B6 	.long0xb6
 2480 08a3 0000 08AE 	.long0x8ae
 2481 08a7 07        	.uleb128 0x7
 2482 08a8 0000 0091 	.long0x91
 2483 08ac 07        	.byte0x7
 2484 08ad 00        	.byte0
 2485 08ae 06        	.uleb128 0x6
 2486 08af 0000 00B6 	.long0xb6
 2487 08b3 0000 08BE 	.long0x8be
 2488 08b7 07        	.uleb128 0x7
 2489 08b8 0000 0091 	.long0x91
 2490 08bc 17        	.byte0x17
 2491 08bd 00        	.byte0
 2492 08be 1B        	.uleb128 0x1b
 2493 08bf F0        	.byte0xf0
 2494 08c0 08        	.byte0x8
 2495 08c1 0272      	.word0x272
 2496 08c3 0000 08E2 	.long0x8e2
 2497 08c7 18        	.uleb128 0x18
 2498 08c8 0000 0000 	.long.LASF137
 2499 08cc 08        	.byte0x8
 2500 08cd 0275      	.word0x275
 2501 08cf 0000 08E2 	.long0x8e2
 2502 08d3 00        	.byte0
 2503 08d4 18        	.uleb128 0x18
 2504 08d5 0000 0000 	.long.LASF138
 2505 08d9 08        	.byte0x8
 2506 08da 0276      	.word0x276
 2507 08dc 0000 08F2 	.long0x8f2
 2508 08e0 78        	.byte0x78
 2509 08e1 00        	.byte0
 2510 08e2 06        	.uleb128 0x6
 2511 08e3 0000 040C 	.long0x40c
 2512 08e7 0000 08F2 	.long0x8f2
68K GAS   			page 65


 2513 08eb 07        	.uleb128 0x7
 2514 08ec 0000 0091 	.long0x91
 2515 08f0 1D        	.byte0x1d
 2516 08f1 00        	.byte0
 2517 08f2 06        	.uleb128 0x6
 2518 08f3 0000 0128 	.long0x128
 2519 08f7 0000 0902 	.long0x902
 2520 08fb 07        	.uleb128 0x7
 2521 08fc 0000 0091 	.long0x91
 2522 0900 1D        	.byte0x1d
 2523 0901 00        	.byte0
 2524 0902 1C        	.uleb128 0x1c
 2525 0903 F0        	.byte0xf0
 2526 0904 08        	.byte0x8
 2527 0905 0257      	.word0x257
 2528 0907 0000 0924 	.long0x924
 2529 090b 1D        	.uleb128 0x1d
 2530 090c 0000 0000 	.long.LASF90
 2531 0910 08        	.byte0x8
 2532 0911 026E      	.word0x26e
 2533 0913 0000 078D 	.long0x78d
 2534 0917 1D        	.uleb128 0x1d
 2535 0918 0000 0000 	.long.LASF139
 2536 091c 08        	.byte0x8
 2537 091d 0277      	.word0x277
 2538 091f 0000 08BE 	.long0x8be
 2539 0923 00        	.byte0
 2540 0924 06        	.uleb128 0x6
 2541 0925 0000 00B6 	.long0xb6
 2542 0929 0000 0934 	.long0x934
 2543 092d 07        	.uleb128 0x7
 2544 092e 0000 0091 	.long0x91
 2545 0932 18        	.byte0x18
 2546 0933 00        	.byte0
 2547 0934 0C        	.uleb128 0xc
 2548 0935 0000 0000 	.long.LASF140
 2549 0939 0D        	.uleb128 0xd
 2550 093a 04        	.byte0x4
 2551 093b 0000 0934 	.long0x934
 2552 093f 1E        	.uleb128 0x1e
 2553 0940 0000 094A 	.long0x94a
 2554 0944 16        	.uleb128 0x16
 2555 0945 0000 055A 	.long0x55a
 2556 0949 00        	.byte0
 2557 094a 0D        	.uleb128 0xd
 2558 094b 04        	.byte0x4
 2559 094c 0000 093F 	.long0x93f
 2560 0950 0D        	.uleb128 0xd
 2561 0951 04        	.byte0x4
 2562 0952 0000 02AD 	.long0x2ad
 2563 0956 1E        	.uleb128 0x1e
 2564 0957 0000 0961 	.long0x961
 2565 095b 16        	.uleb128 0x16
 2566 095c 0000 00FC 	.long0xfc
 2567 0960 00        	.byte0
 2568 0961 0D        	.uleb128 0xd
 2569 0962 04        	.byte0x4
68K GAS   			page 66


 2570 0963 0000 0967 	.long0x967
 2571 0967 0D        	.uleb128 0xd
 2572 0968 04        	.byte0x4
 2573 0969 0000 0956 	.long0x956
 2574 096d 06        	.uleb128 0x6
 2575 096e 0000 06FB 	.long0x6fb
 2576 0972 0000 097D 	.long0x97d
 2577 0976 07        	.uleb128 0x7
 2578 0977 0000 0091 	.long0x91
 2579 097b 02        	.byte0x2
 2580 097c 00        	.byte0
 2581 097d 1F        	.uleb128 0x1f
 2582 097e 0000 0000 	.long.LASF141
 2583 0982 08        	.byte0x8
 2584 0983 028D      	.word0x28d
 2585 0985 0000 096D 	.long0x96d
 2586 0989 1F        	.uleb128 0x1f
 2587 098a 0000 0000 	.long.LASF142
 2588 098e 08        	.byte0x8
 2589 098f 0307      	.word0x307
 2590 0991 0000 055A 	.long0x55a
 2591 0995 1F        	.uleb128 0x1f
 2592 0996 0000 0000 	.long.LASF143
 2593 099a 08        	.byte0x8
 2594 099b 0308      	.word0x308
 2595 099d 0000 0560 	.long0x560
 2596 09a1 1F        	.uleb128 0x1f
 2597 09a2 0000 0000 	.long.LASF144
 2598 09a6 08        	.byte0x8
 2599 09a7 031A      	.word0x31a
 2600 09a9 0000 03CA 	.long0x3ca
 2601 09ad 20        	.uleb128 0x20
 2602 09ae 0000 0000 	.long.LASF145
 2603 09b2 09        	.byte0x9
 2604 09b3 63        	.byte0x63
 2605 09b4 0000 066D 	.long0x66d
 2606 09b8 20        	.uleb128 0x20
 2607 09b9 0000 0000 	.long.LASF146
 2608 09bd 0A        	.byte0xa
 2609 09be 9A        	.byte0x9a
 2610 09bf 0000 005B 	.long0x5b
 2611 09c3 20        	.uleb128 0x20
 2612 09c4 0000 0000 	.long.LASF147
 2613 09c8 0A        	.byte0xa
 2614 09c9 9B        	.byte0x9b
 2615 09ca 0000 00FC 	.long0xfc
 2616 09ce 06        	.uleb128 0x6
 2617 09cf 0000 066D 	.long0x66d
 2618 09d3 0000 09DE 	.long0x9de
 2619 09d7 07        	.uleb128 0x7
 2620 09d8 0000 0091 	.long0x91
 2621 09dc 01        	.byte0x1
 2622 09dd 00        	.byte0
 2623 09de 20        	.uleb128 0x20
 2624 09df 0000 0000 	.long.LASF148
 2625 09e3 0A        	.byte0xa
 2626 09e4 9E        	.byte0x9e
68K GAS   			page 67


 2627 09e5 0000 09CE 	.long0x9ce
 2628 09e9 06        	.uleb128 0x6
 2629 09ea 0000 00B6 	.long0xb6
 2630 09ee 0000 09F9 	.long0x9f9
 2631 09f2 07        	.uleb128 0x7
 2632 09f3 0000 0091 	.long0x91
 2633 09f7 3F        	.byte0x3f
 2634 09f8 00        	.byte0
 2635 09f9 04        	.uleb128 0x4
 2636 09fa 0000 0000 	.long.LASF149
 2637 09fe 0B        	.byte0xb
 2638 09ff 0166      	.word0x166
 2639 0a01 0000 009F 	.long0x9f
 2640 0a05 06        	.uleb128 0x6
 2641 0a06 0000 00B6 	.long0xb6
 2642 0a0a 0000 0A15 	.long0xa15
 2643 0a0e 07        	.uleb128 0x7
 2644 0a0f 0000 0091 	.long0x91
 2645 0a13 25        	.byte0x25
 2646 0a14 00        	.byte0
 2647 0a15 10        	.uleb128 0x10
 2648 0a16 08        	.byte0x8
 2649 0a17 0C        	.byte0xc
 2650 0a18 4D        	.byte0x4d
 2651 0a19 0000 0A36 	.long0xa36
 2652 0a1d 0B        	.uleb128 0xb
 2653 0a1e 0000 0000 	.long.LASF150
 2654 0a22 0C        	.byte0xc
 2655 0a23 4F        	.byte0x4f
 2656 0a24 0000 0086 	.long0x86
 2657 0a28 00        	.byte0
 2658 0a29 0B        	.uleb128 0xb
 2659 0a2a 0000 0000 	.long.LASF151
 2660 0a2e 0C        	.byte0xc
 2661 0a2f 50        	.byte0x50
 2662 0a30 0000 0086 	.long0x86
 2663 0a34 04        	.byte0x4
 2664 0a35 00        	.byte0
 2665 0a36 02        	.uleb128 0x2
 2666 0a37 0000 0000 	.long.LASF152
 2667 0a3b 0C        	.byte0xc
 2668 0a3c 51        	.byte0x51
 2669 0a3d 0000 0A15 	.long0xa15
 2670 0a41 10        	.uleb128 0x10
 2671 0a42 20        	.byte0x20
 2672 0a43 0C        	.byte0xc
 2673 0a44 92        	.byte0x92
 2674 0a45 0000 0A92 	.long0xa92
 2675 0a49 0B        	.uleb128 0xb
 2676 0a4a 0000 0000 	.long.LASF153
 2677 0a4e 0C        	.byte0xc
 2678 0a4f 94        	.byte0x94
 2679 0a50 0000 0086 	.long0x86
 2680 0a54 00        	.byte0
 2681 0a55 0B        	.uleb128 0xb
 2682 0a56 0000 0000 	.long.LASF154
 2683 0a5a 0C        	.byte0xc
68K GAS   			page 68


 2684 0a5b 95        	.byte0x95
 2685 0a5c 0000 003E 	.long0x3e
 2686 0a60 04        	.byte0x4
 2687 0a61 0B        	.uleb128 0xb
 2688 0a62 0000 0000 	.long.LASF155
 2689 0a66 0C        	.byte0xc
 2690 0a67 96        	.byte0x96
 2691 0a68 0000 0074 	.long0x74
 2692 0a6c 06        	.byte0x6
 2693 0a6d 0B        	.uleb128 0xb
 2694 0a6e 0000 0000 	.long.LASF156
 2695 0a72 0C        	.byte0xc
 2696 0a73 97        	.byte0x97
 2697 0a74 0000 0A36 	.long0xa36
 2698 0a78 08        	.byte0x8
 2699 0a79 0B        	.uleb128 0xb
 2700 0a7a 0000 0000 	.long.LASF157
 2701 0a7e 0C        	.byte0xc
 2702 0a7f 98        	.byte0x98
 2703 0a80 0000 0A36 	.long0xa36
 2704 0a84 10        	.byte0x10
 2705 0a85 0B        	.uleb128 0xb
 2706 0a86 0000 0000 	.long.LASF158
 2707 0a8a 0C        	.byte0xc
 2708 0a8b 99        	.byte0x99
 2709 0a8c 0000 0A36 	.long0xa36
 2710 0a90 18        	.byte0x18
 2711 0a91 00        	.byte0
 2712 0a92 02        	.uleb128 0x2
 2713 0a93 0000 0000 	.long.LASF159
 2714 0a97 0C        	.byte0xc
 2715 0a98 9B        	.byte0x9b
 2716 0a99 0000 0A41 	.long0xa41
 2717 0a9d 06        	.uleb128 0x6
 2718 0a9e 0000 0086 	.long0x86
 2719 0aa2 0000 0AAD 	.long0xaad
 2720 0aa6 07        	.uleb128 0x7
 2721 0aa7 0000 0091 	.long0x91
 2722 0aab 1F        	.byte0x1f
 2723 0aac 00        	.byte0
 2724 0aad 06        	.uleb128 0x6
 2725 0aae 0000 0069 	.long0x69
 2726 0ab2 0000 0ABD 	.long0xabd
 2727 0ab6 07        	.uleb128 0x7
 2728 0ab7 0000 0091 	.long0x91
 2729 0abb 01        	.byte0x1
 2730 0abc 00        	.byte0
 2731 0abd 10        	.uleb128 0x10
 2732 0abe 02        	.byte0x2
 2733 0abf 0D        	.byte0xd
 2734 0ac0 B1        	.byte0xb1
 2735 0ac1 0000 0ADE 	.long0xade
 2736 0ac5 0B        	.uleb128 0xb
 2737 0ac6 0000 0000 	.long.LASF160
 2738 0aca 0D        	.byte0xd
 2739 0acb B2        	.byte0xb2
 2740 0acc 0000 0069 	.long0x69
68K GAS   			page 69


 2741 0ad0 00        	.byte0
 2742 0ad1 0B        	.uleb128 0xb
 2743 0ad2 0000 0000 	.long.LASF161
 2744 0ad6 0D        	.byte0xd
 2745 0ad7 B3        	.byte0xb3
 2746 0ad8 0000 0069 	.long0x69
 2747 0adc 01        	.byte0x1
 2748 0add 00        	.byte0
 2749 0ade 02        	.uleb128 0x2
 2750 0adf 0000 0000 	.long.LASF162
 2751 0ae3 0D        	.byte0xd
 2752 0ae4 B4        	.byte0xb4
 2753 0ae5 0000 0ABD 	.long0xabd
 2754 0ae9 20        	.uleb128 0x20
 2755 0aea 0000 0000 	.long.LASF163
 2756 0aee 0D        	.byte0xd
 2757 0aef B6        	.byte0xb6
 2758 0af0 0000 0ADE 	.long0xade
 2759 0af4 06        	.uleb128 0x6
 2760 0af5 0000 0069 	.long0x69
 2761 0af9 0000 0B04 	.long0xb04
 2762 0afd 07        	.uleb128 0x7
 2763 0afe 0000 0091 	.long0x91
 2764 0b02 0B        	.byte0xb
 2765 0b03 00        	.byte0
 2766 0b04 1B        	.uleb128 0x1b
 2767 0b05 20        	.byte0x20
 2768 0b06 0E        	.byte0xe
 2769 0b07 047C      	.word0x47c
 2770 0b09 0000 0B4F 	.long0xb4f
 2771 0b0d 18        	.uleb128 0x18
 2772 0b0e 0000 0000 	.long.LASF164
 2773 0b12 0E        	.byte0xe
 2774 0b13 047D      	.word0x47d
 2775 0b15 0000 00C2 	.long0xc2
 2776 0b19 00        	.byte0
 2777 0b1a 18        	.uleb128 0x18
 2778 0b1b 0000 0000 	.long.LASF165
 2779 0b1f 0E        	.byte0xe
 2780 0b20 047F      	.word0x47f
 2781 0b22 0000 0074 	.long0x74
 2782 0b26 14        	.byte0x14
 2783 0b27 18        	.uleb128 0x18
 2784 0b28 0000 0000 	.long.LASF166
 2785 0b2c 0E        	.byte0xe
 2786 0b2d 0481      	.word0x481
 2787 0b2f 0000 0074 	.long0x74
 2788 0b33 16        	.byte0x16
 2789 0b34 18        	.uleb128 0x18
 2790 0b35 0000 0000 	.long.LASF167
 2791 0b39 0E        	.byte0xe
 2792 0b3a 0483      	.word0x483
 2793 0b3c 0000 0086 	.long0x86
 2794 0b40 18        	.byte0x18
 2795 0b41 18        	.uleb128 0x18
 2796 0b42 0000 0000 	.long.LASF168
 2797 0b46 0E        	.byte0xe
68K GAS   			page 70


 2798 0b47 0485      	.word0x485
 2799 0b49 0000 0086 	.long0x86
 2800 0b4d 1C        	.byte0x1c
 2801 0b4e 00        	.byte0
 2802 0b4f 04        	.uleb128 0x4
 2803 0b50 0000 0000 	.long.LASF169
 2804 0b54 0E        	.byte0xe
 2805 0b55 0488      	.word0x488
 2806 0b57 0000 0B04 	.long0xb04
 2807 0b5b 1B        	.uleb128 0x1b
 2808 0b5c 9C        	.byte0x9c
 2809 0b5d 0E        	.byte0xe
 2810 0b5e 048E      	.word0x48e
 2811 0b60 0000 0B99 	.long0xb99
 2812 0b64 18        	.uleb128 0x18
 2813 0b65 0000 0000 	.long.LASF170
 2814 0b69 0E        	.byte0xe
 2815 0b6a 048F      	.word0x48f
 2816 0b6c 0000 0B4F 	.long0xb4f
 2817 0b70 00        	.byte0
 2818 0b71 18        	.uleb128 0x18
 2819 0b72 0000 0000 	.long.LASF171
 2820 0b76 0E        	.byte0xe
 2821 0b77 0490      	.word0x490
 2822 0b79 0000 0B99 	.long0xb99
 2823 0b7d 20        	.byte0x20
 2824 0b7e 18        	.uleb128 0x18
 2825 0b7f 0000 0000 	.long.LASF172
 2826 0b83 0E        	.byte0xe
 2827 0b84 0492      	.word0x492
 2828 0b86 0000 0069 	.long0x69
 2829 0b8a 9A        	.byte0x9a
 2830 0b8b 18        	.uleb128 0x18
 2831 0b8c 0000 0000 	.long.LASF173
 2832 0b90 0E        	.byte0xe
 2833 0b91 0494      	.word0x494
 2834 0b93 0000 0069 	.long0x69
 2835 0b97 9B        	.byte0x9b
 2836 0b98 00        	.byte0
 2837 0b99 06        	.uleb128 0x6
 2838 0b9a 0000 00B6 	.long0xb6
 2839 0b9e 0000 0BA9 	.long0xba9
 2840 0ba2 07        	.uleb128 0x7
 2841 0ba3 0000 0091 	.long0x91
 2842 0ba7 79        	.byte0x79
 2843 0ba8 00        	.byte0
 2844 0ba9 04        	.uleb128 0x4
 2845 0baa 0000 0000 	.long.LASF174
 2846 0bae 0E        	.byte0xe
 2847 0baf 0496      	.word0x496
 2848 0bb1 0000 0B5B 	.long0xb5b
 2849 0bb5 1B        	.uleb128 0x1b
 2850 0bb6 A8        	.byte0xa8
 2851 0bb7 0E        	.byte0xe
 2852 0bb8 0498      	.word0x498
 2853 0bba 0000 0BD9 	.long0xbd9
 2854 0bbe 18        	.uleb128 0x18
68K GAS   			page 71


 2855 0bbf 0000 0000 	.long.LASF175
 2856 0bc3 0E        	.byte0xe
 2857 0bc4 0499      	.word0x499
 2858 0bc6 0000 0AF4 	.long0xaf4
 2859 0bca 00        	.byte0
 2860 0bcb 18        	.uleb128 0x18
 2861 0bcc 0000 0000 	.long.LASF176
 2862 0bd0 0E        	.byte0xe
 2863 0bd1 049A      	.word0x49a
 2864 0bd3 0000 0BA9 	.long0xba9
 2865 0bd7 0C        	.byte0xc
 2866 0bd8 00        	.byte0
 2867 0bd9 04        	.uleb128 0x4
 2868 0bda 0000 0000 	.long.LASF177
 2869 0bde 0E        	.byte0xe
 2870 0bdf 049B      	.word0x49b
 2871 0be1 0000 0BB5 	.long0xbb5
 2872 0be5 10        	.uleb128 0x10
 2873 0be6 0C        	.byte0xc
 2874 0be7 0F        	.byte0xf
 2875 0be8 7E        	.byte0x7e
 2876 0be9 0000 0C12 	.long0xc12
 2877 0bed 0B        	.uleb128 0xb
 2878 0bee 0000 0000 	.long.LASF178
 2879 0bf2 0F        	.byte0xf
 2880 0bf3 80        	.byte0x80
 2881 0bf4 0000 0086 	.long0x86
 2882 0bf8 00        	.byte0
 2883 0bf9 0B        	.uleb128 0xb
 2884 0bfa 0000 0000 	.long.LASF179
 2885 0bfe 0F        	.byte0xf
 2886 0bff 81        	.byte0x81
 2887 0c00 0000 0086 	.long0x86
 2888 0c04 04        	.byte0x4
 2889 0c05 0B        	.uleb128 0xb
 2890 0c06 0000 0000 	.long.LASF180
 2891 0c0a 0F        	.byte0xf
 2892 0c0b 82        	.byte0x82
 2893 0c0c 0000 0050 	.long0x50
 2894 0c10 08        	.byte0x8
 2895 0c11 00        	.byte0
 2896 0c12 02        	.uleb128 0x2
 2897 0c13 0000 0000 	.long.LASF181
 2898 0c17 0F        	.byte0xf
 2899 0c18 84        	.byte0x84
 2900 0c19 0000 0BE5 	.long0xbe5
 2901 0c1d 10        	.uleb128 0x10
 2902 0c1e 78        	.byte0x78
 2903 0c1f 0F        	.byte0xf
 2904 0c20 8B        	.byte0x8b
 2905 0c21 0000 0C86 	.long0xc86
 2906 0c25 0B        	.uleb128 0xb
 2907 0c26 0000 0000 	.long.LASF182
 2908 0c2a 0F        	.byte0xf
 2909 0c2b 8D        	.byte0x8d
 2910 0c2c 0000 00C2 	.long0xc2
 2911 0c30 00        	.byte0
68K GAS   			page 72


 2912 0c31 0B        	.uleb128 0xb
 2913 0c32 0000 0000 	.long.LASF183
 2914 0c36 0F        	.byte0xf
 2915 0c37 8E        	.byte0x8e
 2916 0c38 0000 00C2 	.long0xc2
 2917 0c3c 14        	.byte0x14
 2918 0c3d 0B        	.uleb128 0xb
 2919 0c3e 0000 0000 	.long.LASF184
 2920 0c42 0F        	.byte0xf
 2921 0c43 8F        	.byte0x8f
 2922 0c44 0000 09E9 	.long0x9e9
 2923 0c48 28        	.byte0x28
 2924 0c49 0B        	.uleb128 0xb
 2925 0c4a 0000 0000 	.long.LASF185
 2926 0c4e 0F        	.byte0xf
 2927 0c4f 91        	.byte0x91
 2928 0c50 0000 0086 	.long0x86
 2929 0c54 68        	.byte0x68
 2930 0c55 0B        	.uleb128 0xb
 2931 0c56 0000 0000 	.long.LASF186
 2932 0c5a 0F        	.byte0xf
 2933 0c5b 92        	.byte0x92
 2934 0c5c 0000 009F 	.long0x9f
 2935 0c60 6C        	.byte0x6c
 2936 0c61 0B        	.uleb128 0xb
 2937 0c62 0000 0000 	.long.LASF187
 2938 0c66 0F        	.byte0xf
 2939 0c67 93        	.byte0x93
 2940 0c68 0000 0086 	.long0x86
 2941 0c6c 70        	.byte0x70
 2942 0c6d 0B        	.uleb128 0xb
 2943 0c6e 0000 0000 	.long.LASF188
 2944 0c72 0F        	.byte0xf
 2945 0c73 95        	.byte0x95
 2946 0c74 0000 0074 	.long0x74
 2947 0c78 74        	.byte0x74
 2948 0c79 0B        	.uleb128 0xb
 2949 0c7a 0000 0000 	.long.LASF160
 2950 0c7e 0F        	.byte0xf
 2951 0c7f 96        	.byte0x96
 2952 0c80 0000 0074 	.long0x74
 2953 0c84 76        	.byte0x76
 2954 0c85 00        	.byte0
 2955 0c86 02        	.uleb128 0x2
 2956 0c87 0000 0000 	.long.LASF189
 2957 0c8b 0F        	.byte0xf
 2958 0c8c 98        	.byte0x98
 2959 0c8d 0000 0C1D 	.long0xc1d
 2960 0c91 10        	.uleb128 0x10
 2961 0c92 1C        	.byte0x1c
 2962 0c93 0F        	.byte0xf
 2963 0c94 9F        	.byte0x9f
 2964 0c95 0000 0CBE 	.long0xcbe
 2965 0c99 0B        	.uleb128 0xb
 2966 0c9a 0000 0000 	.long.LASF190
 2967 0c9e 0F        	.byte0xf
 2968 0c9f A1        	.byte0xa1
68K GAS   			page 73


 2969 0ca0 0000 0086 	.long0x86
 2970 0ca4 00        	.byte0
 2971 0ca5 0B        	.uleb128 0xb
 2972 0ca6 0000 0000 	.long.LASF191
 2973 0caa 0F        	.byte0xf
 2974 0cab A2        	.byte0xa2
 2975 0cac 0000 00C2 	.long0xc2
 2976 0cb0 04        	.byte0x4
 2977 0cb1 0B        	.uleb128 0xb
 2978 0cb2 0000 0000 	.long.LASF192
 2979 0cb6 0F        	.byte0xf
 2980 0cb7 A3        	.byte0xa3
 2981 0cb8 0000 0086 	.long0x86
 2982 0cbc 18        	.byte0x18
 2983 0cbd 00        	.byte0
 2984 0cbe 02        	.uleb128 0x2
 2985 0cbf 0000 0000 	.long.LASF193
 2986 0cc3 0F        	.byte0xf
 2987 0cc4 A5        	.byte0xa5
 2988 0cc5 0000 0C91 	.long0xc91
 2989 0cc9 10        	.uleb128 0x10
 2990 0cca A8        	.byte0xa8
 2991 0ccb 0F        	.byte0xf
 2992 0ccc AC        	.byte0xac
 2993 0ccd 0000 0D0E 	.long0xd0e
 2994 0cd1 0B        	.uleb128 0xb
 2995 0cd2 0000 0000 	.long.LASF194
 2996 0cd6 0F        	.byte0xf
 2997 0cd7 AE        	.byte0xae
 2998 0cd8 0000 00AA 	.long0xaa
 2999 0cdc 00        	.byte0
 3000 0cdd 0B        	.uleb128 0xb
 3001 0cde 0000 0000 	.long.LASF195
 3002 0ce2 0F        	.byte0xf
 3003 0ce3 AF        	.byte0xaf
 3004 0ce4 0000 0086 	.long0x86
 3005 0ce8 04        	.byte0x4
 3006 0ce9 0B        	.uleb128 0xb
 3007 0cea 0000 0000 	.long.LASF196
 3008 0cee 0F        	.byte0xf
 3009 0cef B0        	.byte0xb0
 3010 0cf0 0000 0C86 	.long0xc86
 3011 0cf4 08        	.byte0x8
 3012 0cf5 0B        	.uleb128 0xb
 3013 0cf6 0000 0000 	.long.LASF197
 3014 0cfa 0F        	.byte0xf
 3015 0cfb B1        	.byte0xb1
 3016 0cfc 0000 0C12 	.long0xc12
 3017 0d00 80        	.byte0x80
 3018 0d01 0B        	.uleb128 0xb
 3019 0d02 0000 0000 	.long.LASF198
 3020 0d06 0F        	.byte0xf
 3021 0d07 B2        	.byte0xb2
 3022 0d08 0000 0CBE 	.long0xcbe
 3023 0d0c 8C        	.byte0x8c
 3024 0d0d 00        	.byte0
 3025 0d0e 02        	.uleb128 0x2
68K GAS   			page 74


 3026 0d0f 0000 0000 	.long.LASF199
 3027 0d13 0F        	.byte0xf
 3028 0d14 B4        	.byte0xb4
 3029 0d15 0000 0CC9 	.long0xcc9
 3030 0d19 10        	.uleb128 0x10
 3031 0d1a 24        	.byte0x24
 3032 0d1b 0F        	.byte0xf
 3033 0d1c BB        	.byte0xbb
 3034 0d1d 0000 0D5E 	.long0xd5e
 3035 0d21 0B        	.uleb128 0xb
 3036 0d22 0000 0000 	.long.LASF194
 3037 0d26 0F        	.byte0xf
 3038 0d27 BD        	.byte0xbd
 3039 0d28 0000 00AA 	.long0xaa
 3040 0d2c 00        	.byte0
 3041 0d2d 0B        	.uleb128 0xb
 3042 0d2e 0000 0000 	.long.LASF200
 3043 0d32 0F        	.byte0xf
 3044 0d33 BE        	.byte0xbe
 3045 0d34 0000 0086 	.long0x86
 3046 0d38 04        	.byte0x4
 3047 0d39 0B        	.uleb128 0xb
 3048 0d3a 0000 0000 	.long.LASF201
 3049 0d3e 0F        	.byte0xf
 3050 0d3f BF        	.byte0xbf
 3051 0d40 0000 0086 	.long0x86
 3052 0d44 08        	.byte0x8
 3053 0d45 0B        	.uleb128 0xb
 3054 0d46 0000 0000 	.long.LASF202
 3055 0d4a 0F        	.byte0xf
 3056 0d4b C0        	.byte0xc0
 3057 0d4c 0000 0086 	.long0x86
 3058 0d50 0C        	.byte0xc
 3059 0d51 0B        	.uleb128 0xb
 3060 0d52 0000 0000 	.long.LASF203
 3061 0d56 0F        	.byte0xf
 3062 0d57 C1        	.byte0xc1
 3063 0d58 0000 00C2 	.long0xc2
 3064 0d5c 10        	.byte0x10
 3065 0d5d 00        	.byte0
 3066 0d5e 02        	.uleb128 0x2
 3067 0d5f 0000 0000 	.long.LASF204
 3068 0d63 0F        	.byte0xf
 3069 0d64 C4        	.byte0xc4
 3070 0d65 0000 0D19 	.long0xd19
 3071 0d69 10        	.uleb128 0x10
 3072 0d6a 15        	.byte0x15
 3073 0d6b 0F        	.byte0xf
 3074 0d6c CA        	.byte0xca
 3075 0d6d 0000 0D8A 	.long0xd8a
 3076 0d71 0B        	.uleb128 0xb
 3077 0d72 0000 0000 	.long.LASF194
 3078 0d76 0F        	.byte0xf
 3079 0d77 CC        	.byte0xcc
 3080 0d78 0000 00AA 	.long0xaa
 3081 0d7c 00        	.byte0
 3082 0d7d 0B        	.uleb128 0xb
68K GAS   			page 75


 3083 0d7e 0000 0000 	.long.LASF205
 3084 0d82 0F        	.byte0xf
 3085 0d83 CD        	.byte0xcd
 3086 0d84 0000 00C2 	.long0xc2
 3087 0d88 01        	.byte0x1
 3088 0d89 00        	.byte0
 3089 0d8a 02        	.uleb128 0x2
 3090 0d8b 0000 0000 	.long.LASF206
 3091 0d8f 0F        	.byte0xf
 3092 0d90 CE        	.byte0xce
 3093 0d91 0000 0D69 	.long0xd69
 3094 0d95 02        	.uleb128 0x2
 3095 0d96 0000 0000 	.long.LASF207
 3096 0d9a 10        	.byte0x10
 3097 0d9b 38        	.byte0x38
 3098 0d9c 0000 0086 	.long0x86
 3099 0da0 10        	.uleb128 0x10
 3100 0da1 14        	.byte0x14
 3101 0da2 10        	.byte0x10
 3102 0da3 3A        	.byte0x3a
 3103 0da4 0000 0DF1 	.long0xdf1
 3104 0da8 0B        	.uleb128 0xb
 3105 0da9 0000 0000 	.long.LASF208
 3106 0dad 10        	.byte0x10
 3107 0dae 3C        	.byte0x3c
 3108 0daf 0000 0074 	.long0x74
 3109 0db3 00        	.byte0
 3110 0db4 0B        	.uleb128 0xb
 3111 0db5 0000 0000 	.long.LASF209
 3112 0db9 10        	.byte0x10
 3113 0dba 3D        	.byte0x3d
 3114 0dbb 0000 0074 	.long0x74
 3115 0dbf 02        	.byte0x2
 3116 0dc0 0B        	.uleb128 0xb
 3117 0dc1 0000 0000 	.long.LASF210
 3118 0dc5 10        	.byte0x10
 3119 0dc6 3E        	.byte0x3e
 3120 0dc7 0000 0086 	.long0x86
 3121 0dcb 04        	.byte0x4
 3122 0dcc 0B        	.uleb128 0xb
 3123 0dcd 0000 0000 	.long.LASF211
 3124 0dd1 10        	.byte0x10
 3125 0dd2 3F        	.byte0x3f
 3126 0dd3 0000 0086 	.long0x86
 3127 0dd7 08        	.byte0x8
 3128 0dd8 11        	.uleb128 0x11
 3129 0dd9 4352 4300 	.string"CRC"
 3130 0ddd 10        	.byte0x10
 3131 0dde 40        	.byte0x40
 3132 0ddf 0000 0086 	.long0x86
 3133 0de3 0C        	.byte0xc
 3134 0de4 0B        	.uleb128 0xb
 3135 0de5 0000 0000 	.long.LASF212
 3136 0de9 10        	.byte0x10
 3137 0dea 41        	.byte0x41
 3138 0deb 0000 0086 	.long0x86
 3139 0def 10        	.byte0x10
68K GAS   			page 76


 3140 0df0 00        	.byte0
 3141 0df1 02        	.uleb128 0x2
 3142 0df2 0000 0000 	.long.LASF213
 3143 0df6 10        	.byte0x10
 3144 0df7 42        	.byte0x42
 3145 0df8 0000 0DA0 	.long0xda0
 3146 0dfc 10        	.uleb128 0x10
 3147 0dfd 0C        	.byte0xc
 3148 0dfe 10        	.byte0x10
 3149 0dff 44        	.byte0x44
 3150 0e00 0000 0E29 	.long0xe29
 3151 0e04 11        	.uleb128 0x11
 3152 0e05 546F 7000 	.string"Top"
 3153 0e09 10        	.byte0x10
 3154 0e0a 46        	.byte0x46
 3155 0e0b 0000 0086 	.long0x86
 3156 0e0f 00        	.byte0
 3157 0e10 0B        	.uleb128 0xb
 3158 0e11 0000 0000 	.long.LASF214
 3159 0e15 10        	.byte0x10
 3160 0e16 47        	.byte0x47
 3161 0e17 0000 0086 	.long0x86
 3162 0e1b 04        	.byte0x4
 3163 0e1c 0B        	.uleb128 0xb
 3164 0e1d 0000 0000 	.long.LASF215
 3165 0e21 10        	.byte0x10
 3166 0e22 48        	.byte0x48
 3167 0e23 0000 0086 	.long0x86
 3168 0e27 08        	.byte0x8
 3169 0e28 00        	.byte0
 3170 0e29 02        	.uleb128 0x2
 3171 0e2a 0000 0000 	.long.LASF216
 3172 0e2e 10        	.byte0x10
 3173 0e2f 49        	.byte0x49
 3174 0e30 0000 0DFC 	.long0xdfc
 3175 0e34 10        	.uleb128 0x10
 3176 0e35 EC        	.byte0xec
 3177 0e36 10        	.byte0x10
 3178 0e37 4D        	.byte0x4d
 3179 0e38 0000 0EB5 	.long0xeb5
 3180 0e3c 0B        	.uleb128 0xb
 3181 0e3d 0000 0000 	.long.LASF217
 3182 0e41 10        	.byte0x10
 3183 0e42 4E        	.byte0x4e
 3184 0e43 0000 0086 	.long0x86
 3185 0e47 00        	.byte0
 3186 0e48 0B        	.uleb128 0xb
 3187 0e49 0000 0000 	.long.LASF218
 3188 0e4d 10        	.byte0x10
 3189 0e4e 4F        	.byte0x4f
 3190 0e4f 0000 0086 	.long0x86
 3191 0e53 04        	.byte0x4
 3192 0e54 11        	.uleb128 0x11
 3193 0e55 456E 6400 	.string"End"
 3194 0e59 10        	.byte0x10
 3195 0e5a 50        	.byte0x50
 3196 0e5b 0000 0086 	.long0x86
68K GAS   			page 77


 3197 0e5f 08        	.byte0x8
 3198 0e60 0B        	.uleb128 0xb
 3199 0e61 0000 0000 	.long.LASF219
 3200 0e65 10        	.byte0x10
 3201 0e66 51        	.byte0x51
 3202 0e67 0000 0086 	.long0x86
 3203 0e6b 0C        	.byte0xc
 3204 0e6c 0B        	.uleb128 0xb
 3205 0e6d 0000 0000 	.long.LASF220
 3206 0e71 10        	.byte0x10
 3207 0e72 52        	.byte0x52
 3208 0e73 0000 0050 	.long0x50
 3209 0e77 10        	.byte0x10
 3210 0e78 0B        	.uleb128 0xb
 3211 0e79 0000 0000 	.long.LASF221
 3212 0e7d 10        	.byte0x10
 3213 0e7e 53        	.byte0x53
 3214 0e7f 0000 0074 	.long0x74
 3215 0e83 14        	.byte0x14
 3216 0e84 0B        	.uleb128 0xb
 3217 0e85 0000 0000 	.long.LASF222
 3218 0e89 10        	.byte0x10
 3219 0e8a 54        	.byte0x54
 3220 0e8b 0000 0074 	.long0x74
 3221 0e8f 16        	.byte0x16
 3222 0e90 0B        	.uleb128 0xb
 3223 0e91 0000 0000 	.long.LASF223
 3224 0e95 10        	.byte0x10
 3225 0e96 55        	.byte0x55
 3226 0e97 0000 0086 	.long0x86
 3227 0e9b 18        	.byte0x18
 3228 0e9c 0B        	.uleb128 0xb
 3229 0e9d 0000 0000 	.long.LASF224
 3230 0ea1 10        	.byte0x10
 3231 0ea2 56        	.byte0x56
 3232 0ea3 0000 0086 	.long0x86
 3233 0ea7 1C        	.byte0x1c
 3234 0ea8 0B        	.uleb128 0xb
 3235 0ea9 0000 0000 	.long.LASF225
 3236 0ead 10        	.byte0x10
 3237 0eae 57        	.byte0x57
 3238 0eaf 0000 0EB5 	.long0xeb5
 3239 0eb3 20        	.byte0x20
 3240 0eb4 00        	.byte0
 3241 0eb5 06        	.uleb128 0x6
 3242 0eb6 0000 0E29 	.long0xe29
 3243 0eba 0000 0EC5 	.long0xec5
 3244 0ebe 07        	.uleb128 0x7
 3245 0ebf 0000 0091 	.long0x91
 3246 0ec3 10        	.byte0x10
 3247 0ec4 00        	.byte0
 3248 0ec5 02        	.uleb128 0x2
 3249 0ec6 0000 0000 	.long.LASF226
 3250 0eca 10        	.byte0x10
 3251 0ecb 58        	.byte0x58
 3252 0ecc 0000 0E34 	.long0xe34
 3253 0ed0 20        	.uleb128 0x20
68K GAS   			page 78


 3254 0ed1 0000 0000 	.long.LASF227
 3255 0ed5 10        	.byte0x10
 3256 0ed6 60        	.byte0x60
 3257 0ed7 0000 0EC5 	.long0xec5
 3258 0edb 20        	.uleb128 0x20
 3259 0edc 0000 0000 	.long.LASF228
 3260 0ee0 10        	.byte0x10
 3261 0ee1 61        	.byte0x61
 3262 0ee2 0000 0DF1 	.long0xdf1
 3263 0ee6 10        	.uleb128 0x10
 3264 0ee7 34        	.byte0x34
 3265 0ee8 11        	.byte0x11
 3266 0ee9 43        	.byte0x43
 3267 0eea 0000 0F2B 	.long0xf2b
 3268 0eee 0B        	.uleb128 0xb
 3269 0eef 0000 0000 	.long.LASF182
 3270 0ef3 11        	.byte0x11
 3271 0ef4 45        	.byte0x45
 3272 0ef5 0000 0A05 	.long0xa05
 3273 0ef9 00        	.byte0
 3274 0efa 0B        	.uleb128 0xb
 3275 0efb 0000 0000 	.long.LASF229
 3276 0eff 11        	.byte0x11
 3277 0f00 46        	.byte0x46
 3278 0f01 0000 0D95 	.long0xd95
 3279 0f05 28        	.byte0x28
 3280 0f06 0B        	.uleb128 0xb
 3281 0f07 0000 0000 	.long.LASF218
 3282 0f0b 11        	.byte0x11
 3283 0f0c 47        	.byte0x47
 3284 0f0d 0000 0086 	.long0x86
 3285 0f11 2C        	.byte0x2c
 3286 0f12 0B        	.uleb128 0xb
 3287 0f13 0000 0000 	.long.LASF230
 3288 0f17 11        	.byte0x11
 3289 0f18 48        	.byte0x48
 3290 0f19 0000 00AA 	.long0xaa
 3291 0f1d 30        	.byte0x30
 3292 0f1e 0B        	.uleb128 0xb
 3293 0f1f 0000 0000 	.long.LASF231
 3294 0f23 11        	.byte0x11
 3295 0f24 49        	.byte0x49
 3296 0f25 0000 00AA 	.long0xaa
 3297 0f29 31        	.byte0x31
 3298 0f2a 00        	.byte0
 3299 0f2b 02        	.uleb128 0x2
 3300 0f2c 0000 0000 	.long.LASF232
 3301 0f30 11        	.byte0x11
 3302 0f31 4A        	.byte0x4a
 3303 0f32 0000 0EE6 	.long0xee6
 3304 0f36 21        	.uleb128 0x21
 3305 0f37 6818      	.word0x6818
 3306 0f39 11        	.byte0x11
 3307 0f3a 4C        	.byte0x4c
 3308 0f3b 0000 0F89 	.long0xf89
 3309 0f3f 0B        	.uleb128 0xb
 3310 0f40 0000 0000 	.long.LASF233
68K GAS   			page 79


 3311 0f44 11        	.byte0x11
 3312 0f45 4E        	.byte0x4e
 3313 0f46 0000 0086 	.long0x86
 3314 0f4a 00        	.byte0
 3315 0f4b 0B        	.uleb128 0xb
 3316 0f4c 0000 0000 	.long.LASF234
 3317 0f50 11        	.byte0x11
 3318 0f51 4F        	.byte0x4f
 3319 0f52 0000 0086 	.long0x86
 3320 0f56 04        	.byte0x4
 3321 0f57 0B        	.uleb128 0xb
 3322 0f58 0000 0000 	.long.LASF235
 3323 0f5c 11        	.byte0x11
 3324 0f5d 50        	.byte0x50
 3325 0f5e 0000 0086 	.long0x86
 3326 0f62 08        	.byte0x8
 3327 0f63 0B        	.uleb128 0xb
 3328 0f64 0000 0000 	.long.LASF236
 3329 0f68 11        	.byte0x11
 3330 0f69 51        	.byte0x51
 3331 0f6a 0000 0086 	.long0x86
 3332 0f6e 0C        	.byte0xc
 3333 0f6f 0B        	.uleb128 0xb
 3334 0f70 0000 0000 	.long.LASF237
 3335 0f74 11        	.byte0x11
 3336 0f75 52        	.byte0x52
 3337 0f76 0000 0F89 	.long0xf89
 3338 0f7a 10        	.byte0x10
 3339 0f7b 13        	.uleb128 0x13
 3340 0f7c 0000 0000 	.long.LASF238
 3341 0f80 11        	.byte0x11
 3342 0f81 53        	.byte0x53
 3343 0f82 0000 089E 	.long0x89e
 3344 0f86 6810      	.word0x6810
 3345 0f88 00        	.byte0
 3346 0f89 06        	.uleb128 0x6
 3347 0f8a 0000 0F2B 	.long0xf2b
 3348 0f8e 0000 0F9A 	.long0xf9a
 3349 0f92 22        	.uleb128 0x22
 3350 0f93 0000 0091 	.long0x91
 3351 0f97 01FF      	.word0x1ff
 3352 0f99 00        	.byte0
 3353 0f9a 02        	.uleb128 0x2
 3354 0f9b 0000 0000 	.long.LASF239
 3355 0f9f 11        	.byte0x11
 3356 0fa0 54        	.byte0x54
 3357 0fa1 0000 0F36 	.long0xf36
 3358 0fa5 10        	.uleb128 0x10
 3359 0fa6 10        	.byte0x10
 3360 0fa7 12        	.byte0x12
 3361 0fa8 1E        	.byte0x1e
 3362 0fa9 0000 0FDE 	.long0xfde
 3363 0fad 0B        	.uleb128 0xb
 3364 0fae 0000 0000 	.long.LASF240
 3365 0fb2 12        	.byte0x12
 3366 0fb3 20        	.byte0x20
 3367 0fb4 0000 0086 	.long0x86
68K GAS   			page 80


 3368 0fb8 00        	.byte0
 3369 0fb9 0B        	.uleb128 0xb
 3370 0fba 0000 0000 	.long.LASF241
 3371 0fbe 12        	.byte0x12
 3372 0fbf 21        	.byte0x21
 3373 0fc0 0000 0086 	.long0x86
 3374 0fc4 04        	.byte0x4
 3375 0fc5 0B        	.uleb128 0xb
 3376 0fc6 0000 0000 	.long.LASF242
 3377 0fca 12        	.byte0x12
 3378 0fcb 22        	.byte0x22
 3379 0fcc 0000 0086 	.long0x86
 3380 0fd0 08        	.byte0x8
 3381 0fd1 0B        	.uleb128 0xb
 3382 0fd2 0000 0000 	.long.LASF243
 3383 0fd6 12        	.byte0x12
 3384 0fd7 23        	.byte0x23
 3385 0fd8 0000 0086 	.long0x86
 3386 0fdc 0C        	.byte0xc
 3387 0fdd 00        	.byte0
 3388 0fde 02        	.uleb128 0x2
 3389 0fdf 0000 0000 	.long.LASF244
 3390 0fe3 12        	.byte0x12
 3391 0fe4 25        	.byte0x25
 3392 0fe5 0000 0FA5 	.long0xfa5
 3393 0fe9 21        	.uleb128 0x21
 3394 0fea 0108      	.word0x108
 3395 0fec 12        	.byte0x12
 3396 0fed 2A        	.byte0x2a
 3397 0fee 0000 1083 	.long0x1083
 3398 0ff2 0B        	.uleb128 0xb
 3399 0ff3 0000 0000 	.long.LASF245
 3400 0ff7 12        	.byte0x12
 3401 0ff8 2C        	.byte0x2c
 3402 0ff9 0000 0086 	.long0x86
 3403 0ffd 00        	.byte0
 3404 0ffe 0B        	.uleb128 0xb
 3405 0fff 0000 0000 	.long.LASF246
 3406 1003 12        	.byte0x12
 3407 1004 2D        	.byte0x2d
 3408 1005 0000 0086 	.long0x86
 3409 1009 04        	.byte0x4
 3410 100a 0B        	.uleb128 0xb
 3411 100b 0000 0000 	.long.LASF247
 3412 100f 12        	.byte0x12
 3413 1010 2E        	.byte0x2e
 3414 1011 0000 0086 	.long0x86
 3415 1015 08        	.byte0x8
 3416 1016 0B        	.uleb128 0xb
 3417 1017 0000 0000 	.long.LASF248
 3418 101b 12        	.byte0x12
 3419 101c 2F        	.byte0x2f
 3420 101d 0000 0086 	.long0x86
 3421 1021 0C        	.byte0xc
 3422 1022 0B        	.uleb128 0xb
 3423 1023 0000 0000 	.long.LASF249
 3424 1027 12        	.byte0x12
68K GAS   			page 81


 3425 1028 30        	.byte0x30
 3426 1029 0000 0086 	.long0x86
 3427 102d 10        	.byte0x10
 3428 102e 0B        	.uleb128 0xb
 3429 102f 0000 0000 	.long.LASF250
 3430 1033 12        	.byte0x12
 3431 1034 31        	.byte0x31
 3432 1035 0000 0086 	.long0x86
 3433 1039 14        	.byte0x14
 3434 103a 0B        	.uleb128 0xb
 3435 103b 0000 0000 	.long.LASF251
 3436 103f 12        	.byte0x12
 3437 1040 32        	.byte0x32
 3438 1041 0000 0FDE 	.long0xfde
 3439 1045 18        	.byte0x18
 3440 1046 0B        	.uleb128 0xb
 3441 1047 0000 0000 	.long.LASF252
 3442 104b 12        	.byte0x12
 3443 104c 33        	.byte0x33
 3444 104d 0000 0A36 	.long0xa36
 3445 1051 28        	.byte0x28
 3446 1052 0B        	.uleb128 0xb
 3447 1053 0000 0000 	.long.LASF253
 3448 1057 12        	.byte0x12
 3449 1058 34        	.byte0x34
 3450 1059 0000 1083 	.long0x1083
 3451 105d 30        	.byte0x30
 3452 105e 0B        	.uleb128 0xb
 3453 105f 0000 0000 	.long.LASF254
 3454 1063 12        	.byte0x12
 3455 1064 35        	.byte0x35
 3456 1065 0000 0086 	.long0x86
 3457 1069 80        	.byte0x80
 3458 106a 0B        	.uleb128 0xb
 3459 106b 0000 0000 	.long.LASF255
 3460 106f 12        	.byte0x12
 3461 1070 36        	.byte0x36
 3462 1071 0000 0086 	.long0x86
 3463 1075 84        	.byte0x84
 3464 1076 0B        	.uleb128 0xb
 3465 1077 0000 0000 	.long.LASF256
 3466 107b 12        	.byte0x12
 3467 107c 37        	.byte0x37
 3468 107d 0000 0A9D 	.long0xa9d
 3469 1081 88        	.byte0x88
 3470 1082 00        	.byte0
 3471 1083 06        	.uleb128 0x6
 3472 1084 0000 00B6 	.long0xb6
 3473 1088 0000 1093 	.long0x1093
 3474 108c 07        	.uleb128 0x7
 3475 108d 0000 0091 	.long0x91
 3476 1091 4F        	.byte0x4f
 3477 1092 00        	.byte0
 3478 1093 02        	.uleb128 0x2
 3479 1094 0000 0000 	.long.LASF257
 3480 1098 12        	.byte0x12
 3481 1099 38        	.byte0x38
68K GAS   			page 82


 3482 109a 0000 0FE9 	.long0xfe9
 3483 109e 10        	.uleb128 0x10
 3484 109f 0C        	.byte0xc
 3485 10a0 13        	.byte0x13
 3486 10a1 1D        	.byte0x1d
 3487 10a2 0000 10CB 	.long0x10cb
 3488 10a6 0B        	.uleb128 0xb
 3489 10a7 0000 0000 	.long.LASF258
 3490 10ab 13        	.byte0x13
 3491 10ac 1E        	.byte0x1e
 3492 10ad 0000 0086 	.long0x86
 3493 10b1 00        	.byte0
 3494 10b2 0B        	.uleb128 0xb
 3495 10b3 0000 0000 	.long.LASF259
 3496 10b7 13        	.byte0x13
 3497 10b8 1F        	.byte0x1f
 3498 10b9 0000 0086 	.long0x86
 3499 10bd 04        	.byte0x4
 3500 10be 0B        	.uleb128 0xb
 3501 10bf 0000 0000 	.long.LASF260
 3502 10c3 13        	.byte0x13
 3503 10c4 20        	.byte0x20
 3504 10c5 0000 0086 	.long0x86
 3505 10c9 08        	.byte0x8
 3506 10ca 00        	.byte0
 3507 10cb 02        	.uleb128 0x2
 3508 10cc 0000 0000 	.long.LASF261
 3509 10d0 13        	.byte0x13
 3510 10d1 21        	.byte0x21
 3511 10d2 0000 109E 	.long0x109e
 3512 10d6 10        	.uleb128 0x10
 3513 10d7 4C        	.byte0x4c
 3514 10d8 13        	.byte0x13
 3515 10d9 23        	.byte0x23
 3516 10da 0000 1193 	.long0x1193
 3517 10de 0B        	.uleb128 0xb
 3518 10df 0000 0000 	.long.LASF262
 3519 10e3 13        	.byte0x13
 3520 10e4 24        	.byte0x24
 3521 10e5 0000 0069 	.long0x69
 3522 10e9 00        	.byte0
 3523 10ea 0B        	.uleb128 0xb
 3524 10eb 0000 0000 	.long.LASF263
 3525 10ef 13        	.byte0x13
 3526 10f0 25        	.byte0x25
 3527 10f1 0000 0069 	.long0x69
 3528 10f5 01        	.byte0x1
 3529 10f6 0B        	.uleb128 0xb
 3530 10f7 0000 0000 	.long.LASF264
 3531 10fb 13        	.byte0x13
 3532 10fc 26        	.byte0x26
 3533 10fd 0000 0AAD 	.long0xaad
 3534 1101 02        	.byte0x2
 3535 1102 0B        	.uleb128 0xb
 3536 1103 0000 0000 	.long.LASF265
 3537 1107 13        	.byte0x13
 3538 1108 27        	.byte0x27
68K GAS   			page 83


 3539 1109 0000 0086 	.long0x86
 3540 110d 04        	.byte0x4
 3541 110e 0B        	.uleb128 0xb
 3542 110f 0000 0000 	.long.LASF266
 3543 1113 13        	.byte0x13
 3544 1114 28        	.byte0x28
 3545 1115 0000 0086 	.long0x86
 3546 1119 08        	.byte0x8
 3547 111a 0B        	.uleb128 0xb
 3548 111b 0000 0000 	.long.LASF267
 3549 111f 13        	.byte0x13
 3550 1120 29        	.byte0x29
 3551 1121 0000 0086 	.long0x86
 3552 1125 0C        	.byte0xc
 3553 1126 0B        	.uleb128 0xb
 3554 1127 0000 0000 	.long.LASF268
 3555 112b 13        	.byte0x13
 3556 112c 2A        	.byte0x2a
 3557 112d 0000 0086 	.long0x86
 3558 1131 10        	.byte0x10
 3559 1132 0B        	.uleb128 0xb
 3560 1133 0000 0000 	.long.LASF269
 3561 1137 13        	.byte0x13
 3562 1138 2B        	.byte0x2b
 3563 1139 0000 0086 	.long0x86
 3564 113d 14        	.byte0x14
 3565 113e 0B        	.uleb128 0xb
 3566 113f 0000 0000 	.long.LASF270
 3567 1143 13        	.byte0x13
 3568 1144 2C        	.byte0x2c
 3569 1145 0000 0086 	.long0x86
 3570 1149 18        	.byte0x18
 3571 114a 0B        	.uleb128 0xb
 3572 114b 0000 0000 	.long.LASF271
 3573 114f 13        	.byte0x13
 3574 1150 2D        	.byte0x2d
 3575 1151 0000 0086 	.long0x86
 3576 1155 1C        	.byte0x1c
 3577 1156 0B        	.uleb128 0xb
 3578 1157 0000 0000 	.long.LASF272
 3579 115b 13        	.byte0x13
 3580 115c 2E        	.byte0x2e
 3581 115d 0000 0086 	.long0x86
 3582 1161 20        	.byte0x20
 3583 1162 0B        	.uleb128 0xb
 3584 1163 0000 0000 	.long.LASF273
 3585 1167 13        	.byte0x13
 3586 1168 2F        	.byte0x2f
 3587 1169 0000 0086 	.long0x86
 3588 116d 24        	.byte0x24
 3589 116e 0B        	.uleb128 0xb
 3590 116f 0000 0000 	.long.LASF274
 3591 1173 13        	.byte0x13
 3592 1174 30        	.byte0x30
 3593 1175 0000 0086 	.long0x86
 3594 1179 28        	.byte0x28
 3595 117a 0B        	.uleb128 0xb
68K GAS   			page 84


 3596 117b 0000 0000 	.long.LASF275
 3597 117f 13        	.byte0x13
 3598 1180 31        	.byte0x31
 3599 1181 0000 1193 	.long0x1193
 3600 1185 2C        	.byte0x2c
 3601 1186 0B        	.uleb128 0xb
 3602 1187 0000 0000 	.long.LASF276
 3603 118b 13        	.byte0x13
 3604 118c 32        	.byte0x32
 3605 118d 0000 1193 	.long0x1193
 3606 1191 3C        	.byte0x3c
 3607 1192 00        	.byte0
 3608 1193 06        	.uleb128 0x6
 3609 1194 0000 0086 	.long0x86
 3610 1198 0000 11A3 	.long0x11a3
 3611 119c 07        	.uleb128 0x7
 3612 119d 0000 0091 	.long0x91
 3613 11a1 03        	.byte0x3
 3614 11a2 00        	.byte0
 3615 11a3 02        	.uleb128 0x2
 3616 11a4 0000 0000 	.long.LASF277
 3617 11a8 13        	.byte0x13
 3618 11a9 33        	.byte0x33
 3619 11aa 0000 10D6 	.long0x10d6
 3620 11ae 23        	.uleb128 0x23
 3621 11af 0001 D50C 	.long0x1d50c
 3622 11b3 13        	.byte0x13
 3623 11b4 35        	.byte0x35
 3624 11b5 0000 11D2 	.long0x11d2
 3625 11b9 0B        	.uleb128 0xb
 3626 11ba 0000 0000 	.long.LASF278
 3627 11be 13        	.byte0x13
 3628 11bf 36        	.byte0x36
 3629 11c0 0000 11A3 	.long0x11a3
 3630 11c4 00        	.byte0
 3631 11c5 0B        	.uleb128 0xb
 3632 11c6 0000 0000 	.long.LASF279
 3633 11ca 13        	.byte0x13
 3634 11cb 37        	.byte0x37
 3635 11cc 0000 11D2 	.long0x11d2
 3636 11d0 4C        	.byte0x4c
 3637 11d1 00        	.byte0
 3638 11d2 06        	.uleb128 0x6
 3639 11d3 0000 10CB 	.long0x10cb
 3640 11d7 0000 11E3 	.long0x11e3
 3641 11db 22        	.uleb128 0x22
 3642 11dc 0000 0091 	.long0x91
 3643 11e0 270F      	.word0x270f
 3644 11e2 00        	.byte0
 3645 11e3 02        	.uleb128 0x2
 3646 11e4 0000 0000 	.long.LASF280
 3647 11e8 13        	.byte0x13
 3648 11e9 38        	.byte0x38
 3649 11ea 0000 11AE 	.long0x11ae
 3650 11ee 21        	.uleb128 0x21
 3651 11ef 0D28      	.word0xd28
 3652 11f1 14        	.byte0x14
68K GAS   			page 85


 3653 11f2 1F        	.byte0x1f
 3654 11f3 0000 1240 	.long0x1240
 3655 11f7 0B        	.uleb128 0xb
 3656 11f8 0000 0000 	.long.LASF212
 3657 11fc 14        	.byte0x14
 3658 11fd 20        	.byte0x20
 3659 11fe 0000 0074 	.long0x74
 3660 1202 00        	.byte0
 3661 1203 0B        	.uleb128 0xb
 3662 1204 0000 0000 	.long.LASF281
 3663 1208 14        	.byte0x14
 3664 1209 21        	.byte0x21
 3665 120a 0000 0074 	.long0x74
 3666 120e 02        	.byte0x2
 3667 120f 0B        	.uleb128 0xb
 3668 1210 0000 0000 	.long.LASF282
 3669 1214 14        	.byte0x14
 3670 1215 22        	.byte0x22
 3671 1216 0000 0069 	.long0x69
 3672 121a 04        	.byte0x4
 3673 121b 0B        	.uleb128 0xb
 3674 121c 0000 0000 	.long.LASF283
 3675 1220 14        	.byte0x14
 3676 1221 23        	.byte0x23
 3677 1222 0000 0069 	.long0x69
 3678 1226 05        	.byte0x5
 3679 1227 0B        	.uleb128 0xb
 3680 1228 0000 0000 	.long.LASF284
 3681 122c 14        	.byte0x14
 3682 122d 24        	.byte0x24
 3683 122e 0000 0074 	.long0x74
 3684 1232 06        	.byte0x6
 3685 1233 0B        	.uleb128 0xb
 3686 1234 0000 0000 	.long.LASF285
 3687 1238 14        	.byte0x14
 3688 1239 25        	.byte0x25
 3689 123a 0000 1240 	.long0x1240
 3690 123e 08        	.byte0x8
 3691 123f 00        	.byte0
 3692 1240 06        	.uleb128 0x6
 3693 1241 0000 0BD9 	.long0xbd9
 3694 1245 0000 1250 	.long0x1250
 3695 1249 07        	.uleb128 0x7
 3696 124a 0000 0091 	.long0x91
 3697 124e 13        	.byte0x13
 3698 124f 00        	.byte0
 3699 1250 02        	.uleb128 0x2
 3700 1251 0000 0000 	.long.LASF286
 3701 1255 14        	.byte0x14
 3702 1256 27        	.byte0x27
 3703 1257 0000 11EE 	.long0x11ee
 3704 125b 10        	.uleb128 0x10
 3705 125c 18        	.byte0x18
 3706 125d 15        	.byte0x15
 3707 125e 23        	.byte0x23
 3708 125f 0000 12AC 	.long0x12ac
 3709 1263 0B        	.uleb128 0xb
68K GAS   			page 86


 3710 1264 0000 0000 	.long.LASF246
 3711 1268 15        	.byte0x15
 3712 1269 25        	.byte0x25
 3713 126a 0000 0086 	.long0x86
 3714 126e 00        	.byte0
 3715 126f 0B        	.uleb128 0xb
 3716 1270 0000 0000 	.long.LASF247
 3717 1274 15        	.byte0x15
 3718 1275 26        	.byte0x26
 3719 1276 0000 0086 	.long0x86
 3720 127a 04        	.byte0x4
 3721 127b 0B        	.uleb128 0xb
 3722 127c 0000 0000 	.long.LASF248
 3723 1280 15        	.byte0x15
 3724 1281 27        	.byte0x27
 3725 1282 0000 0086 	.long0x86
 3726 1286 08        	.byte0x8
 3727 1287 0B        	.uleb128 0xb
 3728 1288 0000 0000 	.long.LASF287
 3729 128c 15        	.byte0x15
 3730 128d 28        	.byte0x28
 3731 128e 0000 0086 	.long0x86
 3732 1292 0C        	.byte0xc
 3733 1293 0B        	.uleb128 0xb
 3734 1294 0000 0000 	.long.LASF249
 3735 1298 15        	.byte0x15
 3736 1299 29        	.byte0x29
 3737 129a 0000 0086 	.long0x86
 3738 129e 10        	.byte0x10
 3739 129f 0B        	.uleb128 0xb
 3740 12a0 0000 0000 	.long.LASF250
 3741 12a4 15        	.byte0x15
 3742 12a5 2A        	.byte0x2a
 3743 12a6 0000 0086 	.long0x86
 3744 12aa 14        	.byte0x14
 3745 12ab 00        	.byte0
 3746 12ac 02        	.uleb128 0x2
 3747 12ad 0000 0000 	.long.LASF288
 3748 12b1 15        	.byte0x15
 3749 12b2 2B        	.byte0x2b
 3750 12b3 0000 125B 	.long0x125b
 3751 12b7 23        	.uleb128 0x23
 3752 12b8 0002 0324 	.long0x20324
 3753 12bc 15        	.byte0x15
 3754 12bd 33        	.byte0x33
 3755 12be 0000 1364 	.long0x1364
 3756 12c2 0B        	.uleb128 0xb
 3757 12c3 0000 0000 	.long.LASF289
 3758 12c7 15        	.byte0x15
 3759 12c8 38        	.byte0x38
 3760 12c9 0000 1364 	.long0x1364
 3761 12cd 00        	.byte0
 3762 12ce 13        	.uleb128 0x13
 3763 12cf 0000 0000 	.long.LASF290
 3764 12d3 15        	.byte0x15
 3765 12d4 39        	.byte0x39
 3766 12d5 0000 0086 	.long0x86
68K GAS   			page 87


 3767 12d9 14A0      	.word0x14a0
 3768 12db 13        	.uleb128 0x13
 3769 12dc 0000 0000 	.long.LASF291
 3770 12e0 15        	.byte0x15
 3771 12e1 3A        	.byte0x3a
 3772 12e2 0000 0086 	.long0x86
 3773 12e6 14A4      	.word0x14a4
 3774 12e8 13        	.uleb128 0x13
 3775 12e9 0000 0000 	.long.LASF243
 3776 12ed 15        	.byte0x15
 3777 12ee 3B        	.byte0x3b
 3778 12ef 0000 0086 	.long0x86
 3779 12f3 14A8      	.word0x14a8
 3780 12f5 13        	.uleb128 0x13
 3781 12f6 0000 0000 	.long.LASF292
 3782 12fa 15        	.byte0x15
 3783 12fb 40        	.byte0x40
 3784 12fc 0000 1374 	.long0x1374
 3785 1300 14AC      	.word0x14ac
 3786 1302 13        	.uleb128 0x13
 3787 1303 0000 0000 	.long.LASF293
 3788 1307 15        	.byte0x15
 3789 1308 41        	.byte0x41
 3790 1309 0000 0086 	.long0x86
 3791 130d 20AC      	.word0x20ac
 3792 130f 13        	.uleb128 0x13
 3793 1310 0000 0000 	.long.LASF294
 3794 1314 15        	.byte0x15
 3795 1315 42        	.byte0x42
 3796 1316 0000 0086 	.long0x86
 3797 131a 20B0      	.word0x20b0
 3798 131c 13        	.uleb128 0x13
 3799 131d 0000 0000 	.long.LASF295
 3800 1321 15        	.byte0x15
 3801 1322 43        	.byte0x43
 3802 1323 0000 0086 	.long0x86
 3803 1327 20B4      	.word0x20b4
 3804 1329 13        	.uleb128 0x13
 3805 132a 0000 0000 	.long.LASF296
 3806 132e 15        	.byte0x15
 3807 132f 48        	.byte0x48
 3808 1330 0000 11E3 	.long0x11e3
 3809 1334 20B8      	.word0x20b8
 3810 1336 24        	.uleb128 0x24
 3811 1337 0000 0000 	.long.LASF297
 3812 133b 15        	.byte0x15
 3813 133c 4D        	.byte0x4d
 3814 133d 0000 12AC 	.long0x12ac
 3815 1341 0001 F5C4 	.long0x1f5c4
 3816 1345 24        	.uleb128 0x24
 3817 1346 0000 0000 	.long.LASF298
 3818 134a 15        	.byte0x15
 3819 134b 53        	.byte0x53
 3820 134c 0000 0A92 	.long0xa92
 3821 1350 0001 F5DC 	.long0x1f5dc
 3822 1354 24        	.uleb128 0x24
 3823 1355 0000 0000 	.long.LASF299
68K GAS   			page 88


 3824 1359 15        	.byte0x15
 3825 135a 59        	.byte0x59
 3826 135b 0000 1250 	.long0x1250
 3827 135f 0001 F5FC 	.long0x1f5fc
 3828 1363 00        	.byte0
 3829 1364 06        	.uleb128 0x6
 3830 1365 0000 1093 	.long0x1093
 3831 1369 0000 1374 	.long0x1374
 3832 136d 07        	.uleb128 0x7
 3833 136e 0000 0091 	.long0x91
 3834 1372 13        	.byte0x13
 3835 1373 00        	.byte0
 3836 1374 06        	.uleb128 0x6
 3837 1375 0000 00B6 	.long0xb6
 3838 1379 0000 1385 	.long0x1385
 3839 137d 22        	.uleb128 0x22
 3840 137e 0000 0091 	.long0x91
 3841 1382 0BFF      	.word0xbff
 3842 1384 00        	.byte0
 3843 1385 02        	.uleb128 0x2
 3844 1386 0000 0000 	.long.LASF300
 3845 138a 15        	.byte0x15
 3846 138b 5C        	.byte0x5c
 3847 138c 0000 12B7 	.long0x12b7
 3848 1390 10        	.uleb128 0x10
 3849 1391 4C        	.byte0x4c
 3850 1392 16        	.byte0x16
 3851 1393 60        	.byte0x60
 3852 1394 0000 13C9 	.long0x13c9
 3853 1398 0B        	.uleb128 0xb
 3854 1399 0000 0000 	.long.LASF301
 3855 139d 16        	.byte0x16
 3856 139e 61        	.byte0x61
 3857 139f 0000 0086 	.long0x86
 3858 13a3 00        	.byte0
 3859 13a4 0B        	.uleb128 0xb
 3860 13a5 0000 0000 	.long.LASF302
 3861 13a9 16        	.byte0x16
 3862 13aa 62        	.byte0x62
 3863 13ab 0000 0086 	.long0x86
 3864 13af 04        	.byte0x4
 3865 13b0 0B        	.uleb128 0xb
 3866 13b1 0000 0000 	.long.LASF303
 3867 13b5 16        	.byte0x16
 3868 13b6 63        	.byte0x63
 3869 13b7 0000 09E9 	.long0x9e9
 3870 13bb 08        	.byte0x8
 3871 13bc 0B        	.uleb128 0xb
 3872 13bd 0000 0000 	.long.LASF304
 3873 13c1 16        	.byte0x16
 3874 13c2 64        	.byte0x64
 3875 13c3 0000 0050 	.long0x50
 3876 13c7 48        	.byte0x48
 3877 13c8 00        	.byte0
 3878 13c9 02        	.uleb128 0x2
 3879 13ca 0000 0000 	.long.LASF305
 3880 13ce 16        	.byte0x16
68K GAS   			page 89


 3881 13cf 65        	.byte0x65
 3882 13d0 0000 1390 	.long0x1390
 3883 13d4 20        	.uleb128 0x20
 3884 13d5 0000 0000 	.long.LASF306
 3885 13d9 16        	.byte0x16
 3886 13da 67        	.byte0x67
 3887 13db 0000 13C9 	.long0x13c9
 3888 13df 10        	.uleb128 0x10
 3889 13e0 1C        	.byte0x1c
 3890 13e1 17        	.byte0x17
 3891 13e2 67        	.byte0x67
 3892 13e3 0000 140C 	.long0x140c
 3893 13e7 0B        	.uleb128 0xb
 3894 13e8 0000 0000 	.long.LASF194
 3895 13ec 17        	.byte0x17
 3896 13ed 69        	.byte0x69
 3897 13ee 0000 00AA 	.long0xaa
 3898 13f2 00        	.byte0
 3899 13f3 0B        	.uleb128 0xb
 3900 13f4 0000 0000 	.long.LASF307
 3901 13f8 17        	.byte0x17
 3902 13f9 6A        	.byte0x6a
 3903 13fa 0000 0086 	.long0x86
 3904 13fe 04        	.byte0x4
 3905 13ff 0B        	.uleb128 0xb
 3906 1400 0000 0000 	.long.LASF308
 3907 1404 17        	.byte0x17
 3908 1405 6B        	.byte0x6b
 3909 1406 0000 00C2 	.long0xc2
 3910 140a 08        	.byte0x8
 3911 140b 00        	.byte0
 3912 140c 02        	.uleb128 0x2
 3913 140d 0000 0000 	.long.LASF309
 3914 1411 17        	.byte0x17
 3915 1412 6C        	.byte0x6c
 3916 1413 0000 13DF 	.long0x13df
 3917 1417 21        	.uleb128 0x21
 3918 1418 87FC      	.word0x87fc
 3919 141a 17        	.byte0x17
 3920 141b 74        	.byte0x74
 3921 141c 0000 14D0 	.long0x14d0
 3922 1420 0B        	.uleb128 0xb
 3923 1421 0000 0000 	.long.LASF251
 3924 1425 17        	.byte0x17
 3925 1426 79        	.byte0x79
 3926 1427 0000 0FDE 	.long0xfde
 3927 142b 00        	.byte0
 3928 142c 0B        	.uleb128 0xb
 3929 142d 0000 0000 	.long.LASF310
 3930 1431 17        	.byte0x17
 3931 1432 7E        	.byte0x7e
 3932 1433 0000 0086 	.long0x86
 3933 1437 10        	.byte0x10
 3934 1438 0B        	.uleb128 0xb
 3935 1439 0000 0000 	.long.LASF311
 3936 143d 17        	.byte0x17
 3937 143e 83        	.byte0x83
68K GAS   			page 90


 3938 143f 0000 0086 	.long0x86
 3939 1443 14        	.byte0x14
 3940 1444 0B        	.uleb128 0xb
 3941 1445 0000 0000 	.long.LASF312
 3942 1449 17        	.byte0x17
 3943 144a 84        	.byte0x84
 3944 144b 0000 0086 	.long0x86
 3945 144f 18        	.byte0x18
 3946 1450 0B        	.uleb128 0xb
 3947 1451 0000 0000 	.long.LASF313
 3948 1455 17        	.byte0x17
 3949 1456 85        	.byte0x85
 3950 1457 0000 0086 	.long0x86
 3951 145b 1C        	.byte0x1c
 3952 145c 0B        	.uleb128 0xb
 3953 145d 0000 0000 	.long.LASF314
 3954 1461 17        	.byte0x17
 3955 1462 8A        	.byte0x8a
 3956 1463 0000 0086 	.long0x86
 3957 1467 20        	.byte0x20
 3958 1468 0B        	.uleb128 0xb
 3959 1469 0000 0000 	.long.LASF315
 3960 146d 17        	.byte0x17
 3961 146e 8B        	.byte0x8b
 3962 146f 0000 14D0 	.long0x14d0
 3963 1473 24        	.byte0x24
 3964 1474 13        	.uleb128 0x13
 3965 1475 0000 0000 	.long.LASF316
 3966 1479 17        	.byte0x17
 3967 147a 90        	.byte0x90
 3968 147b 0000 0086 	.long0x86
 3969 147f 0924      	.word0x924
 3970 1481 13        	.uleb128 0x13
 3971 1482 0000 0000 	.long.LASF317
 3972 1486 17        	.byte0x17
 3973 1487 91        	.byte0x91
 3974 1488 0000 0086 	.long0x86
 3975 148c 0928      	.word0x928
 3976 148e 13        	.uleb128 0x13
 3977 148f 0000 0000 	.long.LASF318
 3978 1493 17        	.byte0x17
 3979 1494 92        	.byte0x92
 3980 1495 0000 14E0 	.long0x14e0
 3981 1499 092C      	.word0x92c
 3982 149b 13        	.uleb128 0x13
 3983 149c 0000 0000 	.long.LASF319
 3984 14a0 17        	.byte0x17
 3985 14a1 97        	.byte0x97
 3986 14a2 0000 0086 	.long0x86
 3987 14a6 1E2C      	.word0x1e2c
 3988 14a8 13        	.uleb128 0x13
 3989 14a9 0000 0000 	.long.LASF320
 3990 14ad 17        	.byte0x17
 3991 14ae 98        	.byte0x98
 3992 14af 0000 14F0 	.long0x14f0
 3993 14b3 1E30      	.word0x1e30
 3994 14b5 13        	.uleb128 0x13
68K GAS   			page 91


 3995 14b6 0000 0000 	.long.LASF321
 3996 14ba 17        	.byte0x17
 3997 14bb 9D        	.byte0x9d
 3998 14bc 0000 1500 	.long0x1500
 3999 14c0 1F04      	.word0x1f04
 4000 14c2 13        	.uleb128 0x13
 4001 14c3 0000 0000 	.long.LASF322
 4002 14c7 17        	.byte0x17
 4003 14c8 A2        	.byte0xa2
 4004 14c9 0000 0F9A 	.long0xf9a
 4005 14cd 1FE4      	.word0x1fe4
 4006 14cf 00        	.byte0
 4007 14d0 06        	.uleb128 0x6
 4008 14d1 0000 0D5E 	.long0xd5e
 4009 14d5 0000 14E0 	.long0x14e0
 4010 14d9 07        	.uleb128 0x7
 4011 14da 0000 0091 	.long0x91
 4012 14de 3F        	.byte0x3f
 4013 14df 00        	.byte0
 4014 14e0 06        	.uleb128 0x6
 4015 14e1 0000 0D0E 	.long0xd0e
 4016 14e5 0000 14F0 	.long0x14f0
 4017 14e9 07        	.uleb128 0x7
 4018 14ea 0000 0091 	.long0x91
 4019 14ee 1F        	.byte0x1f
 4020 14ef 00        	.byte0
 4021 14f0 06        	.uleb128 0x6
 4022 14f1 0000 0D8A 	.long0xd8a
 4023 14f5 0000 1500 	.long0x1500
 4024 14f9 07        	.uleb128 0x7
 4025 14fa 0000 0091 	.long0x91
 4026 14fe 09        	.byte0x9
 4027 14ff 00        	.byte0
 4028 1500 06        	.uleb128 0x6
 4029 1501 0000 140C 	.long0x140c
 4030 1505 0000 1510 	.long0x1510
 4031 1509 07        	.uleb128 0x7
 4032 150a 0000 0091 	.long0x91
 4033 150e 07        	.byte0x7
 4034 150f 00        	.byte0
 4035 1510 02        	.uleb128 0x2
 4036 1511 0000 0000 	.long.LASF323
 4037 1515 17        	.byte0x17
 4038 1516 A4        	.byte0xa4
 4039 1517 0000 1417 	.long0x1417
 4040 151b 20        	.uleb128 0x20
 4041 151c 0000 0000 	.long.LASF324
 4042 1520 17        	.byte0x17
 4043 1521 A9        	.byte0xa9
 4044 1522 0000 1510 	.long0x1510
 4045 1526 20        	.uleb128 0x20
 4046 1527 0000 0000 	.long.LASF325
 4047 152b 17        	.byte0x17
 4048 152c AE        	.byte0xae
 4049 152d 0000 1531 	.long0x1531
 4050 1531 0D        	.uleb128 0xd
 4051 1532 04        	.byte0x4
68K GAS   			page 92


 4052 1533 0000 1385 	.long0x1385
 4053 1537 25        	.uleb128 0x25
 4054 1538 0000 0000 	.long.LASF332
 4055 153c 01        	.byte0x1
 4056 153d 0317      	.word0x317
 4057 153f 0000 0050 	.long0x50
 4058 1543 0000 0000 	.long.LFB72
 4059 1547 0000 0174 	.long.LFE72-.LFB72
 4060 154b 01        	.uleb128 0x1
 4061 154c 9C        	.byte0x9c
 4062 154d 0000 15C8 	.long0x15c8
 4063 1551 26        	.uleb128 0x26
 4064 1552 0000 0000 	.long.LASF326
 4065 1556 01        	.byte0x1
 4066 1557 0317      	.word0x317
 4067 1559 0000 0182 	.long0x182
 4068 155d 02        	.uleb128 0x2
 4069 155e 91        	.byte0x91
 4070 155f 00        	.sleb128 0
 4071 1560 26        	.uleb128 0x26
 4072 1561 0000 0000 	.long.LASF327
 4073 1565 01        	.byte0x1
 4074 1566 0317      	.word0x317
 4075 1568 0000 00AA 	.long0xaa
 4076 156c 02        	.uleb128 0x2
 4077 156d 91        	.byte0x91
 4078 156e 50        	.sleb128 -48
 4079 156f 27        	.uleb128 0x27
 4080 1570 0000 0000 	.long.LASF328
 4081 1574 01        	.byte0x1
 4082 1575 0319      	.word0x319
 4083 1577 0000 0050 	.long0x50
 4084 157b 02        	.uleb128 0x2
 4085 157c 91        	.byte0x91
 4086 157d 78        	.sleb128 -8
 4087 157e 27        	.uleb128 0x27
 4088 157f 0000 0000 	.long.LASF329
 4089 1583 01        	.byte0x1
 4090 1584 031A      	.word0x31a
 4091 1586 0000 0050 	.long0x50
 4092 158a 02        	.uleb128 0x2
 4093 158b 91        	.byte0x91
 4094 158c 6C        	.sleb128 -20
 4095 158d 27        	.uleb128 0x27
 4096 158e 0000 0000 	.long.LASF330
 4097 1592 01        	.byte0x1
 4098 1593 031B      	.word0x31b
 4099 1595 0000 15C8 	.long0x15c8
 4100 1599 02        	.uleb128 0x2
 4101 159a 91        	.byte0x91
 4102 159b 70        	.sleb128 -16
 4103 159c 27        	.uleb128 0x27
 4104 159d 0000 0000 	.long.LASF331
 4105 15a1 01        	.byte0x1
 4106 15a2 031C      	.word0x31c
 4107 15a4 0000 00C2 	.long0xc2
 4108 15a8 02        	.uleb128 0x2
68K GAS   			page 93


 4109 15a9 91        	.byte0x91
 4110 15aa 58        	.sleb128 -40
 4111 15ab 27        	.uleb128 0x27
 4112 15ac 0000 0000 	.long.LASF200
 4113 15b0 01        	.byte0x1
 4114 15b1 031D      	.word0x31d
 4115 15b3 0000 0086 	.long0x86
 4116 15b7 02        	.uleb128 0x2
 4117 15b8 91        	.byte0x91
 4118 15b9 54        	.sleb128 -44
 4119 15ba 28        	.uleb128 0x28
 4120 15bb 6900      	.string"i"
 4121 15bd 01        	.byte0x1
 4122 15be 031E      	.word0x31e
 4123 15c0 0000 0086 	.long0x86
 4124 15c4 02        	.uleb128 0x2
 4125 15c5 91        	.byte0x91
 4126 15c6 74        	.sleb128 -12
 4127 15c7 00        	.byte0
 4128 15c8 0D        	.uleb128 0xd
 4129 15c9 04        	.byte0x4
 4130 15ca 0000 0F2B 	.long0xf2b
 4131 15ce 25        	.uleb128 0x25
 4132 15cf 0000 0000 	.long.LASF333
 4133 15d3 01        	.byte0x1
 4134 15d4 02E0      	.word0x2e0
 4135 15d6 0000 0050 	.long0x50
 4136 15da 0000 0000 	.long.LFB71
 4137 15de 0000 00F2 	.long.LFE71-.LFB71
 4138 15e2 01        	.uleb128 0x1
 4139 15e3 9C        	.byte0x9c
 4140 15e4 0000 1607 	.long0x1607
 4141 15e8 27        	.uleb128 0x27
 4142 15e9 0000 0000 	.long.LASF328
 4143 15ed 01        	.byte0x1
 4144 15ee 02E2      	.word0x2e2
 4145 15f0 0000 0050 	.long0x50
 4146 15f4 02        	.uleb128 0x2
 4147 15f5 91        	.byte0x91
 4148 15f6 78        	.sleb128 -8
 4149 15f7 27        	.uleb128 0x27
 4150 15f8 0000 0000 	.long.LASF334
 4151 15fc 01        	.byte0x1
 4152 15fd 02E3      	.word0x2e3
 4153 15ff 0000 0050 	.long0x50
 4154 1603 02        	.uleb128 0x2
 4155 1604 91        	.byte0x91
 4156 1605 74        	.sleb128 -12
 4157 1606 00        	.byte0
 4158 1607 29        	.uleb128 0x29
 4159 1608 0000 0000 	.long.LASF335
 4160 160c 01        	.byte0x1
 4161 160d 02C4      	.word0x2c4
 4162 160f 0000 0050 	.long0x50
 4163 1613 0000 0000 	.long.LFB70
 4164 1617 0000 0046 	.long.LFE70-.LFB70
 4165 161b 01        	.uleb128 0x1
68K GAS   			page 94


 4166 161c 9C        	.byte0x9c
 4167 161d 0000 163E 	.long0x163e
 4168 1621 27        	.uleb128 0x27
 4169 1622 0000 0000 	.long.LASF329
 4170 1626 01        	.byte0x1
 4171 1627 02C6      	.word0x2c6
 4172 1629 0000 0050 	.long0x50
 4173 162d 02        	.uleb128 0x2
 4174 162e 91        	.byte0x91
 4175 162f 78        	.sleb128 -8
 4176 1630 28        	.uleb128 0x28
 4177 1631 6900      	.string"i"
 4178 1633 01        	.byte0x1
 4179 1634 02C7      	.word0x2c7
 4180 1636 0000 0050 	.long0x50
 4181 163a 02        	.uleb128 0x2
 4182 163b 91        	.byte0x91
 4183 163c 74        	.sleb128 -12
 4184 163d 00        	.byte0
 4185 163e 25        	.uleb128 0x25
 4186 163f 0000 0000 	.long.LASF336
 4187 1643 01        	.byte0x1
 4188 1644 02A3      	.word0x2a3
 4189 1646 0000 0050 	.long0x50
 4190 164a 0000 0000 	.long.LFB69
 4191 164e 0000 0078 	.long.LFE69-.LFB69
 4192 1652 01        	.uleb128 0x1
 4193 1653 9C        	.byte0x9c
 4194 1654 0000 1684 	.long0x1684
 4195 1658 26        	.uleb128 0x26
 4196 1659 0000 0000 	.long.LASF326
 4197 165d 01        	.byte0x1
 4198 165e 02A3      	.word0x2a3
 4199 1660 0000 0182 	.long0x182
 4200 1664 02        	.uleb128 0x2
 4201 1665 91        	.byte0x91
 4202 1666 00        	.sleb128 0
 4203 1667 27        	.uleb128 0x27
 4204 1668 0000 0000 	.long.LASF329
 4205 166c 01        	.byte0x1
 4206 166d 02A5      	.word0x2a5
 4207 166f 0000 0050 	.long0x50
 4208 1673 02        	.uleb128 0x2
 4209 1674 91        	.byte0x91
 4210 1675 78        	.sleb128 -8
 4211 1676 28        	.uleb128 0x28
 4212 1677 6900      	.string"i"
 4213 1679 01        	.byte0x1
 4214 167a 02A6      	.word0x2a6
 4215 167c 0000 0050 	.long0x50
 4216 1680 02        	.uleb128 0x2
 4217 1681 91        	.byte0x91
 4218 1682 74        	.sleb128 -12
 4219 1683 00        	.byte0
 4220 1684 25        	.uleb128 0x25
 4221 1685 0000 0000 	.long.LASF337
 4222 1689 01        	.byte0x1
68K GAS   			page 95


 4223 168a 028C      	.word0x28c
 4224 168c 0000 0050 	.long0x50
 4225 1690 0000 0000 	.long.LFB68
 4226 1694 0000 0020 	.long.LFE68-.LFB68
 4227 1698 01        	.uleb128 0x1
 4228 1699 9C        	.byte0x9c
 4229 169a 0000 16AE 	.long0x16ae
 4230 169e 27        	.uleb128 0x27
 4231 169f 0000 0000 	.long.LASF328
 4232 16a3 01        	.byte0x1
 4233 16a4 028E      	.word0x28e
 4234 16a6 0000 0050 	.long0x50
 4235 16aa 02        	.uleb128 0x2
 4236 16ab 91        	.byte0x91
 4237 16ac 78        	.sleb128 -8
 4238 16ad 00        	.byte0
 4239 16ae 25        	.uleb128 0x25
 4240 16af 0000 0000 	.long.LASF338
 4241 16b3 01        	.byte0x1
 4242 16b4 0275      	.word0x275
 4243 16b6 0000 0050 	.long0x50
 4244 16ba 0000 0000 	.long.LFB67
 4245 16be 0000 0020 	.long.LFE67-.LFB67
 4246 16c2 01        	.uleb128 0x1
 4247 16c3 9C        	.byte0x9c
 4248 16c4 0000 16D8 	.long0x16d8
 4249 16c8 27        	.uleb128 0x27
 4250 16c9 0000 0000 	.long.LASF328
 4251 16cd 01        	.byte0x1
 4252 16ce 0277      	.word0x277
 4253 16d0 0000 0050 	.long0x50
 4254 16d4 02        	.uleb128 0x2
 4255 16d5 91        	.byte0x91
 4256 16d6 78        	.sleb128 -8
 4257 16d7 00        	.byte0
 4258 16d8 2A        	.uleb128 0x2a
 4259 16d9 0000 0000 	.long.LASF354
 4260 16dd 01        	.byte0x1
 4261 16de 025E      	.word0x25e
 4262 16e0 0000 0000 	.long.LFB66
 4263 16e4 0000 0048 	.long.LFE66-.LFB66
 4264 16e8 01        	.uleb128 0x1
 4265 16e9 9C        	.byte0x9c
 4266 16ea 0000 172B 	.long0x172b
 4267 16ee 26        	.uleb128 0x26
 4268 16ef 0000 0000 	.long.LASF339
 4269 16f3 01        	.byte0x1
 4270 16f4 025E      	.word0x25e
 4271 16f6 0000 066D 	.long0x66d
 4272 16fa 02        	.uleb128 0x2
 4273 16fb 91        	.byte0x91
 4274 16fc 00        	.sleb128 0
 4275 16fd 26        	.uleb128 0x26
 4276 16fe 0000 0000 	.long.LASF326
 4277 1702 01        	.byte0x1
 4278 1703 025E      	.word0x25e
 4279 1705 0000 0182 	.long0x182
68K GAS   			page 96


 4280 1709 02        	.uleb128 0x2
 4281 170a 91        	.byte0x91
 4282 170b 04        	.sleb128 4
 4283 170c 26        	.uleb128 0x26
 4284 170d 0000 0000 	.long.LASF340
 4285 1711 01        	.byte0x1
 4286 1712 025E      	.word0x25e
 4287 1714 0000 0086 	.long0x86
 4288 1718 02        	.uleb128 0x2
 4289 1719 91        	.byte0x91
 4290 171a 08        	.sleb128 8
 4291 171b 27        	.uleb128 0x27
 4292 171c 0000 0000 	.long.LASF164
 4293 1720 01        	.byte0x1
 4294 1721 0260      	.word0x260
 4295 1723 0000 00C2 	.long0xc2
 4296 1727 02        	.uleb128 0x2
 4297 1728 91        	.byte0x91
 4298 1729 68        	.sleb128 -24
 4299 172a 00        	.byte0
 4300 172b 25        	.uleb128 0x25
 4301 172c 0000 0000 	.long.LASF341
 4302 1730 01        	.byte0x1
 4303 1731 0240      	.word0x240
 4304 1733 0000 0050 	.long0x50
 4305 1737 0000 0000 	.long.LFB65
 4306 173b 0000 005C 	.long.LFE65-.LFB65
 4307 173f 01        	.uleb128 0x1
 4308 1740 9C        	.byte0x9c
 4309 1741 0000 1764 	.long0x1764
 4310 1745 26        	.uleb128 0x26
 4311 1746 0000 0000 	.long.LASF342
 4312 174a 01        	.byte0x1
 4313 174b 0240      	.word0x240
 4314 174d 0000 1764 	.long0x1764
 4315 1751 02        	.uleb128 0x2
 4316 1752 91        	.byte0x91
 4317 1753 00        	.sleb128 0
 4318 1754 27        	.uleb128 0x27
 4319 1755 0000 0000 	.long.LASF328
 4320 1759 01        	.byte0x1
 4321 175a 0242      	.word0x242
 4322 175c 0000 0050 	.long0x50
 4323 1760 02        	.uleb128 0x2
 4324 1761 91        	.byte0x91
 4325 1762 78        	.sleb128 -8
 4326 1763 00        	.byte0
 4327 1764 0D        	.uleb128 0xd
 4328 1765 04        	.byte0x4
 4329 1766 0000 0086 	.long0x86
 4330 176a 25        	.uleb128 0x25
 4331 176b 0000 0000 	.long.LASF343
 4332 176f 01        	.byte0x1
 4333 1770 0228      	.word0x228
 4334 1772 0000 0050 	.long0x50
 4335 1776 0000 0000 	.long.LFB64
 4336 177a 0000 003A 	.long.LFE64-.LFB64
68K GAS   			page 97


 4337 177e 01        	.uleb128 0x1
 4338 177f 9C        	.byte0x9c
 4339 1780 0000 1794 	.long0x1794
 4340 1784 27        	.uleb128 0x27
 4341 1785 0000 0000 	.long.LASF328
 4342 1789 01        	.byte0x1
 4343 178a 022A      	.word0x22a
 4344 178c 0000 0050 	.long0x50
 4345 1790 02        	.uleb128 0x2
 4346 1791 91        	.byte0x91
 4347 1792 78        	.sleb128 -8
 4348 1793 00        	.byte0
 4349 1794 25        	.uleb128 0x25
 4350 1795 0000 0000 	.long.LASF344
 4351 1799 01        	.byte0x1
 4352 179a 0200      	.word0x200
 4353 179c 0000 0050 	.long0x50
 4354 17a0 0000 0000 	.long.LFB63
 4355 17a4 0000 00CE 	.long.LFE63-.LFB63
 4356 17a8 01        	.uleb128 0x1
 4357 17a9 9C        	.byte0x9c
 4358 17aa 0000 17CB 	.long0x17cb
 4359 17ae 27        	.uleb128 0x27
 4360 17af 0000 0000 	.long.LASF328
 4361 17b3 01        	.byte0x1
 4362 17b4 0202      	.word0x202
 4363 17b6 0000 0050 	.long0x50
 4364 17ba 02        	.uleb128 0x2
 4365 17bb 91        	.byte0x91
 4366 17bc 78        	.sleb128 -8
 4367 17bd 28        	.uleb128 0x28
 4368 17be 6900      	.string"i"
 4369 17c0 01        	.byte0x1
 4370 17c1 0203      	.word0x203
 4371 17c3 0000 0086 	.long0x86
 4372 17c7 02        	.uleb128 0x2
 4373 17c8 91        	.byte0x91
 4374 17c9 74        	.sleb128 -12
 4375 17ca 00        	.byte0
 4376 17cb 25        	.uleb128 0x25
 4377 17cc 0000 0000 	.long.LASF345
 4378 17d0 01        	.byte0x1
 4379 17d1 01A4      	.word0x1a4
 4380 17d3 0000 0050 	.long0x50
 4381 17d7 0000 0000 	.long.LFB62
 4382 17db 0000 01AA 	.long.LFE62-.LFB62
 4383 17df 01        	.uleb128 0x1
 4384 17e0 9C        	.byte0x9c
 4385 17e1 0000 1833 	.long0x1833
 4386 17e5 26        	.uleb128 0x26
 4387 17e6 0000 0000 	.long.LASF234
 4388 17ea 01        	.byte0x1
 4389 17eb 01A4      	.word0x1a4
 4390 17ed 0000 0086 	.long0x86
 4391 17f1 02        	.uleb128 0x2
 4392 17f2 91        	.byte0x91
 4393 17f3 00        	.sleb128 0
68K GAS   			page 98


 4394 17f4 27        	.uleb128 0x27
 4395 17f5 0000 0000 	.long.LASF328
 4396 17f9 01        	.byte0x1
 4397 17fa 01A6      	.word0x1a6
 4398 17fc 0000 0050 	.long0x50
 4399 1800 02        	.uleb128 0x2
 4400 1801 91        	.byte0x91
 4401 1802 78        	.sleb128 -8
 4402 1803 27        	.uleb128 0x27
 4403 1804 0000 0000 	.long.LASF346
 4404 1808 01        	.byte0x1
 4405 1809 01A7      	.word0x1a7
 4406 180b 0000 0A9D 	.long0xa9d
 4407 180f 03        	.uleb128 0x3
 4408 1810 91        	.byte0x91
 4409 1811 F47E      	.sleb128 -140
 4410 1813 27        	.uleb128 0x27
 4411 1814 0000 0000 	.long.LASF347
 4412 1818 01        	.byte0x1
 4413 1819 01A8      	.word0x1a8
 4414 181b 0000 0086 	.long0x86
 4415 181f 02        	.uleb128 0x2
 4416 1820 91        	.byte0x91
 4417 1821 74        	.sleb128 -12
 4418 1822 27        	.uleb128 0x27
 4419 1823 0000 0000 	.long.LASF348
 4420 1827 01        	.byte0x1
 4421 1828 01A9      	.word0x1a9
 4422 182a 0000 0086 	.long0x86
 4423 182e 03        	.uleb128 0x3
 4424 182f 91        	.byte0x91
 4425 1830 F07E      	.sleb128 -144
 4426 1832 00        	.byte0
 4427 1833 25        	.uleb128 0x25
 4428 1834 0000 0000 	.long.LASF349
 4429 1838 01        	.byte0x1
 4430 1839 016F      	.word0x16f
 4431 183b 0000 0050 	.long0x50
 4432 183f 0000 0000 	.long.LFB61
 4433 1843 0000 00C0 	.long.LFE61-.LFB61
 4434 1847 01        	.uleb128 0x1
 4435 1848 9C        	.byte0x9c
 4436 1849 0000 185D 	.long0x185d
 4437 184d 27        	.uleb128 0x27
 4438 184e 0000 0000 	.long.LASF328
 4439 1852 01        	.byte0x1
 4440 1853 0172      	.word0x172
 4441 1855 0000 0050 	.long0x50
 4442 1859 02        	.uleb128 0x2
 4443 185a 91        	.byte0x91
 4444 185b 78        	.sleb128 -8
 4445 185c 00        	.byte0
 4446 185d 25        	.uleb128 0x25
 4447 185e 0000 0000 	.long.LASF350
 4448 1862 01        	.byte0x1
 4449 1863 010D      	.word0x10d
 4450 1865 0000 0050 	.long0x50
68K GAS   			page 99


 4451 1869 0000 0000 	.long.LFB60
 4452 186d 0000 0170 	.long.LFE60-.LFB60
 4453 1871 01        	.uleb128 0x1
 4454 1872 9C        	.byte0x9c
 4455 1873 0000 18E1 	.long0x18e1
 4456 1877 26        	.uleb128 0x26
 4457 1878 0000 0000 	.long.LASF351
 4458 187c 01        	.byte0x1
 4459 187d 010D      	.word0x10d
 4460 187f 0000 18E1 	.long0x18e1
 4461 1883 02        	.uleb128 0x2
 4462 1884 91        	.byte0x91
 4463 1885 00        	.sleb128 0
 4464 1886 26        	.uleb128 0x26
 4465 1887 0000 0000 	.long.LASF352
 4466 188b 01        	.byte0x1
 4467 188c 010D      	.word0x10d
 4468 188e 0000 0050 	.long0x50
 4469 1892 02        	.uleb128 0x2
 4470 1893 91        	.byte0x91
 4471 1894 04        	.sleb128 4
 4472 1895 26        	.uleb128 0x26
 4473 1896 0000 0000 	.long.LASF182
 4474 189a 01        	.byte0x1
 4475 189b 010D      	.word0x10d
 4476 189d 0000 0182 	.long0x182
 4477 18a1 02        	.uleb128 0x2
 4478 18a2 91        	.byte0x91
 4479 18a3 08        	.sleb128 8
 4480 18a4 26        	.uleb128 0x26
 4481 18a5 0000 0000 	.long.LASF353
 4482 18a9 01        	.byte0x1
 4483 18aa 010D      	.word0x10d
 4484 18ac 0000 00AA 	.long0xaa
 4485 18b0 02        	.uleb128 0x2
 4486 18b1 91        	.byte0x91
 4487 18b2 6C        	.sleb128 -20
 4488 18b3 27        	.uleb128 0x27
 4489 18b4 0000 0000 	.long.LASF328
 4490 18b8 01        	.byte0x1
 4491 18b9 010F      	.word0x10f
 4492 18bb 0000 0050 	.long0x50
 4493 18bf 02        	.uleb128 0x2
 4494 18c0 91        	.byte0x91
 4495 18c1 78        	.sleb128 -8
 4496 18c2 27        	.uleb128 0x27
 4497 18c3 0000 0000 	.long.LASF329
 4498 18c7 01        	.byte0x1
 4499 18c8 0110      	.word0x110
 4500 18ca 0000 0086 	.long0x86
 4501 18ce 02        	.uleb128 0x2
 4502 18cf 91        	.byte0x91
 4503 18d0 74        	.sleb128 -12
 4504 18d1 27        	.uleb128 0x27
 4505 18d2 0000 0000 	.long.LASF330
 4506 18d6 01        	.byte0x1
 4507 18d7 0111      	.word0x111
68K GAS   			page 100


 4508 18d9 0000 15C8 	.long0x15c8
 4509 18dd 02        	.uleb128 0x2
 4510 18de 91        	.byte0x91
 4511 18df 70        	.sleb128 -16
 4512 18e0 00        	.byte0
 4513 18e1 0D        	.uleb128 0xd
 4514 18e2 04        	.byte0x4
 4515 18e3 0000 09F9 	.long0x9f9
 4516 18e7 2B        	.uleb128 0x2b
 4517 18e8 0000 0000 	.long.LASF355
 4518 18ec 01        	.byte0x1
 4519 18ed BC        	.byte0xbc
 4520 18ee 0000 0050 	.long0x50
 4521 18f2 0000 0000 	.long.LFB59
 4522 18f6 0000 013E 	.long.LFE59-.LFB59
 4523 18fa 01        	.uleb128 0x1
 4524 18fb 9C        	.byte0x9c
 4525 18fc 2C        	.uleb128 0x2c
 4526 18fd 0000 0000 	.long.LASF356
 4527 1901 01        	.byte0x1
 4528 1902 BE        	.byte0xbe
 4529 1903 0000 0086 	.long0x86
 4530 1907 02        	.uleb128 0x2
 4531 1908 91        	.byte0x91
 4532 1909 74        	.sleb128 -12
 4533 190a 2C        	.uleb128 0x2c
 4534 190b 0000 0000 	.long.LASF328
 4535 190f 01        	.byte0x1
 4536 1910 BF        	.byte0xbf
 4537 1911 0000 0050 	.long0x50
 4538 1915 02        	.uleb128 0x2
 4539 1916 91        	.byte0x91
 4540 1917 78        	.sleb128 -8
 4541 1918 00        	.byte0
 4542 1919 00        	.byte0
 4543               	.section.debug_abbrev,"",@progbits
 4544               	.Ldebug_abbrev0:
 4545 0000 01        	.uleb128 0x1
 4546 0001 11        	.uleb128 0x11
 4547 0002 01        	.byte0x1
 4548 0003 25        	.uleb128 0x25
 4549 0004 0E        	.uleb128 0xe
 4550 0005 13        	.uleb128 0x13
 4551 0006 0B        	.uleb128 0xb
 4552 0007 03        	.uleb128 0x3
 4553 0008 0E        	.uleb128 0xe
 4554 0009 1B        	.uleb128 0x1b
 4555 000a 0E        	.uleb128 0xe
 4556 000b 11        	.uleb128 0x11
 4557 000c 01        	.uleb128 0x1
 4558 000d 12        	.uleb128 0x12
 4559 000e 06        	.uleb128 0x6
 4560 000f 10        	.uleb128 0x10
 4561 0010 17        	.uleb128 0x17
 4562 0011 00        	.byte0
 4563 0012 00        	.byte0
 4564 0013 02        	.uleb128 0x2
68K GAS   			page 101


 4565 0014 16        	.uleb128 0x16
 4566 0015 00        	.byte0
 4567 0016 03        	.uleb128 0x3
 4568 0017 0E        	.uleb128 0xe
 4569 0018 3A        	.uleb128 0x3a
 4570 0019 0B        	.uleb128 0xb
 4571 001a 3B        	.uleb128 0x3b
 4572 001b 0B        	.uleb128 0xb
 4573 001c 49        	.uleb128 0x49
 4574 001d 13        	.uleb128 0x13
 4575 001e 00        	.byte0
 4576 001f 00        	.byte0
 4577 0020 03        	.uleb128 0x3
 4578 0021 24        	.uleb128 0x24
 4579 0022 00        	.byte0
 4580 0023 0B        	.uleb128 0xb
 4581 0024 0B        	.uleb128 0xb
 4582 0025 3E        	.uleb128 0x3e
 4583 0026 0B        	.uleb128 0xb
 4584 0027 03        	.uleb128 0x3
 4585 0028 0E        	.uleb128 0xe
 4586 0029 00        	.byte0
 4587 002a 00        	.byte0
 4588 002b 04        	.uleb128 0x4
 4589 002c 16        	.uleb128 0x16
 4590 002d 00        	.byte0
 4591 002e 03        	.uleb128 0x3
 4592 002f 0E        	.uleb128 0xe
 4593 0030 3A        	.uleb128 0x3a
 4594 0031 0B        	.uleb128 0xb
 4595 0032 3B        	.uleb128 0x3b
 4596 0033 05        	.uleb128 0x5
 4597 0034 49        	.uleb128 0x49
 4598 0035 13        	.uleb128 0x13
 4599 0036 00        	.byte0
 4600 0037 00        	.byte0
 4601 0038 05        	.uleb128 0x5
 4602 0039 26        	.uleb128 0x26
 4603 003a 00        	.byte0
 4604 003b 49        	.uleb128 0x49
 4605 003c 13        	.uleb128 0x13
 4606 003d 00        	.byte0
 4607 003e 00        	.byte0
 4608 003f 06        	.uleb128 0x6
 4609 0040 01        	.uleb128 0x1
 4610 0041 01        	.byte0x1
 4611 0042 49        	.uleb128 0x49
 4612 0043 13        	.uleb128 0x13
 4613 0044 01        	.uleb128 0x1
 4614 0045 13        	.uleb128 0x13
 4615 0046 00        	.byte0
 4616 0047 00        	.byte0
 4617 0048 07        	.uleb128 0x7
 4618 0049 21        	.uleb128 0x21
 4619 004a 00        	.byte0
 4620 004b 49        	.uleb128 0x49
 4621 004c 13        	.uleb128 0x13
68K GAS   			page 102


 4622 004d 2F        	.uleb128 0x2f
 4623 004e 0B        	.uleb128 0xb
 4624 004f 00        	.byte0
 4625 0050 00        	.byte0
 4626 0051 08        	.uleb128 0x8
 4627 0052 0F        	.uleb128 0xf
 4628 0053 00        	.byte0
 4629 0054 0B        	.uleb128 0xb
 4630 0055 0B        	.uleb128 0xb
 4631 0056 00        	.byte0
 4632 0057 00        	.byte0
 4633 0058 09        	.uleb128 0x9
 4634 0059 24        	.uleb128 0x24
 4635 005a 00        	.byte0
 4636 005b 0B        	.uleb128 0xb
 4637 005c 0B        	.uleb128 0xb
 4638 005d 3E        	.uleb128 0x3e
 4639 005e 0B        	.uleb128 0xb
 4640 005f 03        	.uleb128 0x3
 4641 0060 08        	.uleb128 0x8
 4642 0061 00        	.byte0
 4643 0062 00        	.byte0
 4644 0063 0A        	.uleb128 0xa
 4645 0064 13        	.uleb128 0x13
 4646 0065 01        	.byte0x1
 4647 0066 03        	.uleb128 0x3
 4648 0067 0E        	.uleb128 0xe
 4649 0068 0B        	.uleb128 0xb
 4650 0069 0B        	.uleb128 0xb
 4651 006a 3A        	.uleb128 0x3a
 4652 006b 0B        	.uleb128 0xb
 4653 006c 3B        	.uleb128 0x3b
 4654 006d 0B        	.uleb128 0xb
 4655 006e 01        	.uleb128 0x1
 4656 006f 13        	.uleb128 0x13
 4657 0070 00        	.byte0
 4658 0071 00        	.byte0
 4659 0072 0B        	.uleb128 0xb
 4660 0073 0D        	.uleb128 0xd
 4661 0074 00        	.byte0
 4662 0075 03        	.uleb128 0x3
 4663 0076 0E        	.uleb128 0xe
 4664 0077 3A        	.uleb128 0x3a
 4665 0078 0B        	.uleb128 0xb
 4666 0079 3B        	.uleb128 0x3b
 4667 007a 0B        	.uleb128 0xb
 4668 007b 49        	.uleb128 0x49
 4669 007c 13        	.uleb128 0x13
 4670 007d 38        	.uleb128 0x38
 4671 007e 0B        	.uleb128 0xb
 4672 007f 00        	.byte0
 4673 0080 00        	.byte0
 4674 0081 0C        	.uleb128 0xc
 4675 0082 13        	.uleb128 0x13
 4676 0083 00        	.byte0
 4677 0084 03        	.uleb128 0x3
 4678 0085 0E        	.uleb128 0xe
68K GAS   			page 103


 4679 0086 3C        	.uleb128 0x3c
 4680 0087 19        	.uleb128 0x19
 4681 0088 00        	.byte0
 4682 0089 00        	.byte0
 4683 008a 0D        	.uleb128 0xd
 4684 008b 0F        	.uleb128 0xf
 4685 008c 00        	.byte0
 4686 008d 0B        	.uleb128 0xb
 4687 008e 0B        	.uleb128 0xb
 4688 008f 49        	.uleb128 0x49
 4689 0090 13        	.uleb128 0x13
 4690 0091 00        	.byte0
 4691 0092 00        	.byte0
 4692 0093 0E        	.uleb128 0xe
 4693 0094 17        	.uleb128 0x17
 4694 0095 01        	.byte0x1
 4695 0096 0B        	.uleb128 0xb
 4696 0097 0B        	.uleb128 0xb
 4697 0098 3A        	.uleb128 0x3a
 4698 0099 0B        	.uleb128 0xb
 4699 009a 3B        	.uleb128 0x3b
 4700 009b 0B        	.uleb128 0xb
 4701 009c 01        	.uleb128 0x1
 4702 009d 13        	.uleb128 0x13
 4703 009e 00        	.byte0
 4704 009f 00        	.byte0
 4705 00a0 0F        	.uleb128 0xf
 4706 00a1 0D        	.uleb128 0xd
 4707 00a2 00        	.byte0
 4708 00a3 03        	.uleb128 0x3
 4709 00a4 0E        	.uleb128 0xe
 4710 00a5 3A        	.uleb128 0x3a
 4711 00a6 0B        	.uleb128 0xb
 4712 00a7 3B        	.uleb128 0x3b
 4713 00a8 0B        	.uleb128 0xb
 4714 00a9 49        	.uleb128 0x49
 4715 00aa 13        	.uleb128 0x13
 4716 00ab 00        	.byte0
 4717 00ac 00        	.byte0
 4718 00ad 10        	.uleb128 0x10
 4719 00ae 13        	.uleb128 0x13
 4720 00af 01        	.byte0x1
 4721 00b0 0B        	.uleb128 0xb
 4722 00b1 0B        	.uleb128 0xb
 4723 00b2 3A        	.uleb128 0x3a
 4724 00b3 0B        	.uleb128 0xb
 4725 00b4 3B        	.uleb128 0x3b
 4726 00b5 0B        	.uleb128 0xb
 4727 00b6 01        	.uleb128 0x1
 4728 00b7 13        	.uleb128 0x13
 4729 00b8 00        	.byte0
 4730 00b9 00        	.byte0
 4731 00ba 11        	.uleb128 0x11
 4732 00bb 0D        	.uleb128 0xd
 4733 00bc 00        	.byte0
 4734 00bd 03        	.uleb128 0x3
 4735 00be 08        	.uleb128 0x8
68K GAS   			page 104


 4736 00bf 3A        	.uleb128 0x3a
 4737 00c0 0B        	.uleb128 0xb
 4738 00c1 3B        	.uleb128 0x3b
 4739 00c2 0B        	.uleb128 0xb
 4740 00c3 49        	.uleb128 0x49
 4741 00c4 13        	.uleb128 0x13
 4742 00c5 38        	.uleb128 0x38
 4743 00c6 0B        	.uleb128 0xb
 4744 00c7 00        	.byte0
 4745 00c8 00        	.byte0
 4746 00c9 12        	.uleb128 0x12
 4747 00ca 13        	.uleb128 0x13
 4748 00cb 01        	.byte0x1
 4749 00cc 03        	.uleb128 0x3
 4750 00cd 0E        	.uleb128 0xe
 4751 00ce 0B        	.uleb128 0xb
 4752 00cf 05        	.uleb128 0x5
 4753 00d0 3A        	.uleb128 0x3a
 4754 00d1 0B        	.uleb128 0xb
 4755 00d2 3B        	.uleb128 0x3b
 4756 00d3 0B        	.uleb128 0xb
 4757 00d4 01        	.uleb128 0x1
 4758 00d5 13        	.uleb128 0x13
 4759 00d6 00        	.byte0
 4760 00d7 00        	.byte0
 4761 00d8 13        	.uleb128 0x13
 4762 00d9 0D        	.uleb128 0xd
 4763 00da 00        	.byte0
 4764 00db 03        	.uleb128 0x3
 4765 00dc 0E        	.uleb128 0xe
 4766 00dd 3A        	.uleb128 0x3a
 4767 00de 0B        	.uleb128 0xb
 4768 00df 3B        	.uleb128 0x3b
 4769 00e0 0B        	.uleb128 0xb
 4770 00e1 49        	.uleb128 0x49
 4771 00e2 13        	.uleb128 0x13
 4772 00e3 38        	.uleb128 0x38
 4773 00e4 05        	.uleb128 0x5
 4774 00e5 00        	.byte0
 4775 00e6 00        	.byte0
 4776 00e7 14        	.uleb128 0x14
 4777 00e8 15        	.uleb128 0x15
 4778 00e9 00        	.byte0
 4779 00ea 27        	.uleb128 0x27
 4780 00eb 19        	.uleb128 0x19
 4781 00ec 00        	.byte0
 4782 00ed 00        	.byte0
 4783 00ee 15        	.uleb128 0x15
 4784 00ef 15        	.uleb128 0x15
 4785 00f0 01        	.byte0x1
 4786 00f1 27        	.uleb128 0x27
 4787 00f2 19        	.uleb128 0x19
 4788 00f3 49        	.uleb128 0x49
 4789 00f4 13        	.uleb128 0x13
 4790 00f5 01        	.uleb128 0x1
 4791 00f6 13        	.uleb128 0x13
 4792 00f7 00        	.byte0
68K GAS   			page 105


 4793 00f8 00        	.byte0
 4794 00f9 16        	.uleb128 0x16
 4795 00fa 05        	.uleb128 0x5
 4796 00fb 00        	.byte0
 4797 00fc 49        	.uleb128 0x49
 4798 00fd 13        	.uleb128 0x13
 4799 00fe 00        	.byte0
 4800 00ff 00        	.byte0
 4801 0100 17        	.uleb128 0x17
 4802 0101 13        	.uleb128 0x13
 4803 0102 01        	.byte0x1
 4804 0103 03        	.uleb128 0x3
 4805 0104 0E        	.uleb128 0xe
 4806 0105 0B        	.uleb128 0xb
 4807 0106 05        	.uleb128 0x5
 4808 0107 3A        	.uleb128 0x3a
 4809 0108 0B        	.uleb128 0xb
 4810 0109 3B        	.uleb128 0x3b
 4811 010a 05        	.uleb128 0x5
 4812 010b 01        	.uleb128 0x1
 4813 010c 13        	.uleb128 0x13
 4814 010d 00        	.byte0
 4815 010e 00        	.byte0
 4816 010f 18        	.uleb128 0x18
 4817 0110 0D        	.uleb128 0xd
 4818 0111 00        	.byte0
 4819 0112 03        	.uleb128 0x3
 4820 0113 0E        	.uleb128 0xe
 4821 0114 3A        	.uleb128 0x3a
 4822 0115 0B        	.uleb128 0xb
 4823 0116 3B        	.uleb128 0x3b
 4824 0117 05        	.uleb128 0x5
 4825 0118 49        	.uleb128 0x49
 4826 0119 13        	.uleb128 0x13
 4827 011a 38        	.uleb128 0x38
 4828 011b 0B        	.uleb128 0xb
 4829 011c 00        	.byte0
 4830 011d 00        	.byte0
 4831 011e 19        	.uleb128 0x19
 4832 011f 0D        	.uleb128 0xd
 4833 0120 00        	.byte0
 4834 0121 03        	.uleb128 0x3
 4835 0122 0E        	.uleb128 0xe
 4836 0123 3A        	.uleb128 0x3a
 4837 0124 0B        	.uleb128 0xb
 4838 0125 3B        	.uleb128 0x3b
 4839 0126 05        	.uleb128 0x5
 4840 0127 49        	.uleb128 0x49
 4841 0128 13        	.uleb128 0x13
 4842 0129 38        	.uleb128 0x38
 4843 012a 05        	.uleb128 0x5
 4844 012b 00        	.byte0
 4845 012c 00        	.byte0
 4846 012d 1A        	.uleb128 0x1a
 4847 012e 13        	.uleb128 0x13
 4848 012f 01        	.byte0x1
 4849 0130 03        	.uleb128 0x3
68K GAS   			page 106


 4850 0131 0E        	.uleb128 0xe
 4851 0132 0B        	.uleb128 0xb
 4852 0133 0B        	.uleb128 0xb
 4853 0134 3A        	.uleb128 0x3a
 4854 0135 0B        	.uleb128 0xb
 4855 0136 3B        	.uleb128 0x3b
 4856 0137 05        	.uleb128 0x5
 4857 0138 01        	.uleb128 0x1
 4858 0139 13        	.uleb128 0x13
 4859 013a 00        	.byte0
 4860 013b 00        	.byte0
 4861 013c 1B        	.uleb128 0x1b
 4862 013d 13        	.uleb128 0x13
 4863 013e 01        	.byte0x1
 4864 013f 0B        	.uleb128 0xb
 4865 0140 0B        	.uleb128 0xb
 4866 0141 3A        	.uleb128 0x3a
 4867 0142 0B        	.uleb128 0xb
 4868 0143 3B        	.uleb128 0x3b
 4869 0144 05        	.uleb128 0x5
 4870 0145 01        	.uleb128 0x1
 4871 0146 13        	.uleb128 0x13
 4872 0147 00        	.byte0
 4873 0148 00        	.byte0
 4874 0149 1C        	.uleb128 0x1c
 4875 014a 17        	.uleb128 0x17
 4876 014b 01        	.byte0x1
 4877 014c 0B        	.uleb128 0xb
 4878 014d 0B        	.uleb128 0xb
 4879 014e 3A        	.uleb128 0x3a
 4880 014f 0B        	.uleb128 0xb
 4881 0150 3B        	.uleb128 0x3b
 4882 0151 05        	.uleb128 0x5
 4883 0152 01        	.uleb128 0x1
 4884 0153 13        	.uleb128 0x13
 4885 0154 00        	.byte0
 4886 0155 00        	.byte0
 4887 0156 1D        	.uleb128 0x1d
 4888 0157 0D        	.uleb128 0xd
 4889 0158 00        	.byte0
 4890 0159 03        	.uleb128 0x3
 4891 015a 0E        	.uleb128 0xe
 4892 015b 3A        	.uleb128 0x3a
 4893 015c 0B        	.uleb128 0xb
 4894 015d 3B        	.uleb128 0x3b
 4895 015e 05        	.uleb128 0x5
 4896 015f 49        	.uleb128 0x49
 4897 0160 13        	.uleb128 0x13
 4898 0161 00        	.byte0
 4899 0162 00        	.byte0
 4900 0163 1E        	.uleb128 0x1e
 4901 0164 15        	.uleb128 0x15
 4902 0165 01        	.byte0x1
 4903 0166 27        	.uleb128 0x27
 4904 0167 19        	.uleb128 0x19
 4905 0168 01        	.uleb128 0x1
 4906 0169 13        	.uleb128 0x13
68K GAS   			page 107


 4907 016a 00        	.byte0
 4908 016b 00        	.byte0
 4909 016c 1F        	.uleb128 0x1f
 4910 016d 34        	.uleb128 0x34
 4911 016e 00        	.byte0
 4912 016f 03        	.uleb128 0x3
 4913 0170 0E        	.uleb128 0xe
 4914 0171 3A        	.uleb128 0x3a
 4915 0172 0B        	.uleb128 0xb
 4916 0173 3B        	.uleb128 0x3b
 4917 0174 05        	.uleb128 0x5
 4918 0175 49        	.uleb128 0x49
 4919 0176 13        	.uleb128 0x13
 4920 0177 3F        	.uleb128 0x3f
 4921 0178 19        	.uleb128 0x19
 4922 0179 3C        	.uleb128 0x3c
 4923 017a 19        	.uleb128 0x19
 4924 017b 00        	.byte0
 4925 017c 00        	.byte0
 4926 017d 20        	.uleb128 0x20
 4927 017e 34        	.uleb128 0x34
 4928 017f 00        	.byte0
 4929 0180 03        	.uleb128 0x3
 4930 0181 0E        	.uleb128 0xe
 4931 0182 3A        	.uleb128 0x3a
 4932 0183 0B        	.uleb128 0xb
 4933 0184 3B        	.uleb128 0x3b
 4934 0185 0B        	.uleb128 0xb
 4935 0186 49        	.uleb128 0x49
 4936 0187 13        	.uleb128 0x13
 4937 0188 3F        	.uleb128 0x3f
 4938 0189 19        	.uleb128 0x19
 4939 018a 3C        	.uleb128 0x3c
 4940 018b 19        	.uleb128 0x19
 4941 018c 00        	.byte0
 4942 018d 00        	.byte0
 4943 018e 21        	.uleb128 0x21
 4944 018f 13        	.uleb128 0x13
 4945 0190 01        	.byte0x1
 4946 0191 0B        	.uleb128 0xb
 4947 0192 05        	.uleb128 0x5
 4948 0193 3A        	.uleb128 0x3a
 4949 0194 0B        	.uleb128 0xb
 4950 0195 3B        	.uleb128 0x3b
 4951 0196 0B        	.uleb128 0xb
 4952 0197 01        	.uleb128 0x1
 4953 0198 13        	.uleb128 0x13
 4954 0199 00        	.byte0
 4955 019a 00        	.byte0
 4956 019b 22        	.uleb128 0x22
 4957 019c 21        	.uleb128 0x21
 4958 019d 00        	.byte0
 4959 019e 49        	.uleb128 0x49
 4960 019f 13        	.uleb128 0x13
 4961 01a0 2F        	.uleb128 0x2f
 4962 01a1 05        	.uleb128 0x5
 4963 01a2 00        	.byte0
68K GAS   			page 108


 4964 01a3 00        	.byte0
 4965 01a4 23        	.uleb128 0x23
 4966 01a5 13        	.uleb128 0x13
 4967 01a6 01        	.byte0x1
 4968 01a7 0B        	.uleb128 0xb
 4969 01a8 06        	.uleb128 0x6
 4970 01a9 3A        	.uleb128 0x3a
 4971 01aa 0B        	.uleb128 0xb
 4972 01ab 3B        	.uleb128 0x3b
 4973 01ac 0B        	.uleb128 0xb
 4974 01ad 01        	.uleb128 0x1
 4975 01ae 13        	.uleb128 0x13
 4976 01af 00        	.byte0
 4977 01b0 00        	.byte0
 4978 01b1 24        	.uleb128 0x24
 4979 01b2 0D        	.uleb128 0xd
 4980 01b3 00        	.byte0
 4981 01b4 03        	.uleb128 0x3
 4982 01b5 0E        	.uleb128 0xe
 4983 01b6 3A        	.uleb128 0x3a
 4984 01b7 0B        	.uleb128 0xb
 4985 01b8 3B        	.uleb128 0x3b
 4986 01b9 0B        	.uleb128 0xb
 4987 01ba 49        	.uleb128 0x49
 4988 01bb 13        	.uleb128 0x13
 4989 01bc 38        	.uleb128 0x38
 4990 01bd 06        	.uleb128 0x6
 4991 01be 00        	.byte0
 4992 01bf 00        	.byte0
 4993 01c0 25        	.uleb128 0x25
 4994 01c1 2E        	.uleb128 0x2e
 4995 01c2 01        	.byte0x1
 4996 01c3 3F        	.uleb128 0x3f
 4997 01c4 19        	.uleb128 0x19
 4998 01c5 03        	.uleb128 0x3
 4999 01c6 0E        	.uleb128 0xe
 5000 01c7 3A        	.uleb128 0x3a
 5001 01c8 0B        	.uleb128 0xb
 5002 01c9 3B        	.uleb128 0x3b
 5003 01ca 05        	.uleb128 0x5
 5004 01cb 27        	.uleb128 0x27
 5005 01cc 19        	.uleb128 0x19
 5006 01cd 49        	.uleb128 0x49
 5007 01ce 13        	.uleb128 0x13
 5008 01cf 11        	.uleb128 0x11
 5009 01d0 01        	.uleb128 0x1
 5010 01d1 12        	.uleb128 0x12
 5011 01d2 06        	.uleb128 0x6
 5012 01d3 40        	.uleb128 0x40
 5013 01d4 18        	.uleb128 0x18
 5014 01d5 9642      	.uleb128 0x2116
 5015 01d7 19        	.uleb128 0x19
 5016 01d8 01        	.uleb128 0x1
 5017 01d9 13        	.uleb128 0x13
 5018 01da 00        	.byte0
 5019 01db 00        	.byte0
 5020 01dc 26        	.uleb128 0x26
68K GAS   			page 109


 5021 01dd 05        	.uleb128 0x5
 5022 01de 00        	.byte0
 5023 01df 03        	.uleb128 0x3
 5024 01e0 0E        	.uleb128 0xe
 5025 01e1 3A        	.uleb128 0x3a
 5026 01e2 0B        	.uleb128 0xb
 5027 01e3 3B        	.uleb128 0x3b
 5028 01e4 05        	.uleb128 0x5
 5029 01e5 49        	.uleb128 0x49
 5030 01e6 13        	.uleb128 0x13
 5031 01e7 02        	.uleb128 0x2
 5032 01e8 18        	.uleb128 0x18
 5033 01e9 00        	.byte0
 5034 01ea 00        	.byte0
 5035 01eb 27        	.uleb128 0x27
 5036 01ec 34        	.uleb128 0x34
 5037 01ed 00        	.byte0
 5038 01ee 03        	.uleb128 0x3
 5039 01ef 0E        	.uleb128 0xe
 5040 01f0 3A        	.uleb128 0x3a
 5041 01f1 0B        	.uleb128 0xb
 5042 01f2 3B        	.uleb128 0x3b
 5043 01f3 05        	.uleb128 0x5
 5044 01f4 49        	.uleb128 0x49
 5045 01f5 13        	.uleb128 0x13
 5046 01f6 02        	.uleb128 0x2
 5047 01f7 18        	.uleb128 0x18
 5048 01f8 00        	.byte0
 5049 01f9 00        	.byte0
 5050 01fa 28        	.uleb128 0x28
 5051 01fb 34        	.uleb128 0x34
 5052 01fc 00        	.byte0
 5053 01fd 03        	.uleb128 0x3
 5054 01fe 08        	.uleb128 0x8
 5055 01ff 3A        	.uleb128 0x3a
 5056 0200 0B        	.uleb128 0xb
 5057 0201 3B        	.uleb128 0x3b
 5058 0202 05        	.uleb128 0x5
 5059 0203 49        	.uleb128 0x49
 5060 0204 13        	.uleb128 0x13
 5061 0205 02        	.uleb128 0x2
 5062 0206 18        	.uleb128 0x18
 5063 0207 00        	.byte0
 5064 0208 00        	.byte0
 5065 0209 29        	.uleb128 0x29
 5066 020a 2E        	.uleb128 0x2e
 5067 020b 01        	.byte0x1
 5068 020c 3F        	.uleb128 0x3f
 5069 020d 19        	.uleb128 0x19
 5070 020e 03        	.uleb128 0x3
 5071 020f 0E        	.uleb128 0xe
 5072 0210 3A        	.uleb128 0x3a
 5073 0211 0B        	.uleb128 0xb
 5074 0212 3B        	.uleb128 0x3b
 5075 0213 05        	.uleb128 0x5
 5076 0214 27        	.uleb128 0x27
 5077 0215 19        	.uleb128 0x19
68K GAS   			page 110


 5078 0216 49        	.uleb128 0x49
 5079 0217 13        	.uleb128 0x13
 5080 0218 11        	.uleb128 0x11
 5081 0219 01        	.uleb128 0x1
 5082 021a 12        	.uleb128 0x12
 5083 021b 06        	.uleb128 0x6
 5084 021c 40        	.uleb128 0x40
 5085 021d 18        	.uleb128 0x18
 5086 021e 9742      	.uleb128 0x2117
 5087 0220 19        	.uleb128 0x19
 5088 0221 01        	.uleb128 0x1
 5089 0222 13        	.uleb128 0x13
 5090 0223 00        	.byte0
 5091 0224 00        	.byte0
 5092 0225 2A        	.uleb128 0x2a
 5093 0226 2E        	.uleb128 0x2e
 5094 0227 01        	.byte0x1
 5095 0228 3F        	.uleb128 0x3f
 5096 0229 19        	.uleb128 0x19
 5097 022a 03        	.uleb128 0x3
 5098 022b 0E        	.uleb128 0xe
 5099 022c 3A        	.uleb128 0x3a
 5100 022d 0B        	.uleb128 0xb
 5101 022e 3B        	.uleb128 0x3b
 5102 022f 05        	.uleb128 0x5
 5103 0230 27        	.uleb128 0x27
 5104 0231 19        	.uleb128 0x19
 5105 0232 11        	.uleb128 0x11
 5106 0233 01        	.uleb128 0x1
 5107 0234 12        	.uleb128 0x12
 5108 0235 06        	.uleb128 0x6
 5109 0236 40        	.uleb128 0x40
 5110 0237 18        	.uleb128 0x18
 5111 0238 9642      	.uleb128 0x2116
 5112 023a 19        	.uleb128 0x19
 5113 023b 01        	.uleb128 0x1
 5114 023c 13        	.uleb128 0x13
 5115 023d 00        	.byte0
 5116 023e 00        	.byte0
 5117 023f 2B        	.uleb128 0x2b
 5118 0240 2E        	.uleb128 0x2e
 5119 0241 01        	.byte0x1
 5120 0242 3F        	.uleb128 0x3f
 5121 0243 19        	.uleb128 0x19
 5122 0244 03        	.uleb128 0x3
 5123 0245 0E        	.uleb128 0xe
 5124 0246 3A        	.uleb128 0x3a
 5125 0247 0B        	.uleb128 0xb
 5126 0248 3B        	.uleb128 0x3b
 5127 0249 0B        	.uleb128 0xb
 5128 024a 27        	.uleb128 0x27
 5129 024b 19        	.uleb128 0x19
 5130 024c 49        	.uleb128 0x49
 5131 024d 13        	.uleb128 0x13
 5132 024e 11        	.uleb128 0x11
 5133 024f 01        	.uleb128 0x1
 5134 0250 12        	.uleb128 0x12
68K GAS   			page 111


 5135 0251 06        	.uleb128 0x6
 5136 0252 40        	.uleb128 0x40
 5137 0253 18        	.uleb128 0x18
 5138 0254 9642      	.uleb128 0x2116
 5139 0256 19        	.uleb128 0x19
 5140 0257 00        	.byte0
 5141 0258 00        	.byte0
 5142 0259 2C        	.uleb128 0x2c
 5143 025a 34        	.uleb128 0x34
 5144 025b 00        	.byte0
 5145 025c 03        	.uleb128 0x3
 5146 025d 0E        	.uleb128 0xe
 5147 025e 3A        	.uleb128 0x3a
 5148 025f 0B        	.uleb128 0xb
 5149 0260 3B        	.uleb128 0x3b
 5150 0261 0B        	.uleb128 0xb
 5151 0262 49        	.uleb128 0x49
 5152 0263 13        	.uleb128 0x13
 5153 0264 02        	.uleb128 0x2
 5154 0265 18        	.uleb128 0x18
 5155 0266 00        	.byte0
 5156 0267 00        	.byte0
 5157 0268 00        	.byte0
 5158               	.section.debug_aranges,"",@progbits
 5159 0000 0000 001C 	.long0x1c
 5160 0004 0002      	.word0x2
 5161 0006 0000 0000 	.long.Ldebug_info0
 5162 000a 04        	.byte0x4
 5163 000b 00        	.byte0
 5164 000c 0000      	.word0
 5165 000e 0000      	.word0
 5166 0010 0000 0000 	.long.Ltext0
 5167 0014 0000 0A28 	.long.Letext0-.Ltext0
 5168 0018 0000 0000 	.long0
 5169 001c 0000 0000 	.long0
 5170               	.section.debug_line,"",@progbits
 5171               	.Ldebug_line0:
 5172 0000 0000 04F5 	.section.debug_str,"MS",@progbits,1
 5172      0002 0000 
 5172      0376 0201 
 5172      FB0E 0D00 
 5172      0101 0101 
 5173               	.LASF38:
 5174 0000 5F73 7369 	.string"_ssize_t"
 5174      7A65 5F74 
 5174      00
 5175               	.LASF140:
 5176 0009 5F5F 6C6F 	.string"__locale_t"
 5176      6361 6C65 
 5176      5F74 00
 5177               	.LASF43:
 5178 0014 5F5F 7661 	.string"__value"
 5178      6C75 6500 
 5179               	.LASF141:
 5180 001c 5F5F 7366 	.string"__sf"
 5180      00
 5181               	.LASF78:
68K GAS   			page 112


 5182 0021 5F72 6561 	.string"_read"
 5182      6400 
 5183               	.LASF309:
 5184 0027 4346 455F 	.string"CFE_ES_GenCounterRecord_t"
 5184      4553 5F47 
 5184      656E 436F 
 5184      756E 7465 
 5184      7252 6563 
 5185               	.LASF79:
 5186 0041 5F77 7269 	.string"_write"
 5186      7465 00
 5187               	.LASF332:
 5188 0048 4346 455F 	.string"CFE_ES_DeleteCDS"
 5188      4553 5F44 
 5188      656C 6574 
 5188      6543 4453 
 5188      00
 5189               	.LASF209:
 5190 0059 416C 6C6F 	.string"AllocatedFlag"
 5190      6361 7465 
 5190      6446 6C61 
 5190      6700 
 5191               	.LASF120:
 5192 0067 5F61 7363 	.string"_asctime_buf"
 5192      7469 6D65 
 5192      5F62 7566 
 5192      00
 5193               	.LASF105:
 5194 0074 5F63 7674 	.string"_cvtlen"
 5194      6C65 6E00 
 5195               	.LASF32:
 5196 007c 5F4D 7574 	.string"_Mutex_Control"
 5196      6578 5F43 
 5196      6F6E 7472 
 5196      6F6C 00
 5197               	.LASF206:
 5198 008b 4346 455F 	.string"CFE_ES_LibRecord_t"
 5198      4553 5F4C 
 5198      6962 5265 
 5198      636F 7264 
 5198      5F74 00
 5199               	.LASF261:
 5200 009e 4346 455F 	.string"CFE_ES_PerfDataEntry_t"
 5200      4553 5F50 
 5200      6572 6644 
 5200      6174 6145 
 5200      6E74 7279 
 5201               	.LASF144:
 5202 00b5 5F67 6C6F 	.string"_global_atexit"
 5202      6261 6C5F 
 5202      6174 6578 
 5202      6974 00
 5203               	.LASF192:
 5204 00c4 4E75 6D4F 	.string"NumOfChildTasks"
 5204      6643 6869 
 5204      6C64 5461 
 5204      736B 7300 
68K GAS   			page 113


 5205               	.LASF11:
 5206 00d4 7569 6E74 	.string"uint32"
 5206      3332 00
 5207               	.LASF139:
 5208 00db 5F75 6E75 	.string"_unused"
 5208      7365 6400 
 5209               	.LASF52:
 5210 00e3 5F5F 746D 	.string"__tm"
 5210      00
 5211               	.LASF135:
 5212 00e8 5F77 6373 	.string"_wcsrtombs_state"
 5212      7274 6F6D 
 5212      6273 5F73 
 5212      7461 7465 
 5212      00
 5213               	.LASF83:
 5214 00f9 5F6E 6275 	.string"_nbuf"
 5214      6600 
 5215               	.LASF53:
 5216 00ff 5F5F 746D 	.string"__tm_sec"
 5216      5F73 6563 
 5216      00
 5217               	.LASF31:
 5218 0108 5F54 6872 	.string"_Thread_Control"
 5218      6561 645F 
 5218      436F 6E74 
 5218      726F 6C00 
 5219               	.LASF128:
 5220 0118 5F6C 3634 	.string"_l64a_buf"
 5220      615F 6275 
 5220      6600 
 5221               	.LASF298:
 5222 0122 5469 6D65 	.string"TimeResetVars"
 5222      5265 7365 
 5222      7456 6172 
 5222      7300 
 5223               	.LASF314:
 5224 0130 5265 6769 	.string"RegisteredTasks"
 5224      7374 6572 
 5224      6564 5461 
 5224      736B 7300 
 5225               	.LASF329:
 5226 0140 5265 6749 	.string"RegIndx"
 5226      6E64 7800 
 5227               	.LASF92:
 5228 0148 5F73 7464 	.string"_stdin"
 5228      696E 00
 5229               	.LASF255:
 5230 014f 4170 7049 	.string"AppID"
 5230      4400 
 5231               	.LASF279:
 5232 0155 4461 7461 	.string"DataBuffer"
 5232      4275 6666 
 5232      6572 00
 5233               	.LASF295:
 5234 0160 5379 7374 	.string"SystemLogEntryNum"
 5234      656D 4C6F 
68K GAS   			page 114


 5234      6745 6E74 
 5234      7279 4E75 
 5234      6D00 
 5235               	.LASF80:
 5236 0172 5F73 6565 	.string"_seek"
 5236      6B00 
 5237               	.LASF239:
 5238 0178 4346 455F 	.string"CFE_ES_CDSVariables_t"
 5238      4553 5F43 
 5238      4453 5661 
 5238      7269 6162 
 5238      6C65 735F 
 5239               	.LASF186:
 5240 018e 5374 6172 	.string"StartAddress"
 5240      7441 6464 
 5240      7265 7373 
 5240      00
 5241               	.LASF244:
 5242 019b 4346 455F 	.string"CFE_ES_DebugVariables_t"
 5242      4553 5F44 
 5242      6562 7567 
 5242      5661 7269 
 5242      6162 6C65 
 5243               	.LASF116:
 5244 01b3 5F6D 756C 	.string"_mult"
 5244      7400 
 5245               	.LASF191:
 5246 01b9 4D61 696E 	.string"MainTaskName"
 5246      5461 736B 
 5246      4E61 6D65 
 5246      00
 5247               	.LASF356:
 5248 01c6 4D69 6E52 	.string"MinRequiredSize"
 5248      6571 7569 
 5248      7265 6453 
 5248      697A 6500 
 5249               	.LASF305:
 5250 01d6 4346 455F 	.string"CFE_ES_PerfLogDump_t"
 5250      4553 5F50 
 5250      6572 664C 
 5250      6F67 4475 
 5250      6D70 5F74 
 5251               	.LASF254:
 5252 01eb 436F 6E74 	.string"ContextSize"
 5252      6578 7453 
 5252      697A 6500 
 5253               	.LASF337:
 5254 01f7 4346 455F 	.string"CFE_ES_UnlockCDSRegistry"
 5254      4553 5F55 
 5254      6E6C 6F63 
 5254      6B43 4453 
 5254      5265 6769 
 5255               	.LASF300:
 5256 0210 4346 455F 	.string"CFE_ES_ResetData_t"
 5256      4553 5F52 
 5256      6573 6574 
 5256      4461 7461 
68K GAS   			page 115


 5256      5F74 00
 5257               	.LASF168:
 5258 0223 5072 6F63 	.string"ProcessorID"
 5258      6573 736F 
 5258      7249 4400 
 5259               	.LASF318:
 5260 022f 4170 7054 	.string"AppTable"
 5260      6162 6C65 
 5260      00
 5261               	.LASF265:
 5262 0238 5469 6D65 	.string"TimerTicksPerSecond"
 5262      7254 6963 
 5262      6B73 5065 
 5262      7253 6563 
 5262      6F6E 6400 
 5263               	.LASF339:
 5264 024c 4675 6C6C 	.string"FullCDSName"
 5264      4344 534E 
 5264      616D 6500 
 5265               	.LASF40:
 5266 0258 5F5F 7763 	.string"__wch"
 5266      6800 
 5267               	.LASF345:
 5268 025e 4346 455F 	.string"CFE_ES_InitializeCDS"
 5268      4553 5F49 
 5268      6E69 7469 
 5268      616C 697A 
 5268      6543 4453 
 5269               	.LASF210:
 5270 0273 5369 7A65 	.string"SizeUsed"
 5270      5573 6564 
 5270      00
 5271               	.LASF75:
 5272 027c 5F66 696C 	.string"_file"
 5272      6500 
 5273               	.LASF157:
 5274 0282 4375 7272 	.string"CurrentSTCF"
 5274      656E 7453 
 5274      5443 4600 
 5275               	.LASF62:
 5276 028e 5F6F 6E5F 	.string"_on_exit_args"
 5276      6578 6974 
 5276      5F61 7267 
 5276      7300 
 5277               	.LASF263:
 5278 029c 456E 6469 	.string"Endian"
 5278      616E 00
 5279               	.LASF319:
 5280 02a3 5265 6769 	.string"RegisteredLibs"
 5280      7374 6572 
 5280      6564 4C69 
 5280      6273 00
 5281               	.LASF172:
 5282 02b2 5370 6172 	.string"Spare1"
 5282      6531 00
 5283               	.LASF173:
 5284 02b9 5370 6172 	.string"Spare2"
68K GAS   			page 116


 5284      6532 00
 5285               	.LASF131:
 5286 02c0 5F6D 6272 	.string"_mbrlen_state"
 5286      6C65 6E5F 
 5286      7374 6174 
 5286      6500 
 5287               	.LASF6:
 5288 02ce 6C6F 6E67 	.string"long int"
 5288      2069 6E74 
 5288      00
 5289               	.LASF142:
 5290 02d7 5F69 6D70 	.string"_impure_ptr"
 5290      7572 655F 
 5290      7074 7200 
 5291               	.LASF102:
 5292 02e3 5F72 6573 	.string"_result_k"
 5292      756C 745F 
 5292      6B00 
 5293               	.LASF196:
 5294 02ed 5374 6172 	.string"StartParams"
 5294      7450 6172 
 5294      616D 7300 
 5295               	.LASF72:
 5296 02f9 5F73 697A 	.string"_size"
 5296      6500 
 5297               	.LASF188:
 5298 02ff 4578 6365 	.string"ExceptionAction"
 5298      7074 696F 
 5298      6E41 6374 
 5298      696F 6E00 
 5299               	.LASF121:
 5300 030f 5F6C 6F63 	.string"_localtime_buf"
 5300      616C 7469 
 5300      6D65 5F62 
 5300      7566 00
 5301               	.LASF273:
 5302 031e 496E 7661 	.string"InvalidMarkerReported"
 5302      6C69 644D 
 5302      6172 6B65 
 5302      7252 6570 
 5302      6F72 7465 
 5303               	.LASF160:
 5304 0334 5072 696F 	.string"Priority"
 5304      7269 7479 
 5304      00
 5305               	.LASF225:
 5306 033d 5369 7A65 	.string"SizeDesc"
 5306      4465 7363 
 5306      00
 5307               	.LASF57:
 5308 0346 5F5F 746D 	.string"__tm_mon"
 5308      5F6D 6F6E 
 5308      00
 5309               	.LASF274:
 5310 034f 4669 6C74 	.string"FilterTriggerMaskSize"
 5310      6572 5472 
 5310      6967 6765 
68K GAS   			page 117


 5310      724D 6173 
 5310      6B53 697A 
 5311               	.LASF159:
 5312 0365 4346 455F 	.string"CFE_TIME_ResetVars_t"
 5312      5449 4D45 
 5312      5F52 6573 
 5312      6574 5661 
 5312      7273 5F74 
 5313               	.LASF187:
 5314 037a 4D6F 6475 	.string"ModuleId"
 5314      6C65 4964 
 5314      00
 5315               	.LASF175:
 5316 0383 546C 6D48 	.string"TlmHeader"
 5316      6561 6465 
 5316      7200 
 5317               	.LASF228:
 5318 038d 4346 455F 	.string"CFE_ES_CDSBlockDesc"
 5318      4553 5F43 
 5318      4453 426C 
 5318      6F63 6B44 
 5318      6573 6300 
 5319               	.LASF251:
 5320 03a1 4465 6275 	.string"DebugVars"
 5320      6756 6172 
 5320      7300 
 5321               	.LASF218:
 5322 03ab 5369 7A65 	.string"Size"
 5322      00
 5323               	.LASF118:
 5324 03b0 5F75 6E75 	.string"_unused_rand"
 5324      7365 645F 
 5324      7261 6E64 
 5324      00
 5325               	.LASF215:
 5326 03bd 4D61 7853 	.string"MaxSize"
 5326      697A 6500 
 5327               	.LASF1:
 5328 03c5 7369 676E 	.string"signed char"
 5328      6564 2063 
 5328      6861 7200 
 5329               	.LASF15:
 5330 03d1 626F 6F6C 	.string"boolean"
 5330      6561 6E00 
 5331               	.LASF280:
 5332 03d9 4346 455F 	.string"CFE_ES_PerfData_t"
 5332      4553 5F50 
 5332      6572 6644 
 5332      6174 615F 
 5332      7400 
 5333               	.LASF176:
 5334 03eb 5061 796C 	.string"Payload"
 5334      6F61 6400 
 5335               	.LASF352:
 5336 03f3 426C 6F63 	.string"BlockSize"
 5336      6B53 697A 
 5336      6500 
68K GAS   			page 118


 5337               	.LASF30:
 5338 03fd 5F54 6872 	.string"_Thread_queue_Heads"
 5338      6561 645F 
 5338      7175 6575 
 5338      655F 4865 
 5338      6164 7300 
 5339               	.LASF0:
 5340 0411 756E 7369 	.string"unsigned char"
 5340      676E 6564 
 5340      2063 6861 
 5340      7200 
 5341               	.LASF190:
 5342 041f 4D61 696E 	.string"MainTaskId"
 5342      5461 736B 
 5342      4964 00
 5343               	.LASF97:
 5344 042a 5F75 6E73 	.string"_unspecified_locale_info"
 5344      7065 6369 
 5344      6669 6564 
 5344      5F6C 6F63 
 5344      616C 655F 
 5345               	.LASF216:
 5346 0443 4346 455F 	.string"CFE_ES_CDSBlockSizeDesc_t"
 5346      4553 5F43 
 5346      4453 426C 
 5346      6F63 6B53 
 5346      697A 6544 
 5347               	.LASF90:
 5348 045d 5F72 6565 	.string"_reent"
 5348      6E74 00
 5349               	.LASF143:
 5350 0464 5F67 6C6F 	.string"_global_impure_ptr"
 5350      6261 6C5F 
 5350      696D 7075 
 5350      7265 5F70 
 5350      7472 00
 5351               	.LASF359:
 5352 0477 2F68 6F6D 	.string"/home/simulink/cFS_FreeRTOS_seL4/build/cpu1/cfe/es"
 5352      652F 7369 
 5352      6D75 6C69 
 5352      6E6B 2F63 
 5352      4653 5F46 
 5353               	.LASF242:
 5354 04aa 5072 696E 	.string"PrintfEnabledFlag"
 5354      7466 456E 
 5354      6162 6C65 
 5354      6446 6C61 
 5354      6700 
 5355               	.LASF307:
 5356 04bc 436F 756E 	.string"Counter"
 5356      7465 7200 
 5357               	.LASF25:
 5358 04c4 5F54 6872 	.string"_Thread_queue_Queue"
 5358      6561 645F 
 5358      7175 6575 
 5358      655F 5175 
 5358      6575 6500 
68K GAS   			page 119


 5359               	.LASF326:
 5360 04d8 4344 534E 	.string"CDSName"
 5360      616D 6500 
 5361               	.LASF16:
 5362 04e0 6368 6172 	.string"char"
 5362      00
 5363               	.LASF331:
 5364 04e5 4F77 6E65 	.string"OwnerName"
 5364      724E 616D 
 5364      6500 
 5365               	.LASF310:
 5366 04ef 5368 6172 	.string"SharedDataMutex"
 5366      6564 4461 
 5366      7461 4D75 
 5366      7465 7800 
 5367               	.LASF69:
 5368 04ff 5F66 6E73 	.string"_fns"
 5368      00
 5369               	.LASF330:
 5370 0504 5265 6752 	.string"RegRecPtr"
 5370      6563 5074 
 5370      7200 
 5371               	.LASF81:
 5372 050e 5F63 6C6F 	.string"_close"
 5372      7365 00
 5373               	.LASF229:
 5374 0515 4D65 6D48 	.string"MemHandle"
 5374      616E 646C 
 5374      6500 
 5375               	.LASF348:
 5376 051f 5569 6E74 	.string"Uint32Zero"
 5376      3332 5A65 
 5376      726F 00
 5377               	.LASF14:
 5378 052a 6370 7561 	.string"cpuaddr"
 5378      6464 7200 
 5379               	.LASF24:
 5380 0532 5F54 6963 	.string"_Ticket_lock_Control"
 5380      6B65 745F 
 5380      6C6F 636B 
 5380      5F43 6F6E 
 5380      7472 6F6C 
 5381               	.LASF230:
 5382 0547 5461 6B65 	.string"Taken"
 5382      6E00 
 5383               	.LASF150:
 5384 054d 5365 636F 	.string"Seconds"
 5384      6E64 7300 
 5385               	.LASF224:
 5386 0555 4D69 6E42 	.string"MinBlockSize"
 5386      6C6F 636B 
 5386      5369 7A65 
 5386      00
 5387               	.LASF284:
 5388 0562 4C6F 674F 	.string"LogOverflowCounter"
 5388      7665 7266 
 5388      6C6F 7743 
68K GAS   			page 120


 5388      6F75 6E74 
 5388      6572 00
 5389               	.LASF289:
 5390 0575 4552 4C6F 	.string"ERLog"
 5390      6700 
 5391               	.LASF149:
 5392 057b 4346 455F 	.string"CFE_ES_CDSHandle_t"
 5392      4553 5F43 
 5392      4453 4861 
 5392      6E64 6C65 
 5392      5F74 00
 5393               	.LASF28:
 5394 058e 5F6F 776E 	.string"_owner"
 5394      6572 00
 5395               	.LASF299:
 5396 0595 4556 535F 	.string"EVS_Log"
 5396      4C6F 6700 
 5397               	.LASF290:
 5398 059d 4552 4C6F 	.string"ERLogIndex"
 5398      6749 6E64 
 5398      6578 00
 5399               	.LASF278:
 5400 05a8 4D65 7461 	.string"MetaData"
 5400      4461 7461 
 5400      00
 5401               	.LASF353:
 5402 05b1 4372 6974 	.string"CriticalTbl"
 5402      6963 616C 
 5402      5462 6C00 
 5403               	.LASF306:
 5404 05bd 4346 455F 	.string"CFE_ES_PerfLogDumpStatus"
 5404      4553 5F50 
 5404      6572 664C 
 5404      6F67 4475 
 5404      6D70 5374 
 5405               	.LASF181:
 5406 05d6 4346 455F 	.string"CFE_ES_AppState_t"
 5406      4553 5F41 
 5406      7070 5374 
 5406      6174 655F 
 5406      7400 
 5407               	.LASF234:
 5408 05e8 4344 5353 	.string"CDSSize"
 5408      697A 6500 
 5409               	.LASF236:
 5410 05f0 4D61 784E 	.string"MaxNumRegEntries"
 5410      756D 5265 
 5410      6745 6E74 
 5410      7269 6573 
 5410      00
 5411               	.LASF243:
 5412 0601 4C61 7374 	.string"LastAppId"
 5412      4170 7049 
 5412      6400 
 5413               	.LASF327:
 5414 060b 4361 6C6C 	.string"CalledByTblServices"
 5414      6564 4279 
68K GAS   			page 121


 5414      5462 6C53 
 5414      6572 7669 
 5414      6365 7300 
 5415               	.LASF282:
 5416 061f 4C6F 6746 	.string"LogFullFlag"
 5416      756C 6C46 
 5416      6C61 6700 
 5417               	.LASF148:
 5418 062b 5F74 7A6E 	.string"_tzname"
 5418      616D 6500 
 5419               	.LASF219:
 5420 0633 4375 7272 	.string"Current"
 5420      656E 7400 
 5421               	.LASF36:
 5422 063b 5F6E 6573 	.string"_nest_level"
 5422      745F 6C65 
 5422      7665 6C00 
 5423               	.LASF155:
 5424 0647 436C 6F63 	.string"ClockSignal"
 5424      6B53 6967 
 5424      6E61 6C00 
 5425               	.LASF292:
 5426 0653 5379 7374 	.string"SystemLog"
 5426      656D 4C6F 
 5426      6700 
 5427               	.LASF77:
 5428 065d 5F63 6F6F 	.string"_cookie"
 5428      6B69 6500 
 5429               	.LASF185:
 5430 0665 5374 6163 	.string"StackSize"
 5430      6B53 697A 
 5430      6500 
 5431               	.LASF51:
 5432 066f 5F77 6473 	.string"_wds"
 5432      00
 5433               	.LASF108:
 5434 0674 5F73 6967 	.string"_sig_func"
 5434      5F66 756E 
 5434      6300 
 5435               	.LASF221:
 5436 067e 4368 6563 	.string"CheckErrCntr"
 5436      6B45 7272 
 5436      436E 7472 
 5436      00
 5437               	.LASF85:
 5438 068b 5F6F 6666 	.string"_offset"
 5438      7365 7400 
 5439               	.LASF106:
 5440 0693 5F63 7674 	.string"_cvtbuf"
 5440      6275 6600 
 5441               	.LASF358:
 5442 069b 2F68 6F6D 	.string"/home/simulink/cFS_FreeRTOS_seL4/cfe/fsw/cfe-core/src/es/cfe_es_cds.c"
 5442      652F 7369 
 5442      6D75 6C69 
 5442      6E6B 2F63 
 5442      4653 5F46 
 5443               	.LASF220:
68K GAS   			page 122


 5444 06e1 5369 7A65 	.string"SizeIndex"
 5444      496E 6465 
 5444      7800 
 5445               	.LASF184:
 5446 06eb 4669 6C65 	.string"FileName"
 5446      4E61 6D65 
 5446      00
 5447               	.LASF21:
 5448 06f4 5F6E 6578 	.string"_next_ticket"
 5448      745F 7469 
 5448      636B 6574 
 5448      00
 5449               	.LASF235:
 5450 0701 4D65 6D50 	.string"MemPoolSize"
 5450      6F6F 6C53 
 5450      697A 6500 
 5451               	.LASF325:
 5452 070d 4346 455F 	.string"CFE_ES_ResetDataPtr"
 5452      4553 5F52 
 5452      6573 6574 
 5452      4461 7461 
 5452      5074 7200 
 5453               	.LASF294:
 5454 0721 5379 7374 	.string"SystemLogMode"
 5454      656D 4C6F 
 5454      674D 6F64 
 5454      6500 
 5455               	.LASF208:
 5456 072f 4368 6563 	.string"CheckBits"
 5456      6B42 6974 
 5456      7300 
 5457               	.LASF336:
 5458 0739 4346 455F 	.string"CFE_ES_FindCDSInRegistry"
 5458      4553 5F46 
 5458      696E 6443 
 5458      4453 496E 
 5458      5265 6769 
 5459               	.LASF103:
 5460 0752 5F70 3573 	.string"_p5s"
 5460      00
 5461               	.LASF12:
 5462 0757 6C6F 6E67 	.string"long unsigned int"
 5462      2075 6E73 
 5462      6967 6E65 
 5462      6420 696E 
 5462      7400 
 5463               	.LASF259:
 5464 0769 5469 6D65 	.string"TimerUpper32"
 5464      7255 7070 
 5464      6572 3332 
 5464      00
 5465               	.LASF200:
 5466 0776 4170 7049 	.string"AppId"
 5466      6400 
 5467               	.LASF73:
 5468 077c 5F5F 7346 	.string"__sFILE"
 5468      494C 4500 
68K GAS   			page 123


 5469               	.LASF99:
 5470 0784 5F5F 7364 	.string"__sdidinit"
 5470      6964 696E 
 5470      6974 00
 5471               	.LASF89:
 5472 078f 5F66 6C61 	.string"_flags2"
 5472      6773 3200 
 5473               	.LASF250:
 5474 0797 4D61 7850 	.string"MaxProcessorResetCount"
 5474      726F 6365 
 5474      7373 6F72 
 5474      5265 7365 
 5474      7443 6F75 
 5475               	.LASF37:
 5476 07ae 5F4C 4F43 	.string"_LOCK_RECURSIVE_T"
 5476      4B5F 5245 
 5476      4355 5253 
 5476      4956 455F 
 5476      5400 
 5477               	.LASF281:
 5478 07c0 4C6F 6743 	.string"LogCount"
 5478      6F75 6E74 
 5478      00
 5479               	.LASF311:
 5480 07c9 4170 7053 	.string"AppStartedCount"
 5480      7461 7274 
 5480      6564 436F 
 5480      756E 7400 
 5481               	.LASF91:
 5482 07d9 5F65 7272 	.string"_errno"
 5482      6E6F 00
 5483               	.LASF158:
 5484 07e0 4375 7272 	.string"CurrentDelay"
 5484      656E 7444 
 5484      656C 6179 
 5484      00
 5485               	.LASF129:
 5486 07ed 5F73 6967 	.string"_signal_buf"
 5486      6E61 6C5F 
 5486      6275 6600 
 5487               	.LASF340:
 5488 07f9 5468 6973 	.string"ThisAppId"
 5488      4170 7049 
 5488      6400 
 5489               	.LASF171:
 5490 0803 4D65 7373 	.string"Message"
 5490      6167 6500 
 5491               	.LASF354:
 5492 080b 4346 455F 	.string"CFE_ES_FormCDSName"
 5492      4553 5F46 
 5492      6F72 6D43 
 5492      4453 4E61 
 5492      6D65 00
 5493               	.LASF47:
 5494 081e 5F42 6967 	.string"_Bigint"
 5494      696E 7400 
 5495               	.LASF49:
68K GAS   			page 124


 5496 0826 5F6D 6178 	.string"_maxwds"
 5496      7764 7300 
 5497               	.LASF100:
 5498 082e 5F5F 636C 	.string"__cleanup"
 5498      6561 6E75 
 5498      7000 
 5499               	.LASF283:
 5500 0838 4C6F 674D 	.string"LogMode"
 5500      6F64 6500 
 5501               	.LASF328:
 5502 0840 5374 6174 	.string"Status"
 5502      7573 00
 5503               	.LASF154:
 5504 0847 4C65 6170 	.string"LeapSeconds"
 5504      5365 636F 
 5504      6E64 7300 
 5505               	.LASF170:
 5506 0853 5061 636B 	.string"PacketID"
 5506      6574 4944 
 5506      00
 5507               	.LASF207:
 5508 085c 4346 455F 	.string"CFE_ES_CDSBlockHandle_t"
 5508      4553 5F43 
 5508      4453 426C 
 5508      6F63 6B48 
 5508      616E 646C 
 5509               	.LASF303:
 5510 0874 4461 7461 	.string"DataFileName"
 5510      4669 6C65 
 5510      4E61 6D65 
 5510      00
 5511               	.LASF183:
 5512 0881 456E 7472 	.string"EntryPoint"
 5512      7950 6F69 
 5512      6E74 00
 5513               	.LASF96:
 5514 088c 5F65 6D65 	.string"_emergency"
 5514      7267 656E 
 5514      6379 00
 5515               	.LASF177:
 5516 0897 4346 455F 	.string"CFE_EVS_Packet_t"
 5516      4556 535F 
 5516      5061 636B 
 5516      6574 5F74 
 5516      00
 5517               	.LASF351:
 5518 08a8 4861 6E64 	.string"HandlePtr"
 5518      6C65 5074 
 5518      7200 
 5519               	.LASF7:
 5520 08b2 6C6F 6E67 	.string"long long int"
 5520      206C 6F6E 
 5520      6720 696E 
 5520      7400 
 5521               	.LASF342:
 5522 08c0 4170 7049 	.string"AppIdPtr"
 5522      6450 7472 
68K GAS   			page 125


 5522      00
 5523               	.LASF262:
 5524 08c9 5665 7273 	.string"Version"
 5524      696F 6E00 
 5525               	.LASF112:
 5526 08d1 5F6E 696F 	.string"_niobs"
 5526      6273 00
 5527               	.LASF291:
 5528 08d8 4552 4C6F 	.string"ERLogEntries"
 5528      6745 6E74 
 5528      7269 6573 
 5528      00
 5529               	.LASF109:
 5530 08e5 5F5F 7367 	.string"__sglue"
 5530      6C75 6500 
 5531               	.LASF266:
 5532 08ed 5469 6D65 	.string"TimerLow32Rollover"
 5532      724C 6F77 
 5532      3332 526F 
 5532      6C6C 6F76 
 5532      6572 00
 5533               	.LASF138:
 5534 0900 5F6E 6D61 	.string"_nmalloc"
 5534      6C6C 6F63 
 5534      00
 5535               	.LASF321:
 5536 0909 436F 756E 	.string"CounterTable"
 5536      7465 7254 
 5536      6162 6C65 
 5536      00
 5537               	.LASF122:
 5538 0916 5F67 616D 	.string"_gamma_signgam"
 5538      6D61 5F73 
 5538      6967 6E67 
 5538      616D 00
 5539               	.LASF202:
 5540 0925 4578 6563 	.string"ExecutionCounter"
 5540      7574 696F 
 5540      6E43 6F75 
 5540      6E74 6572 
 5540      00
 5541               	.LASF104:
 5542 0936 5F66 7265 	.string"_freelist"
 5542      656C 6973 
 5542      7400 
 5543               	.LASF312:
 5544 0940 4170 7052 	.string"AppReadyCount"
 5544      6561 6479 
 5544      436F 756E 
 5544      7400 
 5545               	.LASF113:
 5546 094e 5F69 6F62 	.string"_iobs"
 5546      7300 
 5547               	.LASF111:
 5548 0954 5F67 6C75 	.string"_glue"
 5548      6500 
 5549               	.LASF50:
68K GAS   			page 126


 5550 095a 5F73 6967 	.string"_sign"
 5550      6E00 
 5551               	.LASF277:
 5552 0960 4346 455F 	.string"CFE_ES_PerfMetaData_t"
 5552      4553 5F50 
 5552      6572 664D 
 5552      6574 6144 
 5552      6174 615F 
 5553               	.LASF238:
 5554 0976 5661 6C69 	.string"ValidityField"
 5554      6469 7479 
 5554      4669 656C 
 5554      6400 
 5555               	.LASF317:
 5556 0984 5265 6769 	.string"RegisteredExternalApps"
 5556      7374 6572 
 5556      6564 4578 
 5556      7465 726E 
 5556      616C 4170 
 5557               	.LASF232:
 5558 099b 4346 455F 	.string"CFE_ES_CDS_RegRec_t"
 5558      4553 5F43 
 5558      4453 5F52 
 5558      6567 5265 
 5558      635F 7400 
 5559               	.LASF285:
 5560 09af 4C6F 6745 	.string"LogEntry"
 5560      6E74 7279 
 5560      00
 5561               	.LASF23:
 5562 09b8 756E 7369 	.string"unsigned int"
 5562      676E 6564 
 5562      2069 6E74 
 5562      00
 5563               	.LASF146:
 5564 09c5 5F74 696D 	.string"_timezone"
 5564      657A 6F6E 
 5564      6500 
 5565               	.LASF248:
 5566 09cf 426F 6F74 	.string"BootSource"
 5566      536F 7572 
 5566      6365 00
 5567               	.LASF136:
 5568 09da 5F68 5F65 	.string"_h_errno"
 5568      7272 6E6F 
 5568      00
 5569               	.LASF203:
 5570 09e3 5461 736B 	.string"TaskName"
 5570      4E61 6D65 
 5570      00
 5571               	.LASF296:
 5572 09ec 5065 7266 	.string"Perf"
 5572      00
 5573               	.LASF288:
 5574 09f1 4346 455F 	.string"CFE_ES_ResetVariables_t"
 5574      4553 5F52 
 5574      6573 6574 
68K GAS   			page 127


 5574      5661 7269 
 5574      6162 6C65 
 5575               	.LASF134:
 5576 0a09 5F77 6372 	.string"_wcrtomb_state"
 5576      746F 6D62 
 5576      5F73 7461 
 5576      7465 00
 5577               	.LASF56:
 5578 0a18 5F5F 746D 	.string"__tm_mday"
 5578      5F6D 6461 
 5578      7900 
 5579               	.LASF107:
 5580 0a22 5F6E 6577 	.string"_new"
 5580      00
 5581               	.LASF29:
 5582 0a27 5F6E 616D 	.string"_name"
 5582      6500 
 5583               	.LASF82:
 5584 0a2d 5F75 6275 	.string"_ubuf"
 5584      6600 
 5585               	.LASF161:
 5586 0a33 5265 6C69 	.string"Reliability"
 5586      6162 696C 
 5586      6974 7900 
 5587               	.LASF94:
 5588 0a3f 5F73 7464 	.string"_stderr"
 5588      6572 7200 
 5589               	.LASF127:
 5590 0a47 5F77 6374 	.string"_wctomb_state"
 5590      6F6D 625F 
 5590      7374 6174 
 5590      6500 
 5591               	.LASF88:
 5592 0a55 5F6D 6273 	.string"_mbstate"
 5592      7461 7465 
 5592      00
 5593               	.LASF123:
 5594 0a5e 5F72 616E 	.string"_rand_next"
 5594      645F 6E65 
 5594      7874 00
 5595               	.LASF74:
 5596 0a69 5F66 6C61 	.string"_flags"
 5596      6773 00
 5597               	.LASF195:
 5598 0a70 5479 7065 	.string"Type"
 5598      00
 5599               	.LASF313:
 5600 0a75 5379 7374 	.string"SystemState"
 5600      656D 5374 
 5600      6174 6500 
 5601               	.LASF67:
 5602 0a81 5F61 7465 	.string"_atexit"
 5602      7869 7400 
 5603               	.LASF151:
 5604 0a89 5375 6273 	.string"Subseconds"
 5604      6563 6F6E 
 5604      6473 00
68K GAS   			page 128


 5605               	.LASF42:
 5606 0a94 5F5F 636F 	.string"__count"
 5606      756E 7400 
 5607               	.LASF264:
 5608 0a9c 5370 6172 	.string"Spare"
 5608      6500 
 5609               	.LASF214:
 5610 0aa2 4E75 6D43 	.string"NumCreated"
 5610      7265 6174 
 5610      6564 00
 5611               	.LASF182:
 5612 0aad 4E61 6D65 	.string"Name"
 5612      00
 5613               	.LASF59:
 5614 0ab2 5F5F 746D 	.string"__tm_wday"
 5614      5F77 6461 
 5614      7900 
 5615               	.LASF18:
 5616 0abc 6C6F 6E67 	.string"long double"
 5616      2064 6F75 
 5616      626C 6500 
 5617               	.LASF193:
 5618 0ac8 4346 455F 	.string"CFE_ES_MainTaskInfo_t"
 5618      4553 5F4D 
 5618      6169 6E54 
 5618      6173 6B49 
 5618      6E66 6F5F 
 5619               	.LASF60:
 5620 0ade 5F5F 746D 	.string"__tm_yday"
 5620      5F79 6461 
 5620      7900 
 5621               	.LASF204:
 5622 0ae8 4346 455F 	.string"CFE_ES_TaskRecord_t"
 5622      4553 5F54 
 5622      6173 6B52 
 5622      6563 6F72 
 5622      645F 7400 
 5623               	.LASF217:
 5624 0afc 5374 6172 	.string"Start"
 5624      7400 
 5625               	.LASF34:
 5626 0b02 5F4D 7574 	.string"_Mutex_recursive_Control"
 5626      6578 5F72 
 5626      6563 7572 
 5626      7369 7665 
 5626      5F43 6F6E 
 5627               	.LASF268:
 5628 0b1b 4D6F 6465 	.string"Mode"
 5628      00
 5629               	.LASF27:
 5630 0b20 5F68 6561 	.string"_heads"
 5630      6473 00
 5631               	.LASF115:
 5632 0b27 5F73 6565 	.string"_seed"
 5632      6400 
 5633               	.LASF346:
 5634 0b2d 4D65 6D42 	.string"MemBlock"
68K GAS   			page 129


 5634      6C6F 636B 
 5634      00
 5635               	.LASF33:
 5636 0b36 5F51 7565 	.string"_Queue"
 5636      7565 00
 5637               	.LASF287:
 5638 0b3d 4553 5F43 	.string"ES_CausedReset"
 5638      6175 7365 
 5638      6452 6573 
 5638      6574 00
 5639               	.LASF20:
 5640 0b4c 5F66 706F 	.string"_fpos_t"
 5640      735F 7400 
 5641               	.LASF324:
 5642 0b54 4346 455F 	.string"CFE_ES_Global"
 5642      4553 5F47 
 5642      6C6F 6261 
 5642      6C00 
 5643               	.LASF41:
 5644 0b62 5F5F 7763 	.string"__wchb"
 5644      6862 00
 5645               	.LASF338:
 5646 0b69 4346 455F 	.string"CFE_ES_LockCDSRegistry"
 5646      4553 5F4C 
 5646      6F63 6B43 
 5646      4453 5265 
 5646      6769 7374 
 5647               	.LASF126:
 5648 0b80 5F6D 6274 	.string"_mbtowc_state"
 5648      6F77 635F 
 5648      7374 6174 
 5648      6500 
 5649               	.LASF308:
 5650 0b8e 436F 756E 	.string"CounterName"
 5650      7465 724E 
 5650      616D 6500 
 5651               	.LASF13:
 5652 0b9a 6C6F 6E67 	.string"long long unsigned int"
 5652      206C 6F6E 
 5652      6720 756E 
 5652      7369 676E 
 5652      6564 2069 
 5653               	.LASF197:
 5654 0bb1 5374 6174 	.string"StateRecord"
 5654      6552 6563 
 5654      6F72 6400 
 5655               	.LASF304:
 5656 0bbd 4461 7461 	.string"DataFileDescriptor"
 5656      4669 6C65 
 5656      4465 7363 
 5656      7269 7074 
 5656      6F72 00
 5657               	.LASF64:
 5658 0bd0 5F64 736F 	.string"_dso_handle"
 5658      5F68 616E 
 5658      646C 6500 
 5659               	.LASF333:
68K GAS   			page 130


 5660 0bdc 4346 455F 	.string"CFE_ES_RebuildCDS"
 5660      4553 5F52 
 5660      6562 7569 
 5660      6C64 4344 
 5660      5300 
 5661               	.LASF114:
 5662 0bee 5F72 616E 	.string"_rand48"
 5662      6434 3800 
 5663               	.LASF93:
 5664 0bf6 5F73 7464 	.string"_stdout"
 5664      6F75 7400 
 5665               	.LASF267:
 5666 0bfe 5374 6174 	.string"State"
 5666      6500 
 5667               	.LASF334:
 5668 0c04 506F 6F6C 	.string"PoolOffset"
 5668      4F66 6673 
 5668      6574 00
 5669               	.LASF84:
 5670 0c0f 5F62 6C6B 	.string"_blksize"
 5670      7369 7A65 
 5670      00
 5671               	.LASF189:
 5672 0c18 4346 455F 	.string"CFE_ES_AppStartParams_t"
 5672      4553 5F41 
 5672      7070 5374 
 5672      6172 7450 
 5672      6172 616D 
 5673               	.LASF260:
 5674 0c30 5469 6D65 	.string"TimerLower32"
 5674      724C 6F77 
 5674      6572 3332 
 5674      00
 5675               	.LASF71:
 5676 0c3d 5F62 6173 	.string"_base"
 5676      6500 
 5677               	.LASF272:
 5678 0c43 4461 7461 	.string"DataCount"
 5678      436F 756E 
 5678      7400 
 5679               	.LASF344:
 5680 0c4d 4346 455F 	.string"CFE_ES_InitCDSRegistry"
 5680      4553 5F49 
 5680      6E69 7443 
 5680      4453 5265 
 5680      6769 7374 
 5681               	.LASF343:
 5682 0c64 4346 455F 	.string"CFE_ES_UpdateCDSRegistry"
 5682      4553 5F55 
 5682      7064 6174 
 5682      6543 4453 
 5682      5265 6769 
 5683               	.LASF119:
 5684 0c7d 5F73 7472 	.string"_strtok_last"
 5684      746F 6B5F 
 5684      6C61 7374 
 5684      00
68K GAS   			page 131


 5685               	.LASF233:
 5686 0c8a 5265 6769 	.string"RegistryMutex"
 5686      7374 7279 
 5686      4D75 7465 
 5686      7800 
 5687               	.LASF315:
 5688 0c98 5461 736B 	.string"TaskTable"
 5688      5461 626C 
 5688      6500 
 5689               	.LASF132:
 5690 0ca2 5F6D 6272 	.string"_mbrtowc_state"
 5690      746F 7763 
 5690      5F73 7461 
 5690      7465 00
 5691               	.LASF275:
 5692 0cb1 4669 6C74 	.string"FilterMask"
 5692      6572 4D61 
 5692      736B 00
 5693               	.LASF246:
 5694 0cbc 5265 7365 	.string"ResetType"
 5694      7454 7970 
 5694      6500 
 5695               	.LASF194:
 5696 0cc6 5265 636F 	.string"RecordUsed"
 5696      7264 5573 
 5696      6564 00
 5697               	.LASF156:
 5698 0cd1 4375 7272 	.string"CurrentMET"
 5698      656E 744D 
 5698      4554 00
 5699               	.LASF45:
 5700 0cdc 5F66 6C6F 	.string"_flock_t"
 5700      636B 5F74 
 5700      00
 5701               	.LASF110:
 5702 0ce5 5F5F 4649 	.string"__FILE"
 5702      4C45 00
 5703               	.LASF226:
 5704 0cec 4346 455F 	.string"CFE_ES_CDSPool_t"
 5704      4553 5F43 
 5704      4453 506F 
 5704      6F6C 5F74 
 5704      00
 5705               	.LASF87:
 5706 0cfd 5F6C 6F63 	.string"_lock"
 5706      6B00 
 5707               	.LASF323:
 5708 0d03 4346 455F 	.string"CFE_ES_Global_t"
 5708      4553 5F47 
 5708      6C6F 6261 
 5708      6C5F 7400 
 5709               	.LASF44:
 5710 0d13 5F6D 6273 	.string"_mbstate_t"
 5710      7461 7465 
 5710      5F74 00
 5711               	.LASF124:
 5712 0d1e 5F72 3438 	.string"_r48"
68K GAS   			page 132


 5712      00
 5713               	.LASF39:
 5714 0d23 7769 6E74 	.string"wint_t"
 5714      5F74 00
 5715               	.LASF2:
 5716 0d2a 6F73 616C 	.string"osalbool"
 5716      626F 6F6C 
 5716      00
 5717               	.LASF355:
 5718 0d33 4346 455F 	.string"CFE_ES_CDS_EarlyInit"
 5718      4553 5F43 
 5718      4453 5F45 
 5718      6172 6C79 
 5718      496E 6974 
 5719               	.LASF48:
 5720 0d48 5F6E 6578 	.string"_next"
 5720      7400 
 5721               	.LASF276:
 5722 0d4e 5472 6967 	.string"TriggerMask"
 5722      6765 724D 
 5722      6173 6B00 
 5723               	.LASF86:
 5724 0d5a 5F64 6174 	.string"_data"
 5724      6100 
 5725               	.LASF240:
 5726 0d60 4465 6275 	.string"DebugFlag"
 5726      6746 6C61 
 5726      6700 
 5727               	.LASF247:
 5728 0d6a 5265 7365 	.string"ResetSubtype"
 5728      7453 7562 
 5728      7479 7065 
 5728      00
 5729               	.LASF316:
 5730 0d77 5265 6769 	.string"RegisteredCoreApps"
 5730      7374 6572 
 5730      6564 436F 
 5730      7265 4170 
 5730      7073 00
 5731               	.LASF163:
 5732 0d8a 4346 455F 	.string"CFE_SB_Default_Qos"
 5732      5342 5F44 
 5732      6566 6175 
 5732      6C74 5F51 
 5732      6F73 00
 5733               	.LASF341:
 5734 0d9d 4346 455F 	.string"CFE_ES_CDS_ValidateAppID"
 5734      4553 5F43 
 5734      4453 5F56 
 5734      616C 6964 
 5734      6174 6541 
 5735               	.LASF269:
 5736 0db6 5472 6967 	.string"TriggerCount"
 5736      6765 7243 
 5736      6F75 6E74 
 5736      00
 5737               	.LASF180:
68K GAS   			page 133


 5738 0dc3 4170 7054 	.string"AppTimer"
 5738      696D 6572 
 5738      00
 5739               	.LASF320:
 5740 0dcc 4C69 6254 	.string"LibTable"
 5740      6162 6C65 
 5740      00
 5741               	.LASF178:
 5742 0dd5 4170 7043 	.string"AppControlRequest"
 5742      6F6E 7472 
 5742      6F6C 5265 
 5742      7175 6573 
 5742      7400 
 5743               	.LASF153:
 5744 0de7 5369 676E 	.string"Signature"
 5744      6174 7572 
 5744      6500 
 5745               	.LASF293:
 5746 0df1 5379 7374 	.string"SystemLogIndex"
 5746      656D 4C6F 
 5746      6749 6E64 
 5746      6578 00
 5747               	.LASF211:
 5748 0e00 4163 7475 	.string"ActualSize"
 5748      616C 5369 
 5748      7A65 00
 5749               	.LASF35:
 5750 0e0b 5F4D 7574 	.string"_Mutex"
 5750      6578 00
 5751               	.LASF179:
 5752 0e12 4170 7053 	.string"AppState"
 5752      7461 7465 
 5752      00
 5753               	.LASF271:
 5754 0e1b 4461 7461 	.string"DataEnd"
 5754      456E 6400 
 5755               	.LASF301:
 5756 0e23 4461 7461 	.string"DataToWrite"
 5756      546F 5772 
 5756      6974 6500 
 5757               	.LASF249:
 5758 0e2f 5072 6F63 	.string"ProcessorResetCount"
 5758      6573 736F 
 5758      7252 6573 
 5758      6574 436F 
 5758      756E 7400 
 5759               	.LASF8:
 5760 0e43 7569 6E74 	.string"uint8"
 5760      3800 
 5761               	.LASF199:
 5762 0e49 4346 455F 	.string"CFE_ES_AppRecord_t"
 5762      4553 5F41 
 5762      7070 5265 
 5762      636F 7264 
 5762      5F74 00
 5763               	.LASF213:
 5764 0e5c 4346 455F 	.string"CFE_ES_CDSBlockDesc_t"
68K GAS   			page 134


 5764      4553 5F43 
 5764      4453 426C 
 5764      6F63 6B44 
 5764      6573 635F 
 5765               	.LASF164:
 5766 0e72 4170 704E 	.string"AppName"
 5766      616D 6500 
 5767               	.LASF212:
 5768 0e7a 4E65 7874 	.string"Next"
 5768      00
 5769               	.LASF258:
 5770 0e7f 4461 7461 	.string"Data"
 5770      00
 5771               	.LASF125:
 5772 0e84 5F6D 626C 	.string"_mblen_state"
 5772      656E 5F73 
 5772      7461 7465 
 5772      00
 5773               	.LASF4:
 5774 0e91 7368 6F72 	.string"short int"
 5774      7420 696E 
 5774      7400 
 5775               	.LASF166:
 5776 0e9b 4576 656E 	.string"EventType"
 5776      7454 7970 
 5776      6500 
 5777               	.LASF237:
 5778 0ea5 5265 6769 	.string"Registry"
 5778      7374 7279 
 5778      00
 5779               	.LASF347:
 5780 0eae 4E75 6D57 	.string"NumWritten"
 5780      7269 7474 
 5780      656E 00
 5781               	.LASF145:
 5782 0eb9 7375 626F 	.string"suboptarg"
 5782      7074 6172 
 5782      6700 
 5783               	.LASF65:
 5784 0ec3 5F66 6E74 	.string"_fntypes"
 5784      7970 6573 
 5784      00
 5785               	.LASF58:
 5786 0ecc 5F5F 746D 	.string"__tm_year"
 5786      5F79 6561 
 5786      7200 
 5787               	.LASF227:
 5788 0ed6 4346 455F 	.string"CFE_ES_CDSMemPool"
 5788      4553 5F43 
 5788      4453 4D65 
 5788      6D50 6F6F 
 5788      6C00 
 5789               	.LASF165:
 5790 0ee8 4576 656E 	.string"EventID"
 5790      7449 4400 
 5791               	.LASF222:
 5792 0ef0 5265 7175 	.string"RequestCntr"
68K GAS   			page 135


 5792      6573 7443 
 5792      6E74 7200 
 5793               	.LASF76:
 5794 0efc 5F6C 6266 	.string"_lbfsize"
 5794      7369 7A65 
 5794      00
 5795               	.LASF95:
 5796 0f05 5F69 6E63 	.string"_inc"
 5796      00
 5797               	.LASF68:
 5798 0f0a 5F69 6E64 	.string"_ind"
 5798      00
 5799               	.LASF201:
 5800 0f0f 5461 736B 	.string"TaskId"
 5800      4964 00
 5801               	.LASF17:
 5802 0f16 5F5F 696E 	.string"__int64_t"
 5802      7436 345F 
 5802      7400 
 5803               	.LASF270:
 5804 0f20 4461 7461 	.string"DataStart"
 5804      5374 6172 
 5804      7400 
 5805               	.LASF3:
 5806 0f2a 696E 7431 	.string"int16"
 5806      3600 
 5807               	.LASF70:
 5808 0f30 5F5F 7362 	.string"__sbuf"
 5808      7566 00
 5809               	.LASF66:
 5810 0f37 5F69 735F 	.string"_is_cxa"
 5810      6378 6100 
 5811               	.LASF152:
 5812 0f3f 4346 455F 	.string"CFE_TIME_SysTime_t"
 5812      5449 4D45 
 5812      5F53 7973 
 5812      5469 6D65 
 5812      5F74 00
 5813               	.LASF137:
 5814 0f52 5F6E 6578 	.string"_nextf"
 5814      7466 00
 5815               	.LASF252:
 5816 0f59 5469 6D65 	.string"TimeCode"
 5816      436F 6465 
 5816      00
 5817               	.LASF257:
 5818 0f62 4346 455F 	.string"CFE_ES_ERLog_t"
 5818      4553 5F45 
 5818      524C 6F67 
 5818      5F74 00
 5819               	.LASF349:
 5820 0f71 4346 455F 	.string"CFE_ES_ValidateCDS"
 5820      4553 5F56 
 5820      616C 6964 
 5820      6174 6543 
 5820      4453 00
 5821               	.LASF335:
68K GAS   			page 136


 5822 0f84 4346 455F 	.string"CFE_ES_FindFreeCDSRegistryEntry"
 5822      4553 5F46 
 5822      696E 6446 
 5822      7265 6543 
 5822      4453 5265 
 5823               	.LASF205:
 5824 0fa4 4C69 624E 	.string"LibName"
 5824      616D 6500 
 5825               	.LASF174:
 5826 0fac 4346 455F 	.string"CFE_EVS_Packet_Payload_t"
 5826      4556 535F 
 5826      5061 636B 
 5826      6574 5F50 
 5826      6179 6C6F 
 5827               	.LASF98:
 5828 0fc5 5F6C 6F63 	.string"_locale"
 5828      616C 6500 
 5829               	.LASF46:
 5830 0fcd 5F5F 554C 	.string"__ULong"
 5830      6F6E 6700 
 5831               	.LASF231:
 5832 0fd5 5461 626C 	.string"Table"
 5832      6500 
 5833               	.LASF253:
 5834 0fdb 4465 7363 	.string"Description"
 5834      7269 7074 
 5834      696F 6E00 
 5835               	.LASF223:
 5836 0fe7 4D75 7465 	.string"MutexId"
 5836      7849 6400 
 5837               	.LASF101:
 5838 0fef 5F72 6573 	.string"_result"
 5838      756C 7400 
 5839               	.LASF26:
 5840 0ff7 5F4C 6F63 	.string"_Lock"
 5840      6B00 
 5841               	.LASF22:
 5842 0ffd 5F6E 6F77 	.string"_now_serving"
 5842      5F73 6572 
 5842      7669 6E67 
 5842      00
 5843               	.LASF19:
 5844 100a 5F6F 6666 	.string"_off_t"
 5844      5F74 00
 5845               	.LASF117:
 5846 1011 5F61 6464 	.string"_add"
 5846      00
 5847               	.LASF357:
 5848 1016 474E 5520 	.string"GNU C11 7.3.0 20180125 (RTEMS 5, RSB d2b25d131d55adcb38219f2cd8cbec2436ee78ab, Newlib 3.0.0) -malign-int -mcpu=528x -g -O0 -fomit-frame-pointer"
 5848      4331 3120 
 5848      372E 332E 
 5848      3020 3230 
 5848      3138 3031 
 5849               	.LASF10:
 5850 10a6 7368 6F72 	.string"short unsigned int"
 5850      7420 756E 
 5850      7369 676E 
68K GAS   			page 137


 5850      6564 2069 
 5850      6E74 00
 5851               	.LASF55:
 5852 10b9 5F5F 746D 	.string"__tm_hour"
 5852      5F68 6F75 
 5852      7200 
 5853               	.LASF245:
 5854 10c3 4C6F 6745 	.string"LogEntryType"
 5854      6E74 7279 
 5854      5479 7065 
 5854      00
 5855               	.LASF350:
 5856 10d0 4346 455F 	.string"CFE_ES_RegisterCDSEx"
 5856      4553 5F52 
 5856      6567 6973 
 5856      7465 7243 
 5856      4453 4578 
 5857               	.LASF167:
 5858 10e5 5370 6163 	.string"SpacecraftID"
 5858      6563 7261 
 5858      6674 4944 
 5858      00
 5859               	.LASF5:
 5860 10f2 696E 7433 	.string"int32"
 5860      3200 
 5861               	.LASF133:
 5862 10f8 5F6D 6273 	.string"_mbsrtowcs_state"
 5862      7274 6F77 
 5862      6373 5F73 
 5862      7461 7465 
 5862      00
 5863               	.LASF169:
 5864 1109 4346 455F 	.string"CFE_EVS_PacketID_t"
 5864      4556 535F 
 5864      5061 636B 
 5864      6574 4944 
 5864      5F74 00
 5865               	.LASF63:
 5866 111c 5F66 6E61 	.string"_fnargs"
 5866      7267 7300 
 5867               	.LASF61:
 5868 1124 5F5F 746D 	.string"__tm_isdst"
 5868      5F69 7364 
 5868      7374 00
 5869               	.LASF286:
 5870 112f 4346 455F 	.string"CFE_EVS_Log_t"
 5870      4556 535F 
 5870      4C6F 675F 
 5870      7400 
 5871               	.LASF256:
 5872 113d 436F 6E74 	.string"Context"
 5872      6578 7400 
 5873               	.LASF241:
 5874 1145 5761 7463 	.string"WatchdogWriteFlag"
 5874      6864 6F67 
 5874      5772 6974 
 5874      6546 6C61 
68K GAS   			page 138


 5874      6700 
 5875               	.LASF147:
 5876 1157 5F64 6179 	.string"_daylight"
 5876      6C69 6768 
 5876      7400 
 5877               	.LASF302:
 5878 1161 4368 696C 	.string"ChildID"
 5878      6449 4400 
 5879               	.LASF54:
 5880 1169 5F5F 746D 	.string"__tm_min"
 5880      5F6D 696E 
 5880      00
 5881               	.LASF297:
 5882 1172 5265 7365 	.string"ResetVars"
 5882      7456 6172 
 5882      7300 
 5883               	.LASF9:
 5884 117c 7569 6E74 	.string"uint16"
 5884      3136 00
 5885               	.LASF198:
 5886 1183 5461 736B 	.string"TaskInfo"
 5886      496E 666F 
 5886      00
 5887               	.LASF130:
 5888 118c 5F67 6574 	.string"_getdate_err"
 5888      6461 7465 
 5888      5F65 7272 
 5888      00
 5889               	.LASF162:
 5890 1199 4346 455F 	.string"CFE_SB_Qos_t"
 5890      5342 5F51 
 5890      6F73 5F74 
 5890      00
 5891               	.LASF322:
 5892 11a6 4344 5356 	.string"CDSVars"
 5892      6172 7300 
 5893               	.ident"GCC: (GNU) 7.3.0 20180125 (RTEMS 5, RSB d2b25d131d55adcb38219f2cd8cbec2436ee78ab, Newlib 3.0.0)"
68K GAS   			page 139


DEFINED SYMBOLS
                            *ABS*:0000000000000000 cfe_es_cds.c
    {standard input}:19     .text:0000000000000000 CFE_ES_CDS_EarlyInit
    {standard input}:347    .text:00000000000002ae CFE_ES_ValidateCDS
    {standard input}:460    .text:000000000000036e CFE_ES_InitializeCDS
    {standard input}:1111   .text:00000000000007c2 CFE_ES_RebuildCDS
    {standard input}:179    .text:000000000000013e CFE_ES_RegisterCDSEx
    {standard input}:928    .text:00000000000006c4 CFE_ES_LockCDSRegistry
    {standard input}:990    .text:0000000000000704 CFE_ES_FindCDSInRegistry
    {standard input}:1055   .text:000000000000077c CFE_ES_FindFreeCDSRegistryEntry
    {standard input}:769    .text:00000000000005e6 CFE_ES_UpdateCDSRegistry
    {standard input}:959    .text:00000000000006e4 CFE_ES_UnlockCDSRegistry
    {standard input}:668    .text:0000000000000518 CFE_ES_InitCDSRegistry
    {standard input}:818    .text:0000000000000620 CFE_ES_CDS_ValidateAppID
    {standard input}:882    .text:000000000000067c CFE_ES_FormCDSName
    {standard input}:1229   .text:00000000000008b4 CFE_ES_DeleteCDS

UNDEFINED SYMBOLS
CFE_ES_CDSReqdMinSize
CFE_ES_Global
CFE_PSP_GetCDSSize
CFE_ES_WriteToSysLog
OS_MutSemCreate
CFE_ES_PutCDSBlock
CFE_ES_GetCDSBlock
strncpy
CFE_PSP_ReadFromCDS
strncmp
CFE_PSP_MemSet
CFE_PSP_WriteToCDS
CFE_ES_CreateCDSPool
CFE_ES_GetAppID
CFE_ES_GetAppName
sprintf
OS_MutSemTake
OS_MutSemGive
strcmp
CFE_ES_RebuildCDSPool
CFE_ES_GetAppIDByName
