68K GAS   			page 1


   1               	
   2               	.file"cfe_es_api.c"
   3               	.text
   4               	.Ltext0:
   5               	.cfi_sections.debug_frame
   6               	.align2
   7               	.typeOS_ConvertToArrayIndex, @function
   8               	OS_ConvertToArrayIndex:
   9               	.LFB58:
  10               	.file 1 "/home/simulink/cFS_FreeRTOS_seL4/cfe/fsw/cfe-core/src/inc/cfe_es.h"
   1:/home/simulink/cFS_FreeRTOS_seL4/cfe/fsw/cfe-core/src/inc/cfe_es.h **** /*
   2:/home/simulink/cFS_FreeRTOS_seL4/cfe/fsw/cfe-core/src/inc/cfe_es.h **** **
   3:/home/simulink/cFS_FreeRTOS_seL4/cfe/fsw/cfe-core/src/inc/cfe_es.h **** **  File: 
   4:/home/simulink/cFS_FreeRTOS_seL4/cfe/fsw/cfe-core/src/inc/cfe_es.h **** **  cfe_es.h
   5:/home/simulink/cFS_FreeRTOS_seL4/cfe/fsw/cfe-core/src/inc/cfe_es.h **** **  $Id: cfe_es.h 1.14 2014/08/19 13:32:01GMT-05:00 sstrege Exp  $
   6:/home/simulink/cFS_FreeRTOS_seL4/cfe/fsw/cfe-core/src/inc/cfe_es.h **** **
   7:/home/simulink/cFS_FreeRTOS_seL4/cfe/fsw/cfe-core/src/inc/cfe_es.h **** **
   8:/home/simulink/cFS_FreeRTOS_seL4/cfe/fsw/cfe-core/src/inc/cfe_es.h **** **      Copyright (c) 2004-2006, United States government as represented by the 
   9:/home/simulink/cFS_FreeRTOS_seL4/cfe/fsw/cfe-core/src/inc/cfe_es.h **** **      administrator of the National Aeronautics Space Administration.  
  10:/home/simulink/cFS_FreeRTOS_seL4/cfe/fsw/cfe-core/src/inc/cfe_es.h **** **      All rights reserved. This software(cFE) was created at NASA's Goddard 
  11:/home/simulink/cFS_FreeRTOS_seL4/cfe/fsw/cfe-core/src/inc/cfe_es.h **** **      Space Flight Center pursuant to government contracts.
  12:/home/simulink/cFS_FreeRTOS_seL4/cfe/fsw/cfe-core/src/inc/cfe_es.h **** **
  13:/home/simulink/cFS_FreeRTOS_seL4/cfe/fsw/cfe-core/src/inc/cfe_es.h **** **      This is governed by the NASA Open Source Agreement and may be used,
  14:/home/simulink/cFS_FreeRTOS_seL4/cfe/fsw/cfe-core/src/inc/cfe_es.h **** **      distributed and modified only pursuant to the terms of that agreement. 
  15:/home/simulink/cFS_FreeRTOS_seL4/cfe/fsw/cfe-core/src/inc/cfe_es.h **** **
  16:/home/simulink/cFS_FreeRTOS_seL4/cfe/fsw/cfe-core/src/inc/cfe_es.h **** **
  17:/home/simulink/cFS_FreeRTOS_seL4/cfe/fsw/cfe-core/src/inc/cfe_es.h **** **  Purpose:
  18:/home/simulink/cFS_FreeRTOS_seL4/cfe/fsw/cfe-core/src/inc/cfe_es.h **** **	Unit specification for Executive Services library functions and macros.
  19:/home/simulink/cFS_FreeRTOS_seL4/cfe/fsw/cfe-core/src/inc/cfe_es.h **** **
  20:/home/simulink/cFS_FreeRTOS_seL4/cfe/fsw/cfe-core/src/inc/cfe_es.h **** **  References:
  21:/home/simulink/cFS_FreeRTOS_seL4/cfe/fsw/cfe-core/src/inc/cfe_es.h **** **     Flight Software Branch C Coding Standard Version 1.0a
  22:/home/simulink/cFS_FreeRTOS_seL4/cfe/fsw/cfe-core/src/inc/cfe_es.h **** **     cFE Flight Software Application Developers Guide
  23:/home/simulink/cFS_FreeRTOS_seL4/cfe/fsw/cfe-core/src/inc/cfe_es.h **** **
  24:/home/simulink/cFS_FreeRTOS_seL4/cfe/fsw/cfe-core/src/inc/cfe_es.h **** **	Notes:
  25:/home/simulink/cFS_FreeRTOS_seL4/cfe/fsw/cfe-core/src/inc/cfe_es.h **** **
  26:/home/simulink/cFS_FreeRTOS_seL4/cfe/fsw/cfe-core/src/inc/cfe_es.h **** **  $Date: 2014/08/19 13:32:01GMT-05:00 $
  27:/home/simulink/cFS_FreeRTOS_seL4/cfe/fsw/cfe-core/src/inc/cfe_es.h **** **  $Revision: 1.14 $
  28:/home/simulink/cFS_FreeRTOS_seL4/cfe/fsw/cfe-core/src/inc/cfe_es.h **** **  $Log: cfe_es.h  $
  29:/home/simulink/cFS_FreeRTOS_seL4/cfe/fsw/cfe-core/src/inc/cfe_es.h **** **  Revision 1.14 2014/08/19 13:32:01GMT-05:00 sstrege 
  30:/home/simulink/cFS_FreeRTOS_seL4/cfe/fsw/cfe-core/src/inc/cfe_es.h **** **  Fixed doxygen warnings
  31:/home/simulink/cFS_FreeRTOS_seL4/cfe/fsw/cfe-core/src/inc/cfe_es.h **** **  Revision 1.13 2011/07/15 14:28:34EDT lwalling 
  32:/home/simulink/cFS_FreeRTOS_seL4/cfe/fsw/cfe-core/src/inc/cfe_es.h **** **  Removed const qualifier from CounterName argument to CFE_ES_RegisterGenCounter()
  33:/home/simulink/cFS_FreeRTOS_seL4/cfe/fsw/cfe-core/src/inc/cfe_es.h **** **  Revision 1.12 2010/11/05 15:54:27EDT aschoeni 
  34:/home/simulink/cFS_FreeRTOS_seL4/cfe/fsw/cfe-core/src/inc/cfe_es.h **** **  Added Generic Counter API to ES
  35:/home/simulink/cFS_FreeRTOS_seL4/cfe/fsw/cfe-core/src/inc/cfe_es.h **** **  Revision 1.11 2010/11/01 16:03:10EDT jmdagost 
  36:/home/simulink/cFS_FreeRTOS_seL4/cfe/fsw/cfe-core/src/inc/cfe_es.h **** **  Removed cfe.h from include list and added cfe_mission_cfg.h
  37:/home/simulink/cFS_FreeRTOS_seL4/cfe/fsw/cfe-core/src/inc/cfe_es.h **** **  Revision 1.10 2010/10/20 12:35:43EDT jmdagost 
  38:/home/simulink/cFS_FreeRTOS_seL4/cfe/fsw/cfe-core/src/inc/cfe_es.h **** **  Major revision to make semaphore use in memory pool creation optional.
  39:/home/simulink/cFS_FreeRTOS_seL4/cfe/fsw/cfe-core/src/inc/cfe_es.h **** **  Revision 1.9 2009/07/29 15:54:46EDT aschoeni 
  40:/home/simulink/cFS_FreeRTOS_seL4/cfe/fsw/cfe-core/src/inc/cfe_es.h **** **  Added GetPoolBufInfo function to return size or invalidity of a buffer in a pool
  41:/home/simulink/cFS_FreeRTOS_seL4/cfe/fsw/cfe-core/src/inc/cfe_es.h **** **  Revision 1.8 2008/12/08 16:10:54EST dkobe 
  42:/home/simulink/cFS_FreeRTOS_seL4/cfe/fsw/cfe-core/src/inc/cfe_es.h **** **  Correcting errors generated during detailed design document generation
  43:/home/simulink/cFS_FreeRTOS_seL4/cfe/fsw/cfe-core/src/inc/cfe_es.h **** **  Revision 1.7 2008/12/08 12:07:09EST dkobe 
  44:/home/simulink/cFS_FreeRTOS_seL4/cfe/fsw/cfe-core/src/inc/cfe_es.h **** **  Updates to correct doxygen errors
  45:/home/simulink/cFS_FreeRTOS_seL4/cfe/fsw/cfe-core/src/inc/cfe_es.h **** **  Revision 1.6 2008/07/31 15:41:31EDT apcudmore 
  46:/home/simulink/cFS_FreeRTOS_seL4/cfe/fsw/cfe-core/src/inc/cfe_es.h **** **  Added execution counter API:
  47:/home/simulink/cFS_FreeRTOS_seL4/cfe/fsw/cfe-core/src/inc/cfe_es.h **** **    -- Added execution counter to ES internal task data
68K GAS   			page 2


  48:/home/simulink/cFS_FreeRTOS_seL4/cfe/fsw/cfe-core/src/inc/cfe_es.h **** **    -- Added code to increment counter in RunLoop
  49:/home/simulink/cFS_FreeRTOS_seL4/cfe/fsw/cfe-core/src/inc/cfe_es.h **** **    -- Added code to report counter in GetInfo APIs
  50:/home/simulink/cFS_FreeRTOS_seL4/cfe/fsw/cfe-core/src/inc/cfe_es.h **** **    -- Added API to increment counter for child tasks
  51:/home/simulink/cFS_FreeRTOS_seL4/cfe/fsw/cfe-core/src/inc/cfe_es.h **** **    -- Added code to cFE Core apps to increment counters.
  52:/home/simulink/cFS_FreeRTOS_seL4/cfe/fsw/cfe-core/src/inc/cfe_es.h **** **  Revision 1.5 2008/07/30 14:53:57EDT apcudmore 
  53:/home/simulink/cFS_FreeRTOS_seL4/cfe/fsw/cfe-core/src/inc/cfe_es.h **** **  Added CFE_ES_WaitForStartupSync API
  54:/home/simulink/cFS_FreeRTOS_seL4/cfe/fsw/cfe-core/src/inc/cfe_es.h **** **  Revision 1.4 2008/07/08 12:35:28EDT apcudmore 
  55:/home/simulink/cFS_FreeRTOS_seL4/cfe/fsw/cfe-core/src/inc/cfe_es.h **** **  Added an "AddressesAreValid" flag to the ES App Info structure.
  56:/home/simulink/cFS_FreeRTOS_seL4/cfe/fsw/cfe-core/src/inc/cfe_es.h **** **  Revision 1.3 2008/06/26 15:41:51EDT apcudmore 
  57:/home/simulink/cFS_FreeRTOS_seL4/cfe/fsw/cfe-core/src/inc/cfe_es.h **** **  Added public CFE_ES_GetAppInfo API.
  58:/home/simulink/cFS_FreeRTOS_seL4/cfe/fsw/cfe-core/src/inc/cfe_es.h **** **  Moved the old API to CFE_ES_GetAppInfoInternal
  59:/home/simulink/cFS_FreeRTOS_seL4/cfe/fsw/cfe-core/src/inc/cfe_es.h **** **  -- May merge these two in the near future.
  60:/home/simulink/cFS_FreeRTOS_seL4/cfe/fsw/cfe-core/src/inc/cfe_es.h **** **  Revision 1.2 2008/06/20 15:40:27EDT apcudmore 
  61:/home/simulink/cFS_FreeRTOS_seL4/cfe/fsw/cfe-core/src/inc/cfe_es.h **** **  Added support for OSAL based module loader
  62:/home/simulink/cFS_FreeRTOS_seL4/cfe/fsw/cfe-core/src/inc/cfe_es.h **** **   - Removed calls and references to the BSP based module loader
  63:/home/simulink/cFS_FreeRTOS_seL4/cfe/fsw/cfe-core/src/inc/cfe_es.h **** **  Revision 1.1 2008/04/17 08:05:19EDT ruperera 
  64:/home/simulink/cFS_FreeRTOS_seL4/cfe/fsw/cfe-core/src/inc/cfe_es.h **** **  Initial revision
  65:/home/simulink/cFS_FreeRTOS_seL4/cfe/fsw/cfe-core/src/inc/cfe_es.h **** **  Member added to project c:/MKSDATA/MKS-REPOSITORY/MKS-CFE-PROJECT/fsw/cfe-core/src/inc/project.
  66:/home/simulink/cFS_FreeRTOS_seL4/cfe/fsw/cfe-core/src/inc/cfe_es.h **** **  Revision 1.58 2007/09/27 15:54:56EDT David Kobe (dlkobe) 
  67:/home/simulink/cFS_FreeRTOS_seL4/cfe/fsw/cfe-core/src/inc/cfe_es.h **** **  Added doxygen comments for commands and telemetry
  68:/home/simulink/cFS_FreeRTOS_seL4/cfe/fsw/cfe-core/src/inc/cfe_es.h **** **  Revision 1.57 2007/09/25 10:24:05EDT apcudmore 
  69:/home/simulink/cFS_FreeRTOS_seL4/cfe/fsw/cfe-core/src/inc/cfe_es.h **** **  Implement Application Restart on Exception:
  70:/home/simulink/cFS_FreeRTOS_seL4/cfe/fsw/cfe-core/src/inc/cfe_es.h **** **  - Added logic to Exception Handler
  71:/home/simulink/cFS_FreeRTOS_seL4/cfe/fsw/cfe-core/src/inc/cfe_es.h **** **  - Changed Exception Hook to pass host task ID
  72:/home/simulink/cFS_FreeRTOS_seL4/cfe/fsw/cfe-core/src/inc/cfe_es.h **** **  - Added App Reset ER Log entry type
  73:/home/simulink/cFS_FreeRTOS_seL4/cfe/fsw/cfe-core/src/inc/cfe_es.h **** **  Revision 1.56 2007/09/21 15:40:15EDT David Kobe (dlkobe) 
  74:/home/simulink/cFS_FreeRTOS_seL4/cfe/fsw/cfe-core/src/inc/cfe_es.h **** **  Modified pointer type definitions to eliminate Linux gcc compile warnings
  75:/home/simulink/cFS_FreeRTOS_seL4/cfe/fsw/cfe-core/src/inc/cfe_es.h **** **  Revision 1.55 2007/09/20 10:52:57EDT apcudmore 
  76:/home/simulink/cFS_FreeRTOS_seL4/cfe/fsw/cfe-core/src/inc/cfe_es.h **** **  Added Query All Tasks command, file definition, events, error codes etc.
  77:/home/simulink/cFS_FreeRTOS_seL4/cfe/fsw/cfe-core/src/inc/cfe_es.h **** **  Revision 1.54 2007/09/12 16:06:09EDT David Kobe (dlkobe) 
  78:/home/simulink/cFS_FreeRTOS_seL4/cfe/fsw/cfe-core/src/inc/cfe_es.h **** **  Moved the definitions of CFE_ES_CRC_xx to the cfe_mission_cfg.h file and deleted TBL Services
  79:/home/simulink/cFS_FreeRTOS_seL4/cfe/fsw/cfe-core/src/inc/cfe_es.h **** **  CRC #define statement.
  80:/home/simulink/cFS_FreeRTOS_seL4/cfe/fsw/cfe-core/src/inc/cfe_es.h **** **  Revision 1.53 2007/08/31 14:11:05EDT apcudmore 
  81:/home/simulink/cFS_FreeRTOS_seL4/cfe/fsw/cfe-core/src/inc/cfe_es.h **** **  Updated reset subtypes ( trunk )
  82:/home/simulink/cFS_FreeRTOS_seL4/cfe/fsw/cfe-core/src/inc/cfe_es.h **** **  Revision 1.52 2007/08/07 12:52:40EDT dlkobe 
  83:/home/simulink/cFS_FreeRTOS_seL4/cfe/fsw/cfe-core/src/inc/cfe_es.h **** **  Modified CFE_ES_GetPoolBuf API's first parameter to be of type uint32**
  84:/home/simulink/cFS_FreeRTOS_seL4/cfe/fsw/cfe-core/src/inc/cfe_es.h **** **  Revision 1.51 2007/05/25 16:24:48EDT dlkobe 
  85:/home/simulink/cFS_FreeRTOS_seL4/cfe/fsw/cfe-core/src/inc/cfe_es.h **** **  Continued updating doxygen comments
  86:/home/simulink/cFS_FreeRTOS_seL4/cfe/fsw/cfe-core/src/inc/cfe_es.h **** **  Revision 1.50 2007/05/23 11:21:23EDT dlkobe 
  87:/home/simulink/cFS_FreeRTOS_seL4/cfe/fsw/cfe-core/src/inc/cfe_es.h **** **  Added doxygen formatting
  88:/home/simulink/cFS_FreeRTOS_seL4/cfe/fsw/cfe-core/src/inc/cfe_es.h **** **  Revision 1.49 2007/05/22 14:56:49EDT apcudmore 
  89:/home/simulink/cFS_FreeRTOS_seL4/cfe/fsw/cfe-core/src/inc/cfe_es.h **** **  cFE Non-Volatile Disk/Startup File changes:
  90:/home/simulink/cFS_FreeRTOS_seL4/cfe/fsw/cfe-core/src/inc/cfe_es.h **** **    - cFE startup now passes in startup file path/name
  91:/home/simulink/cFS_FreeRTOS_seL4/cfe/fsw/cfe-core/src/inc/cfe_es.h **** **    - cFE startup code does not init non-volatile disk ( BSP does )
  92:/home/simulink/cFS_FreeRTOS_seL4/cfe/fsw/cfe-core/src/inc/cfe_es.h **** **    - BSPs now can map cFE paths without making the OS_initfs/OS_mount calls
  93:/home/simulink/cFS_FreeRTOS_seL4/cfe/fsw/cfe-core/src/inc/cfe_es.h **** **    - MCP750 vxWorks6.2 BSP inits/mounts CF disk
  94:/home/simulink/cFS_FreeRTOS_seL4/cfe/fsw/cfe-core/src/inc/cfe_es.h **** **    - Desktop ports pass in the same startup file path/name as before
  95:/home/simulink/cFS_FreeRTOS_seL4/cfe/fsw/cfe-core/src/inc/cfe_es.h **** **  Revision 1.48 2007/05/14 15:43:45EDT apcudmore 
  96:/home/simulink/cFS_FreeRTOS_seL4/cfe/fsw/cfe-core/src/inc/cfe_es.h **** **  Cleaned up events and disabled debug code for application restart.
  97:/home/simulink/cFS_FreeRTOS_seL4/cfe/fsw/cfe-core/src/inc/cfe_es.h **** **  Revision 1.47 2007/05/09 12:42:13EDT dlkobe 
  98:/home/simulink/cFS_FreeRTOS_seL4/cfe/fsw/cfe-core/src/inc/cfe_es.h **** **  Added structure for Dump CDS Registry Record format
  99:/home/simulink/cFS_FreeRTOS_seL4/cfe/fsw/cfe-core/src/inc/cfe_es.h **** **  Revision 1.46 2007/05/04 20:07:51EDT dlkobe 
 100:/home/simulink/cFS_FreeRTOS_seL4/cfe/fsw/cfe-core/src/inc/cfe_es.h **** **  Added command to telemeter memory pool statistics
 101:/home/simulink/cFS_FreeRTOS_seL4/cfe/fsw/cfe-core/src/inc/cfe_es.h **** **  Revision 1.45 2007/04/12 10:37:18EDT apcudmore 
 102:/home/simulink/cFS_FreeRTOS_seL4/cfe/fsw/cfe-core/src/inc/cfe_es.h **** **  Added support for ES task to call CFE_ES_ExitApp on initialization and runtime failure.
 103:/home/simulink/cFS_FreeRTOS_seL4/cfe/fsw/cfe-core/src/inc/cfe_es.h **** **  Revision 1.44 2007/04/10 11:39:19EDT rjmcgraw 
 104:/home/simulink/cFS_FreeRTOS_seL4/cfe/fsw/cfe-core/src/inc/cfe_es.h **** **  Added function prototype CFE_ES_PerfLogAdd
68K GAS   			page 3


 105:/home/simulink/cFS_FreeRTOS_seL4/cfe/fsw/cfe-core/src/inc/cfe_es.h **** **  Revision 1.43 2007/04/10 11:29:10EDT rjmcgraw 
 106:/home/simulink/cFS_FreeRTOS_seL4/cfe/fsw/cfe-core/src/inc/cfe_es.h **** **  Changed perf entry and exit routines to macros
 107:/home/simulink/cFS_FreeRTOS_seL4/cfe/fsw/cfe-core/src/inc/cfe_es.h **** **  Revision 1.42 2007/04/09 15:12:03EDT dlkobe 
 108:/home/simulink/cFS_FreeRTOS_seL4/cfe/fsw/cfe-core/src/inc/cfe_es.h **** **  Modified 'Name' parameter to be a const pointer
 109:/home/simulink/cFS_FreeRTOS_seL4/cfe/fsw/cfe-core/src/inc/cfe_es.h **** **  Revision 1.41 2007/04/05 16:16:03EDT apcudmore 
 110:/home/simulink/cFS_FreeRTOS_seL4/cfe/fsw/cfe-core/src/inc/cfe_es.h **** **  Added CFE_ES_DeleteChildTask and CFE_ES_ExitChildTask along with headers,
 111:/home/simulink/cFS_FreeRTOS_seL4/cfe/fsw/cfe-core/src/inc/cfe_es.h **** **  and associated Error codes.
 112:/home/simulink/cFS_FreeRTOS_seL4/cfe/fsw/cfe-core/src/inc/cfe_es.h **** **  Revision 1.39 2007/04/03 16:49:24EDT apcudmore 
 113:/home/simulink/cFS_FreeRTOS_seL4/cfe/fsw/cfe-core/src/inc/cfe_es.h **** **  Moved all command code defines, command , and telemetry definitions to cfe_es_msg.h
 114:/home/simulink/cFS_FreeRTOS_seL4/cfe/fsw/cfe-core/src/inc/cfe_es.h **** **  Revision 1.38 2007/04/02 10:57:45EDT rjmcgraw 
 115:/home/simulink/cFS_FreeRTOS_seL4/cfe/fsw/cfe-core/src/inc/cfe_es.h **** **  Moved BIT macros from perf.h to cfe_es.h
 116:/home/simulink/cFS_FreeRTOS_seL4/cfe/fsw/cfe-core/src/inc/cfe_es.h **** **  Revision 1.37 2007/03/29 15:49:08EST rjmcgraw 
 117:/home/simulink/cFS_FreeRTOS_seL4/cfe/fsw/cfe-core/src/inc/cfe_es.h **** **  Changed name of performance cmd codes
 118:/home/simulink/cFS_FreeRTOS_seL4/cfe/fsw/cfe-core/src/inc/cfe_es.h **** **  Revision 1.36 2007/03/29 15:22:34EST rjmcgraw 
 119:/home/simulink/cFS_FreeRTOS_seL4/cfe/fsw/cfe-core/src/inc/cfe_es.h **** **  Changed #define names for Logic Analyzer Cmd Codes
 120:/home/simulink/cFS_FreeRTOS_seL4/cfe/fsw/cfe-core/src/inc/cfe_es.h **** **
 121:/home/simulink/cFS_FreeRTOS_seL4/cfe/fsw/cfe-core/src/inc/cfe_es.h **** */
 122:/home/simulink/cFS_FreeRTOS_seL4/cfe/fsw/cfe-core/src/inc/cfe_es.h **** 
 123:/home/simulink/cFS_FreeRTOS_seL4/cfe/fsw/cfe-core/src/inc/cfe_es.h **** #ifndef _cfe_es_
 124:/home/simulink/cFS_FreeRTOS_seL4/cfe/fsw/cfe-core/src/inc/cfe_es.h **** #define _cfe_es_
 125:/home/simulink/cFS_FreeRTOS_seL4/cfe/fsw/cfe-core/src/inc/cfe_es.h **** 
 126:/home/simulink/cFS_FreeRTOS_seL4/cfe/fsw/cfe-core/src/inc/cfe_es.h **** /*
 127:/home/simulink/cFS_FreeRTOS_seL4/cfe/fsw/cfe-core/src/inc/cfe_es.h **** ** Includes 
 128:/home/simulink/cFS_FreeRTOS_seL4/cfe/fsw/cfe-core/src/inc/cfe_es.h **** */
 129:/home/simulink/cFS_FreeRTOS_seL4/cfe/fsw/cfe-core/src/inc/cfe_es.h **** #include "cfe_mission_cfg.h"
 130:/home/simulink/cFS_FreeRTOS_seL4/cfe/fsw/cfe-core/src/inc/cfe_es.h **** #include "cfe_es_perfids.h"
 131:/home/simulink/cFS_FreeRTOS_seL4/cfe/fsw/cfe-core/src/inc/cfe_es.h **** 
 132:/home/simulink/cFS_FreeRTOS_seL4/cfe/fsw/cfe-core/src/inc/cfe_es.h **** /*****************************************************************************/
 133:/home/simulink/cFS_FreeRTOS_seL4/cfe/fsw/cfe-core/src/inc/cfe_es.h **** 
 134:/home/simulink/cFS_FreeRTOS_seL4/cfe/fsw/cfe-core/src/inc/cfe_es.h **** /*
 135:/home/simulink/cFS_FreeRTOS_seL4/cfe/fsw/cfe-core/src/inc/cfe_es.h **** ** Macro Definitions
 136:/home/simulink/cFS_FreeRTOS_seL4/cfe/fsw/cfe-core/src/inc/cfe_es.h **** */
 137:/home/simulink/cFS_FreeRTOS_seL4/cfe/fsw/cfe-core/src/inc/cfe_es.h **** 
 138:/home/simulink/cFS_FreeRTOS_seL4/cfe/fsw/cfe-core/src/inc/cfe_es.h **** /* 
 139:/home/simulink/cFS_FreeRTOS_seL4/cfe/fsw/cfe-core/src/inc/cfe_es.h **** ** The OS_PRINTF macro may be defined by OSAL to enable
 140:/home/simulink/cFS_FreeRTOS_seL4/cfe/fsw/cfe-core/src/inc/cfe_es.h **** ** printf-style argument checking.  If using a version of OSAL
 141:/home/simulink/cFS_FreeRTOS_seL4/cfe/fsw/cfe-core/src/inc/cfe_es.h **** ** that does not define this then define it as a no-op.
 142:/home/simulink/cFS_FreeRTOS_seL4/cfe/fsw/cfe-core/src/inc/cfe_es.h **** */
 143:/home/simulink/cFS_FreeRTOS_seL4/cfe/fsw/cfe-core/src/inc/cfe_es.h **** #ifndef OS_PRINTF
 144:/home/simulink/cFS_FreeRTOS_seL4/cfe/fsw/cfe-core/src/inc/cfe_es.h **** #define OS_PRINTF(m,n)
 145:/home/simulink/cFS_FreeRTOS_seL4/cfe/fsw/cfe-core/src/inc/cfe_es.h **** #endif
 146:/home/simulink/cFS_FreeRTOS_seL4/cfe/fsw/cfe-core/src/inc/cfe_es.h **** 
 147:/home/simulink/cFS_FreeRTOS_seL4/cfe/fsw/cfe-core/src/inc/cfe_es.h **** #define CFE_ES_DBIT(x) (1L << (x))                                    /* Places a one at bit positi
 148:/home/simulink/cFS_FreeRTOS_seL4/cfe/fsw/cfe-core/src/inc/cfe_es.h **** #define CFE_ES_DTEST(i,x) (((i) & CFE_ES_DBIT(x)) != 0)               /* TRUE iff bit x of i is set
 149:/home/simulink/cFS_FreeRTOS_seL4/cfe/fsw/cfe-core/src/inc/cfe_es.h **** #define CFE_ES_TEST_LONG_MASK(m,s)  (CFE_ES_DTEST(m[(s)/32],(s)%32))  /* Test a bit within an array
 150:/home/simulink/cFS_FreeRTOS_seL4/cfe/fsw/cfe-core/src/inc/cfe_es.h **** #define CFE_ES_MAX_MEMPOOL_BLOCK_SIZES     17    /**< Max number of size divisions allowed in a mem
 151:/home/simulink/cFS_FreeRTOS_seL4/cfe/fsw/cfe-core/src/inc/cfe_es.h **** 
 152:/home/simulink/cFS_FreeRTOS_seL4/cfe/fsw/cfe-core/src/inc/cfe_es.h **** /*
 153:/home/simulink/cFS_FreeRTOS_seL4/cfe/fsw/cfe-core/src/inc/cfe_es.h **** ** Note about reset type and subtypes:
 154:/home/simulink/cFS_FreeRTOS_seL4/cfe/fsw/cfe-core/src/inc/cfe_es.h **** **
 155:/home/simulink/cFS_FreeRTOS_seL4/cfe/fsw/cfe-core/src/inc/cfe_es.h **** ** These values come from the PSP so the actual definition of these enumerations
 156:/home/simulink/cFS_FreeRTOS_seL4/cfe/fsw/cfe-core/src/inc/cfe_es.h **** ** was moved to the PSP header file <cfe_psp.h>.
 157:/home/simulink/cFS_FreeRTOS_seL4/cfe/fsw/cfe-core/src/inc/cfe_es.h **** **
 158:/home/simulink/cFS_FreeRTOS_seL4/cfe/fsw/cfe-core/src/inc/cfe_es.h **** ** In the future the Electronic Data sheets (EDS) for PSP/ES
 159:/home/simulink/cFS_FreeRTOS_seL4/cfe/fsw/cfe-core/src/inc/cfe_es.h **** ** will define the exact values to use in telemetry messages.
 160:/home/simulink/cFS_FreeRTOS_seL4/cfe/fsw/cfe-core/src/inc/cfe_es.h **** */
 161:/home/simulink/cFS_FreeRTOS_seL4/cfe/fsw/cfe-core/src/inc/cfe_es.h **** 
68K GAS   			page 4


 162:/home/simulink/cFS_FreeRTOS_seL4/cfe/fsw/cfe-core/src/inc/cfe_es.h **** /*
 163:/home/simulink/cFS_FreeRTOS_seL4/cfe/fsw/cfe-core/src/inc/cfe_es.h **** **  Reset types
 164:/home/simulink/cFS_FreeRTOS_seL4/cfe/fsw/cfe-core/src/inc/cfe_es.h **** */
 165:/home/simulink/cFS_FreeRTOS_seL4/cfe/fsw/cfe-core/src/inc/cfe_es.h **** /** \name Reset Type extensions */
 166:/home/simulink/cFS_FreeRTOS_seL4/cfe/fsw/cfe-core/src/inc/cfe_es.h **** /** \{ */
 167:/home/simulink/cFS_FreeRTOS_seL4/cfe/fsw/cfe-core/src/inc/cfe_es.h **** #define CFE_ES_APP_RESTART       CFE_PSP_RST_TYPE_MAX       /**< Application only was reset (extend
 168:/home/simulink/cFS_FreeRTOS_seL4/cfe/fsw/cfe-core/src/inc/cfe_es.h **** /** \} */
 169:/home/simulink/cFS_FreeRTOS_seL4/cfe/fsw/cfe-core/src/inc/cfe_es.h **** 
 170:/home/simulink/cFS_FreeRTOS_seL4/cfe/fsw/cfe-core/src/inc/cfe_es.h **** 
 171:/home/simulink/cFS_FreeRTOS_seL4/cfe/fsw/cfe-core/src/inc/cfe_es.h **** /** \name Critical Data Store Macros */
 172:/home/simulink/cFS_FreeRTOS_seL4/cfe/fsw/cfe-core/src/inc/cfe_es.h **** /** \{ */
 173:/home/simulink/cFS_FreeRTOS_seL4/cfe/fsw/cfe-core/src/inc/cfe_es.h **** /** Maximum length allowed for CDS name. <BR>
 174:/home/simulink/cFS_FreeRTOS_seL4/cfe/fsw/cfe-core/src/inc/cfe_es.h **** ** NOTE: "+2" is for NULL Character and "." (i.e. - "AppName.CDSName") */
 175:/home/simulink/cFS_FreeRTOS_seL4/cfe/fsw/cfe-core/src/inc/cfe_es.h **** #define CFE_ES_CDS_MAX_FULL_NAME_LEN (CFE_ES_CDS_MAX_NAME_LENGTH + OS_MAX_API_NAME + 2)
 176:/home/simulink/cFS_FreeRTOS_seL4/cfe/fsw/cfe-core/src/inc/cfe_es.h **** 
 177:/home/simulink/cFS_FreeRTOS_seL4/cfe/fsw/cfe-core/src/inc/cfe_es.h **** #define CFE_ES_CDS_BAD_HANDLE  (CFE_ES_CDSHandle_t) 0xFFFF
 178:/home/simulink/cFS_FreeRTOS_seL4/cfe/fsw/cfe-core/src/inc/cfe_es.h **** /** \} */
 179:/home/simulink/cFS_FreeRTOS_seL4/cfe/fsw/cfe-core/src/inc/cfe_es.h **** 
 180:/home/simulink/cFS_FreeRTOS_seL4/cfe/fsw/cfe-core/src/inc/cfe_es.h **** /*
 181:/home/simulink/cFS_FreeRTOS_seL4/cfe/fsw/cfe-core/src/inc/cfe_es.h **** ** ES Run Status and Exit Status defines
 182:/home/simulink/cFS_FreeRTOS_seL4/cfe/fsw/cfe-core/src/inc/cfe_es.h **** */
 183:/home/simulink/cFS_FreeRTOS_seL4/cfe/fsw/cfe-core/src/inc/cfe_es.h **** /** \name Run Status and Exit Status identifiers */
 184:/home/simulink/cFS_FreeRTOS_seL4/cfe/fsw/cfe-core/src/inc/cfe_es.h **** /** \{ */
 185:/home/simulink/cFS_FreeRTOS_seL4/cfe/fsw/cfe-core/src/inc/cfe_es.h **** #define CFE_ES_RUNSTATUS_APP_RUN                  1   /**< \brief Indicates that the Application sh
 186:/home/simulink/cFS_FreeRTOS_seL4/cfe/fsw/cfe-core/src/inc/cfe_es.h **** #define CFE_ES_RUNSTATUS_APP_EXIT                 2  /**< \brief Indicates that the Application wan
 187:/home/simulink/cFS_FreeRTOS_seL4/cfe/fsw/cfe-core/src/inc/cfe_es.h **** #define CFE_ES_RUNSTATUS_APP_ERROR                3  /**< \brief Indicates that the Application is 
 188:/home/simulink/cFS_FreeRTOS_seL4/cfe/fsw/cfe-core/src/inc/cfe_es.h **** #define CFE_ES_RUNSTATUS_SYS_EXCEPTION            4  /**< \brief The cFE App caused an exception */
 189:/home/simulink/cFS_FreeRTOS_seL4/cfe/fsw/cfe-core/src/inc/cfe_es.h **** #define CFE_ES_RUNSTATUS_SYS_RESTART              5  /**< \brief The system is requesting a restart
 190:/home/simulink/cFS_FreeRTOS_seL4/cfe/fsw/cfe-core/src/inc/cfe_es.h **** #define CFE_ES_RUNSTATUS_SYS_RELOAD               6  /**< \brief The system is requesting a reload 
 191:/home/simulink/cFS_FreeRTOS_seL4/cfe/fsw/cfe-core/src/inc/cfe_es.h **** #define CFE_ES_RUNSTATUS_SYS_DELETE               7  /**< \brief The system is requesting that the 
 192:/home/simulink/cFS_FreeRTOS_seL4/cfe/fsw/cfe-core/src/inc/cfe_es.h **** #define CFE_ES_RUNSTATUS_CORE_APP_INIT_ERROR      8 /**< \brief Indicates that the Core Application
 193:/home/simulink/cFS_FreeRTOS_seL4/cfe/fsw/cfe-core/src/inc/cfe_es.h **** #define CFE_ES_RUNSTATUS_CORE_APP_RUNTIME_ERROR   9 /**< \brief Indicates that the Core Application
 194:/home/simulink/cFS_FreeRTOS_seL4/cfe/fsw/cfe-core/src/inc/cfe_es.h **** /** \} */
 195:/home/simulink/cFS_FreeRTOS_seL4/cfe/fsw/cfe-core/src/inc/cfe_es.h **** 
 196:/home/simulink/cFS_FreeRTOS_seL4/cfe/fsw/cfe-core/src/inc/cfe_es.h **** #define CFE_ES_APP_KILL_TIMEOUT         5 /**< \brief Number of cycles that ES will wait before kil
 197:/home/simulink/cFS_FreeRTOS_seL4/cfe/fsw/cfe-core/src/inc/cfe_es.h **** 
 198:/home/simulink/cFS_FreeRTOS_seL4/cfe/fsw/cfe-core/src/inc/cfe_es.h **** #define CFE_ES_NO_MUTEX                 0 /**< \brief Indicates that the memory pool selection will
 199:/home/simulink/cFS_FreeRTOS_seL4/cfe/fsw/cfe-core/src/inc/cfe_es.h **** #define CFE_ES_USE_MUTEX                1 /**< \brief Indicates that the memory pool selection will
 200:/home/simulink/cFS_FreeRTOS_seL4/cfe/fsw/cfe-core/src/inc/cfe_es.h **** 
 201:/home/simulink/cFS_FreeRTOS_seL4/cfe/fsw/cfe-core/src/inc/cfe_es.h **** /*
 202:/home/simulink/cFS_FreeRTOS_seL4/cfe/fsw/cfe-core/src/inc/cfe_es.h **** ** System Log Defines
 203:/home/simulink/cFS_FreeRTOS_seL4/cfe/fsw/cfe-core/src/inc/cfe_es.h **** */
 204:/home/simulink/cFS_FreeRTOS_seL4/cfe/fsw/cfe-core/src/inc/cfe_es.h **** /* "+1" is for the space between the timestamp and the message in the system log */
 205:/home/simulink/cFS_FreeRTOS_seL4/cfe/fsw/cfe-core/src/inc/cfe_es.h **** #define CFE_ES_MAX_SYSLOG_MSG_SIZE (CFE_EVS_MAX_MESSAGE_LENGTH + CFE_TIME_PRINTED_STRING_SIZE + 1)
 206:/home/simulink/cFS_FreeRTOS_seL4/cfe/fsw/cfe-core/src/inc/cfe_es.h **** 
 207:/home/simulink/cFS_FreeRTOS_seL4/cfe/fsw/cfe-core/src/inc/cfe_es.h **** 
 208:/home/simulink/cFS_FreeRTOS_seL4/cfe/fsw/cfe-core/src/inc/cfe_es.h **** /*
 209:/home/simulink/cFS_FreeRTOS_seL4/cfe/fsw/cfe-core/src/inc/cfe_es.h ****  * To preserve source-code compatibility with existing code,
 210:/home/simulink/cFS_FreeRTOS_seL4/cfe/fsw/cfe-core/src/inc/cfe_es.h ****  * this allows the old enum names to still work.  This should
 211:/home/simulink/cFS_FreeRTOS_seL4/cfe/fsw/cfe-core/src/inc/cfe_es.h ****  * be turned off after the new names are established.
 212:/home/simulink/cFS_FreeRTOS_seL4/cfe/fsw/cfe-core/src/inc/cfe_es.h ****  *  (sed -i -e 's/<old-name>/<new-name>/g' should take care of it)
 213:/home/simulink/cFS_FreeRTOS_seL4/cfe/fsw/cfe-core/src/inc/cfe_es.h ****  *
 214:/home/simulink/cFS_FreeRTOS_seL4/cfe/fsw/cfe-core/src/inc/cfe_es.h ****  * Note about why this is a good idea to do --
 215:/home/simulink/cFS_FreeRTOS_seL4/cfe/fsw/cfe-core/src/inc/cfe_es.h ****  * In the list below there are two values with similar names:
 216:/home/simulink/cFS_FreeRTOS_seL4/cfe/fsw/cfe-core/src/inc/cfe_es.h ****  *   CFE_ES_EXCEPTION, CFE_ES_SYS_EXCEPTION
 217:/home/simulink/cFS_FreeRTOS_seL4/cfe/fsw/cfe-core/src/inc/cfe_es.h ****  *
 218:/home/simulink/cFS_FreeRTOS_seL4/cfe/fsw/cfe-core/src/inc/cfe_es.h ****  * But these map to different values for two different purposes,
68K GAS   			page 5


 219:/home/simulink/cFS_FreeRTOS_seL4/cfe/fsw/cfe-core/src/inc/cfe_es.h ****  * one is a app status and the other is a reset subtype.  Using the
 220:/home/simulink/cFS_FreeRTOS_seL4/cfe/fsw/cfe-core/src/inc/cfe_es.h ****  * new names makes it much clearer as to which is which, will
 221:/home/simulink/cFS_FreeRTOS_seL4/cfe/fsw/cfe-core/src/inc/cfe_es.h ****  * greatly reduce the chance of getting them mixed up, and make it
 222:/home/simulink/cFS_FreeRTOS_seL4/cfe/fsw/cfe-core/src/inc/cfe_es.h ****  * much more obvious to a code reviewer if the ARE mixed up somewhere.
 223:/home/simulink/cFS_FreeRTOS_seL4/cfe/fsw/cfe-core/src/inc/cfe_es.h ****  */
 224:/home/simulink/cFS_FreeRTOS_seL4/cfe/fsw/cfe-core/src/inc/cfe_es.h **** #ifndef CFE_ES_ENABLE_NEW_ENUM_NAMES
 225:/home/simulink/cFS_FreeRTOS_seL4/cfe/fsw/cfe-core/src/inc/cfe_es.h **** 
 226:/home/simulink/cFS_FreeRTOS_seL4/cfe/fsw/cfe-core/src/inc/cfe_es.h **** #define CFE_ES_PROCESSOR_RESET            CFE_PSP_RST_TYPE_PROCESSOR
 227:/home/simulink/cFS_FreeRTOS_seL4/cfe/fsw/cfe-core/src/inc/cfe_es.h **** #define CFE_ES_POWERON_RESET              CFE_PSP_RST_TYPE_POWERON
 228:/home/simulink/cFS_FreeRTOS_seL4/cfe/fsw/cfe-core/src/inc/cfe_es.h **** 
 229:/home/simulink/cFS_FreeRTOS_seL4/cfe/fsw/cfe-core/src/inc/cfe_es.h **** #define CFE_ES_POWER_CYCLE                CFE_PSP_RST_SUBTYPE_POWER_CYCLE
 230:/home/simulink/cFS_FreeRTOS_seL4/cfe/fsw/cfe-core/src/inc/cfe_es.h **** #define CFE_ES_PUSH_BUTTON                CFE_PSP_RST_SUBTYPE_PUSH_BUTTON
 231:/home/simulink/cFS_FreeRTOS_seL4/cfe/fsw/cfe-core/src/inc/cfe_es.h **** #define CFE_ES_HW_SPECIAL_COMMAND         CFE_PSP_RST_SUBTYPE_HW_SPECIAL_COMMAND
 232:/home/simulink/cFS_FreeRTOS_seL4/cfe/fsw/cfe-core/src/inc/cfe_es.h **** #define CFE_ES_HW_WATCHDOG                CFE_PSP_RST_SUBTYPE_HW_WATCHDOG
 233:/home/simulink/cFS_FreeRTOS_seL4/cfe/fsw/cfe-core/src/inc/cfe_es.h **** #define CFE_ES_RESET_COMMAND              CFE_PSP_RST_SUBTYPE_RESET_COMMAND
 234:/home/simulink/cFS_FreeRTOS_seL4/cfe/fsw/cfe-core/src/inc/cfe_es.h **** #define CFE_ES_EXCEPTION                  CFE_PSP_RST_SUBTYPE_EXCEPTION
 235:/home/simulink/cFS_FreeRTOS_seL4/cfe/fsw/cfe-core/src/inc/cfe_es.h **** #define CFE_ES_UNDEFINED_RESET            CFE_PSP_RST_SUBTYPE_UNDEFINED_RESET
 236:/home/simulink/cFS_FreeRTOS_seL4/cfe/fsw/cfe-core/src/inc/cfe_es.h **** #define CFE_ES_HWDEBUG_RESET              CFE_PSP_RST_SUBTYPE_HWDEBUG_RESET
 237:/home/simulink/cFS_FreeRTOS_seL4/cfe/fsw/cfe-core/src/inc/cfe_es.h **** #define CFE_ES_BANKSWITCH_RESET           CFE_PSP_RST_SUBTYPE_BANKSWITCH_RESET
 238:/home/simulink/cFS_FreeRTOS_seL4/cfe/fsw/cfe-core/src/inc/cfe_es.h **** 
 239:/home/simulink/cFS_FreeRTOS_seL4/cfe/fsw/cfe-core/src/inc/cfe_es.h **** #define CFE_ES_APP_RUN                    CFE_ES_RUNSTATUS_APP_RUN
 240:/home/simulink/cFS_FreeRTOS_seL4/cfe/fsw/cfe-core/src/inc/cfe_es.h **** #define CFE_ES_APP_EXIT                   CFE_ES_RUNSTATUS_APP_EXIT
 241:/home/simulink/cFS_FreeRTOS_seL4/cfe/fsw/cfe-core/src/inc/cfe_es.h **** #define CFE_ES_APP_ERROR                  CFE_ES_RUNSTATUS_APP_ERROR
 242:/home/simulink/cFS_FreeRTOS_seL4/cfe/fsw/cfe-core/src/inc/cfe_es.h **** #define CFE_ES_SYS_EXCEPTION              CFE_ES_RUNSTATUS_SYS_EXCEPTION
 243:/home/simulink/cFS_FreeRTOS_seL4/cfe/fsw/cfe-core/src/inc/cfe_es.h **** #define CFE_ES_SYS_RESTART                CFE_ES_RUNSTATUS_SYS_RESTART
 244:/home/simulink/cFS_FreeRTOS_seL4/cfe/fsw/cfe-core/src/inc/cfe_es.h **** #define CFE_ES_SYS_RELOAD                 CFE_ES_RUNSTATUS_SYS_RELOAD
 245:/home/simulink/cFS_FreeRTOS_seL4/cfe/fsw/cfe-core/src/inc/cfe_es.h **** #define CFE_ES_SYS_DELETE                 CFE_ES_RUNSTATUS_SYS_DELETE
 246:/home/simulink/cFS_FreeRTOS_seL4/cfe/fsw/cfe-core/src/inc/cfe_es.h **** #define CFE_ES_CORE_APP_INIT_ERROR        CFE_ES_RUNSTATUS_CORE_APP_INIT_ERROR
 247:/home/simulink/cFS_FreeRTOS_seL4/cfe/fsw/cfe-core/src/inc/cfe_es.h **** #define CFE_ES_CORE_APP_RUNTIME_ERROR     CFE_ES_RUNSTATUS_CORE_APP_RUNTIME_ERROR
 248:/home/simulink/cFS_FreeRTOS_seL4/cfe/fsw/cfe-core/src/inc/cfe_es.h **** 
 249:/home/simulink/cFS_FreeRTOS_seL4/cfe/fsw/cfe-core/src/inc/cfe_es.h **** #endif
 250:/home/simulink/cFS_FreeRTOS_seL4/cfe/fsw/cfe-core/src/inc/cfe_es.h **** 
 251:/home/simulink/cFS_FreeRTOS_seL4/cfe/fsw/cfe-core/src/inc/cfe_es.h **** /*****************************************************************************/
 252:/home/simulink/cFS_FreeRTOS_seL4/cfe/fsw/cfe-core/src/inc/cfe_es.h **** /*
 253:/home/simulink/cFS_FreeRTOS_seL4/cfe/fsw/cfe-core/src/inc/cfe_es.h **** ** Type Definitions
 254:/home/simulink/cFS_FreeRTOS_seL4/cfe/fsw/cfe-core/src/inc/cfe_es.h **** */
 255:/home/simulink/cFS_FreeRTOS_seL4/cfe/fsw/cfe-core/src/inc/cfe_es.h **** 
 256:/home/simulink/cFS_FreeRTOS_seL4/cfe/fsw/cfe-core/src/inc/cfe_es.h **** /*
 257:/home/simulink/cFS_FreeRTOS_seL4/cfe/fsw/cfe-core/src/inc/cfe_es.h **** ** Memory Handle type
 258:/home/simulink/cFS_FreeRTOS_seL4/cfe/fsw/cfe-core/src/inc/cfe_es.h **** */
 259:/home/simulink/cFS_FreeRTOS_seL4/cfe/fsw/cfe-core/src/inc/cfe_es.h **** typedef cpuaddr CFE_ES_MemHandle_t;  /**< \brief Data type used to hold Handles of Memory Pools cre
 260:/home/simulink/cFS_FreeRTOS_seL4/cfe/fsw/cfe-core/src/inc/cfe_es.h **** 
 261:/home/simulink/cFS_FreeRTOS_seL4/cfe/fsw/cfe-core/src/inc/cfe_es.h **** /*
 262:/home/simulink/cFS_FreeRTOS_seL4/cfe/fsw/cfe-core/src/inc/cfe_es.h **** ** 
 263:/home/simulink/cFS_FreeRTOS_seL4/cfe/fsw/cfe-core/src/inc/cfe_es.h **** ** CFE_ES_AppInfo_t is a structure that is used to provide
 264:/home/simulink/cFS_FreeRTOS_seL4/cfe/fsw/cfe-core/src/inc/cfe_es.h **** ** information about an app. It is primarily used for the QueryOne and
 265:/home/simulink/cFS_FreeRTOS_seL4/cfe/fsw/cfe-core/src/inc/cfe_es.h **** ** QueryAll Commands.
 266:/home/simulink/cFS_FreeRTOS_seL4/cfe/fsw/cfe-core/src/inc/cfe_es.h **** **
 267:/home/simulink/cFS_FreeRTOS_seL4/cfe/fsw/cfe-core/src/inc/cfe_es.h **** */
 268:/home/simulink/cFS_FreeRTOS_seL4/cfe/fsw/cfe-core/src/inc/cfe_es.h **** typedef struct
 269:/home/simulink/cFS_FreeRTOS_seL4/cfe/fsw/cfe-core/src/inc/cfe_es.h **** {
 270:/home/simulink/cFS_FreeRTOS_seL4/cfe/fsw/cfe-core/src/inc/cfe_es.h ****    uint32   AppId;                          /**< \cfetlmmnemonic \ES_APP_ID
 271:/home/simulink/cFS_FreeRTOS_seL4/cfe/fsw/cfe-core/src/inc/cfe_es.h ****                                                  \brief Application ID for this Application */
 272:/home/simulink/cFS_FreeRTOS_seL4/cfe/fsw/cfe-core/src/inc/cfe_es.h ****    uint32   Type;                           /**< \cfetlmmnemonic \ES_APPTYPE
 273:/home/simulink/cFS_FreeRTOS_seL4/cfe/fsw/cfe-core/src/inc/cfe_es.h ****                                                  \brief The type of App: CORE or EXTERNAL */
 274:/home/simulink/cFS_FreeRTOS_seL4/cfe/fsw/cfe-core/src/inc/cfe_es.h **** 
 275:/home/simulink/cFS_FreeRTOS_seL4/cfe/fsw/cfe-core/src/inc/cfe_es.h ****    char     Name[OS_MAX_API_NAME];          /**< \cfetlmmnemonic \ES_APPNAME
68K GAS   			page 6


 276:/home/simulink/cFS_FreeRTOS_seL4/cfe/fsw/cfe-core/src/inc/cfe_es.h ****                                                  \brief The Registered Name of the Application */
 277:/home/simulink/cFS_FreeRTOS_seL4/cfe/fsw/cfe-core/src/inc/cfe_es.h ****    char     EntryPoint[OS_MAX_API_NAME];    /**< \cfetlmmnemonic \ES_APPENTRYPT
 278:/home/simulink/cFS_FreeRTOS_seL4/cfe/fsw/cfe-core/src/inc/cfe_es.h ****                                                  \brief The Entry Point label for the Application *
 279:/home/simulink/cFS_FreeRTOS_seL4/cfe/fsw/cfe-core/src/inc/cfe_es.h ****    char     FileName[OS_MAX_PATH_LEN];      /**< \cfetlmmnemonic \ES_APPFILENAME
 280:/home/simulink/cFS_FreeRTOS_seL4/cfe/fsw/cfe-core/src/inc/cfe_es.h ****                                                  \brief The Filename of the file containing the App
 281:/home/simulink/cFS_FreeRTOS_seL4/cfe/fsw/cfe-core/src/inc/cfe_es.h **** 
 282:/home/simulink/cFS_FreeRTOS_seL4/cfe/fsw/cfe-core/src/inc/cfe_es.h ****    uint32   StackSize;                      /**< \cfetlmmnemonic \ES_STACKSIZE
 283:/home/simulink/cFS_FreeRTOS_seL4/cfe/fsw/cfe-core/src/inc/cfe_es.h ****                                                  \brief The Stack Size of the Application */
 284:/home/simulink/cFS_FreeRTOS_seL4/cfe/fsw/cfe-core/src/inc/cfe_es.h ****    uint32   ModuleId;                       /**< \cfetlmmnemonic \ES_MODULEID
 285:/home/simulink/cFS_FreeRTOS_seL4/cfe/fsw/cfe-core/src/inc/cfe_es.h ****                                                  \brief The ID of the Loadable Module for the Appli
 286:/home/simulink/cFS_FreeRTOS_seL4/cfe/fsw/cfe-core/src/inc/cfe_es.h ****    uint32   AddressesAreValid;              /**< \cfetlmmnemonic \ES_ADDRVALID
 287:/home/simulink/cFS_FreeRTOS_seL4/cfe/fsw/cfe-core/src/inc/cfe_es.h ****                                                  \brief Indicates that the Code, Data, and BSS addr
 288:/home/simulink/cFS_FreeRTOS_seL4/cfe/fsw/cfe-core/src/inc/cfe_es.h ****    uint32   CodeAddress;                    /**< \cfetlmmnemonic \ES_CODEADDR
 289:/home/simulink/cFS_FreeRTOS_seL4/cfe/fsw/cfe-core/src/inc/cfe_es.h ****                                                  \brief The Address of the Application Code Segment
 290:/home/simulink/cFS_FreeRTOS_seL4/cfe/fsw/cfe-core/src/inc/cfe_es.h ****    uint32   CodeSize;                       /**< \cfetlmmnemonic \ES_CODESIZE
 291:/home/simulink/cFS_FreeRTOS_seL4/cfe/fsw/cfe-core/src/inc/cfe_es.h ****                                                  \brief The Code Size of the Application */
 292:/home/simulink/cFS_FreeRTOS_seL4/cfe/fsw/cfe-core/src/inc/cfe_es.h ****    uint32   DataAddress;                    /**< \cfetlmmnemonic \ES_DATAADDR
 293:/home/simulink/cFS_FreeRTOS_seL4/cfe/fsw/cfe-core/src/inc/cfe_es.h ****                                                  \brief The Address of the Application Data Segment
 294:/home/simulink/cFS_FreeRTOS_seL4/cfe/fsw/cfe-core/src/inc/cfe_es.h ****    uint32   DataSize;                       /**< \cfetlmmnemonic \ES_DATASIZE
 295:/home/simulink/cFS_FreeRTOS_seL4/cfe/fsw/cfe-core/src/inc/cfe_es.h ****                                                  \brief The Data Size of the Application */
 296:/home/simulink/cFS_FreeRTOS_seL4/cfe/fsw/cfe-core/src/inc/cfe_es.h ****    uint32   BSSAddress;                     /**< \cfetlmmnemonic \ES_BSSADDR
 297:/home/simulink/cFS_FreeRTOS_seL4/cfe/fsw/cfe-core/src/inc/cfe_es.h ****                                                  \brief The Address of the Application BSS Segment*
 298:/home/simulink/cFS_FreeRTOS_seL4/cfe/fsw/cfe-core/src/inc/cfe_es.h ****    uint32   BSSSize;                        /**< \cfetlmmnemonic \ES_BSSSIZE
 299:/home/simulink/cFS_FreeRTOS_seL4/cfe/fsw/cfe-core/src/inc/cfe_es.h ****                                                   \brief The BSS Size of the Application */
 300:/home/simulink/cFS_FreeRTOS_seL4/cfe/fsw/cfe-core/src/inc/cfe_es.h ****    uint32   StartAddress;                   /**< \cfetlmmnemonic \ES_STARTADDR
 301:/home/simulink/cFS_FreeRTOS_seL4/cfe/fsw/cfe-core/src/inc/cfe_es.h ****                                                  \brief The Start Address of the Application */
 302:/home/simulink/cFS_FreeRTOS_seL4/cfe/fsw/cfe-core/src/inc/cfe_es.h ****    uint16   ExceptionAction;                /**< \cfetlmmnemonic \ES_EXCEPTNACTN
 303:/home/simulink/cFS_FreeRTOS_seL4/cfe/fsw/cfe-core/src/inc/cfe_es.h ****                                                  \brief What should occur if Application has an exc
 304:/home/simulink/cFS_FreeRTOS_seL4/cfe/fsw/cfe-core/src/inc/cfe_es.h ****                                                  (Restart Application OR Restart Processor) */
 305:/home/simulink/cFS_FreeRTOS_seL4/cfe/fsw/cfe-core/src/inc/cfe_es.h ****    uint16   Priority;                       /**< \cfetlmmnemonic \ES_PRIORITY
 306:/home/simulink/cFS_FreeRTOS_seL4/cfe/fsw/cfe-core/src/inc/cfe_es.h ****                                                  \brief The Priority of the Application */
 307:/home/simulink/cFS_FreeRTOS_seL4/cfe/fsw/cfe-core/src/inc/cfe_es.h ****    uint32   MainTaskId;                     /**< \cfetlmmnemonic \ES_MAINTASKID
 308:/home/simulink/cFS_FreeRTOS_seL4/cfe/fsw/cfe-core/src/inc/cfe_es.h ****                                                  \brief The Application's Main Task ID */
 309:/home/simulink/cFS_FreeRTOS_seL4/cfe/fsw/cfe-core/src/inc/cfe_es.h ****    uint32   ExecutionCounter;               /**< \cfetlmmnemonic \ES_MAINTASKEXECNT
 310:/home/simulink/cFS_FreeRTOS_seL4/cfe/fsw/cfe-core/src/inc/cfe_es.h ****                                                  \brief The Application's Main Task Execution Count
 311:/home/simulink/cFS_FreeRTOS_seL4/cfe/fsw/cfe-core/src/inc/cfe_es.h ****    char     MainTaskName[OS_MAX_API_NAME];  /**< \cfetlmmnemonic \ES_MAINTASKNAME
 312:/home/simulink/cFS_FreeRTOS_seL4/cfe/fsw/cfe-core/src/inc/cfe_es.h ****                                                  \brief The Application's Main Task ID */
 313:/home/simulink/cFS_FreeRTOS_seL4/cfe/fsw/cfe-core/src/inc/cfe_es.h ****    uint32   NumOfChildTasks;                /**< \cfetlmmnemonic \ES_CHILDTASKS
 314:/home/simulink/cFS_FreeRTOS_seL4/cfe/fsw/cfe-core/src/inc/cfe_es.h ****                                                  \brief Number of Child tasks for an App */
 315:/home/simulink/cFS_FreeRTOS_seL4/cfe/fsw/cfe-core/src/inc/cfe_es.h **** 
 316:/home/simulink/cFS_FreeRTOS_seL4/cfe/fsw/cfe-core/src/inc/cfe_es.h **** } CFE_ES_AppInfo_t;
 317:/home/simulink/cFS_FreeRTOS_seL4/cfe/fsw/cfe-core/src/inc/cfe_es.h **** 
 318:/home/simulink/cFS_FreeRTOS_seL4/cfe/fsw/cfe-core/src/inc/cfe_es.h **** /*
 319:/home/simulink/cFS_FreeRTOS_seL4/cfe/fsw/cfe-core/src/inc/cfe_es.h **** ** Task Info Type
 320:/home/simulink/cFS_FreeRTOS_seL4/cfe/fsw/cfe-core/src/inc/cfe_es.h **** */
 321:/home/simulink/cFS_FreeRTOS_seL4/cfe/fsw/cfe-core/src/inc/cfe_es.h **** typedef struct
 322:/home/simulink/cFS_FreeRTOS_seL4/cfe/fsw/cfe-core/src/inc/cfe_es.h **** {
 323:/home/simulink/cFS_FreeRTOS_seL4/cfe/fsw/cfe-core/src/inc/cfe_es.h ****    uint32   TaskId;                    /**< \brief Task Id */
 324:/home/simulink/cFS_FreeRTOS_seL4/cfe/fsw/cfe-core/src/inc/cfe_es.h ****    uint32   ExecutionCounter;          /**K \brief Task Execution Counter */
 325:/home/simulink/cFS_FreeRTOS_seL4/cfe/fsw/cfe-core/src/inc/cfe_es.h ****    uint8    TaskName[OS_MAX_API_NAME]; /**< \brief Task Name */
 326:/home/simulink/cFS_FreeRTOS_seL4/cfe/fsw/cfe-core/src/inc/cfe_es.h ****    uint32   AppId;                     /**< \brief Parent Application ID */
 327:/home/simulink/cFS_FreeRTOS_seL4/cfe/fsw/cfe-core/src/inc/cfe_es.h ****    uint8    AppName[OS_MAX_API_NAME];  /**< \brief Parent Application Name */
 328:/home/simulink/cFS_FreeRTOS_seL4/cfe/fsw/cfe-core/src/inc/cfe_es.h **** 
 329:/home/simulink/cFS_FreeRTOS_seL4/cfe/fsw/cfe-core/src/inc/cfe_es.h **** } CFE_ES_TaskInfo_t;
 330:/home/simulink/cFS_FreeRTOS_seL4/cfe/fsw/cfe-core/src/inc/cfe_es.h **** 
 331:/home/simulink/cFS_FreeRTOS_seL4/cfe/fsw/cfe-core/src/inc/cfe_es.h **** /*
 332:/home/simulink/cFS_FreeRTOS_seL4/cfe/fsw/cfe-core/src/inc/cfe_es.h **** ** Memory Pool Statistics data type
68K GAS   			page 7


 333:/home/simulink/cFS_FreeRTOS_seL4/cfe/fsw/cfe-core/src/inc/cfe_es.h **** */
 334:/home/simulink/cFS_FreeRTOS_seL4/cfe/fsw/cfe-core/src/inc/cfe_es.h **** typedef struct
 335:/home/simulink/cFS_FreeRTOS_seL4/cfe/fsw/cfe-core/src/inc/cfe_es.h **** {
 336:/home/simulink/cFS_FreeRTOS_seL4/cfe/fsw/cfe-core/src/inc/cfe_es.h ****     uint32  BlockSize;               /**< \brief Number of bytes in each of these blocks */
 337:/home/simulink/cFS_FreeRTOS_seL4/cfe/fsw/cfe-core/src/inc/cfe_es.h ****     uint32  NumCreated;              /**< \brief Number of Memory Blocks of this size created */
 338:/home/simulink/cFS_FreeRTOS_seL4/cfe/fsw/cfe-core/src/inc/cfe_es.h ****     uint32  NumFree;                 /**< \brief Number of Memory Blocks of this size that are free
 339:/home/simulink/cFS_FreeRTOS_seL4/cfe/fsw/cfe-core/src/inc/cfe_es.h **** } CFE_ES_BlockStats_t;
 340:/home/simulink/cFS_FreeRTOS_seL4/cfe/fsw/cfe-core/src/inc/cfe_es.h **** 
 341:/home/simulink/cFS_FreeRTOS_seL4/cfe/fsw/cfe-core/src/inc/cfe_es.h **** typedef struct
 342:/home/simulink/cFS_FreeRTOS_seL4/cfe/fsw/cfe-core/src/inc/cfe_es.h **** {
 343:/home/simulink/cFS_FreeRTOS_seL4/cfe/fsw/cfe-core/src/inc/cfe_es.h ****     uint32                PoolSize;                /**< \cfetlmmnemonic \ES_POOLSIZE
 344:/home/simulink/cFS_FreeRTOS_seL4/cfe/fsw/cfe-core/src/inc/cfe_es.h ****                                                         \brief  Size of Memory Pool (in bytes) */
 345:/home/simulink/cFS_FreeRTOS_seL4/cfe/fsw/cfe-core/src/inc/cfe_es.h ****     uint32                NumBlocksRequested;      /**< \cfetlmmnemonic \ES_BLKSREQ
 346:/home/simulink/cFS_FreeRTOS_seL4/cfe/fsw/cfe-core/src/inc/cfe_es.h ****                                                         \brief Number of times a memory block has b
 347:/home/simulink/cFS_FreeRTOS_seL4/cfe/fsw/cfe-core/src/inc/cfe_es.h ****     uint32                CheckErrCtr;             /**< \cfetlmmnemonic \ES_BLKERRCTR
 348:/home/simulink/cFS_FreeRTOS_seL4/cfe/fsw/cfe-core/src/inc/cfe_es.h ****                                                         \brief Number of errors detected when freei
 349:/home/simulink/cFS_FreeRTOS_seL4/cfe/fsw/cfe-core/src/inc/cfe_es.h ****     uint32                NumFreeBytes;            /**< \cfetlmmnemonic \ES_FREEBYTES
 350:/home/simulink/cFS_FreeRTOS_seL4/cfe/fsw/cfe-core/src/inc/cfe_es.h ****                                                         \brief Number of bytes never allocated to a
 351:/home/simulink/cFS_FreeRTOS_seL4/cfe/fsw/cfe-core/src/inc/cfe_es.h ****     CFE_ES_BlockStats_t   BlockStats[CFE_ES_MAX_MEMPOOL_BLOCK_SIZES]; /**< \cfetlmmnemonic \ES_BLKS
 352:/home/simulink/cFS_FreeRTOS_seL4/cfe/fsw/cfe-core/src/inc/cfe_es.h ****                                                                            \brief Contains stats on
 353:/home/simulink/cFS_FreeRTOS_seL4/cfe/fsw/cfe-core/src/inc/cfe_es.h **** } CFE_ES_MemPoolStats_t;
 354:/home/simulink/cFS_FreeRTOS_seL4/cfe/fsw/cfe-core/src/inc/cfe_es.h **** 
 355:/home/simulink/cFS_FreeRTOS_seL4/cfe/fsw/cfe-core/src/inc/cfe_es.h **** /*
 356:/home/simulink/cFS_FreeRTOS_seL4/cfe/fsw/cfe-core/src/inc/cfe_es.h **** ** CDS Handle type
 357:/home/simulink/cFS_FreeRTOS_seL4/cfe/fsw/cfe-core/src/inc/cfe_es.h **** */
 358:/home/simulink/cFS_FreeRTOS_seL4/cfe/fsw/cfe-core/src/inc/cfe_es.h **** typedef cpuaddr CFE_ES_CDSHandle_t;    /**< \brief Data type used to hold Handles of Critical Data 
 359:/home/simulink/cFS_FreeRTOS_seL4/cfe/fsw/cfe-core/src/inc/cfe_es.h **** 
 360:/home/simulink/cFS_FreeRTOS_seL4/cfe/fsw/cfe-core/src/inc/cfe_es.h **** typedef struct
 361:/home/simulink/cFS_FreeRTOS_seL4/cfe/fsw/cfe-core/src/inc/cfe_es.h **** {
 362:/home/simulink/cFS_FreeRTOS_seL4/cfe/fsw/cfe-core/src/inc/cfe_es.h ****     CFE_ES_CDSHandle_t    Handle;          /**< \brief Handle of CDS */
 363:/home/simulink/cFS_FreeRTOS_seL4/cfe/fsw/cfe-core/src/inc/cfe_es.h ****     uint32                Size;            /**< \brief Size, in bytes, of the CDS memory block */
 364:/home/simulink/cFS_FreeRTOS_seL4/cfe/fsw/cfe-core/src/inc/cfe_es.h ****     boolean               Table;           /**< \brief Flag that indicates whether CDS contains a C
 365:/home/simulink/cFS_FreeRTOS_seL4/cfe/fsw/cfe-core/src/inc/cfe_es.h ****     char                  Name[CFE_ES_CDS_MAX_FULL_NAME_LEN]; /**< \brief Processor Unique Name of 
 366:/home/simulink/cFS_FreeRTOS_seL4/cfe/fsw/cfe-core/src/inc/cfe_es.h ****     uint8                 ByteAlignSpare1; /**< \brief Spare byte to insure structure size is multi
 367:/home/simulink/cFS_FreeRTOS_seL4/cfe/fsw/cfe-core/src/inc/cfe_es.h **** } CFE_ES_CDSRegDumpRec_t;
 368:/home/simulink/cFS_FreeRTOS_seL4/cfe/fsw/cfe-core/src/inc/cfe_es.h **** 
 369:/home/simulink/cFS_FreeRTOS_seL4/cfe/fsw/cfe-core/src/inc/cfe_es.h **** /*
 370:/home/simulink/cFS_FreeRTOS_seL4/cfe/fsw/cfe-core/src/inc/cfe_es.h **** ** Child Task Main Function Prototype
 371:/home/simulink/cFS_FreeRTOS_seL4/cfe/fsw/cfe-core/src/inc/cfe_es.h **** */
 372:/home/simulink/cFS_FreeRTOS_seL4/cfe/fsw/cfe-core/src/inc/cfe_es.h **** typedef void (*CFE_ES_ChildTaskMainFuncPtr_t)(void); /**< \brief Required Prototype of Child Task M
 373:/home/simulink/cFS_FreeRTOS_seL4/cfe/fsw/cfe-core/src/inc/cfe_es.h **** typedef int32 (*CFE_ES_LibraryEntryFuncPtr_t)(void); /**< \brief Required Prototype of Library Init
 374:/home/simulink/cFS_FreeRTOS_seL4/cfe/fsw/cfe-core/src/inc/cfe_es.h **** 
 375:/home/simulink/cFS_FreeRTOS_seL4/cfe/fsw/cfe-core/src/inc/cfe_es.h **** typedef enum
 376:/home/simulink/cFS_FreeRTOS_seL4/cfe/fsw/cfe-core/src/inc/cfe_es.h **** {
 377:/home/simulink/cFS_FreeRTOS_seL4/cfe/fsw/cfe-core/src/inc/cfe_es.h ****     CFE_ES_STATICENTRYTYPE_INVALID      = 0,
 378:/home/simulink/cFS_FreeRTOS_seL4/cfe/fsw/cfe-core/src/inc/cfe_es.h ****     CFE_ES_STATICENTRYTYPE_FIRST_VALID  = 2000,
 379:/home/simulink/cFS_FreeRTOS_seL4/cfe/fsw/cfe-core/src/inc/cfe_es.h ****     CFE_ES_STATICENTRYTYPE_APPLICATION,
 380:/home/simulink/cFS_FreeRTOS_seL4/cfe/fsw/cfe-core/src/inc/cfe_es.h ****     CFE_ES_STATICENTRYTYPE_LIBRARY,
 381:/home/simulink/cFS_FreeRTOS_seL4/cfe/fsw/cfe-core/src/inc/cfe_es.h ****     CFE_ES_STATICENTRYTYPE_MAX
 382:/home/simulink/cFS_FreeRTOS_seL4/cfe/fsw/cfe-core/src/inc/cfe_es.h **** } CFE_ES_StaticEntryType_t;
 383:/home/simulink/cFS_FreeRTOS_seL4/cfe/fsw/cfe-core/src/inc/cfe_es.h **** 
 384:/home/simulink/cFS_FreeRTOS_seL4/cfe/fsw/cfe-core/src/inc/cfe_es.h **** /*
 385:/home/simulink/cFS_FreeRTOS_seL4/cfe/fsw/cfe-core/src/inc/cfe_es.h **** ** API Structure for statically linked CFS Applications
 386:/home/simulink/cFS_FreeRTOS_seL4/cfe/fsw/cfe-core/src/inc/cfe_es.h **** */
 387:/home/simulink/cFS_FreeRTOS_seL4/cfe/fsw/cfe-core/src/inc/cfe_es.h **** typedef const struct
 388:/home/simulink/cFS_FreeRTOS_seL4/cfe/fsw/cfe-core/src/inc/cfe_es.h **** {
 389:/home/simulink/cFS_FreeRTOS_seL4/cfe/fsw/cfe-core/src/inc/cfe_es.h ****     CFE_ES_StaticEntryType_t EntryType;
68K GAS   			page 8


 390:/home/simulink/cFS_FreeRTOS_seL4/cfe/fsw/cfe-core/src/inc/cfe_es.h ****     union
 391:/home/simulink/cFS_FreeRTOS_seL4/cfe/fsw/cfe-core/src/inc/cfe_es.h ****     {
 392:/home/simulink/cFS_FreeRTOS_seL4/cfe/fsw/cfe-core/src/inc/cfe_es.h ****         CFE_ES_ChildTaskMainFuncPtr_t AppEntryFunc;     /**< \brief Entry point for Application */
 393:/home/simulink/cFS_FreeRTOS_seL4/cfe/fsw/cfe-core/src/inc/cfe_es.h ****         CFE_ES_LibraryEntryFuncPtr_t LibInitFunc;       /**< \brief Initialization function for Lib
 394:/home/simulink/cFS_FreeRTOS_seL4/cfe/fsw/cfe-core/src/inc/cfe_es.h ****         cpuaddr EntryFuncAddr;
 395:/home/simulink/cFS_FreeRTOS_seL4/cfe/fsw/cfe-core/src/inc/cfe_es.h ****     } Ptrs;
 396:/home/simulink/cFS_FreeRTOS_seL4/cfe/fsw/cfe-core/src/inc/cfe_es.h ****     uint32  Priority;
 397:/home/simulink/cFS_FreeRTOS_seL4/cfe/fsw/cfe-core/src/inc/cfe_es.h ****     uint32  StackSize;
 398:/home/simulink/cFS_FreeRTOS_seL4/cfe/fsw/cfe-core/src/inc/cfe_es.h **** } CFE_ES_AppStaticModuleApi_t;
 399:/home/simulink/cFS_FreeRTOS_seL4/cfe/fsw/cfe-core/src/inc/cfe_es.h **** 
 400:/home/simulink/cFS_FreeRTOS_seL4/cfe/fsw/cfe-core/src/inc/cfe_es.h **** #ifdef CFS_STATIC_MODULE
 401:/home/simulink/cFS_FreeRTOS_seL4/cfe/fsw/cfe-core/src/inc/cfe_es.h **** 
 402:/home/simulink/cFS_FreeRTOS_seL4/cfe/fsw/cfe-core/src/inc/cfe_es.h **** #define CFS_MODULE_DECLARE_APP(name,pri,stack)              \
 403:/home/simulink/cFS_FreeRTOS_seL4/cfe/fsw/cfe-core/src/inc/cfe_es.h ****     void name##_Main(void);                                 \
 404:/home/simulink/cFS_FreeRTOS_seL4/cfe/fsw/cfe-core/src/inc/cfe_es.h ****     CFE_ES_AppStaticModuleApi_t CFS_##name##_API =          \
 405:/home/simulink/cFS_FreeRTOS_seL4/cfe/fsw/cfe-core/src/inc/cfe_es.h ****     {                                                       \
 406:/home/simulink/cFS_FreeRTOS_seL4/cfe/fsw/cfe-core/src/inc/cfe_es.h ****         .EntryType = CFE_ES_STATICENTRYTYPE_APPLICATION,    \
 407:/home/simulink/cFS_FreeRTOS_seL4/cfe/fsw/cfe-core/src/inc/cfe_es.h ****         .Ptrs.AppEntryFunc = name##_Main,                   \
 408:/home/simulink/cFS_FreeRTOS_seL4/cfe/fsw/cfe-core/src/inc/cfe_es.h ****         .Priority = pri,                                    \
 409:/home/simulink/cFS_FreeRTOS_seL4/cfe/fsw/cfe-core/src/inc/cfe_es.h ****         .StackSize = stack,                                 \
 410:/home/simulink/cFS_FreeRTOS_seL4/cfe/fsw/cfe-core/src/inc/cfe_es.h ****     }
 411:/home/simulink/cFS_FreeRTOS_seL4/cfe/fsw/cfe-core/src/inc/cfe_es.h **** 
 412:/home/simulink/cFS_FreeRTOS_seL4/cfe/fsw/cfe-core/src/inc/cfe_es.h **** #define CFS_MODULE_DECLARE_LIB(name)                        \
 413:/home/simulink/cFS_FreeRTOS_seL4/cfe/fsw/cfe-core/src/inc/cfe_es.h ****     int32 name##_Init(void);                                \
 414:/home/simulink/cFS_FreeRTOS_seL4/cfe/fsw/cfe-core/src/inc/cfe_es.h ****     CFE_ES_AppStaticModuleApi_t CFS_##name##_API =          \
 415:/home/simulink/cFS_FreeRTOS_seL4/cfe/fsw/cfe-core/src/inc/cfe_es.h ****     {                                                       \
 416:/home/simulink/cFS_FreeRTOS_seL4/cfe/fsw/cfe-core/src/inc/cfe_es.h ****         .EntryType = CFE_ES_STATICENTRYTYPE_LIBRARY,        \
 417:/home/simulink/cFS_FreeRTOS_seL4/cfe/fsw/cfe-core/src/inc/cfe_es.h ****         .Ptrs.LibInitFunc = name##_Init,                    \
 418:/home/simulink/cFS_FreeRTOS_seL4/cfe/fsw/cfe-core/src/inc/cfe_es.h ****     }
 419:/home/simulink/cFS_FreeRTOS_seL4/cfe/fsw/cfe-core/src/inc/cfe_es.h **** #else
 420:/home/simulink/cFS_FreeRTOS_seL4/cfe/fsw/cfe-core/src/inc/cfe_es.h **** #define CFS_MODULE_DECLARE_APP(name,pri,stack)
 421:/home/simulink/cFS_FreeRTOS_seL4/cfe/fsw/cfe-core/src/inc/cfe_es.h **** #define CFS_MODULE_DECLARE_LIB(name)
 422:/home/simulink/cFS_FreeRTOS_seL4/cfe/fsw/cfe-core/src/inc/cfe_es.h **** #endif
 423:/home/simulink/cFS_FreeRTOS_seL4/cfe/fsw/cfe-core/src/inc/cfe_es.h **** 
 424:/home/simulink/cFS_FreeRTOS_seL4/cfe/fsw/cfe-core/src/inc/cfe_es.h **** 
 425:/home/simulink/cFS_FreeRTOS_seL4/cfe/fsw/cfe-core/src/inc/cfe_es.h **** /*****************************************************************************/
 426:/home/simulink/cFS_FreeRTOS_seL4/cfe/fsw/cfe-core/src/inc/cfe_es.h **** /*
 427:/home/simulink/cFS_FreeRTOS_seL4/cfe/fsw/cfe-core/src/inc/cfe_es.h **** ** Exported Functions
 428:/home/simulink/cFS_FreeRTOS_seL4/cfe/fsw/cfe-core/src/inc/cfe_es.h **** */
 429:/home/simulink/cFS_FreeRTOS_seL4/cfe/fsw/cfe-core/src/inc/cfe_es.h **** 
 430:/home/simulink/cFS_FreeRTOS_seL4/cfe/fsw/cfe-core/src/inc/cfe_es.h **** /*****************************************************************************/
 431:/home/simulink/cFS_FreeRTOS_seL4/cfe/fsw/cfe-core/src/inc/cfe_es.h **** 
 432:/home/simulink/cFS_FreeRTOS_seL4/cfe/fsw/cfe-core/src/inc/cfe_es.h **** #if !defined(OSAL_OPAQUE_OBJECT_IDS)
 433:/home/simulink/cFS_FreeRTOS_seL4/cfe/fsw/cfe-core/src/inc/cfe_es.h **** /*
 434:/home/simulink/cFS_FreeRTOS_seL4/cfe/fsw/cfe-core/src/inc/cfe_es.h **** ** \brief Compatibility wrapper for older versions of OSAL
 435:/home/simulink/cFS_FreeRTOS_seL4/cfe/fsw/cfe-core/src/inc/cfe_es.h **** **
 436:/home/simulink/cFS_FreeRTOS_seL4/cfe/fsw/cfe-core/src/inc/cfe_es.h **** ** \par Description
 437:/home/simulink/cFS_FreeRTOS_seL4/cfe/fsw/cfe-core/src/inc/cfe_es.h **** **   In future versions of OSAL the task/object ID values might not be zero based
 438:/home/simulink/cFS_FreeRTOS_seL4/cfe/fsw/cfe-core/src/inc/cfe_es.h **** **   If that is the case then the OSAL must also define a function to convert back
 439:/home/simulink/cFS_FreeRTOS_seL4/cfe/fsw/cfe-core/src/inc/cfe_es.h **** **   to zero-based numbers such that the value can be used as an array index.
 440:/home/simulink/cFS_FreeRTOS_seL4/cfe/fsw/cfe-core/src/inc/cfe_es.h **** **
 441:/home/simulink/cFS_FreeRTOS_seL4/cfe/fsw/cfe-core/src/inc/cfe_es.h **** **   When using an existing/older version of OSAL, this inline function is defined
 442:/home/simulink/cFS_FreeRTOS_seL4/cfe/fsw/cfe-core/src/inc/cfe_es.h **** **   to mimic this call for backward compatibility.  It just passes through the same
 443:/home/simulink/cFS_FreeRTOS_seL4/cfe/fsw/cfe-core/src/inc/cfe_es.h **** **   value without modification.
 444:/home/simulink/cFS_FreeRTOS_seL4/cfe/fsw/cfe-core/src/inc/cfe_es.h **** **
 445:/home/simulink/cFS_FreeRTOS_seL4/cfe/fsw/cfe-core/src/inc/cfe_es.h **** ** \param[in]  ObjectId     The object ID from OSAL
 446:/home/simulink/cFS_FreeRTOS_seL4/cfe/fsw/cfe-core/src/inc/cfe_es.h **** ** \param[out] ArrayIndex   A zero-based value suitable for use as an array index
68K GAS   			page 9


 447:/home/simulink/cFS_FreeRTOS_seL4/cfe/fsw/cfe-core/src/inc/cfe_es.h **** ** \returns    OS_SUCCESS (a real version might return an error code).
 448:/home/simulink/cFS_FreeRTOS_seL4/cfe/fsw/cfe-core/src/inc/cfe_es.h **** */
 449:/home/simulink/cFS_FreeRTOS_seL4/cfe/fsw/cfe-core/src/inc/cfe_es.h **** static inline int32 OS_ConvertToArrayIndex(uint32 ObjectId, uint32 *ArrayIndex)
 450:/home/simulink/cFS_FreeRTOS_seL4/cfe/fsw/cfe-core/src/inc/cfe_es.h **** {
  11               	.loc 1 450 0
  12               	.cfi_startproc
 451:/home/simulink/cFS_FreeRTOS_seL4/cfe/fsw/cfe-core/src/inc/cfe_es.h ****    *ArrayIndex = ObjectId;
  13               	.loc 1 451 0
  14 0000 206F 0008 	move.l 8(%sp),%a0
  15 0004 20AF 0004 	move.l 4(%sp),(%a0)
 452:/home/simulink/cFS_FreeRTOS_seL4/cfe/fsw/cfe-core/src/inc/cfe_es.h ****    return OS_SUCCESS;
  16               	.loc 1 452 0
  17 0008 4280      	clr.l %d0
 453:/home/simulink/cFS_FreeRTOS_seL4/cfe/fsw/cfe-core/src/inc/cfe_es.h **** }
  18               	.loc 1 453 0
  19 000a 4E75      	rts
  20               	.cfi_endproc
  21               	.LFE58:
  22               	.sizeOS_ConvertToArrayIndex, .-OS_ConvertToArrayIndex
  23               	.align2
  24               	.globlCFE_ES_GetResetType
  25               	.typeCFE_ES_GetResetType, @function
  26               	CFE_ES_GetResetType:
  27               	.LFB59:
  28               	.file 2 "/home/simulink/cFS_FreeRTOS_seL4/cfe/fsw/cfe-core/src/es/cfe_es_api.c"
   1:/home/simulink/cFS_FreeRTOS_seL4/cfe/fsw/cfe-core/src/es/cfe_es_api.c **** /*
   2:/home/simulink/cFS_FreeRTOS_seL4/cfe/fsw/cfe-core/src/es/cfe_es_api.c **** **  File:  
   3:/home/simulink/cFS_FreeRTOS_seL4/cfe/fsw/cfe-core/src/es/cfe_es_api.c **** **    cfe_es_api.c
   4:/home/simulink/cFS_FreeRTOS_seL4/cfe/fsw/cfe-core/src/es/cfe_es_api.c **** **
   5:/home/simulink/cFS_FreeRTOS_seL4/cfe/fsw/cfe-core/src/es/cfe_es_api.c **** **      Copyright (c) 2004-2012, United States government as represented by the 
   6:/home/simulink/cFS_FreeRTOS_seL4/cfe/fsw/cfe-core/src/es/cfe_es_api.c **** **      administrator of the National Aeronautics Space Administration.  
   7:/home/simulink/cFS_FreeRTOS_seL4/cfe/fsw/cfe-core/src/es/cfe_es_api.c **** **      All rights reserved. This software(cFE) was created at NASA's Goddard 
   8:/home/simulink/cFS_FreeRTOS_seL4/cfe/fsw/cfe-core/src/es/cfe_es_api.c **** **      Space Flight Center pursuant to government contracts.
   9:/home/simulink/cFS_FreeRTOS_seL4/cfe/fsw/cfe-core/src/es/cfe_es_api.c **** **
  10:/home/simulink/cFS_FreeRTOS_seL4/cfe/fsw/cfe-core/src/es/cfe_es_api.c **** **      This is governed by the NASA Open Source Agreement and may be used,
  11:/home/simulink/cFS_FreeRTOS_seL4/cfe/fsw/cfe-core/src/es/cfe_es_api.c **** **      distributed and modified only pursuant to the terms of that agreement.
  12:/home/simulink/cFS_FreeRTOS_seL4/cfe/fsw/cfe-core/src/es/cfe_es_api.c **** **
  13:/home/simulink/cFS_FreeRTOS_seL4/cfe/fsw/cfe-core/src/es/cfe_es_api.c **** **
  14:/home/simulink/cFS_FreeRTOS_seL4/cfe/fsw/cfe-core/src/es/cfe_es_api.c **** **  Purpose:  
  15:/home/simulink/cFS_FreeRTOS_seL4/cfe/fsw/cfe-core/src/es/cfe_es_api.c **** **    This file implements the cFE Executive Services API functions.
  16:/home/simulink/cFS_FreeRTOS_seL4/cfe/fsw/cfe-core/src/es/cfe_es_api.c **** **
  17:/home/simulink/cFS_FreeRTOS_seL4/cfe/fsw/cfe-core/src/es/cfe_es_api.c **** **  References:
  18:/home/simulink/cFS_FreeRTOS_seL4/cfe/fsw/cfe-core/src/es/cfe_es_api.c **** **     Flight Software Branch C Coding Standard Version 1.0a
  19:/home/simulink/cFS_FreeRTOS_seL4/cfe/fsw/cfe-core/src/es/cfe_es_api.c **** **     cFE Flight Software Application Developers Guide
  20:/home/simulink/cFS_FreeRTOS_seL4/cfe/fsw/cfe-core/src/es/cfe_es_api.c **** **
  21:/home/simulink/cFS_FreeRTOS_seL4/cfe/fsw/cfe-core/src/es/cfe_es_api.c **** **  Notes:
  22:/home/simulink/cFS_FreeRTOS_seL4/cfe/fsw/cfe-core/src/es/cfe_es_api.c **** ** 
  23:/home/simulink/cFS_FreeRTOS_seL4/cfe/fsw/cfe-core/src/es/cfe_es_api.c **** **  Modification History:
  24:/home/simulink/cFS_FreeRTOS_seL4/cfe/fsw/cfe-core/src/es/cfe_es_api.c **** **
  25:/home/simulink/cFS_FreeRTOS_seL4/cfe/fsw/cfe-core/src/es/cfe_es_api.c **** ** $Log: cfe_es_api.c  $
  26:/home/simulink/cFS_FreeRTOS_seL4/cfe/fsw/cfe-core/src/es/cfe_es_api.c **** ** Revision 1.21 2014/09/05 11:37:51GMT-05:00 acudmore 
  27:/home/simulink/cFS_FreeRTOS_seL4/cfe/fsw/cfe-core/src/es/cfe_es_api.c **** ** Updated Syslog and ERlog text in CFE_ES_ResetCFE
  28:/home/simulink/cFS_FreeRTOS_seL4/cfe/fsw/cfe-core/src/es/cfe_es_api.c **** ** Revision 1.20 2014/08/22 15:50:05GMT-05:00 lwalling 
  29:/home/simulink/cFS_FreeRTOS_seL4/cfe/fsw/cfe-core/src/es/cfe_es_api.c **** ** Changed signed loop counters to unsigned
  30:/home/simulink/cFS_FreeRTOS_seL4/cfe/fsw/cfe-core/src/es/cfe_es_api.c **** ** Revision 1.19 2014/07/23 15:35:46EDT acudmore 
  31:/home/simulink/cFS_FreeRTOS_seL4/cfe/fsw/cfe-core/src/es/cfe_es_api.c **** ** Updated where the Processor Reset counter is incremented.
  32:/home/simulink/cFS_FreeRTOS_seL4/cfe/fsw/cfe-core/src/es/cfe_es_api.c **** ** Made the ER log entry text clearer.
68K GAS   			page 10


  33:/home/simulink/cFS_FreeRTOS_seL4/cfe/fsw/cfe-core/src/es/cfe_es_api.c **** ** Revision 1.18 2014/05/05 14:44:53GMT-05:00 acudmore 
  34:/home/simulink/cFS_FreeRTOS_seL4/cfe/fsw/cfe-core/src/es/cfe_es_api.c **** ** fixed potential unititialized variable
  35:/home/simulink/cFS_FreeRTOS_seL4/cfe/fsw/cfe-core/src/es/cfe_es_api.c **** ** Revision 1.17 2014/05/05 14:03:39GMT-05:00 acudmore 
  36:/home/simulink/cFS_FreeRTOS_seL4/cfe/fsw/cfe-core/src/es/cfe_es_api.c **** ** Fixed syslog logic to check for invalid syslog mode and index due to corrupted global memory
  37:/home/simulink/cFS_FreeRTOS_seL4/cfe/fsw/cfe-core/src/es/cfe_es_api.c **** ** Revision 1.16 2012/04/20 15:21:32GMT-05:00 acudmore 
  38:/home/simulink/cFS_FreeRTOS_seL4/cfe/fsw/cfe-core/src/es/cfe_es_api.c **** ** Fixed reset subtype in CFE_ES_ResetCFE function.
  39:/home/simulink/cFS_FreeRTOS_seL4/cfe/fsw/cfe-core/src/es/cfe_es_api.c **** ** Revision 1.15 2012/01/13 11:49:59EST acudmore 
  40:/home/simulink/cFS_FreeRTOS_seL4/cfe/fsw/cfe-core/src/es/cfe_es_api.c **** ** Changed license text to reflect open source
  41:/home/simulink/cFS_FreeRTOS_seL4/cfe/fsw/cfe-core/src/es/cfe_es_api.c **** ** Revision 1.14 2012/01/11 18:51:33EST aschoeni 
  42:/home/simulink/cFS_FreeRTOS_seL4/cfe/fsw/cfe-core/src/es/cfe_es_api.c **** ** Removed child task exit message from system log
  43:/home/simulink/cFS_FreeRTOS_seL4/cfe/fsw/cfe-core/src/es/cfe_es_api.c **** ** Revision 1.13 2011/09/02 11:02:56EDT jmdagost 
  44:/home/simulink/cFS_FreeRTOS_seL4/cfe/fsw/cfe-core/src/es/cfe_es_api.c **** ** Added new-line charactesr to the end of sys log messages that were missing them.
  45:/home/simulink/cFS_FreeRTOS_seL4/cfe/fsw/cfe-core/src/es/cfe_es_api.c **** ** Revision 1.12 2011/07/15 14:28:52EDT lwalling 
  46:/home/simulink/cFS_FreeRTOS_seL4/cfe/fsw/cfe-core/src/es/cfe_es_api.c **** ** Removed const qualifier from CounterName argument to CFE_ES_RegisterGenCounter()
  47:/home/simulink/cFS_FreeRTOS_seL4/cfe/fsw/cfe-core/src/es/cfe_es_api.c **** ** Revision 1.11 2010/11/05 15:54:33EDT aschoeni 
  48:/home/simulink/cFS_FreeRTOS_seL4/cfe/fsw/cfe-core/src/es/cfe_es_api.c **** ** Added Generic Counter API to ES
  49:/home/simulink/cFS_FreeRTOS_seL4/cfe/fsw/cfe-core/src/es/cfe_es_api.c **** ** Revision 1.10 2010/11/05 15:05:23EDT acudmore 
  50:/home/simulink/cFS_FreeRTOS_seL4/cfe/fsw/cfe-core/src/es/cfe_es_api.c **** ** Updated CRC function to read memory through PSP interface.
  51:/home/simulink/cFS_FreeRTOS_seL4/cfe/fsw/cfe-core/src/es/cfe_es_api.c **** ** Revision 1.9 2010/10/25 15:45:28EDT jmdagost 
  52:/home/simulink/cFS_FreeRTOS_seL4/cfe/fsw/cfe-core/src/es/cfe_es_api.c **** ** Added Task Name and/or TaskID in syslog messsages in CFE_ES_CreateChildTask().
  53:/home/simulink/cFS_FreeRTOS_seL4/cfe/fsw/cfe-core/src/es/cfe_es_api.c **** ** Revision 1.8 2009/07/28 16:30:29EDT jmdagost 
  54:/home/simulink/cFS_FreeRTOS_seL4/cfe/fsw/cfe-core/src/es/cfe_es_api.c **** ** Replaced 34 references to filename with references to function name.
  55:/home/simulink/cFS_FreeRTOS_seL4/cfe/fsw/cfe-core/src/es/cfe_es_api.c **** ** Revision 1.7 2009/06/10 09:08:50EDT acudmore 
  56:/home/simulink/cFS_FreeRTOS_seL4/cfe/fsw/cfe-core/src/es/cfe_es_api.c **** ** Converted OS_Mem* and OS_BSP* API to CFE_PSP_* API
  57:/home/simulink/cFS_FreeRTOS_seL4/cfe/fsw/cfe-core/src/es/cfe_es_api.c **** ** Revision 1.6 2008/08/27 15:56:19EDT apcudmore 
  58:/home/simulink/cFS_FreeRTOS_seL4/cfe/fsw/cfe-core/src/es/cfe_es_api.c **** ** removed startup sync debug OS_printfs
  59:/home/simulink/cFS_FreeRTOS_seL4/cfe/fsw/cfe-core/src/es/cfe_es_api.c **** ** Revision 1.5 2008/08/01 15:54:54EDT apcudmore 
  60:/home/simulink/cFS_FreeRTOS_seL4/cfe/fsw/cfe-core/src/es/cfe_es_api.c **** ** Updated Startup sync logic after vxWorks tests.
  61:/home/simulink/cFS_FreeRTOS_seL4/cfe/fsw/cfe-core/src/es/cfe_es_api.c **** ** Revision 1.4 2008/07/31 15:41:32EDT apcudmore 
  62:/home/simulink/cFS_FreeRTOS_seL4/cfe/fsw/cfe-core/src/es/cfe_es_api.c **** ** Added execution counter API:
  63:/home/simulink/cFS_FreeRTOS_seL4/cfe/fsw/cfe-core/src/es/cfe_es_api.c **** **   -- Added execution counter to ES internal task data
  64:/home/simulink/cFS_FreeRTOS_seL4/cfe/fsw/cfe-core/src/es/cfe_es_api.c **** **   -- Added code to increment counter in RunLoop
  65:/home/simulink/cFS_FreeRTOS_seL4/cfe/fsw/cfe-core/src/es/cfe_es_api.c **** **   -- Added code to report counter in GetInfo APIs
  66:/home/simulink/cFS_FreeRTOS_seL4/cfe/fsw/cfe-core/src/es/cfe_es_api.c **** **   -- Added API to increment counter for child tasks
  67:/home/simulink/cFS_FreeRTOS_seL4/cfe/fsw/cfe-core/src/es/cfe_es_api.c **** **   -- Added code to cFE Core apps to increment counters.
  68:/home/simulink/cFS_FreeRTOS_seL4/cfe/fsw/cfe-core/src/es/cfe_es_api.c **** ** Revision 1.3 2008/07/30 14:52:31EDT apcudmore 
  69:/home/simulink/cFS_FreeRTOS_seL4/cfe/fsw/cfe-core/src/es/cfe_es_api.c **** ** Added startup sync support and API
  70:/home/simulink/cFS_FreeRTOS_seL4/cfe/fsw/cfe-core/src/es/cfe_es_api.c **** ** Revision 1.2 2008/06/26 15:41:53EDT apcudmore 
  71:/home/simulink/cFS_FreeRTOS_seL4/cfe/fsw/cfe-core/src/es/cfe_es_api.c **** ** Added public CFE_ES_GetAppInfo API.
  72:/home/simulink/cFS_FreeRTOS_seL4/cfe/fsw/cfe-core/src/es/cfe_es_api.c **** ** Moved the old API to CFE_ES_GetAppInfoInternal
  73:/home/simulink/cFS_FreeRTOS_seL4/cfe/fsw/cfe-core/src/es/cfe_es_api.c **** ** -- May merge these two in the near future.
  74:/home/simulink/cFS_FreeRTOS_seL4/cfe/fsw/cfe-core/src/es/cfe_es_api.c **** ** Revision 1.1 2008/04/17 08:05:02EDT ruperera 
  75:/home/simulink/cFS_FreeRTOS_seL4/cfe/fsw/cfe-core/src/es/cfe_es_api.c **** ** Initial revision
  76:/home/simulink/cFS_FreeRTOS_seL4/cfe/fsw/cfe-core/src/es/cfe_es_api.c **** ** Member added to project c:/MKSDATA/MKS-REPOSITORY/MKS-CFE-PROJECT/fsw/cfe-core/src/es/project.pj
  77:/home/simulink/cFS_FreeRTOS_seL4/cfe/fsw/cfe-core/src/es/cfe_es_api.c **** ** Revision 1.72 2007/09/25 10:44:33EDT apcudmore 
  78:/home/simulink/cFS_FreeRTOS_seL4/cfe/fsw/cfe-core/src/es/cfe_es_api.c **** ** Removed unused variable.
  79:/home/simulink/cFS_FreeRTOS_seL4/cfe/fsw/cfe-core/src/es/cfe_es_api.c **** ** Revision 1.71 2007/09/25 10:24:06EDT apcudmore 
  80:/home/simulink/cFS_FreeRTOS_seL4/cfe/fsw/cfe-core/src/es/cfe_es_api.c **** ** Implement Application Restart on Exception:
  81:/home/simulink/cFS_FreeRTOS_seL4/cfe/fsw/cfe-core/src/es/cfe_es_api.c **** ** - Added logic to Exception Handler
  82:/home/simulink/cFS_FreeRTOS_seL4/cfe/fsw/cfe-core/src/es/cfe_es_api.c **** ** - Changed Exception Hook to pass host task ID
  83:/home/simulink/cFS_FreeRTOS_seL4/cfe/fsw/cfe-core/src/es/cfe_es_api.c **** ** - Added App Reset ER Log entry type
  84:/home/simulink/cFS_FreeRTOS_seL4/cfe/fsw/cfe-core/src/es/cfe_es_api.c **** ** Revision 1.70 2007/09/21 15:40:20EDT David Kobe (dlkobe) 
  85:/home/simulink/cFS_FreeRTOS_seL4/cfe/fsw/cfe-core/src/es/cfe_es_api.c **** ** Modified pointer type definitions to eliminate Linux gcc compile warnings
  86:/home/simulink/cFS_FreeRTOS_seL4/cfe/fsw/cfe-core/src/es/cfe_es_api.c **** ** Revision 1.69 2007/09/20 10:53:00EDT apcudmore 
  87:/home/simulink/cFS_FreeRTOS_seL4/cfe/fsw/cfe-core/src/es/cfe_es_api.c **** ** Added Query All Tasks command, file definition, events, error codes etc.
  88:/home/simulink/cFS_FreeRTOS_seL4/cfe/fsw/cfe-core/src/es/cfe_es_api.c **** ** Revision 1.68 2007/05/31 10:11:34EDT apcudmore 
  89:/home/simulink/cFS_FreeRTOS_seL4/cfe/fsw/cfe-core/src/es/cfe_es_api.c **** ** Removed CFE_ES_CPU_CONTEXT_SIZE from verify.h
68K GAS   			page 11


  90:/home/simulink/cFS_FreeRTOS_seL4/cfe/fsw/cfe-core/src/es/cfe_es_api.c **** ** Removed unused variable.
  91:/home/simulink/cFS_FreeRTOS_seL4/cfe/fsw/cfe-core/src/es/cfe_es_api.c **** ** Revision 1.67 2007/05/30 10:16:50EDT apcudmore 
  92:/home/simulink/cFS_FreeRTOS_seL4/cfe/fsw/cfe-core/src/es/cfe_es_api.c **** ** Fixed RunLoop Crash 
  93:/home/simulink/cFS_FreeRTOS_seL4/cfe/fsw/cfe-core/src/es/cfe_es_api.c **** ** Revision 1.66 2007/05/25 11:55:43EDT apcudmore 
  94:/home/simulink/cFS_FreeRTOS_seL4/cfe/fsw/cfe-core/src/es/cfe_es_api.c **** ** Error Handling updates
  95:/home/simulink/cFS_FreeRTOS_seL4/cfe/fsw/cfe-core/src/es/cfe_es_api.c **** **    - CFE_ES_GetAppInfo returns void
  96:/home/simulink/cFS_FreeRTOS_seL4/cfe/fsw/cfe-core/src/es/cfe_es_api.c **** **    - added app ID range check in RestartApp
  97:/home/simulink/cFS_FreeRTOS_seL4/cfe/fsw/cfe-core/src/es/cfe_es_api.c **** **  
  98:/home/simulink/cFS_FreeRTOS_seL4/cfe/fsw/cfe-core/src/es/cfe_es_api.c **** ** Revision 1.65 2007/05/15 16:08:51EDT apcudmore 
  99:/home/simulink/cFS_FreeRTOS_seL4/cfe/fsw/cfe-core/src/es/cfe_es_api.c **** ** Updated CFE_ES_ExitApp to:
 100:/home/simulink/cFS_FreeRTOS_seL4/cfe/fsw/cfe-core/src/es/cfe_es_api.c **** **    -- Do a Processor Reset on Core app init failure
 101:/home/simulink/cFS_FreeRTOS_seL4/cfe/fsw/cfe-core/src/es/cfe_es_api.c **** **    -- Exit the task on a Core App Runtime failure
 102:/home/simulink/cFS_FreeRTOS_seL4/cfe/fsw/cfe-core/src/es/cfe_es_api.c **** ** Revision 1.64 2007/05/14 15:43:46EDT apcudmore 
 103:/home/simulink/cFS_FreeRTOS_seL4/cfe/fsw/cfe-core/src/es/cfe_es_api.c **** ** Cleaned up events and disabled debug code for application restart.
 104:/home/simulink/cFS_FreeRTOS_seL4/cfe/fsw/cfe-core/src/es/cfe_es_api.c **** ** Revision 1.63 2007/05/04 16:02:50EDT apcudmore 
 105:/home/simulink/cFS_FreeRTOS_seL4/cfe/fsw/cfe-core/src/es/cfe_es_api.c **** ** Removed debug printf.
 106:/home/simulink/cFS_FreeRTOS_seL4/cfe/fsw/cfe-core/src/es/cfe_es_api.c **** ** Revision 1.62 2007/05/04 15:58:35EDT apcudmore 
 107:/home/simulink/cFS_FreeRTOS_seL4/cfe/fsw/cfe-core/src/es/cfe_es_api.c **** ** Implemented ES shared data protection. Eliminates Startup syncronization problem.
 108:/home/simulink/cFS_FreeRTOS_seL4/cfe/fsw/cfe-core/src/es/cfe_es_api.c **** ** Revision 1.61 2007/05/02 11:59:11EDT apcudmore 
 109:/home/simulink/cFS_FreeRTOS_seL4/cfe/fsw/cfe-core/src/es/cfe_es_api.c **** ** Initialized "ThisAppId" variable to zero from Static Analysis advice.
 110:/home/simulink/cFS_FreeRTOS_seL4/cfe/fsw/cfe-core/src/es/cfe_es_api.c **** ** Revision 1.60 2007/04/28 15:42:40EDT dlkobe 
 111:/home/simulink/cFS_FreeRTOS_seL4/cfe/fsw/cfe-core/src/es/cfe_es_api.c **** ** Added missing semicolon
 112:/home/simulink/cFS_FreeRTOS_seL4/cfe/fsw/cfe-core/src/es/cfe_es_api.c **** ** Revision 1.59 2007/04/28 15:40:53EDT dlkobe 
 113:/home/simulink/cFS_FreeRTOS_seL4/cfe/fsw/cfe-core/src/es/cfe_es_api.c **** ** Fix corrupted file
 114:/home/simulink/cFS_FreeRTOS_seL4/cfe/fsw/cfe-core/src/es/cfe_es_api.c **** ** Revision 1.58 2007/04/28 15:35:19EDT dlkobe 
 115:/home/simulink/cFS_FreeRTOS_seL4/cfe/fsw/cfe-core/src/es/cfe_es_api.c **** ** Corrected Typos from restructuring
 116:/home/simulink/cFS_FreeRTOS_seL4/cfe/fsw/cfe-core/src/es/cfe_es_api.c **** ** Revision 1.57 2007/04/28 15:32:38EDT dlkobe 
 117:/home/simulink/cFS_FreeRTOS_seL4/cfe/fsw/cfe-core/src/es/cfe_es_api.c **** ** Restructured CFE_ES_RegisterCDS call to avoid Application Unknown Error
 118:/home/simulink/cFS_FreeRTOS_seL4/cfe/fsw/cfe-core/src/es/cfe_es_api.c **** ** Revision 1.56 2007/04/28 14:49:00EDT dlkobe 
 119:/home/simulink/cFS_FreeRTOS_seL4/cfe/fsw/cfe-core/src/es/cfe_es_api.c **** ** Baseline Implementation of Critical Tables
 120:/home/simulink/cFS_FreeRTOS_seL4/cfe/fsw/cfe-core/src/es/cfe_es_api.c **** ** Revision 1.55 2007/04/25 11:57:08EDT apcudmore 
 121:/home/simulink/cFS_FreeRTOS_seL4/cfe/fsw/cfe-core/src/es/cfe_es_api.c **** ** Implemented "Back End" of Application Restart and Delete.
 122:/home/simulink/cFS_FreeRTOS_seL4/cfe/fsw/cfe-core/src/es/cfe_es_api.c **** ** Changes include all ES Cleanup code to delete App and Task Resources.
 123:/home/simulink/cFS_FreeRTOS_seL4/cfe/fsw/cfe-core/src/es/cfe_es_api.c **** ** Revision 1.54 2007/04/13 16:24:52EDT apcudmore 
 124:/home/simulink/cFS_FreeRTOS_seL4/cfe/fsw/cfe-core/src/es/cfe_es_api.c **** ** Fixed "==" bug in If/then/else clause in CFE_ES_ExitApp
 125:/home/simulink/cFS_FreeRTOS_seL4/cfe/fsw/cfe-core/src/es/cfe_es_api.c **** ** Revision 1.53 2007/04/12 10:37:19EDT apcudmore 
 126:/home/simulink/cFS_FreeRTOS_seL4/cfe/fsw/cfe-core/src/es/cfe_es_api.c **** ** Added support for ES task to call CFE_ES_ExitApp on initialization and runtime failure.
 127:/home/simulink/cFS_FreeRTOS_seL4/cfe/fsw/cfe-core/src/es/cfe_es_api.c **** ** Revision 1.52 2007/04/09 15:12:04EDT dlkobe 
 128:/home/simulink/cFS_FreeRTOS_seL4/cfe/fsw/cfe-core/src/es/cfe_es_api.c **** ** Modified 'Name' parameter to be a const pointer
 129:/home/simulink/cFS_FreeRTOS_seL4/cfe/fsw/cfe-core/src/es/cfe_es_api.c **** ** Revision 1.51 2007/04/06 12:23:58EDT apcudmore 
 130:/home/simulink/cFS_FreeRTOS_seL4/cfe/fsw/cfe-core/src/es/cfe_es_api.c **** ** Added Paramter verification and a check to make sure that CFE_ES_CreateChildTask is not 
 131:/home/simulink/cFS_FreeRTOS_seL4/cfe/fsw/cfe-core/src/es/cfe_es_api.c **** ** called from another Child Task.
 132:/home/simulink/cFS_FreeRTOS_seL4/cfe/fsw/cfe-core/src/es/cfe_es_api.c **** ** Revision 1.49 2007/04/05 16:16:03EDT apcudmore 
 133:/home/simulink/cFS_FreeRTOS_seL4/cfe/fsw/cfe-core/src/es/cfe_es_api.c **** ** Added CFE_ES_DeleteChildTask and CFE_ES_ExitChildTask along with headers,
 134:/home/simulink/cFS_FreeRTOS_seL4/cfe/fsw/cfe-core/src/es/cfe_es_api.c **** ** and associated Error codes.
 135:/home/simulink/cFS_FreeRTOS_seL4/cfe/fsw/cfe-core/src/es/cfe_es_api.c **** ** Revision 1.48 2007/03/23 15:06:26EST apcudmore 
 136:/home/simulink/cFS_FreeRTOS_seL4/cfe/fsw/cfe-core/src/es/cfe_es_api.c **** ** Fixes for DCR 470: Improved error handling for CFE_ES_RegisterApp and CFE_ES_RegisterChildTask.
 137:/home/simulink/cFS_FreeRTOS_seL4/cfe/fsw/cfe-core/src/es/cfe_es_api.c **** **                             Removed circular include.
 138:/home/simulink/cFS_FreeRTOS_seL4/cfe/fsw/cfe-core/src/es/cfe_es_api.c **** ** Revision 1.47 2007/03/23 10:47:23EST apcudmore 
 139:/home/simulink/cFS_FreeRTOS_seL4/cfe/fsw/cfe-core/src/es/cfe_es_api.c **** ** Added CFE_ES_GetTaskInfo call and corresponding CFE_ES_TaskInfo_t data structure.
 140:/home/simulink/cFS_FreeRTOS_seL4/cfe/fsw/cfe-core/src/es/cfe_es_api.c **** ** Revision 1.46 2007/03/22 10:26:23EST apcudmore 
 141:/home/simulink/cFS_FreeRTOS_seL4/cfe/fsw/cfe-core/src/es/cfe_es_api.c **** ** Implemented all code walkthrough items related to ES Application logic, commands, and telemetry.
 142:/home/simulink/cFS_FreeRTOS_seL4/cfe/fsw/cfe-core/src/es/cfe_es_api.c **** ** Revision 1.45 2007/03/16 10:07:13EST apcudmore 
 143:/home/simulink/cFS_FreeRTOS_seL4/cfe/fsw/cfe-core/src/es/cfe_es_api.c **** ** Fixed Compile error in CreateChildTask
 144:/home/simulink/cFS_FreeRTOS_seL4/cfe/fsw/cfe-core/src/es/cfe_es_api.c **** ** Revision 1.44 2007/03/16 09:37:48EST apcudmore 
 145:/home/simulink/cFS_FreeRTOS_seL4/cfe/fsw/cfe-core/src/es/cfe_es_api.c **** ** Removed code that does not allow a Child task's priority to be greater than it's parent.
 146:/home/simulink/cFS_FreeRTOS_seL4/cfe/fsw/cfe-core/src/es/cfe_es_api.c **** ** Revision 1.43 2007/03/13 16:10:54EST apcudmore 
68K GAS   			page 12


 147:/home/simulink/cFS_FreeRTOS_seL4/cfe/fsw/cfe-core/src/es/cfe_es_api.c **** ** Implemented all ERLog and ES API code walkthrough items.
 148:/home/simulink/cFS_FreeRTOS_seL4/cfe/fsw/cfe-core/src/es/cfe_es_api.c **** ** Revision 1.42 2007/02/28 10:09:30EST apcudmore 
 149:/home/simulink/cFS_FreeRTOS_seL4/cfe/fsw/cfe-core/src/es/cfe_es_api.c **** ** Command/control logic for ES Application Restart
 150:/home/simulink/cFS_FreeRTOS_seL4/cfe/fsw/cfe-core/src/es/cfe_es_api.c **** **
 151:/home/simulink/cFS_FreeRTOS_seL4/cfe/fsw/cfe-core/src/es/cfe_es_api.c **** */
 152:/home/simulink/cFS_FreeRTOS_seL4/cfe/fsw/cfe-core/src/es/cfe_es_api.c **** 
 153:/home/simulink/cFS_FreeRTOS_seL4/cfe/fsw/cfe-core/src/es/cfe_es_api.c **** /*
 154:/home/simulink/cFS_FreeRTOS_seL4/cfe/fsw/cfe-core/src/es/cfe_es_api.c **** ** Required header files.
 155:/home/simulink/cFS_FreeRTOS_seL4/cfe/fsw/cfe-core/src/es/cfe_es_api.c **** */
 156:/home/simulink/cFS_FreeRTOS_seL4/cfe/fsw/cfe-core/src/es/cfe_es_api.c **** #include "private/cfe_private.h"
 157:/home/simulink/cFS_FreeRTOS_seL4/cfe/fsw/cfe-core/src/es/cfe_es_api.c **** #include "cfe_es.h"
 158:/home/simulink/cFS_FreeRTOS_seL4/cfe/fsw/cfe-core/src/es/cfe_es_api.c **** #include "cfe_es_apps.h"
 159:/home/simulink/cFS_FreeRTOS_seL4/cfe/fsw/cfe-core/src/es/cfe_es_api.c **** #include "cfe_es_global.h"
 160:/home/simulink/cFS_FreeRTOS_seL4/cfe/fsw/cfe-core/src/es/cfe_es_api.c **** #include "cfe_es_events.h"
 161:/home/simulink/cFS_FreeRTOS_seL4/cfe/fsw/cfe-core/src/es/cfe_es_api.c **** #include "cfe_es_cds.h"
 162:/home/simulink/cFS_FreeRTOS_seL4/cfe/fsw/cfe-core/src/es/cfe_es_api.c **** #include "cfe_es_cds_mempool.h"
 163:/home/simulink/cFS_FreeRTOS_seL4/cfe/fsw/cfe-core/src/es/cfe_es_api.c **** #include "cfe_psp.h"
 164:/home/simulink/cFS_FreeRTOS_seL4/cfe/fsw/cfe-core/src/es/cfe_es_api.c **** #include "cfe_es_log.h"
 165:/home/simulink/cFS_FreeRTOS_seL4/cfe/fsw/cfe-core/src/es/cfe_es_api.c **** 
 166:/home/simulink/cFS_FreeRTOS_seL4/cfe/fsw/cfe-core/src/es/cfe_es_api.c **** 
 167:/home/simulink/cFS_FreeRTOS_seL4/cfe/fsw/cfe-core/src/es/cfe_es_api.c **** #include <string.h>
 168:/home/simulink/cFS_FreeRTOS_seL4/cfe/fsw/cfe-core/src/es/cfe_es_api.c **** #include <stdio.h>
 169:/home/simulink/cFS_FreeRTOS_seL4/cfe/fsw/cfe-core/src/es/cfe_es_api.c **** #include <stdarg.h>
 170:/home/simulink/cFS_FreeRTOS_seL4/cfe/fsw/cfe-core/src/es/cfe_es_api.c **** 
 171:/home/simulink/cFS_FreeRTOS_seL4/cfe/fsw/cfe-core/src/es/cfe_es_api.c **** 
 172:/home/simulink/cFS_FreeRTOS_seL4/cfe/fsw/cfe-core/src/es/cfe_es_api.c **** /*
 173:/home/simulink/cFS_FreeRTOS_seL4/cfe/fsw/cfe-core/src/es/cfe_es_api.c **** ** Function: CFE_ES_GetResetType
 174:/home/simulink/cFS_FreeRTOS_seL4/cfe/fsw/cfe-core/src/es/cfe_es_api.c **** **
 175:/home/simulink/cFS_FreeRTOS_seL4/cfe/fsw/cfe-core/src/es/cfe_es_api.c **** ** Purpose:  Return The Type of reset the cFE had.
 176:/home/simulink/cFS_FreeRTOS_seL4/cfe/fsw/cfe-core/src/es/cfe_es_api.c **** **           The function will return the start type 
 177:/home/simulink/cFS_FreeRTOS_seL4/cfe/fsw/cfe-core/src/es/cfe_es_api.c **** **           which is CFE_PSP_RST_TYPE_POWERON or CFE_PSP_RST_TYPE_PROCESSOR.
 178:/home/simulink/cFS_FreeRTOS_seL4/cfe/fsw/cfe-core/src/es/cfe_es_api.c **** **           The sub-type is optional and will be returned if a non-NULL pointer
 179:/home/simulink/cFS_FreeRTOS_seL4/cfe/fsw/cfe-core/src/es/cfe_es_api.c **** **           is passed in to the function.
 180:/home/simulink/cFS_FreeRTOS_seL4/cfe/fsw/cfe-core/src/es/cfe_es_api.c **** */
 181:/home/simulink/cFS_FreeRTOS_seL4/cfe/fsw/cfe-core/src/es/cfe_es_api.c **** int32 CFE_ES_GetResetType(uint32 *ResetSubtypePtr)
 182:/home/simulink/cFS_FreeRTOS_seL4/cfe/fsw/cfe-core/src/es/cfe_es_api.c **** {
  29               	.loc 2 182 0
  30               	.cfi_startproc
 183:/home/simulink/cFS_FreeRTOS_seL4/cfe/fsw/cfe-core/src/es/cfe_es_api.c ****     if ( ResetSubtypePtr != NULL )
  31               	.loc 2 183 0
  32 000c 4AAF 0004 	tst.l 4(%sp)
  33 0010 6716      	jeq .L4
 184:/home/simulink/cFS_FreeRTOS_seL4/cfe/fsw/cfe-core/src/es/cfe_es_api.c ****     {
 185:/home/simulink/cFS_FreeRTOS_seL4/cfe/fsw/cfe-core/src/es/cfe_es_api.c ****        *ResetSubtypePtr = CFE_ES_ResetDataPtr->ResetVars.ResetSubtype;
  34               	.loc 2 185 0
  35 0012 2079 0000 	move.l CFE_ES_ResetDataPtr,%a0
  35      0000 
  36 0018 203C 0001 	move.l #128456,%d0
  36      F5C8 
  37 001e 2030 0800 	move.l (%a0,%d0.l),%d0
  38 0022 206F 0004 	move.l 4(%sp),%a0
  39 0026 2080      	move.l %d0,(%a0)
  40               	.L4:
 186:/home/simulink/cFS_FreeRTOS_seL4/cfe/fsw/cfe-core/src/es/cfe_es_api.c ****     }
 187:/home/simulink/cFS_FreeRTOS_seL4/cfe/fsw/cfe-core/src/es/cfe_es_api.c **** 
 188:/home/simulink/cFS_FreeRTOS_seL4/cfe/fsw/cfe-core/src/es/cfe_es_api.c ****     return(CFE_ES_ResetDataPtr->ResetVars.ResetType);
  41               	.loc 2 188 0
68K GAS   			page 13


  42 0028 2079 0000 	move.l CFE_ES_ResetDataPtr,%a0
  42      0000 
  43 002e 203C 0001 	move.l #128452,%d0
  43      F5C4 
  44 0034 2030 0800 	move.l (%a0,%d0.l),%d0
 189:/home/simulink/cFS_FreeRTOS_seL4/cfe/fsw/cfe-core/src/es/cfe_es_api.c **** 
 190:/home/simulink/cFS_FreeRTOS_seL4/cfe/fsw/cfe-core/src/es/cfe_es_api.c **** } /* End of CFE_ES_GetResetType() */
  45               	.loc 2 190 0
  46 0038 4E75      	rts
  47               	.cfi_endproc
  48               	.LFE59:
  49               	.sizeCFE_ES_GetResetType, .-CFE_ES_GetResetType
  50               	.section.rodata
  51               	.LC0:
  52 0000 504F 5745 	.string"POWER ON RESET due to max proc resets (Commanded).\n"
  52      5220 4F4E 
  52      2052 4553 
  52      4554 2064 
  52      7565 2074 
  53               	.LC1:
  54 0034 504F 5745 	.string"POWER ON RESET due to max proc resets (Commanded)."
  54      5220 4F4E 
  54      2052 4553 
  54      4554 2064 
  54      7565 2074 
  55               	.LC2:
  56 0067 5052 4F43 	.string"PROCESSOR RESET called from CFE_ES_ResetCFE (Commanded).\n"
  56      4553 534F 
  56      5220 5245 
  56      5345 5420 
  56      6361 6C6C 
  57               	.LC3:
  58 00a1 5052 4F43 	.string"PROCESSOR RESET called from CFE_ES_ResetCFE (Commanded)."
  58      4553 534F 
  58      5220 5245 
  58      5345 5420 
  58      6361 6C6C 
  59               	.LC4:
  60 00da 504F 5745 	.string"POWERON RESET called from CFE_ES_ResetCFE (Commanded).\n"
  60      524F 4E20 
  60      5245 5345 
  60      5420 6361 
  60      6C6C 6564 
  61               	.LC5:
  62 0112 504F 5745 	.string"POWERON RESET called from CFE_ES_ResetCFE (Commanded)."
  62      524F 4E20 
  62      5245 5345 
  62      5420 6361 
  62      6C6C 6564 
  63               	.LC6:
  64 0149 4553 2052 	.string"ES ResetCFE: Invalid Reset Type: %d.\n"
  64      6573 6574 
  64      4346 453A 
  64      2049 6E76 
  64      616C 6964 
  65               	.text
  66               	.align2
68K GAS   			page 14


  67               	.globlCFE_ES_ResetCFE
  68               	.typeCFE_ES_ResetCFE, @function
  69               	CFE_ES_ResetCFE:
  70               	.LFB60:
 191:/home/simulink/cFS_FreeRTOS_seL4/cfe/fsw/cfe-core/src/es/cfe_es_api.c **** 
 192:/home/simulink/cFS_FreeRTOS_seL4/cfe/fsw/cfe-core/src/es/cfe_es_api.c **** 
 193:/home/simulink/cFS_FreeRTOS_seL4/cfe/fsw/cfe-core/src/es/cfe_es_api.c **** /*
 194:/home/simulink/cFS_FreeRTOS_seL4/cfe/fsw/cfe-core/src/es/cfe_es_api.c **** ** Function: CFE_ES_ResetCFE
 195:/home/simulink/cFS_FreeRTOS_seL4/cfe/fsw/cfe-core/src/es/cfe_es_api.c **** **
 196:/home/simulink/cFS_FreeRTOS_seL4/cfe/fsw/cfe-core/src/es/cfe_es_api.c **** ** Purpose:  Reset the cFE core and all apps.
 197:/home/simulink/cFS_FreeRTOS_seL4/cfe/fsw/cfe-core/src/es/cfe_es_api.c **** **
 198:/home/simulink/cFS_FreeRTOS_seL4/cfe/fsw/cfe-core/src/es/cfe_es_api.c **** */
 199:/home/simulink/cFS_FreeRTOS_seL4/cfe/fsw/cfe-core/src/es/cfe_es_api.c **** int32 CFE_ES_ResetCFE(uint32 ResetType)
 200:/home/simulink/cFS_FreeRTOS_seL4/cfe/fsw/cfe-core/src/es/cfe_es_api.c **** {
  71               	.loc 2 200 0
  72               	.cfi_startproc
  73 003a 598F      	subq.l #4,%sp
  74               	.cfi_def_cfa_offset 8
 201:/home/simulink/cFS_FreeRTOS_seL4/cfe/fsw/cfe-core/src/es/cfe_es_api.c ****     int32 ReturnCode;
 202:/home/simulink/cFS_FreeRTOS_seL4/cfe/fsw/cfe-core/src/es/cfe_es_api.c ****     
 203:/home/simulink/cFS_FreeRTOS_seL4/cfe/fsw/cfe-core/src/es/cfe_es_api.c ****     if ( ResetType == CFE_PSP_RST_TYPE_PROCESSOR )
  75               	.loc 2 203 0
  76 003c 7001      	moveq #1,%d0
  77 003e B0AF 0008 	cmp.l 8(%sp),%d0
  78 0042 6600 00D4 	jne .L7
 204:/home/simulink/cFS_FreeRTOS_seL4/cfe/fsw/cfe-core/src/es/cfe_es_api.c ****     {
 205:/home/simulink/cFS_FreeRTOS_seL4/cfe/fsw/cfe-core/src/es/cfe_es_api.c ****        /*
 206:/home/simulink/cFS_FreeRTOS_seL4/cfe/fsw/cfe-core/src/es/cfe_es_api.c ****        ** Increment the processor reset count
 207:/home/simulink/cFS_FreeRTOS_seL4/cfe/fsw/cfe-core/src/es/cfe_es_api.c ****        */
 208:/home/simulink/cFS_FreeRTOS_seL4/cfe/fsw/cfe-core/src/es/cfe_es_api.c ****        CFE_ES_ResetDataPtr->ResetVars.ProcessorResetCount++;
  79               	.loc 2 208 0
  80 0046 2079 0000 	move.l CFE_ES_ResetDataPtr,%a0
  80      0000 
  81 004c 203C 0001 	move.l #128468,%d0
  81      F5D4 
  82 0052 2030 0800 	move.l (%a0,%d0.l),%d0
  83 0056 2200      	move.l %d0,%d1
  84 0058 5281      	addq.l #1,%d1
  85 005a 203C 0001 	move.l #128468,%d0
  85      F5D4 
  86 0060 2181 0800 	move.l %d1,(%a0,%d0.l)
 209:/home/simulink/cFS_FreeRTOS_seL4/cfe/fsw/cfe-core/src/es/cfe_es_api.c **** 
 210:/home/simulink/cFS_FreeRTOS_seL4/cfe/fsw/cfe-core/src/es/cfe_es_api.c ****        /*
 211:/home/simulink/cFS_FreeRTOS_seL4/cfe/fsw/cfe-core/src/es/cfe_es_api.c ****        ** Before doing a Processor reset, check to see 
 212:/home/simulink/cFS_FreeRTOS_seL4/cfe/fsw/cfe-core/src/es/cfe_es_api.c ****        ** if the maximum number has been exceeded
 213:/home/simulink/cFS_FreeRTOS_seL4/cfe/fsw/cfe-core/src/es/cfe_es_api.c ****        */
 214:/home/simulink/cFS_FreeRTOS_seL4/cfe/fsw/cfe-core/src/es/cfe_es_api.c ****        if ( CFE_ES_ResetDataPtr->ResetVars.ProcessorResetCount > 
  87               	.loc 2 214 0
  88 0064 2079 0000 	move.l CFE_ES_ResetDataPtr,%a0
  88      0000 
  89 006a 203C 0001 	move.l #128468,%d0
  89      F5D4 
  90 0070 2230 0800 	move.l (%a0,%d0.l),%d1
 215:/home/simulink/cFS_FreeRTOS_seL4/cfe/fsw/cfe-core/src/es/cfe_es_api.c ****             CFE_ES_ResetDataPtr->ResetVars.MaxProcessorResetCount )
  91               	.loc 2 215 0
  92 0074 2079 0000 	move.l CFE_ES_ResetDataPtr,%a0
  92      0000 
68K GAS   			page 15


  93 007a 203C 0001 	move.l #128472,%d0
  93      F5D8 
  94 0080 2030 0800 	move.l (%a0,%d0.l),%d0
 214:/home/simulink/cFS_FreeRTOS_seL4/cfe/fsw/cfe-core/src/es/cfe_es_api.c ****             CFE_ES_ResetDataPtr->ResetVars.MaxProcessorResetCount )
  95               	.loc 2 214 0
  96 0084 B081      	cmp.l %d1,%d0
  97 0086 643C      	jcc .L8
 216:/home/simulink/cFS_FreeRTOS_seL4/cfe/fsw/cfe-core/src/es/cfe_es_api.c ****        {
 217:/home/simulink/cFS_FreeRTOS_seL4/cfe/fsw/cfe-core/src/es/cfe_es_api.c ****            CFE_ES_WriteToSysLog("POWER ON RESET due to max proc resets (Commanded).\n");
  98               	.loc 2 217 0
  99 0088 4879 0000 	pea .LC0
  99      0000 
 100               	.cfi_def_cfa_offset 12
 101 008e 4EB9 0000 	jsr CFE_ES_WriteToSysLog
 101      0000 
 102 0094 588F      	addq.l #4,%sp
 103               	.cfi_def_cfa_offset 8
 218:/home/simulink/cFS_FreeRTOS_seL4/cfe/fsw/cfe-core/src/es/cfe_es_api.c **** 
 219:/home/simulink/cFS_FreeRTOS_seL4/cfe/fsw/cfe-core/src/es/cfe_es_api.c ****            /*
 220:/home/simulink/cFS_FreeRTOS_seL4/cfe/fsw/cfe-core/src/es/cfe_es_api.c ****            ** Log the reset in the ER Log. The log will be wiped out, but it's good to have
 221:/home/simulink/cFS_FreeRTOS_seL4/cfe/fsw/cfe-core/src/es/cfe_es_api.c ****            ** the entry just in case something fails.
 222:/home/simulink/cFS_FreeRTOS_seL4/cfe/fsw/cfe-core/src/es/cfe_es_api.c ****            */
 223:/home/simulink/cFS_FreeRTOS_seL4/cfe/fsw/cfe-core/src/es/cfe_es_api.c ****            CFE_ES_WriteToERLog(CFE_ES_CORE_LOG_ENTRY, CFE_PSP_RST_TYPE_POWERON,
 104               	.loc 2 223 0
 105 0096 42A7      	clr.l -(%sp)
 106               	.cfi_def_cfa_offset 12
 107 0098 42A7      	clr.l -(%sp)
 108               	.cfi_def_cfa_offset 16
 109 009a 4879 0000 	pea .LC1
 109      0000 
 110               	.cfi_def_cfa_offset 20
 111 00a0 4878 0005 	pea 5.w
 112               	.cfi_def_cfa_offset 24
 113 00a4 4878 0002 	pea 2.w
 114               	.cfi_def_cfa_offset 28
 115 00a8 4878 0001 	pea 1.w
 116               	.cfi_def_cfa_offset 32
 117 00ac 4EB9 0000 	jsr CFE_ES_WriteToERLog
 117      0000 
 118 00b2 4FEF 0018 	lea (24,%sp),%sp
 119               	.cfi_def_cfa_offset 8
 224:/home/simulink/cFS_FreeRTOS_seL4/cfe/fsw/cfe-core/src/es/cfe_es_api.c ****                                          CFE_PSP_RST_SUBTYPE_RESET_COMMAND,
 225:/home/simulink/cFS_FreeRTOS_seL4/cfe/fsw/cfe-core/src/es/cfe_es_api.c ****                                          "POWER ON RESET due to max proc resets (Commanded).", NULL
 226:/home/simulink/cFS_FreeRTOS_seL4/cfe/fsw/cfe-core/src/es/cfe_es_api.c ****            /*
 227:/home/simulink/cFS_FreeRTOS_seL4/cfe/fsw/cfe-core/src/es/cfe_es_api.c ****            ** Call the BSP reset routine 
 228:/home/simulink/cFS_FreeRTOS_seL4/cfe/fsw/cfe-core/src/es/cfe_es_api.c ****            */
 229:/home/simulink/cFS_FreeRTOS_seL4/cfe/fsw/cfe-core/src/es/cfe_es_api.c ****            CFE_PSP_Restart(CFE_PSP_RST_TYPE_POWERON);
 120               	.loc 2 229 0
 121 00b6 4878 0002 	pea 2.w
 122               	.cfi_def_cfa_offset 12
 123 00ba 4EB9 0000 	jsr CFE_PSP_Restart
 123      0000 
 124 00c0 588F      	addq.l #4,%sp
 125               	.cfi_def_cfa_offset 8
 126 00c2 604C      	jra .L9
 127               	.L8:
 230:/home/simulink/cFS_FreeRTOS_seL4/cfe/fsw/cfe-core/src/es/cfe_es_api.c ****        }
68K GAS   			page 16


 231:/home/simulink/cFS_FreeRTOS_seL4/cfe/fsw/cfe-core/src/es/cfe_es_api.c ****        else
 232:/home/simulink/cFS_FreeRTOS_seL4/cfe/fsw/cfe-core/src/es/cfe_es_api.c ****        {
 233:/home/simulink/cFS_FreeRTOS_seL4/cfe/fsw/cfe-core/src/es/cfe_es_api.c ****            CFE_ES_WriteToSysLog("PROCESSOR RESET called from CFE_ES_ResetCFE (Commanded).\n");
 128               	.loc 2 233 0
 129 00c4 4879 0000 	pea .LC2
 129      0000 
 130               	.cfi_def_cfa_offset 12
 131 00ca 4EB9 0000 	jsr CFE_ES_WriteToSysLog
 131      0000 
 132 00d0 588F      	addq.l #4,%sp
 133               	.cfi_def_cfa_offset 8
 234:/home/simulink/cFS_FreeRTOS_seL4/cfe/fsw/cfe-core/src/es/cfe_es_api.c **** 
 235:/home/simulink/cFS_FreeRTOS_seL4/cfe/fsw/cfe-core/src/es/cfe_es_api.c ****            /*
 236:/home/simulink/cFS_FreeRTOS_seL4/cfe/fsw/cfe-core/src/es/cfe_es_api.c ****            ** Update the reset variables
 237:/home/simulink/cFS_FreeRTOS_seL4/cfe/fsw/cfe-core/src/es/cfe_es_api.c ****            */
 238:/home/simulink/cFS_FreeRTOS_seL4/cfe/fsw/cfe-core/src/es/cfe_es_api.c ****            CFE_ES_ResetDataPtr->ResetVars.ES_CausedReset = TRUE;
 134               	.loc 2 238 0
 135 00d2 2079 0000 	move.l CFE_ES_ResetDataPtr,%a0
 135      0000 
 136 00d8 203C 0001 	move.l #128464,%d0
 136      F5D0 
 137 00de 7201      	moveq #1,%d1
 138 00e0 2181 0800 	move.l %d1,(%a0,%d0.l)
 239:/home/simulink/cFS_FreeRTOS_seL4/cfe/fsw/cfe-core/src/es/cfe_es_api.c **** 
 240:/home/simulink/cFS_FreeRTOS_seL4/cfe/fsw/cfe-core/src/es/cfe_es_api.c ****            /*
 241:/home/simulink/cFS_FreeRTOS_seL4/cfe/fsw/cfe-core/src/es/cfe_es_api.c ****            ** Log the reset in the ER Log
 242:/home/simulink/cFS_FreeRTOS_seL4/cfe/fsw/cfe-core/src/es/cfe_es_api.c ****            */
 243:/home/simulink/cFS_FreeRTOS_seL4/cfe/fsw/cfe-core/src/es/cfe_es_api.c ****            CFE_ES_WriteToERLog(CFE_ES_CORE_LOG_ENTRY, CFE_ES_PROCESSOR_RESET,
 139               	.loc 2 243 0
 140 00e4 42A7      	clr.l -(%sp)
 141               	.cfi_def_cfa_offset 12
 142 00e6 42A7      	clr.l -(%sp)
 143               	.cfi_def_cfa_offset 16
 144 00e8 4879 0000 	pea .LC3
 144      0000 
 145               	.cfi_def_cfa_offset 20
 146 00ee 4878 0005 	pea 5.w
 147               	.cfi_def_cfa_offset 24
 148 00f2 4878 0001 	pea 1.w
 149               	.cfi_def_cfa_offset 28
 150 00f6 4878 0001 	pea 1.w
 151               	.cfi_def_cfa_offset 32
 152 00fa 4EB9 0000 	jsr CFE_ES_WriteToERLog
 152      0000 
 153 0100 4FEF 0018 	lea (24,%sp),%sp
 154               	.cfi_def_cfa_offset 8
 244:/home/simulink/cFS_FreeRTOS_seL4/cfe/fsw/cfe-core/src/es/cfe_es_api.c ****                                        CFE_ES_RESET_COMMAND,
 245:/home/simulink/cFS_FreeRTOS_seL4/cfe/fsw/cfe-core/src/es/cfe_es_api.c ****                                        "PROCESSOR RESET called from CFE_ES_ResetCFE (Commanded).", 
 246:/home/simulink/cFS_FreeRTOS_seL4/cfe/fsw/cfe-core/src/es/cfe_es_api.c ****            /*
 247:/home/simulink/cFS_FreeRTOS_seL4/cfe/fsw/cfe-core/src/es/cfe_es_api.c ****            ** Call the BSP reset routine
 248:/home/simulink/cFS_FreeRTOS_seL4/cfe/fsw/cfe-core/src/es/cfe_es_api.c ****            */
 249:/home/simulink/cFS_FreeRTOS_seL4/cfe/fsw/cfe-core/src/es/cfe_es_api.c ****            CFE_PSP_Restart(CFE_PSP_RST_TYPE_PROCESSOR);
 155               	.loc 2 249 0
 156 0104 4878 0001 	pea 1.w
 157               	.cfi_def_cfa_offset 12
 158 0108 4EB9 0000 	jsr CFE_PSP_Restart
 158      0000 
68K GAS   			page 17


 159 010e 588F      	addq.l #4,%sp
 160               	.cfi_def_cfa_offset 8
 161               	.L9:
 250:/home/simulink/cFS_FreeRTOS_seL4/cfe/fsw/cfe-core/src/es/cfe_es_api.c ****        
 251:/home/simulink/cFS_FreeRTOS_seL4/cfe/fsw/cfe-core/src/es/cfe_es_api.c ****        } /* end if */
 252:/home/simulink/cFS_FreeRTOS_seL4/cfe/fsw/cfe-core/src/es/cfe_es_api.c ****        
 253:/home/simulink/cFS_FreeRTOS_seL4/cfe/fsw/cfe-core/src/es/cfe_es_api.c ****        /* 
 254:/home/simulink/cFS_FreeRTOS_seL4/cfe/fsw/cfe-core/src/es/cfe_es_api.c ****        ** If the BSP routine is not implemented, 
 255:/home/simulink/cFS_FreeRTOS_seL4/cfe/fsw/cfe-core/src/es/cfe_es_api.c ****        ** it will return. 
 256:/home/simulink/cFS_FreeRTOS_seL4/cfe/fsw/cfe-core/src/es/cfe_es_api.c ****        */
 257:/home/simulink/cFS_FreeRTOS_seL4/cfe/fsw/cfe-core/src/es/cfe_es_api.c ****        ReturnCode = CFE_ES_NOT_IMPLEMENTED;
 162               	.loc 2 257 0
 163 0110 2EBC C400 	move.l #-1006567425,(%sp)
 163      FFFF 
 164 0116 6064      	jra .L10
 165               	.L7:
 258:/home/simulink/cFS_FreeRTOS_seL4/cfe/fsw/cfe-core/src/es/cfe_es_api.c ****     }
 259:/home/simulink/cFS_FreeRTOS_seL4/cfe/fsw/cfe-core/src/es/cfe_es_api.c ****     else if ( ResetType == CFE_PSP_RST_TYPE_POWERON )
 166               	.loc 2 259 0
 167 0118 7002      	moveq #2,%d0
 168 011a B0AF 0008 	cmp.l 8(%sp),%d0
 169 011e 6642      	jne .L11
 260:/home/simulink/cFS_FreeRTOS_seL4/cfe/fsw/cfe-core/src/es/cfe_es_api.c ****     {
 261:/home/simulink/cFS_FreeRTOS_seL4/cfe/fsw/cfe-core/src/es/cfe_es_api.c ****        CFE_ES_WriteToSysLog("POWERON RESET called from CFE_ES_ResetCFE (Commanded).\n");
 170               	.loc 2 261 0
 171 0120 4879 0000 	pea .LC4
 171      0000 
 172               	.cfi_def_cfa_offset 12
 173 0126 4EB9 0000 	jsr CFE_ES_WriteToSysLog
 173      0000 
 174 012c 588F      	addq.l #4,%sp
 175               	.cfi_def_cfa_offset 8
 262:/home/simulink/cFS_FreeRTOS_seL4/cfe/fsw/cfe-core/src/es/cfe_es_api.c **** 
 263:/home/simulink/cFS_FreeRTOS_seL4/cfe/fsw/cfe-core/src/es/cfe_es_api.c ****        /*
 264:/home/simulink/cFS_FreeRTOS_seL4/cfe/fsw/cfe-core/src/es/cfe_es_api.c ****        ** Log the reset in the ER Log. The log will be wiped out, but it's good to have
 265:/home/simulink/cFS_FreeRTOS_seL4/cfe/fsw/cfe-core/src/es/cfe_es_api.c ****        ** the entry just in case something fails.
 266:/home/simulink/cFS_FreeRTOS_seL4/cfe/fsw/cfe-core/src/es/cfe_es_api.c ****        */
 267:/home/simulink/cFS_FreeRTOS_seL4/cfe/fsw/cfe-core/src/es/cfe_es_api.c ****        CFE_ES_WriteToERLog(CFE_ES_CORE_LOG_ENTRY, CFE_PSP_RST_TYPE_POWERON,
 176               	.loc 2 267 0
 177 012e 42A7      	clr.l -(%sp)
 178               	.cfi_def_cfa_offset 12
 179 0130 42A7      	clr.l -(%sp)
 180               	.cfi_def_cfa_offset 16
 181 0132 4879 0000 	pea .LC5
 181      0000 
 182               	.cfi_def_cfa_offset 20
 183 0138 4878 0005 	pea 5.w
 184               	.cfi_def_cfa_offset 24
 185 013c 4878 0002 	pea 2.w
 186               	.cfi_def_cfa_offset 28
 187 0140 4878 0001 	pea 1.w
 188               	.cfi_def_cfa_offset 32
 189 0144 4EB9 0000 	jsr CFE_ES_WriteToERLog
 189      0000 
 190 014a 4FEF 0018 	lea (24,%sp),%sp
 191               	.cfi_def_cfa_offset 8
 268:/home/simulink/cFS_FreeRTOS_seL4/cfe/fsw/cfe-core/src/es/cfe_es_api.c ****                                        CFE_PSP_RST_SUBTYPE_RESET_COMMAND,
68K GAS   			page 18


 269:/home/simulink/cFS_FreeRTOS_seL4/cfe/fsw/cfe-core/src/es/cfe_es_api.c ****                                        "POWERON RESET called from CFE_ES_ResetCFE (Commanded).", NU
 270:/home/simulink/cFS_FreeRTOS_seL4/cfe/fsw/cfe-core/src/es/cfe_es_api.c **** 
 271:/home/simulink/cFS_FreeRTOS_seL4/cfe/fsw/cfe-core/src/es/cfe_es_api.c ****        /*
 272:/home/simulink/cFS_FreeRTOS_seL4/cfe/fsw/cfe-core/src/es/cfe_es_api.c ****        ** Call the BSP reset routine
 273:/home/simulink/cFS_FreeRTOS_seL4/cfe/fsw/cfe-core/src/es/cfe_es_api.c ****        */
 274:/home/simulink/cFS_FreeRTOS_seL4/cfe/fsw/cfe-core/src/es/cfe_es_api.c ****        CFE_PSP_Restart(CFE_PSP_RST_TYPE_POWERON);
 192               	.loc 2 274 0
 193 014e 4878 0002 	pea 2.w
 194               	.cfi_def_cfa_offset 12
 195 0152 4EB9 0000 	jsr CFE_PSP_Restart
 195      0000 
 196 0158 588F      	addq.l #4,%sp
 197               	.cfi_def_cfa_offset 8
 275:/home/simulink/cFS_FreeRTOS_seL4/cfe/fsw/cfe-core/src/es/cfe_es_api.c ****        
 276:/home/simulink/cFS_FreeRTOS_seL4/cfe/fsw/cfe-core/src/es/cfe_es_api.c ****        /* 
 277:/home/simulink/cFS_FreeRTOS_seL4/cfe/fsw/cfe-core/src/es/cfe_es_api.c ****        ** If the BSP routine is not implemented, 
 278:/home/simulink/cFS_FreeRTOS_seL4/cfe/fsw/cfe-core/src/es/cfe_es_api.c ****        ** it will return. 
 279:/home/simulink/cFS_FreeRTOS_seL4/cfe/fsw/cfe-core/src/es/cfe_es_api.c ****        */
 280:/home/simulink/cFS_FreeRTOS_seL4/cfe/fsw/cfe-core/src/es/cfe_es_api.c ****        ReturnCode = CFE_ES_NOT_IMPLEMENTED;
 198               	.loc 2 280 0
 199 015a 2EBC C400 	move.l #-1006567425,(%sp)
 199      FFFF 
 200 0160 601A      	jra .L10
 201               	.L11:
 281:/home/simulink/cFS_FreeRTOS_seL4/cfe/fsw/cfe-core/src/es/cfe_es_api.c ****     }
 282:/home/simulink/cFS_FreeRTOS_seL4/cfe/fsw/cfe-core/src/es/cfe_es_api.c ****     else
 283:/home/simulink/cFS_FreeRTOS_seL4/cfe/fsw/cfe-core/src/es/cfe_es_api.c ****     {
 284:/home/simulink/cFS_FreeRTOS_seL4/cfe/fsw/cfe-core/src/es/cfe_es_api.c ****        CFE_ES_WriteToSysLog("ES ResetCFE: Invalid Reset Type: %d.\n",(int)ResetType);
 202               	.loc 2 284 0
 203 0162 202F 0008 	move.l 8(%sp),%d0
 204 0166 2F00      	move.l %d0,-(%sp)
 205               	.cfi_def_cfa_offset 12
 206 0168 4879 0000 	pea .LC6
 206      0000 
 207               	.cfi_def_cfa_offset 16
 208 016e 4EB9 0000 	jsr CFE_ES_WriteToSysLog
 208      0000 
 209 0174 508F      	addq.l #8,%sp
 210               	.cfi_def_cfa_offset 8
 285:/home/simulink/cFS_FreeRTOS_seL4/cfe/fsw/cfe-core/src/es/cfe_es_api.c ****        ReturnCode = CFE_ES_BAD_ARGUMENT;
 211               	.loc 2 285 0
 212 0176 2EBC C400 	move.l #-1006632950,(%sp)
 212      000A 
 213               	.L10:
 286:/home/simulink/cFS_FreeRTOS_seL4/cfe/fsw/cfe-core/src/es/cfe_es_api.c ****     }
 287:/home/simulink/cFS_FreeRTOS_seL4/cfe/fsw/cfe-core/src/es/cfe_es_api.c **** 
 288:/home/simulink/cFS_FreeRTOS_seL4/cfe/fsw/cfe-core/src/es/cfe_es_api.c ****     return(ReturnCode);
 214               	.loc 2 288 0
 215 017c 2017      	move.l (%sp),%d0
 289:/home/simulink/cFS_FreeRTOS_seL4/cfe/fsw/cfe-core/src/es/cfe_es_api.c ****     
 290:/home/simulink/cFS_FreeRTOS_seL4/cfe/fsw/cfe-core/src/es/cfe_es_api.c **** } /* End of CFE_ES_ResetCFE() */
 216               	.loc 2 290 0
 217 017e 588F      	addq.l #4,%sp
 218 0180 4E75      	rts
 219               	.cfi_endproc
 220               	.LFE60:
 221               	.sizeCFE_ES_ResetCFE, .-CFE_ES_ResetCFE
68K GAS   			page 19


 222               	.section.rodata
 223               	.LC7:
 224 016f 4346 455F 	.string"CFE_ES_DeleteApp: Cannot Restart a CORE Application: %s.\n"
 224      4553 5F44 
 224      656C 6574 
 224      6541 7070 
 224      3A20 4361 
 225               	.LC8:
 226 01a9 4346 455F 	.string"CFE_ES_RestartApp: Cannot Restart Application %s, It is not running.\n"
 226      4553 5F52 
 226      6573 7461 
 226      7274 4170 
 226      703A 2043 
 227               	.LC9:
 228 01ef 4346 455F 	.string"CFE_ES_RestartApp: Restart Application %s Initiated\n"
 228      4553 5F52 
 228      6573 7461 
 228      7274 4170 
 228      703A 2052 
 229               	.text
 230               	.align2
 231               	.globlCFE_ES_RestartApp
 232               	.typeCFE_ES_RestartApp, @function
 233               	CFE_ES_RestartApp:
 234               	.LFB61:
 291:/home/simulink/cFS_FreeRTOS_seL4/cfe/fsw/cfe-core/src/es/cfe_es_api.c **** 
 292:/home/simulink/cFS_FreeRTOS_seL4/cfe/fsw/cfe-core/src/es/cfe_es_api.c **** /*
 293:/home/simulink/cFS_FreeRTOS_seL4/cfe/fsw/cfe-core/src/es/cfe_es_api.c **** ** Function: CFE_ES_RestartApp
 294:/home/simulink/cFS_FreeRTOS_seL4/cfe/fsw/cfe-core/src/es/cfe_es_api.c **** **
 295:/home/simulink/cFS_FreeRTOS_seL4/cfe/fsw/cfe-core/src/es/cfe_es_api.c **** ** Purpose:  Restart a single cFE App.
 296:/home/simulink/cFS_FreeRTOS_seL4/cfe/fsw/cfe-core/src/es/cfe_es_api.c **** **
 297:/home/simulink/cFS_FreeRTOS_seL4/cfe/fsw/cfe-core/src/es/cfe_es_api.c **** */
 298:/home/simulink/cFS_FreeRTOS_seL4/cfe/fsw/cfe-core/src/es/cfe_es_api.c **** int32 CFE_ES_RestartApp(uint32 AppID)
 299:/home/simulink/cFS_FreeRTOS_seL4/cfe/fsw/cfe-core/src/es/cfe_es_api.c **** {
 235               	.loc 2 299 0
 236               	.cfi_startproc
 237 0182 598F      	subq.l #4,%sp
 238               	.cfi_def_cfa_offset 8
 300:/home/simulink/cFS_FreeRTOS_seL4/cfe/fsw/cfe-core/src/es/cfe_es_api.c ****     int32 ReturnCode = CFE_SUCCESS;
 239               	.loc 2 300 0
 240 0184 4297      	clr.l (%sp)
 301:/home/simulink/cFS_FreeRTOS_seL4/cfe/fsw/cfe-core/src/es/cfe_es_api.c **** 
 302:/home/simulink/cFS_FreeRTOS_seL4/cfe/fsw/cfe-core/src/es/cfe_es_api.c ****     if ( AppID < CFE_ES_MAX_APPLICATIONS )
 241               	.loc 2 302 0
 242 0186 701F      	moveq #31,%d0
 243 0188 B0AF 0008 	cmp.l 8(%sp),%d0
 244 018c 6500 0142 	jcs .L14
 303:/home/simulink/cFS_FreeRTOS_seL4/cfe/fsw/cfe-core/src/es/cfe_es_api.c ****     {
 304:/home/simulink/cFS_FreeRTOS_seL4/cfe/fsw/cfe-core/src/es/cfe_es_api.c **** 
 305:/home/simulink/cFS_FreeRTOS_seL4/cfe/fsw/cfe-core/src/es/cfe_es_api.c ****        CFE_ES_LockSharedData(__func__,__LINE__);
 245               	.loc 2 305 0
 246 0190 4878 0131 	pea 305.w
 247               	.cfi_def_cfa_offset 12
 248 0194 4879 0000 	pea __func__.5770
 248      0000 
 249               	.cfi_def_cfa_offset 16
 250 019a 4EB9 0000 	jsr CFE_ES_LockSharedData
68K GAS   			page 20


 250      0000 
 251 01a0 508F      	addq.l #8,%sp
 252               	.cfi_def_cfa_offset 8
 306:/home/simulink/cFS_FreeRTOS_seL4/cfe/fsw/cfe-core/src/es/cfe_es_api.c ****     
 307:/home/simulink/cFS_FreeRTOS_seL4/cfe/fsw/cfe-core/src/es/cfe_es_api.c ****        /*
 308:/home/simulink/cFS_FreeRTOS_seL4/cfe/fsw/cfe-core/src/es/cfe_es_api.c ****        ** Check to see if the App is an external cFE App.
 309:/home/simulink/cFS_FreeRTOS_seL4/cfe/fsw/cfe-core/src/es/cfe_es_api.c ****        */
 310:/home/simulink/cFS_FreeRTOS_seL4/cfe/fsw/cfe-core/src/es/cfe_es_api.c ****        if ( CFE_ES_Global.AppTable[AppID].Type == CFE_ES_APP_TYPE_CORE )
 253               	.loc 2 310 0
 254 01a2 202F 0008 	move.l 8(%sp),%d0
 255 01a6 223C 0000 	move.l #168,%d1
 255      00A8 
 256 01ac 4C01 0800 	muls.l %d1,%d0
 257 01b0 41F9 0000 	lea CFE_ES_Global+2352,%a0
 257      0000 
 258 01b6 2030 0800 	move.l (%a0,%d0.l),%d0
 259 01ba 7201      	moveq #1,%d1
 260 01bc B280      	cmp.l %d0,%d1
 261 01be 6634      	jne .L15
 311:/home/simulink/cFS_FreeRTOS_seL4/cfe/fsw/cfe-core/src/es/cfe_es_api.c ****        {
 312:/home/simulink/cFS_FreeRTOS_seL4/cfe/fsw/cfe-core/src/es/cfe_es_api.c ****           CFE_ES_WriteToSysLog ("CFE_ES_DeleteApp: Cannot Restart a CORE Application: %s.\n",
 313:/home/simulink/cFS_FreeRTOS_seL4/cfe/fsw/cfe-core/src/es/cfe_es_api.c ****                              CFE_ES_Global.AppTable[AppID].StartParams.Name );
 262               	.loc 2 313 0
 263 01c0 202F 0008 	move.l 8(%sp),%d0
 264 01c4 223C 0000 	move.l #168,%d1
 264      00A8 
 265 01ca 4C01 0800 	muls.l %d1,%d0
 266 01ce 0680 0000 	add.l #2356,%d0
 266      0934 
 267 01d4 0680 0000 	add.l #CFE_ES_Global,%d0
 267      0000 
 312:/home/simulink/cFS_FreeRTOS_seL4/cfe/fsw/cfe-core/src/es/cfe_es_api.c ****                              CFE_ES_Global.AppTable[AppID].StartParams.Name );
 268               	.loc 2 312 0
 269 01da 2F00      	move.l %d0,-(%sp)
 270               	.cfi_def_cfa_offset 12
 271 01dc 4879 0000 	pea .LC7
 271      0000 
 272               	.cfi_def_cfa_offset 16
 273 01e2 4EB9 0000 	jsr CFE_ES_WriteToSysLog
 273      0000 
 274 01e8 508F      	addq.l #8,%sp
 275               	.cfi_def_cfa_offset 8
 314:/home/simulink/cFS_FreeRTOS_seL4/cfe/fsw/cfe-core/src/es/cfe_es_api.c ****           ReturnCode = CFE_ES_ERR_APPID; 
 276               	.loc 2 314 0
 277 01ea 2EBC C400 	move.l #-1006632959,(%sp)
 277      0001 
 278 01f0 6000 00CA 	jra .L16
 279               	.L15:
 315:/home/simulink/cFS_FreeRTOS_seL4/cfe/fsw/cfe-core/src/es/cfe_es_api.c ****        }
 316:/home/simulink/cFS_FreeRTOS_seL4/cfe/fsw/cfe-core/src/es/cfe_es_api.c ****        else if ( CFE_ES_Global.AppTable[AppID].StateRecord.AppState != CFE_ES_APP_STATE_RUNNING )
 280               	.loc 2 316 0
 281 01f4 202F 0008 	move.l 8(%sp),%d0
 282 01f8 223C 0000 	move.l #168,%d1
 282      00A8 
 283 01fe 4C01 0800 	muls.l %d1,%d0
 284 0202 41F9 0000 	lea CFE_ES_Global+2480,%a0
 284      0000 
68K GAS   			page 21


 285 0208 2030 0800 	move.l (%a0,%d0.l),%d0
 286 020c 7201      	moveq #1,%d1
 287 020e B280      	cmp.l %d0,%d1
 288 0210 6732      	jeq .L17
 317:/home/simulink/cFS_FreeRTOS_seL4/cfe/fsw/cfe-core/src/es/cfe_es_api.c ****        {
 318:/home/simulink/cFS_FreeRTOS_seL4/cfe/fsw/cfe-core/src/es/cfe_es_api.c ****           CFE_ES_WriteToSysLog ("CFE_ES_RestartApp: Cannot Restart Application %s, It is not runnin
 319:/home/simulink/cFS_FreeRTOS_seL4/cfe/fsw/cfe-core/src/es/cfe_es_api.c ****                               CFE_ES_Global.AppTable[AppID].StartParams.Name);
 289               	.loc 2 319 0
 290 0212 202F 0008 	move.l 8(%sp),%d0
 291 0216 223C 0000 	move.l #168,%d1
 291      00A8 
 292 021c 4C01 0800 	muls.l %d1,%d0
 293 0220 0680 0000 	add.l #2356,%d0
 293      0934 
 294 0226 0680 0000 	add.l #CFE_ES_Global,%d0
 294      0000 
 318:/home/simulink/cFS_FreeRTOS_seL4/cfe/fsw/cfe-core/src/es/cfe_es_api.c ****                               CFE_ES_Global.AppTable[AppID].StartParams.Name);
 295               	.loc 2 318 0
 296 022c 2F00      	move.l %d0,-(%sp)
 297               	.cfi_def_cfa_offset 12
 298 022e 4879 0000 	pea .LC8
 298      0000 
 299               	.cfi_def_cfa_offset 16
 300 0234 4EB9 0000 	jsr CFE_ES_WriteToSysLog
 300      0000 
 301 023a 508F      	addq.l #8,%sp
 302               	.cfi_def_cfa_offset 8
 320:/home/simulink/cFS_FreeRTOS_seL4/cfe/fsw/cfe-core/src/es/cfe_es_api.c ****           ReturnCode = CFE_ES_ERR_APPID; 
 303               	.loc 2 320 0
 304 023c 2EBC C400 	move.l #-1006632959,(%sp)
 304      0001 
 305 0242 6078      	jra .L16
 306               	.L17:
 321:/home/simulink/cFS_FreeRTOS_seL4/cfe/fsw/cfe-core/src/es/cfe_es_api.c ****        }
 322:/home/simulink/cFS_FreeRTOS_seL4/cfe/fsw/cfe-core/src/es/cfe_es_api.c ****        else
 323:/home/simulink/cFS_FreeRTOS_seL4/cfe/fsw/cfe-core/src/es/cfe_es_api.c ****        {
 324:/home/simulink/cFS_FreeRTOS_seL4/cfe/fsw/cfe-core/src/es/cfe_es_api.c ****           CFE_ES_WriteToSysLog("CFE_ES_RestartApp: Restart Application %s Initiated\n",
 325:/home/simulink/cFS_FreeRTOS_seL4/cfe/fsw/cfe-core/src/es/cfe_es_api.c ****                              CFE_ES_Global.AppTable[AppID].StartParams.Name);
 307               	.loc 2 325 0
 308 0244 202F 0008 	move.l 8(%sp),%d0
 309 0248 223C 0000 	move.l #168,%d1
 309      00A8 
 310 024e 4C01 0800 	muls.l %d1,%d0
 311 0252 0680 0000 	add.l #2356,%d0
 311      0934 
 312 0258 0680 0000 	add.l #CFE_ES_Global,%d0
 312      0000 
 324:/home/simulink/cFS_FreeRTOS_seL4/cfe/fsw/cfe-core/src/es/cfe_es_api.c ****                              CFE_ES_Global.AppTable[AppID].StartParams.Name);
 313               	.loc 2 324 0
 314 025e 2F00      	move.l %d0,-(%sp)
 315               	.cfi_def_cfa_offset 12
 316 0260 4879 0000 	pea .LC9
 316      0000 
 317               	.cfi_def_cfa_offset 16
 318 0266 4EB9 0000 	jsr CFE_ES_WriteToSysLog
 318      0000 
 319 026c 508F      	addq.l #8,%sp
68K GAS   			page 22


 320               	.cfi_def_cfa_offset 8
 326:/home/simulink/cFS_FreeRTOS_seL4/cfe/fsw/cfe-core/src/es/cfe_es_api.c ****           CFE_ES_Global.AppTable[AppID].StateRecord.AppControlRequest = CFE_ES_RUNSTATUS_SYS_RESTAR
 321               	.loc 2 326 0
 322 026e 202F 0008 	move.l 8(%sp),%d0
 323 0272 223C 0000 	move.l #168,%d1
 323      00A8 
 324 0278 4C01 0800 	muls.l %d1,%d0
 325 027c 41F9 0000 	lea CFE_ES_Global+2476,%a0
 325      0000 
 326 0282 7205      	moveq #5,%d1
 327 0284 2181 0800 	move.l %d1,(%a0,%d0.l)
 327:/home/simulink/cFS_FreeRTOS_seL4/cfe/fsw/cfe-core/src/es/cfe_es_api.c ****           CFE_ES_Global.AppTable[AppID].StateRecord.AppState = CFE_ES_APP_STATE_WAITING;
 328               	.loc 2 327 0
 329 0288 202F 0008 	move.l 8(%sp),%d0
 330 028c 223C 0000 	move.l #168,%d1
 330      00A8 
 331 0292 4C01 0800 	muls.l %d1,%d0
 332 0296 41F9 0000 	lea CFE_ES_Global+2480,%a0
 332      0000 
 333 029c 7203      	moveq #3,%d1
 334 029e 2181 0800 	move.l %d1,(%a0,%d0.l)
 328:/home/simulink/cFS_FreeRTOS_seL4/cfe/fsw/cfe-core/src/es/cfe_es_api.c ****           CFE_ES_Global.AppTable[AppID].StateRecord.AppTimer = CFE_ES_APP_KILL_TIMEOUT;
 335               	.loc 2 328 0
 336 02a2 202F 0008 	move.l 8(%sp),%d0
 337 02a6 223C 0000 	move.l #168,%d1
 337      00A8 
 338 02ac 4C01 0800 	muls.l %d1,%d0
 339 02b0 41F9 0000 	lea CFE_ES_Global+2484,%a0
 339      0000 
 340 02b6 7205      	moveq #5,%d1
 341 02b8 2181 0800 	move.l %d1,(%a0,%d0.l)
 342               	.L16:
 329:/home/simulink/cFS_FreeRTOS_seL4/cfe/fsw/cfe-core/src/es/cfe_es_api.c ****        }
 330:/home/simulink/cFS_FreeRTOS_seL4/cfe/fsw/cfe-core/src/es/cfe_es_api.c ****     
 331:/home/simulink/cFS_FreeRTOS_seL4/cfe/fsw/cfe-core/src/es/cfe_es_api.c ****        CFE_ES_UnlockSharedData(__func__,__LINE__);
 343               	.loc 2 331 0
 344 02bc 4878 014B 	pea 331.w
 345               	.cfi_def_cfa_offset 12
 346 02c0 4879 0000 	pea __func__.5770
 346      0000 
 347               	.cfi_def_cfa_offset 16
 348 02c6 4EB9 0000 	jsr CFE_ES_UnlockSharedData
 348      0000 
 349 02cc 508F      	addq.l #8,%sp
 350               	.cfi_def_cfa_offset 8
 351 02ce 6006      	jra .L18
 352               	.L14:
 332:/home/simulink/cFS_FreeRTOS_seL4/cfe/fsw/cfe-core/src/es/cfe_es_api.c ****     }
 333:/home/simulink/cFS_FreeRTOS_seL4/cfe/fsw/cfe-core/src/es/cfe_es_api.c ****     else /* App ID is not valid */
 334:/home/simulink/cFS_FreeRTOS_seL4/cfe/fsw/cfe-core/src/es/cfe_es_api.c ****     {
 335:/home/simulink/cFS_FreeRTOS_seL4/cfe/fsw/cfe-core/src/es/cfe_es_api.c ****        ReturnCode = CFE_ES_ERR_APPID;
 353               	.loc 2 335 0
 354 02d0 2EBC C400 	move.l #-1006632959,(%sp)
 354      0001 
 355               	.L18:
 336:/home/simulink/cFS_FreeRTOS_seL4/cfe/fsw/cfe-core/src/es/cfe_es_api.c **** 
 337:/home/simulink/cFS_FreeRTOS_seL4/cfe/fsw/cfe-core/src/es/cfe_es_api.c ****     } /* end if */
68K GAS   			page 23


 338:/home/simulink/cFS_FreeRTOS_seL4/cfe/fsw/cfe-core/src/es/cfe_es_api.c **** 
 339:/home/simulink/cFS_FreeRTOS_seL4/cfe/fsw/cfe-core/src/es/cfe_es_api.c ****     return(ReturnCode);
 356               	.loc 2 339 0
 357 02d6 2017      	move.l (%sp),%d0
 340:/home/simulink/cFS_FreeRTOS_seL4/cfe/fsw/cfe-core/src/es/cfe_es_api.c **** 
 341:/home/simulink/cFS_FreeRTOS_seL4/cfe/fsw/cfe-core/src/es/cfe_es_api.c **** } /* End of CFE_ES_RestartApp() */
 358               	.loc 2 341 0
 359 02d8 588F      	addq.l #4,%sp
 360 02da 4E75      	rts
 361               	.cfi_endproc
 362               	.LFE61:
 363               	.sizeCFE_ES_RestartApp, .-CFE_ES_RestartApp
 364               	.section.rodata
 365               	.LC10:
 366 0224 4346 455F 	.string"CFE_ES_DeleteApp: Cannot Reload a CORE Application: %s.\n"
 366      4553 5F44 
 366      656C 6574 
 366      6541 7070 
 366      3A20 4361 
 367               	.LC11:
 368 025d 4346 455F 	.string"CFE_ES_ReloadApp: Cannot Reload Application %s, It is not running.\n"
 368      4553 5F52 
 368      656C 6F61 
 368      6441 7070 
 368      3A20 4361 
 369               	.LC12:
 370 02a1 4346 455F 	.string"CFE_ES_ReloadApp: Reload Application %s Initiated. New filename = %s\n"
 370      4553 5F52 
 370      656C 6F61 
 370      6441 7070 
 370      3A20 5265 
 371               	.text
 372               	.align2
 373               	.globlCFE_ES_ReloadApp
 374               	.typeCFE_ES_ReloadApp, @function
 375               	CFE_ES_ReloadApp:
 376               	.LFB62:
 342:/home/simulink/cFS_FreeRTOS_seL4/cfe/fsw/cfe-core/src/es/cfe_es_api.c **** 
 343:/home/simulink/cFS_FreeRTOS_seL4/cfe/fsw/cfe-core/src/es/cfe_es_api.c **** /*
 344:/home/simulink/cFS_FreeRTOS_seL4/cfe/fsw/cfe-core/src/es/cfe_es_api.c **** ** Function: CFE_ES_ReloadApp
 345:/home/simulink/cFS_FreeRTOS_seL4/cfe/fsw/cfe-core/src/es/cfe_es_api.c **** **
 346:/home/simulink/cFS_FreeRTOS_seL4/cfe/fsw/cfe-core/src/es/cfe_es_api.c **** ** Purpose:  Reload a single cFE App.
 347:/home/simulink/cFS_FreeRTOS_seL4/cfe/fsw/cfe-core/src/es/cfe_es_api.c **** **
 348:/home/simulink/cFS_FreeRTOS_seL4/cfe/fsw/cfe-core/src/es/cfe_es_api.c **** */
 349:/home/simulink/cFS_FreeRTOS_seL4/cfe/fsw/cfe-core/src/es/cfe_es_api.c **** int32 CFE_ES_ReloadApp(uint32 AppID, const char *AppFileName)
 350:/home/simulink/cFS_FreeRTOS_seL4/cfe/fsw/cfe-core/src/es/cfe_es_api.c **** {
 377               	.loc 2 350 0
 378               	.cfi_startproc
 379 02dc 598F      	subq.l #4,%sp
 380               	.cfi_def_cfa_offset 8
 351:/home/simulink/cFS_FreeRTOS_seL4/cfe/fsw/cfe-core/src/es/cfe_es_api.c ****     int32 ReturnCode = CFE_SUCCESS;
 381               	.loc 2 351 0
 382 02de 4297      	clr.l (%sp)
 352:/home/simulink/cFS_FreeRTOS_seL4/cfe/fsw/cfe-core/src/es/cfe_es_api.c **** 
 353:/home/simulink/cFS_FreeRTOS_seL4/cfe/fsw/cfe-core/src/es/cfe_es_api.c ****     CFE_ES_LockSharedData(__func__,__LINE__);
 383               	.loc 2 353 0
 384 02e0 4878 0161 	pea 353.w
68K GAS   			page 24


 385               	.cfi_def_cfa_offset 12
 386 02e4 4879 0000 	pea __func__.5776
 386      0000 
 387               	.cfi_def_cfa_offset 16
 388 02ea 4EB9 0000 	jsr CFE_ES_LockSharedData
 388      0000 
 389 02f0 508F      	addq.l #8,%sp
 390               	.cfi_def_cfa_offset 8
 354:/home/simulink/cFS_FreeRTOS_seL4/cfe/fsw/cfe-core/src/es/cfe_es_api.c ****     
 355:/home/simulink/cFS_FreeRTOS_seL4/cfe/fsw/cfe-core/src/es/cfe_es_api.c ****     /*
 356:/home/simulink/cFS_FreeRTOS_seL4/cfe/fsw/cfe-core/src/es/cfe_es_api.c ****     ** Check to see if the App is an external cFE App.
 357:/home/simulink/cFS_FreeRTOS_seL4/cfe/fsw/cfe-core/src/es/cfe_es_api.c ****     */
 358:/home/simulink/cFS_FreeRTOS_seL4/cfe/fsw/cfe-core/src/es/cfe_es_api.c ****     if ( CFE_ES_Global.AppTable[AppID].Type == CFE_ES_APP_TYPE_CORE )
 391               	.loc 2 358 0
 392 02f2 202F 0008 	move.l 8(%sp),%d0
 393 02f6 223C 0000 	move.l #168,%d1
 393      00A8 
 394 02fc 4C01 0800 	muls.l %d1,%d0
 395 0300 41F9 0000 	lea CFE_ES_Global+2352,%a0
 395      0000 
 396 0306 2030 0800 	move.l (%a0,%d0.l),%d0
 397 030a 7201      	moveq #1,%d1
 398 030c B280      	cmp.l %d0,%d1
 399 030e 6634      	jne .L21
 359:/home/simulink/cFS_FreeRTOS_seL4/cfe/fsw/cfe-core/src/es/cfe_es_api.c ****     {
 360:/home/simulink/cFS_FreeRTOS_seL4/cfe/fsw/cfe-core/src/es/cfe_es_api.c ****        CFE_ES_WriteToSysLog ("CFE_ES_DeleteApp: Cannot Reload a CORE Application: %s.\n", 
 361:/home/simulink/cFS_FreeRTOS_seL4/cfe/fsw/cfe-core/src/es/cfe_es_api.c ****        CFE_ES_Global.AppTable[AppID].StartParams.Name );
 400               	.loc 2 361 0
 401 0310 202F 0008 	move.l 8(%sp),%d0
 402 0314 223C 0000 	move.l #168,%d1
 402      00A8 
 403 031a 4C01 0800 	muls.l %d1,%d0
 404 031e 0680 0000 	add.l #2356,%d0
 404      0934 
 405 0324 0680 0000 	add.l #CFE_ES_Global,%d0
 405      0000 
 360:/home/simulink/cFS_FreeRTOS_seL4/cfe/fsw/cfe-core/src/es/cfe_es_api.c ****        CFE_ES_Global.AppTable[AppID].StartParams.Name );
 406               	.loc 2 360 0
 407 032a 2F00      	move.l %d0,-(%sp)
 408               	.cfi_def_cfa_offset 12
 409 032c 4879 0000 	pea .LC10
 409      0000 
 410               	.cfi_def_cfa_offset 16
 411 0332 4EB9 0000 	jsr CFE_ES_WriteToSysLog
 411      0000 
 412 0338 508F      	addq.l #8,%sp
 413               	.cfi_def_cfa_offset 8
 362:/home/simulink/cFS_FreeRTOS_seL4/cfe/fsw/cfe-core/src/es/cfe_es_api.c ****        ReturnCode = CFE_ES_ERR_APPID; 
 414               	.loc 2 362 0
 415 033a 2EBC C400 	move.l #-1006632959,(%sp)
 415      0001 
 416 0340 6000 0100 	jra .L22
 417               	.L21:
 363:/home/simulink/cFS_FreeRTOS_seL4/cfe/fsw/cfe-core/src/es/cfe_es_api.c ****     }
 364:/home/simulink/cFS_FreeRTOS_seL4/cfe/fsw/cfe-core/src/es/cfe_es_api.c ****     else if ( CFE_ES_Global.AppTable[AppID].StateRecord.AppState != CFE_ES_APP_STATE_RUNNING )
 418               	.loc 2 364 0
 419 0344 202F 0008 	move.l 8(%sp),%d0
68K GAS   			page 25


 420 0348 223C 0000 	move.l #168,%d1
 420      00A8 
 421 034e 4C01 0800 	muls.l %d1,%d0
 422 0352 41F9 0000 	lea CFE_ES_Global+2480,%a0
 422      0000 
 423 0358 2030 0800 	move.l (%a0,%d0.l),%d0
 424 035c 7201      	moveq #1,%d1
 425 035e B280      	cmp.l %d0,%d1
 426 0360 6734      	jeq .L23
 365:/home/simulink/cFS_FreeRTOS_seL4/cfe/fsw/cfe-core/src/es/cfe_es_api.c ****     {
 366:/home/simulink/cFS_FreeRTOS_seL4/cfe/fsw/cfe-core/src/es/cfe_es_api.c ****        CFE_ES_WriteToSysLog ("CFE_ES_ReloadApp: Cannot Reload Application %s, It is not running.\n"
 367:/home/simulink/cFS_FreeRTOS_seL4/cfe/fsw/cfe-core/src/es/cfe_es_api.c ****                               CFE_ES_Global.AppTable[AppID].StartParams.Name);
 427               	.loc 2 367 0
 428 0362 202F 0008 	move.l 8(%sp),%d0
 429 0366 223C 0000 	move.l #168,%d1
 429      00A8 
 430 036c 4C01 0800 	muls.l %d1,%d0
 431 0370 0680 0000 	add.l #2356,%d0
 431      0934 
 432 0376 0680 0000 	add.l #CFE_ES_Global,%d0
 432      0000 
 366:/home/simulink/cFS_FreeRTOS_seL4/cfe/fsw/cfe-core/src/es/cfe_es_api.c ****                               CFE_ES_Global.AppTable[AppID].StartParams.Name);
 433               	.loc 2 366 0
 434 037c 2F00      	move.l %d0,-(%sp)
 435               	.cfi_def_cfa_offset 12
 436 037e 4879 0000 	pea .LC11
 436      0000 
 437               	.cfi_def_cfa_offset 16
 438 0384 4EB9 0000 	jsr CFE_ES_WriteToSysLog
 438      0000 
 439 038a 508F      	addq.l #8,%sp
 440               	.cfi_def_cfa_offset 8
 368:/home/simulink/cFS_FreeRTOS_seL4/cfe/fsw/cfe-core/src/es/cfe_es_api.c ****        ReturnCode = CFE_ES_ERR_APPID; 
 441               	.loc 2 368 0
 442 038c 2EBC C400 	move.l #-1006632959,(%sp)
 442      0001 
 443 0392 6000 00AE 	jra .L22
 444               	.L23:
 369:/home/simulink/cFS_FreeRTOS_seL4/cfe/fsw/cfe-core/src/es/cfe_es_api.c ****     }    
 370:/home/simulink/cFS_FreeRTOS_seL4/cfe/fsw/cfe-core/src/es/cfe_es_api.c ****     else
 371:/home/simulink/cFS_FreeRTOS_seL4/cfe/fsw/cfe-core/src/es/cfe_es_api.c ****     {    
 372:/home/simulink/cFS_FreeRTOS_seL4/cfe/fsw/cfe-core/src/es/cfe_es_api.c ****        CFE_ES_WriteToSysLog("CFE_ES_ReloadApp: Reload Application %s Initiated. New filename = %s\n
 373:/home/simulink/cFS_FreeRTOS_seL4/cfe/fsw/cfe-core/src/es/cfe_es_api.c ****                              CFE_ES_Global.AppTable[AppID].StartParams.Name, AppFileName);
 445               	.loc 2 373 0
 446 0396 202F 0008 	move.l 8(%sp),%d0
 447 039a 223C 0000 	move.l #168,%d1
 447      00A8 
 448 03a0 4C01 0800 	muls.l %d1,%d0
 449 03a4 0680 0000 	add.l #2356,%d0
 449      0934 
 450 03aa 0680 0000 	add.l #CFE_ES_Global,%d0
 450      0000 
 372:/home/simulink/cFS_FreeRTOS_seL4/cfe/fsw/cfe-core/src/es/cfe_es_api.c ****                              CFE_ES_Global.AppTable[AppID].StartParams.Name, AppFileName);
 451               	.loc 2 372 0
 452 03b0 2F2F 000C 	move.l 12(%sp),-(%sp)
 453               	.cfi_def_cfa_offset 12
 454 03b4 2F00      	move.l %d0,-(%sp)
68K GAS   			page 26


 455               	.cfi_def_cfa_offset 16
 456 03b6 4879 0000 	pea .LC12
 456      0000 
 457               	.cfi_def_cfa_offset 20
 458 03bc 4EB9 0000 	jsr CFE_ES_WriteToSysLog
 458      0000 
 459 03c2 4FEF 000C 	lea (12,%sp),%sp
 460               	.cfi_def_cfa_offset 8
 374:/home/simulink/cFS_FreeRTOS_seL4/cfe/fsw/cfe-core/src/es/cfe_es_api.c ****        strncpy((char *)CFE_ES_Global.AppTable[AppID].StartParams.FileName, AppFileName, OS_MAX_PATH
 461               	.loc 2 374 0
 462 03c6 202F 0008 	move.l 8(%sp),%d0
 463 03ca 223C 0000 	move.l #168,%d1
 463      00A8 
 464 03d0 4C01 0800 	muls.l %d1,%d0
 465 03d4 0680 0000 	add.l #2396,%d0
 465      095C 
 466 03da 0680 0000 	add.l #CFE_ES_Global,%d0
 466      0000 
 467 03e0 4878 0040 	pea 64.w
 468               	.cfi_def_cfa_offset 12
 469 03e4 2F2F 0010 	move.l 16(%sp),-(%sp)
 470               	.cfi_def_cfa_offset 16
 471 03e8 2F00      	move.l %d0,-(%sp)
 472               	.cfi_def_cfa_offset 20
 473 03ea 4EB9 0000 	jsr strncpy
 473      0000 
 474 03f0 4FEF 000C 	lea (12,%sp),%sp
 475               	.cfi_def_cfa_offset 8
 375:/home/simulink/cFS_FreeRTOS_seL4/cfe/fsw/cfe-core/src/es/cfe_es_api.c ****        CFE_ES_Global.AppTable[AppID].StateRecord.AppControlRequest = CFE_ES_RUNSTATUS_SYS_RELOAD;
 476               	.loc 2 375 0
 477 03f4 202F 0008 	move.l 8(%sp),%d0
 478 03f8 223C 0000 	move.l #168,%d1
 478      00A8 
 479 03fe 4C01 0800 	muls.l %d1,%d0
 480 0402 41F9 0000 	lea CFE_ES_Global+2476,%a0
 480      0000 
 481 0408 7206      	moveq #6,%d1
 482 040a 2181 0800 	move.l %d1,(%a0,%d0.l)
 376:/home/simulink/cFS_FreeRTOS_seL4/cfe/fsw/cfe-core/src/es/cfe_es_api.c ****        CFE_ES_Global.AppTable[AppID].StateRecord.AppState = CFE_ES_APP_STATE_WAITING;
 483               	.loc 2 376 0
 484 040e 202F 0008 	move.l 8(%sp),%d0
 485 0412 223C 0000 	move.l #168,%d1
 485      00A8 
 486 0418 4C01 0800 	muls.l %d1,%d0
 487 041c 41F9 0000 	lea CFE_ES_Global+2480,%a0
 487      0000 
 488 0422 7203      	moveq #3,%d1
 489 0424 2181 0800 	move.l %d1,(%a0,%d0.l)
 377:/home/simulink/cFS_FreeRTOS_seL4/cfe/fsw/cfe-core/src/es/cfe_es_api.c ****        CFE_ES_Global.AppTable[AppID].StateRecord.AppTimer = CFE_ES_APP_KILL_TIMEOUT;
 490               	.loc 2 377 0
 491 0428 202F 0008 	move.l 8(%sp),%d0
 492 042c 223C 0000 	move.l #168,%d1
 492      00A8 
 493 0432 4C01 0800 	muls.l %d1,%d0
 494 0436 41F9 0000 	lea CFE_ES_Global+2484,%a0
 494      0000 
 495 043c 7205      	moveq #5,%d1
68K GAS   			page 27


 496 043e 2181 0800 	move.l %d1,(%a0,%d0.l)
 497               	.L22:
 378:/home/simulink/cFS_FreeRTOS_seL4/cfe/fsw/cfe-core/src/es/cfe_es_api.c ****     }
 379:/home/simulink/cFS_FreeRTOS_seL4/cfe/fsw/cfe-core/src/es/cfe_es_api.c ****     
 380:/home/simulink/cFS_FreeRTOS_seL4/cfe/fsw/cfe-core/src/es/cfe_es_api.c ****     CFE_ES_UnlockSharedData(__func__,__LINE__);
 498               	.loc 2 380 0
 499 0442 4878 017C 	pea 380.w
 500               	.cfi_def_cfa_offset 12
 501 0446 4879 0000 	pea __func__.5776
 501      0000 
 502               	.cfi_def_cfa_offset 16
 503 044c 4EB9 0000 	jsr CFE_ES_UnlockSharedData
 503      0000 
 504 0452 508F      	addq.l #8,%sp
 505               	.cfi_def_cfa_offset 8
 381:/home/simulink/cFS_FreeRTOS_seL4/cfe/fsw/cfe-core/src/es/cfe_es_api.c ****         
 382:/home/simulink/cFS_FreeRTOS_seL4/cfe/fsw/cfe-core/src/es/cfe_es_api.c ****     return(ReturnCode);
 506               	.loc 2 382 0
 507 0454 2017      	move.l (%sp),%d0
 383:/home/simulink/cFS_FreeRTOS_seL4/cfe/fsw/cfe-core/src/es/cfe_es_api.c **** 
 384:/home/simulink/cFS_FreeRTOS_seL4/cfe/fsw/cfe-core/src/es/cfe_es_api.c **** } /* End of CFE_ES_ReloadApp() */
 508               	.loc 2 384 0
 509 0456 588F      	addq.l #4,%sp
 510 0458 4E75      	rts
 511               	.cfi_endproc
 512               	.LFE62:
 513               	.sizeCFE_ES_ReloadApp, .-CFE_ES_ReloadApp
 514               	.section.rodata
 515               	.LC13:
 516 02e7 4346 455F 	.string"CFE_ES_DeleteApp: Cannot Delete a CORE Application: %s.\n"
 516      4553 5F44 
 516      656C 6574 
 516      6541 7070 
 516      3A20 4361 
 517               	.LC14:
 518 0320 4346 455F 	.string"CFE_ES_DeleteApp: Cannot Delete Application %s, It is not running.\n"
 518      4553 5F44 
 518      656C 6574 
 518      6541 7070 
 518      3A20 4361 
 519               	.LC15:
 520 0364 4346 455F 	.string"CFE_ES_DeleteApp: Delete Application %s Initiated\n"
 520      4553 5F44 
 520      656C 6574 
 520      6541 7070 
 520      3A20 4465 
 521               	.text
 522               	.align2
 523               	.globlCFE_ES_DeleteApp
 524               	.typeCFE_ES_DeleteApp, @function
 525               	CFE_ES_DeleteApp:
 526               	.LFB63:
 385:/home/simulink/cFS_FreeRTOS_seL4/cfe/fsw/cfe-core/src/es/cfe_es_api.c **** 
 386:/home/simulink/cFS_FreeRTOS_seL4/cfe/fsw/cfe-core/src/es/cfe_es_api.c **** /*
 387:/home/simulink/cFS_FreeRTOS_seL4/cfe/fsw/cfe-core/src/es/cfe_es_api.c **** ** Function: CFE_ES_DeleteApp
 388:/home/simulink/cFS_FreeRTOS_seL4/cfe/fsw/cfe-core/src/es/cfe_es_api.c **** **
 389:/home/simulink/cFS_FreeRTOS_seL4/cfe/fsw/cfe-core/src/es/cfe_es_api.c **** ** Purpose:  Delete a cFE App.
68K GAS   			page 28


 390:/home/simulink/cFS_FreeRTOS_seL4/cfe/fsw/cfe-core/src/es/cfe_es_api.c **** **
 391:/home/simulink/cFS_FreeRTOS_seL4/cfe/fsw/cfe-core/src/es/cfe_es_api.c **** */
 392:/home/simulink/cFS_FreeRTOS_seL4/cfe/fsw/cfe-core/src/es/cfe_es_api.c **** int32 CFE_ES_DeleteApp(uint32 AppID)
 393:/home/simulink/cFS_FreeRTOS_seL4/cfe/fsw/cfe-core/src/es/cfe_es_api.c **** {
 527               	.loc 2 393 0
 528               	.cfi_startproc
 529 045a 598F      	subq.l #4,%sp
 530               	.cfi_def_cfa_offset 8
 394:/home/simulink/cFS_FreeRTOS_seL4/cfe/fsw/cfe-core/src/es/cfe_es_api.c ****     int32 ReturnCode = CFE_SUCCESS;
 531               	.loc 2 394 0
 532 045c 4297      	clr.l (%sp)
 395:/home/simulink/cFS_FreeRTOS_seL4/cfe/fsw/cfe-core/src/es/cfe_es_api.c **** 
 396:/home/simulink/cFS_FreeRTOS_seL4/cfe/fsw/cfe-core/src/es/cfe_es_api.c ****     CFE_ES_LockSharedData(__func__,__LINE__);
 533               	.loc 2 396 0
 534 045e 4878 018C 	pea 396.w
 535               	.cfi_def_cfa_offset 12
 536 0462 4879 0000 	pea __func__.5781
 536      0000 
 537               	.cfi_def_cfa_offset 16
 538 0468 4EB9 0000 	jsr CFE_ES_LockSharedData
 538      0000 
 539 046e 508F      	addq.l #8,%sp
 540               	.cfi_def_cfa_offset 8
 397:/home/simulink/cFS_FreeRTOS_seL4/cfe/fsw/cfe-core/src/es/cfe_es_api.c ****     
 398:/home/simulink/cFS_FreeRTOS_seL4/cfe/fsw/cfe-core/src/es/cfe_es_api.c ****     /*
 399:/home/simulink/cFS_FreeRTOS_seL4/cfe/fsw/cfe-core/src/es/cfe_es_api.c ****     ** Check to see if the App is an external cFE App.
 400:/home/simulink/cFS_FreeRTOS_seL4/cfe/fsw/cfe-core/src/es/cfe_es_api.c ****     */
 401:/home/simulink/cFS_FreeRTOS_seL4/cfe/fsw/cfe-core/src/es/cfe_es_api.c ****     if ( CFE_ES_Global.AppTable[AppID].Type == CFE_ES_APP_TYPE_CORE )
 541               	.loc 2 401 0
 542 0470 202F 0008 	move.l 8(%sp),%d0
 543 0474 223C 0000 	move.l #168,%d1
 543      00A8 
 544 047a 4C01 0800 	muls.l %d1,%d0
 545 047e 41F9 0000 	lea CFE_ES_Global+2352,%a0
 545      0000 
 546 0484 2030 0800 	move.l (%a0,%d0.l),%d0
 547 0488 7201      	moveq #1,%d1
 548 048a B280      	cmp.l %d0,%d1
 549 048c 6634      	jne .L26
 402:/home/simulink/cFS_FreeRTOS_seL4/cfe/fsw/cfe-core/src/es/cfe_es_api.c ****     {
 403:/home/simulink/cFS_FreeRTOS_seL4/cfe/fsw/cfe-core/src/es/cfe_es_api.c ****        CFE_ES_WriteToSysLog ("CFE_ES_DeleteApp: Cannot Delete a CORE Application: %s.\n", 
 404:/home/simulink/cFS_FreeRTOS_seL4/cfe/fsw/cfe-core/src/es/cfe_es_api.c ****        CFE_ES_Global.AppTable[AppID].StartParams.Name );
 550               	.loc 2 404 0
 551 048e 202F 0008 	move.l 8(%sp),%d0
 552 0492 223C 0000 	move.l #168,%d1
 552      00A8 
 553 0498 4C01 0800 	muls.l %d1,%d0
 554 049c 0680 0000 	add.l #2356,%d0
 554      0934 
 555 04a2 0680 0000 	add.l #CFE_ES_Global,%d0
 555      0000 
 403:/home/simulink/cFS_FreeRTOS_seL4/cfe/fsw/cfe-core/src/es/cfe_es_api.c ****        CFE_ES_Global.AppTable[AppID].StartParams.Name );
 556               	.loc 2 403 0
 557 04a8 2F00      	move.l %d0,-(%sp)
 558               	.cfi_def_cfa_offset 12
 559 04aa 4879 0000 	pea .LC13
 559      0000 
68K GAS   			page 29


 560               	.cfi_def_cfa_offset 16
 561 04b0 4EB9 0000 	jsr CFE_ES_WriteToSysLog
 561      0000 
 562 04b6 508F      	addq.l #8,%sp
 563               	.cfi_def_cfa_offset 8
 405:/home/simulink/cFS_FreeRTOS_seL4/cfe/fsw/cfe-core/src/es/cfe_es_api.c ****        ReturnCode = CFE_ES_ERR_APPID; 
 564               	.loc 2 405 0
 565 04b8 2EBC C400 	move.l #-1006632959,(%sp)
 565      0001 
 566 04be 6000 00CA 	jra .L27
 567               	.L26:
 406:/home/simulink/cFS_FreeRTOS_seL4/cfe/fsw/cfe-core/src/es/cfe_es_api.c ****     }
 407:/home/simulink/cFS_FreeRTOS_seL4/cfe/fsw/cfe-core/src/es/cfe_es_api.c ****     else if ( CFE_ES_Global.AppTable[AppID].StateRecord.AppState != CFE_ES_APP_STATE_RUNNING )
 568               	.loc 2 407 0
 569 04c2 202F 0008 	move.l 8(%sp),%d0
 570 04c6 223C 0000 	move.l #168,%d1
 570      00A8 
 571 04cc 4C01 0800 	muls.l %d1,%d0
 572 04d0 41F9 0000 	lea CFE_ES_Global+2480,%a0
 572      0000 
 573 04d6 2030 0800 	move.l (%a0,%d0.l),%d0
 574 04da 7201      	moveq #1,%d1
 575 04dc B280      	cmp.l %d0,%d1
 576 04de 6732      	jeq .L28
 408:/home/simulink/cFS_FreeRTOS_seL4/cfe/fsw/cfe-core/src/es/cfe_es_api.c ****     {
 409:/home/simulink/cFS_FreeRTOS_seL4/cfe/fsw/cfe-core/src/es/cfe_es_api.c ****        CFE_ES_WriteToSysLog ("CFE_ES_DeleteApp: Cannot Delete Application %s, It is not running.\n"
 410:/home/simulink/cFS_FreeRTOS_seL4/cfe/fsw/cfe-core/src/es/cfe_es_api.c ****                               CFE_ES_Global.AppTable[AppID].StartParams.Name);
 577               	.loc 2 410 0
 578 04e0 202F 0008 	move.l 8(%sp),%d0
 579 04e4 223C 0000 	move.l #168,%d1
 579      00A8 
 580 04ea 4C01 0800 	muls.l %d1,%d0
 581 04ee 0680 0000 	add.l #2356,%d0
 581      0934 
 582 04f4 0680 0000 	add.l #CFE_ES_Global,%d0
 582      0000 
 409:/home/simulink/cFS_FreeRTOS_seL4/cfe/fsw/cfe-core/src/es/cfe_es_api.c ****                               CFE_ES_Global.AppTable[AppID].StartParams.Name);
 583               	.loc 2 409 0
 584 04fa 2F00      	move.l %d0,-(%sp)
 585               	.cfi_def_cfa_offset 12
 586 04fc 4879 0000 	pea .LC14
 586      0000 
 587               	.cfi_def_cfa_offset 16
 588 0502 4EB9 0000 	jsr CFE_ES_WriteToSysLog
 588      0000 
 589 0508 508F      	addq.l #8,%sp
 590               	.cfi_def_cfa_offset 8
 411:/home/simulink/cFS_FreeRTOS_seL4/cfe/fsw/cfe-core/src/es/cfe_es_api.c ****        ReturnCode = CFE_ES_ERR_APPID; 
 591               	.loc 2 411 0
 592 050a 2EBC C400 	move.l #-1006632959,(%sp)
 592      0001 
 593 0510 6078      	jra .L27
 594               	.L28:
 412:/home/simulink/cFS_FreeRTOS_seL4/cfe/fsw/cfe-core/src/es/cfe_es_api.c ****     }
 413:/home/simulink/cFS_FreeRTOS_seL4/cfe/fsw/cfe-core/src/es/cfe_es_api.c ****     else
 414:/home/simulink/cFS_FreeRTOS_seL4/cfe/fsw/cfe-core/src/es/cfe_es_api.c ****     {
 415:/home/simulink/cFS_FreeRTOS_seL4/cfe/fsw/cfe-core/src/es/cfe_es_api.c ****        CFE_ES_WriteToSysLog("CFE_ES_DeleteApp: Delete Application %s Initiated\n",
68K GAS   			page 30


 416:/home/simulink/cFS_FreeRTOS_seL4/cfe/fsw/cfe-core/src/es/cfe_es_api.c ****                              CFE_ES_Global.AppTable[AppID].StartParams.Name);    
 595               	.loc 2 416 0
 596 0512 202F 0008 	move.l 8(%sp),%d0
 597 0516 223C 0000 	move.l #168,%d1
 597      00A8 
 598 051c 4C01 0800 	muls.l %d1,%d0
 599 0520 0680 0000 	add.l #2356,%d0
 599      0934 
 600 0526 0680 0000 	add.l #CFE_ES_Global,%d0
 600      0000 
 415:/home/simulink/cFS_FreeRTOS_seL4/cfe/fsw/cfe-core/src/es/cfe_es_api.c ****                              CFE_ES_Global.AppTable[AppID].StartParams.Name);    
 601               	.loc 2 415 0
 602 052c 2F00      	move.l %d0,-(%sp)
 603               	.cfi_def_cfa_offset 12
 604 052e 4879 0000 	pea .LC15
 604      0000 
 605               	.cfi_def_cfa_offset 16
 606 0534 4EB9 0000 	jsr CFE_ES_WriteToSysLog
 606      0000 
 607 053a 508F      	addq.l #8,%sp
 608               	.cfi_def_cfa_offset 8
 417:/home/simulink/cFS_FreeRTOS_seL4/cfe/fsw/cfe-core/src/es/cfe_es_api.c ****        CFE_ES_Global.AppTable[AppID].StateRecord.AppControlRequest = CFE_ES_RUNSTATUS_SYS_DELETE;
 609               	.loc 2 417 0
 610 053c 202F 0008 	move.l 8(%sp),%d0
 611 0540 223C 0000 	move.l #168,%d1
 611      00A8 
 612 0546 4C01 0800 	muls.l %d1,%d0
 613 054a 41F9 0000 	lea CFE_ES_Global+2476,%a0
 613      0000 
 614 0550 7207      	moveq #7,%d1
 615 0552 2181 0800 	move.l %d1,(%a0,%d0.l)
 418:/home/simulink/cFS_FreeRTOS_seL4/cfe/fsw/cfe-core/src/es/cfe_es_api.c ****        CFE_ES_Global.AppTable[AppID].StateRecord.AppState = CFE_ES_APP_STATE_WAITING;
 616               	.loc 2 418 0
 617 0556 202F 0008 	move.l 8(%sp),%d0
 618 055a 223C 0000 	move.l #168,%d1
 618      00A8 
 619 0560 4C01 0800 	muls.l %d1,%d0
 620 0564 41F9 0000 	lea CFE_ES_Global+2480,%a0
 620      0000 
 621 056a 7203      	moveq #3,%d1
 622 056c 2181 0800 	move.l %d1,(%a0,%d0.l)
 419:/home/simulink/cFS_FreeRTOS_seL4/cfe/fsw/cfe-core/src/es/cfe_es_api.c ****        CFE_ES_Global.AppTable[AppID].StateRecord.AppTimer = CFE_ES_APP_KILL_TIMEOUT;
 623               	.loc 2 419 0
 624 0570 202F 0008 	move.l 8(%sp),%d0
 625 0574 223C 0000 	move.l #168,%d1
 625      00A8 
 626 057a 4C01 0800 	muls.l %d1,%d0
 627 057e 41F9 0000 	lea CFE_ES_Global+2484,%a0
 627      0000 
 628 0584 7205      	moveq #5,%d1
 629 0586 2181 0800 	move.l %d1,(%a0,%d0.l)
 630               	.L27:
 420:/home/simulink/cFS_FreeRTOS_seL4/cfe/fsw/cfe-core/src/es/cfe_es_api.c ****     }
 421:/home/simulink/cFS_FreeRTOS_seL4/cfe/fsw/cfe-core/src/es/cfe_es_api.c ****     
 422:/home/simulink/cFS_FreeRTOS_seL4/cfe/fsw/cfe-core/src/es/cfe_es_api.c ****     CFE_ES_UnlockSharedData(__func__,__LINE__);
 631               	.loc 2 422 0
 632 058a 4878 01A6 	pea 422.w
68K GAS   			page 31


 633               	.cfi_def_cfa_offset 12
 634 058e 4879 0000 	pea __func__.5781
 634      0000 
 635               	.cfi_def_cfa_offset 16
 636 0594 4EB9 0000 	jsr CFE_ES_UnlockSharedData
 636      0000 
 637 059a 508F      	addq.l #8,%sp
 638               	.cfi_def_cfa_offset 8
 423:/home/simulink/cFS_FreeRTOS_seL4/cfe/fsw/cfe-core/src/es/cfe_es_api.c ****         
 424:/home/simulink/cFS_FreeRTOS_seL4/cfe/fsw/cfe-core/src/es/cfe_es_api.c ****     return(ReturnCode);
 639               	.loc 2 424 0
 640 059c 2017      	move.l (%sp),%d0
 425:/home/simulink/cFS_FreeRTOS_seL4/cfe/fsw/cfe-core/src/es/cfe_es_api.c **** 
 426:/home/simulink/cFS_FreeRTOS_seL4/cfe/fsw/cfe-core/src/es/cfe_es_api.c **** } /* End of CFE_ES_DeleteApp() */
 641               	.loc 2 426 0
 642 059e 588F      	addq.l #4,%sp
 643 05a0 4E75      	rts
 644               	.cfi_endproc
 645               	.LFE63:
 646               	.sizeCFE_ES_DeleteApp, .-CFE_ES_DeleteApp
 647               	.section.rodata
 648               	.LC16:
 649 0397 4346 455F 	.string"CFE_ES_ExitApp: CORE Application %s Had an Init Error.\n"
 649      4553 5F45 
 649      7869 7441 
 649      7070 3A20 
 649      434F 5245 
 650               	.LC17:
 651 03cf 4346 455F 	.string"CFE_ES_ExitApp: CORE Application %s Had a Runtime Error.\n"
 651      4553 5F45 
 651      7869 7441 
 651      7070 3A20 
 651      434F 5245 
 652               	.LC18:
 653 0409 4346 455F 	.string"CFE_ES_ExitApp, Cannot Exit CORE Application %s\n"
 653      4553 5F45 
 653      7869 7441 
 653      7070 2C20 
 653      4361 6E6E 
 654               	.LC19:
 655 043a 4170 706C 	.string"Application %s called CFE_ES_ExitApp\n"
 655      6963 6174 
 655      696F 6E20 
 655      2573 2063 
 655      616C 6C65 
 656               	.text
 657               	.align2
 658               	.globlCFE_ES_ExitApp
 659               	.typeCFE_ES_ExitApp, @function
 660               	CFE_ES_ExitApp:
 661               	.LFB64:
 427:/home/simulink/cFS_FreeRTOS_seL4/cfe/fsw/cfe-core/src/es/cfe_es_api.c **** 
 428:/home/simulink/cFS_FreeRTOS_seL4/cfe/fsw/cfe-core/src/es/cfe_es_api.c **** /*
 429:/home/simulink/cFS_FreeRTOS_seL4/cfe/fsw/cfe-core/src/es/cfe_es_api.c **** ** Function: CFE_ES_ExitApp
 430:/home/simulink/cFS_FreeRTOS_seL4/cfe/fsw/cfe-core/src/es/cfe_es_api.c **** **
 431:/home/simulink/cFS_FreeRTOS_seL4/cfe/fsw/cfe-core/src/es/cfe_es_api.c **** ** Purpose:  Exit a cFE App.
 432:/home/simulink/cFS_FreeRTOS_seL4/cfe/fsw/cfe-core/src/es/cfe_es_api.c **** **
68K GAS   			page 32


 433:/home/simulink/cFS_FreeRTOS_seL4/cfe/fsw/cfe-core/src/es/cfe_es_api.c **** */
 434:/home/simulink/cFS_FreeRTOS_seL4/cfe/fsw/cfe-core/src/es/cfe_es_api.c **** void CFE_ES_ExitApp(uint32 ExitStatus)
 435:/home/simulink/cFS_FreeRTOS_seL4/cfe/fsw/cfe-core/src/es/cfe_es_api.c **** {
 662               	.loc 2 435 0
 663               	.cfi_startproc
 664 05a2 518F      	subq.l #8,%sp
 665               	.cfi_def_cfa_offset 12
 436:/home/simulink/cFS_FreeRTOS_seL4/cfe/fsw/cfe-core/src/es/cfe_es_api.c ****     int32   ReturnCode;
 437:/home/simulink/cFS_FreeRTOS_seL4/cfe/fsw/cfe-core/src/es/cfe_es_api.c ****     uint32  AppID;
 438:/home/simulink/cFS_FreeRTOS_seL4/cfe/fsw/cfe-core/src/es/cfe_es_api.c **** 
 439:/home/simulink/cFS_FreeRTOS_seL4/cfe/fsw/cfe-core/src/es/cfe_es_api.c ****     CFE_ES_LockSharedData(__func__,__LINE__);
 666               	.loc 2 439 0
 667 05a4 4878 01B7 	pea 439.w
 668               	.cfi_def_cfa_offset 16
 669 05a8 4879 0000 	pea __func__.5787
 669      0000 
 670               	.cfi_def_cfa_offset 20
 671 05ae 4EB9 0000 	jsr CFE_ES_LockSharedData
 671      0000 
 672 05b4 508F      	addq.l #8,%sp
 673               	.cfi_def_cfa_offset 12
 440:/home/simulink/cFS_FreeRTOS_seL4/cfe/fsw/cfe-core/src/es/cfe_es_api.c **** 
 441:/home/simulink/cFS_FreeRTOS_seL4/cfe/fsw/cfe-core/src/es/cfe_es_api.c ****     /*
 442:/home/simulink/cFS_FreeRTOS_seL4/cfe/fsw/cfe-core/src/es/cfe_es_api.c ****     ** Get App ID - Be careful not to lock the shared data before calling GetAppID
 443:/home/simulink/cFS_FreeRTOS_seL4/cfe/fsw/cfe-core/src/es/cfe_es_api.c ****     */
 444:/home/simulink/cFS_FreeRTOS_seL4/cfe/fsw/cfe-core/src/es/cfe_es_api.c ****     ReturnCode = CFE_ES_GetAppIDInternal(&AppID);
 674               	.loc 2 444 0
 675 05b6 200F      	move.l %sp,%d0
 676 05b8 2F00      	move.l %d0,-(%sp)
 677               	.cfi_def_cfa_offset 16
 678 05ba 4EB9 0000 	jsr CFE_ES_GetAppIDInternal
 678      0000 
 679 05c0 588F      	addq.l #4,%sp
 680               	.cfi_def_cfa_offset 12
 681 05c2 2F40 0004 	move.l %d0,4(%sp)
 445:/home/simulink/cFS_FreeRTOS_seL4/cfe/fsw/cfe-core/src/es/cfe_es_api.c ****     if ( ReturnCode == CFE_SUCCESS )
 682               	.loc 2 445 0
 683 05c6 4AAF 0004 	tst.l 4(%sp)
 684 05ca 6600 014C 	jne .L31
 446:/home/simulink/cFS_FreeRTOS_seL4/cfe/fsw/cfe-core/src/es/cfe_es_api.c ****     {
 447:/home/simulink/cFS_FreeRTOS_seL4/cfe/fsw/cfe-core/src/es/cfe_es_api.c ****        /*
 448:/home/simulink/cFS_FreeRTOS_seL4/cfe/fsw/cfe-core/src/es/cfe_es_api.c ****        ** Check to see if the App is an external cFE App.
 449:/home/simulink/cFS_FreeRTOS_seL4/cfe/fsw/cfe-core/src/es/cfe_es_api.c ****        */
 450:/home/simulink/cFS_FreeRTOS_seL4/cfe/fsw/cfe-core/src/es/cfe_es_api.c ****        if ( CFE_ES_Global.AppTable[AppID].Type == CFE_ES_APP_TYPE_CORE )
 685               	.loc 2 450 0
 686 05ce 2017      	move.l (%sp),%d0
 687 05d0 223C 0000 	move.l #168,%d1
 687      00A8 
 688 05d6 4C01 0800 	muls.l %d1,%d0
 689 05da 41F9 0000 	lea CFE_ES_Global+2352,%a0
 689      0000 
 690 05e0 2030 0800 	move.l (%a0,%d0.l),%d0
 691 05e4 7201      	moveq #1,%d1
 692 05e6 B280      	cmp.l %d0,%d1
 693 05e8 6600 00CE 	jne .L32
 451:/home/simulink/cFS_FreeRTOS_seL4/cfe/fsw/cfe-core/src/es/cfe_es_api.c ****        {
 452:/home/simulink/cFS_FreeRTOS_seL4/cfe/fsw/cfe-core/src/es/cfe_es_api.c ****           /*
68K GAS   			page 33


 453:/home/simulink/cFS_FreeRTOS_seL4/cfe/fsw/cfe-core/src/es/cfe_es_api.c ****           ** A core app should only call this function with one of two ExitStatus codes.
 454:/home/simulink/cFS_FreeRTOS_seL4/cfe/fsw/cfe-core/src/es/cfe_es_api.c ****           */
 455:/home/simulink/cFS_FreeRTOS_seL4/cfe/fsw/cfe-core/src/es/cfe_es_api.c ****           if ( ExitStatus == CFE_ES_RUNSTATUS_CORE_APP_INIT_ERROR )
 694               	.loc 2 455 0
 695 05ec 7008      	moveq #8,%d0
 696 05ee B0AF 000C 	cmp.l 12(%sp),%d0
 697 05f2 664E      	jne .L33
 456:/home/simulink/cFS_FreeRTOS_seL4/cfe/fsw/cfe-core/src/es/cfe_es_api.c ****           {
 457:/home/simulink/cFS_FreeRTOS_seL4/cfe/fsw/cfe-core/src/es/cfe_es_api.c ****               CFE_ES_WriteToSysLog ("CFE_ES_ExitApp: CORE Application %s Had an Init Error.\n",
 458:/home/simulink/cFS_FreeRTOS_seL4/cfe/fsw/cfe-core/src/es/cfe_es_api.c ****                                      CFE_ES_Global.AppTable[AppID].StartParams.Name );
 698               	.loc 2 458 0
 699 05f4 2017      	move.l (%sp),%d0
 700 05f6 223C 0000 	move.l #168,%d1
 700      00A8 
 701 05fc 4C01 0800 	muls.l %d1,%d0
 702 0600 0680 0000 	add.l #2356,%d0
 702      0934 
 703 0606 0680 0000 	add.l #CFE_ES_Global,%d0
 703      0000 
 457:/home/simulink/cFS_FreeRTOS_seL4/cfe/fsw/cfe-core/src/es/cfe_es_api.c ****                                      CFE_ES_Global.AppTable[AppID].StartParams.Name );
 704               	.loc 2 457 0
 705 060c 2F00      	move.l %d0,-(%sp)
 706               	.cfi_def_cfa_offset 16
 707 060e 4879 0000 	pea .LC16
 707      0000 
 708               	.cfi_def_cfa_offset 20
 709 0614 4EB9 0000 	jsr CFE_ES_WriteToSysLog
 709      0000 
 710 061a 508F      	addq.l #8,%sp
 711               	.cfi_def_cfa_offset 12
 459:/home/simulink/cFS_FreeRTOS_seL4/cfe/fsw/cfe-core/src/es/cfe_es_api.c ****                                      
 460:/home/simulink/cFS_FreeRTOS_seL4/cfe/fsw/cfe-core/src/es/cfe_es_api.c ****               /*
 461:/home/simulink/cFS_FreeRTOS_seL4/cfe/fsw/cfe-core/src/es/cfe_es_api.c ****               ** Unlock the ES Shared data before calling ResetCFE 
 462:/home/simulink/cFS_FreeRTOS_seL4/cfe/fsw/cfe-core/src/es/cfe_es_api.c ****               */
 463:/home/simulink/cFS_FreeRTOS_seL4/cfe/fsw/cfe-core/src/es/cfe_es_api.c ****               CFE_ES_UnlockSharedData(__func__,__LINE__);
 712               	.loc 2 463 0
 713 061c 4878 01CF 	pea 463.w
 714               	.cfi_def_cfa_offset 16
 715 0620 4879 0000 	pea __func__.5787
 715      0000 
 716               	.cfi_def_cfa_offset 20
 717 0626 4EB9 0000 	jsr CFE_ES_UnlockSharedData
 717      0000 
 718 062c 508F      	addq.l #8,%sp
 719               	.cfi_def_cfa_offset 12
 464:/home/simulink/cFS_FreeRTOS_seL4/cfe/fsw/cfe-core/src/es/cfe_es_api.c ****               
 465:/home/simulink/cFS_FreeRTOS_seL4/cfe/fsw/cfe-core/src/es/cfe_es_api.c ****               
 466:/home/simulink/cFS_FreeRTOS_seL4/cfe/fsw/cfe-core/src/es/cfe_es_api.c ****               /*
 467:/home/simulink/cFS_FreeRTOS_seL4/cfe/fsw/cfe-core/src/es/cfe_es_api.c ****               ** Do a Processor Reset the cFE
 468:/home/simulink/cFS_FreeRTOS_seL4/cfe/fsw/cfe-core/src/es/cfe_es_api.c ****               */                                                                                   
 469:/home/simulink/cFS_FreeRTOS_seL4/cfe/fsw/cfe-core/src/es/cfe_es_api.c ****               ReturnCode = CFE_ES_ResetCFE(CFE_PSP_RST_TYPE_PROCESSOR);
 720               	.loc 2 469 0
 721 062e 4878 0001 	pea 1.w
 722               	.cfi_def_cfa_offset 16
 723 0632 4EB9 0000 	jsr CFE_ES_ResetCFE
 723      0000 
 724 0638 588F      	addq.l #4,%sp
68K GAS   			page 34


 725               	.cfi_def_cfa_offset 12
 726 063a 2F40 0004 	move.l %d0,4(%sp)
 727 063e 6000 00D8 	jra .L31
 728               	.L33:
 470:/home/simulink/cFS_FreeRTOS_seL4/cfe/fsw/cfe-core/src/es/cfe_es_api.c ****               
 471:/home/simulink/cFS_FreeRTOS_seL4/cfe/fsw/cfe-core/src/es/cfe_es_api.c ****               /*
 472:/home/simulink/cFS_FreeRTOS_seL4/cfe/fsw/cfe-core/src/es/cfe_es_api.c ****               ** Code will not return
 473:/home/simulink/cFS_FreeRTOS_seL4/cfe/fsw/cfe-core/src/es/cfe_es_api.c ****               */
 474:/home/simulink/cFS_FreeRTOS_seL4/cfe/fsw/cfe-core/src/es/cfe_es_api.c ****               
 475:/home/simulink/cFS_FreeRTOS_seL4/cfe/fsw/cfe-core/src/es/cfe_es_api.c ****           }
 476:/home/simulink/cFS_FreeRTOS_seL4/cfe/fsw/cfe-core/src/es/cfe_es_api.c ****           else if ( ExitStatus == CFE_ES_RUNSTATUS_CORE_APP_RUNTIME_ERROR )
 729               	.loc 2 476 0
 730 0642 7009      	moveq #9,%d0
 731 0644 B0AF 000C 	cmp.l 12(%sp),%d0
 732 0648 6644      	jne .L35
 477:/home/simulink/cFS_FreeRTOS_seL4/cfe/fsw/cfe-core/src/es/cfe_es_api.c ****           {
 478:/home/simulink/cFS_FreeRTOS_seL4/cfe/fsw/cfe-core/src/es/cfe_es_api.c ****               CFE_ES_WriteToSysLog ("CFE_ES_ExitApp: CORE Application %s Had a Runtime Error.\n",
 479:/home/simulink/cFS_FreeRTOS_seL4/cfe/fsw/cfe-core/src/es/cfe_es_api.c ****                                      CFE_ES_Global.AppTable[AppID].StartParams.Name );  
 733               	.loc 2 479 0
 734 064a 2017      	move.l (%sp),%d0
 735 064c 223C 0000 	move.l #168,%d1
 735      00A8 
 736 0652 4C01 0800 	muls.l %d1,%d0
 737 0656 0680 0000 	add.l #2356,%d0
 737      0934 
 738 065c 0680 0000 	add.l #CFE_ES_Global,%d0
 738      0000 
 478:/home/simulink/cFS_FreeRTOS_seL4/cfe/fsw/cfe-core/src/es/cfe_es_api.c ****                                      CFE_ES_Global.AppTable[AppID].StartParams.Name );  
 739               	.loc 2 478 0
 740 0662 2F00      	move.l %d0,-(%sp)
 741               	.cfi_def_cfa_offset 16
 742 0664 4879 0000 	pea .LC17
 742      0000 
 743               	.cfi_def_cfa_offset 20
 744 066a 4EB9 0000 	jsr CFE_ES_WriteToSysLog
 744      0000 
 745 0670 508F      	addq.l #8,%sp
 746               	.cfi_def_cfa_offset 12
 480:/home/simulink/cFS_FreeRTOS_seL4/cfe/fsw/cfe-core/src/es/cfe_es_api.c ****                                                                                              
 481:/home/simulink/cFS_FreeRTOS_seL4/cfe/fsw/cfe-core/src/es/cfe_es_api.c ****               /*
 482:/home/simulink/cFS_FreeRTOS_seL4/cfe/fsw/cfe-core/src/es/cfe_es_api.c ****               ** Unlock the ES Shared data before killing the main task
 483:/home/simulink/cFS_FreeRTOS_seL4/cfe/fsw/cfe-core/src/es/cfe_es_api.c ****               */
 484:/home/simulink/cFS_FreeRTOS_seL4/cfe/fsw/cfe-core/src/es/cfe_es_api.c ****               CFE_ES_UnlockSharedData(__func__,__LINE__);
 747               	.loc 2 484 0
 748 0672 4878 01E4 	pea 484.w
 749               	.cfi_def_cfa_offset 16
 750 0676 4879 0000 	pea __func__.5787
 750      0000 
 751               	.cfi_def_cfa_offset 20
 752 067c 4EB9 0000 	jsr CFE_ES_UnlockSharedData
 752      0000 
 753 0682 508F      	addq.l #8,%sp
 754               	.cfi_def_cfa_offset 12
 485:/home/simulink/cFS_FreeRTOS_seL4/cfe/fsw/cfe-core/src/es/cfe_es_api.c ****                              
 486:/home/simulink/cFS_FreeRTOS_seL4/cfe/fsw/cfe-core/src/es/cfe_es_api.c ****               /*
 487:/home/simulink/cFS_FreeRTOS_seL4/cfe/fsw/cfe-core/src/es/cfe_es_api.c ****               ** Exit this task
 488:/home/simulink/cFS_FreeRTOS_seL4/cfe/fsw/cfe-core/src/es/cfe_es_api.c ****               */
68K GAS   			page 35


 489:/home/simulink/cFS_FreeRTOS_seL4/cfe/fsw/cfe-core/src/es/cfe_es_api.c ****               OS_TaskExit();   
 755               	.loc 2 489 0
 756 0684 4EB9 0000 	jsr OS_TaskExit
 756      0000 
 757 068a 6000 009E 	jra .L30
 758               	.L35:
 490:/home/simulink/cFS_FreeRTOS_seL4/cfe/fsw/cfe-core/src/es/cfe_es_api.c ****               
 491:/home/simulink/cFS_FreeRTOS_seL4/cfe/fsw/cfe-core/src/es/cfe_es_api.c ****               /*
 492:/home/simulink/cFS_FreeRTOS_seL4/cfe/fsw/cfe-core/src/es/cfe_es_api.c ****               ** Code will not return, except under unit test
 493:/home/simulink/cFS_FreeRTOS_seL4/cfe/fsw/cfe-core/src/es/cfe_es_api.c ****               */
 494:/home/simulink/cFS_FreeRTOS_seL4/cfe/fsw/cfe-core/src/es/cfe_es_api.c ****               return;
 495:/home/simulink/cFS_FreeRTOS_seL4/cfe/fsw/cfe-core/src/es/cfe_es_api.c ****           }
 496:/home/simulink/cFS_FreeRTOS_seL4/cfe/fsw/cfe-core/src/es/cfe_es_api.c ****           else 
 497:/home/simulink/cFS_FreeRTOS_seL4/cfe/fsw/cfe-core/src/es/cfe_es_api.c ****           {
 498:/home/simulink/cFS_FreeRTOS_seL4/cfe/fsw/cfe-core/src/es/cfe_es_api.c ****               CFE_ES_WriteToSysLog ("CFE_ES_ExitApp, Cannot Exit CORE Application %s\n",
 499:/home/simulink/cFS_FreeRTOS_seL4/cfe/fsw/cfe-core/src/es/cfe_es_api.c ****                                     CFE_ES_Global.AppTable[AppID].StartParams.Name );         
 759               	.loc 2 499 0
 760 068e 2017      	move.l (%sp),%d0
 761 0690 223C 0000 	move.l #168,%d1
 761      00A8 
 762 0696 4C01 0800 	muls.l %d1,%d0
 763 069a 0680 0000 	add.l #2356,%d0
 763      0934 
 764 06a0 0680 0000 	add.l #CFE_ES_Global,%d0
 764      0000 
 498:/home/simulink/cFS_FreeRTOS_seL4/cfe/fsw/cfe-core/src/es/cfe_es_api.c ****                                     CFE_ES_Global.AppTable[AppID].StartParams.Name );         
 765               	.loc 2 498 0
 766 06a6 2F00      	move.l %d0,-(%sp)
 767               	.cfi_def_cfa_offset 16
 768 06a8 4879 0000 	pea .LC18
 768      0000 
 769               	.cfi_def_cfa_offset 20
 770 06ae 4EB9 0000 	jsr CFE_ES_WriteToSysLog
 770      0000 
 771 06b4 508F      	addq.l #8,%sp
 772               	.cfi_def_cfa_offset 12
 773 06b6 6060      	jra .L31
 774               	.L32:
 500:/home/simulink/cFS_FreeRTOS_seL4/cfe/fsw/cfe-core/src/es/cfe_es_api.c ****           }
 501:/home/simulink/cFS_FreeRTOS_seL4/cfe/fsw/cfe-core/src/es/cfe_es_api.c ****                     
 502:/home/simulink/cFS_FreeRTOS_seL4/cfe/fsw/cfe-core/src/es/cfe_es_api.c ****        }
 503:/home/simulink/cFS_FreeRTOS_seL4/cfe/fsw/cfe-core/src/es/cfe_es_api.c ****        else /* It is an external App */
 504:/home/simulink/cFS_FreeRTOS_seL4/cfe/fsw/cfe-core/src/es/cfe_es_api.c ****        {
 505:/home/simulink/cFS_FreeRTOS_seL4/cfe/fsw/cfe-core/src/es/cfe_es_api.c ****           
 506:/home/simulink/cFS_FreeRTOS_seL4/cfe/fsw/cfe-core/src/es/cfe_es_api.c ****           CFE_ES_WriteToSysLog ("Application %s called CFE_ES_ExitApp\n",
 507:/home/simulink/cFS_FreeRTOS_seL4/cfe/fsw/cfe-core/src/es/cfe_es_api.c ****                                  CFE_ES_Global.AppTable[AppID].StartParams.Name);
 775               	.loc 2 507 0
 776 06b8 2017      	move.l (%sp),%d0
 777 06ba 223C 0000 	move.l #168,%d1
 777      00A8 
 778 06c0 4C01 0800 	muls.l %d1,%d0
 779 06c4 0680 0000 	add.l #2356,%d0
 779      0934 
 780 06ca 0680 0000 	add.l #CFE_ES_Global,%d0
 780      0000 
 506:/home/simulink/cFS_FreeRTOS_seL4/cfe/fsw/cfe-core/src/es/cfe_es_api.c ****                                  CFE_ES_Global.AppTable[AppID].StartParams.Name);
 781               	.loc 2 506 0
68K GAS   			page 36


 782 06d0 2F00      	move.l %d0,-(%sp)
 783               	.cfi_def_cfa_offset 16
 784 06d2 4879 0000 	pea .LC19
 784      0000 
 785               	.cfi_def_cfa_offset 20
 786 06d8 4EB9 0000 	jsr CFE_ES_WriteToSysLog
 786      0000 
 787 06de 508F      	addq.l #8,%sp
 788               	.cfi_def_cfa_offset 12
 508:/home/simulink/cFS_FreeRTOS_seL4/cfe/fsw/cfe-core/src/es/cfe_es_api.c ****           CFE_ES_Global.AppTable[AppID].StateRecord.AppState = CFE_ES_APP_STATE_STOPPED;
 789               	.loc 2 508 0
 790 06e0 2017      	move.l (%sp),%d0
 791 06e2 223C 0000 	move.l #168,%d1
 791      00A8 
 792 06e8 4C01 0800 	muls.l %d1,%d0
 793 06ec 41F9 0000 	lea CFE_ES_Global+2480,%a0
 793      0000 
 794 06f2 7202      	moveq #2,%d1
 795 06f4 2181 0800 	move.l %d1,(%a0,%d0.l)
 509:/home/simulink/cFS_FreeRTOS_seL4/cfe/fsw/cfe-core/src/es/cfe_es_api.c **** 
 510:/home/simulink/cFS_FreeRTOS_seL4/cfe/fsw/cfe-core/src/es/cfe_es_api.c **** 
 511:/home/simulink/cFS_FreeRTOS_seL4/cfe/fsw/cfe-core/src/es/cfe_es_api.c ****           /*
 512:/home/simulink/cFS_FreeRTOS_seL4/cfe/fsw/cfe-core/src/es/cfe_es_api.c ****           ** Unlock the ES Shared data before suspending the app 
 513:/home/simulink/cFS_FreeRTOS_seL4/cfe/fsw/cfe-core/src/es/cfe_es_api.c ****           */
 514:/home/simulink/cFS_FreeRTOS_seL4/cfe/fsw/cfe-core/src/es/cfe_es_api.c ****           CFE_ES_UnlockSharedData(__func__,__LINE__);
 796               	.loc 2 514 0
 797 06f8 4878 0202 	pea 514.w
 798               	.cfi_def_cfa_offset 16
 799 06fc 4879 0000 	pea __func__.5787
 799      0000 
 800               	.cfi_def_cfa_offset 20
 801 0702 4EB9 0000 	jsr CFE_ES_UnlockSharedData
 801      0000 
 802 0708 508F      	addq.l #8,%sp
 803               	.cfi_def_cfa_offset 12
 804               	.L37:
 515:/home/simulink/cFS_FreeRTOS_seL4/cfe/fsw/cfe-core/src/es/cfe_es_api.c **** 
 516:/home/simulink/cFS_FreeRTOS_seL4/cfe/fsw/cfe-core/src/es/cfe_es_api.c ****           /*
 517:/home/simulink/cFS_FreeRTOS_seL4/cfe/fsw/cfe-core/src/es/cfe_es_api.c ****           ** Suspend the Application until ES kills it.
 518:/home/simulink/cFS_FreeRTOS_seL4/cfe/fsw/cfe-core/src/es/cfe_es_api.c ****           ** It might be better to have a way of suspending the app in the OS
 519:/home/simulink/cFS_FreeRTOS_seL4/cfe/fsw/cfe-core/src/es/cfe_es_api.c ****           */
 520:/home/simulink/cFS_FreeRTOS_seL4/cfe/fsw/cfe-core/src/es/cfe_es_api.c ****           while(1)
 521:/home/simulink/cFS_FreeRTOS_seL4/cfe/fsw/cfe-core/src/es/cfe_es_api.c ****           {
 522:/home/simulink/cFS_FreeRTOS_seL4/cfe/fsw/cfe-core/src/es/cfe_es_api.c ****              OS_TaskDelay(500);
 805               	.loc 2 522 0 discriminator 1
 806 070a 4878 01F4 	pea 500.w
 807               	.cfi_def_cfa_offset 16
 808 070e 4EB9 0000 	jsr OS_TaskDelay
 808      0000 
 809 0714 588F      	addq.l #4,%sp
 810               	.cfi_def_cfa_offset 12
 811 0716 60F2      	jra .L37
 812               	.L31:
 523:/home/simulink/cFS_FreeRTOS_seL4/cfe/fsw/cfe-core/src/es/cfe_es_api.c ****           }
 524:/home/simulink/cFS_FreeRTOS_seL4/cfe/fsw/cfe-core/src/es/cfe_es_api.c **** 
 525:/home/simulink/cFS_FreeRTOS_seL4/cfe/fsw/cfe-core/src/es/cfe_es_api.c ****        } /* end if */
 526:/home/simulink/cFS_FreeRTOS_seL4/cfe/fsw/cfe-core/src/es/cfe_es_api.c ****    
68K GAS   			page 37


 527:/home/simulink/cFS_FreeRTOS_seL4/cfe/fsw/cfe-core/src/es/cfe_es_api.c ****    } /* end if ReturnCode == CFE_SUCCESS */
 528:/home/simulink/cFS_FreeRTOS_seL4/cfe/fsw/cfe-core/src/es/cfe_es_api.c **** 
 529:/home/simulink/cFS_FreeRTOS_seL4/cfe/fsw/cfe-core/src/es/cfe_es_api.c ****    CFE_ES_UnlockSharedData(__func__,__LINE__);
 813               	.loc 2 529 0 discriminator 1
 814 0718 4878 0211 	pea 529.w
 815               	.cfi_def_cfa_offset 16
 816 071c 4879 0000 	pea __func__.5787
 816      0000 
 817               	.cfi_def_cfa_offset 20
 818 0722 4EB9 0000 	jsr CFE_ES_UnlockSharedData
 818      0000 
 819 0728 508F      	addq.l #8,%sp
 820               	.cfi_def_cfa_offset 12
 821               	.L30:
 530:/home/simulink/cFS_FreeRTOS_seL4/cfe/fsw/cfe-core/src/es/cfe_es_api.c ****    
 531:/home/simulink/cFS_FreeRTOS_seL4/cfe/fsw/cfe-core/src/es/cfe_es_api.c **** } /* End of CFE_ES_ExitApp() */
 822               	.loc 2 531 0
 823 072a 508F      	addq.l #8,%sp
 824 072c 4E75      	rts
 825               	.cfi_endproc
 826               	.LFE64:
 827               	.sizeCFE_ES_ExitApp, .-CFE_ES_ExitApp
 828               	.section.rodata
 829               	.LC20:
 830 0460 4346 455F 	.string"CFE_ES_RunLoop Error: Invalid RunStatus:%d!\n"
 830      4553 5F52 
 830      756E 4C6F 
 830      6F70 2045 
 830      7272 6F72 
 831               	.LC21:
 832 048d 4346 455F 	.string"CFE_ES_RunLoop Error: Cannot get AppID for the caller: RC = %08X\n"
 832      4553 5F52 
 832      756E 4C6F 
 832      6F70 2045 
 832      7272 6F72 
 833               	.text
 834               	.align2
 835               	.globlCFE_ES_RunLoop
 836               	.typeCFE_ES_RunLoop, @function
 837               	CFE_ES_RunLoop:
 838               	.LFB65:
 532:/home/simulink/cFS_FreeRTOS_seL4/cfe/fsw/cfe-core/src/es/cfe_es_api.c **** 
 533:/home/simulink/cFS_FreeRTOS_seL4/cfe/fsw/cfe-core/src/es/cfe_es_api.c **** /*
 534:/home/simulink/cFS_FreeRTOS_seL4/cfe/fsw/cfe-core/src/es/cfe_es_api.c **** ** Function: CFE_ES_RunLoop
 535:/home/simulink/cFS_FreeRTOS_seL4/cfe/fsw/cfe-core/src/es/cfe_es_api.c **** **
 536:/home/simulink/cFS_FreeRTOS_seL4/cfe/fsw/cfe-core/src/es/cfe_es_api.c **** ** Purpose:  Check the Run Status of an Application.
 537:/home/simulink/cFS_FreeRTOS_seL4/cfe/fsw/cfe-core/src/es/cfe_es_api.c **** **
 538:/home/simulink/cFS_FreeRTOS_seL4/cfe/fsw/cfe-core/src/es/cfe_es_api.c **** */
 539:/home/simulink/cFS_FreeRTOS_seL4/cfe/fsw/cfe-core/src/es/cfe_es_api.c **** int32 CFE_ES_RunLoop(uint32 *RunStatus)
 540:/home/simulink/cFS_FreeRTOS_seL4/cfe/fsw/cfe-core/src/es/cfe_es_api.c **** {
 839               	.loc 2 540 0
 840               	.cfi_startproc
 841 072e 4FEF FFF4 	lea (-12,%sp),%sp
 842               	.cfi_def_cfa_offset 16
 843 0732 2F02      	move.l %d2,-(%sp)
 844               	.cfi_def_cfa_offset 20
 845               	.cfi_offset 2, -20
68K GAS   			page 38


 541:/home/simulink/cFS_FreeRTOS_seL4/cfe/fsw/cfe-core/src/es/cfe_es_api.c ****     int32  ReturnCode;
 542:/home/simulink/cFS_FreeRTOS_seL4/cfe/fsw/cfe-core/src/es/cfe_es_api.c ****     uint32 AppID;
 543:/home/simulink/cFS_FreeRTOS_seL4/cfe/fsw/cfe-core/src/es/cfe_es_api.c ****     uint32 TaskID;
 544:/home/simulink/cFS_FreeRTOS_seL4/cfe/fsw/cfe-core/src/es/cfe_es_api.c ****     
 545:/home/simulink/cFS_FreeRTOS_seL4/cfe/fsw/cfe-core/src/es/cfe_es_api.c ****     CFE_ES_LockSharedData(__func__,__LINE__);
 846               	.loc 2 545 0
 847 0734 4878 0221 	pea 545.w
 848               	.cfi_def_cfa_offset 24
 849 0738 4879 0000 	pea __func__.5795
 849      0000 
 850               	.cfi_def_cfa_offset 28
 851 073e 4EB9 0000 	jsr CFE_ES_LockSharedData
 851      0000 
 852 0744 508F      	addq.l #8,%sp
 853               	.cfi_def_cfa_offset 20
 546:/home/simulink/cFS_FreeRTOS_seL4/cfe/fsw/cfe-core/src/es/cfe_es_api.c **** 
 547:/home/simulink/cFS_FreeRTOS_seL4/cfe/fsw/cfe-core/src/es/cfe_es_api.c ****     /*
 548:/home/simulink/cFS_FreeRTOS_seL4/cfe/fsw/cfe-core/src/es/cfe_es_api.c ****     ** Get App ID
 549:/home/simulink/cFS_FreeRTOS_seL4/cfe/fsw/cfe-core/src/es/cfe_es_api.c ****     */
 550:/home/simulink/cFS_FreeRTOS_seL4/cfe/fsw/cfe-core/src/es/cfe_es_api.c ****     ReturnCode = CFE_ES_GetAppIDInternal(&AppID);
 854               	.loc 2 550 0
 855 0746 200F      	move.l %sp,%d0
 856 0748 5080      	addq.l #8,%d0
 857 074a 2F00      	move.l %d0,-(%sp)
 858               	.cfi_def_cfa_offset 24
 859 074c 4EB9 0000 	jsr CFE_ES_GetAppIDInternal
 859      0000 
 860 0752 588F      	addq.l #4,%sp
 861               	.cfi_def_cfa_offset 20
 862 0754 2F40 000C 	move.l %d0,12(%sp)
 551:/home/simulink/cFS_FreeRTOS_seL4/cfe/fsw/cfe-core/src/es/cfe_es_api.c **** 
 552:/home/simulink/cFS_FreeRTOS_seL4/cfe/fsw/cfe-core/src/es/cfe_es_api.c ****     if ( ReturnCode == CFE_SUCCESS )
 863               	.loc 2 552 0
 864 0758 4AAF 000C 	tst.l 12(%sp)
 865 075c 6600 014C 	jne .L39
 553:/home/simulink/cFS_FreeRTOS_seL4/cfe/fsw/cfe-core/src/es/cfe_es_api.c ****     {
 554:/home/simulink/cFS_FreeRTOS_seL4/cfe/fsw/cfe-core/src/es/cfe_es_api.c ****     
 555:/home/simulink/cFS_FreeRTOS_seL4/cfe/fsw/cfe-core/src/es/cfe_es_api.c ****        /*
 556:/home/simulink/cFS_FreeRTOS_seL4/cfe/fsw/cfe-core/src/es/cfe_es_api.c ****        ** Get the Task ID for the main task
 557:/home/simulink/cFS_FreeRTOS_seL4/cfe/fsw/cfe-core/src/es/cfe_es_api.c ****        */
 558:/home/simulink/cFS_FreeRTOS_seL4/cfe/fsw/cfe-core/src/es/cfe_es_api.c ****        OS_ConvertToArrayIndex(CFE_ES_Global.AppTable[AppID].TaskInfo.MainTaskId, &TaskID);
 866               	.loc 2 558 0
 867 0760 202F 0008 	move.l 8(%sp),%d0
 868 0764 223C 0000 	move.l #168,%d1
 868      00A8 
 869 076a 4C01 0800 	muls.l %d1,%d0
 870 076e 41F9 0000 	lea CFE_ES_Global+2488,%a0
 870      0000 
 871 0774 2230 0800 	move.l (%a0,%d0.l),%d1
 872 0778 200F      	move.l %sp,%d0
 873 077a 5880      	addq.l #4,%d0
 874 077c 2F00      	move.l %d0,-(%sp)
 875               	.cfi_def_cfa_offset 24
 876 077e 2F01      	move.l %d1,-(%sp)
 877               	.cfi_def_cfa_offset 28
 878 0780 4EBA F87E 	jsr OS_ConvertToArrayIndex
 879 0784 508F      	addq.l #8,%sp
68K GAS   			page 39


 880               	.cfi_def_cfa_offset 20
 559:/home/simulink/cFS_FreeRTOS_seL4/cfe/fsw/cfe-core/src/es/cfe_es_api.c ****        
 560:/home/simulink/cFS_FreeRTOS_seL4/cfe/fsw/cfe-core/src/es/cfe_es_api.c ****        /*
 561:/home/simulink/cFS_FreeRTOS_seL4/cfe/fsw/cfe-core/src/es/cfe_es_api.c ****        ** Increment the execution counter for the main task
 562:/home/simulink/cFS_FreeRTOS_seL4/cfe/fsw/cfe-core/src/es/cfe_es_api.c ****        */
 563:/home/simulink/cFS_FreeRTOS_seL4/cfe/fsw/cfe-core/src/es/cfe_es_api.c ****        CFE_ES_Global.TaskTable[TaskID].ExecutionCounter++;
 881               	.loc 2 563 0
 882 0786 202F 0004 	move.l 4(%sp),%d0
 883 078a 7224      	moveq #36,%d1
 884 078c 4C00 1800 	muls.l %d0,%d1
 885 0790 41F9 0000 	lea CFE_ES_Global+48,%a0
 885      0000 
 886 0796 2230 1800 	move.l (%a0,%d1.l),%d1
 887 079a 5281      	addq.l #1,%d1
 888 079c 7424      	moveq #36,%d2
 889 079e 4C02 0800 	muls.l %d2,%d0
 890 07a2 41F9 0000 	lea CFE_ES_Global+48,%a0
 890      0000 
 891 07a8 2181 0800 	move.l %d1,(%a0,%d0.l)
 564:/home/simulink/cFS_FreeRTOS_seL4/cfe/fsw/cfe-core/src/es/cfe_es_api.c ****     
 565:/home/simulink/cFS_FreeRTOS_seL4/cfe/fsw/cfe-core/src/es/cfe_es_api.c ****        /*
 566:/home/simulink/cFS_FreeRTOS_seL4/cfe/fsw/cfe-core/src/es/cfe_es_api.c ****        ** Validate RunStatus
 567:/home/simulink/cFS_FreeRTOS_seL4/cfe/fsw/cfe-core/src/es/cfe_es_api.c ****        */
 568:/home/simulink/cFS_FreeRTOS_seL4/cfe/fsw/cfe-core/src/es/cfe_es_api.c ****        if ( *RunStatus == CFE_ES_RUNSTATUS_APP_RUN || *RunStatus == CFE_ES_RUNSTATUS_APP_EXIT || *R
 892               	.loc 2 568 0
 893 07ac 206F 0014 	move.l 20(%sp),%a0
 894 07b0 2010      	move.l (%a0),%d0
 895 07b2 7201      	moveq #1,%d1
 896 07b4 B280      	cmp.l %d0,%d1
 897 07b6 671A      	jeq .L40
 898               	.loc 2 568 0 is_stmt 0 discriminator 1
 899 07b8 206F 0014 	move.l 20(%sp),%a0
 900 07bc 2010      	move.l (%a0),%d0
 901 07be 7402      	moveq #2,%d2
 902 07c0 B480      	cmp.l %d0,%d2
 903 07c2 670E      	jeq .L40
 904               	.loc 2 568 0 discriminator 2
 905 07c4 206F 0014 	move.l 20(%sp),%a0
 906 07c8 2010      	move.l (%a0),%d0
 907 07ca 7203      	moveq #3,%d1
 908 07cc B280      	cmp.l %d0,%d1
 909 07ce 6600 00A4 	jne .L41
 910               	.L40:
 569:/home/simulink/cFS_FreeRTOS_seL4/cfe/fsw/cfe-core/src/es/cfe_es_api.c ****        {  
 570:/home/simulink/cFS_FreeRTOS_seL4/cfe/fsw/cfe-core/src/es/cfe_es_api.c ****           /*
 571:/home/simulink/cFS_FreeRTOS_seL4/cfe/fsw/cfe-core/src/es/cfe_es_api.c ****           ** Look up the system control request
 572:/home/simulink/cFS_FreeRTOS_seL4/cfe/fsw/cfe-core/src/es/cfe_es_api.c ****           */
 573:/home/simulink/cFS_FreeRTOS_seL4/cfe/fsw/cfe-core/src/es/cfe_es_api.c ****           if ( *RunStatus == CFE_ES_RUNSTATUS_APP_RUN )
 911               	.loc 2 573 0 is_stmt 1
 912 07d2 206F 0014 	move.l 20(%sp),%a0
 913 07d6 2010      	move.l (%a0),%d0
 914 07d8 7401      	moveq #1,%d2
 915 07da B480      	cmp.l %d0,%d2
 916 07dc 6672      	jne .L42
 574:/home/simulink/cFS_FreeRTOS_seL4/cfe/fsw/cfe-core/src/es/cfe_es_api.c ****           {            
 575:/home/simulink/cFS_FreeRTOS_seL4/cfe/fsw/cfe-core/src/es/cfe_es_api.c ****              /* 
 576:/home/simulink/cFS_FreeRTOS_seL4/cfe/fsw/cfe-core/src/es/cfe_es_api.c ****              ** The first time an App calls this function, change the state from 
68K GAS   			page 40


 577:/home/simulink/cFS_FreeRTOS_seL4/cfe/fsw/cfe-core/src/es/cfe_es_api.c ****              ** INITIALIZING to RUNNING. This is for the startup syncronization code below
 578:/home/simulink/cFS_FreeRTOS_seL4/cfe/fsw/cfe-core/src/es/cfe_es_api.c ****              */
 579:/home/simulink/cFS_FreeRTOS_seL4/cfe/fsw/cfe-core/src/es/cfe_es_api.c ****              if ( CFE_ES_Global.AppTable[AppID].StateRecord.AppState == CFE_ES_APP_STATE_INITIALIZI
 917               	.loc 2 579 0
 918 07de 202F 0008 	move.l 8(%sp),%d0
 919 07e2 223C 0000 	move.l #168,%d1
 919      00A8 
 920 07e8 4C01 0800 	muls.l %d1,%d0
 921 07ec 41F9 0000 	lea CFE_ES_Global+2480,%a0
 921      0000 
 922 07f2 2030 0800 	move.l (%a0,%d0.l),%d0
 923 07f6 7404      	moveq #4,%d2
 924 07f8 B480      	cmp.l %d0,%d2
 925 07fa 6628      	jne .L43
 580:/home/simulink/cFS_FreeRTOS_seL4/cfe/fsw/cfe-core/src/es/cfe_es_api.c ****              {
 581:/home/simulink/cFS_FreeRTOS_seL4/cfe/fsw/cfe-core/src/es/cfe_es_api.c ****                 /* 
 582:/home/simulink/cFS_FreeRTOS_seL4/cfe/fsw/cfe-core/src/es/cfe_es_api.c ****                 ** Change the state to RUNNING
 583:/home/simulink/cFS_FreeRTOS_seL4/cfe/fsw/cfe-core/src/es/cfe_es_api.c ****                 */
 584:/home/simulink/cFS_FreeRTOS_seL4/cfe/fsw/cfe-core/src/es/cfe_es_api.c ****                 CFE_ES_Global.AppTable[AppID].StateRecord.AppState = CFE_ES_APP_STATE_RUNNING;
 926               	.loc 2 584 0
 927 07fc 202F 0008 	move.l 8(%sp),%d0
 928 0800 223C 0000 	move.l #168,%d1
 928      00A8 
 929 0806 4C01 0800 	muls.l %d1,%d0
 930 080a 41F9 0000 	lea CFE_ES_Global+2480,%a0
 930      0000 
 931 0810 7401      	moveq #1,%d2
 932 0812 2182 0800 	move.l %d2,(%a0,%d0.l)
 585:/home/simulink/cFS_FreeRTOS_seL4/cfe/fsw/cfe-core/src/es/cfe_es_api.c ****                 ++CFE_ES_Global.AppReadyCount;
 933               	.loc 2 585 0
 934 0816 2039 0000 	move.l CFE_ES_Global+24,%d0
 934      0000 
 935 081c 5280      	addq.l #1,%d0
 936 081e 23C0 0000 	move.l %d0,CFE_ES_Global+24
 936      0000 
 937               	.L43:
 586:/home/simulink/cFS_FreeRTOS_seL4/cfe/fsw/cfe-core/src/es/cfe_es_api.c ****                 
 587:/home/simulink/cFS_FreeRTOS_seL4/cfe/fsw/cfe-core/src/es/cfe_es_api.c ****              } /* End if AppState == CFE_ES_APP_STATE_INITIALIZING */
 588:/home/simulink/cFS_FreeRTOS_seL4/cfe/fsw/cfe-core/src/es/cfe_es_api.c ****              
 589:/home/simulink/cFS_FreeRTOS_seL4/cfe/fsw/cfe-core/src/es/cfe_es_api.c ****              if ( CFE_ES_Global.AppTable[AppID].StateRecord.AppControlRequest != CFE_ES_RUNSTATUS_A
 938               	.loc 2 589 0
 939 0824 202F 0008 	move.l 8(%sp),%d0
 940 0828 223C 0000 	move.l #168,%d1
 940      00A8 
 941 082e 4C01 0800 	muls.l %d1,%d0
 942 0832 41F9 0000 	lea CFE_ES_Global+2476,%a0
 942      0000 
 943 0838 2030 0800 	move.l (%a0,%d0.l),%d0
 944 083c 7401      	moveq #1,%d2
 945 083e B480      	cmp.l %d0,%d2
 946 0840 6706      	jeq .L44
 590:/home/simulink/cFS_FreeRTOS_seL4/cfe/fsw/cfe-core/src/es/cfe_es_api.c ****              { 
 591:/home/simulink/cFS_FreeRTOS_seL4/cfe/fsw/cfe-core/src/es/cfe_es_api.c ****                  /*
 592:/home/simulink/cFS_FreeRTOS_seL4/cfe/fsw/cfe-core/src/es/cfe_es_api.c ****                  ** We have an external request to stop
 593:/home/simulink/cFS_FreeRTOS_seL4/cfe/fsw/cfe-core/src/es/cfe_es_api.c ****                  */
 594:/home/simulink/cFS_FreeRTOS_seL4/cfe/fsw/cfe-core/src/es/cfe_es_api.c ****                  ReturnCode = FALSE;
 947               	.loc 2 594 0
68K GAS   			page 41


 948 0842 42AF 000C 	clr.l 12(%sp)
 573:/home/simulink/cFS_FreeRTOS_seL4/cfe/fsw/cfe-core/src/es/cfe_es_api.c ****           {            
 949               	.loc 2 573 0
 950 0846 607A      	jra .L48
 951               	.L44:
 595:/home/simulink/cFS_FreeRTOS_seL4/cfe/fsw/cfe-core/src/es/cfe_es_api.c ****                  
 596:/home/simulink/cFS_FreeRTOS_seL4/cfe/fsw/cfe-core/src/es/cfe_es_api.c ****              }
 597:/home/simulink/cFS_FreeRTOS_seL4/cfe/fsw/cfe-core/src/es/cfe_es_api.c ****              else
 598:/home/simulink/cFS_FreeRTOS_seL4/cfe/fsw/cfe-core/src/es/cfe_es_api.c ****              {
 599:/home/simulink/cFS_FreeRTOS_seL4/cfe/fsw/cfe-core/src/es/cfe_es_api.c ****                 /*
 600:/home/simulink/cFS_FreeRTOS_seL4/cfe/fsw/cfe-core/src/es/cfe_es_api.c ****                 ** Everything is OK
 601:/home/simulink/cFS_FreeRTOS_seL4/cfe/fsw/cfe-core/src/es/cfe_es_api.c ****                 */
 602:/home/simulink/cFS_FreeRTOS_seL4/cfe/fsw/cfe-core/src/es/cfe_es_api.c ****                 ReturnCode = TRUE;
 952               	.loc 2 602 0
 953 0848 7001      	moveq #1,%d0
 954 084a 2F40 000C 	move.l %d0,12(%sp)
 573:/home/simulink/cFS_FreeRTOS_seL4/cfe/fsw/cfe-core/src/es/cfe_es_api.c ****           {            
 955               	.loc 2 573 0
 956 084e 6072      	jra .L48
 957               	.L42:
 603:/home/simulink/cFS_FreeRTOS_seL4/cfe/fsw/cfe-core/src/es/cfe_es_api.c ****              }
 604:/home/simulink/cFS_FreeRTOS_seL4/cfe/fsw/cfe-core/src/es/cfe_es_api.c ****           }
 605:/home/simulink/cFS_FreeRTOS_seL4/cfe/fsw/cfe-core/src/es/cfe_es_api.c ****           else
 606:/home/simulink/cFS_FreeRTOS_seL4/cfe/fsw/cfe-core/src/es/cfe_es_api.c ****           {
 607:/home/simulink/cFS_FreeRTOS_seL4/cfe/fsw/cfe-core/src/es/cfe_es_api.c ****              /*
 608:/home/simulink/cFS_FreeRTOS_seL4/cfe/fsw/cfe-core/src/es/cfe_es_api.c ****              ** Application wants to exit, so let it
 609:/home/simulink/cFS_FreeRTOS_seL4/cfe/fsw/cfe-core/src/es/cfe_es_api.c ****              */
 610:/home/simulink/cFS_FreeRTOS_seL4/cfe/fsw/cfe-core/src/es/cfe_es_api.c ****              CFE_ES_Global.AppTable[AppID].StateRecord.AppControlRequest = *RunStatus; 
 958               	.loc 2 610 0
 959 0850 202F 0008 	move.l 8(%sp),%d0
 960 0854 206F 0014 	move.l 20(%sp),%a0
 961 0858 2210      	move.l (%a0),%d1
 962 085a 243C 0000 	move.l #168,%d2
 962      00A8 
 963 0860 4C02 0800 	muls.l %d2,%d0
 964 0864 41F9 0000 	lea CFE_ES_Global+2476,%a0
 964      0000 
 965 086a 2181 0800 	move.l %d1,(%a0,%d0.l)
 611:/home/simulink/cFS_FreeRTOS_seL4/cfe/fsw/cfe-core/src/es/cfe_es_api.c ****              ReturnCode = FALSE;
 966               	.loc 2 611 0
 967 086e 42AF 000C 	clr.l 12(%sp)
 573:/home/simulink/cFS_FreeRTOS_seL4/cfe/fsw/cfe-core/src/es/cfe_es_api.c ****           {            
 968               	.loc 2 573 0
 969 0872 604E      	jra .L48
 970               	.L41:
 612:/home/simulink/cFS_FreeRTOS_seL4/cfe/fsw/cfe-core/src/es/cfe_es_api.c ****           }
 613:/home/simulink/cFS_FreeRTOS_seL4/cfe/fsw/cfe-core/src/es/cfe_es_api.c ****        }
 614:/home/simulink/cFS_FreeRTOS_seL4/cfe/fsw/cfe-core/src/es/cfe_es_api.c ****        else 
 615:/home/simulink/cFS_FreeRTOS_seL4/cfe/fsw/cfe-core/src/es/cfe_es_api.c ****        {
 616:/home/simulink/cFS_FreeRTOS_seL4/cfe/fsw/cfe-core/src/es/cfe_es_api.c ****           /*
 617:/home/simulink/cFS_FreeRTOS_seL4/cfe/fsw/cfe-core/src/es/cfe_es_api.c ****           ** Not a supported RunStatus code, the app will abort
 618:/home/simulink/cFS_FreeRTOS_seL4/cfe/fsw/cfe-core/src/es/cfe_es_api.c ****           */
 619:/home/simulink/cFS_FreeRTOS_seL4/cfe/fsw/cfe-core/src/es/cfe_es_api.c ****           CFE_ES_WriteToSysLog("CFE_ES_RunLoop Error: Invalid RunStatus:%d!\n",(int)(*RunStatus));
 971               	.loc 2 619 0
 972 0874 206F 0014 	move.l 20(%sp),%a0
 973 0878 2010      	move.l (%a0),%d0
 974 087a 2F00      	move.l %d0,-(%sp)
68K GAS   			page 42


 975               	.cfi_def_cfa_offset 24
 976 087c 4879 0000 	pea .LC20
 976      0000 
 977               	.cfi_def_cfa_offset 28
 978 0882 4EB9 0000 	jsr CFE_ES_WriteToSysLog
 978      0000 
 979 0888 508F      	addq.l #8,%sp
 980               	.cfi_def_cfa_offset 20
 620:/home/simulink/cFS_FreeRTOS_seL4/cfe/fsw/cfe-core/src/es/cfe_es_api.c ****           CFE_ES_Global.AppTable[AppID].StateRecord.AppControlRequest = CFE_ES_RUNSTATUS_APP_ERROR;
 981               	.loc 2 620 0
 982 088a 202F 0008 	move.l 8(%sp),%d0
 983 088e 223C 0000 	move.l #168,%d1
 983      00A8 
 984 0894 4C01 0800 	muls.l %d1,%d0
 985 0898 41F9 0000 	lea CFE_ES_Global+2476,%a0
 985      0000 
 986 089e 7403      	moveq #3,%d2
 987 08a0 2182 0800 	move.l %d2,(%a0,%d0.l)
 621:/home/simulink/cFS_FreeRTOS_seL4/cfe/fsw/cfe-core/src/es/cfe_es_api.c ****           ReturnCode = FALSE;
 988               	.loc 2 621 0
 989 08a4 42AF 000C 	clr.l 12(%sp)
 990 08a8 6018      	jra .L48
 991               	.L39:
 622:/home/simulink/cFS_FreeRTOS_seL4/cfe/fsw/cfe-core/src/es/cfe_es_api.c ****        
 623:/home/simulink/cFS_FreeRTOS_seL4/cfe/fsw/cfe-core/src/es/cfe_es_api.c ****        } /* End if *RunStatus == CFE_ES_APP_RUN .. */
 624:/home/simulink/cFS_FreeRTOS_seL4/cfe/fsw/cfe-core/src/es/cfe_es_api.c ****    
 625:/home/simulink/cFS_FreeRTOS_seL4/cfe/fsw/cfe-core/src/es/cfe_es_api.c ****     }
 626:/home/simulink/cFS_FreeRTOS_seL4/cfe/fsw/cfe-core/src/es/cfe_es_api.c ****     else
 627:/home/simulink/cFS_FreeRTOS_seL4/cfe/fsw/cfe-core/src/es/cfe_es_api.c ****     {
 628:/home/simulink/cFS_FreeRTOS_seL4/cfe/fsw/cfe-core/src/es/cfe_es_api.c ****        /*
 629:/home/simulink/cFS_FreeRTOS_seL4/cfe/fsw/cfe-core/src/es/cfe_es_api.c ****        ** Cannot do anything without the AppID
 630:/home/simulink/cFS_FreeRTOS_seL4/cfe/fsw/cfe-core/src/es/cfe_es_api.c ****        */
 631:/home/simulink/cFS_FreeRTOS_seL4/cfe/fsw/cfe-core/src/es/cfe_es_api.c ****        CFE_ES_WriteToSysLog("CFE_ES_RunLoop Error: Cannot get AppID for the caller: RC = %08X\n",(u
 992               	.loc 2 631 0
 993 08aa 202F 000C 	move.l 12(%sp),%d0
 994 08ae 2F00      	move.l %d0,-(%sp)
 995               	.cfi_def_cfa_offset 24
 996 08b0 4879 0000 	pea .LC21
 996      0000 
 997               	.cfi_def_cfa_offset 28
 998 08b6 4EB9 0000 	jsr CFE_ES_WriteToSysLog
 998      0000 
 999 08bc 508F      	addq.l #8,%sp
 1000               	.cfi_def_cfa_offset 20
 632:/home/simulink/cFS_FreeRTOS_seL4/cfe/fsw/cfe-core/src/es/cfe_es_api.c ****        ReturnCode = FALSE;
 1001               	.loc 2 632 0
 1002 08be 42AF 000C 	clr.l 12(%sp)
 1003               	.L48:
 633:/home/simulink/cFS_FreeRTOS_seL4/cfe/fsw/cfe-core/src/es/cfe_es_api.c ****          
 634:/home/simulink/cFS_FreeRTOS_seL4/cfe/fsw/cfe-core/src/es/cfe_es_api.c ****     } /* end if ReturnCode == CFE_SUCCESS */
 635:/home/simulink/cFS_FreeRTOS_seL4/cfe/fsw/cfe-core/src/es/cfe_es_api.c **** 
 636:/home/simulink/cFS_FreeRTOS_seL4/cfe/fsw/cfe-core/src/es/cfe_es_api.c ****     CFE_ES_UnlockSharedData(__func__,__LINE__);
 1004               	.loc 2 636 0
 1005 08c2 4878 027C 	pea 636.w
 1006               	.cfi_def_cfa_offset 24
 1007 08c6 4879 0000 	pea __func__.5795
 1007      0000 
68K GAS   			page 43


 1008               	.cfi_def_cfa_offset 28
 1009 08cc 4EB9 0000 	jsr CFE_ES_UnlockSharedData
 1009      0000 
 1010 08d2 508F      	addq.l #8,%sp
 1011               	.cfi_def_cfa_offset 20
 637:/home/simulink/cFS_FreeRTOS_seL4/cfe/fsw/cfe-core/src/es/cfe_es_api.c **** 
 638:/home/simulink/cFS_FreeRTOS_seL4/cfe/fsw/cfe-core/src/es/cfe_es_api.c ****     return(ReturnCode);
 1012               	.loc 2 638 0
 1013 08d4 202F 000C 	move.l 12(%sp),%d0
 639:/home/simulink/cFS_FreeRTOS_seL4/cfe/fsw/cfe-core/src/es/cfe_es_api.c **** 
 640:/home/simulink/cFS_FreeRTOS_seL4/cfe/fsw/cfe-core/src/es/cfe_es_api.c **** } /* End of CFE_ES_RunLoop() */
 1014               	.loc 2 640 0
 1015 08d8 241F      	move.l (%sp)+,%d2
 1016 08da 4FEF 000C 	lea (12,%sp),%sp
 1017 08de 4E75      	rts
 1018               	.cfi_endproc
 1019               	.LFE65:
 1020               	.sizeCFE_ES_RunLoop, .-CFE_ES_RunLoop
 1021               	.align2
 1022               	.globlCFE_ES_WaitForStartupSync
 1023               	.typeCFE_ES_WaitForStartupSync, @function
 1024               	CFE_ES_WaitForStartupSync:
 1025               	.LFB66:
 641:/home/simulink/cFS_FreeRTOS_seL4/cfe/fsw/cfe-core/src/es/cfe_es_api.c **** 
 642:/home/simulink/cFS_FreeRTOS_seL4/cfe/fsw/cfe-core/src/es/cfe_es_api.c **** /*
 643:/home/simulink/cFS_FreeRTOS_seL4/cfe/fsw/cfe-core/src/es/cfe_es_api.c **** ** Function: CFE_ES_WaitForStartupSync
 644:/home/simulink/cFS_FreeRTOS_seL4/cfe/fsw/cfe-core/src/es/cfe_es_api.c **** **
 645:/home/simulink/cFS_FreeRTOS_seL4/cfe/fsw/cfe-core/src/es/cfe_es_api.c **** ** Purpose:  Called by applications that need to ensure that all other apps are running
 646:/home/simulink/cFS_FreeRTOS_seL4/cfe/fsw/cfe-core/src/es/cfe_es_api.c **** **           before completing their initialization process.
 647:/home/simulink/cFS_FreeRTOS_seL4/cfe/fsw/cfe-core/src/es/cfe_es_api.c **** **
 648:/home/simulink/cFS_FreeRTOS_seL4/cfe/fsw/cfe-core/src/es/cfe_es_api.c **** **           This will also mark the calling task itself as "ready"
 649:/home/simulink/cFS_FreeRTOS_seL4/cfe/fsw/cfe-core/src/es/cfe_es_api.c **** **
 650:/home/simulink/cFS_FreeRTOS_seL4/cfe/fsw/cfe-core/src/es/cfe_es_api.c **** */
 651:/home/simulink/cFS_FreeRTOS_seL4/cfe/fsw/cfe-core/src/es/cfe_es_api.c **** void CFE_ES_WaitForStartupSync(uint32 TimeOutMilliseconds)
 652:/home/simulink/cFS_FreeRTOS_seL4/cfe/fsw/cfe-core/src/es/cfe_es_api.c **** {
 1026               	.loc 2 652 0
 1027               	.cfi_startproc
 1028 08e0 4FEF FFF4 	lea (-12,%sp),%sp
 1029               	.cfi_def_cfa_offset 16
 653:/home/simulink/cFS_FreeRTOS_seL4/cfe/fsw/cfe-core/src/es/cfe_es_api.c ****     int32 Status;
 654:/home/simulink/cFS_FreeRTOS_seL4/cfe/fsw/cfe-core/src/es/cfe_es_api.c ****     uint32 AppID;
 655:/home/simulink/cFS_FreeRTOS_seL4/cfe/fsw/cfe-core/src/es/cfe_es_api.c ****     uint32 MinSystemState;
 656:/home/simulink/cFS_FreeRTOS_seL4/cfe/fsw/cfe-core/src/es/cfe_es_api.c **** 
 657:/home/simulink/cFS_FreeRTOS_seL4/cfe/fsw/cfe-core/src/es/cfe_es_api.c ****     MinSystemState = CFE_ES_SYSTEM_STATE_UNDEFINED;
 1030               	.loc 2 657 0
 1031 08e4 42AF 0008 	clr.l 8(%sp)
 658:/home/simulink/cFS_FreeRTOS_seL4/cfe/fsw/cfe-core/src/es/cfe_es_api.c **** 
 659:/home/simulink/cFS_FreeRTOS_seL4/cfe/fsw/cfe-core/src/es/cfe_es_api.c ****     /*
 660:/home/simulink/cFS_FreeRTOS_seL4/cfe/fsw/cfe-core/src/es/cfe_es_api.c ****      * An application calling CFE_ES_WaitForStartupSync() is assumed to have
 661:/home/simulink/cFS_FreeRTOS_seL4/cfe/fsw/cfe-core/src/es/cfe_es_api.c ****      * completed its initialization and is ready to run.  This is required,
 662:/home/simulink/cFS_FreeRTOS_seL4/cfe/fsw/cfe-core/src/es/cfe_es_api.c ****      * or else the sync delay will end up waiting for itself, or could deadlock
 663:/home/simulink/cFS_FreeRTOS_seL4/cfe/fsw/cfe-core/src/es/cfe_es_api.c ****      * by two apps waiting for each other, etc.
 664:/home/simulink/cFS_FreeRTOS_seL4/cfe/fsw/cfe-core/src/es/cfe_es_api.c ****      */
 665:/home/simulink/cFS_FreeRTOS_seL4/cfe/fsw/cfe-core/src/es/cfe_es_api.c ****     CFE_ES_LockSharedData(__func__,__LINE__);
 1032               	.loc 2 665 0
 1033 08e8 4878 0299 	pea 665.w
 1034               	.cfi_def_cfa_offset 20
68K GAS   			page 44


 1035 08ec 4879 0000 	pea __func__.5802
 1035      0000 
 1036               	.cfi_def_cfa_offset 24
 1037 08f2 4EB9 0000 	jsr CFE_ES_LockSharedData
 1037      0000 
 1038 08f8 508F      	addq.l #8,%sp
 1039               	.cfi_def_cfa_offset 16
 666:/home/simulink/cFS_FreeRTOS_seL4/cfe/fsw/cfe-core/src/es/cfe_es_api.c ****     Status = CFE_ES_GetAppIDInternal(&AppID);
 1040               	.loc 2 666 0
 1041 08fa 200F      	move.l %sp,%d0
 1042 08fc 2F00      	move.l %d0,-(%sp)
 1043               	.cfi_def_cfa_offset 20
 1044 08fe 4EB9 0000 	jsr CFE_ES_GetAppIDInternal
 1044      0000 
 1045 0904 588F      	addq.l #4,%sp
 1046               	.cfi_def_cfa_offset 16
 1047 0906 2F40 0004 	move.l %d0,4(%sp)
 667:/home/simulink/cFS_FreeRTOS_seL4/cfe/fsw/cfe-core/src/es/cfe_es_api.c ****     if ( Status == CFE_SUCCESS )
 1048               	.loc 2 667 0
 1049 090a 4AAF 0004 	tst.l 4(%sp)
 1050 090e 666C      	jne .L51
 668:/home/simulink/cFS_FreeRTOS_seL4/cfe/fsw/cfe-core/src/es/cfe_es_api.c ****     {
 669:/home/simulink/cFS_FreeRTOS_seL4/cfe/fsw/cfe-core/src/es/cfe_es_api.c ****         if ( CFE_ES_Global.AppTable[AppID].StateRecord.AppState == CFE_ES_APP_STATE_INITIALIZING)
 1051               	.loc 2 669 0
 1052 0910 2017      	move.l (%sp),%d0
 1053 0912 223C 0000 	move.l #168,%d1
 1053      00A8 
 1054 0918 4C01 0800 	muls.l %d1,%d0
 1055 091c 41F9 0000 	lea CFE_ES_Global+2480,%a0
 1055      0000 
 1056 0922 2030 0800 	move.l (%a0,%d0.l),%d0
 1057 0926 7204      	moveq #4,%d1
 1058 0928 B280      	cmp.l %d0,%d1
 1059 092a 6626      	jne .L52
 670:/home/simulink/cFS_FreeRTOS_seL4/cfe/fsw/cfe-core/src/es/cfe_es_api.c ****         {
 671:/home/simulink/cFS_FreeRTOS_seL4/cfe/fsw/cfe-core/src/es/cfe_es_api.c ****             CFE_ES_Global.AppTable[AppID].StateRecord.AppState = CFE_ES_APP_STATE_RUNNING;
 1060               	.loc 2 671 0
 1061 092c 2017      	move.l (%sp),%d0
 1062 092e 223C 0000 	move.l #168,%d1
 1062      00A8 
 1063 0934 4C01 0800 	muls.l %d1,%d0
 1064 0938 41F9 0000 	lea CFE_ES_Global+2480,%a0
 1064      0000 
 1065 093e 7201      	moveq #1,%d1
 1066 0940 2181 0800 	move.l %d1,(%a0,%d0.l)
 672:/home/simulink/cFS_FreeRTOS_seL4/cfe/fsw/cfe-core/src/es/cfe_es_api.c ****             ++CFE_ES_Global.AppReadyCount;
 1067               	.loc 2 672 0
 1068 0944 2039 0000 	move.l CFE_ES_Global+24,%d0
 1068      0000 
 1069 094a 5280      	addq.l #1,%d0
 1070 094c 23C0 0000 	move.l %d0,CFE_ES_Global+24
 1070      0000 
 1071               	.L52:
 673:/home/simulink/cFS_FreeRTOS_seL4/cfe/fsw/cfe-core/src/es/cfe_es_api.c ****         }
 674:/home/simulink/cFS_FreeRTOS_seL4/cfe/fsw/cfe-core/src/es/cfe_es_api.c **** 
 675:/home/simulink/cFS_FreeRTOS_seL4/cfe/fsw/cfe-core/src/es/cfe_es_api.c ****         /*
 676:/home/simulink/cFS_FreeRTOS_seL4/cfe/fsw/cfe-core/src/es/cfe_es_api.c ****          * For core apps that call this function, these can start once the core app init
68K GAS   			page 45


 677:/home/simulink/cFS_FreeRTOS_seL4/cfe/fsw/cfe-core/src/es/cfe_es_api.c ****          * process is done.  For everything else (external apps) wait until fully operational.
 678:/home/simulink/cFS_FreeRTOS_seL4/cfe/fsw/cfe-core/src/es/cfe_es_api.c ****          */
 679:/home/simulink/cFS_FreeRTOS_seL4/cfe/fsw/cfe-core/src/es/cfe_es_api.c ****         if ( CFE_ES_Global.AppTable[AppID].Type == CFE_ES_APP_TYPE_CORE)
 1072               	.loc 2 679 0
 1073 0952 2017      	move.l (%sp),%d0
 1074 0954 223C 0000 	move.l #168,%d1
 1074      00A8 
 1075 095a 4C01 0800 	muls.l %d1,%d0
 1076 095e 41F9 0000 	lea CFE_ES_Global+2352,%a0
 1076      0000 
 1077 0964 2030 0800 	move.l (%a0,%d0.l),%d0
 1078 0968 7201      	moveq #1,%d1
 1079 096a B280      	cmp.l %d0,%d1
 1080 096c 6608      	jne .L53
 680:/home/simulink/cFS_FreeRTOS_seL4/cfe/fsw/cfe-core/src/es/cfe_es_api.c ****         {
 681:/home/simulink/cFS_FreeRTOS_seL4/cfe/fsw/cfe-core/src/es/cfe_es_api.c ****             MinSystemState = CFE_ES_SYSTEM_STATE_CORE_READY;
 1081               	.loc 2 681 0
 1082 096e 7003      	moveq #3,%d0
 1083 0970 2F40 0008 	move.l %d0,8(%sp)
 1084 0974 6006      	jra .L51
 1085               	.L53:
 682:/home/simulink/cFS_FreeRTOS_seL4/cfe/fsw/cfe-core/src/es/cfe_es_api.c ****         }
 683:/home/simulink/cFS_FreeRTOS_seL4/cfe/fsw/cfe-core/src/es/cfe_es_api.c ****         else
 684:/home/simulink/cFS_FreeRTOS_seL4/cfe/fsw/cfe-core/src/es/cfe_es_api.c ****         {
 685:/home/simulink/cFS_FreeRTOS_seL4/cfe/fsw/cfe-core/src/es/cfe_es_api.c ****             MinSystemState = CFE_ES_SYSTEM_STATE_OPERATIONAL;
 1086               	.loc 2 685 0
 1087 0976 7204      	moveq #4,%d1
 1088 0978 2F41 0008 	move.l %d1,8(%sp)
 1089               	.L51:
 686:/home/simulink/cFS_FreeRTOS_seL4/cfe/fsw/cfe-core/src/es/cfe_es_api.c ****         }
 687:/home/simulink/cFS_FreeRTOS_seL4/cfe/fsw/cfe-core/src/es/cfe_es_api.c **** 
 688:/home/simulink/cFS_FreeRTOS_seL4/cfe/fsw/cfe-core/src/es/cfe_es_api.c ****     }
 689:/home/simulink/cFS_FreeRTOS_seL4/cfe/fsw/cfe-core/src/es/cfe_es_api.c ****     CFE_ES_UnlockSharedData(__func__,__LINE__);
 1090               	.loc 2 689 0
 1091 097c 4878 02B1 	pea 689.w
 1092               	.cfi_def_cfa_offset 20
 1093 0980 4879 0000 	pea __func__.5802
 1093      0000 
 1094               	.cfi_def_cfa_offset 24
 1095 0986 4EB9 0000 	jsr CFE_ES_UnlockSharedData
 1095      0000 
 1096 098c 508F      	addq.l #8,%sp
 1097               	.cfi_def_cfa_offset 16
 690:/home/simulink/cFS_FreeRTOS_seL4/cfe/fsw/cfe-core/src/es/cfe_es_api.c **** 
 691:/home/simulink/cFS_FreeRTOS_seL4/cfe/fsw/cfe-core/src/es/cfe_es_api.c ****     /* Do the actual delay loop */
 692:/home/simulink/cFS_FreeRTOS_seL4/cfe/fsw/cfe-core/src/es/cfe_es_api.c ****     CFE_ES_ApplicationSyncDelay(MinSystemState, TimeOutMilliseconds);
 1098               	.loc 2 692 0
 1099 098e 2F2F 0010 	move.l 16(%sp),-(%sp)
 1100               	.cfi_def_cfa_offset 20
 1101 0992 2F2F 000C 	move.l 12(%sp),-(%sp)
 1102               	.cfi_def_cfa_offset 24
 1103 0996 4EB9 0000 	jsr CFE_ES_ApplicationSyncDelay
 1103      0000 
 1104 099c 508F      	addq.l #8,%sp
 1105               	.cfi_def_cfa_offset 16
 693:/home/simulink/cFS_FreeRTOS_seL4/cfe/fsw/cfe-core/src/es/cfe_es_api.c **** 
 694:/home/simulink/cFS_FreeRTOS_seL4/cfe/fsw/cfe-core/src/es/cfe_es_api.c **** } /* End of CFE_ES_WaitForStartupSync() */
68K GAS   			page 46


 1106               	.loc 2 694 0
 1107 099e 4E71      	nop
 1108 09a0 4FEF 000C 	lea (12,%sp),%sp
 1109 09a4 4E75      	rts
 1110               	.cfi_endproc
 1111               	.LFE66:
 1112               	.sizeCFE_ES_WaitForStartupSync, .-CFE_ES_WaitForStartupSync
 1113               	.align2
 1114               	.globlCFE_ES_RegisterApp
 1115               	.typeCFE_ES_RegisterApp, @function
 1116               	CFE_ES_RegisterApp:
 1117               	.LFB67:
 695:/home/simulink/cFS_FreeRTOS_seL4/cfe/fsw/cfe-core/src/es/cfe_es_api.c **** 
 696:/home/simulink/cFS_FreeRTOS_seL4/cfe/fsw/cfe-core/src/es/cfe_es_api.c **** 
 697:/home/simulink/cFS_FreeRTOS_seL4/cfe/fsw/cfe-core/src/es/cfe_es_api.c **** /*
 698:/home/simulink/cFS_FreeRTOS_seL4/cfe/fsw/cfe-core/src/es/cfe_es_api.c **** ** Function: CFE_ES_RegisterApp
 699:/home/simulink/cFS_FreeRTOS_seL4/cfe/fsw/cfe-core/src/es/cfe_es_api.c **** **
 700:/home/simulink/cFS_FreeRTOS_seL4/cfe/fsw/cfe-core/src/es/cfe_es_api.c **** ** Purpose:  Register a new Application with the cFE. This
 701:/home/simulink/cFS_FreeRTOS_seL4/cfe/fsw/cfe-core/src/es/cfe_es_api.c **** **           function must be called in a cFE app before
 702:/home/simulink/cFS_FreeRTOS_seL4/cfe/fsw/cfe-core/src/es/cfe_es_api.c **** **           any other cFE function.
 703:/home/simulink/cFS_FreeRTOS_seL4/cfe/fsw/cfe-core/src/es/cfe_es_api.c **** **
 704:/home/simulink/cFS_FreeRTOS_seL4/cfe/fsw/cfe-core/src/es/cfe_es_api.c **** */
 705:/home/simulink/cFS_FreeRTOS_seL4/cfe/fsw/cfe-core/src/es/cfe_es_api.c **** int32 CFE_ES_RegisterApp(void)
 706:/home/simulink/cFS_FreeRTOS_seL4/cfe/fsw/cfe-core/src/es/cfe_es_api.c **** {
 1118               	.loc 2 706 0
 1119               	.cfi_startproc
 1120 09a6 598F      	subq.l #4,%sp
 1121               	.cfi_def_cfa_offset 8
 707:/home/simulink/cFS_FreeRTOS_seL4/cfe/fsw/cfe-core/src/es/cfe_es_api.c ****    int32 Result = CFE_SUCCESS;
 1122               	.loc 2 707 0
 1123 09a8 4297      	clr.l (%sp)
 708:/home/simulink/cFS_FreeRTOS_seL4/cfe/fsw/cfe-core/src/es/cfe_es_api.c **** 
 709:/home/simulink/cFS_FreeRTOS_seL4/cfe/fsw/cfe-core/src/es/cfe_es_api.c ****    CFE_ES_LockSharedData(__func__,__LINE__);
 1124               	.loc 2 709 0
 1125 09aa 4878 02C5 	pea 709.w
 1126               	.cfi_def_cfa_offset 12
 1127 09ae 4879 0000 	pea __func__.5807
 1127      0000 
 1128               	.cfi_def_cfa_offset 16
 1129 09b4 4EB9 0000 	jsr CFE_ES_LockSharedData
 1129      0000 
 1130 09ba 508F      	addq.l #8,%sp
 1131               	.cfi_def_cfa_offset 8
 710:/home/simulink/cFS_FreeRTOS_seL4/cfe/fsw/cfe-core/src/es/cfe_es_api.c **** 
 711:/home/simulink/cFS_FreeRTOS_seL4/cfe/fsw/cfe-core/src/es/cfe_es_api.c ****    /*
 712:/home/simulink/cFS_FreeRTOS_seL4/cfe/fsw/cfe-core/src/es/cfe_es_api.c ****    ** Register the task 
 713:/home/simulink/cFS_FreeRTOS_seL4/cfe/fsw/cfe-core/src/es/cfe_es_api.c ****    */
 714:/home/simulink/cFS_FreeRTOS_seL4/cfe/fsw/cfe-core/src/es/cfe_es_api.c ****    Result = OS_TaskRegister();
 1132               	.loc 2 714 0
 1133 09bc 4EB9 0000 	jsr OS_TaskRegister
 1133      0000 
 1134 09c2 2E80      	move.l %d0,(%sp)
 715:/home/simulink/cFS_FreeRTOS_seL4/cfe/fsw/cfe-core/src/es/cfe_es_api.c **** 
 716:/home/simulink/cFS_FreeRTOS_seL4/cfe/fsw/cfe-core/src/es/cfe_es_api.c ****    if (Result == OS_SUCCESS)
 1135               	.loc 2 716 0
 1136 09c4 4A97      	tst.l (%sp)
 1137 09c6 6604      	jne .L55
68K GAS   			page 47


 717:/home/simulink/cFS_FreeRTOS_seL4/cfe/fsw/cfe-core/src/es/cfe_es_api.c ****    {
 718:/home/simulink/cFS_FreeRTOS_seL4/cfe/fsw/cfe-core/src/es/cfe_es_api.c ****        Result = CFE_SUCCESS;
 1138               	.loc 2 718 0
 1139 09c8 4297      	clr.l (%sp)
 1140 09ca 6006      	jra .L56
 1141               	.L55:
 719:/home/simulink/cFS_FreeRTOS_seL4/cfe/fsw/cfe-core/src/es/cfe_es_api.c ****    }
 720:/home/simulink/cFS_FreeRTOS_seL4/cfe/fsw/cfe-core/src/es/cfe_es_api.c ****    else
 721:/home/simulink/cFS_FreeRTOS_seL4/cfe/fsw/cfe-core/src/es/cfe_es_api.c ****    {
 722:/home/simulink/cFS_FreeRTOS_seL4/cfe/fsw/cfe-core/src/es/cfe_es_api.c ****        /* 
 723:/home/simulink/cFS_FreeRTOS_seL4/cfe/fsw/cfe-core/src/es/cfe_es_api.c ****        ** Cannot create a syslog entry here because it requires the task to 
 724:/home/simulink/cFS_FreeRTOS_seL4/cfe/fsw/cfe-core/src/es/cfe_es_api.c ****        ** be registered
 725:/home/simulink/cFS_FreeRTOS_seL4/cfe/fsw/cfe-core/src/es/cfe_es_api.c ****        */
 726:/home/simulink/cFS_FreeRTOS_seL4/cfe/fsw/cfe-core/src/es/cfe_es_api.c ****        Result = CFE_ES_ERR_APP_REGISTER;
 1142               	.loc 2 726 0
 1143 09cc 2EBC C400 	move.l #-1006632937,(%sp)
 1143      0017 
 1144               	.L56:
 727:/home/simulink/cFS_FreeRTOS_seL4/cfe/fsw/cfe-core/src/es/cfe_es_api.c ****    }
 728:/home/simulink/cFS_FreeRTOS_seL4/cfe/fsw/cfe-core/src/es/cfe_es_api.c **** 
 729:/home/simulink/cFS_FreeRTOS_seL4/cfe/fsw/cfe-core/src/es/cfe_es_api.c ****    /*
 730:/home/simulink/cFS_FreeRTOS_seL4/cfe/fsw/cfe-core/src/es/cfe_es_api.c ****    ** Set the default exception environment
 731:/home/simulink/cFS_FreeRTOS_seL4/cfe/fsw/cfe-core/src/es/cfe_es_api.c ****    */
 732:/home/simulink/cFS_FreeRTOS_seL4/cfe/fsw/cfe-core/src/es/cfe_es_api.c ****    CFE_PSP_SetDefaultExceptionEnvironment();
 1145               	.loc 2 732 0
 1146 09d2 4EB9 0000 	jsr CFE_PSP_SetDefaultExceptionEnvironment
 1146      0000 
 733:/home/simulink/cFS_FreeRTOS_seL4/cfe/fsw/cfe-core/src/es/cfe_es_api.c ****    
 734:/home/simulink/cFS_FreeRTOS_seL4/cfe/fsw/cfe-core/src/es/cfe_es_api.c ****    CFE_ES_UnlockSharedData(__func__,__LINE__);
 1147               	.loc 2 734 0
 1148 09d8 4878 02DE 	pea 734.w
 1149               	.cfi_def_cfa_offset 12
 1150 09dc 4879 0000 	pea __func__.5807
 1150      0000 
 1151               	.cfi_def_cfa_offset 16
 1152 09e2 4EB9 0000 	jsr CFE_ES_UnlockSharedData
 1152      0000 
 1153 09e8 508F      	addq.l #8,%sp
 1154               	.cfi_def_cfa_offset 8
 735:/home/simulink/cFS_FreeRTOS_seL4/cfe/fsw/cfe-core/src/es/cfe_es_api.c **** 
 736:/home/simulink/cFS_FreeRTOS_seL4/cfe/fsw/cfe-core/src/es/cfe_es_api.c ****    return(Result);
 1155               	.loc 2 736 0
 1156 09ea 2017      	move.l (%sp),%d0
 737:/home/simulink/cFS_FreeRTOS_seL4/cfe/fsw/cfe-core/src/es/cfe_es_api.c ****   
 738:/home/simulink/cFS_FreeRTOS_seL4/cfe/fsw/cfe-core/src/es/cfe_es_api.c **** 
 739:/home/simulink/cFS_FreeRTOS_seL4/cfe/fsw/cfe-core/src/es/cfe_es_api.c **** } /* End of CFE_ES_RegisterApp() */
 1157               	.loc 2 739 0
 1158 09ec 588F      	addq.l #4,%sp
 1159 09ee 4E75      	rts
 1160               	.cfi_endproc
 1161               	.LFE67:
 1162               	.sizeCFE_ES_RegisterApp, .-CFE_ES_RegisterApp
 1163               	.align2
 1164               	.globlCFE_ES_GetAppIDByName
 1165               	.typeCFE_ES_GetAppIDByName, @function
 1166               	CFE_ES_GetAppIDByName:
 1167               	.LFB68:
68K GAS   			page 48


 740:/home/simulink/cFS_FreeRTOS_seL4/cfe/fsw/cfe-core/src/es/cfe_es_api.c **** 
 741:/home/simulink/cFS_FreeRTOS_seL4/cfe/fsw/cfe-core/src/es/cfe_es_api.c **** /*
 742:/home/simulink/cFS_FreeRTOS_seL4/cfe/fsw/cfe-core/src/es/cfe_es_api.c **** ** Function: CFE_ES_GetAppIDByName
 743:/home/simulink/cFS_FreeRTOS_seL4/cfe/fsw/cfe-core/src/es/cfe_es_api.c **** **
 744:/home/simulink/cFS_FreeRTOS_seL4/cfe/fsw/cfe-core/src/es/cfe_es_api.c **** ** Purpose:  Given a valid App Name, return the 
 745:/home/simulink/cFS_FreeRTOS_seL4/cfe/fsw/cfe-core/src/es/cfe_es_api.c **** **           Application ID.
 746:/home/simulink/cFS_FreeRTOS_seL4/cfe/fsw/cfe-core/src/es/cfe_es_api.c **** **
 747:/home/simulink/cFS_FreeRTOS_seL4/cfe/fsw/cfe-core/src/es/cfe_es_api.c **** */
 748:/home/simulink/cFS_FreeRTOS_seL4/cfe/fsw/cfe-core/src/es/cfe_es_api.c **** int32 CFE_ES_GetAppIDByName(uint32 *AppIdPtr, const char *AppName)
 749:/home/simulink/cFS_FreeRTOS_seL4/cfe/fsw/cfe-core/src/es/cfe_es_api.c **** {
 1168               	.loc 2 749 0
 1169               	.cfi_startproc
 1170 09f0 518F      	subq.l #8,%sp
 1171               	.cfi_def_cfa_offset 12
 750:/home/simulink/cFS_FreeRTOS_seL4/cfe/fsw/cfe-core/src/es/cfe_es_api.c ****    int32 Result = CFE_ES_ERR_APPNAME;
 1172               	.loc 2 750 0
 1173 09f2 203C C400 	move.l #-1006632958,%d0
 1173      0002 
 1174 09f8 2F40 0004 	move.l %d0,4(%sp)
 751:/home/simulink/cFS_FreeRTOS_seL4/cfe/fsw/cfe-core/src/es/cfe_es_api.c ****    uint32 i;
 752:/home/simulink/cFS_FreeRTOS_seL4/cfe/fsw/cfe-core/src/es/cfe_es_api.c **** 
 753:/home/simulink/cFS_FreeRTOS_seL4/cfe/fsw/cfe-core/src/es/cfe_es_api.c ****    CFE_ES_LockSharedData(__func__,__LINE__);
 1175               	.loc 2 753 0
 1176 09fc 4878 02F1 	pea 753.w
 1177               	.cfi_def_cfa_offset 16
 1178 0a00 4879 0000 	pea __func__.5814
 1178      0000 
 1179               	.cfi_def_cfa_offset 20
 1180 0a06 4EB9 0000 	jsr CFE_ES_LockSharedData
 1180      0000 
 1181 0a0c 508F      	addq.l #8,%sp
 1182               	.cfi_def_cfa_offset 12
 754:/home/simulink/cFS_FreeRTOS_seL4/cfe/fsw/cfe-core/src/es/cfe_es_api.c **** 
 755:/home/simulink/cFS_FreeRTOS_seL4/cfe/fsw/cfe-core/src/es/cfe_es_api.c ****    /*
 756:/home/simulink/cFS_FreeRTOS_seL4/cfe/fsw/cfe-core/src/es/cfe_es_api.c ****    ** Search the ES Application table for an app with a matching name.
 757:/home/simulink/cFS_FreeRTOS_seL4/cfe/fsw/cfe-core/src/es/cfe_es_api.c ****    */
 758:/home/simulink/cFS_FreeRTOS_seL4/cfe/fsw/cfe-core/src/es/cfe_es_api.c ****    for ( i = 0; i < CFE_ES_MAX_APPLICATIONS; i++ )
 1183               	.loc 2 758 0
 1184 0a0e 4297      	clr.l (%sp)
 1185 0a10 6060      	jra .L59
 1186               	.L62:
 759:/home/simulink/cFS_FreeRTOS_seL4/cfe/fsw/cfe-core/src/es/cfe_es_api.c ****    {
 760:/home/simulink/cFS_FreeRTOS_seL4/cfe/fsw/cfe-core/src/es/cfe_es_api.c ****       if ( CFE_ES_Global.AppTable[i].RecordUsed == TRUE )
 1187               	.loc 2 760 0
 1188 0a12 2017      	move.l (%sp),%d0
 1189 0a14 223C 0000 	move.l #168,%d1
 1189      00A8 
 1190 0a1a 4C01 0800 	muls.l %d1,%d0
 1191 0a1e 41F9 0000 	lea CFE_ES_Global+2348,%a0
 1191      0000 
 1192 0a24 1030 0800 	move.b (%a0,%d0.l),%d0
 1193 0a28 1000      	move.b %d0,%d0
 1194 0a2a 0280 0000 	and.l #255,%d0
 1194      00FF 
 1195 0a30 7201      	moveq #1,%d1
 1196 0a32 B280      	cmp.l %d0,%d1
 1197 0a34 663A      	jne .L60
68K GAS   			page 49


 761:/home/simulink/cFS_FreeRTOS_seL4/cfe/fsw/cfe-core/src/es/cfe_es_api.c ****       {
 762:/home/simulink/cFS_FreeRTOS_seL4/cfe/fsw/cfe-core/src/es/cfe_es_api.c ****          if ( strncmp(AppName, (char *)CFE_ES_Global.AppTable[i].StartParams.Name, OS_MAX_API_NAME)
 1198               	.loc 2 762 0
 1199 0a36 203C 0000 	move.l #168,%d0
 1199      00A8 
 1200 0a3c 4C17 0800 	muls.l (%sp),%d0
 1201 0a40 0680 0000 	add.l #2356,%d0
 1201      0934 
 1202 0a46 0680 0000 	add.l #CFE_ES_Global,%d0
 1202      0000 
 1203 0a4c 4878 0014 	pea 20.w
 1204               	.cfi_def_cfa_offset 16
 1205 0a50 2F00      	move.l %d0,-(%sp)
 1206               	.cfi_def_cfa_offset 20
 1207 0a52 2F2F 0018 	move.l 24(%sp),-(%sp)
 1208               	.cfi_def_cfa_offset 24
 1209 0a56 4EB9 0000 	jsr strncmp
 1209      0000 
 1210 0a5c 4FEF 000C 	lea (12,%sp),%sp
 1211               	.cfi_def_cfa_offset 12
 1212 0a60 4A80      	tst.l %d0
 1213 0a62 660C      	jne .L60
 763:/home/simulink/cFS_FreeRTOS_seL4/cfe/fsw/cfe-core/src/es/cfe_es_api.c ****          {
 764:/home/simulink/cFS_FreeRTOS_seL4/cfe/fsw/cfe-core/src/es/cfe_es_api.c ****             *AppIdPtr = i;
 1214               	.loc 2 764 0
 1215 0a64 206F 000C 	move.l 12(%sp),%a0
 1216 0a68 2097      	move.l (%sp),(%a0)
 765:/home/simulink/cFS_FreeRTOS_seL4/cfe/fsw/cfe-core/src/es/cfe_es_api.c ****             Result = CFE_SUCCESS;
 1217               	.loc 2 765 0
 1218 0a6a 42AF 0004 	clr.l 4(%sp)
 766:/home/simulink/cFS_FreeRTOS_seL4/cfe/fsw/cfe-core/src/es/cfe_es_api.c ****             break;
 1219               	.loc 2 766 0
 1220 0a6e 6008      	jra .L61
 1221               	.L60:
 758:/home/simulink/cFS_FreeRTOS_seL4/cfe/fsw/cfe-core/src/es/cfe_es_api.c ****    {
 1222               	.loc 2 758 0 discriminator 2
 1223 0a70 5297      	addq.l #1,(%sp)
 1224               	.L59:
 758:/home/simulink/cFS_FreeRTOS_seL4/cfe/fsw/cfe-core/src/es/cfe_es_api.c ****    {
 1225               	.loc 2 758 0 is_stmt 0 discriminator 1
 1226 0a72 701F      	moveq #31,%d0
 1227 0a74 B097      	cmp.l (%sp),%d0
 1228 0a76 649A      	jcc .L62
 1229               	.L61:
 767:/home/simulink/cFS_FreeRTOS_seL4/cfe/fsw/cfe-core/src/es/cfe_es_api.c ****          }
 768:/home/simulink/cFS_FreeRTOS_seL4/cfe/fsw/cfe-core/src/es/cfe_es_api.c ****       }
 769:/home/simulink/cFS_FreeRTOS_seL4/cfe/fsw/cfe-core/src/es/cfe_es_api.c ****    } /* end for */
 770:/home/simulink/cFS_FreeRTOS_seL4/cfe/fsw/cfe-core/src/es/cfe_es_api.c ****    
 771:/home/simulink/cFS_FreeRTOS_seL4/cfe/fsw/cfe-core/src/es/cfe_es_api.c ****    CFE_ES_UnlockSharedData(__func__,__LINE__);
 1230               	.loc 2 771 0 is_stmt 1
 1231 0a78 4878 0303 	pea 771.w
 1232               	.cfi_def_cfa_offset 16
 1233 0a7c 4879 0000 	pea __func__.5814
 1233      0000 
 1234               	.cfi_def_cfa_offset 20
 1235 0a82 4EB9 0000 	jsr CFE_ES_UnlockSharedData
 1235      0000 
68K GAS   			page 50


 1236 0a88 508F      	addq.l #8,%sp
 1237               	.cfi_def_cfa_offset 12
 772:/home/simulink/cFS_FreeRTOS_seL4/cfe/fsw/cfe-core/src/es/cfe_es_api.c ****       
 773:/home/simulink/cFS_FreeRTOS_seL4/cfe/fsw/cfe-core/src/es/cfe_es_api.c ****    return(Result);
 1238               	.loc 2 773 0
 1239 0a8a 202F 0004 	move.l 4(%sp),%d0
 774:/home/simulink/cFS_FreeRTOS_seL4/cfe/fsw/cfe-core/src/es/cfe_es_api.c **** 
 775:/home/simulink/cFS_FreeRTOS_seL4/cfe/fsw/cfe-core/src/es/cfe_es_api.c **** } /* End of CFE_ES_GetAppIDByName() */
 1240               	.loc 2 775 0
 1241 0a8e 508F      	addq.l #8,%sp
 1242 0a90 4E75      	rts
 1243               	.cfi_endproc
 1244               	.LFE68:
 1245               	.sizeCFE_ES_GetAppIDByName, .-CFE_ES_GetAppIDByName
 1246               	.align2
 1247               	.globlCFE_ES_GetAppID
 1248               	.typeCFE_ES_GetAppID, @function
 1249               	CFE_ES_GetAppID:
 1250               	.LFB69:
 776:/home/simulink/cFS_FreeRTOS_seL4/cfe/fsw/cfe-core/src/es/cfe_es_api.c **** 
 777:/home/simulink/cFS_FreeRTOS_seL4/cfe/fsw/cfe-core/src/es/cfe_es_api.c **** 
 778:/home/simulink/cFS_FreeRTOS_seL4/cfe/fsw/cfe-core/src/es/cfe_es_api.c **** /*
 779:/home/simulink/cFS_FreeRTOS_seL4/cfe/fsw/cfe-core/src/es/cfe_es_api.c **** ** Function: CFE_ES_GetAppID
 780:/home/simulink/cFS_FreeRTOS_seL4/cfe/fsw/cfe-core/src/es/cfe_es_api.c **** **
 781:/home/simulink/cFS_FreeRTOS_seL4/cfe/fsw/cfe-core/src/es/cfe_es_api.c **** ** Purpose:  Return the Caller's cFE Application ID.
 782:/home/simulink/cFS_FreeRTOS_seL4/cfe/fsw/cfe-core/src/es/cfe_es_api.c **** **
 783:/home/simulink/cFS_FreeRTOS_seL4/cfe/fsw/cfe-core/src/es/cfe_es_api.c **** */
 784:/home/simulink/cFS_FreeRTOS_seL4/cfe/fsw/cfe-core/src/es/cfe_es_api.c **** int32 CFE_ES_GetAppID(uint32 *AppIdPtr)
 785:/home/simulink/cFS_FreeRTOS_seL4/cfe/fsw/cfe-core/src/es/cfe_es_api.c **** {
 1251               	.loc 2 785 0
 1252               	.cfi_startproc
 1253 0a92 518F      	subq.l #8,%sp
 1254               	.cfi_def_cfa_offset 12
 786:/home/simulink/cFS_FreeRTOS_seL4/cfe/fsw/cfe-core/src/es/cfe_es_api.c ****    int32  Result = CFE_ES_ERR_APPID;
 1255               	.loc 2 786 0
 1256 0a94 203C C400 	move.l #-1006632959,%d0
 1256      0001 
 1257 0a9a 2F40 0004 	move.l %d0,4(%sp)
 787:/home/simulink/cFS_FreeRTOS_seL4/cfe/fsw/cfe-core/src/es/cfe_es_api.c ****    uint32 TaskId;
 788:/home/simulink/cFS_FreeRTOS_seL4/cfe/fsw/cfe-core/src/es/cfe_es_api.c **** 
 789:/home/simulink/cFS_FreeRTOS_seL4/cfe/fsw/cfe-core/src/es/cfe_es_api.c ****    CFE_ES_LockSharedData(__func__,__LINE__);
 1258               	.loc 2 789 0
 1259 0a9e 4878 0315 	pea 789.w
 1260               	.cfi_def_cfa_offset 16
 1261 0aa2 4879 0000 	pea __func__.5823
 1261      0000 
 1262               	.cfi_def_cfa_offset 20
 1263 0aa8 4EB9 0000 	jsr CFE_ES_LockSharedData
 1263      0000 
 1264 0aae 508F      	addq.l #8,%sp
 1265               	.cfi_def_cfa_offset 12
 790:/home/simulink/cFS_FreeRTOS_seL4/cfe/fsw/cfe-core/src/es/cfe_es_api.c **** 
 791:/home/simulink/cFS_FreeRTOS_seL4/cfe/fsw/cfe-core/src/es/cfe_es_api.c ****    /*
 792:/home/simulink/cFS_FreeRTOS_seL4/cfe/fsw/cfe-core/src/es/cfe_es_api.c ****    ** Step 1: Get the OS task ID
 793:/home/simulink/cFS_FreeRTOS_seL4/cfe/fsw/cfe-core/src/es/cfe_es_api.c ****    */
 794:/home/simulink/cFS_FreeRTOS_seL4/cfe/fsw/cfe-core/src/es/cfe_es_api.c ****    if (OS_ConvertToArrayIndex(OS_TaskGetId(), &TaskId) == OS_SUCCESS)
 1266               	.loc 2 794 0
68K GAS   			page 51


 1267 0ab0 4EB9 0000 	jsr OS_TaskGetId
 1267      0000 
 1268 0ab6 220F      	move.l %sp,%d1
 1269 0ab8 2F01      	move.l %d1,-(%sp)
 1270               	.cfi_def_cfa_offset 16
 1271 0aba 2F00      	move.l %d0,-(%sp)
 1272               	.cfi_def_cfa_offset 20
 1273 0abc 4EBA F542 	jsr OS_ConvertToArrayIndex
 1274 0ac0 508F      	addq.l #8,%sp
 1275               	.cfi_def_cfa_offset 12
 1276 0ac2 4A80      	tst.l %d0
 1277 0ac4 663E      	jne .L65
 795:/home/simulink/cFS_FreeRTOS_seL4/cfe/fsw/cfe-core/src/es/cfe_es_api.c ****    {
 796:/home/simulink/cFS_FreeRTOS_seL4/cfe/fsw/cfe-core/src/es/cfe_es_api.c ****       /*
 797:/home/simulink/cFS_FreeRTOS_seL4/cfe/fsw/cfe-core/src/es/cfe_es_api.c ****       ** Step 2: get the Application ID for the current task
 798:/home/simulink/cFS_FreeRTOS_seL4/cfe/fsw/cfe-core/src/es/cfe_es_api.c ****       */
 799:/home/simulink/cFS_FreeRTOS_seL4/cfe/fsw/cfe-core/src/es/cfe_es_api.c ****       if ( CFE_ES_Global.TaskTable[TaskId].RecordUsed == TRUE )
 1278               	.loc 2 799 0
 1279 0ac6 2017      	move.l (%sp),%d0
 1280 0ac8 5280      	addq.l #1,%d0
 1281 0aca 7224      	moveq #36,%d1
 1282 0acc 4C01 0800 	muls.l %d1,%d0
 1283 0ad0 41F9 0000 	lea CFE_ES_Global,%a0
 1283      0000 
 1284 0ad6 1030 0800 	move.b (%a0,%d0.l),%d0
 1285 0ada 1000      	move.b %d0,%d0
 1286 0adc 0280 0000 	and.l #255,%d0
 1286      00FF 
 1287 0ae2 7201      	moveq #1,%d1
 1288 0ae4 B280      	cmp.l %d0,%d1
 1289 0ae6 661C      	jne .L65
 800:/home/simulink/cFS_FreeRTOS_seL4/cfe/fsw/cfe-core/src/es/cfe_es_api.c ****       {
 801:/home/simulink/cFS_FreeRTOS_seL4/cfe/fsw/cfe-core/src/es/cfe_es_api.c ****          *AppIdPtr = CFE_ES_Global.TaskTable[TaskId].AppId;
 1290               	.loc 2 801 0
 1291 0ae8 2017      	move.l (%sp),%d0
 1292 0aea 7224      	moveq #36,%d1
 1293 0aec 4C01 0800 	muls.l %d1,%d0
 1294 0af0 41F9 0000 	lea CFE_ES_Global+40,%a0
 1294      0000 
 1295 0af6 2030 0800 	move.l (%a0,%d0.l),%d0
 1296 0afa 206F 000C 	move.l 12(%sp),%a0
 1297 0afe 2080      	move.l %d0,(%a0)
 802:/home/simulink/cFS_FreeRTOS_seL4/cfe/fsw/cfe-core/src/es/cfe_es_api.c ****          Result = CFE_SUCCESS;
 1298               	.loc 2 802 0
 1299 0b00 42AF 0004 	clr.l 4(%sp)
 1300               	.L65:
 803:/home/simulink/cFS_FreeRTOS_seL4/cfe/fsw/cfe-core/src/es/cfe_es_api.c ****       } /* end if */
 804:/home/simulink/cFS_FreeRTOS_seL4/cfe/fsw/cfe-core/src/es/cfe_es_api.c ****    }
 805:/home/simulink/cFS_FreeRTOS_seL4/cfe/fsw/cfe-core/src/es/cfe_es_api.c **** 
 806:/home/simulink/cFS_FreeRTOS_seL4/cfe/fsw/cfe-core/src/es/cfe_es_api.c ****    CFE_ES_UnlockSharedData(__func__,__LINE__);
 1301               	.loc 2 806 0
 1302 0b04 4878 0326 	pea 806.w
 1303               	.cfi_def_cfa_offset 16
 1304 0b08 4879 0000 	pea __func__.5823
 1304      0000 
 1305               	.cfi_def_cfa_offset 20
 1306 0b0e 4EB9 0000 	jsr CFE_ES_UnlockSharedData
68K GAS   			page 52


 1306      0000 
 1307 0b14 508F      	addq.l #8,%sp
 1308               	.cfi_def_cfa_offset 12
 807:/home/simulink/cFS_FreeRTOS_seL4/cfe/fsw/cfe-core/src/es/cfe_es_api.c ****       
 808:/home/simulink/cFS_FreeRTOS_seL4/cfe/fsw/cfe-core/src/es/cfe_es_api.c ****    return(Result);
 1309               	.loc 2 808 0
 1310 0b16 202F 0004 	move.l 4(%sp),%d0
 809:/home/simulink/cFS_FreeRTOS_seL4/cfe/fsw/cfe-core/src/es/cfe_es_api.c **** 
 810:/home/simulink/cFS_FreeRTOS_seL4/cfe/fsw/cfe-core/src/es/cfe_es_api.c **** } /* End of CFE_ES_GetAppID() */
 1311               	.loc 2 810 0
 1312 0b1a 508F      	addq.l #8,%sp
 1313 0b1c 4E75      	rts
 1314               	.cfi_endproc
 1315               	.LFE69:
 1316               	.sizeCFE_ES_GetAppID, .-CFE_ES_GetAppID
 1317               	.align2
 1318               	.globlCFE_ES_GetAppName
 1319               	.typeCFE_ES_GetAppName, @function
 1320               	CFE_ES_GetAppName:
 1321               	.LFB70:
 811:/home/simulink/cFS_FreeRTOS_seL4/cfe/fsw/cfe-core/src/es/cfe_es_api.c **** 
 812:/home/simulink/cFS_FreeRTOS_seL4/cfe/fsw/cfe-core/src/es/cfe_es_api.c **** /*
 813:/home/simulink/cFS_FreeRTOS_seL4/cfe/fsw/cfe-core/src/es/cfe_es_api.c **** ** Function: CFE_ES_GetAppName
 814:/home/simulink/cFS_FreeRTOS_seL4/cfe/fsw/cfe-core/src/es/cfe_es_api.c **** **
 815:/home/simulink/cFS_FreeRTOS_seL4/cfe/fsw/cfe-core/src/es/cfe_es_api.c **** ** Purpose:  Given a valid AppID, return the 
 816:/home/simulink/cFS_FreeRTOS_seL4/cfe/fsw/cfe-core/src/es/cfe_es_api.c **** **           Application name string.
 817:/home/simulink/cFS_FreeRTOS_seL4/cfe/fsw/cfe-core/src/es/cfe_es_api.c **** **
 818:/home/simulink/cFS_FreeRTOS_seL4/cfe/fsw/cfe-core/src/es/cfe_es_api.c **** */
 819:/home/simulink/cFS_FreeRTOS_seL4/cfe/fsw/cfe-core/src/es/cfe_es_api.c **** int32 CFE_ES_GetAppName(char *AppName, uint32 AppId, uint32 BufferLength)
 820:/home/simulink/cFS_FreeRTOS_seL4/cfe/fsw/cfe-core/src/es/cfe_es_api.c **** {
 1322               	.loc 2 820 0
 1323               	.cfi_startproc
 1324 0b1e 598F      	subq.l #4,%sp
 1325               	.cfi_def_cfa_offset 8
 821:/home/simulink/cFS_FreeRTOS_seL4/cfe/fsw/cfe-core/src/es/cfe_es_api.c ****    int32 Result;
 822:/home/simulink/cFS_FreeRTOS_seL4/cfe/fsw/cfe-core/src/es/cfe_es_api.c **** 
 823:/home/simulink/cFS_FreeRTOS_seL4/cfe/fsw/cfe-core/src/es/cfe_es_api.c ****    CFE_ES_LockSharedData(__func__,__LINE__);
 1326               	.loc 2 823 0
 1327 0b20 4878 0337 	pea 823.w
 1328               	.cfi_def_cfa_offset 12
 1329 0b24 4879 0000 	pea __func__.5830
 1329      0000 
 1330               	.cfi_def_cfa_offset 16
 1331 0b2a 4EB9 0000 	jsr CFE_ES_LockSharedData
 1331      0000 
 1332 0b30 508F      	addq.l #8,%sp
 1333               	.cfi_def_cfa_offset 8
 824:/home/simulink/cFS_FreeRTOS_seL4/cfe/fsw/cfe-core/src/es/cfe_es_api.c **** 
 825:/home/simulink/cFS_FreeRTOS_seL4/cfe/fsw/cfe-core/src/es/cfe_es_api.c ****    if ( AppId < CFE_ES_MAX_APPLICATIONS )
 1334               	.loc 2 825 0
 1335 0b32 701F      	moveq #31,%d0
 1336 0b34 B0AF 000C 	cmp.l 12(%sp),%d0
 1337 0b38 656E      	jcs .L68
 826:/home/simulink/cFS_FreeRTOS_seL4/cfe/fsw/cfe-core/src/es/cfe_es_api.c ****    {
 827:/home/simulink/cFS_FreeRTOS_seL4/cfe/fsw/cfe-core/src/es/cfe_es_api.c ****       if ( CFE_ES_Global.AppTable[AppId].RecordUsed == TRUE )
 1338               	.loc 2 827 0
 1339 0b3a 202F 000C 	move.l 12(%sp),%d0
68K GAS   			page 53


 1340 0b3e 223C 0000 	move.l #168,%d1
 1340      00A8 
 1341 0b44 4C01 0800 	muls.l %d1,%d0
 1342 0b48 41F9 0000 	lea CFE_ES_Global+2348,%a0
 1342      0000 
 1343 0b4e 1030 0800 	move.b (%a0,%d0.l),%d0
 1344 0b52 1000      	move.b %d0,%d0
 1345 0b54 0280 0000 	and.l #255,%d0
 1345      00FF 
 1346 0b5a 7201      	moveq #1,%d1
 1347 0b5c B280      	cmp.l %d0,%d1
 1348 0b5e 6640      	jne .L69
 828:/home/simulink/cFS_FreeRTOS_seL4/cfe/fsw/cfe-core/src/es/cfe_es_api.c ****       {
 829:/home/simulink/cFS_FreeRTOS_seL4/cfe/fsw/cfe-core/src/es/cfe_es_api.c ****          strncpy(AppName, (char *)CFE_ES_Global.AppTable[AppId].StartParams.Name, BufferLength);
 1349               	.loc 2 829 0
 1350 0b60 202F 000C 	move.l 12(%sp),%d0
 1351 0b64 223C 0000 	move.l #168,%d1
 1351      00A8 
 1352 0b6a 4C01 0800 	muls.l %d1,%d0
 1353 0b6e 0680 0000 	add.l #2356,%d0
 1353      0934 
 1354 0b74 0680 0000 	add.l #CFE_ES_Global,%d0
 1354      0000 
 1355 0b7a 2F2F 0010 	move.l 16(%sp),-(%sp)
 1356               	.cfi_def_cfa_offset 12
 1357 0b7e 2F00      	move.l %d0,-(%sp)
 1358               	.cfi_def_cfa_offset 16
 1359 0b80 2F2F 0010 	move.l 16(%sp),-(%sp)
 1360               	.cfi_def_cfa_offset 20
 1361 0b84 4EB9 0000 	jsr strncpy
 1361      0000 
 1362 0b8a 4FEF 000C 	lea (12,%sp),%sp
 1363               	.cfi_def_cfa_offset 8
 830:/home/simulink/cFS_FreeRTOS_seL4/cfe/fsw/cfe-core/src/es/cfe_es_api.c ****          AppName[BufferLength - 1] = '\0';
 1364               	.loc 2 830 0
 1365 0b8e 202F 0010 	move.l 16(%sp),%d0
 1366 0b92 5380      	subq.l #1,%d0
 1367 0b94 206F 0008 	move.l 8(%sp),%a0
 1368 0b98 D1C0      	add.l %d0,%a0
 1369 0b9a 4210      	clr.b (%a0)
 831:/home/simulink/cFS_FreeRTOS_seL4/cfe/fsw/cfe-core/src/es/cfe_es_api.c ****          Result = CFE_SUCCESS;
 1370               	.loc 2 831 0
 1371 0b9c 4297      	clr.l (%sp)
 1372 0b9e 600E      	jra .L71
 1373               	.L69:
 832:/home/simulink/cFS_FreeRTOS_seL4/cfe/fsw/cfe-core/src/es/cfe_es_api.c ****       }
 833:/home/simulink/cFS_FreeRTOS_seL4/cfe/fsw/cfe-core/src/es/cfe_es_api.c ****       else
 834:/home/simulink/cFS_FreeRTOS_seL4/cfe/fsw/cfe-core/src/es/cfe_es_api.c ****       {
 835:/home/simulink/cFS_FreeRTOS_seL4/cfe/fsw/cfe-core/src/es/cfe_es_api.c ****          Result = CFE_ES_ERR_APPID;
 1374               	.loc 2 835 0
 1375 0ba0 2EBC C400 	move.l #-1006632959,(%sp)
 1375      0001 
 1376 0ba6 6006      	jra .L71
 1377               	.L68:
 836:/home/simulink/cFS_FreeRTOS_seL4/cfe/fsw/cfe-core/src/es/cfe_es_api.c ****       }
 837:/home/simulink/cFS_FreeRTOS_seL4/cfe/fsw/cfe-core/src/es/cfe_es_api.c ****    }
 838:/home/simulink/cFS_FreeRTOS_seL4/cfe/fsw/cfe-core/src/es/cfe_es_api.c ****    else
68K GAS   			page 54


 839:/home/simulink/cFS_FreeRTOS_seL4/cfe/fsw/cfe-core/src/es/cfe_es_api.c ****    {
 840:/home/simulink/cFS_FreeRTOS_seL4/cfe/fsw/cfe-core/src/es/cfe_es_api.c ****       Result = CFE_ES_ERR_APPID;
 1378               	.loc 2 840 0
 1379 0ba8 2EBC C400 	move.l #-1006632959,(%sp)
 1379      0001 
 1380               	.L71:
 841:/home/simulink/cFS_FreeRTOS_seL4/cfe/fsw/cfe-core/src/es/cfe_es_api.c ****    }
 842:/home/simulink/cFS_FreeRTOS_seL4/cfe/fsw/cfe-core/src/es/cfe_es_api.c ****    
 843:/home/simulink/cFS_FreeRTOS_seL4/cfe/fsw/cfe-core/src/es/cfe_es_api.c ****    CFE_ES_UnlockSharedData(__func__,__LINE__);
 1381               	.loc 2 843 0
 1382 0bae 4878 034B 	pea 843.w
 1383               	.cfi_def_cfa_offset 12
 1384 0bb2 4879 0000 	pea __func__.5830
 1384      0000 
 1385               	.cfi_def_cfa_offset 16
 1386 0bb8 4EB9 0000 	jsr CFE_ES_UnlockSharedData
 1386      0000 
 1387 0bbe 508F      	addq.l #8,%sp
 1388               	.cfi_def_cfa_offset 8
 844:/home/simulink/cFS_FreeRTOS_seL4/cfe/fsw/cfe-core/src/es/cfe_es_api.c ****       
 845:/home/simulink/cFS_FreeRTOS_seL4/cfe/fsw/cfe-core/src/es/cfe_es_api.c ****    return(Result);
 1389               	.loc 2 845 0
 1390 0bc0 2017      	move.l (%sp),%d0
 846:/home/simulink/cFS_FreeRTOS_seL4/cfe/fsw/cfe-core/src/es/cfe_es_api.c **** 
 847:/home/simulink/cFS_FreeRTOS_seL4/cfe/fsw/cfe-core/src/es/cfe_es_api.c **** } /* End of CFE_ES_GetAppName() */
 1391               	.loc 2 847 0
 1392 0bc2 588F      	addq.l #4,%sp
 1393 0bc4 4E75      	rts
 1394               	.cfi_endproc
 1395               	.LFE70:
 1396               	.sizeCFE_ES_GetAppName, .-CFE_ES_GetAppName
 1397               	.section.rodata
 1398               	.LC22:
 1399 04cf 4346 455F 	.string"CFE_ES_GetAppInfo: App ID Not Active: %d\n"
 1399      4553 5F47 
 1399      6574 4170 
 1399      7049 6E66 
 1399      6F3A 2041 
 1400               	.LC23:
 1401 04f9 4346 455F 	.string"CFE_ES_GetAppInfo: App ID Exceeds CFE_ES_APPLICATION_MAX: %d\n"
 1401      4553 5F47 
 1401      6574 4170 
 1401      7049 6E66 
 1401      6F3A 2041 
 1402               	.LC24:
 1403 0537 4346 455F 	.string"CFE_ES_GetAppInfo: Invalid Parameter ( Null Pointer )\n"
 1403      4553 5F47 
 1403      6574 4170 
 1403      7049 6E66 
 1403      6F3A 2049 
 1404               	.text
 1405               	.align2
 1406               	.globlCFE_ES_GetAppInfo
 1407               	.typeCFE_ES_GetAppInfo, @function
 1408               	CFE_ES_GetAppInfo:
 1409               	.LFB71:
 848:/home/simulink/cFS_FreeRTOS_seL4/cfe/fsw/cfe-core/src/es/cfe_es_api.c **** 
68K GAS   			page 55


 849:/home/simulink/cFS_FreeRTOS_seL4/cfe/fsw/cfe-core/src/es/cfe_es_api.c **** 
 850:/home/simulink/cFS_FreeRTOS_seL4/cfe/fsw/cfe-core/src/es/cfe_es_api.c **** /*
 851:/home/simulink/cFS_FreeRTOS_seL4/cfe/fsw/cfe-core/src/es/cfe_es_api.c **** ** Function: CFE_ES_GetAppInfo
 852:/home/simulink/cFS_FreeRTOS_seL4/cfe/fsw/cfe-core/src/es/cfe_es_api.c **** **
 853:/home/simulink/cFS_FreeRTOS_seL4/cfe/fsw/cfe-core/src/es/cfe_es_api.c **** ** Purpose:  Get Application Information given a specified App ID
 854:/home/simulink/cFS_FreeRTOS_seL4/cfe/fsw/cfe-core/src/es/cfe_es_api.c **** **
 855:/home/simulink/cFS_FreeRTOS_seL4/cfe/fsw/cfe-core/src/es/cfe_es_api.c **** */
 856:/home/simulink/cFS_FreeRTOS_seL4/cfe/fsw/cfe-core/src/es/cfe_es_api.c **** int32 CFE_ES_GetAppInfo(CFE_ES_AppInfo_t *AppInfo, uint32 AppId)
 857:/home/simulink/cFS_FreeRTOS_seL4/cfe/fsw/cfe-core/src/es/cfe_es_api.c **** {
 1410               	.loc 2 857 0
 1411               	.cfi_startproc
 1412 0bc6 598F      	subq.l #4,%sp
 1413               	.cfi_def_cfa_offset 8
 858:/home/simulink/cFS_FreeRTOS_seL4/cfe/fsw/cfe-core/src/es/cfe_es_api.c ****    int32  ReturnCode = CFE_SUCCESS;
 1414               	.loc 2 858 0
 1415 0bc8 4297      	clr.l (%sp)
 859:/home/simulink/cFS_FreeRTOS_seL4/cfe/fsw/cfe-core/src/es/cfe_es_api.c **** 
 860:/home/simulink/cFS_FreeRTOS_seL4/cfe/fsw/cfe-core/src/es/cfe_es_api.c ****    if ( AppInfo != 0 )
 1416               	.loc 2 860 0
 1417 0bca 4AAF 0008 	tst.l 8(%sp)
 1418 0bce 677A      	jeq .L74
 861:/home/simulink/cFS_FreeRTOS_seL4/cfe/fsw/cfe-core/src/es/cfe_es_api.c ****    {
 862:/home/simulink/cFS_FreeRTOS_seL4/cfe/fsw/cfe-core/src/es/cfe_es_api.c ****       if ( AppId < CFE_ES_MAX_APPLICATIONS )
 1419               	.loc 2 862 0
 1420 0bd0 701F      	moveq #31,%d0
 1421 0bd2 B0AF 000C 	cmp.l 12(%sp),%d0
 1422 0bd6 6556      	jcs .L75
 863:/home/simulink/cFS_FreeRTOS_seL4/cfe/fsw/cfe-core/src/es/cfe_es_api.c ****       {
 864:/home/simulink/cFS_FreeRTOS_seL4/cfe/fsw/cfe-core/src/es/cfe_es_api.c ****          if ( CFE_ES_Global.AppTable[AppId].RecordUsed == TRUE )
 1423               	.loc 2 864 0
 1424 0bd8 202F 000C 	move.l 12(%sp),%d0
 1425 0bdc 223C 0000 	move.l #168,%d1
 1425      00A8 
 1426 0be2 4C01 0800 	muls.l %d1,%d0
 1427 0be6 41F9 0000 	lea CFE_ES_Global+2348,%a0
 1427      0000 
 1428 0bec 1030 0800 	move.b (%a0,%d0.l),%d0
 1429 0bf0 1000      	move.b %d0,%d0
 1430 0bf2 0280 0000 	and.l #255,%d0
 1430      00FF 
 1431 0bf8 7201      	moveq #1,%d1
 1432 0bfa B280      	cmp.l %d0,%d1
 1433 0bfc 6614      	jne .L76
 865:/home/simulink/cFS_FreeRTOS_seL4/cfe/fsw/cfe-core/src/es/cfe_es_api.c ****          {
 866:/home/simulink/cFS_FreeRTOS_seL4/cfe/fsw/cfe-core/src/es/cfe_es_api.c ****             CFE_ES_GetAppInfoInternal(AppId, AppInfo);
 1434               	.loc 2 866 0
 1435 0bfe 2F2F 0008 	move.l 8(%sp),-(%sp)
 1436               	.cfi_def_cfa_offset 12
 1437 0c02 2F2F 0010 	move.l 16(%sp),-(%sp)
 1438               	.cfi_def_cfa_offset 16
 1439 0c06 4EB9 0000 	jsr CFE_ES_GetAppInfoInternal
 1439      0000 
 1440 0c0c 508F      	addq.l #8,%sp
 1441               	.cfi_def_cfa_offset 8
 867:/home/simulink/cFS_FreeRTOS_seL4/cfe/fsw/cfe-core/src/es/cfe_es_api.c ****             ReturnCode = CFE_SUCCESS;
 1442               	.loc 2 867 0
 1443 0c0e 4297      	clr.l (%sp)
68K GAS   			page 56


 1444 0c10 604C      	jra .L79
 1445               	.L76:
 868:/home/simulink/cFS_FreeRTOS_seL4/cfe/fsw/cfe-core/src/es/cfe_es_api.c ****          }
 869:/home/simulink/cFS_FreeRTOS_seL4/cfe/fsw/cfe-core/src/es/cfe_es_api.c ****          else
 870:/home/simulink/cFS_FreeRTOS_seL4/cfe/fsw/cfe-core/src/es/cfe_es_api.c ****          {
 871:/home/simulink/cFS_FreeRTOS_seL4/cfe/fsw/cfe-core/src/es/cfe_es_api.c ****             CFE_ES_WriteToSysLog("CFE_ES_GetAppInfo: App ID Not Active: %d\n",(int)AppId);
 1446               	.loc 2 871 0
 1447 0c12 202F 000C 	move.l 12(%sp),%d0
 1448 0c16 2F00      	move.l %d0,-(%sp)
 1449               	.cfi_def_cfa_offset 12
 1450 0c18 4879 0000 	pea .LC22
 1450      0000 
 1451               	.cfi_def_cfa_offset 16
 1452 0c1e 4EB9 0000 	jsr CFE_ES_WriteToSysLog
 1452      0000 
 1453 0c24 508F      	addq.l #8,%sp
 1454               	.cfi_def_cfa_offset 8
 872:/home/simulink/cFS_FreeRTOS_seL4/cfe/fsw/cfe-core/src/es/cfe_es_api.c ****             ReturnCode = CFE_ES_ERR_APPID;
 1455               	.loc 2 872 0
 1456 0c26 2EBC C400 	move.l #-1006632959,(%sp)
 1456      0001 
 1457 0c2c 6030      	jra .L79
 1458               	.L75:
 873:/home/simulink/cFS_FreeRTOS_seL4/cfe/fsw/cfe-core/src/es/cfe_es_api.c ****          }
 874:/home/simulink/cFS_FreeRTOS_seL4/cfe/fsw/cfe-core/src/es/cfe_es_api.c ****       }
 875:/home/simulink/cFS_FreeRTOS_seL4/cfe/fsw/cfe-core/src/es/cfe_es_api.c ****       else
 876:/home/simulink/cFS_FreeRTOS_seL4/cfe/fsw/cfe-core/src/es/cfe_es_api.c ****       {
 877:/home/simulink/cFS_FreeRTOS_seL4/cfe/fsw/cfe-core/src/es/cfe_es_api.c ****          CFE_ES_WriteToSysLog("CFE_ES_GetAppInfo: App ID Exceeds CFE_ES_APPLICATION_MAX: %d\n",(int
 1459               	.loc 2 877 0
 1460 0c2e 202F 000C 	move.l 12(%sp),%d0
 1461 0c32 2F00      	move.l %d0,-(%sp)
 1462               	.cfi_def_cfa_offset 12
 1463 0c34 4879 0000 	pea .LC23
 1463      0000 
 1464               	.cfi_def_cfa_offset 16
 1465 0c3a 4EB9 0000 	jsr CFE_ES_WriteToSysLog
 1465      0000 
 1466 0c40 508F      	addq.l #8,%sp
 1467               	.cfi_def_cfa_offset 8
 878:/home/simulink/cFS_FreeRTOS_seL4/cfe/fsw/cfe-core/src/es/cfe_es_api.c ****          ReturnCode = CFE_ES_ERR_APPID;
 1468               	.loc 2 878 0
 1469 0c42 2EBC C400 	move.l #-1006632959,(%sp)
 1469      0001 
 1470 0c48 6014      	jra .L79
 1471               	.L74:
 879:/home/simulink/cFS_FreeRTOS_seL4/cfe/fsw/cfe-core/src/es/cfe_es_api.c ****       }
 880:/home/simulink/cFS_FreeRTOS_seL4/cfe/fsw/cfe-core/src/es/cfe_es_api.c ****    }
 881:/home/simulink/cFS_FreeRTOS_seL4/cfe/fsw/cfe-core/src/es/cfe_es_api.c ****    else
 882:/home/simulink/cFS_FreeRTOS_seL4/cfe/fsw/cfe-core/src/es/cfe_es_api.c ****    {
 883:/home/simulink/cFS_FreeRTOS_seL4/cfe/fsw/cfe-core/src/es/cfe_es_api.c ****       CFE_ES_WriteToSysLog("CFE_ES_GetAppInfo: Invalid Parameter ( Null Pointer )\n");
 1472               	.loc 2 883 0
 1473 0c4a 4879 0000 	pea .LC24
 1473      0000 
 1474               	.cfi_def_cfa_offset 12
 1475 0c50 4EB9 0000 	jsr CFE_ES_WriteToSysLog
 1475      0000 
 1476 0c56 588F      	addq.l #4,%sp
68K GAS   			page 57


 1477               	.cfi_def_cfa_offset 8
 884:/home/simulink/cFS_FreeRTOS_seL4/cfe/fsw/cfe-core/src/es/cfe_es_api.c ****       ReturnCode = CFE_ES_ERR_BUFFER;
 1478               	.loc 2 884 0
 1479 0c58 2EBC C400 	move.l #-1006632957,(%sp)
 1479      0003 
 1480               	.L79:
 885:/home/simulink/cFS_FreeRTOS_seL4/cfe/fsw/cfe-core/src/es/cfe_es_api.c ****    }
 886:/home/simulink/cFS_FreeRTOS_seL4/cfe/fsw/cfe-core/src/es/cfe_es_api.c ****    return(ReturnCode);
 1481               	.loc 2 886 0
 1482 0c5e 2017      	move.l (%sp),%d0
 887:/home/simulink/cFS_FreeRTOS_seL4/cfe/fsw/cfe-core/src/es/cfe_es_api.c **** 
 888:/home/simulink/cFS_FreeRTOS_seL4/cfe/fsw/cfe-core/src/es/cfe_es_api.c **** } /* End of CFE_ES_GetAppInfo() */
 1483               	.loc 2 888 0
 1484 0c60 588F      	addq.l #4,%sp
 1485 0c62 4E75      	rts
 1486               	.cfi_endproc
 1487               	.LFE71:
 1488               	.sizeCFE_ES_GetAppInfo, .-CFE_ES_GetAppInfo
 1489               	.section.rodata
 1490               	.LC25:
 1491 056e 4346 455F 	.string"CFE_ES_GetTaskInfo: Task ID Not Valid: %u\n"
 1491      4553 5F47 
 1491      6574 5461 
 1491      736B 496E 
 1491      666F 3A20 
 1492               	.LC26:
 1493 0599 4346 455F 	.string"CFE_ES_GetTaskInfo: Task ID:%u Parent App ID:%d not Active.\n"
 1493      4553 5F47 
 1493      6574 5461 
 1493      736B 496E 
 1493      666F 3A20 
 1494               	.LC27:
 1495 05d6 4346 455F 	.string"CFE_ES_GetTaskInfo: Task ID Not Active: %u\n"
 1495      4553 5F47 
 1495      6574 5461 
 1495      736B 496E 
 1495      666F 3A20 
 1496               	.text
 1497               	.align2
 1498               	.globlCFE_ES_GetTaskInfo
 1499               	.typeCFE_ES_GetTaskInfo, @function
 1500               	CFE_ES_GetTaskInfo:
 1501               	.LFB72:
 889:/home/simulink/cFS_FreeRTOS_seL4/cfe/fsw/cfe-core/src/es/cfe_es_api.c **** 
 890:/home/simulink/cFS_FreeRTOS_seL4/cfe/fsw/cfe-core/src/es/cfe_es_api.c **** /*
 891:/home/simulink/cFS_FreeRTOS_seL4/cfe/fsw/cfe-core/src/es/cfe_es_api.c **** ** Function: CFE_ES_GetTaskInfo
 892:/home/simulink/cFS_FreeRTOS_seL4/cfe/fsw/cfe-core/src/es/cfe_es_api.c **** **
 893:/home/simulink/cFS_FreeRTOS_seL4/cfe/fsw/cfe-core/src/es/cfe_es_api.c **** ** Purpose:  Get Task Information given a specified Task ID
 894:/home/simulink/cFS_FreeRTOS_seL4/cfe/fsw/cfe-core/src/es/cfe_es_api.c **** **
 895:/home/simulink/cFS_FreeRTOS_seL4/cfe/fsw/cfe-core/src/es/cfe_es_api.c **** */
 896:/home/simulink/cFS_FreeRTOS_seL4/cfe/fsw/cfe-core/src/es/cfe_es_api.c **** int32 CFE_ES_GetTaskInfo(CFE_ES_TaskInfo_t *TaskInfo, uint32 OSTaskId)
 897:/home/simulink/cFS_FreeRTOS_seL4/cfe/fsw/cfe-core/src/es/cfe_es_api.c **** {
 1502               	.loc 2 897 0
 1503               	.cfi_startproc
 1504 0c64 518F      	subq.l #8,%sp
 1505               	.cfi_def_cfa_offset 12
 898:/home/simulink/cFS_FreeRTOS_seL4/cfe/fsw/cfe-core/src/es/cfe_es_api.c ****    int32  ReturnCode = CFE_SUCCESS;
68K GAS   			page 58


 1506               	.loc 2 898 0
 1507 0c66 42AF 0004 	clr.l 4(%sp)
 899:/home/simulink/cFS_FreeRTOS_seL4/cfe/fsw/cfe-core/src/es/cfe_es_api.c ****    uint32 TaskId;
 900:/home/simulink/cFS_FreeRTOS_seL4/cfe/fsw/cfe-core/src/es/cfe_es_api.c **** 
 901:/home/simulink/cFS_FreeRTOS_seL4/cfe/fsw/cfe-core/src/es/cfe_es_api.c ****    CFE_ES_LockSharedData(__func__,__LINE__);
 1508               	.loc 2 901 0
 1509 0c6a 4878 0385 	pea 901.w
 1510               	.cfi_def_cfa_offset 16
 1511 0c6e 4879 0000 	pea __func__.5842
 1511      0000 
 1512               	.cfi_def_cfa_offset 20
 1513 0c74 4EB9 0000 	jsr CFE_ES_LockSharedData
 1513      0000 
 1514 0c7a 508F      	addq.l #8,%sp
 1515               	.cfi_def_cfa_offset 12
 902:/home/simulink/cFS_FreeRTOS_seL4/cfe/fsw/cfe-core/src/es/cfe_es_api.c **** 
 903:/home/simulink/cFS_FreeRTOS_seL4/cfe/fsw/cfe-core/src/es/cfe_es_api.c ****    if (OS_ConvertToArrayIndex(OSTaskId, &TaskId) != OS_SUCCESS || TaskId >= OS_MAX_TASKS)
 1516               	.loc 2 903 0
 1517 0c7c 200F      	move.l %sp,%d0
 1518 0c7e 2F00      	move.l %d0,-(%sp)
 1519               	.cfi_def_cfa_offset 16
 1520 0c80 2F2F 0014 	move.l 20(%sp),-(%sp)
 1521               	.cfi_def_cfa_offset 20
 1522 0c84 4EBA F37A 	jsr OS_ConvertToArrayIndex
 1523 0c88 508F      	addq.l #8,%sp
 1524               	.cfi_def_cfa_offset 12
 1525 0c8a 4A80      	tst.l %d0
 1526 0c8c 6608      	jne .L82
 1527               	.loc 2 903 0 is_stmt 0 discriminator 1
 1528 0c8e 2017      	move.l (%sp),%d0
 1529 0c90 723F      	moveq #63,%d1
 1530 0c92 B280      	cmp.l %d0,%d1
 1531 0c94 6420      	jcc .L83
 1532               	.L82:
 904:/home/simulink/cFS_FreeRTOS_seL4/cfe/fsw/cfe-core/src/es/cfe_es_api.c ****    {
 905:/home/simulink/cFS_FreeRTOS_seL4/cfe/fsw/cfe-core/src/es/cfe_es_api.c ****       CFE_ES_WriteToSysLog("CFE_ES_GetTaskInfo: Task ID Not Valid: %u\n",(unsigned int)OSTaskId);
 1533               	.loc 2 905 0 is_stmt 1
 1534 0c96 2F2F 0010 	move.l 16(%sp),-(%sp)
 1535               	.cfi_def_cfa_offset 16
 1536 0c9a 4879 0000 	pea .LC25
 1536      0000 
 1537               	.cfi_def_cfa_offset 20
 1538 0ca0 4EB9 0000 	jsr CFE_ES_WriteToSysLog
 1538      0000 
 1539 0ca6 508F      	addq.l #8,%sp
 1540               	.cfi_def_cfa_offset 12
 906:/home/simulink/cFS_FreeRTOS_seL4/cfe/fsw/cfe-core/src/es/cfe_es_api.c ****       ReturnCode = CFE_ES_ERR_TASKID;
 1541               	.loc 2 906 0
 1542 0ca8 203C C400 	move.l #-1006632938,%d0
 1542      0016 
 1543 0cae 2F40 0004 	move.l %d0,4(%sp)
 1544 0cb2 6000 0154 	jra .L84
 1545               	.L83:
 907:/home/simulink/cFS_FreeRTOS_seL4/cfe/fsw/cfe-core/src/es/cfe_es_api.c ****    }
 908:/home/simulink/cFS_FreeRTOS_seL4/cfe/fsw/cfe-core/src/es/cfe_es_api.c ****    else if (  CFE_ES_Global.TaskTable[TaskId].RecordUsed == TRUE )
 1546               	.loc 2 908 0
 1547 0cb6 2017      	move.l (%sp),%d0
68K GAS   			page 59


 1548 0cb8 5280      	addq.l #1,%d0
 1549 0cba 7224      	moveq #36,%d1
 1550 0cbc 4C01 0800 	muls.l %d1,%d0
 1551 0cc0 41F9 0000 	lea CFE_ES_Global,%a0
 1551      0000 
 1552 0cc6 1030 0800 	move.b (%a0,%d0.l),%d0
 1553 0cca 1000      	move.b %d0,%d0
 1554 0ccc 0280 0000 	and.l #255,%d0
 1554      00FF 
 1555 0cd2 7201      	moveq #1,%d1
 1556 0cd4 B280      	cmp.l %d0,%d1
 1557 0cd6 6600 0114 	jne .L85
 909:/home/simulink/cFS_FreeRTOS_seL4/cfe/fsw/cfe-core/src/es/cfe_es_api.c ****    {
 910:/home/simulink/cFS_FreeRTOS_seL4/cfe/fsw/cfe-core/src/es/cfe_es_api.c **** 
 911:/home/simulink/cFS_FreeRTOS_seL4/cfe/fsw/cfe-core/src/es/cfe_es_api.c ****       /*
 912:/home/simulink/cFS_FreeRTOS_seL4/cfe/fsw/cfe-core/src/es/cfe_es_api.c ****       ** Get the Application ID and Task Name
 913:/home/simulink/cFS_FreeRTOS_seL4/cfe/fsw/cfe-core/src/es/cfe_es_api.c ****       */
 914:/home/simulink/cFS_FreeRTOS_seL4/cfe/fsw/cfe-core/src/es/cfe_es_api.c ****       TaskInfo->AppId = CFE_ES_Global.TaskTable[TaskId].AppId;
 1558               	.loc 2 914 0
 1559 0cda 2017      	move.l (%sp),%d0
 1560 0cdc 7224      	moveq #36,%d1
 1561 0cde 4C01 0800 	muls.l %d1,%d0
 1562 0ce2 41F9 0000 	lea CFE_ES_Global+40,%a0
 1562      0000 
 1563 0ce8 2030 0800 	move.l (%a0,%d0.l),%d0
 1564 0cec 206F 000C 	move.l 12(%sp),%a0
 1565 0cf0 2140 001C 	move.l %d0,28(%a0)
 915:/home/simulink/cFS_FreeRTOS_seL4/cfe/fsw/cfe-core/src/es/cfe_es_api.c ****       strncpy((char *)TaskInfo->TaskName,
 916:/home/simulink/cFS_FreeRTOS_seL4/cfe/fsw/cfe-core/src/es/cfe_es_api.c ****               (char *)CFE_ES_Global.TaskTable[TaskId].TaskName,OS_MAX_API_NAME);
 1566               	.loc 2 916 0
 1567 0cf4 2017      	move.l (%sp),%d0
 1568 0cf6 7224      	moveq #36,%d1
 1569 0cf8 4C01 0800 	muls.l %d1,%d0
 1570 0cfc 0680 0000 	add.l #52,%d0
 1570      0034 
 1571 0d02 0680 0000 	add.l #CFE_ES_Global,%d0
 1571      0000 
 915:/home/simulink/cFS_FreeRTOS_seL4/cfe/fsw/cfe-core/src/es/cfe_es_api.c ****       strncpy((char *)TaskInfo->TaskName,
 1572               	.loc 2 915 0
 1573 0d08 222F 000C 	move.l 12(%sp),%d1
 1574 0d0c 5081      	addq.l #8,%d1
 1575 0d0e 4878 0014 	pea 20.w
 1576               	.cfi_def_cfa_offset 16
 1577 0d12 2F00      	move.l %d0,-(%sp)
 1578               	.cfi_def_cfa_offset 20
 1579 0d14 2F01      	move.l %d1,-(%sp)
 1580               	.cfi_def_cfa_offset 24
 1581 0d16 4EB9 0000 	jsr strncpy
 1581      0000 
 1582 0d1c 4FEF 000C 	lea (12,%sp),%sp
 1583               	.cfi_def_cfa_offset 12
 917:/home/simulink/cFS_FreeRTOS_seL4/cfe/fsw/cfe-core/src/es/cfe_es_api.c ****       TaskInfo->TaskName[OS_MAX_API_NAME - 1] = '\0';
 1584               	.loc 2 917 0
 1585 0d20 206F 000C 	move.l 12(%sp),%a0
 1586 0d24 4200      	clr.b %d0
 1587 0d26 1140 001B 	move.b %d0,27(%a0)
 918:/home/simulink/cFS_FreeRTOS_seL4/cfe/fsw/cfe-core/src/es/cfe_es_api.c **** 
68K GAS   			page 60


 919:/home/simulink/cFS_FreeRTOS_seL4/cfe/fsw/cfe-core/src/es/cfe_es_api.c ****       /*
 920:/home/simulink/cFS_FreeRTOS_seL4/cfe/fsw/cfe-core/src/es/cfe_es_api.c ****       ** Get the Application Name
 921:/home/simulink/cFS_FreeRTOS_seL4/cfe/fsw/cfe-core/src/es/cfe_es_api.c ****       */
 922:/home/simulink/cFS_FreeRTOS_seL4/cfe/fsw/cfe-core/src/es/cfe_es_api.c ****       if ( CFE_ES_Global.AppTable[TaskInfo->AppId].RecordUsed == TRUE )
 1588               	.loc 2 922 0
 1589 0d2a 206F 000C 	move.l 12(%sp),%a0
 1590 0d2e 2028 001C 	move.l 28(%a0),%d0
 1591 0d32 223C 0000 	move.l #168,%d1
 1591      00A8 
 1592 0d38 4C01 0800 	muls.l %d1,%d0
 1593 0d3c 41F9 0000 	lea CFE_ES_Global+2348,%a0
 1593      0000 
 1594 0d42 1030 0800 	move.b (%a0,%d0.l),%d0
 1595 0d46 1000      	move.b %d0,%d0
 1596 0d48 0280 0000 	and.l #255,%d0
 1596      00FF 
 1597 0d4e 7201      	moveq #1,%d1
 1598 0d50 B280      	cmp.l %d0,%d1
 1599 0d52 666E      	jne .L86
 923:/home/simulink/cFS_FreeRTOS_seL4/cfe/fsw/cfe-core/src/es/cfe_es_api.c ****       {
 924:/home/simulink/cFS_FreeRTOS_seL4/cfe/fsw/cfe-core/src/es/cfe_es_api.c ****          strncpy((char *)TaskInfo->AppName,
 925:/home/simulink/cFS_FreeRTOS_seL4/cfe/fsw/cfe-core/src/es/cfe_es_api.c ****                  (char *)CFE_ES_Global.AppTable[TaskInfo->AppId].StartParams.Name,
 1600               	.loc 2 925 0
 1601 0d54 206F 000C 	move.l 12(%sp),%a0
 1602 0d58 2028 001C 	move.l 28(%a0),%d0
 1603 0d5c 223C 0000 	move.l #168,%d1
 1603      00A8 
 1604 0d62 4C01 0800 	muls.l %d1,%d0
 1605 0d66 0680 0000 	add.l #2356,%d0
 1605      0934 
 1606 0d6c 2200      	move.l %d0,%d1
 1607 0d6e 0681 0000 	add.l #CFE_ES_Global,%d1
 1607      0000 
 924:/home/simulink/cFS_FreeRTOS_seL4/cfe/fsw/cfe-core/src/es/cfe_es_api.c ****                  (char *)CFE_ES_Global.AppTable[TaskInfo->AppId].StartParams.Name,
 1608               	.loc 2 924 0
 1609 0d74 202F 000C 	move.l 12(%sp),%d0
 1610 0d78 0680 0000 	add.l #32,%d0
 1610      0020 
 1611 0d7e 4878 0014 	pea 20.w
 1612               	.cfi_def_cfa_offset 16
 1613 0d82 2F01      	move.l %d1,-(%sp)
 1614               	.cfi_def_cfa_offset 20
 1615 0d84 2F00      	move.l %d0,-(%sp)
 1616               	.cfi_def_cfa_offset 24
 1617 0d86 4EB9 0000 	jsr strncpy
 1617      0000 
 1618 0d8c 4FEF 000C 	lea (12,%sp),%sp
 1619               	.cfi_def_cfa_offset 12
 926:/home/simulink/cFS_FreeRTOS_seL4/cfe/fsw/cfe-core/src/es/cfe_es_api.c ****                  OS_MAX_API_NAME);
 927:/home/simulink/cFS_FreeRTOS_seL4/cfe/fsw/cfe-core/src/es/cfe_es_api.c ****          TaskInfo->AppName[OS_MAX_API_NAME - 1] = '\0';
 1620               	.loc 2 927 0
 1621 0d90 206F 000C 	move.l 12(%sp),%a0
 1622 0d94 4200      	clr.b %d0
 1623 0d96 1140 0033 	move.b %d0,51(%a0)
 928:/home/simulink/cFS_FreeRTOS_seL4/cfe/fsw/cfe-core/src/es/cfe_es_api.c **** 
 929:/home/simulink/cFS_FreeRTOS_seL4/cfe/fsw/cfe-core/src/es/cfe_es_api.c ****          /*
 930:/home/simulink/cFS_FreeRTOS_seL4/cfe/fsw/cfe-core/src/es/cfe_es_api.c ****          ** Store away the Task ID ( for the QueryAllTasks Cmd )
68K GAS   			page 61


 931:/home/simulink/cFS_FreeRTOS_seL4/cfe/fsw/cfe-core/src/es/cfe_es_api.c ****          */
 932:/home/simulink/cFS_FreeRTOS_seL4/cfe/fsw/cfe-core/src/es/cfe_es_api.c ****          TaskInfo->TaskId = OSTaskId;
 1624               	.loc 2 932 0
 1625 0d9a 206F 000C 	move.l 12(%sp),%a0
 1626 0d9e 20AF 0010 	move.l 16(%sp),(%a0)
 933:/home/simulink/cFS_FreeRTOS_seL4/cfe/fsw/cfe-core/src/es/cfe_es_api.c **** 
 934:/home/simulink/cFS_FreeRTOS_seL4/cfe/fsw/cfe-core/src/es/cfe_es_api.c **** 
 935:/home/simulink/cFS_FreeRTOS_seL4/cfe/fsw/cfe-core/src/es/cfe_es_api.c ****          /*
 936:/home/simulink/cFS_FreeRTOS_seL4/cfe/fsw/cfe-core/src/es/cfe_es_api.c ****          ** Get the Execution counter for the task
 937:/home/simulink/cFS_FreeRTOS_seL4/cfe/fsw/cfe-core/src/es/cfe_es_api.c ****          */
 938:/home/simulink/cFS_FreeRTOS_seL4/cfe/fsw/cfe-core/src/es/cfe_es_api.c ****          TaskInfo->ExecutionCounter =  CFE_ES_Global.TaskTable[TaskId].ExecutionCounter;
 1627               	.loc 2 938 0
 1628 0da2 2017      	move.l (%sp),%d0
 1629 0da4 7224      	moveq #36,%d1
 1630 0da6 4C01 0800 	muls.l %d1,%d0
 1631 0daa 41F9 0000 	lea CFE_ES_Global+48,%a0
 1631      0000 
 1632 0db0 2030 0800 	move.l (%a0,%d0.l),%d0
 1633 0db4 206F 000C 	move.l 12(%sp),%a0
 1634 0db8 2140 0004 	move.l %d0,4(%a0)
 939:/home/simulink/cFS_FreeRTOS_seL4/cfe/fsw/cfe-core/src/es/cfe_es_api.c **** 
 940:/home/simulink/cFS_FreeRTOS_seL4/cfe/fsw/cfe-core/src/es/cfe_es_api.c ****          ReturnCode = CFE_SUCCESS;
 1635               	.loc 2 940 0
 1636 0dbc 42AF 0004 	clr.l 4(%sp)
 1637 0dc0 6046      	jra .L84
 1638               	.L86:
 941:/home/simulink/cFS_FreeRTOS_seL4/cfe/fsw/cfe-core/src/es/cfe_es_api.c **** 
 942:/home/simulink/cFS_FreeRTOS_seL4/cfe/fsw/cfe-core/src/es/cfe_es_api.c ****       }
 943:/home/simulink/cFS_FreeRTOS_seL4/cfe/fsw/cfe-core/src/es/cfe_es_api.c ****       else
 944:/home/simulink/cFS_FreeRTOS_seL4/cfe/fsw/cfe-core/src/es/cfe_es_api.c ****       {
 945:/home/simulink/cFS_FreeRTOS_seL4/cfe/fsw/cfe-core/src/es/cfe_es_api.c ****          CFE_ES_WriteToSysLog("CFE_ES_GetTaskInfo: Task ID:%u Parent App ID:%d not Active.\n",
 946:/home/simulink/cFS_FreeRTOS_seL4/cfe/fsw/cfe-core/src/es/cfe_es_api.c ****                  (unsigned int)OSTaskId,(int)TaskInfo->AppId);
 1639               	.loc 2 946 0
 1640 0dc2 206F 000C 	move.l 12(%sp),%a0
 1641 0dc6 2028 001C 	move.l 28(%a0),%d0
 945:/home/simulink/cFS_FreeRTOS_seL4/cfe/fsw/cfe-core/src/es/cfe_es_api.c ****                  (unsigned int)OSTaskId,(int)TaskInfo->AppId);
 1642               	.loc 2 945 0
 1643 0dca 2F00      	move.l %d0,-(%sp)
 1644               	.cfi_def_cfa_offset 16
 1645 0dcc 2F2F 0014 	move.l 20(%sp),-(%sp)
 1646               	.cfi_def_cfa_offset 20
 1647 0dd0 4879 0000 	pea .LC26
 1647      0000 
 1648               	.cfi_def_cfa_offset 24
 1649 0dd6 4EB9 0000 	jsr CFE_ES_WriteToSysLog
 1649      0000 
 1650 0ddc 4FEF 000C 	lea (12,%sp),%sp
 1651               	.cfi_def_cfa_offset 12
 947:/home/simulink/cFS_FreeRTOS_seL4/cfe/fsw/cfe-core/src/es/cfe_es_api.c ****          ReturnCode = CFE_ES_ERR_TASKID;
 1652               	.loc 2 947 0
 1653 0de0 203C C400 	move.l #-1006632938,%d0
 1653      0016 
 1654 0de6 2F40 0004 	move.l %d0,4(%sp)
 1655 0dea 601C      	jra .L84
 1656               	.L85:
 948:/home/simulink/cFS_FreeRTOS_seL4/cfe/fsw/cfe-core/src/es/cfe_es_api.c ****       }
 949:/home/simulink/cFS_FreeRTOS_seL4/cfe/fsw/cfe-core/src/es/cfe_es_api.c ****    }
68K GAS   			page 62


 950:/home/simulink/cFS_FreeRTOS_seL4/cfe/fsw/cfe-core/src/es/cfe_es_api.c ****    else
 951:/home/simulink/cFS_FreeRTOS_seL4/cfe/fsw/cfe-core/src/es/cfe_es_api.c ****    {
 952:/home/simulink/cFS_FreeRTOS_seL4/cfe/fsw/cfe-core/src/es/cfe_es_api.c ****       CFE_ES_WriteToSysLog("CFE_ES_GetTaskInfo: Task ID Not Active: %u\n",(unsigned int)OSTaskId);
 1657               	.loc 2 952 0
 1658 0dec 2F2F 0010 	move.l 16(%sp),-(%sp)
 1659               	.cfi_def_cfa_offset 16
 1660 0df0 4879 0000 	pea .LC27
 1660      0000 
 1661               	.cfi_def_cfa_offset 20
 1662 0df6 4EB9 0000 	jsr CFE_ES_WriteToSysLog
 1662      0000 
 1663 0dfc 508F      	addq.l #8,%sp
 1664               	.cfi_def_cfa_offset 12
 953:/home/simulink/cFS_FreeRTOS_seL4/cfe/fsw/cfe-core/src/es/cfe_es_api.c ****       ReturnCode = CFE_ES_ERR_TASKID;
 1665               	.loc 2 953 0
 1666 0dfe 223C C400 	move.l #-1006632938,%d1
 1666      0016 
 1667 0e04 2F41 0004 	move.l %d1,4(%sp)
 1668               	.L84:
 954:/home/simulink/cFS_FreeRTOS_seL4/cfe/fsw/cfe-core/src/es/cfe_es_api.c ****    }
 955:/home/simulink/cFS_FreeRTOS_seL4/cfe/fsw/cfe-core/src/es/cfe_es_api.c ****    
 956:/home/simulink/cFS_FreeRTOS_seL4/cfe/fsw/cfe-core/src/es/cfe_es_api.c ****    CFE_ES_UnlockSharedData(__func__,__LINE__);
 1669               	.loc 2 956 0
 1670 0e08 4878 03BC 	pea 956.w
 1671               	.cfi_def_cfa_offset 16
 1672 0e0c 4879 0000 	pea __func__.5842
 1672      0000 
 1673               	.cfi_def_cfa_offset 20
 1674 0e12 4EB9 0000 	jsr CFE_ES_UnlockSharedData
 1674      0000 
 1675 0e18 508F      	addq.l #8,%sp
 1676               	.cfi_def_cfa_offset 12
 957:/home/simulink/cFS_FreeRTOS_seL4/cfe/fsw/cfe-core/src/es/cfe_es_api.c **** 
 958:/home/simulink/cFS_FreeRTOS_seL4/cfe/fsw/cfe-core/src/es/cfe_es_api.c ****    return(ReturnCode);
 1677               	.loc 2 958 0
 1678 0e1a 202F 0004 	move.l 4(%sp),%d0
 959:/home/simulink/cFS_FreeRTOS_seL4/cfe/fsw/cfe-core/src/es/cfe_es_api.c **** 
 960:/home/simulink/cFS_FreeRTOS_seL4/cfe/fsw/cfe-core/src/es/cfe_es_api.c **** } /* End of CFE_ES_GetAppName() */
 1679               	.loc 2 960 0
 1680 0e1e 508F      	addq.l #8,%sp
 1681 0e20 4E75      	rts
 1682               	.cfi_endproc
 1683               	.LFE72:
 1684               	.sizeCFE_ES_GetTaskInfo, .-CFE_ES_GetTaskInfo
 1685               	.section.rodata
 1686               	.LC28:
 1687 0602 4346 455F 	.string"CFE_ES_CreateChildTask: Task Id and Name Pointer Parameters are NULL.\n"
 1687      4553 5F43 
 1687      7265 6174 
 1687      6543 6869 
 1687      6C64 5461 
 1688               	.LC29:
 1689 0649 4346 455F 	.string"CFE_ES_CreateChildTask: Task Id Pointer Parameter is NULL for Task '%s'.\n"
 1689      4553 5F43 
 1689      7265 6174 
 1689      6543 6869 
 1689      6C64 5461 
68K GAS   			page 63


 1690               	.LC30:
 1691 0693 4346 455F 	.string"CFE_ES_CreateChildTask: TaskName Parameter is NULL for Task ID %d.\n"
 1691      4553 5F43 
 1691      7265 6174 
 1691      6543 6869 
 1691      6C64 5461 
 1692               	.LC31:
 1693 06d7 4346 455F 	.string"CFE_ES_CreateChildTask: Function Pointer Parameter is NULL for Task '%s' (ID %d).\n"
 1693      4553 5F43 
 1693      7265 6174 
 1693      6543 6869 
 1693      6C64 5461 
 1694               	.LC32:
 1695 072a 4346 455F 	.string"CFE_ES_CreateChildTask: Error calling CFE_ES_GetAppID for Task '%s'. RC = 0x%08X\n"
 1695      4553 5F43 
 1695      7265 6174 
 1695      6543 6869 
 1695      6C64 5461 
 1696               	.LC33:
 1697 077c 4346 455F 	.string"CFE_ES_CreateChildTask: Error calling OS_TaskCreate for Task '%s' RC = 0x%08X\n"
 1697      4553 5F43 
 1697      7265 6174 
 1697      6543 6869 
 1697      6C64 5461 
 1698               	.LC34:
 1699 07cb 4346 455F 	.string"CFE_ES_CreateChildTask: Error: Cannot call from a Child Task (for Task '%s').\n"
 1699      4553 5F43 
 1699      7265 6174 
 1699      6543 6869 
 1699      6C64 5461 
 1700               	.text
 1701               	.align2
 1702               	.globlCFE_ES_CreateChildTask
 1703               	.typeCFE_ES_CreateChildTask, @function
 1704               	CFE_ES_CreateChildTask:
 1705               	.LFB73:
 961:/home/simulink/cFS_FreeRTOS_seL4/cfe/fsw/cfe-core/src/es/cfe_es_api.c **** 
 962:/home/simulink/cFS_FreeRTOS_seL4/cfe/fsw/cfe-core/src/es/cfe_es_api.c **** 
 963:/home/simulink/cFS_FreeRTOS_seL4/cfe/fsw/cfe-core/src/es/cfe_es_api.c **** /*
 964:/home/simulink/cFS_FreeRTOS_seL4/cfe/fsw/cfe-core/src/es/cfe_es_api.c **** ** Function: CFE_ES_CreateChildTask
 965:/home/simulink/cFS_FreeRTOS_seL4/cfe/fsw/cfe-core/src/es/cfe_es_api.c **** **
 966:/home/simulink/cFS_FreeRTOS_seL4/cfe/fsw/cfe-core/src/es/cfe_es_api.c **** ** Purpose:  Create a Child task for the Application.
 967:/home/simulink/cFS_FreeRTOS_seL4/cfe/fsw/cfe-core/src/es/cfe_es_api.c **** **
 968:/home/simulink/cFS_FreeRTOS_seL4/cfe/fsw/cfe-core/src/es/cfe_es_api.c **** */
 969:/home/simulink/cFS_FreeRTOS_seL4/cfe/fsw/cfe-core/src/es/cfe_es_api.c **** int32 CFE_ES_CreateChildTask(uint32 *TaskIdPtr,
 970:/home/simulink/cFS_FreeRTOS_seL4/cfe/fsw/cfe-core/src/es/cfe_es_api.c ****                         const char   *TaskName,
 971:/home/simulink/cFS_FreeRTOS_seL4/cfe/fsw/cfe-core/src/es/cfe_es_api.c ****                         CFE_ES_ChildTaskMainFuncPtr_t   FunctionPtr,
 972:/home/simulink/cFS_FreeRTOS_seL4/cfe/fsw/cfe-core/src/es/cfe_es_api.c ****                         uint32 *StackPtr,
 973:/home/simulink/cFS_FreeRTOS_seL4/cfe/fsw/cfe-core/src/es/cfe_es_api.c ****                         uint32  StackSize,
 974:/home/simulink/cFS_FreeRTOS_seL4/cfe/fsw/cfe-core/src/es/cfe_es_api.c ****                         uint32  Priority,
 975:/home/simulink/cFS_FreeRTOS_seL4/cfe/fsw/cfe-core/src/es/cfe_es_api.c ****                         uint32  Flags)
 976:/home/simulink/cFS_FreeRTOS_seL4/cfe/fsw/cfe-core/src/es/cfe_es_api.c **** {
 1706               	.loc 2 976 0
 1707               	.cfi_startproc
 1708 0e22 4FEF FFEC 	lea (-20,%sp),%sp
 1709               	.cfi_def_cfa_offset 24
 1710 0e26 2F02      	move.l %d2,-(%sp)
68K GAS   			page 64


 1711               	.cfi_def_cfa_offset 28
 1712               	.cfi_offset 2, -28
 977:/home/simulink/cFS_FreeRTOS_seL4/cfe/fsw/cfe-core/src/es/cfe_es_api.c **** 
 978:/home/simulink/cFS_FreeRTOS_seL4/cfe/fsw/cfe-core/src/es/cfe_es_api.c ****    int32          Result;
 979:/home/simulink/cFS_FreeRTOS_seL4/cfe/fsw/cfe-core/src/es/cfe_es_api.c ****    uint32         AppId= 0xFFFFFFFF;
 1713               	.loc 2 979 0
 1714 0e28 70FF      	moveq #-1,%d0
 1715 0e2a 2F40 0008 	move.l %d0,8(%sp)
 980:/home/simulink/cFS_FreeRTOS_seL4/cfe/fsw/cfe-core/src/es/cfe_es_api.c ****    int32          ReturnCode;
 981:/home/simulink/cFS_FreeRTOS_seL4/cfe/fsw/cfe-core/src/es/cfe_es_api.c ****    uint32         TaskId;
 982:/home/simulink/cFS_FreeRTOS_seL4/cfe/fsw/cfe-core/src/es/cfe_es_api.c ****    uint32         ParentTaskId;
 983:/home/simulink/cFS_FreeRTOS_seL4/cfe/fsw/cfe-core/src/es/cfe_es_api.c **** 
 984:/home/simulink/cFS_FreeRTOS_seL4/cfe/fsw/cfe-core/src/es/cfe_es_api.c ****    /*
 985:/home/simulink/cFS_FreeRTOS_seL4/cfe/fsw/cfe-core/src/es/cfe_es_api.c ****    ** Validate some of the arguments
 986:/home/simulink/cFS_FreeRTOS_seL4/cfe/fsw/cfe-core/src/es/cfe_es_api.c ****    */
 987:/home/simulink/cFS_FreeRTOS_seL4/cfe/fsw/cfe-core/src/es/cfe_es_api.c ****    if ( TaskIdPtr == NULL )
 1716               	.loc 2 987 0
 1717 0e2e 4AAF 001C 	tst.l 28(%sp)
 1718 0e32 6642      	jne .L90
 988:/home/simulink/cFS_FreeRTOS_seL4/cfe/fsw/cfe-core/src/es/cfe_es_api.c ****    {
 989:/home/simulink/cFS_FreeRTOS_seL4/cfe/fsw/cfe-core/src/es/cfe_es_api.c ****       if (TaskName == NULL)
 1719               	.loc 2 989 0
 1720 0e34 4AAF 0020 	tst.l 32(%sp)
 1721 0e38 661C      	jne .L91
 990:/home/simulink/cFS_FreeRTOS_seL4/cfe/fsw/cfe-core/src/es/cfe_es_api.c ****       {
 991:/home/simulink/cFS_FreeRTOS_seL4/cfe/fsw/cfe-core/src/es/cfe_es_api.c ****           CFE_ES_WriteToSysLog("CFE_ES_CreateChildTask: Task Id and Name Pointer Parameters are NUL
 1722               	.loc 2 991 0
 1723 0e3a 4879 0000 	pea .LC28
 1723      0000 
 1724               	.cfi_def_cfa_offset 32
 1725 0e40 4EB9 0000 	jsr CFE_ES_WriteToSysLog
 1725      0000 
 1726 0e46 588F      	addq.l #4,%sp
 1727               	.cfi_def_cfa_offset 28
 992:/home/simulink/cFS_FreeRTOS_seL4/cfe/fsw/cfe-core/src/es/cfe_es_api.c ****           ReturnCode = CFE_ES_BAD_ARGUMENT;
 1728               	.loc 2 992 0
 1729 0e48 223C C400 	move.l #-1006632950,%d1
 1729      000A 
 1730 0e4e 2F41 0014 	move.l %d1,20(%sp)
 1731 0e52 6000 0278 	jra .L93
 1732               	.L91:
 993:/home/simulink/cFS_FreeRTOS_seL4/cfe/fsw/cfe-core/src/es/cfe_es_api.c ****       }
 994:/home/simulink/cFS_FreeRTOS_seL4/cfe/fsw/cfe-core/src/es/cfe_es_api.c ****       else
 995:/home/simulink/cFS_FreeRTOS_seL4/cfe/fsw/cfe-core/src/es/cfe_es_api.c ****       {
 996:/home/simulink/cFS_FreeRTOS_seL4/cfe/fsw/cfe-core/src/es/cfe_es_api.c ****           CFE_ES_WriteToSysLog("CFE_ES_CreateChildTask: Task Id Pointer Parameter is NULL for Task 
 1733               	.loc 2 996 0
 1734 0e56 2F2F 0020 	move.l 32(%sp),-(%sp)
 1735               	.cfi_def_cfa_offset 32
 1736 0e5a 4879 0000 	pea .LC29
 1736      0000 
 1737               	.cfi_def_cfa_offset 36
 1738 0e60 4EB9 0000 	jsr CFE_ES_WriteToSysLog
 1738      0000 
 1739 0e66 508F      	addq.l #8,%sp
 1740               	.cfi_def_cfa_offset 28
 997:/home/simulink/cFS_FreeRTOS_seL4/cfe/fsw/cfe-core/src/es/cfe_es_api.c ****           ReturnCode = CFE_ES_BAD_ARGUMENT;
 1741               	.loc 2 997 0
68K GAS   			page 65


 1742 0e68 243C C400 	move.l #-1006632950,%d2
 1742      000A 
 1743 0e6e 2F42 0014 	move.l %d2,20(%sp)
 1744 0e72 6000 0258 	jra .L93
 1745               	.L90:
 998:/home/simulink/cFS_FreeRTOS_seL4/cfe/fsw/cfe-core/src/es/cfe_es_api.c ****       }
 999:/home/simulink/cFS_FreeRTOS_seL4/cfe/fsw/cfe-core/src/es/cfe_es_api.c ****    }
1000:/home/simulink/cFS_FreeRTOS_seL4/cfe/fsw/cfe-core/src/es/cfe_es_api.c ****    else if ( TaskName == NULL )
 1746               	.loc 2 1000 0
 1747 0e76 4AAF 0020 	tst.l 32(%sp)
 1748 0e7a 6624      	jne .L94
1001:/home/simulink/cFS_FreeRTOS_seL4/cfe/fsw/cfe-core/src/es/cfe_es_api.c ****    {
1002:/home/simulink/cFS_FreeRTOS_seL4/cfe/fsw/cfe-core/src/es/cfe_es_api.c ****       CFE_ES_WriteToSysLog("CFE_ES_CreateChildTask: TaskName Parameter is NULL for Task ID %d.\n",(
 1749               	.loc 2 1002 0
 1750 0e7c 206F 001C 	move.l 28(%sp),%a0
 1751 0e80 2010      	move.l (%a0),%d0
 1752 0e82 2F00      	move.l %d0,-(%sp)
 1753               	.cfi_def_cfa_offset 32
 1754 0e84 4879 0000 	pea .LC30
 1754      0000 
 1755               	.cfi_def_cfa_offset 36
 1756 0e8a 4EB9 0000 	jsr CFE_ES_WriteToSysLog
 1756      0000 
 1757 0e90 508F      	addq.l #8,%sp
 1758               	.cfi_def_cfa_offset 28
1003:/home/simulink/cFS_FreeRTOS_seL4/cfe/fsw/cfe-core/src/es/cfe_es_api.c ****       ReturnCode = CFE_ES_BAD_ARGUMENT;
 1759               	.loc 2 1003 0
 1760 0e92 227C C400 	move.l #-1006632950,%a1
 1760      000A 
 1761 0e98 2F49 0014 	move.l %a1,20(%sp)
 1762 0e9c 6000 022E 	jra .L93
 1763               	.L94:
1004:/home/simulink/cFS_FreeRTOS_seL4/cfe/fsw/cfe-core/src/es/cfe_es_api.c ****    }
1005:/home/simulink/cFS_FreeRTOS_seL4/cfe/fsw/cfe-core/src/es/cfe_es_api.c ****    else if ( FunctionPtr == NULL )
 1764               	.loc 2 1005 0
 1765 0ea0 4AAF 0024 	tst.l 36(%sp)
 1766 0ea4 662A      	jne .L95
1006:/home/simulink/cFS_FreeRTOS_seL4/cfe/fsw/cfe-core/src/es/cfe_es_api.c ****    {
1007:/home/simulink/cFS_FreeRTOS_seL4/cfe/fsw/cfe-core/src/es/cfe_es_api.c ****       CFE_ES_WriteToSysLog("CFE_ES_CreateChildTask: Function Pointer Parameter is NULL for Task '%s
 1767               	.loc 2 1007 0
 1768 0ea6 206F 001C 	move.l 28(%sp),%a0
 1769 0eaa 2010      	move.l (%a0),%d0
 1770 0eac 2F00      	move.l %d0,-(%sp)
 1771               	.cfi_def_cfa_offset 32
 1772 0eae 2F2F 0024 	move.l 36(%sp),-(%sp)
 1773               	.cfi_def_cfa_offset 36
 1774 0eb2 4879 0000 	pea .LC31
 1774      0000 
 1775               	.cfi_def_cfa_offset 40
 1776 0eb8 4EB9 0000 	jsr CFE_ES_WriteToSysLog
 1776      0000 
 1777 0ebe 4FEF 000C 	lea (12,%sp),%sp
 1778               	.cfi_def_cfa_offset 28
1008:/home/simulink/cFS_FreeRTOS_seL4/cfe/fsw/cfe-core/src/es/cfe_es_api.c ****       ReturnCode = CFE_ES_BAD_ARGUMENT;
 1779               	.loc 2 1008 0
 1780 0ec2 203C C400 	move.l #-1006632950,%d0
 1780      000A 
68K GAS   			page 66


 1781 0ec8 2F40 0014 	move.l %d0,20(%sp)
 1782 0ecc 6000 01FE 	jra .L93
 1783               	.L95:
1009:/home/simulink/cFS_FreeRTOS_seL4/cfe/fsw/cfe-core/src/es/cfe_es_api.c ****    }
1010:/home/simulink/cFS_FreeRTOS_seL4/cfe/fsw/cfe-core/src/es/cfe_es_api.c ****    else 
1011:/home/simulink/cFS_FreeRTOS_seL4/cfe/fsw/cfe-core/src/es/cfe_es_api.c ****    {
1012:/home/simulink/cFS_FreeRTOS_seL4/cfe/fsw/cfe-core/src/es/cfe_es_api.c ****    
1013:/home/simulink/cFS_FreeRTOS_seL4/cfe/fsw/cfe-core/src/es/cfe_es_api.c ****       CFE_ES_LockSharedData(__func__,__LINE__);
 1784               	.loc 2 1013 0
 1785 0ed0 4878 03F5 	pea 1013.w
 1786               	.cfi_def_cfa_offset 32
 1787 0ed4 4879 0000 	pea __func__.5857
 1787      0000 
 1788               	.cfi_def_cfa_offset 36
 1789 0eda 4EB9 0000 	jsr CFE_ES_LockSharedData
 1789      0000 
 1790 0ee0 508F      	addq.l #8,%sp
 1791               	.cfi_def_cfa_offset 28
1014:/home/simulink/cFS_FreeRTOS_seL4/cfe/fsw/cfe-core/src/es/cfe_es_api.c ****    
1015:/home/simulink/cFS_FreeRTOS_seL4/cfe/fsw/cfe-core/src/es/cfe_es_api.c ****       /*
1016:/home/simulink/cFS_FreeRTOS_seL4/cfe/fsw/cfe-core/src/es/cfe_es_api.c ****       ** Get the AppID of the calling Application
1017:/home/simulink/cFS_FreeRTOS_seL4/cfe/fsw/cfe-core/src/es/cfe_es_api.c ****       */
1018:/home/simulink/cFS_FreeRTOS_seL4/cfe/fsw/cfe-core/src/es/cfe_es_api.c ****       Result = CFE_ES_GetAppIDInternal(&AppId);
 1792               	.loc 2 1018 0
 1793 0ee2 200F      	move.l %sp,%d0
 1794 0ee4 5080      	addq.l #8,%d0
 1795 0ee6 2F00      	move.l %d0,-(%sp)
 1796               	.cfi_def_cfa_offset 32
 1797 0ee8 4EB9 0000 	jsr CFE_ES_GetAppIDInternal
 1797      0000 
 1798 0eee 588F      	addq.l #4,%sp
 1799               	.cfi_def_cfa_offset 28
 1800 0ef0 2F40 0010 	move.l %d0,16(%sp)
1019:/home/simulink/cFS_FreeRTOS_seL4/cfe/fsw/cfe-core/src/es/cfe_es_api.c ****       if (Result != CFE_SUCCESS)
 1801               	.loc 2 1019 0
 1802 0ef4 4AAF 0010 	tst.l 16(%sp)
 1803 0ef8 6724      	jeq .L96
1020:/home/simulink/cFS_FreeRTOS_seL4/cfe/fsw/cfe-core/src/es/cfe_es_api.c ****       {
1021:/home/simulink/cFS_FreeRTOS_seL4/cfe/fsw/cfe-core/src/es/cfe_es_api.c ****           CFE_ES_WriteToSysLog("CFE_ES_CreateChildTask: Error calling CFE_ES_GetAppID for Task '%s'
 1804               	.loc 2 1021 0
 1805 0efa 202F 0010 	move.l 16(%sp),%d0
 1806 0efe 2F00      	move.l %d0,-(%sp)
 1807               	.cfi_def_cfa_offset 32
 1808 0f00 2F2F 0024 	move.l 36(%sp),-(%sp)
 1809               	.cfi_def_cfa_offset 36
 1810 0f04 4879 0000 	pea .LC32
 1810      0000 
 1811               	.cfi_def_cfa_offset 40
 1812 0f0a 4EB9 0000 	jsr CFE_ES_WriteToSysLog
 1812      0000 
 1813 0f10 4FEF 000C 	lea (12,%sp),%sp
 1814               	.cfi_def_cfa_offset 28
1022:/home/simulink/cFS_FreeRTOS_seL4/cfe/fsw/cfe-core/src/es/cfe_es_api.c ****           ReturnCode = Result;
 1815               	.loc 2 1022 0
 1816 0f14 2F6F 0010 	move.l 16(%sp),20(%sp)
 1816      0014 
 1817 0f1a 6000 019E 	jra .L97
68K GAS   			page 67


 1818               	.L96:
1023:/home/simulink/cFS_FreeRTOS_seL4/cfe/fsw/cfe-core/src/es/cfe_es_api.c ****       }
1024:/home/simulink/cFS_FreeRTOS_seL4/cfe/fsw/cfe-core/src/es/cfe_es_api.c ****       else  /* else AppId is valid */
1025:/home/simulink/cFS_FreeRTOS_seL4/cfe/fsw/cfe-core/src/es/cfe_es_api.c ****       {
1026:/home/simulink/cFS_FreeRTOS_seL4/cfe/fsw/cfe-core/src/es/cfe_es_api.c ****          /*
1027:/home/simulink/cFS_FreeRTOS_seL4/cfe/fsw/cfe-core/src/es/cfe_es_api.c ****          ** First, Make sure the Calling Task is a cFE Main task.
1028:/home/simulink/cFS_FreeRTOS_seL4/cfe/fsw/cfe-core/src/es/cfe_es_api.c ****          ** TaskID must be the same as the Parent Task ID.
1029:/home/simulink/cFS_FreeRTOS_seL4/cfe/fsw/cfe-core/src/es/cfe_es_api.c ****          */
1030:/home/simulink/cFS_FreeRTOS_seL4/cfe/fsw/cfe-core/src/es/cfe_es_api.c ****          TaskId = OS_TaskGetId();
 1819               	.loc 2 1030 0
 1820 0f1e 4EB9 0000 	jsr OS_TaskGetId
 1820      0000 
 1821 0f24 2F40 0004 	move.l %d0,4(%sp)
1031:/home/simulink/cFS_FreeRTOS_seL4/cfe/fsw/cfe-core/src/es/cfe_es_api.c ****          ParentTaskId = CFE_ES_Global.AppTable[AppId].TaskInfo.MainTaskId;
 1822               	.loc 2 1031 0
 1823 0f28 202F 0008 	move.l 8(%sp),%d0
 1824 0f2c 223C 0000 	move.l #168,%d1
 1824      00A8 
 1825 0f32 4C01 0800 	muls.l %d1,%d0
 1826 0f36 41F9 0000 	lea CFE_ES_Global+2488,%a0
 1826      0000 
 1827 0f3c 43F0 0800 	lea (%a0,%d0.l),%a1
 1828 0f40 2F51 000C 	move.l (%a1),12(%sp)
1032:/home/simulink/cFS_FreeRTOS_seL4/cfe/fsw/cfe-core/src/es/cfe_es_api.c ****          if ( TaskId == ParentTaskId )
 1829               	.loc 2 1032 0
 1830 0f44 202F 0004 	move.l 4(%sp),%d0
 1831 0f48 B0AF 000C 	cmp.l 12(%sp),%d0
 1832 0f4c 6600 0150 	jne .L98
1033:/home/simulink/cFS_FreeRTOS_seL4/cfe/fsw/cfe-core/src/es/cfe_es_api.c ****          {
1034:/home/simulink/cFS_FreeRTOS_seL4/cfe/fsw/cfe-core/src/es/cfe_es_api.c ****             /*
1035:/home/simulink/cFS_FreeRTOS_seL4/cfe/fsw/cfe-core/src/es/cfe_es_api.c ****             ** Truncate the priority if needed
1036:/home/simulink/cFS_FreeRTOS_seL4/cfe/fsw/cfe-core/src/es/cfe_es_api.c ****             */                          
1037:/home/simulink/cFS_FreeRTOS_seL4/cfe/fsw/cfe-core/src/es/cfe_es_api.c ****             if ( Priority >  255  )
 1833               	.loc 2 1037 0
 1834 0f50 203C 0000 	move.l #255,%d0
 1834      00FF 
 1835 0f56 B0AF 0030 	cmp.l 48(%sp),%d0
 1836 0f5a 640A      	jcc .L99
1038:/home/simulink/cFS_FreeRTOS_seL4/cfe/fsw/cfe-core/src/es/cfe_es_api.c ****             {
1039:/home/simulink/cFS_FreeRTOS_seL4/cfe/fsw/cfe-core/src/es/cfe_es_api.c ****                 Priority = 255;
 1837               	.loc 2 1039 0
 1838 0f5c 223C 0000 	move.l #255,%d1
 1838      00FF 
 1839 0f62 2F41 0030 	move.l %d1,48(%sp)
 1840               	.L99:
1040:/home/simulink/cFS_FreeRTOS_seL4/cfe/fsw/cfe-core/src/es/cfe_es_api.c ****             }
1041:/home/simulink/cFS_FreeRTOS_seL4/cfe/fsw/cfe-core/src/es/cfe_es_api.c **** 
1042:/home/simulink/cFS_FreeRTOS_seL4/cfe/fsw/cfe-core/src/es/cfe_es_api.c ****             /*
1043:/home/simulink/cFS_FreeRTOS_seL4/cfe/fsw/cfe-core/src/es/cfe_es_api.c ****             ** Step 2: Create the new task using the OS API call
1044:/home/simulink/cFS_FreeRTOS_seL4/cfe/fsw/cfe-core/src/es/cfe_es_api.c ****             */
1045:/home/simulink/cFS_FreeRTOS_seL4/cfe/fsw/cfe-core/src/es/cfe_es_api.c ****             Result = OS_TaskCreate(TaskIdPtr, TaskName, FunctionPtr, StackPtr,
 1841               	.loc 2 1045 0
 1842 0f66 4878 0001 	pea 1.w
 1843               	.cfi_def_cfa_offset 32
 1844 0f6a 2F2F 0034 	move.l 52(%sp),-(%sp)
 1845               	.cfi_def_cfa_offset 36
 1846 0f6e 2F2F 0034 	move.l 52(%sp),-(%sp)
68K GAS   			page 68


 1847               	.cfi_def_cfa_offset 40
 1848 0f72 2F2F 0034 	move.l 52(%sp),-(%sp)
 1849               	.cfi_def_cfa_offset 44
 1850 0f76 2F2F 0034 	move.l 52(%sp),-(%sp)
 1851               	.cfi_def_cfa_offset 48
 1852 0f7a 2F2F 0034 	move.l 52(%sp),-(%sp)
 1853               	.cfi_def_cfa_offset 52
 1854 0f7e 2F2F 0034 	move.l 52(%sp),-(%sp)
 1855               	.cfi_def_cfa_offset 56
 1856 0f82 4EB9 0000 	jsr OS_TaskCreate
 1856      0000 
 1857 0f88 4FEF 001C 	lea (28,%sp),%sp
 1858               	.cfi_def_cfa_offset 28
 1859 0f8c 2F40 0010 	move.l %d0,16(%sp)
1046:/home/simulink/cFS_FreeRTOS_seL4/cfe/fsw/cfe-core/src/es/cfe_es_api.c ****                                 StackSize, Priority, OS_FP_ENABLED );
1047:/home/simulink/cFS_FreeRTOS_seL4/cfe/fsw/cfe-core/src/es/cfe_es_api.c **** 
1048:/home/simulink/cFS_FreeRTOS_seL4/cfe/fsw/cfe-core/src/es/cfe_es_api.c ****             /*
1049:/home/simulink/cFS_FreeRTOS_seL4/cfe/fsw/cfe-core/src/es/cfe_es_api.c ****             ** Step 3: Record the task information in the task table
1050:/home/simulink/cFS_FreeRTOS_seL4/cfe/fsw/cfe-core/src/es/cfe_es_api.c ****             */
1051:/home/simulink/cFS_FreeRTOS_seL4/cfe/fsw/cfe-core/src/es/cfe_es_api.c ****             if ( Result == OS_SUCCESS )
 1860               	.loc 2 1051 0
 1861 0f90 4AAF 0010 	tst.l 16(%sp)
 1862 0f94 6600 00E2 	jne .L100
1052:/home/simulink/cFS_FreeRTOS_seL4/cfe/fsw/cfe-core/src/es/cfe_es_api.c ****             {
1053:/home/simulink/cFS_FreeRTOS_seL4/cfe/fsw/cfe-core/src/es/cfe_es_api.c ****                OS_ConvertToArrayIndex(*TaskIdPtr, &TaskId);
 1863               	.loc 2 1053 0
 1864 0f98 206F 001C 	move.l 28(%sp),%a0
 1865 0f9c 2210      	move.l (%a0),%d1
 1866 0f9e 200F      	move.l %sp,%d0
 1867 0fa0 5880      	addq.l #4,%d0
 1868 0fa2 2F00      	move.l %d0,-(%sp)
 1869               	.cfi_def_cfa_offset 32
 1870 0fa4 2F01      	move.l %d1,-(%sp)
 1871               	.cfi_def_cfa_offset 36
 1872 0fa6 4EBA F058 	jsr OS_ConvertToArrayIndex
 1873 0faa 508F      	addq.l #8,%sp
 1874               	.cfi_def_cfa_offset 28
1054:/home/simulink/cFS_FreeRTOS_seL4/cfe/fsw/cfe-core/src/es/cfe_es_api.c **** 
1055:/home/simulink/cFS_FreeRTOS_seL4/cfe/fsw/cfe-core/src/es/cfe_es_api.c ****                CFE_ES_Global.TaskTable[TaskId].RecordUsed = TRUE;
 1875               	.loc 2 1055 0
 1876 0fac 202F 0004 	move.l 4(%sp),%d0
 1877 0fb0 5280      	addq.l #1,%d0
 1878 0fb2 7424      	moveq #36,%d2
 1879 0fb4 4C02 0800 	muls.l %d2,%d0
 1880 0fb8 41F9 0000 	lea CFE_ES_Global,%a0
 1880      0000 
 1881 0fbe 7201      	moveq #1,%d1
 1882 0fc0 1181 0800 	move.b %d1,(%a0,%d0.l)
1056:/home/simulink/cFS_FreeRTOS_seL4/cfe/fsw/cfe-core/src/es/cfe_es_api.c ****                CFE_ES_Global.TaskTable[TaskId].AppId = AppId;
 1883               	.loc 2 1056 0
 1884 0fc4 202F 0004 	move.l 4(%sp),%d0
 1885 0fc8 222F 0008 	move.l 8(%sp),%d1
 1886 0fcc 7424      	moveq #36,%d2
 1887 0fce 4C02 0800 	muls.l %d2,%d0
 1888 0fd2 41F9 0000 	lea CFE_ES_Global+40,%a0
 1888      0000 
 1889 0fd8 2181 0800 	move.l %d1,(%a0,%d0.l)
68K GAS   			page 69


1057:/home/simulink/cFS_FreeRTOS_seL4/cfe/fsw/cfe-core/src/es/cfe_es_api.c ****                CFE_ES_Global.TaskTable[TaskId].TaskId = *TaskIdPtr;
 1890               	.loc 2 1057 0
 1891 0fdc 202F 0004 	move.l 4(%sp),%d0
 1892 0fe0 206F 001C 	move.l 28(%sp),%a0
 1893 0fe4 2210      	move.l (%a0),%d1
 1894 0fe6 7424      	moveq #36,%d2
 1895 0fe8 4C02 0800 	muls.l %d2,%d0
 1896 0fec 41F9 0000 	lea CFE_ES_Global+44,%a0
 1896      0000 
 1897 0ff2 2181 0800 	move.l %d1,(%a0,%d0.l)
1058:/home/simulink/cFS_FreeRTOS_seL4/cfe/fsw/cfe-core/src/es/cfe_es_api.c ****                strncpy((char *)CFE_ES_Global.TaskTable[TaskId].TaskName,TaskName,OS_MAX_API_NAME);
 1898               	.loc 2 1058 0
 1899 0ff6 202F 0004 	move.l 4(%sp),%d0
 1900 0ffa 7224      	moveq #36,%d1
 1901 0ffc 4C01 0800 	muls.l %d1,%d0
 1902 1000 0680 0000 	add.l #52,%d0
 1902      0034 
 1903 1006 0680 0000 	add.l #CFE_ES_Global,%d0
 1903      0000 
 1904 100c 4878 0014 	pea 20.w
 1905               	.cfi_def_cfa_offset 32
 1906 1010 2F2F 0024 	move.l 36(%sp),-(%sp)
 1907               	.cfi_def_cfa_offset 36
 1908 1014 2F00      	move.l %d0,-(%sp)
 1909               	.cfi_def_cfa_offset 40
 1910 1016 4EB9 0000 	jsr strncpy
 1910      0000 
 1911 101c 4FEF 000C 	lea (12,%sp),%sp
 1912               	.cfi_def_cfa_offset 28
1059:/home/simulink/cFS_FreeRTOS_seL4/cfe/fsw/cfe-core/src/es/cfe_es_api.c ****                CFE_ES_Global.TaskTable[TaskId].TaskName[OS_MAX_API_NAME - 1] = '\0';
 1913               	.loc 2 1059 0
 1914 1020 202F 0004 	move.l 4(%sp),%d0
 1915 1024 7424      	moveq #36,%d2
 1916 1026 4C02 0800 	muls.l %d2,%d0
 1917 102a 41F9 0000 	lea CFE_ES_Global+71,%a0
 1917      0000 
 1918 1030 4201      	clr.b %d1
 1919 1032 1181 0800 	move.b %d1,(%a0,%d0.l)
1060:/home/simulink/cFS_FreeRTOS_seL4/cfe/fsw/cfe-core/src/es/cfe_es_api.c ****                CFE_ES_Global.RegisteredTasks++;
 1920               	.loc 2 1060 0
 1921 1036 2039 0000 	move.l CFE_ES_Global+32,%d0
 1921      0000 
 1922 103c 5280      	addq.l #1,%d0
 1923 103e 23C0 0000 	move.l %d0,CFE_ES_Global+32
 1923      0000 
1061:/home/simulink/cFS_FreeRTOS_seL4/cfe/fsw/cfe-core/src/es/cfe_es_api.c **** 
1062:/home/simulink/cFS_FreeRTOS_seL4/cfe/fsw/cfe-core/src/es/cfe_es_api.c ****                /*
1063:/home/simulink/cFS_FreeRTOS_seL4/cfe/fsw/cfe-core/src/es/cfe_es_api.c ****                ** Increment the "Registered" child task count for the App
1064:/home/simulink/cFS_FreeRTOS_seL4/cfe/fsw/cfe-core/src/es/cfe_es_api.c ****                */
1065:/home/simulink/cFS_FreeRTOS_seL4/cfe/fsw/cfe-core/src/es/cfe_es_api.c ****                CFE_ES_Global.AppTable[AppId].TaskInfo.NumOfChildTasks ++;
 1924               	.loc 2 1065 0
 1925 1044 202F 0008 	move.l 8(%sp),%d0
 1926 1048 223C 0000 	move.l #168,%d1
 1926      00A8 
 1927 104e 4C00 1800 	muls.l %d0,%d1
 1928 1052 41F9 0000 	lea CFE_ES_Global+2512,%a0
 1928      0000 
68K GAS   			page 70


 1929 1058 2230 1800 	move.l (%a0,%d1.l),%d1
 1930 105c 5281      	addq.l #1,%d1
 1931 105e 243C 0000 	move.l #168,%d2
 1931      00A8 
 1932 1064 4C02 0800 	muls.l %d2,%d0
 1933 1068 41F9 0000 	lea CFE_ES_Global+2512,%a0
 1933      0000 
 1934 106e 2181 0800 	move.l %d1,(%a0,%d0.l)
1066:/home/simulink/cFS_FreeRTOS_seL4/cfe/fsw/cfe-core/src/es/cfe_es_api.c **** 
1067:/home/simulink/cFS_FreeRTOS_seL4/cfe/fsw/cfe-core/src/es/cfe_es_api.c ****                ReturnCode = CFE_SUCCESS;
 1935               	.loc 2 1067 0
 1936 1072 42AF 0014 	clr.l 20(%sp)
 1937 1076 6042      	jra .L97
 1938               	.L100:
1068:/home/simulink/cFS_FreeRTOS_seL4/cfe/fsw/cfe-core/src/es/cfe_es_api.c ****             }
1069:/home/simulink/cFS_FreeRTOS_seL4/cfe/fsw/cfe-core/src/es/cfe_es_api.c ****             else
1070:/home/simulink/cFS_FreeRTOS_seL4/cfe/fsw/cfe-core/src/es/cfe_es_api.c ****             {
1071:/home/simulink/cFS_FreeRTOS_seL4/cfe/fsw/cfe-core/src/es/cfe_es_api.c ****                CFE_ES_WriteToSysLog("CFE_ES_CreateChildTask: Error calling OS_TaskCreate for Task '
 1939               	.loc 2 1071 0
 1940 1078 202F 0010 	move.l 16(%sp),%d0
 1941 107c 2F00      	move.l %d0,-(%sp)
 1942               	.cfi_def_cfa_offset 32
 1943 107e 2F2F 0024 	move.l 36(%sp),-(%sp)
 1944               	.cfi_def_cfa_offset 36
 1945 1082 4879 0000 	pea .LC33
 1945      0000 
 1946               	.cfi_def_cfa_offset 40
 1947 1088 4EB9 0000 	jsr CFE_ES_WriteToSysLog
 1947      0000 
 1948 108e 4FEF 000C 	lea (12,%sp),%sp
 1949               	.cfi_def_cfa_offset 28
1072:/home/simulink/cFS_FreeRTOS_seL4/cfe/fsw/cfe-core/src/es/cfe_es_api.c ****                ReturnCode = CFE_ES_ERR_CHILD_TASK_CREATE;
 1950               	.loc 2 1072 0
 1951 1092 227C C400 	move.l #-1006632955,%a1
 1951      0005 
 1952 1098 2F49 0014 	move.l %a1,20(%sp)
 1953 109c 601C      	jra .L97
 1954               	.L98:
1073:/home/simulink/cFS_FreeRTOS_seL4/cfe/fsw/cfe-core/src/es/cfe_es_api.c ****             }
1074:/home/simulink/cFS_FreeRTOS_seL4/cfe/fsw/cfe-core/src/es/cfe_es_api.c ****          } 
1075:/home/simulink/cFS_FreeRTOS_seL4/cfe/fsw/cfe-core/src/es/cfe_es_api.c ****          else
1076:/home/simulink/cFS_FreeRTOS_seL4/cfe/fsw/cfe-core/src/es/cfe_es_api.c ****          {
1077:/home/simulink/cFS_FreeRTOS_seL4/cfe/fsw/cfe-core/src/es/cfe_es_api.c ****             CFE_ES_WriteToSysLog("CFE_ES_CreateChildTask: Error: Cannot call from a Child Task (for
 1955               	.loc 2 1077 0
 1956 109e 2F2F 0020 	move.l 32(%sp),-(%sp)
 1957               	.cfi_def_cfa_offset 32
 1958 10a2 4879 0000 	pea .LC34
 1958      0000 
 1959               	.cfi_def_cfa_offset 36
 1960 10a8 4EB9 0000 	jsr CFE_ES_WriteToSysLog
 1960      0000 
 1961 10ae 508F      	addq.l #8,%sp
 1962               	.cfi_def_cfa_offset 28
1078:/home/simulink/cFS_FreeRTOS_seL4/cfe/fsw/cfe-core/src/es/cfe_es_api.c ****             ReturnCode = CFE_ES_ERR_CHILD_TASK_CREATE;
 1963               	.loc 2 1078 0
 1964 10b0 203C C400 	move.l #-1006632955,%d0
 1964      0005 
68K GAS   			page 71


 1965 10b6 2F40 0014 	move.l %d0,20(%sp)
 1966               	.L97:
1079:/home/simulink/cFS_FreeRTOS_seL4/cfe/fsw/cfe-core/src/es/cfe_es_api.c ****          
1080:/home/simulink/cFS_FreeRTOS_seL4/cfe/fsw/cfe-core/src/es/cfe_es_api.c ****          } /* end if Calling task is a main task */
1081:/home/simulink/cFS_FreeRTOS_seL4/cfe/fsw/cfe-core/src/es/cfe_es_api.c ****          
1082:/home/simulink/cFS_FreeRTOS_seL4/cfe/fsw/cfe-core/src/es/cfe_es_api.c ****       }/* end If AppID is valid */
1083:/home/simulink/cFS_FreeRTOS_seL4/cfe/fsw/cfe-core/src/es/cfe_es_api.c ****       
1084:/home/simulink/cFS_FreeRTOS_seL4/cfe/fsw/cfe-core/src/es/cfe_es_api.c ****       CFE_ES_UnlockSharedData(__func__,__LINE__);
 1967               	.loc 2 1084 0
 1968 10ba 4878 043C 	pea 1084.w
 1969               	.cfi_def_cfa_offset 32
 1970 10be 4879 0000 	pea __func__.5857
 1970      0000 
 1971               	.cfi_def_cfa_offset 36
 1972 10c4 4EB9 0000 	jsr CFE_ES_UnlockSharedData
 1972      0000 
 1973 10ca 508F      	addq.l #8,%sp
 1974               	.cfi_def_cfa_offset 28
 1975               	.L93:
1085:/home/simulink/cFS_FreeRTOS_seL4/cfe/fsw/cfe-core/src/es/cfe_es_api.c **** 
1086:/home/simulink/cFS_FreeRTOS_seL4/cfe/fsw/cfe-core/src/es/cfe_es_api.c ****    } /* end if parameter checking */
1087:/home/simulink/cFS_FreeRTOS_seL4/cfe/fsw/cfe-core/src/es/cfe_es_api.c ****    
1088:/home/simulink/cFS_FreeRTOS_seL4/cfe/fsw/cfe-core/src/es/cfe_es_api.c ****    return(ReturnCode);
 1976               	.loc 2 1088 0
 1977 10cc 202F 0014 	move.l 20(%sp),%d0
1089:/home/simulink/cFS_FreeRTOS_seL4/cfe/fsw/cfe-core/src/es/cfe_es_api.c **** 
1090:/home/simulink/cFS_FreeRTOS_seL4/cfe/fsw/cfe-core/src/es/cfe_es_api.c **** } /* End of CFE_ES_CreateChildTask() */
 1978               	.loc 2 1090 0
 1979 10d0 241F      	move.l (%sp)+,%d2
 1980 10d2 4FEF 0014 	lea (20,%sp),%sp
 1981 10d6 4E75      	rts
 1982               	.cfi_endproc
 1983               	.LFE73:
 1984               	.sizeCFE_ES_CreateChildTask, .-CFE_ES_CreateChildTask
 1985               	.align2
 1986               	.globlCFE_ES_RegisterChildTask
 1987               	.typeCFE_ES_RegisterChildTask, @function
 1988               	CFE_ES_RegisterChildTask:
 1989               	.LFB74:
1091:/home/simulink/cFS_FreeRTOS_seL4/cfe/fsw/cfe-core/src/es/cfe_es_api.c **** 
1092:/home/simulink/cFS_FreeRTOS_seL4/cfe/fsw/cfe-core/src/es/cfe_es_api.c **** 
1093:/home/simulink/cFS_FreeRTOS_seL4/cfe/fsw/cfe-core/src/es/cfe_es_api.c **** /*
1094:/home/simulink/cFS_FreeRTOS_seL4/cfe/fsw/cfe-core/src/es/cfe_es_api.c **** ** Function: CFE_ES_RegisterChildTask
1095:/home/simulink/cFS_FreeRTOS_seL4/cfe/fsw/cfe-core/src/es/cfe_es_api.c **** **
1096:/home/simulink/cFS_FreeRTOS_seL4/cfe/fsw/cfe-core/src/es/cfe_es_api.c **** ** Purpose:  Register a child task. This must be called by a Child Task before any
1097:/home/simulink/cFS_FreeRTOS_seL4/cfe/fsw/cfe-core/src/es/cfe_es_api.c **** **           other cFE calls.
1098:/home/simulink/cFS_FreeRTOS_seL4/cfe/fsw/cfe-core/src/es/cfe_es_api.c **** **
1099:/home/simulink/cFS_FreeRTOS_seL4/cfe/fsw/cfe-core/src/es/cfe_es_api.c **** */
1100:/home/simulink/cFS_FreeRTOS_seL4/cfe/fsw/cfe-core/src/es/cfe_es_api.c **** int32 CFE_ES_RegisterChildTask(void)
1101:/home/simulink/cFS_FreeRTOS_seL4/cfe/fsw/cfe-core/src/es/cfe_es_api.c **** {
 1990               	.loc 2 1101 0
 1991               	.cfi_startproc
 1992 10d8 518F      	subq.l #8,%sp
 1993               	.cfi_def_cfa_offset 12
1102:/home/simulink/cFS_FreeRTOS_seL4/cfe/fsw/cfe-core/src/es/cfe_es_api.c ****    int32 Result;
1103:/home/simulink/cFS_FreeRTOS_seL4/cfe/fsw/cfe-core/src/es/cfe_es_api.c ****    int32 ReturnCode;
1104:/home/simulink/cFS_FreeRTOS_seL4/cfe/fsw/cfe-core/src/es/cfe_es_api.c **** 
68K GAS   			page 72


1105:/home/simulink/cFS_FreeRTOS_seL4/cfe/fsw/cfe-core/src/es/cfe_es_api.c ****    CFE_ES_LockSharedData(__func__,__LINE__);
 1994               	.loc 2 1105 0
 1995 10da 4878 0451 	pea 1105.w
 1996               	.cfi_def_cfa_offset 16
 1997 10de 4879 0000 	pea __func__.5863
 1997      0000 
 1998               	.cfi_def_cfa_offset 20
 1999 10e4 4EB9 0000 	jsr CFE_ES_LockSharedData
 1999      0000 
 2000 10ea 508F      	addq.l #8,%sp
 2001               	.cfi_def_cfa_offset 12
1106:/home/simulink/cFS_FreeRTOS_seL4/cfe/fsw/cfe-core/src/es/cfe_es_api.c **** 
1107:/home/simulink/cFS_FreeRTOS_seL4/cfe/fsw/cfe-core/src/es/cfe_es_api.c ****    /*
1108:/home/simulink/cFS_FreeRTOS_seL4/cfe/fsw/cfe-core/src/es/cfe_es_api.c ****    ** Register the task with the OS 
1109:/home/simulink/cFS_FreeRTOS_seL4/cfe/fsw/cfe-core/src/es/cfe_es_api.c ****    */
1110:/home/simulink/cFS_FreeRTOS_seL4/cfe/fsw/cfe-core/src/es/cfe_es_api.c ****    Result = OS_TaskRegister();
 2002               	.loc 2 1110 0
 2003 10ec 4EB9 0000 	jsr OS_TaskRegister
 2003      0000 
 2004 10f2 2E80      	move.l %d0,(%sp)
1111:/home/simulink/cFS_FreeRTOS_seL4/cfe/fsw/cfe-core/src/es/cfe_es_api.c **** 
1112:/home/simulink/cFS_FreeRTOS_seL4/cfe/fsw/cfe-core/src/es/cfe_es_api.c ****    if (Result != OS_SUCCESS)
 2005               	.loc 2 1112 0
 2006 10f4 4A97      	tst.l (%sp)
 2007 10f6 670C      	jeq .L104
1113:/home/simulink/cFS_FreeRTOS_seL4/cfe/fsw/cfe-core/src/es/cfe_es_api.c ****    {
1114:/home/simulink/cFS_FreeRTOS_seL4/cfe/fsw/cfe-core/src/es/cfe_es_api.c ****        /* 
1115:/home/simulink/cFS_FreeRTOS_seL4/cfe/fsw/cfe-core/src/es/cfe_es_api.c ****        ** Cannot create a syslog entry here because it requires the task to 
1116:/home/simulink/cFS_FreeRTOS_seL4/cfe/fsw/cfe-core/src/es/cfe_es_api.c ****        ** be registered
1117:/home/simulink/cFS_FreeRTOS_seL4/cfe/fsw/cfe-core/src/es/cfe_es_api.c ****        */
1118:/home/simulink/cFS_FreeRTOS_seL4/cfe/fsw/cfe-core/src/es/cfe_es_api.c ****        ReturnCode = CFE_ES_ERR_CHILD_TASK_REGISTER;
 2008               	.loc 2 1118 0
 2009 10f8 203C C400 	move.l #-1006632949,%d0
 2009      000B 
 2010 10fe 2F40 0004 	move.l %d0,4(%sp)
 2011 1102 6004      	jra .L105
 2012               	.L104:
1119:/home/simulink/cFS_FreeRTOS_seL4/cfe/fsw/cfe-core/src/es/cfe_es_api.c ****    }
1120:/home/simulink/cFS_FreeRTOS_seL4/cfe/fsw/cfe-core/src/es/cfe_es_api.c ****    else
1121:/home/simulink/cFS_FreeRTOS_seL4/cfe/fsw/cfe-core/src/es/cfe_es_api.c ****    { 
1122:/home/simulink/cFS_FreeRTOS_seL4/cfe/fsw/cfe-core/src/es/cfe_es_api.c ****        ReturnCode = CFE_SUCCESS;
 2013               	.loc 2 1122 0
 2014 1104 42AF 0004 	clr.l 4(%sp)
 2015               	.L105:
1123:/home/simulink/cFS_FreeRTOS_seL4/cfe/fsw/cfe-core/src/es/cfe_es_api.c ****    }
1124:/home/simulink/cFS_FreeRTOS_seL4/cfe/fsw/cfe-core/src/es/cfe_es_api.c ****    
1125:/home/simulink/cFS_FreeRTOS_seL4/cfe/fsw/cfe-core/src/es/cfe_es_api.c ****    /*
1126:/home/simulink/cFS_FreeRTOS_seL4/cfe/fsw/cfe-core/src/es/cfe_es_api.c ****    ** Set the default exception environment
1127:/home/simulink/cFS_FreeRTOS_seL4/cfe/fsw/cfe-core/src/es/cfe_es_api.c ****    */
1128:/home/simulink/cFS_FreeRTOS_seL4/cfe/fsw/cfe-core/src/es/cfe_es_api.c ****    CFE_PSP_SetDefaultExceptionEnvironment();
 2016               	.loc 2 1128 0
 2017 1108 4EB9 0000 	jsr CFE_PSP_SetDefaultExceptionEnvironment
 2017      0000 
1129:/home/simulink/cFS_FreeRTOS_seL4/cfe/fsw/cfe-core/src/es/cfe_es_api.c **** 
1130:/home/simulink/cFS_FreeRTOS_seL4/cfe/fsw/cfe-core/src/es/cfe_es_api.c ****    CFE_ES_UnlockSharedData(__func__,__LINE__);
 2018               	.loc 2 1130 0
 2019 110e 4878 046A 	pea 1130.w
68K GAS   			page 73


 2020               	.cfi_def_cfa_offset 16
 2021 1112 4879 0000 	pea __func__.5863
 2021      0000 
 2022               	.cfi_def_cfa_offset 20
 2023 1118 4EB9 0000 	jsr CFE_ES_UnlockSharedData
 2023      0000 
 2024 111e 508F      	addq.l #8,%sp
 2025               	.cfi_def_cfa_offset 12
1131:/home/simulink/cFS_FreeRTOS_seL4/cfe/fsw/cfe-core/src/es/cfe_es_api.c **** 
1132:/home/simulink/cFS_FreeRTOS_seL4/cfe/fsw/cfe-core/src/es/cfe_es_api.c ****    return(ReturnCode);
 2026               	.loc 2 1132 0
 2027 1120 202F 0004 	move.l 4(%sp),%d0
1133:/home/simulink/cFS_FreeRTOS_seL4/cfe/fsw/cfe-core/src/es/cfe_es_api.c **** 
1134:/home/simulink/cFS_FreeRTOS_seL4/cfe/fsw/cfe-core/src/es/cfe_es_api.c **** } /* End of CFE_ES_RegisterChildTask() */
 2028               	.loc 2 1134 0
 2029 1124 508F      	addq.l #8,%sp
 2030 1126 4E75      	rts
 2031               	.cfi_endproc
 2032               	.LFE74:
 2033               	.sizeCFE_ES_RegisterChildTask, .-CFE_ES_RegisterChildTask
 2034               	.align2
 2035               	.globlCFE_ES_IncrementTaskCounter
 2036               	.typeCFE_ES_IncrementTaskCounter, @function
 2037               	CFE_ES_IncrementTaskCounter:
 2038               	.LFB75:
1135:/home/simulink/cFS_FreeRTOS_seL4/cfe/fsw/cfe-core/src/es/cfe_es_api.c **** 
1136:/home/simulink/cFS_FreeRTOS_seL4/cfe/fsw/cfe-core/src/es/cfe_es_api.c **** /*
1137:/home/simulink/cFS_FreeRTOS_seL4/cfe/fsw/cfe-core/src/es/cfe_es_api.c **** ** Function: CFE_ES_IncrementTaskCounter
1138:/home/simulink/cFS_FreeRTOS_seL4/cfe/fsw/cfe-core/src/es/cfe_es_api.c **** **
1139:/home/simulink/cFS_FreeRTOS_seL4/cfe/fsw/cfe-core/src/es/cfe_es_api.c **** ** Purpose:  Increment the Child Task Execution Counter.
1140:/home/simulink/cFS_FreeRTOS_seL4/cfe/fsw/cfe-core/src/es/cfe_es_api.c **** **
1141:/home/simulink/cFS_FreeRTOS_seL4/cfe/fsw/cfe-core/src/es/cfe_es_api.c **** */
1142:/home/simulink/cFS_FreeRTOS_seL4/cfe/fsw/cfe-core/src/es/cfe_es_api.c **** void CFE_ES_IncrementTaskCounter(void)
1143:/home/simulink/cFS_FreeRTOS_seL4/cfe/fsw/cfe-core/src/es/cfe_es_api.c **** {
 2039               	.loc 2 1143 0
 2040               	.cfi_startproc
 2041 1128 598F      	subq.l #4,%sp
 2042               	.cfi_def_cfa_offset 8
 2043 112a 2F02      	move.l %d2,-(%sp)
 2044               	.cfi_def_cfa_offset 12
 2045               	.cfi_offset 2, -12
1144:/home/simulink/cFS_FreeRTOS_seL4/cfe/fsw/cfe-core/src/es/cfe_es_api.c ****    uint32 TaskId;
1145:/home/simulink/cFS_FreeRTOS_seL4/cfe/fsw/cfe-core/src/es/cfe_es_api.c **** 
1146:/home/simulink/cFS_FreeRTOS_seL4/cfe/fsw/cfe-core/src/es/cfe_es_api.c ****    if (OS_ConvertToArrayIndex(OS_TaskGetId(), &TaskId) == OS_SUCCESS)
 2046               	.loc 2 1146 0
 2047 112c 4EB9 0000 	jsr OS_TaskGetId
 2047      0000 
 2048 1132 220F      	move.l %sp,%d1
 2049 1134 5881      	addq.l #4,%d1
 2050 1136 2F01      	move.l %d1,-(%sp)
 2051               	.cfi_def_cfa_offset 16
 2052 1138 2F00      	move.l %d0,-(%sp)
 2053               	.cfi_def_cfa_offset 20
 2054 113a 4EBA EEC4 	jsr OS_ConvertToArrayIndex
 2055 113e 508F      	addq.l #8,%sp
 2056               	.cfi_def_cfa_offset 12
 2057 1140 4A80      	tst.l %d0
68K GAS   			page 74


 2058 1142 6626      	jne .L109
1147:/home/simulink/cFS_FreeRTOS_seL4/cfe/fsw/cfe-core/src/es/cfe_es_api.c ****    {
1148:/home/simulink/cFS_FreeRTOS_seL4/cfe/fsw/cfe-core/src/es/cfe_es_api.c ****       CFE_ES_Global.TaskTable[TaskId].ExecutionCounter++;
 2059               	.loc 2 1148 0
 2060 1144 202F 0004 	move.l 4(%sp),%d0
 2061 1148 7224      	moveq #36,%d1
 2062 114a 4C00 1800 	muls.l %d0,%d1
 2063 114e 41F9 0000 	lea CFE_ES_Global+48,%a0
 2063      0000 
 2064 1154 2230 1800 	move.l (%a0,%d1.l),%d1
 2065 1158 5281      	addq.l #1,%d1
 2066 115a 7424      	moveq #36,%d2
 2067 115c 4C02 0800 	muls.l %d2,%d0
 2068 1160 41F9 0000 	lea CFE_ES_Global+48,%a0
 2068      0000 
 2069 1166 2181 0800 	move.l %d1,(%a0,%d0.l)
 2070               	.L109:
1149:/home/simulink/cFS_FreeRTOS_seL4/cfe/fsw/cfe-core/src/es/cfe_es_api.c ****    }
1150:/home/simulink/cFS_FreeRTOS_seL4/cfe/fsw/cfe-core/src/es/cfe_es_api.c ****    
1151:/home/simulink/cFS_FreeRTOS_seL4/cfe/fsw/cfe-core/src/es/cfe_es_api.c **** } /* End of CFE_ES_ExitChildTask() */
 2071               	.loc 2 1151 0
 2072 116a 4E71      	nop
 2073 116c 241F      	move.l (%sp)+,%d2
 2074 116e 588F      	addq.l #4,%sp
 2075 1170 4E75      	rts
 2076               	.cfi_endproc
 2077               	.LFE75:
 2078               	.sizeCFE_ES_IncrementTaskCounter, .-CFE_ES_IncrementTaskCounter
 2079               	.section.rodata
 2080               	.LC35:
 2081 081a 4346 455F 	.string"CFE_ES_DeleteChildTask Task %u Deleted\n"
 2081      4553 5F44 
 2081      656C 6574 
 2081      6543 6869 
 2081      6C64 5461 
 2082               	.LC36:
 2083 0842 4346 455F 	.string"CFE_ES_DeleteChildTask Error: Error Calling OS_TaskDelete: Task %u, RC = 0x%08X\n"
 2083      4553 5F44 
 2083      656C 6574 
 2083      6543 6869 
 2083      6C64 5461 
 2084               	.LC37:
 2085 0893 4346 455F 	.string"CFE_ES_DeleteChildTask Error: Task %u is a cFE Main Task.\n"
 2085      4553 5F44 
 2085      656C 6574 
 2085      6543 6869 
 2085      6C64 5461 
 2086               	.LC38:
 2087 08ce 4346 455F 	.string"CFE_ES_DeleteChildTask Error: Task ID is not active: %u\n"
 2087      4553 5F44 
 2087      656C 6574 
 2087      6543 6869 
 2087      6C64 5461 
 2088               	.LC39:
 2089 0907 4346 455F 	.string"CFE_ES_DeleteChildTask Error: Invalid Task ID: %u\n"
 2089      4553 5F44 
 2089      656C 6574 
68K GAS   			page 75


 2089      6543 6869 
 2089      6C64 5461 
 2090               	.text
 2091               	.align2
 2092               	.globlCFE_ES_DeleteChildTask
 2093               	.typeCFE_ES_DeleteChildTask, @function
 2094               	CFE_ES_DeleteChildTask:
 2095               	.LFB76:
1152:/home/simulink/cFS_FreeRTOS_seL4/cfe/fsw/cfe-core/src/es/cfe_es_api.c **** 
1153:/home/simulink/cFS_FreeRTOS_seL4/cfe/fsw/cfe-core/src/es/cfe_es_api.c **** 
1154:/home/simulink/cFS_FreeRTOS_seL4/cfe/fsw/cfe-core/src/es/cfe_es_api.c **** 
1155:/home/simulink/cFS_FreeRTOS_seL4/cfe/fsw/cfe-core/src/es/cfe_es_api.c **** /*
1156:/home/simulink/cFS_FreeRTOS_seL4/cfe/fsw/cfe-core/src/es/cfe_es_api.c **** ** Function: CFE_ES_DeleteChildTask
1157:/home/simulink/cFS_FreeRTOS_seL4/cfe/fsw/cfe-core/src/es/cfe_es_api.c **** **
1158:/home/simulink/cFS_FreeRTOS_seL4/cfe/fsw/cfe-core/src/es/cfe_es_api.c **** ** Purpose:  Remove a Child Task from the cFE system.
1159:/home/simulink/cFS_FreeRTOS_seL4/cfe/fsw/cfe-core/src/es/cfe_es_api.c **** **
1160:/home/simulink/cFS_FreeRTOS_seL4/cfe/fsw/cfe-core/src/es/cfe_es_api.c **** */
1161:/home/simulink/cFS_FreeRTOS_seL4/cfe/fsw/cfe-core/src/es/cfe_es_api.c **** int32 CFE_ES_DeleteChildTask(uint32 OSTaskId)
1162:/home/simulink/cFS_FreeRTOS_seL4/cfe/fsw/cfe-core/src/es/cfe_es_api.c **** {
 2096               	.loc 2 1162 0
 2097               	.cfi_startproc
 2098 1172 4FEF FFEC 	lea (-20,%sp),%sp
 2099               	.cfi_def_cfa_offset 24
1163:/home/simulink/cFS_FreeRTOS_seL4/cfe/fsw/cfe-core/src/es/cfe_es_api.c ****     uint32  i;
1164:/home/simulink/cFS_FreeRTOS_seL4/cfe/fsw/cfe-core/src/es/cfe_es_api.c ****     uint32  TaskId;
1165:/home/simulink/cFS_FreeRTOS_seL4/cfe/fsw/cfe-core/src/es/cfe_es_api.c ****     uint32  TaskIsMain = FALSE;
 2100               	.loc 2 1165 0
 2101 1176 42AF 000C 	clr.l 12(%sp)
1166:/home/simulink/cFS_FreeRTOS_seL4/cfe/fsw/cfe-core/src/es/cfe_es_api.c ****     int32   ReturnCode = CFE_SUCCESS;
 2102               	.loc 2 1166 0
 2103 117a 42AF 0008 	clr.l 8(%sp)
1167:/home/simulink/cFS_FreeRTOS_seL4/cfe/fsw/cfe-core/src/es/cfe_es_api.c ****     int32   OSReturnCode;
1168:/home/simulink/cFS_FreeRTOS_seL4/cfe/fsw/cfe-core/src/es/cfe_es_api.c **** 
1169:/home/simulink/cFS_FreeRTOS_seL4/cfe/fsw/cfe-core/src/es/cfe_es_api.c **** 
1170:/home/simulink/cFS_FreeRTOS_seL4/cfe/fsw/cfe-core/src/es/cfe_es_api.c ****     /*
1171:/home/simulink/cFS_FreeRTOS_seL4/cfe/fsw/cfe-core/src/es/cfe_es_api.c ****     ** Make sure the task ID is within range
1172:/home/simulink/cFS_FreeRTOS_seL4/cfe/fsw/cfe-core/src/es/cfe_es_api.c ****     */
1173:/home/simulink/cFS_FreeRTOS_seL4/cfe/fsw/cfe-core/src/es/cfe_es_api.c ****     if (OS_ConvertToArrayIndex(OSTaskId, &TaskId) == OS_SUCCESS)
 2104               	.loc 2 1173 0
 2105 117e 200F      	move.l %sp,%d0
 2106 1180 2F00      	move.l %d0,-(%sp)
 2107               	.cfi_def_cfa_offset 28
 2108 1182 2F2F 001C 	move.l 28(%sp),-(%sp)
 2109               	.cfi_def_cfa_offset 32
 2110 1186 4EBA EE78 	jsr OS_ConvertToArrayIndex
 2111 118a 508F      	addq.l #8,%sp
 2112               	.cfi_def_cfa_offset 24
 2113 118c 4A80      	tst.l %d0
 2114 118e 6600 0170 	jne .L111
1174:/home/simulink/cFS_FreeRTOS_seL4/cfe/fsw/cfe-core/src/es/cfe_es_api.c ****     {
1175:/home/simulink/cFS_FreeRTOS_seL4/cfe/fsw/cfe-core/src/es/cfe_es_api.c ****        CFE_ES_LockSharedData(__func__,__LINE__);
 2115               	.loc 2 1175 0
 2116 1192 4878 0497 	pea 1175.w
 2117               	.cfi_def_cfa_offset 28
 2118 1196 4879 0000 	pea __func__.5876
 2118      0000 
 2119               	.cfi_def_cfa_offset 32
68K GAS   			page 76


 2120 119c 4EB9 0000 	jsr CFE_ES_LockSharedData
 2120      0000 
 2121 11a2 508F      	addq.l #8,%sp
 2122               	.cfi_def_cfa_offset 24
1176:/home/simulink/cFS_FreeRTOS_seL4/cfe/fsw/cfe-core/src/es/cfe_es_api.c ****     
1177:/home/simulink/cFS_FreeRTOS_seL4/cfe/fsw/cfe-core/src/es/cfe_es_api.c ****        /*
1178:/home/simulink/cFS_FreeRTOS_seL4/cfe/fsw/cfe-core/src/es/cfe_es_api.c ****        ** Make sure the task is active/valid
1179:/home/simulink/cFS_FreeRTOS_seL4/cfe/fsw/cfe-core/src/es/cfe_es_api.c ****        */
1180:/home/simulink/cFS_FreeRTOS_seL4/cfe/fsw/cfe-core/src/es/cfe_es_api.c ****        if (TaskId < OS_MAX_TASKS && CFE_ES_Global.TaskTable[TaskId].RecordUsed == TRUE )
 2123               	.loc 2 1180 0
 2124 11a4 2017      	move.l (%sp),%d0
 2125 11a6 723F      	moveq #63,%d1
 2126 11a8 B280      	cmp.l %d0,%d1
 2127 11aa 6500 0124 	jcs .L112
 2128               	.loc 2 1180 0 is_stmt 0 discriminator 1
 2129 11ae 2017      	move.l (%sp),%d0
 2130 11b0 5280      	addq.l #1,%d0
 2131 11b2 7224      	moveq #36,%d1
 2132 11b4 4C01 0800 	muls.l %d1,%d0
 2133 11b8 41F9 0000 	lea CFE_ES_Global,%a0
 2133      0000 
 2134 11be 1030 0800 	move.b (%a0,%d0.l),%d0
 2135 11c2 1000      	move.b %d0,%d0
 2136 11c4 0280 0000 	and.l #255,%d0
 2136      00FF 
 2137 11ca 7201      	moveq #1,%d1
 2138 11cc B280      	cmp.l %d0,%d1
 2139 11ce 6600 0100 	jne .L112
1181:/home/simulink/cFS_FreeRTOS_seL4/cfe/fsw/cfe-core/src/es/cfe_es_api.c ****        {
1182:/home/simulink/cFS_FreeRTOS_seL4/cfe/fsw/cfe-core/src/es/cfe_es_api.c ****           /*
1183:/home/simulink/cFS_FreeRTOS_seL4/cfe/fsw/cfe-core/src/es/cfe_es_api.c ****           ** Search for this task ID in the ES App Table to make sure
1184:/home/simulink/cFS_FreeRTOS_seL4/cfe/fsw/cfe-core/src/es/cfe_es_api.c ****           ** it is not a cFE App Main Task
1185:/home/simulink/cFS_FreeRTOS_seL4/cfe/fsw/cfe-core/src/es/cfe_es_api.c ****           */
1186:/home/simulink/cFS_FreeRTOS_seL4/cfe/fsw/cfe-core/src/es/cfe_es_api.c ****           TaskIsMain = FALSE;
 2140               	.loc 2 1186 0 is_stmt 1
 2141 11d2 42AF 000C 	clr.l 12(%sp)
1187:/home/simulink/cFS_FreeRTOS_seL4/cfe/fsw/cfe-core/src/es/cfe_es_api.c ****           for ( i = 0; i < CFE_ES_MAX_APPLICATIONS; i++ )
 2142               	.loc 2 1187 0
 2143 11d6 42AF 0010 	clr.l 16(%sp)
 2144 11da 6050      	jra .L113
 2145               	.L116:
1188:/home/simulink/cFS_FreeRTOS_seL4/cfe/fsw/cfe-core/src/es/cfe_es_api.c ****           {
1189:/home/simulink/cFS_FreeRTOS_seL4/cfe/fsw/cfe-core/src/es/cfe_es_api.c ****              if ( CFE_ES_Global.AppTable[i].RecordUsed == TRUE )
 2146               	.loc 2 1189 0
 2147 11dc 202F 0010 	move.l 16(%sp),%d0
 2148 11e0 223C 0000 	move.l #168,%d1
 2148      00A8 
 2149 11e6 4C01 0800 	muls.l %d1,%d0
 2150 11ea 41F9 0000 	lea CFE_ES_Global+2348,%a0
 2150      0000 
 2151 11f0 1030 0800 	move.b (%a0,%d0.l),%d0
 2152 11f4 1000      	move.b %d0,%d0
 2153 11f6 0280 0000 	and.l #255,%d0
 2153      00FF 
 2154 11fc 7201      	moveq #1,%d1
 2155 11fe B280      	cmp.l %d0,%d1
 2156 1200 6626      	jne .L114
68K GAS   			page 77


1190:/home/simulink/cFS_FreeRTOS_seL4/cfe/fsw/cfe-core/src/es/cfe_es_api.c ****              {
1191:/home/simulink/cFS_FreeRTOS_seL4/cfe/fsw/cfe-core/src/es/cfe_es_api.c ****                 if ( CFE_ES_Global.AppTable[i].TaskInfo.MainTaskId == OSTaskId )
 2157               	.loc 2 1191 0
 2158 1202 202F 0010 	move.l 16(%sp),%d0
 2159 1206 223C 0000 	move.l #168,%d1
 2159      00A8 
 2160 120c 4C01 0800 	muls.l %d1,%d0
 2161 1210 41F9 0000 	lea CFE_ES_Global+2488,%a0
 2161      0000 
 2162 1216 2030 0800 	move.l (%a0,%d0.l),%d0
 2163 121a B0AF 0018 	cmp.l 24(%sp),%d0
 2164 121e 6608      	jne .L114
1192:/home/simulink/cFS_FreeRTOS_seL4/cfe/fsw/cfe-core/src/es/cfe_es_api.c ****                 {
1193:/home/simulink/cFS_FreeRTOS_seL4/cfe/fsw/cfe-core/src/es/cfe_es_api.c ****                    /*
1194:/home/simulink/cFS_FreeRTOS_seL4/cfe/fsw/cfe-core/src/es/cfe_es_api.c ****                    ** Error, the task Id is an App Main Task ID
1195:/home/simulink/cFS_FreeRTOS_seL4/cfe/fsw/cfe-core/src/es/cfe_es_api.c ****                    */
1196:/home/simulink/cFS_FreeRTOS_seL4/cfe/fsw/cfe-core/src/es/cfe_es_api.c ****                    TaskIsMain = TRUE;
 2165               	.loc 2 1196 0
 2166 1220 7001      	moveq #1,%d0
 2167 1222 2F40 000C 	move.l %d0,12(%sp)
1197:/home/simulink/cFS_FreeRTOS_seL4/cfe/fsw/cfe-core/src/es/cfe_es_api.c ****                    break; 
 2168               	.loc 2 1197 0
 2169 1226 600C      	jra .L115
 2170               	.L114:
1187:/home/simulink/cFS_FreeRTOS_seL4/cfe/fsw/cfe-core/src/es/cfe_es_api.c ****           {
 2171               	.loc 2 1187 0 discriminator 2
 2172 1228 52AF 0010 	addq.l #1,16(%sp)
 2173               	.L113:
1187:/home/simulink/cFS_FreeRTOS_seL4/cfe/fsw/cfe-core/src/es/cfe_es_api.c ****           {
 2174               	.loc 2 1187 0 is_stmt 0 discriminator 1
 2175 122c 721F      	moveq #31,%d1
 2176 122e B2AF 0010 	cmp.l 16(%sp),%d1
 2177 1232 64A8      	jcc .L116
 2178               	.L115:
1198:/home/simulink/cFS_FreeRTOS_seL4/cfe/fsw/cfe-core/src/es/cfe_es_api.c ****                 } /* end if */
1199:/home/simulink/cFS_FreeRTOS_seL4/cfe/fsw/cfe-core/src/es/cfe_es_api.c ****              } /* end if */
1200:/home/simulink/cFS_FreeRTOS_seL4/cfe/fsw/cfe-core/src/es/cfe_es_api.c ****           } /* end for */
1201:/home/simulink/cFS_FreeRTOS_seL4/cfe/fsw/cfe-core/src/es/cfe_es_api.c ****           
1202:/home/simulink/cFS_FreeRTOS_seL4/cfe/fsw/cfe-core/src/es/cfe_es_api.c ****           if ( TaskIsMain == FALSE )
 2179               	.loc 2 1202 0 is_stmt 1
 2180 1234 4AAF 000C 	tst.l 12(%sp)
 2181 1238 6678      	jne .L117
1203:/home/simulink/cFS_FreeRTOS_seL4/cfe/fsw/cfe-core/src/es/cfe_es_api.c ****           {
1204:/home/simulink/cFS_FreeRTOS_seL4/cfe/fsw/cfe-core/src/es/cfe_es_api.c ****              /*
1205:/home/simulink/cFS_FreeRTOS_seL4/cfe/fsw/cfe-core/src/es/cfe_es_api.c ****              ** Can delete the Task
1206:/home/simulink/cFS_FreeRTOS_seL4/cfe/fsw/cfe-core/src/es/cfe_es_api.c ****              */
1207:/home/simulink/cFS_FreeRTOS_seL4/cfe/fsw/cfe-core/src/es/cfe_es_api.c ****              OSReturnCode = OS_TaskDelete(OSTaskId);
 2182               	.loc 2 1207 0
 2183 123a 2F2F 0018 	move.l 24(%sp),-(%sp)
 2184               	.cfi_def_cfa_offset 28
 2185 123e 4EB9 0000 	jsr OS_TaskDelete
 2185      0000 
 2186 1244 588F      	addq.l #4,%sp
 2187               	.cfi_def_cfa_offset 24
 2188 1246 2F40 0004 	move.l %d0,4(%sp)
1208:/home/simulink/cFS_FreeRTOS_seL4/cfe/fsw/cfe-core/src/es/cfe_es_api.c ****              if ( OSReturnCode == OS_SUCCESS )
 2189               	.loc 2 1208 0
68K GAS   			page 78


 2190 124a 4AAF 0004 	tst.l 4(%sp)
 2191 124e 663C      	jne .L118
1209:/home/simulink/cFS_FreeRTOS_seL4/cfe/fsw/cfe-core/src/es/cfe_es_api.c ****              {
1210:/home/simulink/cFS_FreeRTOS_seL4/cfe/fsw/cfe-core/src/es/cfe_es_api.c ****                 /*
1211:/home/simulink/cFS_FreeRTOS_seL4/cfe/fsw/cfe-core/src/es/cfe_es_api.c ****                 ** Invalidate the task table entry
1212:/home/simulink/cFS_FreeRTOS_seL4/cfe/fsw/cfe-core/src/es/cfe_es_api.c ****                 */
1213:/home/simulink/cFS_FreeRTOS_seL4/cfe/fsw/cfe-core/src/es/cfe_es_api.c ****                 CFE_ES_Global.TaskTable[TaskId].RecordUsed = FALSE;
 2192               	.loc 2 1213 0
 2193 1250 2017      	move.l (%sp),%d0
 2194 1252 5280      	addq.l #1,%d0
 2195 1254 7224      	moveq #36,%d1
 2196 1256 4C01 0800 	muls.l %d1,%d0
 2197 125a 41F9 0000 	lea CFE_ES_Global,%a0
 2197      0000 
 2198 1260 4201      	clr.b %d1
 2199 1262 1181 0800 	move.b %d1,(%a0,%d0.l)
1214:/home/simulink/cFS_FreeRTOS_seL4/cfe/fsw/cfe-core/src/es/cfe_es_api.c ****                 CFE_ES_Global.RegisteredTasks--;
 2200               	.loc 2 1214 0
 2201 1266 2039 0000 	move.l CFE_ES_Global+32,%d0
 2201      0000 
 2202 126c 5380      	subq.l #1,%d0
 2203 126e 23C0 0000 	move.l %d0,CFE_ES_Global+32
 2203      0000 
1215:/home/simulink/cFS_FreeRTOS_seL4/cfe/fsw/cfe-core/src/es/cfe_es_api.c **** 
1216:/home/simulink/cFS_FreeRTOS_seL4/cfe/fsw/cfe-core/src/es/cfe_es_api.c ****                 /*
1217:/home/simulink/cFS_FreeRTOS_seL4/cfe/fsw/cfe-core/src/es/cfe_es_api.c ****                 ** Report the task delete
1218:/home/simulink/cFS_FreeRTOS_seL4/cfe/fsw/cfe-core/src/es/cfe_es_api.c ****                 */
1219:/home/simulink/cFS_FreeRTOS_seL4/cfe/fsw/cfe-core/src/es/cfe_es_api.c ****                 CFE_ES_WriteToSysLog("CFE_ES_DeleteChildTask Task %u Deleted\n",(unsigned int)OSTas
 2204               	.loc 2 1219 0
 2205 1274 2F2F 0018 	move.l 24(%sp),-(%sp)
 2206               	.cfi_def_cfa_offset 28
 2207 1278 4879 0000 	pea .LC35
 2207      0000 
 2208               	.cfi_def_cfa_offset 32
 2209 127e 4EB9 0000 	jsr CFE_ES_WriteToSysLog
 2209      0000 
 2210 1284 508F      	addq.l #8,%sp
 2211               	.cfi_def_cfa_offset 24
1220:/home/simulink/cFS_FreeRTOS_seL4/cfe/fsw/cfe-core/src/es/cfe_es_api.c ****                 ReturnCode = CFE_SUCCESS;
 2212               	.loc 2 1220 0
 2213 1286 42AF 0008 	clr.l 8(%sp)
1202:/home/simulink/cFS_FreeRTOS_seL4/cfe/fsw/cfe-core/src/es/cfe_es_api.c ****           {
 2214               	.loc 2 1202 0
 2215 128a 6060      	jra .L121
 2216               	.L118:
1221:/home/simulink/cFS_FreeRTOS_seL4/cfe/fsw/cfe-core/src/es/cfe_es_api.c ****              }
1222:/home/simulink/cFS_FreeRTOS_seL4/cfe/fsw/cfe-core/src/es/cfe_es_api.c ****              else
1223:/home/simulink/cFS_FreeRTOS_seL4/cfe/fsw/cfe-core/src/es/cfe_es_api.c ****              {
1224:/home/simulink/cFS_FreeRTOS_seL4/cfe/fsw/cfe-core/src/es/cfe_es_api.c ****                 CFE_ES_WriteToSysLog("CFE_ES_DeleteChildTask Error: Error Calling OS_TaskDelete: Ta
 2217               	.loc 2 1224 0
 2218 128c 202F 0004 	move.l 4(%sp),%d0
 2219 1290 2F00      	move.l %d0,-(%sp)
 2220               	.cfi_def_cfa_offset 28
 2221 1292 2F2F 001C 	move.l 28(%sp),-(%sp)
 2222               	.cfi_def_cfa_offset 32
 2223 1296 4879 0000 	pea .LC36
 2223      0000 
68K GAS   			page 79


 2224               	.cfi_def_cfa_offset 36
 2225 129c 4EB9 0000 	jsr CFE_ES_WriteToSysLog
 2225      0000 
 2226 12a2 4FEF 000C 	lea (12,%sp),%sp
 2227               	.cfi_def_cfa_offset 24
1225:/home/simulink/cFS_FreeRTOS_seL4/cfe/fsw/cfe-core/src/es/cfe_es_api.c ****                         (unsigned int)OSTaskId, (unsigned int)OSReturnCode);
1226:/home/simulink/cFS_FreeRTOS_seL4/cfe/fsw/cfe-core/src/es/cfe_es_api.c ****                 ReturnCode = CFE_ES_ERR_CHILD_TASK_DELETE;
 2228               	.loc 2 1226 0
 2229 12a6 203C C400 	move.l #-1006632936,%d0
 2229      0018 
 2230 12ac 2F40 0008 	move.l %d0,8(%sp)
1202:/home/simulink/cFS_FreeRTOS_seL4/cfe/fsw/cfe-core/src/es/cfe_es_api.c ****           {
 2231               	.loc 2 1202 0
 2232 12b0 603A      	jra .L121
 2233               	.L117:
1227:/home/simulink/cFS_FreeRTOS_seL4/cfe/fsw/cfe-core/src/es/cfe_es_api.c ****              }
1228:/home/simulink/cFS_FreeRTOS_seL4/cfe/fsw/cfe-core/src/es/cfe_es_api.c ****           }
1229:/home/simulink/cFS_FreeRTOS_seL4/cfe/fsw/cfe-core/src/es/cfe_es_api.c ****           else
1230:/home/simulink/cFS_FreeRTOS_seL4/cfe/fsw/cfe-core/src/es/cfe_es_api.c ****           {
1231:/home/simulink/cFS_FreeRTOS_seL4/cfe/fsw/cfe-core/src/es/cfe_es_api.c ****              /*
1232:/home/simulink/cFS_FreeRTOS_seL4/cfe/fsw/cfe-core/src/es/cfe_es_api.c ****              ** Error: The task is a cFE Application Main task
1233:/home/simulink/cFS_FreeRTOS_seL4/cfe/fsw/cfe-core/src/es/cfe_es_api.c ****              */
1234:/home/simulink/cFS_FreeRTOS_seL4/cfe/fsw/cfe-core/src/es/cfe_es_api.c ****              CFE_ES_WriteToSysLog("CFE_ES_DeleteChildTask Error: Task %u is a cFE Main Task.\n",(un
 2234               	.loc 2 1234 0
 2235 12b2 2F2F 0018 	move.l 24(%sp),-(%sp)
 2236               	.cfi_def_cfa_offset 28
 2237 12b6 4879 0000 	pea .LC37
 2237      0000 
 2238               	.cfi_def_cfa_offset 32
 2239 12bc 4EB9 0000 	jsr CFE_ES_WriteToSysLog
 2239      0000 
 2240 12c2 508F      	addq.l #8,%sp
 2241               	.cfi_def_cfa_offset 24
1235:/home/simulink/cFS_FreeRTOS_seL4/cfe/fsw/cfe-core/src/es/cfe_es_api.c ****              ReturnCode = CFE_ES_ERR_CHILD_TASK_DELETE_MAIN_TASK;
 2242               	.loc 2 1235 0
 2243 12c4 223C C400 	move.l #-1006632935,%d1
 2243      0019 
 2244 12ca 2F41 0008 	move.l %d1,8(%sp)
1202:/home/simulink/cFS_FreeRTOS_seL4/cfe/fsw/cfe-core/src/es/cfe_es_api.c ****           {
 2245               	.loc 2 1202 0
 2246 12ce 601C      	jra .L121
 2247               	.L112:
1236:/home/simulink/cFS_FreeRTOS_seL4/cfe/fsw/cfe-core/src/es/cfe_es_api.c ****           } /* end if TaskMain == FALSE */
1237:/home/simulink/cFS_FreeRTOS_seL4/cfe/fsw/cfe-core/src/es/cfe_es_api.c ****        }
1238:/home/simulink/cFS_FreeRTOS_seL4/cfe/fsw/cfe-core/src/es/cfe_es_api.c ****        else
1239:/home/simulink/cFS_FreeRTOS_seL4/cfe/fsw/cfe-core/src/es/cfe_es_api.c ****        {
1240:/home/simulink/cFS_FreeRTOS_seL4/cfe/fsw/cfe-core/src/es/cfe_es_api.c ****           /*
1241:/home/simulink/cFS_FreeRTOS_seL4/cfe/fsw/cfe-core/src/es/cfe_es_api.c ****           ** Task ID is not in use, so it is invalid
1242:/home/simulink/cFS_FreeRTOS_seL4/cfe/fsw/cfe-core/src/es/cfe_es_api.c ****           */
1243:/home/simulink/cFS_FreeRTOS_seL4/cfe/fsw/cfe-core/src/es/cfe_es_api.c ****           CFE_ES_WriteToSysLog("CFE_ES_DeleteChildTask Error: Task ID is not active: %u\n",(unsigne
 2248               	.loc 2 1243 0
 2249 12d0 2F2F 0018 	move.l 24(%sp),-(%sp)
 2250               	.cfi_def_cfa_offset 28
 2251 12d4 4879 0000 	pea .LC38
 2251      0000 
 2252               	.cfi_def_cfa_offset 32
 2253 12da 4EB9 0000 	jsr CFE_ES_WriteToSysLog
68K GAS   			page 80


 2253      0000 
 2254 12e0 508F      	addq.l #8,%sp
 2255               	.cfi_def_cfa_offset 24
1244:/home/simulink/cFS_FreeRTOS_seL4/cfe/fsw/cfe-core/src/es/cfe_es_api.c ****           ReturnCode = CFE_ES_ERR_TASKID;
 2256               	.loc 2 1244 0
 2257 12e2 203C C400 	move.l #-1006632938,%d0
 2257      0016 
 2258 12e8 2F40 0008 	move.l %d0,8(%sp)
 2259               	.L121:
1245:/home/simulink/cFS_FreeRTOS_seL4/cfe/fsw/cfe-core/src/es/cfe_es_api.c ****    
1246:/home/simulink/cFS_FreeRTOS_seL4/cfe/fsw/cfe-core/src/es/cfe_es_api.c ****        } /* end if */
1247:/home/simulink/cFS_FreeRTOS_seL4/cfe/fsw/cfe-core/src/es/cfe_es_api.c ****        
1248:/home/simulink/cFS_FreeRTOS_seL4/cfe/fsw/cfe-core/src/es/cfe_es_api.c ****        CFE_ES_UnlockSharedData(__func__,__LINE__);
 2260               	.loc 2 1248 0
 2261 12ec 4878 04E0 	pea 1248.w
 2262               	.cfi_def_cfa_offset 28
 2263 12f0 4879 0000 	pea __func__.5876
 2263      0000 
 2264               	.cfi_def_cfa_offset 32
 2265 12f6 4EB9 0000 	jsr CFE_ES_UnlockSharedData
 2265      0000 
 2266 12fc 508F      	addq.l #8,%sp
 2267               	.cfi_def_cfa_offset 24
 2268 12fe 601C      	jra .L122
 2269               	.L111:
1249:/home/simulink/cFS_FreeRTOS_seL4/cfe/fsw/cfe-core/src/es/cfe_es_api.c ****    
1250:/home/simulink/cFS_FreeRTOS_seL4/cfe/fsw/cfe-core/src/es/cfe_es_api.c ****     }
1251:/home/simulink/cFS_FreeRTOS_seL4/cfe/fsw/cfe-core/src/es/cfe_es_api.c ****     else
1252:/home/simulink/cFS_FreeRTOS_seL4/cfe/fsw/cfe-core/src/es/cfe_es_api.c ****     {
1253:/home/simulink/cFS_FreeRTOS_seL4/cfe/fsw/cfe-core/src/es/cfe_es_api.c ****        /*
1254:/home/simulink/cFS_FreeRTOS_seL4/cfe/fsw/cfe-core/src/es/cfe_es_api.c ****        ** Task ID is invalid ( too large )
1255:/home/simulink/cFS_FreeRTOS_seL4/cfe/fsw/cfe-core/src/es/cfe_es_api.c ****        */
1256:/home/simulink/cFS_FreeRTOS_seL4/cfe/fsw/cfe-core/src/es/cfe_es_api.c ****        CFE_ES_WriteToSysLog("CFE_ES_DeleteChildTask Error: Invalid Task ID: %u\n",(unsigned int)OST
 2270               	.loc 2 1256 0
 2271 1300 2F2F 0018 	move.l 24(%sp),-(%sp)
 2272               	.cfi_def_cfa_offset 28
 2273 1304 4879 0000 	pea .LC39
 2273      0000 
 2274               	.cfi_def_cfa_offset 32
 2275 130a 4EB9 0000 	jsr CFE_ES_WriteToSysLog
 2275      0000 
 2276 1310 508F      	addq.l #8,%sp
 2277               	.cfi_def_cfa_offset 24
1257:/home/simulink/cFS_FreeRTOS_seL4/cfe/fsw/cfe-core/src/es/cfe_es_api.c ****        ReturnCode = CFE_ES_ERR_TASKID;
 2278               	.loc 2 1257 0
 2279 1312 223C C400 	move.l #-1006632938,%d1
 2279      0016 
 2280 1318 2F41 0008 	move.l %d1,8(%sp)
 2281               	.L122:
1258:/home/simulink/cFS_FreeRTOS_seL4/cfe/fsw/cfe-core/src/es/cfe_es_api.c ****        
1259:/home/simulink/cFS_FreeRTOS_seL4/cfe/fsw/cfe-core/src/es/cfe_es_api.c ****     }
1260:/home/simulink/cFS_FreeRTOS_seL4/cfe/fsw/cfe-core/src/es/cfe_es_api.c ****     return(ReturnCode);
 2282               	.loc 2 1260 0
 2283 131c 202F 0008 	move.l 8(%sp),%d0
1261:/home/simulink/cFS_FreeRTOS_seL4/cfe/fsw/cfe-core/src/es/cfe_es_api.c **** 
1262:/home/simulink/cFS_FreeRTOS_seL4/cfe/fsw/cfe-core/src/es/cfe_es_api.c **** } /* End of CFE_ES_DeleteTask() */
 2284               	.loc 2 1262 0
68K GAS   			page 81


 2285 1320 4FEF 0014 	lea (20,%sp),%sp
 2286 1324 4E75      	rts
 2287               	.cfi_endproc
 2288               	.LFE76:
 2289               	.sizeCFE_ES_DeleteChildTask, .-CFE_ES_DeleteChildTask
 2290               	.section.rodata
 2291               	.LC40:
 2292 093a 4346 455F 	.string"CFE_ES_ExitChildTask Error: Cannot Call from a cFE App Main Task. ID = %d\n"
 2292      4553 5F45 
 2292      7869 7443 
 2292      6869 6C64 
 2292      5461 736B 
 2293               	.LC41:
 2294 0985 4346 455F 	.string"CFE_ES_ExitChildTask Error Calling CFE_ES_GetAppID. Task ID = %d, RC = 0x%08X\n"
 2294      4553 5F45 
 2294      7869 7443 
 2294      6869 6C64 
 2294      5461 736B 
 2295               	.text
 2296               	.align2
 2297               	.globlCFE_ES_ExitChildTask
 2298               	.typeCFE_ES_ExitChildTask, @function
 2299               	CFE_ES_ExitChildTask:
 2300               	.LFB77:
1263:/home/simulink/cFS_FreeRTOS_seL4/cfe/fsw/cfe-core/src/es/cfe_es_api.c **** 
1264:/home/simulink/cFS_FreeRTOS_seL4/cfe/fsw/cfe-core/src/es/cfe_es_api.c **** /*
1265:/home/simulink/cFS_FreeRTOS_seL4/cfe/fsw/cfe-core/src/es/cfe_es_api.c **** ** Function: CFE_ES_ExitChildTask
1266:/home/simulink/cFS_FreeRTOS_seL4/cfe/fsw/cfe-core/src/es/cfe_es_api.c **** **
1267:/home/simulink/cFS_FreeRTOS_seL4/cfe/fsw/cfe-core/src/es/cfe_es_api.c **** ** Purpose:  Stop execution of a child task.
1268:/home/simulink/cFS_FreeRTOS_seL4/cfe/fsw/cfe-core/src/es/cfe_es_api.c **** **
1269:/home/simulink/cFS_FreeRTOS_seL4/cfe/fsw/cfe-core/src/es/cfe_es_api.c **** */
1270:/home/simulink/cFS_FreeRTOS_seL4/cfe/fsw/cfe-core/src/es/cfe_es_api.c **** void CFE_ES_ExitChildTask(void)
1271:/home/simulink/cFS_FreeRTOS_seL4/cfe/fsw/cfe-core/src/es/cfe_es_api.c **** {
 2301               	.loc 2 1271 0
 2302               	.cfi_startproc
 2303 1326 4FEF FFF0 	lea (-16,%sp),%sp
 2304               	.cfi_def_cfa_offset 20
1272:/home/simulink/cFS_FreeRTOS_seL4/cfe/fsw/cfe-core/src/es/cfe_es_api.c ****    uint32 TaskId;
1273:/home/simulink/cFS_FreeRTOS_seL4/cfe/fsw/cfe-core/src/es/cfe_es_api.c ****    uint32 ParentTaskId;
1274:/home/simulink/cFS_FreeRTOS_seL4/cfe/fsw/cfe-core/src/es/cfe_es_api.c ****    uint32 AppId; 
1275:/home/simulink/cFS_FreeRTOS_seL4/cfe/fsw/cfe-core/src/es/cfe_es_api.c ****    uint32 ReturnCode;
1276:/home/simulink/cFS_FreeRTOS_seL4/cfe/fsw/cfe-core/src/es/cfe_es_api.c **** 
1277:/home/simulink/cFS_FreeRTOS_seL4/cfe/fsw/cfe-core/src/es/cfe_es_api.c ****    CFE_ES_LockSharedData(__func__,__LINE__);
 2305               	.loc 2 1277 0
 2306 132a 4878 04FD 	pea 1277.w
 2307               	.cfi_def_cfa_offset 24
 2308 132e 4879 0000 	pea __func__.5887
 2308      0000 
 2309               	.cfi_def_cfa_offset 28
 2310 1334 4EB9 0000 	jsr CFE_ES_LockSharedData
 2310      0000 
 2311 133a 508F      	addq.l #8,%sp
 2312               	.cfi_def_cfa_offset 20
1278:/home/simulink/cFS_FreeRTOS_seL4/cfe/fsw/cfe-core/src/es/cfe_es_api.c **** 
1279:/home/simulink/cFS_FreeRTOS_seL4/cfe/fsw/cfe-core/src/es/cfe_es_api.c ****    /*
1280:/home/simulink/cFS_FreeRTOS_seL4/cfe/fsw/cfe-core/src/es/cfe_es_api.c ****    ** Check to see if this is being called from a cFE Application's 
1281:/home/simulink/cFS_FreeRTOS_seL4/cfe/fsw/cfe-core/src/es/cfe_es_api.c ****    ** main task.
68K GAS   			page 82


1282:/home/simulink/cFS_FreeRTOS_seL4/cfe/fsw/cfe-core/src/es/cfe_es_api.c ****    */
1283:/home/simulink/cFS_FreeRTOS_seL4/cfe/fsw/cfe-core/src/es/cfe_es_api.c ****    TaskId = OS_TaskGetId();
 2313               	.loc 2 1283 0
 2314 133c 4EB9 0000 	jsr OS_TaskGetId
 2314      0000 
 2315 1342 2F40 0004 	move.l %d0,4(%sp)
1284:/home/simulink/cFS_FreeRTOS_seL4/cfe/fsw/cfe-core/src/es/cfe_es_api.c ****    
1285:/home/simulink/cFS_FreeRTOS_seL4/cfe/fsw/cfe-core/src/es/cfe_es_api.c ****    ReturnCode = CFE_ES_GetAppIDInternal(&AppId);
 2316               	.loc 2 1285 0
 2317 1346 200F      	move.l %sp,%d0
 2318 1348 2F00      	move.l %d0,-(%sp)
 2319               	.cfi_def_cfa_offset 24
 2320 134a 4EB9 0000 	jsr CFE_ES_GetAppIDInternal
 2320      0000 
 2321 1350 588F      	addq.l #4,%sp
 2322               	.cfi_def_cfa_offset 20
 2323 1352 2F40 000C 	move.l %d0,12(%sp)
1286:/home/simulink/cFS_FreeRTOS_seL4/cfe/fsw/cfe-core/src/es/cfe_es_api.c ****    if ( ReturnCode == CFE_SUCCESS )
 2324               	.loc 2 1286 0
 2325 1356 4AAF 000C 	tst.l 12(%sp)
 2326 135a 6600 0092 	jne .L125
1287:/home/simulink/cFS_FreeRTOS_seL4/cfe/fsw/cfe-core/src/es/cfe_es_api.c ****    {
1288:/home/simulink/cFS_FreeRTOS_seL4/cfe/fsw/cfe-core/src/es/cfe_es_api.c ****       ParentTaskId = CFE_ES_Global.AppTable[AppId].TaskInfo.MainTaskId;
 2327               	.loc 2 1288 0
 2328 135e 2017      	move.l (%sp),%d0
 2329 1360 223C 0000 	move.l #168,%d1
 2329      00A8 
 2330 1366 4C01 0800 	muls.l %d1,%d0
 2331 136a 41F9 0000 	lea CFE_ES_Global+2488,%a0
 2331      0000 
 2332 1370 43F0 0800 	lea (%a0,%d0.l),%a1
 2333 1374 2F51 0008 	move.l (%a1),8(%sp)
1289:/home/simulink/cFS_FreeRTOS_seL4/cfe/fsw/cfe-core/src/es/cfe_es_api.c ****       if ( TaskId != ParentTaskId )
 2334               	.loc 2 1289 0
 2335 1378 202F 0004 	move.l 4(%sp),%d0
 2336 137c B0AF 0008 	cmp.l 8(%sp),%d0
 2337 1380 6756      	jeq .L126
1290:/home/simulink/cFS_FreeRTOS_seL4/cfe/fsw/cfe-core/src/es/cfe_es_api.c ****       {
1291:/home/simulink/cFS_FreeRTOS_seL4/cfe/fsw/cfe-core/src/es/cfe_es_api.c ****          if (OS_ConvertToArrayIndex(TaskId, &TaskId) == OS_SUCCESS)
 2338               	.loc 2 1291 0
 2339 1382 222F 0004 	move.l 4(%sp),%d1
 2340 1386 200F      	move.l %sp,%d0
 2341 1388 5880      	addq.l #4,%d0
 2342 138a 2F00      	move.l %d0,-(%sp)
 2343               	.cfi_def_cfa_offset 24
 2344 138c 2F01      	move.l %d1,-(%sp)
 2345               	.cfi_def_cfa_offset 28
 2346 138e 4EBA EC70 	jsr OS_ConvertToArrayIndex
 2347 1392 508F      	addq.l #8,%sp
 2348               	.cfi_def_cfa_offset 20
 2349 1394 4A80      	tst.l %d0
 2350 1396 6670      	jne .L129
1292:/home/simulink/cFS_FreeRTOS_seL4/cfe/fsw/cfe-core/src/es/cfe_es_api.c ****          {
1293:/home/simulink/cFS_FreeRTOS_seL4/cfe/fsw/cfe-core/src/es/cfe_es_api.c ****             /*
1294:/home/simulink/cFS_FreeRTOS_seL4/cfe/fsw/cfe-core/src/es/cfe_es_api.c ****             ** Invalidate the task table entry
1295:/home/simulink/cFS_FreeRTOS_seL4/cfe/fsw/cfe-core/src/es/cfe_es_api.c ****             */
1296:/home/simulink/cFS_FreeRTOS_seL4/cfe/fsw/cfe-core/src/es/cfe_es_api.c ****             CFE_ES_Global.TaskTable[TaskId].RecordUsed = FALSE;
68K GAS   			page 83


 2351               	.loc 2 1296 0
 2352 1398 202F 0004 	move.l 4(%sp),%d0
 2353 139c 5280      	addq.l #1,%d0
 2354 139e 7224      	moveq #36,%d1
 2355 13a0 4C01 0800 	muls.l %d1,%d0
 2356 13a4 41F9 0000 	lea CFE_ES_Global,%a0
 2356      0000 
 2357 13aa 4201      	clr.b %d1
 2358 13ac 1181 0800 	move.b %d1,(%a0,%d0.l)
1297:/home/simulink/cFS_FreeRTOS_seL4/cfe/fsw/cfe-core/src/es/cfe_es_api.c ****             CFE_ES_Global.RegisteredTasks--;
 2359               	.loc 2 1297 0
 2360 13b0 2039 0000 	move.l CFE_ES_Global+32,%d0
 2360      0000 
 2361 13b6 5380      	subq.l #1,%d0
 2362 13b8 23C0 0000 	move.l %d0,CFE_ES_Global+32
 2362      0000 
1298:/home/simulink/cFS_FreeRTOS_seL4/cfe/fsw/cfe-core/src/es/cfe_es_api.c **** 
1299:/home/simulink/cFS_FreeRTOS_seL4/cfe/fsw/cfe-core/src/es/cfe_es_api.c **** 
1300:/home/simulink/cFS_FreeRTOS_seL4/cfe/fsw/cfe-core/src/es/cfe_es_api.c ****             CFE_ES_UnlockSharedData(__func__,__LINE__);
 2363               	.loc 2 1300 0
 2364 13be 4878 0514 	pea 1300.w
 2365               	.cfi_def_cfa_offset 24
 2366 13c2 4879 0000 	pea __func__.5887
 2366      0000 
 2367               	.cfi_def_cfa_offset 28
 2368 13c8 4EB9 0000 	jsr CFE_ES_UnlockSharedData
 2368      0000 
 2369 13ce 508F      	addq.l #8,%sp
 2370               	.cfi_def_cfa_offset 20
1301:/home/simulink/cFS_FreeRTOS_seL4/cfe/fsw/cfe-core/src/es/cfe_es_api.c **** 
1302:/home/simulink/cFS_FreeRTOS_seL4/cfe/fsw/cfe-core/src/es/cfe_es_api.c **** 
1303:/home/simulink/cFS_FreeRTOS_seL4/cfe/fsw/cfe-core/src/es/cfe_es_api.c ****             /*
1304:/home/simulink/cFS_FreeRTOS_seL4/cfe/fsw/cfe-core/src/es/cfe_es_api.c ****             ** Call the OS AL routine
1305:/home/simulink/cFS_FreeRTOS_seL4/cfe/fsw/cfe-core/src/es/cfe_es_api.c ****             */
1306:/home/simulink/cFS_FreeRTOS_seL4/cfe/fsw/cfe-core/src/es/cfe_es_api.c ****             OS_TaskExit();
 2371               	.loc 2 1306 0
 2372 13d0 4EB9 0000 	jsr OS_TaskExit
 2372      0000 
 2373 13d6 6042      	jra .L124
 2374               	.L126:
1307:/home/simulink/cFS_FreeRTOS_seL4/cfe/fsw/cfe-core/src/es/cfe_es_api.c ****             /*
1308:/home/simulink/cFS_FreeRTOS_seL4/cfe/fsw/cfe-core/src/es/cfe_es_api.c ****             ** Does not return from OS_TaskExit, except under unit test
1309:/home/simulink/cFS_FreeRTOS_seL4/cfe/fsw/cfe-core/src/es/cfe_es_api.c ****             */
1310:/home/simulink/cFS_FreeRTOS_seL4/cfe/fsw/cfe-core/src/es/cfe_es_api.c ****             return;
1311:/home/simulink/cFS_FreeRTOS_seL4/cfe/fsw/cfe-core/src/es/cfe_es_api.c ****          }
1312:/home/simulink/cFS_FreeRTOS_seL4/cfe/fsw/cfe-core/src/es/cfe_es_api.c ****          
1313:/home/simulink/cFS_FreeRTOS_seL4/cfe/fsw/cfe-core/src/es/cfe_es_api.c ****       }
1314:/home/simulink/cFS_FreeRTOS_seL4/cfe/fsw/cfe-core/src/es/cfe_es_api.c ****       else
1315:/home/simulink/cFS_FreeRTOS_seL4/cfe/fsw/cfe-core/src/es/cfe_es_api.c ****       {
1316:/home/simulink/cFS_FreeRTOS_seL4/cfe/fsw/cfe-core/src/es/cfe_es_api.c ****          CFE_ES_WriteToSysLog("CFE_ES_ExitChildTask Error: Cannot Call from a cFE App Main Task. ID
 2375               	.loc 2 1316 0
 2376 13d8 202F 0004 	move.l 4(%sp),%d0
 2377 13dc 2F00      	move.l %d0,-(%sp)
 2378               	.cfi_def_cfa_offset 24
 2379 13de 4879 0000 	pea .LC40
 2379      0000 
 2380               	.cfi_def_cfa_offset 28
68K GAS   			page 84


 2381 13e4 4EB9 0000 	jsr CFE_ES_WriteToSysLog
 2381      0000 
 2382 13ea 508F      	addq.l #8,%sp
 2383               	.cfi_def_cfa_offset 20
 2384 13ec 601A      	jra .L129
 2385               	.L125:
1317:/home/simulink/cFS_FreeRTOS_seL4/cfe/fsw/cfe-core/src/es/cfe_es_api.c ****       }
1318:/home/simulink/cFS_FreeRTOS_seL4/cfe/fsw/cfe-core/src/es/cfe_es_api.c ****    }
1319:/home/simulink/cFS_FreeRTOS_seL4/cfe/fsw/cfe-core/src/es/cfe_es_api.c ****    else
1320:/home/simulink/cFS_FreeRTOS_seL4/cfe/fsw/cfe-core/src/es/cfe_es_api.c ****    {   
1321:/home/simulink/cFS_FreeRTOS_seL4/cfe/fsw/cfe-core/src/es/cfe_es_api.c ****       CFE_ES_WriteToSysLog("CFE_ES_ExitChildTask Error Calling CFE_ES_GetAppID. Task ID = %d, RC = 
 2386               	.loc 2 1321 0
 2387 13ee 202F 0004 	move.l 4(%sp),%d0
 2388 13f2 2F2F 000C 	move.l 12(%sp),-(%sp)
 2389               	.cfi_def_cfa_offset 24
 2390 13f6 2F00      	move.l %d0,-(%sp)
 2391               	.cfi_def_cfa_offset 28
 2392 13f8 4879 0000 	pea .LC41
 2392      0000 
 2393               	.cfi_def_cfa_offset 32
 2394 13fe 4EB9 0000 	jsr CFE_ES_WriteToSysLog
 2394      0000 
 2395 1404 4FEF 000C 	lea (12,%sp),%sp
 2396               	.cfi_def_cfa_offset 20
 2397               	.L129:
1322:/home/simulink/cFS_FreeRTOS_seL4/cfe/fsw/cfe-core/src/es/cfe_es_api.c ****               (int)TaskId, (unsigned int)ReturnCode );
1323:/home/simulink/cFS_FreeRTOS_seL4/cfe/fsw/cfe-core/src/es/cfe_es_api.c ****    } /* end if GetAppId */
1324:/home/simulink/cFS_FreeRTOS_seL4/cfe/fsw/cfe-core/src/es/cfe_es_api.c **** 
1325:/home/simulink/cFS_FreeRTOS_seL4/cfe/fsw/cfe-core/src/es/cfe_es_api.c ****    CFE_ES_UnlockSharedData(__func__,__LINE__);
 2398               	.loc 2 1325 0 discriminator 2
 2399 1408 4878 052D 	pea 1325.w
 2400               	.cfi_def_cfa_offset 24
 2401 140c 4879 0000 	pea __func__.5887
 2401      0000 
 2402               	.cfi_def_cfa_offset 28
 2403 1412 4EB9 0000 	jsr CFE_ES_UnlockSharedData
 2403      0000 
 2404 1418 508F      	addq.l #8,%sp
 2405               	.cfi_def_cfa_offset 20
 2406               	.L124:
1326:/home/simulink/cFS_FreeRTOS_seL4/cfe/fsw/cfe-core/src/es/cfe_es_api.c ****    
1327:/home/simulink/cFS_FreeRTOS_seL4/cfe/fsw/cfe-core/src/es/cfe_es_api.c **** } /* End of CFE_ES_ExitChildTask() */
 2407               	.loc 2 1327 0
 2408 141a 4FEF 0010 	lea (16,%sp),%sp
 2409 141e 4E75      	rts
 2410               	.cfi_endproc
 2411               	.LFE77:
 2412               	.sizeCFE_ES_ExitChildTask, .-CFE_ES_ExitChildTask
 2413               	.section.rodata
 2414               	.LC42:
 2415 09d4 2573 00   	.string"%s"
 2416               	.LC43:
 2417 09d7 5761 726E 	.string"Warning: System Log full, log entry discarded.\n"
 2417      696E 673A 
 2417      2053 7973 
 2417      7465 6D20 
 2417      4C6F 6720 
68K GAS   			page 85


 2418               	.LC44:
 2419 0a07 5761 726E 	.string"Warning: Last System Log Message Truncated.\n"
 2419      696E 673A 
 2419      204C 6173 
 2419      7420 5379 
 2419      7374 656D 
 2420               	.LC45:
 2421 0a34 5761 726E 	.string"Warning: Invalid System Log mode, log entry discarded.\n"
 2421      696E 673A 
 2421      2049 6E76 
 2421      616C 6964 
 2421      2053 7973 
 2422               	.text
 2423               	.align2
 2424               	.globlCFE_ES_WriteToSysLog
 2425               	.typeCFE_ES_WriteToSysLog, @function
 2426               	CFE_ES_WriteToSysLog:
 2427               	.LFB78:
1328:/home/simulink/cFS_FreeRTOS_seL4/cfe/fsw/cfe-core/src/es/cfe_es_api.c **** 
1329:/home/simulink/cFS_FreeRTOS_seL4/cfe/fsw/cfe-core/src/es/cfe_es_api.c **** 
1330:/home/simulink/cFS_FreeRTOS_seL4/cfe/fsw/cfe-core/src/es/cfe_es_api.c **** /*
1331:/home/simulink/cFS_FreeRTOS_seL4/cfe/fsw/cfe-core/src/es/cfe_es_api.c **** ** Function: CFE_ES_WriteToSysLog
1332:/home/simulink/cFS_FreeRTOS_seL4/cfe/fsw/cfe-core/src/es/cfe_es_api.c **** **
1333:/home/simulink/cFS_FreeRTOS_seL4/cfe/fsw/cfe-core/src/es/cfe_es_api.c **** ** Purpose:  Add a time stamped message to the cFE ES System Log.
1334:/home/simulink/cFS_FreeRTOS_seL4/cfe/fsw/cfe-core/src/es/cfe_es_api.c **** **
1335:/home/simulink/cFS_FreeRTOS_seL4/cfe/fsw/cfe-core/src/es/cfe_es_api.c **** */
1336:/home/simulink/cFS_FreeRTOS_seL4/cfe/fsw/cfe-core/src/es/cfe_es_api.c **** int32 CFE_ES_WriteToSysLog(const char *SpecStringPtr, ...)
1337:/home/simulink/cFS_FreeRTOS_seL4/cfe/fsw/cfe-core/src/es/cfe_es_api.c **** {
 2428               	.loc 2 1337 0
 2429               	.cfi_startproc
 2430 1420 4FEF FED8 	lea (-296,%sp),%sp
 2431               	.cfi_def_cfa_offset 300
1338:/home/simulink/cFS_FreeRTOS_seL4/cfe/fsw/cfe-core/src/es/cfe_es_api.c ****     va_list       ArgPtr;
1339:/home/simulink/cFS_FreeRTOS_seL4/cfe/fsw/cfe-core/src/es/cfe_es_api.c ****     char          TmpString[CFE_ES_MAX_SYSLOG_MSG_SIZE];
1340:/home/simulink/cFS_FreeRTOS_seL4/cfe/fsw/cfe-core/src/es/cfe_es_api.c ****     char          MsgWithoutTime[CFE_EVS_MAX_MESSAGE_LENGTH];
1341:/home/simulink/cFS_FreeRTOS_seL4/cfe/fsw/cfe-core/src/es/cfe_es_api.c ****     size_t        TmpStringLen;
1342:/home/simulink/cFS_FreeRTOS_seL4/cfe/fsw/cfe-core/src/es/cfe_es_api.c ****     size_t        LogOverflow;
1343:/home/simulink/cFS_FreeRTOS_seL4/cfe/fsw/cfe-core/src/es/cfe_es_api.c ****     size_t        TruncTmpStringLen;
1344:/home/simulink/cFS_FreeRTOS_seL4/cfe/fsw/cfe-core/src/es/cfe_es_api.c ****     uint32        ReturnCode;
1345:/home/simulink/cFS_FreeRTOS_seL4/cfe/fsw/cfe-core/src/es/cfe_es_api.c ****     int32         i;
1346:/home/simulink/cFS_FreeRTOS_seL4/cfe/fsw/cfe-core/src/es/cfe_es_api.c **** 
1347:/home/simulink/cFS_FreeRTOS_seL4/cfe/fsw/cfe-core/src/es/cfe_es_api.c ****     /* write the current time into the TmpString buffer */
1348:/home/simulink/cFS_FreeRTOS_seL4/cfe/fsw/cfe-core/src/es/cfe_es_api.c ****     CFE_TIME_Print(TmpString, CFE_TIME_GetTime());
 2432               	.loc 2 1348 0
 2433 1424 4EB9 0000 	jsr CFE_TIME_GetTime
 2433      0000 
 2434 142a 2F01      	move.l %d1,-(%sp)
 2435 142c 2F00      	move.l %d0,-(%sp)
 2436               	.cfi_def_cfa_offset 308
 2437 142e 200F      	move.l %sp,%d0
 2438 1430 0680 0000 	add.l #133,%d0
 2438      0085 
 2439 1436 2F00      	move.l %d0,-(%sp)
 2440               	.cfi_def_cfa_offset 312
 2441 1438 4EB9 0000 	jsr CFE_TIME_Print
 2441      0000 
 2442 143e 4FEF 000C 	lea (12,%sp),%sp
68K GAS   			page 86


 2443               	.cfi_def_cfa_offset 300
1349:/home/simulink/cFS_FreeRTOS_seL4/cfe/fsw/cfe-core/src/es/cfe_es_api.c **** 
1350:/home/simulink/cFS_FreeRTOS_seL4/cfe/fsw/cfe-core/src/es/cfe_es_api.c ****     va_start(ArgPtr, SpecStringPtr);
 2444               	.loc 2 1350 0
 2445 1442 200F      	move.l %sp,%d0
 2446 1444 0680 0000 	add.l #304,%d0
 2446      0130 
 2447 144a 2F40 0110 	move.l %d0,272(%sp)
1351:/home/simulink/cFS_FreeRTOS_seL4/cfe/fsw/cfe-core/src/es/cfe_es_api.c ****     (void) vsnprintf(MsgWithoutTime,(size_t) CFE_EVS_MAX_MESSAGE_LENGTH, SpecStringPtr, ArgPtr);
 2448               	.loc 2 1351 0
 2449 144e 202F 0110 	move.l 272(%sp),%d0
 2450 1452 2F00      	move.l %d0,-(%sp)
 2451               	.cfi_def_cfa_offset 304
 2452 1454 2F2F 0130 	move.l 304(%sp),-(%sp)
 2453               	.cfi_def_cfa_offset 308
 2454 1458 4878 007A 	pea 122.w
 2455               	.cfi_def_cfa_offset 312
 2456 145c 200F      	move.l %sp,%d0
 2457 145e 0680 0000 	add.l #15,%d0
 2457      000F 
 2458 1464 2F00      	move.l %d0,-(%sp)
 2459               	.cfi_def_cfa_offset 316
 2460 1466 4EB9 0000 	jsr vsnprintf
 2460      0000 
 2461 146c 4FEF 0010 	lea (16,%sp),%sp
 2462               	.cfi_def_cfa_offset 300
1352:/home/simulink/cFS_FreeRTOS_seL4/cfe/fsw/cfe-core/src/es/cfe_es_api.c ****     va_end(ArgPtr);
1353:/home/simulink/cFS_FreeRTOS_seL4/cfe/fsw/cfe-core/src/es/cfe_es_api.c **** 
1354:/home/simulink/cFS_FreeRTOS_seL4/cfe/fsw/cfe-core/src/es/cfe_es_api.c ****     /* insert space between the time and the start of the message */
1355:/home/simulink/cFS_FreeRTOS_seL4/cfe/fsw/cfe-core/src/es/cfe_es_api.c ****     strcat(TmpString," ");
 2463               	.loc 2 1355 0
 2464 1470 200F      	move.l %sp,%d0
 2465 1472 0680 0000 	add.l #125,%d0
 2465      007D 
 2466 1478 2F00      	move.l %d0,-(%sp)
 2467               	.cfi_def_cfa_offset 304
 2468 147a 4EB9 0000 	jsr strlen
 2468      0000 
 2469 1480 588F      	addq.l #4,%sp
 2470               	.cfi_def_cfa_offset 300
 2471 1482 2200      	move.l %d0,%d1
 2472 1484 200F      	move.l %sp,%d0
 2473 1486 0680 0000 	add.l #125,%d0
 2473      007D 
 2474 148c 2040      	move.l %d0,%a0
 2475 148e D1C1      	add.l %d1,%a0
 2476 1490 30BC 2000 	move.w #8192,(%a0)
1356:/home/simulink/cFS_FreeRTOS_seL4/cfe/fsw/cfe-core/src/es/cfe_es_api.c **** 
1357:/home/simulink/cFS_FreeRTOS_seL4/cfe/fsw/cfe-core/src/es/cfe_es_api.c ****     /* Add the message to the time string in the TmpString buffer */
1358:/home/simulink/cFS_FreeRTOS_seL4/cfe/fsw/cfe-core/src/es/cfe_es_api.c ****     strncat(TmpString,MsgWithoutTime,CFE_EVS_MAX_MESSAGE_LENGTH);
 2477               	.loc 2 1358 0
 2478 1494 4878 007A 	pea 122.w
 2479               	.cfi_def_cfa_offset 304
 2480 1498 200F      	move.l %sp,%d0
 2481 149a 5E80      	addq.l #7,%d0
 2482 149c 2F00      	move.l %d0,-(%sp)
 2483               	.cfi_def_cfa_offset 308
68K GAS   			page 87


 2484 149e 200F      	move.l %sp,%d0
 2485 14a0 0680 0000 	add.l #133,%d0
 2485      0085 
 2486 14a6 2F00      	move.l %d0,-(%sp)
 2487               	.cfi_def_cfa_offset 312
 2488 14a8 4EB9 0000 	jsr strncat
 2488      0000 
 2489 14ae 4FEF 000C 	lea (12,%sp),%sp
 2490               	.cfi_def_cfa_offset 300
1359:/home/simulink/cFS_FreeRTOS_seL4/cfe/fsw/cfe-core/src/es/cfe_es_api.c ****    
1360:/home/simulink/cFS_FreeRTOS_seL4/cfe/fsw/cfe-core/src/es/cfe_es_api.c ****     /* Output the entry to the console. */
1361:/home/simulink/cFS_FreeRTOS_seL4/cfe/fsw/cfe-core/src/es/cfe_es_api.c ****     OS_printf("%s",TmpString);
 2491               	.loc 2 1361 0
 2492 14b2 200F      	move.l %sp,%d0
 2493 14b4 0680 0000 	add.l #125,%d0
 2493      007D 
 2494 14ba 2F00      	move.l %d0,-(%sp)
 2495               	.cfi_def_cfa_offset 304
 2496 14bc 4879 0000 	pea .LC42
 2496      0000 
 2497               	.cfi_def_cfa_offset 308
 2498 14c2 4EB9 0000 	jsr OS_printf
 2498      0000 
 2499 14c8 508F      	addq.l #8,%sp
 2500               	.cfi_def_cfa_offset 300
1362:/home/simulink/cFS_FreeRTOS_seL4/cfe/fsw/cfe-core/src/es/cfe_es_api.c ****     TmpStringLen = strlen(TmpString);
 2501               	.loc 2 1362 0
 2502 14ca 200F      	move.l %sp,%d0
 2503 14cc 0680 0000 	add.l #125,%d0
 2503      007D 
 2504 14d2 2F00      	move.l %d0,-(%sp)
 2505               	.cfi_def_cfa_offset 304
 2506 14d4 4EB9 0000 	jsr strlen
 2506      0000 
 2507 14da 588F      	addq.l #4,%sp
 2508               	.cfi_def_cfa_offset 300
 2509 14dc 2F40 011C 	move.l %d0,284(%sp)
1363:/home/simulink/cFS_FreeRTOS_seL4/cfe/fsw/cfe-core/src/es/cfe_es_api.c **** 
1364:/home/simulink/cFS_FreeRTOS_seL4/cfe/fsw/cfe-core/src/es/cfe_es_api.c ****     /* process the log entry depending on the log type */
1365:/home/simulink/cFS_FreeRTOS_seL4/cfe/fsw/cfe-core/src/es/cfe_es_api.c ****     if ( CFE_ES_ResetDataPtr->SystemLogMode == CFE_ES_LOG_DISCARD )
 2510               	.loc 2 1365 0
 2511 14e0 2079 0000 	move.l CFE_ES_ResetDataPtr,%a0
 2511      0000 
 2512 14e6 2028 20B0 	move.l 8368(%a0),%d0
 2513 14ea 7201      	moveq #1,%d1
 2514 14ec B280      	cmp.l %d0,%d1
 2515 14ee 6600 0186 	jne .L131
1366:/home/simulink/cFS_FreeRTOS_seL4/cfe/fsw/cfe-core/src/es/cfe_es_api.c ****     {
1367:/home/simulink/cFS_FreeRTOS_seL4/cfe/fsw/cfe-core/src/es/cfe_es_api.c ****         /* if the index is already out of bounds, the log is full */
1368:/home/simulink/cFS_FreeRTOS_seL4/cfe/fsw/cfe-core/src/es/cfe_es_api.c ****         if ( CFE_ES_ResetDataPtr->SystemLogIndex >= CFE_ES_SYSTEM_LOG_SIZE )  
 2516               	.loc 2 1368 0
 2517 14f2 2079 0000 	move.l CFE_ES_ResetDataPtr,%a0
 2517      0000 
 2518 14f8 2028 20AC 	move.l 8364(%a0),%d0
 2519 14fc 0C80 0000 	cmp.l #3071,%d0
 2519      0BFF 
 2520 1502 631C      	jls .L132
68K GAS   			page 88


1369:/home/simulink/cFS_FreeRTOS_seL4/cfe/fsw/cfe-core/src/es/cfe_es_api.c ****         {
1370:/home/simulink/cFS_FreeRTOS_seL4/cfe/fsw/cfe-core/src/es/cfe_es_api.c ****             OS_printf("Warning: System Log full, log entry discarded.\n");
 2521               	.loc 2 1370 0
 2522 1504 4879 0000 	pea .LC43
 2522      0000 
 2523               	.cfi_def_cfa_offset 304
 2524 150a 4EB9 0000 	jsr OS_printf
 2524      0000 
 2525 1510 588F      	addq.l #4,%sp
 2526               	.cfi_def_cfa_offset 300
1371:/home/simulink/cFS_FreeRTOS_seL4/cfe/fsw/cfe-core/src/es/cfe_es_api.c ****             ReturnCode = CFE_ES_ERR_SYS_LOG_FULL;
 2527               	.loc 2 1371 0
 2528 1512 207C C400 	move.l #-1006632954,%a0
 2528      0006 
 2529 1518 2F48 0124 	move.l %a0,292(%sp)
 2530 151c 6000 026E 	jra .L135
 2531               	.L132:
1372:/home/simulink/cFS_FreeRTOS_seL4/cfe/fsw/cfe-core/src/es/cfe_es_api.c ****         }   
1373:/home/simulink/cFS_FreeRTOS_seL4/cfe/fsw/cfe-core/src/es/cfe_es_api.c ****         /* if the message will not fit in the remaining space, truncate it */  
1374:/home/simulink/cFS_FreeRTOS_seL4/cfe/fsw/cfe-core/src/es/cfe_es_api.c ****         else if ((CFE_ES_ResetDataPtr->SystemLogIndex + TmpStringLen) >= CFE_ES_SYSTEM_LOG_SIZE )
 2532               	.loc 2 1374 0
 2533 1520 2079 0000 	move.l CFE_ES_ResetDataPtr,%a0
 2533      0000 
 2534 1526 2028 20AC 	move.l 8364(%a0),%d0
 2535 152a D0AF 011C 	add.l 284(%sp),%d0
 2536 152e 0C80 0000 	cmp.l #3071,%d0
 2536      0BFF 
 2537 1534 6300 00C2 	jls .L134
1375:/home/simulink/cFS_FreeRTOS_seL4/cfe/fsw/cfe-core/src/es/cfe_es_api.c ****         {
1376:/home/simulink/cFS_FreeRTOS_seL4/cfe/fsw/cfe-core/src/es/cfe_es_api.c ****             LogOverflow = CFE_ES_ResetDataPtr->SystemLogIndex + TmpStringLen - CFE_ES_SYSTEM_LOG_SI
 2538               	.loc 2 1376 0
 2539 1538 2079 0000 	move.l CFE_ES_ResetDataPtr,%a0
 2539      0000 
 2540 153e 2028 20AC 	move.l 8364(%a0),%d0
 2541 1542 D0AF 011C 	add.l 284(%sp),%d0
 2542 1546 2040      	move.l %d0,%a0
 2543 1548 41E8 F400 	lea (-3072,%a0),%a0
 2544 154c 2F48 0118 	move.l %a0,280(%sp)
1377:/home/simulink/cFS_FreeRTOS_seL4/cfe/fsw/cfe-core/src/es/cfe_es_api.c **** 
1378:/home/simulink/cFS_FreeRTOS_seL4/cfe/fsw/cfe-core/src/es/cfe_es_api.c ****             /* Add one for adding '/0' to the end because the message will be truncated */
1379:/home/simulink/cFS_FreeRTOS_seL4/cfe/fsw/cfe-core/src/es/cfe_es_api.c ****             LogOverflow++;
 2545               	.loc 2 1379 0
 2546 1550 52AF 0118 	addq.l #1,280(%sp)
1380:/home/simulink/cFS_FreeRTOS_seL4/cfe/fsw/cfe-core/src/es/cfe_es_api.c **** 
1381:/home/simulink/cFS_FreeRTOS_seL4/cfe/fsw/cfe-core/src/es/cfe_es_api.c ****             TruncTmpStringLen = TmpStringLen - LogOverflow;
 2547               	.loc 2 1381 0
 2548 1554 202F 011C 	move.l 284(%sp),%d0
 2549 1558 90AF 0118 	sub.l 280(%sp),%d0
 2550 155c 2F40 0114 	move.l %d0,276(%sp)
1382:/home/simulink/cFS_FreeRTOS_seL4/cfe/fsw/cfe-core/src/es/cfe_es_api.c **** 
1383:/home/simulink/cFS_FreeRTOS_seL4/cfe/fsw/cfe-core/src/es/cfe_es_api.c ****             strncpy((char *)&(CFE_ES_ResetDataPtr->SystemLog[CFE_ES_ResetDataPtr->SystemLogIndex]),
 2551               	.loc 2 1383 0
 2552 1560 2239 0000 	move.l CFE_ES_ResetDataPtr,%d1
 2552      0000 
 2553 1566 2079 0000 	move.l CFE_ES_ResetDataPtr,%a0
 2553      0000 
 2554 156c 2028 20AC 	move.l 8364(%a0),%d0
68K GAS   			page 89


 2555 1570 0680 0000 	add.l #5292,%d0
 2555      14AC 
 2556 1576 D280      	add.l %d0,%d1
 2557 1578 2F2F 0114 	move.l 276(%sp),-(%sp)
 2558               	.cfi_def_cfa_offset 304
 2559 157c 200F      	move.l %sp,%d0
 2560 157e 0680 0000 	add.l #129,%d0
 2560      0081 
 2561 1584 2F00      	move.l %d0,-(%sp)
 2562               	.cfi_def_cfa_offset 308
 2563 1586 2F01      	move.l %d1,-(%sp)
 2564               	.cfi_def_cfa_offset 312
 2565 1588 4EB9 0000 	jsr strncpy
 2565      0000 
 2566 158e 4FEF 000C 	lea (12,%sp),%sp
 2567               	.cfi_def_cfa_offset 300
1384:/home/simulink/cFS_FreeRTOS_seL4/cfe/fsw/cfe-core/src/es/cfe_es_api.c ****             strncpy((char *)&(CFE_ES_ResetDataPtr->SystemLog[CFE_ES_ResetDataPtr->SystemLogIndex + 
 2568               	.loc 2 1384 0
 2569 1592 2239 0000 	move.l CFE_ES_ResetDataPtr,%d1
 2569      0000 
 2570 1598 2079 0000 	move.l CFE_ES_ResetDataPtr,%a0
 2570      0000 
 2571 159e 2028 20AC 	move.l 8364(%a0),%d0
 2572 15a2 D0AF 0114 	add.l 276(%sp),%d0
 2573 15a6 0680 0000 	add.l #5292,%d0
 2573      14AC 
 2574 15ac 2041      	move.l %d1,%a0
 2575 15ae D1C0      	add.l %d0,%a0
 2576 15b0 4210      	clr.b (%a0)
1385:/home/simulink/cFS_FreeRTOS_seL4/cfe/fsw/cfe-core/src/es/cfe_es_api.c **** 
1386:/home/simulink/cFS_FreeRTOS_seL4/cfe/fsw/cfe-core/src/es/cfe_es_api.c ****             CFE_ES_ResetDataPtr->SystemLogIndex = CFE_ES_ResetDataPtr->SystemLogIndex + TruncTmpStr
 2577               	.loc 2 1386 0
 2578 15b2 2079 0000 	move.l CFE_ES_ResetDataPtr,%a0
 2578      0000 
 2579 15b8 2028 20AC 	move.l 8364(%a0),%d0
 2580 15bc D0AF 0114 	add.l 276(%sp),%d0
 2581 15c0 2079 0000 	move.l CFE_ES_ResetDataPtr,%a0
 2581      0000 
 2582 15c6 5280      	addq.l #1,%d0
 2583 15c8 2140 20AC 	move.l %d0,8364(%a0)
1387:/home/simulink/cFS_FreeRTOS_seL4/cfe/fsw/cfe-core/src/es/cfe_es_api.c ****             CFE_ES_ResetDataPtr->SystemLogEntryNum = CFE_ES_ResetDataPtr->SystemLogEntryNum + 1;
 2584               	.loc 2 1387 0
 2585 15cc 2079 0000 	move.l CFE_ES_ResetDataPtr,%a0
 2585      0000 
 2586 15d2 2028 20B4 	move.l 8372(%a0),%d0
 2587 15d6 2079 0000 	move.l CFE_ES_ResetDataPtr,%a0
 2587      0000 
 2588 15dc 5280      	addq.l #1,%d0
 2589 15de 2140 20B4 	move.l %d0,8372(%a0)
1388:/home/simulink/cFS_FreeRTOS_seL4/cfe/fsw/cfe-core/src/es/cfe_es_api.c ****             OS_printf("Warning: Last System Log Message Truncated.\n");
 2590               	.loc 2 1388 0
 2591 15e2 4879 0000 	pea .LC44
 2591      0000 
 2592               	.cfi_def_cfa_offset 304
 2593 15e8 4EB9 0000 	jsr OS_printf
 2593      0000 
 2594 15ee 588F      	addq.l #4,%sp
68K GAS   			page 90


 2595               	.cfi_def_cfa_offset 300
1389:/home/simulink/cFS_FreeRTOS_seL4/cfe/fsw/cfe-core/src/es/cfe_es_api.c ****             ReturnCode = CFE_SUCCESS;
 2596               	.loc 2 1389 0
 2597 15f0 42AF 0124 	clr.l 292(%sp)
 2598 15f4 6000 0196 	jra .L135
 2599               	.L134:
1390:/home/simulink/cFS_FreeRTOS_seL4/cfe/fsw/cfe-core/src/es/cfe_es_api.c ****         } 
1391:/home/simulink/cFS_FreeRTOS_seL4/cfe/fsw/cfe-core/src/es/cfe_es_api.c ****         else /* the message fits */
1392:/home/simulink/cFS_FreeRTOS_seL4/cfe/fsw/cfe-core/src/es/cfe_es_api.c ****         {
1393:/home/simulink/cFS_FreeRTOS_seL4/cfe/fsw/cfe-core/src/es/cfe_es_api.c ****             TmpStringLen = strlen(TmpString);
 2600               	.loc 2 1393 0
 2601 15f8 200F      	move.l %sp,%d0
 2602 15fa 0680 0000 	add.l #125,%d0
 2602      007D 
 2603 1600 2F00      	move.l %d0,-(%sp)
 2604               	.cfi_def_cfa_offset 304
 2605 1602 4EB9 0000 	jsr strlen
 2605      0000 
 2606 1608 588F      	addq.l #4,%sp
 2607               	.cfi_def_cfa_offset 300
 2608 160a 2F40 011C 	move.l %d0,284(%sp)
1394:/home/simulink/cFS_FreeRTOS_seL4/cfe/fsw/cfe-core/src/es/cfe_es_api.c ****             strncpy((char *)&(CFE_ES_ResetDataPtr->SystemLog[CFE_ES_ResetDataPtr->SystemLogIndex]),
 2609               	.loc 2 1394 0
 2610 160e 2239 0000 	move.l CFE_ES_ResetDataPtr,%d1
 2610      0000 
 2611 1614 2079 0000 	move.l CFE_ES_ResetDataPtr,%a0
 2611      0000 
 2612 161a 2028 20AC 	move.l 8364(%a0),%d0
 2613 161e 0680 0000 	add.l #5292,%d0
 2613      14AC 
 2614 1624 D280      	add.l %d0,%d1
 2615 1626 2F2F 011C 	move.l 284(%sp),-(%sp)
 2616               	.cfi_def_cfa_offset 304
 2617 162a 200F      	move.l %sp,%d0
 2618 162c 0680 0000 	add.l #129,%d0
 2618      0081 
 2619 1632 2F00      	move.l %d0,-(%sp)
 2620               	.cfi_def_cfa_offset 308
 2621 1634 2F01      	move.l %d1,-(%sp)
 2622               	.cfi_def_cfa_offset 312
 2623 1636 4EB9 0000 	jsr strncpy
 2623      0000 
 2624 163c 4FEF 000C 	lea (12,%sp),%sp
 2625               	.cfi_def_cfa_offset 300
1395:/home/simulink/cFS_FreeRTOS_seL4/cfe/fsw/cfe-core/src/es/cfe_es_api.c ****             CFE_ES_ResetDataPtr->SystemLogIndex = CFE_ES_ResetDataPtr->SystemLogIndex + TmpStringLe
 2626               	.loc 2 1395 0
 2627 1640 2079 0000 	move.l CFE_ES_ResetDataPtr,%a0
 2627      0000 
 2628 1646 2028 20AC 	move.l 8364(%a0),%d0
 2629 164a 2079 0000 	move.l CFE_ES_ResetDataPtr,%a0
 2629      0000 
 2630 1650 D0AF 011C 	add.l 284(%sp),%d0
 2631 1654 2140 20AC 	move.l %d0,8364(%a0)
1396:/home/simulink/cFS_FreeRTOS_seL4/cfe/fsw/cfe-core/src/es/cfe_es_api.c ****             CFE_ES_ResetDataPtr->SystemLogEntryNum = CFE_ES_ResetDataPtr->SystemLogEntryNum + 1;
 2632               	.loc 2 1396 0
 2633 1658 2079 0000 	move.l CFE_ES_ResetDataPtr,%a0
 2633      0000 
68K GAS   			page 91


 2634 165e 2028 20B4 	move.l 8372(%a0),%d0
 2635 1662 2079 0000 	move.l CFE_ES_ResetDataPtr,%a0
 2635      0000 
 2636 1668 5280      	addq.l #1,%d0
 2637 166a 2140 20B4 	move.l %d0,8372(%a0)
1397:/home/simulink/cFS_FreeRTOS_seL4/cfe/fsw/cfe-core/src/es/cfe_es_api.c ****             ReturnCode = CFE_SUCCESS;
 2638               	.loc 2 1397 0
 2639 166e 42AF 0124 	clr.l 292(%sp)
 2640 1672 6000 0118 	jra .L135
 2641               	.L131:
1398:/home/simulink/cFS_FreeRTOS_seL4/cfe/fsw/cfe-core/src/es/cfe_es_api.c ****         }
1399:/home/simulink/cFS_FreeRTOS_seL4/cfe/fsw/cfe-core/src/es/cfe_es_api.c ****     }
1400:/home/simulink/cFS_FreeRTOS_seL4/cfe/fsw/cfe-core/src/es/cfe_es_api.c ****     else if ( CFE_ES_ResetDataPtr->SystemLogMode == CFE_ES_LOG_OVERWRITE )
 2642               	.loc 2 1400 0
 2643 1676 2079 0000 	move.l CFE_ES_ResetDataPtr,%a0
 2643      0000 
 2644 167c 2028 20B0 	move.l 8368(%a0),%d0
 2645 1680 4A80      	tst.l %d0
 2646 1682 6600 00F0 	jne .L136
1401:/home/simulink/cFS_FreeRTOS_seL4/cfe/fsw/cfe-core/src/es/cfe_es_api.c ****     {
1402:/home/simulink/cFS_FreeRTOS_seL4/cfe/fsw/cfe-core/src/es/cfe_es_api.c ****         /* if the index is already out of bounds, reset it to zero */
1403:/home/simulink/cFS_FreeRTOS_seL4/cfe/fsw/cfe-core/src/es/cfe_es_api.c ****         if ( CFE_ES_ResetDataPtr->SystemLogIndex >= CFE_ES_SYSTEM_LOG_SIZE )  
 2647               	.loc 2 1403 0
 2648 1686 2079 0000 	move.l CFE_ES_ResetDataPtr,%a0
 2648      0000 
 2649 168c 2028 20AC 	move.l 8364(%a0),%d0
 2650 1690 0C80 0000 	cmp.l #3071,%d0
 2650      0BFF 
 2651 1696 630C      	jls .L137
1404:/home/simulink/cFS_FreeRTOS_seL4/cfe/fsw/cfe-core/src/es/cfe_es_api.c ****         {
1405:/home/simulink/cFS_FreeRTOS_seL4/cfe/fsw/cfe-core/src/es/cfe_es_api.c ****            CFE_ES_ResetDataPtr->SystemLogIndex = 0;
 2652               	.loc 2 1405 0
 2653 1698 2079 0000 	move.l CFE_ES_ResetDataPtr,%a0
 2653      0000 
 2654 169e 42A8 20AC 	clr.l 8364(%a0)
 2655 16a2 6054      	jra .L138
 2656               	.L137:
1406:/home/simulink/cFS_FreeRTOS_seL4/cfe/fsw/cfe-core/src/es/cfe_es_api.c ****         }
1407:/home/simulink/cFS_FreeRTOS_seL4/cfe/fsw/cfe-core/src/es/cfe_es_api.c ****         /* the message will not fit in the remaining space */
1408:/home/simulink/cFS_FreeRTOS_seL4/cfe/fsw/cfe-core/src/es/cfe_es_api.c ****         else if ((CFE_ES_ResetDataPtr->SystemLogIndex + TmpStringLen) >= CFE_ES_SYSTEM_LOG_SIZE)  
 2657               	.loc 2 1408 0
 2658 16a4 2079 0000 	move.l CFE_ES_ResetDataPtr,%a0
 2658      0000 
 2659 16aa 2028 20AC 	move.l 8364(%a0),%d0
 2660 16ae D0AF 011C 	add.l 284(%sp),%d0
 2661 16b2 0C80 0000 	cmp.l #3071,%d0
 2661      0BFF 
 2662 16b8 633E      	jls .L138
1409:/home/simulink/cFS_FreeRTOS_seL4/cfe/fsw/cfe-core/src/es/cfe_es_api.c ****         {
1410:/home/simulink/cFS_FreeRTOS_seL4/cfe/fsw/cfe-core/src/es/cfe_es_api.c ****             /* pad the space at the end of the log to remove any partial old messages */
1411:/home/simulink/cFS_FreeRTOS_seL4/cfe/fsw/cfe-core/src/es/cfe_es_api.c ****             for (i = CFE_ES_ResetDataPtr->SystemLogIndex; i < CFE_ES_SYSTEM_LOG_SIZE; i++)
 2663               	.loc 2 1411 0
 2664 16ba 2079 0000 	move.l CFE_ES_ResetDataPtr,%a0
 2664      0000 
 2665 16c0 2028 20AC 	move.l 8364(%a0),%d0
 2666 16c4 2F40 0120 	move.l %d0,288(%sp)
 2667 16c8 6018      	jra .L139
68K GAS   			page 92


 2668               	.L140:
1412:/home/simulink/cFS_FreeRTOS_seL4/cfe/fsw/cfe-core/src/es/cfe_es_api.c ****             {
1413:/home/simulink/cFS_FreeRTOS_seL4/cfe/fsw/cfe-core/src/es/cfe_es_api.c ****                 CFE_ES_ResetDataPtr->SystemLog[i] = ' ';
 2669               	.loc 2 1413 0 discriminator 3
 2670 16ca 2039 0000 	move.l CFE_ES_ResetDataPtr,%d0
 2670      0000 
 2671 16d0 D0AF 0120 	add.l 288(%sp),%d0
 2672 16d4 2040      	move.l %d0,%a0
 2673 16d6 41E8 14AC 	lea (5292,%a0),%a0
 2674 16da 10BC 0020 	move.b #32,(%a0)
1411:/home/simulink/cFS_FreeRTOS_seL4/cfe/fsw/cfe-core/src/es/cfe_es_api.c ****             {
 2675               	.loc 2 1411 0 discriminator 3
 2676 16de 52AF 0120 	addq.l #1,288(%sp)
 2677               	.L139:
1411:/home/simulink/cFS_FreeRTOS_seL4/cfe/fsw/cfe-core/src/es/cfe_es_api.c ****             {
 2678               	.loc 2 1411 0 is_stmt 0 discriminator 1
 2679 16e2 223C 0000 	move.l #3071,%d1
 2679      0BFF 
 2680 16e8 B2AF 0120 	cmp.l 288(%sp),%d1
 2681 16ec 6CDC      	jge .L140
1414:/home/simulink/cFS_FreeRTOS_seL4/cfe/fsw/cfe-core/src/es/cfe_es_api.c ****             }
1415:/home/simulink/cFS_FreeRTOS_seL4/cfe/fsw/cfe-core/src/es/cfe_es_api.c ****             CFE_ES_ResetDataPtr->SystemLogIndex = 0;
 2682               	.loc 2 1415 0 is_stmt 1
 2683 16ee 2079 0000 	move.l CFE_ES_ResetDataPtr,%a0
 2683      0000 
 2684 16f4 42A8 20AC 	clr.l 8364(%a0)
 2685               	.L138:
1416:/home/simulink/cFS_FreeRTOS_seL4/cfe/fsw/cfe-core/src/es/cfe_es_api.c ****         }
1417:/home/simulink/cFS_FreeRTOS_seL4/cfe/fsw/cfe-core/src/es/cfe_es_api.c **** 
1418:/home/simulink/cFS_FreeRTOS_seL4/cfe/fsw/cfe-core/src/es/cfe_es_api.c ****         TmpStringLen = strlen(TmpString);
 2686               	.loc 2 1418 0
 2687 16f8 200F      	move.l %sp,%d0
 2688 16fa 0680 0000 	add.l #125,%d0
 2688      007D 
 2689 1700 2F00      	move.l %d0,-(%sp)
 2690               	.cfi_def_cfa_offset 304
 2691 1702 4EB9 0000 	jsr strlen
 2691      0000 
 2692 1708 588F      	addq.l #4,%sp
 2693               	.cfi_def_cfa_offset 300
 2694 170a 2F40 011C 	move.l %d0,284(%sp)
1419:/home/simulink/cFS_FreeRTOS_seL4/cfe/fsw/cfe-core/src/es/cfe_es_api.c ****         strncpy((char *)&(CFE_ES_ResetDataPtr->SystemLog[CFE_ES_ResetDataPtr->SystemLogIndex]), Tmp
 2695               	.loc 2 1419 0
 2696 170e 2239 0000 	move.l CFE_ES_ResetDataPtr,%d1
 2696      0000 
 2697 1714 2079 0000 	move.l CFE_ES_ResetDataPtr,%a0
 2697      0000 
 2698 171a 2028 20AC 	move.l 8364(%a0),%d0
 2699 171e 0680 0000 	add.l #5292,%d0
 2699      14AC 
 2700 1724 D280      	add.l %d0,%d1
 2701 1726 2F2F 011C 	move.l 284(%sp),-(%sp)
 2702               	.cfi_def_cfa_offset 304
 2703 172a 200F      	move.l %sp,%d0
 2704 172c 0680 0000 	add.l #129,%d0
 2704      0081 
 2705 1732 2F00      	move.l %d0,-(%sp)
68K GAS   			page 93


 2706               	.cfi_def_cfa_offset 308
 2707 1734 2F01      	move.l %d1,-(%sp)
 2708               	.cfi_def_cfa_offset 312
 2709 1736 4EB9 0000 	jsr strncpy
 2709      0000 
 2710 173c 4FEF 000C 	lea (12,%sp),%sp
 2711               	.cfi_def_cfa_offset 300
1420:/home/simulink/cFS_FreeRTOS_seL4/cfe/fsw/cfe-core/src/es/cfe_es_api.c ****         CFE_ES_ResetDataPtr->SystemLogIndex = CFE_ES_ResetDataPtr->SystemLogIndex + TmpStringLen;
 2712               	.loc 2 1420 0
 2713 1740 2079 0000 	move.l CFE_ES_ResetDataPtr,%a0
 2713      0000 
 2714 1746 2028 20AC 	move.l 8364(%a0),%d0
 2715 174a 2079 0000 	move.l CFE_ES_ResetDataPtr,%a0
 2715      0000 
 2716 1750 D0AF 011C 	add.l 284(%sp),%d0
 2717 1754 2140 20AC 	move.l %d0,8364(%a0)
1421:/home/simulink/cFS_FreeRTOS_seL4/cfe/fsw/cfe-core/src/es/cfe_es_api.c ****         CFE_ES_ResetDataPtr->SystemLogEntryNum = CFE_ES_ResetDataPtr->SystemLogEntryNum + 1;
 2718               	.loc 2 1421 0
 2719 1758 2079 0000 	move.l CFE_ES_ResetDataPtr,%a0
 2719      0000 
 2720 175e 2028 20B4 	move.l 8372(%a0),%d0
 2721 1762 2079 0000 	move.l CFE_ES_ResetDataPtr,%a0
 2721      0000 
 2722 1768 5280      	addq.l #1,%d0
 2723 176a 2140 20B4 	move.l %d0,8372(%a0)
1422:/home/simulink/cFS_FreeRTOS_seL4/cfe/fsw/cfe-core/src/es/cfe_es_api.c ****         ReturnCode = CFE_SUCCESS;
 2724               	.loc 2 1422 0
 2725 176e 42AF 0124 	clr.l 292(%sp)
 2726 1772 6018      	jra .L135
 2727               	.L136:
1423:/home/simulink/cFS_FreeRTOS_seL4/cfe/fsw/cfe-core/src/es/cfe_es_api.c ****     }
1424:/home/simulink/cFS_FreeRTOS_seL4/cfe/fsw/cfe-core/src/es/cfe_es_api.c ****     else
1425:/home/simulink/cFS_FreeRTOS_seL4/cfe/fsw/cfe-core/src/es/cfe_es_api.c ****     {
1426:/home/simulink/cFS_FreeRTOS_seL4/cfe/fsw/cfe-core/src/es/cfe_es_api.c ****         OS_printf("Warning: Invalid System Log mode, log entry discarded.\n");
 2728               	.loc 2 1426 0
 2729 1774 4879 0000 	pea .LC45
 2729      0000 
 2730               	.cfi_def_cfa_offset 304
 2731 177a 4EB9 0000 	jsr OS_printf
 2731      0000 
 2732 1780 588F      	addq.l #4,%sp
 2733               	.cfi_def_cfa_offset 300
1427:/home/simulink/cFS_FreeRTOS_seL4/cfe/fsw/cfe-core/src/es/cfe_es_api.c ****         ReturnCode = CFE_ES_ERR_SYS_LOG_FULL;
 2734               	.loc 2 1427 0
 2735 1782 207C C400 	move.l #-1006632954,%a0
 2735      0006 
 2736 1788 2F48 0124 	move.l %a0,292(%sp)
 2737               	.L135:
1428:/home/simulink/cFS_FreeRTOS_seL4/cfe/fsw/cfe-core/src/es/cfe_es_api.c ****     }    
1429:/home/simulink/cFS_FreeRTOS_seL4/cfe/fsw/cfe-core/src/es/cfe_es_api.c **** 
1430:/home/simulink/cFS_FreeRTOS_seL4/cfe/fsw/cfe-core/src/es/cfe_es_api.c ****     return(ReturnCode);
 2738               	.loc 2 1430 0
 2739 178c 202F 0124 	move.l 292(%sp),%d0
1431:/home/simulink/cFS_FreeRTOS_seL4/cfe/fsw/cfe-core/src/es/cfe_es_api.c **** 
1432:/home/simulink/cFS_FreeRTOS_seL4/cfe/fsw/cfe-core/src/es/cfe_es_api.c **** } /* End of CFE_ES_WriteToSysLog() */
 2740               	.loc 2 1432 0
 2741 1790 4FEF 0128 	lea (296,%sp),%sp
68K GAS   			page 94


 2742 1794 4E75      	rts
 2743               	.cfi_endproc
 2744               	.LFE78:
 2745               	.sizeCFE_ES_WriteToSysLog, .-CFE_ES_WriteToSysLog
 2746               	.section.rodata
 2747               	.LC46:
 2748 0a6c 4346 4520 	.string"CFE ES Calculate CRC32 not Implemented\n"
 2748      4553 2043 
 2748      616C 6375 
 2748      6C61 7465 
 2748      2043 5243 
 2749               	.LC47:
 2750 0a94 4346 4520 	.string"CFE ES Calculate CRC8 not Implemented\n"
 2750      4553 2043 
 2750      616C 6375 
 2750      6C61 7465 
 2750      2043 5243 
 2751               	.text
 2752               	.align2
 2753               	.globlCFE_ES_CalculateCRC
 2754               	.typeCFE_ES_CalculateCRC, @function
 2755               	CFE_ES_CalculateCRC:
 2756               	.LFB79:
1433:/home/simulink/cFS_FreeRTOS_seL4/cfe/fsw/cfe-core/src/es/cfe_es_api.c **** 
1434:/home/simulink/cFS_FreeRTOS_seL4/cfe/fsw/cfe-core/src/es/cfe_es_api.c **** 
1435:/home/simulink/cFS_FreeRTOS_seL4/cfe/fsw/cfe-core/src/es/cfe_es_api.c **** /*
1436:/home/simulink/cFS_FreeRTOS_seL4/cfe/fsw/cfe-core/src/es/cfe_es_api.c **** ** Function: CFE_ES_CalculateCRC
1437:/home/simulink/cFS_FreeRTOS_seL4/cfe/fsw/cfe-core/src/es/cfe_es_api.c **** **
1438:/home/simulink/cFS_FreeRTOS_seL4/cfe/fsw/cfe-core/src/es/cfe_es_api.c **** ** Purpose:  Perform a CRC calculation on a range of memory.
1439:/home/simulink/cFS_FreeRTOS_seL4/cfe/fsw/cfe-core/src/es/cfe_es_api.c **** **
1440:/home/simulink/cFS_FreeRTOS_seL4/cfe/fsw/cfe-core/src/es/cfe_es_api.c **** */
1441:/home/simulink/cFS_FreeRTOS_seL4/cfe/fsw/cfe-core/src/es/cfe_es_api.c **** uint32 CFE_ES_CalculateCRC(const void *DataPtr, uint32 DataLength, uint32 InputCRC, uint32 TypeCRC)
1442:/home/simulink/cFS_FreeRTOS_seL4/cfe/fsw/cfe-core/src/es/cfe_es_api.c **** {
 2757               	.loc 2 1442 0
 2758               	.cfi_startproc
 2759 1796 4FEF FFF0 	lea (-16,%sp),%sp
 2760               	.cfi_def_cfa_offset 20
1443:/home/simulink/cFS_FreeRTOS_seL4/cfe/fsw/cfe-core/src/es/cfe_es_api.c ****     uint32  i;
1444:/home/simulink/cFS_FreeRTOS_seL4/cfe/fsw/cfe-core/src/es/cfe_es_api.c ****     int16  Index;
1445:/home/simulink/cFS_FreeRTOS_seL4/cfe/fsw/cfe-core/src/es/cfe_es_api.c ****     int16  Crc = 0;
 2761               	.loc 2 1445 0
 2762 179a 4240      	clr.w %d0
 2763 179c 3F40 000A 	move.w %d0,10(%sp)
1446:/home/simulink/cFS_FreeRTOS_seL4/cfe/fsw/cfe-core/src/es/cfe_es_api.c ****     const uint8 *BufPtr;
1447:/home/simulink/cFS_FreeRTOS_seL4/cfe/fsw/cfe-core/src/es/cfe_es_api.c ****     uint8  ByteValue;
1448:/home/simulink/cFS_FreeRTOS_seL4/cfe/fsw/cfe-core/src/es/cfe_es_api.c **** 
1449:/home/simulink/cFS_FreeRTOS_seL4/cfe/fsw/cfe-core/src/es/cfe_es_api.c ****     static const uint16 CrcTable[256]=
1450:/home/simulink/cFS_FreeRTOS_seL4/cfe/fsw/cfe-core/src/es/cfe_es_api.c ****     {
1451:/home/simulink/cFS_FreeRTOS_seL4/cfe/fsw/cfe-core/src/es/cfe_es_api.c **** 
1452:/home/simulink/cFS_FreeRTOS_seL4/cfe/fsw/cfe-core/src/es/cfe_es_api.c **** 		    0x0000, 0xC0C1, 0xC181, 0x0140, 0xC301, 0x03C0, 0x0280, 0xC241,
1453:/home/simulink/cFS_FreeRTOS_seL4/cfe/fsw/cfe-core/src/es/cfe_es_api.c **** 		    0xC601, 0x06C0, 0x0780, 0xC741, 0x0500, 0xC5C1, 0xC481, 0x0440,
1454:/home/simulink/cFS_FreeRTOS_seL4/cfe/fsw/cfe-core/src/es/cfe_es_api.c **** 		    0xCC01, 0x0CC0, 0x0D80, 0xCD41, 0x0F00, 0xCFC1, 0xCE81, 0x0E40,
1455:/home/simulink/cFS_FreeRTOS_seL4/cfe/fsw/cfe-core/src/es/cfe_es_api.c **** 		    0x0A00, 0xCAC1, 0xCB81, 0x0B40, 0xC901, 0x09C0, 0x0880, 0xC841,
1456:/home/simulink/cFS_FreeRTOS_seL4/cfe/fsw/cfe-core/src/es/cfe_es_api.c **** 		    0xD801, 0x18C0, 0x1980, 0xD941, 0x1B00, 0xDBC1, 0xDA81, 0x1A40,
1457:/home/simulink/cFS_FreeRTOS_seL4/cfe/fsw/cfe-core/src/es/cfe_es_api.c **** 		    0x1E00, 0xDEC1, 0xDF81, 0x1F40, 0xDD01, 0x1DC0, 0x1C80, 0xDC41,
1458:/home/simulink/cFS_FreeRTOS_seL4/cfe/fsw/cfe-core/src/es/cfe_es_api.c **** 		    0x1400, 0xD4C1, 0xD581, 0x1540, 0xD701, 0x17C0, 0x1680, 0xD641,
1459:/home/simulink/cFS_FreeRTOS_seL4/cfe/fsw/cfe-core/src/es/cfe_es_api.c **** 		    0xD201, 0x12C0, 0x1380, 0xD341, 0x1100, 0xD1C1, 0xD081, 0x1040,
68K GAS   			page 95


1460:/home/simulink/cFS_FreeRTOS_seL4/cfe/fsw/cfe-core/src/es/cfe_es_api.c **** 		    0xF001, 0x30C0, 0x3180, 0xF141, 0x3300, 0xF3C1, 0xF281, 0x3240,
1461:/home/simulink/cFS_FreeRTOS_seL4/cfe/fsw/cfe-core/src/es/cfe_es_api.c **** 		    0x3600, 0xF6C1, 0xF781, 0x3740, 0xF501, 0x35C0, 0x3480, 0xF441,
1462:/home/simulink/cFS_FreeRTOS_seL4/cfe/fsw/cfe-core/src/es/cfe_es_api.c **** 		    0x3C00, 0xFCC1, 0xFD81, 0x3D40, 0xFF01, 0x3FC0, 0x3E80, 0xFE41,
1463:/home/simulink/cFS_FreeRTOS_seL4/cfe/fsw/cfe-core/src/es/cfe_es_api.c **** 		    0xFA01, 0x3AC0, 0x3B80, 0xFB41, 0x3900, 0xF9C1, 0xF881, 0x3840,
1464:/home/simulink/cFS_FreeRTOS_seL4/cfe/fsw/cfe-core/src/es/cfe_es_api.c **** 		    0x2800, 0xE8C1, 0xE981, 0x2940, 0xEB01, 0x2BC0, 0x2A80, 0xEA41,
1465:/home/simulink/cFS_FreeRTOS_seL4/cfe/fsw/cfe-core/src/es/cfe_es_api.c **** 		    0xEE01, 0x2EC0, 0x2F80, 0xEF41, 0x2D00, 0xEDC1, 0xEC81, 0x2C40,
1466:/home/simulink/cFS_FreeRTOS_seL4/cfe/fsw/cfe-core/src/es/cfe_es_api.c **** 		    0xE401, 0x24C0, 0x2580, 0xE541, 0x2700, 0xE7C1, 0xE681, 0x2640,
1467:/home/simulink/cFS_FreeRTOS_seL4/cfe/fsw/cfe-core/src/es/cfe_es_api.c **** 		    0x2200, 0xE2C1, 0xE381, 0x2340, 0xE101, 0x21C0, 0x2080, 0xE041,
1468:/home/simulink/cFS_FreeRTOS_seL4/cfe/fsw/cfe-core/src/es/cfe_es_api.c **** 		    0xA001, 0x60C0, 0x6180, 0xA141, 0x6300, 0xA3C1, 0xA281, 0x6240,
1469:/home/simulink/cFS_FreeRTOS_seL4/cfe/fsw/cfe-core/src/es/cfe_es_api.c **** 		    0x6600, 0xA6C1, 0xA781, 0x6740, 0xA501, 0x65C0, 0x6480, 0xA441,
1470:/home/simulink/cFS_FreeRTOS_seL4/cfe/fsw/cfe-core/src/es/cfe_es_api.c **** 		    0x6C00, 0xACC1, 0xAD81, 0x6D40, 0xAF01, 0x6FC0, 0x6E80, 0xAE41,
1471:/home/simulink/cFS_FreeRTOS_seL4/cfe/fsw/cfe-core/src/es/cfe_es_api.c **** 		    0xAA01, 0x6AC0, 0x6B80, 0xAB41, 0x6900, 0xA9C1, 0xA881, 0x6840,
1472:/home/simulink/cFS_FreeRTOS_seL4/cfe/fsw/cfe-core/src/es/cfe_es_api.c **** 		    0x7800, 0xB8C1, 0xB981, 0x7940, 0xBB01, 0x7BC0, 0x7A80, 0xBA41,
1473:/home/simulink/cFS_FreeRTOS_seL4/cfe/fsw/cfe-core/src/es/cfe_es_api.c **** 		    0xBE01, 0x7EC0, 0x7F80, 0xBF41, 0x7D00, 0xBDC1, 0xBC81, 0x7C40,
1474:/home/simulink/cFS_FreeRTOS_seL4/cfe/fsw/cfe-core/src/es/cfe_es_api.c **** 		    0xB401, 0x74C0, 0x7580, 0xB541, 0x7700, 0xB7C1, 0xB681, 0x7640,
1475:/home/simulink/cFS_FreeRTOS_seL4/cfe/fsw/cfe-core/src/es/cfe_es_api.c **** 		    0x7200, 0xB2C1, 0xB381, 0x7340, 0xB101, 0x71C0, 0x7080, 0xB041,
1476:/home/simulink/cFS_FreeRTOS_seL4/cfe/fsw/cfe-core/src/es/cfe_es_api.c **** 		    0x5000, 0x90C1, 0x9181, 0x5140, 0x9301, 0x53C0, 0x5280, 0x9241,
1477:/home/simulink/cFS_FreeRTOS_seL4/cfe/fsw/cfe-core/src/es/cfe_es_api.c **** 		    0x9601, 0x56C0, 0x5780, 0x9741, 0x5500, 0x95C1, 0x9481, 0x5440,
1478:/home/simulink/cFS_FreeRTOS_seL4/cfe/fsw/cfe-core/src/es/cfe_es_api.c **** 		    0x9C01, 0x5CC0, 0x5D80, 0x9D41, 0x5F00, 0x9FC1, 0x9E81, 0x5E40,
1479:/home/simulink/cFS_FreeRTOS_seL4/cfe/fsw/cfe-core/src/es/cfe_es_api.c **** 		    0x5A00, 0x9AC1, 0x9B81, 0x5B40, 0x9901, 0x59C0, 0x5880, 0x9841,
1480:/home/simulink/cFS_FreeRTOS_seL4/cfe/fsw/cfe-core/src/es/cfe_es_api.c **** 		    0x8801, 0x48C0, 0x4980, 0x8941, 0x4B00, 0x8BC1, 0x8A81, 0x4A40,
1481:/home/simulink/cFS_FreeRTOS_seL4/cfe/fsw/cfe-core/src/es/cfe_es_api.c **** 		    0x4E00, 0x8EC1, 0x8F81, 0x4F40, 0x8D01, 0x4DC0, 0x4C80, 0x8C41,
1482:/home/simulink/cFS_FreeRTOS_seL4/cfe/fsw/cfe-core/src/es/cfe_es_api.c **** 		    0x4400, 0x84C1, 0x8581, 0x4540, 0x8701, 0x47C0, 0x4680, 0x8641,
1483:/home/simulink/cFS_FreeRTOS_seL4/cfe/fsw/cfe-core/src/es/cfe_es_api.c **** 		    0x8201, 0x42C0, 0x4380, 0x8341, 0x4100, 0x81C1, 0x8081, 0x4040
1484:/home/simulink/cFS_FreeRTOS_seL4/cfe/fsw/cfe-core/src/es/cfe_es_api.c **** 
1485:/home/simulink/cFS_FreeRTOS_seL4/cfe/fsw/cfe-core/src/es/cfe_es_api.c ****     };
1486:/home/simulink/cFS_FreeRTOS_seL4/cfe/fsw/cfe-core/src/es/cfe_es_api.c **** 
1487:/home/simulink/cFS_FreeRTOS_seL4/cfe/fsw/cfe-core/src/es/cfe_es_api.c ****     switch(TypeCRC)
 2764               	.loc 2 1487 0
 2765 17a0 202F 0020 	move.l 32(%sp),%d0
 2766 17a4 7202      	moveq #2,%d1
 2767 17a6 B280      	cmp.l %d0,%d1
 2768 17a8 6724      	jeq .L144
 2769 17aa 7203      	moveq #3,%d1
 2770 17ac B280      	cmp.l %d0,%d1
 2771 17ae 670C      	jeq .L145
 2772 17b0 7201      	moveq #1,%d1
 2773 17b2 B280      	cmp.l %d0,%d1
 2774 17b4 6700 00A8 	jeq .L146
1488:/home/simulink/cFS_FreeRTOS_seL4/cfe/fsw/cfe-core/src/es/cfe_es_api.c ****     {
1489:/home/simulink/cFS_FreeRTOS_seL4/cfe/fsw/cfe-core/src/es/cfe_es_api.c ****       case CFE_ES_CRC_32:
1490:/home/simulink/cFS_FreeRTOS_seL4/cfe/fsw/cfe-core/src/es/cfe_es_api.c ****            CFE_ES_WriteToSysLog("CFE ES Calculate CRC32 not Implemented\n");
1491:/home/simulink/cFS_FreeRTOS_seL4/cfe/fsw/cfe-core/src/es/cfe_es_api.c ****            break;
1492:/home/simulink/cFS_FreeRTOS_seL4/cfe/fsw/cfe-core/src/es/cfe_es_api.c **** 
1493:/home/simulink/cFS_FreeRTOS_seL4/cfe/fsw/cfe-core/src/es/cfe_es_api.c ****       case CFE_ES_CRC_16:
1494:/home/simulink/cFS_FreeRTOS_seL4/cfe/fsw/cfe-core/src/es/cfe_es_api.c ****            Crc    =  (int16 )( 0xFFFF & InputCRC );
1495:/home/simulink/cFS_FreeRTOS_seL4/cfe/fsw/cfe-core/src/es/cfe_es_api.c ****            BufPtr = (const uint8 *)DataPtr;
1496:/home/simulink/cFS_FreeRTOS_seL4/cfe/fsw/cfe-core/src/es/cfe_es_api.c **** 
1497:/home/simulink/cFS_FreeRTOS_seL4/cfe/fsw/cfe-core/src/es/cfe_es_api.c ****            for ( i = 0 ; i < DataLength ; i++,  BufPtr++)
1498:/home/simulink/cFS_FreeRTOS_seL4/cfe/fsw/cfe-core/src/es/cfe_es_api.c ****            {
1499:/home/simulink/cFS_FreeRTOS_seL4/cfe/fsw/cfe-core/src/es/cfe_es_api.c ****               if (CFE_PSP_MemRead8((cpuaddr)BufPtr, &ByteValue) != CFE_PSP_SUCCESS)
1500:/home/simulink/cFS_FreeRTOS_seL4/cfe/fsw/cfe-core/src/es/cfe_es_api.c ****               {
1501:/home/simulink/cFS_FreeRTOS_seL4/cfe/fsw/cfe-core/src/es/cfe_es_api.c ****                  ByteValue = 0;
1502:/home/simulink/cFS_FreeRTOS_seL4/cfe/fsw/cfe-core/src/es/cfe_es_api.c ****               }
1503:/home/simulink/cFS_FreeRTOS_seL4/cfe/fsw/cfe-core/src/es/cfe_es_api.c ****               Index = ( ( Crc ^ ByteValue) & 0x00FF);
1504:/home/simulink/cFS_FreeRTOS_seL4/cfe/fsw/cfe-core/src/es/cfe_es_api.c ****               Crc = ( (Crc >> 8 ) & 0x00FF) ^ CrcTable[Index];
1505:/home/simulink/cFS_FreeRTOS_seL4/cfe/fsw/cfe-core/src/es/cfe_es_api.c ****            }
68K GAS   			page 96


1506:/home/simulink/cFS_FreeRTOS_seL4/cfe/fsw/cfe-core/src/es/cfe_es_api.c ****            break;
1507:/home/simulink/cFS_FreeRTOS_seL4/cfe/fsw/cfe-core/src/es/cfe_es_api.c **** 
1508:/home/simulink/cFS_FreeRTOS_seL4/cfe/fsw/cfe-core/src/es/cfe_es_api.c ****       case CFE_ES_CRC_8:
1509:/home/simulink/cFS_FreeRTOS_seL4/cfe/fsw/cfe-core/src/es/cfe_es_api.c ****            CFE_ES_WriteToSysLog("CFE ES Calculate CRC8 not Implemented\n");
1510:/home/simulink/cFS_FreeRTOS_seL4/cfe/fsw/cfe-core/src/es/cfe_es_api.c ****            break;
1511:/home/simulink/cFS_FreeRTOS_seL4/cfe/fsw/cfe-core/src/es/cfe_es_api.c **** 
1512:/home/simulink/cFS_FreeRTOS_seL4/cfe/fsw/cfe-core/src/es/cfe_es_api.c ****       default:
1513:/home/simulink/cFS_FreeRTOS_seL4/cfe/fsw/cfe-core/src/es/cfe_es_api.c ****            break;
 2775               	.loc 2 1513 0
 2776 17b8 6000 00B4 	jra .L147
 2777               	.L145:
1490:/home/simulink/cFS_FreeRTOS_seL4/cfe/fsw/cfe-core/src/es/cfe_es_api.c ****            break;
 2778               	.loc 2 1490 0
 2779 17bc 4879 0000 	pea .LC46
 2779      0000 
 2780               	.cfi_def_cfa_offset 24
 2781 17c2 4EB9 0000 	jsr CFE_ES_WriteToSysLog
 2781      0000 
 2782 17c8 588F      	addq.l #4,%sp
 2783               	.cfi_def_cfa_offset 20
1491:/home/simulink/cFS_FreeRTOS_seL4/cfe/fsw/cfe-core/src/es/cfe_es_api.c **** 
 2784               	.loc 2 1491 0
 2785 17ca 6000 00A2 	jra .L147
 2786               	.L144:
1494:/home/simulink/cFS_FreeRTOS_seL4/cfe/fsw/cfe-core/src/es/cfe_es_api.c ****            BufPtr = (const uint8 *)DataPtr;
 2787               	.loc 2 1494 0
 2788 17ce 202F 001C 	move.l 28(%sp),%d0
 2789 17d2 3F40 000A 	move.w %d0,10(%sp)
1495:/home/simulink/cFS_FreeRTOS_seL4/cfe/fsw/cfe-core/src/es/cfe_es_api.c **** 
 2790               	.loc 2 1495 0
 2791 17d6 2F6F 0014 	move.l 20(%sp),4(%sp)
 2791      0004 
1497:/home/simulink/cFS_FreeRTOS_seL4/cfe/fsw/cfe-core/src/es/cfe_es_api.c ****            {
 2792               	.loc 2 1497 0
 2793 17dc 42AF 000C 	clr.l 12(%sp)
 2794 17e0 6070      	jra .L148
 2795               	.L150:
1499:/home/simulink/cFS_FreeRTOS_seL4/cfe/fsw/cfe-core/src/es/cfe_es_api.c ****               {
 2796               	.loc 2 1499 0
 2797 17e2 222F 0004 	move.l 4(%sp),%d1
 2798 17e6 200F      	move.l %sp,%d0
 2799 17e8 5280      	addq.l #1,%d0
 2800 17ea 2F00      	move.l %d0,-(%sp)
 2801               	.cfi_def_cfa_offset 24
 2802 17ec 2F01      	move.l %d1,-(%sp)
 2803               	.cfi_def_cfa_offset 28
 2804 17ee 4EB9 0000 	jsr CFE_PSP_MemRead8
 2804      0000 
 2805 17f4 508F      	addq.l #8,%sp
 2806               	.cfi_def_cfa_offset 20
 2807 17f6 4A80      	tst.l %d0
 2808 17f8 6706      	jeq .L149
1501:/home/simulink/cFS_FreeRTOS_seL4/cfe/fsw/cfe-core/src/es/cfe_es_api.c ****               }
 2809               	.loc 2 1501 0
 2810 17fa 4200      	clr.b %d0
 2811 17fc 1F40 0001 	move.b %d0,1(%sp)
 2812               	.L149:
68K GAS   			page 97


1503:/home/simulink/cFS_FreeRTOS_seL4/cfe/fsw/cfe-core/src/es/cfe_es_api.c ****               Crc = ( (Crc >> 8 ) & 0x00FF) ^ CrcTable[Index];
 2813               	.loc 2 1503 0 discriminator 2
 2814 1800 102F 0001 	move.b 1(%sp),%d0
 2815 1804 1000      	move.b %d0,%d0
 2816 1806 0280 0000 	and.l #255,%d0
 2816      00FF 
 2817 180c 3000      	move.w %d0,%d0
 2818 180e 322F 000A 	move.w 10(%sp),%d1
 2819 1812 B380      	eor.l %d1,%d0
 2820 1814 3000      	move.w %d0,%d0
 2821 1816 0280 0000 	and.l #255,%d0
 2821      00FF 
 2822 181c 3F40 0002 	move.w %d0,2(%sp)
1504:/home/simulink/cFS_FreeRTOS_seL4/cfe/fsw/cfe-core/src/es/cfe_es_api.c ****            }
 2823               	.loc 2 1504 0 discriminator 2
 2824 1820 302F 000A 	move.w 10(%sp),%d0
 2825 1824 3000      	move.w %d0,%d0
 2826 1826 0280 0000 	and.l #65535,%d0
 2826      FFFF 
 2827 182c E088      	lsr.l #8,%d0
 2828 182e 3000      	move.w %d0,%d0
 2829 1830 3200      	move.w %d0,%d1
 2830 1832 302F 0002 	move.w 2(%sp),%d0
 2831 1836 48C0      	ext.l %d0
 2832 1838 D080      	add.l %d0,%d0
 2833 183a 41F9 0000 	lea CrcTable.5913,%a0
 2833      0000 
 2834 1840 3030 0800 	move.w (%a0,%d0.l),%d0
 2835 1844 B380      	eor.l %d1,%d0
 2836 1846 3F40 000A 	move.w %d0,10(%sp)
1497:/home/simulink/cFS_FreeRTOS_seL4/cfe/fsw/cfe-core/src/es/cfe_es_api.c ****            {
 2837               	.loc 2 1497 0 discriminator 2
 2838 184a 52AF 000C 	addq.l #1,12(%sp)
 2839 184e 52AF 0004 	addq.l #1,4(%sp)
 2840               	.L148:
1497:/home/simulink/cFS_FreeRTOS_seL4/cfe/fsw/cfe-core/src/es/cfe_es_api.c ****            {
 2841               	.loc 2 1497 0 is_stmt 0 discriminator 1
 2842 1852 222F 0018 	move.l 24(%sp),%d1
 2843 1856 B2AF 000C 	cmp.l 12(%sp),%d1
 2844 185a 6286      	jhi .L150
1506:/home/simulink/cFS_FreeRTOS_seL4/cfe/fsw/cfe-core/src/es/cfe_es_api.c **** 
 2845               	.loc 2 1506 0 is_stmt 1
 2846 185c 6010      	jra .L147
 2847               	.L146:
1509:/home/simulink/cFS_FreeRTOS_seL4/cfe/fsw/cfe-core/src/es/cfe_es_api.c ****            break;
 2848               	.loc 2 1509 0
 2849 185e 4879 0000 	pea .LC47
 2849      0000 
 2850               	.cfi_def_cfa_offset 24
 2851 1864 4EB9 0000 	jsr CFE_ES_WriteToSysLog
 2851      0000 
 2852 186a 588F      	addq.l #4,%sp
 2853               	.cfi_def_cfa_offset 20
1510:/home/simulink/cFS_FreeRTOS_seL4/cfe/fsw/cfe-core/src/es/cfe_es_api.c **** 
 2854               	.loc 2 1510 0
 2855 186c 4E71      	nop
 2856               	.L147:
68K GAS   			page 98


1514:/home/simulink/cFS_FreeRTOS_seL4/cfe/fsw/cfe-core/src/es/cfe_es_api.c ****     }
1515:/home/simulink/cFS_FreeRTOS_seL4/cfe/fsw/cfe-core/src/es/cfe_es_api.c ****     return(Crc);
 2857               	.loc 2 1515 0
 2858 186e 306F 000A 	move.w 10(%sp),%a0
 2859 1872 2008      	move.l %a0,%d0
1516:/home/simulink/cFS_FreeRTOS_seL4/cfe/fsw/cfe-core/src/es/cfe_es_api.c **** 
1517:/home/simulink/cFS_FreeRTOS_seL4/cfe/fsw/cfe-core/src/es/cfe_es_api.c **** } /* End of CFE_ES_CalculateCRC() */
 2860               	.loc 2 1517 0
 2861 1874 4FEF 0010 	lea (16,%sp),%sp
 2862 1878 4E75      	rts
 2863               	.cfi_endproc
 2864               	.LFE79:
 2865               	.sizeCFE_ES_CalculateCRC, .-CFE_ES_CalculateCRC
 2866               	.section.rodata
 2867               	.LC48:
 2868 0abb 4346 455F 	.string"CFE_CDS:Register-Bad AppId(%d)\n"
 2868      4344 533A 
 2868      5265 6769 
 2868      7374 6572 
 2868      2D42 6164 
 2869               	.LC49:
 2870 0adb 4346 455F 	.string"CFE_CDS:Register-CDS not available\n"
 2870      4344 533A 
 2870      5265 6769 
 2870      7374 6572 
 2870      2D43 4453 
 2871               	.LC50:
 2872 0aff 4346 455F 	.string"CFE_CDS:Register-CDS Name (%s) is too long\n"
 2872      4344 533A 
 2872      5265 6769 
 2872      7374 6572 
 2872      2D43 4453 
 2873               	.LC51:
 2874 0b2b 4346 455F 	.string"CFE_CDS:Register-CDS %s has size of zero\n"
 2874      4344 533A 
 2874      5265 6769 
 2874      7374 6572 
 2874      2D43 4453 
 2875               	.LC52:
 2876 0b55 2573 2046 	.string"%s Failed to Register CDS '%s', Status=0x%08X"
 2876      6169 6C65 
 2876      6420 746F 
 2876      2052 6567 
 2876      6973 7465 
 2877               	.text
 2878               	.align2
 2879               	.globlCFE_ES_RegisterCDS
 2880               	.typeCFE_ES_RegisterCDS, @function
 2881               	CFE_ES_RegisterCDS:
 2882               	.LFB80:
1518:/home/simulink/cFS_FreeRTOS_seL4/cfe/fsw/cfe-core/src/es/cfe_es_api.c **** 
1519:/home/simulink/cFS_FreeRTOS_seL4/cfe/fsw/cfe-core/src/es/cfe_es_api.c **** 
1520:/home/simulink/cFS_FreeRTOS_seL4/cfe/fsw/cfe-core/src/es/cfe_es_api.c **** /*
1521:/home/simulink/cFS_FreeRTOS_seL4/cfe/fsw/cfe-core/src/es/cfe_es_api.c **** ** Function: CFE_ES_RegisterCDS
1522:/home/simulink/cFS_FreeRTOS_seL4/cfe/fsw/cfe-core/src/es/cfe_es_api.c **** **
1523:/home/simulink/cFS_FreeRTOS_seL4/cfe/fsw/cfe-core/src/es/cfe_es_api.c **** ** Purpose:  Allocate a data block for a Critical Data Store.
1524:/home/simulink/cFS_FreeRTOS_seL4/cfe/fsw/cfe-core/src/es/cfe_es_api.c **** **
68K GAS   			page 99


1525:/home/simulink/cFS_FreeRTOS_seL4/cfe/fsw/cfe-core/src/es/cfe_es_api.c **** */
1526:/home/simulink/cFS_FreeRTOS_seL4/cfe/fsw/cfe-core/src/es/cfe_es_api.c **** int32 CFE_ES_RegisterCDS(CFE_ES_CDSHandle_t *CDSHandlePtr, int32 BlockSize, const char *Name)
1527:/home/simulink/cFS_FreeRTOS_seL4/cfe/fsw/cfe-core/src/es/cfe_es_api.c **** {
 2883               	.loc 2 1527 0
 2884               	.cfi_startproc
 2885 187a 4FEF FFB8 	lea (-72,%sp),%sp
 2886               	.cfi_def_cfa_offset 76
1528:/home/simulink/cFS_FreeRTOS_seL4/cfe/fsw/cfe-core/src/es/cfe_es_api.c ****     int32   Status = CFE_SUCCESS;
 2887               	.loc 2 1528 0
 2888 187e 42AF 0044 	clr.l 68(%sp)
1529:/home/simulink/cFS_FreeRTOS_seL4/cfe/fsw/cfe-core/src/es/cfe_es_api.c ****     size_t  NameLen = 0;
 2889               	.loc 2 1529 0
 2890 1882 42AF 0040 	clr.l 64(%sp)
1530:/home/simulink/cFS_FreeRTOS_seL4/cfe/fsw/cfe-core/src/es/cfe_es_api.c ****     uint32  ThisAppId = 0;
 2891               	.loc 2 1530 0
 2892 1886 42AF 003C 	clr.l 60(%sp)
1531:/home/simulink/cFS_FreeRTOS_seL4/cfe/fsw/cfe-core/src/es/cfe_es_api.c ****     
1532:/home/simulink/cFS_FreeRTOS_seL4/cfe/fsw/cfe-core/src/es/cfe_es_api.c ****     char    AppName[OS_MAX_API_NAME] = {"UNKNOWN"};
 2893               	.loc 2 1532 0
 2894 188a 203C 554E 	move.l #1431194446,%d0
 2894      4B4E 
 2895 1890 2F40 0028 	move.l %d0,40(%sp)
 2896 1894 203C 4F57 	move.l #1331121664,%d0
 2896      4E00 
 2897 189a 2F40 002C 	move.l %d0,44(%sp)
 2898 189e 41EF 0030 	lea (48,%sp),%a0
 2899 18a2 4290      	clr.l (%a0)
 2900 18a4 5888      	addq.l #4,%a0
 2901 18a6 4290      	clr.l (%a0)
 2902 18a8 5888      	addq.l #4,%a0
 2903 18aa 4290      	clr.l (%a0)
 2904 18ac 5888      	addq.l #4,%a0
1533:/home/simulink/cFS_FreeRTOS_seL4/cfe/fsw/cfe-core/src/es/cfe_es_api.c ****     char    CDSName[CFE_ES_CDS_MAX_FULL_NAME_LEN] = {""};
 2905               	.loc 2 1533 0
 2906 18ae 42AF 0002 	clr.l 2(%sp)
 2907 18b2 41EF 0006 	lea (6,%sp),%a0
 2908 18b6 4290      	clr.l (%a0)
 2909 18b8 5888      	addq.l #4,%a0
 2910 18ba 4290      	clr.l (%a0)
 2911 18bc 5888      	addq.l #4,%a0
 2912 18be 4290      	clr.l (%a0)
 2913 18c0 5888      	addq.l #4,%a0
 2914 18c2 4290      	clr.l (%a0)
 2915 18c4 5888      	addq.l #4,%a0
 2916 18c6 4290      	clr.l (%a0)
 2917 18c8 5888      	addq.l #4,%a0
 2918 18ca 4290      	clr.l (%a0)
 2919 18cc 5888      	addq.l #4,%a0
 2920 18ce 4290      	clr.l (%a0)
 2921 18d0 5888      	addq.l #4,%a0
 2922 18d2 4290      	clr.l (%a0)
 2923 18d4 5888      	addq.l #4,%a0
 2924 18d6 4250      	clr.w (%a0)
 2925 18d8 5488      	addq.l #2,%a0
1534:/home/simulink/cFS_FreeRTOS_seL4/cfe/fsw/cfe-core/src/es/cfe_es_api.c **** 
1535:/home/simulink/cFS_FreeRTOS_seL4/cfe/fsw/cfe-core/src/es/cfe_es_api.c ****     /* Check to make sure calling application is legit */
1536:/home/simulink/cFS_FreeRTOS_seL4/cfe/fsw/cfe-core/src/es/cfe_es_api.c ****     Status = CFE_ES_CDS_ValidateAppID(&ThisAppId);
68K GAS   			page 100


 2926               	.loc 2 1536 0
 2927 18da 200F      	move.l %sp,%d0
 2928 18dc 0680 0000 	add.l #60,%d0
 2928      003C 
 2929 18e2 2F00      	move.l %d0,-(%sp)
 2930               	.cfi_def_cfa_offset 80
 2931 18e4 4EB9 0000 	jsr CFE_ES_CDS_ValidateAppID
 2931      0000 
 2932 18ea 588F      	addq.l #4,%sp
 2933               	.cfi_def_cfa_offset 76
 2934 18ec 2F40 0044 	move.l %d0,68(%sp)
1537:/home/simulink/cFS_FreeRTOS_seL4/cfe/fsw/cfe-core/src/es/cfe_es_api.c ****     
1538:/home/simulink/cFS_FreeRTOS_seL4/cfe/fsw/cfe-core/src/es/cfe_es_api.c ****     if ( Status != CFE_SUCCESS )  /* Application ID was invalid */
 2935               	.loc 2 1538 0
 2936 18f0 4AAF 0044 	tst.l 68(%sp)
 2937 18f4 6718      	jeq .L153
1539:/home/simulink/cFS_FreeRTOS_seL4/cfe/fsw/cfe-core/src/es/cfe_es_api.c ****     {
1540:/home/simulink/cFS_FreeRTOS_seL4/cfe/fsw/cfe-core/src/es/cfe_es_api.c ****          CFE_ES_WriteToSysLog("CFE_CDS:Register-Bad AppId(%d)\n", (int)ThisAppId);
 2938               	.loc 2 1540 0
 2939 18f6 202F 003C 	move.l 60(%sp),%d0
 2940 18fa 2F00      	move.l %d0,-(%sp)
 2941               	.cfi_def_cfa_offset 80
 2942 18fc 4879 0000 	pea .LC48
 2942      0000 
 2943               	.cfi_def_cfa_offset 84
 2944 1902 4EB9 0000 	jsr CFE_ES_WriteToSysLog
 2944      0000 
 2945 1908 508F      	addq.l #8,%sp
 2946               	.cfi_def_cfa_offset 76
 2947 190a 6000 00F2 	jra .L154
 2948               	.L153:
1541:/home/simulink/cFS_FreeRTOS_seL4/cfe/fsw/cfe-core/src/es/cfe_es_api.c ****     }
1542:/home/simulink/cFS_FreeRTOS_seL4/cfe/fsw/cfe-core/src/es/cfe_es_api.c ****     else if (CFE_ES_Global.CDSVars.MemPoolSize == 0)
 2949               	.loc 2 1542 0
 2950 190e 2039 0000 	move.l CFE_ES_Global+8172,%d0
 2950      0000 
 2951 1914 4A80      	tst.l %d0
 2952 1916 661C      	jne .L155
1543:/home/simulink/cFS_FreeRTOS_seL4/cfe/fsw/cfe-core/src/es/cfe_es_api.c ****     {
1544:/home/simulink/cFS_FreeRTOS_seL4/cfe/fsw/cfe-core/src/es/cfe_es_api.c ****         CFE_ES_WriteToSysLog("CFE_CDS:Register-CDS not available\n");
 2953               	.loc 2 1544 0
 2954 1918 4879 0000 	pea .LC49
 2954      0000 
 2955               	.cfi_def_cfa_offset 80
 2956 191e 4EB9 0000 	jsr CFE_ES_WriteToSysLog
 2956      0000 
 2957 1924 588F      	addq.l #4,%sp
 2958               	.cfi_def_cfa_offset 76
1545:/home/simulink/cFS_FreeRTOS_seL4/cfe/fsw/cfe-core/src/es/cfe_es_api.c ****         Status = CFE_ES_NOT_IMPLEMENTED;
 2959               	.loc 2 1545 0
 2960 1926 203C C400 	move.l #-1006567425,%d0
 2960      FFFF 
 2961 192c 2F40 0044 	move.l %d0,68(%sp)
 2962 1930 6000 00CC 	jra .L154
 2963               	.L155:
1546:/home/simulink/cFS_FreeRTOS_seL4/cfe/fsw/cfe-core/src/es/cfe_es_api.c ****     }
1547:/home/simulink/cFS_FreeRTOS_seL4/cfe/fsw/cfe-core/src/es/cfe_es_api.c ****     else
68K GAS   			page 101


1548:/home/simulink/cFS_FreeRTOS_seL4/cfe/fsw/cfe-core/src/es/cfe_es_api.c ****     {
1549:/home/simulink/cFS_FreeRTOS_seL4/cfe/fsw/cfe-core/src/es/cfe_es_api.c ****         /* Assume we can't make a CDS and return a bad handle for now */
1550:/home/simulink/cFS_FreeRTOS_seL4/cfe/fsw/cfe-core/src/es/cfe_es_api.c ****         *CDSHandlePtr = CFE_ES_CDS_BAD_HANDLE;
 2964               	.loc 2 1550 0
 2965 1934 206F 004C 	move.l 76(%sp),%a0
 2966 1938 20BC 0000 	move.l #65535,(%a0)
 2966      FFFF 
1551:/home/simulink/cFS_FreeRTOS_seL4/cfe/fsw/cfe-core/src/es/cfe_es_api.c **** 
1552:/home/simulink/cFS_FreeRTOS_seL4/cfe/fsw/cfe-core/src/es/cfe_es_api.c ****         /* Make sure specified CDS name is not too long or too short */
1553:/home/simulink/cFS_FreeRTOS_seL4/cfe/fsw/cfe-core/src/es/cfe_es_api.c ****         NameLen = strlen(Name);
 2967               	.loc 2 1553 0
 2968 193e 2F2F 0054 	move.l 84(%sp),-(%sp)
 2969               	.cfi_def_cfa_offset 80
 2970 1942 4EB9 0000 	jsr strlen
 2970      0000 
 2971 1948 588F      	addq.l #4,%sp
 2972               	.cfi_def_cfa_offset 76
 2973 194a 2F40 0040 	move.l %d0,64(%sp)
1554:/home/simulink/cFS_FreeRTOS_seL4/cfe/fsw/cfe-core/src/es/cfe_es_api.c ****         if ((NameLen > CFE_ES_CDS_MAX_NAME_LENGTH) || (NameLen == 0))
 2974               	.loc 2 1554 0
 2975 194e 7010      	moveq #16,%d0
 2976 1950 B0AF 0040 	cmp.l 64(%sp),%d0
 2977 1954 6506      	jcs .L156
 2978               	.loc 2 1554 0 is_stmt 0 discriminator 1
 2979 1956 4AAF 0040 	tst.l 64(%sp)
 2980 195a 6642      	jne .L157
 2981               	.L156:
1555:/home/simulink/cFS_FreeRTOS_seL4/cfe/fsw/cfe-core/src/es/cfe_es_api.c ****         {
1556:/home/simulink/cFS_FreeRTOS_seL4/cfe/fsw/cfe-core/src/es/cfe_es_api.c ****            Status = CFE_ES_CDS_INVALID_NAME;
 2982               	.loc 2 1556 0 is_stmt 1
 2983 195c 203C C400 	move.l #-1006632945,%d0
 2983      000F 
 2984 1962 2F40 0044 	move.l %d0,68(%sp)
1557:/home/simulink/cFS_FreeRTOS_seL4/cfe/fsw/cfe-core/src/es/cfe_es_api.c **** 
1558:/home/simulink/cFS_FreeRTOS_seL4/cfe/fsw/cfe-core/src/es/cfe_es_api.c ****            /* Perform a buffer overrun safe copy of name for debug log message */
1559:/home/simulink/cFS_FreeRTOS_seL4/cfe/fsw/cfe-core/src/es/cfe_es_api.c **** 
1560:/home/simulink/cFS_FreeRTOS_seL4/cfe/fsw/cfe-core/src/es/cfe_es_api.c ****            strncpy(CDSName, Name, CFE_ES_CDS_MAX_NAME_LENGTH);
 2985               	.loc 2 1560 0
 2986 1966 4878 0010 	pea 16.w
 2987               	.cfi_def_cfa_offset 80
 2988 196a 2F2F 0058 	move.l 88(%sp),-(%sp)
 2989               	.cfi_def_cfa_offset 84
 2990 196e 200F      	move.l %sp,%d0
 2991 1970 0680 0000 	add.l #10,%d0
 2991      000A 
 2992 1976 2F00      	move.l %d0,-(%sp)
 2993               	.cfi_def_cfa_offset 88
 2994 1978 4EB9 0000 	jsr strncpy
 2994      0000 
 2995 197e 4FEF 000C 	lea (12,%sp),%sp
 2996               	.cfi_def_cfa_offset 76
1561:/home/simulink/cFS_FreeRTOS_seL4/cfe/fsw/cfe-core/src/es/cfe_es_api.c ****            CDSName[CFE_ES_CDS_MAX_NAME_LENGTH-1] = '\0';
 2997               	.loc 2 1561 0
 2998 1982 4200      	clr.b %d0
 2999 1984 1F40 0011 	move.b %d0,17(%sp)
1562:/home/simulink/cFS_FreeRTOS_seL4/cfe/fsw/cfe-core/src/es/cfe_es_api.c ****            CFE_ES_WriteToSysLog("CFE_CDS:Register-CDS Name (%s) is too long\n", CDSName);
 3000               	.loc 2 1562 0
68K GAS   			page 102


 3001 1988 200F      	move.l %sp,%d0
 3002 198a 5480      	addq.l #2,%d0
 3003 198c 2F00      	move.l %d0,-(%sp)
 3004               	.cfi_def_cfa_offset 80
 3005 198e 4879 0000 	pea .LC50
 3005      0000 
 3006               	.cfi_def_cfa_offset 84
 3007 1994 4EB9 0000 	jsr CFE_ES_WriteToSysLog
 3007      0000 
 3008 199a 508F      	addq.l #8,%sp
 3009               	.cfi_def_cfa_offset 76
 3010 199c 6060      	jra .L154
 3011               	.L157:
1563:/home/simulink/cFS_FreeRTOS_seL4/cfe/fsw/cfe-core/src/es/cfe_es_api.c ****         }
1564:/home/simulink/cFS_FreeRTOS_seL4/cfe/fsw/cfe-core/src/es/cfe_es_api.c ****         else
1565:/home/simulink/cFS_FreeRTOS_seL4/cfe/fsw/cfe-core/src/es/cfe_es_api.c ****         {
1566:/home/simulink/cFS_FreeRTOS_seL4/cfe/fsw/cfe-core/src/es/cfe_es_api.c ****            /* Modify specified name to be processor specific name */
1567:/home/simulink/cFS_FreeRTOS_seL4/cfe/fsw/cfe-core/src/es/cfe_es_api.c ****            /* of the form "AppName.Name"                          */
1568:/home/simulink/cFS_FreeRTOS_seL4/cfe/fsw/cfe-core/src/es/cfe_es_api.c ****            CFE_ES_FormCDSName(CDSName, Name, ThisAppId);
 3012               	.loc 2 1568 0
 3013 199e 202F 003C 	move.l 60(%sp),%d0
 3014 19a2 2F00      	move.l %d0,-(%sp)
 3015               	.cfi_def_cfa_offset 80
 3016 19a4 2F2F 0058 	move.l 88(%sp),-(%sp)
 3017               	.cfi_def_cfa_offset 84
 3018 19a8 200F      	move.l %sp,%d0
 3019 19aa 0680 0000 	add.l #10,%d0
 3019      000A 
 3020 19b0 2F00      	move.l %d0,-(%sp)
 3021               	.cfi_def_cfa_offset 88
 3022 19b2 4EB9 0000 	jsr CFE_ES_FormCDSName
 3022      0000 
 3023 19b8 4FEF 000C 	lea (12,%sp),%sp
 3024               	.cfi_def_cfa_offset 76
1569:/home/simulink/cFS_FreeRTOS_seL4/cfe/fsw/cfe-core/src/es/cfe_es_api.c **** 
1570:/home/simulink/cFS_FreeRTOS_seL4/cfe/fsw/cfe-core/src/es/cfe_es_api.c ****            /* Make sure the specified size is acceptable */
1571:/home/simulink/cFS_FreeRTOS_seL4/cfe/fsw/cfe-core/src/es/cfe_es_api.c ****            if (BlockSize == 0)
 3025               	.loc 2 1571 0
 3026 19bc 4AAF 0050 	tst.l 80(%sp)
 3027 19c0 661E      	jne .L158
1572:/home/simulink/cFS_FreeRTOS_seL4/cfe/fsw/cfe-core/src/es/cfe_es_api.c ****            {
1573:/home/simulink/cFS_FreeRTOS_seL4/cfe/fsw/cfe-core/src/es/cfe_es_api.c ****               Status = CFE_ES_CDS_INVALID_SIZE;
 3028               	.loc 2 1573 0
 3029 19c2 203C C400 	move.l #-1006632944,%d0
 3029      0010 
 3030 19c8 2F40 0044 	move.l %d0,68(%sp)
1574:/home/simulink/cFS_FreeRTOS_seL4/cfe/fsw/cfe-core/src/es/cfe_es_api.c ****               CFE_ES_WriteToSysLog("CFE_CDS:Register-CDS %s has size of zero\n", Name);
 3031               	.loc 2 1574 0
 3032 19cc 2F2F 0054 	move.l 84(%sp),-(%sp)
 3033               	.cfi_def_cfa_offset 80
 3034 19d0 4879 0000 	pea .LC51
 3034      0000 
 3035               	.cfi_def_cfa_offset 84
 3036 19d6 4EB9 0000 	jsr CFE_ES_WriteToSysLog
 3036      0000 
 3037 19dc 508F      	addq.l #8,%sp
 3038               	.cfi_def_cfa_offset 76
68K GAS   			page 103


 3039 19de 601E      	jra .L154
 3040               	.L158:
1575:/home/simulink/cFS_FreeRTOS_seL4/cfe/fsw/cfe-core/src/es/cfe_es_api.c ****            }
1576:/home/simulink/cFS_FreeRTOS_seL4/cfe/fsw/cfe-core/src/es/cfe_es_api.c ****            else
1577:/home/simulink/cFS_FreeRTOS_seL4/cfe/fsw/cfe-core/src/es/cfe_es_api.c ****            {
1578:/home/simulink/cFS_FreeRTOS_seL4/cfe/fsw/cfe-core/src/es/cfe_es_api.c ****               /* Create CDS and designate it as NOT being a Critical Table */
1579:/home/simulink/cFS_FreeRTOS_seL4/cfe/fsw/cfe-core/src/es/cfe_es_api.c ****               Status = CFE_ES_RegisterCDSEx(CDSHandlePtr, BlockSize, CDSName, FALSE);
 3041               	.loc 2 1579 0
 3042 19e0 42A7      	clr.l -(%sp)
 3043               	.cfi_def_cfa_offset 80
 3044 19e2 200F      	move.l %sp,%d0
 3045 19e4 5C80      	addq.l #6,%d0
 3046 19e6 2F00      	move.l %d0,-(%sp)
 3047               	.cfi_def_cfa_offset 84
 3048 19e8 2F2F 0058 	move.l 88(%sp),-(%sp)
 3049               	.cfi_def_cfa_offset 88
 3050 19ec 2F2F 0058 	move.l 88(%sp),-(%sp)
 3051               	.cfi_def_cfa_offset 92
 3052 19f0 4EB9 0000 	jsr CFE_ES_RegisterCDSEx
 3052      0000 
 3053 19f6 4FEF 0010 	lea (16,%sp),%sp
 3054               	.cfi_def_cfa_offset 76
 3055 19fa 2F40 0044 	move.l %d0,68(%sp)
 3056               	.L154:
1580:/home/simulink/cFS_FreeRTOS_seL4/cfe/fsw/cfe-core/src/es/cfe_es_api.c ****            }
1581:/home/simulink/cFS_FreeRTOS_seL4/cfe/fsw/cfe-core/src/es/cfe_es_api.c ****         }
1582:/home/simulink/cFS_FreeRTOS_seL4/cfe/fsw/cfe-core/src/es/cfe_es_api.c ****     }
1583:/home/simulink/cFS_FreeRTOS_seL4/cfe/fsw/cfe-core/src/es/cfe_es_api.c **** 
1584:/home/simulink/cFS_FreeRTOS_seL4/cfe/fsw/cfe-core/src/es/cfe_es_api.c ****     /* On Error conditions, notify ground of screw up */
1585:/home/simulink/cFS_FreeRTOS_seL4/cfe/fsw/cfe-core/src/es/cfe_es_api.c ****     if (Status < 0)
 3057               	.loc 2 1585 0
 3058 19fe 4AAF 0044 	tst.l 68(%sp)
 3059 1a02 6C50      	jge .L159
1586:/home/simulink/cFS_FreeRTOS_seL4/cfe/fsw/cfe-core/src/es/cfe_es_api.c ****     {
1587:/home/simulink/cFS_FreeRTOS_seL4/cfe/fsw/cfe-core/src/es/cfe_es_api.c ****         /* Translate AppID of caller into App Name */
1588:/home/simulink/cFS_FreeRTOS_seL4/cfe/fsw/cfe-core/src/es/cfe_es_api.c ****         CFE_ES_GetAppName(AppName, ThisAppId, OS_MAX_API_NAME);
 3060               	.loc 2 1588 0
 3061 1a04 202F 003C 	move.l 60(%sp),%d0
 3062 1a08 4878 0014 	pea 20.w
 3063               	.cfi_def_cfa_offset 80
 3064 1a0c 2F00      	move.l %d0,-(%sp)
 3065               	.cfi_def_cfa_offset 84
 3066 1a0e 200F      	move.l %sp,%d0
 3067 1a10 0680 0000 	add.l #48,%d0
 3067      0030 
 3068 1a16 2F00      	move.l %d0,-(%sp)
 3069               	.cfi_def_cfa_offset 88
 3070 1a18 4EB9 0000 	jsr CFE_ES_GetAppName
 3070      0000 
 3071 1a1e 4FEF 000C 	lea (12,%sp),%sp
 3072               	.cfi_def_cfa_offset 76
1589:/home/simulink/cFS_FreeRTOS_seL4/cfe/fsw/cfe-core/src/es/cfe_es_api.c **** 
1590:/home/simulink/cFS_FreeRTOS_seL4/cfe/fsw/cfe-core/src/es/cfe_es_api.c ****         CFE_EVS_SendEventWithAppID(CFE_ES_CDS_REGISTER_ERR_EID,
 3073               	.loc 2 1590 0
 3074 1a22 202F 0044 	move.l 68(%sp),%d0
 3075 1a26 222F 003C 	move.l 60(%sp),%d1
 3076 1a2a 2F00      	move.l %d0,-(%sp)
68K GAS   			page 104


 3077               	.cfi_def_cfa_offset 80
 3078 1a2c 2F2F 0058 	move.l 88(%sp),-(%sp)
 3079               	.cfi_def_cfa_offset 84
 3080 1a30 200F      	move.l %sp,%d0
 3081 1a32 0680 0000 	add.l #48,%d0
 3081      0030 
 3082 1a38 2F00      	move.l %d0,-(%sp)
 3083               	.cfi_def_cfa_offset 88
 3084 1a3a 4879 0000 	pea .LC52
 3084      0000 
 3085               	.cfi_def_cfa_offset 92
 3086 1a40 2F01      	move.l %d1,-(%sp)
 3087               	.cfi_def_cfa_offset 96
 3088 1a42 4878 0003 	pea 3.w
 3089               	.cfi_def_cfa_offset 100
 3090 1a46 4878 0045 	pea 69.w
 3091               	.cfi_def_cfa_offset 104
 3092 1a4a 4EB9 0000 	jsr CFE_EVS_SendEventWithAppID
 3092      0000 
 3093 1a50 4FEF 001C 	lea (28,%sp),%sp
 3094               	.cfi_def_cfa_offset 76
 3095               	.L159:
1591:/home/simulink/cFS_FreeRTOS_seL4/cfe/fsw/cfe-core/src/es/cfe_es_api.c ****                                    CFE_EVS_ERROR,
1592:/home/simulink/cFS_FreeRTOS_seL4/cfe/fsw/cfe-core/src/es/cfe_es_api.c ****                                    ThisAppId,
1593:/home/simulink/cFS_FreeRTOS_seL4/cfe/fsw/cfe-core/src/es/cfe_es_api.c ****                                    "%s Failed to Register CDS '%s', Status=0x%08X",
1594:/home/simulink/cFS_FreeRTOS_seL4/cfe/fsw/cfe-core/src/es/cfe_es_api.c ****                                    AppName, Name, (unsigned int)Status);
1595:/home/simulink/cFS_FreeRTOS_seL4/cfe/fsw/cfe-core/src/es/cfe_es_api.c ****     }
1596:/home/simulink/cFS_FreeRTOS_seL4/cfe/fsw/cfe-core/src/es/cfe_es_api.c ****     
1597:/home/simulink/cFS_FreeRTOS_seL4/cfe/fsw/cfe-core/src/es/cfe_es_api.c ****     return Status;
 3096               	.loc 2 1597 0
 3097 1a54 202F 0044 	move.l 68(%sp),%d0
1598:/home/simulink/cFS_FreeRTOS_seL4/cfe/fsw/cfe-core/src/es/cfe_es_api.c **** } /* End of CFE_ES_RegisterCDS */
 3098               	.loc 2 1598 0
 3099 1a58 4FEF 0048 	lea (72,%sp),%sp
 3100 1a5c 4E75      	rts
 3101               	.cfi_endproc
 3102               	.LFE80:
 3103               	.sizeCFE_ES_RegisterCDS, .-CFE_ES_RegisterCDS
 3104               	.align2
 3105               	.globlCFE_ES_CopyToCDS
 3106               	.typeCFE_ES_CopyToCDS, @function
 3107               	CFE_ES_CopyToCDS:
 3108               	.LFB81:
1599:/home/simulink/cFS_FreeRTOS_seL4/cfe/fsw/cfe-core/src/es/cfe_es_api.c **** 
1600:/home/simulink/cFS_FreeRTOS_seL4/cfe/fsw/cfe-core/src/es/cfe_es_api.c **** /*
1601:/home/simulink/cFS_FreeRTOS_seL4/cfe/fsw/cfe-core/src/es/cfe_es_api.c **** ** Function: CFE_ES_CopyToCDS
1602:/home/simulink/cFS_FreeRTOS_seL4/cfe/fsw/cfe-core/src/es/cfe_es_api.c **** **
1603:/home/simulink/cFS_FreeRTOS_seL4/cfe/fsw/cfe-core/src/es/cfe_es_api.c **** ** Purpose:  Copies a data block to a Critical Data Store.
1604:/home/simulink/cFS_FreeRTOS_seL4/cfe/fsw/cfe-core/src/es/cfe_es_api.c **** **
1605:/home/simulink/cFS_FreeRTOS_seL4/cfe/fsw/cfe-core/src/es/cfe_es_api.c **** */
1606:/home/simulink/cFS_FreeRTOS_seL4/cfe/fsw/cfe-core/src/es/cfe_es_api.c **** int32 CFE_ES_CopyToCDS(CFE_ES_CDSHandle_t Handle, void *DataToCopy)
1607:/home/simulink/cFS_FreeRTOS_seL4/cfe/fsw/cfe-core/src/es/cfe_es_api.c **** {
 3109               	.loc 2 1607 0
 3110               	.cfi_startproc
 3111 1a5e 598F      	subq.l #4,%sp
 3112               	.cfi_def_cfa_offset 8
1608:/home/simulink/cFS_FreeRTOS_seL4/cfe/fsw/cfe-core/src/es/cfe_es_api.c ****     int32 Status = CFE_SUCCESS;
68K GAS   			page 105


 3113               	.loc 2 1608 0
 3114 1a60 4297      	clr.l (%sp)
1609:/home/simulink/cFS_FreeRTOS_seL4/cfe/fsw/cfe-core/src/es/cfe_es_api.c ****     
1610:/home/simulink/cFS_FreeRTOS_seL4/cfe/fsw/cfe-core/src/es/cfe_es_api.c ****     Status = CFE_ES_CDSBlockWrite(CFE_ES_Global.CDSVars.Registry[Handle].MemHandle, DataToCopy);
 3115               	.loc 2 1610 0
 3116 1a62 202F 0008 	move.l 8(%sp),%d0
 3117 1a66 7234      	moveq #52,%d1
 3118 1a68 4C01 0800 	muls.l %d1,%d0
 3119 1a6c 41F9 0000 	lea CFE_ES_Global+8220,%a0
 3119      0000 
 3120 1a72 2030 0800 	move.l (%a0,%d0.l),%d0
 3121 1a76 2F2F 000C 	move.l 12(%sp),-(%sp)
 3122               	.cfi_def_cfa_offset 12
 3123 1a7a 2F00      	move.l %d0,-(%sp)
 3124               	.cfi_def_cfa_offset 16
 3125 1a7c 4EB9 0000 	jsr CFE_ES_CDSBlockWrite
 3125      0000 
 3126 1a82 508F      	addq.l #8,%sp
 3127               	.cfi_def_cfa_offset 8
 3128 1a84 2E80      	move.l %d0,(%sp)
1611:/home/simulink/cFS_FreeRTOS_seL4/cfe/fsw/cfe-core/src/es/cfe_es_api.c ****     
1612:/home/simulink/cFS_FreeRTOS_seL4/cfe/fsw/cfe-core/src/es/cfe_es_api.c ****     return Status;
 3129               	.loc 2 1612 0
 3130 1a86 2017      	move.l (%sp),%d0
1613:/home/simulink/cFS_FreeRTOS_seL4/cfe/fsw/cfe-core/src/es/cfe_es_api.c **** } /* End of CFE_ES_CopyToCDS() */
 3131               	.loc 2 1613 0
 3132 1a88 588F      	addq.l #4,%sp
 3133 1a8a 4E75      	rts
 3134               	.cfi_endproc
 3135               	.LFE81:
 3136               	.sizeCFE_ES_CopyToCDS, .-CFE_ES_CopyToCDS
 3137               	.align2
 3138               	.globlCFE_ES_RestoreFromCDS
 3139               	.typeCFE_ES_RestoreFromCDS, @function
 3140               	CFE_ES_RestoreFromCDS:
 3141               	.LFB82:
1614:/home/simulink/cFS_FreeRTOS_seL4/cfe/fsw/cfe-core/src/es/cfe_es_api.c **** 
1615:/home/simulink/cFS_FreeRTOS_seL4/cfe/fsw/cfe-core/src/es/cfe_es_api.c **** /*
1616:/home/simulink/cFS_FreeRTOS_seL4/cfe/fsw/cfe-core/src/es/cfe_es_api.c **** ** Function: CFE_ES_RestoreFromCDS
1617:/home/simulink/cFS_FreeRTOS_seL4/cfe/fsw/cfe-core/src/es/cfe_es_api.c **** **
1618:/home/simulink/cFS_FreeRTOS_seL4/cfe/fsw/cfe-core/src/es/cfe_es_api.c **** ** Purpose:  Restores a data block from a Critical Data Store.
1619:/home/simulink/cFS_FreeRTOS_seL4/cfe/fsw/cfe-core/src/es/cfe_es_api.c **** **
1620:/home/simulink/cFS_FreeRTOS_seL4/cfe/fsw/cfe-core/src/es/cfe_es_api.c **** */
1621:/home/simulink/cFS_FreeRTOS_seL4/cfe/fsw/cfe-core/src/es/cfe_es_api.c **** int32 CFE_ES_RestoreFromCDS(void *RestoreToMemory, CFE_ES_CDSHandle_t Handle)
1622:/home/simulink/cFS_FreeRTOS_seL4/cfe/fsw/cfe-core/src/es/cfe_es_api.c **** {
 3142               	.loc 2 1622 0
 3143               	.cfi_startproc
 3144 1a8c 598F      	subq.l #4,%sp
 3145               	.cfi_def_cfa_offset 8
1623:/home/simulink/cFS_FreeRTOS_seL4/cfe/fsw/cfe-core/src/es/cfe_es_api.c ****     int32 Status = CFE_SUCCESS;
 3146               	.loc 2 1623 0
 3147 1a8e 4297      	clr.l (%sp)
1624:/home/simulink/cFS_FreeRTOS_seL4/cfe/fsw/cfe-core/src/es/cfe_es_api.c ****     
1625:/home/simulink/cFS_FreeRTOS_seL4/cfe/fsw/cfe-core/src/es/cfe_es_api.c ****     Status = CFE_ES_CDSBlockRead(RestoreToMemory, CFE_ES_Global.CDSVars.Registry[Handle].MemHandle)
 3148               	.loc 2 1625 0
 3149 1a90 202F 000C 	move.l 12(%sp),%d0
 3150 1a94 7234      	moveq #52,%d1
68K GAS   			page 106


 3151 1a96 4C01 0800 	muls.l %d1,%d0
 3152 1a9a 41F9 0000 	lea CFE_ES_Global+8220,%a0
 3152      0000 
 3153 1aa0 2030 0800 	move.l (%a0,%d0.l),%d0
 3154 1aa4 2F00      	move.l %d0,-(%sp)
 3155               	.cfi_def_cfa_offset 12
 3156 1aa6 2F2F 000C 	move.l 12(%sp),-(%sp)
 3157               	.cfi_def_cfa_offset 16
 3158 1aaa 4EB9 0000 	jsr CFE_ES_CDSBlockRead
 3158      0000 
 3159 1ab0 508F      	addq.l #8,%sp
 3160               	.cfi_def_cfa_offset 8
 3161 1ab2 2E80      	move.l %d0,(%sp)
1626:/home/simulink/cFS_FreeRTOS_seL4/cfe/fsw/cfe-core/src/es/cfe_es_api.c ****     
1627:/home/simulink/cFS_FreeRTOS_seL4/cfe/fsw/cfe-core/src/es/cfe_es_api.c ****     return Status;
 3162               	.loc 2 1627 0
 3163 1ab4 2017      	move.l (%sp),%d0
1628:/home/simulink/cFS_FreeRTOS_seL4/cfe/fsw/cfe-core/src/es/cfe_es_api.c **** } /* End of CFE_ES_RestoreFromCDS() */
 3164               	.loc 2 1628 0
 3165 1ab6 588F      	addq.l #4,%sp
 3166 1ab8 4E75      	rts
 3167               	.cfi_endproc
 3168               	.LFE82:
 3169               	.sizeCFE_ES_RestoreFromCDS, .-CFE_ES_RestoreFromCDS
 3170               	.align2
 3171               	.globlCFE_ES_RegisterGenCounter
 3172               	.typeCFE_ES_RegisterGenCounter, @function
 3173               	CFE_ES_RegisterGenCounter:
 3174               	.LFB83:
1629:/home/simulink/cFS_FreeRTOS_seL4/cfe/fsw/cfe-core/src/es/cfe_es_api.c **** 
1630:/home/simulink/cFS_FreeRTOS_seL4/cfe/fsw/cfe-core/src/es/cfe_es_api.c **** /* end of file */
1631:/home/simulink/cFS_FreeRTOS_seL4/cfe/fsw/cfe-core/src/es/cfe_es_api.c **** 
1632:/home/simulink/cFS_FreeRTOS_seL4/cfe/fsw/cfe-core/src/es/cfe_es_api.c **** 
1633:/home/simulink/cFS_FreeRTOS_seL4/cfe/fsw/cfe-core/src/es/cfe_es_api.c **** int32 CFE_ES_RegisterGenCounter(uint32 *CounterIdPtr, const char *CounterName)
1634:/home/simulink/cFS_FreeRTOS_seL4/cfe/fsw/cfe-core/src/es/cfe_es_api.c **** {
 3175               	.loc 2 1634 0
 3176               	.cfi_startproc
 3177 1aba 4FEF FFF0 	lea (-16,%sp),%sp
 3178               	.cfi_def_cfa_offset 20
1635:/home/simulink/cFS_FreeRTOS_seL4/cfe/fsw/cfe-core/src/es/cfe_es_api.c ****    int32 ReturnCode = CFE_ES_BAD_ARGUMENT;
 3179               	.loc 2 1635 0
 3180 1abe 203C C400 	move.l #-1006632950,%d0
 3180      000A 
 3181 1ac4 2F40 000C 	move.l %d0,12(%sp)
1636:/home/simulink/cFS_FreeRTOS_seL4/cfe/fsw/cfe-core/src/es/cfe_es_api.c ****    uint32 CheckPtr;
1637:/home/simulink/cFS_FreeRTOS_seL4/cfe/fsw/cfe-core/src/es/cfe_es_api.c ****    int32 Status;
1638:/home/simulink/cFS_FreeRTOS_seL4/cfe/fsw/cfe-core/src/es/cfe_es_api.c ****    uint32 i;
1639:/home/simulink/cFS_FreeRTOS_seL4/cfe/fsw/cfe-core/src/es/cfe_es_api.c **** 
1640:/home/simulink/cFS_FreeRTOS_seL4/cfe/fsw/cfe-core/src/es/cfe_es_api.c ****    Status = CFE_ES_GetGenCounterIDByName(&CheckPtr, CounterName);
 3182               	.loc 2 1640 0
 3183 1ac8 2F2F 0018 	move.l 24(%sp),-(%sp)
 3184               	.cfi_def_cfa_offset 24
 3185 1acc 200F      	move.l %sp,%d0
 3186 1ace 5880      	addq.l #4,%d0
 3187 1ad0 2F00      	move.l %d0,-(%sp)
 3188               	.cfi_def_cfa_offset 28
 3189 1ad2 4EB9 0000 	jsr CFE_ES_GetGenCounterIDByName
68K GAS   			page 107


 3189      0000 
 3190 1ad8 508F      	addq.l #8,%sp
 3191               	.cfi_def_cfa_offset 20
 3192 1ada 2F40 0004 	move.l %d0,4(%sp)
1641:/home/simulink/cFS_FreeRTOS_seL4/cfe/fsw/cfe-core/src/es/cfe_es_api.c **** 
1642:/home/simulink/cFS_FreeRTOS_seL4/cfe/fsw/cfe-core/src/es/cfe_es_api.c ****    if ((CounterIdPtr != NULL) && (CounterName != NULL) && (Status != CFE_SUCCESS))
 3193               	.loc 2 1642 0
 3194 1ade 4AAF 0014 	tst.l 20(%sp)
 3195 1ae2 6700 00A8 	jeq .L166
 3196               	.loc 2 1642 0 is_stmt 0 discriminator 1
 3197 1ae6 4AAF 0018 	tst.l 24(%sp)
 3198 1aea 6700 00A0 	jeq .L166
 3199               	.loc 2 1642 0 discriminator 2
 3200 1aee 4AAF 0004 	tst.l 4(%sp)
 3201 1af2 6700 0098 	jeq .L166
1643:/home/simulink/cFS_FreeRTOS_seL4/cfe/fsw/cfe-core/src/es/cfe_es_api.c ****    {
1644:/home/simulink/cFS_FreeRTOS_seL4/cfe/fsw/cfe-core/src/es/cfe_es_api.c ****       for ( i = 0; i < CFE_ES_MAX_GEN_COUNTERS; i++ )
 3202               	.loc 2 1644 0 is_stmt 1
 3203 1af6 42AF 0008 	clr.l 8(%sp)
 3204 1afa 607A      	jra .L167
 3205               	.L170:
1645:/home/simulink/cFS_FreeRTOS_seL4/cfe/fsw/cfe-core/src/es/cfe_es_api.c ****       {
1646:/home/simulink/cFS_FreeRTOS_seL4/cfe/fsw/cfe-core/src/es/cfe_es_api.c ****          if ( CFE_ES_Global.CounterTable[i].RecordUsed == FALSE )
 3206               	.loc 2 1646 0
 3207 1afc 202F 0008 	move.l 8(%sp),%d0
 3208 1b00 721C      	moveq #28,%d1
 3209 1b02 4C01 0800 	muls.l %d1,%d0
 3210 1b06 41F9 0000 	lea CFE_ES_Global+7940,%a0
 3210      0000 
 3211 1b0c 1030 0800 	move.b (%a0,%d0.l),%d0
 3212 1b10 4A00      	tst.b %d0
 3213 1b12 665E      	jne .L168
1647:/home/simulink/cFS_FreeRTOS_seL4/cfe/fsw/cfe-core/src/es/cfe_es_api.c ****          {
1648:/home/simulink/cFS_FreeRTOS_seL4/cfe/fsw/cfe-core/src/es/cfe_es_api.c ****             strncpy((char *)CFE_ES_Global.CounterTable[i].CounterName,CounterName,OS_MAX_API_NAME);
 3214               	.loc 2 1648 0
 3215 1b14 202F 0008 	move.l 8(%sp),%d0
 3216 1b18 721C      	moveq #28,%d1
 3217 1b1a 4C01 0800 	muls.l %d1,%d0
 3218 1b1e 0680 0000 	add.l #7948,%d0
 3218      1F0C 
 3219 1b24 0680 0000 	add.l #CFE_ES_Global,%d0
 3219      0000 
 3220 1b2a 4878 0014 	pea 20.w
 3221               	.cfi_def_cfa_offset 24
 3222 1b2e 2F2F 001C 	move.l 28(%sp),-(%sp)
 3223               	.cfi_def_cfa_offset 28
 3224 1b32 2F00      	move.l %d0,-(%sp)
 3225               	.cfi_def_cfa_offset 32
 3226 1b34 4EB9 0000 	jsr strncpy
 3226      0000 
 3227 1b3a 4FEF 000C 	lea (12,%sp),%sp
 3228               	.cfi_def_cfa_offset 20
1649:/home/simulink/cFS_FreeRTOS_seL4/cfe/fsw/cfe-core/src/es/cfe_es_api.c **** 
1650:/home/simulink/cFS_FreeRTOS_seL4/cfe/fsw/cfe-core/src/es/cfe_es_api.c ****             CFE_ES_Global.CounterTable[i].RecordUsed = TRUE;
 3229               	.loc 2 1650 0
 3230 1b3e 202F 0008 	move.l 8(%sp),%d0
 3231 1b42 721C      	moveq #28,%d1
68K GAS   			page 108


 3232 1b44 4C01 0800 	muls.l %d1,%d0
 3233 1b48 41F9 0000 	lea CFE_ES_Global+7940,%a0
 3233      0000 
 3234 1b4e 7201      	moveq #1,%d1
 3235 1b50 1181 0800 	move.b %d1,(%a0,%d0.l)
1651:/home/simulink/cFS_FreeRTOS_seL4/cfe/fsw/cfe-core/src/es/cfe_es_api.c ****             CFE_ES_Global.CounterTable[i].Counter = 0;
 3236               	.loc 2 1651 0
 3237 1b54 202F 0008 	move.l 8(%sp),%d0
 3238 1b58 721C      	moveq #28,%d1
 3239 1b5a 4C01 0800 	muls.l %d1,%d0
 3240 1b5e 41F9 0000 	lea CFE_ES_Global+7944,%a0
 3240      0000 
 3241 1b64 42B0 0800 	clr.l (%a0,%d0.l)
1652:/home/simulink/cFS_FreeRTOS_seL4/cfe/fsw/cfe-core/src/es/cfe_es_api.c ****             *CounterIdPtr = i;
 3242               	.loc 2 1652 0
 3243 1b68 206F 0014 	move.l 20(%sp),%a0
 3244 1b6c 20AF 0008 	move.l 8(%sp),(%a0)
1653:/home/simulink/cFS_FreeRTOS_seL4/cfe/fsw/cfe-core/src/es/cfe_es_api.c ****             break;
 3245               	.loc 2 1653 0
 3246 1b70 600E      	jra .L169
 3247               	.L168:
1644:/home/simulink/cFS_FreeRTOS_seL4/cfe/fsw/cfe-core/src/es/cfe_es_api.c ****       {
 3248               	.loc 2 1644 0 discriminator 2
 3249 1b72 52AF 0008 	addq.l #1,8(%sp)
 3250               	.L167:
1644:/home/simulink/cFS_FreeRTOS_seL4/cfe/fsw/cfe-core/src/es/cfe_es_api.c ****       {
 3251               	.loc 2 1644 0 is_stmt 0 discriminator 1
 3252 1b76 7007      	moveq #7,%d0
 3253 1b78 B0AF 0008 	cmp.l 8(%sp),%d0
 3254 1b7c 6400 FF7E 	jcc .L170
 3255               	.L169:
1654:/home/simulink/cFS_FreeRTOS_seL4/cfe/fsw/cfe-core/src/es/cfe_es_api.c ****          }
1655:/home/simulink/cFS_FreeRTOS_seL4/cfe/fsw/cfe-core/src/es/cfe_es_api.c ****       }
1656:/home/simulink/cFS_FreeRTOS_seL4/cfe/fsw/cfe-core/src/es/cfe_es_api.c ****       if (i < CFE_ES_MAX_GEN_COUNTERS)
 3256               	.loc 2 1656 0 is_stmt 1
 3257 1b80 7207      	moveq #7,%d1
 3258 1b82 B2AF 0008 	cmp.l 8(%sp),%d1
 3259 1b86 6504      	jcs .L166
1657:/home/simulink/cFS_FreeRTOS_seL4/cfe/fsw/cfe-core/src/es/cfe_es_api.c ****       {
1658:/home/simulink/cFS_FreeRTOS_seL4/cfe/fsw/cfe-core/src/es/cfe_es_api.c ****          ReturnCode = CFE_SUCCESS;
 3260               	.loc 2 1658 0
 3261 1b88 42AF 000C 	clr.l 12(%sp)
 3262               	.L166:
1659:/home/simulink/cFS_FreeRTOS_seL4/cfe/fsw/cfe-core/src/es/cfe_es_api.c ****       }
1660:/home/simulink/cFS_FreeRTOS_seL4/cfe/fsw/cfe-core/src/es/cfe_es_api.c ****    }
1661:/home/simulink/cFS_FreeRTOS_seL4/cfe/fsw/cfe-core/src/es/cfe_es_api.c **** 
1662:/home/simulink/cFS_FreeRTOS_seL4/cfe/fsw/cfe-core/src/es/cfe_es_api.c ****    return ReturnCode;
 3263               	.loc 2 1662 0
 3264 1b8c 202F 000C 	move.l 12(%sp),%d0
1663:/home/simulink/cFS_FreeRTOS_seL4/cfe/fsw/cfe-core/src/es/cfe_es_api.c **** 
1664:/home/simulink/cFS_FreeRTOS_seL4/cfe/fsw/cfe-core/src/es/cfe_es_api.c **** }
 3265               	.loc 2 1664 0
 3266 1b90 4FEF 0010 	lea (16,%sp),%sp
 3267 1b94 4E75      	rts
 3268               	.cfi_endproc
 3269               	.LFE83:
 3270               	.sizeCFE_ES_RegisterGenCounter, .-CFE_ES_RegisterGenCounter
68K GAS   			page 109


 3271               	.align2
 3272               	.globlCFE_ES_DeleteGenCounter
 3273               	.typeCFE_ES_DeleteGenCounter, @function
 3274               	CFE_ES_DeleteGenCounter:
 3275               	.LFB84:
1665:/home/simulink/cFS_FreeRTOS_seL4/cfe/fsw/cfe-core/src/es/cfe_es_api.c **** 
1666:/home/simulink/cFS_FreeRTOS_seL4/cfe/fsw/cfe-core/src/es/cfe_es_api.c **** /*
1667:/home/simulink/cFS_FreeRTOS_seL4/cfe/fsw/cfe-core/src/es/cfe_es_api.c **** ** Function: CFE_ES_DeleteGenCounter
1668:/home/simulink/cFS_FreeRTOS_seL4/cfe/fsw/cfe-core/src/es/cfe_es_api.c **** **
1669:/home/simulink/cFS_FreeRTOS_seL4/cfe/fsw/cfe-core/src/es/cfe_es_api.c **** ** Purpose:  Delete a Generic Counter.
1670:/home/simulink/cFS_FreeRTOS_seL4/cfe/fsw/cfe-core/src/es/cfe_es_api.c **** **
1671:/home/simulink/cFS_FreeRTOS_seL4/cfe/fsw/cfe-core/src/es/cfe_es_api.c **** */
1672:/home/simulink/cFS_FreeRTOS_seL4/cfe/fsw/cfe-core/src/es/cfe_es_api.c **** int32 CFE_ES_DeleteGenCounter(uint32 CounterId)
1673:/home/simulink/cFS_FreeRTOS_seL4/cfe/fsw/cfe-core/src/es/cfe_es_api.c **** {
 3276               	.loc 2 1673 0
 3277               	.cfi_startproc
 3278 1b96 598F      	subq.l #4,%sp
 3279               	.cfi_def_cfa_offset 8
1674:/home/simulink/cFS_FreeRTOS_seL4/cfe/fsw/cfe-core/src/es/cfe_es_api.c **** 
1675:/home/simulink/cFS_FreeRTOS_seL4/cfe/fsw/cfe-core/src/es/cfe_es_api.c ****    int32 Status = CFE_ES_BAD_ARGUMENT;
 3280               	.loc 2 1675 0
 3281 1b98 2EBC C400 	move.l #-1006632950,(%sp)
 3281      000A 
1676:/home/simulink/cFS_FreeRTOS_seL4/cfe/fsw/cfe-core/src/es/cfe_es_api.c **** 
1677:/home/simulink/cFS_FreeRTOS_seL4/cfe/fsw/cfe-core/src/es/cfe_es_api.c ****    if(CounterId < CFE_ES_MAX_GEN_COUNTERS) 
 3282               	.loc 2 1677 0
 3283 1b9e 7007      	moveq #7,%d0
 3284 1ba0 B0AF 0008 	cmp.l 8(%sp),%d0
 3285 1ba4 652C      	jcs .L173
1678:/home/simulink/cFS_FreeRTOS_seL4/cfe/fsw/cfe-core/src/es/cfe_es_api.c ****    {
1679:/home/simulink/cFS_FreeRTOS_seL4/cfe/fsw/cfe-core/src/es/cfe_es_api.c ****       CFE_ES_Global.CounterTable[CounterId].RecordUsed = FALSE;
 3286               	.loc 2 1679 0
 3287 1ba6 202F 0008 	move.l 8(%sp),%d0
 3288 1baa 721C      	moveq #28,%d1
 3289 1bac 4C01 0800 	muls.l %d1,%d0
 3290 1bb0 41F9 0000 	lea CFE_ES_Global+7940,%a0
 3290      0000 
 3291 1bb6 4201      	clr.b %d1
 3292 1bb8 1181 0800 	move.b %d1,(%a0,%d0.l)
1680:/home/simulink/cFS_FreeRTOS_seL4/cfe/fsw/cfe-core/src/es/cfe_es_api.c ****       CFE_ES_Global.CounterTable[CounterId].Counter = 0;
 3293               	.loc 2 1680 0
 3294 1bbc 202F 0008 	move.l 8(%sp),%d0
 3295 1bc0 721C      	moveq #28,%d1
 3296 1bc2 4C01 0800 	muls.l %d1,%d0
 3297 1bc6 41F9 0000 	lea CFE_ES_Global+7944,%a0
 3297      0000 
 3298 1bcc 42B0 0800 	clr.l (%a0,%d0.l)
1681:/home/simulink/cFS_FreeRTOS_seL4/cfe/fsw/cfe-core/src/es/cfe_es_api.c ****       Status = CFE_SUCCESS;
 3299               	.loc 2 1681 0
 3300 1bd0 4297      	clr.l (%sp)
 3301               	.L173:
1682:/home/simulink/cFS_FreeRTOS_seL4/cfe/fsw/cfe-core/src/es/cfe_es_api.c ****    }
1683:/home/simulink/cFS_FreeRTOS_seL4/cfe/fsw/cfe-core/src/es/cfe_es_api.c **** 
1684:/home/simulink/cFS_FreeRTOS_seL4/cfe/fsw/cfe-core/src/es/cfe_es_api.c ****    return Status;
 3302               	.loc 2 1684 0
 3303 1bd2 2017      	move.l (%sp),%d0
1685:/home/simulink/cFS_FreeRTOS_seL4/cfe/fsw/cfe-core/src/es/cfe_es_api.c **** 
68K GAS   			page 110


1686:/home/simulink/cFS_FreeRTOS_seL4/cfe/fsw/cfe-core/src/es/cfe_es_api.c **** } /* End of CFE_ES_DeleteGenCounter() */
 3304               	.loc 2 1686 0
 3305 1bd4 588F      	addq.l #4,%sp
 3306 1bd6 4E75      	rts
 3307               	.cfi_endproc
 3308               	.LFE84:
 3309               	.sizeCFE_ES_DeleteGenCounter, .-CFE_ES_DeleteGenCounter
 3310               	.align2
 3311               	.globlCFE_ES_IncrementGenCounter
 3312               	.typeCFE_ES_IncrementGenCounter, @function
 3313               	CFE_ES_IncrementGenCounter:
 3314               	.LFB85:
1687:/home/simulink/cFS_FreeRTOS_seL4/cfe/fsw/cfe-core/src/es/cfe_es_api.c **** 
1688:/home/simulink/cFS_FreeRTOS_seL4/cfe/fsw/cfe-core/src/es/cfe_es_api.c **** /*
1689:/home/simulink/cFS_FreeRTOS_seL4/cfe/fsw/cfe-core/src/es/cfe_es_api.c **** ** Function: CFE_ES_IncrementGenCounter
1690:/home/simulink/cFS_FreeRTOS_seL4/cfe/fsw/cfe-core/src/es/cfe_es_api.c **** **
1691:/home/simulink/cFS_FreeRTOS_seL4/cfe/fsw/cfe-core/src/es/cfe_es_api.c **** ** Purpose:  Increment a Generic Counter.
1692:/home/simulink/cFS_FreeRTOS_seL4/cfe/fsw/cfe-core/src/es/cfe_es_api.c **** **
1693:/home/simulink/cFS_FreeRTOS_seL4/cfe/fsw/cfe-core/src/es/cfe_es_api.c **** */
1694:/home/simulink/cFS_FreeRTOS_seL4/cfe/fsw/cfe-core/src/es/cfe_es_api.c **** int32 CFE_ES_IncrementGenCounter(uint32 CounterId)
1695:/home/simulink/cFS_FreeRTOS_seL4/cfe/fsw/cfe-core/src/es/cfe_es_api.c **** {
 3315               	.loc 2 1695 0
 3316               	.cfi_startproc
 3317 1bd8 598F      	subq.l #4,%sp
 3318               	.cfi_def_cfa_offset 8
 3319 1bda 2F02      	move.l %d2,-(%sp)
 3320               	.cfi_def_cfa_offset 12
 3321               	.cfi_offset 2, -12
1696:/home/simulink/cFS_FreeRTOS_seL4/cfe/fsw/cfe-core/src/es/cfe_es_api.c ****    int32 Status = CFE_ES_BAD_ARGUMENT;
 3322               	.loc 2 1696 0
 3323 1bdc 203C C400 	move.l #-1006632950,%d0
 3323      000A 
 3324 1be2 2F40 0004 	move.l %d0,4(%sp)
1697:/home/simulink/cFS_FreeRTOS_seL4/cfe/fsw/cfe-core/src/es/cfe_es_api.c **** 
1698:/home/simulink/cFS_FreeRTOS_seL4/cfe/fsw/cfe-core/src/es/cfe_es_api.c ****    if((CounterId < CFE_ES_MAX_GEN_COUNTERS) &&
 3325               	.loc 2 1698 0
 3326 1be6 7207      	moveq #7,%d1
 3327 1be8 B2AF 000C 	cmp.l 12(%sp),%d1
 3328 1bec 6552      	jcs .L176
1699:/home/simulink/cFS_FreeRTOS_seL4/cfe/fsw/cfe-core/src/es/cfe_es_api.c ****       (CFE_ES_Global.CounterTable[CounterId].RecordUsed == TRUE))
 3329               	.loc 2 1699 0 discriminator 1
 3330 1bee 202F 000C 	move.l 12(%sp),%d0
 3331 1bf2 741C      	moveq #28,%d2
 3332 1bf4 4C02 0800 	muls.l %d2,%d0
 3333 1bf8 41F9 0000 	lea CFE_ES_Global+7940,%a0
 3333      0000 
 3334 1bfe 1030 0800 	move.b (%a0,%d0.l),%d0
1698:/home/simulink/cFS_FreeRTOS_seL4/cfe/fsw/cfe-core/src/es/cfe_es_api.c ****       (CFE_ES_Global.CounterTable[CounterId].RecordUsed == TRUE))
 3335               	.loc 2 1698 0 discriminator 1
 3336 1c02 1000      	move.b %d0,%d0
 3337 1c04 0280 0000 	and.l #255,%d0
 3337      00FF 
 3338 1c0a 7201      	moveq #1,%d1
 3339 1c0c B280      	cmp.l %d0,%d1
 3340 1c0e 6630      	jne .L176
1700:/home/simulink/cFS_FreeRTOS_seL4/cfe/fsw/cfe-core/src/es/cfe_es_api.c ****    {
1701:/home/simulink/cFS_FreeRTOS_seL4/cfe/fsw/cfe-core/src/es/cfe_es_api.c ****       CFE_ES_Global.CounterTable[CounterId].Counter++;
68K GAS   			page 111


 3341               	.loc 2 1701 0
 3342 1c10 202F 000C 	move.l 12(%sp),%d0
 3343 1c14 741C      	moveq #28,%d2
 3344 1c16 4C02 0800 	muls.l %d2,%d0
 3345 1c1a 41F9 0000 	lea CFE_ES_Global+7944,%a0
 3345      0000 
 3346 1c20 2030 0800 	move.l (%a0,%d0.l),%d0
 3347 1c24 2200      	move.l %d0,%d1
 3348 1c26 5281      	addq.l #1,%d1
 3349 1c28 202F 000C 	move.l 12(%sp),%d0
 3350 1c2c 741C      	moveq #28,%d2
 3351 1c2e 4C02 0800 	muls.l %d2,%d0
 3352 1c32 41F9 0000 	lea CFE_ES_Global+7944,%a0
 3352      0000 
 3353 1c38 2181 0800 	move.l %d1,(%a0,%d0.l)
1702:/home/simulink/cFS_FreeRTOS_seL4/cfe/fsw/cfe-core/src/es/cfe_es_api.c ****       Status = CFE_SUCCESS;
 3354               	.loc 2 1702 0
 3355 1c3c 42AF 0004 	clr.l 4(%sp)
 3356               	.L176:
1703:/home/simulink/cFS_FreeRTOS_seL4/cfe/fsw/cfe-core/src/es/cfe_es_api.c ****    }
1704:/home/simulink/cFS_FreeRTOS_seL4/cfe/fsw/cfe-core/src/es/cfe_es_api.c ****    return Status;
 3357               	.loc 2 1704 0
 3358 1c40 202F 0004 	move.l 4(%sp),%d0
1705:/home/simulink/cFS_FreeRTOS_seL4/cfe/fsw/cfe-core/src/es/cfe_es_api.c ****    
1706:/home/simulink/cFS_FreeRTOS_seL4/cfe/fsw/cfe-core/src/es/cfe_es_api.c **** } /* End of CFE_ES_IncrementGenCounter() */
 3359               	.loc 2 1706 0
 3360 1c44 241F      	move.l (%sp)+,%d2
 3361 1c46 588F      	addq.l #4,%sp
 3362 1c48 4E75      	rts
 3363               	.cfi_endproc
 3364               	.LFE85:
 3365               	.sizeCFE_ES_IncrementGenCounter, .-CFE_ES_IncrementGenCounter
 3366               	.align2
 3367               	.globlCFE_ES_SetGenCount
 3368               	.typeCFE_ES_SetGenCount, @function
 3369               	CFE_ES_SetGenCount:
 3370               	.LFB86:
1707:/home/simulink/cFS_FreeRTOS_seL4/cfe/fsw/cfe-core/src/es/cfe_es_api.c **** 
1708:/home/simulink/cFS_FreeRTOS_seL4/cfe/fsw/cfe-core/src/es/cfe_es_api.c **** /*
1709:/home/simulink/cFS_FreeRTOS_seL4/cfe/fsw/cfe-core/src/es/cfe_es_api.c **** ** Function: CFE_ES_SetGenCount
1710:/home/simulink/cFS_FreeRTOS_seL4/cfe/fsw/cfe-core/src/es/cfe_es_api.c **** **
1711:/home/simulink/cFS_FreeRTOS_seL4/cfe/fsw/cfe-core/src/es/cfe_es_api.c **** ** Purpose:  Sets a Generic Counter's count.
1712:/home/simulink/cFS_FreeRTOS_seL4/cfe/fsw/cfe-core/src/es/cfe_es_api.c **** **
1713:/home/simulink/cFS_FreeRTOS_seL4/cfe/fsw/cfe-core/src/es/cfe_es_api.c **** */
1714:/home/simulink/cFS_FreeRTOS_seL4/cfe/fsw/cfe-core/src/es/cfe_es_api.c **** int32 CFE_ES_SetGenCount(uint32 CounterId, uint32 Count)
1715:/home/simulink/cFS_FreeRTOS_seL4/cfe/fsw/cfe-core/src/es/cfe_es_api.c **** {
 3371               	.loc 2 1715 0
 3372               	.cfi_startproc
 3373 1c4a 598F      	subq.l #4,%sp
 3374               	.cfi_def_cfa_offset 8
1716:/home/simulink/cFS_FreeRTOS_seL4/cfe/fsw/cfe-core/src/es/cfe_es_api.c ****    int32 Status = CFE_ES_BAD_ARGUMENT;
 3375               	.loc 2 1716 0
 3376 1c4c 2EBC C400 	move.l #-1006632950,(%sp)
 3376      000A 
1717:/home/simulink/cFS_FreeRTOS_seL4/cfe/fsw/cfe-core/src/es/cfe_es_api.c **** 
1718:/home/simulink/cFS_FreeRTOS_seL4/cfe/fsw/cfe-core/src/es/cfe_es_api.c ****    if((CounterId < CFE_ES_MAX_GEN_COUNTERS) &&
 3377               	.loc 2 1718 0
68K GAS   			page 112


 3378 1c52 7007      	moveq #7,%d0
 3379 1c54 B0AF 0008 	cmp.l 8(%sp),%d0
 3380 1c58 653C      	jcs .L179
1719:/home/simulink/cFS_FreeRTOS_seL4/cfe/fsw/cfe-core/src/es/cfe_es_api.c ****       (CFE_ES_Global.CounterTable[CounterId].RecordUsed == TRUE))
 3381               	.loc 2 1719 0 discriminator 1
 3382 1c5a 202F 0008 	move.l 8(%sp),%d0
 3383 1c5e 721C      	moveq #28,%d1
 3384 1c60 4C01 0800 	muls.l %d1,%d0
 3385 1c64 41F9 0000 	lea CFE_ES_Global+7940,%a0
 3385      0000 
 3386 1c6a 1030 0800 	move.b (%a0,%d0.l),%d0
1718:/home/simulink/cFS_FreeRTOS_seL4/cfe/fsw/cfe-core/src/es/cfe_es_api.c ****       (CFE_ES_Global.CounterTable[CounterId].RecordUsed == TRUE))
 3387               	.loc 2 1718 0 discriminator 1
 3388 1c6e 1000      	move.b %d0,%d0
 3389 1c70 0280 0000 	and.l #255,%d0
 3389      00FF 
 3390 1c76 7201      	moveq #1,%d1
 3391 1c78 B280      	cmp.l %d0,%d1
 3392 1c7a 661A      	jne .L179
1720:/home/simulink/cFS_FreeRTOS_seL4/cfe/fsw/cfe-core/src/es/cfe_es_api.c ****    {
1721:/home/simulink/cFS_FreeRTOS_seL4/cfe/fsw/cfe-core/src/es/cfe_es_api.c ****       CFE_ES_Global.CounterTable[CounterId].Counter = Count;
 3393               	.loc 2 1721 0
 3394 1c7c 202F 0008 	move.l 8(%sp),%d0
 3395 1c80 721C      	moveq #28,%d1
 3396 1c82 4C01 0800 	muls.l %d1,%d0
 3397 1c86 41F9 0000 	lea CFE_ES_Global+7944,%a0
 3397      0000 
 3398 1c8c 43EF 000C 	lea (12,%sp),%a1
 3399 1c90 2191 0800 	move.l (%a1),(%a0,%d0.l)
1722:/home/simulink/cFS_FreeRTOS_seL4/cfe/fsw/cfe-core/src/es/cfe_es_api.c ****       Status = CFE_SUCCESS;
 3400               	.loc 2 1722 0
 3401 1c94 4297      	clr.l (%sp)
 3402               	.L179:
1723:/home/simulink/cFS_FreeRTOS_seL4/cfe/fsw/cfe-core/src/es/cfe_es_api.c ****    }
1724:/home/simulink/cFS_FreeRTOS_seL4/cfe/fsw/cfe-core/src/es/cfe_es_api.c ****    return Status;
 3403               	.loc 2 1724 0
 3404 1c96 2017      	move.l (%sp),%d0
1725:/home/simulink/cFS_FreeRTOS_seL4/cfe/fsw/cfe-core/src/es/cfe_es_api.c **** } /* End of CFE_ES_SetGenCount() */
 3405               	.loc 2 1725 0
 3406 1c98 588F      	addq.l #4,%sp
 3407 1c9a 4E75      	rts
 3408               	.cfi_endproc
 3409               	.LFE86:
 3410               	.sizeCFE_ES_SetGenCount, .-CFE_ES_SetGenCount
 3411               	.align2
 3412               	.globlCFE_ES_GetGenCount
 3413               	.typeCFE_ES_GetGenCount, @function
 3414               	CFE_ES_GetGenCount:
 3415               	.LFB87:
1726:/home/simulink/cFS_FreeRTOS_seL4/cfe/fsw/cfe-core/src/es/cfe_es_api.c **** 
1727:/home/simulink/cFS_FreeRTOS_seL4/cfe/fsw/cfe-core/src/es/cfe_es_api.c **** /*
1728:/home/simulink/cFS_FreeRTOS_seL4/cfe/fsw/cfe-core/src/es/cfe_es_api.c **** ** Function: CFE_ES_GetGenCount
1729:/home/simulink/cFS_FreeRTOS_seL4/cfe/fsw/cfe-core/src/es/cfe_es_api.c **** **
1730:/home/simulink/cFS_FreeRTOS_seL4/cfe/fsw/cfe-core/src/es/cfe_es_api.c **** ** Purpose:  Gets the value of a Generic Counter.
1731:/home/simulink/cFS_FreeRTOS_seL4/cfe/fsw/cfe-core/src/es/cfe_es_api.c **** **
1732:/home/simulink/cFS_FreeRTOS_seL4/cfe/fsw/cfe-core/src/es/cfe_es_api.c **** */
1733:/home/simulink/cFS_FreeRTOS_seL4/cfe/fsw/cfe-core/src/es/cfe_es_api.c **** int32 CFE_ES_GetGenCount(uint32 CounterId, uint32 *Count)
68K GAS   			page 113


1734:/home/simulink/cFS_FreeRTOS_seL4/cfe/fsw/cfe-core/src/es/cfe_es_api.c **** {
 3416               	.loc 2 1734 0
 3417               	.cfi_startproc
 3418 1c9c 598F      	subq.l #4,%sp
 3419               	.cfi_def_cfa_offset 8
1735:/home/simulink/cFS_FreeRTOS_seL4/cfe/fsw/cfe-core/src/es/cfe_es_api.c ****    int32 Status = CFE_ES_BAD_ARGUMENT;
 3420               	.loc 2 1735 0
 3421 1c9e 2EBC C400 	move.l #-1006632950,(%sp)
 3421      000A 
1736:/home/simulink/cFS_FreeRTOS_seL4/cfe/fsw/cfe-core/src/es/cfe_es_api.c **** 
1737:/home/simulink/cFS_FreeRTOS_seL4/cfe/fsw/cfe-core/src/es/cfe_es_api.c ****    if((CounterId < CFE_ES_MAX_GEN_COUNTERS) &&
 3422               	.loc 2 1737 0
 3423 1ca4 7007      	moveq #7,%d0
 3424 1ca6 B0AF 0008 	cmp.l 8(%sp),%d0
 3425 1caa 6544      	jcs .L182
1738:/home/simulink/cFS_FreeRTOS_seL4/cfe/fsw/cfe-core/src/es/cfe_es_api.c ****       (CFE_ES_Global.CounterTable[CounterId].RecordUsed == TRUE) &&
 3426               	.loc 2 1738 0 discriminator 1
 3427 1cac 202F 0008 	move.l 8(%sp),%d0
 3428 1cb0 721C      	moveq #28,%d1
 3429 1cb2 4C01 0800 	muls.l %d1,%d0
 3430 1cb6 41F9 0000 	lea CFE_ES_Global+7940,%a0
 3430      0000 
 3431 1cbc 1030 0800 	move.b (%a0,%d0.l),%d0
1737:/home/simulink/cFS_FreeRTOS_seL4/cfe/fsw/cfe-core/src/es/cfe_es_api.c ****       (CFE_ES_Global.CounterTable[CounterId].RecordUsed == TRUE) &&
 3432               	.loc 2 1737 0 discriminator 1
 3433 1cc0 1000      	move.b %d0,%d0
 3434 1cc2 0280 0000 	and.l #255,%d0
 3434      00FF 
 3435 1cc8 7201      	moveq #1,%d1
 3436 1cca B280      	cmp.l %d0,%d1
 3437 1ccc 6622      	jne .L182
 3438               	.loc 2 1738 0
 3439 1cce 4AAF 000C 	tst.l 12(%sp)
 3440 1cd2 671C      	jeq .L182
1739:/home/simulink/cFS_FreeRTOS_seL4/cfe/fsw/cfe-core/src/es/cfe_es_api.c ****       (Count != NULL ))
1740:/home/simulink/cFS_FreeRTOS_seL4/cfe/fsw/cfe-core/src/es/cfe_es_api.c ****    {
1741:/home/simulink/cFS_FreeRTOS_seL4/cfe/fsw/cfe-core/src/es/cfe_es_api.c ****       *Count = CFE_ES_Global.CounterTable[CounterId].Counter;
 3441               	.loc 2 1741 0
 3442 1cd4 202F 0008 	move.l 8(%sp),%d0
 3443 1cd8 721C      	moveq #28,%d1
 3444 1cda 4C01 0800 	muls.l %d1,%d0
 3445 1cde 41F9 0000 	lea CFE_ES_Global+7944,%a0
 3445      0000 
 3446 1ce4 2030 0800 	move.l (%a0,%d0.l),%d0
 3447 1ce8 206F 000C 	move.l 12(%sp),%a0
 3448 1cec 2080      	move.l %d0,(%a0)
1742:/home/simulink/cFS_FreeRTOS_seL4/cfe/fsw/cfe-core/src/es/cfe_es_api.c ****       Status = CFE_SUCCESS;
 3449               	.loc 2 1742 0
 3450 1cee 4297      	clr.l (%sp)
 3451               	.L182:
1743:/home/simulink/cFS_FreeRTOS_seL4/cfe/fsw/cfe-core/src/es/cfe_es_api.c ****    }
1744:/home/simulink/cFS_FreeRTOS_seL4/cfe/fsw/cfe-core/src/es/cfe_es_api.c ****    return Status;
 3452               	.loc 2 1744 0
 3453 1cf0 2017      	move.l (%sp),%d0
1745:/home/simulink/cFS_FreeRTOS_seL4/cfe/fsw/cfe-core/src/es/cfe_es_api.c **** } /* End of CFE_ES_GetGenCount() */
 3454               	.loc 2 1745 0
 3455 1cf2 588F      	addq.l #4,%sp
68K GAS   			page 114


 3456 1cf4 4E75      	rts
 3457               	.cfi_endproc
 3458               	.LFE87:
 3459               	.sizeCFE_ES_GetGenCount, .-CFE_ES_GetGenCount
 3460               	.align2
 3461               	.globlCFE_ES_GetGenCounterIDByName
 3462               	.typeCFE_ES_GetGenCounterIDByName, @function
 3463               	CFE_ES_GetGenCounterIDByName:
 3464               	.LFB88:
1746:/home/simulink/cFS_FreeRTOS_seL4/cfe/fsw/cfe-core/src/es/cfe_es_api.c **** 
1747:/home/simulink/cFS_FreeRTOS_seL4/cfe/fsw/cfe-core/src/es/cfe_es_api.c **** int32 CFE_ES_GetGenCounterIDByName(uint32 *CounterIdPtr, const char *CounterName)
1748:/home/simulink/cFS_FreeRTOS_seL4/cfe/fsw/cfe-core/src/es/cfe_es_api.c **** {
 3465               	.loc 2 1748 0
 3466               	.cfi_startproc
 3467 1cf6 518F      	subq.l #8,%sp
 3468               	.cfi_def_cfa_offset 12
1749:/home/simulink/cFS_FreeRTOS_seL4/cfe/fsw/cfe-core/src/es/cfe_es_api.c **** 
1750:/home/simulink/cFS_FreeRTOS_seL4/cfe/fsw/cfe-core/src/es/cfe_es_api.c ****    int32 Result = CFE_ES_BAD_ARGUMENT;
 3469               	.loc 2 1750 0
 3470 1cf8 203C C400 	move.l #-1006632950,%d0
 3470      000A 
 3471 1cfe 2F40 0004 	move.l %d0,4(%sp)
1751:/home/simulink/cFS_FreeRTOS_seL4/cfe/fsw/cfe-core/src/es/cfe_es_api.c ****    uint32   i;
1752:/home/simulink/cFS_FreeRTOS_seL4/cfe/fsw/cfe-core/src/es/cfe_es_api.c **** 
1753:/home/simulink/cFS_FreeRTOS_seL4/cfe/fsw/cfe-core/src/es/cfe_es_api.c ****    /*
1754:/home/simulink/cFS_FreeRTOS_seL4/cfe/fsw/cfe-core/src/es/cfe_es_api.c ****    ** Search the ES Generic Counter table for a counter with a matching name.
1755:/home/simulink/cFS_FreeRTOS_seL4/cfe/fsw/cfe-core/src/es/cfe_es_api.c ****    */
1756:/home/simulink/cFS_FreeRTOS_seL4/cfe/fsw/cfe-core/src/es/cfe_es_api.c ****    for ( i = 0; i < CFE_ES_MAX_GEN_COUNTERS; i++ )
 3472               	.loc 2 1756 0
 3473 1d02 4297      	clr.l (%sp)
 3474 1d04 605E      	jra .L185
 3475               	.L189:
1757:/home/simulink/cFS_FreeRTOS_seL4/cfe/fsw/cfe-core/src/es/cfe_es_api.c ****    {
1758:/home/simulink/cFS_FreeRTOS_seL4/cfe/fsw/cfe-core/src/es/cfe_es_api.c ****       if ( CFE_ES_Global.CounterTable[i].RecordUsed == TRUE )
 3476               	.loc 2 1758 0
 3477 1d06 2017      	move.l (%sp),%d0
 3478 1d08 721C      	moveq #28,%d1
 3479 1d0a 4C01 0800 	muls.l %d1,%d0
 3480 1d0e 41F9 0000 	lea CFE_ES_Global+7940,%a0
 3480      0000 
 3481 1d14 1030 0800 	move.b (%a0,%d0.l),%d0
 3482 1d18 1000      	move.b %d0,%d0
 3483 1d1a 0280 0000 	and.l #255,%d0
 3483      00FF 
 3484 1d20 7201      	moveq #1,%d1
 3485 1d22 B280      	cmp.l %d0,%d1
 3486 1d24 663C      	jne .L186
1759:/home/simulink/cFS_FreeRTOS_seL4/cfe/fsw/cfe-core/src/es/cfe_es_api.c ****       {
1760:/home/simulink/cFS_FreeRTOS_seL4/cfe/fsw/cfe-core/src/es/cfe_es_api.c ****          if ( strncmp(CounterName, (char *)CFE_ES_Global.CounterTable[i].CounterName, OS_MAX_API_NA
 3487               	.loc 2 1760 0
 3488 1d26 701C      	moveq #28,%d0
 3489 1d28 4C17 0800 	muls.l (%sp),%d0
 3490 1d2c 0680 0000 	add.l #7948,%d0
 3490      1F0C 
 3491 1d32 0680 0000 	add.l #CFE_ES_Global,%d0
 3491      0000 
 3492 1d38 4878 0014 	pea 20.w
68K GAS   			page 115


 3493               	.cfi_def_cfa_offset 16
 3494 1d3c 2F00      	move.l %d0,-(%sp)
 3495               	.cfi_def_cfa_offset 20
 3496 1d3e 2F2F 0018 	move.l 24(%sp),-(%sp)
 3497               	.cfi_def_cfa_offset 24
 3498 1d42 4EB9 0000 	jsr strncmp
 3498      0000 
 3499 1d48 4FEF 000C 	lea (12,%sp),%sp
 3500               	.cfi_def_cfa_offset 12
 3501 1d4c 4A80      	tst.l %d0
 3502 1d4e 6612      	jne .L186
1761:/home/simulink/cFS_FreeRTOS_seL4/cfe/fsw/cfe-core/src/es/cfe_es_api.c ****          {
1762:/home/simulink/cFS_FreeRTOS_seL4/cfe/fsw/cfe-core/src/es/cfe_es_api.c ****             if(CounterIdPtr != NULL)
 3503               	.loc 2 1762 0
 3504 1d50 4AAF 000C 	tst.l 12(%sp)
 3505 1d54 6716      	jeq .L191
1763:/home/simulink/cFS_FreeRTOS_seL4/cfe/fsw/cfe-core/src/es/cfe_es_api.c ****             {
1764:/home/simulink/cFS_FreeRTOS_seL4/cfe/fsw/cfe-core/src/es/cfe_es_api.c ****                *CounterIdPtr = i;
 3506               	.loc 2 1764 0
 3507 1d56 206F 000C 	move.l 12(%sp),%a0
 3508 1d5a 2097      	move.l (%sp),(%a0)
1765:/home/simulink/cFS_FreeRTOS_seL4/cfe/fsw/cfe-core/src/es/cfe_es_api.c ****                Result = CFE_SUCCESS;
 3509               	.loc 2 1765 0
 3510 1d5c 42AF 0004 	clr.l 4(%sp)
1766:/home/simulink/cFS_FreeRTOS_seL4/cfe/fsw/cfe-core/src/es/cfe_es_api.c ****             }
1767:/home/simulink/cFS_FreeRTOS_seL4/cfe/fsw/cfe-core/src/es/cfe_es_api.c ****             break;
 3511               	.loc 2 1767 0
 3512 1d60 600A      	jra .L191
 3513               	.L186:
1756:/home/simulink/cFS_FreeRTOS_seL4/cfe/fsw/cfe-core/src/es/cfe_es_api.c ****    {
 3514               	.loc 2 1756 0 discriminator 2
 3515 1d62 5297      	addq.l #1,(%sp)
 3516               	.L185:
1756:/home/simulink/cFS_FreeRTOS_seL4/cfe/fsw/cfe-core/src/es/cfe_es_api.c ****    {
 3517               	.loc 2 1756 0 is_stmt 0 discriminator 1
 3518 1d64 7007      	moveq #7,%d0
 3519 1d66 B097      	cmp.l (%sp),%d0
 3520 1d68 649C      	jcc .L189
 3521 1d6a 6002      	jra .L188
 3522               	.L191:
 3523               	.loc 2 1767 0 is_stmt 1
 3524 1d6c 4E71      	nop
 3525               	.L188:
1768:/home/simulink/cFS_FreeRTOS_seL4/cfe/fsw/cfe-core/src/es/cfe_es_api.c ****          }
1769:/home/simulink/cFS_FreeRTOS_seL4/cfe/fsw/cfe-core/src/es/cfe_es_api.c ****       }
1770:/home/simulink/cFS_FreeRTOS_seL4/cfe/fsw/cfe-core/src/es/cfe_es_api.c ****    } /* end for */
1771:/home/simulink/cFS_FreeRTOS_seL4/cfe/fsw/cfe-core/src/es/cfe_es_api.c ****    
1772:/home/simulink/cFS_FreeRTOS_seL4/cfe/fsw/cfe-core/src/es/cfe_es_api.c ****    return(Result);
 3526               	.loc 2 1772 0
 3527 1d6e 202F 0004 	move.l 4(%sp),%d0
1773:/home/simulink/cFS_FreeRTOS_seL4/cfe/fsw/cfe-core/src/es/cfe_es_api.c **** 
1774:/home/simulink/cFS_FreeRTOS_seL4/cfe/fsw/cfe-core/src/es/cfe_es_api.c **** } /* End of CFE_ES_GetGenCounterIDByName() */
 3528               	.loc 2 1774 0
 3529 1d72 508F      	addq.l #8,%sp
 3530 1d74 4E75      	rts
 3531               	.cfi_endproc
 3532               	.LFE88:
68K GAS   			page 116


 3533               	.sizeCFE_ES_GetGenCounterIDByName, .-CFE_ES_GetGenCounterIDByName
 3534               	.align2
 3535               	.globlCFE_ES_GetAppIDInternal
 3536               	.typeCFE_ES_GetAppIDInternal, @function
 3537               	CFE_ES_GetAppIDInternal:
 3538               	.LFB89:
1775:/home/simulink/cFS_FreeRTOS_seL4/cfe/fsw/cfe-core/src/es/cfe_es_api.c **** 
1776:/home/simulink/cFS_FreeRTOS_seL4/cfe/fsw/cfe-core/src/es/cfe_es_api.c **** 
1777:/home/simulink/cFS_FreeRTOS_seL4/cfe/fsw/cfe-core/src/es/cfe_es_api.c **** /***************************************************************************************
1778:/home/simulink/cFS_FreeRTOS_seL4/cfe/fsw/cfe-core/src/es/cfe_es_api.c **** ** Private API functions
1779:/home/simulink/cFS_FreeRTOS_seL4/cfe/fsw/cfe-core/src/es/cfe_es_api.c **** */
1780:/home/simulink/cFS_FreeRTOS_seL4/cfe/fsw/cfe-core/src/es/cfe_es_api.c **** 
1781:/home/simulink/cFS_FreeRTOS_seL4/cfe/fsw/cfe-core/src/es/cfe_es_api.c **** /*
1782:/home/simulink/cFS_FreeRTOS_seL4/cfe/fsw/cfe-core/src/es/cfe_es_api.c **** ** Function: CFE_ES_GetAppIDInternal
1783:/home/simulink/cFS_FreeRTOS_seL4/cfe/fsw/cfe-core/src/es/cfe_es_api.c **** **
1784:/home/simulink/cFS_FreeRTOS_seL4/cfe/fsw/cfe-core/src/es/cfe_es_api.c **** ** Purpose:  Return the Caller's cFE Application ID. This internal version is needed
1785:/home/simulink/cFS_FreeRTOS_seL4/cfe/fsw/cfe-core/src/es/cfe_es_api.c **** **            so there are not nested calls to the ES Shared Data mutex lock.
1786:/home/simulink/cFS_FreeRTOS_seL4/cfe/fsw/cfe-core/src/es/cfe_es_api.c **** **
1787:/home/simulink/cFS_FreeRTOS_seL4/cfe/fsw/cfe-core/src/es/cfe_es_api.c **** */
1788:/home/simulink/cFS_FreeRTOS_seL4/cfe/fsw/cfe-core/src/es/cfe_es_api.c **** int32 CFE_ES_GetAppIDInternal(uint32 *AppIdPtr)
1789:/home/simulink/cFS_FreeRTOS_seL4/cfe/fsw/cfe-core/src/es/cfe_es_api.c **** {
 3539               	.loc 2 1789 0
 3540               	.cfi_startproc
 3541 1d76 518F      	subq.l #8,%sp
 3542               	.cfi_def_cfa_offset 12
1790:/home/simulink/cFS_FreeRTOS_seL4/cfe/fsw/cfe-core/src/es/cfe_es_api.c ****    int32  Result = CFE_ES_ERR_APPID;
 3543               	.loc 2 1790 0
 3544 1d78 203C C400 	move.l #-1006632959,%d0
 3544      0001 
 3545 1d7e 2F40 0004 	move.l %d0,4(%sp)
1791:/home/simulink/cFS_FreeRTOS_seL4/cfe/fsw/cfe-core/src/es/cfe_es_api.c ****    uint32 TaskId;
1792:/home/simulink/cFS_FreeRTOS_seL4/cfe/fsw/cfe-core/src/es/cfe_es_api.c **** 
1793:/home/simulink/cFS_FreeRTOS_seL4/cfe/fsw/cfe-core/src/es/cfe_es_api.c ****    /*
1794:/home/simulink/cFS_FreeRTOS_seL4/cfe/fsw/cfe-core/src/es/cfe_es_api.c ****    ** Step 1: Get the OS task ID
1795:/home/simulink/cFS_FreeRTOS_seL4/cfe/fsw/cfe-core/src/es/cfe_es_api.c ****    */
1796:/home/simulink/cFS_FreeRTOS_seL4/cfe/fsw/cfe-core/src/es/cfe_es_api.c ****    if (OS_ConvertToArrayIndex(OS_TaskGetId(), &TaskId) == OS_SUCCESS)
 3546               	.loc 2 1796 0
 3547 1d82 4EB9 0000 	jsr OS_TaskGetId
 3547      0000 
 3548 1d88 220F      	move.l %sp,%d1
 3549 1d8a 2F01      	move.l %d1,-(%sp)
 3550               	.cfi_def_cfa_offset 16
 3551 1d8c 2F00      	move.l %d0,-(%sp)
 3552               	.cfi_def_cfa_offset 20
 3553 1d8e 4EBA E270 	jsr OS_ConvertToArrayIndex
 3554 1d92 508F      	addq.l #8,%sp
 3555               	.cfi_def_cfa_offset 12
 3556 1d94 4A80      	tst.l %d0
 3557 1d96 6648      	jne .L193
1797:/home/simulink/cFS_FreeRTOS_seL4/cfe/fsw/cfe-core/src/es/cfe_es_api.c ****    {
1798:/home/simulink/cFS_FreeRTOS_seL4/cfe/fsw/cfe-core/src/es/cfe_es_api.c ****       /*
1799:/home/simulink/cFS_FreeRTOS_seL4/cfe/fsw/cfe-core/src/es/cfe_es_api.c ****       ** Step 2: get the Application ID for the current task
1800:/home/simulink/cFS_FreeRTOS_seL4/cfe/fsw/cfe-core/src/es/cfe_es_api.c ****       */
1801:/home/simulink/cFS_FreeRTOS_seL4/cfe/fsw/cfe-core/src/es/cfe_es_api.c ****       if ( CFE_ES_Global.TaskTable[TaskId].RecordUsed == TRUE )
 3558               	.loc 2 1801 0
 3559 1d98 2017      	move.l (%sp),%d0
 3560 1d9a 5280      	addq.l #1,%d0
68K GAS   			page 117


 3561 1d9c 7224      	moveq #36,%d1
 3562 1d9e 4C01 0800 	muls.l %d1,%d0
 3563 1da2 41F9 0000 	lea CFE_ES_Global,%a0
 3563      0000 
 3564 1da8 1030 0800 	move.b (%a0,%d0.l),%d0
 3565 1dac 1000      	move.b %d0,%d0
 3566 1dae 0280 0000 	and.l #255,%d0
 3566      00FF 
 3567 1db4 7201      	moveq #1,%d1
 3568 1db6 B280      	cmp.l %d0,%d1
 3569 1db8 661E      	jne .L194
1802:/home/simulink/cFS_FreeRTOS_seL4/cfe/fsw/cfe-core/src/es/cfe_es_api.c ****       {
1803:/home/simulink/cFS_FreeRTOS_seL4/cfe/fsw/cfe-core/src/es/cfe_es_api.c ****          *AppIdPtr = CFE_ES_Global.TaskTable[TaskId].AppId;
 3570               	.loc 2 1803 0
 3571 1dba 2017      	move.l (%sp),%d0
 3572 1dbc 7224      	moveq #36,%d1
 3573 1dbe 4C01 0800 	muls.l %d1,%d0
 3574 1dc2 41F9 0000 	lea CFE_ES_Global+40,%a0
 3574      0000 
 3575 1dc8 2030 0800 	move.l (%a0,%d0.l),%d0
 3576 1dcc 206F 000C 	move.l 12(%sp),%a0
 3577 1dd0 2080      	move.l %d0,(%a0)
1804:/home/simulink/cFS_FreeRTOS_seL4/cfe/fsw/cfe-core/src/es/cfe_es_api.c ****          Result = CFE_SUCCESS;
 3578               	.loc 2 1804 0
 3579 1dd2 42AF 0004 	clr.l 4(%sp)
 3580 1dd6 600E      	jra .L196
 3581               	.L194:
1805:/home/simulink/cFS_FreeRTOS_seL4/cfe/fsw/cfe-core/src/es/cfe_es_api.c ****       }
1806:/home/simulink/cFS_FreeRTOS_seL4/cfe/fsw/cfe-core/src/es/cfe_es_api.c ****       else
1807:/home/simulink/cFS_FreeRTOS_seL4/cfe/fsw/cfe-core/src/es/cfe_es_api.c ****       {
1808:/home/simulink/cFS_FreeRTOS_seL4/cfe/fsw/cfe-core/src/es/cfe_es_api.c ****          *AppIdPtr = 0;
 3582               	.loc 2 1808 0
 3583 1dd8 206F 000C 	move.l 12(%sp),%a0
 3584 1ddc 4290      	clr.l (%a0)
 3585 1dde 6006      	jra .L196
 3586               	.L193:
1809:/home/simulink/cFS_FreeRTOS_seL4/cfe/fsw/cfe-core/src/es/cfe_es_api.c ****       } /* end if */
1810:/home/simulink/cFS_FreeRTOS_seL4/cfe/fsw/cfe-core/src/es/cfe_es_api.c ****    }
1811:/home/simulink/cFS_FreeRTOS_seL4/cfe/fsw/cfe-core/src/es/cfe_es_api.c ****    else
1812:/home/simulink/cFS_FreeRTOS_seL4/cfe/fsw/cfe-core/src/es/cfe_es_api.c ****    {
1813:/home/simulink/cFS_FreeRTOS_seL4/cfe/fsw/cfe-core/src/es/cfe_es_api.c ****       *AppIdPtr = 0;
 3587               	.loc 2 1813 0
 3588 1de0 206F 000C 	move.l 12(%sp),%a0
 3589 1de4 4290      	clr.l (%a0)
 3590               	.L196:
1814:/home/simulink/cFS_FreeRTOS_seL4/cfe/fsw/cfe-core/src/es/cfe_es_api.c ****    } /* end if */
1815:/home/simulink/cFS_FreeRTOS_seL4/cfe/fsw/cfe-core/src/es/cfe_es_api.c **** 
1816:/home/simulink/cFS_FreeRTOS_seL4/cfe/fsw/cfe-core/src/es/cfe_es_api.c ****    return(Result);
 3591               	.loc 2 1816 0
 3592 1de6 202F 0004 	move.l 4(%sp),%d0
1817:/home/simulink/cFS_FreeRTOS_seL4/cfe/fsw/cfe-core/src/es/cfe_es_api.c **** 
1818:/home/simulink/cFS_FreeRTOS_seL4/cfe/fsw/cfe-core/src/es/cfe_es_api.c **** } /* End of CFE_ES_GetAppIDInternal() */
 3593               	.loc 2 1818 0
 3594 1dea 508F      	addq.l #8,%sp
 3595 1dec 4E75      	rts
 3596               	.cfi_endproc
 3597               	.LFE89:
68K GAS   			page 118


 3598               	.sizeCFE_ES_GetAppIDInternal, .-CFE_ES_GetAppIDInternal
 3599               	.section.rodata
 3600               	.LC53:
 3601 0b83 4553 2053 	.string"ES SharedData Mutex Take Err Stat=0x%x,App=%d,Func=%s,Line=%d\n"
 3601      6861 7265 
 3601      6444 6174 
 3601      6120 4D75 
 3601      7465 7820 
 3602               	.text
 3603               	.align2
 3604               	.globlCFE_ES_LockSharedData
 3605               	.typeCFE_ES_LockSharedData, @function
 3606               	CFE_ES_LockSharedData:
 3607               	.LFB90:
1819:/home/simulink/cFS_FreeRTOS_seL4/cfe/fsw/cfe-core/src/es/cfe_es_api.c **** 
1820:/home/simulink/cFS_FreeRTOS_seL4/cfe/fsw/cfe-core/src/es/cfe_es_api.c **** 
1821:/home/simulink/cFS_FreeRTOS_seL4/cfe/fsw/cfe-core/src/es/cfe_es_api.c **** /******************************************************************************
1822:/home/simulink/cFS_FreeRTOS_seL4/cfe/fsw/cfe-core/src/es/cfe_es_api.c **** **  Function:  CFE_ES_LockSharedData()
1823:/home/simulink/cFS_FreeRTOS_seL4/cfe/fsw/cfe-core/src/es/cfe_es_api.c **** **
1824:/home/simulink/cFS_FreeRTOS_seL4/cfe/fsw/cfe-core/src/es/cfe_es_api.c **** **  Purpose:
1825:/home/simulink/cFS_FreeRTOS_seL4/cfe/fsw/cfe-core/src/es/cfe_es_api.c **** **    ES internal function to take the Shared Data Mutex and handle
1826:/home/simulink/cFS_FreeRTOS_seL4/cfe/fsw/cfe-core/src/es/cfe_es_api.c **** **    error conditions.
1827:/home/simulink/cFS_FreeRTOS_seL4/cfe/fsw/cfe-core/src/es/cfe_es_api.c **** **
1828:/home/simulink/cFS_FreeRTOS_seL4/cfe/fsw/cfe-core/src/es/cfe_es_api.c **** **  Arguments:
1829:/home/simulink/cFS_FreeRTOS_seL4/cfe/fsw/cfe-core/src/es/cfe_es_api.c **** **    FunctionName   - the name of the function containing the code that generated the error.
1830:/home/simulink/cFS_FreeRTOS_seL4/cfe/fsw/cfe-core/src/es/cfe_es_api.c **** **    LineNumber     - the file line number of the code that generated the error.
1831:/home/simulink/cFS_FreeRTOS_seL4/cfe/fsw/cfe-core/src/es/cfe_es_api.c **** **
1832:/home/simulink/cFS_FreeRTOS_seL4/cfe/fsw/cfe-core/src/es/cfe_es_api.c **** **  Return:
1833:/home/simulink/cFS_FreeRTOS_seL4/cfe/fsw/cfe-core/src/es/cfe_es_api.c **** **    None
1834:/home/simulink/cFS_FreeRTOS_seL4/cfe/fsw/cfe-core/src/es/cfe_es_api.c **** */
1835:/home/simulink/cFS_FreeRTOS_seL4/cfe/fsw/cfe-core/src/es/cfe_es_api.c **** void CFE_ES_LockSharedData(const char *FunctionName, int32 LineNumber)
1836:/home/simulink/cFS_FreeRTOS_seL4/cfe/fsw/cfe-core/src/es/cfe_es_api.c **** {
 3608               	.loc 2 1836 0
 3609               	.cfi_startproc
 3610 1dee 518F      	subq.l #8,%sp
 3611               	.cfi_def_cfa_offset 12
1837:/home/simulink/cFS_FreeRTOS_seL4/cfe/fsw/cfe-core/src/es/cfe_es_api.c **** 
1838:/home/simulink/cFS_FreeRTOS_seL4/cfe/fsw/cfe-core/src/es/cfe_es_api.c ****     int32   Status;
1839:/home/simulink/cFS_FreeRTOS_seL4/cfe/fsw/cfe-core/src/es/cfe_es_api.c ****     uint32  AppId;
1840:/home/simulink/cFS_FreeRTOS_seL4/cfe/fsw/cfe-core/src/es/cfe_es_api.c **** 
1841:/home/simulink/cFS_FreeRTOS_seL4/cfe/fsw/cfe-core/src/es/cfe_es_api.c ****     Status = OS_MutSemTake(CFE_ES_Global.SharedDataMutex);
 3612               	.loc 2 1841 0
 3613 1df0 2039 0000 	move.l CFE_ES_Global+16,%d0
 3613      0000 
 3614 1df6 2F00      	move.l %d0,-(%sp)
 3615               	.cfi_def_cfa_offset 16
 3616 1df8 4EB9 0000 	jsr OS_MutSemTake
 3616      0000 
 3617 1dfe 588F      	addq.l #4,%sp
 3618               	.cfi_def_cfa_offset 12
 3619 1e00 2F40 0004 	move.l %d0,4(%sp)
1842:/home/simulink/cFS_FreeRTOS_seL4/cfe/fsw/cfe-core/src/es/cfe_es_api.c ****     if (Status != OS_SUCCESS) 
 3620               	.loc 2 1842 0
 3621 1e04 4AAF 0004 	tst.l 4(%sp)
 3622 1e08 6732      	jeq .L201
1843:/home/simulink/cFS_FreeRTOS_seL4/cfe/fsw/cfe-core/src/es/cfe_es_api.c ****     {
1844:/home/simulink/cFS_FreeRTOS_seL4/cfe/fsw/cfe-core/src/es/cfe_es_api.c ****         CFE_ES_GetAppIDInternal(&AppId);
68K GAS   			page 119


 3623               	.loc 2 1844 0
 3624 1e0a 200F      	move.l %sp,%d0
 3625 1e0c 2F00      	move.l %d0,-(%sp)
 3626               	.cfi_def_cfa_offset 16
 3627 1e0e 4EB9 0000 	jsr CFE_ES_GetAppIDInternal
 3627      0000 
 3628 1e14 588F      	addq.l #4,%sp
 3629               	.cfi_def_cfa_offset 12
1845:/home/simulink/cFS_FreeRTOS_seL4/cfe/fsw/cfe-core/src/es/cfe_es_api.c **** 
1846:/home/simulink/cFS_FreeRTOS_seL4/cfe/fsw/cfe-core/src/es/cfe_es_api.c ****         CFE_ES_WriteToSysLog("ES SharedData Mutex Take Err Stat=0x%x,App=%d,Func=%s,Line=%d\n",
 3630               	.loc 2 1846 0
 3631 1e16 2017      	move.l (%sp),%d0
 3632 1e18 2200      	move.l %d0,%d1
 3633 1e1a 202F 0004 	move.l 4(%sp),%d0
 3634 1e1e 2F2F 0010 	move.l 16(%sp),-(%sp)
 3635               	.cfi_def_cfa_offset 16
 3636 1e22 2F2F 0010 	move.l 16(%sp),-(%sp)
 3637               	.cfi_def_cfa_offset 20
 3638 1e26 2F01      	move.l %d1,-(%sp)
 3639               	.cfi_def_cfa_offset 24
 3640 1e28 2F00      	move.l %d0,-(%sp)
 3641               	.cfi_def_cfa_offset 28
 3642 1e2a 4879 0000 	pea .LC53
 3642      0000 
 3643               	.cfi_def_cfa_offset 32
 3644 1e30 4EB9 0000 	jsr CFE_ES_WriteToSysLog
 3644      0000 
 3645 1e36 4FEF 0014 	lea (20,%sp),%sp
 3646               	.cfi_def_cfa_offset 12
1847:/home/simulink/cFS_FreeRTOS_seL4/cfe/fsw/cfe-core/src/es/cfe_es_api.c ****                 (unsigned int)Status,(int)AppId,FunctionName,(int)LineNumber);
1848:/home/simulink/cFS_FreeRTOS_seL4/cfe/fsw/cfe-core/src/es/cfe_es_api.c **** 
1849:/home/simulink/cFS_FreeRTOS_seL4/cfe/fsw/cfe-core/src/es/cfe_es_api.c ****     }/* end if */
1850:/home/simulink/cFS_FreeRTOS_seL4/cfe/fsw/cfe-core/src/es/cfe_es_api.c **** 
1851:/home/simulink/cFS_FreeRTOS_seL4/cfe/fsw/cfe-core/src/es/cfe_es_api.c ****     return;
 3647               	.loc 2 1851 0
 3648 1e3a 4E71      	nop
 3649               	.L201:
 3650 1e3c 4E71      	nop
1852:/home/simulink/cFS_FreeRTOS_seL4/cfe/fsw/cfe-core/src/es/cfe_es_api.c **** 
1853:/home/simulink/cFS_FreeRTOS_seL4/cfe/fsw/cfe-core/src/es/cfe_es_api.c **** }/* end CFE_ES_LockSharedData */
 3651               	.loc 2 1853 0
 3652 1e3e 508F      	addq.l #8,%sp
 3653 1e40 4E75      	rts
 3654               	.cfi_endproc
 3655               	.LFE90:
 3656               	.sizeCFE_ES_LockSharedData, .-CFE_ES_LockSharedData
 3657               	.section.rodata
 3658               	.LC54:
 3659 0bc2 4553 2053 	.string"ES SharedData Mutex Give Err Stat=0x%x,App=%d,Func=%s,Line=%d\n"
 3659      6861 7265 
 3659      6444 6174 
 3659      6120 4D75 
 3659      7465 7820 
 3660               	.text
 3661               	.align2
 3662               	.globlCFE_ES_UnlockSharedData
 3663               	.typeCFE_ES_UnlockSharedData, @function
68K GAS   			page 120


 3664               	CFE_ES_UnlockSharedData:
 3665               	.LFB91:
1854:/home/simulink/cFS_FreeRTOS_seL4/cfe/fsw/cfe-core/src/es/cfe_es_api.c **** 
1855:/home/simulink/cFS_FreeRTOS_seL4/cfe/fsw/cfe-core/src/es/cfe_es_api.c **** /******************************************************************************
1856:/home/simulink/cFS_FreeRTOS_seL4/cfe/fsw/cfe-core/src/es/cfe_es_api.c **** **  Function:  CFE_ES_UnlockSharedData()
1857:/home/simulink/cFS_FreeRTOS_seL4/cfe/fsw/cfe-core/src/es/cfe_es_api.c **** **
1858:/home/simulink/cFS_FreeRTOS_seL4/cfe/fsw/cfe-core/src/es/cfe_es_api.c **** **  Purpose:
1859:/home/simulink/cFS_FreeRTOS_seL4/cfe/fsw/cfe-core/src/es/cfe_es_api.c **** **    ES internal function to Release the shared data mutex and handle error
1860:/home/simulink/cFS_FreeRTOS_seL4/cfe/fsw/cfe-core/src/es/cfe_es_api.c **** **    conditions.
1861:/home/simulink/cFS_FreeRTOS_seL4/cfe/fsw/cfe-core/src/es/cfe_es_api.c **** **
1862:/home/simulink/cFS_FreeRTOS_seL4/cfe/fsw/cfe-core/src/es/cfe_es_api.c **** **  Arguments:
1863:/home/simulink/cFS_FreeRTOS_seL4/cfe/fsw/cfe-core/src/es/cfe_es_api.c **** **    FunctionName   - the name of the function containing the code that generated the error.
1864:/home/simulink/cFS_FreeRTOS_seL4/cfe/fsw/cfe-core/src/es/cfe_es_api.c **** **    LineNumber     - the file line number of the code that generated the error.
1865:/home/simulink/cFS_FreeRTOS_seL4/cfe/fsw/cfe-core/src/es/cfe_es_api.c **** **
1866:/home/simulink/cFS_FreeRTOS_seL4/cfe/fsw/cfe-core/src/es/cfe_es_api.c **** **  Return:
1867:/home/simulink/cFS_FreeRTOS_seL4/cfe/fsw/cfe-core/src/es/cfe_es_api.c **** **    None
1868:/home/simulink/cFS_FreeRTOS_seL4/cfe/fsw/cfe-core/src/es/cfe_es_api.c **** */
1869:/home/simulink/cFS_FreeRTOS_seL4/cfe/fsw/cfe-core/src/es/cfe_es_api.c **** void CFE_ES_UnlockSharedData(const char *FunctionName, int32 LineNumber)
1870:/home/simulink/cFS_FreeRTOS_seL4/cfe/fsw/cfe-core/src/es/cfe_es_api.c **** {
 3666               	.loc 2 1870 0
 3667               	.cfi_startproc
 3668 1e42 518F      	subq.l #8,%sp
 3669               	.cfi_def_cfa_offset 12
1871:/home/simulink/cFS_FreeRTOS_seL4/cfe/fsw/cfe-core/src/es/cfe_es_api.c ****     int32   Status;
1872:/home/simulink/cFS_FreeRTOS_seL4/cfe/fsw/cfe-core/src/es/cfe_es_api.c ****     uint32  AppId;
1873:/home/simulink/cFS_FreeRTOS_seL4/cfe/fsw/cfe-core/src/es/cfe_es_api.c **** 
1874:/home/simulink/cFS_FreeRTOS_seL4/cfe/fsw/cfe-core/src/es/cfe_es_api.c ****     Status = OS_MutSemGive(CFE_ES_Global.SharedDataMutex);
 3670               	.loc 2 1874 0
 3671 1e44 2039 0000 	move.l CFE_ES_Global+16,%d0
 3671      0000 
 3672 1e4a 2F00      	move.l %d0,-(%sp)
 3673               	.cfi_def_cfa_offset 16
 3674 1e4c 4EB9 0000 	jsr OS_MutSemGive
 3674      0000 
 3675 1e52 588F      	addq.l #4,%sp
 3676               	.cfi_def_cfa_offset 12
 3677 1e54 2F40 0004 	move.l %d0,4(%sp)
1875:/home/simulink/cFS_FreeRTOS_seL4/cfe/fsw/cfe-core/src/es/cfe_es_api.c ****     if (Status != OS_SUCCESS) 
 3678               	.loc 2 1875 0
 3679 1e58 4AAF 0004 	tst.l 4(%sp)
 3680 1e5c 6732      	jeq .L205
1876:/home/simulink/cFS_FreeRTOS_seL4/cfe/fsw/cfe-core/src/es/cfe_es_api.c ****     {
1877:/home/simulink/cFS_FreeRTOS_seL4/cfe/fsw/cfe-core/src/es/cfe_es_api.c **** 
1878:/home/simulink/cFS_FreeRTOS_seL4/cfe/fsw/cfe-core/src/es/cfe_es_api.c ****         CFE_ES_GetAppIDInternal(&AppId);
 3681               	.loc 2 1878 0
 3682 1e5e 200F      	move.l %sp,%d0
 3683 1e60 2F00      	move.l %d0,-(%sp)
 3684               	.cfi_def_cfa_offset 16
 3685 1e62 4EB9 0000 	jsr CFE_ES_GetAppIDInternal
 3685      0000 
 3686 1e68 588F      	addq.l #4,%sp
 3687               	.cfi_def_cfa_offset 12
1879:/home/simulink/cFS_FreeRTOS_seL4/cfe/fsw/cfe-core/src/es/cfe_es_api.c **** 
1880:/home/simulink/cFS_FreeRTOS_seL4/cfe/fsw/cfe-core/src/es/cfe_es_api.c ****         CFE_ES_WriteToSysLog("ES SharedData Mutex Give Err Stat=0x%x,App=%d,Func=%s,Line=%d\n",
 3688               	.loc 2 1880 0
 3689 1e6a 2017      	move.l (%sp),%d0
 3690 1e6c 2200      	move.l %d0,%d1
68K GAS   			page 121


 3691 1e6e 202F 0004 	move.l 4(%sp),%d0
 3692 1e72 2F2F 0010 	move.l 16(%sp),-(%sp)
 3693               	.cfi_def_cfa_offset 16
 3694 1e76 2F2F 0010 	move.l 16(%sp),-(%sp)
 3695               	.cfi_def_cfa_offset 20
 3696 1e7a 2F01      	move.l %d1,-(%sp)
 3697               	.cfi_def_cfa_offset 24
 3698 1e7c 2F00      	move.l %d0,-(%sp)
 3699               	.cfi_def_cfa_offset 28
 3700 1e7e 4879 0000 	pea .LC54
 3700      0000 
 3701               	.cfi_def_cfa_offset 32
 3702 1e84 4EB9 0000 	jsr CFE_ES_WriteToSysLog
 3702      0000 
 3703 1e8a 4FEF 0014 	lea (20,%sp),%sp
 3704               	.cfi_def_cfa_offset 12
1881:/home/simulink/cFS_FreeRTOS_seL4/cfe/fsw/cfe-core/src/es/cfe_es_api.c ****                 (unsigned int)Status,(int)AppId,FunctionName,(int)LineNumber);
1882:/home/simulink/cFS_FreeRTOS_seL4/cfe/fsw/cfe-core/src/es/cfe_es_api.c **** 
1883:/home/simulink/cFS_FreeRTOS_seL4/cfe/fsw/cfe-core/src/es/cfe_es_api.c ****     }/* end if */
1884:/home/simulink/cFS_FreeRTOS_seL4/cfe/fsw/cfe-core/src/es/cfe_es_api.c **** 
1885:/home/simulink/cFS_FreeRTOS_seL4/cfe/fsw/cfe-core/src/es/cfe_es_api.c ****     return;
 3705               	.loc 2 1885 0
 3706 1e8e 4E71      	nop
 3707               	.L205:
 3708 1e90 4E71      	nop
1886:/home/simulink/cFS_FreeRTOS_seL4/cfe/fsw/cfe-core/src/es/cfe_es_api.c **** 
1887:/home/simulink/cFS_FreeRTOS_seL4/cfe/fsw/cfe-core/src/es/cfe_es_api.c **** }/* end CFE_ES_UnlockSharedData */
 3709               	.loc 2 1887 0
 3710 1e92 508F      	addq.l #8,%sp
 3711 1e94 4E75      	rts
 3712               	.cfi_endproc
 3713               	.LFE91:
 3714               	.sizeCFE_ES_UnlockSharedData, .-CFE_ES_UnlockSharedData
 3715               	.align2
 3716               	.globlCFE_ES_ProcessCoreException
 3717               	.typeCFE_ES_ProcessCoreException, @function
 3718               	CFE_ES_ProcessCoreException:
 3719               	.LFB92:
1888:/home/simulink/cFS_FreeRTOS_seL4/cfe/fsw/cfe-core/src/es/cfe_es_api.c **** 
1889:/home/simulink/cFS_FreeRTOS_seL4/cfe/fsw/cfe-core/src/es/cfe_es_api.c **** /******************************************************************************
1890:/home/simulink/cFS_FreeRTOS_seL4/cfe/fsw/cfe-core/src/es/cfe_es_api.c **** **  Function:  CFE_ES_ProcessCoreException()
1891:/home/simulink/cFS_FreeRTOS_seL4/cfe/fsw/cfe-core/src/es/cfe_es_api.c **** **
1892:/home/simulink/cFS_FreeRTOS_seL4/cfe/fsw/cfe-core/src/es/cfe_es_api.c **** **  Purpose:
1893:/home/simulink/cFS_FreeRTOS_seL4/cfe/fsw/cfe-core/src/es/cfe_es_api.c **** **    ES internal function to handle the logging and reset from a system or
1894:/home/simulink/cFS_FreeRTOS_seL4/cfe/fsw/cfe-core/src/es/cfe_es_api.c **** **    cFE core exception
1895:/home/simulink/cFS_FreeRTOS_seL4/cfe/fsw/cfe-core/src/es/cfe_es_api.c **** **
1896:/home/simulink/cFS_FreeRTOS_seL4/cfe/fsw/cfe-core/src/es/cfe_es_api.c **** **  Arguments:
1897:/home/simulink/cFS_FreeRTOS_seL4/cfe/fsw/cfe-core/src/es/cfe_es_api.c **** **    Reason String
1898:/home/simulink/cFS_FreeRTOS_seL4/cfe/fsw/cfe-core/src/es/cfe_es_api.c **** **    Context
1899:/home/simulink/cFS_FreeRTOS_seL4/cfe/fsw/cfe-core/src/es/cfe_es_api.c **** **    Context Size
1900:/home/simulink/cFS_FreeRTOS_seL4/cfe/fsw/cfe-core/src/es/cfe_es_api.c **** ** 
1901:/home/simulink/cFS_FreeRTOS_seL4/cfe/fsw/cfe-core/src/es/cfe_es_api.c **** **  Return:
1902:/home/simulink/cFS_FreeRTOS_seL4/cfe/fsw/cfe-core/src/es/cfe_es_api.c **** **    None
1903:/home/simulink/cFS_FreeRTOS_seL4/cfe/fsw/cfe-core/src/es/cfe_es_api.c **** */
1904:/home/simulink/cFS_FreeRTOS_seL4/cfe/fsw/cfe-core/src/es/cfe_es_api.c **** void CFE_ES_ProcessCoreException(uint32  HostTaskId,     const char *ReasonString,
1905:/home/simulink/cFS_FreeRTOS_seL4/cfe/fsw/cfe-core/src/es/cfe_es_api.c ****                                  const uint32 *ContextPointer, uint32 ContextSize)
1906:/home/simulink/cFS_FreeRTOS_seL4/cfe/fsw/cfe-core/src/es/cfe_es_api.c **** {
68K GAS   			page 122


 3720               	.loc 2 1906 0
 3721               	.cfi_startproc
 3722 1e96 4FEF FF98 	lea (-104,%sp),%sp
 3723               	.cfi_def_cfa_offset 108
1907:/home/simulink/cFS_FreeRTOS_seL4/cfe/fsw/cfe-core/src/es/cfe_es_api.c ****     uint32                 i;
1908:/home/simulink/cFS_FreeRTOS_seL4/cfe/fsw/cfe-core/src/es/cfe_es_api.c ****     int32                  Status;
1909:/home/simulink/cFS_FreeRTOS_seL4/cfe/fsw/cfe-core/src/es/cfe_es_api.c ****     OS_task_prop_t         TaskProp;
1910:/home/simulink/cFS_FreeRTOS_seL4/cfe/fsw/cfe-core/src/es/cfe_es_api.c ****     CFE_ES_TaskInfo_t      EsTaskInfo;
1911:/home/simulink/cFS_FreeRTOS_seL4/cfe/fsw/cfe-core/src/es/cfe_es_api.c ****     uint32                 FoundExceptionTask = 0;
 3724               	.loc 2 1911 0
 3725 1e9a 42AF 0060 	clr.l 96(%sp)
1912:/home/simulink/cFS_FreeRTOS_seL4/cfe/fsw/cfe-core/src/es/cfe_es_api.c ****     uint32                 ExceptionTaskID = 0;
 3726               	.loc 2 1912 0
 3727 1e9e 42AF 005C 	clr.l 92(%sp)
1913:/home/simulink/cFS_FreeRTOS_seL4/cfe/fsw/cfe-core/src/es/cfe_es_api.c ****     
1914:/home/simulink/cFS_FreeRTOS_seL4/cfe/fsw/cfe-core/src/es/cfe_es_api.c ****     /*
1915:/home/simulink/cFS_FreeRTOS_seL4/cfe/fsw/cfe-core/src/es/cfe_es_api.c ****     ** If a loadable cFE Application caused the reset and it's
1916:/home/simulink/cFS_FreeRTOS_seL4/cfe/fsw/cfe-core/src/es/cfe_es_api.c ****     ** exception action is set to Restart the App rather than cause a
1917:/home/simulink/cFS_FreeRTOS_seL4/cfe/fsw/cfe-core/src/es/cfe_es_api.c ****     ** processor reset, then just reset the App.
1918:/home/simulink/cFS_FreeRTOS_seL4/cfe/fsw/cfe-core/src/es/cfe_es_api.c ****     */
1919:/home/simulink/cFS_FreeRTOS_seL4/cfe/fsw/cfe-core/src/es/cfe_es_api.c **** 
1920:/home/simulink/cFS_FreeRTOS_seL4/cfe/fsw/cfe-core/src/es/cfe_es_api.c ****     /*
1921:/home/simulink/cFS_FreeRTOS_seL4/cfe/fsw/cfe-core/src/es/cfe_es_api.c ****     ** We have the Host Task Id ( vxWorks, RTEMS, etc ). Search
1922:/home/simulink/cFS_FreeRTOS_seL4/cfe/fsw/cfe-core/src/es/cfe_es_api.c ****     ** the OSAPI to see if a match can be found.
1923:/home/simulink/cFS_FreeRTOS_seL4/cfe/fsw/cfe-core/src/es/cfe_es_api.c ****     */ 
1924:/home/simulink/cFS_FreeRTOS_seL4/cfe/fsw/cfe-core/src/es/cfe_es_api.c ****     for ( i = 0; i < OS_MAX_TASKS; i++ )
 3728               	.loc 2 1924 0
 3729 1ea2 42AF 0064 	clr.l 100(%sp)
 3730 1ea6 6072      	jra .L207
 3731               	.L210:
1925:/home/simulink/cFS_FreeRTOS_seL4/cfe/fsw/cfe-core/src/es/cfe_es_api.c ****     {
1926:/home/simulink/cFS_FreeRTOS_seL4/cfe/fsw/cfe-core/src/es/cfe_es_api.c ****        if (CFE_ES_Global.TaskTable[i].RecordUsed == TRUE)
 3732               	.loc 2 1926 0
 3733 1ea8 202F 0064 	move.l 100(%sp),%d0
 3734 1eac 5280      	addq.l #1,%d0
 3735 1eae 7224      	moveq #36,%d1
 3736 1eb0 4C01 0800 	muls.l %d1,%d0
 3737 1eb4 41F9 0000 	lea CFE_ES_Global,%a0
 3737      0000 
 3738 1eba 1030 0800 	move.b (%a0,%d0.l),%d0
 3739 1ebe 1000      	move.b %d0,%d0
 3740 1ec0 0280 0000 	and.l #255,%d0
 3740      00FF 
 3741 1ec6 7201      	moveq #1,%d1
 3742 1ec8 B280      	cmp.l %d0,%d1
 3743 1eca 664A      	jne .L208
1927:/home/simulink/cFS_FreeRTOS_seL4/cfe/fsw/cfe-core/src/es/cfe_es_api.c ****        {
1928:/home/simulink/cFS_FreeRTOS_seL4/cfe/fsw/cfe-core/src/es/cfe_es_api.c ****           ExceptionTaskID = CFE_ES_Global.TaskTable[i].TaskId;
 3744               	.loc 2 1928 0
 3745 1ecc 202F 0064 	move.l 100(%sp),%d0
 3746 1ed0 7224      	moveq #36,%d1
 3747 1ed2 4C01 0800 	muls.l %d1,%d0
 3748 1ed6 41F9 0000 	lea CFE_ES_Global+44,%a0
 3748      0000 
 3749 1edc 43F0 0800 	lea (%a0,%d0.l),%a1
 3750 1ee0 2F51 005C 	move.l (%a1),92(%sp)
1929:/home/simulink/cFS_FreeRTOS_seL4/cfe/fsw/cfe-core/src/es/cfe_es_api.c ****           Status = OS_TaskGetInfo (ExceptionTaskID, &TaskProp);
68K GAS   			page 123


 3751               	.loc 2 1929 0
 3752 1ee4 200F      	move.l %sp,%d0
 3753 1ee6 0680 0000 	add.l #52,%d0
 3753      0034 
 3754 1eec 2F00      	move.l %d0,-(%sp)
 3755               	.cfi_def_cfa_offset 112
 3756 1eee 2F2F 0060 	move.l 96(%sp),-(%sp)
 3757               	.cfi_def_cfa_offset 116
 3758 1ef2 4EB9 0000 	jsr OS_TaskGetInfo
 3758      0000 
 3759 1ef8 508F      	addq.l #8,%sp
 3760               	.cfi_def_cfa_offset 108
 3761 1efa 2F40 0058 	move.l %d0,88(%sp)
1930:/home/simulink/cFS_FreeRTOS_seL4/cfe/fsw/cfe-core/src/es/cfe_es_api.c **** 
1931:/home/simulink/cFS_FreeRTOS_seL4/cfe/fsw/cfe-core/src/es/cfe_es_api.c ****           if ( Status == OS_SUCCESS && TaskProp.OStask_id == HostTaskId )
 3762               	.loc 2 1931 0
 3763 1efe 4AAF 0058 	tst.l 88(%sp)
 3764 1f02 6612      	jne .L208
 3765               	.loc 2 1931 0 is_stmt 0 discriminator 1
 3766 1f04 202F 0054 	move.l 84(%sp),%d0
 3767 1f08 B0AF 006C 	cmp.l 108(%sp),%d0
 3768 1f0c 6608      	jne .L208
1932:/home/simulink/cFS_FreeRTOS_seL4/cfe/fsw/cfe-core/src/es/cfe_es_api.c ****           {
1933:/home/simulink/cFS_FreeRTOS_seL4/cfe/fsw/cfe-core/src/es/cfe_es_api.c ****              FoundExceptionTask = 1;
 3769               	.loc 2 1933 0 is_stmt 1
 3770 1f0e 7001      	moveq #1,%d0
 3771 1f10 2F40 0060 	move.l %d0,96(%sp)
1934:/home/simulink/cFS_FreeRTOS_seL4/cfe/fsw/cfe-core/src/es/cfe_es_api.c ****              break;
 3772               	.loc 2 1934 0
 3773 1f14 600C      	jra .L209
 3774               	.L208:
1924:/home/simulink/cFS_FreeRTOS_seL4/cfe/fsw/cfe-core/src/es/cfe_es_api.c ****     {
 3775               	.loc 2 1924 0 discriminator 2
 3776 1f16 52AF 0064 	addq.l #1,100(%sp)
 3777               	.L207:
1924:/home/simulink/cFS_FreeRTOS_seL4/cfe/fsw/cfe-core/src/es/cfe_es_api.c ****     {
 3778               	.loc 2 1924 0 is_stmt 0 discriminator 1
 3779 1f1a 723F      	moveq #63,%d1
 3780 1f1c B2AF 0064 	cmp.l 100(%sp),%d1
 3781 1f20 6486      	jcc .L210
 3782               	.L209:
1935:/home/simulink/cFS_FreeRTOS_seL4/cfe/fsw/cfe-core/src/es/cfe_es_api.c ****           }
1936:/home/simulink/cFS_FreeRTOS_seL4/cfe/fsw/cfe-core/src/es/cfe_es_api.c ****        }
1937:/home/simulink/cFS_FreeRTOS_seL4/cfe/fsw/cfe-core/src/es/cfe_es_api.c ****     }
1938:/home/simulink/cFS_FreeRTOS_seL4/cfe/fsw/cfe-core/src/es/cfe_es_api.c **** 
1939:/home/simulink/cFS_FreeRTOS_seL4/cfe/fsw/cfe-core/src/es/cfe_es_api.c ****     /*
1940:/home/simulink/cFS_FreeRTOS_seL4/cfe/fsw/cfe-core/src/es/cfe_es_api.c ****     ** If the Task is found in the OS, see if the cFE App ID associated with it can be found.
1941:/home/simulink/cFS_FreeRTOS_seL4/cfe/fsw/cfe-core/src/es/cfe_es_api.c ****     */
1942:/home/simulink/cFS_FreeRTOS_seL4/cfe/fsw/cfe-core/src/es/cfe_es_api.c ****     if ( FoundExceptionTask == 1 )
 3783               	.loc 2 1942 0 is_stmt 1
 3784 1f22 7001      	moveq #1,%d0
 3785 1f24 B0AF 0060 	cmp.l 96(%sp),%d0
 3786 1f28 6670      	jne .L211
1943:/home/simulink/cFS_FreeRTOS_seL4/cfe/fsw/cfe-core/src/es/cfe_es_api.c ****     {
1944:/home/simulink/cFS_FreeRTOS_seL4/cfe/fsw/cfe-core/src/es/cfe_es_api.c ****        Status = CFE_ES_GetTaskInfo( &EsTaskInfo, ExceptionTaskID );
 3787               	.loc 2 1944 0
 3788 1f2a 2F2F 005C 	move.l 92(%sp),-(%sp)
68K GAS   			page 124


 3789               	.cfi_def_cfa_offset 112
 3790 1f2e 200F      	move.l %sp,%d0
 3791 1f30 5880      	addq.l #4,%d0
 3792 1f32 2F00      	move.l %d0,-(%sp)
 3793               	.cfi_def_cfa_offset 116
 3794 1f34 4EB9 0000 	jsr CFE_ES_GetTaskInfo
 3794      0000 
 3795 1f3a 508F      	addq.l #8,%sp
 3796               	.cfi_def_cfa_offset 108
 3797 1f3c 2F40 0058 	move.l %d0,88(%sp)
1945:/home/simulink/cFS_FreeRTOS_seL4/cfe/fsw/cfe-core/src/es/cfe_es_api.c ****        /*
1946:/home/simulink/cFS_FreeRTOS_seL4/cfe/fsw/cfe-core/src/es/cfe_es_api.c ****        ** The App ID was found, now see if the ExceptionAction is set for a reset
1947:/home/simulink/cFS_FreeRTOS_seL4/cfe/fsw/cfe-core/src/es/cfe_es_api.c ****        */                                                                                          
1948:/home/simulink/cFS_FreeRTOS_seL4/cfe/fsw/cfe-core/src/es/cfe_es_api.c ****        if ( Status == CFE_SUCCESS )
 3798               	.loc 2 1948 0
 3799 1f40 4AAF 0058 	tst.l 88(%sp)
 3800 1f44 6654      	jne .L211
1949:/home/simulink/cFS_FreeRTOS_seL4/cfe/fsw/cfe-core/src/es/cfe_es_api.c ****        {
1950:/home/simulink/cFS_FreeRTOS_seL4/cfe/fsw/cfe-core/src/es/cfe_es_api.c ****           if ( CFE_ES_Global.AppTable[EsTaskInfo.AppId].StartParams.ExceptionAction == CFE_ES_APP_E
 3801               	.loc 2 1950 0
 3802 1f46 202F 001C 	move.l 28(%sp),%d0
 3803 1f4a 223C 0000 	move.l #168,%d1
 3803      00A8 
 3804 1f50 4C01 0800 	muls.l %d1,%d0
 3805 1f54 41F9 0000 	lea CFE_ES_Global+2472,%a0
 3805      0000 
 3806 1f5a 3030 0800 	move.w (%a0,%d0.l),%d0
 3807 1f5e 4A40      	tst.w %d0
 3808 1f60 6638      	jne .L211
1951:/home/simulink/cFS_FreeRTOS_seL4/cfe/fsw/cfe-core/src/es/cfe_es_api.c ****           {
1952:/home/simulink/cFS_FreeRTOS_seL4/cfe/fsw/cfe-core/src/es/cfe_es_api.c **** 
1953:/home/simulink/cFS_FreeRTOS_seL4/cfe/fsw/cfe-core/src/es/cfe_es_api.c ****              /*
1954:/home/simulink/cFS_FreeRTOS_seL4/cfe/fsw/cfe-core/src/es/cfe_es_api.c ****              ** Log the Application reset 
1955:/home/simulink/cFS_FreeRTOS_seL4/cfe/fsw/cfe-core/src/es/cfe_es_api.c ****              */
1956:/home/simulink/cFS_FreeRTOS_seL4/cfe/fsw/cfe-core/src/es/cfe_es_api.c ****              CFE_ES_WriteToERLog(CFE_ES_CORE_LOG_ENTRY, CFE_ES_APP_RESTART,
 3809               	.loc 2 1956 0
 3810 1f62 2F2F 0078 	move.l 120(%sp),-(%sp)
 3811               	.cfi_def_cfa_offset 112
 3812 1f66 2F2F 0078 	move.l 120(%sp),-(%sp)
 3813               	.cfi_def_cfa_offset 116
 3814 1f6a 2F2F 0078 	move.l 120(%sp),-(%sp)
 3815               	.cfi_def_cfa_offset 120
 3816 1f6e 4878 0006 	pea 6.w
 3817               	.cfi_def_cfa_offset 124
 3818 1f72 4878 0003 	pea 3.w
 3819               	.cfi_def_cfa_offset 128
 3820 1f76 4878 0001 	pea 1.w
 3821               	.cfi_def_cfa_offset 132
 3822 1f7a 4EB9 0000 	jsr CFE_ES_WriteToERLog
 3822      0000 
 3823 1f80 4FEF 0018 	lea (24,%sp),%sp
 3824               	.cfi_def_cfa_offset 108
1957:/home/simulink/cFS_FreeRTOS_seL4/cfe/fsw/cfe-core/src/es/cfe_es_api.c ****                             CFE_PSP_RST_SUBTYPE_EXCEPTION, (char *)ReasonString,
1958:/home/simulink/cFS_FreeRTOS_seL4/cfe/fsw/cfe-core/src/es/cfe_es_api.c ****                             ContextPointer, ContextSize );
1959:/home/simulink/cFS_FreeRTOS_seL4/cfe/fsw/cfe-core/src/es/cfe_es_api.c **** 
1960:/home/simulink/cFS_FreeRTOS_seL4/cfe/fsw/cfe-core/src/es/cfe_es_api.c ****              /*
1961:/home/simulink/cFS_FreeRTOS_seL4/cfe/fsw/cfe-core/src/es/cfe_es_api.c ****              ** Finally restart the App! This call is just a request
68K GAS   			page 125


1962:/home/simulink/cFS_FreeRTOS_seL4/cfe/fsw/cfe-core/src/es/cfe_es_api.c ****              ** to ES.
1963:/home/simulink/cFS_FreeRTOS_seL4/cfe/fsw/cfe-core/src/es/cfe_es_api.c ****              */ 
1964:/home/simulink/cFS_FreeRTOS_seL4/cfe/fsw/cfe-core/src/es/cfe_es_api.c ****              Status = CFE_ES_RestartApp(EsTaskInfo.AppId );
 3825               	.loc 2 1964 0
 3826 1f84 202F 001C 	move.l 28(%sp),%d0
 3827 1f88 2F00      	move.l %d0,-(%sp)
 3828               	.cfi_def_cfa_offset 112
 3829 1f8a 4EB9 0000 	jsr CFE_ES_RestartApp
 3829      0000 
 3830 1f90 588F      	addq.l #4,%sp
 3831               	.cfi_def_cfa_offset 108
 3832 1f92 2F40 0058 	move.l %d0,88(%sp)
 3833 1f96 6000 00B4 	jra .L206
 3834               	.L211:
1965:/home/simulink/cFS_FreeRTOS_seL4/cfe/fsw/cfe-core/src/es/cfe_es_api.c ****              
1966:/home/simulink/cFS_FreeRTOS_seL4/cfe/fsw/cfe-core/src/es/cfe_es_api.c ****              /*
1967:/home/simulink/cFS_FreeRTOS_seL4/cfe/fsw/cfe-core/src/es/cfe_es_api.c ****              ** Return to avoid the Processor Restart Logic
1968:/home/simulink/cFS_FreeRTOS_seL4/cfe/fsw/cfe-core/src/es/cfe_es_api.c ****              */
1969:/home/simulink/cFS_FreeRTOS_seL4/cfe/fsw/cfe-core/src/es/cfe_es_api.c ****              return;
1970:/home/simulink/cFS_FreeRTOS_seL4/cfe/fsw/cfe-core/src/es/cfe_es_api.c **** 
1971:/home/simulink/cFS_FreeRTOS_seL4/cfe/fsw/cfe-core/src/es/cfe_es_api.c ****           } /* end if ExceptionAction */
1972:/home/simulink/cFS_FreeRTOS_seL4/cfe/fsw/cfe-core/src/es/cfe_es_api.c ****                                                                                                    
1973:/home/simulink/cFS_FreeRTOS_seL4/cfe/fsw/cfe-core/src/es/cfe_es_api.c ****        } /* end if */
1974:/home/simulink/cFS_FreeRTOS_seL4/cfe/fsw/cfe-core/src/es/cfe_es_api.c ****                                                                                                    
1975:/home/simulink/cFS_FreeRTOS_seL4/cfe/fsw/cfe-core/src/es/cfe_es_api.c ****     } /* End if FoundExceptionTask */
1976:/home/simulink/cFS_FreeRTOS_seL4/cfe/fsw/cfe-core/src/es/cfe_es_api.c ****                                                                                                    
1977:/home/simulink/cFS_FreeRTOS_seL4/cfe/fsw/cfe-core/src/es/cfe_es_api.c ****     /*
1978:/home/simulink/cFS_FreeRTOS_seL4/cfe/fsw/cfe-core/src/es/cfe_es_api.c ****     ** If we made it here, which means that we need to do a processor reset
1979:/home/simulink/cFS_FreeRTOS_seL4/cfe/fsw/cfe-core/src/es/cfe_es_api.c ****     */
1980:/home/simulink/cFS_FreeRTOS_seL4/cfe/fsw/cfe-core/src/es/cfe_es_api.c **** 
1981:/home/simulink/cFS_FreeRTOS_seL4/cfe/fsw/cfe-core/src/es/cfe_es_api.c ****     /*
1982:/home/simulink/cFS_FreeRTOS_seL4/cfe/fsw/cfe-core/src/es/cfe_es_api.c ****     ** Before doing a Processor reset, check to see 
1983:/home/simulink/cFS_FreeRTOS_seL4/cfe/fsw/cfe-core/src/es/cfe_es_api.c ****     ** if the maximum number has been exceeded
1984:/home/simulink/cFS_FreeRTOS_seL4/cfe/fsw/cfe-core/src/es/cfe_es_api.c ****     */
1985:/home/simulink/cFS_FreeRTOS_seL4/cfe/fsw/cfe-core/src/es/cfe_es_api.c ****     if ( CFE_ES_ResetDataPtr->ResetVars.ProcessorResetCount >= 
 3835               	.loc 2 1985 0
 3836 1f9a 2079 0000 	move.l CFE_ES_ResetDataPtr,%a0
 3836      0000 
 3837 1fa0 203C 0001 	move.l #128468,%d0
 3837      F5D4 
 3838 1fa6 2230 0800 	move.l (%a0,%d0.l),%d1
1986:/home/simulink/cFS_FreeRTOS_seL4/cfe/fsw/cfe-core/src/es/cfe_es_api.c ****          CFE_ES_ResetDataPtr->ResetVars.MaxProcessorResetCount )
 3839               	.loc 2 1986 0
 3840 1faa 2079 0000 	move.l CFE_ES_ResetDataPtr,%a0
 3840      0000 
 3841 1fb0 203C 0001 	move.l #128472,%d0
 3841      F5D8 
 3842 1fb6 2030 0800 	move.l (%a0,%d0.l),%d0
1985:/home/simulink/cFS_FreeRTOS_seL4/cfe/fsw/cfe-core/src/es/cfe_es_api.c ****          CFE_ES_ResetDataPtr->ResetVars.MaxProcessorResetCount )
 3843               	.loc 2 1985 0
 3844 1fba B081      	cmp.l %d1,%d0
 3845 1fbc 6230      	jhi .L213
1987:/home/simulink/cFS_FreeRTOS_seL4/cfe/fsw/cfe-core/src/es/cfe_es_api.c ****     {
1988:/home/simulink/cFS_FreeRTOS_seL4/cfe/fsw/cfe-core/src/es/cfe_es_api.c ****         /*
1989:/home/simulink/cFS_FreeRTOS_seL4/cfe/fsw/cfe-core/src/es/cfe_es_api.c ****         ** Log the reset in the ER Log. The log will be wiped out, but it's good to have
1990:/home/simulink/cFS_FreeRTOS_seL4/cfe/fsw/cfe-core/src/es/cfe_es_api.c ****         ** the entry just in case something fails.
1991:/home/simulink/cFS_FreeRTOS_seL4/cfe/fsw/cfe-core/src/es/cfe_es_api.c ****         */
68K GAS   			page 126


1992:/home/simulink/cFS_FreeRTOS_seL4/cfe/fsw/cfe-core/src/es/cfe_es_api.c ****         CFE_ES_WriteToERLog(CFE_ES_CORE_LOG_ENTRY,  CFE_PSP_RST_TYPE_POWERON, 
 3846               	.loc 2 1992 0
 3847 1fbe 2F2F 0078 	move.l 120(%sp),-(%sp)
 3848               	.cfi_def_cfa_offset 112
 3849 1fc2 2F2F 0078 	move.l 120(%sp),-(%sp)
 3850               	.cfi_def_cfa_offset 116
 3851 1fc6 2F2F 0078 	move.l 120(%sp),-(%sp)
 3852               	.cfi_def_cfa_offset 120
 3853 1fca 4878 0006 	pea 6.w
 3854               	.cfi_def_cfa_offset 124
 3855 1fce 4878 0002 	pea 2.w
 3856               	.cfi_def_cfa_offset 128
 3857 1fd2 4878 0001 	pea 1.w
 3858               	.cfi_def_cfa_offset 132
 3859 1fd6 4EB9 0000 	jsr CFE_ES_WriteToERLog
 3859      0000 
 3860 1fdc 4FEF 0018 	lea (24,%sp),%sp
 3861               	.cfi_def_cfa_offset 108
1993:/home/simulink/cFS_FreeRTOS_seL4/cfe/fsw/cfe-core/src/es/cfe_es_api.c ****                             CFE_PSP_RST_SUBTYPE_EXCEPTION, (char *)ReasonString,
1994:/home/simulink/cFS_FreeRTOS_seL4/cfe/fsw/cfe-core/src/es/cfe_es_api.c ****                             ContextPointer, ContextSize );
1995:/home/simulink/cFS_FreeRTOS_seL4/cfe/fsw/cfe-core/src/es/cfe_es_api.c **** 
1996:/home/simulink/cFS_FreeRTOS_seL4/cfe/fsw/cfe-core/src/es/cfe_es_api.c ****         /*
1997:/home/simulink/cFS_FreeRTOS_seL4/cfe/fsw/cfe-core/src/es/cfe_es_api.c ****         ** Call the BSP reset routine to do a Poweron Reset 
1998:/home/simulink/cFS_FreeRTOS_seL4/cfe/fsw/cfe-core/src/es/cfe_es_api.c ****         */
1999:/home/simulink/cFS_FreeRTOS_seL4/cfe/fsw/cfe-core/src/es/cfe_es_api.c ****         CFE_PSP_Restart(CFE_PSP_RST_TYPE_POWERON);
 3862               	.loc 2 1999 0
 3863 1fe0 4878 0002 	pea 2.w
 3864               	.cfi_def_cfa_offset 112
 3865 1fe4 4EB9 0000 	jsr CFE_PSP_Restart
 3865      0000 
 3866 1fea 588F      	addq.l #4,%sp
 3867               	.cfi_def_cfa_offset 108
 3868 1fec 605E      	jra .L206
 3869               	.L213:
2000:/home/simulink/cFS_FreeRTOS_seL4/cfe/fsw/cfe-core/src/es/cfe_es_api.c **** 
2001:/home/simulink/cFS_FreeRTOS_seL4/cfe/fsw/cfe-core/src/es/cfe_es_api.c ****     }
2002:/home/simulink/cFS_FreeRTOS_seL4/cfe/fsw/cfe-core/src/es/cfe_es_api.c ****     else /* Do a processor reset */
2003:/home/simulink/cFS_FreeRTOS_seL4/cfe/fsw/cfe-core/src/es/cfe_es_api.c ****     {
2004:/home/simulink/cFS_FreeRTOS_seL4/cfe/fsw/cfe-core/src/es/cfe_es_api.c ****         /*
2005:/home/simulink/cFS_FreeRTOS_seL4/cfe/fsw/cfe-core/src/es/cfe_es_api.c ****         ** Update the reset variables
2006:/home/simulink/cFS_FreeRTOS_seL4/cfe/fsw/cfe-core/src/es/cfe_es_api.c ****         */
2007:/home/simulink/cFS_FreeRTOS_seL4/cfe/fsw/cfe-core/src/es/cfe_es_api.c ****         CFE_ES_ResetDataPtr->ResetVars.ProcessorResetCount++;
 3870               	.loc 2 2007 0
 3871 1fee 2079 0000 	move.l CFE_ES_ResetDataPtr,%a0
 3871      0000 
 3872 1ff4 203C 0001 	move.l #128468,%d0
 3872      F5D4 
 3873 1ffa 2030 0800 	move.l (%a0,%d0.l),%d0
 3874 1ffe 2200      	move.l %d0,%d1
 3875 2000 5281      	addq.l #1,%d1
 3876 2002 203C 0001 	move.l #128468,%d0
 3876      F5D4 
 3877 2008 2181 0800 	move.l %d1,(%a0,%d0.l)
2008:/home/simulink/cFS_FreeRTOS_seL4/cfe/fsw/cfe-core/src/es/cfe_es_api.c ****         CFE_ES_ResetDataPtr->ResetVars.ES_CausedReset = TRUE;
 3878               	.loc 2 2008 0
 3879 200c 2079 0000 	move.l CFE_ES_ResetDataPtr,%a0
 3879      0000 
68K GAS   			page 127


 3880 2012 203C 0001 	move.l #128464,%d0
 3880      F5D0 
 3881 2018 7201      	moveq #1,%d1
 3882 201a 2181 0800 	move.l %d1,(%a0,%d0.l)
2009:/home/simulink/cFS_FreeRTOS_seL4/cfe/fsw/cfe-core/src/es/cfe_es_api.c **** 
2010:/home/simulink/cFS_FreeRTOS_seL4/cfe/fsw/cfe-core/src/es/cfe_es_api.c ****         /*
2011:/home/simulink/cFS_FreeRTOS_seL4/cfe/fsw/cfe-core/src/es/cfe_es_api.c ****         ** Log the reset in the ER Log
2012:/home/simulink/cFS_FreeRTOS_seL4/cfe/fsw/cfe-core/src/es/cfe_es_api.c ****         */
2013:/home/simulink/cFS_FreeRTOS_seL4/cfe/fsw/cfe-core/src/es/cfe_es_api.c ****         CFE_ES_WriteToERLog(CFE_ES_CORE_LOG_ENTRY, CFE_PSP_RST_TYPE_PROCESSOR, 
 3883               	.loc 2 2013 0
 3884 201e 2F2F 0078 	move.l 120(%sp),-(%sp)
 3885               	.cfi_def_cfa_offset 112
 3886 2022 2F2F 0078 	move.l 120(%sp),-(%sp)
 3887               	.cfi_def_cfa_offset 116
 3888 2026 2F2F 0078 	move.l 120(%sp),-(%sp)
 3889               	.cfi_def_cfa_offset 120
 3890 202a 4878 0006 	pea 6.w
 3891               	.cfi_def_cfa_offset 124
 3892 202e 4878 0001 	pea 1.w
 3893               	.cfi_def_cfa_offset 128
 3894 2032 4878 0001 	pea 1.w
 3895               	.cfi_def_cfa_offset 132
 3896 2036 4EB9 0000 	jsr CFE_ES_WriteToERLog
 3896      0000 
 3897 203c 4FEF 0018 	lea (24,%sp),%sp
 3898               	.cfi_def_cfa_offset 108
2014:/home/simulink/cFS_FreeRTOS_seL4/cfe/fsw/cfe-core/src/es/cfe_es_api.c ****                             CFE_PSP_RST_SUBTYPE_EXCEPTION, (char *)ReasonString,
2015:/home/simulink/cFS_FreeRTOS_seL4/cfe/fsw/cfe-core/src/es/cfe_es_api.c ****                             ContextPointer, ContextSize );
2016:/home/simulink/cFS_FreeRTOS_seL4/cfe/fsw/cfe-core/src/es/cfe_es_api.c **** 
2017:/home/simulink/cFS_FreeRTOS_seL4/cfe/fsw/cfe-core/src/es/cfe_es_api.c ****         /*
2018:/home/simulink/cFS_FreeRTOS_seL4/cfe/fsw/cfe-core/src/es/cfe_es_api.c ****         ** Need to do a processor reset
2019:/home/simulink/cFS_FreeRTOS_seL4/cfe/fsw/cfe-core/src/es/cfe_es_api.c ****         */   
2020:/home/simulink/cFS_FreeRTOS_seL4/cfe/fsw/cfe-core/src/es/cfe_es_api.c ****         CFE_PSP_Restart(CFE_PSP_RST_TYPE_PROCESSOR);
 3899               	.loc 2 2020 0
 3900 2040 4878 0001 	pea 1.w
 3901               	.cfi_def_cfa_offset 112
 3902 2044 4EB9 0000 	jsr CFE_PSP_Restart
 3902      0000 
 3903 204a 588F      	addq.l #4,%sp
 3904               	.cfi_def_cfa_offset 108
 3905               	.L206:
2021:/home/simulink/cFS_FreeRTOS_seL4/cfe/fsw/cfe-core/src/es/cfe_es_api.c **** 
2022:/home/simulink/cFS_FreeRTOS_seL4/cfe/fsw/cfe-core/src/es/cfe_es_api.c ****     } /* end if */
2023:/home/simulink/cFS_FreeRTOS_seL4/cfe/fsw/cfe-core/src/es/cfe_es_api.c ****            
2024:/home/simulink/cFS_FreeRTOS_seL4/cfe/fsw/cfe-core/src/es/cfe_es_api.c **** } /* End of CFE_ES_ProcessCoreException */
 3906               	.loc 2 2024 0
 3907 204c 4FEF 0068 	lea (104,%sp),%sp
 3908 2050 4E75      	rts
 3909               	.cfi_endproc
 3910               	.LFE92:
 3911               	.sizeCFE_ES_ProcessCoreException, .-CFE_ES_ProcessCoreException
 3912               	.section.rodata
 3913               	.type__func__.5770, @object
 3914               	.size__func__.5770, 18
 3915               	__func__.5770:
 3916 0c01 4346 455F 	.string"CFE_ES_RestartApp"
 3916      4553 5F52 
68K GAS   			page 128


 3916      6573 7461 
 3916      7274 4170 
 3916      7000 
 3917               	.type__func__.5776, @object
 3918               	.size__func__.5776, 17
 3919               	__func__.5776:
 3920 0c13 4346 455F 	.string"CFE_ES_ReloadApp"
 3920      4553 5F52 
 3920      656C 6F61 
 3920      6441 7070 
 3920      00
 3921               	.type__func__.5781, @object
 3922               	.size__func__.5781, 17
 3923               	__func__.5781:
 3924 0c24 4346 455F 	.string"CFE_ES_DeleteApp"
 3924      4553 5F44 
 3924      656C 6574 
 3924      6541 7070 
 3924      00
 3925               	.type__func__.5787, @object
 3926               	.size__func__.5787, 15
 3927               	__func__.5787:
 3928 0c35 4346 455F 	.string"CFE_ES_ExitApp"
 3928      4553 5F45 
 3928      7869 7441 
 3928      7070 00
 3929               	.type__func__.5795, @object
 3930               	.size__func__.5795, 15
 3931               	__func__.5795:
 3932 0c44 4346 455F 	.string"CFE_ES_RunLoop"
 3932      4553 5F52 
 3932      756E 4C6F 
 3932      6F70 00
 3933               	.type__func__.5802, @object
 3934               	.size__func__.5802, 26
 3935               	__func__.5802:
 3936 0c53 4346 455F 	.string"CFE_ES_WaitForStartupSync"
 3936      4553 5F57 
 3936      6169 7446 
 3936      6F72 5374 
 3936      6172 7475 
 3937               	.type__func__.5807, @object
 3938               	.size__func__.5807, 19
 3939               	__func__.5807:
 3940 0c6d 4346 455F 	.string"CFE_ES_RegisterApp"
 3940      4553 5F52 
 3940      6567 6973 
 3940      7465 7241 
 3940      7070 00
 3941               	.type__func__.5814, @object
 3942               	.size__func__.5814, 22
 3943               	__func__.5814:
 3944 0c80 4346 455F 	.string"CFE_ES_GetAppIDByName"
 3944      4553 5F47 
 3944      6574 4170 
 3944      7049 4442 
 3944      794E 616D 
68K GAS   			page 129


 3945               	.type__func__.5823, @object
 3946               	.size__func__.5823, 16
 3947               	__func__.5823:
 3948 0c96 4346 455F 	.string"CFE_ES_GetAppID"
 3948      4553 5F47 
 3948      6574 4170 
 3948      7049 4400 
 3949               	.type__func__.5830, @object
 3950               	.size__func__.5830, 18
 3951               	__func__.5830:
 3952 0ca6 4346 455F 	.string"CFE_ES_GetAppName"
 3952      4553 5F47 
 3952      6574 4170 
 3952      704E 616D 
 3952      6500 
 3953               	.type__func__.5842, @object
 3954               	.size__func__.5842, 19
 3955               	__func__.5842:
 3956 0cb8 4346 455F 	.string"CFE_ES_GetTaskInfo"
 3956      4553 5F47 
 3956      6574 5461 
 3956      736B 496E 
 3956      666F 00
 3957               	.type__func__.5857, @object
 3958               	.size__func__.5857, 23
 3959               	__func__.5857:
 3960 0ccb 4346 455F 	.string"CFE_ES_CreateChildTask"
 3960      4553 5F43 
 3960      7265 6174 
 3960      6543 6869 
 3960      6C64 5461 
 3961               	.type__func__.5863, @object
 3962               	.size__func__.5863, 25
 3963               	__func__.5863:
 3964 0ce2 4346 455F 	.string"CFE_ES_RegisterChildTask"
 3964      4553 5F52 
 3964      6567 6973 
 3964      7465 7243 
 3964      6869 6C64 
 3965               	.type__func__.5876, @object
 3966               	.size__func__.5876, 23
 3967               	__func__.5876:
 3968 0cfb 4346 455F 	.string"CFE_ES_DeleteChildTask"
 3968      4553 5F44 
 3968      656C 6574 
 3968      6543 6869 
 3968      6C64 5461 
 3969               	.type__func__.5887, @object
 3970               	.size__func__.5887, 21
 3971               	__func__.5887:
 3972 0d12 4346 455F 	.string"CFE_ES_ExitChildTask"
 3972      4553 5F45 
 3972      7869 7443 
 3972      6869 6C64 
 3972      5461 736B 
 3973 0d27 00        	.align2
 3974               	.typeCrcTable.5913, @object
68K GAS   			page 130


 3975               	.sizeCrcTable.5913, 512
 3976               	CrcTable.5913:
 3977 0d28 0000      	.word0
 3978 0d2a C0C1      	.word-16191
 3979 0d2c C181      	.word-15999
 3980 0d2e 0140      	.word320
 3981 0d30 C301      	.word-15615
 3982 0d32 03C0      	.word960
 3983 0d34 0280      	.word640
 3984 0d36 C241      	.word-15807
 3985 0d38 C601      	.word-14847
 3986 0d3a 06C0      	.word1728
 3987 0d3c 0780      	.word1920
 3988 0d3e C741      	.word-14527
 3989 0d40 0500      	.word1280
 3990 0d42 C5C1      	.word-14911
 3991 0d44 C481      	.word-15231
 3992 0d46 0440      	.word1088
 3993 0d48 CC01      	.word-13311
 3994 0d4a 0CC0      	.word3264
 3995 0d4c 0D80      	.word3456
 3996 0d4e CD41      	.word-12991
 3997 0d50 0F00      	.word3840
 3998 0d52 CFC1      	.word-12351
 3999 0d54 CE81      	.word-12671
 4000 0d56 0E40      	.word3648
 4001 0d58 0A00      	.word2560
 4002 0d5a CAC1      	.word-13631
 4003 0d5c CB81      	.word-13439
 4004 0d5e 0B40      	.word2880
 4005 0d60 C901      	.word-14079
 4006 0d62 09C0      	.word2496
 4007 0d64 0880      	.word2176
 4008 0d66 C841      	.word-14271
 4009 0d68 D801      	.word-10239
 4010 0d6a 18C0      	.word6336
 4011 0d6c 1980      	.word6528
 4012 0d6e D941      	.word-9919
 4013 0d70 1B00      	.word6912
 4014 0d72 DBC1      	.word-9279
 4015 0d74 DA81      	.word-9599
 4016 0d76 1A40      	.word6720
 4017 0d78 1E00      	.word7680
 4018 0d7a DEC1      	.word-8511
 4019 0d7c DF81      	.word-8319
 4020 0d7e 1F40      	.word8000
 4021 0d80 DD01      	.word-8959
 4022 0d82 1DC0      	.word7616
 4023 0d84 1C80      	.word7296
 4024 0d86 DC41      	.word-9151
 4025 0d88 1400      	.word5120
 4026 0d8a D4C1      	.word-11071
 4027 0d8c D581      	.word-10879
 4028 0d8e 1540      	.word5440
 4029 0d90 D701      	.word-10495
 4030 0d92 17C0      	.word6080
 4031 0d94 1680      	.word5760
68K GAS   			page 131


 4032 0d96 D641      	.word-10687
 4033 0d98 D201      	.word-11775
 4034 0d9a 12C0      	.word4800
 4035 0d9c 1380      	.word4992
 4036 0d9e D341      	.word-11455
 4037 0da0 1100      	.word4352
 4038 0da2 D1C1      	.word-11839
 4039 0da4 D081      	.word-12159
 4040 0da6 1040      	.word4160
 4041 0da8 F001      	.word-4095
 4042 0daa 30C0      	.word12480
 4043 0dac 3180      	.word12672
 4044 0dae F141      	.word-3775
 4045 0db0 3300      	.word13056
 4046 0db2 F3C1      	.word-3135
 4047 0db4 F281      	.word-3455
 4048 0db6 3240      	.word12864
 4049 0db8 3600      	.word13824
 4050 0dba F6C1      	.word-2367
 4051 0dbc F781      	.word-2175
 4052 0dbe 3740      	.word14144
 4053 0dc0 F501      	.word-2815
 4054 0dc2 35C0      	.word13760
 4055 0dc4 3480      	.word13440
 4056 0dc6 F441      	.word-3007
 4057 0dc8 3C00      	.word15360
 4058 0dca FCC1      	.word-831
 4059 0dcc FD81      	.word-639
 4060 0dce 3D40      	.word15680
 4061 0dd0 FF01      	.word-255
 4062 0dd2 3FC0      	.word16320
 4063 0dd4 3E80      	.word16000
 4064 0dd6 FE41      	.word-447
 4065 0dd8 FA01      	.word-1535
 4066 0dda 3AC0      	.word15040
 4067 0ddc 3B80      	.word15232
 4068 0dde FB41      	.word-1215
 4069 0de0 3900      	.word14592
 4070 0de2 F9C1      	.word-1599
 4071 0de4 F881      	.word-1919
 4072 0de6 3840      	.word14400
 4073 0de8 2800      	.word10240
 4074 0dea E8C1      	.word-5951
 4075 0dec E981      	.word-5759
 4076 0dee 2940      	.word10560
 4077 0df0 EB01      	.word-5375
 4078 0df2 2BC0      	.word11200
 4079 0df4 2A80      	.word10880
 4080 0df6 EA41      	.word-5567
 4081 0df8 EE01      	.word-4607
 4082 0dfa 2EC0      	.word11968
 4083 0dfc 2F80      	.word12160
 4084 0dfe EF41      	.word-4287
 4085 0e00 2D00      	.word11520
 4086 0e02 EDC1      	.word-4671
 4087 0e04 EC81      	.word-4991
 4088 0e06 2C40      	.word11328
68K GAS   			page 132


 4089 0e08 E401      	.word-7167
 4090 0e0a 24C0      	.word9408
 4091 0e0c 2580      	.word9600
 4092 0e0e E541      	.word-6847
 4093 0e10 2700      	.word9984
 4094 0e12 E7C1      	.word-6207
 4095 0e14 E681      	.word-6527
 4096 0e16 2640      	.word9792
 4097 0e18 2200      	.word8704
 4098 0e1a E2C1      	.word-7487
 4099 0e1c E381      	.word-7295
 4100 0e1e 2340      	.word9024
 4101 0e20 E101      	.word-7935
 4102 0e22 21C0      	.word8640
 4103 0e24 2080      	.word8320
 4104 0e26 E041      	.word-8127
 4105 0e28 A001      	.word-24575
 4106 0e2a 60C0      	.word24768
 4107 0e2c 6180      	.word24960
 4108 0e2e A141      	.word-24255
 4109 0e30 6300      	.word25344
 4110 0e32 A3C1      	.word-23615
 4111 0e34 A281      	.word-23935
 4112 0e36 6240      	.word25152
 4113 0e38 6600      	.word26112
 4114 0e3a A6C1      	.word-22847
 4115 0e3c A781      	.word-22655
 4116 0e3e 6740      	.word26432
 4117 0e40 A501      	.word-23295
 4118 0e42 65C0      	.word26048
 4119 0e44 6480      	.word25728
 4120 0e46 A441      	.word-23487
 4121 0e48 6C00      	.word27648
 4122 0e4a ACC1      	.word-21311
 4123 0e4c AD81      	.word-21119
 4124 0e4e 6D40      	.word27968
 4125 0e50 AF01      	.word-20735
 4126 0e52 6FC0      	.word28608
 4127 0e54 6E80      	.word28288
 4128 0e56 AE41      	.word-20927
 4129 0e58 AA01      	.word-22015
 4130 0e5a 6AC0      	.word27328
 4131 0e5c 6B80      	.word27520
 4132 0e5e AB41      	.word-21695
 4133 0e60 6900      	.word26880
 4134 0e62 A9C1      	.word-22079
 4135 0e64 A881      	.word-22399
 4136 0e66 6840      	.word26688
 4137 0e68 7800      	.word30720
 4138 0e6a B8C1      	.word-18239
 4139 0e6c B981      	.word-18047
 4140 0e6e 7940      	.word31040
 4141 0e70 BB01      	.word-17663
 4142 0e72 7BC0      	.word31680
 4143 0e74 7A80      	.word31360
 4144 0e76 BA41      	.word-17855
 4145 0e78 BE01      	.word-16895
68K GAS   			page 133


 4146 0e7a 7EC0      	.word32448
 4147 0e7c 7F80      	.word32640
 4148 0e7e BF41      	.word-16575
 4149 0e80 7D00      	.word32000
 4150 0e82 BDC1      	.word-16959
 4151 0e84 BC81      	.word-17279
 4152 0e86 7C40      	.word31808
 4153 0e88 B401      	.word-19455
 4154 0e8a 74C0      	.word29888
 4155 0e8c 7580      	.word30080
 4156 0e8e B541      	.word-19135
 4157 0e90 7700      	.word30464
 4158 0e92 B7C1      	.word-18495
 4159 0e94 B681      	.word-18815
 4160 0e96 7640      	.word30272
 4161 0e98 7200      	.word29184
 4162 0e9a B2C1      	.word-19775
 4163 0e9c B381      	.word-19583
 4164 0e9e 7340      	.word29504
 4165 0ea0 B101      	.word-20223
 4166 0ea2 71C0      	.word29120
 4167 0ea4 7080      	.word28800
 4168 0ea6 B041      	.word-20415
 4169 0ea8 5000      	.word20480
 4170 0eaa 90C1      	.word-28479
 4171 0eac 9181      	.word-28287
 4172 0eae 5140      	.word20800
 4173 0eb0 9301      	.word-27903
 4174 0eb2 53C0      	.word21440
 4175 0eb4 5280      	.word21120
 4176 0eb6 9241      	.word-28095
 4177 0eb8 9601      	.word-27135
 4178 0eba 56C0      	.word22208
 4179 0ebc 5780      	.word22400
 4180 0ebe 9741      	.word-26815
 4181 0ec0 5500      	.word21760
 4182 0ec2 95C1      	.word-27199
 4183 0ec4 9481      	.word-27519
 4184 0ec6 5440      	.word21568
 4185 0ec8 9C01      	.word-25599
 4186 0eca 5CC0      	.word23744
 4187 0ecc 5D80      	.word23936
 4188 0ece 9D41      	.word-25279
 4189 0ed0 5F00      	.word24320
 4190 0ed2 9FC1      	.word-24639
 4191 0ed4 9E81      	.word-24959
 4192 0ed6 5E40      	.word24128
 4193 0ed8 5A00      	.word23040
 4194 0eda 9AC1      	.word-25919
 4195 0edc 9B81      	.word-25727
 4196 0ede 5B40      	.word23360
 4197 0ee0 9901      	.word-26367
 4198 0ee2 59C0      	.word22976
 4199 0ee4 5880      	.word22656
 4200 0ee6 9841      	.word-26559
 4201 0ee8 8801      	.word-30719
 4202 0eea 48C0      	.word18624
68K GAS   			page 134


 4203 0eec 4980      	.word18816
 4204 0eee 8941      	.word-30399
 4205 0ef0 4B00      	.word19200
 4206 0ef2 8BC1      	.word-29759
 4207 0ef4 8A81      	.word-30079
 4208 0ef6 4A40      	.word19008
 4209 0ef8 4E00      	.word19968
 4210 0efa 8EC1      	.word-28991
 4211 0efc 8F81      	.word-28799
 4212 0efe 4F40      	.word20288
 4213 0f00 8D01      	.word-29439
 4214 0f02 4DC0      	.word19904
 4215 0f04 4C80      	.word19584
 4216 0f06 8C41      	.word-29631
 4217 0f08 4400      	.word17408
 4218 0f0a 84C1      	.word-31551
 4219 0f0c 8581      	.word-31359
 4220 0f0e 4540      	.word17728
 4221 0f10 8701      	.word-30975
 4222 0f12 47C0      	.word18368
 4223 0f14 4680      	.word18048
 4224 0f16 8641      	.word-31167
 4225 0f18 8201      	.word-32255
 4226 0f1a 42C0      	.word17088
 4227 0f1c 4380      	.word17280
 4228 0f1e 8341      	.word-31935
 4229 0f20 4100      	.word16640
 4230 0f22 81C1      	.word-32319
 4231 0f24 8081      	.word-32639
 4232 0f26 4040      	.word16448
 4233               	.text
 4234               	.Letext0:
 4235               	.file 3 "/home/simulink/cFS_FreeRTOS_seL4/osal/src/os/inc/common_types.h"
 4236               	.file 4 "/home/simulink/development/rtems/5/lib/gcc/m68k-rtems5/7.3.0/include/stdarg.h"
 4237               	.file 5 "/home/simulink/cFS_FreeRTOS_seL4/osal/src/os/inc/osapi-os-core.h"
 4238               	.file 6 "/home/simulink/development/rtems/5/m68k-rtems5/include/machine/_default_types.h"
 4239               	.file 7 "/home/simulink/development/rtems/5/lib/gcc/m68k-rtems5/7.3.0/include/stddef.h"
 4240               	.file 8 "/home/simulink/development/rtems/5/m68k-rtems5/include/machine/_types.h"
 4241               	.file 9 "/home/simulink/development/rtems/5/m68k-rtems5/include/sys/lock.h"
 4242               	.file 10 "/home/simulink/development/rtems/5/m68k-rtems5/include/sys/_types.h"
 4243               	.file 11 "/home/simulink/development/rtems/5/m68k-rtems5/include/sys/reent.h"
 4244               	.file 12 "/home/simulink/development/rtems/5/m68k-rtems5/include/stdlib.h"
 4245               	.file 13 "/home/simulink/development/rtems/5/m68k-rtems5/include/time.h"
 4246               	.file 14 "/home/simulink/cFS_FreeRTOS_seL4/cfe/fsw/cfe-core/src/inc/cfe_time.h"
 4247               	.file 15 "/home/simulink/cFS_FreeRTOS_seL4/cfe/fsw/cfe-core/src/inc/cfe_sb.h"
 4248               	.file 16 "/home/simulink/cFS_FreeRTOS_seL4/cfe/fsw/cfe-core/src/inc/cfe_evs_msg.h"
 4249               	.file 17 "/home/simulink/cFS_FreeRTOS_seL4/cfe/fsw/cfe-core/src/es/cfe_es_apps.h"
 4250               	.file 18 "/home/simulink/cFS_FreeRTOS_seL4/cfe/fsw/cfe-core/src/inc/private/cfe_es_erlog_typedef.h"
 4251               	.file 19 "/home/simulink/cFS_FreeRTOS_seL4/cfe/fsw/cfe-core/src/inc/private/cfe_es_perfdata_typedef.h"
 4252               	.file 20 "/home/simulink/cFS_FreeRTOS_seL4/cfe/fsw/cfe-core/src/inc/private/cfe_evs_log_typedef.h"
 4253               	.file 21 "/home/simulink/cFS_FreeRTOS_seL4/cfe/fsw/cfe-core/src/inc/private/cfe_es_resetdata_typedef.h"
 4254               	.file 22 "/home/simulink/cFS_FreeRTOS_seL4/cfe/fsw/cfe-core/src/es/cfe_es_cds_mempool.h"
 4255               	.file 23 "/home/simulink/cFS_FreeRTOS_seL4/cfe/fsw/cfe-core/src/es/cfe_es_cds.h"
 4256               	.file 24 "/home/simulink/cFS_FreeRTOS_seL4/cfe/fsw/cfe-core/src/es/cfe_es_perf.h"
 4257               	.file 25 "/home/simulink/cFS_FreeRTOS_seL4/cfe/fsw/cfe-core/src/es/cfe_es_global.h"
 4258               	.section.debug_info,"",@progbits
 4259               	.Ldebug_info0:
68K GAS   			page 135


 4260 0000 0000 2520 	.long0x2520
 4261 0004 0004      	.word0x4
 4262 0006 0000 0000 	.long.Ldebug_abbrev0
 4263 000a 04        	.byte0x4
 4264 000b 01        	.uleb128 0x1
 4265 000c 0000 0000 	.long.LASF439
 4266 0010 0C        	.byte0xc
 4267 0011 0000 0000 	.long.LASF440
 4268 0015 0000 0000 	.long.LASF441
 4269 0019 0000 0000 	.long.Ltext0
 4270 001d 0000 2052 	.long.Letext0-.Ltext0
 4271 0021 0000 0000 	.long.Ldebug_line0
 4272 0025 02        	.uleb128 0x2
 4273 0026 0000 0000 	.long.LASF2
 4274 002a 03        	.byte0x3
 4275 002b E6        	.byte0xe6
 4276 002c 0000 0030 	.long0x30
 4277 0030 03        	.uleb128 0x3
 4278 0031 01        	.byte0x1
 4279 0032 08        	.byte0x8
 4280 0033 0000 0000 	.long.LASF0
 4281 0037 03        	.uleb128 0x3
 4282 0038 01        	.byte0x1
 4283 0039 06        	.byte0x6
 4284 003a 0000 0000 	.long.LASF1
 4285 003e 02        	.uleb128 0x2
 4286 003f 0000 0000 	.long.LASF3
 4287 0043 03        	.byte0x3
 4288 0044 E8        	.byte0xe8
 4289 0045 0000 0049 	.long0x49
 4290 0049 03        	.uleb128 0x3
 4291 004a 02        	.byte0x2
 4292 004b 05        	.byte0x5
 4293 004c 0000 0000 	.long.LASF4
 4294 0050 02        	.uleb128 0x2
 4295 0051 0000 0000 	.long.LASF5
 4296 0055 03        	.byte0x3
 4297 0056 E9        	.byte0xe9
 4298 0057 0000 005B 	.long0x5b
 4299 005b 03        	.uleb128 0x3
 4300 005c 04        	.byte0x4
 4301 005d 05        	.byte0x5
 4302 005e 0000 0000 	.long.LASF6
 4303 0062 03        	.uleb128 0x3
 4304 0063 08        	.byte0x8
 4305 0064 05        	.byte0x5
 4306 0065 0000 0000 	.long.LASF7
 4307 0069 02        	.uleb128 0x2
 4308 006a 0000 0000 	.long.LASF8
 4309 006e 03        	.byte0x3
 4310 006f EB        	.byte0xeb
 4311 0070 0000 0030 	.long0x30
 4312 0074 04        	.uleb128 0x4
 4313 0075 0000 0069 	.long0x69
 4314 0079 02        	.uleb128 0x2
 4315 007a 0000 0000 	.long.LASF9
 4316 007e 03        	.byte0x3
68K GAS   			page 136


 4317 007f EC        	.byte0xec
 4318 0080 0000 0089 	.long0x89
 4319 0084 04        	.uleb128 0x4
 4320 0085 0000 0079 	.long0x79
 4321 0089 03        	.uleb128 0x3
 4322 008a 02        	.byte0x2
 4323 008b 07        	.byte0x7
 4324 008c 0000 0000 	.long.LASF10
 4325 0090 02        	.uleb128 0x2
 4326 0091 0000 0000 	.long.LASF11
 4327 0095 03        	.byte0x3
 4328 0096 ED        	.byte0xed
 4329 0097 0000 00A0 	.long0xa0
 4330 009b 04        	.uleb128 0x4
 4331 009c 0000 0090 	.long0x90
 4332 00a0 03        	.uleb128 0x3
 4333 00a1 04        	.byte0x4
 4334 00a2 07        	.byte0x7
 4335 00a3 0000 0000 	.long.LASF12
 4336 00a7 03        	.uleb128 0x3
 4337 00a8 08        	.byte0x8
 4338 00a9 07        	.byte0x7
 4339 00aa 0000 0000 	.long.LASF13
 4340 00ae 02        	.uleb128 0x2
 4341 00af 0000 0000 	.long.LASF14
 4342 00b3 03        	.byte0x3
 4343 00b4 F0        	.byte0xf0
 4344 00b5 0000 00A0 	.long0xa0
 4345 00b9 05        	.uleb128 0x5
 4346 00ba 0000 0000 	.long.LASF15
 4347 00be 03        	.byte0x3
 4348 00bf 0131      	.word0x131
 4349 00c1 0000 0025 	.long0x25
 4350 00c5 03        	.uleb128 0x3
 4351 00c6 01        	.byte0x1
 4352 00c7 06        	.byte0x6
 4353 00c8 0000 0000 	.long.LASF16
 4354 00cc 04        	.uleb128 0x4
 4355 00cd 0000 00C5 	.long0xc5
 4356 00d1 02        	.uleb128 0x2
 4357 00d2 0000 0000 	.long.LASF17
 4358 00d6 04        	.byte0x4
 4359 00d7 28        	.byte0x28
 4360 00d8 0000 00DC 	.long0xdc
 4361 00dc 06        	.uleb128 0x6
 4362 00dd 04        	.byte0x4
 4363 00de 0000 0000 	.long.LASF442
 4364 00e2 02        	.uleb128 0x2
 4365 00e3 0000 0000 	.long.LASF18
 4366 00e7 04        	.byte0x4
 4367 00e8 63        	.byte0x63
 4368 00e9 0000 00D1 	.long0xd1
 4369 00ed 07        	.uleb128 0x7
 4370 00ee 24        	.byte0x24
 4371 00ef 05        	.byte0x5
 4372 00f0 35        	.byte0x35
 4373 00f1 0000 0132 	.long0x132
68K GAS   			page 137


 4374 00f5 08        	.uleb128 0x8
 4375 00f6 0000 0000 	.long.LASF19
 4376 00fa 05        	.byte0x5
 4377 00fb 37        	.byte0x37
 4378 00fc 0000 0132 	.long0x132
 4379 0100 00        	.byte0
 4380 0101 08        	.uleb128 0x8
 4381 0102 0000 0000 	.long.LASF20
 4382 0106 05        	.byte0x5
 4383 0107 38        	.byte0x38
 4384 0108 0000 0090 	.long0x90
 4385 010c 14        	.byte0x14
 4386 010d 08        	.uleb128 0x8
 4387 010e 0000 0000 	.long.LASF21
 4388 0112 05        	.byte0x5
 4389 0113 39        	.byte0x39
 4390 0114 0000 0090 	.long0x90
 4391 0118 18        	.byte0x18
 4392 0119 08        	.uleb128 0x8
 4393 011a 0000 0000 	.long.LASF22
 4394 011e 05        	.byte0x5
 4395 011f 3A        	.byte0x3a
 4396 0120 0000 0090 	.long0x90
 4397 0124 1C        	.byte0x1c
 4398 0125 08        	.uleb128 0x8
 4399 0126 0000 0000 	.long.LASF23
 4400 012a 05        	.byte0x5
 4401 012b 3B        	.byte0x3b
 4402 012c 0000 0090 	.long0x90
 4403 0130 20        	.byte0x20
 4404 0131 00        	.byte0
 4405 0132 09        	.uleb128 0x9
 4406 0133 0000 00C5 	.long0xc5
 4407 0137 0000 0142 	.long0x142
 4408 013b 0A        	.uleb128 0xa
 4409 013c 0000 00A0 	.long0xa0
 4410 0140 13        	.byte0x13
 4411 0141 00        	.byte0
 4412 0142 02        	.uleb128 0x2
 4413 0143 0000 0000 	.long.LASF24
 4414 0147 05        	.byte0x5
 4415 0148 3C        	.byte0x3c
 4416 0149 0000 00ED 	.long0xed
 4417 014d 0B        	.uleb128 0xb
 4418 014e 04        	.byte0x4
 4419 014f 02        	.uleb128 0x2
 4420 0150 0000 0000 	.long.LASF25
 4421 0154 06        	.byte0x6
 4422 0155 67        	.byte0x67
 4423 0156 0000 0062 	.long0x62
 4424 015a 02        	.uleb128 0x2
 4425 015b 0000 0000 	.long.LASF26
 4426 015f 07        	.byte0x7
 4427 0160 D8        	.byte0xd8
 4428 0161 0000 00A0 	.long0xa0
 4429 0165 03        	.uleb128 0x3
 4430 0166 08        	.byte0x8
68K GAS   			page 138


 4431 0167 04        	.byte0x4
 4432 0168 0000 0000 	.long.LASF27
 4433 016c 02        	.uleb128 0x2
 4434 016d 0000 0000 	.long.LASF28
 4435 0171 08        	.byte0x8
 4436 0172 10        	.byte0x10
 4437 0173 0000 014F 	.long0x14f
 4438 0177 02        	.uleb128 0x2
 4439 0178 0000 0000 	.long.LASF29
 4440 017c 08        	.byte0x8
 4441 017d 16        	.byte0x16
 4442 017e 0000 016C 	.long0x16c
 4443 0182 0C        	.uleb128 0xc
 4444 0183 04        	.byte0x4
 4445 0184 05        	.byte0x5
 4446 0185 696E 7400 	.string"int"
 4447 0189 0D        	.uleb128 0xd
 4448 018a 0000 0000 	.long.LASF33
 4449 018e 08        	.byte0x8
 4450 018f 09        	.byte0x9
 4451 0190 28        	.byte0x28
 4452 0191 0000 01AE 	.long0x1ae
 4453 0195 08        	.uleb128 0x8
 4454 0196 0000 0000 	.long.LASF30
 4455 019a 09        	.byte0x9
 4456 019b 29        	.byte0x29
 4457 019c 0000 01AE 	.long0x1ae
 4458 01a0 00        	.byte0
 4459 01a1 08        	.uleb128 0x8
 4460 01a2 0000 0000 	.long.LASF31
 4461 01a6 09        	.byte0x9
 4462 01a7 2A        	.byte0x2a
 4463 01a8 0000 01AE 	.long0x1ae
 4464 01ac 04        	.byte0x4
 4465 01ad 00        	.byte0
 4466 01ae 03        	.uleb128 0x3
 4467 01af 04        	.byte0x4
 4468 01b0 07        	.byte0x7
 4469 01b1 0000 0000 	.long.LASF32
 4470 01b5 0D        	.uleb128 0xd
 4471 01b6 0000 0000 	.long.LASF34
 4472 01ba 14        	.byte0x14
 4473 01bb 09        	.byte0x9
 4474 01bc 2D        	.byte0x2d
 4475 01bd 0000 01F2 	.long0x1f2
 4476 01c1 08        	.uleb128 0x8
 4477 01c2 0000 0000 	.long.LASF35
 4478 01c6 09        	.byte0x9
 4479 01c7 2E        	.byte0x2e
 4480 01c8 0000 0189 	.long0x189
 4481 01cc 00        	.byte0
 4482 01cd 08        	.uleb128 0x8
 4483 01ce 0000 0000 	.long.LASF36
 4484 01d2 09        	.byte0x9
 4485 01d3 2F        	.byte0x2f
 4486 01d4 0000 01F7 	.long0x1f7
 4487 01d8 08        	.byte0x8
68K GAS   			page 139


 4488 01d9 08        	.uleb128 0x8
 4489 01da 0000 0000 	.long.LASF37
 4490 01de 09        	.byte0x9
 4491 01df 30        	.byte0x30
 4492 01e0 0000 0202 	.long0x202
 4493 01e4 0C        	.byte0xc
 4494 01e5 08        	.uleb128 0x8
 4495 01e6 0000 0000 	.long.LASF38
 4496 01ea 09        	.byte0x9
 4497 01eb 31        	.byte0x31
 4498 01ec 0000 0208 	.long0x208
 4499 01f0 10        	.byte0x10
 4500 01f1 00        	.byte0
 4501 01f2 0E        	.uleb128 0xe
 4502 01f3 0000 0000 	.long.LASF39
 4503 01f7 0F        	.uleb128 0xf
 4504 01f8 04        	.byte0x4
 4505 01f9 0000 01F2 	.long0x1f2
 4506 01fd 0E        	.uleb128 0xe
 4507 01fe 0000 0000 	.long.LASF40
 4508 0202 0F        	.uleb128 0xf
 4509 0203 04        	.byte0x4
 4510 0204 0000 01FD 	.long0x1fd
 4511 0208 0F        	.uleb128 0xf
 4512 0209 04        	.byte0x4
 4513 020a 0000 00CC 	.long0xcc
 4514 020e 0D        	.uleb128 0xd
 4515 020f 0000 0000 	.long.LASF41
 4516 0213 14        	.byte0x14
 4517 0214 09        	.byte0x9
 4518 0215 34        	.byte0x34
 4519 0216 0000 0227 	.long0x227
 4520 021a 08        	.uleb128 0x8
 4521 021b 0000 0000 	.long.LASF42
 4522 021f 09        	.byte0x9
 4523 0220 35        	.byte0x35
 4524 0221 0000 01B5 	.long0x1b5
 4525 0225 00        	.byte0
 4526 0226 00        	.byte0
 4527 0227 0D        	.uleb128 0xd
 4528 0228 0000 0000 	.long.LASF43
 4529 022c 18        	.byte0x18
 4530 022d 09        	.byte0x9
 4531 022e 38        	.byte0x38
 4532 022f 0000 024C 	.long0x24c
 4533 0233 08        	.uleb128 0x8
 4534 0234 0000 0000 	.long.LASF44
 4535 0238 09        	.byte0x9
 4536 0239 39        	.byte0x39
 4537 023a 0000 020E 	.long0x20e
 4538 023e 00        	.byte0
 4539 023f 08        	.uleb128 0x8
 4540 0240 0000 0000 	.long.LASF45
 4541 0244 09        	.byte0x9
 4542 0245 3A        	.byte0x3a
 4543 0246 0000 01AE 	.long0x1ae
 4544 024a 14        	.byte0x14
68K GAS   			page 140


 4545 024b 00        	.byte0
 4546 024c 05        	.uleb128 0x5
 4547 024d 0000 0000 	.long.LASF46
 4548 0251 09        	.byte0x9
 4549 0252 0171      	.word0x171
 4550 0254 0000 0227 	.long0x227
 4551 0258 02        	.uleb128 0x2
 4552 0259 0000 0000 	.long.LASF47
 4553 025d 0A        	.byte0xa
 4554 025e 91        	.byte0x91
 4555 025f 0000 005B 	.long0x5b
 4556 0263 05        	.uleb128 0x5
 4557 0264 0000 0000 	.long.LASF48
 4558 0268 07        	.byte0x7
 4559 0269 0165      	.word0x165
 4560 026b 0000 01AE 	.long0x1ae
 4561 026f 10        	.uleb128 0x10
 4562 0270 04        	.byte0x4
 4563 0271 0A        	.byte0xa
 4564 0272 A6        	.byte0xa6
 4565 0273 0000 028E 	.long0x28e
 4566 0277 11        	.uleb128 0x11
 4567 0278 0000 0000 	.long.LASF49
 4568 027c 0A        	.byte0xa
 4569 027d A8        	.byte0xa8
 4570 027e 0000 0263 	.long0x263
 4571 0282 11        	.uleb128 0x11
 4572 0283 0000 0000 	.long.LASF50
 4573 0287 0A        	.byte0xa
 4574 0288 A9        	.byte0xa9
 4575 0289 0000 028E 	.long0x28e
 4576 028d 00        	.byte0
 4577 028e 09        	.uleb128 0x9
 4578 028f 0000 0030 	.long0x30
 4579 0293 0000 029E 	.long0x29e
 4580 0297 0A        	.uleb128 0xa
 4581 0298 0000 00A0 	.long0xa0
 4582 029c 03        	.byte0x3
 4583 029d 00        	.byte0
 4584 029e 07        	.uleb128 0x7
 4585 029f 08        	.byte0x8
 4586 02a0 0A        	.byte0xa
 4587 02a1 A3        	.byte0xa3
 4588 02a2 0000 02BF 	.long0x2bf
 4589 02a6 08        	.uleb128 0x8
 4590 02a7 0000 0000 	.long.LASF51
 4591 02ab 0A        	.byte0xa
 4592 02ac A5        	.byte0xa5
 4593 02ad 0000 0182 	.long0x182
 4594 02b1 00        	.byte0
 4595 02b2 08        	.uleb128 0x8
 4596 02b3 0000 0000 	.long.LASF52
 4597 02b7 0A        	.byte0xa
 4598 02b8 AA        	.byte0xaa
 4599 02b9 0000 026F 	.long0x26f
 4600 02bd 04        	.byte0x4
 4601 02be 00        	.byte0
68K GAS   			page 141


 4602 02bf 02        	.uleb128 0x2
 4603 02c0 0000 0000 	.long.LASF53
 4604 02c4 0A        	.byte0xa
 4605 02c5 AB        	.byte0xab
 4606 02c6 0000 029E 	.long0x29e
 4607 02ca 02        	.uleb128 0x2
 4608 02cb 0000 0000 	.long.LASF54
 4609 02cf 0A        	.byte0xa
 4610 02d0 AF        	.byte0xaf
 4611 02d1 0000 024C 	.long0x24c
 4612 02d5 02        	.uleb128 0x2
 4613 02d6 0000 0000 	.long.LASF55
 4614 02da 0B        	.byte0xb
 4615 02db 16        	.byte0x16
 4616 02dc 0000 00A0 	.long0xa0
 4617 02e0 0D        	.uleb128 0xd
 4618 02e1 0000 0000 	.long.LASF56
 4619 02e5 18        	.byte0x18
 4620 02e6 0B        	.byte0xb
 4621 02e7 2F        	.byte0x2f
 4622 02e8 0000 0333 	.long0x333
 4623 02ec 08        	.uleb128 0x8
 4624 02ed 0000 0000 	.long.LASF57
 4625 02f1 0B        	.byte0xb
 4626 02f2 31        	.byte0x31
 4627 02f3 0000 0333 	.long0x333
 4628 02f7 00        	.byte0
 4629 02f8 12        	.uleb128 0x12
 4630 02f9 5F6B 00   	.string"_k"
 4631 02fc 0B        	.byte0xb
 4632 02fd 32        	.byte0x32
 4633 02fe 0000 0182 	.long0x182
 4634 0302 04        	.byte0x4
 4635 0303 08        	.uleb128 0x8
 4636 0304 0000 0000 	.long.LASF58
 4637 0308 0B        	.byte0xb
 4638 0309 32        	.byte0x32
 4639 030a 0000 0182 	.long0x182
 4640 030e 08        	.byte0x8
 4641 030f 08        	.uleb128 0x8
 4642 0310 0000 0000 	.long.LASF59
 4643 0314 0B        	.byte0xb
 4644 0315 32        	.byte0x32
 4645 0316 0000 0182 	.long0x182
 4646 031a 0C        	.byte0xc
 4647 031b 08        	.uleb128 0x8
 4648 031c 0000 0000 	.long.LASF60
 4649 0320 0B        	.byte0xb
 4650 0321 32        	.byte0x32
 4651 0322 0000 0182 	.long0x182
 4652 0326 10        	.byte0x10
 4653 0327 12        	.uleb128 0x12
 4654 0328 5F78 00   	.string"_x"
 4655 032b 0B        	.byte0xb
 4656 032c 33        	.byte0x33
 4657 032d 0000 0339 	.long0x339
 4658 0331 14        	.byte0x14
68K GAS   			page 142


 4659 0332 00        	.byte0
 4660 0333 0F        	.uleb128 0xf
 4661 0334 04        	.byte0x4
 4662 0335 0000 02E0 	.long0x2e0
 4663 0339 09        	.uleb128 0x9
 4664 033a 0000 02D5 	.long0x2d5
 4665 033e 0000 0349 	.long0x349
 4666 0342 0A        	.uleb128 0xa
 4667 0343 0000 00A0 	.long0xa0
 4668 0347 00        	.byte0
 4669 0348 00        	.byte0
 4670 0349 0D        	.uleb128 0xd
 4671 034a 0000 0000 	.long.LASF61
 4672 034e 24        	.byte0x24
 4673 034f 0B        	.byte0xb
 4674 0350 37        	.byte0x37
 4675 0351 0000 03C2 	.long0x3c2
 4676 0355 08        	.uleb128 0x8
 4677 0356 0000 0000 	.long.LASF62
 4678 035a 0B        	.byte0xb
 4679 035b 39        	.byte0x39
 4680 035c 0000 0182 	.long0x182
 4681 0360 00        	.byte0
 4682 0361 08        	.uleb128 0x8
 4683 0362 0000 0000 	.long.LASF63
 4684 0366 0B        	.byte0xb
 4685 0367 3A        	.byte0x3a
 4686 0368 0000 0182 	.long0x182
 4687 036c 04        	.byte0x4
 4688 036d 08        	.uleb128 0x8
 4689 036e 0000 0000 	.long.LASF64
 4690 0372 0B        	.byte0xb
 4691 0373 3B        	.byte0x3b
 4692 0374 0000 0182 	.long0x182
 4693 0378 08        	.byte0x8
 4694 0379 08        	.uleb128 0x8
 4695 037a 0000 0000 	.long.LASF65
 4696 037e 0B        	.byte0xb
 4697 037f 3C        	.byte0x3c
 4698 0380 0000 0182 	.long0x182
 4699 0384 0C        	.byte0xc
 4700 0385 08        	.uleb128 0x8
 4701 0386 0000 0000 	.long.LASF66
 4702 038a 0B        	.byte0xb
 4703 038b 3D        	.byte0x3d
 4704 038c 0000 0182 	.long0x182
 4705 0390 10        	.byte0x10
 4706 0391 08        	.uleb128 0x8
 4707 0392 0000 0000 	.long.LASF67
 4708 0396 0B        	.byte0xb
 4709 0397 3E        	.byte0x3e
 4710 0398 0000 0182 	.long0x182
 4711 039c 14        	.byte0x14
 4712 039d 08        	.uleb128 0x8
 4713 039e 0000 0000 	.long.LASF68
 4714 03a2 0B        	.byte0xb
 4715 03a3 3F        	.byte0x3f
68K GAS   			page 143


 4716 03a4 0000 0182 	.long0x182
 4717 03a8 18        	.byte0x18
 4718 03a9 08        	.uleb128 0x8
 4719 03aa 0000 0000 	.long.LASF69
 4720 03ae 0B        	.byte0xb
 4721 03af 40        	.byte0x40
 4722 03b0 0000 0182 	.long0x182
 4723 03b4 1C        	.byte0x1c
 4724 03b5 08        	.uleb128 0x8
 4725 03b6 0000 0000 	.long.LASF70
 4726 03ba 0B        	.byte0xb
 4727 03bb 41        	.byte0x41
 4728 03bc 0000 0182 	.long0x182
 4729 03c0 20        	.byte0x20
 4730 03c1 00        	.byte0
 4731 03c2 13        	.uleb128 0x13
 4732 03c3 0000 0000 	.long.LASF71
 4733 03c7 0108      	.word0x108
 4734 03c9 0B        	.byte0xb
 4735 03ca 4A        	.byte0x4a
 4736 03cb 0000 0402 	.long0x402
 4737 03cf 08        	.uleb128 0x8
 4738 03d0 0000 0000 	.long.LASF72
 4739 03d4 0B        	.byte0xb
 4740 03d5 4B        	.byte0x4b
 4741 03d6 0000 0402 	.long0x402
 4742 03da 00        	.byte0
 4743 03db 08        	.uleb128 0x8
 4744 03dc 0000 0000 	.long.LASF73
 4745 03e0 0B        	.byte0xb
 4746 03e1 4C        	.byte0x4c
 4747 03e2 0000 0402 	.long0x402
 4748 03e6 80        	.byte0x80
 4749 03e7 14        	.uleb128 0x14
 4750 03e8 0000 0000 	.long.LASF74
 4751 03ec 0B        	.byte0xb
 4752 03ed 4E        	.byte0x4e
 4753 03ee 0000 02D5 	.long0x2d5
 4754 03f2 0100      	.word0x100
 4755 03f4 14        	.uleb128 0x14
 4756 03f5 0000 0000 	.long.LASF75
 4757 03f9 0B        	.byte0xb
 4758 03fa 51        	.byte0x51
 4759 03fb 0000 02D5 	.long0x2d5
 4760 03ff 0104      	.word0x104
 4761 0401 00        	.byte0
 4762 0402 09        	.uleb128 0x9
 4763 0403 0000 014D 	.long0x14d
 4764 0407 0000 0412 	.long0x412
 4765 040b 0A        	.uleb128 0xa
 4766 040c 0000 00A0 	.long0xa0
 4767 0410 1F        	.byte0x1f
 4768 0411 00        	.byte0
 4769 0412 13        	.uleb128 0x13
 4770 0413 0000 0000 	.long.LASF76
 4771 0417 0190      	.word0x190
 4772 0419 0B        	.byte0xb
68K GAS   			page 144


 4773 041a 5D        	.byte0x5d
 4774 041b 0000 0450 	.long0x450
 4775 041f 08        	.uleb128 0x8
 4776 0420 0000 0000 	.long.LASF57
 4777 0424 0B        	.byte0xb
 4778 0425 5E        	.byte0x5e
 4779 0426 0000 0450 	.long0x450
 4780 042a 00        	.byte0
 4781 042b 08        	.uleb128 0x8
 4782 042c 0000 0000 	.long.LASF77
 4783 0430 0B        	.byte0xb
 4784 0431 5F        	.byte0x5f
 4785 0432 0000 0182 	.long0x182
 4786 0436 04        	.byte0x4
 4787 0437 08        	.uleb128 0x8
 4788 0438 0000 0000 	.long.LASF78
 4789 043c 0B        	.byte0xb
 4790 043d 61        	.byte0x61
 4791 043e 0000 0456 	.long0x456
 4792 0442 08        	.byte0x8
 4793 0443 08        	.uleb128 0x8
 4794 0444 0000 0000 	.long.LASF71
 4795 0448 0B        	.byte0xb
 4796 0449 62        	.byte0x62
 4797 044a 0000 03C2 	.long0x3c2
 4798 044e 88        	.byte0x88
 4799 044f 00        	.byte0
 4800 0450 0F        	.uleb128 0xf
 4801 0451 04        	.byte0x4
 4802 0452 0000 0412 	.long0x412
 4803 0456 09        	.uleb128 0x9
 4804 0457 0000 0466 	.long0x466
 4805 045b 0000 0466 	.long0x466
 4806 045f 0A        	.uleb128 0xa
 4807 0460 0000 00A0 	.long0xa0
 4808 0464 1F        	.byte0x1f
 4809 0465 00        	.byte0
 4810 0466 0F        	.uleb128 0xf
 4811 0467 04        	.byte0x4
 4812 0468 0000 046C 	.long0x46c
 4813 046c 15        	.uleb128 0x15
 4814 046d 0D        	.uleb128 0xd
 4815 046e 0000 0000 	.long.LASF79
 4816 0472 08        	.byte0x8
 4817 0473 0B        	.byte0xb
 4818 0474 75        	.byte0x75
 4819 0475 0000 0492 	.long0x492
 4820 0479 08        	.uleb128 0x8
 4821 047a 0000 0000 	.long.LASF80
 4822 047e 0B        	.byte0xb
 4823 047f 76        	.byte0x76
 4824 0480 0000 0492 	.long0x492
 4825 0484 00        	.byte0
 4826 0485 08        	.uleb128 0x8
 4827 0486 0000 0000 	.long.LASF81
 4828 048a 0B        	.byte0xb
 4829 048b 77        	.byte0x77
68K GAS   			page 145


 4830 048c 0000 0182 	.long0x182
 4831 0490 04        	.byte0x4
 4832 0491 00        	.byte0
 4833 0492 0F        	.uleb128 0xf
 4834 0493 04        	.byte0x4
 4835 0494 0000 0030 	.long0x30
 4836 0498 0D        	.uleb128 0xd
 4837 0499 0000 0000 	.long.LASF82
 4838 049d 80        	.byte0x80
 4839 049e 0B        	.byte0xb
 4840 049f B5        	.byte0xb5
 4841 04a0 0000 05C2 	.long0x5c2
 4842 04a4 12        	.uleb128 0x12
 4843 04a5 5F70 00   	.string"_p"
 4844 04a8 0B        	.byte0xb
 4845 04a9 B6        	.byte0xb6
 4846 04aa 0000 0492 	.long0x492
 4847 04ae 00        	.byte0
 4848 04af 12        	.uleb128 0x12
 4849 04b0 5F72 00   	.string"_r"
 4850 04b3 0B        	.byte0xb
 4851 04b4 B7        	.byte0xb7
 4852 04b5 0000 0182 	.long0x182
 4853 04b9 04        	.byte0x4
 4854 04ba 12        	.uleb128 0x12
 4855 04bb 5F77 00   	.string"_w"
 4856 04be 0B        	.byte0xb
 4857 04bf B8        	.byte0xb8
 4858 04c0 0000 0182 	.long0x182
 4859 04c4 08        	.byte0x8
 4860 04c5 08        	.uleb128 0x8
 4861 04c6 0000 0000 	.long.LASF83
 4862 04ca 0B        	.byte0xb
 4863 04cb B9        	.byte0xb9
 4864 04cc 0000 0049 	.long0x49
 4865 04d0 0C        	.byte0xc
 4866 04d1 08        	.uleb128 0x8
 4867 04d2 0000 0000 	.long.LASF84
 4868 04d6 0B        	.byte0xb
 4869 04d7 BA        	.byte0xba
 4870 04d8 0000 0049 	.long0x49
 4871 04dc 0E        	.byte0xe
 4872 04dd 12        	.uleb128 0x12
 4873 04de 5F62 6600 	.string"_bf"
 4874 04e2 0B        	.byte0xb
 4875 04e3 BB        	.byte0xbb
 4876 04e4 0000 046D 	.long0x46d
 4877 04e8 10        	.byte0x10
 4878 04e9 08        	.uleb128 0x8
 4879 04ea 0000 0000 	.long.LASF85
 4880 04ee 0B        	.byte0xb
 4881 04ef BC        	.byte0xbc
 4882 04f0 0000 0182 	.long0x182
 4883 04f4 18        	.byte0x18
 4884 04f5 08        	.uleb128 0x8
 4885 04f6 0000 0000 	.long.LASF86
 4886 04fa 0B        	.byte0xb
68K GAS   			page 146


 4887 04fb C3        	.byte0xc3
 4888 04fc 0000 014D 	.long0x14d
 4889 0500 1C        	.byte0x1c
 4890 0501 08        	.uleb128 0x8
 4891 0502 0000 0000 	.long.LASF87
 4892 0506 0B        	.byte0xb
 4893 0507 C5        	.byte0xc5
 4894 0508 0000 06F9 	.long0x6f9
 4895 050c 20        	.byte0x20
 4896 050d 08        	.uleb128 0x8
 4897 050e 0000 0000 	.long.LASF88
 4898 0512 0B        	.byte0xb
 4899 0513 C7        	.byte0xc7
 4900 0514 0000 071D 	.long0x71d
 4901 0518 24        	.byte0x24
 4902 0519 08        	.uleb128 0x8
 4903 051a 0000 0000 	.long.LASF89
 4904 051e 0B        	.byte0xb
 4905 051f CA        	.byte0xca
 4906 0520 0000 0741 	.long0x741
 4907 0524 28        	.byte0x28
 4908 0525 08        	.uleb128 0x8
 4909 0526 0000 0000 	.long.LASF90
 4910 052a 0B        	.byte0xb
 4911 052b CB        	.byte0xcb
 4912 052c 0000 075B 	.long0x75b
 4913 0530 2C        	.byte0x2c
 4914 0531 12        	.uleb128 0x12
 4915 0532 5F75 6200 	.string"_ub"
 4916 0536 0B        	.byte0xb
 4917 0537 CE        	.byte0xce
 4918 0538 0000 046D 	.long0x46d
 4919 053c 30        	.byte0x30
 4920 053d 12        	.uleb128 0x12
 4921 053e 5F75 7000 	.string"_up"
 4922 0542 0B        	.byte0xb
 4923 0543 CF        	.byte0xcf
 4924 0544 0000 0492 	.long0x492
 4925 0548 38        	.byte0x38
 4926 0549 12        	.uleb128 0x12
 4927 054a 5F75 7200 	.string"_ur"
 4928 054e 0B        	.byte0xb
 4929 054f D0        	.byte0xd0
 4930 0550 0000 0182 	.long0x182
 4931 0554 3C        	.byte0x3c
 4932 0555 08        	.uleb128 0x8
 4933 0556 0000 0000 	.long.LASF91
 4934 055a 0B        	.byte0xb
 4935 055b D3        	.byte0xd3
 4936 055c 0000 0761 	.long0x761
 4937 0560 40        	.byte0x40
 4938 0561 08        	.uleb128 0x8
 4939 0562 0000 0000 	.long.LASF92
 4940 0566 0B        	.byte0xb
 4941 0567 D4        	.byte0xd4
 4942 0568 0000 0771 	.long0x771
 4943 056c 43        	.byte0x43
68K GAS   			page 147


 4944 056d 12        	.uleb128 0x12
 4945 056e 5F6C 6200 	.string"_lb"
 4946 0572 0B        	.byte0xb
 4947 0573 D7        	.byte0xd7
 4948 0574 0000 046D 	.long0x46d
 4949 0578 44        	.byte0x44
 4950 0579 08        	.uleb128 0x8
 4951 057a 0000 0000 	.long.LASF93
 4952 057e 0B        	.byte0xb
 4953 057f DA        	.byte0xda
 4954 0580 0000 0182 	.long0x182
 4955 0584 4C        	.byte0x4c
 4956 0585 08        	.uleb128 0x8
 4957 0586 0000 0000 	.long.LASF94
 4958 058a 0B        	.byte0xb
 4959 058b DB        	.byte0xdb
 4960 058c 0000 016C 	.long0x16c
 4961 0590 50        	.byte0x50
 4962 0591 08        	.uleb128 0x8
 4963 0592 0000 0000 	.long.LASF95
 4964 0596 0B        	.byte0xb
 4965 0597 DE        	.byte0xde
 4966 0598 0000 05E0 	.long0x5e0
 4967 059c 58        	.byte0x58
 4968 059d 08        	.uleb128 0x8
 4969 059e 0000 0000 	.long.LASF96
 4970 05a2 0B        	.byte0xb
 4971 05a3 E2        	.byte0xe2
 4972 05a4 0000 02CA 	.long0x2ca
 4973 05a8 5C        	.byte0x5c
 4974 05a9 08        	.uleb128 0x8
 4975 05aa 0000 0000 	.long.LASF97
 4976 05ae 0B        	.byte0xb
 4977 05af E4        	.byte0xe4
 4978 05b0 0000 02BF 	.long0x2bf
 4979 05b4 74        	.byte0x74
 4980 05b5 08        	.uleb128 0x8
 4981 05b6 0000 0000 	.long.LASF98
 4982 05ba 0B        	.byte0xb
 4983 05bb E5        	.byte0xe5
 4984 05bc 0000 0182 	.long0x182
 4985 05c0 7C        	.byte0x7c
 4986 05c1 00        	.byte0
 4987 05c2 16        	.uleb128 0x16
 4988 05c3 0000 0258 	.long0x258
 4989 05c7 0000 05E0 	.long0x5e0
 4990 05cb 17        	.uleb128 0x17
 4991 05cc 0000 05E0 	.long0x5e0
 4992 05d0 17        	.uleb128 0x17
 4993 05d1 0000 014D 	.long0x14d
 4994 05d5 17        	.uleb128 0x17
 4995 05d6 0000 06F3 	.long0x6f3
 4996 05da 17        	.uleb128 0x17
 4997 05db 0000 0182 	.long0x182
 4998 05df 00        	.byte0
 4999 05e0 0F        	.uleb128 0xf
 5000 05e1 04        	.byte0x4
68K GAS   			page 148


 5001 05e2 0000 05EB 	.long0x5eb
 5002 05e6 04        	.uleb128 0x4
 5003 05e7 0000 05E0 	.long0x5e0
 5004 05eb 18        	.uleb128 0x18
 5005 05ec 0000 0000 	.long.LASF99
 5006 05f0 0158      	.word0x158
 5007 05f2 0B        	.byte0xb
 5008 05f3 0239      	.word0x239
 5009 05f5 0000 06F3 	.long0x6f3
 5010 05f9 19        	.uleb128 0x19
 5011 05fa 0000 0000 	.long.LASF100
 5012 05fe 0B        	.byte0xb
 5013 05ff 023B      	.word0x23b
 5014 0601 0000 0182 	.long0x182
 5015 0605 00        	.byte0
 5016 0606 19        	.uleb128 0x19
 5017 0607 0000 0000 	.long.LASF101
 5018 060b 0B        	.byte0xb
 5019 060c 0240      	.word0x240
 5020 060e 0000 07C8 	.long0x7c8
 5021 0612 04        	.byte0x4
 5022 0613 19        	.uleb128 0x19
 5023 0614 0000 0000 	.long.LASF102
 5024 0618 0B        	.byte0xb
 5025 0619 0240      	.word0x240
 5026 061b 0000 07C8 	.long0x7c8
 5027 061f 08        	.byte0x8
 5028 0620 19        	.uleb128 0x19
 5029 0621 0000 0000 	.long.LASF103
 5030 0625 0B        	.byte0xb
 5031 0626 0240      	.word0x240
 5032 0628 0000 07C8 	.long0x7c8
 5033 062c 0C        	.byte0xc
 5034 062d 19        	.uleb128 0x19
 5035 062e 0000 0000 	.long.LASF104
 5036 0632 0B        	.byte0xb
 5037 0633 0242      	.word0x242
 5038 0635 0000 0182 	.long0x182
 5039 0639 10        	.byte0x10
 5040 063a 19        	.uleb128 0x19
 5041 063b 0000 0000 	.long.LASF105
 5042 063f 0B        	.byte0xb
 5043 0640 0243      	.word0x243
 5044 0642 0000 09AA 	.long0x9aa
 5045 0646 14        	.byte0x14
 5046 0647 19        	.uleb128 0x19
 5047 0648 0000 0000 	.long.LASF106
 5048 064c 0B        	.byte0xb
 5049 064d 0246      	.word0x246
 5050 064f 0000 0182 	.long0x182
 5051 0653 30        	.byte0x30
 5052 0654 19        	.uleb128 0x19
 5053 0655 0000 0000 	.long.LASF107
 5054 0659 0B        	.byte0xb
 5055 065a 0247      	.word0x247
 5056 065c 0000 09BF 	.long0x9bf
 5057 0660 34        	.byte0x34
68K GAS   			page 149


 5058 0661 19        	.uleb128 0x19
 5059 0662 0000 0000 	.long.LASF108
 5060 0666 0B        	.byte0xb
 5061 0667 0249      	.word0x249
 5062 0669 0000 0182 	.long0x182
 5063 066d 38        	.byte0x38
 5064 066e 19        	.uleb128 0x19
 5065 066f 0000 0000 	.long.LASF109
 5066 0673 0B        	.byte0xb
 5067 0674 024B      	.word0x24b
 5068 0676 0000 09D0 	.long0x9d0
 5069 067a 3C        	.byte0x3c
 5070 067b 19        	.uleb128 0x19
 5071 067c 0000 0000 	.long.LASF110
 5072 0680 0B        	.byte0xb
 5073 0681 024E      	.word0x24e
 5074 0683 0000 0333 	.long0x333
 5075 0687 40        	.byte0x40
 5076 0688 19        	.uleb128 0x19
 5077 0689 0000 0000 	.long.LASF111
 5078 068d 0B        	.byte0xb
 5079 068e 024F      	.word0x24f
 5080 0690 0000 0182 	.long0x182
 5081 0694 44        	.byte0x44
 5082 0695 19        	.uleb128 0x19
 5083 0696 0000 0000 	.long.LASF112
 5084 069a 0B        	.byte0xb
 5085 069b 0250      	.word0x250
 5086 069d 0000 0333 	.long0x333
 5087 06a1 48        	.byte0x48
 5088 06a2 19        	.uleb128 0x19
 5089 06a3 0000 0000 	.long.LASF113
 5090 06a7 0B        	.byte0xb
 5091 06a8 0251      	.word0x251
 5092 06aa 0000 09D6 	.long0x9d6
 5093 06ae 4C        	.byte0x4c
 5094 06af 19        	.uleb128 0x19
 5095 06b0 0000 0000 	.long.LASF114
 5096 06b4 0B        	.byte0xb
 5097 06b5 0254      	.word0x254
 5098 06b7 0000 0182 	.long0x182
 5099 06bb 50        	.byte0x50
 5100 06bc 19        	.uleb128 0x19
 5101 06bd 0000 0000 	.long.LASF115
 5102 06c1 0B        	.byte0xb
 5103 06c2 0255      	.word0x255
 5104 06c4 0000 06F3 	.long0x6f3
 5105 06c8 54        	.byte0x54
 5106 06c9 19        	.uleb128 0x19
 5107 06ca 0000 0000 	.long.LASF116
 5108 06ce 0B        	.byte0xb
 5109 06cf 0278      	.word0x278
 5110 06d1 0000 0988 	.long0x988
 5111 06d5 58        	.byte0x58
 5112 06d6 1A        	.uleb128 0x1a
 5113 06d7 0000 0000 	.long.LASF117
 5114 06db 0B        	.byte0xb
68K GAS   			page 150


 5115 06dc 0281      	.word0x281
 5116 06de 0000 09E7 	.long0x9e7
 5117 06e2 0148      	.word0x148
 5118 06e4 1A        	.uleb128 0x1a
 5119 06e5 0000 0000 	.long.LASF118
 5120 06e9 0B        	.byte0xb
 5121 06ea 0286      	.word0x286
 5122 06ec 0000 078D 	.long0x78d
 5123 06f0 014C      	.word0x14c
 5124 06f2 00        	.byte0
 5125 06f3 0F        	.uleb128 0xf
 5126 06f4 04        	.byte0x4
 5127 06f5 0000 00C5 	.long0xc5
 5128 06f9 0F        	.uleb128 0xf
 5129 06fa 04        	.byte0x4
 5130 06fb 0000 05C2 	.long0x5c2
 5131 06ff 16        	.uleb128 0x16
 5132 0700 0000 0258 	.long0x258
 5133 0704 0000 071D 	.long0x71d
 5134 0708 17        	.uleb128 0x17
 5135 0709 0000 05E0 	.long0x5e0
 5136 070d 17        	.uleb128 0x17
 5137 070e 0000 014D 	.long0x14d
 5138 0712 17        	.uleb128 0x17
 5139 0713 0000 0208 	.long0x208
 5140 0717 17        	.uleb128 0x17
 5141 0718 0000 0182 	.long0x182
 5142 071c 00        	.byte0
 5143 071d 0F        	.uleb128 0xf
 5144 071e 04        	.byte0x4
 5145 071f 0000 06FF 	.long0x6ff
 5146 0723 16        	.uleb128 0x16
 5147 0724 0000 0177 	.long0x177
 5148 0728 0000 0741 	.long0x741
 5149 072c 17        	.uleb128 0x17
 5150 072d 0000 05E0 	.long0x5e0
 5151 0731 17        	.uleb128 0x17
 5152 0732 0000 014D 	.long0x14d
 5153 0736 17        	.uleb128 0x17
 5154 0737 0000 0177 	.long0x177
 5155 073b 17        	.uleb128 0x17
 5156 073c 0000 0182 	.long0x182
 5157 0740 00        	.byte0
 5158 0741 0F        	.uleb128 0xf
 5159 0742 04        	.byte0x4
 5160 0743 0000 0723 	.long0x723
 5161 0747 16        	.uleb128 0x16
 5162 0748 0000 0182 	.long0x182
 5163 074c 0000 075B 	.long0x75b
 5164 0750 17        	.uleb128 0x17
 5165 0751 0000 05E0 	.long0x5e0
 5166 0755 17        	.uleb128 0x17
 5167 0756 0000 014D 	.long0x14d
 5168 075a 00        	.byte0
 5169 075b 0F        	.uleb128 0xf
 5170 075c 04        	.byte0x4
 5171 075d 0000 0747 	.long0x747
68K GAS   			page 151


 5172 0761 09        	.uleb128 0x9
 5173 0762 0000 0030 	.long0x30
 5174 0766 0000 0771 	.long0x771
 5175 076a 0A        	.uleb128 0xa
 5176 076b 0000 00A0 	.long0xa0
 5177 076f 02        	.byte0x2
 5178 0770 00        	.byte0
 5179 0771 09        	.uleb128 0x9
 5180 0772 0000 0030 	.long0x30
 5181 0776 0000 0781 	.long0x781
 5182 077a 0A        	.uleb128 0xa
 5183 077b 0000 00A0 	.long0xa0
 5184 077f 00        	.byte0
 5185 0780 00        	.byte0
 5186 0781 05        	.uleb128 0x5
 5187 0782 0000 0000 	.long.LASF119
 5188 0786 0B        	.byte0xb
 5189 0787 011F      	.word0x11f
 5190 0789 0000 0498 	.long0x498
 5191 078d 1B        	.uleb128 0x1b
 5192 078e 0000 0000 	.long.LASF120
 5193 0792 0C        	.byte0xc
 5194 0793 0B        	.byte0xb
 5195 0794 0123      	.word0x123
 5196 0796 0000 07C2 	.long0x7c2
 5197 079a 19        	.uleb128 0x19
 5198 079b 0000 0000 	.long.LASF57
 5199 079f 0B        	.byte0xb
 5200 07a0 0125      	.word0x125
 5201 07a2 0000 07C2 	.long0x7c2
 5202 07a6 00        	.byte0
 5203 07a7 19        	.uleb128 0x19
 5204 07a8 0000 0000 	.long.LASF121
 5205 07ac 0B        	.byte0xb
 5206 07ad 0126      	.word0x126
 5207 07af 0000 0182 	.long0x182
 5208 07b3 04        	.byte0x4
 5209 07b4 19        	.uleb128 0x19
 5210 07b5 0000 0000 	.long.LASF122
 5211 07b9 0B        	.byte0xb
 5212 07ba 0127      	.word0x127
 5213 07bc 0000 07C8 	.long0x7c8
 5214 07c0 08        	.byte0x8
 5215 07c1 00        	.byte0
 5216 07c2 0F        	.uleb128 0xf
 5217 07c3 04        	.byte0x4
 5218 07c4 0000 078D 	.long0x78d
 5219 07c8 0F        	.uleb128 0xf
 5220 07c9 04        	.byte0x4
 5221 07ca 0000 0781 	.long0x781
 5222 07ce 1B        	.uleb128 0x1b
 5223 07cf 0000 0000 	.long.LASF123
 5224 07d3 0E        	.byte0xe
 5225 07d4 0B        	.byte0xb
 5226 07d5 013F      	.word0x13f
 5227 07d7 0000 0803 	.long0x803
 5228 07db 19        	.uleb128 0x19
68K GAS   			page 152


 5229 07dc 0000 0000 	.long.LASF124
 5230 07e0 0B        	.byte0xb
 5231 07e1 0140      	.word0x140
 5232 07e3 0000 0803 	.long0x803
 5233 07e7 00        	.byte0
 5234 07e8 19        	.uleb128 0x19
 5235 07e9 0000 0000 	.long.LASF125
 5236 07ed 0B        	.byte0xb
 5237 07ee 0141      	.word0x141
 5238 07f0 0000 0803 	.long0x803
 5239 07f4 06        	.byte0x6
 5240 07f5 19        	.uleb128 0x19
 5241 07f6 0000 0000 	.long.LASF126
 5242 07fa 0B        	.byte0xb
 5243 07fb 0142      	.word0x142
 5244 07fd 0000 0089 	.long0x89
 5245 0801 0C        	.byte0xc
 5246 0802 00        	.byte0
 5247 0803 09        	.uleb128 0x9
 5248 0804 0000 0089 	.long0x89
 5249 0808 0000 0813 	.long0x813
 5250 080c 0A        	.uleb128 0xa
 5251 080d 0000 00A0 	.long0xa0
 5252 0811 02        	.byte0x2
 5253 0812 00        	.byte0
 5254 0813 1C        	.uleb128 0x1c
 5255 0814 CC        	.byte0xcc
 5256 0815 0B        	.byte0xb
 5257 0816 0259      	.word0x259
 5258 0818 0000 0914 	.long0x914
 5259 081c 19        	.uleb128 0x19
 5260 081d 0000 0000 	.long.LASF127
 5261 0821 0B        	.byte0xb
 5262 0822 025B      	.word0x25b
 5263 0824 0000 01AE 	.long0x1ae
 5264 0828 00        	.byte0
 5265 0829 19        	.uleb128 0x19
 5266 082a 0000 0000 	.long.LASF128
 5267 082e 0B        	.byte0xb
 5268 082f 025C      	.word0x25c
 5269 0831 0000 06F3 	.long0x6f3
 5270 0835 04        	.byte0x4
 5271 0836 19        	.uleb128 0x19
 5272 0837 0000 0000 	.long.LASF129
 5273 083b 0B        	.byte0xb
 5274 083c 025D      	.word0x25d
 5275 083e 0000 0914 	.long0x914
 5276 0842 08        	.byte0x8
 5277 0843 19        	.uleb128 0x19
 5278 0844 0000 0000 	.long.LASF130
 5279 0848 0B        	.byte0xb
 5280 0849 025E      	.word0x25e
 5281 084b 0000 0349 	.long0x349
 5282 084f 24        	.byte0x24
 5283 0850 19        	.uleb128 0x19
 5284 0851 0000 0000 	.long.LASF131
 5285 0855 0B        	.byte0xb
68K GAS   			page 153


 5286 0856 025F      	.word0x25f
 5287 0858 0000 0182 	.long0x182
 5288 085c 48        	.byte0x48
 5289 085d 19        	.uleb128 0x19
 5290 085e 0000 0000 	.long.LASF132
 5291 0862 0B        	.byte0xb
 5292 0863 0260      	.word0x260
 5293 0865 0000 00A7 	.long0xa7
 5294 0869 4C        	.byte0x4c
 5295 086a 19        	.uleb128 0x19
 5296 086b 0000 0000 	.long.LASF133
 5297 086f 0B        	.byte0xb
 5298 0870 0261      	.word0x261
 5299 0872 0000 07CE 	.long0x7ce
 5300 0876 54        	.byte0x54
 5301 0877 19        	.uleb128 0x19
 5302 0878 0000 0000 	.long.LASF134
 5303 087c 0B        	.byte0xb
 5304 087d 0262      	.word0x262
 5305 087f 0000 02BF 	.long0x2bf
 5306 0883 64        	.byte0x64
 5307 0884 19        	.uleb128 0x19
 5308 0885 0000 0000 	.long.LASF135
 5309 0889 0B        	.byte0xb
 5310 088a 0263      	.word0x263
 5311 088c 0000 02BF 	.long0x2bf
 5312 0890 6C        	.byte0x6c
 5313 0891 19        	.uleb128 0x19
 5314 0892 0000 0000 	.long.LASF136
 5315 0896 0B        	.byte0xb
 5316 0897 0264      	.word0x264
 5317 0899 0000 02BF 	.long0x2bf
 5318 089d 74        	.byte0x74
 5319 089e 19        	.uleb128 0x19
 5320 089f 0000 0000 	.long.LASF137
 5321 08a3 0B        	.byte0xb
 5322 08a4 0265      	.word0x265
 5323 08a6 0000 0924 	.long0x924
 5324 08aa 7C        	.byte0x7c
 5325 08ab 19        	.uleb128 0x19
 5326 08ac 0000 0000 	.long.LASF138
 5327 08b0 0B        	.byte0xb
 5328 08b1 0266      	.word0x266
 5329 08b3 0000 0934 	.long0x934
 5330 08b7 84        	.byte0x84
 5331 08b8 19        	.uleb128 0x19
 5332 08b9 0000 0000 	.long.LASF139
 5333 08bd 0B        	.byte0xb
 5334 08be 0267      	.word0x267
 5335 08c0 0000 0182 	.long0x182
 5336 08c4 9C        	.byte0x9c
 5337 08c5 19        	.uleb128 0x19
 5338 08c6 0000 0000 	.long.LASF140
 5339 08ca 0B        	.byte0xb
 5340 08cb 0268      	.word0x268
 5341 08cd 0000 02BF 	.long0x2bf
 5342 08d1 A0        	.byte0xa0
68K GAS   			page 154


 5343 08d2 19        	.uleb128 0x19
 5344 08d3 0000 0000 	.long.LASF141
 5345 08d7 0B        	.byte0xb
 5346 08d8 0269      	.word0x269
 5347 08da 0000 02BF 	.long0x2bf
 5348 08de A8        	.byte0xa8
 5349 08df 19        	.uleb128 0x19
 5350 08e0 0000 0000 	.long.LASF142
 5351 08e4 0B        	.byte0xb
 5352 08e5 026A      	.word0x26a
 5353 08e7 0000 02BF 	.long0x2bf
 5354 08eb B0        	.byte0xb0
 5355 08ec 19        	.uleb128 0x19
 5356 08ed 0000 0000 	.long.LASF143
 5357 08f1 0B        	.byte0xb
 5358 08f2 026B      	.word0x26b
 5359 08f4 0000 02BF 	.long0x2bf
 5360 08f8 B8        	.byte0xb8
 5361 08f9 19        	.uleb128 0x19
 5362 08fa 0000 0000 	.long.LASF144
 5363 08fe 0B        	.byte0xb
 5364 08ff 026C      	.word0x26c
 5365 0901 0000 02BF 	.long0x2bf
 5366 0905 C0        	.byte0xc0
 5367 0906 19        	.uleb128 0x19
 5368 0907 0000 0000 	.long.LASF145
 5369 090b 0B        	.byte0xb
 5370 090c 026D      	.word0x26d
 5371 090e 0000 0182 	.long0x182
 5372 0912 C8        	.byte0xc8
 5373 0913 00        	.byte0
 5374 0914 09        	.uleb128 0x9
 5375 0915 0000 00C5 	.long0xc5
 5376 0919 0000 0924 	.long0x924
 5377 091d 0A        	.uleb128 0xa
 5378 091e 0000 00A0 	.long0xa0
 5379 0922 19        	.byte0x19
 5380 0923 00        	.byte0
 5381 0924 09        	.uleb128 0x9
 5382 0925 0000 00C5 	.long0xc5
 5383 0929 0000 0934 	.long0x934
 5384 092d 0A        	.uleb128 0xa
 5385 092e 0000 00A0 	.long0xa0
 5386 0932 07        	.byte0x7
 5387 0933 00        	.byte0
 5388 0934 09        	.uleb128 0x9
 5389 0935 0000 00C5 	.long0xc5
 5390 0939 0000 0944 	.long0x944
 5391 093d 0A        	.uleb128 0xa
 5392 093e 0000 00A0 	.long0xa0
 5393 0942 17        	.byte0x17
 5394 0943 00        	.byte0
 5395 0944 1C        	.uleb128 0x1c
 5396 0945 F0        	.byte0xf0
 5397 0946 0B        	.byte0xb
 5398 0947 0272      	.word0x272
 5399 0949 0000 0968 	.long0x968
68K GAS   			page 155


 5400 094d 19        	.uleb128 0x19
 5401 094e 0000 0000 	.long.LASF146
 5402 0952 0B        	.byte0xb
 5403 0953 0275      	.word0x275
 5404 0955 0000 0968 	.long0x968
 5405 0959 00        	.byte0
 5406 095a 19        	.uleb128 0x19
 5407 095b 0000 0000 	.long.LASF147
 5408 095f 0B        	.byte0xb
 5409 0960 0276      	.word0x276
 5410 0962 0000 0978 	.long0x978
 5411 0966 78        	.byte0x78
 5412 0967 00        	.byte0
 5413 0968 09        	.uleb128 0x9
 5414 0969 0000 0492 	.long0x492
 5415 096d 0000 0978 	.long0x978
 5416 0971 0A        	.uleb128 0xa
 5417 0972 0000 00A0 	.long0xa0
 5418 0976 1D        	.byte0x1d
 5419 0977 00        	.byte0
 5420 0978 09        	.uleb128 0x9
 5421 0979 0000 01AE 	.long0x1ae
 5422 097d 0000 0988 	.long0x988
 5423 0981 0A        	.uleb128 0xa
 5424 0982 0000 00A0 	.long0xa0
 5425 0986 1D        	.byte0x1d
 5426 0987 00        	.byte0
 5427 0988 1D        	.uleb128 0x1d
 5428 0989 F0        	.byte0xf0
 5429 098a 0B        	.byte0xb
 5430 098b 0257      	.word0x257
 5431 098d 0000 09AA 	.long0x9aa
 5432 0991 1E        	.uleb128 0x1e
 5433 0992 0000 0000 	.long.LASF99
 5434 0996 0B        	.byte0xb
 5435 0997 026E      	.word0x26e
 5436 0999 0000 0813 	.long0x813
 5437 099d 1E        	.uleb128 0x1e
 5438 099e 0000 0000 	.long.LASF148
 5439 09a2 0B        	.byte0xb
 5440 09a3 0277      	.word0x277
 5441 09a5 0000 0944 	.long0x944
 5442 09a9 00        	.byte0
 5443 09aa 09        	.uleb128 0x9
 5444 09ab 0000 00C5 	.long0xc5
 5445 09af 0000 09BA 	.long0x9ba
 5446 09b3 0A        	.uleb128 0xa
 5447 09b4 0000 00A0 	.long0xa0
 5448 09b8 18        	.byte0x18
 5449 09b9 00        	.byte0
 5450 09ba 0E        	.uleb128 0xe
 5451 09bb 0000 0000 	.long.LASF149
 5452 09bf 0F        	.uleb128 0xf
 5453 09c0 04        	.byte0x4
 5454 09c1 0000 09BA 	.long0x9ba
 5455 09c5 1F        	.uleb128 0x1f
 5456 09c6 0000 09D0 	.long0x9d0
68K GAS   			page 156


 5457 09ca 17        	.uleb128 0x17
 5458 09cb 0000 05E0 	.long0x5e0
 5459 09cf 00        	.byte0
 5460 09d0 0F        	.uleb128 0xf
 5461 09d1 04        	.byte0x4
 5462 09d2 0000 09C5 	.long0x9c5
 5463 09d6 0F        	.uleb128 0xf
 5464 09d7 04        	.byte0x4
 5465 09d8 0000 0333 	.long0x333
 5466 09dc 1F        	.uleb128 0x1f
 5467 09dd 0000 09E7 	.long0x9e7
 5468 09e1 17        	.uleb128 0x17
 5469 09e2 0000 0182 	.long0x182
 5470 09e6 00        	.byte0
 5471 09e7 0F        	.uleb128 0xf
 5472 09e8 04        	.byte0x4
 5473 09e9 0000 09ED 	.long0x9ed
 5474 09ed 0F        	.uleb128 0xf
 5475 09ee 04        	.byte0x4
 5476 09ef 0000 09DC 	.long0x9dc
 5477 09f3 09        	.uleb128 0x9
 5478 09f4 0000 0781 	.long0x781
 5479 09f8 0000 0A03 	.long0xa03
 5480 09fc 0A        	.uleb128 0xa
 5481 09fd 0000 00A0 	.long0xa0
 5482 0a01 02        	.byte0x2
 5483 0a02 00        	.byte0
 5484 0a03 20        	.uleb128 0x20
 5485 0a04 0000 0000 	.long.LASF150
 5486 0a08 0B        	.byte0xb
 5487 0a09 028D      	.word0x28d
 5488 0a0b 0000 09F3 	.long0x9f3
 5489 0a0f 20        	.uleb128 0x20
 5490 0a10 0000 0000 	.long.LASF151
 5491 0a14 0B        	.byte0xb
 5492 0a15 0307      	.word0x307
 5493 0a17 0000 05E0 	.long0x5e0
 5494 0a1b 20        	.uleb128 0x20
 5495 0a1c 0000 0000 	.long.LASF152
 5496 0a20 0B        	.byte0xb
 5497 0a21 0308      	.word0x308
 5498 0a23 0000 05E6 	.long0x5e6
 5499 0a27 20        	.uleb128 0x20
 5500 0a28 0000 0000 	.long.LASF153
 5501 0a2c 0B        	.byte0xb
 5502 0a2d 031A      	.word0x31a
 5503 0a2f 0000 0450 	.long0x450
 5504 0a33 0F        	.uleb128 0xf
 5505 0a34 04        	.byte0x4
 5506 0a35 0000 0A39 	.long0xa39
 5507 0a39 21        	.uleb128 0x21
 5508 0a3a 22        	.uleb128 0x22
 5509 0a3b 0000 0000 	.long.LASF154
 5510 0a3f 0C        	.byte0xc
 5511 0a40 63        	.byte0x63
 5512 0a41 0000 06F3 	.long0x6f3
 5513 0a45 22        	.uleb128 0x22
68K GAS   			page 157


 5514 0a46 0000 0000 	.long.LASF155
 5515 0a4a 0D        	.byte0xd
 5516 0a4b 9A        	.byte0x9a
 5517 0a4c 0000 005B 	.long0x5b
 5518 0a50 22        	.uleb128 0x22
 5519 0a51 0000 0000 	.long.LASF156
 5520 0a55 0D        	.byte0xd
 5521 0a56 9B        	.byte0x9b
 5522 0a57 0000 0182 	.long0x182
 5523 0a5b 09        	.uleb128 0x9
 5524 0a5c 0000 06F3 	.long0x6f3
 5525 0a60 0000 0A6B 	.long0xa6b
 5526 0a64 0A        	.uleb128 0xa
 5527 0a65 0000 00A0 	.long0xa0
 5528 0a69 01        	.byte0x1
 5529 0a6a 00        	.byte0
 5530 0a6b 22        	.uleb128 0x22
 5531 0a6c 0000 0000 	.long.LASF157
 5532 0a70 0D        	.byte0xd
 5533 0a71 9E        	.byte0x9e
 5534 0a72 0000 0A5B 	.long0xa5b
 5535 0a76 09        	.uleb128 0x9
 5536 0a77 0000 00C5 	.long0xc5
 5537 0a7b 0000 0A86 	.long0xa86
 5538 0a7f 0A        	.uleb128 0xa
 5539 0a80 0000 00A0 	.long0xa0
 5540 0a84 3F        	.byte0x3f
 5541 0a85 00        	.byte0
 5542 0a86 1C        	.uleb128 0x1c
 5543 0a87 BC        	.byte0xbc
 5544 0a88 01        	.byte0x1
 5545 0a89 010C      	.word0x10c
 5546 0a8b 0000 0BA1 	.long0xba1
 5547 0a8f 19        	.uleb128 0x19
 5548 0a90 0000 0000 	.long.LASF158
 5549 0a94 01        	.byte0x1
 5550 0a95 010E      	.word0x10e
 5551 0a97 0000 0090 	.long0x90
 5552 0a9b 00        	.byte0
 5553 0a9c 19        	.uleb128 0x19
 5554 0a9d 0000 0000 	.long.LASF159
 5555 0aa1 01        	.byte0x1
 5556 0aa2 0110      	.word0x110
 5557 0aa4 0000 0090 	.long0x90
 5558 0aa8 04        	.byte0x4
 5559 0aa9 19        	.uleb128 0x19
 5560 0aaa 0000 0000 	.long.LASF160
 5561 0aae 01        	.byte0x1
 5562 0aaf 0113      	.word0x113
 5563 0ab1 0000 0132 	.long0x132
 5564 0ab5 08        	.byte0x8
 5565 0ab6 19        	.uleb128 0x19
 5566 0ab7 0000 0000 	.long.LASF161
 5567 0abb 01        	.byte0x1
 5568 0abc 0115      	.word0x115
 5569 0abe 0000 0132 	.long0x132
 5570 0ac2 1C        	.byte0x1c
68K GAS   			page 158


 5571 0ac3 19        	.uleb128 0x19
 5572 0ac4 0000 0000 	.long.LASF162
 5573 0ac8 01        	.byte0x1
 5574 0ac9 0117      	.word0x117
 5575 0acb 0000 0A76 	.long0xa76
 5576 0acf 30        	.byte0x30
 5577 0ad0 19        	.uleb128 0x19
 5578 0ad1 0000 0000 	.long.LASF163
 5579 0ad5 01        	.byte0x1
 5580 0ad6 011A      	.word0x11a
 5581 0ad8 0000 0090 	.long0x90
 5582 0adc 70        	.byte0x70
 5583 0add 19        	.uleb128 0x19
 5584 0ade 0000 0000 	.long.LASF164
 5585 0ae2 01        	.byte0x1
 5586 0ae3 011C      	.word0x11c
 5587 0ae5 0000 0090 	.long0x90
 5588 0ae9 74        	.byte0x74
 5589 0aea 19        	.uleb128 0x19
 5590 0aeb 0000 0000 	.long.LASF165
 5591 0aef 01        	.byte0x1
 5592 0af0 011E      	.word0x11e
 5593 0af2 0000 0090 	.long0x90
 5594 0af6 78        	.byte0x78
 5595 0af7 19        	.uleb128 0x19
 5596 0af8 0000 0000 	.long.LASF166
 5597 0afc 01        	.byte0x1
 5598 0afd 0120      	.word0x120
 5599 0aff 0000 0090 	.long0x90
 5600 0b03 7C        	.byte0x7c
 5601 0b04 19        	.uleb128 0x19
 5602 0b05 0000 0000 	.long.LASF167
 5603 0b09 01        	.byte0x1
 5604 0b0a 0122      	.word0x122
 5605 0b0c 0000 0090 	.long0x90
 5606 0b10 80        	.byte0x80
 5607 0b11 19        	.uleb128 0x19
 5608 0b12 0000 0000 	.long.LASF168
 5609 0b16 01        	.byte0x1
 5610 0b17 0124      	.word0x124
 5611 0b19 0000 0090 	.long0x90
 5612 0b1d 84        	.byte0x84
 5613 0b1e 19        	.uleb128 0x19
 5614 0b1f 0000 0000 	.long.LASF169
 5615 0b23 01        	.byte0x1
 5616 0b24 0126      	.word0x126
 5617 0b26 0000 0090 	.long0x90
 5618 0b2a 88        	.byte0x88
 5619 0b2b 19        	.uleb128 0x19
 5620 0b2c 0000 0000 	.long.LASF170
 5621 0b30 01        	.byte0x1
 5622 0b31 0128      	.word0x128
 5623 0b33 0000 0090 	.long0x90
 5624 0b37 8C        	.byte0x8c
 5625 0b38 19        	.uleb128 0x19
 5626 0b39 0000 0000 	.long.LASF171
 5627 0b3d 01        	.byte0x1
68K GAS   			page 159


 5628 0b3e 012A      	.word0x12a
 5629 0b40 0000 0090 	.long0x90
 5630 0b44 90        	.byte0x90
 5631 0b45 19        	.uleb128 0x19
 5632 0b46 0000 0000 	.long.LASF172
 5633 0b4a 01        	.byte0x1
 5634 0b4b 012C      	.word0x12c
 5635 0b4d 0000 0090 	.long0x90
 5636 0b51 94        	.byte0x94
 5637 0b52 19        	.uleb128 0x19
 5638 0b53 0000 0000 	.long.LASF173
 5639 0b57 01        	.byte0x1
 5640 0b58 012E      	.word0x12e
 5641 0b5a 0000 0079 	.long0x79
 5642 0b5e 98        	.byte0x98
 5643 0b5f 19        	.uleb128 0x19
 5644 0b60 0000 0000 	.long.LASF174
 5645 0b64 01        	.byte0x1
 5646 0b65 0131      	.word0x131
 5647 0b67 0000 0079 	.long0x79
 5648 0b6b 9A        	.byte0x9a
 5649 0b6c 19        	.uleb128 0x19
 5650 0b6d 0000 0000 	.long.LASF175
 5651 0b71 01        	.byte0x1
 5652 0b72 0133      	.word0x133
 5653 0b74 0000 0090 	.long0x90
 5654 0b78 9C        	.byte0x9c
 5655 0b79 19        	.uleb128 0x19
 5656 0b7a 0000 0000 	.long.LASF176
 5657 0b7e 01        	.byte0x1
 5658 0b7f 0135      	.word0x135
 5659 0b81 0000 0090 	.long0x90
 5660 0b85 A0        	.byte0xa0
 5661 0b86 19        	.uleb128 0x19
 5662 0b87 0000 0000 	.long.LASF177
 5663 0b8b 01        	.byte0x1
 5664 0b8c 0137      	.word0x137
 5665 0b8e 0000 0132 	.long0x132
 5666 0b92 A4        	.byte0xa4
 5667 0b93 19        	.uleb128 0x19
 5668 0b94 0000 0000 	.long.LASF178
 5669 0b98 01        	.byte0x1
 5670 0b99 0139      	.word0x139
 5671 0b9b 0000 0090 	.long0x90
 5672 0b9f B8        	.byte0xb8
 5673 0ba0 00        	.byte0
 5674 0ba1 05        	.uleb128 0x5
 5675 0ba2 0000 0000 	.long.LASF179
 5676 0ba6 01        	.byte0x1
 5677 0ba7 013C      	.word0x13c
 5678 0ba9 0000 0A86 	.long0xa86
 5679 0bad 1C        	.uleb128 0x1c
 5680 0bae 34        	.byte0x34
 5681 0baf 01        	.byte0x1
 5682 0bb0 0141      	.word0x141
 5683 0bb2 0000 0BF8 	.long0xbf8
 5684 0bb6 19        	.uleb128 0x19
68K GAS   			page 160


 5685 0bb7 0000 0000 	.long.LASF180
 5686 0bbb 01        	.byte0x1
 5687 0bbc 0143      	.word0x143
 5688 0bbe 0000 0090 	.long0x90
 5689 0bc2 00        	.byte0
 5690 0bc3 19        	.uleb128 0x19
 5691 0bc4 0000 0000 	.long.LASF176
 5692 0bc8 01        	.byte0x1
 5693 0bc9 0144      	.word0x144
 5694 0bcb 0000 0090 	.long0x90
 5695 0bcf 04        	.byte0x4
 5696 0bd0 19        	.uleb128 0x19
 5697 0bd1 0000 0000 	.long.LASF181
 5698 0bd5 01        	.byte0x1
 5699 0bd6 0145      	.word0x145
 5700 0bd8 0000 0BF8 	.long0xbf8
 5701 0bdc 08        	.byte0x8
 5702 0bdd 19        	.uleb128 0x19
 5703 0bde 0000 0000 	.long.LASF158
 5704 0be2 01        	.byte0x1
 5705 0be3 0146      	.word0x146
 5706 0be5 0000 0090 	.long0x90
 5707 0be9 1C        	.byte0x1c
 5708 0bea 19        	.uleb128 0x19
 5709 0beb 0000 0000 	.long.LASF182
 5710 0bef 01        	.byte0x1
 5711 0bf0 0147      	.word0x147
 5712 0bf2 0000 0BF8 	.long0xbf8
 5713 0bf6 20        	.byte0x20
 5714 0bf7 00        	.byte0
 5715 0bf8 09        	.uleb128 0x9
 5716 0bf9 0000 0069 	.long0x69
 5717 0bfd 0000 0C08 	.long0xc08
 5718 0c01 0A        	.uleb128 0xa
 5719 0c02 0000 00A0 	.long0xa0
 5720 0c06 13        	.byte0x13
 5721 0c07 00        	.byte0
 5722 0c08 05        	.uleb128 0x5
 5723 0c09 0000 0000 	.long.LASF183
 5724 0c0d 01        	.byte0x1
 5725 0c0e 0149      	.word0x149
 5726 0c10 0000 0BAD 	.long0xbad
 5727 0c14 05        	.uleb128 0x5
 5728 0c15 0000 0000 	.long.LASF184
 5729 0c19 01        	.byte0x1
 5730 0c1a 0166      	.word0x166
 5731 0c1c 0000 00AE 	.long0xae
 5732 0c20 09        	.uleb128 0x9
 5733 0c21 0000 00C5 	.long0xc5
 5734 0c25 0000 0C30 	.long0xc30
 5735 0c29 0A        	.uleb128 0xa
 5736 0c2a 0000 00A0 	.long0xa0
 5737 0c2e 25        	.byte0x25
 5738 0c2f 00        	.byte0
 5739 0c30 05        	.uleb128 0x5
 5740 0c31 0000 0000 	.long.LASF185
 5741 0c35 01        	.byte0x1
68K GAS   			page 161


 5742 0c36 0174      	.word0x174
 5743 0c38 0000 0466 	.long0x466
 5744 0c3c 07        	.uleb128 0x7
 5745 0c3d 08        	.byte0x8
 5746 0c3e 0E        	.byte0xe
 5747 0c3f 4D        	.byte0x4d
 5748 0c40 0000 0C5D 	.long0xc5d
 5749 0c44 08        	.uleb128 0x8
 5750 0c45 0000 0000 	.long.LASF186
 5751 0c49 0E        	.byte0xe
 5752 0c4a 4F        	.byte0x4f
 5753 0c4b 0000 0090 	.long0x90
 5754 0c4f 00        	.byte0
 5755 0c50 08        	.uleb128 0x8
 5756 0c51 0000 0000 	.long.LASF187
 5757 0c55 0E        	.byte0xe
 5758 0c56 50        	.byte0x50
 5759 0c57 0000 0090 	.long0x90
 5760 0c5b 04        	.byte0x4
 5761 0c5c 00        	.byte0
 5762 0c5d 02        	.uleb128 0x2
 5763 0c5e 0000 0000 	.long.LASF188
 5764 0c62 0E        	.byte0xe
 5765 0c63 51        	.byte0x51
 5766 0c64 0000 0C3C 	.long0xc3c
 5767 0c68 07        	.uleb128 0x7
 5768 0c69 20        	.byte0x20
 5769 0c6a 0E        	.byte0xe
 5770 0c6b 92        	.byte0x92
 5771 0c6c 0000 0CB9 	.long0xcb9
 5772 0c70 08        	.uleb128 0x8
 5773 0c71 0000 0000 	.long.LASF189
 5774 0c75 0E        	.byte0xe
 5775 0c76 94        	.byte0x94
 5776 0c77 0000 0090 	.long0x90
 5777 0c7b 00        	.byte0
 5778 0c7c 08        	.uleb128 0x8
 5779 0c7d 0000 0000 	.long.LASF190
 5780 0c81 0E        	.byte0xe
 5781 0c82 95        	.byte0x95
 5782 0c83 0000 003E 	.long0x3e
 5783 0c87 04        	.byte0x4
 5784 0c88 08        	.uleb128 0x8
 5785 0c89 0000 0000 	.long.LASF191
 5786 0c8d 0E        	.byte0xe
 5787 0c8e 96        	.byte0x96
 5788 0c8f 0000 0079 	.long0x79
 5789 0c93 06        	.byte0x6
 5790 0c94 08        	.uleb128 0x8
 5791 0c95 0000 0000 	.long.LASF192
 5792 0c99 0E        	.byte0xe
 5793 0c9a 97        	.byte0x97
 5794 0c9b 0000 0C5D 	.long0xc5d
 5795 0c9f 08        	.byte0x8
 5796 0ca0 08        	.uleb128 0x8
 5797 0ca1 0000 0000 	.long.LASF193
 5798 0ca5 0E        	.byte0xe
68K GAS   			page 162


 5799 0ca6 98        	.byte0x98
 5800 0ca7 0000 0C5D 	.long0xc5d
 5801 0cab 10        	.byte0x10
 5802 0cac 08        	.uleb128 0x8
 5803 0cad 0000 0000 	.long.LASF194
 5804 0cb1 0E        	.byte0xe
 5805 0cb2 99        	.byte0x99
 5806 0cb3 0000 0C5D 	.long0xc5d
 5807 0cb7 18        	.byte0x18
 5808 0cb8 00        	.byte0
 5809 0cb9 02        	.uleb128 0x2
 5810 0cba 0000 0000 	.long.LASF195
 5811 0cbe 0E        	.byte0xe
 5812 0cbf 9B        	.byte0x9b
 5813 0cc0 0000 0C68 	.long0xc68
 5814 0cc4 09        	.uleb128 0x9
 5815 0cc5 0000 0090 	.long0x90
 5816 0cc9 0000 0CD4 	.long0xcd4
 5817 0ccd 0A        	.uleb128 0xa
 5818 0cce 0000 00A0 	.long0xa0
 5819 0cd2 1F        	.byte0x1f
 5820 0cd3 00        	.byte0
 5821 0cd4 09        	.uleb128 0x9
 5822 0cd5 0000 0069 	.long0x69
 5823 0cd9 0000 0CE4 	.long0xce4
 5824 0cdd 0A        	.uleb128 0xa
 5825 0cde 0000 00A0 	.long0xa0
 5826 0ce2 01        	.byte0x1
 5827 0ce3 00        	.byte0
 5828 0ce4 07        	.uleb128 0x7
 5829 0ce5 02        	.byte0x2
 5830 0ce6 0F        	.byte0xf
 5831 0ce7 B1        	.byte0xb1
 5832 0ce8 0000 0D05 	.long0xd05
 5833 0cec 08        	.uleb128 0x8
 5834 0ced 0000 0000 	.long.LASF174
 5835 0cf1 0F        	.byte0xf
 5836 0cf2 B2        	.byte0xb2
 5837 0cf3 0000 0069 	.long0x69
 5838 0cf7 00        	.byte0
 5839 0cf8 08        	.uleb128 0x8
 5840 0cf9 0000 0000 	.long.LASF196
 5841 0cfd 0F        	.byte0xf
 5842 0cfe B3        	.byte0xb3
 5843 0cff 0000 0069 	.long0x69
 5844 0d03 01        	.byte0x1
 5845 0d04 00        	.byte0
 5846 0d05 02        	.uleb128 0x2
 5847 0d06 0000 0000 	.long.LASF197
 5848 0d0a 0F        	.byte0xf
 5849 0d0b B4        	.byte0xb4
 5850 0d0c 0000 0CE4 	.long0xce4
 5851 0d10 22        	.uleb128 0x22
 5852 0d11 0000 0000 	.long.LASF198
 5853 0d15 0F        	.byte0xf
 5854 0d16 B6        	.byte0xb6
 5855 0d17 0000 0D05 	.long0xd05
68K GAS   			page 163


 5856 0d1b 09        	.uleb128 0x9
 5857 0d1c 0000 0069 	.long0x69
 5858 0d20 0000 0D2B 	.long0xd2b
 5859 0d24 0A        	.uleb128 0xa
 5860 0d25 0000 00A0 	.long0xa0
 5861 0d29 0B        	.byte0xb
 5862 0d2a 00        	.byte0
 5863 0d2b 1C        	.uleb128 0x1c
 5864 0d2c 20        	.byte0x20
 5865 0d2d 10        	.byte0x10
 5866 0d2e 047C      	.word0x47c
 5867 0d30 0000 0D76 	.long0xd76
 5868 0d34 19        	.uleb128 0x19
 5869 0d35 0000 0000 	.long.LASF182
 5870 0d39 10        	.byte0x10
 5871 0d3a 047D      	.word0x47d
 5872 0d3c 0000 0132 	.long0x132
 5873 0d40 00        	.byte0
 5874 0d41 19        	.uleb128 0x19
 5875 0d42 0000 0000 	.long.LASF199
 5876 0d46 10        	.byte0x10
 5877 0d47 047F      	.word0x47f
 5878 0d49 0000 0079 	.long0x79
 5879 0d4d 14        	.byte0x14
 5880 0d4e 19        	.uleb128 0x19
 5881 0d4f 0000 0000 	.long.LASF200
 5882 0d53 10        	.byte0x10
 5883 0d54 0481      	.word0x481
 5884 0d56 0000 0079 	.long0x79
 5885 0d5a 16        	.byte0x16
 5886 0d5b 19        	.uleb128 0x19
 5887 0d5c 0000 0000 	.long.LASF201
 5888 0d60 10        	.byte0x10
 5889 0d61 0483      	.word0x483
 5890 0d63 0000 0090 	.long0x90
 5891 0d67 18        	.byte0x18
 5892 0d68 19        	.uleb128 0x19
 5893 0d69 0000 0000 	.long.LASF202
 5894 0d6d 10        	.byte0x10
 5895 0d6e 0485      	.word0x485
 5896 0d70 0000 0090 	.long0x90
 5897 0d74 1C        	.byte0x1c
 5898 0d75 00        	.byte0
 5899 0d76 05        	.uleb128 0x5
 5900 0d77 0000 0000 	.long.LASF203
 5901 0d7b 10        	.byte0x10
 5902 0d7c 0488      	.word0x488
 5903 0d7e 0000 0D2B 	.long0xd2b
 5904 0d82 1C        	.uleb128 0x1c
 5905 0d83 9C        	.byte0x9c
 5906 0d84 10        	.byte0x10
 5907 0d85 048E      	.word0x48e
 5908 0d87 0000 0DC0 	.long0xdc0
 5909 0d8b 19        	.uleb128 0x19
 5910 0d8c 0000 0000 	.long.LASF204
 5911 0d90 10        	.byte0x10
 5912 0d91 048F      	.word0x48f
68K GAS   			page 164


 5913 0d93 0000 0D76 	.long0xd76
 5914 0d97 00        	.byte0
 5915 0d98 19        	.uleb128 0x19
 5916 0d99 0000 0000 	.long.LASF205
 5917 0d9d 10        	.byte0x10
 5918 0d9e 0490      	.word0x490
 5919 0da0 0000 0DC0 	.long0xdc0
 5920 0da4 20        	.byte0x20
 5921 0da5 19        	.uleb128 0x19
 5922 0da6 0000 0000 	.long.LASF206
 5923 0daa 10        	.byte0x10
 5924 0dab 0492      	.word0x492
 5925 0dad 0000 0069 	.long0x69
 5926 0db1 9A        	.byte0x9a
 5927 0db2 19        	.uleb128 0x19
 5928 0db3 0000 0000 	.long.LASF207
 5929 0db7 10        	.byte0x10
 5930 0db8 0494      	.word0x494
 5931 0dba 0000 0069 	.long0x69
 5932 0dbe 9B        	.byte0x9b
 5933 0dbf 00        	.byte0
 5934 0dc0 09        	.uleb128 0x9
 5935 0dc1 0000 00C5 	.long0xc5
 5936 0dc5 0000 0DD0 	.long0xdd0
 5937 0dc9 0A        	.uleb128 0xa
 5938 0dca 0000 00A0 	.long0xa0
 5939 0dce 79        	.byte0x79
 5940 0dcf 00        	.byte0
 5941 0dd0 05        	.uleb128 0x5
 5942 0dd1 0000 0000 	.long.LASF208
 5943 0dd5 10        	.byte0x10
 5944 0dd6 0496      	.word0x496
 5945 0dd8 0000 0D82 	.long0xd82
 5946 0ddc 1C        	.uleb128 0x1c
 5947 0ddd A8        	.byte0xa8
 5948 0dde 10        	.byte0x10
 5949 0ddf 0498      	.word0x498
 5950 0de1 0000 0E00 	.long0xe00
 5951 0de5 19        	.uleb128 0x19
 5952 0de6 0000 0000 	.long.LASF209
 5953 0dea 10        	.byte0x10
 5954 0deb 0499      	.word0x499
 5955 0ded 0000 0D1B 	.long0xd1b
 5956 0df1 00        	.byte0
 5957 0df2 19        	.uleb128 0x19
 5958 0df3 0000 0000 	.long.LASF210
 5959 0df7 10        	.byte0x10
 5960 0df8 049A      	.word0x49a
 5961 0dfa 0000 0DD0 	.long0xdd0
 5962 0dfe 0C        	.byte0xc
 5963 0dff 00        	.byte0
 5964 0e00 05        	.uleb128 0x5
 5965 0e01 0000 0000 	.long.LASF211
 5966 0e05 10        	.byte0x10
 5967 0e06 049B      	.word0x49b
 5968 0e08 0000 0DDC 	.long0xddc
 5969 0e0c 07        	.uleb128 0x7
68K GAS   			page 165


 5970 0e0d 0C        	.byte0xc
 5971 0e0e 11        	.byte0x11
 5972 0e0f 7E        	.byte0x7e
 5973 0e10 0000 0E39 	.long0xe39
 5974 0e14 08        	.uleb128 0x8
 5975 0e15 0000 0000 	.long.LASF212
 5976 0e19 11        	.byte0x11
 5977 0e1a 80        	.byte0x80
 5978 0e1b 0000 0090 	.long0x90
 5979 0e1f 00        	.byte0
 5980 0e20 08        	.uleb128 0x8
 5981 0e21 0000 0000 	.long.LASF213
 5982 0e25 11        	.byte0x11
 5983 0e26 81        	.byte0x81
 5984 0e27 0000 0090 	.long0x90
 5985 0e2b 04        	.byte0x4
 5986 0e2c 08        	.uleb128 0x8
 5987 0e2d 0000 0000 	.long.LASF214
 5988 0e31 11        	.byte0x11
 5989 0e32 82        	.byte0x82
 5990 0e33 0000 0050 	.long0x50
 5991 0e37 08        	.byte0x8
 5992 0e38 00        	.byte0
 5993 0e39 02        	.uleb128 0x2
 5994 0e3a 0000 0000 	.long.LASF215
 5995 0e3e 11        	.byte0x11
 5996 0e3f 84        	.byte0x84
 5997 0e40 0000 0E0C 	.long0xe0c
 5998 0e44 07        	.uleb128 0x7
 5999 0e45 78        	.byte0x78
 6000 0e46 11        	.byte0x11
 6001 0e47 8B        	.byte0x8b
 6002 0e48 0000 0EAD 	.long0xead
 6003 0e4c 08        	.uleb128 0x8
 6004 0e4d 0000 0000 	.long.LASF160
 6005 0e51 11        	.byte0x11
 6006 0e52 8D        	.byte0x8d
 6007 0e53 0000 0132 	.long0x132
 6008 0e57 00        	.byte0
 6009 0e58 08        	.uleb128 0x8
 6010 0e59 0000 0000 	.long.LASF161
 6011 0e5d 11        	.byte0x11
 6012 0e5e 8E        	.byte0x8e
 6013 0e5f 0000 0132 	.long0x132
 6014 0e63 14        	.byte0x14
 6015 0e64 08        	.uleb128 0x8
 6016 0e65 0000 0000 	.long.LASF162
 6017 0e69 11        	.byte0x11
 6018 0e6a 8F        	.byte0x8f
 6019 0e6b 0000 0A76 	.long0xa76
 6020 0e6f 28        	.byte0x28
 6021 0e70 08        	.uleb128 0x8
 6022 0e71 0000 0000 	.long.LASF163
 6023 0e75 11        	.byte0x11
 6024 0e76 91        	.byte0x91
 6025 0e77 0000 0090 	.long0x90
 6026 0e7b 68        	.byte0x68
68K GAS   			page 166


 6027 0e7c 08        	.uleb128 0x8
 6028 0e7d 0000 0000 	.long.LASF172
 6029 0e81 11        	.byte0x11
 6030 0e82 92        	.byte0x92
 6031 0e83 0000 00AE 	.long0xae
 6032 0e87 6C        	.byte0x6c
 6033 0e88 08        	.uleb128 0x8
 6034 0e89 0000 0000 	.long.LASF164
 6035 0e8d 11        	.byte0x11
 6036 0e8e 93        	.byte0x93
 6037 0e8f 0000 0090 	.long0x90
 6038 0e93 70        	.byte0x70
 6039 0e94 08        	.uleb128 0x8
 6040 0e95 0000 0000 	.long.LASF173
 6041 0e99 11        	.byte0x11
 6042 0e9a 95        	.byte0x95
 6043 0e9b 0000 0079 	.long0x79
 6044 0e9f 74        	.byte0x74
 6045 0ea0 08        	.uleb128 0x8
 6046 0ea1 0000 0000 	.long.LASF174
 6047 0ea5 11        	.byte0x11
 6048 0ea6 96        	.byte0x96
 6049 0ea7 0000 0079 	.long0x79
 6050 0eab 76        	.byte0x76
 6051 0eac 00        	.byte0
 6052 0ead 02        	.uleb128 0x2
 6053 0eae 0000 0000 	.long.LASF216
 6054 0eb2 11        	.byte0x11
 6055 0eb3 98        	.byte0x98
 6056 0eb4 0000 0E44 	.long0xe44
 6057 0eb8 07        	.uleb128 0x7
 6058 0eb9 1C        	.byte0x1c
 6059 0eba 11        	.byte0x11
 6060 0ebb 9F        	.byte0x9f
 6061 0ebc 0000 0EE5 	.long0xee5
 6062 0ec0 08        	.uleb128 0x8
 6063 0ec1 0000 0000 	.long.LASF175
 6064 0ec5 11        	.byte0x11
 6065 0ec6 A1        	.byte0xa1
 6066 0ec7 0000 0090 	.long0x90
 6067 0ecb 00        	.byte0
 6068 0ecc 08        	.uleb128 0x8
 6069 0ecd 0000 0000 	.long.LASF177
 6070 0ed1 11        	.byte0x11
 6071 0ed2 A2        	.byte0xa2
 6072 0ed3 0000 0132 	.long0x132
 6073 0ed7 04        	.byte0x4
 6074 0ed8 08        	.uleb128 0x8
 6075 0ed9 0000 0000 	.long.LASF178
 6076 0edd 11        	.byte0x11
 6077 0ede A3        	.byte0xa3
 6078 0edf 0000 0090 	.long0x90
 6079 0ee3 18        	.byte0x18
 6080 0ee4 00        	.byte0
 6081 0ee5 02        	.uleb128 0x2
 6082 0ee6 0000 0000 	.long.LASF217
 6083 0eea 11        	.byte0x11
68K GAS   			page 167


 6084 0eeb A5        	.byte0xa5
 6085 0eec 0000 0EB8 	.long0xeb8
 6086 0ef0 07        	.uleb128 0x7
 6087 0ef1 A8        	.byte0xa8
 6088 0ef2 11        	.byte0x11
 6089 0ef3 AC        	.byte0xac
 6090 0ef4 0000 0F35 	.long0xf35
 6091 0ef8 08        	.uleb128 0x8
 6092 0ef9 0000 0000 	.long.LASF218
 6093 0efd 11        	.byte0x11
 6094 0efe AE        	.byte0xae
 6095 0eff 0000 00B9 	.long0xb9
 6096 0f03 00        	.byte0
 6097 0f04 08        	.uleb128 0x8
 6098 0f05 0000 0000 	.long.LASF159
 6099 0f09 11        	.byte0x11
 6100 0f0a AF        	.byte0xaf
 6101 0f0b 0000 0090 	.long0x90
 6102 0f0f 04        	.byte0x4
 6103 0f10 08        	.uleb128 0x8
 6104 0f11 0000 0000 	.long.LASF219
 6105 0f15 11        	.byte0x11
 6106 0f16 B0        	.byte0xb0
 6107 0f17 0000 0EAD 	.long0xead
 6108 0f1b 08        	.byte0x8
 6109 0f1c 08        	.uleb128 0x8
 6110 0f1d 0000 0000 	.long.LASF220
 6111 0f21 11        	.byte0x11
 6112 0f22 B1        	.byte0xb1
 6113 0f23 0000 0E39 	.long0xe39
 6114 0f27 80        	.byte0x80
 6115 0f28 08        	.uleb128 0x8
 6116 0f29 0000 0000 	.long.LASF221
 6117 0f2d 11        	.byte0x11
 6118 0f2e B2        	.byte0xb2
 6119 0f2f 0000 0EE5 	.long0xee5
 6120 0f33 8C        	.byte0x8c
 6121 0f34 00        	.byte0
 6122 0f35 02        	.uleb128 0x2
 6123 0f36 0000 0000 	.long.LASF222
 6124 0f3a 11        	.byte0x11
 6125 0f3b B4        	.byte0xb4
 6126 0f3c 0000 0EF0 	.long0xef0
 6127 0f40 07        	.uleb128 0x7
 6128 0f41 24        	.byte0x24
 6129 0f42 11        	.byte0x11
 6130 0f43 BB        	.byte0xbb
 6131 0f44 0000 0F85 	.long0xf85
 6132 0f48 08        	.uleb128 0x8
 6133 0f49 0000 0000 	.long.LASF218
 6134 0f4d 11        	.byte0x11
 6135 0f4e BD        	.byte0xbd
 6136 0f4f 0000 00B9 	.long0xb9
 6137 0f53 00        	.byte0
 6138 0f54 08        	.uleb128 0x8
 6139 0f55 0000 0000 	.long.LASF158
 6140 0f59 11        	.byte0x11
68K GAS   			page 168


 6141 0f5a BE        	.byte0xbe
 6142 0f5b 0000 0090 	.long0x90
 6143 0f5f 04        	.byte0x4
 6144 0f60 08        	.uleb128 0x8
 6145 0f61 0000 0000 	.long.LASF180
 6146 0f65 11        	.byte0x11
 6147 0f66 BF        	.byte0xbf
 6148 0f67 0000 0090 	.long0x90
 6149 0f6b 08        	.byte0x8
 6150 0f6c 08        	.uleb128 0x8
 6151 0f6d 0000 0000 	.long.LASF176
 6152 0f71 11        	.byte0x11
 6153 0f72 C0        	.byte0xc0
 6154 0f73 0000 0090 	.long0x90
 6155 0f77 0C        	.byte0xc
 6156 0f78 08        	.uleb128 0x8
 6157 0f79 0000 0000 	.long.LASF181
 6158 0f7d 11        	.byte0x11
 6159 0f7e C1        	.byte0xc1
 6160 0f7f 0000 0132 	.long0x132
 6161 0f83 10        	.byte0x10
 6162 0f84 00        	.byte0
 6163 0f85 02        	.uleb128 0x2
 6164 0f86 0000 0000 	.long.LASF223
 6165 0f8a 11        	.byte0x11
 6166 0f8b C4        	.byte0xc4
 6167 0f8c 0000 0F40 	.long0xf40
 6168 0f90 07        	.uleb128 0x7
 6169 0f91 15        	.byte0x15
 6170 0f92 11        	.byte0x11
 6171 0f93 CA        	.byte0xca
 6172 0f94 0000 0FB1 	.long0xfb1
 6173 0f98 08        	.uleb128 0x8
 6174 0f99 0000 0000 	.long.LASF218
 6175 0f9d 11        	.byte0x11
 6176 0f9e CC        	.byte0xcc
 6177 0f9f 0000 00B9 	.long0xb9
 6178 0fa3 00        	.byte0
 6179 0fa4 08        	.uleb128 0x8
 6180 0fa5 0000 0000 	.long.LASF224
 6181 0fa9 11        	.byte0x11
 6182 0faa CD        	.byte0xcd
 6183 0fab 0000 0132 	.long0x132
 6184 0faf 01        	.byte0x1
 6185 0fb0 00        	.byte0
 6186 0fb1 02        	.uleb128 0x2
 6187 0fb2 0000 0000 	.long.LASF225
 6188 0fb6 11        	.byte0x11
 6189 0fb7 CE        	.byte0xce
 6190 0fb8 0000 0F90 	.long0xf90
 6191 0fbc 07        	.uleb128 0x7
 6192 0fbd 10        	.byte0x10
 6193 0fbe 12        	.byte0x12
 6194 0fbf 1E        	.byte0x1e
 6195 0fc0 0000 0FF5 	.long0xff5
 6196 0fc4 08        	.uleb128 0x8
 6197 0fc5 0000 0000 	.long.LASF226
68K GAS   			page 169


 6198 0fc9 12        	.byte0x12
 6199 0fca 20        	.byte0x20
 6200 0fcb 0000 0090 	.long0x90
 6201 0fcf 00        	.byte0
 6202 0fd0 08        	.uleb128 0x8
 6203 0fd1 0000 0000 	.long.LASF227
 6204 0fd5 12        	.byte0x12
 6205 0fd6 21        	.byte0x21
 6206 0fd7 0000 0090 	.long0x90
 6207 0fdb 04        	.byte0x4
 6208 0fdc 08        	.uleb128 0x8
 6209 0fdd 0000 0000 	.long.LASF228
 6210 0fe1 12        	.byte0x12
 6211 0fe2 22        	.byte0x22
 6212 0fe3 0000 0090 	.long0x90
 6213 0fe7 08        	.byte0x8
 6214 0fe8 08        	.uleb128 0x8
 6215 0fe9 0000 0000 	.long.LASF229
 6216 0fed 12        	.byte0x12
 6217 0fee 23        	.byte0x23
 6218 0fef 0000 0090 	.long0x90
 6219 0ff3 0C        	.byte0xc
 6220 0ff4 00        	.byte0
 6221 0ff5 02        	.uleb128 0x2
 6222 0ff6 0000 0000 	.long.LASF230
 6223 0ffa 12        	.byte0x12
 6224 0ffb 25        	.byte0x25
 6225 0ffc 0000 0FBC 	.long0xfbc
 6226 1000 23        	.uleb128 0x23
 6227 1001 0108      	.word0x108
 6228 1003 12        	.byte0x12
 6229 1004 2A        	.byte0x2a
 6230 1005 0000 109A 	.long0x109a
 6231 1009 08        	.uleb128 0x8
 6232 100a 0000 0000 	.long.LASF231
 6233 100e 12        	.byte0x12
 6234 100f 2C        	.byte0x2c
 6235 1010 0000 0090 	.long0x90
 6236 1014 00        	.byte0
 6237 1015 08        	.uleb128 0x8
 6238 1016 0000 0000 	.long.LASF232
 6239 101a 12        	.byte0x12
 6240 101b 2D        	.byte0x2d
 6241 101c 0000 0090 	.long0x90
 6242 1020 04        	.byte0x4
 6243 1021 08        	.uleb128 0x8
 6244 1022 0000 0000 	.long.LASF233
 6245 1026 12        	.byte0x12
 6246 1027 2E        	.byte0x2e
 6247 1028 0000 0090 	.long0x90
 6248 102c 08        	.byte0x8
 6249 102d 08        	.uleb128 0x8
 6250 102e 0000 0000 	.long.LASF234
 6251 1032 12        	.byte0x12
 6252 1033 2F        	.byte0x2f
 6253 1034 0000 0090 	.long0x90
 6254 1038 0C        	.byte0xc
68K GAS   			page 170


 6255 1039 08        	.uleb128 0x8
 6256 103a 0000 0000 	.long.LASF235
 6257 103e 12        	.byte0x12
 6258 103f 30        	.byte0x30
 6259 1040 0000 0090 	.long0x90
 6260 1044 10        	.byte0x10
 6261 1045 08        	.uleb128 0x8
 6262 1046 0000 0000 	.long.LASF236
 6263 104a 12        	.byte0x12
 6264 104b 31        	.byte0x31
 6265 104c 0000 0090 	.long0x90
 6266 1050 14        	.byte0x14
 6267 1051 08        	.uleb128 0x8
 6268 1052 0000 0000 	.long.LASF237
 6269 1056 12        	.byte0x12
 6270 1057 32        	.byte0x32
 6271 1058 0000 0FF5 	.long0xff5
 6272 105c 18        	.byte0x18
 6273 105d 08        	.uleb128 0x8
 6274 105e 0000 0000 	.long.LASF238
 6275 1062 12        	.byte0x12
 6276 1063 33        	.byte0x33
 6277 1064 0000 0C5D 	.long0xc5d
 6278 1068 28        	.byte0x28
 6279 1069 08        	.uleb128 0x8
 6280 106a 0000 0000 	.long.LASF239
 6281 106e 12        	.byte0x12
 6282 106f 34        	.byte0x34
 6283 1070 0000 109A 	.long0x109a
 6284 1074 30        	.byte0x30
 6285 1075 08        	.uleb128 0x8
 6286 1076 0000 0000 	.long.LASF240
 6287 107a 12        	.byte0x12
 6288 107b 35        	.byte0x35
 6289 107c 0000 0090 	.long0x90
 6290 1080 80        	.byte0x80
 6291 1081 08        	.uleb128 0x8
 6292 1082 0000 0000 	.long.LASF241
 6293 1086 12        	.byte0x12
 6294 1087 36        	.byte0x36
 6295 1088 0000 0090 	.long0x90
 6296 108c 84        	.byte0x84
 6297 108d 08        	.uleb128 0x8
 6298 108e 0000 0000 	.long.LASF242
 6299 1092 12        	.byte0x12
 6300 1093 37        	.byte0x37
 6301 1094 0000 0CC4 	.long0xcc4
 6302 1098 88        	.byte0x88
 6303 1099 00        	.byte0
 6304 109a 09        	.uleb128 0x9
 6305 109b 0000 00C5 	.long0xc5
 6306 109f 0000 10AA 	.long0x10aa
 6307 10a3 0A        	.uleb128 0xa
 6308 10a4 0000 00A0 	.long0xa0
 6309 10a8 4F        	.byte0x4f
 6310 10a9 00        	.byte0
 6311 10aa 02        	.uleb128 0x2
68K GAS   			page 171


 6312 10ab 0000 0000 	.long.LASF243
 6313 10af 12        	.byte0x12
 6314 10b0 38        	.byte0x38
 6315 10b1 0000 1000 	.long0x1000
 6316 10b5 07        	.uleb128 0x7
 6317 10b6 0C        	.byte0xc
 6318 10b7 13        	.byte0x13
 6319 10b8 1D        	.byte0x1d
 6320 10b9 0000 10E2 	.long0x10e2
 6321 10bd 08        	.uleb128 0x8
 6322 10be 0000 0000 	.long.LASF244
 6323 10c2 13        	.byte0x13
 6324 10c3 1E        	.byte0x1e
 6325 10c4 0000 0090 	.long0x90
 6326 10c8 00        	.byte0
 6327 10c9 08        	.uleb128 0x8
 6328 10ca 0000 0000 	.long.LASF245
 6329 10ce 13        	.byte0x13
 6330 10cf 1F        	.byte0x1f
 6331 10d0 0000 0090 	.long0x90
 6332 10d4 04        	.byte0x4
 6333 10d5 08        	.uleb128 0x8
 6334 10d6 0000 0000 	.long.LASF246
 6335 10da 13        	.byte0x13
 6336 10db 20        	.byte0x20
 6337 10dc 0000 0090 	.long0x90
 6338 10e0 08        	.byte0x8
 6339 10e1 00        	.byte0
 6340 10e2 02        	.uleb128 0x2
 6341 10e3 0000 0000 	.long.LASF247
 6342 10e7 13        	.byte0x13
 6343 10e8 21        	.byte0x21
 6344 10e9 0000 10B5 	.long0x10b5
 6345 10ed 07        	.uleb128 0x7
 6346 10ee 4C        	.byte0x4c
 6347 10ef 13        	.byte0x13
 6348 10f0 23        	.byte0x23
 6349 10f1 0000 11AA 	.long0x11aa
 6350 10f5 08        	.uleb128 0x8
 6351 10f6 0000 0000 	.long.LASF248
 6352 10fa 13        	.byte0x13
 6353 10fb 24        	.byte0x24
 6354 10fc 0000 0069 	.long0x69
 6355 1100 00        	.byte0
 6356 1101 08        	.uleb128 0x8
 6357 1102 0000 0000 	.long.LASF249
 6358 1106 13        	.byte0x13
 6359 1107 25        	.byte0x25
 6360 1108 0000 0069 	.long0x69
 6361 110c 01        	.byte0x1
 6362 110d 08        	.uleb128 0x8
 6363 110e 0000 0000 	.long.LASF250
 6364 1112 13        	.byte0x13
 6365 1113 26        	.byte0x26
 6366 1114 0000 0CD4 	.long0xcd4
 6367 1118 02        	.byte0x2
 6368 1119 08        	.uleb128 0x8
68K GAS   			page 172


 6369 111a 0000 0000 	.long.LASF251
 6370 111e 13        	.byte0x13
 6371 111f 27        	.byte0x27
 6372 1120 0000 0090 	.long0x90
 6373 1124 04        	.byte0x4
 6374 1125 08        	.uleb128 0x8
 6375 1126 0000 0000 	.long.LASF252
 6376 112a 13        	.byte0x13
 6377 112b 28        	.byte0x28
 6378 112c 0000 0090 	.long0x90
 6379 1130 08        	.byte0x8
 6380 1131 08        	.uleb128 0x8
 6381 1132 0000 0000 	.long.LASF253
 6382 1136 13        	.byte0x13
 6383 1137 29        	.byte0x29
 6384 1138 0000 0090 	.long0x90
 6385 113c 0C        	.byte0xc
 6386 113d 08        	.uleb128 0x8
 6387 113e 0000 0000 	.long.LASF254
 6388 1142 13        	.byte0x13
 6389 1143 2A        	.byte0x2a
 6390 1144 0000 0090 	.long0x90
 6391 1148 10        	.byte0x10
 6392 1149 08        	.uleb128 0x8
 6393 114a 0000 0000 	.long.LASF255
 6394 114e 13        	.byte0x13
 6395 114f 2B        	.byte0x2b
 6396 1150 0000 0090 	.long0x90
 6397 1154 14        	.byte0x14
 6398 1155 08        	.uleb128 0x8
 6399 1156 0000 0000 	.long.LASF256
 6400 115a 13        	.byte0x13
 6401 115b 2C        	.byte0x2c
 6402 115c 0000 0090 	.long0x90
 6403 1160 18        	.byte0x18
 6404 1161 08        	.uleb128 0x8
 6405 1162 0000 0000 	.long.LASF257
 6406 1166 13        	.byte0x13
 6407 1167 2D        	.byte0x2d
 6408 1168 0000 0090 	.long0x90
 6409 116c 1C        	.byte0x1c
 6410 116d 08        	.uleb128 0x8
 6411 116e 0000 0000 	.long.LASF258
 6412 1172 13        	.byte0x13
 6413 1173 2E        	.byte0x2e
 6414 1174 0000 0090 	.long0x90
 6415 1178 20        	.byte0x20
 6416 1179 08        	.uleb128 0x8
 6417 117a 0000 0000 	.long.LASF259
 6418 117e 13        	.byte0x13
 6419 117f 2F        	.byte0x2f
 6420 1180 0000 0090 	.long0x90
 6421 1184 24        	.byte0x24
 6422 1185 08        	.uleb128 0x8
 6423 1186 0000 0000 	.long.LASF260
 6424 118a 13        	.byte0x13
 6425 118b 30        	.byte0x30
68K GAS   			page 173


 6426 118c 0000 0090 	.long0x90
 6427 1190 28        	.byte0x28
 6428 1191 08        	.uleb128 0x8
 6429 1192 0000 0000 	.long.LASF261
 6430 1196 13        	.byte0x13
 6431 1197 31        	.byte0x31
 6432 1198 0000 11AA 	.long0x11aa
 6433 119c 2C        	.byte0x2c
 6434 119d 08        	.uleb128 0x8
 6435 119e 0000 0000 	.long.LASF262
 6436 11a2 13        	.byte0x13
 6437 11a3 32        	.byte0x32
 6438 11a4 0000 11AA 	.long0x11aa
 6439 11a8 3C        	.byte0x3c
 6440 11a9 00        	.byte0
 6441 11aa 09        	.uleb128 0x9
 6442 11ab 0000 0090 	.long0x90
 6443 11af 0000 11BA 	.long0x11ba
 6444 11b3 0A        	.uleb128 0xa
 6445 11b4 0000 00A0 	.long0xa0
 6446 11b8 03        	.byte0x3
 6447 11b9 00        	.byte0
 6448 11ba 02        	.uleb128 0x2
 6449 11bb 0000 0000 	.long.LASF263
 6450 11bf 13        	.byte0x13
 6451 11c0 33        	.byte0x33
 6452 11c1 0000 10ED 	.long0x10ed
 6453 11c5 24        	.uleb128 0x24
 6454 11c6 0001 D50C 	.long0x1d50c
 6455 11ca 13        	.byte0x13
 6456 11cb 35        	.byte0x35
 6457 11cc 0000 11E9 	.long0x11e9
 6458 11d0 08        	.uleb128 0x8
 6459 11d1 0000 0000 	.long.LASF264
 6460 11d5 13        	.byte0x13
 6461 11d6 36        	.byte0x36
 6462 11d7 0000 11BA 	.long0x11ba
 6463 11db 00        	.byte0
 6464 11dc 08        	.uleb128 0x8
 6465 11dd 0000 0000 	.long.LASF265
 6466 11e1 13        	.byte0x13
 6467 11e2 37        	.byte0x37
 6468 11e3 0000 11E9 	.long0x11e9
 6469 11e7 4C        	.byte0x4c
 6470 11e8 00        	.byte0
 6471 11e9 09        	.uleb128 0x9
 6472 11ea 0000 10E2 	.long0x10e2
 6473 11ee 0000 11FA 	.long0x11fa
 6474 11f2 25        	.uleb128 0x25
 6475 11f3 0000 00A0 	.long0xa0
 6476 11f7 270F      	.word0x270f
 6477 11f9 00        	.byte0
 6478 11fa 02        	.uleb128 0x2
 6479 11fb 0000 0000 	.long.LASF266
 6480 11ff 13        	.byte0x13
 6481 1200 38        	.byte0x38
 6482 1201 0000 11C5 	.long0x11c5
68K GAS   			page 174


 6483 1205 23        	.uleb128 0x23
 6484 1206 0D28      	.word0xd28
 6485 1208 14        	.byte0x14
 6486 1209 1F        	.byte0x1f
 6487 120a 0000 1257 	.long0x1257
 6488 120e 08        	.uleb128 0x8
 6489 120f 0000 0000 	.long.LASF267
 6490 1213 14        	.byte0x14
 6491 1214 20        	.byte0x20
 6492 1215 0000 0079 	.long0x79
 6493 1219 00        	.byte0
 6494 121a 08        	.uleb128 0x8
 6495 121b 0000 0000 	.long.LASF268
 6496 121f 14        	.byte0x14
 6497 1220 21        	.byte0x21
 6498 1221 0000 0079 	.long0x79
 6499 1225 02        	.byte0x2
 6500 1226 08        	.uleb128 0x8
 6501 1227 0000 0000 	.long.LASF269
 6502 122b 14        	.byte0x14
 6503 122c 22        	.byte0x22
 6504 122d 0000 0069 	.long0x69
 6505 1231 04        	.byte0x4
 6506 1232 08        	.uleb128 0x8
 6507 1233 0000 0000 	.long.LASF270
 6508 1237 14        	.byte0x14
 6509 1238 23        	.byte0x23
 6510 1239 0000 0069 	.long0x69
 6511 123d 05        	.byte0x5
 6512 123e 08        	.uleb128 0x8
 6513 123f 0000 0000 	.long.LASF271
 6514 1243 14        	.byte0x14
 6515 1244 24        	.byte0x24
 6516 1245 0000 0079 	.long0x79
 6517 1249 06        	.byte0x6
 6518 124a 08        	.uleb128 0x8
 6519 124b 0000 0000 	.long.LASF272
 6520 124f 14        	.byte0x14
 6521 1250 25        	.byte0x25
 6522 1251 0000 1257 	.long0x1257
 6523 1255 08        	.byte0x8
 6524 1256 00        	.byte0
 6525 1257 09        	.uleb128 0x9
 6526 1258 0000 0E00 	.long0xe00
 6527 125c 0000 1267 	.long0x1267
 6528 1260 0A        	.uleb128 0xa
 6529 1261 0000 00A0 	.long0xa0
 6530 1265 13        	.byte0x13
 6531 1266 00        	.byte0
 6532 1267 02        	.uleb128 0x2
 6533 1268 0000 0000 	.long.LASF273
 6534 126c 14        	.byte0x14
 6535 126d 27        	.byte0x27
 6536 126e 0000 1205 	.long0x1205
 6537 1272 07        	.uleb128 0x7
 6538 1273 18        	.byte0x18
 6539 1274 15        	.byte0x15
68K GAS   			page 175


 6540 1275 23        	.byte0x23
 6541 1276 0000 12C3 	.long0x12c3
 6542 127a 08        	.uleb128 0x8
 6543 127b 0000 0000 	.long.LASF232
 6544 127f 15        	.byte0x15
 6545 1280 25        	.byte0x25
 6546 1281 0000 0090 	.long0x90
 6547 1285 00        	.byte0
 6548 1286 08        	.uleb128 0x8
 6549 1287 0000 0000 	.long.LASF233
 6550 128b 15        	.byte0x15
 6551 128c 26        	.byte0x26
 6552 128d 0000 0090 	.long0x90
 6553 1291 04        	.byte0x4
 6554 1292 08        	.uleb128 0x8
 6555 1293 0000 0000 	.long.LASF234
 6556 1297 15        	.byte0x15
 6557 1298 27        	.byte0x27
 6558 1299 0000 0090 	.long0x90
 6559 129d 08        	.byte0x8
 6560 129e 08        	.uleb128 0x8
 6561 129f 0000 0000 	.long.LASF274
 6562 12a3 15        	.byte0x15
 6563 12a4 28        	.byte0x28
 6564 12a5 0000 0090 	.long0x90
 6565 12a9 0C        	.byte0xc
 6566 12aa 08        	.uleb128 0x8
 6567 12ab 0000 0000 	.long.LASF235
 6568 12af 15        	.byte0x15
 6569 12b0 29        	.byte0x29
 6570 12b1 0000 0090 	.long0x90
 6571 12b5 10        	.byte0x10
 6572 12b6 08        	.uleb128 0x8
 6573 12b7 0000 0000 	.long.LASF236
 6574 12bb 15        	.byte0x15
 6575 12bc 2A        	.byte0x2a
 6576 12bd 0000 0090 	.long0x90
 6577 12c1 14        	.byte0x14
 6578 12c2 00        	.byte0
 6579 12c3 02        	.uleb128 0x2
 6580 12c4 0000 0000 	.long.LASF275
 6581 12c8 15        	.byte0x15
 6582 12c9 2B        	.byte0x2b
 6583 12ca 0000 1272 	.long0x1272
 6584 12ce 24        	.uleb128 0x24
 6585 12cf 0002 0324 	.long0x20324
 6586 12d3 15        	.byte0x15
 6587 12d4 33        	.byte0x33
 6588 12d5 0000 137B 	.long0x137b
 6589 12d9 08        	.uleb128 0x8
 6590 12da 0000 0000 	.long.LASF276
 6591 12de 15        	.byte0x15
 6592 12df 38        	.byte0x38
 6593 12e0 0000 137B 	.long0x137b
 6594 12e4 00        	.byte0
 6595 12e5 14        	.uleb128 0x14
 6596 12e6 0000 0000 	.long.LASF277
68K GAS   			page 176


 6597 12ea 15        	.byte0x15
 6598 12eb 39        	.byte0x39
 6599 12ec 0000 0090 	.long0x90
 6600 12f0 14A0      	.word0x14a0
 6601 12f2 14        	.uleb128 0x14
 6602 12f3 0000 0000 	.long.LASF278
 6603 12f7 15        	.byte0x15
 6604 12f8 3A        	.byte0x3a
 6605 12f9 0000 0090 	.long0x90
 6606 12fd 14A4      	.word0x14a4
 6607 12ff 14        	.uleb128 0x14
 6608 1300 0000 0000 	.long.LASF229
 6609 1304 15        	.byte0x15
 6610 1305 3B        	.byte0x3b
 6611 1306 0000 0090 	.long0x90
 6612 130a 14A8      	.word0x14a8
 6613 130c 14        	.uleb128 0x14
 6614 130d 0000 0000 	.long.LASF279
 6615 1311 15        	.byte0x15
 6616 1312 40        	.byte0x40
 6617 1313 0000 138B 	.long0x138b
 6618 1317 14AC      	.word0x14ac
 6619 1319 14        	.uleb128 0x14
 6620 131a 0000 0000 	.long.LASF280
 6621 131e 15        	.byte0x15
 6622 131f 41        	.byte0x41
 6623 1320 0000 0090 	.long0x90
 6624 1324 20AC      	.word0x20ac
 6625 1326 14        	.uleb128 0x14
 6626 1327 0000 0000 	.long.LASF281
 6627 132b 15        	.byte0x15
 6628 132c 42        	.byte0x42
 6629 132d 0000 0090 	.long0x90
 6630 1331 20B0      	.word0x20b0
 6631 1333 14        	.uleb128 0x14
 6632 1334 0000 0000 	.long.LASF282
 6633 1338 15        	.byte0x15
 6634 1339 43        	.byte0x43
 6635 133a 0000 0090 	.long0x90
 6636 133e 20B4      	.word0x20b4
 6637 1340 14        	.uleb128 0x14
 6638 1341 0000 0000 	.long.LASF283
 6639 1345 15        	.byte0x15
 6640 1346 48        	.byte0x48
 6641 1347 0000 11FA 	.long0x11fa
 6642 134b 20B8      	.word0x20b8
 6643 134d 26        	.uleb128 0x26
 6644 134e 0000 0000 	.long.LASF284
 6645 1352 15        	.byte0x15
 6646 1353 4D        	.byte0x4d
 6647 1354 0000 12C3 	.long0x12c3
 6648 1358 0001 F5C4 	.long0x1f5c4
 6649 135c 26        	.uleb128 0x26
 6650 135d 0000 0000 	.long.LASF285
 6651 1361 15        	.byte0x15
 6652 1362 53        	.byte0x53
 6653 1363 0000 0CB9 	.long0xcb9
68K GAS   			page 177


 6654 1367 0001 F5DC 	.long0x1f5dc
 6655 136b 26        	.uleb128 0x26
 6656 136c 0000 0000 	.long.LASF286
 6657 1370 15        	.byte0x15
 6658 1371 59        	.byte0x59
 6659 1372 0000 1267 	.long0x1267
 6660 1376 0001 F5FC 	.long0x1f5fc
 6661 137a 00        	.byte0
 6662 137b 09        	.uleb128 0x9
 6663 137c 0000 10AA 	.long0x10aa
 6664 1380 0000 138B 	.long0x138b
 6665 1384 0A        	.uleb128 0xa
 6666 1385 0000 00A0 	.long0xa0
 6667 1389 13        	.byte0x13
 6668 138a 00        	.byte0
 6669 138b 09        	.uleb128 0x9
 6670 138c 0000 00C5 	.long0xc5
 6671 1390 0000 139C 	.long0x139c
 6672 1394 25        	.uleb128 0x25
 6673 1395 0000 00A0 	.long0xa0
 6674 1399 0BFF      	.word0xbff
 6675 139b 00        	.byte0
 6676 139c 02        	.uleb128 0x2
 6677 139d 0000 0000 	.long.LASF287
 6678 13a1 15        	.byte0x15
 6679 13a2 5C        	.byte0x5c
 6680 13a3 0000 12CE 	.long0x12ce
 6681 13a7 02        	.uleb128 0x2
 6682 13a8 0000 0000 	.long.LASF288
 6683 13ac 16        	.byte0x16
 6684 13ad 38        	.byte0x38
 6685 13ae 0000 0090 	.long0x90
 6686 13b2 07        	.uleb128 0x7
 6687 13b3 14        	.byte0x14
 6688 13b4 16        	.byte0x16
 6689 13b5 3A        	.byte0x3a
 6690 13b6 0000 1403 	.long0x1403
 6691 13ba 08        	.uleb128 0x8
 6692 13bb 0000 0000 	.long.LASF289
 6693 13bf 16        	.byte0x16
 6694 13c0 3C        	.byte0x3c
 6695 13c1 0000 0079 	.long0x79
 6696 13c5 00        	.byte0
 6697 13c6 08        	.uleb128 0x8
 6698 13c7 0000 0000 	.long.LASF290
 6699 13cb 16        	.byte0x16
 6700 13cc 3D        	.byte0x3d
 6701 13cd 0000 0079 	.long0x79
 6702 13d1 02        	.byte0x2
 6703 13d2 08        	.uleb128 0x8
 6704 13d3 0000 0000 	.long.LASF291
 6705 13d7 16        	.byte0x16
 6706 13d8 3E        	.byte0x3e
 6707 13d9 0000 0090 	.long0x90
 6708 13dd 04        	.byte0x4
 6709 13de 08        	.uleb128 0x8
 6710 13df 0000 0000 	.long.LASF292
68K GAS   			page 178


 6711 13e3 16        	.byte0x16
 6712 13e4 3F        	.byte0x3f
 6713 13e5 0000 0090 	.long0x90
 6714 13e9 08        	.byte0x8
 6715 13ea 12        	.uleb128 0x12
 6716 13eb 4352 4300 	.string"CRC"
 6717 13ef 16        	.byte0x16
 6718 13f0 40        	.byte0x40
 6719 13f1 0000 0090 	.long0x90
 6720 13f5 0C        	.byte0xc
 6721 13f6 08        	.uleb128 0x8
 6722 13f7 0000 0000 	.long.LASF267
 6723 13fb 16        	.byte0x16
 6724 13fc 41        	.byte0x41
 6725 13fd 0000 0090 	.long0x90
 6726 1401 10        	.byte0x10
 6727 1402 00        	.byte0
 6728 1403 02        	.uleb128 0x2
 6729 1404 0000 0000 	.long.LASF293
 6730 1408 16        	.byte0x16
 6731 1409 42        	.byte0x42
 6732 140a 0000 13B2 	.long0x13b2
 6733 140e 07        	.uleb128 0x7
 6734 140f 0C        	.byte0xc
 6735 1410 16        	.byte0x16
 6736 1411 44        	.byte0x44
 6737 1412 0000 143B 	.long0x143b
 6738 1416 12        	.uleb128 0x12
 6739 1417 546F 7000 	.string"Top"
 6740 141b 16        	.byte0x16
 6741 141c 46        	.byte0x46
 6742 141d 0000 0090 	.long0x90
 6743 1421 00        	.byte0
 6744 1422 08        	.uleb128 0x8
 6745 1423 0000 0000 	.long.LASF294
 6746 1427 16        	.byte0x16
 6747 1428 47        	.byte0x47
 6748 1429 0000 0090 	.long0x90
 6749 142d 04        	.byte0x4
 6750 142e 08        	.uleb128 0x8
 6751 142f 0000 0000 	.long.LASF295
 6752 1433 16        	.byte0x16
 6753 1434 48        	.byte0x48
 6754 1435 0000 0090 	.long0x90
 6755 1439 08        	.byte0x8
 6756 143a 00        	.byte0
 6757 143b 02        	.uleb128 0x2
 6758 143c 0000 0000 	.long.LASF296
 6759 1440 16        	.byte0x16
 6760 1441 49        	.byte0x49
 6761 1442 0000 140E 	.long0x140e
 6762 1446 07        	.uleb128 0x7
 6763 1447 EC        	.byte0xec
 6764 1448 16        	.byte0x16
 6765 1449 4D        	.byte0x4d
 6766 144a 0000 14C7 	.long0x14c7
 6767 144e 08        	.uleb128 0x8
68K GAS   			page 179


 6768 144f 0000 0000 	.long.LASF297
 6769 1453 16        	.byte0x16
 6770 1454 4E        	.byte0x4e
 6771 1455 0000 0090 	.long0x90
 6772 1459 00        	.byte0
 6773 145a 08        	.uleb128 0x8
 6774 145b 0000 0000 	.long.LASF298
 6775 145f 16        	.byte0x16
 6776 1460 4F        	.byte0x4f
 6777 1461 0000 0090 	.long0x90
 6778 1465 04        	.byte0x4
 6779 1466 12        	.uleb128 0x12
 6780 1467 456E 6400 	.string"End"
 6781 146b 16        	.byte0x16
 6782 146c 50        	.byte0x50
 6783 146d 0000 0090 	.long0x90
 6784 1471 08        	.byte0x8
 6785 1472 08        	.uleb128 0x8
 6786 1473 0000 0000 	.long.LASF299
 6787 1477 16        	.byte0x16
 6788 1478 51        	.byte0x51
 6789 1479 0000 0090 	.long0x90
 6790 147d 0C        	.byte0xc
 6791 147e 08        	.uleb128 0x8
 6792 147f 0000 0000 	.long.LASF300
 6793 1483 16        	.byte0x16
 6794 1484 52        	.byte0x52
 6795 1485 0000 0050 	.long0x50
 6796 1489 10        	.byte0x10
 6797 148a 08        	.uleb128 0x8
 6798 148b 0000 0000 	.long.LASF301
 6799 148f 16        	.byte0x16
 6800 1490 53        	.byte0x53
 6801 1491 0000 0079 	.long0x79
 6802 1495 14        	.byte0x14
 6803 1496 08        	.uleb128 0x8
 6804 1497 0000 0000 	.long.LASF302
 6805 149b 16        	.byte0x16
 6806 149c 54        	.byte0x54
 6807 149d 0000 0079 	.long0x79
 6808 14a1 16        	.byte0x16
 6809 14a2 08        	.uleb128 0x8
 6810 14a3 0000 0000 	.long.LASF303
 6811 14a7 16        	.byte0x16
 6812 14a8 55        	.byte0x55
 6813 14a9 0000 0090 	.long0x90
 6814 14ad 18        	.byte0x18
 6815 14ae 08        	.uleb128 0x8
 6816 14af 0000 0000 	.long.LASF304
 6817 14b3 16        	.byte0x16
 6818 14b4 56        	.byte0x56
 6819 14b5 0000 0090 	.long0x90
 6820 14b9 1C        	.byte0x1c
 6821 14ba 08        	.uleb128 0x8
 6822 14bb 0000 0000 	.long.LASF305
 6823 14bf 16        	.byte0x16
 6824 14c0 57        	.byte0x57
68K GAS   			page 180


 6825 14c1 0000 14C7 	.long0x14c7
 6826 14c5 20        	.byte0x20
 6827 14c6 00        	.byte0
 6828 14c7 09        	.uleb128 0x9
 6829 14c8 0000 143B 	.long0x143b
 6830 14cc 0000 14D7 	.long0x14d7
 6831 14d0 0A        	.uleb128 0xa
 6832 14d1 0000 00A0 	.long0xa0
 6833 14d5 10        	.byte0x10
 6834 14d6 00        	.byte0
 6835 14d7 02        	.uleb128 0x2
 6836 14d8 0000 0000 	.long.LASF306
 6837 14dc 16        	.byte0x16
 6838 14dd 58        	.byte0x58
 6839 14de 0000 1446 	.long0x1446
 6840 14e2 22        	.uleb128 0x22
 6841 14e3 0000 0000 	.long.LASF307
 6842 14e7 16        	.byte0x16
 6843 14e8 60        	.byte0x60
 6844 14e9 0000 14D7 	.long0x14d7
 6845 14ed 22        	.uleb128 0x22
 6846 14ee 0000 0000 	.long.LASF308
 6847 14f2 16        	.byte0x16
 6848 14f3 61        	.byte0x61
 6849 14f4 0000 1403 	.long0x1403
 6850 14f8 07        	.uleb128 0x7
 6851 14f9 34        	.byte0x34
 6852 14fa 17        	.byte0x17
 6853 14fb 43        	.byte0x43
 6854 14fc 0000 153D 	.long0x153d
 6855 1500 08        	.uleb128 0x8
 6856 1501 0000 0000 	.long.LASF160
 6857 1505 17        	.byte0x17
 6858 1506 45        	.byte0x45
 6859 1507 0000 0C20 	.long0xc20
 6860 150b 00        	.byte0
 6861 150c 08        	.uleb128 0x8
 6862 150d 0000 0000 	.long.LASF309
 6863 1511 17        	.byte0x17
 6864 1512 46        	.byte0x46
 6865 1513 0000 13A7 	.long0x13a7
 6866 1517 28        	.byte0x28
 6867 1518 08        	.uleb128 0x8
 6868 1519 0000 0000 	.long.LASF298
 6869 151d 17        	.byte0x17
 6870 151e 47        	.byte0x47
 6871 151f 0000 0090 	.long0x90
 6872 1523 2C        	.byte0x2c
 6873 1524 08        	.uleb128 0x8
 6874 1525 0000 0000 	.long.LASF310
 6875 1529 17        	.byte0x17
 6876 152a 48        	.byte0x48
 6877 152b 0000 00B9 	.long0xb9
 6878 152f 30        	.byte0x30
 6879 1530 08        	.uleb128 0x8
 6880 1531 0000 0000 	.long.LASF311
 6881 1535 17        	.byte0x17
68K GAS   			page 181


 6882 1536 49        	.byte0x49
 6883 1537 0000 00B9 	.long0xb9
 6884 153b 31        	.byte0x31
 6885 153c 00        	.byte0
 6886 153d 02        	.uleb128 0x2
 6887 153e 0000 0000 	.long.LASF312
 6888 1542 17        	.byte0x17
 6889 1543 4A        	.byte0x4a
 6890 1544 0000 14F8 	.long0x14f8
 6891 1548 23        	.uleb128 0x23
 6892 1549 6818      	.word0x6818
 6893 154b 17        	.byte0x17
 6894 154c 4C        	.byte0x4c
 6895 154d 0000 159B 	.long0x159b
 6896 1551 08        	.uleb128 0x8
 6897 1552 0000 0000 	.long.LASF313
 6898 1556 17        	.byte0x17
 6899 1557 4E        	.byte0x4e
 6900 1558 0000 0090 	.long0x90
 6901 155c 00        	.byte0
 6902 155d 08        	.uleb128 0x8
 6903 155e 0000 0000 	.long.LASF314
 6904 1562 17        	.byte0x17
 6905 1563 4F        	.byte0x4f
 6906 1564 0000 0090 	.long0x90
 6907 1568 04        	.byte0x4
 6908 1569 08        	.uleb128 0x8
 6909 156a 0000 0000 	.long.LASF315
 6910 156e 17        	.byte0x17
 6911 156f 50        	.byte0x50
 6912 1570 0000 0090 	.long0x90
 6913 1574 08        	.byte0x8
 6914 1575 08        	.uleb128 0x8
 6915 1576 0000 0000 	.long.LASF316
 6916 157a 17        	.byte0x17
 6917 157b 51        	.byte0x51
 6918 157c 0000 0090 	.long0x90
 6919 1580 0C        	.byte0xc
 6920 1581 08        	.uleb128 0x8
 6921 1582 0000 0000 	.long.LASF317
 6922 1586 17        	.byte0x17
 6923 1587 52        	.byte0x52
 6924 1588 0000 159B 	.long0x159b
 6925 158c 10        	.byte0x10
 6926 158d 14        	.uleb128 0x14
 6927 158e 0000 0000 	.long.LASF318
 6928 1592 17        	.byte0x17
 6929 1593 53        	.byte0x53
 6930 1594 0000 0924 	.long0x924
 6931 1598 6810      	.word0x6810
 6932 159a 00        	.byte0
 6933 159b 09        	.uleb128 0x9
 6934 159c 0000 153D 	.long0x153d
 6935 15a0 0000 15AC 	.long0x15ac
 6936 15a4 25        	.uleb128 0x25
 6937 15a5 0000 00A0 	.long0xa0
 6938 15a9 01FF      	.word0x1ff
68K GAS   			page 182


 6939 15ab 00        	.byte0
 6940 15ac 02        	.uleb128 0x2
 6941 15ad 0000 0000 	.long.LASF319
 6942 15b1 17        	.byte0x17
 6943 15b2 54        	.byte0x54
 6944 15b3 0000 1548 	.long0x1548
 6945 15b7 07        	.uleb128 0x7
 6946 15b8 4C        	.byte0x4c
 6947 15b9 18        	.byte0x18
 6948 15ba 60        	.byte0x60
 6949 15bb 0000 15F0 	.long0x15f0
 6950 15bf 08        	.uleb128 0x8
 6951 15c0 0000 0000 	.long.LASF320
 6952 15c4 18        	.byte0x18
 6953 15c5 61        	.byte0x61
 6954 15c6 0000 0090 	.long0x90
 6955 15ca 00        	.byte0
 6956 15cb 08        	.uleb128 0x8
 6957 15cc 0000 0000 	.long.LASF321
 6958 15d0 18        	.byte0x18
 6959 15d1 62        	.byte0x62
 6960 15d2 0000 0090 	.long0x90
 6961 15d6 04        	.byte0x4
 6962 15d7 08        	.uleb128 0x8
 6963 15d8 0000 0000 	.long.LASF322
 6964 15dc 18        	.byte0x18
 6965 15dd 63        	.byte0x63
 6966 15de 0000 0A76 	.long0xa76
 6967 15e2 08        	.byte0x8
 6968 15e3 08        	.uleb128 0x8
 6969 15e4 0000 0000 	.long.LASF323
 6970 15e8 18        	.byte0x18
 6971 15e9 64        	.byte0x64
 6972 15ea 0000 0050 	.long0x50
 6973 15ee 48        	.byte0x48
 6974 15ef 00        	.byte0
 6975 15f0 02        	.uleb128 0x2
 6976 15f1 0000 0000 	.long.LASF324
 6977 15f5 18        	.byte0x18
 6978 15f6 65        	.byte0x65
 6979 15f7 0000 15B7 	.long0x15b7
 6980 15fb 22        	.uleb128 0x22
 6981 15fc 0000 0000 	.long.LASF325
 6982 1600 18        	.byte0x18
 6983 1601 67        	.byte0x67
 6984 1602 0000 15F0 	.long0x15f0
 6985 1606 07        	.uleb128 0x7
 6986 1607 1C        	.byte0x1c
 6987 1608 19        	.byte0x19
 6988 1609 67        	.byte0x67
 6989 160a 0000 1633 	.long0x1633
 6990 160e 08        	.uleb128 0x8
 6991 160f 0000 0000 	.long.LASF218
 6992 1613 19        	.byte0x19
 6993 1614 69        	.byte0x69
 6994 1615 0000 00B9 	.long0xb9
 6995 1619 00        	.byte0
68K GAS   			page 183


 6996 161a 08        	.uleb128 0x8
 6997 161b 0000 0000 	.long.LASF326
 6998 161f 19        	.byte0x19
 6999 1620 6A        	.byte0x6a
 7000 1621 0000 0090 	.long0x90
 7001 1625 04        	.byte0x4
 7002 1626 08        	.uleb128 0x8
 7003 1627 0000 0000 	.long.LASF327
 7004 162b 19        	.byte0x19
 7005 162c 6B        	.byte0x6b
 7006 162d 0000 0132 	.long0x132
 7007 1631 08        	.byte0x8
 7008 1632 00        	.byte0
 7009 1633 02        	.uleb128 0x2
 7010 1634 0000 0000 	.long.LASF328
 7011 1638 19        	.byte0x19
 7012 1639 6C        	.byte0x6c
 7013 163a 0000 1606 	.long0x1606
 7014 163e 23        	.uleb128 0x23
 7015 163f 87FC      	.word0x87fc
 7016 1641 19        	.byte0x19
 7017 1642 74        	.byte0x74
 7018 1643 0000 16F7 	.long0x16f7
 7019 1647 08        	.uleb128 0x8
 7020 1648 0000 0000 	.long.LASF237
 7021 164c 19        	.byte0x19
 7022 164d 79        	.byte0x79
 7023 164e 0000 0FF5 	.long0xff5
 7024 1652 00        	.byte0
 7025 1653 08        	.uleb128 0x8
 7026 1654 0000 0000 	.long.LASF329
 7027 1658 19        	.byte0x19
 7028 1659 7E        	.byte0x7e
 7029 165a 0000 0090 	.long0x90
 7030 165e 10        	.byte0x10
 7031 165f 08        	.uleb128 0x8
 7032 1660 0000 0000 	.long.LASF330
 7033 1664 19        	.byte0x19
 7034 1665 83        	.byte0x83
 7035 1666 0000 0090 	.long0x90
 7036 166a 14        	.byte0x14
 7037 166b 08        	.uleb128 0x8
 7038 166c 0000 0000 	.long.LASF331
 7039 1670 19        	.byte0x19
 7040 1671 84        	.byte0x84
 7041 1672 0000 0090 	.long0x90
 7042 1676 18        	.byte0x18
 7043 1677 08        	.uleb128 0x8
 7044 1678 0000 0000 	.long.LASF332
 7045 167c 19        	.byte0x19
 7046 167d 85        	.byte0x85
 7047 167e 0000 0090 	.long0x90
 7048 1682 1C        	.byte0x1c
 7049 1683 08        	.uleb128 0x8
 7050 1684 0000 0000 	.long.LASF333
 7051 1688 19        	.byte0x19
 7052 1689 8A        	.byte0x8a
68K GAS   			page 184


 7053 168a 0000 0090 	.long0x90
 7054 168e 20        	.byte0x20
 7055 168f 08        	.uleb128 0x8
 7056 1690 0000 0000 	.long.LASF334
 7057 1694 19        	.byte0x19
 7058 1695 8B        	.byte0x8b
 7059 1696 0000 16F7 	.long0x16f7
 7060 169a 24        	.byte0x24
 7061 169b 14        	.uleb128 0x14
 7062 169c 0000 0000 	.long.LASF335
 7063 16a0 19        	.byte0x19
 7064 16a1 90        	.byte0x90
 7065 16a2 0000 0090 	.long0x90
 7066 16a6 0924      	.word0x924
 7067 16a8 14        	.uleb128 0x14
 7068 16a9 0000 0000 	.long.LASF336
 7069 16ad 19        	.byte0x19
 7070 16ae 91        	.byte0x91
 7071 16af 0000 0090 	.long0x90
 7072 16b3 0928      	.word0x928
 7073 16b5 14        	.uleb128 0x14
 7074 16b6 0000 0000 	.long.LASF337
 7075 16ba 19        	.byte0x19
 7076 16bb 92        	.byte0x92
 7077 16bc 0000 1707 	.long0x1707
 7078 16c0 092C      	.word0x92c
 7079 16c2 14        	.uleb128 0x14
 7080 16c3 0000 0000 	.long.LASF338
 7081 16c7 19        	.byte0x19
 7082 16c8 97        	.byte0x97
 7083 16c9 0000 0090 	.long0x90
 7084 16cd 1E2C      	.word0x1e2c
 7085 16cf 14        	.uleb128 0x14
 7086 16d0 0000 0000 	.long.LASF339
 7087 16d4 19        	.byte0x19
 7088 16d5 98        	.byte0x98
 7089 16d6 0000 1717 	.long0x1717
 7090 16da 1E30      	.word0x1e30
 7091 16dc 14        	.uleb128 0x14
 7092 16dd 0000 0000 	.long.LASF340
 7093 16e1 19        	.byte0x19
 7094 16e2 9D        	.byte0x9d
 7095 16e3 0000 1727 	.long0x1727
 7096 16e7 1F04      	.word0x1f04
 7097 16e9 14        	.uleb128 0x14
 7098 16ea 0000 0000 	.long.LASF341
 7099 16ee 19        	.byte0x19
 7100 16ef A2        	.byte0xa2
 7101 16f0 0000 15AC 	.long0x15ac
 7102 16f4 1FE4      	.word0x1fe4
 7103 16f6 00        	.byte0
 7104 16f7 09        	.uleb128 0x9
 7105 16f8 0000 0F85 	.long0xf85
 7106 16fc 0000 1707 	.long0x1707
 7107 1700 0A        	.uleb128 0xa
 7108 1701 0000 00A0 	.long0xa0
 7109 1705 3F        	.byte0x3f
68K GAS   			page 185


 7110 1706 00        	.byte0
 7111 1707 09        	.uleb128 0x9
 7112 1708 0000 0F35 	.long0xf35
 7113 170c 0000 1717 	.long0x1717
 7114 1710 0A        	.uleb128 0xa
 7115 1711 0000 00A0 	.long0xa0
 7116 1715 1F        	.byte0x1f
 7117 1716 00        	.byte0
 7118 1717 09        	.uleb128 0x9
 7119 1718 0000 0FB1 	.long0xfb1
 7120 171c 0000 1727 	.long0x1727
 7121 1720 0A        	.uleb128 0xa
 7122 1721 0000 00A0 	.long0xa0
 7123 1725 09        	.byte0x9
 7124 1726 00        	.byte0
 7125 1727 09        	.uleb128 0x9
 7126 1728 0000 1633 	.long0x1633
 7127 172c 0000 1737 	.long0x1737
 7128 1730 0A        	.uleb128 0xa
 7129 1731 0000 00A0 	.long0xa0
 7130 1735 07        	.byte0x7
 7131 1736 00        	.byte0
 7132 1737 02        	.uleb128 0x2
 7133 1738 0000 0000 	.long.LASF342
 7134 173c 19        	.byte0x19
 7135 173d A4        	.byte0xa4
 7136 173e 0000 163E 	.long0x163e
 7137 1742 22        	.uleb128 0x22
 7138 1743 0000 0000 	.long.LASF343
 7139 1747 19        	.byte0x19
 7140 1748 A9        	.byte0xa9
 7141 1749 0000 1737 	.long0x1737
 7142 174d 22        	.uleb128 0x22
 7143 174e 0000 0000 	.long.LASF344
 7144 1752 19        	.byte0x19
 7145 1753 AE        	.byte0xae
 7146 1754 0000 1758 	.long0x1758
 7147 1758 0F        	.uleb128 0xf
 7148 1759 04        	.byte0x4
 7149 175a 0000 139C 	.long0x139c
 7150 175e 27        	.uleb128 0x27
 7151 175f 0000 0000 	.long.LASF353
 7152 1763 02        	.byte0x2
 7153 1764 0770      	.word0x770
 7154 1766 0000 0000 	.long.LFB92
 7155 176a 0000 01BC 	.long.LFE92-.LFB92
 7156 176e 01        	.uleb128 0x1
 7157 176f 9C        	.byte0x9c
 7158 1770 0000 180A 	.long0x180a
 7159 1774 28        	.uleb128 0x28
 7160 1775 0000 0000 	.long.LASF345
 7161 1779 02        	.byte0x2
 7162 177a 0770      	.word0x770
 7163 177c 0000 0090 	.long0x90
 7164 1780 02        	.uleb128 0x2
 7165 1781 91        	.byte0x91
 7166 1782 00        	.sleb128 0
68K GAS   			page 186


 7167 1783 28        	.uleb128 0x28
 7168 1784 0000 0000 	.long.LASF346
 7169 1788 02        	.byte0x2
 7170 1789 0770      	.word0x770
 7171 178b 0000 0208 	.long0x208
 7172 178f 02        	.uleb128 0x2
 7173 1790 91        	.byte0x91
 7174 1791 04        	.sleb128 4
 7175 1792 28        	.uleb128 0x28
 7176 1793 0000 0000 	.long.LASF347
 7177 1797 02        	.byte0x2
 7178 1798 0771      	.word0x771
 7179 179a 0000 180A 	.long0x180a
 7180 179e 02        	.uleb128 0x2
 7181 179f 91        	.byte0x91
 7182 17a0 08        	.sleb128 8
 7183 17a1 28        	.uleb128 0x28
 7184 17a2 0000 0000 	.long.LASF240
 7185 17a6 02        	.byte0x2
 7186 17a7 0771      	.word0x771
 7187 17a9 0000 0090 	.long0x90
 7188 17ad 02        	.uleb128 0x2
 7189 17ae 91        	.byte0x91
 7190 17af 0C        	.sleb128 12
 7191 17b0 29        	.uleb128 0x29
 7192 17b1 6900      	.string"i"
 7193 17b3 02        	.byte0x2
 7194 17b4 0773      	.word0x773
 7195 17b6 0000 0090 	.long0x90
 7196 17ba 02        	.uleb128 0x2
 7197 17bb 91        	.byte0x91
 7198 17bc 78        	.sleb128 -8
 7199 17bd 2A        	.uleb128 0x2a
 7200 17be 0000 0000 	.long.LASF348
 7201 17c2 02        	.byte0x2
 7202 17c3 0774      	.word0x774
 7203 17c5 0000 0050 	.long0x50
 7204 17c9 02        	.uleb128 0x2
 7205 17ca 91        	.byte0x91
 7206 17cb 6C        	.sleb128 -20
 7207 17cc 2A        	.uleb128 0x2a
 7208 17cd 0000 0000 	.long.LASF349
 7209 17d1 02        	.byte0x2
 7210 17d2 0775      	.word0x775
 7211 17d4 0000 0142 	.long0x142
 7212 17d8 02        	.uleb128 0x2
 7213 17d9 91        	.byte0x91
 7214 17da 48        	.sleb128 -56
 7215 17db 2A        	.uleb128 0x2a
 7216 17dc 0000 0000 	.long.LASF350
 7217 17e0 02        	.byte0x2
 7218 17e1 0776      	.word0x776
 7219 17e3 0000 0C08 	.long0xc08
 7220 17e7 03        	.uleb128 0x3
 7221 17e8 91        	.byte0x91
 7222 17e9 947F      	.sleb128 -108
 7223 17eb 2A        	.uleb128 0x2a
68K GAS   			page 187


 7224 17ec 0000 0000 	.long.LASF351
 7225 17f0 02        	.byte0x2
 7226 17f1 0777      	.word0x777
 7227 17f3 0000 0090 	.long0x90
 7228 17f7 02        	.uleb128 0x2
 7229 17f8 91        	.byte0x91
 7230 17f9 74        	.sleb128 -12
 7231 17fa 2A        	.uleb128 0x2a
 7232 17fb 0000 0000 	.long.LASF352
 7233 17ff 02        	.byte0x2
 7234 1800 0778      	.word0x778
 7235 1802 0000 0090 	.long0x90
 7236 1806 02        	.uleb128 0x2
 7237 1807 91        	.byte0x91
 7238 1808 70        	.sleb128 -16
 7239 1809 00        	.byte0
 7240 180a 0F        	.uleb128 0xf
 7241 180b 04        	.byte0x4
 7242 180c 0000 009B 	.long0x9b
 7243 1810 27        	.uleb128 0x27
 7244 1811 0000 0000 	.long.LASF354
 7245 1815 02        	.byte0x2
 7246 1816 074D      	.word0x74d
 7247 1818 0000 0000 	.long.LFB91
 7248 181c 0000 0054 	.long.LFE91-.LFB91
 7249 1820 01        	.uleb128 0x1
 7250 1821 9C        	.byte0x9c
 7251 1822 0000 1863 	.long0x1863
 7252 1826 28        	.uleb128 0x28
 7253 1827 0000 0000 	.long.LASF355
 7254 182b 02        	.byte0x2
 7255 182c 074D      	.word0x74d
 7256 182e 0000 0208 	.long0x208
 7257 1832 02        	.uleb128 0x2
 7258 1833 91        	.byte0x91
 7259 1834 00        	.sleb128 0
 7260 1835 28        	.uleb128 0x28
 7261 1836 0000 0000 	.long.LASF356
 7262 183a 02        	.byte0x2
 7263 183b 074D      	.word0x74d
 7264 183d 0000 0050 	.long0x50
 7265 1841 02        	.uleb128 0x2
 7266 1842 91        	.byte0x91
 7267 1843 04        	.sleb128 4
 7268 1844 2A        	.uleb128 0x2a
 7269 1845 0000 0000 	.long.LASF348
 7270 1849 02        	.byte0x2
 7271 184a 074F      	.word0x74f
 7272 184c 0000 0050 	.long0x50
 7273 1850 02        	.uleb128 0x2
 7274 1851 91        	.byte0x91
 7275 1852 78        	.sleb128 -8
 7276 1853 2A        	.uleb128 0x2a
 7277 1854 0000 0000 	.long.LASF158
 7278 1858 02        	.byte0x2
 7279 1859 0750      	.word0x750
 7280 185b 0000 0090 	.long0x90
68K GAS   			page 188


 7281 185f 02        	.uleb128 0x2
 7282 1860 91        	.byte0x91
 7283 1861 74        	.sleb128 -12
 7284 1862 00        	.byte0
 7285 1863 27        	.uleb128 0x27
 7286 1864 0000 0000 	.long.LASF357
 7287 1868 02        	.byte0x2
 7288 1869 072B      	.word0x72b
 7289 186b 0000 0000 	.long.LFB90
 7290 186f 0000 0054 	.long.LFE90-.LFB90
 7291 1873 01        	.uleb128 0x1
 7292 1874 9C        	.byte0x9c
 7293 1875 0000 18B6 	.long0x18b6
 7294 1879 28        	.uleb128 0x28
 7295 187a 0000 0000 	.long.LASF355
 7296 187e 02        	.byte0x2
 7297 187f 072B      	.word0x72b
 7298 1881 0000 0208 	.long0x208
 7299 1885 02        	.uleb128 0x2
 7300 1886 91        	.byte0x91
 7301 1887 00        	.sleb128 0
 7302 1888 28        	.uleb128 0x28
 7303 1889 0000 0000 	.long.LASF356
 7304 188d 02        	.byte0x2
 7305 188e 072B      	.word0x72b
 7306 1890 0000 0050 	.long0x50
 7307 1894 02        	.uleb128 0x2
 7308 1895 91        	.byte0x91
 7309 1896 04        	.sleb128 4
 7310 1897 2A        	.uleb128 0x2a
 7311 1898 0000 0000 	.long.LASF348
 7312 189c 02        	.byte0x2
 7313 189d 072E      	.word0x72e
 7314 189f 0000 0050 	.long0x50
 7315 18a3 02        	.uleb128 0x2
 7316 18a4 91        	.byte0x91
 7317 18a5 78        	.sleb128 -8
 7318 18a6 2A        	.uleb128 0x2a
 7319 18a7 0000 0000 	.long.LASF158
 7320 18ab 02        	.byte0x2
 7321 18ac 072F      	.word0x72f
 7322 18ae 0000 0090 	.long0x90
 7323 18b2 02        	.uleb128 0x2
 7324 18b3 91        	.byte0x91
 7325 18b4 74        	.sleb128 -12
 7326 18b5 00        	.byte0
 7327 18b6 2B        	.uleb128 0x2b
 7328 18b7 0000 0000 	.long.LASF360
 7329 18bb 02        	.byte0x2
 7330 18bc 06FC      	.word0x6fc
 7331 18be 0000 0050 	.long0x50
 7332 18c2 0000 0000 	.long.LFB89
 7333 18c6 0000 0078 	.long.LFE89-.LFB89
 7334 18ca 01        	.uleb128 0x1
 7335 18cb 9C        	.byte0x9c
 7336 18cc 0000 18FE 	.long0x18fe
 7337 18d0 28        	.uleb128 0x28
68K GAS   			page 189


 7338 18d1 0000 0000 	.long.LASF358
 7339 18d5 02        	.byte0x2
 7340 18d6 06FC      	.word0x6fc
 7341 18d8 0000 18FE 	.long0x18fe
 7342 18dc 02        	.uleb128 0x2
 7343 18dd 91        	.byte0x91
 7344 18de 00        	.sleb128 0
 7345 18df 2A        	.uleb128 0x2a
 7346 18e0 0000 0000 	.long.LASF359
 7347 18e4 02        	.byte0x2
 7348 18e5 06FE      	.word0x6fe
 7349 18e7 0000 0050 	.long0x50
 7350 18eb 02        	.uleb128 0x2
 7351 18ec 91        	.byte0x91
 7352 18ed 78        	.sleb128 -8
 7353 18ee 2A        	.uleb128 0x2a
 7354 18ef 0000 0000 	.long.LASF180
 7355 18f3 02        	.byte0x2
 7356 18f4 06FF      	.word0x6ff
 7357 18f6 0000 0090 	.long0x90
 7358 18fa 02        	.uleb128 0x2
 7359 18fb 91        	.byte0x91
 7360 18fc 74        	.sleb128 -12
 7361 18fd 00        	.byte0
 7362 18fe 0F        	.uleb128 0xf
 7363 18ff 04        	.byte0x4
 7364 1900 0000 0090 	.long0x90
 7365 1904 2B        	.uleb128 0x2b
 7366 1905 0000 0000 	.long.LASF361
 7367 1909 02        	.byte0x2
 7368 190a 06D3      	.word0x6d3
 7369 190c 0000 0050 	.long0x50
 7370 1910 0000 0000 	.long.LFB88
 7371 1914 0000 0080 	.long.LFE88-.LFB88
 7372 1918 01        	.uleb128 0x1
 7373 1919 9C        	.byte0x9c
 7374 191a 0000 1959 	.long0x1959
 7375 191e 28        	.uleb128 0x28
 7376 191f 0000 0000 	.long.LASF362
 7377 1923 02        	.byte0x2
 7378 1924 06D3      	.word0x6d3
 7379 1926 0000 18FE 	.long0x18fe
 7380 192a 02        	.uleb128 0x2
 7381 192b 91        	.byte0x91
 7382 192c 00        	.sleb128 0
 7383 192d 28        	.uleb128 0x28
 7384 192e 0000 0000 	.long.LASF327
 7385 1932 02        	.byte0x2
 7386 1933 06D3      	.word0x6d3
 7387 1935 0000 0208 	.long0x208
 7388 1939 02        	.uleb128 0x2
 7389 193a 91        	.byte0x91
 7390 193b 04        	.sleb128 4
 7391 193c 2A        	.uleb128 0x2a
 7392 193d 0000 0000 	.long.LASF359
 7393 1941 02        	.byte0x2
 7394 1942 06D6      	.word0x6d6
68K GAS   			page 190


 7395 1944 0000 0050 	.long0x50
 7396 1948 02        	.uleb128 0x2
 7397 1949 91        	.byte0x91
 7398 194a 78        	.sleb128 -8
 7399 194b 29        	.uleb128 0x29
 7400 194c 6900      	.string"i"
 7401 194e 02        	.byte0x2
 7402 194f 06D7      	.word0x6d7
 7403 1951 0000 0090 	.long0x90
 7404 1955 02        	.uleb128 0x2
 7405 1956 91        	.byte0x91
 7406 1957 74        	.sleb128 -12
 7407 1958 00        	.byte0
 7408 1959 2C        	.uleb128 0x2c
 7409 195a 0000 0000 	.long.LASF363
 7410 195e 02        	.byte0x2
 7411 195f 06C5      	.word0x6c5
 7412 1961 0000 0050 	.long0x50
 7413 1965 0000 0000 	.long.LFB87
 7414 1969 0000 005A 	.long.LFE87-.LFB87
 7415 196d 01        	.uleb128 0x1
 7416 196e 9C        	.byte0x9c
 7417 196f 0000 19A1 	.long0x19a1
 7418 1973 28        	.uleb128 0x28
 7419 1974 0000 0000 	.long.LASF364
 7420 1978 02        	.byte0x2
 7421 1979 06C5      	.word0x6c5
 7422 197b 0000 0090 	.long0x90
 7423 197f 02        	.uleb128 0x2
 7424 1980 91        	.byte0x91
 7425 1981 00        	.sleb128 0
 7426 1982 28        	.uleb128 0x28
 7427 1983 0000 0000 	.long.LASF365
 7428 1987 02        	.byte0x2
 7429 1988 06C5      	.word0x6c5
 7430 198a 0000 18FE 	.long0x18fe
 7431 198e 02        	.uleb128 0x2
 7432 198f 91        	.byte0x91
 7433 1990 04        	.sleb128 4
 7434 1991 2A        	.uleb128 0x2a
 7435 1992 0000 0000 	.long.LASF348
 7436 1996 02        	.byte0x2
 7437 1997 06C7      	.word0x6c7
 7438 1999 0000 0050 	.long0x50
 7439 199d 02        	.uleb128 0x2
 7440 199e 91        	.byte0x91
 7441 199f 78        	.sleb128 -8
 7442 19a0 00        	.byte0
 7443 19a1 2C        	.uleb128 0x2c
 7444 19a2 0000 0000 	.long.LASF366
 7445 19a6 02        	.byte0x2
 7446 19a7 06B2      	.word0x6b2
 7447 19a9 0000 0050 	.long0x50
 7448 19ad 0000 0000 	.long.LFB86
 7449 19b1 0000 0052 	.long.LFE86-.LFB86
 7450 19b5 01        	.uleb128 0x1
 7451 19b6 9C        	.byte0x9c
68K GAS   			page 191


 7452 19b7 0000 19E9 	.long0x19e9
 7453 19bb 28        	.uleb128 0x28
 7454 19bc 0000 0000 	.long.LASF364
 7455 19c0 02        	.byte0x2
 7456 19c1 06B2      	.word0x6b2
 7457 19c3 0000 0090 	.long0x90
 7458 19c7 02        	.uleb128 0x2
 7459 19c8 91        	.byte0x91
 7460 19c9 00        	.sleb128 0
 7461 19ca 28        	.uleb128 0x28
 7462 19cb 0000 0000 	.long.LASF365
 7463 19cf 02        	.byte0x2
 7464 19d0 06B2      	.word0x6b2
 7465 19d2 0000 0090 	.long0x90
 7466 19d6 02        	.uleb128 0x2
 7467 19d7 91        	.byte0x91
 7468 19d8 04        	.sleb128 4
 7469 19d9 2A        	.uleb128 0x2a
 7470 19da 0000 0000 	.long.LASF348
 7471 19de 02        	.byte0x2
 7472 19df 06B4      	.word0x6b4
 7473 19e1 0000 0050 	.long0x50
 7474 19e5 02        	.uleb128 0x2
 7475 19e6 91        	.byte0x91
 7476 19e7 78        	.sleb128 -8
 7477 19e8 00        	.byte0
 7478 19e9 2C        	.uleb128 0x2c
 7479 19ea 0000 0000 	.long.LASF367
 7480 19ee 02        	.byte0x2
 7481 19ef 069E      	.word0x69e
 7482 19f1 0000 0050 	.long0x50
 7483 19f5 0000 0000 	.long.LFB85
 7484 19f9 0000 0072 	.long.LFE85-.LFB85
 7485 19fd 01        	.uleb128 0x1
 7486 19fe 9C        	.byte0x9c
 7487 19ff 0000 1A22 	.long0x1a22
 7488 1a03 28        	.uleb128 0x28
 7489 1a04 0000 0000 	.long.LASF364
 7490 1a08 02        	.byte0x2
 7491 1a09 069E      	.word0x69e
 7492 1a0b 0000 0090 	.long0x90
 7493 1a0f 02        	.uleb128 0x2
 7494 1a10 91        	.byte0x91
 7495 1a11 00        	.sleb128 0
 7496 1a12 2A        	.uleb128 0x2a
 7497 1a13 0000 0000 	.long.LASF348
 7498 1a17 02        	.byte0x2
 7499 1a18 06A0      	.word0x6a0
 7500 1a1a 0000 0050 	.long0x50
 7501 1a1e 02        	.uleb128 0x2
 7502 1a1f 91        	.byte0x91
 7503 1a20 78        	.sleb128 -8
 7504 1a21 00        	.byte0
 7505 1a22 2C        	.uleb128 0x2c
 7506 1a23 0000 0000 	.long.LASF368
 7507 1a27 02        	.byte0x2
 7508 1a28 0688      	.word0x688
68K GAS   			page 192


 7509 1a2a 0000 0050 	.long0x50
 7510 1a2e 0000 0000 	.long.LFB84
 7511 1a32 0000 0042 	.long.LFE84-.LFB84
 7512 1a36 01        	.uleb128 0x1
 7513 1a37 9C        	.byte0x9c
 7514 1a38 0000 1A5B 	.long0x1a5b
 7515 1a3c 28        	.uleb128 0x28
 7516 1a3d 0000 0000 	.long.LASF364
 7517 1a41 02        	.byte0x2
 7518 1a42 0688      	.word0x688
 7519 1a44 0000 0090 	.long0x90
 7520 1a48 02        	.uleb128 0x2
 7521 1a49 91        	.byte0x91
 7522 1a4a 00        	.sleb128 0
 7523 1a4b 2A        	.uleb128 0x2a
 7524 1a4c 0000 0000 	.long.LASF348
 7525 1a50 02        	.byte0x2
 7526 1a51 068B      	.word0x68b
 7527 1a53 0000 0050 	.long0x50
 7528 1a57 02        	.uleb128 0x2
 7529 1a58 91        	.byte0x91
 7530 1a59 78        	.sleb128 -8
 7531 1a5a 00        	.byte0
 7532 1a5b 2B        	.uleb128 0x2b
 7533 1a5c 0000 0000 	.long.LASF369
 7534 1a60 02        	.byte0x2
 7535 1a61 0661      	.word0x661
 7536 1a63 0000 0050 	.long0x50
 7537 1a67 0000 0000 	.long.LFB83
 7538 1a6b 0000 00DC 	.long.LFE83-.LFB83
 7539 1a6f 01        	.uleb128 0x1
 7540 1a70 9C        	.byte0x9c
 7541 1a71 0000 1ACE 	.long0x1ace
 7542 1a75 28        	.uleb128 0x28
 7543 1a76 0000 0000 	.long.LASF362
 7544 1a7a 02        	.byte0x2
 7545 1a7b 0661      	.word0x661
 7546 1a7d 0000 18FE 	.long0x18fe
 7547 1a81 02        	.uleb128 0x2
 7548 1a82 91        	.byte0x91
 7549 1a83 00        	.sleb128 0
 7550 1a84 28        	.uleb128 0x28
 7551 1a85 0000 0000 	.long.LASF327
 7552 1a89 02        	.byte0x2
 7553 1a8a 0661      	.word0x661
 7554 1a8c 0000 0208 	.long0x208
 7555 1a90 02        	.uleb128 0x2
 7556 1a91 91        	.byte0x91
 7557 1a92 04        	.sleb128 4
 7558 1a93 2A        	.uleb128 0x2a
 7559 1a94 0000 0000 	.long.LASF370
 7560 1a98 02        	.byte0x2
 7561 1a99 0663      	.word0x663
 7562 1a9b 0000 0050 	.long0x50
 7563 1a9f 02        	.uleb128 0x2
 7564 1aa0 91        	.byte0x91
 7565 1aa1 78        	.sleb128 -8
68K GAS   			page 193


 7566 1aa2 2A        	.uleb128 0x2a
 7567 1aa3 0000 0000 	.long.LASF371
 7568 1aa7 02        	.byte0x2
 7569 1aa8 0664      	.word0x664
 7570 1aaa 0000 0090 	.long0x90
 7571 1aae 02        	.uleb128 0x2
 7572 1aaf 91        	.byte0x91
 7573 1ab0 6C        	.sleb128 -20
 7574 1ab1 2A        	.uleb128 0x2a
 7575 1ab2 0000 0000 	.long.LASF348
 7576 1ab6 02        	.byte0x2
 7577 1ab7 0665      	.word0x665
 7578 1ab9 0000 0050 	.long0x50
 7579 1abd 02        	.uleb128 0x2
 7580 1abe 91        	.byte0x91
 7581 1abf 70        	.sleb128 -16
 7582 1ac0 29        	.uleb128 0x29
 7583 1ac1 6900      	.string"i"
 7584 1ac3 02        	.byte0x2
 7585 1ac4 0666      	.word0x666
 7586 1ac6 0000 0090 	.long0x90
 7587 1aca 02        	.uleb128 0x2
 7588 1acb 91        	.byte0x91
 7589 1acc 74        	.sleb128 -12
 7590 1acd 00        	.byte0
 7591 1ace 2B        	.uleb128 0x2b
 7592 1acf 0000 0000 	.long.LASF372
 7593 1ad3 02        	.byte0x2
 7594 1ad4 0655      	.word0x655
 7595 1ad6 0000 0050 	.long0x50
 7596 1ada 0000 0000 	.long.LFB82
 7597 1ade 0000 002E 	.long.LFE82-.LFB82
 7598 1ae2 01        	.uleb128 0x1
 7599 1ae3 9C        	.byte0x9c
 7600 1ae4 0000 1B16 	.long0x1b16
 7601 1ae8 28        	.uleb128 0x28
 7602 1ae9 0000 0000 	.long.LASF373
 7603 1aed 02        	.byte0x2
 7604 1aee 0655      	.word0x655
 7605 1af0 0000 014D 	.long0x14d
 7606 1af4 02        	.uleb128 0x2
 7607 1af5 91        	.byte0x91
 7608 1af6 00        	.sleb128 0
 7609 1af7 28        	.uleb128 0x28
 7610 1af8 0000 0000 	.long.LASF374
 7611 1afc 02        	.byte0x2
 7612 1afd 0655      	.word0x655
 7613 1aff 0000 0C14 	.long0xc14
 7614 1b03 02        	.uleb128 0x2
 7615 1b04 91        	.byte0x91
 7616 1b05 04        	.sleb128 4
 7617 1b06 2A        	.uleb128 0x2a
 7618 1b07 0000 0000 	.long.LASF348
 7619 1b0b 02        	.byte0x2
 7620 1b0c 0657      	.word0x657
 7621 1b0e 0000 0050 	.long0x50
 7622 1b12 02        	.uleb128 0x2
68K GAS   			page 194


 7623 1b13 91        	.byte0x91
 7624 1b14 78        	.sleb128 -8
 7625 1b15 00        	.byte0
 7626 1b16 2B        	.uleb128 0x2b
 7627 1b17 0000 0000 	.long.LASF375
 7628 1b1b 02        	.byte0x2
 7629 1b1c 0646      	.word0x646
 7630 1b1e 0000 0050 	.long0x50
 7631 1b22 0000 0000 	.long.LFB81
 7632 1b26 0000 002E 	.long.LFE81-.LFB81
 7633 1b2a 01        	.uleb128 0x1
 7634 1b2b 9C        	.byte0x9c
 7635 1b2c 0000 1B5E 	.long0x1b5e
 7636 1b30 28        	.uleb128 0x28
 7637 1b31 0000 0000 	.long.LASF374
 7638 1b35 02        	.byte0x2
 7639 1b36 0646      	.word0x646
 7640 1b38 0000 0C14 	.long0xc14
 7641 1b3c 02        	.uleb128 0x2
 7642 1b3d 91        	.byte0x91
 7643 1b3e 00        	.sleb128 0
 7644 1b3f 28        	.uleb128 0x28
 7645 1b40 0000 0000 	.long.LASF376
 7646 1b44 02        	.byte0x2
 7647 1b45 0646      	.word0x646
 7648 1b47 0000 014D 	.long0x14d
 7649 1b4b 02        	.uleb128 0x2
 7650 1b4c 91        	.byte0x91
 7651 1b4d 04        	.sleb128 4
 7652 1b4e 2A        	.uleb128 0x2a
 7653 1b4f 0000 0000 	.long.LASF348
 7654 1b53 02        	.byte0x2
 7655 1b54 0648      	.word0x648
 7656 1b56 0000 0050 	.long0x50
 7657 1b5a 02        	.uleb128 0x2
 7658 1b5b 91        	.byte0x91
 7659 1b5c 78        	.sleb128 -8
 7660 1b5d 00        	.byte0
 7661 1b5e 2B        	.uleb128 0x2b
 7662 1b5f 0000 0000 	.long.LASF377
 7663 1b63 02        	.byte0x2
 7664 1b64 05F6      	.word0x5f6
 7665 1b66 0000 0050 	.long0x50
 7666 1b6a 0000 0000 	.long.LFB80
 7667 1b6e 0000 01E4 	.long.LFE80-.LFB80
 7668 1b72 01        	.uleb128 0x1
 7669 1b73 9C        	.byte0x9c
 7670 1b74 0000 1BF2 	.long0x1bf2
 7671 1b78 28        	.uleb128 0x28
 7672 1b79 0000 0000 	.long.LASF378
 7673 1b7d 02        	.byte0x2
 7674 1b7e 05F6      	.word0x5f6
 7675 1b80 0000 1BF2 	.long0x1bf2
 7676 1b84 02        	.uleb128 0x2
 7677 1b85 91        	.byte0x91
 7678 1b86 00        	.sleb128 0
 7679 1b87 28        	.uleb128 0x28
68K GAS   			page 195


 7680 1b88 0000 0000 	.long.LASF379
 7681 1b8c 02        	.byte0x2
 7682 1b8d 05F6      	.word0x5f6
 7683 1b8f 0000 0050 	.long0x50
 7684 1b93 02        	.uleb128 0x2
 7685 1b94 91        	.byte0x91
 7686 1b95 04        	.sleb128 4
 7687 1b96 28        	.uleb128 0x28
 7688 1b97 0000 0000 	.long.LASF160
 7689 1b9b 02        	.byte0x2
 7690 1b9c 05F6      	.word0x5f6
 7691 1b9e 0000 0208 	.long0x208
 7692 1ba2 02        	.uleb128 0x2
 7693 1ba3 91        	.byte0x91
 7694 1ba4 08        	.sleb128 8
 7695 1ba5 2A        	.uleb128 0x2a
 7696 1ba6 0000 0000 	.long.LASF348
 7697 1baa 02        	.byte0x2
 7698 1bab 05F8      	.word0x5f8
 7699 1bad 0000 0050 	.long0x50
 7700 1bb1 02        	.uleb128 0x2
 7701 1bb2 91        	.byte0x91
 7702 1bb3 78        	.sleb128 -8
 7703 1bb4 2A        	.uleb128 0x2a
 7704 1bb5 0000 0000 	.long.LASF380
 7705 1bb9 02        	.byte0x2
 7706 1bba 05F9      	.word0x5f9
 7707 1bbc 0000 015A 	.long0x15a
 7708 1bc0 02        	.uleb128 0x2
 7709 1bc1 91        	.byte0x91
 7710 1bc2 74        	.sleb128 -12
 7711 1bc3 2A        	.uleb128 0x2a
 7712 1bc4 0000 0000 	.long.LASF381
 7713 1bc8 02        	.byte0x2
 7714 1bc9 05FA      	.word0x5fa
 7715 1bcb 0000 0090 	.long0x90
 7716 1bcf 02        	.uleb128 0x2
 7717 1bd0 91        	.byte0x91
 7718 1bd1 70        	.sleb128 -16
 7719 1bd2 2A        	.uleb128 0x2a
 7720 1bd3 0000 0000 	.long.LASF182
 7721 1bd7 02        	.byte0x2
 7722 1bd8 05FC      	.word0x5fc
 7723 1bda 0000 0132 	.long0x132
 7724 1bde 02        	.uleb128 0x2
 7725 1bdf 91        	.byte0x91
 7726 1be0 5C        	.sleb128 -36
 7727 1be1 2A        	.uleb128 0x2a
 7728 1be2 0000 0000 	.long.LASF382
 7729 1be6 02        	.byte0x2
 7730 1be7 05FD      	.word0x5fd
 7731 1be9 0000 0C20 	.long0xc20
 7732 1bed 03        	.uleb128 0x3
 7733 1bee 91        	.byte0x91
 7734 1bef B67F      	.sleb128 -74
 7735 1bf1 00        	.byte0
 7736 1bf2 0F        	.uleb128 0xf
68K GAS   			page 196


 7737 1bf3 04        	.byte0x4
 7738 1bf4 0000 0C14 	.long0xc14
 7739 1bf8 2B        	.uleb128 0x2b
 7740 1bf9 0000 0000 	.long.LASF383
 7741 1bfd 02        	.byte0x2
 7742 1bfe 05A1      	.word0x5a1
 7743 1c00 0000 0090 	.long0x90
 7744 1c04 0000 0000 	.long.LFB79
 7745 1c08 0000 00E4 	.long.LFE79-.LFB79
 7746 1c0c 01        	.uleb128 0x1
 7747 1c0d 9C        	.byte0x9c
 7748 1c0e 0000 1CAA 	.long0x1caa
 7749 1c12 28        	.uleb128 0x28
 7750 1c13 0000 0000 	.long.LASF384
 7751 1c17 02        	.byte0x2
 7752 1c18 05A1      	.word0x5a1
 7753 1c1a 0000 0A33 	.long0xa33
 7754 1c1e 02        	.uleb128 0x2
 7755 1c1f 91        	.byte0x91
 7756 1c20 00        	.sleb128 0
 7757 1c21 28        	.uleb128 0x28
 7758 1c22 0000 0000 	.long.LASF385
 7759 1c26 02        	.byte0x2
 7760 1c27 05A1      	.word0x5a1
 7761 1c29 0000 0090 	.long0x90
 7762 1c2d 02        	.uleb128 0x2
 7763 1c2e 91        	.byte0x91
 7764 1c2f 04        	.sleb128 4
 7765 1c30 28        	.uleb128 0x28
 7766 1c31 0000 0000 	.long.LASF386
 7767 1c35 02        	.byte0x2
 7768 1c36 05A1      	.word0x5a1
 7769 1c38 0000 0090 	.long0x90
 7770 1c3c 02        	.uleb128 0x2
 7771 1c3d 91        	.byte0x91
 7772 1c3e 08        	.sleb128 8
 7773 1c3f 28        	.uleb128 0x28
 7774 1c40 0000 0000 	.long.LASF387
 7775 1c44 02        	.byte0x2
 7776 1c45 05A1      	.word0x5a1
 7777 1c47 0000 0090 	.long0x90
 7778 1c4b 02        	.uleb128 0x2
 7779 1c4c 91        	.byte0x91
 7780 1c4d 0C        	.sleb128 12
 7781 1c4e 29        	.uleb128 0x29
 7782 1c4f 6900      	.string"i"
 7783 1c51 02        	.byte0x2
 7784 1c52 05A3      	.word0x5a3
 7785 1c54 0000 0090 	.long0x90
 7786 1c58 02        	.uleb128 0x2
 7787 1c59 91        	.byte0x91
 7788 1c5a 78        	.sleb128 -8
 7789 1c5b 2A        	.uleb128 0x2a
 7790 1c5c 0000 0000 	.long.LASF388
 7791 1c60 02        	.byte0x2
 7792 1c61 05A4      	.word0x5a4
 7793 1c63 0000 003E 	.long0x3e
68K GAS   			page 197


 7794 1c67 02        	.uleb128 0x2
 7795 1c68 91        	.byte0x91
 7796 1c69 6E        	.sleb128 -18
 7797 1c6a 29        	.uleb128 0x29
 7798 1c6b 4372 6300 	.string"Crc"
 7799 1c6f 02        	.byte0x2
 7800 1c70 05A5      	.word0x5a5
 7801 1c72 0000 003E 	.long0x3e
 7802 1c76 02        	.uleb128 0x2
 7803 1c77 91        	.byte0x91
 7804 1c78 76        	.sleb128 -10
 7805 1c79 2A        	.uleb128 0x2a
 7806 1c7a 0000 0000 	.long.LASF389
 7807 1c7e 02        	.byte0x2
 7808 1c7f 05A6      	.word0x5a6
 7809 1c81 0000 1CAA 	.long0x1caa
 7810 1c85 02        	.uleb128 0x2
 7811 1c86 91        	.byte0x91
 7812 1c87 70        	.sleb128 -16
 7813 1c88 2A        	.uleb128 0x2a
 7814 1c89 0000 0000 	.long.LASF390
 7815 1c8d 02        	.byte0x2
 7816 1c8e 05A7      	.word0x5a7
 7817 1c90 0000 0069 	.long0x69
 7818 1c94 02        	.uleb128 0x2
 7819 1c95 91        	.byte0x91
 7820 1c96 6D        	.sleb128 -19
 7821 1c97 2A        	.uleb128 0x2a
 7822 1c98 0000 0000 	.long.LASF391
 7823 1c9c 02        	.byte0x2
 7824 1c9d 05A9      	.word0x5a9
 7825 1c9f 0000 1CC0 	.long0x1cc0
 7826 1ca3 05        	.uleb128 0x5
 7827 1ca4 03        	.byte0x3
 7828 1ca5 0000 0000 	.longCrcTable.5913
 7829 1ca9 00        	.byte0
 7830 1caa 0F        	.uleb128 0xf
 7831 1cab 04        	.byte0x4
 7832 1cac 0000 0074 	.long0x74
 7833 1cb0 09        	.uleb128 0x9
 7834 1cb1 0000 0084 	.long0x84
 7835 1cb5 0000 1CC0 	.long0x1cc0
 7836 1cb9 0A        	.uleb128 0xa
 7837 1cba 0000 00A0 	.long0xa0
 7838 1cbe FF        	.byte0xff
 7839 1cbf 00        	.byte0
 7840 1cc0 04        	.uleb128 0x4
 7841 1cc1 0000 1CB0 	.long0x1cb0
 7842 1cc5 2B        	.uleb128 0x2b
 7843 1cc6 0000 0000 	.long.LASF392
 7844 1cca 02        	.byte0x2
 7845 1ccb 0538      	.word0x538
 7846 1ccd 0000 0050 	.long0x50
 7847 1cd1 0000 0000 	.long.LFB78
 7848 1cd5 0000 0376 	.long.LFE78-.LFB78
 7849 1cd9 01        	.uleb128 0x1
 7850 1cda 9C        	.byte0x9c
68K GAS   			page 198


 7851 1cdb 0000 1D68 	.long0x1d68
 7852 1cdf 28        	.uleb128 0x28
 7853 1ce0 0000 0000 	.long.LASF393
 7854 1ce4 02        	.byte0x2
 7855 1ce5 0538      	.word0x538
 7856 1ce7 0000 0208 	.long0x208
 7857 1ceb 02        	.uleb128 0x2
 7858 1cec 91        	.byte0x91
 7859 1ced 00        	.sleb128 0
 7860 1cee 2D        	.uleb128 0x2d
 7861 1cef 2A        	.uleb128 0x2a
 7862 1cf0 0000 0000 	.long.LASF394
 7863 1cf4 02        	.byte0x2
 7864 1cf5 053A      	.word0x53a
 7865 1cf7 0000 00E2 	.long0xe2
 7866 1cfb 02        	.uleb128 0x2
 7867 1cfc 91        	.byte0x91
 7868 1cfd 64        	.sleb128 -28
 7869 1cfe 2A        	.uleb128 0x2a
 7870 1cff 0000 0000 	.long.LASF395
 7871 1d03 02        	.byte0x2
 7872 1d04 053B      	.word0x53b
 7873 1d06 0000 1D68 	.long0x1d68
 7874 1d0a 03        	.uleb128 0x3
 7875 1d0b 91        	.byte0x91
 7876 1d0c D17E      	.sleb128 -175
 7877 1d0e 2A        	.uleb128 0x2a
 7878 1d0f 0000 0000 	.long.LASF396
 7879 1d13 02        	.byte0x2
 7880 1d14 053C      	.word0x53c
 7881 1d16 0000 0DC0 	.long0xdc0
 7882 1d1a 03        	.uleb128 0x3
 7883 1d1b 91        	.byte0x91
 7884 1d1c D77D      	.sleb128 -297
 7885 1d1e 2A        	.uleb128 0x2a
 7886 1d1f 0000 0000 	.long.LASF397
 7887 1d23 02        	.byte0x2
 7888 1d24 053D      	.word0x53d
 7889 1d26 0000 015A 	.long0x15a
 7890 1d2a 02        	.uleb128 0x2
 7891 1d2b 91        	.byte0x91
 7892 1d2c 70        	.sleb128 -16
 7893 1d2d 2A        	.uleb128 0x2a
 7894 1d2e 0000 0000 	.long.LASF398
 7895 1d32 02        	.byte0x2
 7896 1d33 053E      	.word0x53e
 7897 1d35 0000 015A 	.long0x15a
 7898 1d39 02        	.uleb128 0x2
 7899 1d3a 91        	.byte0x91
 7900 1d3b 6C        	.sleb128 -20
 7901 1d3c 2A        	.uleb128 0x2a
 7902 1d3d 0000 0000 	.long.LASF399
 7903 1d41 02        	.byte0x2
 7904 1d42 053F      	.word0x53f
 7905 1d44 0000 015A 	.long0x15a
 7906 1d48 02        	.uleb128 0x2
 7907 1d49 91        	.byte0x91
68K GAS   			page 199


 7908 1d4a 68        	.sleb128 -24
 7909 1d4b 2A        	.uleb128 0x2a
 7910 1d4c 0000 0000 	.long.LASF370
 7911 1d50 02        	.byte0x2
 7912 1d51 0540      	.word0x540
 7913 1d53 0000 0090 	.long0x90
 7914 1d57 02        	.uleb128 0x2
 7915 1d58 91        	.byte0x91
 7916 1d59 78        	.sleb128 -8
 7917 1d5a 29        	.uleb128 0x29
 7918 1d5b 6900      	.string"i"
 7919 1d5d 02        	.byte0x2
 7920 1d5e 0541      	.word0x541
 7921 1d60 0000 0050 	.long0x50
 7922 1d64 02        	.uleb128 0x2
 7923 1d65 91        	.byte0x91
 7924 1d66 74        	.sleb128 -12
 7925 1d67 00        	.byte0
 7926 1d68 09        	.uleb128 0x9
 7927 1d69 0000 00C5 	.long0xc5
 7928 1d6d 0000 1D78 	.long0x1d78
 7929 1d71 0A        	.uleb128 0xa
 7930 1d72 0000 00A0 	.long0xa0
 7931 1d76 92        	.byte0x92
 7932 1d77 00        	.byte0
 7933 1d78 27        	.uleb128 0x27
 7934 1d79 0000 0000 	.long.LASF400
 7935 1d7d 02        	.byte0x2
 7936 1d7e 04F6      	.word0x4f6
 7937 1d80 0000 0000 	.long.LFB77
 7938 1d84 0000 00FA 	.long.LFE77-.LFB77
 7939 1d88 01        	.uleb128 0x1
 7940 1d89 9C        	.byte0x9c
 7941 1d8a 0000 1DDA 	.long0x1dda
 7942 1d8e 2A        	.uleb128 0x2a
 7943 1d8f 0000 0000 	.long.LASF180
 7944 1d93 02        	.byte0x2
 7945 1d94 04F8      	.word0x4f8
 7946 1d96 0000 0090 	.long0x90
 7947 1d9a 02        	.uleb128 0x2
 7948 1d9b 91        	.byte0x91
 7949 1d9c 70        	.sleb128 -16
 7950 1d9d 2A        	.uleb128 0x2a
 7951 1d9e 0000 0000 	.long.LASF401
 7952 1da2 02        	.byte0x2
 7953 1da3 04F9      	.word0x4f9
 7954 1da5 0000 0090 	.long0x90
 7955 1da9 02        	.uleb128 0x2
 7956 1daa 91        	.byte0x91
 7957 1dab 74        	.sleb128 -12
 7958 1dac 2A        	.uleb128 0x2a
 7959 1dad 0000 0000 	.long.LASF158
 7960 1db1 02        	.byte0x2
 7961 1db2 04FA      	.word0x4fa
 7962 1db4 0000 0090 	.long0x90
 7963 1db8 02        	.uleb128 0x2
 7964 1db9 91        	.byte0x91
68K GAS   			page 200


 7965 1dba 6C        	.sleb128 -20
 7966 1dbb 2A        	.uleb128 0x2a
 7967 1dbc 0000 0000 	.long.LASF370
 7968 1dc0 02        	.byte0x2
 7969 1dc1 04FB      	.word0x4fb
 7970 1dc3 0000 0090 	.long0x90
 7971 1dc7 02        	.uleb128 0x2
 7972 1dc8 91        	.byte0x91
 7973 1dc9 78        	.sleb128 -8
 7974 1dca 2E        	.uleb128 0x2e
 7975 1dcb 0000 0000 	.long.LASF406
 7976 1dcf 0000 1DEA 	.long0x1dea
 7977 1dd3 05        	.uleb128 0x5
 7978 1dd4 03        	.byte0x3
 7979 1dd5 0000 0000 	.long__func__.5887
 7980 1dd9 00        	.byte0
 7981 1dda 09        	.uleb128 0x9
 7982 1ddb 0000 00CC 	.long0xcc
 7983 1ddf 0000 1DEA 	.long0x1dea
 7984 1de3 0A        	.uleb128 0xa
 7985 1de4 0000 00A0 	.long0xa0
 7986 1de8 14        	.byte0x14
 7987 1de9 00        	.byte0
 7988 1dea 04        	.uleb128 0x4
 7989 1deb 0000 1DDA 	.long0x1dda
 7990 1def 2B        	.uleb128 0x2b
 7991 1df0 0000 0000 	.long.LASF402
 7992 1df4 02        	.byte0x2
 7993 1df5 0489      	.word0x489
 7994 1df7 0000 0050 	.long0x50
 7995 1dfb 0000 0000 	.long.LFB76
 7996 1dff 0000 01B4 	.long.LFE76-.LFB76
 7997 1e03 01        	.uleb128 0x1
 7998 1e04 9C        	.byte0x9c
 7999 1e05 0000 1E71 	.long0x1e71
 8000 1e09 28        	.uleb128 0x28
 8001 1e0a 0000 0000 	.long.LASF403
 8002 1e0e 02        	.byte0x2
 8003 1e0f 0489      	.word0x489
 8004 1e11 0000 0090 	.long0x90
 8005 1e15 02        	.uleb128 0x2
 8006 1e16 91        	.byte0x91
 8007 1e17 00        	.sleb128 0
 8008 1e18 29        	.uleb128 0x29
 8009 1e19 6900      	.string"i"
 8010 1e1b 02        	.byte0x2
 8011 1e1c 048B      	.word0x48b
 8012 1e1e 0000 0090 	.long0x90
 8013 1e22 02        	.uleb128 0x2
 8014 1e23 91        	.byte0x91
 8015 1e24 78        	.sleb128 -8
 8016 1e25 2A        	.uleb128 0x2a
 8017 1e26 0000 0000 	.long.LASF180
 8018 1e2a 02        	.byte0x2
 8019 1e2b 048C      	.word0x48c
 8020 1e2d 0000 0090 	.long0x90
 8021 1e31 02        	.uleb128 0x2
68K GAS   			page 201


 8022 1e32 91        	.byte0x91
 8023 1e33 68        	.sleb128 -24
 8024 1e34 2A        	.uleb128 0x2a
 8025 1e35 0000 0000 	.long.LASF404
 8026 1e39 02        	.byte0x2
 8027 1e3a 048D      	.word0x48d
 8028 1e3c 0000 0090 	.long0x90
 8029 1e40 02        	.uleb128 0x2
 8030 1e41 91        	.byte0x91
 8031 1e42 74        	.sleb128 -12
 8032 1e43 2A        	.uleb128 0x2a
 8033 1e44 0000 0000 	.long.LASF370
 8034 1e48 02        	.byte0x2
 8035 1e49 048E      	.word0x48e
 8036 1e4b 0000 0050 	.long0x50
 8037 1e4f 02        	.uleb128 0x2
 8038 1e50 91        	.byte0x91
 8039 1e51 70        	.sleb128 -16
 8040 1e52 2A        	.uleb128 0x2a
 8041 1e53 0000 0000 	.long.LASF405
 8042 1e57 02        	.byte0x2
 8043 1e58 048F      	.word0x48f
 8044 1e5a 0000 0050 	.long0x50
 8045 1e5e 02        	.uleb128 0x2
 8046 1e5f 91        	.byte0x91
 8047 1e60 6C        	.sleb128 -20
 8048 1e61 2E        	.uleb128 0x2e
 8049 1e62 0000 0000 	.long.LASF406
 8050 1e66 0000 1E81 	.long0x1e81
 8051 1e6a 05        	.uleb128 0x5
 8052 1e6b 03        	.byte0x3
 8053 1e6c 0000 0000 	.long__func__.5876
 8054 1e70 00        	.byte0
 8055 1e71 09        	.uleb128 0x9
 8056 1e72 0000 00CC 	.long0xcc
 8057 1e76 0000 1E81 	.long0x1e81
 8058 1e7a 0A        	.uleb128 0xa
 8059 1e7b 0000 00A0 	.long0xa0
 8060 1e7f 16        	.byte0x16
 8061 1e80 00        	.byte0
 8062 1e81 04        	.uleb128 0x4
 8063 1e82 0000 1E71 	.long0x1e71
 8064 1e86 27        	.uleb128 0x27
 8065 1e87 0000 0000 	.long.LASF407
 8066 1e8b 02        	.byte0x2
 8067 1e8c 0476      	.word0x476
 8068 1e8e 0000 0000 	.long.LFB75
 8069 1e92 0000 004A 	.long.LFE75-.LFB75
 8070 1e96 01        	.uleb128 0x1
 8071 1e97 9C        	.byte0x9c
 8072 1e98 0000 1EAC 	.long0x1eac
 8073 1e9c 2A        	.uleb128 0x2a
 8074 1e9d 0000 0000 	.long.LASF180
 8075 1ea1 02        	.byte0x2
 8076 1ea2 0478      	.word0x478
 8077 1ea4 0000 0090 	.long0x90
 8078 1ea8 02        	.uleb128 0x2
68K GAS   			page 202


 8079 1ea9 91        	.byte0x91
 8080 1eaa 78        	.sleb128 -8
 8081 1eab 00        	.byte0
 8082 1eac 2B        	.uleb128 0x2b
 8083 1ead 0000 0000 	.long.LASF408
 8084 1eb1 02        	.byte0x2
 8085 1eb2 044C      	.word0x44c
 8086 1eb4 0000 0050 	.long0x50
 8087 1eb8 0000 0000 	.long.LFB74
 8088 1ebc 0000 0050 	.long.LFE74-.LFB74
 8089 1ec0 01        	.uleb128 0x1
 8090 1ec1 9C        	.byte0x9c
 8091 1ec2 0000 1EF4 	.long0x1ef4
 8092 1ec6 2A        	.uleb128 0x2a
 8093 1ec7 0000 0000 	.long.LASF359
 8094 1ecb 02        	.byte0x2
 8095 1ecc 044E      	.word0x44e
 8096 1ece 0000 0050 	.long0x50
 8097 1ed2 02        	.uleb128 0x2
 8098 1ed3 91        	.byte0x91
 8099 1ed4 74        	.sleb128 -12
 8100 1ed5 2A        	.uleb128 0x2a
 8101 1ed6 0000 0000 	.long.LASF370
 8102 1eda 02        	.byte0x2
 8103 1edb 044F      	.word0x44f
 8104 1edd 0000 0050 	.long0x50
 8105 1ee1 02        	.uleb128 0x2
 8106 1ee2 91        	.byte0x91
 8107 1ee3 78        	.sleb128 -8
 8108 1ee4 2E        	.uleb128 0x2e
 8109 1ee5 0000 0000 	.long.LASF406
 8110 1ee9 0000 1F04 	.long0x1f04
 8111 1eed 05        	.uleb128 0x5
 8112 1eee 03        	.byte0x3
 8113 1eef 0000 0000 	.long__func__.5863
 8114 1ef3 00        	.byte0
 8115 1ef4 09        	.uleb128 0x9
 8116 1ef5 0000 00CC 	.long0xcc
 8117 1ef9 0000 1F04 	.long0x1f04
 8118 1efd 0A        	.uleb128 0xa
 8119 1efe 0000 00A0 	.long0xa0
 8120 1f02 18        	.byte0x18
 8121 1f03 00        	.byte0
 8122 1f04 04        	.uleb128 0x4
 8123 1f05 0000 1EF4 	.long0x1ef4
 8124 1f09 2B        	.uleb128 0x2b
 8125 1f0a 0000 0000 	.long.LASF409
 8126 1f0e 02        	.byte0x2
 8127 1f0f 03C9      	.word0x3c9
 8128 1f11 0000 0050 	.long0x50
 8129 1f15 0000 0000 	.long.LFB73
 8130 1f19 0000 02B6 	.long.LFE73-.LFB73
 8131 1f1d 01        	.uleb128 0x1
 8132 1f1e 9C        	.byte0x9c
 8133 1f1f 0000 1FE7 	.long0x1fe7
 8134 1f23 28        	.uleb128 0x28
 8135 1f24 0000 0000 	.long.LASF410
68K GAS   			page 203


 8136 1f28 02        	.byte0x2
 8137 1f29 03C9      	.word0x3c9
 8138 1f2b 0000 18FE 	.long0x18fe
 8139 1f2f 02        	.uleb128 0x2
 8140 1f30 91        	.byte0x91
 8141 1f31 00        	.sleb128 0
 8142 1f32 28        	.uleb128 0x28
 8143 1f33 0000 0000 	.long.LASF181
 8144 1f37 02        	.byte0x2
 8145 1f38 03CA      	.word0x3ca
 8146 1f3a 0000 0208 	.long0x208
 8147 1f3e 02        	.uleb128 0x2
 8148 1f3f 91        	.byte0x91
 8149 1f40 04        	.sleb128 4
 8150 1f41 28        	.uleb128 0x28
 8151 1f42 0000 0000 	.long.LASF411
 8152 1f46 02        	.byte0x2
 8153 1f47 03CB      	.word0x3cb
 8154 1f49 0000 0C30 	.long0xc30
 8155 1f4d 02        	.uleb128 0x2
 8156 1f4e 91        	.byte0x91
 8157 1f4f 08        	.sleb128 8
 8158 1f50 28        	.uleb128 0x28
 8159 1f51 0000 0000 	.long.LASF412
 8160 1f55 02        	.byte0x2
 8161 1f56 03CC      	.word0x3cc
 8162 1f58 0000 18FE 	.long0x18fe
 8163 1f5c 02        	.uleb128 0x2
 8164 1f5d 91        	.byte0x91
 8165 1f5e 0C        	.sleb128 12
 8166 1f5f 28        	.uleb128 0x28
 8167 1f60 0000 0000 	.long.LASF163
 8168 1f64 02        	.byte0x2
 8169 1f65 03CD      	.word0x3cd
 8170 1f67 0000 0090 	.long0x90
 8171 1f6b 02        	.uleb128 0x2
 8172 1f6c 91        	.byte0x91
 8173 1f6d 10        	.sleb128 16
 8174 1f6e 28        	.uleb128 0x28
 8175 1f6f 0000 0000 	.long.LASF174
 8176 1f73 02        	.byte0x2
 8177 1f74 03CE      	.word0x3ce
 8178 1f76 0000 0090 	.long0x90
 8179 1f7a 02        	.uleb128 0x2
 8180 1f7b 91        	.byte0x91
 8181 1f7c 14        	.sleb128 20
 8182 1f7d 28        	.uleb128 0x28
 8183 1f7e 0000 0000 	.long.LASF413
 8184 1f82 02        	.byte0x2
 8185 1f83 03CF      	.word0x3cf
 8186 1f85 0000 0090 	.long0x90
 8187 1f89 02        	.uleb128 0x2
 8188 1f8a 91        	.byte0x91
 8189 1f8b 18        	.sleb128 24
 8190 1f8c 2A        	.uleb128 0x2a
 8191 1f8d 0000 0000 	.long.LASF359
 8192 1f91 02        	.byte0x2
68K GAS   			page 204


 8193 1f92 03D2      	.word0x3d2
 8194 1f94 0000 0050 	.long0x50
 8195 1f98 02        	.uleb128 0x2
 8196 1f99 91        	.byte0x91
 8197 1f9a 74        	.sleb128 -12
 8198 1f9b 2A        	.uleb128 0x2a
 8199 1f9c 0000 0000 	.long.LASF158
 8200 1fa0 02        	.byte0x2
 8201 1fa1 03D3      	.word0x3d3
 8202 1fa3 0000 0090 	.long0x90
 8203 1fa7 02        	.uleb128 0x2
 8204 1fa8 91        	.byte0x91
 8205 1fa9 6C        	.sleb128 -20
 8206 1faa 2A        	.uleb128 0x2a
 8207 1fab 0000 0000 	.long.LASF370
 8208 1faf 02        	.byte0x2
 8209 1fb0 03D4      	.word0x3d4
 8210 1fb2 0000 0050 	.long0x50
 8211 1fb6 02        	.uleb128 0x2
 8212 1fb7 91        	.byte0x91
 8213 1fb8 78        	.sleb128 -8
 8214 1fb9 2A        	.uleb128 0x2a
 8215 1fba 0000 0000 	.long.LASF180
 8216 1fbe 02        	.byte0x2
 8217 1fbf 03D5      	.word0x3d5
 8218 1fc1 0000 0090 	.long0x90
 8219 1fc5 02        	.uleb128 0x2
 8220 1fc6 91        	.byte0x91
 8221 1fc7 68        	.sleb128 -24
 8222 1fc8 2A        	.uleb128 0x2a
 8223 1fc9 0000 0000 	.long.LASF401
 8224 1fcd 02        	.byte0x2
 8225 1fce 03D6      	.word0x3d6
 8226 1fd0 0000 0090 	.long0x90
 8227 1fd4 02        	.uleb128 0x2
 8228 1fd5 91        	.byte0x91
 8229 1fd6 70        	.sleb128 -16
 8230 1fd7 2E        	.uleb128 0x2e
 8231 1fd8 0000 0000 	.long.LASF406
 8232 1fdc 0000 1E81 	.long0x1e81
 8233 1fe0 05        	.uleb128 0x5
 8234 1fe1 03        	.byte0x3
 8235 1fe2 0000 0000 	.long__func__.5857
 8236 1fe6 00        	.byte0
 8237 1fe7 2B        	.uleb128 0x2b
 8238 1fe8 0000 0000 	.long.LASF414
 8239 1fec 02        	.byte0x2
 8240 1fed 0380      	.word0x380
 8241 1fef 0000 0050 	.long0x50
 8242 1ff3 0000 0000 	.long.LFB72
 8243 1ff7 0000 01BE 	.long.LFE72-.LFB72
 8244 1ffb 01        	.uleb128 0x1
 8245 1ffc 9C        	.byte0x9c
 8246 1ffd 0000 204D 	.long0x204d
 8247 2001 28        	.uleb128 0x28
 8248 2002 0000 0000 	.long.LASF221
 8249 2006 02        	.byte0x2
68K GAS   			page 205


 8250 2007 0380      	.word0x380
 8251 2009 0000 204D 	.long0x204d
 8252 200d 02        	.uleb128 0x2
 8253 200e 91        	.byte0x91
 8254 200f 00        	.sleb128 0
 8255 2010 28        	.uleb128 0x28
 8256 2011 0000 0000 	.long.LASF403
 8257 2015 02        	.byte0x2
 8258 2016 0380      	.word0x380
 8259 2018 0000 0090 	.long0x90
 8260 201c 02        	.uleb128 0x2
 8261 201d 91        	.byte0x91
 8262 201e 04        	.sleb128 4
 8263 201f 2A        	.uleb128 0x2a
 8264 2020 0000 0000 	.long.LASF370
 8265 2024 02        	.byte0x2
 8266 2025 0382      	.word0x382
 8267 2027 0000 0050 	.long0x50
 8268 202b 02        	.uleb128 0x2
 8269 202c 91        	.byte0x91
 8270 202d 78        	.sleb128 -8
 8271 202e 2A        	.uleb128 0x2a
 8272 202f 0000 0000 	.long.LASF180
 8273 2033 02        	.byte0x2
 8274 2034 0383      	.word0x383
 8275 2036 0000 0090 	.long0x90
 8276 203a 02        	.uleb128 0x2
 8277 203b 91        	.byte0x91
 8278 203c 74        	.sleb128 -12
 8279 203d 2E        	.uleb128 0x2e
 8280 203e 0000 0000 	.long.LASF406
 8281 2042 0000 2063 	.long0x2063
 8282 2046 05        	.uleb128 0x5
 8283 2047 03        	.byte0x3
 8284 2048 0000 0000 	.long__func__.5842
 8285 204c 00        	.byte0
 8286 204d 0F        	.uleb128 0xf
 8287 204e 04        	.byte0x4
 8288 204f 0000 0C08 	.long0xc08
 8289 2053 09        	.uleb128 0x9
 8290 2054 0000 00CC 	.long0xcc
 8291 2058 0000 2063 	.long0x2063
 8292 205c 0A        	.uleb128 0xa
 8293 205d 0000 00A0 	.long0xa0
 8294 2061 12        	.byte0x12
 8295 2062 00        	.byte0
 8296 2063 04        	.uleb128 0x4
 8297 2064 0000 2053 	.long0x2053
 8298 2068 2B        	.uleb128 0x2b
 8299 2069 0000 0000 	.long.LASF415
 8300 206d 02        	.byte0x2
 8301 206e 0358      	.word0x358
 8302 2070 0000 0050 	.long0x50
 8303 2074 0000 0000 	.long.LFB71
 8304 2078 0000 009E 	.long.LFE71-.LFB71
 8305 207c 01        	.uleb128 0x1
 8306 207d 9C        	.byte0x9c
68K GAS   			page 206


 8307 207e 0000 20B0 	.long0x20b0
 8308 2082 28        	.uleb128 0x28
 8309 2083 0000 0000 	.long.LASF416
 8310 2087 02        	.byte0x2
 8311 2088 0358      	.word0x358
 8312 208a 0000 20B0 	.long0x20b0
 8313 208e 02        	.uleb128 0x2
 8314 208f 91        	.byte0x91
 8315 2090 00        	.sleb128 0
 8316 2091 28        	.uleb128 0x28
 8317 2092 0000 0000 	.long.LASF158
 8318 2096 02        	.byte0x2
 8319 2097 0358      	.word0x358
 8320 2099 0000 0090 	.long0x90
 8321 209d 02        	.uleb128 0x2
 8322 209e 91        	.byte0x91
 8323 209f 04        	.sleb128 4
 8324 20a0 2A        	.uleb128 0x2a
 8325 20a1 0000 0000 	.long.LASF370
 8326 20a5 02        	.byte0x2
 8327 20a6 035A      	.word0x35a
 8328 20a8 0000 0050 	.long0x50
 8329 20ac 02        	.uleb128 0x2
 8330 20ad 91        	.byte0x91
 8331 20ae 78        	.sleb128 -8
 8332 20af 00        	.byte0
 8333 20b0 0F        	.uleb128 0xf
 8334 20b1 04        	.byte0x4
 8335 20b2 0000 0BA1 	.long0xba1
 8336 20b6 2B        	.uleb128 0x2b
 8337 20b7 0000 0000 	.long.LASF417
 8338 20bb 02        	.byte0x2
 8339 20bc 0333      	.word0x333
 8340 20be 0000 0050 	.long0x50
 8341 20c2 0000 0000 	.long.LFB70
 8342 20c6 0000 00A8 	.long.LFE70-.LFB70
 8343 20ca 01        	.uleb128 0x1
 8344 20cb 9C        	.byte0x9c
 8345 20cc 0000 211C 	.long0x211c
 8346 20d0 28        	.uleb128 0x28
 8347 20d1 0000 0000 	.long.LASF182
 8348 20d5 02        	.byte0x2
 8349 20d6 0333      	.word0x333
 8350 20d8 0000 06F3 	.long0x6f3
 8351 20dc 02        	.uleb128 0x2
 8352 20dd 91        	.byte0x91
 8353 20de 00        	.sleb128 0
 8354 20df 28        	.uleb128 0x28
 8355 20e0 0000 0000 	.long.LASF158
 8356 20e4 02        	.byte0x2
 8357 20e5 0333      	.word0x333
 8358 20e7 0000 0090 	.long0x90
 8359 20eb 02        	.uleb128 0x2
 8360 20ec 91        	.byte0x91
 8361 20ed 04        	.sleb128 4
 8362 20ee 28        	.uleb128 0x28
 8363 20ef 0000 0000 	.long.LASF418
68K GAS   			page 207


 8364 20f3 02        	.byte0x2
 8365 20f4 0333      	.word0x333
 8366 20f6 0000 0090 	.long0x90
 8367 20fa 02        	.uleb128 0x2
 8368 20fb 91        	.byte0x91
 8369 20fc 08        	.sleb128 8
 8370 20fd 2A        	.uleb128 0x2a
 8371 20fe 0000 0000 	.long.LASF359
 8372 2102 02        	.byte0x2
 8373 2103 0335      	.word0x335
 8374 2105 0000 0050 	.long0x50
 8375 2109 02        	.uleb128 0x2
 8376 210a 91        	.byte0x91
 8377 210b 78        	.sleb128 -8
 8378 210c 2E        	.uleb128 0x2e
 8379 210d 0000 0000 	.long.LASF406
 8380 2111 0000 212C 	.long0x212c
 8381 2115 05        	.uleb128 0x5
 8382 2116 03        	.byte0x3
 8383 2117 0000 0000 	.long__func__.5830
 8384 211b 00        	.byte0
 8385 211c 09        	.uleb128 0x9
 8386 211d 0000 00CC 	.long0xcc
 8387 2121 0000 212C 	.long0x212c
 8388 2125 0A        	.uleb128 0xa
 8389 2126 0000 00A0 	.long0xa0
 8390 212a 11        	.byte0x11
 8391 212b 00        	.byte0
 8392 212c 04        	.uleb128 0x4
 8393 212d 0000 211C 	.long0x211c
 8394 2131 2B        	.uleb128 0x2b
 8395 2132 0000 0000 	.long.LASF419
 8396 2136 02        	.byte0x2
 8397 2137 0310      	.word0x310
 8398 2139 0000 0050 	.long0x50
 8399 213d 0000 0000 	.long.LFB69
 8400 2141 0000 008C 	.long.LFE69-.LFB69
 8401 2145 01        	.uleb128 0x1
 8402 2146 9C        	.byte0x9c
 8403 2147 0000 2188 	.long0x2188
 8404 214b 28        	.uleb128 0x28
 8405 214c 0000 0000 	.long.LASF358
 8406 2150 02        	.byte0x2
 8407 2151 0310      	.word0x310
 8408 2153 0000 18FE 	.long0x18fe
 8409 2157 02        	.uleb128 0x2
 8410 2158 91        	.byte0x91
 8411 2159 00        	.sleb128 0
 8412 215a 2A        	.uleb128 0x2a
 8413 215b 0000 0000 	.long.LASF359
 8414 215f 02        	.byte0x2
 8415 2160 0312      	.word0x312
 8416 2162 0000 0050 	.long0x50
 8417 2166 02        	.uleb128 0x2
 8418 2167 91        	.byte0x91
 8419 2168 78        	.sleb128 -8
 8420 2169 2A        	.uleb128 0x2a
68K GAS   			page 208


 8421 216a 0000 0000 	.long.LASF180
 8422 216e 02        	.byte0x2
 8423 216f 0313      	.word0x313
 8424 2171 0000 0090 	.long0x90
 8425 2175 02        	.uleb128 0x2
 8426 2176 91        	.byte0x91
 8427 2177 74        	.sleb128 -12
 8428 2178 2E        	.uleb128 0x2e
 8429 2179 0000 0000 	.long.LASF406
 8430 217d 0000 2198 	.long0x2198
 8431 2181 05        	.uleb128 0x5
 8432 2182 03        	.byte0x3
 8433 2183 0000 0000 	.long__func__.5823
 8434 2187 00        	.byte0
 8435 2188 09        	.uleb128 0x9
 8436 2189 0000 00CC 	.long0xcc
 8437 218d 0000 2198 	.long0x2198
 8438 2191 0A        	.uleb128 0xa
 8439 2192 0000 00A0 	.long0xa0
 8440 2196 0F        	.byte0xf
 8441 2197 00        	.byte0
 8442 2198 04        	.uleb128 0x4
 8443 2199 0000 2188 	.long0x2188
 8444 219d 2B        	.uleb128 0x2b
 8445 219e 0000 0000 	.long.LASF420
 8446 21a2 02        	.byte0x2
 8447 21a3 02EC      	.word0x2ec
 8448 21a5 0000 0050 	.long0x50
 8449 21a9 0000 0000 	.long.LFB68
 8450 21ad 0000 00A2 	.long.LFE68-.LFB68
 8451 21b1 01        	.uleb128 0x1
 8452 21b2 9C        	.byte0x9c
 8453 21b3 0000 2201 	.long0x2201
 8454 21b7 28        	.uleb128 0x28
 8455 21b8 0000 0000 	.long.LASF358
 8456 21bc 02        	.byte0x2
 8457 21bd 02EC      	.word0x2ec
 8458 21bf 0000 18FE 	.long0x18fe
 8459 21c3 02        	.uleb128 0x2
 8460 21c4 91        	.byte0x91
 8461 21c5 00        	.sleb128 0
 8462 21c6 28        	.uleb128 0x28
 8463 21c7 0000 0000 	.long.LASF182
 8464 21cb 02        	.byte0x2
 8465 21cc 02EC      	.word0x2ec
 8466 21ce 0000 0208 	.long0x208
 8467 21d2 02        	.uleb128 0x2
 8468 21d3 91        	.byte0x91
 8469 21d4 04        	.sleb128 4
 8470 21d5 2A        	.uleb128 0x2a
 8471 21d6 0000 0000 	.long.LASF359
 8472 21da 02        	.byte0x2
 8473 21db 02EE      	.word0x2ee
 8474 21dd 0000 0050 	.long0x50
 8475 21e1 02        	.uleb128 0x2
 8476 21e2 91        	.byte0x91
 8477 21e3 78        	.sleb128 -8
68K GAS   			page 209


 8478 21e4 29        	.uleb128 0x29
 8479 21e5 6900      	.string"i"
 8480 21e7 02        	.byte0x2
 8481 21e8 02EF      	.word0x2ef
 8482 21ea 0000 0090 	.long0x90
 8483 21ee 02        	.uleb128 0x2
 8484 21ef 91        	.byte0x91
 8485 21f0 74        	.sleb128 -12
 8486 21f1 2E        	.uleb128 0x2e
 8487 21f2 0000 0000 	.long.LASF406
 8488 21f6 0000 2211 	.long0x2211
 8489 21fa 05        	.uleb128 0x5
 8490 21fb 03        	.byte0x3
 8491 21fc 0000 0000 	.long__func__.5814
 8492 2200 00        	.byte0
 8493 2201 09        	.uleb128 0x9
 8494 2202 0000 00CC 	.long0xcc
 8495 2206 0000 2211 	.long0x2211
 8496 220a 0A        	.uleb128 0xa
 8497 220b 0000 00A0 	.long0xa0
 8498 220f 15        	.byte0x15
 8499 2210 00        	.byte0
 8500 2211 04        	.uleb128 0x4
 8501 2212 0000 2201 	.long0x2201
 8502 2216 2B        	.uleb128 0x2b
 8503 2217 0000 0000 	.long.LASF421
 8504 221b 02        	.byte0x2
 8505 221c 02C1      	.word0x2c1
 8506 221e 0000 0050 	.long0x50
 8507 2222 0000 0000 	.long.LFB67
 8508 2226 0000 004A 	.long.LFE67-.LFB67
 8509 222a 01        	.uleb128 0x1
 8510 222b 9C        	.byte0x9c
 8511 222c 0000 224F 	.long0x224f
 8512 2230 2A        	.uleb128 0x2a
 8513 2231 0000 0000 	.long.LASF359
 8514 2235 02        	.byte0x2
 8515 2236 02C3      	.word0x2c3
 8516 2238 0000 0050 	.long0x50
 8517 223c 02        	.uleb128 0x2
 8518 223d 91        	.byte0x91
 8519 223e 78        	.sleb128 -8
 8520 223f 2E        	.uleb128 0x2e
 8521 2240 0000 0000 	.long.LASF406
 8522 2244 0000 2063 	.long0x2063
 8523 2248 05        	.uleb128 0x5
 8524 2249 03        	.byte0x3
 8525 224a 0000 0000 	.long__func__.5807
 8526 224e 00        	.byte0
 8527 224f 27        	.uleb128 0x27
 8528 2250 0000 0000 	.long.LASF422
 8529 2254 02        	.byte0x2
 8530 2255 028B      	.word0x28b
 8531 2257 0000 0000 	.long.LFB66
 8532 225b 0000 00C6 	.long.LFE66-.LFB66
 8533 225f 01        	.uleb128 0x1
 8534 2260 9C        	.byte0x9c
68K GAS   			page 210


 8535 2261 0000 22B1 	.long0x22b1
 8536 2265 28        	.uleb128 0x28
 8537 2266 0000 0000 	.long.LASF423
 8538 226a 02        	.byte0x2
 8539 226b 028B      	.word0x28b
 8540 226d 0000 0090 	.long0x90
 8541 2271 02        	.uleb128 0x2
 8542 2272 91        	.byte0x91
 8543 2273 00        	.sleb128 0
 8544 2274 2A        	.uleb128 0x2a
 8545 2275 0000 0000 	.long.LASF348
 8546 2279 02        	.byte0x2
 8547 227a 028D      	.word0x28d
 8548 227c 0000 0050 	.long0x50
 8549 2280 02        	.uleb128 0x2
 8550 2281 91        	.byte0x91
 8551 2282 74        	.sleb128 -12
 8552 2283 2A        	.uleb128 0x2a
 8553 2284 0000 0000 	.long.LASF241
 8554 2288 02        	.byte0x2
 8555 2289 028E      	.word0x28e
 8556 228b 0000 0090 	.long0x90
 8557 228f 02        	.uleb128 0x2
 8558 2290 91        	.byte0x91
 8559 2291 70        	.sleb128 -16
 8560 2292 2A        	.uleb128 0x2a
 8561 2293 0000 0000 	.long.LASF424
 8562 2297 02        	.byte0x2
 8563 2298 028F      	.word0x28f
 8564 229a 0000 0090 	.long0x90
 8565 229e 02        	.uleb128 0x2
 8566 229f 91        	.byte0x91
 8567 22a0 78        	.sleb128 -8
 8568 22a1 2E        	.uleb128 0x2e
 8569 22a2 0000 0000 	.long.LASF406
 8570 22a6 0000 22C1 	.long0x22c1
 8571 22aa 05        	.uleb128 0x5
 8572 22ab 03        	.byte0x3
 8573 22ac 0000 0000 	.long__func__.5802
 8574 22b0 00        	.byte0
 8575 22b1 09        	.uleb128 0x9
 8576 22b2 0000 00CC 	.long0xcc
 8577 22b6 0000 22C1 	.long0x22c1
 8578 22ba 0A        	.uleb128 0xa
 8579 22bb 0000 00A0 	.long0xa0
 8580 22bf 19        	.byte0x19
 8581 22c0 00        	.byte0
 8582 22c1 04        	.uleb128 0x4
 8583 22c2 0000 22B1 	.long0x22b1
 8584 22c6 2B        	.uleb128 0x2b
 8585 22c7 0000 0000 	.long.LASF425
 8586 22cb 02        	.byte0x2
 8587 22cc 021B      	.word0x21b
 8588 22ce 0000 0050 	.long0x50
 8589 22d2 0000 0000 	.long.LFB65
 8590 22d6 0000 01B2 	.long.LFE65-.LFB65
 8591 22da 01        	.uleb128 0x1
68K GAS   			page 211


 8592 22db 9C        	.byte0x9c
 8593 22dc 0000 232C 	.long0x232c
 8594 22e0 28        	.uleb128 0x28
 8595 22e1 0000 0000 	.long.LASF426
 8596 22e5 02        	.byte0x2
 8597 22e6 021B      	.word0x21b
 8598 22e8 0000 18FE 	.long0x18fe
 8599 22ec 02        	.uleb128 0x2
 8600 22ed 91        	.byte0x91
 8601 22ee 00        	.sleb128 0
 8602 22ef 2A        	.uleb128 0x2a
 8603 22f0 0000 0000 	.long.LASF370
 8604 22f4 02        	.byte0x2
 8605 22f5 021D      	.word0x21d
 8606 22f7 0000 0050 	.long0x50
 8607 22fb 02        	.uleb128 0x2
 8608 22fc 91        	.byte0x91
 8609 22fd 78        	.sleb128 -8
 8610 22fe 2A        	.uleb128 0x2a
 8611 22ff 0000 0000 	.long.LASF241
 8612 2303 02        	.byte0x2
 8613 2304 021E      	.word0x21e
 8614 2306 0000 0090 	.long0x90
 8615 230a 02        	.uleb128 0x2
 8616 230b 91        	.byte0x91
 8617 230c 74        	.sleb128 -12
 8618 230d 2A        	.uleb128 0x2a
 8619 230e 0000 0000 	.long.LASF427
 8620 2312 02        	.byte0x2
 8621 2313 021F      	.word0x21f
 8622 2315 0000 0090 	.long0x90
 8623 2319 02        	.uleb128 0x2
 8624 231a 91        	.byte0x91
 8625 231b 70        	.sleb128 -16
 8626 231c 2E        	.uleb128 0x2e
 8627 231d 0000 0000 	.long.LASF406
 8628 2321 0000 233C 	.long0x233c
 8629 2325 05        	.uleb128 0x5
 8630 2326 03        	.byte0x3
 8631 2327 0000 0000 	.long__func__.5795
 8632 232b 00        	.byte0
 8633 232c 09        	.uleb128 0x9
 8634 232d 0000 00CC 	.long0xcc
 8635 2331 0000 233C 	.long0x233c
 8636 2335 0A        	.uleb128 0xa
 8637 2336 0000 00A0 	.long0xa0
 8638 233a 0E        	.byte0xe
 8639 233b 00        	.byte0
 8640 233c 04        	.uleb128 0x4
 8641 233d 0000 232C 	.long0x232c
 8642 2341 27        	.uleb128 0x27
 8643 2342 0000 0000 	.long.LASF428
 8644 2346 02        	.byte0x2
 8645 2347 01B2      	.word0x1b2
 8646 2349 0000 0000 	.long.LFB64
 8647 234d 0000 018C 	.long.LFE64-.LFB64
 8648 2351 01        	.uleb128 0x1
68K GAS   			page 212


 8649 2352 9C        	.byte0x9c
 8650 2353 0000 2394 	.long0x2394
 8651 2357 28        	.uleb128 0x28
 8652 2358 0000 0000 	.long.LASF429
 8653 235c 02        	.byte0x2
 8654 235d 01B2      	.word0x1b2
 8655 235f 0000 0090 	.long0x90
 8656 2363 02        	.uleb128 0x2
 8657 2364 91        	.byte0x91
 8658 2365 00        	.sleb128 0
 8659 2366 2A        	.uleb128 0x2a
 8660 2367 0000 0000 	.long.LASF370
 8661 236b 02        	.byte0x2
 8662 236c 01B4      	.word0x1b4
 8663 236e 0000 0050 	.long0x50
 8664 2372 02        	.uleb128 0x2
 8665 2373 91        	.byte0x91
 8666 2374 78        	.sleb128 -8
 8667 2375 2A        	.uleb128 0x2a
 8668 2376 0000 0000 	.long.LASF241
 8669 237a 02        	.byte0x2
 8670 237b 01B5      	.word0x1b5
 8671 237d 0000 0090 	.long0x90
 8672 2381 02        	.uleb128 0x2
 8673 2382 91        	.byte0x91
 8674 2383 74        	.sleb128 -12
 8675 2384 2E        	.uleb128 0x2e
 8676 2385 0000 0000 	.long.LASF406
 8677 2389 0000 233C 	.long0x233c
 8678 238d 05        	.uleb128 0x5
 8679 238e 03        	.byte0x3
 8680 238f 0000 0000 	.long__func__.5787
 8681 2393 00        	.byte0
 8682 2394 2B        	.uleb128 0x2b
 8683 2395 0000 0000 	.long.LASF430
 8684 2399 02        	.byte0x2
 8685 239a 0188      	.word0x188
 8686 239c 0000 0050 	.long0x50
 8687 23a0 0000 0000 	.long.LFB63
 8688 23a4 0000 0148 	.long.LFE63-.LFB63
 8689 23a8 01        	.uleb128 0x1
 8690 23a9 9C        	.byte0x9c
 8691 23aa 0000 23DC 	.long0x23dc
 8692 23ae 28        	.uleb128 0x28
 8693 23af 0000 0000 	.long.LASF241
 8694 23b3 02        	.byte0x2
 8695 23b4 0188      	.word0x188
 8696 23b6 0000 0090 	.long0x90
 8697 23ba 02        	.uleb128 0x2
 8698 23bb 91        	.byte0x91
 8699 23bc 00        	.sleb128 0
 8700 23bd 2A        	.uleb128 0x2a
 8701 23be 0000 0000 	.long.LASF370
 8702 23c2 02        	.byte0x2
 8703 23c3 018A      	.word0x18a
 8704 23c5 0000 0050 	.long0x50
 8705 23c9 02        	.uleb128 0x2
68K GAS   			page 213


 8706 23ca 91        	.byte0x91
 8707 23cb 78        	.sleb128 -8
 8708 23cc 2E        	.uleb128 0x2e
 8709 23cd 0000 0000 	.long.LASF406
 8710 23d1 0000 23EC 	.long0x23ec
 8711 23d5 05        	.uleb128 0x5
 8712 23d6 03        	.byte0x3
 8713 23d7 0000 0000 	.long__func__.5781
 8714 23db 00        	.byte0
 8715 23dc 09        	.uleb128 0x9
 8716 23dd 0000 00CC 	.long0xcc
 8717 23e1 0000 23EC 	.long0x23ec
 8718 23e5 0A        	.uleb128 0xa
 8719 23e6 0000 00A0 	.long0xa0
 8720 23ea 10        	.byte0x10
 8721 23eb 00        	.byte0
 8722 23ec 04        	.uleb128 0x4
 8723 23ed 0000 23DC 	.long0x23dc
 8724 23f1 2B        	.uleb128 0x2b
 8725 23f2 0000 0000 	.long.LASF431
 8726 23f6 02        	.byte0x2
 8727 23f7 015D      	.word0x15d
 8728 23f9 0000 0050 	.long0x50
 8729 23fd 0000 0000 	.long.LFB62
 8730 2401 0000 017E 	.long.LFE62-.LFB62
 8731 2405 01        	.uleb128 0x1
 8732 2406 9C        	.byte0x9c
 8733 2407 0000 2448 	.long0x2448
 8734 240b 28        	.uleb128 0x28
 8735 240c 0000 0000 	.long.LASF241
 8736 2410 02        	.byte0x2
 8737 2411 015D      	.word0x15d
 8738 2413 0000 0090 	.long0x90
 8739 2417 02        	.uleb128 0x2
 8740 2418 91        	.byte0x91
 8741 2419 00        	.sleb128 0
 8742 241a 28        	.uleb128 0x28
 8743 241b 0000 0000 	.long.LASF432
 8744 241f 02        	.byte0x2
 8745 2420 015D      	.word0x15d
 8746 2422 0000 0208 	.long0x208
 8747 2426 02        	.uleb128 0x2
 8748 2427 91        	.byte0x91
 8749 2428 04        	.sleb128 4
 8750 2429 2A        	.uleb128 0x2a
 8751 242a 0000 0000 	.long.LASF370
 8752 242e 02        	.byte0x2
 8753 242f 015F      	.word0x15f
 8754 2431 0000 0050 	.long0x50
 8755 2435 02        	.uleb128 0x2
 8756 2436 91        	.byte0x91
 8757 2437 78        	.sleb128 -8
 8758 2438 2E        	.uleb128 0x2e
 8759 2439 0000 0000 	.long.LASF406
 8760 243d 0000 23EC 	.long0x23ec
 8761 2441 05        	.uleb128 0x5
 8762 2442 03        	.byte0x3
68K GAS   			page 214


 8763 2443 0000 0000 	.long__func__.5776
 8764 2447 00        	.byte0
 8765 2448 2B        	.uleb128 0x2b
 8766 2449 0000 0000 	.long.LASF433
 8767 244d 02        	.byte0x2
 8768 244e 012A      	.word0x12a
 8769 2450 0000 0050 	.long0x50
 8770 2454 0000 0000 	.long.LFB61
 8771 2458 0000 015A 	.long.LFE61-.LFB61
 8772 245c 01        	.uleb128 0x1
 8773 245d 9C        	.byte0x9c
 8774 245e 0000 2490 	.long0x2490
 8775 2462 28        	.uleb128 0x28
 8776 2463 0000 0000 	.long.LASF241
 8777 2467 02        	.byte0x2
 8778 2468 012A      	.word0x12a
 8779 246a 0000 0090 	.long0x90
 8780 246e 02        	.uleb128 0x2
 8781 246f 91        	.byte0x91
 8782 2470 00        	.sleb128 0
 8783 2471 2A        	.uleb128 0x2a
 8784 2472 0000 0000 	.long.LASF370
 8785 2476 02        	.byte0x2
 8786 2477 012C      	.word0x12c
 8787 2479 0000 0050 	.long0x50
 8788 247d 02        	.uleb128 0x2
 8789 247e 91        	.byte0x91
 8790 247f 78        	.sleb128 -8
 8791 2480 2E        	.uleb128 0x2e
 8792 2481 0000 0000 	.long.LASF406
 8793 2485 0000 212C 	.long0x212c
 8794 2489 05        	.uleb128 0x5
 8795 248a 03        	.byte0x3
 8796 248b 0000 0000 	.long__func__.5770
 8797 248f 00        	.byte0
 8798 2490 2F        	.uleb128 0x2f
 8799 2491 0000 0000 	.long.LASF434
 8800 2495 02        	.byte0x2
 8801 2496 C7        	.byte0xc7
 8802 2497 0000 0050 	.long0x50
 8803 249b 0000 0000 	.long.LFB60
 8804 249f 0000 0148 	.long.LFE60-.LFB60
 8805 24a3 01        	.uleb128 0x1
 8806 24a4 9C        	.byte0x9c
 8807 24a5 0000 24C6 	.long0x24c6
 8808 24a9 30        	.uleb128 0x30
 8809 24aa 0000 0000 	.long.LASF232
 8810 24ae 02        	.byte0x2
 8811 24af C7        	.byte0xc7
 8812 24b0 0000 0090 	.long0x90
 8813 24b4 02        	.uleb128 0x2
 8814 24b5 91        	.byte0x91
 8815 24b6 00        	.sleb128 0
 8816 24b7 31        	.uleb128 0x31
 8817 24b8 0000 0000 	.long.LASF370
 8818 24bc 02        	.byte0x2
 8819 24bd C9        	.byte0xc9
68K GAS   			page 215


 8820 24be 0000 0050 	.long0x50
 8821 24c2 02        	.uleb128 0x2
 8822 24c3 91        	.byte0x91
 8823 24c4 78        	.sleb128 -8
 8824 24c5 00        	.byte0
 8825 24c6 32        	.uleb128 0x32
 8826 24c7 0000 0000 	.long.LASF435
 8827 24cb 02        	.byte0x2
 8828 24cc B5        	.byte0xb5
 8829 24cd 0000 0050 	.long0x50
 8830 24d1 0000 0000 	.long.LFB59
 8831 24d5 0000 002E 	.long.LFE59-.LFB59
 8832 24d9 01        	.uleb128 0x1
 8833 24da 9C        	.byte0x9c
 8834 24db 0000 24EE 	.long0x24ee
 8835 24df 30        	.uleb128 0x30
 8836 24e0 0000 0000 	.long.LASF436
 8837 24e4 02        	.byte0x2
 8838 24e5 B5        	.byte0xb5
 8839 24e6 0000 18FE 	.long0x18fe
 8840 24ea 02        	.uleb128 0x2
 8841 24eb 91        	.byte0x91
 8842 24ec 00        	.sleb128 0
 8843 24ed 00        	.byte0
 8844 24ee 33        	.uleb128 0x33
 8845 24ef 0000 0000 	.long.LASF443
 8846 24f3 01        	.byte0x1
 8847 24f4 01C1      	.word0x1c1
 8848 24f6 0000 0050 	.long0x50
 8849 24fa 0000 0000 	.long.LFB58
 8850 24fe 0000 000C 	.long.LFE58-.LFB58
 8851 2502 01        	.uleb128 0x1
 8852 2503 9C        	.byte0x9c
 8853 2504 28        	.uleb128 0x28
 8854 2505 0000 0000 	.long.LASF437
 8855 2509 01        	.byte0x1
 8856 250a 01C1      	.word0x1c1
 8857 250c 0000 0090 	.long0x90
 8858 2510 02        	.uleb128 0x2
 8859 2511 91        	.byte0x91
 8860 2512 00        	.sleb128 0
 8861 2513 28        	.uleb128 0x28
 8862 2514 0000 0000 	.long.LASF438
 8863 2518 01        	.byte0x1
 8864 2519 01C1      	.word0x1c1
 8865 251b 0000 18FE 	.long0x18fe
 8866 251f 02        	.uleb128 0x2
 8867 2520 91        	.byte0x91
 8868 2521 04        	.sleb128 4
 8869 2522 00        	.byte0
 8870 2523 00        	.byte0
 8871               	.section.debug_abbrev,"",@progbits
 8872               	.Ldebug_abbrev0:
 8873 0000 01        	.uleb128 0x1
 8874 0001 11        	.uleb128 0x11
 8875 0002 01        	.byte0x1
 8876 0003 25        	.uleb128 0x25
68K GAS   			page 216


 8877 0004 0E        	.uleb128 0xe
 8878 0005 13        	.uleb128 0x13
 8879 0006 0B        	.uleb128 0xb
 8880 0007 03        	.uleb128 0x3
 8881 0008 0E        	.uleb128 0xe
 8882 0009 1B        	.uleb128 0x1b
 8883 000a 0E        	.uleb128 0xe
 8884 000b 11        	.uleb128 0x11
 8885 000c 01        	.uleb128 0x1
 8886 000d 12        	.uleb128 0x12
 8887 000e 06        	.uleb128 0x6
 8888 000f 10        	.uleb128 0x10
 8889 0010 17        	.uleb128 0x17
 8890 0011 00        	.byte0
 8891 0012 00        	.byte0
 8892 0013 02        	.uleb128 0x2
 8893 0014 16        	.uleb128 0x16
 8894 0015 00        	.byte0
 8895 0016 03        	.uleb128 0x3
 8896 0017 0E        	.uleb128 0xe
 8897 0018 3A        	.uleb128 0x3a
 8898 0019 0B        	.uleb128 0xb
 8899 001a 3B        	.uleb128 0x3b
 8900 001b 0B        	.uleb128 0xb
 8901 001c 49        	.uleb128 0x49
 8902 001d 13        	.uleb128 0x13
 8903 001e 00        	.byte0
 8904 001f 00        	.byte0
 8905 0020 03        	.uleb128 0x3
 8906 0021 24        	.uleb128 0x24
 8907 0022 00        	.byte0
 8908 0023 0B        	.uleb128 0xb
 8909 0024 0B        	.uleb128 0xb
 8910 0025 3E        	.uleb128 0x3e
 8911 0026 0B        	.uleb128 0xb
 8912 0027 03        	.uleb128 0x3
 8913 0028 0E        	.uleb128 0xe
 8914 0029 00        	.byte0
 8915 002a 00        	.byte0
 8916 002b 04        	.uleb128 0x4
 8917 002c 26        	.uleb128 0x26
 8918 002d 00        	.byte0
 8919 002e 49        	.uleb128 0x49
 8920 002f 13        	.uleb128 0x13
 8921 0030 00        	.byte0
 8922 0031 00        	.byte0
 8923 0032 05        	.uleb128 0x5
 8924 0033 16        	.uleb128 0x16
 8925 0034 00        	.byte0
 8926 0035 03        	.uleb128 0x3
 8927 0036 0E        	.uleb128 0xe
 8928 0037 3A        	.uleb128 0x3a
 8929 0038 0B        	.uleb128 0xb
 8930 0039 3B        	.uleb128 0x3b
 8931 003a 05        	.uleb128 0x5
 8932 003b 49        	.uleb128 0x49
 8933 003c 13        	.uleb128 0x13
68K GAS   			page 217


 8934 003d 00        	.byte0
 8935 003e 00        	.byte0
 8936 003f 06        	.uleb128 0x6
 8937 0040 0F        	.uleb128 0xf
 8938 0041 00        	.byte0
 8939 0042 0B        	.uleb128 0xb
 8940 0043 0B        	.uleb128 0xb
 8941 0044 03        	.uleb128 0x3
 8942 0045 0E        	.uleb128 0xe
 8943 0046 00        	.byte0
 8944 0047 00        	.byte0
 8945 0048 07        	.uleb128 0x7
 8946 0049 13        	.uleb128 0x13
 8947 004a 01        	.byte0x1
 8948 004b 0B        	.uleb128 0xb
 8949 004c 0B        	.uleb128 0xb
 8950 004d 3A        	.uleb128 0x3a
 8951 004e 0B        	.uleb128 0xb
 8952 004f 3B        	.uleb128 0x3b
 8953 0050 0B        	.uleb128 0xb
 8954 0051 01        	.uleb128 0x1
 8955 0052 13        	.uleb128 0x13
 8956 0053 00        	.byte0
 8957 0054 00        	.byte0
 8958 0055 08        	.uleb128 0x8
 8959 0056 0D        	.uleb128 0xd
 8960 0057 00        	.byte0
 8961 0058 03        	.uleb128 0x3
 8962 0059 0E        	.uleb128 0xe
 8963 005a 3A        	.uleb128 0x3a
 8964 005b 0B        	.uleb128 0xb
 8965 005c 3B        	.uleb128 0x3b
 8966 005d 0B        	.uleb128 0xb
 8967 005e 49        	.uleb128 0x49
 8968 005f 13        	.uleb128 0x13
 8969 0060 38        	.uleb128 0x38
 8970 0061 0B        	.uleb128 0xb
 8971 0062 00        	.byte0
 8972 0063 00        	.byte0
 8973 0064 09        	.uleb128 0x9
 8974 0065 01        	.uleb128 0x1
 8975 0066 01        	.byte0x1
 8976 0067 49        	.uleb128 0x49
 8977 0068 13        	.uleb128 0x13
 8978 0069 01        	.uleb128 0x1
 8979 006a 13        	.uleb128 0x13
 8980 006b 00        	.byte0
 8981 006c 00        	.byte0
 8982 006d 0A        	.uleb128 0xa
 8983 006e 21        	.uleb128 0x21
 8984 006f 00        	.byte0
 8985 0070 49        	.uleb128 0x49
 8986 0071 13        	.uleb128 0x13
 8987 0072 2F        	.uleb128 0x2f
 8988 0073 0B        	.uleb128 0xb
 8989 0074 00        	.byte0
 8990 0075 00        	.byte0
68K GAS   			page 218


 8991 0076 0B        	.uleb128 0xb
 8992 0077 0F        	.uleb128 0xf
 8993 0078 00        	.byte0
 8994 0079 0B        	.uleb128 0xb
 8995 007a 0B        	.uleb128 0xb
 8996 007b 00        	.byte0
 8997 007c 00        	.byte0
 8998 007d 0C        	.uleb128 0xc
 8999 007e 24        	.uleb128 0x24
 9000 007f 00        	.byte0
 9001 0080 0B        	.uleb128 0xb
 9002 0081 0B        	.uleb128 0xb
 9003 0082 3E        	.uleb128 0x3e
 9004 0083 0B        	.uleb128 0xb
 9005 0084 03        	.uleb128 0x3
 9006 0085 08        	.uleb128 0x8
 9007 0086 00        	.byte0
 9008 0087 00        	.byte0
 9009 0088 0D        	.uleb128 0xd
 9010 0089 13        	.uleb128 0x13
 9011 008a 01        	.byte0x1
 9012 008b 03        	.uleb128 0x3
 9013 008c 0E        	.uleb128 0xe
 9014 008d 0B        	.uleb128 0xb
 9015 008e 0B        	.uleb128 0xb
 9016 008f 3A        	.uleb128 0x3a
 9017 0090 0B        	.uleb128 0xb
 9018 0091 3B        	.uleb128 0x3b
 9019 0092 0B        	.uleb128 0xb
 9020 0093 01        	.uleb128 0x1
 9021 0094 13        	.uleb128 0x13
 9022 0095 00        	.byte0
 9023 0096 00        	.byte0
 9024 0097 0E        	.uleb128 0xe
 9025 0098 13        	.uleb128 0x13
 9026 0099 00        	.byte0
 9027 009a 03        	.uleb128 0x3
 9028 009b 0E        	.uleb128 0xe
 9029 009c 3C        	.uleb128 0x3c
 9030 009d 19        	.uleb128 0x19
 9031 009e 00        	.byte0
 9032 009f 00        	.byte0
 9033 00a0 0F        	.uleb128 0xf
 9034 00a1 0F        	.uleb128 0xf
 9035 00a2 00        	.byte0
 9036 00a3 0B        	.uleb128 0xb
 9037 00a4 0B        	.uleb128 0xb
 9038 00a5 49        	.uleb128 0x49
 9039 00a6 13        	.uleb128 0x13
 9040 00a7 00        	.byte0
 9041 00a8 00        	.byte0
 9042 00a9 10        	.uleb128 0x10
 9043 00aa 17        	.uleb128 0x17
 9044 00ab 01        	.byte0x1
 9045 00ac 0B        	.uleb128 0xb
 9046 00ad 0B        	.uleb128 0xb
 9047 00ae 3A        	.uleb128 0x3a
68K GAS   			page 219


 9048 00af 0B        	.uleb128 0xb
 9049 00b0 3B        	.uleb128 0x3b
 9050 00b1 0B        	.uleb128 0xb
 9051 00b2 01        	.uleb128 0x1
 9052 00b3 13        	.uleb128 0x13
 9053 00b4 00        	.byte0
 9054 00b5 00        	.byte0
 9055 00b6 11        	.uleb128 0x11
 9056 00b7 0D        	.uleb128 0xd
 9057 00b8 00        	.byte0
 9058 00b9 03        	.uleb128 0x3
 9059 00ba 0E        	.uleb128 0xe
 9060 00bb 3A        	.uleb128 0x3a
 9061 00bc 0B        	.uleb128 0xb
 9062 00bd 3B        	.uleb128 0x3b
 9063 00be 0B        	.uleb128 0xb
 9064 00bf 49        	.uleb128 0x49
 9065 00c0 13        	.uleb128 0x13
 9066 00c1 00        	.byte0
 9067 00c2 00        	.byte0
 9068 00c3 12        	.uleb128 0x12
 9069 00c4 0D        	.uleb128 0xd
 9070 00c5 00        	.byte0
 9071 00c6 03        	.uleb128 0x3
 9072 00c7 08        	.uleb128 0x8
 9073 00c8 3A        	.uleb128 0x3a
 9074 00c9 0B        	.uleb128 0xb
 9075 00ca 3B        	.uleb128 0x3b
 9076 00cb 0B        	.uleb128 0xb
 9077 00cc 49        	.uleb128 0x49
 9078 00cd 13        	.uleb128 0x13
 9079 00ce 38        	.uleb128 0x38
 9080 00cf 0B        	.uleb128 0xb
 9081 00d0 00        	.byte0
 9082 00d1 00        	.byte0
 9083 00d2 13        	.uleb128 0x13
 9084 00d3 13        	.uleb128 0x13
 9085 00d4 01        	.byte0x1
 9086 00d5 03        	.uleb128 0x3
 9087 00d6 0E        	.uleb128 0xe
 9088 00d7 0B        	.uleb128 0xb
 9089 00d8 05        	.uleb128 0x5
 9090 00d9 3A        	.uleb128 0x3a
 9091 00da 0B        	.uleb128 0xb
 9092 00db 3B        	.uleb128 0x3b
 9093 00dc 0B        	.uleb128 0xb
 9094 00dd 01        	.uleb128 0x1
 9095 00de 13        	.uleb128 0x13
 9096 00df 00        	.byte0
 9097 00e0 00        	.byte0
 9098 00e1 14        	.uleb128 0x14
 9099 00e2 0D        	.uleb128 0xd
 9100 00e3 00        	.byte0
 9101 00e4 03        	.uleb128 0x3
 9102 00e5 0E        	.uleb128 0xe
 9103 00e6 3A        	.uleb128 0x3a
 9104 00e7 0B        	.uleb128 0xb
68K GAS   			page 220


 9105 00e8 3B        	.uleb128 0x3b
 9106 00e9 0B        	.uleb128 0xb
 9107 00ea 49        	.uleb128 0x49
 9108 00eb 13        	.uleb128 0x13
 9109 00ec 38        	.uleb128 0x38
 9110 00ed 05        	.uleb128 0x5
 9111 00ee 00        	.byte0
 9112 00ef 00        	.byte0
 9113 00f0 15        	.uleb128 0x15
 9114 00f1 15        	.uleb128 0x15
 9115 00f2 00        	.byte0
 9116 00f3 27        	.uleb128 0x27
 9117 00f4 19        	.uleb128 0x19
 9118 00f5 00        	.byte0
 9119 00f6 00        	.byte0
 9120 00f7 16        	.uleb128 0x16
 9121 00f8 15        	.uleb128 0x15
 9122 00f9 01        	.byte0x1
 9123 00fa 27        	.uleb128 0x27
 9124 00fb 19        	.uleb128 0x19
 9125 00fc 49        	.uleb128 0x49
 9126 00fd 13        	.uleb128 0x13
 9127 00fe 01        	.uleb128 0x1
 9128 00ff 13        	.uleb128 0x13
 9129 0100 00        	.byte0
 9130 0101 00        	.byte0
 9131 0102 17        	.uleb128 0x17
 9132 0103 05        	.uleb128 0x5
 9133 0104 00        	.byte0
 9134 0105 49        	.uleb128 0x49
 9135 0106 13        	.uleb128 0x13
 9136 0107 00        	.byte0
 9137 0108 00        	.byte0
 9138 0109 18        	.uleb128 0x18
 9139 010a 13        	.uleb128 0x13
 9140 010b 01        	.byte0x1
 9141 010c 03        	.uleb128 0x3
 9142 010d 0E        	.uleb128 0xe
 9143 010e 0B        	.uleb128 0xb
 9144 010f 05        	.uleb128 0x5
 9145 0110 3A        	.uleb128 0x3a
 9146 0111 0B        	.uleb128 0xb
 9147 0112 3B        	.uleb128 0x3b
 9148 0113 05        	.uleb128 0x5
 9149 0114 01        	.uleb128 0x1
 9150 0115 13        	.uleb128 0x13
 9151 0116 00        	.byte0
 9152 0117 00        	.byte0
 9153 0118 19        	.uleb128 0x19
 9154 0119 0D        	.uleb128 0xd
 9155 011a 00        	.byte0
 9156 011b 03        	.uleb128 0x3
 9157 011c 0E        	.uleb128 0xe
 9158 011d 3A        	.uleb128 0x3a
 9159 011e 0B        	.uleb128 0xb
 9160 011f 3B        	.uleb128 0x3b
 9161 0120 05        	.uleb128 0x5
68K GAS   			page 221


 9162 0121 49        	.uleb128 0x49
 9163 0122 13        	.uleb128 0x13
 9164 0123 38        	.uleb128 0x38
 9165 0124 0B        	.uleb128 0xb
 9166 0125 00        	.byte0
 9167 0126 00        	.byte0
 9168 0127 1A        	.uleb128 0x1a
 9169 0128 0D        	.uleb128 0xd
 9170 0129 00        	.byte0
 9171 012a 03        	.uleb128 0x3
 9172 012b 0E        	.uleb128 0xe
 9173 012c 3A        	.uleb128 0x3a
 9174 012d 0B        	.uleb128 0xb
 9175 012e 3B        	.uleb128 0x3b
 9176 012f 05        	.uleb128 0x5
 9177 0130 49        	.uleb128 0x49
 9178 0131 13        	.uleb128 0x13
 9179 0132 38        	.uleb128 0x38
 9180 0133 05        	.uleb128 0x5
 9181 0134 00        	.byte0
 9182 0135 00        	.byte0
 9183 0136 1B        	.uleb128 0x1b
 9184 0137 13        	.uleb128 0x13
 9185 0138 01        	.byte0x1
 9186 0139 03        	.uleb128 0x3
 9187 013a 0E        	.uleb128 0xe
 9188 013b 0B        	.uleb128 0xb
 9189 013c 0B        	.uleb128 0xb
 9190 013d 3A        	.uleb128 0x3a
 9191 013e 0B        	.uleb128 0xb
 9192 013f 3B        	.uleb128 0x3b
 9193 0140 05        	.uleb128 0x5
 9194 0141 01        	.uleb128 0x1
 9195 0142 13        	.uleb128 0x13
 9196 0143 00        	.byte0
 9197 0144 00        	.byte0
 9198 0145 1C        	.uleb128 0x1c
 9199 0146 13        	.uleb128 0x13
 9200 0147 01        	.byte0x1
 9201 0148 0B        	.uleb128 0xb
 9202 0149 0B        	.uleb128 0xb
 9203 014a 3A        	.uleb128 0x3a
 9204 014b 0B        	.uleb128 0xb
 9205 014c 3B        	.uleb128 0x3b
 9206 014d 05        	.uleb128 0x5
 9207 014e 01        	.uleb128 0x1
 9208 014f 13        	.uleb128 0x13
 9209 0150 00        	.byte0
 9210 0151 00        	.byte0
 9211 0152 1D        	.uleb128 0x1d
 9212 0153 17        	.uleb128 0x17
 9213 0154 01        	.byte0x1
 9214 0155 0B        	.uleb128 0xb
 9215 0156 0B        	.uleb128 0xb
 9216 0157 3A        	.uleb128 0x3a
 9217 0158 0B        	.uleb128 0xb
 9218 0159 3B        	.uleb128 0x3b
68K GAS   			page 222


 9219 015a 05        	.uleb128 0x5
 9220 015b 01        	.uleb128 0x1
 9221 015c 13        	.uleb128 0x13
 9222 015d 00        	.byte0
 9223 015e 00        	.byte0
 9224 015f 1E        	.uleb128 0x1e
 9225 0160 0D        	.uleb128 0xd
 9226 0161 00        	.byte0
 9227 0162 03        	.uleb128 0x3
 9228 0163 0E        	.uleb128 0xe
 9229 0164 3A        	.uleb128 0x3a
 9230 0165 0B        	.uleb128 0xb
 9231 0166 3B        	.uleb128 0x3b
 9232 0167 05        	.uleb128 0x5
 9233 0168 49        	.uleb128 0x49
 9234 0169 13        	.uleb128 0x13
 9235 016a 00        	.byte0
 9236 016b 00        	.byte0
 9237 016c 1F        	.uleb128 0x1f
 9238 016d 15        	.uleb128 0x15
 9239 016e 01        	.byte0x1
 9240 016f 27        	.uleb128 0x27
 9241 0170 19        	.uleb128 0x19
 9242 0171 01        	.uleb128 0x1
 9243 0172 13        	.uleb128 0x13
 9244 0173 00        	.byte0
 9245 0174 00        	.byte0
 9246 0175 20        	.uleb128 0x20
 9247 0176 34        	.uleb128 0x34
 9248 0177 00        	.byte0
 9249 0178 03        	.uleb128 0x3
 9250 0179 0E        	.uleb128 0xe
 9251 017a 3A        	.uleb128 0x3a
 9252 017b 0B        	.uleb128 0xb
 9253 017c 3B        	.uleb128 0x3b
 9254 017d 05        	.uleb128 0x5
 9255 017e 49        	.uleb128 0x49
 9256 017f 13        	.uleb128 0x13
 9257 0180 3F        	.uleb128 0x3f
 9258 0181 19        	.uleb128 0x19
 9259 0182 3C        	.uleb128 0x3c
 9260 0183 19        	.uleb128 0x19
 9261 0184 00        	.byte0
 9262 0185 00        	.byte0
 9263 0186 21        	.uleb128 0x21
 9264 0187 26        	.uleb128 0x26
 9265 0188 00        	.byte0
 9266 0189 00        	.byte0
 9267 018a 00        	.byte0
 9268 018b 22        	.uleb128 0x22
 9269 018c 34        	.uleb128 0x34
 9270 018d 00        	.byte0
 9271 018e 03        	.uleb128 0x3
 9272 018f 0E        	.uleb128 0xe
 9273 0190 3A        	.uleb128 0x3a
 9274 0191 0B        	.uleb128 0xb
 9275 0192 3B        	.uleb128 0x3b
68K GAS   			page 223


 9276 0193 0B        	.uleb128 0xb
 9277 0194 49        	.uleb128 0x49
 9278 0195 13        	.uleb128 0x13
 9279 0196 3F        	.uleb128 0x3f
 9280 0197 19        	.uleb128 0x19
 9281 0198 3C        	.uleb128 0x3c
 9282 0199 19        	.uleb128 0x19
 9283 019a 00        	.byte0
 9284 019b 00        	.byte0
 9285 019c 23        	.uleb128 0x23
 9286 019d 13        	.uleb128 0x13
 9287 019e 01        	.byte0x1
 9288 019f 0B        	.uleb128 0xb
 9289 01a0 05        	.uleb128 0x5
 9290 01a1 3A        	.uleb128 0x3a
 9291 01a2 0B        	.uleb128 0xb
 9292 01a3 3B        	.uleb128 0x3b
 9293 01a4 0B        	.uleb128 0xb
 9294 01a5 01        	.uleb128 0x1
 9295 01a6 13        	.uleb128 0x13
 9296 01a7 00        	.byte0
 9297 01a8 00        	.byte0
 9298 01a9 24        	.uleb128 0x24
 9299 01aa 13        	.uleb128 0x13
 9300 01ab 01        	.byte0x1
 9301 01ac 0B        	.uleb128 0xb
 9302 01ad 06        	.uleb128 0x6
 9303 01ae 3A        	.uleb128 0x3a
 9304 01af 0B        	.uleb128 0xb
 9305 01b0 3B        	.uleb128 0x3b
 9306 01b1 0B        	.uleb128 0xb
 9307 01b2 01        	.uleb128 0x1
 9308 01b3 13        	.uleb128 0x13
 9309 01b4 00        	.byte0
 9310 01b5 00        	.byte0
 9311 01b6 25        	.uleb128 0x25
 9312 01b7 21        	.uleb128 0x21
 9313 01b8 00        	.byte0
 9314 01b9 49        	.uleb128 0x49
 9315 01ba 13        	.uleb128 0x13
 9316 01bb 2F        	.uleb128 0x2f
 9317 01bc 05        	.uleb128 0x5
 9318 01bd 00        	.byte0
 9319 01be 00        	.byte0
 9320 01bf 26        	.uleb128 0x26
 9321 01c0 0D        	.uleb128 0xd
 9322 01c1 00        	.byte0
 9323 01c2 03        	.uleb128 0x3
 9324 01c3 0E        	.uleb128 0xe
 9325 01c4 3A        	.uleb128 0x3a
 9326 01c5 0B        	.uleb128 0xb
 9327 01c6 3B        	.uleb128 0x3b
 9328 01c7 0B        	.uleb128 0xb
 9329 01c8 49        	.uleb128 0x49
 9330 01c9 13        	.uleb128 0x13
 9331 01ca 38        	.uleb128 0x38
 9332 01cb 06        	.uleb128 0x6
68K GAS   			page 224


 9333 01cc 00        	.byte0
 9334 01cd 00        	.byte0
 9335 01ce 27        	.uleb128 0x27
 9336 01cf 2E        	.uleb128 0x2e
 9337 01d0 01        	.byte0x1
 9338 01d1 3F        	.uleb128 0x3f
 9339 01d2 19        	.uleb128 0x19
 9340 01d3 03        	.uleb128 0x3
 9341 01d4 0E        	.uleb128 0xe
 9342 01d5 3A        	.uleb128 0x3a
 9343 01d6 0B        	.uleb128 0xb
 9344 01d7 3B        	.uleb128 0x3b
 9345 01d8 05        	.uleb128 0x5
 9346 01d9 27        	.uleb128 0x27
 9347 01da 19        	.uleb128 0x19
 9348 01db 11        	.uleb128 0x11
 9349 01dc 01        	.uleb128 0x1
 9350 01dd 12        	.uleb128 0x12
 9351 01de 06        	.uleb128 0x6
 9352 01df 40        	.uleb128 0x40
 9353 01e0 18        	.uleb128 0x18
 9354 01e1 9642      	.uleb128 0x2116
 9355 01e3 19        	.uleb128 0x19
 9356 01e4 01        	.uleb128 0x1
 9357 01e5 13        	.uleb128 0x13
 9358 01e6 00        	.byte0
 9359 01e7 00        	.byte0
 9360 01e8 28        	.uleb128 0x28
 9361 01e9 05        	.uleb128 0x5
 9362 01ea 00        	.byte0
 9363 01eb 03        	.uleb128 0x3
 9364 01ec 0E        	.uleb128 0xe
 9365 01ed 3A        	.uleb128 0x3a
 9366 01ee 0B        	.uleb128 0xb
 9367 01ef 3B        	.uleb128 0x3b
 9368 01f0 05        	.uleb128 0x5
 9369 01f1 49        	.uleb128 0x49
 9370 01f2 13        	.uleb128 0x13
 9371 01f3 02        	.uleb128 0x2
 9372 01f4 18        	.uleb128 0x18
 9373 01f5 00        	.byte0
 9374 01f6 00        	.byte0
 9375 01f7 29        	.uleb128 0x29
 9376 01f8 34        	.uleb128 0x34
 9377 01f9 00        	.byte0
 9378 01fa 03        	.uleb128 0x3
 9379 01fb 08        	.uleb128 0x8
 9380 01fc 3A        	.uleb128 0x3a
 9381 01fd 0B        	.uleb128 0xb
 9382 01fe 3B        	.uleb128 0x3b
 9383 01ff 05        	.uleb128 0x5
 9384 0200 49        	.uleb128 0x49
 9385 0201 13        	.uleb128 0x13
 9386 0202 02        	.uleb128 0x2
 9387 0203 18        	.uleb128 0x18
 9388 0204 00        	.byte0
 9389 0205 00        	.byte0
68K GAS   			page 225


 9390 0206 2A        	.uleb128 0x2a
 9391 0207 34        	.uleb128 0x34
 9392 0208 00        	.byte0
 9393 0209 03        	.uleb128 0x3
 9394 020a 0E        	.uleb128 0xe
 9395 020b 3A        	.uleb128 0x3a
 9396 020c 0B        	.uleb128 0xb
 9397 020d 3B        	.uleb128 0x3b
 9398 020e 05        	.uleb128 0x5
 9399 020f 49        	.uleb128 0x49
 9400 0210 13        	.uleb128 0x13
 9401 0211 02        	.uleb128 0x2
 9402 0212 18        	.uleb128 0x18
 9403 0213 00        	.byte0
 9404 0214 00        	.byte0
 9405 0215 2B        	.uleb128 0x2b
 9406 0216 2E        	.uleb128 0x2e
 9407 0217 01        	.byte0x1
 9408 0218 3F        	.uleb128 0x3f
 9409 0219 19        	.uleb128 0x19
 9410 021a 03        	.uleb128 0x3
 9411 021b 0E        	.uleb128 0xe
 9412 021c 3A        	.uleb128 0x3a
 9413 021d 0B        	.uleb128 0xb
 9414 021e 3B        	.uleb128 0x3b
 9415 021f 05        	.uleb128 0x5
 9416 0220 27        	.uleb128 0x27
 9417 0221 19        	.uleb128 0x19
 9418 0222 49        	.uleb128 0x49
 9419 0223 13        	.uleb128 0x13
 9420 0224 11        	.uleb128 0x11
 9421 0225 01        	.uleb128 0x1
 9422 0226 12        	.uleb128 0x12
 9423 0227 06        	.uleb128 0x6
 9424 0228 40        	.uleb128 0x40
 9425 0229 18        	.uleb128 0x18
 9426 022a 9642      	.uleb128 0x2116
 9427 022c 19        	.uleb128 0x19
 9428 022d 01        	.uleb128 0x1
 9429 022e 13        	.uleb128 0x13
 9430 022f 00        	.byte0
 9431 0230 00        	.byte0
 9432 0231 2C        	.uleb128 0x2c
 9433 0232 2E        	.uleb128 0x2e
 9434 0233 01        	.byte0x1
 9435 0234 3F        	.uleb128 0x3f
 9436 0235 19        	.uleb128 0x19
 9437 0236 03        	.uleb128 0x3
 9438 0237 0E        	.uleb128 0xe
 9439 0238 3A        	.uleb128 0x3a
 9440 0239 0B        	.uleb128 0xb
 9441 023a 3B        	.uleb128 0x3b
 9442 023b 05        	.uleb128 0x5
 9443 023c 27        	.uleb128 0x27
 9444 023d 19        	.uleb128 0x19
 9445 023e 49        	.uleb128 0x49
 9446 023f 13        	.uleb128 0x13
68K GAS   			page 226


 9447 0240 11        	.uleb128 0x11
 9448 0241 01        	.uleb128 0x1
 9449 0242 12        	.uleb128 0x12
 9450 0243 06        	.uleb128 0x6
 9451 0244 40        	.uleb128 0x40
 9452 0245 18        	.uleb128 0x18
 9453 0246 9742      	.uleb128 0x2117
 9454 0248 19        	.uleb128 0x19
 9455 0249 01        	.uleb128 0x1
 9456 024a 13        	.uleb128 0x13
 9457 024b 00        	.byte0
 9458 024c 00        	.byte0
 9459 024d 2D        	.uleb128 0x2d
 9460 024e 18        	.uleb128 0x18
 9461 024f 00        	.byte0
 9462 0250 00        	.byte0
 9463 0251 00        	.byte0
 9464 0252 2E        	.uleb128 0x2e
 9465 0253 34        	.uleb128 0x34
 9466 0254 00        	.byte0
 9467 0255 03        	.uleb128 0x3
 9468 0256 0E        	.uleb128 0xe
 9469 0257 49        	.uleb128 0x49
 9470 0258 13        	.uleb128 0x13
 9471 0259 34        	.uleb128 0x34
 9472 025a 19        	.uleb128 0x19
 9473 025b 02        	.uleb128 0x2
 9474 025c 18        	.uleb128 0x18
 9475 025d 00        	.byte0
 9476 025e 00        	.byte0
 9477 025f 2F        	.uleb128 0x2f
 9478 0260 2E        	.uleb128 0x2e
 9479 0261 01        	.byte0x1
 9480 0262 3F        	.uleb128 0x3f
 9481 0263 19        	.uleb128 0x19
 9482 0264 03        	.uleb128 0x3
 9483 0265 0E        	.uleb128 0xe
 9484 0266 3A        	.uleb128 0x3a
 9485 0267 0B        	.uleb128 0xb
 9486 0268 3B        	.uleb128 0x3b
 9487 0269 0B        	.uleb128 0xb
 9488 026a 27        	.uleb128 0x27
 9489 026b 19        	.uleb128 0x19
 9490 026c 49        	.uleb128 0x49
 9491 026d 13        	.uleb128 0x13
 9492 026e 11        	.uleb128 0x11
 9493 026f 01        	.uleb128 0x1
 9494 0270 12        	.uleb128 0x12
 9495 0271 06        	.uleb128 0x6
 9496 0272 40        	.uleb128 0x40
 9497 0273 18        	.uleb128 0x18
 9498 0274 9642      	.uleb128 0x2116
 9499 0276 19        	.uleb128 0x19
 9500 0277 01        	.uleb128 0x1
 9501 0278 13        	.uleb128 0x13
 9502 0279 00        	.byte0
 9503 027a 00        	.byte0
68K GAS   			page 227


 9504 027b 30        	.uleb128 0x30
 9505 027c 05        	.uleb128 0x5
 9506 027d 00        	.byte0
 9507 027e 03        	.uleb128 0x3
 9508 027f 0E        	.uleb128 0xe
 9509 0280 3A        	.uleb128 0x3a
 9510 0281 0B        	.uleb128 0xb
 9511 0282 3B        	.uleb128 0x3b
 9512 0283 0B        	.uleb128 0xb
 9513 0284 49        	.uleb128 0x49
 9514 0285 13        	.uleb128 0x13
 9515 0286 02        	.uleb128 0x2
 9516 0287 18        	.uleb128 0x18
 9517 0288 00        	.byte0
 9518 0289 00        	.byte0
 9519 028a 31        	.uleb128 0x31
 9520 028b 34        	.uleb128 0x34
 9521 028c 00        	.byte0
 9522 028d 03        	.uleb128 0x3
 9523 028e 0E        	.uleb128 0xe
 9524 028f 3A        	.uleb128 0x3a
 9525 0290 0B        	.uleb128 0xb
 9526 0291 3B        	.uleb128 0x3b
 9527 0292 0B        	.uleb128 0xb
 9528 0293 49        	.uleb128 0x49
 9529 0294 13        	.uleb128 0x13
 9530 0295 02        	.uleb128 0x2
 9531 0296 18        	.uleb128 0x18
 9532 0297 00        	.byte0
 9533 0298 00        	.byte0
 9534 0299 32        	.uleb128 0x32
 9535 029a 2E        	.uleb128 0x2e
 9536 029b 01        	.byte0x1
 9537 029c 3F        	.uleb128 0x3f
 9538 029d 19        	.uleb128 0x19
 9539 029e 03        	.uleb128 0x3
 9540 029f 0E        	.uleb128 0xe
 9541 02a0 3A        	.uleb128 0x3a
 9542 02a1 0B        	.uleb128 0xb
 9543 02a2 3B        	.uleb128 0x3b
 9544 02a3 0B        	.uleb128 0xb
 9545 02a4 27        	.uleb128 0x27
 9546 02a5 19        	.uleb128 0x19
 9547 02a6 49        	.uleb128 0x49
 9548 02a7 13        	.uleb128 0x13
 9549 02a8 11        	.uleb128 0x11
 9550 02a9 01        	.uleb128 0x1
 9551 02aa 12        	.uleb128 0x12
 9552 02ab 06        	.uleb128 0x6
 9553 02ac 40        	.uleb128 0x40
 9554 02ad 18        	.uleb128 0x18
 9555 02ae 9742      	.uleb128 0x2117
 9556 02b0 19        	.uleb128 0x19
 9557 02b1 01        	.uleb128 0x1
 9558 02b2 13        	.uleb128 0x13
 9559 02b3 00        	.byte0
 9560 02b4 00        	.byte0
68K GAS   			page 228


 9561 02b5 33        	.uleb128 0x33
 9562 02b6 2E        	.uleb128 0x2e
 9563 02b7 01        	.byte0x1
 9564 02b8 03        	.uleb128 0x3
 9565 02b9 0E        	.uleb128 0xe
 9566 02ba 3A        	.uleb128 0x3a
 9567 02bb 0B        	.uleb128 0xb
 9568 02bc 3B        	.uleb128 0x3b
 9569 02bd 05        	.uleb128 0x5
 9570 02be 27        	.uleb128 0x27
 9571 02bf 19        	.uleb128 0x19
 9572 02c0 49        	.uleb128 0x49
 9573 02c1 13        	.uleb128 0x13
 9574 02c2 11        	.uleb128 0x11
 9575 02c3 01        	.uleb128 0x1
 9576 02c4 12        	.uleb128 0x12
 9577 02c5 06        	.uleb128 0x6
 9578 02c6 40        	.uleb128 0x40
 9579 02c7 18        	.uleb128 0x18
 9580 02c8 9742      	.uleb128 0x2117
 9581 02ca 19        	.uleb128 0x19
 9582 02cb 00        	.byte0
 9583 02cc 00        	.byte0
 9584 02cd 00        	.byte0
 9585               	.section.debug_aranges,"",@progbits
 9586 0000 0000 001C 	.long0x1c
 9587 0004 0002      	.word0x2
 9588 0006 0000 0000 	.long.Ldebug_info0
 9589 000a 04        	.byte0x4
 9590 000b 00        	.byte0
 9591 000c 0000      	.word0
 9592 000e 0000      	.word0
 9593 0010 0000 0000 	.long.Ltext0
 9594 0014 0000 2052 	.long.Letext0-.Ltext0
 9595 0018 0000 0000 	.long0
 9596 001c 0000 0000 	.long0
 9597               	.section.debug_line,"",@progbits
 9598               	.Ldebug_line0:
 9599 0000 0000 0740 	.section.debug_str,"MS",@progbits,1
 9599      0002 0000 
 9599      0395 0201 
 9599      FB0E 0D00 
 9599      0101 0101 
 9600               	.LASF47:
 9601 0000 5F73 7369 	.string"_ssize_t"
 9601      7A65 5F74 
 9601      00
 9602               	.LASF26:
 9603 0009 7369 7A65 	.string"size_t"
 9603      5F74 00
 9604               	.LASF149:
 9605 0010 5F5F 6C6F 	.string"__locale_t"
 9605      6361 6C65 
 9605      5F74 00
 9606               	.LASF52:
 9607 001b 5F5F 7661 	.string"__value"
 9607      6C75 6500 
68K GAS   			page 229


 9608               	.LASF150:
 9609 0023 5F5F 7366 	.string"__sf"
 9609      00
 9610               	.LASF385:
 9611 0028 4461 7461 	.string"DataLength"
 9611      4C65 6E67 
 9611      7468 00
 9612               	.LASF353:
 9613 0033 4346 455F 	.string"CFE_ES_ProcessCoreException"
 9613      4553 5F50 
 9613      726F 6365 
 9613      7373 436F 
 9613      7265 4578 
 9614               	.LASF87:
 9615 004f 5F72 6561 	.string"_read"
 9615      6400 
 9616               	.LASF328:
 9617 0055 4346 455F 	.string"CFE_ES_GenCounterRecord_t"
 9617      4553 5F47 
 9617      656E 436F 
 9617      756E 7465 
 9617      7252 6563 
 9618               	.LASF399:
 9619 006f 5472 756E 	.string"TruncTmpStringLen"
 9619      6354 6D70 
 9619      5374 7269 
 9619      6E67 4C65 
 9619      6E00 
 9620               	.LASF405:
 9621 0081 4F53 5265 	.string"OSReturnCode"
 9621      7475 726E 
 9621      436F 6465 
 9621      00
 9622               	.LASF88:
 9623 008e 5F77 7269 	.string"_write"
 9623      7465 00
 9624               	.LASF262:
 9625 0095 5472 6967 	.string"TriggerMask"
 9625      6765 724D 
 9625      6173 6B00 
 9626               	.LASF420:
 9627 00a1 4346 455F 	.string"CFE_ES_GetAppIDByName"
 9627      4553 5F47 
 9627      6574 4170 
 9627      7049 4442 
 9627      794E 616D 
 9628               	.LASF129:
 9629 00b7 5F61 7363 	.string"_asctime_buf"
 9629      7469 6D65 
 9629      5F62 7566 
 9629      00
 9630               	.LASF114:
 9631 00c4 5F63 7674 	.string"_cvtlen"
 9631      6C65 6E00 
 9632               	.LASF41:
 9633 00cc 5F4D 7574 	.string"_Mutex_Control"
 9633      6578 5F43 
68K GAS   			page 230


 9633      6F6E 7472 
 9633      6F6C 00
 9634               	.LASF225:
 9635 00db 4346 455F 	.string"CFE_ES_LibRecord_t"
 9635      4553 5F4C 
 9635      6962 5265 
 9635      636F 7264 
 9635      5F74 00
 9636               	.LASF406:
 9637 00ee 5F5F 6675 	.string"__func__"
 9637      6E63 5F5F 
 9637      00
 9638               	.LASF247:
 9639 00f7 4346 455F 	.string"CFE_ES_PerfDataEntry_t"
 9639      4553 5F50 
 9639      6572 6644 
 9639      6174 6145 
 9639      6E74 7279 
 9640               	.LASF153:
 9641 010e 5F67 6C6F 	.string"_global_atexit"
 9641      6261 6C5F 
 9641      6174 6578 
 9641      6974 00
 9642               	.LASF178:
 9643 011d 4E75 6D4F 	.string"NumOfChildTasks"
 9643      6643 6869 
 9643      6C64 5461 
 9643      736B 7300 
 9644               	.LASF11:
 9645 012d 7569 6E74 	.string"uint32"
 9645      3332 00
 9646               	.LASF426:
 9647 0134 5275 6E53 	.string"RunStatus"
 9647      7461 7475 
 9647      7300 
 9648               	.LASF148:
 9649 013e 5F75 6E75 	.string"_unused"
 9649      7365 6400 
 9650               	.LASF61:
 9651 0146 5F5F 746D 	.string"__tm"
 9651      00
 9652               	.LASF144:
 9653 014b 5F77 6373 	.string"_wcsrtombs_state"
 9653      7274 6F6D 
 9653      6273 5F73 
 9653      7461 7465 
 9653      00
 9654               	.LASF92:
 9655 015c 5F6E 6275 	.string"_nbuf"
 9655      6600 
 9656               	.LASF62:
 9657 0162 5F5F 746D 	.string"__tm_sec"
 9657      5F73 6563 
 9657      00
 9658               	.LASF40:
 9659 016b 5F54 6872 	.string"_Thread_Control"
 9659      6561 645F 
68K GAS   			page 231


 9659      436F 6E74 
 9659      726F 6C00 
 9660               	.LASF137:
 9661 017b 5F6C 3634 	.string"_l64a_buf"
 9661      615F 6275 
 9661      6600 
 9662               	.LASF285:
 9663 0185 5469 6D65 	.string"TimeResetVars"
 9663      5265 7365 
 9663      7456 6172 
 9663      7300 
 9664               	.LASF333:
 9665 0193 5265 6769 	.string"RegisteredTasks"
 9665      7374 6572 
 9665      6564 5461 
 9665      736B 7300 
 9666               	.LASF101:
 9667 01a3 5F73 7464 	.string"_stdin"
 9667      696E 00
 9668               	.LASF241:
 9669 01aa 4170 7049 	.string"AppID"
 9669      4400 
 9670               	.LASF265:
 9671 01b0 4461 7461 	.string"DataBuffer"
 9671      4275 6666 
 9671      6572 00
 9672               	.LASF282:
 9673 01bb 5379 7374 	.string"SystemLogEntryNum"
 9673      656D 4C6F 
 9673      6745 6E74 
 9673      7279 4E75 
 9673      6D00 
 9674               	.LASF89:
 9675 01cd 5F73 6565 	.string"_seek"
 9675      6B00 
 9676               	.LASF409:
 9677 01d3 4346 455F 	.string"CFE_ES_CreateChildTask"
 9677      4553 5F43 
 9677      7265 6174 
 9677      6543 6869 
 9677      6C64 5461 
 9678               	.LASF349:
 9679 01ea 5461 736B 	.string"TaskProp"
 9679      5072 6F70 
 9679      00
 9680               	.LASF408:
 9681 01f3 4346 455F 	.string"CFE_ES_RegisterChildTask"
 9681      4553 5F52 
 9681      6567 6973 
 9681      7465 7243 
 9681      6869 6C64 
 9682               	.LASF319:
 9683 020c 4346 455F 	.string"CFE_ES_CDSVariables_t"
 9683      4553 5F43 
 9683      4453 5661 
 9683      7269 6162 
 9683      6C65 735F 
68K GAS   			page 232


 9684               	.LASF422:
 9685 0222 4346 455F 	.string"CFE_ES_WaitForStartupSync"
 9685      4553 5F57 
 9685      6169 7446 
 9685      6F72 5374 
 9685      6172 7475 
 9686               	.LASF172:
 9687 023c 5374 6172 	.string"StartAddress"
 9687      7441 6464 
 9687      7265 7373 
 9687      00
 9688               	.LASF230:
 9689 0249 4346 455F 	.string"CFE_ES_DebugVariables_t"
 9689      4553 5F44 
 9689      6562 7567 
 9689      5661 7269 
 9689      6162 6C65 
 9690               	.LASF369:
 9691 0261 4346 455F 	.string"CFE_ES_RegisterGenCounter"
 9691      4553 5F52 
 9691      6567 6973 
 9691      7465 7247 
 9691      656E 436F 
 9692               	.LASF125:
 9693 027b 5F6D 756C 	.string"_mult"
 9693      7400 
 9694               	.LASF177:
 9695 0281 4D61 696E 	.string"MainTaskName"
 9695      5461 736B 
 9695      4E61 6D65 
 9695      00
 9696               	.LASF377:
 9697 028e 4346 455F 	.string"CFE_ES_RegisterCDS"
 9697      4553 5F52 
 9697      6567 6973 
 9697      7465 7243 
 9697      4453 00
 9698               	.LASF324:
 9699 02a1 4346 455F 	.string"CFE_ES_PerfLogDump_t"
 9699      4553 5F50 
 9699      6572 664C 
 9699      6F67 4475 
 9699      6D70 5F74 
 9700               	.LASF240:
 9701 02b6 436F 6E74 	.string"ContextSize"
 9701      6578 7453 
 9701      697A 6500 
 9702               	.LASF287:
 9703 02c2 4346 455F 	.string"CFE_ES_ResetData_t"
 9703      4553 5F52 
 9703      6573 6574 
 9703      4461 7461 
 9703      5F74 00
 9704               	.LASF166:
 9705 02d5 436F 6465 	.string"CodeAddress"
 9705      4164 6472 
 9705      6573 7300 
68K GAS   			page 233


 9706               	.LASF202:
 9707 02e1 5072 6F63 	.string"ProcessorID"
 9707      6573 736F 
 9707      7249 4400 
 9708               	.LASF337:
 9709 02ed 4170 7054 	.string"AppTable"
 9709      6162 6C65 
 9709      00
 9710               	.LASF251:
 9711 02f6 5469 6D65 	.string"TimerTicksPerSecond"
 9711      7254 6963 
 9711      6B73 5065 
 9711      7253 6563 
 9711      6F6E 6400 
 9712               	.LASF49:
 9713 030a 5F5F 7763 	.string"__wch"
 9713      6800 
 9714               	.LASF291:
 9715 0310 5369 7A65 	.string"SizeUsed"
 9715      5573 6564 
 9715      00
 9716               	.LASF84:
 9717 0319 5F66 696C 	.string"_file"
 9717      6500 
 9718               	.LASF193:
 9719 031f 4375 7272 	.string"CurrentSTCF"
 9719      656E 7453 
 9719      5443 4600 
 9720               	.LASF71:
 9721 032b 5F6F 6E5F 	.string"_on_exit_args"
 9721      6578 6974 
 9721      5F61 7267 
 9721      7300 
 9722               	.LASF249:
 9723 0339 456E 6469 	.string"Endian"
 9723      616E 00
 9724               	.LASF338:
 9725 0340 5265 6769 	.string"RegisteredLibs"
 9725      7374 6572 
 9725      6564 4C69 
 9725      6273 00
 9726               	.LASF206:
 9727 034f 5370 6172 	.string"Spare1"
 9727      6531 00
 9728               	.LASF207:
 9729 0356 5370 6172 	.string"Spare2"
 9729      6532 00
 9730               	.LASF140:
 9731 035d 5F6D 6272 	.string"_mbrlen_state"
 9731      6C65 6E5F 
 9731      7374 6174 
 9731      6500 
 9732               	.LASF6:
 9733 036b 6C6F 6E67 	.string"long int"
 9733      2069 6E74 
 9733      00
 9734               	.LASF151:
68K GAS   			page 234


 9735 0374 5F69 6D70 	.string"_impure_ptr"
 9735      7572 655F 
 9735      7074 7200 
 9736               	.LASF370:
 9737 0380 5265 7475 	.string"ReturnCode"
 9737      726E 436F 
 9737      6465 00
 9738               	.LASF111:
 9739 038b 5F72 6573 	.string"_result_k"
 9739      756C 745F 
 9739      6B00 
 9740               	.LASF219:
 9741 0395 5374 6172 	.string"StartParams"
 9741      7450 6172 
 9741      616D 7300 
 9742               	.LASF81:
 9743 03a1 5F73 697A 	.string"_size"
 9743      6500 
 9744               	.LASF173:
 9745 03a7 4578 6365 	.string"ExceptionAction"
 9745      7074 696F 
 9745      6E41 6374 
 9745      696F 6E00 
 9746               	.LASF421:
 9747 03b7 4346 455F 	.string"CFE_ES_RegisterApp"
 9747      4553 5F52 
 9747      6567 6973 
 9747      7465 7241 
 9747      7070 00
 9748               	.LASF130:
 9749 03ca 5F6C 6F63 	.string"_localtime_buf"
 9749      616C 7469 
 9749      6D65 5F62 
 9749      7566 00
 9750               	.LASF259:
 9751 03d9 496E 7661 	.string"InvalidMarkerReported"
 9751      6C69 644D 
 9751      6172 6B65 
 9751      7252 6570 
 9751      6F72 7465 
 9752               	.LASF174:
 9753 03ef 5072 696F 	.string"Priority"
 9753      7269 7479 
 9753      00
 9754               	.LASF305:
 9755 03f8 5369 7A65 	.string"SizeDesc"
 9755      4465 7363 
 9755      00
 9756               	.LASF357:
 9757 0401 4346 455F 	.string"CFE_ES_LockSharedData"
 9757      4553 5F4C 
 9757      6F63 6B53 
 9757      6861 7265 
 9757      6444 6174 
 9758               	.LASF66:
 9759 0417 5F5F 746D 	.string"__tm_mon"
 9759      5F6D 6F6E 
68K GAS   			page 235


 9759      00
 9760               	.LASF402:
 9761 0420 4346 455F 	.string"CFE_ES_DeleteChildTask"
 9761      4553 5F44 
 9761      656C 6574 
 9761      6543 6869 
 9761      6C64 5461 
 9762               	.LASF260:
 9763 0437 4669 6C74 	.string"FilterTriggerMaskSize"
 9763      6572 5472 
 9763      6967 6765 
 9763      724D 6173 
 9763      6B53 697A 
 9764               	.LASF195:
 9765 044d 4346 455F 	.string"CFE_TIME_ResetVars_t"
 9765      5449 4D45 
 9765      5F52 6573 
 9765      6574 5661 
 9765      7273 5F74 
 9766               	.LASF359:
 9767 0462 5265 7375 	.string"Result"
 9767      6C74 00
 9768               	.LASF164:
 9769 0469 4D6F 6475 	.string"ModuleId"
 9769      6C65 4964 
 9769      00
 9770               	.LASF209:
 9771 0472 546C 6D48 	.string"TlmHeader"
 9771      6561 6465 
 9771      7200 
 9772               	.LASF308:
 9773 047c 4346 455F 	.string"CFE_ES_CDSBlockDesc"
 9773      4553 5F43 
 9773      4453 426C 
 9773      6F63 6B44 
 9773      6573 6300 
 9774               	.LASF398:
 9775 0490 4C6F 674F 	.string"LogOverflow"
 9775      7665 7266 
 9775      6C6F 7700 
 9776               	.LASF237:
 9777 049c 4465 6275 	.string"DebugVars"
 9777      6756 6172 
 9777      7300 
 9778               	.LASF298:
 9779 04a6 5369 7A65 	.string"Size"
 9779      00
 9780               	.LASF127:
 9781 04ab 5F75 6E75 	.string"_unused_rand"
 9781      7365 645F 
 9781      7261 6E64 
 9781      00
 9782               	.LASF295:
 9783 04b8 4D61 7853 	.string"MaxSize"
 9783      697A 6500 
 9784               	.LASF1:
 9785 04c0 7369 676E 	.string"signed char"
68K GAS   			page 236


 9785      6564 2063 
 9785      6861 7200 
 9786               	.LASF15:
 9787 04cc 626F 6F6C 	.string"boolean"
 9787      6561 6E00 
 9788               	.LASF266:
 9789 04d4 4346 455F 	.string"CFE_ES_PerfData_t"
 9789      4553 5F50 
 9789      6572 6644 
 9789      6174 615F 
 9789      7400 
 9790               	.LASF210:
 9791 04e6 5061 796C 	.string"Payload"
 9791      6F61 6400 
 9792               	.LASF384:
 9793 04ee 4461 7461 	.string"DataPtr"
 9793      5074 7200 
 9794               	.LASF379:
 9795 04f6 426C 6F63 	.string"BlockSize"
 9795      6B53 697A 
 9795      6500 
 9796               	.LASF39:
 9797 0500 5F54 6872 	.string"_Thread_queue_Heads"
 9797      6561 645F 
 9797      7175 6575 
 9797      655F 4865 
 9797      6164 7300 
 9798               	.LASF411:
 9799 0514 4675 6E63 	.string"FunctionPtr"
 9799      7469 6F6E 
 9799      5074 7200 
 9800               	.LASF0:
 9801 0520 756E 7369 	.string"unsigned char"
 9801      676E 6564 
 9801      2063 6861 
 9801      7200 
 9802               	.LASF175:
 9803 052e 4D61 696E 	.string"MainTaskId"
 9803      5461 736B 
 9803      4964 00
 9804               	.LASF428:
 9805 0539 4346 455F 	.string"CFE_ES_ExitApp"
 9805      4553 5F45 
 9805      7869 7441 
 9805      7070 00
 9806               	.LASF106:
 9807 0548 5F75 6E73 	.string"_unspecified_locale_info"
 9807      7065 6369 
 9807      6669 6564 
 9807      5F6C 6F63 
 9807      616C 655F 
 9808               	.LASF296:
 9809 0561 4346 455F 	.string"CFE_ES_CDSBlockSizeDesc_t"
 9809      4553 5F43 
 9809      4453 426C 
 9809      6F63 6B53 
 9809      697A 6544 
68K GAS   			page 237


 9810               	.LASF99:
 9811 057b 5F72 6565 	.string"_reent"
 9811      6E74 00
 9812               	.LASF152:
 9813 0582 5F67 6C6F 	.string"_global_impure_ptr"
 9813      6261 6C5F 
 9813      696D 7075 
 9813      7265 5F70 
 9813      7472 00
 9814               	.LASF441:
 9815 0595 2F68 6F6D 	.string"/home/simulink/cFS_FreeRTOS_seL4/build/cpu1/cfe/es"
 9815      652F 7369 
 9815      6D75 6C69 
 9815      6E6B 2F63 
 9815      4653 5F46 
 9816               	.LASF442:
 9817 05c8 5F5F 6275 	.string"__builtin_va_list"
 9817      696C 7469 
 9817      6E5F 7661 
 9817      5F6C 6973 
 9817      7400 
 9818               	.LASF170:
 9819 05da 4253 5341 	.string"BSSAddress"
 9819      6464 7265 
 9819      7373 00
 9820               	.LASF17:
 9821 05e5 5F5F 676E 	.string"__gnuc_va_list"
 9821      7563 5F76 
 9821      615F 6C69 
 9821      7374 00
 9822               	.LASF326:
 9823 05f4 436F 756E 	.string"Counter"
 9823      7465 7200 
 9824               	.LASF387:
 9825 05fc 5479 7065 	.string"TypeCRC"
 9825      4352 4300 
 9826               	.LASF413:
 9827 0604 466C 6167 	.string"Flags"
 9827      7300 
 9828               	.LASF34:
 9829 060a 5F54 6872 	.string"_Thread_queue_Queue"
 9829      6561 645F 
 9829      7175 6575 
 9829      655F 5175 
 9829      6575 6500 
 9830               	.LASF382:
 9831 061e 4344 534E 	.string"CDSName"
 9831      616D 6500 
 9832               	.LASF16:
 9833 0626 6368 6172 	.string"char"
 9833      00
 9834               	.LASF179:
 9835 062b 4346 455F 	.string"CFE_ES_AppInfo_t"
 9835      4553 5F41 
 9835      7070 496E 
 9835      666F 5F74 
 9835      00
68K GAS   			page 238


 9836               	.LASF329:
 9837 063c 5368 6172 	.string"SharedDataMutex"
 9837      6564 4461 
 9837      7461 4D75 
 9837      7465 7800 
 9838               	.LASF78:
 9839 064c 5F66 6E73 	.string"_fns"
 9839      00
 9840               	.LASF90:
 9841 0651 5F63 6C6F 	.string"_close"
 9841      7365 00
 9842               	.LASF309:
 9843 0658 4D65 6D48 	.string"MemHandle"
 9843      616E 646C 
 9843      6500 
 9844               	.LASF375:
 9845 0662 4346 455F 	.string"CFE_ES_CopyToCDS"
 9845      4553 5F43 
 9845      6F70 7954 
 9845      6F43 4453 
 9845      00
 9846               	.LASF351:
 9847 0673 466F 756E 	.string"FoundExceptionTask"
 9847      6445 7863 
 9847      6570 7469 
 9847      6F6E 5461 
 9847      736B 00
 9848               	.LASF14:
 9849 0686 6370 7561 	.string"cpuaddr"
 9849      6464 7200 
 9850               	.LASF400:
 9851 068e 4346 455F 	.string"CFE_ES_ExitChildTask"
 9851      4553 5F45 
 9851      7869 7443 
 9851      6869 6C64 
 9851      5461 736B 
 9852               	.LASF378:
 9853 06a3 4344 5348 	.string"CDSHandlePtr"
 9853      616E 646C 
 9853      6550 7472 
 9853      00
 9854               	.LASF33:
 9855 06b0 5F54 6963 	.string"_Ticket_lock_Control"
 9855      6B65 745F 
 9855      6C6F 636B 
 9855      5F43 6F6E 
 9855      7472 6F6C 
 9856               	.LASF310:
 9857 06c5 5461 6B65 	.string"Taken"
 9857      6E00 
 9858               	.LASF186:
 9859 06cb 5365 636F 	.string"Seconds"
 9859      6E64 7300 
 9860               	.LASF304:
 9861 06d3 4D69 6E42 	.string"MinBlockSize"
 9861      6C6F 636B 
 9861      5369 7A65 
68K GAS   			page 239


 9861      00
 9862               	.LASF271:
 9863 06e0 4C6F 674F 	.string"LogOverflowCounter"
 9863      7665 7266 
 9863      6C6F 7743 
 9863      6F75 6E74 
 9863      6572 00
 9864               	.LASF276:
 9865 06f3 4552 4C6F 	.string"ERLog"
 9865      6700 
 9866               	.LASF184:
 9867 06f9 4346 455F 	.string"CFE_ES_CDSHandle_t"
 9867      4553 5F43 
 9867      4453 4861 
 9867      6E64 6C65 
 9867      5F74 00
 9868               	.LASF372:
 9869 070c 4346 455F 	.string"CFE_ES_RestoreFromCDS"
 9869      4553 5F52 
 9869      6573 746F 
 9869      7265 4672 
 9869      6F6D 4344 
 9870               	.LASF392:
 9871 0722 4346 455F 	.string"CFE_ES_WriteToSysLog"
 9871      4553 5F57 
 9871      7269 7465 
 9871      546F 5379 
 9871      734C 6F67 
 9872               	.LASF37:
 9873 0737 5F6F 776E 	.string"_owner"
 9873      6572 00
 9874               	.LASF286:
 9875 073e 4556 535F 	.string"EVS_Log"
 9875      4C6F 6700 
 9876               	.LASF383:
 9877 0746 4346 455F 	.string"CFE_ES_CalculateCRC"
 9877      4553 5F43 
 9877      616C 6375 
 9877      6C61 7465 
 9877      4352 4300 
 9878               	.LASF403:
 9879 075a 4F53 5461 	.string"OSTaskId"
 9879      736B 4964 
 9879      00
 9880               	.LASF277:
 9881 0763 4552 4C6F 	.string"ERLogIndex"
 9881      6749 6E64 
 9881      6578 00
 9882               	.LASF397:
 9883 076e 546D 7053 	.string"TmpStringLen"
 9883      7472 696E 
 9883      674C 656E 
 9883      00
 9884               	.LASF264:
 9885 077b 4D65 7461 	.string"MetaData"
 9885      4461 7461 
 9885      00
68K GAS   			page 240


 9886               	.LASF325:
 9887 0784 4346 455F 	.string"CFE_ES_PerfLogDumpStatus"
 9887      4553 5F50 
 9887      6572 664C 
 9887      6F67 4475 
 9887      6D70 5374 
 9888               	.LASF215:
 9889 079d 4346 455F 	.string"CFE_ES_AppState_t"
 9889      4553 5F41 
 9889      7070 5374 
 9889      6174 655F 
 9889      7400 
 9890               	.LASF314:
 9891 07af 4344 5353 	.string"CDSSize"
 9891      697A 6500 
 9892               	.LASF316:
 9893 07b7 4D61 784E 	.string"MaxNumRegEntries"
 9893      756D 5265 
 9893      6745 6E74 
 9893      7269 6573 
 9893      00
 9894               	.LASF229:
 9895 07c8 4C61 7374 	.string"LastAppId"
 9895      4170 7049 
 9895      6400 
 9896               	.LASF388:
 9897 07d2 496E 6465 	.string"Index"
 9897      7800 
 9898               	.LASF269:
 9899 07d8 4C6F 6746 	.string"LogFullFlag"
 9899      756C 6C46 
 9899      6C61 6700 
 9900               	.LASF354:
 9901 07e4 4346 455F 	.string"CFE_ES_UnlockSharedData"
 9901      4553 5F55 
 9901      6E6C 6F63 
 9901      6B53 6861 
 9901      7265 6444 
 9902               	.LASF157:
 9903 07fc 5F74 7A6E 	.string"_tzname"
 9903      616D 6500 
 9904               	.LASF299:
 9905 0804 4375 7272 	.string"Current"
 9905      656E 7400 
 9906               	.LASF45:
 9907 080c 5F6E 6573 	.string"_nest_level"
 9907      745F 6C65 
 9907      7665 6C00 
 9908               	.LASF191:
 9909 0818 436C 6F63 	.string"ClockSignal"
 9909      6B53 6967 
 9909      6E61 6C00 
 9910               	.LASF279:
 9911 0824 5379 7374 	.string"SystemLog"
 9911      656D 4C6F 
 9911      6700 
 9912               	.LASF86:
68K GAS   			page 241


 9913 082e 5F63 6F6F 	.string"_cookie"
 9913      6B69 6500 
 9914               	.LASF415:
 9915 0836 4346 455F 	.string"CFE_ES_GetAppInfo"
 9915      4553 5F47 
 9915      6574 4170 
 9915      7049 6E66 
 9915      6F00 
 9916               	.LASF163:
 9917 0848 5374 6163 	.string"StackSize"
 9917      6B53 697A 
 9917      6500 
 9918               	.LASF60:
 9919 0852 5F77 6473 	.string"_wds"
 9919      00
 9920               	.LASF117:
 9921 0857 5F73 6967 	.string"_sig_func"
 9921      5F66 756E 
 9921      6300 
 9922               	.LASF301:
 9923 0861 4368 6563 	.string"CheckErrCntr"
 9923      6B45 7272 
 9923      436E 7472 
 9923      00
 9924               	.LASF435:
 9925 086e 4346 455F 	.string"CFE_ES_GetResetType"
 9925      4553 5F47 
 9925      6574 5265 
 9925      7365 7454 
 9925      7970 6500 
 9926               	.LASF94:
 9927 0882 5F6F 6666 	.string"_offset"
 9927      7365 7400 
 9928               	.LASF115:
 9929 088a 5F63 7674 	.string"_cvtbuf"
 9929      6275 6600 
 9930               	.LASF263:
 9931 0892 4346 455F 	.string"CFE_ES_PerfMetaData_t"
 9931      4553 5F50 
 9931      6572 664D 
 9931      6574 6144 
 9931      6174 615F 
 9932               	.LASF300:
 9933 08a8 5369 7A65 	.string"SizeIndex"
 9933      496E 6465 
 9933      7800 
 9934               	.LASF162:
 9935 08b2 4669 6C65 	.string"FileName"
 9935      4E61 6D65 
 9935      00
 9936               	.LASF30:
 9937 08bb 5F6E 6578 	.string"_next_ticket"
 9937      745F 7469 
 9937      636B 6574 
 9937      00
 9938               	.LASF315:
 9939 08c8 4D65 6D50 	.string"MemPoolSize"
68K GAS   			page 242


 9939      6F6F 6C53 
 9939      697A 6500 
 9940               	.LASF355:
 9941 08d4 4675 6E63 	.string"FunctionName"
 9941      7469 6F6E 
 9941      4E61 6D65 
 9941      00
 9942               	.LASF344:
 9943 08e1 4346 455F 	.string"CFE_ES_ResetDataPtr"
 9943      4553 5F52 
 9943      6573 6574 
 9943      4461 7461 
 9943      5074 7200 
 9944               	.LASF281:
 9945 08f5 5379 7374 	.string"SystemLogMode"
 9945      656D 4C6F 
 9945      674D 6F64 
 9945      6500 
 9946               	.LASF289:
 9947 0903 4368 6563 	.string"CheckBits"
 9947      6B42 6974 
 9947      7300 
 9948               	.LASF112:
 9949 090d 5F70 3573 	.string"_p5s"
 9949      00
 9950               	.LASF12:
 9951 0912 6C6F 6E67 	.string"long unsigned int"
 9951      2075 6E73 
 9951      6967 6E65 
 9951      6420 696E 
 9951      7400 
 9952               	.LASF24:
 9953 0924 4F53 5F74 	.string"OS_task_prop_t"
 9953      6173 6B5F 
 9953      7072 6F70 
 9953      5F74 00
 9954               	.LASF245:
 9955 0933 5469 6D65 	.string"TimerUpper32"
 9955      7255 7070 
 9955      6572 3332 
 9955      00
 9956               	.LASF407:
 9957 0940 4346 455F 	.string"CFE_ES_IncrementTaskCounter"
 9957      4553 5F49 
 9957      6E63 7265 
 9957      6D65 6E74 
 9957      5461 736B 
 9958               	.LASF158:
 9959 095c 4170 7049 	.string"AppId"
 9959      6400 
 9960               	.LASF82:
 9961 0962 5F5F 7346 	.string"__sFILE"
 9961      494C 4500 
 9962               	.LASF108:
 9963 096a 5F5F 7364 	.string"__sdidinit"
 9963      6964 696E 
 9963      6974 00
68K GAS   			page 243


 9964               	.LASF98:
 9965 0975 5F66 6C61 	.string"_flags2"
 9965      6773 3200 
 9966               	.LASF236:
 9967 097d 4D61 7850 	.string"MaxProcessorResetCount"
 9967      726F 6365 
 9967      7373 6F72 
 9967      5265 7365 
 9967      7443 6F75 
 9968               	.LASF386:
 9969 0994 496E 7075 	.string"InputCRC"
 9969      7443 5243 
 9969      00
 9970               	.LASF228:
 9971 099d 5072 696E 	.string"PrintfEnabledFlag"
 9971      7466 456E 
 9971      6162 6C65 
 9971      6446 6C61 
 9971      6700 
 9972               	.LASF46:
 9973 09af 5F4C 4F43 	.string"_LOCK_RECURSIVE_T"
 9973      4B5F 5245 
 9973      4355 5253 
 9973      4956 455F 
 9973      5400 
 9974               	.LASF268:
 9975 09c1 4C6F 6743 	.string"LogCount"
 9975      6F75 6E74 
 9975      00
 9976               	.LASF330:
 9977 09ca 4170 7053 	.string"AppStartedCount"
 9977      7461 7274 
 9977      6564 436F 
 9977      756E 7400 
 9978               	.LASF100:
 9979 09da 5F65 7272 	.string"_errno"
 9979      6E6F 00
 9980               	.LASF194:
 9981 09e1 4375 7272 	.string"CurrentDelay"
 9981      656E 7444 
 9981      656C 6179 
 9981      00
 9982               	.LASF138:
 9983 09ee 5F73 6967 	.string"_signal_buf"
 9983      6E61 6C5F 
 9983      6275 6600 
 9984               	.LASF381:
 9985 09fa 5468 6973 	.string"ThisAppId"
 9985      4170 7049 
 9985      6400 
 9986               	.LASF205:
 9987 0a04 4D65 7373 	.string"Message"
 9987      6167 6500 
 9988               	.LASF56:
 9989 0a0c 5F42 6967 	.string"_Bigint"
 9989      696E 7400 
 9990               	.LASF58:
68K GAS   			page 244


 9991 0a14 5F6D 6178 	.string"_maxwds"
 9991      7764 7300 
 9992               	.LASF443:
 9993 0a1c 4F53 5F43 	.string"OS_ConvertToArrayIndex"
 9993      6F6E 7665 
 9993      7274 546F 
 9993      4172 7261 
 9993      7949 6E64 
 9994               	.LASF432:
 9995 0a33 4170 7046 	.string"AppFileName"
 9995      696C 654E 
 9995      616D 6500 
 9996               	.LASF109:
 9997 0a3f 5F5F 636C 	.string"__cleanup"
 9997      6561 6E75 
 9997      7000 
 9998               	.LASF169:
 9999 0a49 4461 7461 	.string"DataSize"
 9999      5369 7A65 
 9999      00
 10000               	.LASF368:
 10001 0a52 4346 455F 	.string"CFE_ES_DeleteGenCounter"
 10001      4553 5F44 
 10001      656C 6574 
 10001      6547 656E 
 10001      436F 756E 
 10002               	.LASF270:
 10003 0a6a 4C6F 674D 	.string"LogMode"
 10003      6F64 6500 
 10004               	.LASF348:
 10005 0a72 5374 6174 	.string"Status"
 10005      7573 00
 10006               	.LASF190:
 10007 0a79 4C65 6170 	.string"LeapSeconds"
 10007      5365 636F 
 10007      6E64 7300 
 10008               	.LASF204:
 10009 0a85 5061 636B 	.string"PacketID"
 10009      6574 4944 
 10009      00
 10010               	.LASF288:
 10011 0a8e 4346 455F 	.string"CFE_ES_CDSBlockHandle_t"
 10011      4553 5F43 
 10011      4453 426C 
 10011      6F63 6B48 
 10011      616E 646C 
 10012               	.LASF322:
 10013 0aa6 4461 7461 	.string"DataFileName"
 10013      4669 6C65 
 10013      4E61 6D65 
 10013      00
 10014               	.LASF404:
 10015 0ab3 5461 736B 	.string"TaskIsMain"
 10015      4973 4D61 
 10015      696E 00
 10016               	.LASF161:
 10017 0abe 456E 7472 	.string"EntryPoint"
68K GAS   			page 245


 10017      7950 6F69 
 10017      6E74 00
 10018               	.LASF105:
 10019 0ac9 5F65 6D65 	.string"_emergency"
 10019      7267 656E 
 10019      6379 00
 10020               	.LASF211:
 10021 0ad4 4346 455F 	.string"CFE_EVS_Packet_t"
 10021      4556 535F 
 10021      5061 636B 
 10021      6574 5F74 
 10021      00
 10022               	.LASF417:
 10023 0ae5 4346 455F 	.string"CFE_ES_GetAppName"
 10023      4553 5F47 
 10023      6574 4170 
 10023      704E 616D 
 10023      6500 
 10024               	.LASF7:
 10025 0af7 6C6F 6E67 	.string"long long int"
 10025      206C 6F6E 
 10025      6720 696E 
 10025      7400 
 10026               	.LASF358:
 10027 0b05 4170 7049 	.string"AppIdPtr"
 10027      6450 7472 
 10027      00
 10028               	.LASF18:
 10029 0b0e 7661 5F6C 	.string"va_list"
 10029      6973 7400 
 10030               	.LASF248:
 10031 0b16 5665 7273 	.string"Version"
 10031      696F 6E00 
 10032               	.LASF362:
 10033 0b1e 436F 756E 	.string"CounterIdPtr"
 10033      7465 7249 
 10033      6450 7472 
 10033      00
 10034               	.LASF121:
 10035 0b2b 5F6E 696F 	.string"_niobs"
 10035      6273 00
 10036               	.LASF365:
 10037 0b32 436F 756E 	.string"Count"
 10037      7400 
 10038               	.LASF278:
 10039 0b38 4552 4C6F 	.string"ERLogEntries"
 10039      6745 6E74 
 10039      7269 6573 
 10039      00
 10040               	.LASF394:
 10041 0b45 4172 6750 	.string"ArgPtr"
 10041      7472 00
 10042               	.LASF118:
 10043 0b4c 5F5F 7367 	.string"__sglue"
 10043      6C75 6500 
 10044               	.LASF252:
 10045 0b54 5469 6D65 	.string"TimerLow32Rollover"
68K GAS   			page 246


 10045      724C 6F77 
 10045      3332 526F 
 10045      6C6C 6F76 
 10045      6572 00
 10046               	.LASF147:
 10047 0b67 5F6E 6D61 	.string"_nmalloc"
 10047      6C6C 6F63 
 10047      00
 10048               	.LASF340:
 10049 0b70 436F 756E 	.string"CounterTable"
 10049      7465 7254 
 10049      6162 6C65 
 10049      00
 10050               	.LASF131:
 10051 0b7d 5F67 616D 	.string"_gamma_signgam"
 10051      6D61 5F73 
 10051      6967 6E67 
 10051      616D 00
 10052               	.LASF380:
 10053 0b8c 4E61 6D65 	.string"NameLen"
 10053      4C65 6E00 
 10054               	.LASF176:
 10055 0b94 4578 6563 	.string"ExecutionCounter"
 10055      7574 696F 
 10055      6E43 6F75 
 10055      6E74 6572 
 10055      00
 10056               	.LASF389:
 10057 0ba5 4275 6650 	.string"BufPtr"
 10057      7472 00
 10058               	.LASF376:
 10059 0bac 4461 7461 	.string"DataToCopy"
 10059      546F 436F 
 10059      7079 00
 10060               	.LASF113:
 10061 0bb7 5F66 7265 	.string"_freelist"
 10061      656C 6973 
 10061      7400 
 10062               	.LASF331:
 10063 0bc1 4170 7052 	.string"AppReadyCount"
 10063      6561 6479 
 10063      436F 756E 
 10063      7400 
 10064               	.LASF122:
 10065 0bcf 5F69 6F62 	.string"_iobs"
 10065      7300 
 10066               	.LASF434:
 10067 0bd5 4346 455F 	.string"CFE_ES_ResetCFE"
 10067      4553 5F52 
 10067      6573 6574 
 10067      4346 4500 
 10068               	.LASF120:
 10069 0be5 5F67 6C75 	.string"_glue"
 10069      6500 
 10070               	.LASF345:
 10071 0beb 486F 7374 	.string"HostTaskId"
 10071      5461 736B 
68K GAS   			page 247


 10071      4964 00
 10072               	.LASF59:
 10073 0bf6 5F73 6967 	.string"_sign"
 10073      6E00 
 10074               	.LASF23:
 10075 0bfc 4F53 7461 	.string"OStask_id"
 10075      736B 5F69 
 10075      6400 
 10076               	.LASF290:
 10077 0c06 416C 6C6F 	.string"AllocatedFlag"
 10077      6361 7465 
 10077      6446 6C61 
 10077      6700 
 10078               	.LASF373:
 10079 0c14 5265 7374 	.string"RestoreToMemory"
 10079      6F72 6554 
 10079      6F4D 656D 
 10079      6F72 7900 
 10080               	.LASF318:
 10081 0c24 5661 6C69 	.string"ValidityField"
 10081      6469 7479 
 10081      4669 656C 
 10081      6400 
 10082               	.LASF336:
 10083 0c32 5265 6769 	.string"RegisteredExternalApps"
 10083      7374 6572 
 10083      6564 4578 
 10083      7465 726E 
 10083      616C 4170 
 10084               	.LASF312:
 10085 0c49 4346 455F 	.string"CFE_ES_CDS_RegRec_t"
 10085      4553 5F43 
 10085      4453 5F52 
 10085      6567 5265 
 10085      635F 7400 
 10086               	.LASF419:
 10087 0c5d 4346 455F 	.string"CFE_ES_GetAppID"
 10087      4553 5F47 
 10087      6574 4170 
 10087      7049 4400 
 10088               	.LASF272:
 10089 0c6d 4C6F 6745 	.string"LogEntry"
 10089      6E74 7279 
 10089      00
 10090               	.LASF32:
 10091 0c76 756E 7369 	.string"unsigned int"
 10091      676E 6564 
 10091      2069 6E74 
 10091      00
 10092               	.LASF155:
 10093 0c83 5F74 696D 	.string"_timezone"
 10093      657A 6F6E 
 10093      6500 
 10094               	.LASF234:
 10095 0c8d 426F 6F74 	.string"BootSource"
 10095      536F 7572 
 10095      6365 00
68K GAS   			page 248


 10096               	.LASF347:
 10097 0c98 436F 6E74 	.string"ContextPointer"
 10097      6578 7450 
 10097      6F69 6E74 
 10097      6572 00
 10098               	.LASF145:
 10099 0ca7 5F68 5F65 	.string"_h_errno"
 10099      7272 6E6F 
 10099      00
 10100               	.LASF418:
 10101 0cb0 4275 6666 	.string"BufferLength"
 10101      6572 4C65 
 10101      6E67 7468 
 10101      00
 10102               	.LASF181:
 10103 0cbd 5461 736B 	.string"TaskName"
 10103      4E61 6D65 
 10103      00
 10104               	.LASF283:
 10105 0cc6 5065 7266 	.string"Perf"
 10105      00
 10106               	.LASF275:
 10107 0ccb 4346 455F 	.string"CFE_ES_ResetVariables_t"
 10107      4553 5F52 
 10107      6573 6574 
 10107      5661 7269 
 10107      6162 6C65 
 10108               	.LASF143:
 10109 0ce3 5F77 6372 	.string"_wcrtomb_state"
 10109      746F 6D62 
 10109      5F73 7461 
 10109      7465 00
 10110               	.LASF65:
 10111 0cf2 5F5F 746D 	.string"__tm_mday"
 10111      5F6D 6461 
 10111      7900 
 10112               	.LASF21:
 10113 0cfc 7374 6163 	.string"stack_size"
 10113      6B5F 7369 
 10113      7A65 00
 10114               	.LASF116:
 10115 0d07 5F6E 6577 	.string"_new"
 10115      00
 10116               	.LASF38:
 10117 0d0c 5F6E 616D 	.string"_name"
 10117      6500 
 10118               	.LASF91:
 10119 0d12 5F75 6275 	.string"_ubuf"
 10119      6600 
 10120               	.LASF196:
 10121 0d18 5265 6C69 	.string"Reliability"
 10121      6162 696C 
 10121      6974 7900 
 10122               	.LASF103:
 10123 0d24 5F73 7464 	.string"_stderr"
 10123      6572 7200 
 10124               	.LASF410:
68K GAS   			page 249


 10125 0d2c 5461 736B 	.string"TaskIdPtr"
 10125      4964 5074 
 10125      7200 
 10126               	.LASF136:
 10127 0d36 5F77 6374 	.string"_wctomb_state"
 10127      6F6D 625F 
 10127      7374 6174 
 10127      6500 
 10128               	.LASF97:
 10129 0d44 5F6D 6273 	.string"_mbstate"
 10129      7461 7465 
 10129      00
 10130               	.LASF132:
 10131 0d4d 5F72 616E 	.string"_rand_next"
 10131      645F 6E65 
 10131      7874 00
 10132               	.LASF83:
 10133 0d58 5F66 6C61 	.string"_flags"
 10133      6773 00
 10134               	.LASF159:
 10135 0d5f 5479 7065 	.string"Type"
 10135      00
 10136               	.LASF395:
 10137 0d64 546D 7053 	.string"TmpString"
 10137      7472 696E 
 10137      6700 
 10138               	.LASF332:
 10139 0d6e 5379 7374 	.string"SystemState"
 10139      656D 5374 
 10139      6174 6500 
 10140               	.LASF76:
 10141 0d7a 5F61 7465 	.string"_atexit"
 10141      7869 7400 
 10142               	.LASF187:
 10143 0d82 5375 6273 	.string"Subseconds"
 10143      6563 6F6E 
 10143      6473 00
 10144               	.LASF165:
 10145 0d8d 4164 6472 	.string"AddressesAreValid"
 10145      6573 7365 
 10145      7341 7265 
 10145      5661 6C69 
 10145      6400 
 10146               	.LASF51:
 10147 0d9f 5F5F 636F 	.string"__count"
 10147      756E 7400 
 10148               	.LASF250:
 10149 0da7 5370 6172 	.string"Spare"
 10149      6500 
 10150               	.LASF185:
 10151 0dad 4346 455F 	.string"CFE_ES_ChildTaskMainFuncPtr_t"
 10151      4553 5F43 
 10151      6869 6C64 
 10151      5461 736B 
 10151      4D61 696E 
 10152               	.LASF430:
 10153 0dcb 4346 455F 	.string"CFE_ES_DeleteApp"
68K GAS   			page 250


 10153      4553 5F44 
 10153      656C 6574 
 10153      6541 7070 
 10153      00
 10154               	.LASF294:
 10155 0ddc 4E75 6D43 	.string"NumCreated"
 10155      7265 6174 
 10155      6564 00
 10156               	.LASF160:
 10157 0de7 4E61 6D65 	.string"Name"
 10157      00
 10158               	.LASF68:
 10159 0dec 5F5F 746D 	.string"__tm_wday"
 10159      5F77 6461 
 10159      7900 
 10160               	.LASF27:
 10161 0df6 6C6F 6E67 	.string"long double"
 10161      2064 6F75 
 10161      626C 6500 
 10162               	.LASF217:
 10163 0e02 4346 455F 	.string"CFE_ES_MainTaskInfo_t"
 10163      4553 5F4D 
 10163      6169 6E54 
 10163      6173 6B49 
 10163      6E66 6F5F 
 10164               	.LASF69:
 10165 0e18 5F5F 746D 	.string"__tm_yday"
 10165      5F79 6461 
 10165      7900 
 10166               	.LASF223:
 10167 0e22 4346 455F 	.string"CFE_ES_TaskRecord_t"
 10167      4553 5F54 
 10167      6173 6B52 
 10167      6563 6F72 
 10167      645F 7400 
 10168               	.LASF297:
 10169 0e36 5374 6172 	.string"Start"
 10169      7400 
 10170               	.LASF43:
 10171 0e3c 5F4D 7574 	.string"_Mutex_recursive_Control"
 10171      6578 5F72 
 10171      6563 7572 
 10171      7369 7665 
 10171      5F43 6F6E 
 10172               	.LASF254:
 10173 0e55 4D6F 6465 	.string"Mode"
 10173      00
 10174               	.LASF36:
 10175 0e5a 5F68 6561 	.string"_heads"
 10175      6473 00
 10176               	.LASF124:
 10177 0e61 5F73 6565 	.string"_seed"
 10177      6400 
 10178               	.LASF393:
 10179 0e67 5370 6563 	.string"SpecStringPtr"
 10179      5374 7269 
 10179      6E67 5074 
68K GAS   			page 251


 10179      7200 
 10180               	.LASF42:
 10181 0e75 5F51 7565 	.string"_Queue"
 10181      7565 00
 10182               	.LASF346:
 10183 0e7c 5265 6173 	.string"ReasonString"
 10183      6F6E 5374 
 10183      7269 6E67 
 10183      00
 10184               	.LASF274:
 10185 0e89 4553 5F43 	.string"ES_CausedReset"
 10185      6175 7365 
 10185      6452 6573 
 10185      6574 00
 10186               	.LASF29:
 10187 0e98 5F66 706F 	.string"_fpos_t"
 10187      735F 7400 
 10188               	.LASF343:
 10189 0ea0 4346 455F 	.string"CFE_ES_Global"
 10189      4553 5F47 
 10189      6C6F 6261 
 10189      6C00 
 10190               	.LASF50:
 10191 0eae 5F5F 7763 	.string"__wchb"
 10191      6862 00
 10192               	.LASF416:
 10193 0eb5 4170 7049 	.string"AppInfo"
 10193      6E66 6F00 
 10194               	.LASF135:
 10195 0ebd 5F6D 6274 	.string"_mbtowc_state"
 10195      6F77 635F 
 10195      7374 6174 
 10195      6500 
 10196               	.LASF327:
 10197 0ecb 436F 756E 	.string"CounterName"
 10197      7465 724E 
 10197      616D 6500 
 10198               	.LASF13:
 10199 0ed7 6C6F 6E67 	.string"long long unsigned int"
 10199      206C 6F6E 
 10199      6720 756E 
 10199      7369 676E 
 10199      6564 2069 
 10200               	.LASF220:
 10201 0eee 5374 6174 	.string"StateRecord"
 10201      6552 6563 
 10201      6F72 6400 
 10202               	.LASF323:
 10203 0efa 4461 7461 	.string"DataFileDescriptor"
 10203      4669 6C65 
 10203      4465 7363 
 10203      7269 7074 
 10203      6F72 00
 10204               	.LASF171:
 10205 0f0d 4253 5353 	.string"BSSSize"
 10205      697A 6500 
 10206               	.LASF73:
68K GAS   			page 252


 10207 0f15 5F64 736F 	.string"_dso_handle"
 10207      5F68 616E 
 10207      646C 6500 
 10208               	.LASF390:
 10209 0f21 4279 7465 	.string"ByteValue"
 10209      5661 6C75 
 10209      6500 
 10210               	.LASF123:
 10211 0f2b 5F72 616E 	.string"_rand48"
 10211      6434 3800 
 10212               	.LASF371:
 10213 0f33 4368 6563 	.string"CheckPtr"
 10213      6B50 7472 
 10213      00
 10214               	.LASF361:
 10215 0f3c 4346 455F 	.string"CFE_ES_GetGenCounterIDByName"
 10215      4553 5F47 
 10215      6574 4765 
 10215      6E43 6F75 
 10215      6E74 6572 
 10216               	.LASF102:
 10217 0f59 5F73 7464 	.string"_stdout"
 10217      6F75 7400 
 10218               	.LASF253:
 10219 0f61 5374 6174 	.string"State"
 10219      6500 
 10220               	.LASF352:
 10221 0f67 4578 6365 	.string"ExceptionTaskID"
 10221      7074 696F 
 10221      6E54 6173 
 10221      6B49 4400 
 10222               	.LASF93:
 10223 0f77 5F62 6C6B 	.string"_blksize"
 10223      7369 7A65 
 10223      00
 10224               	.LASF374:
 10225 0f80 4861 6E64 	.string"Handle"
 10225      6C65 00
 10226               	.LASF216:
 10227 0f87 4346 455F 	.string"CFE_ES_AppStartParams_t"
 10227      4553 5F41 
 10227      7070 5374 
 10227      6172 7450 
 10227      6172 616D 
 10228               	.LASF246:
 10229 0f9f 5469 6D65 	.string"TimerLower32"
 10229      724C 6F77 
 10229      6572 3332 
 10229      00
 10230               	.LASF80:
 10231 0fac 5F62 6173 	.string"_base"
 10231      6500 
 10232               	.LASF258:
 10233 0fb2 4461 7461 	.string"DataCount"
 10233      436F 756E 
 10233      7400 
 10234               	.LASF128:
68K GAS   			page 253


 10235 0fbc 5F73 7472 	.string"_strtok_last"
 10235      746F 6B5F 
 10235      6C61 7374 
 10235      00
 10236               	.LASF313:
 10237 0fc9 5265 6769 	.string"RegistryMutex"
 10237      7374 7279 
 10237      4D75 7465 
 10237      7800 
 10238               	.LASF334:
 10239 0fd7 5461 736B 	.string"TaskTable"
 10239      5461 626C 
 10239      6500 
 10240               	.LASF141:
 10241 0fe1 5F6D 6272 	.string"_mbrtowc_state"
 10241      746F 7763 
 10241      5F73 7461 
 10241      7465 00
 10242               	.LASF261:
 10243 0ff0 4669 6C74 	.string"FilterMask"
 10243      6572 4D61 
 10243      736B 00
 10244               	.LASF232:
 10245 0ffb 5265 7365 	.string"ResetType"
 10245      7454 7970 
 10245      6500 
 10246               	.LASF218:
 10247 1005 5265 636F 	.string"RecordUsed"
 10247      7264 5573 
 10247      6564 00
 10248               	.LASF192:
 10249 1010 4375 7272 	.string"CurrentMET"
 10249      656E 744D 
 10249      4554 00
 10250               	.LASF54:
 10251 101b 5F66 6C6F 	.string"_flock_t"
 10251      636B 5F74 
 10251      00
 10252               	.LASF119:
 10253 1024 5F5F 4649 	.string"__FILE"
 10253      4C45 00
 10254               	.LASF440:
 10255 102b 2F68 6F6D 	.string"/home/simulink/cFS_FreeRTOS_seL4/cfe/fsw/cfe-core/src/es/cfe_es_api.c"
 10255      652F 7369 
 10255      6D75 6C69 
 10255      6E6B 2F63 
 10255      4653 5F46 
 10256               	.LASF306:
 10257 1071 4346 455F 	.string"CFE_ES_CDSPool_t"
 10257      4553 5F43 
 10257      4453 506F 
 10257      6F6C 5F74 
 10257      00
 10258               	.LASF96:
 10259 1082 5F6C 6F63 	.string"_lock"
 10259      6B00 
 10260               	.LASF342:
68K GAS   			page 254


 10261 1088 4346 455F 	.string"CFE_ES_Global_t"
 10261      4553 5F47 
 10261      6C6F 6261 
 10261      6C5F 7400 
 10262               	.LASF53:
 10263 1098 5F6D 6273 	.string"_mbstate_t"
 10263      7461 7465 
 10263      5F74 00
 10264               	.LASF433:
 10265 10a3 4346 455F 	.string"CFE_ES_RestartApp"
 10265      4553 5F52 
 10265      6573 7461 
 10265      7274 4170 
 10265      7000 
 10266               	.LASF431:
 10267 10b5 4346 455F 	.string"CFE_ES_ReloadApp"
 10267      4553 5F52 
 10267      656C 6F61 
 10267      6441 7070 
 10267      00
 10268               	.LASF133:
 10269 10c6 5F72 3438 	.string"_r48"
 10269      00
 10270               	.LASF48:
 10271 10cb 7769 6E74 	.string"wint_t"
 10271      5F74 00
 10272               	.LASF2:
 10273 10d2 6F73 616C 	.string"osalbool"
 10273      626F 6F6C 
 10273      00
 10274               	.LASF57:
 10275 10db 5F6E 6578 	.string"_next"
 10275      7400 
 10276               	.LASF95:
 10277 10e1 5F64 6174 	.string"_data"
 10277      6100 
 10278               	.LASF226:
 10279 10e7 4465 6275 	.string"DebugFlag"
 10279      6746 6C61 
 10279      6700 
 10280               	.LASF233:
 10281 10f1 5265 7365 	.string"ResetSubtype"
 10281      7453 7562 
 10281      7479 7065 
 10281      00
 10282               	.LASF167:
 10283 10fe 436F 6465 	.string"CodeSize"
 10283      5369 7A65 
 10283      00
 10284               	.LASF335:
 10285 1107 5265 6769 	.string"RegisteredCoreApps"
 10285      7374 6572 
 10285      6564 436F 
 10285      7265 4170 
 10285      7073 00
 10286               	.LASF198:
 10287 111a 4346 455F 	.string"CFE_SB_Default_Qos"
68K GAS   			page 255


 10287      5342 5F44 
 10287      6566 6175 
 10287      6C74 5F51 
 10287      6F73 00
 10288               	.LASF255:
 10289 112d 5472 6967 	.string"TriggerCount"
 10289      6765 7243 
 10289      6F75 6E74 
 10289      00
 10290               	.LASF214:
 10291 113a 4170 7054 	.string"AppTimer"
 10291      696D 6572 
 10291      00
 10292               	.LASF339:
 10293 1143 4C69 6254 	.string"LibTable"
 10293      6162 6C65 
 10293      00
 10294               	.LASF212:
 10295 114c 4170 7043 	.string"AppControlRequest"
 10295      6F6E 7472 
 10295      6F6C 5265 
 10295      7175 6573 
 10295      7400 
 10296               	.LASF189:
 10297 115e 5369 676E 	.string"Signature"
 10297      6174 7572 
 10297      6500 
 10298               	.LASF280:
 10299 1168 5379 7374 	.string"SystemLogIndex"
 10299      656D 4C6F 
 10299      6749 6E64 
 10299      6578 00
 10300               	.LASF292:
 10301 1177 4163 7475 	.string"ActualSize"
 10301      616C 5369 
 10301      7A65 00
 10302               	.LASF44:
 10303 1182 5F4D 7574 	.string"_Mutex"
 10303      6578 00
 10304               	.LASF213:
 10305 1189 4170 7053 	.string"AppState"
 10305      7461 7465 
 10305      00
 10306               	.LASF350:
 10307 1192 4573 5461 	.string"EsTaskInfo"
 10307      736B 496E 
 10307      666F 00
 10308               	.LASF437:
 10309 119d 4F62 6A65 	.string"ObjectId"
 10309      6374 4964 
 10309      00
 10310               	.LASF257:
 10311 11a6 4461 7461 	.string"DataEnd"
 10311      456E 6400 
 10312               	.LASF424:
 10313 11ae 4D69 6E53 	.string"MinSystemState"
 10313      7973 7465 
68K GAS   			page 256


 10313      6D53 7461 
 10313      7465 00
 10314               	.LASF320:
 10315 11bd 4461 7461 	.string"DataToWrite"
 10315      546F 5772 
 10315      6974 6500 
 10316               	.LASF235:
 10317 11c9 5072 6F63 	.string"ProcessorResetCount"
 10317      6573 736F 
 10317      7252 6573 
 10317      6574 436F 
 10317      756E 7400 
 10318               	.LASF19:
 10319 11dd 6E61 6D65 	.string"name"
 10319      00
 10320               	.LASF8:
 10321 11e2 7569 6E74 	.string"uint8"
 10321      3800 
 10322               	.LASF222:
 10323 11e8 4346 455F 	.string"CFE_ES_AppRecord_t"
 10323      4553 5F41 
 10323      7070 5265 
 10323      636F 7264 
 10323      5F74 00
 10324               	.LASF293:
 10325 11fb 4346 455F 	.string"CFE_ES_CDSBlockDesc_t"
 10325      4553 5F43 
 10325      4453 426C 
 10325      6F63 6B44 
 10325      6573 635F 
 10326               	.LASF182:
 10327 1211 4170 704E 	.string"AppName"
 10327      616D 6500 
 10328               	.LASF267:
 10329 1219 4E65 7874 	.string"Next"
 10329      00
 10330               	.LASF244:
 10331 121e 4461 7461 	.string"Data"
 10331      00
 10332               	.LASF134:
 10333 1223 5F6D 626C 	.string"_mblen_state"
 10333      656E 5F73 
 10333      7461 7465 
 10333      00
 10334               	.LASF423:
 10335 1230 5469 6D65 	.string"TimeOutMilliseconds"
 10335      4F75 744D 
 10335      696C 6C69 
 10335      7365 636F 
 10335      6E64 7300 
 10336               	.LASF4:
 10337 1244 7368 6F72 	.string"short int"
 10337      7420 696E 
 10337      7400 
 10338               	.LASF200:
 10339 124e 4576 656E 	.string"EventType"
 10339      7454 7970 
68K GAS   			page 257


 10339      6500 
 10340               	.LASF317:
 10341 1258 5265 6769 	.string"Registry"
 10341      7374 7279 
 10341      00
 10342               	.LASF22:
 10343 1261 7072 696F 	.string"priority"
 10343      7269 7479 
 10343      00
 10344               	.LASF154:
 10345 126a 7375 626F 	.string"suboptarg"
 10345      7074 6172 
 10345      6700 
 10346               	.LASF74:
 10347 1274 5F66 6E74 	.string"_fntypes"
 10347      7970 6573 
 10347      00
 10348               	.LASF363:
 10349 127d 4346 455F 	.string"CFE_ES_GetGenCount"
 10349      4553 5F47 
 10349      6574 4765 
 10349      6E43 6F75 
 10349      6E74 00
 10350               	.LASF67:
 10351 1290 5F5F 746D 	.string"__tm_year"
 10351      5F79 6561 
 10351      7200 
 10352               	.LASF307:
 10353 129a 4346 455F 	.string"CFE_ES_CDSMemPool"
 10353      4553 5F43 
 10353      4453 4D65 
 10353      6D50 6F6F 
 10353      6C00 
 10354               	.LASF199:
 10355 12ac 4576 656E 	.string"EventID"
 10355      7449 4400 
 10356               	.LASF436:
 10357 12b4 5265 7365 	.string"ResetSubtypePtr"
 10357      7453 7562 
 10357      7479 7065 
 10357      5074 7200 
 10358               	.LASF427:
 10359 12c4 5461 736B 	.string"TaskID"
 10359      4944 00
 10360               	.LASF302:
 10361 12cb 5265 7175 	.string"RequestCntr"
 10361      6573 7443 
 10361      6E74 7200 
 10362               	.LASF360:
 10363 12d7 4346 455F 	.string"CFE_ES_GetAppIDInternal"
 10363      4553 5F47 
 10363      6574 4170 
 10363      7049 4449 
 10363      6E74 6572 
 10364               	.LASF85:
 10365 12ef 5F6C 6266 	.string"_lbfsize"
 10365      7369 7A65 
68K GAS   			page 258


 10365      00
 10366               	.LASF391:
 10367 12f8 4372 6354 	.string"CrcTable"
 10367      6162 6C65 
 10367      00
 10368               	.LASF425:
 10369 1301 4346 455F 	.string"CFE_ES_RunLoop"
 10369      4553 5F52 
 10369      756E 4C6F 
 10369      6F70 00
 10370               	.LASF104:
 10371 1310 5F69 6E63 	.string"_inc"
 10371      00
 10372               	.LASF77:
 10373 1315 5F69 6E64 	.string"_ind"
 10373      00
 10374               	.LASF180:
 10375 131a 5461 736B 	.string"TaskId"
 10375      4964 00
 10376               	.LASF25:
 10377 1321 5F5F 696E 	.string"__int64_t"
 10377      7436 345F 
 10377      7400 
 10378               	.LASF356:
 10379 132b 4C69 6E65 	.string"LineNumber"
 10379      4E75 6D62 
 10379      6572 00
 10380               	.LASF256:
 10381 1336 4461 7461 	.string"DataStart"
 10381      5374 6172 
 10381      7400 
 10382               	.LASF3:
 10383 1340 696E 7431 	.string"int16"
 10383      3600 
 10384               	.LASF79:
 10385 1346 5F5F 7362 	.string"__sbuf"
 10385      7566 00
 10386               	.LASF75:
 10387 134d 5F69 735F 	.string"_is_cxa"
 10387      6378 6100 
 10388               	.LASF188:
 10389 1355 4346 455F 	.string"CFE_TIME_SysTime_t"
 10389      5449 4D45 
 10389      5F53 7973 
 10389      5469 6D65 
 10389      5F74 00
 10390               	.LASF146:
 10391 1368 5F6E 6578 	.string"_nextf"
 10391      7466 00
 10392               	.LASF412:
 10393 136f 5374 6163 	.string"StackPtr"
 10393      6B50 7472 
 10393      00
 10394               	.LASF238:
 10395 1378 5469 6D65 	.string"TimeCode"
 10395      436F 6465 
 10395      00
68K GAS   			page 259


 10396               	.LASF243:
 10397 1381 4346 455F 	.string"CFE_ES_ERLog_t"
 10397      4553 5F45 
 10397      524C 6F67 
 10397      5F74 00
 10398               	.LASF224:
 10399 1390 4C69 624E 	.string"LibName"
 10399      616D 6500 
 10400               	.LASF208:
 10401 1398 4346 455F 	.string"CFE_EVS_Packet_Payload_t"
 10401      4556 535F 
 10401      5061 636B 
 10401      6574 5F50 
 10401      6179 6C6F 
 10402               	.LASF366:
 10403 13b1 4346 455F 	.string"CFE_ES_SetGenCount"
 10403      4553 5F53 
 10403      6574 4765 
 10403      6E43 6F75 
 10403      6E74 00
 10404               	.LASF414:
 10405 13c4 4346 455F 	.string"CFE_ES_GetTaskInfo"
 10405      4553 5F47 
 10405      6574 5461 
 10405      736B 496E 
 10405      666F 00
 10406               	.LASF107:
 10407 13d7 5F6C 6F63 	.string"_locale"
 10407      616C 6500 
 10408               	.LASF55:
 10409 13df 5F5F 554C 	.string"__ULong"
 10409      6F6E 6700 
 10410               	.LASF311:
 10411 13e7 5461 626C 	.string"Table"
 10411      6500 
 10412               	.LASF239:
 10413 13ed 4465 7363 	.string"Description"
 10413      7269 7074 
 10413      696F 6E00 
 10414               	.LASF303:
 10415 13f9 4D75 7465 	.string"MutexId"
 10415      7849 6400 
 10416               	.LASF110:
 10417 1401 5F72 6573 	.string"_result"
 10417      756C 7400 
 10418               	.LASF20:
 10419 1409 6372 6561 	.string"creator"
 10419      746F 7200 
 10420               	.LASF31:
 10421 1411 5F6E 6F77 	.string"_now_serving"
 10421      5F73 6572 
 10421      7669 6E67 
 10421      00
 10422               	.LASF28:
 10423 141e 5F6F 6666 	.string"_off_t"
 10423      5F74 00
 10424               	.LASF126:
68K GAS   			page 260


 10425 1425 5F61 6464 	.string"_add"
 10425      00
 10426               	.LASF439:
 10427 142a 474E 5520 	.string"GNU C11 7.3.0 20180125 (RTEMS 5, RSB d2b25d131d55adcb38219f2cd8cbec2436ee78ab, Newlib 3.0.0) -malign-int -mcpu=528x -g -O0 -fomit-frame-pointer"
 10427      4331 3120 
 10427      372E 332E 
 10427      3020 3230 
 10427      3138 3031 
 10428               	.LASF10:
 10429 14ba 7368 6F72 	.string"short unsigned int"
 10429      7420 756E 
 10429      7369 676E 
 10429      6564 2069 
 10429      6E74 00
 10430               	.LASF438:
 10431 14cd 4172 7261 	.string"ArrayIndex"
 10431      7949 6E64 
 10431      6578 00
 10432               	.LASF64:
 10433 14d8 5F5F 746D 	.string"__tm_hour"
 10433      5F68 6F75 
 10433      7200 
 10434               	.LASF367:
 10435 14e2 4346 455F 	.string"CFE_ES_IncrementGenCounter"
 10435      4553 5F49 
 10435      6E63 7265 
 10435      6D65 6E74 
 10435      4765 6E43 
 10436               	.LASF231:
 10437 14fd 4C6F 6745 	.string"LogEntryType"
 10437      6E74 7279 
 10437      5479 7065 
 10437      00
 10438               	.LASF168:
 10439 150a 4461 7461 	.string"DataAddress"
 10439      4164 6472 
 10439      6573 7300 
 10440               	.LASF364:
 10441 1516 436F 756E 	.string"CounterId"
 10441      7465 7249 
 10441      6400 
 10442               	.LASF201:
 10443 1520 5370 6163 	.string"SpacecraftID"
 10443      6563 7261 
 10443      6674 4944 
 10443      00
 10444               	.LASF5:
 10445 152d 696E 7433 	.string"int32"
 10445      3200 
 10446               	.LASF142:
 10447 1533 5F6D 6273 	.string"_mbsrtowcs_state"
 10447      7274 6F77 
 10447      6373 5F73 
 10447      7461 7465 
 10447      00
 10448               	.LASF35:
 10449 1544 5F4C 6F63 	.string"_Lock"
68K GAS   			page 261


 10449      6B00 
 10450               	.LASF396:
 10451 154a 4D73 6757 	.string"MsgWithoutTime"
 10451      6974 686F 
 10451      7574 5469 
 10451      6D65 00
 10452               	.LASF203:
 10453 1559 4346 455F 	.string"CFE_EVS_PacketID_t"
 10453      4556 535F 
 10453      5061 636B 
 10453      6574 4944 
 10453      5F74 00
 10454               	.LASF183:
 10455 156c 4346 455F 	.string"CFE_ES_TaskInfo_t"
 10455      4553 5F54 
 10455      6173 6B49 
 10455      6E66 6F5F 
 10455      7400 
 10456               	.LASF72:
 10457 157e 5F66 6E61 	.string"_fnargs"
 10457      7267 7300 
 10458               	.LASF70:
 10459 1586 5F5F 746D 	.string"__tm_isdst"
 10459      5F69 7364 
 10459      7374 00
 10460               	.LASF273:
 10461 1591 4346 455F 	.string"CFE_EVS_Log_t"
 10461      4556 535F 
 10461      4C6F 675F 
 10461      7400 
 10462               	.LASF242:
 10463 159f 436F 6E74 	.string"Context"
 10463      6578 7400 
 10464               	.LASF227:
 10465 15a7 5761 7463 	.string"WatchdogWriteFlag"
 10465      6864 6F67 
 10465      5772 6974 
 10465      6546 6C61 
 10465      6700 
 10466               	.LASF156:
 10467 15b9 5F64 6179 	.string"_daylight"
 10467      6C69 6768 
 10467      7400 
 10468               	.LASF321:
 10469 15c3 4368 696C 	.string"ChildID"
 10469      6449 4400 
 10470               	.LASF63:
 10471 15cb 5F5F 746D 	.string"__tm_min"
 10471      5F6D 696E 
 10471      00
 10472               	.LASF284:
 10473 15d4 5265 7365 	.string"ResetVars"
 10473      7456 6172 
 10473      7300 
 10474               	.LASF9:
 10475 15de 7569 6E74 	.string"uint16"
 10475      3136 00
68K GAS   			page 262


 10476               	.LASF221:
 10477 15e5 5461 736B 	.string"TaskInfo"
 10477      496E 666F 
 10477      00
 10478               	.LASF139:
 10479 15ee 5F67 6574 	.string"_getdate_err"
 10479      6461 7465 
 10479      5F65 7272 
 10479      00
 10480               	.LASF401:
 10481 15fb 5061 7265 	.string"ParentTaskId"
 10481      6E74 5461 
 10481      736B 4964 
 10481      00
 10482               	.LASF197:
 10483 1608 4346 455F 	.string"CFE_SB_Qos_t"
 10483      5342 5F51 
 10483      6F73 5F74 
 10483      00
 10484               	.LASF429:
 10485 1615 4578 6974 	.string"ExitStatus"
 10485      5374 6174 
 10485      7573 00
 10486               	.LASF341:
 10487 1620 4344 5356 	.string"CDSVars"
 10487      6172 7300 
 10488               	.ident"GCC: (GNU) 7.3.0 20180125 (RTEMS 5, RSB d2b25d131d55adcb38219f2cd8cbec2436ee78ab, Newlib 3.0.0)"
68K GAS   			page 263


DEFINED SYMBOLS
                            *ABS*:0000000000000000 cfe_es_api.c
    {standard input}:8      .text:0000000000000000 OS_ConvertToArrayIndex
    {standard input}:26     .text:000000000000000c CFE_ES_GetResetType
    {standard input}:69     .text:000000000000003a CFE_ES_ResetCFE
    {standard input}:2426   .text:0000000000001420 CFE_ES_WriteToSysLog
    {standard input}:233    .text:0000000000000182 CFE_ES_RestartApp
    {standard input}:3915   .rodata:0000000000000c01 __func__.5770
    {standard input}:3606   .text:0000000000001dee CFE_ES_LockSharedData
    {standard input}:3664   .text:0000000000001e42 CFE_ES_UnlockSharedData
    {standard input}:375    .text:00000000000002dc CFE_ES_ReloadApp
    {standard input}:3919   .rodata:0000000000000c13 __func__.5776
    {standard input}:525    .text:000000000000045a CFE_ES_DeleteApp
    {standard input}:3923   .rodata:0000000000000c24 __func__.5781
    {standard input}:660    .text:00000000000005a2 CFE_ES_ExitApp
    {standard input}:3927   .rodata:0000000000000c35 __func__.5787
    {standard input}:3537   .text:0000000000001d76 CFE_ES_GetAppIDInternal
    {standard input}:837    .text:000000000000072e CFE_ES_RunLoop
    {standard input}:3931   .rodata:0000000000000c44 __func__.5795
    {standard input}:1024   .text:00000000000008e0 CFE_ES_WaitForStartupSync
    {standard input}:3935   .rodata:0000000000000c53 __func__.5802
    {standard input}:1116   .text:00000000000009a6 CFE_ES_RegisterApp
    {standard input}:3939   .rodata:0000000000000c6d __func__.5807
    {standard input}:1166   .text:00000000000009f0 CFE_ES_GetAppIDByName
    {standard input}:3943   .rodata:0000000000000c80 __func__.5814
    {standard input}:1249   .text:0000000000000a92 CFE_ES_GetAppID
    {standard input}:3947   .rodata:0000000000000c96 __func__.5823
    {standard input}:1320   .text:0000000000000b1e CFE_ES_GetAppName
    {standard input}:3951   .rodata:0000000000000ca6 __func__.5830
    {standard input}:1408   .text:0000000000000bc6 CFE_ES_GetAppInfo
    {standard input}:1500   .text:0000000000000c64 CFE_ES_GetTaskInfo
    {standard input}:3955   .rodata:0000000000000cb8 __func__.5842
    {standard input}:1704   .text:0000000000000e22 CFE_ES_CreateChildTask
    {standard input}:3959   .rodata:0000000000000ccb __func__.5857
    {standard input}:1988   .text:00000000000010d8 CFE_ES_RegisterChildTask
    {standard input}:3963   .rodata:0000000000000ce2 __func__.5863
    {standard input}:2037   .text:0000000000001128 CFE_ES_IncrementTaskCounter
    {standard input}:2094   .text:0000000000001172 CFE_ES_DeleteChildTask
    {standard input}:3967   .rodata:0000000000000cfb __func__.5876
    {standard input}:2299   .text:0000000000001326 CFE_ES_ExitChildTask
    {standard input}:3971   .rodata:0000000000000d12 __func__.5887
    {standard input}:2755   .text:0000000000001796 CFE_ES_CalculateCRC
    {standard input}:3976   .rodata:0000000000000d28 CrcTable.5913
    {standard input}:2881   .text:000000000000187a CFE_ES_RegisterCDS
    {standard input}:3107   .text:0000000000001a5e CFE_ES_CopyToCDS
    {standard input}:3140   .text:0000000000001a8c CFE_ES_RestoreFromCDS
    {standard input}:3173   .text:0000000000001aba CFE_ES_RegisterGenCounter
    {standard input}:3463   .text:0000000000001cf6 CFE_ES_GetGenCounterIDByName
    {standard input}:3274   .text:0000000000001b96 CFE_ES_DeleteGenCounter
    {standard input}:3313   .text:0000000000001bd8 CFE_ES_IncrementGenCounter
    {standard input}:3369   .text:0000000000001c4a CFE_ES_SetGenCount
    {standard input}:3414   .text:0000000000001c9c CFE_ES_GetGenCount
    {standard input}:3718   .text:0000000000001e96 CFE_ES_ProcessCoreException

UNDEFINED SYMBOLS
CFE_ES_ResetDataPtr
CFE_ES_WriteToERLog
68K GAS   			page 264


CFE_PSP_Restart
CFE_ES_Global
strncpy
OS_TaskExit
OS_TaskDelay
CFE_ES_ApplicationSyncDelay
OS_TaskRegister
CFE_PSP_SetDefaultExceptionEnvironment
strncmp
OS_TaskGetId
CFE_ES_GetAppInfoInternal
OS_TaskCreate
OS_TaskDelete
CFE_TIME_GetTime
CFE_TIME_Print
vsnprintf
strlen
strncat
OS_printf
CFE_PSP_MemRead8
CFE_ES_CDS_ValidateAppID
CFE_ES_FormCDSName
CFE_ES_RegisterCDSEx
CFE_EVS_SendEventWithAppID
CFE_ES_CDSBlockWrite
CFE_ES_CDSBlockRead
OS_MutSemTake
OS_MutSemGive
OS_TaskGetInfo
