68K GAS   			page 1


   1               	
   2               	.file"cfe_es_start.c"
   3               	.text
   4               	.Ltext0:
   5               	.cfi_sections.debug_frame
   6               	.align2
   7               	.typeOS_ConvertToArrayIndex, @function
   8               	OS_ConvertToArrayIndex:
   9               	.LFB58:
  10               	.file 1 "/home/simulink/cFS_FreeRTOS_seL4/cfe/fsw/cfe-core/src/inc/cfe_es.h"
   1:/home/simulink/cFS_FreeRTOS_seL4/cfe/fsw/cfe-core/src/inc/cfe_es.h **** /*
   2:/home/simulink/cFS_FreeRTOS_seL4/cfe/fsw/cfe-core/src/inc/cfe_es.h **** **
   3:/home/simulink/cFS_FreeRTOS_seL4/cfe/fsw/cfe-core/src/inc/cfe_es.h **** **  File: 
   4:/home/simulink/cFS_FreeRTOS_seL4/cfe/fsw/cfe-core/src/inc/cfe_es.h **** **  cfe_es.h
   5:/home/simulink/cFS_FreeRTOS_seL4/cfe/fsw/cfe-core/src/inc/cfe_es.h **** **  $Id: cfe_es.h 1.14 2014/08/19 13:32:01GMT-05:00 sstrege Exp  $
   6:/home/simulink/cFS_FreeRTOS_seL4/cfe/fsw/cfe-core/src/inc/cfe_es.h **** **
   7:/home/simulink/cFS_FreeRTOS_seL4/cfe/fsw/cfe-core/src/inc/cfe_es.h **** **
   8:/home/simulink/cFS_FreeRTOS_seL4/cfe/fsw/cfe-core/src/inc/cfe_es.h **** **      Copyright (c) 2004-2006, United States government as represented by the 
   9:/home/simulink/cFS_FreeRTOS_seL4/cfe/fsw/cfe-core/src/inc/cfe_es.h **** **      administrator of the National Aeronautics Space Administration.  
  10:/home/simulink/cFS_FreeRTOS_seL4/cfe/fsw/cfe-core/src/inc/cfe_es.h **** **      All rights reserved. This software(cFE) was created at NASA's Goddard 
  11:/home/simulink/cFS_FreeRTOS_seL4/cfe/fsw/cfe-core/src/inc/cfe_es.h **** **      Space Flight Center pursuant to government contracts.
  12:/home/simulink/cFS_FreeRTOS_seL4/cfe/fsw/cfe-core/src/inc/cfe_es.h **** **
  13:/home/simulink/cFS_FreeRTOS_seL4/cfe/fsw/cfe-core/src/inc/cfe_es.h **** **      This is governed by the NASA Open Source Agreement and may be used,
  14:/home/simulink/cFS_FreeRTOS_seL4/cfe/fsw/cfe-core/src/inc/cfe_es.h **** **      distributed and modified only pursuant to the terms of that agreement. 
  15:/home/simulink/cFS_FreeRTOS_seL4/cfe/fsw/cfe-core/src/inc/cfe_es.h **** **
  16:/home/simulink/cFS_FreeRTOS_seL4/cfe/fsw/cfe-core/src/inc/cfe_es.h **** **
  17:/home/simulink/cFS_FreeRTOS_seL4/cfe/fsw/cfe-core/src/inc/cfe_es.h **** **  Purpose:
  18:/home/simulink/cFS_FreeRTOS_seL4/cfe/fsw/cfe-core/src/inc/cfe_es.h **** **	Unit specification for Executive Services library functions and macros.
  19:/home/simulink/cFS_FreeRTOS_seL4/cfe/fsw/cfe-core/src/inc/cfe_es.h **** **
  20:/home/simulink/cFS_FreeRTOS_seL4/cfe/fsw/cfe-core/src/inc/cfe_es.h **** **  References:
  21:/home/simulink/cFS_FreeRTOS_seL4/cfe/fsw/cfe-core/src/inc/cfe_es.h **** **     Flight Software Branch C Coding Standard Version 1.0a
  22:/home/simulink/cFS_FreeRTOS_seL4/cfe/fsw/cfe-core/src/inc/cfe_es.h **** **     cFE Flight Software Application Developers Guide
  23:/home/simulink/cFS_FreeRTOS_seL4/cfe/fsw/cfe-core/src/inc/cfe_es.h **** **
  24:/home/simulink/cFS_FreeRTOS_seL4/cfe/fsw/cfe-core/src/inc/cfe_es.h **** **	Notes:
  25:/home/simulink/cFS_FreeRTOS_seL4/cfe/fsw/cfe-core/src/inc/cfe_es.h **** **
  26:/home/simulink/cFS_FreeRTOS_seL4/cfe/fsw/cfe-core/src/inc/cfe_es.h **** **  $Date: 2014/08/19 13:32:01GMT-05:00 $
  27:/home/simulink/cFS_FreeRTOS_seL4/cfe/fsw/cfe-core/src/inc/cfe_es.h **** **  $Revision: 1.14 $
  28:/home/simulink/cFS_FreeRTOS_seL4/cfe/fsw/cfe-core/src/inc/cfe_es.h **** **  $Log: cfe_es.h  $
  29:/home/simulink/cFS_FreeRTOS_seL4/cfe/fsw/cfe-core/src/inc/cfe_es.h **** **  Revision 1.14 2014/08/19 13:32:01GMT-05:00 sstrege 
  30:/home/simulink/cFS_FreeRTOS_seL4/cfe/fsw/cfe-core/src/inc/cfe_es.h **** **  Fixed doxygen warnings
  31:/home/simulink/cFS_FreeRTOS_seL4/cfe/fsw/cfe-core/src/inc/cfe_es.h **** **  Revision 1.13 2011/07/15 14:28:34EDT lwalling 
  32:/home/simulink/cFS_FreeRTOS_seL4/cfe/fsw/cfe-core/src/inc/cfe_es.h **** **  Removed const qualifier from CounterName argument to CFE_ES_RegisterGenCounter()
  33:/home/simulink/cFS_FreeRTOS_seL4/cfe/fsw/cfe-core/src/inc/cfe_es.h **** **  Revision 1.12 2010/11/05 15:54:27EDT aschoeni 
  34:/home/simulink/cFS_FreeRTOS_seL4/cfe/fsw/cfe-core/src/inc/cfe_es.h **** **  Added Generic Counter API to ES
  35:/home/simulink/cFS_FreeRTOS_seL4/cfe/fsw/cfe-core/src/inc/cfe_es.h **** **  Revision 1.11 2010/11/01 16:03:10EDT jmdagost 
  36:/home/simulink/cFS_FreeRTOS_seL4/cfe/fsw/cfe-core/src/inc/cfe_es.h **** **  Removed cfe.h from include list and added cfe_mission_cfg.h
  37:/home/simulink/cFS_FreeRTOS_seL4/cfe/fsw/cfe-core/src/inc/cfe_es.h **** **  Revision 1.10 2010/10/20 12:35:43EDT jmdagost 
  38:/home/simulink/cFS_FreeRTOS_seL4/cfe/fsw/cfe-core/src/inc/cfe_es.h **** **  Major revision to make semaphore use in memory pool creation optional.
  39:/home/simulink/cFS_FreeRTOS_seL4/cfe/fsw/cfe-core/src/inc/cfe_es.h **** **  Revision 1.9 2009/07/29 15:54:46EDT aschoeni 
  40:/home/simulink/cFS_FreeRTOS_seL4/cfe/fsw/cfe-core/src/inc/cfe_es.h **** **  Added GetPoolBufInfo function to return size or invalidity of a buffer in a pool
  41:/home/simulink/cFS_FreeRTOS_seL4/cfe/fsw/cfe-core/src/inc/cfe_es.h **** **  Revision 1.8 2008/12/08 16:10:54EST dkobe 
  42:/home/simulink/cFS_FreeRTOS_seL4/cfe/fsw/cfe-core/src/inc/cfe_es.h **** **  Correcting errors generated during detailed design document generation
  43:/home/simulink/cFS_FreeRTOS_seL4/cfe/fsw/cfe-core/src/inc/cfe_es.h **** **  Revision 1.7 2008/12/08 12:07:09EST dkobe 
  44:/home/simulink/cFS_FreeRTOS_seL4/cfe/fsw/cfe-core/src/inc/cfe_es.h **** **  Updates to correct doxygen errors
  45:/home/simulink/cFS_FreeRTOS_seL4/cfe/fsw/cfe-core/src/inc/cfe_es.h **** **  Revision 1.6 2008/07/31 15:41:31EDT apcudmore 
  46:/home/simulink/cFS_FreeRTOS_seL4/cfe/fsw/cfe-core/src/inc/cfe_es.h **** **  Added execution counter API:
  47:/home/simulink/cFS_FreeRTOS_seL4/cfe/fsw/cfe-core/src/inc/cfe_es.h **** **    -- Added execution counter to ES internal task data
68K GAS   			page 2


  48:/home/simulink/cFS_FreeRTOS_seL4/cfe/fsw/cfe-core/src/inc/cfe_es.h **** **    -- Added code to increment counter in RunLoop
  49:/home/simulink/cFS_FreeRTOS_seL4/cfe/fsw/cfe-core/src/inc/cfe_es.h **** **    -- Added code to report counter in GetInfo APIs
  50:/home/simulink/cFS_FreeRTOS_seL4/cfe/fsw/cfe-core/src/inc/cfe_es.h **** **    -- Added API to increment counter for child tasks
  51:/home/simulink/cFS_FreeRTOS_seL4/cfe/fsw/cfe-core/src/inc/cfe_es.h **** **    -- Added code to cFE Core apps to increment counters.
  52:/home/simulink/cFS_FreeRTOS_seL4/cfe/fsw/cfe-core/src/inc/cfe_es.h **** **  Revision 1.5 2008/07/30 14:53:57EDT apcudmore 
  53:/home/simulink/cFS_FreeRTOS_seL4/cfe/fsw/cfe-core/src/inc/cfe_es.h **** **  Added CFE_ES_WaitForStartupSync API
  54:/home/simulink/cFS_FreeRTOS_seL4/cfe/fsw/cfe-core/src/inc/cfe_es.h **** **  Revision 1.4 2008/07/08 12:35:28EDT apcudmore 
  55:/home/simulink/cFS_FreeRTOS_seL4/cfe/fsw/cfe-core/src/inc/cfe_es.h **** **  Added an "AddressesAreValid" flag to the ES App Info structure.
  56:/home/simulink/cFS_FreeRTOS_seL4/cfe/fsw/cfe-core/src/inc/cfe_es.h **** **  Revision 1.3 2008/06/26 15:41:51EDT apcudmore 
  57:/home/simulink/cFS_FreeRTOS_seL4/cfe/fsw/cfe-core/src/inc/cfe_es.h **** **  Added public CFE_ES_GetAppInfo API.
  58:/home/simulink/cFS_FreeRTOS_seL4/cfe/fsw/cfe-core/src/inc/cfe_es.h **** **  Moved the old API to CFE_ES_GetAppInfoInternal
  59:/home/simulink/cFS_FreeRTOS_seL4/cfe/fsw/cfe-core/src/inc/cfe_es.h **** **  -- May merge these two in the near future.
  60:/home/simulink/cFS_FreeRTOS_seL4/cfe/fsw/cfe-core/src/inc/cfe_es.h **** **  Revision 1.2 2008/06/20 15:40:27EDT apcudmore 
  61:/home/simulink/cFS_FreeRTOS_seL4/cfe/fsw/cfe-core/src/inc/cfe_es.h **** **  Added support for OSAL based module loader
  62:/home/simulink/cFS_FreeRTOS_seL4/cfe/fsw/cfe-core/src/inc/cfe_es.h **** **   - Removed calls and references to the BSP based module loader
  63:/home/simulink/cFS_FreeRTOS_seL4/cfe/fsw/cfe-core/src/inc/cfe_es.h **** **  Revision 1.1 2008/04/17 08:05:19EDT ruperera 
  64:/home/simulink/cFS_FreeRTOS_seL4/cfe/fsw/cfe-core/src/inc/cfe_es.h **** **  Initial revision
  65:/home/simulink/cFS_FreeRTOS_seL4/cfe/fsw/cfe-core/src/inc/cfe_es.h **** **  Member added to project c:/MKSDATA/MKS-REPOSITORY/MKS-CFE-PROJECT/fsw/cfe-core/src/inc/project.
  66:/home/simulink/cFS_FreeRTOS_seL4/cfe/fsw/cfe-core/src/inc/cfe_es.h **** **  Revision 1.58 2007/09/27 15:54:56EDT David Kobe (dlkobe) 
  67:/home/simulink/cFS_FreeRTOS_seL4/cfe/fsw/cfe-core/src/inc/cfe_es.h **** **  Added doxygen comments for commands and telemetry
  68:/home/simulink/cFS_FreeRTOS_seL4/cfe/fsw/cfe-core/src/inc/cfe_es.h **** **  Revision 1.57 2007/09/25 10:24:05EDT apcudmore 
  69:/home/simulink/cFS_FreeRTOS_seL4/cfe/fsw/cfe-core/src/inc/cfe_es.h **** **  Implement Application Restart on Exception:
  70:/home/simulink/cFS_FreeRTOS_seL4/cfe/fsw/cfe-core/src/inc/cfe_es.h **** **  - Added logic to Exception Handler
  71:/home/simulink/cFS_FreeRTOS_seL4/cfe/fsw/cfe-core/src/inc/cfe_es.h **** **  - Changed Exception Hook to pass host task ID
  72:/home/simulink/cFS_FreeRTOS_seL4/cfe/fsw/cfe-core/src/inc/cfe_es.h **** **  - Added App Reset ER Log entry type
  73:/home/simulink/cFS_FreeRTOS_seL4/cfe/fsw/cfe-core/src/inc/cfe_es.h **** **  Revision 1.56 2007/09/21 15:40:15EDT David Kobe (dlkobe) 
  74:/home/simulink/cFS_FreeRTOS_seL4/cfe/fsw/cfe-core/src/inc/cfe_es.h **** **  Modified pointer type definitions to eliminate Linux gcc compile warnings
  75:/home/simulink/cFS_FreeRTOS_seL4/cfe/fsw/cfe-core/src/inc/cfe_es.h **** **  Revision 1.55 2007/09/20 10:52:57EDT apcudmore 
  76:/home/simulink/cFS_FreeRTOS_seL4/cfe/fsw/cfe-core/src/inc/cfe_es.h **** **  Added Query All Tasks command, file definition, events, error codes etc.
  77:/home/simulink/cFS_FreeRTOS_seL4/cfe/fsw/cfe-core/src/inc/cfe_es.h **** **  Revision 1.54 2007/09/12 16:06:09EDT David Kobe (dlkobe) 
  78:/home/simulink/cFS_FreeRTOS_seL4/cfe/fsw/cfe-core/src/inc/cfe_es.h **** **  Moved the definitions of CFE_ES_CRC_xx to the cfe_mission_cfg.h file and deleted TBL Services
  79:/home/simulink/cFS_FreeRTOS_seL4/cfe/fsw/cfe-core/src/inc/cfe_es.h **** **  CRC #define statement.
  80:/home/simulink/cFS_FreeRTOS_seL4/cfe/fsw/cfe-core/src/inc/cfe_es.h **** **  Revision 1.53 2007/08/31 14:11:05EDT apcudmore 
  81:/home/simulink/cFS_FreeRTOS_seL4/cfe/fsw/cfe-core/src/inc/cfe_es.h **** **  Updated reset subtypes ( trunk )
  82:/home/simulink/cFS_FreeRTOS_seL4/cfe/fsw/cfe-core/src/inc/cfe_es.h **** **  Revision 1.52 2007/08/07 12:52:40EDT dlkobe 
  83:/home/simulink/cFS_FreeRTOS_seL4/cfe/fsw/cfe-core/src/inc/cfe_es.h **** **  Modified CFE_ES_GetPoolBuf API's first parameter to be of type uint32**
  84:/home/simulink/cFS_FreeRTOS_seL4/cfe/fsw/cfe-core/src/inc/cfe_es.h **** **  Revision 1.51 2007/05/25 16:24:48EDT dlkobe 
  85:/home/simulink/cFS_FreeRTOS_seL4/cfe/fsw/cfe-core/src/inc/cfe_es.h **** **  Continued updating doxygen comments
  86:/home/simulink/cFS_FreeRTOS_seL4/cfe/fsw/cfe-core/src/inc/cfe_es.h **** **  Revision 1.50 2007/05/23 11:21:23EDT dlkobe 
  87:/home/simulink/cFS_FreeRTOS_seL4/cfe/fsw/cfe-core/src/inc/cfe_es.h **** **  Added doxygen formatting
  88:/home/simulink/cFS_FreeRTOS_seL4/cfe/fsw/cfe-core/src/inc/cfe_es.h **** **  Revision 1.49 2007/05/22 14:56:49EDT apcudmore 
  89:/home/simulink/cFS_FreeRTOS_seL4/cfe/fsw/cfe-core/src/inc/cfe_es.h **** **  cFE Non-Volatile Disk/Startup File changes:
  90:/home/simulink/cFS_FreeRTOS_seL4/cfe/fsw/cfe-core/src/inc/cfe_es.h **** **    - cFE startup now passes in startup file path/name
  91:/home/simulink/cFS_FreeRTOS_seL4/cfe/fsw/cfe-core/src/inc/cfe_es.h **** **    - cFE startup code does not init non-volatile disk ( BSP does )
  92:/home/simulink/cFS_FreeRTOS_seL4/cfe/fsw/cfe-core/src/inc/cfe_es.h **** **    - BSPs now can map cFE paths without making the OS_initfs/OS_mount calls
  93:/home/simulink/cFS_FreeRTOS_seL4/cfe/fsw/cfe-core/src/inc/cfe_es.h **** **    - MCP750 vxWorks6.2 BSP inits/mounts CF disk
  94:/home/simulink/cFS_FreeRTOS_seL4/cfe/fsw/cfe-core/src/inc/cfe_es.h **** **    - Desktop ports pass in the same startup file path/name as before
  95:/home/simulink/cFS_FreeRTOS_seL4/cfe/fsw/cfe-core/src/inc/cfe_es.h **** **  Revision 1.48 2007/05/14 15:43:45EDT apcudmore 
  96:/home/simulink/cFS_FreeRTOS_seL4/cfe/fsw/cfe-core/src/inc/cfe_es.h **** **  Cleaned up events and disabled debug code for application restart.
  97:/home/simulink/cFS_FreeRTOS_seL4/cfe/fsw/cfe-core/src/inc/cfe_es.h **** **  Revision 1.47 2007/05/09 12:42:13EDT dlkobe 
  98:/home/simulink/cFS_FreeRTOS_seL4/cfe/fsw/cfe-core/src/inc/cfe_es.h **** **  Added structure for Dump CDS Registry Record format
  99:/home/simulink/cFS_FreeRTOS_seL4/cfe/fsw/cfe-core/src/inc/cfe_es.h **** **  Revision 1.46 2007/05/04 20:07:51EDT dlkobe 
 100:/home/simulink/cFS_FreeRTOS_seL4/cfe/fsw/cfe-core/src/inc/cfe_es.h **** **  Added command to telemeter memory pool statistics
 101:/home/simulink/cFS_FreeRTOS_seL4/cfe/fsw/cfe-core/src/inc/cfe_es.h **** **  Revision 1.45 2007/04/12 10:37:18EDT apcudmore 
 102:/home/simulink/cFS_FreeRTOS_seL4/cfe/fsw/cfe-core/src/inc/cfe_es.h **** **  Added support for ES task to call CFE_ES_ExitApp on initialization and runtime failure.
 103:/home/simulink/cFS_FreeRTOS_seL4/cfe/fsw/cfe-core/src/inc/cfe_es.h **** **  Revision 1.44 2007/04/10 11:39:19EDT rjmcgraw 
 104:/home/simulink/cFS_FreeRTOS_seL4/cfe/fsw/cfe-core/src/inc/cfe_es.h **** **  Added function prototype CFE_ES_PerfLogAdd
68K GAS   			page 3


 105:/home/simulink/cFS_FreeRTOS_seL4/cfe/fsw/cfe-core/src/inc/cfe_es.h **** **  Revision 1.43 2007/04/10 11:29:10EDT rjmcgraw 
 106:/home/simulink/cFS_FreeRTOS_seL4/cfe/fsw/cfe-core/src/inc/cfe_es.h **** **  Changed perf entry and exit routines to macros
 107:/home/simulink/cFS_FreeRTOS_seL4/cfe/fsw/cfe-core/src/inc/cfe_es.h **** **  Revision 1.42 2007/04/09 15:12:03EDT dlkobe 
 108:/home/simulink/cFS_FreeRTOS_seL4/cfe/fsw/cfe-core/src/inc/cfe_es.h **** **  Modified 'Name' parameter to be a const pointer
 109:/home/simulink/cFS_FreeRTOS_seL4/cfe/fsw/cfe-core/src/inc/cfe_es.h **** **  Revision 1.41 2007/04/05 16:16:03EDT apcudmore 
 110:/home/simulink/cFS_FreeRTOS_seL4/cfe/fsw/cfe-core/src/inc/cfe_es.h **** **  Added CFE_ES_DeleteChildTask and CFE_ES_ExitChildTask along with headers,
 111:/home/simulink/cFS_FreeRTOS_seL4/cfe/fsw/cfe-core/src/inc/cfe_es.h **** **  and associated Error codes.
 112:/home/simulink/cFS_FreeRTOS_seL4/cfe/fsw/cfe-core/src/inc/cfe_es.h **** **  Revision 1.39 2007/04/03 16:49:24EDT apcudmore 
 113:/home/simulink/cFS_FreeRTOS_seL4/cfe/fsw/cfe-core/src/inc/cfe_es.h **** **  Moved all command code defines, command , and telemetry definitions to cfe_es_msg.h
 114:/home/simulink/cFS_FreeRTOS_seL4/cfe/fsw/cfe-core/src/inc/cfe_es.h **** **  Revision 1.38 2007/04/02 10:57:45EDT rjmcgraw 
 115:/home/simulink/cFS_FreeRTOS_seL4/cfe/fsw/cfe-core/src/inc/cfe_es.h **** **  Moved BIT macros from perf.h to cfe_es.h
 116:/home/simulink/cFS_FreeRTOS_seL4/cfe/fsw/cfe-core/src/inc/cfe_es.h **** **  Revision 1.37 2007/03/29 15:49:08EST rjmcgraw 
 117:/home/simulink/cFS_FreeRTOS_seL4/cfe/fsw/cfe-core/src/inc/cfe_es.h **** **  Changed name of performance cmd codes
 118:/home/simulink/cFS_FreeRTOS_seL4/cfe/fsw/cfe-core/src/inc/cfe_es.h **** **  Revision 1.36 2007/03/29 15:22:34EST rjmcgraw 
 119:/home/simulink/cFS_FreeRTOS_seL4/cfe/fsw/cfe-core/src/inc/cfe_es.h **** **  Changed #define names for Logic Analyzer Cmd Codes
 120:/home/simulink/cFS_FreeRTOS_seL4/cfe/fsw/cfe-core/src/inc/cfe_es.h **** **
 121:/home/simulink/cFS_FreeRTOS_seL4/cfe/fsw/cfe-core/src/inc/cfe_es.h **** */
 122:/home/simulink/cFS_FreeRTOS_seL4/cfe/fsw/cfe-core/src/inc/cfe_es.h **** 
 123:/home/simulink/cFS_FreeRTOS_seL4/cfe/fsw/cfe-core/src/inc/cfe_es.h **** #ifndef _cfe_es_
 124:/home/simulink/cFS_FreeRTOS_seL4/cfe/fsw/cfe-core/src/inc/cfe_es.h **** #define _cfe_es_
 125:/home/simulink/cFS_FreeRTOS_seL4/cfe/fsw/cfe-core/src/inc/cfe_es.h **** 
 126:/home/simulink/cFS_FreeRTOS_seL4/cfe/fsw/cfe-core/src/inc/cfe_es.h **** /*
 127:/home/simulink/cFS_FreeRTOS_seL4/cfe/fsw/cfe-core/src/inc/cfe_es.h **** ** Includes 
 128:/home/simulink/cFS_FreeRTOS_seL4/cfe/fsw/cfe-core/src/inc/cfe_es.h **** */
 129:/home/simulink/cFS_FreeRTOS_seL4/cfe/fsw/cfe-core/src/inc/cfe_es.h **** #include "cfe_mission_cfg.h"
 130:/home/simulink/cFS_FreeRTOS_seL4/cfe/fsw/cfe-core/src/inc/cfe_es.h **** #include "cfe_es_perfids.h"
 131:/home/simulink/cFS_FreeRTOS_seL4/cfe/fsw/cfe-core/src/inc/cfe_es.h **** 
 132:/home/simulink/cFS_FreeRTOS_seL4/cfe/fsw/cfe-core/src/inc/cfe_es.h **** /*****************************************************************************/
 133:/home/simulink/cFS_FreeRTOS_seL4/cfe/fsw/cfe-core/src/inc/cfe_es.h **** 
 134:/home/simulink/cFS_FreeRTOS_seL4/cfe/fsw/cfe-core/src/inc/cfe_es.h **** /*
 135:/home/simulink/cFS_FreeRTOS_seL4/cfe/fsw/cfe-core/src/inc/cfe_es.h **** ** Macro Definitions
 136:/home/simulink/cFS_FreeRTOS_seL4/cfe/fsw/cfe-core/src/inc/cfe_es.h **** */
 137:/home/simulink/cFS_FreeRTOS_seL4/cfe/fsw/cfe-core/src/inc/cfe_es.h **** 
 138:/home/simulink/cFS_FreeRTOS_seL4/cfe/fsw/cfe-core/src/inc/cfe_es.h **** /* 
 139:/home/simulink/cFS_FreeRTOS_seL4/cfe/fsw/cfe-core/src/inc/cfe_es.h **** ** The OS_PRINTF macro may be defined by OSAL to enable
 140:/home/simulink/cFS_FreeRTOS_seL4/cfe/fsw/cfe-core/src/inc/cfe_es.h **** ** printf-style argument checking.  If using a version of OSAL
 141:/home/simulink/cFS_FreeRTOS_seL4/cfe/fsw/cfe-core/src/inc/cfe_es.h **** ** that does not define this then define it as a no-op.
 142:/home/simulink/cFS_FreeRTOS_seL4/cfe/fsw/cfe-core/src/inc/cfe_es.h **** */
 143:/home/simulink/cFS_FreeRTOS_seL4/cfe/fsw/cfe-core/src/inc/cfe_es.h **** #ifndef OS_PRINTF
 144:/home/simulink/cFS_FreeRTOS_seL4/cfe/fsw/cfe-core/src/inc/cfe_es.h **** #define OS_PRINTF(m,n)
 145:/home/simulink/cFS_FreeRTOS_seL4/cfe/fsw/cfe-core/src/inc/cfe_es.h **** #endif
 146:/home/simulink/cFS_FreeRTOS_seL4/cfe/fsw/cfe-core/src/inc/cfe_es.h **** 
 147:/home/simulink/cFS_FreeRTOS_seL4/cfe/fsw/cfe-core/src/inc/cfe_es.h **** #define CFE_ES_DBIT(x) (1L << (x))                                    /* Places a one at bit positi
 148:/home/simulink/cFS_FreeRTOS_seL4/cfe/fsw/cfe-core/src/inc/cfe_es.h **** #define CFE_ES_DTEST(i,x) (((i) & CFE_ES_DBIT(x)) != 0)               /* TRUE iff bit x of i is set
 149:/home/simulink/cFS_FreeRTOS_seL4/cfe/fsw/cfe-core/src/inc/cfe_es.h **** #define CFE_ES_TEST_LONG_MASK(m,s)  (CFE_ES_DTEST(m[(s)/32],(s)%32))  /* Test a bit within an array
 150:/home/simulink/cFS_FreeRTOS_seL4/cfe/fsw/cfe-core/src/inc/cfe_es.h **** #define CFE_ES_MAX_MEMPOOL_BLOCK_SIZES     17    /**< Max number of size divisions allowed in a mem
 151:/home/simulink/cFS_FreeRTOS_seL4/cfe/fsw/cfe-core/src/inc/cfe_es.h **** 
 152:/home/simulink/cFS_FreeRTOS_seL4/cfe/fsw/cfe-core/src/inc/cfe_es.h **** /*
 153:/home/simulink/cFS_FreeRTOS_seL4/cfe/fsw/cfe-core/src/inc/cfe_es.h **** ** Note about reset type and subtypes:
 154:/home/simulink/cFS_FreeRTOS_seL4/cfe/fsw/cfe-core/src/inc/cfe_es.h **** **
 155:/home/simulink/cFS_FreeRTOS_seL4/cfe/fsw/cfe-core/src/inc/cfe_es.h **** ** These values come from the PSP so the actual definition of these enumerations
 156:/home/simulink/cFS_FreeRTOS_seL4/cfe/fsw/cfe-core/src/inc/cfe_es.h **** ** was moved to the PSP header file <cfe_psp.h>.
 157:/home/simulink/cFS_FreeRTOS_seL4/cfe/fsw/cfe-core/src/inc/cfe_es.h **** **
 158:/home/simulink/cFS_FreeRTOS_seL4/cfe/fsw/cfe-core/src/inc/cfe_es.h **** ** In the future the Electronic Data sheets (EDS) for PSP/ES
 159:/home/simulink/cFS_FreeRTOS_seL4/cfe/fsw/cfe-core/src/inc/cfe_es.h **** ** will define the exact values to use in telemetry messages.
 160:/home/simulink/cFS_FreeRTOS_seL4/cfe/fsw/cfe-core/src/inc/cfe_es.h **** */
 161:/home/simulink/cFS_FreeRTOS_seL4/cfe/fsw/cfe-core/src/inc/cfe_es.h **** 
68K GAS   			page 4


 162:/home/simulink/cFS_FreeRTOS_seL4/cfe/fsw/cfe-core/src/inc/cfe_es.h **** /*
 163:/home/simulink/cFS_FreeRTOS_seL4/cfe/fsw/cfe-core/src/inc/cfe_es.h **** **  Reset types
 164:/home/simulink/cFS_FreeRTOS_seL4/cfe/fsw/cfe-core/src/inc/cfe_es.h **** */
 165:/home/simulink/cFS_FreeRTOS_seL4/cfe/fsw/cfe-core/src/inc/cfe_es.h **** /** \name Reset Type extensions */
 166:/home/simulink/cFS_FreeRTOS_seL4/cfe/fsw/cfe-core/src/inc/cfe_es.h **** /** \{ */
 167:/home/simulink/cFS_FreeRTOS_seL4/cfe/fsw/cfe-core/src/inc/cfe_es.h **** #define CFE_ES_APP_RESTART       CFE_PSP_RST_TYPE_MAX       /**< Application only was reset (extend
 168:/home/simulink/cFS_FreeRTOS_seL4/cfe/fsw/cfe-core/src/inc/cfe_es.h **** /** \} */
 169:/home/simulink/cFS_FreeRTOS_seL4/cfe/fsw/cfe-core/src/inc/cfe_es.h **** 
 170:/home/simulink/cFS_FreeRTOS_seL4/cfe/fsw/cfe-core/src/inc/cfe_es.h **** 
 171:/home/simulink/cFS_FreeRTOS_seL4/cfe/fsw/cfe-core/src/inc/cfe_es.h **** /** \name Critical Data Store Macros */
 172:/home/simulink/cFS_FreeRTOS_seL4/cfe/fsw/cfe-core/src/inc/cfe_es.h **** /** \{ */
 173:/home/simulink/cFS_FreeRTOS_seL4/cfe/fsw/cfe-core/src/inc/cfe_es.h **** /** Maximum length allowed for CDS name. <BR>
 174:/home/simulink/cFS_FreeRTOS_seL4/cfe/fsw/cfe-core/src/inc/cfe_es.h **** ** NOTE: "+2" is for NULL Character and "." (i.e. - "AppName.CDSName") */
 175:/home/simulink/cFS_FreeRTOS_seL4/cfe/fsw/cfe-core/src/inc/cfe_es.h **** #define CFE_ES_CDS_MAX_FULL_NAME_LEN (CFE_ES_CDS_MAX_NAME_LENGTH + OS_MAX_API_NAME + 2)
 176:/home/simulink/cFS_FreeRTOS_seL4/cfe/fsw/cfe-core/src/inc/cfe_es.h **** 
 177:/home/simulink/cFS_FreeRTOS_seL4/cfe/fsw/cfe-core/src/inc/cfe_es.h **** #define CFE_ES_CDS_BAD_HANDLE  (CFE_ES_CDSHandle_t) 0xFFFF
 178:/home/simulink/cFS_FreeRTOS_seL4/cfe/fsw/cfe-core/src/inc/cfe_es.h **** /** \} */
 179:/home/simulink/cFS_FreeRTOS_seL4/cfe/fsw/cfe-core/src/inc/cfe_es.h **** 
 180:/home/simulink/cFS_FreeRTOS_seL4/cfe/fsw/cfe-core/src/inc/cfe_es.h **** /*
 181:/home/simulink/cFS_FreeRTOS_seL4/cfe/fsw/cfe-core/src/inc/cfe_es.h **** ** ES Run Status and Exit Status defines
 182:/home/simulink/cFS_FreeRTOS_seL4/cfe/fsw/cfe-core/src/inc/cfe_es.h **** */
 183:/home/simulink/cFS_FreeRTOS_seL4/cfe/fsw/cfe-core/src/inc/cfe_es.h **** /** \name Run Status and Exit Status identifiers */
 184:/home/simulink/cFS_FreeRTOS_seL4/cfe/fsw/cfe-core/src/inc/cfe_es.h **** /** \{ */
 185:/home/simulink/cFS_FreeRTOS_seL4/cfe/fsw/cfe-core/src/inc/cfe_es.h **** #define CFE_ES_RUNSTATUS_APP_RUN                  1   /**< \brief Indicates that the Application sh
 186:/home/simulink/cFS_FreeRTOS_seL4/cfe/fsw/cfe-core/src/inc/cfe_es.h **** #define CFE_ES_RUNSTATUS_APP_EXIT                 2  /**< \brief Indicates that the Application wan
 187:/home/simulink/cFS_FreeRTOS_seL4/cfe/fsw/cfe-core/src/inc/cfe_es.h **** #define CFE_ES_RUNSTATUS_APP_ERROR                3  /**< \brief Indicates that the Application is 
 188:/home/simulink/cFS_FreeRTOS_seL4/cfe/fsw/cfe-core/src/inc/cfe_es.h **** #define CFE_ES_RUNSTATUS_SYS_EXCEPTION            4  /**< \brief The cFE App caused an exception */
 189:/home/simulink/cFS_FreeRTOS_seL4/cfe/fsw/cfe-core/src/inc/cfe_es.h **** #define CFE_ES_RUNSTATUS_SYS_RESTART              5  /**< \brief The system is requesting a restart
 190:/home/simulink/cFS_FreeRTOS_seL4/cfe/fsw/cfe-core/src/inc/cfe_es.h **** #define CFE_ES_RUNSTATUS_SYS_RELOAD               6  /**< \brief The system is requesting a reload 
 191:/home/simulink/cFS_FreeRTOS_seL4/cfe/fsw/cfe-core/src/inc/cfe_es.h **** #define CFE_ES_RUNSTATUS_SYS_DELETE               7  /**< \brief The system is requesting that the 
 192:/home/simulink/cFS_FreeRTOS_seL4/cfe/fsw/cfe-core/src/inc/cfe_es.h **** #define CFE_ES_RUNSTATUS_CORE_APP_INIT_ERROR      8 /**< \brief Indicates that the Core Application
 193:/home/simulink/cFS_FreeRTOS_seL4/cfe/fsw/cfe-core/src/inc/cfe_es.h **** #define CFE_ES_RUNSTATUS_CORE_APP_RUNTIME_ERROR   9 /**< \brief Indicates that the Core Application
 194:/home/simulink/cFS_FreeRTOS_seL4/cfe/fsw/cfe-core/src/inc/cfe_es.h **** /** \} */
 195:/home/simulink/cFS_FreeRTOS_seL4/cfe/fsw/cfe-core/src/inc/cfe_es.h **** 
 196:/home/simulink/cFS_FreeRTOS_seL4/cfe/fsw/cfe-core/src/inc/cfe_es.h **** #define CFE_ES_APP_KILL_TIMEOUT         5 /**< \brief Number of cycles that ES will wait before kil
 197:/home/simulink/cFS_FreeRTOS_seL4/cfe/fsw/cfe-core/src/inc/cfe_es.h **** 
 198:/home/simulink/cFS_FreeRTOS_seL4/cfe/fsw/cfe-core/src/inc/cfe_es.h **** #define CFE_ES_NO_MUTEX                 0 /**< \brief Indicates that the memory pool selection will
 199:/home/simulink/cFS_FreeRTOS_seL4/cfe/fsw/cfe-core/src/inc/cfe_es.h **** #define CFE_ES_USE_MUTEX                1 /**< \brief Indicates that the memory pool selection will
 200:/home/simulink/cFS_FreeRTOS_seL4/cfe/fsw/cfe-core/src/inc/cfe_es.h **** 
 201:/home/simulink/cFS_FreeRTOS_seL4/cfe/fsw/cfe-core/src/inc/cfe_es.h **** /*
 202:/home/simulink/cFS_FreeRTOS_seL4/cfe/fsw/cfe-core/src/inc/cfe_es.h **** ** System Log Defines
 203:/home/simulink/cFS_FreeRTOS_seL4/cfe/fsw/cfe-core/src/inc/cfe_es.h **** */
 204:/home/simulink/cFS_FreeRTOS_seL4/cfe/fsw/cfe-core/src/inc/cfe_es.h **** /* "+1" is for the space between the timestamp and the message in the system log */
 205:/home/simulink/cFS_FreeRTOS_seL4/cfe/fsw/cfe-core/src/inc/cfe_es.h **** #define CFE_ES_MAX_SYSLOG_MSG_SIZE (CFE_EVS_MAX_MESSAGE_LENGTH + CFE_TIME_PRINTED_STRING_SIZE + 1)
 206:/home/simulink/cFS_FreeRTOS_seL4/cfe/fsw/cfe-core/src/inc/cfe_es.h **** 
 207:/home/simulink/cFS_FreeRTOS_seL4/cfe/fsw/cfe-core/src/inc/cfe_es.h **** 
 208:/home/simulink/cFS_FreeRTOS_seL4/cfe/fsw/cfe-core/src/inc/cfe_es.h **** /*
 209:/home/simulink/cFS_FreeRTOS_seL4/cfe/fsw/cfe-core/src/inc/cfe_es.h ****  * To preserve source-code compatibility with existing code,
 210:/home/simulink/cFS_FreeRTOS_seL4/cfe/fsw/cfe-core/src/inc/cfe_es.h ****  * this allows the old enum names to still work.  This should
 211:/home/simulink/cFS_FreeRTOS_seL4/cfe/fsw/cfe-core/src/inc/cfe_es.h ****  * be turned off after the new names are established.
 212:/home/simulink/cFS_FreeRTOS_seL4/cfe/fsw/cfe-core/src/inc/cfe_es.h ****  *  (sed -i -e 's/<old-name>/<new-name>/g' should take care of it)
 213:/home/simulink/cFS_FreeRTOS_seL4/cfe/fsw/cfe-core/src/inc/cfe_es.h ****  *
 214:/home/simulink/cFS_FreeRTOS_seL4/cfe/fsw/cfe-core/src/inc/cfe_es.h ****  * Note about why this is a good idea to do --
 215:/home/simulink/cFS_FreeRTOS_seL4/cfe/fsw/cfe-core/src/inc/cfe_es.h ****  * In the list below there are two values with similar names:
 216:/home/simulink/cFS_FreeRTOS_seL4/cfe/fsw/cfe-core/src/inc/cfe_es.h ****  *   CFE_ES_EXCEPTION, CFE_ES_SYS_EXCEPTION
 217:/home/simulink/cFS_FreeRTOS_seL4/cfe/fsw/cfe-core/src/inc/cfe_es.h ****  *
 218:/home/simulink/cFS_FreeRTOS_seL4/cfe/fsw/cfe-core/src/inc/cfe_es.h ****  * But these map to different values for two different purposes,
68K GAS   			page 5


 219:/home/simulink/cFS_FreeRTOS_seL4/cfe/fsw/cfe-core/src/inc/cfe_es.h ****  * one is a app status and the other is a reset subtype.  Using the
 220:/home/simulink/cFS_FreeRTOS_seL4/cfe/fsw/cfe-core/src/inc/cfe_es.h ****  * new names makes it much clearer as to which is which, will
 221:/home/simulink/cFS_FreeRTOS_seL4/cfe/fsw/cfe-core/src/inc/cfe_es.h ****  * greatly reduce the chance of getting them mixed up, and make it
 222:/home/simulink/cFS_FreeRTOS_seL4/cfe/fsw/cfe-core/src/inc/cfe_es.h ****  * much more obvious to a code reviewer if the ARE mixed up somewhere.
 223:/home/simulink/cFS_FreeRTOS_seL4/cfe/fsw/cfe-core/src/inc/cfe_es.h ****  */
 224:/home/simulink/cFS_FreeRTOS_seL4/cfe/fsw/cfe-core/src/inc/cfe_es.h **** #ifndef CFE_ES_ENABLE_NEW_ENUM_NAMES
 225:/home/simulink/cFS_FreeRTOS_seL4/cfe/fsw/cfe-core/src/inc/cfe_es.h **** 
 226:/home/simulink/cFS_FreeRTOS_seL4/cfe/fsw/cfe-core/src/inc/cfe_es.h **** #define CFE_ES_PROCESSOR_RESET            CFE_PSP_RST_TYPE_PROCESSOR
 227:/home/simulink/cFS_FreeRTOS_seL4/cfe/fsw/cfe-core/src/inc/cfe_es.h **** #define CFE_ES_POWERON_RESET              CFE_PSP_RST_TYPE_POWERON
 228:/home/simulink/cFS_FreeRTOS_seL4/cfe/fsw/cfe-core/src/inc/cfe_es.h **** 
 229:/home/simulink/cFS_FreeRTOS_seL4/cfe/fsw/cfe-core/src/inc/cfe_es.h **** #define CFE_ES_POWER_CYCLE                CFE_PSP_RST_SUBTYPE_POWER_CYCLE
 230:/home/simulink/cFS_FreeRTOS_seL4/cfe/fsw/cfe-core/src/inc/cfe_es.h **** #define CFE_ES_PUSH_BUTTON                CFE_PSP_RST_SUBTYPE_PUSH_BUTTON
 231:/home/simulink/cFS_FreeRTOS_seL4/cfe/fsw/cfe-core/src/inc/cfe_es.h **** #define CFE_ES_HW_SPECIAL_COMMAND         CFE_PSP_RST_SUBTYPE_HW_SPECIAL_COMMAND
 232:/home/simulink/cFS_FreeRTOS_seL4/cfe/fsw/cfe-core/src/inc/cfe_es.h **** #define CFE_ES_HW_WATCHDOG                CFE_PSP_RST_SUBTYPE_HW_WATCHDOG
 233:/home/simulink/cFS_FreeRTOS_seL4/cfe/fsw/cfe-core/src/inc/cfe_es.h **** #define CFE_ES_RESET_COMMAND              CFE_PSP_RST_SUBTYPE_RESET_COMMAND
 234:/home/simulink/cFS_FreeRTOS_seL4/cfe/fsw/cfe-core/src/inc/cfe_es.h **** #define CFE_ES_EXCEPTION                  CFE_PSP_RST_SUBTYPE_EXCEPTION
 235:/home/simulink/cFS_FreeRTOS_seL4/cfe/fsw/cfe-core/src/inc/cfe_es.h **** #define CFE_ES_UNDEFINED_RESET            CFE_PSP_RST_SUBTYPE_UNDEFINED_RESET
 236:/home/simulink/cFS_FreeRTOS_seL4/cfe/fsw/cfe-core/src/inc/cfe_es.h **** #define CFE_ES_HWDEBUG_RESET              CFE_PSP_RST_SUBTYPE_HWDEBUG_RESET
 237:/home/simulink/cFS_FreeRTOS_seL4/cfe/fsw/cfe-core/src/inc/cfe_es.h **** #define CFE_ES_BANKSWITCH_RESET           CFE_PSP_RST_SUBTYPE_BANKSWITCH_RESET
 238:/home/simulink/cFS_FreeRTOS_seL4/cfe/fsw/cfe-core/src/inc/cfe_es.h **** 
 239:/home/simulink/cFS_FreeRTOS_seL4/cfe/fsw/cfe-core/src/inc/cfe_es.h **** #define CFE_ES_APP_RUN                    CFE_ES_RUNSTATUS_APP_RUN
 240:/home/simulink/cFS_FreeRTOS_seL4/cfe/fsw/cfe-core/src/inc/cfe_es.h **** #define CFE_ES_APP_EXIT                   CFE_ES_RUNSTATUS_APP_EXIT
 241:/home/simulink/cFS_FreeRTOS_seL4/cfe/fsw/cfe-core/src/inc/cfe_es.h **** #define CFE_ES_APP_ERROR                  CFE_ES_RUNSTATUS_APP_ERROR
 242:/home/simulink/cFS_FreeRTOS_seL4/cfe/fsw/cfe-core/src/inc/cfe_es.h **** #define CFE_ES_SYS_EXCEPTION              CFE_ES_RUNSTATUS_SYS_EXCEPTION
 243:/home/simulink/cFS_FreeRTOS_seL4/cfe/fsw/cfe-core/src/inc/cfe_es.h **** #define CFE_ES_SYS_RESTART                CFE_ES_RUNSTATUS_SYS_RESTART
 244:/home/simulink/cFS_FreeRTOS_seL4/cfe/fsw/cfe-core/src/inc/cfe_es.h **** #define CFE_ES_SYS_RELOAD                 CFE_ES_RUNSTATUS_SYS_RELOAD
 245:/home/simulink/cFS_FreeRTOS_seL4/cfe/fsw/cfe-core/src/inc/cfe_es.h **** #define CFE_ES_SYS_DELETE                 CFE_ES_RUNSTATUS_SYS_DELETE
 246:/home/simulink/cFS_FreeRTOS_seL4/cfe/fsw/cfe-core/src/inc/cfe_es.h **** #define CFE_ES_CORE_APP_INIT_ERROR        CFE_ES_RUNSTATUS_CORE_APP_INIT_ERROR
 247:/home/simulink/cFS_FreeRTOS_seL4/cfe/fsw/cfe-core/src/inc/cfe_es.h **** #define CFE_ES_CORE_APP_RUNTIME_ERROR     CFE_ES_RUNSTATUS_CORE_APP_RUNTIME_ERROR
 248:/home/simulink/cFS_FreeRTOS_seL4/cfe/fsw/cfe-core/src/inc/cfe_es.h **** 
 249:/home/simulink/cFS_FreeRTOS_seL4/cfe/fsw/cfe-core/src/inc/cfe_es.h **** #endif
 250:/home/simulink/cFS_FreeRTOS_seL4/cfe/fsw/cfe-core/src/inc/cfe_es.h **** 
 251:/home/simulink/cFS_FreeRTOS_seL4/cfe/fsw/cfe-core/src/inc/cfe_es.h **** /*****************************************************************************/
 252:/home/simulink/cFS_FreeRTOS_seL4/cfe/fsw/cfe-core/src/inc/cfe_es.h **** /*
 253:/home/simulink/cFS_FreeRTOS_seL4/cfe/fsw/cfe-core/src/inc/cfe_es.h **** ** Type Definitions
 254:/home/simulink/cFS_FreeRTOS_seL4/cfe/fsw/cfe-core/src/inc/cfe_es.h **** */
 255:/home/simulink/cFS_FreeRTOS_seL4/cfe/fsw/cfe-core/src/inc/cfe_es.h **** 
 256:/home/simulink/cFS_FreeRTOS_seL4/cfe/fsw/cfe-core/src/inc/cfe_es.h **** /*
 257:/home/simulink/cFS_FreeRTOS_seL4/cfe/fsw/cfe-core/src/inc/cfe_es.h **** ** Memory Handle type
 258:/home/simulink/cFS_FreeRTOS_seL4/cfe/fsw/cfe-core/src/inc/cfe_es.h **** */
 259:/home/simulink/cFS_FreeRTOS_seL4/cfe/fsw/cfe-core/src/inc/cfe_es.h **** typedef cpuaddr CFE_ES_MemHandle_t;  /**< \brief Data type used to hold Handles of Memory Pools cre
 260:/home/simulink/cFS_FreeRTOS_seL4/cfe/fsw/cfe-core/src/inc/cfe_es.h **** 
 261:/home/simulink/cFS_FreeRTOS_seL4/cfe/fsw/cfe-core/src/inc/cfe_es.h **** /*
 262:/home/simulink/cFS_FreeRTOS_seL4/cfe/fsw/cfe-core/src/inc/cfe_es.h **** ** 
 263:/home/simulink/cFS_FreeRTOS_seL4/cfe/fsw/cfe-core/src/inc/cfe_es.h **** ** CFE_ES_AppInfo_t is a structure that is used to provide
 264:/home/simulink/cFS_FreeRTOS_seL4/cfe/fsw/cfe-core/src/inc/cfe_es.h **** ** information about an app. It is primarily used for the QueryOne and
 265:/home/simulink/cFS_FreeRTOS_seL4/cfe/fsw/cfe-core/src/inc/cfe_es.h **** ** QueryAll Commands.
 266:/home/simulink/cFS_FreeRTOS_seL4/cfe/fsw/cfe-core/src/inc/cfe_es.h **** **
 267:/home/simulink/cFS_FreeRTOS_seL4/cfe/fsw/cfe-core/src/inc/cfe_es.h **** */
 268:/home/simulink/cFS_FreeRTOS_seL4/cfe/fsw/cfe-core/src/inc/cfe_es.h **** typedef struct
 269:/home/simulink/cFS_FreeRTOS_seL4/cfe/fsw/cfe-core/src/inc/cfe_es.h **** {
 270:/home/simulink/cFS_FreeRTOS_seL4/cfe/fsw/cfe-core/src/inc/cfe_es.h ****    uint32   AppId;                          /**< \cfetlmmnemonic \ES_APP_ID
 271:/home/simulink/cFS_FreeRTOS_seL4/cfe/fsw/cfe-core/src/inc/cfe_es.h ****                                                  \brief Application ID for this Application */
 272:/home/simulink/cFS_FreeRTOS_seL4/cfe/fsw/cfe-core/src/inc/cfe_es.h ****    uint32   Type;                           /**< \cfetlmmnemonic \ES_APPTYPE
 273:/home/simulink/cFS_FreeRTOS_seL4/cfe/fsw/cfe-core/src/inc/cfe_es.h ****                                                  \brief The type of App: CORE or EXTERNAL */
 274:/home/simulink/cFS_FreeRTOS_seL4/cfe/fsw/cfe-core/src/inc/cfe_es.h **** 
 275:/home/simulink/cFS_FreeRTOS_seL4/cfe/fsw/cfe-core/src/inc/cfe_es.h ****    char     Name[OS_MAX_API_NAME];          /**< \cfetlmmnemonic \ES_APPNAME
68K GAS   			page 6


 276:/home/simulink/cFS_FreeRTOS_seL4/cfe/fsw/cfe-core/src/inc/cfe_es.h ****                                                  \brief The Registered Name of the Application */
 277:/home/simulink/cFS_FreeRTOS_seL4/cfe/fsw/cfe-core/src/inc/cfe_es.h ****    char     EntryPoint[OS_MAX_API_NAME];    /**< \cfetlmmnemonic \ES_APPENTRYPT
 278:/home/simulink/cFS_FreeRTOS_seL4/cfe/fsw/cfe-core/src/inc/cfe_es.h ****                                                  \brief The Entry Point label for the Application *
 279:/home/simulink/cFS_FreeRTOS_seL4/cfe/fsw/cfe-core/src/inc/cfe_es.h ****    char     FileName[OS_MAX_PATH_LEN];      /**< \cfetlmmnemonic \ES_APPFILENAME
 280:/home/simulink/cFS_FreeRTOS_seL4/cfe/fsw/cfe-core/src/inc/cfe_es.h ****                                                  \brief The Filename of the file containing the App
 281:/home/simulink/cFS_FreeRTOS_seL4/cfe/fsw/cfe-core/src/inc/cfe_es.h **** 
 282:/home/simulink/cFS_FreeRTOS_seL4/cfe/fsw/cfe-core/src/inc/cfe_es.h ****    uint32   StackSize;                      /**< \cfetlmmnemonic \ES_STACKSIZE
 283:/home/simulink/cFS_FreeRTOS_seL4/cfe/fsw/cfe-core/src/inc/cfe_es.h ****                                                  \brief The Stack Size of the Application */
 284:/home/simulink/cFS_FreeRTOS_seL4/cfe/fsw/cfe-core/src/inc/cfe_es.h ****    uint32   ModuleId;                       /**< \cfetlmmnemonic \ES_MODULEID
 285:/home/simulink/cFS_FreeRTOS_seL4/cfe/fsw/cfe-core/src/inc/cfe_es.h ****                                                  \brief The ID of the Loadable Module for the Appli
 286:/home/simulink/cFS_FreeRTOS_seL4/cfe/fsw/cfe-core/src/inc/cfe_es.h ****    uint32   AddressesAreValid;              /**< \cfetlmmnemonic \ES_ADDRVALID
 287:/home/simulink/cFS_FreeRTOS_seL4/cfe/fsw/cfe-core/src/inc/cfe_es.h ****                                                  \brief Indicates that the Code, Data, and BSS addr
 288:/home/simulink/cFS_FreeRTOS_seL4/cfe/fsw/cfe-core/src/inc/cfe_es.h ****    uint32   CodeAddress;                    /**< \cfetlmmnemonic \ES_CODEADDR
 289:/home/simulink/cFS_FreeRTOS_seL4/cfe/fsw/cfe-core/src/inc/cfe_es.h ****                                                  \brief The Address of the Application Code Segment
 290:/home/simulink/cFS_FreeRTOS_seL4/cfe/fsw/cfe-core/src/inc/cfe_es.h ****    uint32   CodeSize;                       /**< \cfetlmmnemonic \ES_CODESIZE
 291:/home/simulink/cFS_FreeRTOS_seL4/cfe/fsw/cfe-core/src/inc/cfe_es.h ****                                                  \brief The Code Size of the Application */
 292:/home/simulink/cFS_FreeRTOS_seL4/cfe/fsw/cfe-core/src/inc/cfe_es.h ****    uint32   DataAddress;                    /**< \cfetlmmnemonic \ES_DATAADDR
 293:/home/simulink/cFS_FreeRTOS_seL4/cfe/fsw/cfe-core/src/inc/cfe_es.h ****                                                  \brief The Address of the Application Data Segment
 294:/home/simulink/cFS_FreeRTOS_seL4/cfe/fsw/cfe-core/src/inc/cfe_es.h ****    uint32   DataSize;                       /**< \cfetlmmnemonic \ES_DATASIZE
 295:/home/simulink/cFS_FreeRTOS_seL4/cfe/fsw/cfe-core/src/inc/cfe_es.h ****                                                  \brief The Data Size of the Application */
 296:/home/simulink/cFS_FreeRTOS_seL4/cfe/fsw/cfe-core/src/inc/cfe_es.h ****    uint32   BSSAddress;                     /**< \cfetlmmnemonic \ES_BSSADDR
 297:/home/simulink/cFS_FreeRTOS_seL4/cfe/fsw/cfe-core/src/inc/cfe_es.h ****                                                  \brief The Address of the Application BSS Segment*
 298:/home/simulink/cFS_FreeRTOS_seL4/cfe/fsw/cfe-core/src/inc/cfe_es.h ****    uint32   BSSSize;                        /**< \cfetlmmnemonic \ES_BSSSIZE
 299:/home/simulink/cFS_FreeRTOS_seL4/cfe/fsw/cfe-core/src/inc/cfe_es.h ****                                                   \brief The BSS Size of the Application */
 300:/home/simulink/cFS_FreeRTOS_seL4/cfe/fsw/cfe-core/src/inc/cfe_es.h ****    uint32   StartAddress;                   /**< \cfetlmmnemonic \ES_STARTADDR
 301:/home/simulink/cFS_FreeRTOS_seL4/cfe/fsw/cfe-core/src/inc/cfe_es.h ****                                                  \brief The Start Address of the Application */
 302:/home/simulink/cFS_FreeRTOS_seL4/cfe/fsw/cfe-core/src/inc/cfe_es.h ****    uint16   ExceptionAction;                /**< \cfetlmmnemonic \ES_EXCEPTNACTN
 303:/home/simulink/cFS_FreeRTOS_seL4/cfe/fsw/cfe-core/src/inc/cfe_es.h ****                                                  \brief What should occur if Application has an exc
 304:/home/simulink/cFS_FreeRTOS_seL4/cfe/fsw/cfe-core/src/inc/cfe_es.h ****                                                  (Restart Application OR Restart Processor) */
 305:/home/simulink/cFS_FreeRTOS_seL4/cfe/fsw/cfe-core/src/inc/cfe_es.h ****    uint16   Priority;                       /**< \cfetlmmnemonic \ES_PRIORITY
 306:/home/simulink/cFS_FreeRTOS_seL4/cfe/fsw/cfe-core/src/inc/cfe_es.h ****                                                  \brief The Priority of the Application */
 307:/home/simulink/cFS_FreeRTOS_seL4/cfe/fsw/cfe-core/src/inc/cfe_es.h ****    uint32   MainTaskId;                     /**< \cfetlmmnemonic \ES_MAINTASKID
 308:/home/simulink/cFS_FreeRTOS_seL4/cfe/fsw/cfe-core/src/inc/cfe_es.h ****                                                  \brief The Application's Main Task ID */
 309:/home/simulink/cFS_FreeRTOS_seL4/cfe/fsw/cfe-core/src/inc/cfe_es.h ****    uint32   ExecutionCounter;               /**< \cfetlmmnemonic \ES_MAINTASKEXECNT
 310:/home/simulink/cFS_FreeRTOS_seL4/cfe/fsw/cfe-core/src/inc/cfe_es.h ****                                                  \brief The Application's Main Task Execution Count
 311:/home/simulink/cFS_FreeRTOS_seL4/cfe/fsw/cfe-core/src/inc/cfe_es.h ****    char     MainTaskName[OS_MAX_API_NAME];  /**< \cfetlmmnemonic \ES_MAINTASKNAME
 312:/home/simulink/cFS_FreeRTOS_seL4/cfe/fsw/cfe-core/src/inc/cfe_es.h ****                                                  \brief The Application's Main Task ID */
 313:/home/simulink/cFS_FreeRTOS_seL4/cfe/fsw/cfe-core/src/inc/cfe_es.h ****    uint32   NumOfChildTasks;                /**< \cfetlmmnemonic \ES_CHILDTASKS
 314:/home/simulink/cFS_FreeRTOS_seL4/cfe/fsw/cfe-core/src/inc/cfe_es.h ****                                                  \brief Number of Child tasks for an App */
 315:/home/simulink/cFS_FreeRTOS_seL4/cfe/fsw/cfe-core/src/inc/cfe_es.h **** 
 316:/home/simulink/cFS_FreeRTOS_seL4/cfe/fsw/cfe-core/src/inc/cfe_es.h **** } CFE_ES_AppInfo_t;
 317:/home/simulink/cFS_FreeRTOS_seL4/cfe/fsw/cfe-core/src/inc/cfe_es.h **** 
 318:/home/simulink/cFS_FreeRTOS_seL4/cfe/fsw/cfe-core/src/inc/cfe_es.h **** /*
 319:/home/simulink/cFS_FreeRTOS_seL4/cfe/fsw/cfe-core/src/inc/cfe_es.h **** ** Task Info Type
 320:/home/simulink/cFS_FreeRTOS_seL4/cfe/fsw/cfe-core/src/inc/cfe_es.h **** */
 321:/home/simulink/cFS_FreeRTOS_seL4/cfe/fsw/cfe-core/src/inc/cfe_es.h **** typedef struct
 322:/home/simulink/cFS_FreeRTOS_seL4/cfe/fsw/cfe-core/src/inc/cfe_es.h **** {
 323:/home/simulink/cFS_FreeRTOS_seL4/cfe/fsw/cfe-core/src/inc/cfe_es.h ****    uint32   TaskId;                    /**< \brief Task Id */
 324:/home/simulink/cFS_FreeRTOS_seL4/cfe/fsw/cfe-core/src/inc/cfe_es.h ****    uint32   ExecutionCounter;          /**K \brief Task Execution Counter */
 325:/home/simulink/cFS_FreeRTOS_seL4/cfe/fsw/cfe-core/src/inc/cfe_es.h ****    uint8    TaskName[OS_MAX_API_NAME]; /**< \brief Task Name */
 326:/home/simulink/cFS_FreeRTOS_seL4/cfe/fsw/cfe-core/src/inc/cfe_es.h ****    uint32   AppId;                     /**< \brief Parent Application ID */
 327:/home/simulink/cFS_FreeRTOS_seL4/cfe/fsw/cfe-core/src/inc/cfe_es.h ****    uint8    AppName[OS_MAX_API_NAME];  /**< \brief Parent Application Name */
 328:/home/simulink/cFS_FreeRTOS_seL4/cfe/fsw/cfe-core/src/inc/cfe_es.h **** 
 329:/home/simulink/cFS_FreeRTOS_seL4/cfe/fsw/cfe-core/src/inc/cfe_es.h **** } CFE_ES_TaskInfo_t;
 330:/home/simulink/cFS_FreeRTOS_seL4/cfe/fsw/cfe-core/src/inc/cfe_es.h **** 
 331:/home/simulink/cFS_FreeRTOS_seL4/cfe/fsw/cfe-core/src/inc/cfe_es.h **** /*
 332:/home/simulink/cFS_FreeRTOS_seL4/cfe/fsw/cfe-core/src/inc/cfe_es.h **** ** Memory Pool Statistics data type
68K GAS   			page 7


 333:/home/simulink/cFS_FreeRTOS_seL4/cfe/fsw/cfe-core/src/inc/cfe_es.h **** */
 334:/home/simulink/cFS_FreeRTOS_seL4/cfe/fsw/cfe-core/src/inc/cfe_es.h **** typedef struct
 335:/home/simulink/cFS_FreeRTOS_seL4/cfe/fsw/cfe-core/src/inc/cfe_es.h **** {
 336:/home/simulink/cFS_FreeRTOS_seL4/cfe/fsw/cfe-core/src/inc/cfe_es.h ****     uint32  BlockSize;               /**< \brief Number of bytes in each of these blocks */
 337:/home/simulink/cFS_FreeRTOS_seL4/cfe/fsw/cfe-core/src/inc/cfe_es.h ****     uint32  NumCreated;              /**< \brief Number of Memory Blocks of this size created */
 338:/home/simulink/cFS_FreeRTOS_seL4/cfe/fsw/cfe-core/src/inc/cfe_es.h ****     uint32  NumFree;                 /**< \brief Number of Memory Blocks of this size that are free
 339:/home/simulink/cFS_FreeRTOS_seL4/cfe/fsw/cfe-core/src/inc/cfe_es.h **** } CFE_ES_BlockStats_t;
 340:/home/simulink/cFS_FreeRTOS_seL4/cfe/fsw/cfe-core/src/inc/cfe_es.h **** 
 341:/home/simulink/cFS_FreeRTOS_seL4/cfe/fsw/cfe-core/src/inc/cfe_es.h **** typedef struct
 342:/home/simulink/cFS_FreeRTOS_seL4/cfe/fsw/cfe-core/src/inc/cfe_es.h **** {
 343:/home/simulink/cFS_FreeRTOS_seL4/cfe/fsw/cfe-core/src/inc/cfe_es.h ****     uint32                PoolSize;                /**< \cfetlmmnemonic \ES_POOLSIZE
 344:/home/simulink/cFS_FreeRTOS_seL4/cfe/fsw/cfe-core/src/inc/cfe_es.h ****                                                         \brief  Size of Memory Pool (in bytes) */
 345:/home/simulink/cFS_FreeRTOS_seL4/cfe/fsw/cfe-core/src/inc/cfe_es.h ****     uint32                NumBlocksRequested;      /**< \cfetlmmnemonic \ES_BLKSREQ
 346:/home/simulink/cFS_FreeRTOS_seL4/cfe/fsw/cfe-core/src/inc/cfe_es.h ****                                                         \brief Number of times a memory block has b
 347:/home/simulink/cFS_FreeRTOS_seL4/cfe/fsw/cfe-core/src/inc/cfe_es.h ****     uint32                CheckErrCtr;             /**< \cfetlmmnemonic \ES_BLKERRCTR
 348:/home/simulink/cFS_FreeRTOS_seL4/cfe/fsw/cfe-core/src/inc/cfe_es.h ****                                                         \brief Number of errors detected when freei
 349:/home/simulink/cFS_FreeRTOS_seL4/cfe/fsw/cfe-core/src/inc/cfe_es.h ****     uint32                NumFreeBytes;            /**< \cfetlmmnemonic \ES_FREEBYTES
 350:/home/simulink/cFS_FreeRTOS_seL4/cfe/fsw/cfe-core/src/inc/cfe_es.h ****                                                         \brief Number of bytes never allocated to a
 351:/home/simulink/cFS_FreeRTOS_seL4/cfe/fsw/cfe-core/src/inc/cfe_es.h ****     CFE_ES_BlockStats_t   BlockStats[CFE_ES_MAX_MEMPOOL_BLOCK_SIZES]; /**< \cfetlmmnemonic \ES_BLKS
 352:/home/simulink/cFS_FreeRTOS_seL4/cfe/fsw/cfe-core/src/inc/cfe_es.h ****                                                                            \brief Contains stats on
 353:/home/simulink/cFS_FreeRTOS_seL4/cfe/fsw/cfe-core/src/inc/cfe_es.h **** } CFE_ES_MemPoolStats_t;
 354:/home/simulink/cFS_FreeRTOS_seL4/cfe/fsw/cfe-core/src/inc/cfe_es.h **** 
 355:/home/simulink/cFS_FreeRTOS_seL4/cfe/fsw/cfe-core/src/inc/cfe_es.h **** /*
 356:/home/simulink/cFS_FreeRTOS_seL4/cfe/fsw/cfe-core/src/inc/cfe_es.h **** ** CDS Handle type
 357:/home/simulink/cFS_FreeRTOS_seL4/cfe/fsw/cfe-core/src/inc/cfe_es.h **** */
 358:/home/simulink/cFS_FreeRTOS_seL4/cfe/fsw/cfe-core/src/inc/cfe_es.h **** typedef cpuaddr CFE_ES_CDSHandle_t;    /**< \brief Data type used to hold Handles of Critical Data 
 359:/home/simulink/cFS_FreeRTOS_seL4/cfe/fsw/cfe-core/src/inc/cfe_es.h **** 
 360:/home/simulink/cFS_FreeRTOS_seL4/cfe/fsw/cfe-core/src/inc/cfe_es.h **** typedef struct
 361:/home/simulink/cFS_FreeRTOS_seL4/cfe/fsw/cfe-core/src/inc/cfe_es.h **** {
 362:/home/simulink/cFS_FreeRTOS_seL4/cfe/fsw/cfe-core/src/inc/cfe_es.h ****     CFE_ES_CDSHandle_t    Handle;          /**< \brief Handle of CDS */
 363:/home/simulink/cFS_FreeRTOS_seL4/cfe/fsw/cfe-core/src/inc/cfe_es.h ****     uint32                Size;            /**< \brief Size, in bytes, of the CDS memory block */
 364:/home/simulink/cFS_FreeRTOS_seL4/cfe/fsw/cfe-core/src/inc/cfe_es.h ****     boolean               Table;           /**< \brief Flag that indicates whether CDS contains a C
 365:/home/simulink/cFS_FreeRTOS_seL4/cfe/fsw/cfe-core/src/inc/cfe_es.h ****     char                  Name[CFE_ES_CDS_MAX_FULL_NAME_LEN]; /**< \brief Processor Unique Name of 
 366:/home/simulink/cFS_FreeRTOS_seL4/cfe/fsw/cfe-core/src/inc/cfe_es.h ****     uint8                 ByteAlignSpare1; /**< \brief Spare byte to insure structure size is multi
 367:/home/simulink/cFS_FreeRTOS_seL4/cfe/fsw/cfe-core/src/inc/cfe_es.h **** } CFE_ES_CDSRegDumpRec_t;
 368:/home/simulink/cFS_FreeRTOS_seL4/cfe/fsw/cfe-core/src/inc/cfe_es.h **** 
 369:/home/simulink/cFS_FreeRTOS_seL4/cfe/fsw/cfe-core/src/inc/cfe_es.h **** /*
 370:/home/simulink/cFS_FreeRTOS_seL4/cfe/fsw/cfe-core/src/inc/cfe_es.h **** ** Child Task Main Function Prototype
 371:/home/simulink/cFS_FreeRTOS_seL4/cfe/fsw/cfe-core/src/inc/cfe_es.h **** */
 372:/home/simulink/cFS_FreeRTOS_seL4/cfe/fsw/cfe-core/src/inc/cfe_es.h **** typedef void (*CFE_ES_ChildTaskMainFuncPtr_t)(void); /**< \brief Required Prototype of Child Task M
 373:/home/simulink/cFS_FreeRTOS_seL4/cfe/fsw/cfe-core/src/inc/cfe_es.h **** typedef int32 (*CFE_ES_LibraryEntryFuncPtr_t)(void); /**< \brief Required Prototype of Library Init
 374:/home/simulink/cFS_FreeRTOS_seL4/cfe/fsw/cfe-core/src/inc/cfe_es.h **** 
 375:/home/simulink/cFS_FreeRTOS_seL4/cfe/fsw/cfe-core/src/inc/cfe_es.h **** typedef enum
 376:/home/simulink/cFS_FreeRTOS_seL4/cfe/fsw/cfe-core/src/inc/cfe_es.h **** {
 377:/home/simulink/cFS_FreeRTOS_seL4/cfe/fsw/cfe-core/src/inc/cfe_es.h ****     CFE_ES_STATICENTRYTYPE_INVALID      = 0,
 378:/home/simulink/cFS_FreeRTOS_seL4/cfe/fsw/cfe-core/src/inc/cfe_es.h ****     CFE_ES_STATICENTRYTYPE_FIRST_VALID  = 2000,
 379:/home/simulink/cFS_FreeRTOS_seL4/cfe/fsw/cfe-core/src/inc/cfe_es.h ****     CFE_ES_STATICENTRYTYPE_APPLICATION,
 380:/home/simulink/cFS_FreeRTOS_seL4/cfe/fsw/cfe-core/src/inc/cfe_es.h ****     CFE_ES_STATICENTRYTYPE_LIBRARY,
 381:/home/simulink/cFS_FreeRTOS_seL4/cfe/fsw/cfe-core/src/inc/cfe_es.h ****     CFE_ES_STATICENTRYTYPE_MAX
 382:/home/simulink/cFS_FreeRTOS_seL4/cfe/fsw/cfe-core/src/inc/cfe_es.h **** } CFE_ES_StaticEntryType_t;
 383:/home/simulink/cFS_FreeRTOS_seL4/cfe/fsw/cfe-core/src/inc/cfe_es.h **** 
 384:/home/simulink/cFS_FreeRTOS_seL4/cfe/fsw/cfe-core/src/inc/cfe_es.h **** /*
 385:/home/simulink/cFS_FreeRTOS_seL4/cfe/fsw/cfe-core/src/inc/cfe_es.h **** ** API Structure for statically linked CFS Applications
 386:/home/simulink/cFS_FreeRTOS_seL4/cfe/fsw/cfe-core/src/inc/cfe_es.h **** */
 387:/home/simulink/cFS_FreeRTOS_seL4/cfe/fsw/cfe-core/src/inc/cfe_es.h **** typedef const struct
 388:/home/simulink/cFS_FreeRTOS_seL4/cfe/fsw/cfe-core/src/inc/cfe_es.h **** {
 389:/home/simulink/cFS_FreeRTOS_seL4/cfe/fsw/cfe-core/src/inc/cfe_es.h ****     CFE_ES_StaticEntryType_t EntryType;
68K GAS   			page 8


 390:/home/simulink/cFS_FreeRTOS_seL4/cfe/fsw/cfe-core/src/inc/cfe_es.h ****     union
 391:/home/simulink/cFS_FreeRTOS_seL4/cfe/fsw/cfe-core/src/inc/cfe_es.h ****     {
 392:/home/simulink/cFS_FreeRTOS_seL4/cfe/fsw/cfe-core/src/inc/cfe_es.h ****         CFE_ES_ChildTaskMainFuncPtr_t AppEntryFunc;     /**< \brief Entry point for Application */
 393:/home/simulink/cFS_FreeRTOS_seL4/cfe/fsw/cfe-core/src/inc/cfe_es.h ****         CFE_ES_LibraryEntryFuncPtr_t LibInitFunc;       /**< \brief Initialization function for Lib
 394:/home/simulink/cFS_FreeRTOS_seL4/cfe/fsw/cfe-core/src/inc/cfe_es.h ****         cpuaddr EntryFuncAddr;
 395:/home/simulink/cFS_FreeRTOS_seL4/cfe/fsw/cfe-core/src/inc/cfe_es.h ****     } Ptrs;
 396:/home/simulink/cFS_FreeRTOS_seL4/cfe/fsw/cfe-core/src/inc/cfe_es.h ****     uint32  Priority;
 397:/home/simulink/cFS_FreeRTOS_seL4/cfe/fsw/cfe-core/src/inc/cfe_es.h ****     uint32  StackSize;
 398:/home/simulink/cFS_FreeRTOS_seL4/cfe/fsw/cfe-core/src/inc/cfe_es.h **** } CFE_ES_AppStaticModuleApi_t;
 399:/home/simulink/cFS_FreeRTOS_seL4/cfe/fsw/cfe-core/src/inc/cfe_es.h **** 
 400:/home/simulink/cFS_FreeRTOS_seL4/cfe/fsw/cfe-core/src/inc/cfe_es.h **** #ifdef CFS_STATIC_MODULE
 401:/home/simulink/cFS_FreeRTOS_seL4/cfe/fsw/cfe-core/src/inc/cfe_es.h **** 
 402:/home/simulink/cFS_FreeRTOS_seL4/cfe/fsw/cfe-core/src/inc/cfe_es.h **** #define CFS_MODULE_DECLARE_APP(name,pri,stack)              \
 403:/home/simulink/cFS_FreeRTOS_seL4/cfe/fsw/cfe-core/src/inc/cfe_es.h ****     void name##_Main(void);                                 \
 404:/home/simulink/cFS_FreeRTOS_seL4/cfe/fsw/cfe-core/src/inc/cfe_es.h ****     CFE_ES_AppStaticModuleApi_t CFS_##name##_API =          \
 405:/home/simulink/cFS_FreeRTOS_seL4/cfe/fsw/cfe-core/src/inc/cfe_es.h ****     {                                                       \
 406:/home/simulink/cFS_FreeRTOS_seL4/cfe/fsw/cfe-core/src/inc/cfe_es.h ****         .EntryType = CFE_ES_STATICENTRYTYPE_APPLICATION,    \
 407:/home/simulink/cFS_FreeRTOS_seL4/cfe/fsw/cfe-core/src/inc/cfe_es.h ****         .Ptrs.AppEntryFunc = name##_Main,                   \
 408:/home/simulink/cFS_FreeRTOS_seL4/cfe/fsw/cfe-core/src/inc/cfe_es.h ****         .Priority = pri,                                    \
 409:/home/simulink/cFS_FreeRTOS_seL4/cfe/fsw/cfe-core/src/inc/cfe_es.h ****         .StackSize = stack,                                 \
 410:/home/simulink/cFS_FreeRTOS_seL4/cfe/fsw/cfe-core/src/inc/cfe_es.h ****     }
 411:/home/simulink/cFS_FreeRTOS_seL4/cfe/fsw/cfe-core/src/inc/cfe_es.h **** 
 412:/home/simulink/cFS_FreeRTOS_seL4/cfe/fsw/cfe-core/src/inc/cfe_es.h **** #define CFS_MODULE_DECLARE_LIB(name)                        \
 413:/home/simulink/cFS_FreeRTOS_seL4/cfe/fsw/cfe-core/src/inc/cfe_es.h ****     int32 name##_Init(void);                                \
 414:/home/simulink/cFS_FreeRTOS_seL4/cfe/fsw/cfe-core/src/inc/cfe_es.h ****     CFE_ES_AppStaticModuleApi_t CFS_##name##_API =          \
 415:/home/simulink/cFS_FreeRTOS_seL4/cfe/fsw/cfe-core/src/inc/cfe_es.h ****     {                                                       \
 416:/home/simulink/cFS_FreeRTOS_seL4/cfe/fsw/cfe-core/src/inc/cfe_es.h ****         .EntryType = CFE_ES_STATICENTRYTYPE_LIBRARY,        \
 417:/home/simulink/cFS_FreeRTOS_seL4/cfe/fsw/cfe-core/src/inc/cfe_es.h ****         .Ptrs.LibInitFunc = name##_Init,                    \
 418:/home/simulink/cFS_FreeRTOS_seL4/cfe/fsw/cfe-core/src/inc/cfe_es.h ****     }
 419:/home/simulink/cFS_FreeRTOS_seL4/cfe/fsw/cfe-core/src/inc/cfe_es.h **** #else
 420:/home/simulink/cFS_FreeRTOS_seL4/cfe/fsw/cfe-core/src/inc/cfe_es.h **** #define CFS_MODULE_DECLARE_APP(name,pri,stack)
 421:/home/simulink/cFS_FreeRTOS_seL4/cfe/fsw/cfe-core/src/inc/cfe_es.h **** #define CFS_MODULE_DECLARE_LIB(name)
 422:/home/simulink/cFS_FreeRTOS_seL4/cfe/fsw/cfe-core/src/inc/cfe_es.h **** #endif
 423:/home/simulink/cFS_FreeRTOS_seL4/cfe/fsw/cfe-core/src/inc/cfe_es.h **** 
 424:/home/simulink/cFS_FreeRTOS_seL4/cfe/fsw/cfe-core/src/inc/cfe_es.h **** 
 425:/home/simulink/cFS_FreeRTOS_seL4/cfe/fsw/cfe-core/src/inc/cfe_es.h **** /*****************************************************************************/
 426:/home/simulink/cFS_FreeRTOS_seL4/cfe/fsw/cfe-core/src/inc/cfe_es.h **** /*
 427:/home/simulink/cFS_FreeRTOS_seL4/cfe/fsw/cfe-core/src/inc/cfe_es.h **** ** Exported Functions
 428:/home/simulink/cFS_FreeRTOS_seL4/cfe/fsw/cfe-core/src/inc/cfe_es.h **** */
 429:/home/simulink/cFS_FreeRTOS_seL4/cfe/fsw/cfe-core/src/inc/cfe_es.h **** 
 430:/home/simulink/cFS_FreeRTOS_seL4/cfe/fsw/cfe-core/src/inc/cfe_es.h **** /*****************************************************************************/
 431:/home/simulink/cFS_FreeRTOS_seL4/cfe/fsw/cfe-core/src/inc/cfe_es.h **** 
 432:/home/simulink/cFS_FreeRTOS_seL4/cfe/fsw/cfe-core/src/inc/cfe_es.h **** #if !defined(OSAL_OPAQUE_OBJECT_IDS)
 433:/home/simulink/cFS_FreeRTOS_seL4/cfe/fsw/cfe-core/src/inc/cfe_es.h **** /*
 434:/home/simulink/cFS_FreeRTOS_seL4/cfe/fsw/cfe-core/src/inc/cfe_es.h **** ** \brief Compatibility wrapper for older versions of OSAL
 435:/home/simulink/cFS_FreeRTOS_seL4/cfe/fsw/cfe-core/src/inc/cfe_es.h **** **
 436:/home/simulink/cFS_FreeRTOS_seL4/cfe/fsw/cfe-core/src/inc/cfe_es.h **** ** \par Description
 437:/home/simulink/cFS_FreeRTOS_seL4/cfe/fsw/cfe-core/src/inc/cfe_es.h **** **   In future versions of OSAL the task/object ID values might not be zero based
 438:/home/simulink/cFS_FreeRTOS_seL4/cfe/fsw/cfe-core/src/inc/cfe_es.h **** **   If that is the case then the OSAL must also define a function to convert back
 439:/home/simulink/cFS_FreeRTOS_seL4/cfe/fsw/cfe-core/src/inc/cfe_es.h **** **   to zero-based numbers such that the value can be used as an array index.
 440:/home/simulink/cFS_FreeRTOS_seL4/cfe/fsw/cfe-core/src/inc/cfe_es.h **** **
 441:/home/simulink/cFS_FreeRTOS_seL4/cfe/fsw/cfe-core/src/inc/cfe_es.h **** **   When using an existing/older version of OSAL, this inline function is defined
 442:/home/simulink/cFS_FreeRTOS_seL4/cfe/fsw/cfe-core/src/inc/cfe_es.h **** **   to mimic this call for backward compatibility.  It just passes through the same
 443:/home/simulink/cFS_FreeRTOS_seL4/cfe/fsw/cfe-core/src/inc/cfe_es.h **** **   value without modification.
 444:/home/simulink/cFS_FreeRTOS_seL4/cfe/fsw/cfe-core/src/inc/cfe_es.h **** **
 445:/home/simulink/cFS_FreeRTOS_seL4/cfe/fsw/cfe-core/src/inc/cfe_es.h **** ** \param[in]  ObjectId     The object ID from OSAL
 446:/home/simulink/cFS_FreeRTOS_seL4/cfe/fsw/cfe-core/src/inc/cfe_es.h **** ** \param[out] ArrayIndex   A zero-based value suitable for use as an array index
68K GAS   			page 9


 447:/home/simulink/cFS_FreeRTOS_seL4/cfe/fsw/cfe-core/src/inc/cfe_es.h **** ** \returns    OS_SUCCESS (a real version might return an error code).
 448:/home/simulink/cFS_FreeRTOS_seL4/cfe/fsw/cfe-core/src/inc/cfe_es.h **** */
 449:/home/simulink/cFS_FreeRTOS_seL4/cfe/fsw/cfe-core/src/inc/cfe_es.h **** static inline int32 OS_ConvertToArrayIndex(uint32 ObjectId, uint32 *ArrayIndex)
 450:/home/simulink/cFS_FreeRTOS_seL4/cfe/fsw/cfe-core/src/inc/cfe_es.h **** {
  11               	.loc 1 450 0
  12               	.cfi_startproc
 451:/home/simulink/cFS_FreeRTOS_seL4/cfe/fsw/cfe-core/src/inc/cfe_es.h ****    *ArrayIndex = ObjectId;
  13               	.loc 1 451 0
  14 0000 206F 0008 	move.l 8(%sp),%a0
  15 0004 20AF 0004 	move.l 4(%sp),(%a0)
 452:/home/simulink/cFS_FreeRTOS_seL4/cfe/fsw/cfe-core/src/inc/cfe_es.h ****    return OS_SUCCESS;
  16               	.loc 1 452 0
  17 0008 4280      	clr.l %d0
 453:/home/simulink/cFS_FreeRTOS_seL4/cfe/fsw/cfe-core/src/inc/cfe_es.h **** }
  18               	.loc 1 453 0
  19 000a 4E75      	rts
  20               	.cfi_endproc
  21               	.LFE58:
  22               	.sizeOS_ConvertToArrayIndex, .-OS_ConvertToArrayIndex
  23               	.commCFE_ES_Global,34812,4
  24               	.commCFE_ES_ResetDataPtr,4,4
  25               	.section.rodata
  26               	.LC0:
  27 0000 4553 2053 	.string"ES Startup: CFE_ES_Main in EARLY_INIT state\n"
  27      7461 7274 
  27      7570 3A20 
  27      4346 455F 
  27      4553 5F4D 
  28               	.LC1:
  29 002d 4553 5F44 	.string"ES_DATA_MUTEX"
  29      4154 415F 
  29      4D55 5445 
  29      5800 
  30               	.LC2:
  31 003b 4553 2053 	.string"ES Startup: Error: ES Shared Data Mutex could not be created. RC=0x%08X\n"
  31      7461 7274 
  31      7570 3A20 
  31      4572 726F 
  31      723A 2045 
  32               	.LC3:
  33 0084 4553 2053 	.string"ES Startup: CFE_ES_Main entering CORE_STARTUP state\n"
  33      7461 7274 
  33      7570 3A20 
  33      4346 455F 
  33      4553 5F4D 
  34               	.LC4:
  35 00b9 4553 2053 	.string"ES Startup: CFE_ES_Main entering CORE_READY state\n"
  35      7461 7274 
  35      7570 3A20 
  35      4346 455F 
  35      4553 5F4D 
  36               	.LC5:
  37 00ec 4553 2053 	.string"ES Startup: Startup Sync failed - Applications may not have all started\n"
  37      7461 7274 
  37      7570 3A20 
  37      5374 6172 
  37      7475 7020 
68K GAS   			page 10


  38               	.LC6:
  39 0135 4553 2053 	.string"ES Startup: CFE_ES_Main entering OPERATIONAL state\n"
  39      7461 7274 
  39      7570 3A20 
  39      4346 455F 
  39      4553 5F4D 
  40               	.text
  41               	.align2
  42               	.globlCFE_ES_Main
  43               	.typeCFE_ES_Main, @function
  44               	CFE_ES_Main:
  45               	.LFB59:
  46               	.file 2 "/home/simulink/cFS_FreeRTOS_seL4/cfe/fsw/cfe-core/src/es/cfe_es_start.c"
   1:/home/simulink/cFS_FreeRTOS_seL4/cfe/fsw/cfe-core/src/es/cfe_es_start.c **** /*
   2:/home/simulink/cFS_FreeRTOS_seL4/cfe/fsw/cfe-core/src/es/cfe_es_start.c **** **  File: 
   3:/home/simulink/cFS_FreeRTOS_seL4/cfe/fsw/cfe-core/src/es/cfe_es_start.c **** **  cfe_es_start.c
   4:/home/simulink/cFS_FreeRTOS_seL4/cfe/fsw/cfe-core/src/es/cfe_es_start.c **** **
   5:/home/simulink/cFS_FreeRTOS_seL4/cfe/fsw/cfe-core/src/es/cfe_es_start.c **** **
   6:/home/simulink/cFS_FreeRTOS_seL4/cfe/fsw/cfe-core/src/es/cfe_es_start.c **** **
   7:/home/simulink/cFS_FreeRTOS_seL4/cfe/fsw/cfe-core/src/es/cfe_es_start.c **** **      Copyright (c) 2004-2012, United States government as represented by the 
   8:/home/simulink/cFS_FreeRTOS_seL4/cfe/fsw/cfe-core/src/es/cfe_es_start.c **** **      administrator of the National Aeronautics Space Administration.  
   9:/home/simulink/cFS_FreeRTOS_seL4/cfe/fsw/cfe-core/src/es/cfe_es_start.c **** **      All rights reserved. This software(cFE) was created at NASA's Goddard 
  10:/home/simulink/cFS_FreeRTOS_seL4/cfe/fsw/cfe-core/src/es/cfe_es_start.c **** **      Space Flight Center pursuant to government contracts.
  11:/home/simulink/cFS_FreeRTOS_seL4/cfe/fsw/cfe-core/src/es/cfe_es_start.c **** **
  12:/home/simulink/cFS_FreeRTOS_seL4/cfe/fsw/cfe-core/src/es/cfe_es_start.c **** **      This is governed by the NASA Open Source Agreement and may be used, 
  13:/home/simulink/cFS_FreeRTOS_seL4/cfe/fsw/cfe-core/src/es/cfe_es_start.c **** **      distributed and modified only pursuant to the terms of that agreement.
  14:/home/simulink/cFS_FreeRTOS_seL4/cfe/fsw/cfe-core/src/es/cfe_es_start.c **** **
  15:/home/simulink/cFS_FreeRTOS_seL4/cfe/fsw/cfe-core/src/es/cfe_es_start.c **** **  Purpose:
  16:/home/simulink/cFS_FreeRTOS_seL4/cfe/fsw/cfe-core/src/es/cfe_es_start.c **** **  This file contains the Main entrypoint and startup code for the cFE core.
  17:/home/simulink/cFS_FreeRTOS_seL4/cfe/fsw/cfe-core/src/es/cfe_es_start.c **** **  The entry point is called by the board support package for the OS. When the
  18:/home/simulink/cFS_FreeRTOS_seL4/cfe/fsw/cfe-core/src/es/cfe_es_start.c **** **  entry point is finished, the cFE should be fully initialized and running.
  19:/home/simulink/cFS_FreeRTOS_seL4/cfe/fsw/cfe-core/src/es/cfe_es_start.c **** **
  20:/home/simulink/cFS_FreeRTOS_seL4/cfe/fsw/cfe-core/src/es/cfe_es_start.c **** **  References:
  21:/home/simulink/cFS_FreeRTOS_seL4/cfe/fsw/cfe-core/src/es/cfe_es_start.c **** **     Flight Software Branch C Coding Standard Version 1.0a
  22:/home/simulink/cFS_FreeRTOS_seL4/cfe/fsw/cfe-core/src/es/cfe_es_start.c **** **     cFE Flight Software Application Developers Guide
  23:/home/simulink/cFS_FreeRTOS_seL4/cfe/fsw/cfe-core/src/es/cfe_es_start.c **** **
  24:/home/simulink/cFS_FreeRTOS_seL4/cfe/fsw/cfe-core/src/es/cfe_es_start.c **** **  $Log: cfe_es_start.c  $
  25:/home/simulink/cFS_FreeRTOS_seL4/cfe/fsw/cfe-core/src/es/cfe_es_start.c **** **  Revision 1.16 2014/09/05 11:39:05GMT-05:00 acudmore 
  26:/home/simulink/cFS_FreeRTOS_seL4/cfe/fsw/cfe-core/src/es/cfe_es_start.c **** **  Updated CFE_ES_SetupResetVariables to correctly log the Boot Source ( bank ) and clarify ERLog 
  27:/home/simulink/cFS_FreeRTOS_seL4/cfe/fsw/cfe-core/src/es/cfe_es_start.c **** **  Revision 1.15 2014/08/22 15:50:11GMT-05:00 lwalling 
  28:/home/simulink/cFS_FreeRTOS_seL4/cfe/fsw/cfe-core/src/es/cfe_es_start.c **** **  Changed signed loop counters to unsigned
  29:/home/simulink/cFS_FreeRTOS_seL4/cfe/fsw/cfe-core/src/es/cfe_es_start.c **** **  Revision 1.14 2014/07/23 15:39:42EDT acudmore 
  30:/home/simulink/cFS_FreeRTOS_seL4/cfe/fsw/cfe-core/src/es/cfe_es_start.c **** **  Changed where processor reset count is incremented to make it more consistent.
  31:/home/simulink/cFS_FreeRTOS_seL4/cfe/fsw/cfe-core/src/es/cfe_es_start.c **** **  Removed 2nd ERLog entry when a processor reset reverts to a power on reset.
  32:/home/simulink/cFS_FreeRTOS_seL4/cfe/fsw/cfe-core/src/es/cfe_es_start.c **** **  Clarified ERlog entry text.
  33:/home/simulink/cFS_FreeRTOS_seL4/cfe/fsw/cfe-core/src/es/cfe_es_start.c **** **  Revision 1.13 2012/10/01 16:29:46GMT-05:00 aschoeni 
  34:/home/simulink/cFS_FreeRTOS_seL4/cfe/fsw/cfe-core/src/es/cfe_es_start.c **** **  Fixed missing parenthesis issue
  35:/home/simulink/cFS_FreeRTOS_seL4/cfe/fsw/cfe-core/src/es/cfe_es_start.c **** **  Revision 1.12 2012/07/16 16:18:21EDT lwalling 
  36:/home/simulink/cFS_FreeRTOS_seL4/cfe/fsw/cfe-core/src/es/cfe_es_start.c **** **  Added code to release stuck startup sync semaphore
  37:/home/simulink/cFS_FreeRTOS_seL4/cfe/fsw/cfe-core/src/es/cfe_es_start.c **** **  Revision 1.11 2012/01/13 08:50:04PST acudmore 
  38:/home/simulink/cFS_FreeRTOS_seL4/cfe/fsw/cfe-core/src/es/cfe_es_start.c **** **  Changed license text to reflect open source
  39:/home/simulink/cFS_FreeRTOS_seL4/cfe/fsw/cfe-core/src/es/cfe_es_start.c **** **  Revision 1.10 2010/11/08 12:33:04EST acudmore 
  40:/home/simulink/cFS_FreeRTOS_seL4/cfe/fsw/cfe-core/src/es/cfe_es_start.c **** **  Updated logic that checks for max processor reset count during a non-cfe caused reset ( watchdo
  41:/home/simulink/cFS_FreeRTOS_seL4/cfe/fsw/cfe-core/src/es/cfe_es_start.c **** **  Revision 1.9 2010/11/05 15:54:34EDT aschoeni 
  42:/home/simulink/cFS_FreeRTOS_seL4/cfe/fsw/cfe-core/src/es/cfe_es_start.c **** **  Added Generic Counter API to ES
  43:/home/simulink/cFS_FreeRTOS_seL4/cfe/fsw/cfe-core/src/es/cfe_es_start.c **** **  Revision 1.8 2010/11/04 14:05:56EDT acudmore 
  44:/home/simulink/cFS_FreeRTOS_seL4/cfe/fsw/cfe-core/src/es/cfe_es_start.c **** **  Added ram disk mount path configuration option.
68K GAS   			page 11


  45:/home/simulink/cFS_FreeRTOS_seL4/cfe/fsw/cfe-core/src/es/cfe_es_start.c **** **  Revision 1.7 2010/09/21 15:52:17EDT jmdagost 
  46:/home/simulink/cFS_FreeRTOS_seL4/cfe/fsw/cfe-core/src/es/cfe_es_start.c **** **  Replaced syslog argument RetStatus with BlocksFree.
  47:/home/simulink/cFS_FreeRTOS_seL4/cfe/fsw/cfe-core/src/es/cfe_es_start.c **** **  Revision 1.6 2009/07/30 16:06:55EDT acudmore 
  48:/home/simulink/cFS_FreeRTOS_seL4/cfe/fsw/cfe-core/src/es/cfe_es_start.c **** **  Fixed check for blocks free in RAM disk ( > vs >= )
  49:/home/simulink/cFS_FreeRTOS_seL4/cfe/fsw/cfe-core/src/es/cfe_es_start.c **** **  Revision 1.5 2009/07/28 16:33:19EDT jmdagost 
  50:/home/simulink/cFS_FreeRTOS_seL4/cfe/fsw/cfe-core/src/es/cfe_es_start.c **** **  Replaced 3 references to filename with references to function name.
  51:/home/simulink/cFS_FreeRTOS_seL4/cfe/fsw/cfe-core/src/es/cfe_es_start.c **** **  Revision 1.4 2009/06/10 09:09:01EDT acudmore 
  52:/home/simulink/cFS_FreeRTOS_seL4/cfe/fsw/cfe-core/src/es/cfe_es_start.c **** **  Converted OS_Mem* and OS_BSP* API to CFE_PSP_* API
  53:/home/simulink/cFS_FreeRTOS_seL4/cfe/fsw/cfe-core/src/es/cfe_es_start.c **** **  Revision 1.3 2008/07/30 14:53:30EDT apcudmore 
  54:/home/simulink/cFS_FreeRTOS_seL4/cfe/fsw/cfe-core/src/es/cfe_es_start.c **** **  Updated init code for startup sync support.
  55:/home/simulink/cFS_FreeRTOS_seL4/cfe/fsw/cfe-core/src/es/cfe_es_start.c **** **  Revision 1.2 2008/06/20 15:40:32EDT apcudmore 
  56:/home/simulink/cFS_FreeRTOS_seL4/cfe/fsw/cfe-core/src/es/cfe_es_start.c **** **  Added support for OSAL based module loader
  57:/home/simulink/cFS_FreeRTOS_seL4/cfe/fsw/cfe-core/src/es/cfe_es_start.c **** **   - Removed calls and references to the BSP based module loader
  58:/home/simulink/cFS_FreeRTOS_seL4/cfe/fsw/cfe-core/src/es/cfe_es_start.c **** **  Revision 1.1 2008/04/17 08:05:08EDT ruperera 
  59:/home/simulink/cFS_FreeRTOS_seL4/cfe/fsw/cfe-core/src/es/cfe_es_start.c **** **  Initial revision
  60:/home/simulink/cFS_FreeRTOS_seL4/cfe/fsw/cfe-core/src/es/cfe_es_start.c **** **  Member added to project c:/MKSDATA/MKS-REPOSITORY/MKS-CFE-PROJECT/fsw/cfe-core/src/es/project.p
  61:/home/simulink/cFS_FreeRTOS_seL4/cfe/fsw/cfe-core/src/es/cfe_es_start.c **** **  Revision 1.46 2007/09/21 15:40:20EDT David Kobe (dlkobe) 
  62:/home/simulink/cFS_FreeRTOS_seL4/cfe/fsw/cfe-core/src/es/cfe_es_start.c **** **  Modified pointer type definitions to eliminate Linux gcc compile warnings
  63:/home/simulink/cFS_FreeRTOS_seL4/cfe/fsw/cfe-core/src/es/cfe_es_start.c **** **  Revision 1.45 2007/05/31 10:13:56EDT apcudmore 
  64:/home/simulink/cFS_FreeRTOS_seL4/cfe/fsw/cfe-core/src/es/cfe_es_start.c **** **  Fixed Syslog message text for Volatile Disk initialization
  65:/home/simulink/cFS_FreeRTOS_seL4/cfe/fsw/cfe-core/src/es/cfe_es_start.c **** **  Revision 1.44 2007/05/30 10:26:06EDT apcudmore 
  66:/home/simulink/cFS_FreeRTOS_seL4/cfe/fsw/cfe-core/src/es/cfe_es_start.c **** **  Added Exception handler support:
  67:/home/simulink/cFS_FreeRTOS_seL4/cfe/fsw/cfe-core/src/es/cfe_es_start.c **** **   - BSP routine to attach processor exceptions
  68:/home/simulink/cFS_FreeRTOS_seL4/cfe/fsw/cfe-core/src/es/cfe_es_start.c **** **   - context datatype and size define
  69:/home/simulink/cFS_FreeRTOS_seL4/cfe/fsw/cfe-core/src/es/cfe_es_start.c **** **   - added default exception init for each app+task
  70:/home/simulink/cFS_FreeRTOS_seL4/cfe/fsw/cfe-core/src/es/cfe_es_start.c **** **  Revision 1.43 2007/05/25 14:20:10EDT apcudmore 
  71:/home/simulink/cFS_FreeRTOS_seL4/cfe/fsw/cfe-core/src/es/cfe_es_start.c **** **  Fixed compiler warnings
  72:/home/simulink/cFS_FreeRTOS_seL4/cfe/fsw/cfe-core/src/es/cfe_es_start.c **** **  Revision 1.42 2007/05/25 10:38:12EDT apcudmore 
  73:/home/simulink/cFS_FreeRTOS_seL4/cfe/fsw/cfe-core/src/es/cfe_es_start.c **** **  Added OS_rmfs call to remove file system before reformatting it.
  74:/home/simulink/cFS_FreeRTOS_seL4/cfe/fsw/cfe-core/src/es/cfe_es_start.c **** **  Revision 1.41 2007/05/25 10:02:42EDT apcudmore 
  75:/home/simulink/cFS_FreeRTOS_seL4/cfe/fsw/cfe-core/src/es/cfe_es_start.c **** **  Fixed Typo and Moved WriteToSysLog call
  76:/home/simulink/cFS_FreeRTOS_seL4/cfe/fsw/cfe-core/src/es/cfe_es_start.c **** **  Revision 1.40 2007/05/24 15:09:23EDT apcudmore 
  77:/home/simulink/cFS_FreeRTOS_seL4/cfe/fsw/cfe-core/src/es/cfe_es_start.c **** **  App-Decompression updates:
  78:/home/simulink/cFS_FreeRTOS_seL4/cfe/fsw/cfe-core/src/es/cfe_es_start.c **** **    - Added verify macros for PERCENT_FREE config parameter
  79:/home/simulink/cFS_FreeRTOS_seL4/cfe/fsw/cfe-core/src/es/cfe_es_start.c **** **    - Updated comments in config files
  80:/home/simulink/cFS_FreeRTOS_seL4/cfe/fsw/cfe-core/src/es/cfe_es_start.c **** **    - Updated logic to turn off check if RAM_DISK_PERCENT_FREE is 0
  81:/home/simulink/cFS_FreeRTOS_seL4/cfe/fsw/cfe-core/src/es/cfe_es_start.c **** **  Revision 1.39 2007/05/24 10:57:48EDT apcudmore 
  82:/home/simulink/cFS_FreeRTOS_seL4/cfe/fsw/cfe-core/src/es/cfe_es_start.c **** **  Application Decompression Support:
  83:/home/simulink/cFS_FreeRTOS_seL4/cfe/fsw/cfe-core/src/es/cfe_es_start.c **** **   - Added configuration parameter for Percent of space free in Volatile disk on a P.R.
  84:/home/simulink/cFS_FreeRTOS_seL4/cfe/fsw/cfe-core/src/es/cfe_es_start.c **** **   - Added logic to check for amount of free space and reformat RAM disk if needed on a P.R.
  85:/home/simulink/cFS_FreeRTOS_seL4/cfe/fsw/cfe-core/src/es/cfe_es_start.c **** **   - Fixed warnings in decompression code.
  86:/home/simulink/cFS_FreeRTOS_seL4/cfe/fsw/cfe-core/src/es/cfe_es_start.c **** **  Revision 1.38 2007/05/22 14:56:55EDT apcudmore 
  87:/home/simulink/cFS_FreeRTOS_seL4/cfe/fsw/cfe-core/src/es/cfe_es_start.c **** **  cFE Non-Volatile Disk/Startup File changes:
  88:/home/simulink/cFS_FreeRTOS_seL4/cfe/fsw/cfe-core/src/es/cfe_es_start.c **** **    - cFE startup now passes in startup file path/name
  89:/home/simulink/cFS_FreeRTOS_seL4/cfe/fsw/cfe-core/src/es/cfe_es_start.c **** **    - cFE startup code does not init non-volatile disk ( BSP does )
  90:/home/simulink/cFS_FreeRTOS_seL4/cfe/fsw/cfe-core/src/es/cfe_es_start.c **** **    - BSPs now can map cFE paths without making the OS_initfs/OS_mount calls
  91:/home/simulink/cFS_FreeRTOS_seL4/cfe/fsw/cfe-core/src/es/cfe_es_start.c **** **    - MCP750 vxWorks6.2 BSP inits/mounts CF disk
  92:/home/simulink/cFS_FreeRTOS_seL4/cfe/fsw/cfe-core/src/es/cfe_es_start.c **** **    - Desktop ports pass in the same startup file path/name as before
  93:/home/simulink/cFS_FreeRTOS_seL4/cfe/fsw/cfe-core/src/es/cfe_es_start.c **** **  Revision 1.37 2007/05/07 15:56:32EDT apcudmore 
  94:/home/simulink/cFS_FreeRTOS_seL4/cfe/fsw/cfe-core/src/es/cfe_es_start.c **** **  Removed all ES startup semaphore code
  95:/home/simulink/cFS_FreeRTOS_seL4/cfe/fsw/cfe-core/src/es/cfe_es_start.c **** **  Removed all ES startup delays.
  96:/home/simulink/cFS_FreeRTOS_seL4/cfe/fsw/cfe-core/src/es/cfe_es_start.c **** **  Startup sync problems ( seem to be ) eliminated by protecting the ES global data tables with a 
  97:/home/simulink/cFS_FreeRTOS_seL4/cfe/fsw/cfe-core/src/es/cfe_es_start.c **** **  Revision 1.36 2007/05/04 15:58:36EDT apcudmore 
  98:/home/simulink/cFS_FreeRTOS_seL4/cfe/fsw/cfe-core/src/es/cfe_es_start.c **** **  Implemented ES shared data protection. Eliminates Startup syncronization problem.
  99:/home/simulink/cFS_FreeRTOS_seL4/cfe/fsw/cfe-core/src/es/cfe_es_start.c **** **  Revision 1.35 2007/04/13 16:28:52EDT apcudmore 
 100:/home/simulink/cFS_FreeRTOS_seL4/cfe/fsw/cfe-core/src/es/cfe_es_start.c **** **  Changed function prototype to return int32 status on the ES Object table functions. 
 101:/home/simulink/cFS_FreeRTOS_seL4/cfe/fsw/cfe-core/src/es/cfe_es_start.c **** **  ES will now call OS_BSPPanic when the function returns something other than CFE_SUCCESS
68K GAS   			page 12


 102:/home/simulink/cFS_FreeRTOS_seL4/cfe/fsw/cfe-core/src/es/cfe_es_start.c **** **  Revision 1.34 2007/04/10 13:50:46EDT rjmcgraw 
 103:/home/simulink/cFS_FreeRTOS_seL4/cfe/fsw/cfe-core/src/es/cfe_es_start.c **** **  Renamed function setupAnalyzerVariables to SetupPerfVariables
 104:/home/simulink/cFS_FreeRTOS_seL4/cfe/fsw/cfe-core/src/es/cfe_es_start.c **** **  Revision 1.33 2007/03/29 13:29:16EST apcudmore 
 105:/home/simulink/cFS_FreeRTOS_seL4/cfe/fsw/cfe-core/src/es/cfe_es_start.c **** **  Updated global variables and housekeeping to count:
 106:/home/simulink/cFS_FreeRTOS_seL4/cfe/fsw/cfe-core/src/es/cfe_es_start.c **** **  - Registered Core Apps
 107:/home/simulink/cFS_FreeRTOS_seL4/cfe/fsw/cfe-core/src/es/cfe_es_start.c **** **  - Registered External Apps
 108:/home/simulink/cFS_FreeRTOS_seL4/cfe/fsw/cfe-core/src/es/cfe_es_start.c **** **  - ALL Tasks 
 109:/home/simulink/cFS_FreeRTOS_seL4/cfe/fsw/cfe-core/src/es/cfe_es_start.c **** **  Revision 1.32 2007/03/22 10:26:23EST apcudmore 
 110:/home/simulink/cFS_FreeRTOS_seL4/cfe/fsw/cfe-core/src/es/cfe_es_start.c **** **  Implemented all code walkthrough items related to ES Application logic, commands, 
 111:/home/simulink/cFS_FreeRTOS_seL4/cfe/fsw/cfe-core/src/es/cfe_es_start.c **** **  and telemetry.
 112:/home/simulink/cFS_FreeRTOS_seL4/cfe/fsw/cfe-core/src/es/cfe_es_start.c **** **  Revision 1.31 2007/03/13 14:32:37EST apcudmore 
 113:/home/simulink/cFS_FreeRTOS_seL4/cfe/fsw/cfe-core/src/es/cfe_es_start.c **** **  Fixed ES Startup code walkthrough items.
 114:/home/simulink/cFS_FreeRTOS_seL4/cfe/fsw/cfe-core/src/es/cfe_es_start.c **** */
 115:/home/simulink/cFS_FreeRTOS_seL4/cfe/fsw/cfe-core/src/es/cfe_es_start.c **** 
 116:/home/simulink/cFS_FreeRTOS_seL4/cfe/fsw/cfe-core/src/es/cfe_es_start.c **** /*
 117:/home/simulink/cFS_FreeRTOS_seL4/cfe/fsw/cfe-core/src/es/cfe_es_start.c **** ** Includes
 118:/home/simulink/cFS_FreeRTOS_seL4/cfe/fsw/cfe-core/src/es/cfe_es_start.c **** */
 119:/home/simulink/cFS_FreeRTOS_seL4/cfe/fsw/cfe-core/src/es/cfe_es_start.c **** 
 120:/home/simulink/cFS_FreeRTOS_seL4/cfe/fsw/cfe-core/src/es/cfe_es_start.c **** #include "private/cfe_private.h"
 121:/home/simulink/cFS_FreeRTOS_seL4/cfe/fsw/cfe-core/src/es/cfe_es_start.c **** #include "cfe_es.h"
 122:/home/simulink/cFS_FreeRTOS_seL4/cfe/fsw/cfe-core/src/es/cfe_es_start.c **** #include "cfe_es_global.h"       
 123:/home/simulink/cFS_FreeRTOS_seL4/cfe/fsw/cfe-core/src/es/cfe_es_start.c **** #include "cfe_es_start.h" 
 124:/home/simulink/cFS_FreeRTOS_seL4/cfe/fsw/cfe-core/src/es/cfe_es_start.c **** #include "cfe_es_apps.h"
 125:/home/simulink/cFS_FreeRTOS_seL4/cfe/fsw/cfe-core/src/es/cfe_es_start.c **** #include "cfe_es_log.h"
 126:/home/simulink/cFS_FreeRTOS_seL4/cfe/fsw/cfe-core/src/es/cfe_es_start.c **** #include "cfe_psp.h"
 127:/home/simulink/cFS_FreeRTOS_seL4/cfe/fsw/cfe-core/src/es/cfe_es_start.c **** 
 128:/home/simulink/cFS_FreeRTOS_seL4/cfe/fsw/cfe-core/src/es/cfe_es_start.c **** #include <stdio.h>
 129:/home/simulink/cFS_FreeRTOS_seL4/cfe/fsw/cfe-core/src/es/cfe_es_start.c **** #include <string.h>
 130:/home/simulink/cFS_FreeRTOS_seL4/cfe/fsw/cfe-core/src/es/cfe_es_start.c **** 
 131:/home/simulink/cFS_FreeRTOS_seL4/cfe/fsw/cfe-core/src/es/cfe_es_start.c **** /***************************************************************************/
 132:/home/simulink/cFS_FreeRTOS_seL4/cfe/fsw/cfe-core/src/es/cfe_es_start.c **** 
 133:/home/simulink/cFS_FreeRTOS_seL4/cfe/fsw/cfe-core/src/es/cfe_es_start.c **** /*
 134:/home/simulink/cFS_FreeRTOS_seL4/cfe/fsw/cfe-core/src/es/cfe_es_start.c **** ** Defines for this module
 135:/home/simulink/cFS_FreeRTOS_seL4/cfe/fsw/cfe-core/src/es/cfe_es_start.c **** */
 136:/home/simulink/cFS_FreeRTOS_seL4/cfe/fsw/cfe-core/src/es/cfe_es_start.c **** 
 137:/home/simulink/cFS_FreeRTOS_seL4/cfe/fsw/cfe-core/src/es/cfe_es_start.c **** /* 
 138:/home/simulink/cFS_FreeRTOS_seL4/cfe/fsw/cfe-core/src/es/cfe_es_start.c **** ** Number of msecs to delay before exiting cFE. Allows LogMsg to get through 
 139:/home/simulink/cFS_FreeRTOS_seL4/cfe/fsw/cfe-core/src/es/cfe_es_start.c **** */
 140:/home/simulink/cFS_FreeRTOS_seL4/cfe/fsw/cfe-core/src/es/cfe_es_start.c **** #define CFE_ES_PANIC_DELAY  500
 141:/home/simulink/cFS_FreeRTOS_seL4/cfe/fsw/cfe-core/src/es/cfe_es_start.c **** 
 142:/home/simulink/cFS_FreeRTOS_seL4/cfe/fsw/cfe-core/src/es/cfe_es_start.c **** 
 143:/home/simulink/cFS_FreeRTOS_seL4/cfe/fsw/cfe-core/src/es/cfe_es_start.c **** /*
 144:/home/simulink/cFS_FreeRTOS_seL4/cfe/fsw/cfe-core/src/es/cfe_es_start.c **** ** Global data for the ES startup code and Runtime library
 145:/home/simulink/cFS_FreeRTOS_seL4/cfe/fsw/cfe-core/src/es/cfe_es_start.c **** */
 146:/home/simulink/cFS_FreeRTOS_seL4/cfe/fsw/cfe-core/src/es/cfe_es_start.c **** CFE_ES_Global_t     CFE_ES_Global;
 147:/home/simulink/cFS_FreeRTOS_seL4/cfe/fsw/cfe-core/src/es/cfe_es_start.c **** 
 148:/home/simulink/cFS_FreeRTOS_seL4/cfe/fsw/cfe-core/src/es/cfe_es_start.c **** /*
 149:/home/simulink/cFS_FreeRTOS_seL4/cfe/fsw/cfe-core/src/es/cfe_es_start.c **** ** Pointer to the Reset data that is preserved on a processor reset
 150:/home/simulink/cFS_FreeRTOS_seL4/cfe/fsw/cfe-core/src/es/cfe_es_start.c **** */
 151:/home/simulink/cFS_FreeRTOS_seL4/cfe/fsw/cfe-core/src/es/cfe_es_start.c **** CFE_ES_ResetData_t  *CFE_ES_ResetDataPtr;
 152:/home/simulink/cFS_FreeRTOS_seL4/cfe/fsw/cfe-core/src/es/cfe_es_start.c **** 
 153:/home/simulink/cFS_FreeRTOS_seL4/cfe/fsw/cfe-core/src/es/cfe_es_start.c **** 
 154:/home/simulink/cFS_FreeRTOS_seL4/cfe/fsw/cfe-core/src/es/cfe_es_start.c **** /***************************************************************************/
 155:/home/simulink/cFS_FreeRTOS_seL4/cfe/fsw/cfe-core/src/es/cfe_es_start.c **** /*
 156:/home/simulink/cFS_FreeRTOS_seL4/cfe/fsw/cfe-core/src/es/cfe_es_start.c **** ** Code
 157:/home/simulink/cFS_FreeRTOS_seL4/cfe/fsw/cfe-core/src/es/cfe_es_start.c **** */
 158:/home/simulink/cFS_FreeRTOS_seL4/cfe/fsw/cfe-core/src/es/cfe_es_start.c **** 
68K GAS   			page 13


 159:/home/simulink/cFS_FreeRTOS_seL4/cfe/fsw/cfe-core/src/es/cfe_es_start.c **** /*
 160:/home/simulink/cFS_FreeRTOS_seL4/cfe/fsw/cfe-core/src/es/cfe_es_start.c **** ** Name: CFE_ES_Main
 161:/home/simulink/cFS_FreeRTOS_seL4/cfe/fsw/cfe-core/src/es/cfe_es_start.c **** ** Purpose: This is the entry point to the cFE application code.
 162:/home/simulink/cFS_FreeRTOS_seL4/cfe/fsw/cfe-core/src/es/cfe_es_start.c **** **
 163:/home/simulink/cFS_FreeRTOS_seL4/cfe/fsw/cfe-core/src/es/cfe_es_start.c **** */
 164:/home/simulink/cFS_FreeRTOS_seL4/cfe/fsw/cfe-core/src/es/cfe_es_start.c **** void CFE_ES_Main(uint32 StartType, uint32 StartSubtype, uint32 ModeId, const char *StartFilePath )
 165:/home/simulink/cFS_FreeRTOS_seL4/cfe/fsw/cfe-core/src/es/cfe_es_start.c **** {
  47               	.loc 2 165 0
  48               	.cfi_startproc
  49 000c 518F      	subq.l #8,%sp
  50               	.cfi_def_cfa_offset 12
 166:/home/simulink/cFS_FreeRTOS_seL4/cfe/fsw/cfe-core/src/es/cfe_es_start.c ****    uint32 i;
 167:/home/simulink/cFS_FreeRTOS_seL4/cfe/fsw/cfe-core/src/es/cfe_es_start.c ****    int32 ReturnCode;
 168:/home/simulink/cFS_FreeRTOS_seL4/cfe/fsw/cfe-core/src/es/cfe_es_start.c **** 
 169:/home/simulink/cFS_FreeRTOS_seL4/cfe/fsw/cfe-core/src/es/cfe_es_start.c ****    /*
 170:/home/simulink/cFS_FreeRTOS_seL4/cfe/fsw/cfe-core/src/es/cfe_es_start.c ****    ** Indicate that the CFE is the earliest initialization state
 171:/home/simulink/cFS_FreeRTOS_seL4/cfe/fsw/cfe-core/src/es/cfe_es_start.c ****    */
 172:/home/simulink/cFS_FreeRTOS_seL4/cfe/fsw/cfe-core/src/es/cfe_es_start.c ****    CFE_ES_Global.SystemState = CFE_ES_SYSTEM_STATE_EARLY_INIT;
  51               	.loc 2 172 0
  52 000e 7001      	moveq #1,%d0
  53 0010 23C0 0000 	move.l %d0,CFE_ES_Global+28
  53      0000 
 173:/home/simulink/cFS_FreeRTOS_seL4/cfe/fsw/cfe-core/src/es/cfe_es_start.c **** 
 174:/home/simulink/cFS_FreeRTOS_seL4/cfe/fsw/cfe-core/src/es/cfe_es_start.c ****    /*
 175:/home/simulink/cFS_FreeRTOS_seL4/cfe/fsw/cfe-core/src/es/cfe_es_start.c ****    ** Initialize the Reset variables. This call is required
 176:/home/simulink/cFS_FreeRTOS_seL4/cfe/fsw/cfe-core/src/es/cfe_es_start.c ****    ** Before most of the ES functions can be used including the 
 177:/home/simulink/cFS_FreeRTOS_seL4/cfe/fsw/cfe-core/src/es/cfe_es_start.c ****    ** ES System log.
 178:/home/simulink/cFS_FreeRTOS_seL4/cfe/fsw/cfe-core/src/es/cfe_es_start.c ****    */
 179:/home/simulink/cFS_FreeRTOS_seL4/cfe/fsw/cfe-core/src/es/cfe_es_start.c ****    CFE_ES_SetupResetVariables(StartType, StartSubtype, ModeId);
  54               	.loc 2 179 0
  55 0016 2F2F 0014 	move.l 20(%sp),-(%sp)
  56               	.cfi_def_cfa_offset 16
  57 001a 2F2F 0014 	move.l 20(%sp),-(%sp)
  58               	.cfi_def_cfa_offset 20
  59 001e 2F2F 0014 	move.l 20(%sp),-(%sp)
  60               	.cfi_def_cfa_offset 24
  61 0022 4EB9 0000 	jsr CFE_ES_SetupResetVariables
  61      0000 
  62 0028 4FEF 000C 	lea (12,%sp),%sp
  63               	.cfi_def_cfa_offset 12
 180:/home/simulink/cFS_FreeRTOS_seL4/cfe/fsw/cfe-core/src/es/cfe_es_start.c **** 
 181:/home/simulink/cFS_FreeRTOS_seL4/cfe/fsw/cfe-core/src/es/cfe_es_start.c ****    /*
 182:/home/simulink/cFS_FreeRTOS_seL4/cfe/fsw/cfe-core/src/es/cfe_es_start.c ****    ** Initialize the Logic Perf variables
 183:/home/simulink/cFS_FreeRTOS_seL4/cfe/fsw/cfe-core/src/es/cfe_es_start.c ****    ** Because this is in the ES Reset area, it must be called after
 184:/home/simulink/cFS_FreeRTOS_seL4/cfe/fsw/cfe-core/src/es/cfe_es_start.c ****    ** CFE_ES_SetupResetVariables.
 185:/home/simulink/cFS_FreeRTOS_seL4/cfe/fsw/cfe-core/src/es/cfe_es_start.c ****    */
 186:/home/simulink/cFS_FreeRTOS_seL4/cfe/fsw/cfe-core/src/es/cfe_es_start.c ****    CFE_ES_SetupPerfVariables(StartType);
  64               	.loc 2 186 0
  65 002c 2F2F 000C 	move.l 12(%sp),-(%sp)
  66               	.cfi_def_cfa_offset 16
  67 0030 4EB9 0000 	jsr CFE_ES_SetupPerfVariables
  67      0000 
  68 0036 588F      	addq.l #4,%sp
  69               	.cfi_def_cfa_offset 12
 187:/home/simulink/cFS_FreeRTOS_seL4/cfe/fsw/cfe-core/src/es/cfe_es_start.c **** 
 188:/home/simulink/cFS_FreeRTOS_seL4/cfe/fsw/cfe-core/src/es/cfe_es_start.c ****    /*
 189:/home/simulink/cFS_FreeRTOS_seL4/cfe/fsw/cfe-core/src/es/cfe_es_start.c ****    ** Announce the startup
68K GAS   			page 14


 190:/home/simulink/cFS_FreeRTOS_seL4/cfe/fsw/cfe-core/src/es/cfe_es_start.c ****    */
 191:/home/simulink/cFS_FreeRTOS_seL4/cfe/fsw/cfe-core/src/es/cfe_es_start.c ****    CFE_ES_WriteToSysLog("ES Startup: CFE_ES_Main in EARLY_INIT state\n");
  70               	.loc 2 191 0
  71 0038 4879 0000 	pea .LC0
  71      0000 
  72               	.cfi_def_cfa_offset 16
  73 003e 4EB9 0000 	jsr CFE_ES_WriteToSysLog
  73      0000 
  74 0044 588F      	addq.l #4,%sp
  75               	.cfi_def_cfa_offset 12
 192:/home/simulink/cFS_FreeRTOS_seL4/cfe/fsw/cfe-core/src/es/cfe_es_start.c **** 
 193:/home/simulink/cFS_FreeRTOS_seL4/cfe/fsw/cfe-core/src/es/cfe_es_start.c ****    /*
 194:/home/simulink/cFS_FreeRTOS_seL4/cfe/fsw/cfe-core/src/es/cfe_es_start.c ****    ** Create and Mount the filesystems needed
 195:/home/simulink/cFS_FreeRTOS_seL4/cfe/fsw/cfe-core/src/es/cfe_es_start.c ****    */
 196:/home/simulink/cFS_FreeRTOS_seL4/cfe/fsw/cfe-core/src/es/cfe_es_start.c ****    CFE_ES_InitializeFileSystems(StartType);
  76               	.loc 2 196 0
  77 0046 2F2F 000C 	move.l 12(%sp),-(%sp)
  78               	.cfi_def_cfa_offset 16
  79 004a 4EB9 0000 	jsr CFE_ES_InitializeFileSystems
  79      0000 
  80 0050 588F      	addq.l #4,%sp
  81               	.cfi_def_cfa_offset 12
 197:/home/simulink/cFS_FreeRTOS_seL4/cfe/fsw/cfe-core/src/es/cfe_es_start.c ****    
 198:/home/simulink/cFS_FreeRTOS_seL4/cfe/fsw/cfe-core/src/es/cfe_es_start.c ****    /*
 199:/home/simulink/cFS_FreeRTOS_seL4/cfe/fsw/cfe-core/src/es/cfe_es_start.c ****    ** Install exception Handlers ( Placeholder )
 200:/home/simulink/cFS_FreeRTOS_seL4/cfe/fsw/cfe-core/src/es/cfe_es_start.c ****    */
 201:/home/simulink/cFS_FreeRTOS_seL4/cfe/fsw/cfe-core/src/es/cfe_es_start.c ****    CFE_PSP_AttachExceptions();
  82               	.loc 2 201 0
  83 0052 4EB9 0000 	jsr CFE_PSP_AttachExceptions
  83      0000 
 202:/home/simulink/cFS_FreeRTOS_seL4/cfe/fsw/cfe-core/src/es/cfe_es_start.c **** 
 203:/home/simulink/cFS_FreeRTOS_seL4/cfe/fsw/cfe-core/src/es/cfe_es_start.c ****    /*
 204:/home/simulink/cFS_FreeRTOS_seL4/cfe/fsw/cfe-core/src/es/cfe_es_start.c ****    ** Initialize the ES Application Table
 205:/home/simulink/cFS_FreeRTOS_seL4/cfe/fsw/cfe-core/src/es/cfe_es_start.c ****    ** to mark all entries as unused.
 206:/home/simulink/cFS_FreeRTOS_seL4/cfe/fsw/cfe-core/src/es/cfe_es_start.c ****    */
 207:/home/simulink/cFS_FreeRTOS_seL4/cfe/fsw/cfe-core/src/es/cfe_es_start.c ****    for ( i = 0; i < CFE_ES_MAX_APPLICATIONS; i++ )
  84               	.loc 2 207 0
  85 0058 42AF 0004 	clr.l 4(%sp)
  86 005c 601E      	jra .L4
  87               	.L5:
 208:/home/simulink/cFS_FreeRTOS_seL4/cfe/fsw/cfe-core/src/es/cfe_es_start.c ****    {
 209:/home/simulink/cFS_FreeRTOS_seL4/cfe/fsw/cfe-core/src/es/cfe_es_start.c ****       CFE_ES_Global.AppTable[i].RecordUsed = FALSE;
  88               	.loc 2 209 0 discriminator 3
  89 005e 202F 0004 	move.l 4(%sp),%d0
  90 0062 223C 0000 	move.l #168,%d1
  90      00A8 
  91 0068 4C01 0800 	muls.l %d1,%d0
  92 006c 41F9 0000 	lea CFE_ES_Global+2348,%a0
  92      0000 
  93 0072 4201      	clr.b %d1
  94 0074 1181 0800 	move.b %d1,(%a0,%d0.l)
 207:/home/simulink/cFS_FreeRTOS_seL4/cfe/fsw/cfe-core/src/es/cfe_es_start.c ****    {
  95               	.loc 2 207 0 discriminator 3
  96 0078 52AF 0004 	addq.l #1,4(%sp)
  97               	.L4:
 207:/home/simulink/cFS_FreeRTOS_seL4/cfe/fsw/cfe-core/src/es/cfe_es_start.c ****    {
  98               	.loc 2 207 0 is_stmt 0 discriminator 1
68K GAS   			page 15


  99 007c 701F      	moveq #31,%d0
 100 007e B0AF 0004 	cmp.l 4(%sp),%d0
 101 0082 64DA      	jcc .L5
 210:/home/simulink/cFS_FreeRTOS_seL4/cfe/fsw/cfe-core/src/es/cfe_es_start.c ****    }
 211:/home/simulink/cFS_FreeRTOS_seL4/cfe/fsw/cfe-core/src/es/cfe_es_start.c ****    
 212:/home/simulink/cFS_FreeRTOS_seL4/cfe/fsw/cfe-core/src/es/cfe_es_start.c ****    /*
 213:/home/simulink/cFS_FreeRTOS_seL4/cfe/fsw/cfe-core/src/es/cfe_es_start.c ****    ** Initialize the ES Task Table
 214:/home/simulink/cFS_FreeRTOS_seL4/cfe/fsw/cfe-core/src/es/cfe_es_start.c ****    ** to mark all entries as unused.
 215:/home/simulink/cFS_FreeRTOS_seL4/cfe/fsw/cfe-core/src/es/cfe_es_start.c ****    */
 216:/home/simulink/cFS_FreeRTOS_seL4/cfe/fsw/cfe-core/src/es/cfe_es_start.c ****    for ( i = 0; i < OS_MAX_TASKS; i++ )
 102               	.loc 2 216 0 is_stmt 1
 103 0084 42AF 0004 	clr.l 4(%sp)
 104 0088 601C      	jra .L6
 105               	.L7:
 217:/home/simulink/cFS_FreeRTOS_seL4/cfe/fsw/cfe-core/src/es/cfe_es_start.c ****    {
 218:/home/simulink/cFS_FreeRTOS_seL4/cfe/fsw/cfe-core/src/es/cfe_es_start.c ****       CFE_ES_Global.TaskTable[i].RecordUsed = FALSE;
 106               	.loc 2 218 0 discriminator 3
 107 008a 202F 0004 	move.l 4(%sp),%d0
 108 008e 5280      	addq.l #1,%d0
 109 0090 7224      	moveq #36,%d1
 110 0092 4C01 0800 	muls.l %d1,%d0
 111 0096 41F9 0000 	lea CFE_ES_Global,%a0
 111      0000 
 112 009c 4201      	clr.b %d1
 113 009e 1181 0800 	move.b %d1,(%a0,%d0.l)
 216:/home/simulink/cFS_FreeRTOS_seL4/cfe/fsw/cfe-core/src/es/cfe_es_start.c ****    {
 114               	.loc 2 216 0 discriminator 3
 115 00a2 52AF 0004 	addq.l #1,4(%sp)
 116               	.L6:
 216:/home/simulink/cFS_FreeRTOS_seL4/cfe/fsw/cfe-core/src/es/cfe_es_start.c ****    {
 117               	.loc 2 216 0 is_stmt 0 discriminator 1
 118 00a6 703F      	moveq #63,%d0
 119 00a8 B0AF 0004 	cmp.l 4(%sp),%d0
 120 00ac 64DC      	jcc .L7
 219:/home/simulink/cFS_FreeRTOS_seL4/cfe/fsw/cfe-core/src/es/cfe_es_start.c ****    }
 220:/home/simulink/cFS_FreeRTOS_seL4/cfe/fsw/cfe-core/src/es/cfe_es_start.c **** 
 221:/home/simulink/cFS_FreeRTOS_seL4/cfe/fsw/cfe-core/src/es/cfe_es_start.c ****    /*
 222:/home/simulink/cFS_FreeRTOS_seL4/cfe/fsw/cfe-core/src/es/cfe_es_start.c ****    ** Initialize the ES Generic Counter Table
 223:/home/simulink/cFS_FreeRTOS_seL4/cfe/fsw/cfe-core/src/es/cfe_es_start.c ****    ** to mark all entries as unused.
 224:/home/simulink/cFS_FreeRTOS_seL4/cfe/fsw/cfe-core/src/es/cfe_es_start.c ****    */
 225:/home/simulink/cFS_FreeRTOS_seL4/cfe/fsw/cfe-core/src/es/cfe_es_start.c ****    for ( i = 0; i < CFE_ES_MAX_GEN_COUNTERS; i++ )
 121               	.loc 2 225 0 is_stmt 1
 122 00ae 42AF 0004 	clr.l 4(%sp)
 123 00b2 601A      	jra .L8
 124               	.L9:
 226:/home/simulink/cFS_FreeRTOS_seL4/cfe/fsw/cfe-core/src/es/cfe_es_start.c ****    {
 227:/home/simulink/cFS_FreeRTOS_seL4/cfe/fsw/cfe-core/src/es/cfe_es_start.c ****       CFE_ES_Global.CounterTable[i].RecordUsed = FALSE;
 125               	.loc 2 227 0 discriminator 3
 126 00b4 202F 0004 	move.l 4(%sp),%d0
 127 00b8 721C      	moveq #28,%d1
 128 00ba 4C01 0800 	muls.l %d1,%d0
 129 00be 41F9 0000 	lea CFE_ES_Global+7940,%a0
 129      0000 
 130 00c4 4201      	clr.b %d1
 131 00c6 1181 0800 	move.b %d1,(%a0,%d0.l)
 225:/home/simulink/cFS_FreeRTOS_seL4/cfe/fsw/cfe-core/src/es/cfe_es_start.c ****    {
 132               	.loc 2 225 0 discriminator 3
68K GAS   			page 16


 133 00ca 52AF 0004 	addq.l #1,4(%sp)
 134               	.L8:
 225:/home/simulink/cFS_FreeRTOS_seL4/cfe/fsw/cfe-core/src/es/cfe_es_start.c ****    {
 135               	.loc 2 225 0 is_stmt 0 discriminator 1
 136 00ce 7007      	moveq #7,%d0
 137 00d0 B0AF 0004 	cmp.l 4(%sp),%d0
 138 00d4 64DE      	jcc .L9
 228:/home/simulink/cFS_FreeRTOS_seL4/cfe/fsw/cfe-core/src/es/cfe_es_start.c ****    }
 229:/home/simulink/cFS_FreeRTOS_seL4/cfe/fsw/cfe-core/src/es/cfe_es_start.c **** 
 230:/home/simulink/cFS_FreeRTOS_seL4/cfe/fsw/cfe-core/src/es/cfe_es_start.c ****    /*
 231:/home/simulink/cFS_FreeRTOS_seL4/cfe/fsw/cfe-core/src/es/cfe_es_start.c ****    ** Create the ES Shared Data Mutex
 232:/home/simulink/cFS_FreeRTOS_seL4/cfe/fsw/cfe-core/src/es/cfe_es_start.c ****    */
 233:/home/simulink/cFS_FreeRTOS_seL4/cfe/fsw/cfe-core/src/es/cfe_es_start.c ****    ReturnCode = OS_MutSemCreate(&(CFE_ES_Global.SharedDataMutex), "ES_DATA_MUTEX", 0 );
 139               	.loc 2 233 0 is_stmt 1
 140 00d6 42A7      	clr.l -(%sp)
 141               	.cfi_def_cfa_offset 16
 142 00d8 4879 0000 	pea .LC1
 142      0000 
 143               	.cfi_def_cfa_offset 20
 144 00de 4879 0000 	pea CFE_ES_Global+16
 144      0000 
 145               	.cfi_def_cfa_offset 24
 146 00e4 4EB9 0000 	jsr OS_MutSemCreate
 146      0000 
 147 00ea 4FEF 000C 	lea (12,%sp),%sp
 148               	.cfi_def_cfa_offset 12
 149 00ee 2E80      	move.l %d0,(%sp)
 234:/home/simulink/cFS_FreeRTOS_seL4/cfe/fsw/cfe-core/src/es/cfe_es_start.c ****    if(ReturnCode != OS_SUCCESS)
 150               	.loc 2 234 0
 151 00f0 4A97      	tst.l (%sp)
 152 00f2 672A      	jeq .L10
 235:/home/simulink/cFS_FreeRTOS_seL4/cfe/fsw/cfe-core/src/es/cfe_es_start.c ****    {
 236:/home/simulink/cFS_FreeRTOS_seL4/cfe/fsw/cfe-core/src/es/cfe_es_start.c ****       CFE_ES_WriteToSysLog("ES Startup: Error: ES Shared Data Mutex could not be created. RC=0x%08X
 153               	.loc 2 236 0
 154 00f4 2017      	move.l (%sp),%d0
 155 00f6 2F00      	move.l %d0,-(%sp)
 156               	.cfi_def_cfa_offset 16
 157 00f8 4879 0000 	pea .LC2
 157      0000 
 158               	.cfi_def_cfa_offset 20
 159 00fe 4EB9 0000 	jsr CFE_ES_WriteToSysLog
 159      0000 
 160 0104 508F      	addq.l #8,%sp
 161               	.cfi_def_cfa_offset 12
 237:/home/simulink/cFS_FreeRTOS_seL4/cfe/fsw/cfe-core/src/es/cfe_es_start.c ****               (unsigned int)ReturnCode);
 238:/home/simulink/cFS_FreeRTOS_seL4/cfe/fsw/cfe-core/src/es/cfe_es_start.c ****          
 239:/home/simulink/cFS_FreeRTOS_seL4/cfe/fsw/cfe-core/src/es/cfe_es_start.c ****       /*
 240:/home/simulink/cFS_FreeRTOS_seL4/cfe/fsw/cfe-core/src/es/cfe_es_start.c ****       ** Delay to allow the message to be read
 241:/home/simulink/cFS_FreeRTOS_seL4/cfe/fsw/cfe-core/src/es/cfe_es_start.c ****       */
 242:/home/simulink/cFS_FreeRTOS_seL4/cfe/fsw/cfe-core/src/es/cfe_es_start.c ****       OS_TaskDelay(CFE_ES_PANIC_DELAY);
 162               	.loc 2 242 0
 163 0106 4878 01F4 	pea 500.w
 164               	.cfi_def_cfa_offset 16
 165 010a 4EB9 0000 	jsr OS_TaskDelay
 165      0000 
 166 0110 588F      	addq.l #4,%sp
 167               	.cfi_def_cfa_offset 12
68K GAS   			page 17


 243:/home/simulink/cFS_FreeRTOS_seL4/cfe/fsw/cfe-core/src/es/cfe_es_start.c ****       
 244:/home/simulink/cFS_FreeRTOS_seL4/cfe/fsw/cfe-core/src/es/cfe_es_start.c ****       /* 
 245:/home/simulink/cFS_FreeRTOS_seL4/cfe/fsw/cfe-core/src/es/cfe_es_start.c ****       ** cFE Cannot continue to start up. 
 246:/home/simulink/cFS_FreeRTOS_seL4/cfe/fsw/cfe-core/src/es/cfe_es_start.c ****       */
 247:/home/simulink/cFS_FreeRTOS_seL4/cfe/fsw/cfe-core/src/es/cfe_es_start.c ****       CFE_PSP_Panic(CFE_PSP_PANIC_STARTUP_SEM);
 168               	.loc 2 247 0
 169 0112 4878 0005 	pea 5.w
 170               	.cfi_def_cfa_offset 16
 171 0116 4EB9 0000 	jsr CFE_PSP_Panic
 171      0000 
 172 011c 588F      	addq.l #4,%sp
 173               	.cfi_def_cfa_offset 12
 174               	.L10:
 248:/home/simulink/cFS_FreeRTOS_seL4/cfe/fsw/cfe-core/src/es/cfe_es_start.c ****          
 249:/home/simulink/cFS_FreeRTOS_seL4/cfe/fsw/cfe-core/src/es/cfe_es_start.c ****    } /* end if */
 250:/home/simulink/cFS_FreeRTOS_seL4/cfe/fsw/cfe-core/src/es/cfe_es_start.c **** 
 251:/home/simulink/cFS_FreeRTOS_seL4/cfe/fsw/cfe-core/src/es/cfe_es_start.c ****    /*
 252:/home/simulink/cFS_FreeRTOS_seL4/cfe/fsw/cfe-core/src/es/cfe_es_start.c ****    ** Indicate that the CFE core is now starting up / going multi-threaded
 253:/home/simulink/cFS_FreeRTOS_seL4/cfe/fsw/cfe-core/src/es/cfe_es_start.c ****    */
 254:/home/simulink/cFS_FreeRTOS_seL4/cfe/fsw/cfe-core/src/es/cfe_es_start.c ****    CFE_ES_WriteToSysLog("ES Startup: CFE_ES_Main entering CORE_STARTUP state\n");
 175               	.loc 2 254 0
 176 011e 4879 0000 	pea .LC3
 176      0000 
 177               	.cfi_def_cfa_offset 16
 178 0124 4EB9 0000 	jsr CFE_ES_WriteToSysLog
 178      0000 
 179 012a 588F      	addq.l #4,%sp
 180               	.cfi_def_cfa_offset 12
 255:/home/simulink/cFS_FreeRTOS_seL4/cfe/fsw/cfe-core/src/es/cfe_es_start.c ****    CFE_ES_Global.SystemState = CFE_ES_SYSTEM_STATE_CORE_STARTUP;
 181               	.loc 2 255 0
 182 012c 7202      	moveq #2,%d1
 183 012e 23C1 0000 	move.l %d1,CFE_ES_Global+28
 183      0000 
 256:/home/simulink/cFS_FreeRTOS_seL4/cfe/fsw/cfe-core/src/es/cfe_es_start.c **** 
 257:/home/simulink/cFS_FreeRTOS_seL4/cfe/fsw/cfe-core/src/es/cfe_es_start.c ****    /*
 258:/home/simulink/cFS_FreeRTOS_seL4/cfe/fsw/cfe-core/src/es/cfe_es_start.c ****    ** Create the tasks, OS objects, and initialize hardware
 259:/home/simulink/cFS_FreeRTOS_seL4/cfe/fsw/cfe-core/src/es/cfe_es_start.c ****    */
 260:/home/simulink/cFS_FreeRTOS_seL4/cfe/fsw/cfe-core/src/es/cfe_es_start.c ****    CFE_ES_CreateObjects();
 184               	.loc 2 260 0
 185 0134 4EB9 0000 	jsr CFE_ES_CreateObjects
 185      0000 
 261:/home/simulink/cFS_FreeRTOS_seL4/cfe/fsw/cfe-core/src/es/cfe_es_start.c **** 
 262:/home/simulink/cFS_FreeRTOS_seL4/cfe/fsw/cfe-core/src/es/cfe_es_start.c ****    /*
 263:/home/simulink/cFS_FreeRTOS_seL4/cfe/fsw/cfe-core/src/es/cfe_es_start.c ****    ** Indicate that the CFE core is ready
 264:/home/simulink/cFS_FreeRTOS_seL4/cfe/fsw/cfe-core/src/es/cfe_es_start.c ****    */
 265:/home/simulink/cFS_FreeRTOS_seL4/cfe/fsw/cfe-core/src/es/cfe_es_start.c ****    CFE_ES_WriteToSysLog("ES Startup: CFE_ES_Main entering CORE_READY state\n");
 186               	.loc 2 265 0
 187 013a 4879 0000 	pea .LC4
 187      0000 
 188               	.cfi_def_cfa_offset 16
 189 0140 4EB9 0000 	jsr CFE_ES_WriteToSysLog
 189      0000 
 190 0146 588F      	addq.l #4,%sp
 191               	.cfi_def_cfa_offset 12
 266:/home/simulink/cFS_FreeRTOS_seL4/cfe/fsw/cfe-core/src/es/cfe_es_start.c ****    CFE_ES_Global.SystemState = CFE_ES_SYSTEM_STATE_CORE_READY;
 192               	.loc 2 266 0
 193 0148 7003      	moveq #3,%d0
68K GAS   			page 18


 194 014a 23C0 0000 	move.l %d0,CFE_ES_Global+28
 194      0000 
 267:/home/simulink/cFS_FreeRTOS_seL4/cfe/fsw/cfe-core/src/es/cfe_es_start.c **** 
 268:/home/simulink/cFS_FreeRTOS_seL4/cfe/fsw/cfe-core/src/es/cfe_es_start.c ****    /*
 269:/home/simulink/cFS_FreeRTOS_seL4/cfe/fsw/cfe-core/src/es/cfe_es_start.c ****    ** Start the cFE Applications from the disk using the file
 270:/home/simulink/cFS_FreeRTOS_seL4/cfe/fsw/cfe-core/src/es/cfe_es_start.c ****    ** specified in the CFE_ES_NONVOL_STARTUP_FILE or CFE_ES_VOLATILE_STARTUP_FILE 
 271:/home/simulink/cFS_FreeRTOS_seL4/cfe/fsw/cfe-core/src/es/cfe_es_start.c ****    ** ( defined in the cfe_platform_cfg.h file )
 272:/home/simulink/cFS_FreeRTOS_seL4/cfe/fsw/cfe-core/src/es/cfe_es_start.c ****    */   
 273:/home/simulink/cFS_FreeRTOS_seL4/cfe/fsw/cfe-core/src/es/cfe_es_start.c ****    CFE_ES_StartApplications(StartType, StartFilePath );
 195               	.loc 2 273 0
 196 0150 2F2F 0018 	move.l 24(%sp),-(%sp)
 197               	.cfi_def_cfa_offset 16
 198 0154 2F2F 0010 	move.l 16(%sp),-(%sp)
 199               	.cfi_def_cfa_offset 20
 200 0158 4EB9 0000 	jsr CFE_ES_StartApplications
 200      0000 
 201 015e 508F      	addq.l #8,%sp
 202               	.cfi_def_cfa_offset 12
 274:/home/simulink/cFS_FreeRTOS_seL4/cfe/fsw/cfe-core/src/es/cfe_es_start.c **** 
 275:/home/simulink/cFS_FreeRTOS_seL4/cfe/fsw/cfe-core/src/es/cfe_es_start.c ****    /*
 276:/home/simulink/cFS_FreeRTOS_seL4/cfe/fsw/cfe-core/src/es/cfe_es_start.c ****     * Wait for applications to be "running" before declaring as operational.
 277:/home/simulink/cFS_FreeRTOS_seL4/cfe/fsw/cfe-core/src/es/cfe_es_start.c ****     * However, if not everything starts up, that is not a fatal error, we will
 278:/home/simulink/cFS_FreeRTOS_seL4/cfe/fsw/cfe-core/src/es/cfe_es_start.c ****     * continue anyway since the core apps are OK and control/telemetry should function.
 279:/home/simulink/cFS_FreeRTOS_seL4/cfe/fsw/cfe-core/src/es/cfe_es_start.c ****     * The problem app could be deleted/restarted/etc by the ground station.
 280:/home/simulink/cFS_FreeRTOS_seL4/cfe/fsw/cfe-core/src/es/cfe_es_start.c ****     */
 281:/home/simulink/cFS_FreeRTOS_seL4/cfe/fsw/cfe-core/src/es/cfe_es_start.c ****    if (CFE_ES_ApplicationSyncDelay(CFE_ES_SYSTEM_STATE_UNDEFINED,
 203               	.loc 2 281 0
 204 0160 4878 7530 	pea 30000.w
 205               	.cfi_def_cfa_offset 16
 206 0164 42A7      	clr.l -(%sp)
 207               	.cfi_def_cfa_offset 20
 208 0166 4EB9 0000 	jsr CFE_ES_ApplicationSyncDelay
 208      0000 
 209 016c 508F      	addq.l #8,%sp
 210               	.cfi_def_cfa_offset 12
 211 016e 4A80      	tst.l %d0
 212 0170 670E      	jeq .L11
 282:/home/simulink/cFS_FreeRTOS_seL4/cfe/fsw/cfe-core/src/es/cfe_es_start.c ****            CFE_ES_STARTUP_SCRIPT_TIMEOUT_MSEC) != CFE_SUCCESS)
 283:/home/simulink/cFS_FreeRTOS_seL4/cfe/fsw/cfe-core/src/es/cfe_es_start.c ****    {
 284:/home/simulink/cFS_FreeRTOS_seL4/cfe/fsw/cfe-core/src/es/cfe_es_start.c ****        CFE_ES_WriteToSysLog("ES Startup: Startup Sync failed - Applications may not have all starte
 213               	.loc 2 284 0
 214 0172 4879 0000 	pea .LC5
 214      0000 
 215               	.cfi_def_cfa_offset 16
 216 0178 4EB9 0000 	jsr CFE_ES_WriteToSysLog
 216      0000 
 217 017e 588F      	addq.l #4,%sp
 218               	.cfi_def_cfa_offset 12
 219               	.L11:
 285:/home/simulink/cFS_FreeRTOS_seL4/cfe/fsw/cfe-core/src/es/cfe_es_start.c ****    }
 286:/home/simulink/cFS_FreeRTOS_seL4/cfe/fsw/cfe-core/src/es/cfe_es_start.c **** 
 287:/home/simulink/cFS_FreeRTOS_seL4/cfe/fsw/cfe-core/src/es/cfe_es_start.c ****    /*
 288:/home/simulink/cFS_FreeRTOS_seL4/cfe/fsw/cfe-core/src/es/cfe_es_start.c ****    ** Startup is fully complete
 289:/home/simulink/cFS_FreeRTOS_seL4/cfe/fsw/cfe-core/src/es/cfe_es_start.c ****    */
 290:/home/simulink/cFS_FreeRTOS_seL4/cfe/fsw/cfe-core/src/es/cfe_es_start.c ****    CFE_ES_WriteToSysLog("ES Startup: CFE_ES_Main entering OPERATIONAL state\n");
 220               	.loc 2 290 0
 221 0180 4879 0000 	pea .LC6
68K GAS   			page 19


 221      0000 
 222               	.cfi_def_cfa_offset 16
 223 0186 4EB9 0000 	jsr CFE_ES_WriteToSysLog
 223      0000 
 224 018c 588F      	addq.l #4,%sp
 225               	.cfi_def_cfa_offset 12
 291:/home/simulink/cFS_FreeRTOS_seL4/cfe/fsw/cfe-core/src/es/cfe_es_start.c ****    CFE_ES_Global.SystemState = CFE_ES_SYSTEM_STATE_OPERATIONAL;
 226               	.loc 2 291 0
 227 018e 7204      	moveq #4,%d1
 228 0190 23C1 0000 	move.l %d1,CFE_ES_Global+28
 228      0000 
 292:/home/simulink/cFS_FreeRTOS_seL4/cfe/fsw/cfe-core/src/es/cfe_es_start.c **** }
 229               	.loc 2 292 0
 230 0196 4E71      	nop
 231 0198 508F      	addq.l #8,%sp
 232 019a 4E75      	rts
 233               	.cfi_endproc
 234               	.LFE59:
 235               	.sizeCFE_ES_Main, .-CFE_ES_Main
 236               	.section.rodata
 237               	.LC7:
 238 0169 4553 2053 	.string"ES Startup: CFE_PSP_GetResetArea call Failed (0x%08x)!\n"
 238      7461 7274 
 238      7570 3A20 
 238      4346 455F 
 238      5053 505F 
 239               	.LC8:
 240 01a1 4553 2053 	.string"ES Startup: Error: ES Reset area not big enough. Needed: %d, Given: %d.\n"
 240      7461 7274 
 240      7570 3A20 
 240      4572 726F 
 240      723A 2045 
 241               	.LC9:
 242 01ea 504F 5745 	.string"POWER ON RESET due to Power Cycle (Power Cycle).\n"
 242      5220 4F4E 
 242      2052 4553 
 242      4554 2064 
 242      7565 2074 
 243               	.LC10:
 244 021c 504F 5745 	.string"POWER ON RESET due to Power Cycle (Power Cycle)"
 244      5220 4F4E 
 244      2052 4553 
 244      4554 2064 
 244      7565 2074 
 245               	.LC11:
 246 024c 504F 5745 	.string"POWER ON RESET due to HW Special Cmd (Hw Spec Cmd).\n"
 246      5220 4F4E 
 246      2052 4553 
 246      4554 2064 
 246      7565 2074 
 247               	.LC12:
 248 0281 504F 5745 	.string"POWER ON RESET due to HW Special Cmd (Hw Spec Cmd)"
 248      5220 4F4E 
 248      2052 4553 
 248      4554 2064 
 248      7565 2074 
 249               	.LC13:
68K GAS   			page 20


 250 02b4 504F 5745 	.string"POWER ON RESET due to other cause (See Subtype).\n"
 250      5220 4F4E 
 250      2052 4553 
 250      4554 2064 
 250      7565 2074 
 251               	.LC14:
 252 02e6 504F 5745 	.string"POWER ON RESET due to other cause (See Subtype)"
 252      5220 4F4E 
 252      2052 4553 
 252      4554 2064 
 252      7565 2074 
 253               	.LC15:
 254 0316 504F 5745 	.string"POWER ON RESET due to max proc resets (HW Spec Cmd).\n"
 254      5220 4F4E 
 254      2052 4553 
 254      4554 2064 
 254      7565 2074 
 255               	.LC16:
 256 034c 504F 5745 	.string"POWER ON RESET due to max proc resets (HW Spec Cmd)."
 256      5220 4F4E 
 256      2052 4553 
 256      4554 2064 
 256      7565 2074 
 257               	.LC17:
 258 0381 504F 5745 	.string"POWER ON RESET due to max proc resets (Watchdog).\n"
 258      5220 4F4E 
 258      2052 4553 
 258      4554 2064 
 258      7565 2074 
 259               	.LC18:
 260 03b4 504F 5745 	.string"POWER ON RESET due to max proc resets (Watchdog)."
 260      5220 4F4E 
 260      2052 4553 
 260      4554 2064 
 260      7565 2074 
 261               	.LC19:
 262 03e6 4553 2053 	.string"ES Startup: Error: CFE_PSP_Restart returned.\n"
 262      7461 7274 
 262      7570 3A20 
 262      4572 726F 
 262      723A 2043 
 263               	.LC20:
 264 0414 5052 4F43 	.string"PROCESSOR RESET due to Hardware Special Command (HW Spec Cmd).\n"
 264      4553 534F 
 264      5220 5245 
 264      5345 5420 
 264      6475 6520 
 265               	.LC21:
 266 0454 5052 4F43 	.string"PROCESSOR RESET due to Hardware Special Command (Hw Spec Cmd)."
 266      4553 534F 
 266      5220 5245 
 266      5345 5420 
 266      6475 6520 
 267               	.LC22:
 268 0493 5052 4F43 	.string"PROCESSOR RESET due to Watchdog (Watchdog).\n"
 268      4553 534F 
 268      5220 5245 
68K GAS   			page 21


 268      5345 5420 
 268      6475 6520 
 269               	.LC23:
 270 04c0 5052 4F43 	.string"PROCESSOR RESET due to Watchdog (Watchdog)."
 270      4553 534F 
 270      5220 5245 
 270      5345 5420 
 270      6475 6520 
 271               	.text
 272               	.align2
 273               	.globlCFE_ES_SetupResetVariables
 274               	.typeCFE_ES_SetupResetVariables, @function
 275               	CFE_ES_SetupResetVariables:
 276               	.LFB60:
 293:/home/simulink/cFS_FreeRTOS_seL4/cfe/fsw/cfe-core/src/es/cfe_es_start.c **** 
 294:/home/simulink/cFS_FreeRTOS_seL4/cfe/fsw/cfe-core/src/es/cfe_es_start.c **** /*
 295:/home/simulink/cFS_FreeRTOS_seL4/cfe/fsw/cfe-core/src/es/cfe_es_start.c **** ** Name: CFE_ES_SetupResetVariables
 296:/home/simulink/cFS_FreeRTOS_seL4/cfe/fsw/cfe-core/src/es/cfe_es_start.c **** **
 297:/home/simulink/cFS_FreeRTOS_seL4/cfe/fsw/cfe-core/src/es/cfe_es_start.c **** ** Purpose: This function initializes the ES reset variables depending on the reset type.
 298:/home/simulink/cFS_FreeRTOS_seL4/cfe/fsw/cfe-core/src/es/cfe_es_start.c **** **          It will also initiate a power on reset when too many processor resets
 299:/home/simulink/cFS_FreeRTOS_seL4/cfe/fsw/cfe-core/src/es/cfe_es_start.c **** **           have happened.
 300:/home/simulink/cFS_FreeRTOS_seL4/cfe/fsw/cfe-core/src/es/cfe_es_start.c **** **
 301:/home/simulink/cFS_FreeRTOS_seL4/cfe/fsw/cfe-core/src/es/cfe_es_start.c **** */
 302:/home/simulink/cFS_FreeRTOS_seL4/cfe/fsw/cfe-core/src/es/cfe_es_start.c **** void CFE_ES_SetupResetVariables(uint32 StartType, uint32 StartSubtype, uint32 BootSource )
 303:/home/simulink/cFS_FreeRTOS_seL4/cfe/fsw/cfe-core/src/es/cfe_es_start.c **** {
 277               	.loc 2 303 0
 278               	.cfi_startproc
 279 019c 4FEF FFF4 	lea (-12,%sp),%sp
 280               	.cfi_def_cfa_offset 16
 304:/home/simulink/cFS_FreeRTOS_seL4/cfe/fsw/cfe-core/src/es/cfe_es_start.c **** 
 305:/home/simulink/cFS_FreeRTOS_seL4/cfe/fsw/cfe-core/src/es/cfe_es_start.c ****    int32  status;
 306:/home/simulink/cFS_FreeRTOS_seL4/cfe/fsw/cfe-core/src/es/cfe_es_start.c ****    uint32 resetAreaSize;
 307:/home/simulink/cFS_FreeRTOS_seL4/cfe/fsw/cfe-core/src/es/cfe_es_start.c ****    cpuaddr ResetDataAddr;
 308:/home/simulink/cFS_FreeRTOS_seL4/cfe/fsw/cfe-core/src/es/cfe_es_start.c ****    
 309:/home/simulink/cFS_FreeRTOS_seL4/cfe/fsw/cfe-core/src/es/cfe_es_start.c ****    /*
 310:/home/simulink/cFS_FreeRTOS_seL4/cfe/fsw/cfe-core/src/es/cfe_es_start.c ****    ** Get the pointer to the Reset area from the BSP
 311:/home/simulink/cFS_FreeRTOS_seL4/cfe/fsw/cfe-core/src/es/cfe_es_start.c ****    */
 312:/home/simulink/cFS_FreeRTOS_seL4/cfe/fsw/cfe-core/src/es/cfe_es_start.c ****    status = CFE_PSP_GetResetArea (&ResetDataAddr, &resetAreaSize);
 281               	.loc 2 312 0
 282 01a0 200F      	move.l %sp,%d0
 283 01a2 5880      	addq.l #4,%d0
 284 01a4 2F00      	move.l %d0,-(%sp)
 285               	.cfi_def_cfa_offset 20
 286 01a6 200F      	move.l %sp,%d0
 287 01a8 5880      	addq.l #4,%d0
 288 01aa 2F00      	move.l %d0,-(%sp)
 289               	.cfi_def_cfa_offset 24
 290 01ac 4EB9 0000 	jsr CFE_PSP_GetResetArea
 290      0000 
 291 01b2 508F      	addq.l #8,%sp
 292               	.cfi_def_cfa_offset 16
 293 01b4 2F40 0008 	move.l %d0,8(%sp)
 313:/home/simulink/cFS_FreeRTOS_seL4/cfe/fsw/cfe-core/src/es/cfe_es_start.c ****       
 314:/home/simulink/cFS_FreeRTOS_seL4/cfe/fsw/cfe-core/src/es/cfe_es_start.c ****    /*
 315:/home/simulink/cFS_FreeRTOS_seL4/cfe/fsw/cfe-core/src/es/cfe_es_start.c ****    ** Make sure the status is OK or size is big enough
 316:/home/simulink/cFS_FreeRTOS_seL4/cfe/fsw/cfe-core/src/es/cfe_es_start.c ****    */
 317:/home/simulink/cFS_FreeRTOS_seL4/cfe/fsw/cfe-core/src/es/cfe_es_start.c ****    if ( status != CFE_PSP_SUCCESS )
68K GAS   			page 22


 294               	.loc 2 317 0
 295 01b8 4AAF 0008 	tst.l 8(%sp)
 296 01bc 672E      	jeq .L13
 318:/home/simulink/cFS_FreeRTOS_seL4/cfe/fsw/cfe-core/src/es/cfe_es_start.c ****    {
 319:/home/simulink/cFS_FreeRTOS_seL4/cfe/fsw/cfe-core/src/es/cfe_es_start.c ****       /*
 320:/home/simulink/cFS_FreeRTOS_seL4/cfe/fsw/cfe-core/src/es/cfe_es_start.c ****       ** Cannot use the ES System log without the Reset Area
 321:/home/simulink/cFS_FreeRTOS_seL4/cfe/fsw/cfe-core/src/es/cfe_es_start.c ****       */
 322:/home/simulink/cFS_FreeRTOS_seL4/cfe/fsw/cfe-core/src/es/cfe_es_start.c ****       OS_printf("ES Startup: CFE_PSP_GetResetArea call Failed (0x%08x)!\n", (unsigned int)status);
 297               	.loc 2 322 0
 298 01be 202F 0008 	move.l 8(%sp),%d0
 299 01c2 2F00      	move.l %d0,-(%sp)
 300               	.cfi_def_cfa_offset 20
 301 01c4 4879 0000 	pea .LC7
 301      0000 
 302               	.cfi_def_cfa_offset 24
 303 01ca 4EB9 0000 	jsr OS_printf
 303      0000 
 304 01d0 508F      	addq.l #8,%sp
 305               	.cfi_def_cfa_offset 16
 323:/home/simulink/cFS_FreeRTOS_seL4/cfe/fsw/cfe-core/src/es/cfe_es_start.c ****       
 324:/home/simulink/cFS_FreeRTOS_seL4/cfe/fsw/cfe-core/src/es/cfe_es_start.c ****       /*
 325:/home/simulink/cFS_FreeRTOS_seL4/cfe/fsw/cfe-core/src/es/cfe_es_start.c ****       ** Delay to allow the message to be read
 326:/home/simulink/cFS_FreeRTOS_seL4/cfe/fsw/cfe-core/src/es/cfe_es_start.c ****       */
 327:/home/simulink/cFS_FreeRTOS_seL4/cfe/fsw/cfe-core/src/es/cfe_es_start.c ****       OS_TaskDelay(CFE_ES_PANIC_DELAY);
 306               	.loc 2 327 0
 307 01d2 4878 01F4 	pea 500.w
 308               	.cfi_def_cfa_offset 20
 309 01d6 4EB9 0000 	jsr OS_TaskDelay
 309      0000 
 310 01dc 588F      	addq.l #4,%sp
 311               	.cfi_def_cfa_offset 16
 328:/home/simulink/cFS_FreeRTOS_seL4/cfe/fsw/cfe-core/src/es/cfe_es_start.c ****       
 329:/home/simulink/cFS_FreeRTOS_seL4/cfe/fsw/cfe-core/src/es/cfe_es_start.c ****       /* 
 330:/home/simulink/cFS_FreeRTOS_seL4/cfe/fsw/cfe-core/src/es/cfe_es_start.c ****       ** cFE Cannot continue to start up. 
 331:/home/simulink/cFS_FreeRTOS_seL4/cfe/fsw/cfe-core/src/es/cfe_es_start.c ****       */
 332:/home/simulink/cFS_FreeRTOS_seL4/cfe/fsw/cfe-core/src/es/cfe_es_start.c ****       CFE_PSP_Panic(CFE_PSP_PANIC_MEMORY_ALLOC);
 312               	.loc 2 332 0
 313 01de 4878 0003 	pea 3.w
 314               	.cfi_def_cfa_offset 20
 315 01e2 4EB9 0000 	jsr CFE_PSP_Panic
 315      0000 
 316 01e8 588F      	addq.l #4,%sp
 317               	.cfi_def_cfa_offset 16
 318 01ea 6040      	jra .L14
 319               	.L13:
 333:/home/simulink/cFS_FreeRTOS_seL4/cfe/fsw/cfe-core/src/es/cfe_es_start.c ****       
 334:/home/simulink/cFS_FreeRTOS_seL4/cfe/fsw/cfe-core/src/es/cfe_es_start.c ****    }
 335:/home/simulink/cFS_FreeRTOS_seL4/cfe/fsw/cfe-core/src/es/cfe_es_start.c ****    else if ( resetAreaSize < sizeof(CFE_ES_ResetData_t))
 320               	.loc 2 335 0
 321 01ec 202F 0004 	move.l 4(%sp),%d0
 322 01f0 0C80 0002 	cmp.l #131875,%d0
 322      0323 
 323 01f6 6234      	jhi .L14
 336:/home/simulink/cFS_FreeRTOS_seL4/cfe/fsw/cfe-core/src/es/cfe_es_start.c ****    {
 337:/home/simulink/cFS_FreeRTOS_seL4/cfe/fsw/cfe-core/src/es/cfe_es_start.c ****       /*
 338:/home/simulink/cFS_FreeRTOS_seL4/cfe/fsw/cfe-core/src/es/cfe_es_start.c ****       ** Cannot use the ES system log without the Reset Area
 339:/home/simulink/cFS_FreeRTOS_seL4/cfe/fsw/cfe-core/src/es/cfe_es_start.c ****       */
68K GAS   			page 23


 340:/home/simulink/cFS_FreeRTOS_seL4/cfe/fsw/cfe-core/src/es/cfe_es_start.c ****       OS_printf("ES Startup: Error: ES Reset area not big enough. Needed: %d, Given: %d.\n",
 324               	.loc 2 340 0
 325 01f8 202F 0004 	move.l 4(%sp),%d0
 326 01fc 2F00      	move.l %d0,-(%sp)
 327               	.cfi_def_cfa_offset 20
 328 01fe 2F3C 0002 	move.l #131876,-(%sp)
 328      0324 
 329               	.cfi_def_cfa_offset 24
 330 0204 4879 0000 	pea .LC8
 330      0000 
 331               	.cfi_def_cfa_offset 28
 332 020a 4EB9 0000 	jsr OS_printf
 332      0000 
 333 0210 4FEF 000C 	lea (12,%sp),%sp
 334               	.cfi_def_cfa_offset 16
 341:/home/simulink/cFS_FreeRTOS_seL4/cfe/fsw/cfe-core/src/es/cfe_es_start.c ****             (int)sizeof(CFE_ES_ResetData_t),
 342:/home/simulink/cFS_FreeRTOS_seL4/cfe/fsw/cfe-core/src/es/cfe_es_start.c ****             (int)resetAreaSize);
 343:/home/simulink/cFS_FreeRTOS_seL4/cfe/fsw/cfe-core/src/es/cfe_es_start.c ****       /*
 344:/home/simulink/cFS_FreeRTOS_seL4/cfe/fsw/cfe-core/src/es/cfe_es_start.c ****       ** Delay to allow the message to be read
 345:/home/simulink/cFS_FreeRTOS_seL4/cfe/fsw/cfe-core/src/es/cfe_es_start.c ****       */
 346:/home/simulink/cFS_FreeRTOS_seL4/cfe/fsw/cfe-core/src/es/cfe_es_start.c ****       OS_TaskDelay(CFE_ES_PANIC_DELAY);
 335               	.loc 2 346 0
 336 0214 4878 01F4 	pea 500.w
 337               	.cfi_def_cfa_offset 20
 338 0218 4EB9 0000 	jsr OS_TaskDelay
 338      0000 
 339 021e 588F      	addq.l #4,%sp
 340               	.cfi_def_cfa_offset 16
 347:/home/simulink/cFS_FreeRTOS_seL4/cfe/fsw/cfe-core/src/es/cfe_es_start.c ****       
 348:/home/simulink/cFS_FreeRTOS_seL4/cfe/fsw/cfe-core/src/es/cfe_es_start.c ****       /* 
 349:/home/simulink/cFS_FreeRTOS_seL4/cfe/fsw/cfe-core/src/es/cfe_es_start.c ****       ** cFE Cannot continue to start up. 
 350:/home/simulink/cFS_FreeRTOS_seL4/cfe/fsw/cfe-core/src/es/cfe_es_start.c ****       */
 351:/home/simulink/cFS_FreeRTOS_seL4/cfe/fsw/cfe-core/src/es/cfe_es_start.c ****       CFE_PSP_Panic(CFE_PSP_PANIC_MEMORY_ALLOC);
 341               	.loc 2 351 0
 342 0220 4878 0003 	pea 3.w
 343               	.cfi_def_cfa_offset 20
 344 0224 4EB9 0000 	jsr CFE_PSP_Panic
 344      0000 
 345 022a 588F      	addq.l #4,%sp
 346               	.cfi_def_cfa_offset 16
 347               	.L14:
 352:/home/simulink/cFS_FreeRTOS_seL4/cfe/fsw/cfe-core/src/es/cfe_es_start.c ****       
 353:/home/simulink/cFS_FreeRTOS_seL4/cfe/fsw/cfe-core/src/es/cfe_es_start.c ****    }
 354:/home/simulink/cFS_FreeRTOS_seL4/cfe/fsw/cfe-core/src/es/cfe_es_start.c **** 
 355:/home/simulink/cFS_FreeRTOS_seL4/cfe/fsw/cfe-core/src/es/cfe_es_start.c ****    CFE_ES_ResetDataPtr = (CFE_ES_ResetData_t *)ResetDataAddr;
 348               	.loc 2 355 0
 349 022c 2017      	move.l (%sp),%d0
 350 022e 23C0 0000 	move.l %d0,CFE_ES_ResetDataPtr
 350      0000 
 356:/home/simulink/cFS_FreeRTOS_seL4/cfe/fsw/cfe-core/src/es/cfe_es_start.c **** 
 357:/home/simulink/cFS_FreeRTOS_seL4/cfe/fsw/cfe-core/src/es/cfe_es_start.c ****    /*
 358:/home/simulink/cFS_FreeRTOS_seL4/cfe/fsw/cfe-core/src/es/cfe_es_start.c ****    ** Record the BootSource (bank) so it will be valid in the ER log entries.
 359:/home/simulink/cFS_FreeRTOS_seL4/cfe/fsw/cfe-core/src/es/cfe_es_start.c ****    */
 360:/home/simulink/cFS_FreeRTOS_seL4/cfe/fsw/cfe-core/src/es/cfe_es_start.c ****    CFE_ES_ResetDataPtr->ResetVars.BootSource   = BootSource;
 351               	.loc 2 360 0
 352 0234 2079 0000 	move.l CFE_ES_ResetDataPtr,%a0
 352      0000 
68K GAS   			page 24


 353 023a 203C 0001 	move.l #128460,%d0
 353      F5CC 
 354 0240 43EF 0018 	lea (24,%sp),%a1
 355 0244 2191 0800 	move.l (%a1),(%a0,%d0.l)
 361:/home/simulink/cFS_FreeRTOS_seL4/cfe/fsw/cfe-core/src/es/cfe_es_start.c **** 
 362:/home/simulink/cFS_FreeRTOS_seL4/cfe/fsw/cfe-core/src/es/cfe_es_start.c ****    /*
 363:/home/simulink/cFS_FreeRTOS_seL4/cfe/fsw/cfe-core/src/es/cfe_es_start.c ****    ** Determine how the system was started. The choices are:
 364:/home/simulink/cFS_FreeRTOS_seL4/cfe/fsw/cfe-core/src/es/cfe_es_start.c ****    **   CFE_ES_POWER_ON_RESET, or CFE_PSP_RST_TYPE_PROCESSOR
 365:/home/simulink/cFS_FreeRTOS_seL4/cfe/fsw/cfe-core/src/es/cfe_es_start.c ****    ** The subtypes include:
 366:/home/simulink/cFS_FreeRTOS_seL4/cfe/fsw/cfe-core/src/es/cfe_es_start.c ****    **   CFE_ES_POWER_CYCLE, CFE_ES_PUSH_BUTTON, CFE_ES_HW_SPECIAL_COMMAND,
 367:/home/simulink/cFS_FreeRTOS_seL4/cfe/fsw/cfe-core/src/es/cfe_es_start.c ****    **   CFE_ES_HW_WATCHDOG, CFE_PSP_RST_TYPE_COMMAND, or CFE_ES_EXCEPTION.
 368:/home/simulink/cFS_FreeRTOS_seL4/cfe/fsw/cfe-core/src/es/cfe_es_start.c ****    ** Some of these reset types are logged before the system is restarted.
 369:/home/simulink/cFS_FreeRTOS_seL4/cfe/fsw/cfe-core/src/es/cfe_es_start.c ****    **  ( CFE_PSP_RST_TYPE_COMMAND, CFE_ES_EXCEPTION ) while others occur
 370:/home/simulink/cFS_FreeRTOS_seL4/cfe/fsw/cfe-core/src/es/cfe_es_start.c ****    **  without the knowledge of the software and must be logged here.
 371:/home/simulink/cFS_FreeRTOS_seL4/cfe/fsw/cfe-core/src/es/cfe_es_start.c ****    */
 372:/home/simulink/cFS_FreeRTOS_seL4/cfe/fsw/cfe-core/src/es/cfe_es_start.c ****    if ( StartType == CFE_PSP_RST_TYPE_POWERON )
 356               	.loc 2 372 0
 357 0248 7002      	moveq #2,%d0
 358 024a B0AF 0010 	cmp.l 16(%sp),%d0
 359 024e 6600 00FE 	jne .L15
 373:/home/simulink/cFS_FreeRTOS_seL4/cfe/fsw/cfe-core/src/es/cfe_es_start.c ****    {
 374:/home/simulink/cFS_FreeRTOS_seL4/cfe/fsw/cfe-core/src/es/cfe_es_start.c ****       /*
 375:/home/simulink/cFS_FreeRTOS_seL4/cfe/fsw/cfe-core/src/es/cfe_es_start.c ****       ** Record the reset type and subtype
 376:/home/simulink/cFS_FreeRTOS_seL4/cfe/fsw/cfe-core/src/es/cfe_es_start.c ****       */
 377:/home/simulink/cFS_FreeRTOS_seL4/cfe/fsw/cfe-core/src/es/cfe_es_start.c ****       CFE_ES_ResetDataPtr->ResetVars.ResetSubtype = StartSubtype;
 360               	.loc 2 377 0
 361 0252 2079 0000 	move.l CFE_ES_ResetDataPtr,%a0
 361      0000 
 362 0258 203C 0001 	move.l #128456,%d0
 362      F5C8 
 363 025e 43EF 0014 	lea (20,%sp),%a1
 364 0262 2191 0800 	move.l (%a1),(%a0,%d0.l)
 378:/home/simulink/cFS_FreeRTOS_seL4/cfe/fsw/cfe-core/src/es/cfe_es_start.c ****       CFE_ES_ResetDataPtr->ResetVars.ResetType = CFE_PSP_RST_TYPE_POWERON;
 365               	.loc 2 378 0
 366 0266 2079 0000 	move.l CFE_ES_ResetDataPtr,%a0
 366      0000 
 367 026c 203C 0001 	move.l #128452,%d0
 367      F5C4 
 368 0272 7202      	moveq #2,%d1
 369 0274 2181 0800 	move.l %d1,(%a0,%d0.l)
 379:/home/simulink/cFS_FreeRTOS_seL4/cfe/fsw/cfe-core/src/es/cfe_es_start.c **** 
 380:/home/simulink/cFS_FreeRTOS_seL4/cfe/fsw/cfe-core/src/es/cfe_es_start.c ****       /*
 381:/home/simulink/cFS_FreeRTOS_seL4/cfe/fsw/cfe-core/src/es/cfe_es_start.c ****       ** Log the power-on reset. 
 382:/home/simulink/cFS_FreeRTOS_seL4/cfe/fsw/cfe-core/src/es/cfe_es_start.c ****       */
 383:/home/simulink/cFS_FreeRTOS_seL4/cfe/fsw/cfe-core/src/es/cfe_es_start.c ****       if ( StartSubtype == CFE_PSP_RST_SUBTYPE_POWER_CYCLE )
 370               	.loc 2 383 0
 371 0278 7001      	moveq #1,%d0
 372 027a B0AF 0014 	cmp.l 20(%sp),%d0
 373 027e 6634      	jne .L16
 384:/home/simulink/cFS_FreeRTOS_seL4/cfe/fsw/cfe-core/src/es/cfe_es_start.c ****       {
 385:/home/simulink/cFS_FreeRTOS_seL4/cfe/fsw/cfe-core/src/es/cfe_es_start.c ****          CFE_ES_WriteToSysLog("POWER ON RESET due to Power Cycle (Power Cycle).\n");
 374               	.loc 2 385 0
 375 0280 4879 0000 	pea .LC9
 375      0000 
 376               	.cfi_def_cfa_offset 20
 377 0286 4EB9 0000 	jsr CFE_ES_WriteToSysLog
 377      0000 
68K GAS   			page 25


 378 028c 588F      	addq.l #4,%sp
 379               	.cfi_def_cfa_offset 16
 386:/home/simulink/cFS_FreeRTOS_seL4/cfe/fsw/cfe-core/src/es/cfe_es_start.c ****          status =  CFE_ES_WriteToERLog(CFE_ES_CORE_LOG_ENTRY, CFE_PSP_RST_TYPE_POWERON, StartSubtyp
 380               	.loc 2 386 0
 381 028e 42A7      	clr.l -(%sp)
 382               	.cfi_def_cfa_offset 20
 383 0290 42A7      	clr.l -(%sp)
 384               	.cfi_def_cfa_offset 24
 385 0292 4879 0000 	pea .LC10
 385      0000 
 386               	.cfi_def_cfa_offset 28
 387 0298 2F2F 0020 	move.l 32(%sp),-(%sp)
 388               	.cfi_def_cfa_offset 32
 389 029c 4878 0002 	pea 2.w
 390               	.cfi_def_cfa_offset 36
 391 02a0 4878 0001 	pea 1.w
 392               	.cfi_def_cfa_offset 40
 393 02a4 4EB9 0000 	jsr CFE_ES_WriteToERLog
 393      0000 
 394 02aa 4FEF 0018 	lea (24,%sp),%sp
 395               	.cfi_def_cfa_offset 16
 396 02ae 2F40 0008 	move.l %d0,8(%sp)
 397 02b2 606E      	jra .L17
 398               	.L16:
 387:/home/simulink/cFS_FreeRTOS_seL4/cfe/fsw/cfe-core/src/es/cfe_es_start.c ****                                     "POWER ON RESET due to Power Cycle (Power Cycle)", NULL,0 );
 388:/home/simulink/cFS_FreeRTOS_seL4/cfe/fsw/cfe-core/src/es/cfe_es_start.c ****       }
 389:/home/simulink/cFS_FreeRTOS_seL4/cfe/fsw/cfe-core/src/es/cfe_es_start.c ****       else if ( StartSubtype == CFE_PSP_RST_SUBTYPE_HW_SPECIAL_COMMAND )
 399               	.loc 2 389 0
 400 02b4 7203      	moveq #3,%d1
 401 02b6 B2AF 0014 	cmp.l 20(%sp),%d1
 402 02ba 6634      	jne .L18
 390:/home/simulink/cFS_FreeRTOS_seL4/cfe/fsw/cfe-core/src/es/cfe_es_start.c ****       {
 391:/home/simulink/cFS_FreeRTOS_seL4/cfe/fsw/cfe-core/src/es/cfe_es_start.c ****          CFE_ES_WriteToSysLog("POWER ON RESET due to HW Special Cmd (Hw Spec Cmd).\n");
 403               	.loc 2 391 0
 404 02bc 4879 0000 	pea .LC11
 404      0000 
 405               	.cfi_def_cfa_offset 20
 406 02c2 4EB9 0000 	jsr CFE_ES_WriteToSysLog
 406      0000 
 407 02c8 588F      	addq.l #4,%sp
 408               	.cfi_def_cfa_offset 16
 392:/home/simulink/cFS_FreeRTOS_seL4/cfe/fsw/cfe-core/src/es/cfe_es_start.c ****          status =  CFE_ES_WriteToERLog(CFE_ES_CORE_LOG_ENTRY, CFE_PSP_RST_TYPE_POWERON, StartSubtyp
 409               	.loc 2 392 0
 410 02ca 42A7      	clr.l -(%sp)
 411               	.cfi_def_cfa_offset 20
 412 02cc 42A7      	clr.l -(%sp)
 413               	.cfi_def_cfa_offset 24
 414 02ce 4879 0000 	pea .LC12
 414      0000 
 415               	.cfi_def_cfa_offset 28
 416 02d4 2F2F 0020 	move.l 32(%sp),-(%sp)
 417               	.cfi_def_cfa_offset 32
 418 02d8 4878 0002 	pea 2.w
 419               	.cfi_def_cfa_offset 36
 420 02dc 4878 0001 	pea 1.w
 421               	.cfi_def_cfa_offset 40
 422 02e0 4EB9 0000 	jsr CFE_ES_WriteToERLog
68K GAS   			page 26


 422      0000 
 423 02e6 4FEF 0018 	lea (24,%sp),%sp
 424               	.cfi_def_cfa_offset 16
 425 02ea 2F40 0008 	move.l %d0,8(%sp)
 426 02ee 6032      	jra .L17
 427               	.L18:
 393:/home/simulink/cFS_FreeRTOS_seL4/cfe/fsw/cfe-core/src/es/cfe_es_start.c ****                                     "POWER ON RESET due to HW Special Cmd (Hw Spec Cmd)", NULL,0 );
 394:/home/simulink/cFS_FreeRTOS_seL4/cfe/fsw/cfe-core/src/es/cfe_es_start.c ****       }
 395:/home/simulink/cFS_FreeRTOS_seL4/cfe/fsw/cfe-core/src/es/cfe_es_start.c ****       else
 396:/home/simulink/cFS_FreeRTOS_seL4/cfe/fsw/cfe-core/src/es/cfe_es_start.c ****       {
 397:/home/simulink/cFS_FreeRTOS_seL4/cfe/fsw/cfe-core/src/es/cfe_es_start.c ****          CFE_ES_WriteToSysLog("POWER ON RESET due to other cause (See Subtype).\n");
 428               	.loc 2 397 0
 429 02f0 4879 0000 	pea .LC13
 429      0000 
 430               	.cfi_def_cfa_offset 20
 431 02f6 4EB9 0000 	jsr CFE_ES_WriteToSysLog
 431      0000 
 432 02fc 588F      	addq.l #4,%sp
 433               	.cfi_def_cfa_offset 16
 398:/home/simulink/cFS_FreeRTOS_seL4/cfe/fsw/cfe-core/src/es/cfe_es_start.c ****          status =  CFE_ES_WriteToERLog(CFE_ES_CORE_LOG_ENTRY, CFE_PSP_RST_TYPE_POWERON, StartSubtyp
 434               	.loc 2 398 0
 435 02fe 42A7      	clr.l -(%sp)
 436               	.cfi_def_cfa_offset 20
 437 0300 42A7      	clr.l -(%sp)
 438               	.cfi_def_cfa_offset 24
 439 0302 4879 0000 	pea .LC14
 439      0000 
 440               	.cfi_def_cfa_offset 28
 441 0308 2F2F 0020 	move.l 32(%sp),-(%sp)
 442               	.cfi_def_cfa_offset 32
 443 030c 4878 0002 	pea 2.w
 444               	.cfi_def_cfa_offset 36
 445 0310 4878 0001 	pea 1.w
 446               	.cfi_def_cfa_offset 40
 447 0314 4EB9 0000 	jsr CFE_ES_WriteToERLog
 447      0000 
 448 031a 4FEF 0018 	lea (24,%sp),%sp
 449               	.cfi_def_cfa_offset 16
 450 031e 2F40 0008 	move.l %d0,8(%sp)
 451               	.L17:
 399:/home/simulink/cFS_FreeRTOS_seL4/cfe/fsw/cfe-core/src/es/cfe_es_start.c ****                                     "POWER ON RESET due to other cause (See Subtype)", NULL,0 );
 400:/home/simulink/cFS_FreeRTOS_seL4/cfe/fsw/cfe-core/src/es/cfe_es_start.c ****       }
 401:/home/simulink/cFS_FreeRTOS_seL4/cfe/fsw/cfe-core/src/es/cfe_es_start.c **** 
 402:/home/simulink/cFS_FreeRTOS_seL4/cfe/fsw/cfe-core/src/es/cfe_es_start.c ****       /*
 403:/home/simulink/cFS_FreeRTOS_seL4/cfe/fsw/cfe-core/src/es/cfe_es_start.c ****       ** Initialize all reset counters.
 404:/home/simulink/cFS_FreeRTOS_seL4/cfe/fsw/cfe-core/src/es/cfe_es_start.c ****       */
 405:/home/simulink/cFS_FreeRTOS_seL4/cfe/fsw/cfe-core/src/es/cfe_es_start.c ****       CFE_ES_ResetDataPtr->ResetVars.ProcessorResetCount = 0;
 452               	.loc 2 405 0
 453 0322 2079 0000 	move.l CFE_ES_ResetDataPtr,%a0
 453      0000 
 454 0328 203C 0001 	move.l #128468,%d0
 454      F5D4 
 455 032e 42B0 0800 	clr.l (%a0,%d0.l)
 406:/home/simulink/cFS_FreeRTOS_seL4/cfe/fsw/cfe-core/src/es/cfe_es_start.c ****       CFE_ES_ResetDataPtr->ResetVars.MaxProcessorResetCount = CFE_ES_MAX_PROCESSOR_RESETS;
 456               	.loc 2 406 0
 457 0332 2079 0000 	move.l CFE_ES_ResetDataPtr,%a0
 457      0000 
68K GAS   			page 27


 458 0338 203C 0001 	move.l #128472,%d0
 458      F5D8 
 459 033e 7202      	moveq #2,%d1
 460 0340 2181 0800 	move.l %d1,(%a0,%d0.l)
 407:/home/simulink/cFS_FreeRTOS_seL4/cfe/fsw/cfe-core/src/es/cfe_es_start.c ****       CFE_ES_Global.DebugVars.DebugFlag = 0;
 461               	.loc 2 407 0
 462 0344 42B9 0000 	clr.l CFE_ES_Global
 462      0000 
 463 034a 6000 01FE 	jra .L19
 464               	.L15:
 408:/home/simulink/cFS_FreeRTOS_seL4/cfe/fsw/cfe-core/src/es/cfe_es_start.c ****       
 409:/home/simulink/cFS_FreeRTOS_seL4/cfe/fsw/cfe-core/src/es/cfe_es_start.c ****    }
 410:/home/simulink/cFS_FreeRTOS_seL4/cfe/fsw/cfe-core/src/es/cfe_es_start.c ****    else if ( StartType == CFE_PSP_RST_TYPE_PROCESSOR )
 465               	.loc 2 410 0
 466 034e 7001      	moveq #1,%d0
 467 0350 B0AF 0010 	cmp.l 16(%sp),%d0
 468 0354 6600 01F4 	jne .L19
 411:/home/simulink/cFS_FreeRTOS_seL4/cfe/fsw/cfe-core/src/es/cfe_es_start.c ****    {
 412:/home/simulink/cFS_FreeRTOS_seL4/cfe/fsw/cfe-core/src/es/cfe_es_start.c ****       /*
 413:/home/simulink/cFS_FreeRTOS_seL4/cfe/fsw/cfe-core/src/es/cfe_es_start.c ****       ** If a Processor reset was not commanded, it must be a watchdog or other non-commanded reset
 414:/home/simulink/cFS_FreeRTOS_seL4/cfe/fsw/cfe-core/src/es/cfe_es_start.c ****       ** Log the reset before updating any reset variables.
 415:/home/simulink/cFS_FreeRTOS_seL4/cfe/fsw/cfe-core/src/es/cfe_es_start.c ****       */
 416:/home/simulink/cFS_FreeRTOS_seL4/cfe/fsw/cfe-core/src/es/cfe_es_start.c ****       if ( CFE_ES_ResetDataPtr->ResetVars.ES_CausedReset != TRUE )
 469               	.loc 2 416 0
 470 0358 2079 0000 	move.l CFE_ES_ResetDataPtr,%a0
 470      0000 
 471 035e 203C 0001 	move.l #128464,%d0
 471      F5D0 
 472 0364 2030 0800 	move.l (%a0,%d0.l),%d0
 473 0368 7201      	moveq #1,%d1
 474 036a B280      	cmp.l %d0,%d1
 475 036c 6700 01B0 	jeq .L20
 417:/home/simulink/cFS_FreeRTOS_seL4/cfe/fsw/cfe-core/src/es/cfe_es_start.c ****       {
 418:/home/simulink/cFS_FreeRTOS_seL4/cfe/fsw/cfe-core/src/es/cfe_es_start.c ****          CFE_ES_ResetDataPtr->ResetVars.ResetType = CFE_PSP_RST_TYPE_PROCESSOR;
 476               	.loc 2 418 0
 477 0370 2079 0000 	move.l CFE_ES_ResetDataPtr,%a0
 477      0000 
 478 0376 203C 0001 	move.l #128452,%d0
 478      F5C4 
 479 037c 7201      	moveq #1,%d1
 480 037e 2181 0800 	move.l %d1,(%a0,%d0.l)
 419:/home/simulink/cFS_FreeRTOS_seL4/cfe/fsw/cfe-core/src/es/cfe_es_start.c ****          CFE_ES_ResetDataPtr->ResetVars.ResetSubtype = StartSubtype; 
 481               	.loc 2 419 0
 482 0382 2079 0000 	move.l CFE_ES_ResetDataPtr,%a0
 482      0000 
 483 0388 203C 0001 	move.l #128456,%d0
 483      F5C8 
 484 038e 43EF 0014 	lea (20,%sp),%a1
 485 0392 2191 0800 	move.l (%a1),(%a0,%d0.l)
 420:/home/simulink/cFS_FreeRTOS_seL4/cfe/fsw/cfe-core/src/es/cfe_es_start.c ****          CFE_ES_ResetDataPtr->ResetVars.ProcessorResetCount++;
 486               	.loc 2 420 0
 487 0396 2079 0000 	move.l CFE_ES_ResetDataPtr,%a0
 487      0000 
 488 039c 203C 0001 	move.l #128468,%d0
 488      F5D4 
 489 03a2 2030 0800 	move.l (%a0,%d0.l),%d0
 490 03a6 2200      	move.l %d0,%d1
68K GAS   			page 28


 491 03a8 5281      	addq.l #1,%d1
 492 03aa 203C 0001 	move.l #128468,%d0
 492      F5D4 
 493 03b0 2181 0800 	move.l %d1,(%a0,%d0.l)
 421:/home/simulink/cFS_FreeRTOS_seL4/cfe/fsw/cfe-core/src/es/cfe_es_start.c ****          
 422:/home/simulink/cFS_FreeRTOS_seL4/cfe/fsw/cfe-core/src/es/cfe_es_start.c ****          /*
 423:/home/simulink/cFS_FreeRTOS_seL4/cfe/fsw/cfe-core/src/es/cfe_es_start.c ****          ** When coming up from a Processor reset that was not caused by ES, check to see 
 424:/home/simulink/cFS_FreeRTOS_seL4/cfe/fsw/cfe-core/src/es/cfe_es_start.c ****          ** if the maximum number has been exceeded
 425:/home/simulink/cFS_FreeRTOS_seL4/cfe/fsw/cfe-core/src/es/cfe_es_start.c ****          */
 426:/home/simulink/cFS_FreeRTOS_seL4/cfe/fsw/cfe-core/src/es/cfe_es_start.c ****          if ( CFE_ES_ResetDataPtr->ResetVars.ProcessorResetCount > 
 494               	.loc 2 426 0
 495 03b4 2079 0000 	move.l CFE_ES_ResetDataPtr,%a0
 495      0000 
 496 03ba 203C 0001 	move.l #128468,%d0
 496      F5D4 
 497 03c0 2230 0800 	move.l (%a0,%d0.l),%d1
 427:/home/simulink/cFS_FreeRTOS_seL4/cfe/fsw/cfe-core/src/es/cfe_es_start.c ****               CFE_ES_ResetDataPtr->ResetVars.MaxProcessorResetCount )
 498               	.loc 2 427 0
 499 03c4 2079 0000 	move.l CFE_ES_ResetDataPtr,%a0
 499      0000 
 500 03ca 203C 0001 	move.l #128472,%d0
 500      F5D8 
 501 03d0 2030 0800 	move.l (%a0,%d0.l),%d0
 426:/home/simulink/cFS_FreeRTOS_seL4/cfe/fsw/cfe-core/src/es/cfe_es_start.c ****               CFE_ES_ResetDataPtr->ResetVars.MaxProcessorResetCount )
 502               	.loc 2 426 0
 503 03d4 B081      	cmp.l %d1,%d0
 504 03d6 6400 00B2 	jcc .L21
 428:/home/simulink/cFS_FreeRTOS_seL4/cfe/fsw/cfe-core/src/es/cfe_es_start.c ****          {
 429:/home/simulink/cFS_FreeRTOS_seL4/cfe/fsw/cfe-core/src/es/cfe_es_start.c ****              if ( StartSubtype == CFE_PSP_RST_SUBTYPE_HW_SPECIAL_COMMAND )
 505               	.loc 2 429 0
 506 03da 7003      	moveq #3,%d0
 507 03dc B0AF 0014 	cmp.l 20(%sp),%d0
 508 03e0 6646      	jne .L22
 430:/home/simulink/cFS_FreeRTOS_seL4/cfe/fsw/cfe-core/src/es/cfe_es_start.c ****              {
 431:/home/simulink/cFS_FreeRTOS_seL4/cfe/fsw/cfe-core/src/es/cfe_es_start.c ****                  CFE_ES_ResetDataPtr->ResetVars.ResetSubtype = CFE_PSP_RST_SUBTYPE_HW_SPECIAL_COMMA
 509               	.loc 2 431 0
 510 03e2 2079 0000 	move.l CFE_ES_ResetDataPtr,%a0
 510      0000 
 511 03e8 203C 0001 	move.l #128456,%d0
 511      F5C8 
 512 03ee 7203      	moveq #3,%d1
 513 03f0 2181 0800 	move.l %d1,(%a0,%d0.l)
 432:/home/simulink/cFS_FreeRTOS_seL4/cfe/fsw/cfe-core/src/es/cfe_es_start.c ****                  CFE_ES_WriteToSysLog("POWER ON RESET due to max proc resets (HW Spec Cmd).\n");
 514               	.loc 2 432 0
 515 03f4 4879 0000 	pea .LC15
 515      0000 
 516               	.cfi_def_cfa_offset 20
 517 03fa 4EB9 0000 	jsr CFE_ES_WriteToSysLog
 517      0000 
 518 0400 588F      	addq.l #4,%sp
 519               	.cfi_def_cfa_offset 16
 433:/home/simulink/cFS_FreeRTOS_seL4/cfe/fsw/cfe-core/src/es/cfe_es_start.c **** 
 434:/home/simulink/cFS_FreeRTOS_seL4/cfe/fsw/cfe-core/src/es/cfe_es_start.c ****                  /*
 435:/home/simulink/cFS_FreeRTOS_seL4/cfe/fsw/cfe-core/src/es/cfe_es_start.c ****                  ** Log the reset in the ER Log. The log will be wiped out, but it's good to have
 436:/home/simulink/cFS_FreeRTOS_seL4/cfe/fsw/cfe-core/src/es/cfe_es_start.c ****                  ** the entry just in case something fails.
 437:/home/simulink/cFS_FreeRTOS_seL4/cfe/fsw/cfe-core/src/es/cfe_es_start.c ****                  */
 438:/home/simulink/cFS_FreeRTOS_seL4/cfe/fsw/cfe-core/src/es/cfe_es_start.c ****                  status =  CFE_ES_WriteToERLog(CFE_ES_CORE_LOG_ENTRY, CFE_PSP_RST_TYPE_POWERON, Sta
68K GAS   			page 29


 520               	.loc 2 438 0
 521 0402 42A7      	clr.l -(%sp)
 522               	.cfi_def_cfa_offset 20
 523 0404 42A7      	clr.l -(%sp)
 524               	.cfi_def_cfa_offset 24
 525 0406 4879 0000 	pea .LC16
 525      0000 
 526               	.cfi_def_cfa_offset 28
 527 040c 2F2F 0020 	move.l 32(%sp),-(%sp)
 528               	.cfi_def_cfa_offset 32
 529 0410 4878 0002 	pea 2.w
 530               	.cfi_def_cfa_offset 36
 531 0414 4878 0001 	pea 1.w
 532               	.cfi_def_cfa_offset 40
 533 0418 4EB9 0000 	jsr CFE_ES_WriteToERLog
 533      0000 
 534 041e 4FEF 0018 	lea (24,%sp),%sp
 535               	.cfi_def_cfa_offset 16
 536 0422 2F40 0008 	move.l %d0,8(%sp)
 537 0426 6044      	jra .L23
 538               	.L22:
 439:/home/simulink/cFS_FreeRTOS_seL4/cfe/fsw/cfe-core/src/es/cfe_es_start.c ****                                        "POWER ON RESET due to max proc resets (HW Spec Cmd).", NULL
 440:/home/simulink/cFS_FreeRTOS_seL4/cfe/fsw/cfe-core/src/es/cfe_es_start.c ****              }
 441:/home/simulink/cFS_FreeRTOS_seL4/cfe/fsw/cfe-core/src/es/cfe_es_start.c ****              else
 442:/home/simulink/cFS_FreeRTOS_seL4/cfe/fsw/cfe-core/src/es/cfe_es_start.c ****              {
 443:/home/simulink/cFS_FreeRTOS_seL4/cfe/fsw/cfe-core/src/es/cfe_es_start.c ****                  CFE_ES_ResetDataPtr->ResetVars.ResetSubtype = CFE_PSP_RST_SUBTYPE_HW_WATCHDOG;
 539               	.loc 2 443 0
 540 0428 2079 0000 	move.l CFE_ES_ResetDataPtr,%a0
 540      0000 
 541 042e 203C 0001 	move.l #128456,%d0
 541      F5C8 
 542 0434 7204      	moveq #4,%d1
 543 0436 2181 0800 	move.l %d1,(%a0,%d0.l)
 444:/home/simulink/cFS_FreeRTOS_seL4/cfe/fsw/cfe-core/src/es/cfe_es_start.c ****                  CFE_ES_WriteToSysLog("POWER ON RESET due to max proc resets (Watchdog).\n");
 544               	.loc 2 444 0
 545 043a 4879 0000 	pea .LC17
 545      0000 
 546               	.cfi_def_cfa_offset 20
 547 0440 4EB9 0000 	jsr CFE_ES_WriteToSysLog
 547      0000 
 548 0446 588F      	addq.l #4,%sp
 549               	.cfi_def_cfa_offset 16
 445:/home/simulink/cFS_FreeRTOS_seL4/cfe/fsw/cfe-core/src/es/cfe_es_start.c **** 
 446:/home/simulink/cFS_FreeRTOS_seL4/cfe/fsw/cfe-core/src/es/cfe_es_start.c ****                  /*
 447:/home/simulink/cFS_FreeRTOS_seL4/cfe/fsw/cfe-core/src/es/cfe_es_start.c ****                  ** Log the reset in the ER Log. The log will be wiped out, but it's good to have
 448:/home/simulink/cFS_FreeRTOS_seL4/cfe/fsw/cfe-core/src/es/cfe_es_start.c ****                  ** the entry just in case something fails.
 449:/home/simulink/cFS_FreeRTOS_seL4/cfe/fsw/cfe-core/src/es/cfe_es_start.c ****                  */
 450:/home/simulink/cFS_FreeRTOS_seL4/cfe/fsw/cfe-core/src/es/cfe_es_start.c ****                  status =  CFE_ES_WriteToERLog(CFE_ES_CORE_LOG_ENTRY, CFE_PSP_RST_TYPE_POWERON, Sta
 550               	.loc 2 450 0
 551 0448 42A7      	clr.l -(%sp)
 552               	.cfi_def_cfa_offset 20
 553 044a 42A7      	clr.l -(%sp)
 554               	.cfi_def_cfa_offset 24
 555 044c 4879 0000 	pea .LC18
 555      0000 
 556               	.cfi_def_cfa_offset 28
 557 0452 2F2F 0020 	move.l 32(%sp),-(%sp)
68K GAS   			page 30


 558               	.cfi_def_cfa_offset 32
 559 0456 4878 0002 	pea 2.w
 560               	.cfi_def_cfa_offset 36
 561 045a 4878 0001 	pea 1.w
 562               	.cfi_def_cfa_offset 40
 563 045e 4EB9 0000 	jsr CFE_ES_WriteToERLog
 563      0000 
 564 0464 4FEF 0018 	lea (24,%sp),%sp
 565               	.cfi_def_cfa_offset 16
 566 0468 2F40 0008 	move.l %d0,8(%sp)
 567               	.L23:
 451:/home/simulink/cFS_FreeRTOS_seL4/cfe/fsw/cfe-core/src/es/cfe_es_start.c ****                                        "POWER ON RESET due to max proc resets (Watchdog).", NULL,0 
 452:/home/simulink/cFS_FreeRTOS_seL4/cfe/fsw/cfe-core/src/es/cfe_es_start.c ****              } 
 453:/home/simulink/cFS_FreeRTOS_seL4/cfe/fsw/cfe-core/src/es/cfe_es_start.c ****              /*
 454:/home/simulink/cFS_FreeRTOS_seL4/cfe/fsw/cfe-core/src/es/cfe_es_start.c ****              ** Call the BSP reset routine 
 455:/home/simulink/cFS_FreeRTOS_seL4/cfe/fsw/cfe-core/src/es/cfe_es_start.c ****              */
 456:/home/simulink/cFS_FreeRTOS_seL4/cfe/fsw/cfe-core/src/es/cfe_es_start.c ****              CFE_PSP_Restart(CFE_PSP_RST_TYPE_POWERON);
 568               	.loc 2 456 0
 569 046c 4878 0002 	pea 2.w
 570               	.cfi_def_cfa_offset 20
 571 0470 4EB9 0000 	jsr CFE_PSP_Restart
 571      0000 
 572 0476 588F      	addq.l #4,%sp
 573               	.cfi_def_cfa_offset 16
 457:/home/simulink/cFS_FreeRTOS_seL4/cfe/fsw/cfe-core/src/es/cfe_es_start.c ****              
 458:/home/simulink/cFS_FreeRTOS_seL4/cfe/fsw/cfe-core/src/es/cfe_es_start.c ****              /*
 459:/home/simulink/cFS_FreeRTOS_seL4/cfe/fsw/cfe-core/src/es/cfe_es_start.c ****              ** Should not return here.
 460:/home/simulink/cFS_FreeRTOS_seL4/cfe/fsw/cfe-core/src/es/cfe_es_start.c ****              */
 461:/home/simulink/cFS_FreeRTOS_seL4/cfe/fsw/cfe-core/src/es/cfe_es_start.c ****              CFE_ES_WriteToSysLog("ES Startup: Error: CFE_PSP_Restart returned.\n");
 574               	.loc 2 461 0
 575 0478 4879 0000 	pea .LC19
 575      0000 
 576               	.cfi_def_cfa_offset 20
 577 047e 4EB9 0000 	jsr CFE_ES_WriteToSysLog
 577      0000 
 578 0484 588F      	addq.l #4,%sp
 579               	.cfi_def_cfa_offset 16
 580 0486 6000 00BC 	jra .L26
 581               	.L21:
 462:/home/simulink/cFS_FreeRTOS_seL4/cfe/fsw/cfe-core/src/es/cfe_es_start.c ****            
 463:/home/simulink/cFS_FreeRTOS_seL4/cfe/fsw/cfe-core/src/es/cfe_es_start.c ****          }
 464:/home/simulink/cFS_FreeRTOS_seL4/cfe/fsw/cfe-core/src/es/cfe_es_start.c ****          else /* Maximum processor reset not exceeded */
 465:/home/simulink/cFS_FreeRTOS_seL4/cfe/fsw/cfe-core/src/es/cfe_es_start.c ****          {
 466:/home/simulink/cFS_FreeRTOS_seL4/cfe/fsw/cfe-core/src/es/cfe_es_start.c ****              if ( StartSubtype == CFE_PSP_RST_SUBTYPE_HW_SPECIAL_COMMAND )
 582               	.loc 2 466 0
 583 048a 7003      	moveq #3,%d0
 584 048c B0AF 0014 	cmp.l 20(%sp),%d0
 585 0490 6646      	jne .L25
 467:/home/simulink/cFS_FreeRTOS_seL4/cfe/fsw/cfe-core/src/es/cfe_es_start.c ****              {
 468:/home/simulink/cFS_FreeRTOS_seL4/cfe/fsw/cfe-core/src/es/cfe_es_start.c ****                 CFE_ES_ResetDataPtr->ResetVars.ResetSubtype = CFE_PSP_RST_SUBTYPE_HW_SPECIAL_COMMAN
 586               	.loc 2 468 0
 587 0492 2079 0000 	move.l CFE_ES_ResetDataPtr,%a0
 587      0000 
 588 0498 203C 0001 	move.l #128456,%d0
 588      F5C8 
 589 049e 7203      	moveq #3,%d1
 590 04a0 2181 0800 	move.l %d1,(%a0,%d0.l)
68K GAS   			page 31


 469:/home/simulink/cFS_FreeRTOS_seL4/cfe/fsw/cfe-core/src/es/cfe_es_start.c ****                 CFE_ES_WriteToSysLog("PROCESSOR RESET due to Hardware Special Command (HW Spec Cmd)
 591               	.loc 2 469 0
 592 04a4 4879 0000 	pea .LC20
 592      0000 
 593               	.cfi_def_cfa_offset 20
 594 04aa 4EB9 0000 	jsr CFE_ES_WriteToSysLog
 594      0000 
 595 04b0 588F      	addq.l #4,%sp
 596               	.cfi_def_cfa_offset 16
 470:/home/simulink/cFS_FreeRTOS_seL4/cfe/fsw/cfe-core/src/es/cfe_es_start.c **** 
 471:/home/simulink/cFS_FreeRTOS_seL4/cfe/fsw/cfe-core/src/es/cfe_es_start.c ****                 /*
 472:/home/simulink/cFS_FreeRTOS_seL4/cfe/fsw/cfe-core/src/es/cfe_es_start.c ****                 ** Log the watchdog reset 
 473:/home/simulink/cFS_FreeRTOS_seL4/cfe/fsw/cfe-core/src/es/cfe_es_start.c ****                 */
 474:/home/simulink/cFS_FreeRTOS_seL4/cfe/fsw/cfe-core/src/es/cfe_es_start.c ****                 status =  CFE_ES_WriteToERLog(CFE_ES_CORE_LOG_ENTRY, CFE_PSP_RST_TYPE_PROCESSOR, St
 597               	.loc 2 474 0
 598 04b2 42A7      	clr.l -(%sp)
 599               	.cfi_def_cfa_offset 20
 600 04b4 42A7      	clr.l -(%sp)
 601               	.cfi_def_cfa_offset 24
 602 04b6 4879 0000 	pea .LC21
 602      0000 
 603               	.cfi_def_cfa_offset 28
 604 04bc 2F2F 0020 	move.l 32(%sp),-(%sp)
 605               	.cfi_def_cfa_offset 32
 606 04c0 4878 0001 	pea 1.w
 607               	.cfi_def_cfa_offset 36
 608 04c4 4878 0001 	pea 1.w
 609               	.cfi_def_cfa_offset 40
 610 04c8 4EB9 0000 	jsr CFE_ES_WriteToERLog
 610      0000 
 611 04ce 4FEF 0018 	lea (24,%sp),%sp
 612               	.cfi_def_cfa_offset 16
 613 04d2 2F40 0008 	move.l %d0,8(%sp)
 614 04d6 606C      	jra .L26
 615               	.L25:
 475:/home/simulink/cFS_FreeRTOS_seL4/cfe/fsw/cfe-core/src/es/cfe_es_start.c ****                                        "PROCESSOR RESET due to Hardware Special Command (Hw Spec Cm
 476:/home/simulink/cFS_FreeRTOS_seL4/cfe/fsw/cfe-core/src/es/cfe_es_start.c ****  
 477:/home/simulink/cFS_FreeRTOS_seL4/cfe/fsw/cfe-core/src/es/cfe_es_start.c ****              }
 478:/home/simulink/cFS_FreeRTOS_seL4/cfe/fsw/cfe-core/src/es/cfe_es_start.c ****              else
 479:/home/simulink/cFS_FreeRTOS_seL4/cfe/fsw/cfe-core/src/es/cfe_es_start.c ****              {
 480:/home/simulink/cFS_FreeRTOS_seL4/cfe/fsw/cfe-core/src/es/cfe_es_start.c ****                 CFE_ES_ResetDataPtr->ResetVars.ResetSubtype = CFE_PSP_RST_SUBTYPE_HW_WATCHDOG;
 616               	.loc 2 480 0
 617 04d8 2079 0000 	move.l CFE_ES_ResetDataPtr,%a0
 617      0000 
 618 04de 203C 0001 	move.l #128456,%d0
 618      F5C8 
 619 04e4 7204      	moveq #4,%d1
 620 04e6 2181 0800 	move.l %d1,(%a0,%d0.l)
 481:/home/simulink/cFS_FreeRTOS_seL4/cfe/fsw/cfe-core/src/es/cfe_es_start.c ****                 CFE_ES_WriteToSysLog("PROCESSOR RESET due to Watchdog (Watchdog).\n");
 621               	.loc 2 481 0
 622 04ea 4879 0000 	pea .LC22
 622      0000 
 623               	.cfi_def_cfa_offset 20
 624 04f0 4EB9 0000 	jsr CFE_ES_WriteToSysLog
 624      0000 
 625 04f6 588F      	addq.l #4,%sp
 626               	.cfi_def_cfa_offset 16
68K GAS   			page 32


 482:/home/simulink/cFS_FreeRTOS_seL4/cfe/fsw/cfe-core/src/es/cfe_es_start.c **** 
 483:/home/simulink/cFS_FreeRTOS_seL4/cfe/fsw/cfe-core/src/es/cfe_es_start.c ****                 /*
 484:/home/simulink/cFS_FreeRTOS_seL4/cfe/fsw/cfe-core/src/es/cfe_es_start.c ****                 ** Log the watchdog reset 
 485:/home/simulink/cFS_FreeRTOS_seL4/cfe/fsw/cfe-core/src/es/cfe_es_start.c ****                 */
 486:/home/simulink/cFS_FreeRTOS_seL4/cfe/fsw/cfe-core/src/es/cfe_es_start.c ****                 status =  CFE_ES_WriteToERLog(CFE_ES_CORE_LOG_ENTRY, CFE_PSP_RST_TYPE_PROCESSOR, St
 627               	.loc 2 486 0
 628 04f8 42A7      	clr.l -(%sp)
 629               	.cfi_def_cfa_offset 20
 630 04fa 42A7      	clr.l -(%sp)
 631               	.cfi_def_cfa_offset 24
 632 04fc 4879 0000 	pea .LC23
 632      0000 
 633               	.cfi_def_cfa_offset 28
 634 0502 2F2F 0020 	move.l 32(%sp),-(%sp)
 635               	.cfi_def_cfa_offset 32
 636 0506 4878 0001 	pea 1.w
 637               	.cfi_def_cfa_offset 36
 638 050a 4878 0001 	pea 1.w
 639               	.cfi_def_cfa_offset 40
 640 050e 4EB9 0000 	jsr CFE_ES_WriteToERLog
 640      0000 
 641 0514 4FEF 0018 	lea (24,%sp),%sp
 642               	.cfi_def_cfa_offset 16
 643 0518 2F40 0008 	move.l %d0,8(%sp)
 644 051c 6026      	jra .L26
 645               	.L20:
 487:/home/simulink/cFS_FreeRTOS_seL4/cfe/fsw/cfe-core/src/es/cfe_es_start.c ****                                        "PROCESSOR RESET due to Watchdog (Watchdog).", NULL,0 );
 488:/home/simulink/cFS_FreeRTOS_seL4/cfe/fsw/cfe-core/src/es/cfe_es_start.c **** 
 489:/home/simulink/cFS_FreeRTOS_seL4/cfe/fsw/cfe-core/src/es/cfe_es_start.c ****              }
 490:/home/simulink/cFS_FreeRTOS_seL4/cfe/fsw/cfe-core/src/es/cfe_es_start.c ****  
 491:/home/simulink/cFS_FreeRTOS_seL4/cfe/fsw/cfe-core/src/es/cfe_es_start.c ****          } /* end if */
 492:/home/simulink/cFS_FreeRTOS_seL4/cfe/fsw/cfe-core/src/es/cfe_es_start.c ****          
 493:/home/simulink/cFS_FreeRTOS_seL4/cfe/fsw/cfe-core/src/es/cfe_es_start.c ****       }
 494:/home/simulink/cFS_FreeRTOS_seL4/cfe/fsw/cfe-core/src/es/cfe_es_start.c ****       /*
 495:/home/simulink/cFS_FreeRTOS_seL4/cfe/fsw/cfe-core/src/es/cfe_es_start.c ****       ** If a processor reset is due to a command or exception, the reset has already been logged.
 496:/home/simulink/cFS_FreeRTOS_seL4/cfe/fsw/cfe-core/src/es/cfe_es_start.c ****       ** Update the reset variables only.
 497:/home/simulink/cFS_FreeRTOS_seL4/cfe/fsw/cfe-core/src/es/cfe_es_start.c ****       ** The logic for detecting maximum resets is done on the command/exception side
 498:/home/simulink/cFS_FreeRTOS_seL4/cfe/fsw/cfe-core/src/es/cfe_es_start.c ****       ** on the "way down" when the command or exception handler is executed.
 499:/home/simulink/cFS_FreeRTOS_seL4/cfe/fsw/cfe-core/src/es/cfe_es_start.c ****       */
 500:/home/simulink/cFS_FreeRTOS_seL4/cfe/fsw/cfe-core/src/es/cfe_es_start.c ****       else
 501:/home/simulink/cFS_FreeRTOS_seL4/cfe/fsw/cfe-core/src/es/cfe_es_start.c ****       {
 502:/home/simulink/cFS_FreeRTOS_seL4/cfe/fsw/cfe-core/src/es/cfe_es_start.c ****          CFE_ES_ResetDataPtr->ResetVars.ResetType    = CFE_PSP_RST_TYPE_PROCESSOR;
 646               	.loc 2 502 0
 647 051e 2079 0000 	move.l CFE_ES_ResetDataPtr,%a0
 647      0000 
 648 0524 203C 0001 	move.l #128452,%d0
 648      F5C4 
 649 052a 7201      	moveq #1,%d1
 650 052c 2181 0800 	move.l %d1,(%a0,%d0.l)
 503:/home/simulink/cFS_FreeRTOS_seL4/cfe/fsw/cfe-core/src/es/cfe_es_start.c ****          CFE_ES_ResetDataPtr->ResetVars.ResetSubtype = StartSubtype;
 651               	.loc 2 503 0
 652 0530 2079 0000 	move.l CFE_ES_ResetDataPtr,%a0
 652      0000 
 653 0536 203C 0001 	move.l #128456,%d0
 653      F5C8 
 654 053c 43EF 0014 	lea (20,%sp),%a1
 655 0540 2191 0800 	move.l (%a1),(%a0,%d0.l)
68K GAS   			page 33


 656               	.L26:
 504:/home/simulink/cFS_FreeRTOS_seL4/cfe/fsw/cfe-core/src/es/cfe_es_start.c ****       }
 505:/home/simulink/cFS_FreeRTOS_seL4/cfe/fsw/cfe-core/src/es/cfe_es_start.c **** 
 506:/home/simulink/cFS_FreeRTOS_seL4/cfe/fsw/cfe-core/src/es/cfe_es_start.c ****       /*
 507:/home/simulink/cFS_FreeRTOS_seL4/cfe/fsw/cfe-core/src/es/cfe_es_start.c ****       ** Initialize processor reset counters.
 508:/home/simulink/cFS_FreeRTOS_seL4/cfe/fsw/cfe-core/src/es/cfe_es_start.c ****       */
 509:/home/simulink/cFS_FreeRTOS_seL4/cfe/fsw/cfe-core/src/es/cfe_es_start.c ****       CFE_ES_Global.DebugVars.DebugFlag = 0;
 657               	.loc 2 509 0
 658 0544 42B9 0000 	clr.l CFE_ES_Global
 658      0000 
 659               	.L19:
 510:/home/simulink/cFS_FreeRTOS_seL4/cfe/fsw/cfe-core/src/es/cfe_es_start.c ****    }
 511:/home/simulink/cFS_FreeRTOS_seL4/cfe/fsw/cfe-core/src/es/cfe_es_start.c ****    
 512:/home/simulink/cFS_FreeRTOS_seL4/cfe/fsw/cfe-core/src/es/cfe_es_start.c ****    /*
 513:/home/simulink/cFS_FreeRTOS_seL4/cfe/fsw/cfe-core/src/es/cfe_es_start.c ****    ** Clear the commanded reset flag, in case a watchdog happens.
 514:/home/simulink/cFS_FreeRTOS_seL4/cfe/fsw/cfe-core/src/es/cfe_es_start.c ****    */
 515:/home/simulink/cFS_FreeRTOS_seL4/cfe/fsw/cfe-core/src/es/cfe_es_start.c ****    CFE_ES_ResetDataPtr->ResetVars.ES_CausedReset = FALSE;
 660               	.loc 2 515 0
 661 054a 2079 0000 	move.l CFE_ES_ResetDataPtr,%a0
 661      0000 
 662 0550 203C 0001 	move.l #128464,%d0
 662      F5D0 
 663 0556 42B0 0800 	clr.l (%a0,%d0.l)
 516:/home/simulink/cFS_FreeRTOS_seL4/cfe/fsw/cfe-core/src/es/cfe_es_start.c ****       
 517:/home/simulink/cFS_FreeRTOS_seL4/cfe/fsw/cfe-core/src/es/cfe_es_start.c **** }
 664               	.loc 2 517 0
 665 055a 4E71      	nop
 666 055c 4FEF 000C 	lea (12,%sp),%sp
 667 0560 4E75      	rts
 668               	.cfi_endproc
 669               	.LFE60:
 670               	.sizeCFE_ES_SetupResetVariables, .-CFE_ES_SetupResetVariables
 671               	.section.rodata
 672               	.LC24:
 673 04ec 4553 2053 	.string"ES Startup: Cannot Get Memory for Volatile Disk. EC = 0x%08X\n"
 673      7461 7274 
 673      7570 3A20 
 673      4361 6E6E 
 673      6F74 2047 
 674               	.LC25:
 675 052a 5241 4D00 	.string"RAM"
 676               	.LC26:
 677 052e 2F72 616D 	.string"/ramdev0"
 677      6465 7630 
 677      00
 678               	.LC27:
 679 0537 4553 2053 	.string"ES Startup: Error Creating Volatile(RAM) Volume. EC = 0x%08X\n"
 679      7461 7274 
 679      7570 3A20 
 679      4572 726F 
 679      7220 4372 
 680               	.LC28:
 681 0575 4553 2053 	.string"ES Startup: Error Initializing Volatile(RAM) Volume. EC = 0x%08X\n"
 681      7461 7274 
 681      7570 3A20 
 681      4572 726F 
 681      7220 496E 
68K GAS   			page 34


 682               	.LC29:
 683 05b7 4553 2053 	.string"ES Startup: Formatting Volatile(RAM) Volume.\n"
 683      7461 7274 
 683      7570 3A20 
 683      466F 726D 
 683      6174 7469 
 684               	.LC30:
 685 05e5 2F72 616D 	.string"/ram"
 685      00
 686               	.LC31:
 687 05ea 4553 2053 	.string"ES Startup: Error Mounting Volatile(RAM) Volume. EC = 0x%08X\n"
 687      7461 7274 
 687      7570 3A20 
 687      4572 726F 
 687      7220 4D6F 
 688               	.LC32:
 689 0628 566F 6C61 	.string"Volatile Disk has %d Percent free space.\n"
 689      7469 6C65 
 689      2044 6973 
 689      6B20 6861 
 689      7320 2564 
 690               	.LC33:
 691 0652 4553 2053 	.string"ES Startup: Insufficent Free Space on Volatile Disk, Reformatting.\n"
 691      7461 7274 
 691      7570 3A20 
 691      496E 7375 
 691      6666 6963 
 692               	.LC34:
 693 0696 4553 2053 	.string"ES Startup: Error Re-Mounting Volatile(RAM) Volume. EC = 0x%08X\n"
 693      7461 7274 
 693      7570 3A20 
 693      4572 726F 
 693      7220 5265 
 694               	.LC35:
 695 06d7 4553 2053 	.string"ES Startup: Error Re-Formating Volatile(RAM) Volume. EC = 0x%08X\n"
 695      7461 7274 
 695      7570 3A20 
 695      4572 726F 
 695      7220 5265 
 696               	.LC36:
 697 0719 4553 2053 	.string"ES Startup: Error Removing Volatile(RAM) Volume. EC = 0x%08X\n"
 697      7461 7274 
 697      7570 3A20 
 697      4572 726F 
 697      7220 5265 
 698               	.LC37:
 699 0757 4553 2053 	.string"ES Startup: Error Un-Mounting Volatile(RAM) Volume. EC = 0x%08X\n"
 699      7461 7274 
 699      7570 3A20 
 699      4572 726F 
 699      7220 556E 
 700               	.LC38:
 701 0798 4553 2053 	.string"ES Startup: Error Determining Blocks Free on Volume. EC = 0x%08X\n"
 701      7461 7274 
 701      7570 3A20 
 701      4572 726F 
 701      7220 4465 
68K GAS   			page 35


 702               	.text
 703               	.align2
 704               	.globlCFE_ES_InitializeFileSystems
 705               	.typeCFE_ES_InitializeFileSystems, @function
 706               	CFE_ES_InitializeFileSystems:
 707               	.LFB61:
 518:/home/simulink/cFS_FreeRTOS_seL4/cfe/fsw/cfe-core/src/es/cfe_es_start.c **** 
 519:/home/simulink/cFS_FreeRTOS_seL4/cfe/fsw/cfe-core/src/es/cfe_es_start.c **** /*
 520:/home/simulink/cFS_FreeRTOS_seL4/cfe/fsw/cfe-core/src/es/cfe_es_start.c **** ** Name: CFE_ES_InitializeFileSystems
 521:/home/simulink/cFS_FreeRTOS_seL4/cfe/fsw/cfe-core/src/es/cfe_es_start.c **** **
 522:/home/simulink/cFS_FreeRTOS_seL4/cfe/fsw/cfe-core/src/es/cfe_es_start.c **** ** Purpose: This function initializes the file systems used in the cFE core.
 523:/home/simulink/cFS_FreeRTOS_seL4/cfe/fsw/cfe-core/src/es/cfe_es_start.c **** **
 524:/home/simulink/cFS_FreeRTOS_seL4/cfe/fsw/cfe-core/src/es/cfe_es_start.c **** */
 525:/home/simulink/cFS_FreeRTOS_seL4/cfe/fsw/cfe-core/src/es/cfe_es_start.c **** void CFE_ES_InitializeFileSystems(uint32 start_type)
 526:/home/simulink/cFS_FreeRTOS_seL4/cfe/fsw/cfe-core/src/es/cfe_es_start.c **** {
 708               	.loc 2 526 0
 709               	.cfi_startproc
 710 0562 4FEF FFEC 	lea (-20,%sp),%sp
 711               	.cfi_def_cfa_offset 24
 527:/home/simulink/cFS_FreeRTOS_seL4/cfe/fsw/cfe-core/src/es/cfe_es_start.c ****    int32   RetStatus;
 528:/home/simulink/cFS_FreeRTOS_seL4/cfe/fsw/cfe-core/src/es/cfe_es_start.c ****    cpuaddr RamDiskMemoryAddress;
 529:/home/simulink/cFS_FreeRTOS_seL4/cfe/fsw/cfe-core/src/es/cfe_es_start.c ****    uint32  RamDiskMemorySize;
 530:/home/simulink/cFS_FreeRTOS_seL4/cfe/fsw/cfe-core/src/es/cfe_es_start.c ****    int32   BlocksFree;
 531:/home/simulink/cFS_FreeRTOS_seL4/cfe/fsw/cfe-core/src/es/cfe_es_start.c ****    int32   PercentFree;
 532:/home/simulink/cFS_FreeRTOS_seL4/cfe/fsw/cfe-core/src/es/cfe_es_start.c ****  
 533:/home/simulink/cFS_FreeRTOS_seL4/cfe/fsw/cfe-core/src/es/cfe_es_start.c ****    /* 
 534:/home/simulink/cFS_FreeRTOS_seL4/cfe/fsw/cfe-core/src/es/cfe_es_start.c ****    ** Get the memory area for the RAM disk 
 535:/home/simulink/cFS_FreeRTOS_seL4/cfe/fsw/cfe-core/src/es/cfe_es_start.c ****    */
 536:/home/simulink/cFS_FreeRTOS_seL4/cfe/fsw/cfe-core/src/es/cfe_es_start.c ****    RetStatus = CFE_PSP_GetVolatileDiskMem(&(RamDiskMemoryAddress), &(RamDiskMemorySize));
 712               	.loc 2 536 0
 713 0566 200F      	move.l %sp,%d0
 714 0568 2F00      	move.l %d0,-(%sp)
 715               	.cfi_def_cfa_offset 28
 716 056a 200F      	move.l %sp,%d0
 717 056c 5080      	addq.l #8,%d0
 718 056e 2F00      	move.l %d0,-(%sp)
 719               	.cfi_def_cfa_offset 32
 720 0570 4EB9 0000 	jsr CFE_PSP_GetVolatileDiskMem
 720      0000 
 721 0576 508F      	addq.l #8,%sp
 722               	.cfi_def_cfa_offset 24
 723 0578 2F40 000C 	move.l %d0,12(%sp)
 537:/home/simulink/cFS_FreeRTOS_seL4/cfe/fsw/cfe-core/src/es/cfe_es_start.c **** 
 538:/home/simulink/cFS_FreeRTOS_seL4/cfe/fsw/cfe-core/src/es/cfe_es_start.c ****    if ( RetStatus != CFE_PSP_SUCCESS )
 724               	.loc 2 538 0
 725 057c 4AAF 000C 	tst.l 12(%sp)
 726 0580 672C      	jeq .L28
 539:/home/simulink/cFS_FreeRTOS_seL4/cfe/fsw/cfe-core/src/es/cfe_es_start.c ****    {
 540:/home/simulink/cFS_FreeRTOS_seL4/cfe/fsw/cfe-core/src/es/cfe_es_start.c ****       CFE_ES_WriteToSysLog("ES Startup: Cannot Get Memory for Volatile Disk. EC = 0x%08X\n",(unsign
 727               	.loc 2 540 0
 728 0582 202F 000C 	move.l 12(%sp),%d0
 729 0586 2F00      	move.l %d0,-(%sp)
 730               	.cfi_def_cfa_offset 28
 731 0588 4879 0000 	pea .LC24
 731      0000 
 732               	.cfi_def_cfa_offset 32
 733 058e 4EB9 0000 	jsr CFE_ES_WriteToSysLog
68K GAS   			page 36


 733      0000 
 734 0594 508F      	addq.l #8,%sp
 735               	.cfi_def_cfa_offset 24
 541:/home/simulink/cFS_FreeRTOS_seL4/cfe/fsw/cfe-core/src/es/cfe_es_start.c **** 
 542:/home/simulink/cFS_FreeRTOS_seL4/cfe/fsw/cfe-core/src/es/cfe_es_start.c ****       /*
 543:/home/simulink/cFS_FreeRTOS_seL4/cfe/fsw/cfe-core/src/es/cfe_es_start.c ****       ** Delay to allow the message to be read
 544:/home/simulink/cFS_FreeRTOS_seL4/cfe/fsw/cfe-core/src/es/cfe_es_start.c ****       */
 545:/home/simulink/cFS_FreeRTOS_seL4/cfe/fsw/cfe-core/src/es/cfe_es_start.c ****       OS_TaskDelay(CFE_ES_PANIC_DELAY);
 736               	.loc 2 545 0
 737 0596 4878 01F4 	pea 500.w
 738               	.cfi_def_cfa_offset 28
 739 059a 4EB9 0000 	jsr OS_TaskDelay
 739      0000 
 740 05a0 588F      	addq.l #4,%sp
 741               	.cfi_def_cfa_offset 24
 546:/home/simulink/cFS_FreeRTOS_seL4/cfe/fsw/cfe-core/src/es/cfe_es_start.c ****       
 547:/home/simulink/cFS_FreeRTOS_seL4/cfe/fsw/cfe-core/src/es/cfe_es_start.c ****       /* 
 548:/home/simulink/cFS_FreeRTOS_seL4/cfe/fsw/cfe-core/src/es/cfe_es_start.c ****       ** cFE Cannot continue to start up.  
 549:/home/simulink/cFS_FreeRTOS_seL4/cfe/fsw/cfe-core/src/es/cfe_es_start.c ****       */
 550:/home/simulink/cFS_FreeRTOS_seL4/cfe/fsw/cfe-core/src/es/cfe_es_start.c ****       CFE_PSP_Panic(CFE_PSP_PANIC_VOLATILE_DISK);
 742               	.loc 2 550 0
 743 05a2 4878 0002 	pea 2.w
 744               	.cfi_def_cfa_offset 28
 745 05a6 4EB9 0000 	jsr CFE_PSP_Panic
 745      0000 
 746 05ac 588F      	addq.l #4,%sp
 747               	.cfi_def_cfa_offset 24
 748               	.L28:
 551:/home/simulink/cFS_FreeRTOS_seL4/cfe/fsw/cfe-core/src/es/cfe_es_start.c **** 
 552:/home/simulink/cFS_FreeRTOS_seL4/cfe/fsw/cfe-core/src/es/cfe_es_start.c ****    }      
 553:/home/simulink/cFS_FreeRTOS_seL4/cfe/fsw/cfe-core/src/es/cfe_es_start.c ****    
 554:/home/simulink/cFS_FreeRTOS_seL4/cfe/fsw/cfe-core/src/es/cfe_es_start.c ****    /*
 555:/home/simulink/cFS_FreeRTOS_seL4/cfe/fsw/cfe-core/src/es/cfe_es_start.c ****    ** Next, either format, or just initialize the RAM disk depending on
 556:/home/simulink/cFS_FreeRTOS_seL4/cfe/fsw/cfe-core/src/es/cfe_es_start.c ****    ** the reset type
 557:/home/simulink/cFS_FreeRTOS_seL4/cfe/fsw/cfe-core/src/es/cfe_es_start.c ****    */
 558:/home/simulink/cFS_FreeRTOS_seL4/cfe/fsw/cfe-core/src/es/cfe_es_start.c ****    if ( start_type == CFE_PSP_RST_TYPE_POWERON )
 749               	.loc 2 558 0
 750 05ae 7002      	moveq #2,%d0
 751 05b0 B0AF 0018 	cmp.l 24(%sp),%d0
 752 05b4 6660      	jne .L29
 559:/home/simulink/cFS_FreeRTOS_seL4/cfe/fsw/cfe-core/src/es/cfe_es_start.c ****    {
 560:/home/simulink/cFS_FreeRTOS_seL4/cfe/fsw/cfe-core/src/es/cfe_es_start.c ****       RetStatus = OS_mkfs((void *)RamDiskMemoryAddress, "/ramdev0", "RAM", CFE_ES_RAM_DISK_SECTOR_S
 753               	.loc 2 560 0
 754 05b6 202F 0004 	move.l 4(%sp),%d0
 755 05ba 4878 1000 	pea 4096.w
 756               	.cfi_def_cfa_offset 28
 757 05be 4878 0200 	pea 512.w
 758               	.cfi_def_cfa_offset 32
 759 05c2 4879 0000 	pea .LC25
 759      0000 
 760               	.cfi_def_cfa_offset 36
 761 05c8 4879 0000 	pea .LC26
 761      0000 
 762               	.cfi_def_cfa_offset 40
 763 05ce 2F00      	move.l %d0,-(%sp)
 764               	.cfi_def_cfa_offset 44
 765 05d0 4EB9 0000 	jsr OS_mkfs
68K GAS   			page 37


 765      0000 
 766 05d6 4FEF 0014 	lea (20,%sp),%sp
 767               	.cfi_def_cfa_offset 24
 768 05da 2F40 000C 	move.l %d0,12(%sp)
 561:/home/simulink/cFS_FreeRTOS_seL4/cfe/fsw/cfe-core/src/es/cfe_es_start.c ****       if ( RetStatus != OS_FS_SUCCESS )
 769               	.loc 2 561 0
 770 05de 4AAF 000C 	tst.l 12(%sp)
 771 05e2 6700 00DC 	jeq .L31
 562:/home/simulink/cFS_FreeRTOS_seL4/cfe/fsw/cfe-core/src/es/cfe_es_start.c ****       {
 563:/home/simulink/cFS_FreeRTOS_seL4/cfe/fsw/cfe-core/src/es/cfe_es_start.c ****          CFE_ES_WriteToSysLog("ES Startup: Error Creating Volatile(RAM) Volume. EC = 0x%08X\n",(uns
 772               	.loc 2 563 0
 773 05e6 202F 000C 	move.l 12(%sp),%d0
 774 05ea 2F00      	move.l %d0,-(%sp)
 775               	.cfi_def_cfa_offset 28
 776 05ec 4879 0000 	pea .LC27
 776      0000 
 777               	.cfi_def_cfa_offset 32
 778 05f2 4EB9 0000 	jsr CFE_ES_WriteToSysLog
 778      0000 
 779 05f8 508F      	addq.l #8,%sp
 780               	.cfi_def_cfa_offset 24
 564:/home/simulink/cFS_FreeRTOS_seL4/cfe/fsw/cfe-core/src/es/cfe_es_start.c **** 
 565:/home/simulink/cFS_FreeRTOS_seL4/cfe/fsw/cfe-core/src/es/cfe_es_start.c ****          /*
 566:/home/simulink/cFS_FreeRTOS_seL4/cfe/fsw/cfe-core/src/es/cfe_es_start.c ****          ** Delay to allow the message to be read
 567:/home/simulink/cFS_FreeRTOS_seL4/cfe/fsw/cfe-core/src/es/cfe_es_start.c ****          */
 568:/home/simulink/cFS_FreeRTOS_seL4/cfe/fsw/cfe-core/src/es/cfe_es_start.c ****          OS_TaskDelay(CFE_ES_PANIC_DELAY);
 781               	.loc 2 568 0
 782 05fa 4878 01F4 	pea 500.w
 783               	.cfi_def_cfa_offset 28
 784 05fe 4EB9 0000 	jsr OS_TaskDelay
 784      0000 
 785 0604 588F      	addq.l #4,%sp
 786               	.cfi_def_cfa_offset 24
 569:/home/simulink/cFS_FreeRTOS_seL4/cfe/fsw/cfe-core/src/es/cfe_es_start.c ****       
 570:/home/simulink/cFS_FreeRTOS_seL4/cfe/fsw/cfe-core/src/es/cfe_es_start.c ****          /* 
 571:/home/simulink/cFS_FreeRTOS_seL4/cfe/fsw/cfe-core/src/es/cfe_es_start.c ****          ** cFE Cannot continue to start up.  
 572:/home/simulink/cFS_FreeRTOS_seL4/cfe/fsw/cfe-core/src/es/cfe_es_start.c ****          */
 573:/home/simulink/cFS_FreeRTOS_seL4/cfe/fsw/cfe-core/src/es/cfe_es_start.c ****          CFE_PSP_Panic(CFE_PSP_PANIC_VOLATILE_DISK);
 787               	.loc 2 573 0
 788 0606 4878 0002 	pea 2.w
 789               	.cfi_def_cfa_offset 28
 790 060a 4EB9 0000 	jsr CFE_PSP_Panic
 790      0000 
 791 0610 588F      	addq.l #4,%sp
 792               	.cfi_def_cfa_offset 24
 793 0612 6000 00AC 	jra .L31
 794               	.L29:
 574:/home/simulink/cFS_FreeRTOS_seL4/cfe/fsw/cfe-core/src/es/cfe_es_start.c ****       }
 575:/home/simulink/cFS_FreeRTOS_seL4/cfe/fsw/cfe-core/src/es/cfe_es_start.c ****    }
 576:/home/simulink/cFS_FreeRTOS_seL4/cfe/fsw/cfe-core/src/es/cfe_es_start.c ****    else
 577:/home/simulink/cFS_FreeRTOS_seL4/cfe/fsw/cfe-core/src/es/cfe_es_start.c ****    {
 578:/home/simulink/cFS_FreeRTOS_seL4/cfe/fsw/cfe-core/src/es/cfe_es_start.c ****       RetStatus = OS_initfs((void *)RamDiskMemoryAddress, "/ramdev0", "RAM", CFE_ES_RAM_DISK_SECTOR
 795               	.loc 2 578 0
 796 0616 202F 0004 	move.l 4(%sp),%d0
 797 061a 4878 1000 	pea 4096.w
 798               	.cfi_def_cfa_offset 28
 799 061e 4878 0200 	pea 512.w
68K GAS   			page 38


 800               	.cfi_def_cfa_offset 32
 801 0622 4879 0000 	pea .LC25
 801      0000 
 802               	.cfi_def_cfa_offset 36
 803 0628 4879 0000 	pea .LC26
 803      0000 
 804               	.cfi_def_cfa_offset 40
 805 062e 2F00      	move.l %d0,-(%sp)
 806               	.cfi_def_cfa_offset 44
 807 0630 4EB9 0000 	jsr OS_initfs
 807      0000 
 808 0636 4FEF 0014 	lea (20,%sp),%sp
 809               	.cfi_def_cfa_offset 24
 810 063a 2F40 000C 	move.l %d0,12(%sp)
 579:/home/simulink/cFS_FreeRTOS_seL4/cfe/fsw/cfe-core/src/es/cfe_es_start.c ****       if ( RetStatus != OS_FS_SUCCESS )
 811               	.loc 2 579 0
 812 063e 4AAF 000C 	tst.l 12(%sp)
 813 0642 677C      	jeq .L31
 580:/home/simulink/cFS_FreeRTOS_seL4/cfe/fsw/cfe-core/src/es/cfe_es_start.c ****       {
 581:/home/simulink/cFS_FreeRTOS_seL4/cfe/fsw/cfe-core/src/es/cfe_es_start.c ****          CFE_ES_WriteToSysLog("ES Startup: Error Initializing Volatile(RAM) Volume. EC = 0x%08X\n",
 814               	.loc 2 581 0
 815 0644 202F 000C 	move.l 12(%sp),%d0
 816 0648 2F00      	move.l %d0,-(%sp)
 817               	.cfi_def_cfa_offset 28
 818 064a 4879 0000 	pea .LC28
 818      0000 
 819               	.cfi_def_cfa_offset 32
 820 0650 4EB9 0000 	jsr CFE_ES_WriteToSysLog
 820      0000 
 821 0656 508F      	addq.l #8,%sp
 822               	.cfi_def_cfa_offset 24
 582:/home/simulink/cFS_FreeRTOS_seL4/cfe/fsw/cfe-core/src/es/cfe_es_start.c ****          CFE_ES_WriteToSysLog("ES Startup: Formatting Volatile(RAM) Volume.\n");
 823               	.loc 2 582 0
 824 0658 4879 0000 	pea .LC29
 824      0000 
 825               	.cfi_def_cfa_offset 28
 826 065e 4EB9 0000 	jsr CFE_ES_WriteToSysLog
 826      0000 
 827 0664 588F      	addq.l #4,%sp
 828               	.cfi_def_cfa_offset 24
 583:/home/simulink/cFS_FreeRTOS_seL4/cfe/fsw/cfe-core/src/es/cfe_es_start.c ****          
 584:/home/simulink/cFS_FreeRTOS_seL4/cfe/fsw/cfe-core/src/es/cfe_es_start.c ****          RetStatus = OS_mkfs((void *)RamDiskMemoryAddress, "/ramdev0", "RAM", CFE_ES_RAM_DISK_SECTO
 829               	.loc 2 584 0
 830 0666 202F 0004 	move.l 4(%sp),%d0
 831 066a 4878 1000 	pea 4096.w
 832               	.cfi_def_cfa_offset 28
 833 066e 4878 0200 	pea 512.w
 834               	.cfi_def_cfa_offset 32
 835 0672 4879 0000 	pea .LC25
 835      0000 
 836               	.cfi_def_cfa_offset 36
 837 0678 4879 0000 	pea .LC26
 837      0000 
 838               	.cfi_def_cfa_offset 40
 839 067e 2F00      	move.l %d0,-(%sp)
 840               	.cfi_def_cfa_offset 44
 841 0680 4EB9 0000 	jsr OS_mkfs
68K GAS   			page 39


 841      0000 
 842 0686 4FEF 0014 	lea (20,%sp),%sp
 843               	.cfi_def_cfa_offset 24
 844 068a 2F40 000C 	move.l %d0,12(%sp)
 585:/home/simulink/cFS_FreeRTOS_seL4/cfe/fsw/cfe-core/src/es/cfe_es_start.c ****          if ( RetStatus != OS_SUCCESS )
 845               	.loc 2 585 0
 846 068e 4AAF 000C 	tst.l 12(%sp)
 847 0692 672C      	jeq .L31
 586:/home/simulink/cFS_FreeRTOS_seL4/cfe/fsw/cfe-core/src/es/cfe_es_start.c ****          {
 587:/home/simulink/cFS_FreeRTOS_seL4/cfe/fsw/cfe-core/src/es/cfe_es_start.c ****             CFE_ES_WriteToSysLog("ES Startup: Error Creating Volatile(RAM) Volume. EC = 0x%08X\n",(
 848               	.loc 2 587 0
 849 0694 202F 000C 	move.l 12(%sp),%d0
 850 0698 2F00      	move.l %d0,-(%sp)
 851               	.cfi_def_cfa_offset 28
 852 069a 4879 0000 	pea .LC27
 852      0000 
 853               	.cfi_def_cfa_offset 32
 854 06a0 4EB9 0000 	jsr CFE_ES_WriteToSysLog
 854      0000 
 855 06a6 508F      	addq.l #8,%sp
 856               	.cfi_def_cfa_offset 24
 588:/home/simulink/cFS_FreeRTOS_seL4/cfe/fsw/cfe-core/src/es/cfe_es_start.c **** 
 589:/home/simulink/cFS_FreeRTOS_seL4/cfe/fsw/cfe-core/src/es/cfe_es_start.c ****             /*
 590:/home/simulink/cFS_FreeRTOS_seL4/cfe/fsw/cfe-core/src/es/cfe_es_start.c ****             ** Delay to allow the message to be read
 591:/home/simulink/cFS_FreeRTOS_seL4/cfe/fsw/cfe-core/src/es/cfe_es_start.c ****             */
 592:/home/simulink/cFS_FreeRTOS_seL4/cfe/fsw/cfe-core/src/es/cfe_es_start.c ****             OS_TaskDelay(CFE_ES_PANIC_DELAY);
 857               	.loc 2 592 0
 858 06a8 4878 01F4 	pea 500.w
 859               	.cfi_def_cfa_offset 28
 860 06ac 4EB9 0000 	jsr OS_TaskDelay
 860      0000 
 861 06b2 588F      	addq.l #4,%sp
 862               	.cfi_def_cfa_offset 24
 593:/home/simulink/cFS_FreeRTOS_seL4/cfe/fsw/cfe-core/src/es/cfe_es_start.c ****       
 594:/home/simulink/cFS_FreeRTOS_seL4/cfe/fsw/cfe-core/src/es/cfe_es_start.c ****             /* 
 595:/home/simulink/cFS_FreeRTOS_seL4/cfe/fsw/cfe-core/src/es/cfe_es_start.c ****             ** cFE Cannot continue to start up.  
 596:/home/simulink/cFS_FreeRTOS_seL4/cfe/fsw/cfe-core/src/es/cfe_es_start.c ****             */
 597:/home/simulink/cFS_FreeRTOS_seL4/cfe/fsw/cfe-core/src/es/cfe_es_start.c ****             CFE_PSP_Panic(CFE_PSP_PANIC_VOLATILE_DISK);
 863               	.loc 2 597 0
 864 06b4 4878 0002 	pea 2.w
 865               	.cfi_def_cfa_offset 28
 866 06b8 4EB9 0000 	jsr CFE_PSP_Panic
 866      0000 
 867 06be 588F      	addq.l #4,%sp
 868               	.cfi_def_cfa_offset 24
 869               	.L31:
 598:/home/simulink/cFS_FreeRTOS_seL4/cfe/fsw/cfe-core/src/es/cfe_es_start.c ****          }
 599:/home/simulink/cFS_FreeRTOS_seL4/cfe/fsw/cfe-core/src/es/cfe_es_start.c ****          
 600:/home/simulink/cFS_FreeRTOS_seL4/cfe/fsw/cfe-core/src/es/cfe_es_start.c ****       }
 601:/home/simulink/cFS_FreeRTOS_seL4/cfe/fsw/cfe-core/src/es/cfe_es_start.c ****    }
 602:/home/simulink/cFS_FreeRTOS_seL4/cfe/fsw/cfe-core/src/es/cfe_es_start.c **** 
 603:/home/simulink/cFS_FreeRTOS_seL4/cfe/fsw/cfe-core/src/es/cfe_es_start.c ****    /*
 604:/home/simulink/cFS_FreeRTOS_seL4/cfe/fsw/cfe-core/src/es/cfe_es_start.c ****    ** Now, mount the RAM disk
 605:/home/simulink/cFS_FreeRTOS_seL4/cfe/fsw/cfe-core/src/es/cfe_es_start.c ****    */
 606:/home/simulink/cFS_FreeRTOS_seL4/cfe/fsw/cfe-core/src/es/cfe_es_start.c ****    RetStatus = OS_mount("/ramdev0", CFE_ES_RAM_DISK_MOUNT_STRING);
 870               	.loc 2 606 0
 871 06c0 4879 0000 	pea .LC30
68K GAS   			page 40


 871      0000 
 872               	.cfi_def_cfa_offset 28
 873 06c6 4879 0000 	pea .LC26
 873      0000 
 874               	.cfi_def_cfa_offset 32
 875 06cc 4EB9 0000 	jsr OS_mount
 875      0000 
 876 06d2 508F      	addq.l #8,%sp
 877               	.cfi_def_cfa_offset 24
 878 06d4 2F40 000C 	move.l %d0,12(%sp)
 607:/home/simulink/cFS_FreeRTOS_seL4/cfe/fsw/cfe-core/src/es/cfe_es_start.c ****    if ( RetStatus != OS_FS_SUCCESS )
 879               	.loc 2 607 0
 880 06d8 4AAF 000C 	tst.l 12(%sp)
 881 06dc 672C      	jeq .L32
 608:/home/simulink/cFS_FreeRTOS_seL4/cfe/fsw/cfe-core/src/es/cfe_es_start.c ****    {
 609:/home/simulink/cFS_FreeRTOS_seL4/cfe/fsw/cfe-core/src/es/cfe_es_start.c ****       CFE_ES_WriteToSysLog("ES Startup: Error Mounting Volatile(RAM) Volume. EC = 0x%08X\n",(unsign
 882               	.loc 2 609 0
 883 06de 202F 000C 	move.l 12(%sp),%d0
 884 06e2 2F00      	move.l %d0,-(%sp)
 885               	.cfi_def_cfa_offset 28
 886 06e4 4879 0000 	pea .LC31
 886      0000 
 887               	.cfi_def_cfa_offset 32
 888 06ea 4EB9 0000 	jsr CFE_ES_WriteToSysLog
 888      0000 
 889 06f0 508F      	addq.l #8,%sp
 890               	.cfi_def_cfa_offset 24
 610:/home/simulink/cFS_FreeRTOS_seL4/cfe/fsw/cfe-core/src/es/cfe_es_start.c ****       /*
 611:/home/simulink/cFS_FreeRTOS_seL4/cfe/fsw/cfe-core/src/es/cfe_es_start.c ****       ** Delay to allow the message to be read
 612:/home/simulink/cFS_FreeRTOS_seL4/cfe/fsw/cfe-core/src/es/cfe_es_start.c ****       */
 613:/home/simulink/cFS_FreeRTOS_seL4/cfe/fsw/cfe-core/src/es/cfe_es_start.c ****       OS_TaskDelay(CFE_ES_PANIC_DELAY);
 891               	.loc 2 613 0
 892 06f2 4878 01F4 	pea 500.w
 893               	.cfi_def_cfa_offset 28
 894 06f6 4EB9 0000 	jsr OS_TaskDelay
 894      0000 
 895 06fc 588F      	addq.l #4,%sp
 896               	.cfi_def_cfa_offset 24
 614:/home/simulink/cFS_FreeRTOS_seL4/cfe/fsw/cfe-core/src/es/cfe_es_start.c ****       
 615:/home/simulink/cFS_FreeRTOS_seL4/cfe/fsw/cfe-core/src/es/cfe_es_start.c ****       /* 
 616:/home/simulink/cFS_FreeRTOS_seL4/cfe/fsw/cfe-core/src/es/cfe_es_start.c ****       ** cFE Cannot continue to start up.  
 617:/home/simulink/cFS_FreeRTOS_seL4/cfe/fsw/cfe-core/src/es/cfe_es_start.c ****       */
 618:/home/simulink/cFS_FreeRTOS_seL4/cfe/fsw/cfe-core/src/es/cfe_es_start.c ****       CFE_PSP_Panic(CFE_PSP_PANIC_VOLATILE_DISK);
 897               	.loc 2 618 0
 898 06fe 4878 0002 	pea 2.w
 899               	.cfi_def_cfa_offset 28
 900 0702 4EB9 0000 	jsr CFE_PSP_Panic
 900      0000 
 901 0708 588F      	addq.l #4,%sp
 902               	.cfi_def_cfa_offset 24
 903               	.L32:
 619:/home/simulink/cFS_FreeRTOS_seL4/cfe/fsw/cfe-core/src/es/cfe_es_start.c ****    }
 620:/home/simulink/cFS_FreeRTOS_seL4/cfe/fsw/cfe-core/src/es/cfe_es_start.c **** 
 621:/home/simulink/cFS_FreeRTOS_seL4/cfe/fsw/cfe-core/src/es/cfe_es_start.c **** 
 622:/home/simulink/cFS_FreeRTOS_seL4/cfe/fsw/cfe-core/src/es/cfe_es_start.c ****    /*
 623:/home/simulink/cFS_FreeRTOS_seL4/cfe/fsw/cfe-core/src/es/cfe_es_start.c ****    ** During a Processor reset, if the RAM disk has less than a defined 
 624:/home/simulink/cFS_FreeRTOS_seL4/cfe/fsw/cfe-core/src/es/cfe_es_start.c ****    ** amount of free space, reformat and re-mount it.
68K GAS   			page 41


 625:/home/simulink/cFS_FreeRTOS_seL4/cfe/fsw/cfe-core/src/es/cfe_es_start.c ****    ** The parameter being checked is CFE_ES_RAM_DISK_PERCENT_RESERVED
 626:/home/simulink/cFS_FreeRTOS_seL4/cfe/fsw/cfe-core/src/es/cfe_es_start.c ****    ** Note: When CFE_ES_RAM_DISK_PERCENT_RESERVED is set to 0, this feature is 
 627:/home/simulink/cFS_FreeRTOS_seL4/cfe/fsw/cfe-core/src/es/cfe_es_start.c ****    **       disabled.
 628:/home/simulink/cFS_FreeRTOS_seL4/cfe/fsw/cfe-core/src/es/cfe_es_start.c ****    */
 629:/home/simulink/cFS_FreeRTOS_seL4/cfe/fsw/cfe-core/src/es/cfe_es_start.c ****    if ((start_type == CFE_PSP_RST_TYPE_PROCESSOR) && (CFE_ES_RAM_DISK_PERCENT_RESERVED > 0))
 904               	.loc 2 629 0
 905 070a 7201      	moveq #1,%d1
 906 070c B2AF 0018 	cmp.l 24(%sp),%d1
 907 0710 6600 01EA 	jne .L44
 630:/home/simulink/cFS_FreeRTOS_seL4/cfe/fsw/cfe-core/src/es/cfe_es_start.c ****    {
 631:/home/simulink/cFS_FreeRTOS_seL4/cfe/fsw/cfe-core/src/es/cfe_es_start.c ****       /*
 632:/home/simulink/cFS_FreeRTOS_seL4/cfe/fsw/cfe-core/src/es/cfe_es_start.c ****       ** See how many blocks are free in the RAM disk
 633:/home/simulink/cFS_FreeRTOS_seL4/cfe/fsw/cfe-core/src/es/cfe_es_start.c ****       */
 634:/home/simulink/cFS_FreeRTOS_seL4/cfe/fsw/cfe-core/src/es/cfe_es_start.c ****       BlocksFree = OS_fsBlocksFree(CFE_ES_RAM_DISK_MOUNT_STRING);   
 908               	.loc 2 634 0
 909 0714 4879 0000 	pea .LC30
 909      0000 
 910               	.cfi_def_cfa_offset 28
 911 071a 4EB9 0000 	jsr OS_fsBlocksFree
 911      0000 
 912 0720 588F      	addq.l #4,%sp
 913               	.cfi_def_cfa_offset 24
 914 0722 2F40 0010 	move.l %d0,16(%sp)
 635:/home/simulink/cFS_FreeRTOS_seL4/cfe/fsw/cfe-core/src/es/cfe_es_start.c ****       if ( BlocksFree >= 0 )
 915               	.loc 2 635 0
 916 0726 4AAF 0010 	tst.l 16(%sp)
 917 072a 6D00 01A4 	jlt .L34
 636:/home/simulink/cFS_FreeRTOS_seL4/cfe/fsw/cfe-core/src/es/cfe_es_start.c ****       {
 637:/home/simulink/cFS_FreeRTOS_seL4/cfe/fsw/cfe-core/src/es/cfe_es_start.c ****          /*
 638:/home/simulink/cFS_FreeRTOS_seL4/cfe/fsw/cfe-core/src/es/cfe_es_start.c ****          ** Need a sanity check for the desktop systems.
 639:/home/simulink/cFS_FreeRTOS_seL4/cfe/fsw/cfe-core/src/es/cfe_es_start.c ****          ** Because the desktop ports map the volatile disk to the host 
 640:/home/simulink/cFS_FreeRTOS_seL4/cfe/fsw/cfe-core/src/es/cfe_es_start.c ****          ** hard disk, it will report more free blocks than the defined number
 641:/home/simulink/cFS_FreeRTOS_seL4/cfe/fsw/cfe-core/src/es/cfe_es_start.c ****          ** of sectors ( blocks ). Therefore it must be truncated.
 642:/home/simulink/cFS_FreeRTOS_seL4/cfe/fsw/cfe-core/src/es/cfe_es_start.c ****          */
 643:/home/simulink/cFS_FreeRTOS_seL4/cfe/fsw/cfe-core/src/es/cfe_es_start.c ****          if ( BlocksFree > CFE_ES_RAM_DISK_NUM_SECTORS )
 918               	.loc 2 643 0
 919 072e 203C 0000 	move.l #4096,%d0
 919      1000 
 920 0734 B0AF 0010 	cmp.l 16(%sp),%d0
 921 0738 6C0A      	jge .L35
 644:/home/simulink/cFS_FreeRTOS_seL4/cfe/fsw/cfe-core/src/es/cfe_es_start.c ****          {
 645:/home/simulink/cFS_FreeRTOS_seL4/cfe/fsw/cfe-core/src/es/cfe_es_start.c ****              BlocksFree = CFE_ES_RAM_DISK_NUM_SECTORS - 1;
 922               	.loc 2 645 0
 923 073a 223C 0000 	move.l #4095,%d1
 923      0FFF 
 924 0740 2F41 0010 	move.l %d1,16(%sp)
 925               	.L35:
 646:/home/simulink/cFS_FreeRTOS_seL4/cfe/fsw/cfe-core/src/es/cfe_es_start.c ****          }
 647:/home/simulink/cFS_FreeRTOS_seL4/cfe/fsw/cfe-core/src/es/cfe_es_start.c ****          
 648:/home/simulink/cFS_FreeRTOS_seL4/cfe/fsw/cfe-core/src/es/cfe_es_start.c ****          /*
 649:/home/simulink/cFS_FreeRTOS_seL4/cfe/fsw/cfe-core/src/es/cfe_es_start.c ****          ** Determine if the disk is too full 
 650:/home/simulink/cFS_FreeRTOS_seL4/cfe/fsw/cfe-core/src/es/cfe_es_start.c ****          */
 651:/home/simulink/cFS_FreeRTOS_seL4/cfe/fsw/cfe-core/src/es/cfe_es_start.c ****          BlocksFree = BlocksFree * 100;
 926               	.loc 2 651 0
 927 0744 202F 0010 	move.l 16(%sp),%d0
 928 0748 7264      	moveq #100,%d1
 929 074a 4C01 0800 	muls.l %d1,%d0
68K GAS   			page 42


 930 074e 2F40 0010 	move.l %d0,16(%sp)
 652:/home/simulink/cFS_FreeRTOS_seL4/cfe/fsw/cfe-core/src/es/cfe_es_start.c ****          PercentFree = BlocksFree / CFE_ES_RAM_DISK_NUM_SECTORS;
 931               	.loc 2 652 0
 932 0752 202F 0010 	move.l 16(%sp),%d0
 933 0756 4A80      	tst.l %d0
 934 0758 6C06      	jge .L36
 935 075a 0680 0000 	add.l #4095,%d0
 935      0FFF 
 936               	.L36:
 937 0760 720C      	moveq #12,%d1
 938 0762 E2A0      	asr.l %d1,%d0
 939 0764 2F40 0008 	move.l %d0,8(%sp)
 653:/home/simulink/cFS_FreeRTOS_seL4/cfe/fsw/cfe-core/src/es/cfe_es_start.c ****          CFE_ES_WriteToSysLog("Volatile Disk has %d Percent free space.\n",(int)PercentFree);
 940               	.loc 2 653 0
 941 0768 2F2F 0008 	move.l 8(%sp),-(%sp)
 942               	.cfi_def_cfa_offset 28
 943 076c 4879 0000 	pea .LC32
 943      0000 
 944               	.cfi_def_cfa_offset 32
 945 0772 4EB9 0000 	jsr CFE_ES_WriteToSysLog
 945      0000 
 946 0778 508F      	addq.l #8,%sp
 947               	.cfi_def_cfa_offset 24
 654:/home/simulink/cFS_FreeRTOS_seL4/cfe/fsw/cfe-core/src/es/cfe_es_start.c **** 
 655:/home/simulink/cFS_FreeRTOS_seL4/cfe/fsw/cfe-core/src/es/cfe_es_start.c ****          if ( PercentFree < CFE_ES_RAM_DISK_PERCENT_RESERVED )
 948               	.loc 2 655 0
 949 077a 701D      	moveq #29,%d0
 950 077c B0AF 0008 	cmp.l 8(%sp),%d0
 951 0780 6D00 017A 	jlt .L44
 656:/home/simulink/cFS_FreeRTOS_seL4/cfe/fsw/cfe-core/src/es/cfe_es_start.c ****          {
 657:/home/simulink/cFS_FreeRTOS_seL4/cfe/fsw/cfe-core/src/es/cfe_es_start.c ****             CFE_ES_WriteToSysLog("ES Startup: Insufficent Free Space on Volatile Disk, Reformatting
 952               	.loc 2 657 0
 953 0784 4879 0000 	pea .LC33
 953      0000 
 954               	.cfi_def_cfa_offset 28
 955 078a 4EB9 0000 	jsr CFE_ES_WriteToSysLog
 955      0000 
 956 0790 588F      	addq.l #4,%sp
 957               	.cfi_def_cfa_offset 24
 658:/home/simulink/cFS_FreeRTOS_seL4/cfe/fsw/cfe-core/src/es/cfe_es_start.c ****           
 659:/home/simulink/cFS_FreeRTOS_seL4/cfe/fsw/cfe-core/src/es/cfe_es_start.c ****             /*
 660:/home/simulink/cFS_FreeRTOS_seL4/cfe/fsw/cfe-core/src/es/cfe_es_start.c ****             ** First, unmount the disk
 661:/home/simulink/cFS_FreeRTOS_seL4/cfe/fsw/cfe-core/src/es/cfe_es_start.c ****             */
 662:/home/simulink/cFS_FreeRTOS_seL4/cfe/fsw/cfe-core/src/es/cfe_es_start.c ****             RetStatus = OS_unmount(CFE_ES_RAM_DISK_MOUNT_STRING);
 958               	.loc 2 662 0
 959 0792 4879 0000 	pea .LC30
 959      0000 
 960               	.cfi_def_cfa_offset 28
 961 0798 4EB9 0000 	jsr OS_unmount
 961      0000 
 962 079e 588F      	addq.l #4,%sp
 963               	.cfi_def_cfa_offset 24
 964 07a0 2F40 000C 	move.l %d0,12(%sp)
 663:/home/simulink/cFS_FreeRTOS_seL4/cfe/fsw/cfe-core/src/es/cfe_es_start.c ****             if ( RetStatus == OS_FS_SUCCESS )
 965               	.loc 2 663 0
 966 07a4 4AAF 000C 	tst.l 12(%sp)
 967 07a8 6600 00F8 	jne .L38
68K GAS   			page 43


 664:/home/simulink/cFS_FreeRTOS_seL4/cfe/fsw/cfe-core/src/es/cfe_es_start.c ****             {
 665:/home/simulink/cFS_FreeRTOS_seL4/cfe/fsw/cfe-core/src/es/cfe_es_start.c **** 
 666:/home/simulink/cFS_FreeRTOS_seL4/cfe/fsw/cfe-core/src/es/cfe_es_start.c ****                /*
 667:/home/simulink/cFS_FreeRTOS_seL4/cfe/fsw/cfe-core/src/es/cfe_es_start.c ****                ** Remove the file system from the OSAL
 668:/home/simulink/cFS_FreeRTOS_seL4/cfe/fsw/cfe-core/src/es/cfe_es_start.c ****                */
 669:/home/simulink/cFS_FreeRTOS_seL4/cfe/fsw/cfe-core/src/es/cfe_es_start.c ****                RetStatus = OS_rmfs("/ramdev0");
 968               	.loc 2 669 0
 969 07ac 4879 0000 	pea .LC26
 969      0000 
 970               	.cfi_def_cfa_offset 28
 971 07b2 4EB9 0000 	jsr OS_rmfs
 971      0000 
 972 07b8 588F      	addq.l #4,%sp
 973               	.cfi_def_cfa_offset 24
 974 07ba 2F40 000C 	move.l %d0,12(%sp)
 670:/home/simulink/cFS_FreeRTOS_seL4/cfe/fsw/cfe-core/src/es/cfe_es_start.c ****                if ( RetStatus == OS_FS_SUCCESS )
 975               	.loc 2 670 0
 976 07be 4AAF 000C 	tst.l 12(%sp)
 977 07c2 6600 00B0 	jne .L39
 671:/home/simulink/cFS_FreeRTOS_seL4/cfe/fsw/cfe-core/src/es/cfe_es_start.c ****                {
 672:/home/simulink/cFS_FreeRTOS_seL4/cfe/fsw/cfe-core/src/es/cfe_es_start.c ****                
 673:/home/simulink/cFS_FreeRTOS_seL4/cfe/fsw/cfe-core/src/es/cfe_es_start.c ****                   /*
 674:/home/simulink/cFS_FreeRTOS_seL4/cfe/fsw/cfe-core/src/es/cfe_es_start.c ****                   ** Next, make a new file system on the disk
 675:/home/simulink/cFS_FreeRTOS_seL4/cfe/fsw/cfe-core/src/es/cfe_es_start.c ****                   */
 676:/home/simulink/cFS_FreeRTOS_seL4/cfe/fsw/cfe-core/src/es/cfe_es_start.c ****                   RetStatus = OS_mkfs((void *)RamDiskMemoryAddress, "/ramdev0", 
 978               	.loc 2 676 0
 979 07c6 202F 0004 	move.l 4(%sp),%d0
 980 07ca 4878 1000 	pea 4096.w
 981               	.cfi_def_cfa_offset 28
 982 07ce 4878 0200 	pea 512.w
 983               	.cfi_def_cfa_offset 32
 984 07d2 4879 0000 	pea .LC25
 984      0000 
 985               	.cfi_def_cfa_offset 36
 986 07d8 4879 0000 	pea .LC26
 986      0000 
 987               	.cfi_def_cfa_offset 40
 988 07de 2F00      	move.l %d0,-(%sp)
 989               	.cfi_def_cfa_offset 44
 990 07e0 4EB9 0000 	jsr OS_mkfs
 990      0000 
 991 07e6 4FEF 0014 	lea (20,%sp),%sp
 992               	.cfi_def_cfa_offset 24
 993 07ea 2F40 000C 	move.l %d0,12(%sp)
 677:/home/simulink/cFS_FreeRTOS_seL4/cfe/fsw/cfe-core/src/es/cfe_es_start.c ****                                       "RAM", CFE_ES_RAM_DISK_SECTOR_SIZE, 
 678:/home/simulink/cFS_FreeRTOS_seL4/cfe/fsw/cfe-core/src/es/cfe_es_start.c ****                                        CFE_ES_RAM_DISK_NUM_SECTORS );
 679:/home/simulink/cFS_FreeRTOS_seL4/cfe/fsw/cfe-core/src/es/cfe_es_start.c ****                   if ( RetStatus == OS_FS_SUCCESS )
 994               	.loc 2 679 0
 995 07ee 4AAF 000C 	tst.l 12(%sp)
 996 07f2 6650      	jne .L40
 680:/home/simulink/cFS_FreeRTOS_seL4/cfe/fsw/cfe-core/src/es/cfe_es_start.c ****                   {
 681:/home/simulink/cFS_FreeRTOS_seL4/cfe/fsw/cfe-core/src/es/cfe_es_start.c ****                      /*
 682:/home/simulink/cFS_FreeRTOS_seL4/cfe/fsw/cfe-core/src/es/cfe_es_start.c ****                      ** Last, remount the disk
 683:/home/simulink/cFS_FreeRTOS_seL4/cfe/fsw/cfe-core/src/es/cfe_es_start.c ****                      */
 684:/home/simulink/cFS_FreeRTOS_seL4/cfe/fsw/cfe-core/src/es/cfe_es_start.c ****                      RetStatus = OS_mount("/ramdev0", CFE_ES_RAM_DISK_MOUNT_STRING);
 997               	.loc 2 684 0
 998 07f4 4879 0000 	pea .LC30
68K GAS   			page 44


 998      0000 
 999               	.cfi_def_cfa_offset 28
 1000 07fa 4879 0000 	pea .LC26
 1000      0000 
 1001               	.cfi_def_cfa_offset 32
 1002 0800 4EB9 0000 	jsr OS_mount
 1002      0000 
 1003 0806 508F      	addq.l #8,%sp
 1004               	.cfi_def_cfa_offset 24
 1005 0808 2F40 000C 	move.l %d0,12(%sp)
 685:/home/simulink/cFS_FreeRTOS_seL4/cfe/fsw/cfe-core/src/es/cfe_es_start.c ****                      if ( RetStatus != OS_FS_SUCCESS )
 1006               	.loc 2 685 0
 1007 080c 4AAF 000C 	tst.l 12(%sp)
 1008 0810 6700 00EA 	jeq .L44
 686:/home/simulink/cFS_FreeRTOS_seL4/cfe/fsw/cfe-core/src/es/cfe_es_start.c ****                      {
 687:/home/simulink/cFS_FreeRTOS_seL4/cfe/fsw/cfe-core/src/es/cfe_es_start.c ****                         CFE_ES_WriteToSysLog("ES Startup: Error Re-Mounting Volatile(RAM) Volume. E
 1009               	.loc 2 687 0
 1010 0814 202F 000C 	move.l 12(%sp),%d0
 1011 0818 2F00      	move.l %d0,-(%sp)
 1012               	.cfi_def_cfa_offset 28
 1013 081a 4879 0000 	pea .LC34
 1013      0000 
 1014               	.cfi_def_cfa_offset 32
 1015 0820 4EB9 0000 	jsr CFE_ES_WriteToSysLog
 1015      0000 
 1016 0826 508F      	addq.l #8,%sp
 1017               	.cfi_def_cfa_offset 24
 688:/home/simulink/cFS_FreeRTOS_seL4/cfe/fsw/cfe-core/src/es/cfe_es_start.c ****                         /*
 689:/home/simulink/cFS_FreeRTOS_seL4/cfe/fsw/cfe-core/src/es/cfe_es_start.c ****                         ** Delay to allow the message to be read
 690:/home/simulink/cFS_FreeRTOS_seL4/cfe/fsw/cfe-core/src/es/cfe_es_start.c ****                         */
 691:/home/simulink/cFS_FreeRTOS_seL4/cfe/fsw/cfe-core/src/es/cfe_es_start.c ****                         OS_TaskDelay(CFE_ES_PANIC_DELAY);
 1018               	.loc 2 691 0
 1019 0828 4878 01F4 	pea 500.w
 1020               	.cfi_def_cfa_offset 28
 1021 082c 4EB9 0000 	jsr OS_TaskDelay
 1021      0000 
 1022 0832 588F      	addq.l #4,%sp
 1023               	.cfi_def_cfa_offset 24
 692:/home/simulink/cFS_FreeRTOS_seL4/cfe/fsw/cfe-core/src/es/cfe_es_start.c ****                      
 693:/home/simulink/cFS_FreeRTOS_seL4/cfe/fsw/cfe-core/src/es/cfe_es_start.c ****                         /* 
 694:/home/simulink/cFS_FreeRTOS_seL4/cfe/fsw/cfe-core/src/es/cfe_es_start.c ****                         ** cFE Cannot continue to start up.  
 695:/home/simulink/cFS_FreeRTOS_seL4/cfe/fsw/cfe-core/src/es/cfe_es_start.c ****                         */
 696:/home/simulink/cFS_FreeRTOS_seL4/cfe/fsw/cfe-core/src/es/cfe_es_start.c ****                         CFE_PSP_Panic(CFE_PSP_PANIC_VOLATILE_DISK);
 1024               	.loc 2 696 0
 1025 0834 4878 0002 	pea 2.w
 1026               	.cfi_def_cfa_offset 28
 1027 0838 4EB9 0000 	jsr CFE_PSP_Panic
 1027      0000 
 1028 083e 588F      	addq.l #4,%sp
 1029               	.cfi_def_cfa_offset 24
 697:/home/simulink/cFS_FreeRTOS_seL4/cfe/fsw/cfe-core/src/es/cfe_es_start.c ****                      
 698:/home/simulink/cFS_FreeRTOS_seL4/cfe/fsw/cfe-core/src/es/cfe_es_start.c ****                      } /* end if mount */
 699:/home/simulink/cFS_FreeRTOS_seL4/cfe/fsw/cfe-core/src/es/cfe_es_start.c ****                   }
 700:/home/simulink/cFS_FreeRTOS_seL4/cfe/fsw/cfe-core/src/es/cfe_es_start.c ****                   else
 701:/home/simulink/cFS_FreeRTOS_seL4/cfe/fsw/cfe-core/src/es/cfe_es_start.c ****                   {
 702:/home/simulink/cFS_FreeRTOS_seL4/cfe/fsw/cfe-core/src/es/cfe_es_start.c **** 
 703:/home/simulink/cFS_FreeRTOS_seL4/cfe/fsw/cfe-core/src/es/cfe_es_start.c ****                      CFE_ES_WriteToSysLog("ES Startup: Error Re-Formating Volatile(RAM) Volume. EC 
68K GAS   			page 45


 704:/home/simulink/cFS_FreeRTOS_seL4/cfe/fsw/cfe-core/src/es/cfe_es_start.c ****                      /*
 705:/home/simulink/cFS_FreeRTOS_seL4/cfe/fsw/cfe-core/src/es/cfe_es_start.c ****                      ** Delay to allow the message to be read
 706:/home/simulink/cFS_FreeRTOS_seL4/cfe/fsw/cfe-core/src/es/cfe_es_start.c ****                      */
 707:/home/simulink/cFS_FreeRTOS_seL4/cfe/fsw/cfe-core/src/es/cfe_es_start.c ****                      OS_TaskDelay(CFE_ES_PANIC_DELAY);
 708:/home/simulink/cFS_FreeRTOS_seL4/cfe/fsw/cfe-core/src/es/cfe_es_start.c ****       
 709:/home/simulink/cFS_FreeRTOS_seL4/cfe/fsw/cfe-core/src/es/cfe_es_start.c ****                      /* 
 710:/home/simulink/cFS_FreeRTOS_seL4/cfe/fsw/cfe-core/src/es/cfe_es_start.c ****                      ** cFE Cannot continue to start up.  
 711:/home/simulink/cFS_FreeRTOS_seL4/cfe/fsw/cfe-core/src/es/cfe_es_start.c ****                      */
 712:/home/simulink/cFS_FreeRTOS_seL4/cfe/fsw/cfe-core/src/es/cfe_es_start.c ****                      CFE_PSP_Panic(CFE_PSP_PANIC_VOLATILE_DISK);
 713:/home/simulink/cFS_FreeRTOS_seL4/cfe/fsw/cfe-core/src/es/cfe_es_start.c ****                                  
 714:/home/simulink/cFS_FreeRTOS_seL4/cfe/fsw/cfe-core/src/es/cfe_es_start.c ****                   } /* end if mkfs */
 715:/home/simulink/cFS_FreeRTOS_seL4/cfe/fsw/cfe-core/src/es/cfe_es_start.c **** 
 716:/home/simulink/cFS_FreeRTOS_seL4/cfe/fsw/cfe-core/src/es/cfe_es_start.c ****               }
 717:/home/simulink/cFS_FreeRTOS_seL4/cfe/fsw/cfe-core/src/es/cfe_es_start.c ****               else /* could not Remove File system */
 718:/home/simulink/cFS_FreeRTOS_seL4/cfe/fsw/cfe-core/src/es/cfe_es_start.c ****               {
 719:/home/simulink/cFS_FreeRTOS_seL4/cfe/fsw/cfe-core/src/es/cfe_es_start.c **** 
 720:/home/simulink/cFS_FreeRTOS_seL4/cfe/fsw/cfe-core/src/es/cfe_es_start.c ****                   CFE_ES_WriteToSysLog("ES Startup: Error Removing Volatile(RAM) Volume. EC = 0x%08
 721:/home/simulink/cFS_FreeRTOS_seL4/cfe/fsw/cfe-core/src/es/cfe_es_start.c ****                   /*
 722:/home/simulink/cFS_FreeRTOS_seL4/cfe/fsw/cfe-core/src/es/cfe_es_start.c ****                   ** Delay to allow the message to be read
 723:/home/simulink/cFS_FreeRTOS_seL4/cfe/fsw/cfe-core/src/es/cfe_es_start.c ****                   */
 724:/home/simulink/cFS_FreeRTOS_seL4/cfe/fsw/cfe-core/src/es/cfe_es_start.c ****                   OS_TaskDelay(CFE_ES_PANIC_DELAY);
 725:/home/simulink/cFS_FreeRTOS_seL4/cfe/fsw/cfe-core/src/es/cfe_es_start.c ****       
 726:/home/simulink/cFS_FreeRTOS_seL4/cfe/fsw/cfe-core/src/es/cfe_es_start.c ****                   /* 
 727:/home/simulink/cFS_FreeRTOS_seL4/cfe/fsw/cfe-core/src/es/cfe_es_start.c ****                   ** cFE Cannot continue to start up.  
 728:/home/simulink/cFS_FreeRTOS_seL4/cfe/fsw/cfe-core/src/es/cfe_es_start.c ****                   */
 729:/home/simulink/cFS_FreeRTOS_seL4/cfe/fsw/cfe-core/src/es/cfe_es_start.c ****                   CFE_PSP_Panic(CFE_PSP_PANIC_VOLATILE_DISK);
 730:/home/simulink/cFS_FreeRTOS_seL4/cfe/fsw/cfe-core/src/es/cfe_es_start.c **** 
 731:/home/simulink/cFS_FreeRTOS_seL4/cfe/fsw/cfe-core/src/es/cfe_es_start.c ****               } /* end if OS_rmfs */
 732:/home/simulink/cFS_FreeRTOS_seL4/cfe/fsw/cfe-core/src/es/cfe_es_start.c **** 
 733:/home/simulink/cFS_FreeRTOS_seL4/cfe/fsw/cfe-core/src/es/cfe_es_start.c ****             }
 734:/home/simulink/cFS_FreeRTOS_seL4/cfe/fsw/cfe-core/src/es/cfe_es_start.c ****             else /* could not un-mount disk */
 735:/home/simulink/cFS_FreeRTOS_seL4/cfe/fsw/cfe-core/src/es/cfe_es_start.c ****             {
 736:/home/simulink/cFS_FreeRTOS_seL4/cfe/fsw/cfe-core/src/es/cfe_es_start.c ****                CFE_ES_WriteToSysLog("ES Startup: Error Un-Mounting Volatile(RAM) Volume. EC = 0x%08
 737:/home/simulink/cFS_FreeRTOS_seL4/cfe/fsw/cfe-core/src/es/cfe_es_start.c ****                /*
 738:/home/simulink/cFS_FreeRTOS_seL4/cfe/fsw/cfe-core/src/es/cfe_es_start.c ****                ** Delay to allow the message to be read
 739:/home/simulink/cFS_FreeRTOS_seL4/cfe/fsw/cfe-core/src/es/cfe_es_start.c ****                */
 740:/home/simulink/cFS_FreeRTOS_seL4/cfe/fsw/cfe-core/src/es/cfe_es_start.c ****                OS_TaskDelay(CFE_ES_PANIC_DELAY);
 741:/home/simulink/cFS_FreeRTOS_seL4/cfe/fsw/cfe-core/src/es/cfe_es_start.c ****                
 742:/home/simulink/cFS_FreeRTOS_seL4/cfe/fsw/cfe-core/src/es/cfe_es_start.c ****                /* 
 743:/home/simulink/cFS_FreeRTOS_seL4/cfe/fsw/cfe-core/src/es/cfe_es_start.c ****                ** cFE Cannot continue to start up.  
 744:/home/simulink/cFS_FreeRTOS_seL4/cfe/fsw/cfe-core/src/es/cfe_es_start.c ****                */
 745:/home/simulink/cFS_FreeRTOS_seL4/cfe/fsw/cfe-core/src/es/cfe_es_start.c ****                CFE_PSP_Panic(CFE_PSP_PANIC_VOLATILE_DISK);            
 746:/home/simulink/cFS_FreeRTOS_seL4/cfe/fsw/cfe-core/src/es/cfe_es_start.c ****             }
 747:/home/simulink/cFS_FreeRTOS_seL4/cfe/fsw/cfe-core/src/es/cfe_es_start.c ****             
 748:/home/simulink/cFS_FreeRTOS_seL4/cfe/fsw/cfe-core/src/es/cfe_es_start.c ****          } /* end if enough free space */
 749:/home/simulink/cFS_FreeRTOS_seL4/cfe/fsw/cfe-core/src/es/cfe_es_start.c ****          
 750:/home/simulink/cFS_FreeRTOS_seL4/cfe/fsw/cfe-core/src/es/cfe_es_start.c ****       }
 751:/home/simulink/cFS_FreeRTOS_seL4/cfe/fsw/cfe-core/src/es/cfe_es_start.c ****       else  /* could not determine free blocks */
 752:/home/simulink/cFS_FreeRTOS_seL4/cfe/fsw/cfe-core/src/es/cfe_es_start.c ****       {         
 753:/home/simulink/cFS_FreeRTOS_seL4/cfe/fsw/cfe-core/src/es/cfe_es_start.c ****          /* Log error message -- note that BlocksFree returns the error code in this case */
 754:/home/simulink/cFS_FreeRTOS_seL4/cfe/fsw/cfe-core/src/es/cfe_es_start.c ****          CFE_ES_WriteToSysLog("ES Startup: Error Determining Blocks Free on Volume. EC = 0x%08X\n",
 755:/home/simulink/cFS_FreeRTOS_seL4/cfe/fsw/cfe-core/src/es/cfe_es_start.c **** 
 756:/home/simulink/cFS_FreeRTOS_seL4/cfe/fsw/cfe-core/src/es/cfe_es_start.c ****          /*
 757:/home/simulink/cFS_FreeRTOS_seL4/cfe/fsw/cfe-core/src/es/cfe_es_start.c ****          ** Delay to allow the message to be read
 758:/home/simulink/cFS_FreeRTOS_seL4/cfe/fsw/cfe-core/src/es/cfe_es_start.c ****          */
 759:/home/simulink/cFS_FreeRTOS_seL4/cfe/fsw/cfe-core/src/es/cfe_es_start.c ****          OS_TaskDelay(CFE_ES_PANIC_DELAY);
 760:/home/simulink/cFS_FreeRTOS_seL4/cfe/fsw/cfe-core/src/es/cfe_es_start.c **** 
68K GAS   			page 46


 761:/home/simulink/cFS_FreeRTOS_seL4/cfe/fsw/cfe-core/src/es/cfe_es_start.c ****          /* 
 762:/home/simulink/cFS_FreeRTOS_seL4/cfe/fsw/cfe-core/src/es/cfe_es_start.c ****          ** cFE Cannot continue to start up.  
 763:/home/simulink/cFS_FreeRTOS_seL4/cfe/fsw/cfe-core/src/es/cfe_es_start.c ****          */
 764:/home/simulink/cFS_FreeRTOS_seL4/cfe/fsw/cfe-core/src/es/cfe_es_start.c ****          CFE_PSP_Panic(CFE_PSP_PANIC_VOLATILE_DISK);
 765:/home/simulink/cFS_FreeRTOS_seL4/cfe/fsw/cfe-core/src/es/cfe_es_start.c ****          
 766:/home/simulink/cFS_FreeRTOS_seL4/cfe/fsw/cfe-core/src/es/cfe_es_start.c ****       } /* end if BlocksFree */
 767:/home/simulink/cFS_FreeRTOS_seL4/cfe/fsw/cfe-core/src/es/cfe_es_start.c ****    
 768:/home/simulink/cFS_FreeRTOS_seL4/cfe/fsw/cfe-core/src/es/cfe_es_start.c ****    } /* end if processor reset */
 769:/home/simulink/cFS_FreeRTOS_seL4/cfe/fsw/cfe-core/src/es/cfe_es_start.c ****      
 770:/home/simulink/cFS_FreeRTOS_seL4/cfe/fsw/cfe-core/src/es/cfe_es_start.c **** } /* end function */
 1030               	.loc 2 770 0
 1031 0840 6000 00BA 	jra .L44
 1032               	.L40:
 703:/home/simulink/cFS_FreeRTOS_seL4/cfe/fsw/cfe-core/src/es/cfe_es_start.c ****                      /*
 1033               	.loc 2 703 0
 1034 0844 202F 000C 	move.l 12(%sp),%d0
 1035 0848 2F00      	move.l %d0,-(%sp)
 1036               	.cfi_def_cfa_offset 28
 1037 084a 4879 0000 	pea .LC35
 1037      0000 
 1038               	.cfi_def_cfa_offset 32
 1039 0850 4EB9 0000 	jsr CFE_ES_WriteToSysLog
 1039      0000 
 1040 0856 508F      	addq.l #8,%sp
 1041               	.cfi_def_cfa_offset 24
 707:/home/simulink/cFS_FreeRTOS_seL4/cfe/fsw/cfe-core/src/es/cfe_es_start.c ****       
 1042               	.loc 2 707 0
 1043 0858 4878 01F4 	pea 500.w
 1044               	.cfi_def_cfa_offset 28
 1045 085c 4EB9 0000 	jsr OS_TaskDelay
 1045      0000 
 1046 0862 588F      	addq.l #4,%sp
 1047               	.cfi_def_cfa_offset 24
 712:/home/simulink/cFS_FreeRTOS_seL4/cfe/fsw/cfe-core/src/es/cfe_es_start.c ****                                  
 1048               	.loc 2 712 0
 1049 0864 4878 0002 	pea 2.w
 1050               	.cfi_def_cfa_offset 28
 1051 0868 4EB9 0000 	jsr CFE_PSP_Panic
 1051      0000 
 1052 086e 588F      	addq.l #4,%sp
 1053               	.cfi_def_cfa_offset 24
 1054               	.loc 2 770 0
 1055 0870 6000 008A 	jra .L44
 1056               	.L39:
 720:/home/simulink/cFS_FreeRTOS_seL4/cfe/fsw/cfe-core/src/es/cfe_es_start.c ****                   /*
 1057               	.loc 2 720 0
 1058 0874 202F 000C 	move.l 12(%sp),%d0
 1059 0878 2F00      	move.l %d0,-(%sp)
 1060               	.cfi_def_cfa_offset 28
 1061 087a 4879 0000 	pea .LC36
 1061      0000 
 1062               	.cfi_def_cfa_offset 32
 1063 0880 4EB9 0000 	jsr CFE_ES_WriteToSysLog
 1063      0000 
 1064 0886 508F      	addq.l #8,%sp
 1065               	.cfi_def_cfa_offset 24
 724:/home/simulink/cFS_FreeRTOS_seL4/cfe/fsw/cfe-core/src/es/cfe_es_start.c ****       
68K GAS   			page 47


 1066               	.loc 2 724 0
 1067 0888 4878 01F4 	pea 500.w
 1068               	.cfi_def_cfa_offset 28
 1069 088c 4EB9 0000 	jsr OS_TaskDelay
 1069      0000 
 1070 0892 588F      	addq.l #4,%sp
 1071               	.cfi_def_cfa_offset 24
 729:/home/simulink/cFS_FreeRTOS_seL4/cfe/fsw/cfe-core/src/es/cfe_es_start.c **** 
 1072               	.loc 2 729 0
 1073 0894 4878 0002 	pea 2.w
 1074               	.cfi_def_cfa_offset 28
 1075 0898 4EB9 0000 	jsr CFE_PSP_Panic
 1075      0000 
 1076 089e 588F      	addq.l #4,%sp
 1077               	.cfi_def_cfa_offset 24
 1078               	.loc 2 770 0
 1079 08a0 605A      	jra .L44
 1080               	.L38:
 736:/home/simulink/cFS_FreeRTOS_seL4/cfe/fsw/cfe-core/src/es/cfe_es_start.c ****                /*
 1081               	.loc 2 736 0
 1082 08a2 202F 000C 	move.l 12(%sp),%d0
 1083 08a6 2F00      	move.l %d0,-(%sp)
 1084               	.cfi_def_cfa_offset 28
 1085 08a8 4879 0000 	pea .LC37
 1085      0000 
 1086               	.cfi_def_cfa_offset 32
 1087 08ae 4EB9 0000 	jsr CFE_ES_WriteToSysLog
 1087      0000 
 1088 08b4 508F      	addq.l #8,%sp
 1089               	.cfi_def_cfa_offset 24
 740:/home/simulink/cFS_FreeRTOS_seL4/cfe/fsw/cfe-core/src/es/cfe_es_start.c ****                
 1090               	.loc 2 740 0
 1091 08b6 4878 01F4 	pea 500.w
 1092               	.cfi_def_cfa_offset 28
 1093 08ba 4EB9 0000 	jsr OS_TaskDelay
 1093      0000 
 1094 08c0 588F      	addq.l #4,%sp
 1095               	.cfi_def_cfa_offset 24
 745:/home/simulink/cFS_FreeRTOS_seL4/cfe/fsw/cfe-core/src/es/cfe_es_start.c ****             }
 1096               	.loc 2 745 0
 1097 08c2 4878 0002 	pea 2.w
 1098               	.cfi_def_cfa_offset 28
 1099 08c6 4EB9 0000 	jsr CFE_PSP_Panic
 1099      0000 
 1100 08cc 588F      	addq.l #4,%sp
 1101               	.cfi_def_cfa_offset 24
 1102               	.loc 2 770 0
 1103 08ce 602C      	jra .L44
 1104               	.L34:
 754:/home/simulink/cFS_FreeRTOS_seL4/cfe/fsw/cfe-core/src/es/cfe_es_start.c **** 
 1105               	.loc 2 754 0
 1106 08d0 202F 0010 	move.l 16(%sp),%d0
 1107 08d4 2F00      	move.l %d0,-(%sp)
 1108               	.cfi_def_cfa_offset 28
 1109 08d6 4879 0000 	pea .LC38
 1109      0000 
 1110               	.cfi_def_cfa_offset 32
68K GAS   			page 48


 1111 08dc 4EB9 0000 	jsr CFE_ES_WriteToSysLog
 1111      0000 
 1112 08e2 508F      	addq.l #8,%sp
 1113               	.cfi_def_cfa_offset 24
 759:/home/simulink/cFS_FreeRTOS_seL4/cfe/fsw/cfe-core/src/es/cfe_es_start.c **** 
 1114               	.loc 2 759 0
 1115 08e4 4878 01F4 	pea 500.w
 1116               	.cfi_def_cfa_offset 28
 1117 08e8 4EB9 0000 	jsr OS_TaskDelay
 1117      0000 
 1118 08ee 588F      	addq.l #4,%sp
 1119               	.cfi_def_cfa_offset 24
 764:/home/simulink/cFS_FreeRTOS_seL4/cfe/fsw/cfe-core/src/es/cfe_es_start.c ****          
 1120               	.loc 2 764 0
 1121 08f0 4878 0002 	pea 2.w
 1122               	.cfi_def_cfa_offset 28
 1123 08f4 4EB9 0000 	jsr CFE_PSP_Panic
 1123      0000 
 1124 08fa 588F      	addq.l #4,%sp
 1125               	.cfi_def_cfa_offset 24
 1126               	.L44:
 1127               	.loc 2 770 0
 1128 08fc 4E71      	nop
 1129 08fe 4FEF 0014 	lea (20,%sp),%sp
 1130 0902 4E75      	rts
 1131               	.cfi_endproc
 1132               	.LFE61:
 1133               	.sizeCFE_ES_InitializeFileSystems, .-CFE_ES_InitializeFileSystems
 1134               	.section.rodata
 1135               	.LC39:
 1136 07da 4553 2053 	.string"ES Startup: Starting Object Creation calls.\n"
 1136      7461 7274 
 1136      7570 3A20 
 1136      5374 6172 
 1136      7469 6E67 
 1137               	.LC40:
 1138 0807 4553 2053 	.string"ES Startup: OS_TaskCreate error creating core App: %s: EC = 0x%08X\n"
 1138      7461 7274 
 1138      7570 3A20 
 1138      4F53 5F54 
 1138      6173 6B43 
 1139               	.LC41:
 1140 084b 4553 2053 	.string"ES Startup: CFE_ES_Global.TaskTable record used error for App: %s, continuing.\n"
 1140      7461 7274 
 1140      7570 3A20 
 1140      4346 455F 
 1140      4553 5F47 
 1141               	.LC42:
 1142 089b 4553 2053 	.string"ES Startup: Core App: %s created. App ID: %d\n"
 1142      7461 7274 
 1142      7570 3A20 
 1142      436F 7265 
 1142      2041 7070 
 1143               	.LC43:
 1144 08c9 4553 2053 	.string"ES Startup: Error, No free application slots available for CORE App!\n"
 1144      7461 7274 
 1144      7570 3A20 
68K GAS   			page 49


 1144      4572 726F 
 1144      722C 204E 
 1145               	.LC44:
 1146 090f 4553 2053 	.string"ES Startup: Core App %s did not complete initialization\n"
 1146      7461 7274 
 1146      7570 3A20 
 1146      436F 7265 
 1146      2041 7070 
 1147               	.LC45:
 1148 0948 4553 2053 	.string"ES Startup: Calling %s\n"
 1148      7461 7274 
 1148      7570 3A20 
 1148      4361 6C6C 
 1148      696E 6720 
 1149               	.LC46:
 1150 0960 4553 2053 	.string"ES Startup: Error returned when calling function: %s: EC = 0x%08X\n"
 1150      7461 7274 
 1150      7570 3A20 
 1150      4572 726F 
 1150      7220 7265 
 1151               	.LC47:
 1152 09a3 4553 2053 	.string"ES Startup: bad function pointer ( table entry = %d).\n"
 1152      7461 7274 
 1152      7570 3A20 
 1152      6261 6420 
 1152      6675 6E63 
 1153               	.LC48:
 1154 09da 4553 2053 	.string"ES Startup: Finished ES CreateObject table entries.\n"
 1154      7461 7274 
 1154      7570 3A20 
 1154      4669 6E69 
 1154      7368 6564 
 1155               	.text
 1156               	.align2
 1157               	.globlCFE_ES_CreateObjects
 1158               	.typeCFE_ES_CreateObjects, @function
 1159               	CFE_ES_CreateObjects:
 1160               	.LFB62:
 771:/home/simulink/cFS_FreeRTOS_seL4/cfe/fsw/cfe-core/src/es/cfe_es_start.c **** 
 772:/home/simulink/cFS_FreeRTOS_seL4/cfe/fsw/cfe-core/src/es/cfe_es_start.c **** /*-------------------------------------------------------------------------
 773:/home/simulink/cFS_FreeRTOS_seL4/cfe/fsw/cfe-core/src/es/cfe_es_start.c **** **
 774:/home/simulink/cFS_FreeRTOS_seL4/cfe/fsw/cfe-core/src/es/cfe_es_start.c **** **                  Functional Prolog
 775:/home/simulink/cFS_FreeRTOS_seL4/cfe/fsw/cfe-core/src/es/cfe_es_start.c **** **
 776:/home/simulink/cFS_FreeRTOS_seL4/cfe/fsw/cfe-core/src/es/cfe_es_start.c **** **   Name: CFE_ES_CreateObjects
 777:/home/simulink/cFS_FreeRTOS_seL4/cfe/fsw/cfe-core/src/es/cfe_es_start.c **** **
 778:/home/simulink/cFS_FreeRTOS_seL4/cfe/fsw/cfe-core/src/es/cfe_es_start.c **** **   Purpose: This function reads the es_object_table and performs all of the
 779:/home/simulink/cFS_FreeRTOS_seL4/cfe/fsw/cfe-core/src/es/cfe_es_start.c **** **            application layer initialization.
 780:/home/simulink/cFS_FreeRTOS_seL4/cfe/fsw/cfe-core/src/es/cfe_es_start.c **** **----------------------------------------------------------------------------
 781:/home/simulink/cFS_FreeRTOS_seL4/cfe/fsw/cfe-core/src/es/cfe_es_start.c **** */
 782:/home/simulink/cFS_FreeRTOS_seL4/cfe/fsw/cfe-core/src/es/cfe_es_start.c **** void  CFE_ES_CreateObjects(void)
 783:/home/simulink/cFS_FreeRTOS_seL4/cfe/fsw/cfe-core/src/es/cfe_es_start.c **** {
 1161               	.loc 2 783 0
 1162               	.cfi_startproc
 1163 0904 4FEF FFF0 	lea (-16,%sp),%sp
 1164               	.cfi_def_cfa_offset 20
 1165 0908 2F03      	move.l %d3,-(%sp)
 1166               	.cfi_def_cfa_offset 24
68K GAS   			page 50


 1167               	.cfi_offset 3, -24
 1168 090a 2F02      	move.l %d2,-(%sp)
 1169               	.cfi_def_cfa_offset 28
 1170               	.cfi_offset 2, -28
 784:/home/simulink/cFS_FreeRTOS_seL4/cfe/fsw/cfe-core/src/es/cfe_es_start.c ****     int32     ReturnCode;
 785:/home/simulink/cFS_FreeRTOS_seL4/cfe/fsw/cfe-core/src/es/cfe_es_start.c ****     uint32    TaskIndex;
 786:/home/simulink/cFS_FreeRTOS_seL4/cfe/fsw/cfe-core/src/es/cfe_es_start.c ****     boolean   AppSlotFound;
 787:/home/simulink/cFS_FreeRTOS_seL4/cfe/fsw/cfe-core/src/es/cfe_es_start.c ****     uint16    i;
 788:/home/simulink/cFS_FreeRTOS_seL4/cfe/fsw/cfe-core/src/es/cfe_es_start.c ****     uint16    j;
 789:/home/simulink/cFS_FreeRTOS_seL4/cfe/fsw/cfe-core/src/es/cfe_es_start.c **** 
 790:/home/simulink/cFS_FreeRTOS_seL4/cfe/fsw/cfe-core/src/es/cfe_es_start.c ****     CFE_ES_WriteToSysLog("ES Startup: Starting Object Creation calls.\n");
 1171               	.loc 2 790 0
 1172 090c 4879 0000 	pea .LC39
 1172      0000 
 1173               	.cfi_def_cfa_offset 32
 1174 0912 4EB9 0000 	jsr CFE_ES_WriteToSysLog
 1174      0000 
 1175 0918 588F      	addq.l #4,%sp
 1176               	.cfi_def_cfa_offset 28
 791:/home/simulink/cFS_FreeRTOS_seL4/cfe/fsw/cfe-core/src/es/cfe_es_start.c **** 
 792:/home/simulink/cFS_FreeRTOS_seL4/cfe/fsw/cfe-core/src/es/cfe_es_start.c ****     for ( i = 0; i < CFE_ES_OBJECT_TABLE_SIZE; i++ )
 1177               	.loc 2 792 0
 1178 091a 4240      	clr.w %d0
 1179 091c 3F40 0014 	move.w %d0,20(%sp)
 1180 0920 6000 069A 	jra .L46
 1181               	.L67:
 793:/home/simulink/cFS_FreeRTOS_seL4/cfe/fsw/cfe-core/src/es/cfe_es_start.c ****     {
 794:/home/simulink/cFS_FreeRTOS_seL4/cfe/fsw/cfe-core/src/es/cfe_es_start.c ****         switch ( CFE_ES_ObjectTable[i].ObjectType )
 1182               	.loc 2 794 0
 1183 0924 4280      	clr.l %d0
 1184 0926 302F 0014 	move.w 20(%sp),%d0
 1185 092a 7228      	moveq #40,%d1
 1186 092c 4C01 0800 	muls.l %d1,%d0
 1187 0930 41F9 0000 	lea CFE_ES_ObjectTable,%a0
 1187      0000 
 1188 0936 2030 0800 	move.l (%a0,%d0.l),%d0
 1189 093a 7402      	moveq #2,%d2
 1190 093c B480      	cmp.l %d0,%d2
 1191 093e 650A      	jcs .L48
 1192 0940 7601      	moveq #1,%d3
 1193 0942 B680      	cmp.l %d0,%d3
 1194 0944 6310      	jls .L49
 795:/home/simulink/cFS_FreeRTOS_seL4/cfe/fsw/cfe-core/src/es/cfe_es_start.c ****         {
 796:/home/simulink/cFS_FreeRTOS_seL4/cfe/fsw/cfe-core/src/es/cfe_es_start.c ****             case CFE_ES_DRIVER_TASK:
 797:/home/simulink/cFS_FreeRTOS_seL4/cfe/fsw/cfe-core/src/es/cfe_es_start.c ****             case CFE_ES_CORE_TASK:
 798:/home/simulink/cFS_FreeRTOS_seL4/cfe/fsw/cfe-core/src/es/cfe_es_start.c **** 
 799:/home/simulink/cFS_FreeRTOS_seL4/cfe/fsw/cfe-core/src/es/cfe_es_start.c ****             /*
 800:/home/simulink/cFS_FreeRTOS_seL4/cfe/fsw/cfe-core/src/es/cfe_es_start.c ****             ** Allocate an ES AppTable entry
 801:/home/simulink/cFS_FreeRTOS_seL4/cfe/fsw/cfe-core/src/es/cfe_es_start.c ****             */
 802:/home/simulink/cFS_FreeRTOS_seL4/cfe/fsw/cfe-core/src/es/cfe_es_start.c ****             AppSlotFound = FALSE;
 803:/home/simulink/cFS_FreeRTOS_seL4/cfe/fsw/cfe-core/src/es/cfe_es_start.c ****             for ( j = 0; j < CFE_ES_MAX_APPLICATIONS; j++ )
 804:/home/simulink/cFS_FreeRTOS_seL4/cfe/fsw/cfe-core/src/es/cfe_es_start.c ****             {
 805:/home/simulink/cFS_FreeRTOS_seL4/cfe/fsw/cfe-core/src/es/cfe_es_start.c ****                if ( CFE_ES_Global.AppTable[j].RecordUsed == FALSE )
 806:/home/simulink/cFS_FreeRTOS_seL4/cfe/fsw/cfe-core/src/es/cfe_es_start.c ****                {
 807:/home/simulink/cFS_FreeRTOS_seL4/cfe/fsw/cfe-core/src/es/cfe_es_start.c ****                   AppSlotFound = TRUE;
 808:/home/simulink/cFS_FreeRTOS_seL4/cfe/fsw/cfe-core/src/es/cfe_es_start.c ****                   break;
 809:/home/simulink/cFS_FreeRTOS_seL4/cfe/fsw/cfe-core/src/es/cfe_es_start.c ****                }
68K GAS   			page 51


 810:/home/simulink/cFS_FreeRTOS_seL4/cfe/fsw/cfe-core/src/es/cfe_es_start.c ****             }
 811:/home/simulink/cFS_FreeRTOS_seL4/cfe/fsw/cfe-core/src/es/cfe_es_start.c **** 
 812:/home/simulink/cFS_FreeRTOS_seL4/cfe/fsw/cfe-core/src/es/cfe_es_start.c ****             /*
 813:/home/simulink/cFS_FreeRTOS_seL4/cfe/fsw/cfe-core/src/es/cfe_es_start.c ****             ** If a slot was found, create the application
 814:/home/simulink/cFS_FreeRTOS_seL4/cfe/fsw/cfe-core/src/es/cfe_es_start.c ****             */
 815:/home/simulink/cFS_FreeRTOS_seL4/cfe/fsw/cfe-core/src/es/cfe_es_start.c ****             if ( AppSlotFound == TRUE )
 816:/home/simulink/cFS_FreeRTOS_seL4/cfe/fsw/cfe-core/src/es/cfe_es_start.c ****             {
 817:/home/simulink/cFS_FreeRTOS_seL4/cfe/fsw/cfe-core/src/es/cfe_es_start.c ****             
 818:/home/simulink/cFS_FreeRTOS_seL4/cfe/fsw/cfe-core/src/es/cfe_es_start.c ****                CFE_ES_LockSharedData(__func__,__LINE__);
 819:/home/simulink/cFS_FreeRTOS_seL4/cfe/fsw/cfe-core/src/es/cfe_es_start.c **** 
 820:/home/simulink/cFS_FreeRTOS_seL4/cfe/fsw/cfe-core/src/es/cfe_es_start.c ****                /*
 821:/home/simulink/cFS_FreeRTOS_seL4/cfe/fsw/cfe-core/src/es/cfe_es_start.c ****                ** Allocate and populate the ES_AppTable entry
 822:/home/simulink/cFS_FreeRTOS_seL4/cfe/fsw/cfe-core/src/es/cfe_es_start.c ****                */
 823:/home/simulink/cFS_FreeRTOS_seL4/cfe/fsw/cfe-core/src/es/cfe_es_start.c ****                CFE_PSP_MemSet ( (void *)&(CFE_ES_Global.AppTable[j]), 0, sizeof(CFE_ES_AppRecord_t)
 824:/home/simulink/cFS_FreeRTOS_seL4/cfe/fsw/cfe-core/src/es/cfe_es_start.c ****                CFE_ES_Global.AppTable[j].RecordUsed = TRUE;
 825:/home/simulink/cFS_FreeRTOS_seL4/cfe/fsw/cfe-core/src/es/cfe_es_start.c ****                CFE_ES_Global.AppTable[j].Type = CFE_ES_APP_TYPE_CORE;
 826:/home/simulink/cFS_FreeRTOS_seL4/cfe/fsw/cfe-core/src/es/cfe_es_start.c ****                
 827:/home/simulink/cFS_FreeRTOS_seL4/cfe/fsw/cfe-core/src/es/cfe_es_start.c ****                /*
 828:/home/simulink/cFS_FreeRTOS_seL4/cfe/fsw/cfe-core/src/es/cfe_es_start.c ****                ** Fill out the parameters in the AppStartParams sub-structure
 829:/home/simulink/cFS_FreeRTOS_seL4/cfe/fsw/cfe-core/src/es/cfe_es_start.c ****                */         
 830:/home/simulink/cFS_FreeRTOS_seL4/cfe/fsw/cfe-core/src/es/cfe_es_start.c ****                strncpy((char *)CFE_ES_Global.AppTable[j].StartParams.Name, (char *)CFE_ES_ObjectTab
 831:/home/simulink/cFS_FreeRTOS_seL4/cfe/fsw/cfe-core/src/es/cfe_es_start.c ****                CFE_ES_Global.AppTable[j].StartParams.Name[OS_MAX_API_NAME - 1] = '\0';
 832:/home/simulink/cFS_FreeRTOS_seL4/cfe/fsw/cfe-core/src/es/cfe_es_start.c ****                /* EntryPoint field is not valid here for base apps */
 833:/home/simulink/cFS_FreeRTOS_seL4/cfe/fsw/cfe-core/src/es/cfe_es_start.c ****                /* FileName is not valid for base apps, either */
 834:/home/simulink/cFS_FreeRTOS_seL4/cfe/fsw/cfe-core/src/es/cfe_es_start.c ****                CFE_ES_Global.AppTable[j].StartParams.StackSize = CFE_ES_ObjectTable[i].ObjectSize;
 835:/home/simulink/cFS_FreeRTOS_seL4/cfe/fsw/cfe-core/src/es/cfe_es_start.c ****                CFE_ES_Global.AppTable[j].StartParams.StartAddress = (cpuaddr)CFE_ES_ObjectTable[i].
 836:/home/simulink/cFS_FreeRTOS_seL4/cfe/fsw/cfe-core/src/es/cfe_es_start.c ****                CFE_ES_Global.AppTable[j].StartParams.ExceptionAction = CFE_ES_APP_EXCEPTION_PROC_RE
 837:/home/simulink/cFS_FreeRTOS_seL4/cfe/fsw/cfe-core/src/es/cfe_es_start.c ****                CFE_ES_Global.AppTable[j].StartParams.Priority = CFE_ES_ObjectTable[i].ObjectPriorit
 838:/home/simulink/cFS_FreeRTOS_seL4/cfe/fsw/cfe-core/src/es/cfe_es_start.c ****                
 839:/home/simulink/cFS_FreeRTOS_seL4/cfe/fsw/cfe-core/src/es/cfe_es_start.c ****                
 840:/home/simulink/cFS_FreeRTOS_seL4/cfe/fsw/cfe-core/src/es/cfe_es_start.c ****                /*
 841:/home/simulink/cFS_FreeRTOS_seL4/cfe/fsw/cfe-core/src/es/cfe_es_start.c ****                ** Fill out the Task Info
 842:/home/simulink/cFS_FreeRTOS_seL4/cfe/fsw/cfe-core/src/es/cfe_es_start.c ****                */
 843:/home/simulink/cFS_FreeRTOS_seL4/cfe/fsw/cfe-core/src/es/cfe_es_start.c ****                strncpy((char *)CFE_ES_Global.AppTable[j].TaskInfo.MainTaskName, (char *)CFE_ES_Obje
 844:/home/simulink/cFS_FreeRTOS_seL4/cfe/fsw/cfe-core/src/es/cfe_es_start.c ****                CFE_ES_Global.AppTable[j].TaskInfo.MainTaskName[OS_MAX_API_NAME - 1] = '\0';
 845:/home/simulink/cFS_FreeRTOS_seL4/cfe/fsw/cfe-core/src/es/cfe_es_start.c ****                CFE_ES_Global.AppTable[j].TaskInfo.NumOfChildTasks = 0;
 846:/home/simulink/cFS_FreeRTOS_seL4/cfe/fsw/cfe-core/src/es/cfe_es_start.c ****                
 847:/home/simulink/cFS_FreeRTOS_seL4/cfe/fsw/cfe-core/src/es/cfe_es_start.c ****                /*
 848:/home/simulink/cFS_FreeRTOS_seL4/cfe/fsw/cfe-core/src/es/cfe_es_start.c ****                ** Core apps still have the notion of an init/running state
 849:/home/simulink/cFS_FreeRTOS_seL4/cfe/fsw/cfe-core/src/es/cfe_es_start.c ****                */
 850:/home/simulink/cFS_FreeRTOS_seL4/cfe/fsw/cfe-core/src/es/cfe_es_start.c ****                CFE_ES_Global.AppTable[j].StateRecord.AppState = CFE_ES_APP_STATE_INITIALIZING;
 851:/home/simulink/cFS_FreeRTOS_seL4/cfe/fsw/cfe-core/src/es/cfe_es_start.c ****                ++CFE_ES_Global.AppStartedCount;
 852:/home/simulink/cFS_FreeRTOS_seL4/cfe/fsw/cfe-core/src/es/cfe_es_start.c ****                
 853:/home/simulink/cFS_FreeRTOS_seL4/cfe/fsw/cfe-core/src/es/cfe_es_start.c ****                
 854:/home/simulink/cFS_FreeRTOS_seL4/cfe/fsw/cfe-core/src/es/cfe_es_start.c ****                /*
 855:/home/simulink/cFS_FreeRTOS_seL4/cfe/fsw/cfe-core/src/es/cfe_es_start.c ****                ** Create the task
 856:/home/simulink/cFS_FreeRTOS_seL4/cfe/fsw/cfe-core/src/es/cfe_es_start.c ****                */
 857:/home/simulink/cFS_FreeRTOS_seL4/cfe/fsw/cfe-core/src/es/cfe_es_start.c ****                ReturnCode = OS_TaskCreate(&CFE_ES_Global.AppTable[j].TaskInfo.MainTaskId, /* task i
 858:/home/simulink/cFS_FreeRTOS_seL4/cfe/fsw/cfe-core/src/es/cfe_es_start.c ****                                   CFE_ES_ObjectTable[i].ObjectName,              /* task name */
 859:/home/simulink/cFS_FreeRTOS_seL4/cfe/fsw/cfe-core/src/es/cfe_es_start.c ****                                   CFE_ES_ObjectTable[i].FuncPtrUnion.MainAppPtr, /* task function p
 860:/home/simulink/cFS_FreeRTOS_seL4/cfe/fsw/cfe-core/src/es/cfe_es_start.c ****                                   NULL,                                          /* stack pointer *
 861:/home/simulink/cFS_FreeRTOS_seL4/cfe/fsw/cfe-core/src/es/cfe_es_start.c ****                                   CFE_ES_ObjectTable[i].ObjectSize,              /* stack size */
 862:/home/simulink/cFS_FreeRTOS_seL4/cfe/fsw/cfe-core/src/es/cfe_es_start.c ****                                   CFE_ES_ObjectTable[i].ObjectPriority,          /* task priority *
 863:/home/simulink/cFS_FreeRTOS_seL4/cfe/fsw/cfe-core/src/es/cfe_es_start.c ****                                   OS_FP_ENABLED);                                /* task options */
 864:/home/simulink/cFS_FreeRTOS_seL4/cfe/fsw/cfe-core/src/es/cfe_es_start.c **** 
 865:/home/simulink/cFS_FreeRTOS_seL4/cfe/fsw/cfe-core/src/es/cfe_es_start.c ****                if(ReturnCode != OS_SUCCESS)
 866:/home/simulink/cFS_FreeRTOS_seL4/cfe/fsw/cfe-core/src/es/cfe_es_start.c ****                {
68K GAS   			page 52


 867:/home/simulink/cFS_FreeRTOS_seL4/cfe/fsw/cfe-core/src/es/cfe_es_start.c ****                   CFE_ES_Global.AppTable[j].RecordUsed = FALSE;
 868:/home/simulink/cFS_FreeRTOS_seL4/cfe/fsw/cfe-core/src/es/cfe_es_start.c ****                   CFE_ES_WriteToSysLog("ES Startup: OS_TaskCreate error creating core App: %s: EC =
 869:/home/simulink/cFS_FreeRTOS_seL4/cfe/fsw/cfe-core/src/es/cfe_es_start.c ****                                         CFE_ES_ObjectTable[i].ObjectName, (unsigned int)ReturnCode)
 870:/home/simulink/cFS_FreeRTOS_seL4/cfe/fsw/cfe-core/src/es/cfe_es_start.c ****       
 871:/home/simulink/cFS_FreeRTOS_seL4/cfe/fsw/cfe-core/src/es/cfe_es_start.c ****                                         
 872:/home/simulink/cFS_FreeRTOS_seL4/cfe/fsw/cfe-core/src/es/cfe_es_start.c ****                   CFE_ES_UnlockSharedData(__func__,__LINE__);
 873:/home/simulink/cFS_FreeRTOS_seL4/cfe/fsw/cfe-core/src/es/cfe_es_start.c **** 
 874:/home/simulink/cFS_FreeRTOS_seL4/cfe/fsw/cfe-core/src/es/cfe_es_start.c ****                   /*
 875:/home/simulink/cFS_FreeRTOS_seL4/cfe/fsw/cfe-core/src/es/cfe_es_start.c ****                   ** Delay to allow the message to be read
 876:/home/simulink/cFS_FreeRTOS_seL4/cfe/fsw/cfe-core/src/es/cfe_es_start.c ****                   */
 877:/home/simulink/cFS_FreeRTOS_seL4/cfe/fsw/cfe-core/src/es/cfe_es_start.c ****                   OS_TaskDelay(CFE_ES_PANIC_DELAY);
 878:/home/simulink/cFS_FreeRTOS_seL4/cfe/fsw/cfe-core/src/es/cfe_es_start.c ****       
 879:/home/simulink/cFS_FreeRTOS_seL4/cfe/fsw/cfe-core/src/es/cfe_es_start.c ****                   /* 
 880:/home/simulink/cFS_FreeRTOS_seL4/cfe/fsw/cfe-core/src/es/cfe_es_start.c ****                   ** cFE Cannot continue to start up.  
 881:/home/simulink/cFS_FreeRTOS_seL4/cfe/fsw/cfe-core/src/es/cfe_es_start.c ****                   */
 882:/home/simulink/cFS_FreeRTOS_seL4/cfe/fsw/cfe-core/src/es/cfe_es_start.c ****                   CFE_PSP_Panic(CFE_PSP_PANIC_CORE_APP);
 883:/home/simulink/cFS_FreeRTOS_seL4/cfe/fsw/cfe-core/src/es/cfe_es_start.c ****                                               
 884:/home/simulink/cFS_FreeRTOS_seL4/cfe/fsw/cfe-core/src/es/cfe_es_start.c ****                }
 885:/home/simulink/cFS_FreeRTOS_seL4/cfe/fsw/cfe-core/src/es/cfe_es_start.c ****                else
 886:/home/simulink/cFS_FreeRTOS_seL4/cfe/fsw/cfe-core/src/es/cfe_es_start.c ****                {
 887:/home/simulink/cFS_FreeRTOS_seL4/cfe/fsw/cfe-core/src/es/cfe_es_start.c ****                   OS_ConvertToArrayIndex(CFE_ES_Global.AppTable[j].TaskInfo.MainTaskId, &TaskIndex)
 888:/home/simulink/cFS_FreeRTOS_seL4/cfe/fsw/cfe-core/src/es/cfe_es_start.c **** 
 889:/home/simulink/cFS_FreeRTOS_seL4/cfe/fsw/cfe-core/src/es/cfe_es_start.c ****                   /*
 890:/home/simulink/cFS_FreeRTOS_seL4/cfe/fsw/cfe-core/src/es/cfe_es_start.c ****                   ** Allocate and populate the CFE_ES_Global.TaskTable entry
 891:/home/simulink/cFS_FreeRTOS_seL4/cfe/fsw/cfe-core/src/es/cfe_es_start.c ****                   */
 892:/home/simulink/cFS_FreeRTOS_seL4/cfe/fsw/cfe-core/src/es/cfe_es_start.c ****                   if ( CFE_ES_Global.TaskTable[TaskIndex].RecordUsed == TRUE )
 893:/home/simulink/cFS_FreeRTOS_seL4/cfe/fsw/cfe-core/src/es/cfe_es_start.c ****                   {
 894:/home/simulink/cFS_FreeRTOS_seL4/cfe/fsw/cfe-core/src/es/cfe_es_start.c ****                      CFE_ES_WriteToSysLog("ES Startup: CFE_ES_Global.TaskTable record used error fo
 895:/home/simulink/cFS_FreeRTOS_seL4/cfe/fsw/cfe-core/src/es/cfe_es_start.c ****                                            CFE_ES_ObjectTable[i].ObjectName);
 896:/home/simulink/cFS_FreeRTOS_seL4/cfe/fsw/cfe-core/src/es/cfe_es_start.c ****                   }
 897:/home/simulink/cFS_FreeRTOS_seL4/cfe/fsw/cfe-core/src/es/cfe_es_start.c ****                   else
 898:/home/simulink/cFS_FreeRTOS_seL4/cfe/fsw/cfe-core/src/es/cfe_es_start.c ****                   {
 899:/home/simulink/cFS_FreeRTOS_seL4/cfe/fsw/cfe-core/src/es/cfe_es_start.c ****                      CFE_ES_Global.TaskTable[TaskIndex].RecordUsed = TRUE;
 900:/home/simulink/cFS_FreeRTOS_seL4/cfe/fsw/cfe-core/src/es/cfe_es_start.c ****                   }
 901:/home/simulink/cFS_FreeRTOS_seL4/cfe/fsw/cfe-core/src/es/cfe_es_start.c ****                   CFE_ES_Global.TaskTable[TaskIndex].AppId = j;
 902:/home/simulink/cFS_FreeRTOS_seL4/cfe/fsw/cfe-core/src/es/cfe_es_start.c ****                   CFE_ES_Global.TaskTable[TaskIndex].TaskId = CFE_ES_Global.AppTable[j].TaskInfo.Ma
 903:/home/simulink/cFS_FreeRTOS_seL4/cfe/fsw/cfe-core/src/es/cfe_es_start.c ****                   strncpy((char *)CFE_ES_Global.TaskTable[TaskIndex].TaskName, (char *)CFE_ES_Globa
 904:/home/simulink/cFS_FreeRTOS_seL4/cfe/fsw/cfe-core/src/es/cfe_es_start.c ****                   CFE_ES_Global.TaskTable[TaskIndex].TaskName[OS_MAX_API_NAME - 1] = '\0';
 905:/home/simulink/cFS_FreeRTOS_seL4/cfe/fsw/cfe-core/src/es/cfe_es_start.c **** 
 906:/home/simulink/cFS_FreeRTOS_seL4/cfe/fsw/cfe-core/src/es/cfe_es_start.c ****                   CFE_ES_WriteToSysLog("ES Startup: Core App: %s created. App ID: %d\n",
 907:/home/simulink/cFS_FreeRTOS_seL4/cfe/fsw/cfe-core/src/es/cfe_es_start.c ****                                        CFE_ES_ObjectTable[i].ObjectName,j);
 908:/home/simulink/cFS_FreeRTOS_seL4/cfe/fsw/cfe-core/src/es/cfe_es_start.c ****                                        
 909:/home/simulink/cFS_FreeRTOS_seL4/cfe/fsw/cfe-core/src/es/cfe_es_start.c ****                   /*
 910:/home/simulink/cFS_FreeRTOS_seL4/cfe/fsw/cfe-core/src/es/cfe_es_start.c ****                   ** Increment the registered App and Registered External Task variables.
 911:/home/simulink/cFS_FreeRTOS_seL4/cfe/fsw/cfe-core/src/es/cfe_es_start.c ****                   */
 912:/home/simulink/cFS_FreeRTOS_seL4/cfe/fsw/cfe-core/src/es/cfe_es_start.c ****                   CFE_ES_Global.RegisteredTasks++;
 913:/home/simulink/cFS_FreeRTOS_seL4/cfe/fsw/cfe-core/src/es/cfe_es_start.c ****                   CFE_ES_Global.RegisteredCoreApps++;
 914:/home/simulink/cFS_FreeRTOS_seL4/cfe/fsw/cfe-core/src/es/cfe_es_start.c ****                   
 915:/home/simulink/cFS_FreeRTOS_seL4/cfe/fsw/cfe-core/src/es/cfe_es_start.c ****                   CFE_ES_UnlockSharedData(__func__,__LINE__);
 916:/home/simulink/cFS_FreeRTOS_seL4/cfe/fsw/cfe-core/src/es/cfe_es_start.c ****                                                                                                    
 917:/home/simulink/cFS_FreeRTOS_seL4/cfe/fsw/cfe-core/src/es/cfe_es_start.c ****                }
 918:/home/simulink/cFS_FreeRTOS_seL4/cfe/fsw/cfe-core/src/es/cfe_es_start.c ****             }
 919:/home/simulink/cFS_FreeRTOS_seL4/cfe/fsw/cfe-core/src/es/cfe_es_start.c ****             else /* appSlot not found -- This should never happen!*/
 920:/home/simulink/cFS_FreeRTOS_seL4/cfe/fsw/cfe-core/src/es/cfe_es_start.c ****             {
 921:/home/simulink/cFS_FreeRTOS_seL4/cfe/fsw/cfe-core/src/es/cfe_es_start.c ****                CFE_ES_WriteToSysLog("ES Startup: Error, No free application slots available for COR
 922:/home/simulink/cFS_FreeRTOS_seL4/cfe/fsw/cfe-core/src/es/cfe_es_start.c ****                /*
 923:/home/simulink/cFS_FreeRTOS_seL4/cfe/fsw/cfe-core/src/es/cfe_es_start.c ****                ** Delay to allow the message to be read
68K GAS   			page 53


 924:/home/simulink/cFS_FreeRTOS_seL4/cfe/fsw/cfe-core/src/es/cfe_es_start.c ****                */
 925:/home/simulink/cFS_FreeRTOS_seL4/cfe/fsw/cfe-core/src/es/cfe_es_start.c ****                OS_TaskDelay(CFE_ES_PANIC_DELAY);
 926:/home/simulink/cFS_FreeRTOS_seL4/cfe/fsw/cfe-core/src/es/cfe_es_start.c ****       
 927:/home/simulink/cFS_FreeRTOS_seL4/cfe/fsw/cfe-core/src/es/cfe_es_start.c ****                /* 
 928:/home/simulink/cFS_FreeRTOS_seL4/cfe/fsw/cfe-core/src/es/cfe_es_start.c ****                ** cFE Cannot continue to start up.  
 929:/home/simulink/cFS_FreeRTOS_seL4/cfe/fsw/cfe-core/src/es/cfe_es_start.c ****                */
 930:/home/simulink/cFS_FreeRTOS_seL4/cfe/fsw/cfe-core/src/es/cfe_es_start.c ****                CFE_PSP_Panic(CFE_PSP_PANIC_CORE_APP);
 931:/home/simulink/cFS_FreeRTOS_seL4/cfe/fsw/cfe-core/src/es/cfe_es_start.c ****             
 932:/home/simulink/cFS_FreeRTOS_seL4/cfe/fsw/cfe-core/src/es/cfe_es_start.c ****             }
 933:/home/simulink/cFS_FreeRTOS_seL4/cfe/fsw/cfe-core/src/es/cfe_es_start.c **** 
 934:/home/simulink/cFS_FreeRTOS_seL4/cfe/fsw/cfe-core/src/es/cfe_es_start.c ****             /*
 935:/home/simulink/cFS_FreeRTOS_seL4/cfe/fsw/cfe-core/src/es/cfe_es_start.c ****              * CFE_ES_ApplicationSyncDelay() will delay this thread until the
 936:/home/simulink/cFS_FreeRTOS_seL4/cfe/fsw/cfe-core/src/es/cfe_es_start.c ****              * newly-started thread calls CFE_ES_WaitForStartupSync()
 937:/home/simulink/cFS_FreeRTOS_seL4/cfe/fsw/cfe-core/src/es/cfe_es_start.c ****              */
 938:/home/simulink/cFS_FreeRTOS_seL4/cfe/fsw/cfe-core/src/es/cfe_es_start.c ****             if (CFE_ES_ApplicationSyncDelay(CFE_ES_SYSTEM_STATE_UNDEFINED, CFE_CORE_MAX_STARTUP_MSE
 939:/home/simulink/cFS_FreeRTOS_seL4/cfe/fsw/cfe-core/src/es/cfe_es_start.c ****             {
 940:/home/simulink/cFS_FreeRTOS_seL4/cfe/fsw/cfe-core/src/es/cfe_es_start.c ****                 CFE_ES_WriteToSysLog("ES Startup: Core App %s did not complete initialization\n",
 941:/home/simulink/cFS_FreeRTOS_seL4/cfe/fsw/cfe-core/src/es/cfe_es_start.c ****                                       CFE_ES_ObjectTable[i].ObjectName);
 942:/home/simulink/cFS_FreeRTOS_seL4/cfe/fsw/cfe-core/src/es/cfe_es_start.c **** 
 943:/home/simulink/cFS_FreeRTOS_seL4/cfe/fsw/cfe-core/src/es/cfe_es_start.c ****                 /*
 944:/home/simulink/cFS_FreeRTOS_seL4/cfe/fsw/cfe-core/src/es/cfe_es_start.c ****                 ** Delay to allow the message to be read
 945:/home/simulink/cFS_FreeRTOS_seL4/cfe/fsw/cfe-core/src/es/cfe_es_start.c ****                 */
 946:/home/simulink/cFS_FreeRTOS_seL4/cfe/fsw/cfe-core/src/es/cfe_es_start.c ****                 OS_TaskDelay(CFE_ES_PANIC_DELAY);
 947:/home/simulink/cFS_FreeRTOS_seL4/cfe/fsw/cfe-core/src/es/cfe_es_start.c **** 
 948:/home/simulink/cFS_FreeRTOS_seL4/cfe/fsw/cfe-core/src/es/cfe_es_start.c ****                 /*
 949:/home/simulink/cFS_FreeRTOS_seL4/cfe/fsw/cfe-core/src/es/cfe_es_start.c ****                 ** cFE Cannot continue to start up.
 950:/home/simulink/cFS_FreeRTOS_seL4/cfe/fsw/cfe-core/src/es/cfe_es_start.c ****                 */
 951:/home/simulink/cFS_FreeRTOS_seL4/cfe/fsw/cfe-core/src/es/cfe_es_start.c ****                 CFE_PSP_Panic(CFE_PSP_PANIC_CORE_APP);
 952:/home/simulink/cFS_FreeRTOS_seL4/cfe/fsw/cfe-core/src/es/cfe_es_start.c ****             }
 953:/home/simulink/cFS_FreeRTOS_seL4/cfe/fsw/cfe-core/src/es/cfe_es_start.c ****             break;
 954:/home/simulink/cFS_FreeRTOS_seL4/cfe/fsw/cfe-core/src/es/cfe_es_start.c **** 
 955:/home/simulink/cFS_FreeRTOS_seL4/cfe/fsw/cfe-core/src/es/cfe_es_start.c ****             case CFE_ES_FUNCTION_CALL: /*----------------------------------------------------------
 956:/home/simulink/cFS_FreeRTOS_seL4/cfe/fsw/cfe-core/src/es/cfe_es_start.c **** 
 957:/home/simulink/cFS_FreeRTOS_seL4/cfe/fsw/cfe-core/src/es/cfe_es_start.c ****                if ( CFE_ES_ObjectTable[i].FuncPtrUnion.FunctionPtr != NULL )
 958:/home/simulink/cFS_FreeRTOS_seL4/cfe/fsw/cfe-core/src/es/cfe_es_start.c ****                {
 959:/home/simulink/cFS_FreeRTOS_seL4/cfe/fsw/cfe-core/src/es/cfe_es_start.c ****                   CFE_ES_WriteToSysLog("ES Startup: Calling %s\n",CFE_ES_ObjectTable[i].ObjectName)
 960:/home/simulink/cFS_FreeRTOS_seL4/cfe/fsw/cfe-core/src/es/cfe_es_start.c ****                   /*
 961:/home/simulink/cFS_FreeRTOS_seL4/cfe/fsw/cfe-core/src/es/cfe_es_start.c ****                   ** Call the function
 962:/home/simulink/cFS_FreeRTOS_seL4/cfe/fsw/cfe-core/src/es/cfe_es_start.c ****                   */
 963:/home/simulink/cFS_FreeRTOS_seL4/cfe/fsw/cfe-core/src/es/cfe_es_start.c ****                   ReturnCode = (*CFE_ES_ObjectTable[i].FuncPtrUnion.FunctionPtr)();
 964:/home/simulink/cFS_FreeRTOS_seL4/cfe/fsw/cfe-core/src/es/cfe_es_start.c ****                   if(ReturnCode != CFE_SUCCESS)
 965:/home/simulink/cFS_FreeRTOS_seL4/cfe/fsw/cfe-core/src/es/cfe_es_start.c ****                   {
 966:/home/simulink/cFS_FreeRTOS_seL4/cfe/fsw/cfe-core/src/es/cfe_es_start.c ****                      CFE_ES_WriteToSysLog("ES Startup: Error returned when calling function: %s: EC
 967:/home/simulink/cFS_FreeRTOS_seL4/cfe/fsw/cfe-core/src/es/cfe_es_start.c ****                                            CFE_ES_ObjectTable[i].ObjectName, (unsigned int)ReturnCo
 968:/home/simulink/cFS_FreeRTOS_seL4/cfe/fsw/cfe-core/src/es/cfe_es_start.c ****                                         
 969:/home/simulink/cFS_FreeRTOS_seL4/cfe/fsw/cfe-core/src/es/cfe_es_start.c ****                      /*
 970:/home/simulink/cFS_FreeRTOS_seL4/cfe/fsw/cfe-core/src/es/cfe_es_start.c ****                      ** Delay to allow the message to be read
 971:/home/simulink/cFS_FreeRTOS_seL4/cfe/fsw/cfe-core/src/es/cfe_es_start.c ****                      */
 972:/home/simulink/cFS_FreeRTOS_seL4/cfe/fsw/cfe-core/src/es/cfe_es_start.c ****                      OS_TaskDelay(CFE_ES_PANIC_DELAY);
 973:/home/simulink/cFS_FreeRTOS_seL4/cfe/fsw/cfe-core/src/es/cfe_es_start.c ****       
 974:/home/simulink/cFS_FreeRTOS_seL4/cfe/fsw/cfe-core/src/es/cfe_es_start.c ****                      /* 
 975:/home/simulink/cFS_FreeRTOS_seL4/cfe/fsw/cfe-core/src/es/cfe_es_start.c ****                      ** cFE Cannot continue to start up.  
 976:/home/simulink/cFS_FreeRTOS_seL4/cfe/fsw/cfe-core/src/es/cfe_es_start.c ****                      */
 977:/home/simulink/cFS_FreeRTOS_seL4/cfe/fsw/cfe-core/src/es/cfe_es_start.c ****                      CFE_PSP_Panic(CFE_PSP_PANIC_CORE_APP);
 978:/home/simulink/cFS_FreeRTOS_seL4/cfe/fsw/cfe-core/src/es/cfe_es_start.c ****                                               
 979:/home/simulink/cFS_FreeRTOS_seL4/cfe/fsw/cfe-core/src/es/cfe_es_start.c ****                   } /* end if */
 980:/home/simulink/cFS_FreeRTOS_seL4/cfe/fsw/cfe-core/src/es/cfe_es_start.c ****                   
68K GAS   			page 54


 981:/home/simulink/cFS_FreeRTOS_seL4/cfe/fsw/cfe-core/src/es/cfe_es_start.c ****                }
 982:/home/simulink/cFS_FreeRTOS_seL4/cfe/fsw/cfe-core/src/es/cfe_es_start.c ****                else
 983:/home/simulink/cFS_FreeRTOS_seL4/cfe/fsw/cfe-core/src/es/cfe_es_start.c ****                {
 984:/home/simulink/cFS_FreeRTOS_seL4/cfe/fsw/cfe-core/src/es/cfe_es_start.c ****                   CFE_ES_WriteToSysLog("ES Startup: bad function pointer ( table entry = %d).\n",i)
 985:/home/simulink/cFS_FreeRTOS_seL4/cfe/fsw/cfe-core/src/es/cfe_es_start.c ****                }
 986:/home/simulink/cFS_FreeRTOS_seL4/cfe/fsw/cfe-core/src/es/cfe_es_start.c ****                break;
 987:/home/simulink/cFS_FreeRTOS_seL4/cfe/fsw/cfe-core/src/es/cfe_es_start.c **** 
 988:/home/simulink/cFS_FreeRTOS_seL4/cfe/fsw/cfe-core/src/es/cfe_es_start.c ****             case CFE_ES_NULL_ENTRY: /*-------------------------------------------------------*/
 989:/home/simulink/cFS_FreeRTOS_seL4/cfe/fsw/cfe-core/src/es/cfe_es_start.c ****                break;
 1195               	.loc 2 989 0
 1196 0946 6000 066A 	jra .L63
 1197               	.L48:
 794:/home/simulink/cFS_FreeRTOS_seL4/cfe/fsw/cfe-core/src/es/cfe_es_start.c ****         {
 1198               	.loc 2 794 0
 1199 094a 7204      	moveq #4,%d1
 1200 094c B280      	cmp.l %d0,%d1
 1201 094e 6700 059C 	jeq .L51
 990:/home/simulink/cFS_FreeRTOS_seL4/cfe/fsw/cfe-core/src/es/cfe_es_start.c ****             default:
 991:/home/simulink/cFS_FreeRTOS_seL4/cfe/fsw/cfe-core/src/es/cfe_es_start.c ****                break;
 1202               	.loc 2 991 0
 1203 0952 6000 065E 	jra .L63
 1204               	.L49:
 802:/home/simulink/cFS_FreeRTOS_seL4/cfe/fsw/cfe-core/src/es/cfe_es_start.c ****             for ( j = 0; j < CFE_ES_MAX_APPLICATIONS; j++ )
 1205               	.loc 2 802 0
 1206 0956 4202      	clr.b %d2
 1207 0958 1F42 0017 	move.b %d2,23(%sp)
 803:/home/simulink/cFS_FreeRTOS_seL4/cfe/fsw/cfe-core/src/es/cfe_es_start.c ****             {
 1208               	.loc 2 803 0
 1209 095c 4243      	clr.w %d3
 1210 095e 3F43 0012 	move.w %d3,18(%sp)
 1211 0962 6030      	jra .L52
 1212               	.L55:
 805:/home/simulink/cFS_FreeRTOS_seL4/cfe/fsw/cfe-core/src/es/cfe_es_start.c ****                {
 1213               	.loc 2 805 0
 1214 0964 4280      	clr.l %d0
 1215 0966 302F 0012 	move.w 18(%sp),%d0
 1216 096a 223C 0000 	move.l #168,%d1
 1216      00A8 
 1217 0970 4C01 0800 	muls.l %d1,%d0
 1218 0974 41F9 0000 	lea CFE_ES_Global+2348,%a0
 1218      0000 
 1219 097a 1030 0800 	move.b (%a0,%d0.l),%d0
 1220 097e 4A00      	tst.b %d0
 1221 0980 6608      	jne .L53
 807:/home/simulink/cFS_FreeRTOS_seL4/cfe/fsw/cfe-core/src/es/cfe_es_start.c ****                   break;
 1222               	.loc 2 807 0
 1223 0982 7401      	moveq #1,%d2
 1224 0984 1F42 0017 	move.b %d2,23(%sp)
 808:/home/simulink/cFS_FreeRTOS_seL4/cfe/fsw/cfe-core/src/es/cfe_es_start.c ****                }
 1225               	.loc 2 808 0
 1226 0988 6016      	jra .L54
 1227               	.L53:
 803:/home/simulink/cFS_FreeRTOS_seL4/cfe/fsw/cfe-core/src/es/cfe_es_start.c ****             {
 1228               	.loc 2 803 0 discriminator 2
 1229 098a 302F 0012 	move.w 18(%sp),%d0
 1230 098e 5280      	addq.l #1,%d0
 1231 0990 3F40 0012 	move.w %d0,18(%sp)
68K GAS   			page 55


 1232               	.L52:
 803:/home/simulink/cFS_FreeRTOS_seL4/cfe/fsw/cfe-core/src/es/cfe_es_start.c ****             {
 1233               	.loc 2 803 0 is_stmt 0 discriminator 1
 1234 0994 4280      	clr.l %d0
 1235 0996 302F 0012 	move.w 18(%sp),%d0
 1236 099a 761F      	moveq #31,%d3
 1237 099c B680      	cmp.l %d0,%d3
 1238 099e 64C4      	jcc .L55
 1239               	.L54:
 815:/home/simulink/cFS_FreeRTOS_seL4/cfe/fsw/cfe-core/src/es/cfe_es_start.c ****             {
 1240               	.loc 2 815 0 is_stmt 1
 1241 09a0 4280      	clr.l %d0
 1242 09a2 102F 0017 	move.b 23(%sp),%d0
 1243 09a6 7201      	moveq #1,%d1
 1244 09a8 B280      	cmp.l %d0,%d1
 1245 09aa 6600 04C6 	jne .L56
 818:/home/simulink/cFS_FreeRTOS_seL4/cfe/fsw/cfe-core/src/es/cfe_es_start.c **** 
 1246               	.loc 2 818 0
 1247 09ae 4878 0332 	pea 818.w
 1248               	.cfi_def_cfa_offset 32
 1249 09b2 4879 0000 	pea __func__.5835
 1249      0000 
 1250               	.cfi_def_cfa_offset 36
 1251 09b8 4EB9 0000 	jsr CFE_ES_LockSharedData
 1251      0000 
 1252 09be 508F      	addq.l #8,%sp
 1253               	.cfi_def_cfa_offset 28
 823:/home/simulink/cFS_FreeRTOS_seL4/cfe/fsw/cfe-core/src/es/cfe_es_start.c ****                CFE_ES_Global.AppTable[j].RecordUsed = TRUE;
 1254               	.loc 2 823 0
 1255 09c0 4280      	clr.l %d0
 1256 09c2 302F 0012 	move.w 18(%sp),%d0
 1257 09c6 243C 0000 	move.l #168,%d2
 1257      00A8 
 1258 09cc 4C02 0800 	muls.l %d2,%d0
 1259 09d0 0680 0000 	add.l #2348,%d0
 1259      092C 
 1260 09d6 0680 0000 	add.l #CFE_ES_Global,%d0
 1260      0000 
 1261 09dc 4878 00A8 	pea 168.w
 1262               	.cfi_def_cfa_offset 32
 1263 09e0 42A7      	clr.l -(%sp)
 1264               	.cfi_def_cfa_offset 36
 1265 09e2 2F00      	move.l %d0,-(%sp)
 1266               	.cfi_def_cfa_offset 40
 1267 09e4 4EB9 0000 	jsr CFE_PSP_MemSet
 1267      0000 
 1268 09ea 4FEF 000C 	lea (12,%sp),%sp
 1269               	.cfi_def_cfa_offset 28
 824:/home/simulink/cFS_FreeRTOS_seL4/cfe/fsw/cfe-core/src/es/cfe_es_start.c ****                CFE_ES_Global.AppTable[j].Type = CFE_ES_APP_TYPE_CORE;
 1270               	.loc 2 824 0
 1271 09ee 4280      	clr.l %d0
 1272 09f0 302F 0012 	move.w 18(%sp),%d0
 1273 09f4 263C 0000 	move.l #168,%d3
 1273      00A8 
 1274 09fa 4C03 0800 	muls.l %d3,%d0
 1275 09fe 41F9 0000 	lea CFE_ES_Global+2348,%a0
 1275      0000 
68K GAS   			page 56


 1276 0a04 7201      	moveq #1,%d1
 1277 0a06 1181 0800 	move.b %d1,(%a0,%d0.l)
 825:/home/simulink/cFS_FreeRTOS_seL4/cfe/fsw/cfe-core/src/es/cfe_es_start.c ****                
 1278               	.loc 2 825 0
 1279 0a0a 4280      	clr.l %d0
 1280 0a0c 302F 0012 	move.w 18(%sp),%d0
 1281 0a10 243C 0000 	move.l #168,%d2
 1281      00A8 
 1282 0a16 4C02 0800 	muls.l %d2,%d0
 1283 0a1a 41F9 0000 	lea CFE_ES_Global+2352,%a0
 1283      0000 
 1284 0a20 7601      	moveq #1,%d3
 1285 0a22 2183 0800 	move.l %d3,(%a0,%d0.l)
 830:/home/simulink/cFS_FreeRTOS_seL4/cfe/fsw/cfe-core/src/es/cfe_es_start.c ****                CFE_ES_Global.AppTable[j].StartParams.Name[OS_MAX_API_NAME - 1] = '\0';
 1286               	.loc 2 830 0
 1287 0a26 4280      	clr.l %d0
 1288 0a28 302F 0014 	move.w 20(%sp),%d0
 1289 0a2c 7228      	moveq #40,%d1
 1290 0a2e 4C01 0800 	muls.l %d1,%d0
 1291 0a32 5880      	addq.l #4,%d0
 1292 0a34 2200      	move.l %d0,%d1
 1293 0a36 0681 0000 	add.l #CFE_ES_ObjectTable,%d1
 1293      0000 
 1294 0a3c 4280      	clr.l %d0
 1295 0a3e 302F 0012 	move.w 18(%sp),%d0
 1296 0a42 243C 0000 	move.l #168,%d2
 1296      00A8 
 1297 0a48 4C02 0800 	muls.l %d2,%d0
 1298 0a4c 0680 0000 	add.l #2356,%d0
 1298      0934 
 1299 0a52 0680 0000 	add.l #CFE_ES_Global,%d0
 1299      0000 
 1300 0a58 4878 0014 	pea 20.w
 1301               	.cfi_def_cfa_offset 32
 1302 0a5c 2F01      	move.l %d1,-(%sp)
 1303               	.cfi_def_cfa_offset 36
 1304 0a5e 2F00      	move.l %d0,-(%sp)
 1305               	.cfi_def_cfa_offset 40
 1306 0a60 4EB9 0000 	jsr strncpy
 1306      0000 
 1307 0a66 4FEF 000C 	lea (12,%sp),%sp
 1308               	.cfi_def_cfa_offset 28
 831:/home/simulink/cFS_FreeRTOS_seL4/cfe/fsw/cfe-core/src/es/cfe_es_start.c ****                /* EntryPoint field is not valid here for base apps */
 1309               	.loc 2 831 0
 1310 0a6a 4280      	clr.l %d0
 1311 0a6c 302F 0012 	move.w 18(%sp),%d0
 1312 0a70 263C 0000 	move.l #168,%d3
 1312      00A8 
 1313 0a76 4C03 0800 	muls.l %d3,%d0
 1314 0a7a 41F9 0000 	lea CFE_ES_Global+2375,%a0
 1314      0000 
 1315 0a80 4201      	clr.b %d1
 1316 0a82 1181 0800 	move.b %d1,(%a0,%d0.l)
 834:/home/simulink/cFS_FreeRTOS_seL4/cfe/fsw/cfe-core/src/es/cfe_es_start.c ****                CFE_ES_Global.AppTable[j].StartParams.StartAddress = (cpuaddr)CFE_ES_ObjectTable[i].
 1317               	.loc 2 834 0
 1318 0a86 4281      	clr.l %d1
 1319 0a88 322F 0014 	move.w 20(%sp),%d1
68K GAS   			page 57


 1320 0a8c 4280      	clr.l %d0
 1321 0a8e 302F 0012 	move.w 18(%sp),%d0
 1322 0a92 7428      	moveq #40,%d2
 1323 0a94 4C02 1800 	muls.l %d2,%d1
 1324 0a98 41F9 0000 	lea CFE_ES_ObjectTable+32,%a0
 1324      0000 
 1325 0a9e 2230 1800 	move.l (%a0,%d1.l),%d1
 1326 0aa2 263C 0000 	move.l #168,%d3
 1326      00A8 
 1327 0aa8 4C03 0800 	muls.l %d3,%d0
 1328 0aac 41F9 0000 	lea CFE_ES_Global+2460,%a0
 1328      0000 
 1329 0ab2 2181 0800 	move.l %d1,(%a0,%d0.l)
 835:/home/simulink/cFS_FreeRTOS_seL4/cfe/fsw/cfe-core/src/es/cfe_es_start.c ****                CFE_ES_Global.AppTable[j].StartParams.ExceptionAction = CFE_ES_APP_EXCEPTION_PROC_RE
 1330               	.loc 2 835 0
 1331 0ab6 4280      	clr.l %d0
 1332 0ab8 302F 0014 	move.w 20(%sp),%d0
 1333 0abc 7228      	moveq #40,%d1
 1334 0abe 4C01 0800 	muls.l %d1,%d0
 1335 0ac2 41F9 0000 	lea CFE_ES_ObjectTable+24,%a0
 1335      0000 
 1336 0ac8 2230 0800 	move.l (%a0,%d0.l),%d1
 1337 0acc 4280      	clr.l %d0
 1338 0ace 302F 0012 	move.w 18(%sp),%d0
 1339 0ad2 243C 0000 	move.l #168,%d2
 1339      00A8 
 1340 0ad8 4C02 0800 	muls.l %d2,%d0
 1341 0adc 41F9 0000 	lea CFE_ES_Global+2464,%a0
 1341      0000 
 1342 0ae2 2181 0800 	move.l %d1,(%a0,%d0.l)
 836:/home/simulink/cFS_FreeRTOS_seL4/cfe/fsw/cfe-core/src/es/cfe_es_start.c ****                CFE_ES_Global.AppTable[j].StartParams.Priority = CFE_ES_ObjectTable[i].ObjectPriorit
 1343               	.loc 2 836 0
 1344 0ae6 4280      	clr.l %d0
 1345 0ae8 302F 0012 	move.w 18(%sp),%d0
 1346 0aec 263C 0000 	move.l #168,%d3
 1346      00A8 
 1347 0af2 4C03 0800 	muls.l %d3,%d0
 1348 0af6 41F9 0000 	lea CFE_ES_Global+2472,%a0
 1348      0000 
 1349 0afc 7201      	moveq #1,%d1
 1350 0afe 3181 0800 	move.w %d1,(%a0,%d0.l)
 837:/home/simulink/cFS_FreeRTOS_seL4/cfe/fsw/cfe-core/src/es/cfe_es_start.c ****                
 1351               	.loc 2 837 0
 1352 0b02 4280      	clr.l %d0
 1353 0b04 302F 0014 	move.w 20(%sp),%d0
 1354 0b08 7428      	moveq #40,%d2
 1355 0b0a 4C02 0800 	muls.l %d2,%d0
 1356 0b0e 41F9 0000 	lea CFE_ES_ObjectTable+28,%a0
 1356      0000 
 1357 0b14 2230 0800 	move.l (%a0,%d0.l),%d1
 1358 0b18 4280      	clr.l %d0
 1359 0b1a 302F 0012 	move.w 18(%sp),%d0
 1360 0b1e 3201      	move.w %d1,%d1
 1361 0b20 263C 0000 	move.l #168,%d3
 1361      00A8 
 1362 0b26 4C03 0800 	muls.l %d3,%d0
 1363 0b2a 41F9 0000 	lea CFE_ES_Global+2474,%a0
68K GAS   			page 58


 1363      0000 
 1364 0b30 3181 0800 	move.w %d1,(%a0,%d0.l)
 843:/home/simulink/cFS_FreeRTOS_seL4/cfe/fsw/cfe-core/src/es/cfe_es_start.c ****                CFE_ES_Global.AppTable[j].TaskInfo.MainTaskName[OS_MAX_API_NAME - 1] = '\0';
 1365               	.loc 2 843 0
 1366 0b34 4280      	clr.l %d0
 1367 0b36 302F 0014 	move.w 20(%sp),%d0
 1368 0b3a 7228      	moveq #40,%d1
 1369 0b3c 4C01 0800 	muls.l %d1,%d0
 1370 0b40 5880      	addq.l #4,%d0
 1371 0b42 2200      	move.l %d0,%d1
 1372 0b44 0681 0000 	add.l #CFE_ES_ObjectTable,%d1
 1372      0000 
 1373 0b4a 4280      	clr.l %d0
 1374 0b4c 302F 0012 	move.w 18(%sp),%d0
 1375 0b50 243C 0000 	move.l #168,%d2
 1375      00A8 
 1376 0b56 4C02 0800 	muls.l %d2,%d0
 1377 0b5a 0680 0000 	add.l #2492,%d0
 1377      09BC 
 1378 0b60 0680 0000 	add.l #CFE_ES_Global,%d0
 1378      0000 
 1379 0b66 4878 0014 	pea 20.w
 1380               	.cfi_def_cfa_offset 32
 1381 0b6a 2F01      	move.l %d1,-(%sp)
 1382               	.cfi_def_cfa_offset 36
 1383 0b6c 2F00      	move.l %d0,-(%sp)
 1384               	.cfi_def_cfa_offset 40
 1385 0b6e 4EB9 0000 	jsr strncpy
 1385      0000 
 1386 0b74 4FEF 000C 	lea (12,%sp),%sp
 1387               	.cfi_def_cfa_offset 28
 844:/home/simulink/cFS_FreeRTOS_seL4/cfe/fsw/cfe-core/src/es/cfe_es_start.c ****                CFE_ES_Global.AppTable[j].TaskInfo.NumOfChildTasks = 0;
 1388               	.loc 2 844 0
 1389 0b78 4280      	clr.l %d0
 1390 0b7a 302F 0012 	move.w 18(%sp),%d0
 1391 0b7e 263C 0000 	move.l #168,%d3
 1391      00A8 
 1392 0b84 4C03 0800 	muls.l %d3,%d0
 1393 0b88 41F9 0000 	lea CFE_ES_Global+2511,%a0
 1393      0000 
 1394 0b8e 4201      	clr.b %d1
 1395 0b90 1181 0800 	move.b %d1,(%a0,%d0.l)
 845:/home/simulink/cFS_FreeRTOS_seL4/cfe/fsw/cfe-core/src/es/cfe_es_start.c ****                
 1396               	.loc 2 845 0
 1397 0b94 4280      	clr.l %d0
 1398 0b96 302F 0012 	move.w 18(%sp),%d0
 1399 0b9a 243C 0000 	move.l #168,%d2
 1399      00A8 
 1400 0ba0 4C02 0800 	muls.l %d2,%d0
 1401 0ba4 41F9 0000 	lea CFE_ES_Global+2512,%a0
 1401      0000 
 1402 0baa 42B0 0800 	clr.l (%a0,%d0.l)
 850:/home/simulink/cFS_FreeRTOS_seL4/cfe/fsw/cfe-core/src/es/cfe_es_start.c ****                ++CFE_ES_Global.AppStartedCount;
 1403               	.loc 2 850 0
 1404 0bae 4280      	clr.l %d0
 1405 0bb0 302F 0012 	move.w 18(%sp),%d0
 1406 0bb4 263C 0000 	move.l #168,%d3
68K GAS   			page 59


 1406      00A8 
 1407 0bba 4C03 0800 	muls.l %d3,%d0
 1408 0bbe 41F9 0000 	lea CFE_ES_Global+2480,%a0
 1408      0000 
 1409 0bc4 7204      	moveq #4,%d1
 1410 0bc6 2181 0800 	move.l %d1,(%a0,%d0.l)
 851:/home/simulink/cFS_FreeRTOS_seL4/cfe/fsw/cfe-core/src/es/cfe_es_start.c ****                
 1411               	.loc 2 851 0
 1412 0bca 2039 0000 	move.l CFE_ES_Global+20,%d0
 1412      0000 
 1413 0bd0 5280      	addq.l #1,%d0
 1414 0bd2 23C0 0000 	move.l %d0,CFE_ES_Global+20
 1414      0000 
 857:/home/simulink/cFS_FreeRTOS_seL4/cfe/fsw/cfe-core/src/es/cfe_es_start.c ****                                   CFE_ES_ObjectTable[i].ObjectName,              /* task name */
 1415               	.loc 2 857 0
 1416 0bd8 4280      	clr.l %d0
 1417 0bda 302F 0014 	move.w 20(%sp),%d0
 1418 0bde 7428      	moveq #40,%d2
 1419 0be0 4C02 0800 	muls.l %d2,%d0
 1420 0be4 41F9 0000 	lea CFE_ES_ObjectTable+28,%a0
 1420      0000 
 1421 0bea 2430 0800 	move.l (%a0,%d0.l),%d2
 1422 0bee 4280      	clr.l %d0
 1423 0bf0 302F 0014 	move.w 20(%sp),%d0
 1424 0bf4 7628      	moveq #40,%d3
 1425 0bf6 4C03 0800 	muls.l %d3,%d0
 1426 0bfa 41F9 0000 	lea CFE_ES_ObjectTable+32,%a0
 1426      0000 
 1427 0c00 2270 0800 	move.l (%a0,%d0.l),%a1
 1428 0c04 4280      	clr.l %d0
 1429 0c06 302F 0014 	move.w 20(%sp),%d0
 859:/home/simulink/cFS_FreeRTOS_seL4/cfe/fsw/cfe-core/src/es/cfe_es_start.c ****                                   NULL,                                          /* stack pointer *
 1430               	.loc 2 859 0
 1431 0c0a 7228      	moveq #40,%d1
 1432 0c0c 4C01 0800 	muls.l %d1,%d0
 1433 0c10 41F9 0000 	lea CFE_ES_ObjectTable+24,%a0
 1433      0000 
 1434 0c16 2070 0800 	move.l (%a0,%d0.l),%a0
 858:/home/simulink/cFS_FreeRTOS_seL4/cfe/fsw/cfe-core/src/es/cfe_es_start.c ****                                   CFE_ES_ObjectTable[i].FuncPtrUnion.MainAppPtr, /* task function p
 1435               	.loc 2 858 0
 1436 0c1a 4280      	clr.l %d0
 1437 0c1c 302F 0014 	move.w 20(%sp),%d0
 1438 0c20 7628      	moveq #40,%d3
 1439 0c22 4C03 0800 	muls.l %d3,%d0
 1440 0c26 5880      	addq.l #4,%d0
 1441 0c28 2200      	move.l %d0,%d1
 1442 0c2a 0681 0000 	add.l #CFE_ES_ObjectTable,%d1
 1442      0000 
 857:/home/simulink/cFS_FreeRTOS_seL4/cfe/fsw/cfe-core/src/es/cfe_es_start.c ****                                   CFE_ES_ObjectTable[i].ObjectName,              /* task name */
 1443               	.loc 2 857 0
 1444 0c30 4280      	clr.l %d0
 1445 0c32 302F 0012 	move.w 18(%sp),%d0
 1446 0c36 263C 0000 	move.l #168,%d3
 1446      00A8 
 1447 0c3c 4C03 0800 	muls.l %d3,%d0
 1448 0c40 0680 0000 	add.l #2488,%d0
 1448      09B8 
68K GAS   			page 60


 1449 0c46 0680 0000 	add.l #CFE_ES_Global,%d0
 1449      0000 
 1450 0c4c 4878 0001 	pea 1.w
 1451               	.cfi_def_cfa_offset 32
 1452 0c50 2F02      	move.l %d2,-(%sp)
 1453               	.cfi_def_cfa_offset 36
 1454 0c52 2F09      	move.l %a1,-(%sp)
 1455               	.cfi_def_cfa_offset 40
 1456 0c54 42A7      	clr.l -(%sp)
 1457               	.cfi_def_cfa_offset 44
 1458 0c56 2F08      	move.l %a0,-(%sp)
 1459               	.cfi_def_cfa_offset 48
 1460 0c58 2F01      	move.l %d1,-(%sp)
 1461               	.cfi_def_cfa_offset 52
 1462 0c5a 2F00      	move.l %d0,-(%sp)
 1463               	.cfi_def_cfa_offset 56
 1464 0c5c 4EB9 0000 	jsr OS_TaskCreate
 1464      0000 
 1465 0c62 4FEF 001C 	lea (28,%sp),%sp
 1466               	.cfi_def_cfa_offset 28
 1467 0c66 2F40 000C 	move.l %d0,12(%sp)
 865:/home/simulink/cFS_FreeRTOS_seL4/cfe/fsw/cfe-core/src/es/cfe_es_start.c ****                {
 1468               	.loc 2 865 0
 1469 0c6a 4AAF 000C 	tst.l 12(%sp)
 1470 0c6e 6776      	jeq .L57
 867:/home/simulink/cFS_FreeRTOS_seL4/cfe/fsw/cfe-core/src/es/cfe_es_start.c ****                   CFE_ES_WriteToSysLog("ES Startup: OS_TaskCreate error creating core App: %s: EC =
 1471               	.loc 2 867 0
 1472 0c70 4280      	clr.l %d0
 1473 0c72 302F 0012 	move.w 18(%sp),%d0
 1474 0c76 223C 0000 	move.l #168,%d1
 1474      00A8 
 1475 0c7c 4C01 0800 	muls.l %d1,%d0
 1476 0c80 41F9 0000 	lea CFE_ES_Global+2348,%a0
 1476      0000 
 1477 0c86 4202      	clr.b %d2
 1478 0c88 1182 0800 	move.b %d2,(%a0,%d0.l)
 868:/home/simulink/cFS_FreeRTOS_seL4/cfe/fsw/cfe-core/src/es/cfe_es_start.c ****                                         CFE_ES_ObjectTable[i].ObjectName, (unsigned int)ReturnCode)
 1479               	.loc 2 868 0
 1480 0c8c 222F 000C 	move.l 12(%sp),%d1
 869:/home/simulink/cFS_FreeRTOS_seL4/cfe/fsw/cfe-core/src/es/cfe_es_start.c ****       
 1481               	.loc 2 869 0
 1482 0c90 4280      	clr.l %d0
 1483 0c92 302F 0014 	move.w 20(%sp),%d0
 1484 0c96 7628      	moveq #40,%d3
 1485 0c98 4C03 0800 	muls.l %d3,%d0
 1486 0c9c 5880      	addq.l #4,%d0
 1487 0c9e 0680 0000 	add.l #CFE_ES_ObjectTable,%d0
 1487      0000 
 868:/home/simulink/cFS_FreeRTOS_seL4/cfe/fsw/cfe-core/src/es/cfe_es_start.c ****                                         CFE_ES_ObjectTable[i].ObjectName, (unsigned int)ReturnCode)
 1488               	.loc 2 868 0
 1489 0ca4 2F01      	move.l %d1,-(%sp)
 1490               	.cfi_def_cfa_offset 32
 1491 0ca6 2F00      	move.l %d0,-(%sp)
 1492               	.cfi_def_cfa_offset 36
 1493 0ca8 4879 0000 	pea .LC40
 1493      0000 
 1494               	.cfi_def_cfa_offset 40
68K GAS   			page 61


 1495 0cae 4EB9 0000 	jsr CFE_ES_WriteToSysLog
 1495      0000 
 1496 0cb4 4FEF 000C 	lea (12,%sp),%sp
 1497               	.cfi_def_cfa_offset 28
 872:/home/simulink/cFS_FreeRTOS_seL4/cfe/fsw/cfe-core/src/es/cfe_es_start.c **** 
 1498               	.loc 2 872 0
 1499 0cb8 4878 0368 	pea 872.w
 1500               	.cfi_def_cfa_offset 32
 1501 0cbc 4879 0000 	pea __func__.5835
 1501      0000 
 1502               	.cfi_def_cfa_offset 36
 1503 0cc2 4EB9 0000 	jsr CFE_ES_UnlockSharedData
 1503      0000 
 1504 0cc8 508F      	addq.l #8,%sp
 1505               	.cfi_def_cfa_offset 28
 877:/home/simulink/cFS_FreeRTOS_seL4/cfe/fsw/cfe-core/src/es/cfe_es_start.c ****       
 1506               	.loc 2 877 0
 1507 0cca 4878 01F4 	pea 500.w
 1508               	.cfi_def_cfa_offset 32
 1509 0cce 4EB9 0000 	jsr OS_TaskDelay
 1509      0000 
 1510 0cd4 588F      	addq.l #4,%sp
 1511               	.cfi_def_cfa_offset 28
 882:/home/simulink/cFS_FreeRTOS_seL4/cfe/fsw/cfe-core/src/es/cfe_es_start.c ****                                               
 1512               	.loc 2 882 0
 1513 0cd6 4878 0006 	pea 6.w
 1514               	.cfi_def_cfa_offset 32
 1515 0cda 4EB9 0000 	jsr CFE_PSP_Panic
 1515      0000 
 1516 0ce0 588F      	addq.l #4,%sp
 1517               	.cfi_def_cfa_offset 28
 1518 0ce2 6000 01B4 	jra .L61
 1519               	.L57:
 887:/home/simulink/cFS_FreeRTOS_seL4/cfe/fsw/cfe-core/src/es/cfe_es_start.c **** 
 1520               	.loc 2 887 0
 1521 0ce6 4280      	clr.l %d0
 1522 0ce8 302F 0012 	move.w 18(%sp),%d0
 1523 0cec 223C 0000 	move.l #168,%d1
 1523      00A8 
 1524 0cf2 4C01 0800 	muls.l %d1,%d0
 1525 0cf6 41F9 0000 	lea CFE_ES_Global+2488,%a0
 1525      0000 
 1526 0cfc 2230 0800 	move.l (%a0,%d0.l),%d1
 1527 0d00 200F      	move.l %sp,%d0
 1528 0d02 5080      	addq.l #8,%d0
 1529 0d04 2F00      	move.l %d0,-(%sp)
 1530               	.cfi_def_cfa_offset 32
 1531 0d06 2F01      	move.l %d1,-(%sp)
 1532               	.cfi_def_cfa_offset 36
 1533 0d08 4EBA F2F6 	jsr OS_ConvertToArrayIndex
 1534 0d0c 508F      	addq.l #8,%sp
 1535               	.cfi_def_cfa_offset 28
 892:/home/simulink/cFS_FreeRTOS_seL4/cfe/fsw/cfe-core/src/es/cfe_es_start.c ****                   {
 1536               	.loc 2 892 0
 1537 0d0e 202F 0008 	move.l 8(%sp),%d0
 1538 0d12 5280      	addq.l #1,%d0
 1539 0d14 7424      	moveq #36,%d2
68K GAS   			page 62


 1540 0d16 4C02 0800 	muls.l %d2,%d0
 1541 0d1a 41F9 0000 	lea CFE_ES_Global,%a0
 1541      0000 
 1542 0d20 1030 0800 	move.b (%a0,%d0.l),%d0
 1543 0d24 1000      	move.b %d0,%d0
 1544 0d26 0280 0000 	and.l #255,%d0
 1544      00FF 
 1545 0d2c 7601      	moveq #1,%d3
 1546 0d2e B680      	cmp.l %d0,%d3
 1547 0d30 6626      	jne .L59
 895:/home/simulink/cFS_FreeRTOS_seL4/cfe/fsw/cfe-core/src/es/cfe_es_start.c ****                   }
 1548               	.loc 2 895 0
 1549 0d32 4280      	clr.l %d0
 1550 0d34 302F 0014 	move.w 20(%sp),%d0
 1551 0d38 7228      	moveq #40,%d1
 1552 0d3a 4C01 0800 	muls.l %d1,%d0
 1553 0d3e 5880      	addq.l #4,%d0
 1554 0d40 0680 0000 	add.l #CFE_ES_ObjectTable,%d0
 1554      0000 
 894:/home/simulink/cFS_FreeRTOS_seL4/cfe/fsw/cfe-core/src/es/cfe_es_start.c ****                                            CFE_ES_ObjectTable[i].ObjectName);
 1555               	.loc 2 894 0
 1556 0d46 2F00      	move.l %d0,-(%sp)
 1557               	.cfi_def_cfa_offset 32
 1558 0d48 4879 0000 	pea .LC41
 1558      0000 
 1559               	.cfi_def_cfa_offset 36
 1560 0d4e 4EB9 0000 	jsr CFE_ES_WriteToSysLog
 1560      0000 
 1561 0d54 508F      	addq.l #8,%sp
 1562               	.cfi_def_cfa_offset 28
 1563 0d56 6018      	jra .L60
 1564               	.L59:
 899:/home/simulink/cFS_FreeRTOS_seL4/cfe/fsw/cfe-core/src/es/cfe_es_start.c ****                   }
 1565               	.loc 2 899 0
 1566 0d58 202F 0008 	move.l 8(%sp),%d0
 1567 0d5c 5280      	addq.l #1,%d0
 1568 0d5e 7424      	moveq #36,%d2
 1569 0d60 4C02 0800 	muls.l %d2,%d0
 1570 0d64 41F9 0000 	lea CFE_ES_Global,%a0
 1570      0000 
 1571 0d6a 7601      	moveq #1,%d3
 1572 0d6c 1183 0800 	move.b %d3,(%a0,%d0.l)
 1573               	.L60:
 901:/home/simulink/cFS_FreeRTOS_seL4/cfe/fsw/cfe-core/src/es/cfe_es_start.c ****                   CFE_ES_Global.TaskTable[TaskIndex].TaskId = CFE_ES_Global.AppTable[j].TaskInfo.Ma
 1574               	.loc 2 901 0
 1575 0d70 202F 0008 	move.l 8(%sp),%d0
 1576 0d74 4281      	clr.l %d1
 1577 0d76 322F 0012 	move.w 18(%sp),%d1
 1578 0d7a 7424      	moveq #36,%d2
 1579 0d7c 4C02 0800 	muls.l %d2,%d0
 1580 0d80 41F9 0000 	lea CFE_ES_Global+40,%a0
 1580      0000 
 1581 0d86 2181 0800 	move.l %d1,(%a0,%d0.l)
 902:/home/simulink/cFS_FreeRTOS_seL4/cfe/fsw/cfe-core/src/es/cfe_es_start.c ****                   strncpy((char *)CFE_ES_Global.TaskTable[TaskIndex].TaskName, (char *)CFE_ES_Globa
 1582               	.loc 2 902 0
 1583 0d8a 4280      	clr.l %d0
 1584 0d8c 302F 0012 	move.w 18(%sp),%d0
68K GAS   			page 63


 1585 0d90 242F 0008 	move.l 8(%sp),%d2
 1586 0d94 263C 0000 	move.l #168,%d3
 1586      00A8 
 1587 0d9a 4C03 0800 	muls.l %d3,%d0
 1588 0d9e 41F9 0000 	lea CFE_ES_Global+2488,%a0
 1588      0000 
 1589 0da4 2230 0800 	move.l (%a0,%d0.l),%d1
 1590 0da8 7024      	moveq #36,%d0
 1591 0daa 4C02 0800 	muls.l %d2,%d0
 1592 0dae 41F9 0000 	lea CFE_ES_Global+44,%a0
 1592      0000 
 1593 0db4 2181 0800 	move.l %d1,(%a0,%d0.l)
 903:/home/simulink/cFS_FreeRTOS_seL4/cfe/fsw/cfe-core/src/es/cfe_es_start.c ****                   CFE_ES_Global.TaskTable[TaskIndex].TaskName[OS_MAX_API_NAME - 1] = '\0';
 1594               	.loc 2 903 0
 1595 0db8 4280      	clr.l %d0
 1596 0dba 302F 0012 	move.w 18(%sp),%d0
 1597 0dbe 223C 0000 	move.l #168,%d1
 1597      00A8 
 1598 0dc4 4C01 0800 	muls.l %d1,%d0
 1599 0dc8 0680 0000 	add.l #2492,%d0
 1599      09BC 
 1600 0dce 2200      	move.l %d0,%d1
 1601 0dd0 0681 0000 	add.l #CFE_ES_Global,%d1
 1601      0000 
 1602 0dd6 202F 0008 	move.l 8(%sp),%d0
 1603 0dda 7424      	moveq #36,%d2
 1604 0ddc 4C02 0800 	muls.l %d2,%d0
 1605 0de0 0680 0000 	add.l #52,%d0
 1605      0034 
 1606 0de6 0680 0000 	add.l #CFE_ES_Global,%d0
 1606      0000 
 1607 0dec 4878 0014 	pea 20.w
 1608               	.cfi_def_cfa_offset 32
 1609 0df0 2F01      	move.l %d1,-(%sp)
 1610               	.cfi_def_cfa_offset 36
 1611 0df2 2F00      	move.l %d0,-(%sp)
 1612               	.cfi_def_cfa_offset 40
 1613 0df4 4EB9 0000 	jsr strncpy
 1613      0000 
 1614 0dfa 4FEF 000C 	lea (12,%sp),%sp
 1615               	.cfi_def_cfa_offset 28
 904:/home/simulink/cFS_FreeRTOS_seL4/cfe/fsw/cfe-core/src/es/cfe_es_start.c **** 
 1616               	.loc 2 904 0
 1617 0dfe 202F 0008 	move.l 8(%sp),%d0
 1618 0e02 7624      	moveq #36,%d3
 1619 0e04 4C03 0800 	muls.l %d3,%d0
 1620 0e08 41F9 0000 	lea CFE_ES_Global+71,%a0
 1620      0000 
 1621 0e0e 4201      	clr.b %d1
 1622 0e10 1181 0800 	move.b %d1,(%a0,%d0.l)
 906:/home/simulink/cFS_FreeRTOS_seL4/cfe/fsw/cfe-core/src/es/cfe_es_start.c ****                                        CFE_ES_ObjectTable[i].ObjectName,j);
 1623               	.loc 2 906 0
 1624 0e14 4281      	clr.l %d1
 1625 0e16 322F 0012 	move.w 18(%sp),%d1
 907:/home/simulink/cFS_FreeRTOS_seL4/cfe/fsw/cfe-core/src/es/cfe_es_start.c ****                                        
 1626               	.loc 2 907 0
 1627 0e1a 4280      	clr.l %d0
68K GAS   			page 64


 1628 0e1c 302F 0014 	move.w 20(%sp),%d0
 1629 0e20 7428      	moveq #40,%d2
 1630 0e22 4C02 0800 	muls.l %d2,%d0
 1631 0e26 5880      	addq.l #4,%d0
 1632 0e28 0680 0000 	add.l #CFE_ES_ObjectTable,%d0
 1632      0000 
 906:/home/simulink/cFS_FreeRTOS_seL4/cfe/fsw/cfe-core/src/es/cfe_es_start.c ****                                        CFE_ES_ObjectTable[i].ObjectName,j);
 1633               	.loc 2 906 0
 1634 0e2e 2F01      	move.l %d1,-(%sp)
 1635               	.cfi_def_cfa_offset 32
 1636 0e30 2F00      	move.l %d0,-(%sp)
 1637               	.cfi_def_cfa_offset 36
 1638 0e32 4879 0000 	pea .LC42
 1638      0000 
 1639               	.cfi_def_cfa_offset 40
 1640 0e38 4EB9 0000 	jsr CFE_ES_WriteToSysLog
 1640      0000 
 1641 0e3e 4FEF 000C 	lea (12,%sp),%sp
 1642               	.cfi_def_cfa_offset 28
 912:/home/simulink/cFS_FreeRTOS_seL4/cfe/fsw/cfe-core/src/es/cfe_es_start.c ****                   CFE_ES_Global.RegisteredCoreApps++;
 1643               	.loc 2 912 0
 1644 0e42 2039 0000 	move.l CFE_ES_Global+32,%d0
 1644      0000 
 1645 0e48 5280      	addq.l #1,%d0
 1646 0e4a 23C0 0000 	move.l %d0,CFE_ES_Global+32
 1646      0000 
 913:/home/simulink/cFS_FreeRTOS_seL4/cfe/fsw/cfe-core/src/es/cfe_es_start.c ****                   
 1647               	.loc 2 913 0
 1648 0e50 2039 0000 	move.l CFE_ES_Global+2340,%d0
 1648      0000 
 1649 0e56 5280      	addq.l #1,%d0
 1650 0e58 23C0 0000 	move.l %d0,CFE_ES_Global+2340
 1650      0000 
 915:/home/simulink/cFS_FreeRTOS_seL4/cfe/fsw/cfe-core/src/es/cfe_es_start.c ****                                                                                                    
 1651               	.loc 2 915 0
 1652 0e5e 4878 0393 	pea 915.w
 1653               	.cfi_def_cfa_offset 32
 1654 0e62 4879 0000 	pea __func__.5835
 1654      0000 
 1655               	.cfi_def_cfa_offset 36
 1656 0e68 4EB9 0000 	jsr CFE_ES_UnlockSharedData
 1656      0000 
 1657 0e6e 508F      	addq.l #8,%sp
 1658               	.cfi_def_cfa_offset 28
 1659 0e70 6026      	jra .L61
 1660               	.L56:
 921:/home/simulink/cFS_FreeRTOS_seL4/cfe/fsw/cfe-core/src/es/cfe_es_start.c ****                /*
 1661               	.loc 2 921 0
 1662 0e72 4879 0000 	pea .LC43
 1662      0000 
 1663               	.cfi_def_cfa_offset 32
 1664 0e78 4EB9 0000 	jsr CFE_ES_WriteToSysLog
 1664      0000 
 1665 0e7e 588F      	addq.l #4,%sp
 1666               	.cfi_def_cfa_offset 28
 925:/home/simulink/cFS_FreeRTOS_seL4/cfe/fsw/cfe-core/src/es/cfe_es_start.c ****       
 1667               	.loc 2 925 0
68K GAS   			page 65


 1668 0e80 4878 01F4 	pea 500.w
 1669               	.cfi_def_cfa_offset 32
 1670 0e84 4EB9 0000 	jsr OS_TaskDelay
 1670      0000 
 1671 0e8a 588F      	addq.l #4,%sp
 1672               	.cfi_def_cfa_offset 28
 930:/home/simulink/cFS_FreeRTOS_seL4/cfe/fsw/cfe-core/src/es/cfe_es_start.c ****             
 1673               	.loc 2 930 0
 1674 0e8c 4878 0006 	pea 6.w
 1675               	.cfi_def_cfa_offset 32
 1676 0e90 4EB9 0000 	jsr CFE_PSP_Panic
 1676      0000 
 1677 0e96 588F      	addq.l #4,%sp
 1678               	.cfi_def_cfa_offset 28
 1679               	.L61:
 938:/home/simulink/cFS_FreeRTOS_seL4/cfe/fsw/cfe-core/src/es/cfe_es_start.c ****             {
 1680               	.loc 2 938 0
 1681 0e98 4878 7530 	pea 30000.w
 1682               	.cfi_def_cfa_offset 32
 1683 0e9c 42A7      	clr.l -(%sp)
 1684               	.cfi_def_cfa_offset 36
 1685 0e9e 4EB9 0000 	jsr CFE_ES_ApplicationSyncDelay
 1685      0000 
 1686 0ea4 508F      	addq.l #8,%sp
 1687               	.cfi_def_cfa_offset 28
 1688 0ea6 4A80      	tst.l %d0
 1689 0ea8 6700 0102 	jeq .L68
 941:/home/simulink/cFS_FreeRTOS_seL4/cfe/fsw/cfe-core/src/es/cfe_es_start.c **** 
 1690               	.loc 2 941 0
 1691 0eac 4280      	clr.l %d0
 1692 0eae 302F 0014 	move.w 20(%sp),%d0
 1693 0eb2 7628      	moveq #40,%d3
 1694 0eb4 4C03 0800 	muls.l %d3,%d0
 1695 0eb8 5880      	addq.l #4,%d0
 1696 0eba 0680 0000 	add.l #CFE_ES_ObjectTable,%d0
 1696      0000 
 940:/home/simulink/cFS_FreeRTOS_seL4/cfe/fsw/cfe-core/src/es/cfe_es_start.c ****                                       CFE_ES_ObjectTable[i].ObjectName);
 1697               	.loc 2 940 0
 1698 0ec0 2F00      	move.l %d0,-(%sp)
 1699               	.cfi_def_cfa_offset 32
 1700 0ec2 4879 0000 	pea .LC44
 1700      0000 
 1701               	.cfi_def_cfa_offset 36
 1702 0ec8 4EB9 0000 	jsr CFE_ES_WriteToSysLog
 1702      0000 
 1703 0ece 508F      	addq.l #8,%sp
 1704               	.cfi_def_cfa_offset 28
 946:/home/simulink/cFS_FreeRTOS_seL4/cfe/fsw/cfe-core/src/es/cfe_es_start.c **** 
 1705               	.loc 2 946 0
 1706 0ed0 4878 01F4 	pea 500.w
 1707               	.cfi_def_cfa_offset 32
 1708 0ed4 4EB9 0000 	jsr OS_TaskDelay
 1708      0000 
 1709 0eda 588F      	addq.l #4,%sp
 1710               	.cfi_def_cfa_offset 28
 951:/home/simulink/cFS_FreeRTOS_seL4/cfe/fsw/cfe-core/src/es/cfe_es_start.c ****             }
 1711               	.loc 2 951 0
68K GAS   			page 66


 1712 0edc 4878 0006 	pea 6.w
 1713               	.cfi_def_cfa_offset 32
 1714 0ee0 4EB9 0000 	jsr CFE_PSP_Panic
 1714      0000 
 1715 0ee6 588F      	addq.l #4,%sp
 1716               	.cfi_def_cfa_offset 28
 953:/home/simulink/cFS_FreeRTOS_seL4/cfe/fsw/cfe-core/src/es/cfe_es_start.c **** 
 1717               	.loc 2 953 0
 1718 0ee8 6000 00C2 	jra .L68
 1719               	.L51:
 957:/home/simulink/cFS_FreeRTOS_seL4/cfe/fsw/cfe-core/src/es/cfe_es_start.c ****                {
 1720               	.loc 2 957 0
 1721 0eec 4280      	clr.l %d0
 1722 0eee 302F 0014 	move.w 20(%sp),%d0
 1723 0ef2 7228      	moveq #40,%d1
 1724 0ef4 4C01 0800 	muls.l %d1,%d0
 1725 0ef8 41F9 0000 	lea CFE_ES_ObjectTable+24,%a0
 1725      0000 
 1726 0efe 2030 0800 	move.l (%a0,%d0.l),%d0
 1727 0f02 4A80      	tst.l %d0
 1728 0f04 6700 008E 	jeq .L64
 959:/home/simulink/cFS_FreeRTOS_seL4/cfe/fsw/cfe-core/src/es/cfe_es_start.c ****                   /*
 1729               	.loc 2 959 0
 1730 0f08 4280      	clr.l %d0
 1731 0f0a 302F 0014 	move.w 20(%sp),%d0
 1732 0f0e 7428      	moveq #40,%d2
 1733 0f10 4C02 0800 	muls.l %d2,%d0
 1734 0f14 5880      	addq.l #4,%d0
 1735 0f16 0680 0000 	add.l #CFE_ES_ObjectTable,%d0
 1735      0000 
 1736 0f1c 2F00      	move.l %d0,-(%sp)
 1737               	.cfi_def_cfa_offset 32
 1738 0f1e 4879 0000 	pea .LC45
 1738      0000 
 1739               	.cfi_def_cfa_offset 36
 1740 0f24 4EB9 0000 	jsr CFE_ES_WriteToSysLog
 1740      0000 
 1741 0f2a 508F      	addq.l #8,%sp
 1742               	.cfi_def_cfa_offset 28
 963:/home/simulink/cFS_FreeRTOS_seL4/cfe/fsw/cfe-core/src/es/cfe_es_start.c ****                   if(ReturnCode != CFE_SUCCESS)
 1743               	.loc 2 963 0
 1744 0f2c 4280      	clr.l %d0
 1745 0f2e 302F 0014 	move.w 20(%sp),%d0
 1746 0f32 7628      	moveq #40,%d3
 1747 0f34 4C03 0800 	muls.l %d3,%d0
 1748 0f38 41F9 0000 	lea CFE_ES_ObjectTable+24,%a0
 1748      0000 
 1749 0f3e 2070 0800 	move.l (%a0,%d0.l),%a0
 1750 0f42 4E90      	jsr (%a0)
 1751               	.LVL0:
 1752 0f44 2F40 000C 	move.l %d0,12(%sp)
 964:/home/simulink/cFS_FreeRTOS_seL4/cfe/fsw/cfe-core/src/es/cfe_es_start.c ****                   {
 1753               	.loc 2 964 0
 1754 0f48 4AAF 000C 	tst.l 12(%sp)
 1755 0f4c 6762      	jeq .L69
 966:/home/simulink/cFS_FreeRTOS_seL4/cfe/fsw/cfe-core/src/es/cfe_es_start.c ****                                            CFE_ES_ObjectTable[i].ObjectName, (unsigned int)ReturnCo
 1756               	.loc 2 966 0
68K GAS   			page 67


 1757 0f4e 222F 000C 	move.l 12(%sp),%d1
 967:/home/simulink/cFS_FreeRTOS_seL4/cfe/fsw/cfe-core/src/es/cfe_es_start.c ****                                         
 1758               	.loc 2 967 0
 1759 0f52 4280      	clr.l %d0
 1760 0f54 302F 0014 	move.w 20(%sp),%d0
 1761 0f58 7428      	moveq #40,%d2
 1762 0f5a 4C02 0800 	muls.l %d2,%d0
 1763 0f5e 5880      	addq.l #4,%d0
 1764 0f60 0680 0000 	add.l #CFE_ES_ObjectTable,%d0
 1764      0000 
 966:/home/simulink/cFS_FreeRTOS_seL4/cfe/fsw/cfe-core/src/es/cfe_es_start.c ****                                            CFE_ES_ObjectTable[i].ObjectName, (unsigned int)ReturnCo
 1765               	.loc 2 966 0
 1766 0f66 2F01      	move.l %d1,-(%sp)
 1767               	.cfi_def_cfa_offset 32
 1768 0f68 2F00      	move.l %d0,-(%sp)
 1769               	.cfi_def_cfa_offset 36
 1770 0f6a 4879 0000 	pea .LC46
 1770      0000 
 1771               	.cfi_def_cfa_offset 40
 1772 0f70 4EB9 0000 	jsr CFE_ES_WriteToSysLog
 1772      0000 
 1773 0f76 4FEF 000C 	lea (12,%sp),%sp
 1774               	.cfi_def_cfa_offset 28
 972:/home/simulink/cFS_FreeRTOS_seL4/cfe/fsw/cfe-core/src/es/cfe_es_start.c ****       
 1775               	.loc 2 972 0
 1776 0f7a 4878 01F4 	pea 500.w
 1777               	.cfi_def_cfa_offset 32
 1778 0f7e 4EB9 0000 	jsr OS_TaskDelay
 1778      0000 
 1779 0f84 588F      	addq.l #4,%sp
 1780               	.cfi_def_cfa_offset 28
 977:/home/simulink/cFS_FreeRTOS_seL4/cfe/fsw/cfe-core/src/es/cfe_es_start.c ****                                               
 1781               	.loc 2 977 0
 1782 0f86 4878 0006 	pea 6.w
 1783               	.cfi_def_cfa_offset 32
 1784 0f8a 4EB9 0000 	jsr CFE_PSP_Panic
 1784      0000 
 1785 0f90 588F      	addq.l #4,%sp
 1786               	.cfi_def_cfa_offset 28
 986:/home/simulink/cFS_FreeRTOS_seL4/cfe/fsw/cfe-core/src/es/cfe_es_start.c **** 
 1787               	.loc 2 986 0
 1788 0f92 601C      	jra .L69
 1789               	.L64:
 984:/home/simulink/cFS_FreeRTOS_seL4/cfe/fsw/cfe-core/src/es/cfe_es_start.c ****                }
 1790               	.loc 2 984 0
 1791 0f94 4280      	clr.l %d0
 1792 0f96 302F 0014 	move.w 20(%sp),%d0
 1793 0f9a 2F00      	move.l %d0,-(%sp)
 1794               	.cfi_def_cfa_offset 32
 1795 0f9c 4879 0000 	pea .LC47
 1795      0000 
 1796               	.cfi_def_cfa_offset 36
 1797 0fa2 4EB9 0000 	jsr CFE_ES_WriteToSysLog
 1797      0000 
 1798 0fa8 508F      	addq.l #8,%sp
 1799               	.cfi_def_cfa_offset 28
 986:/home/simulink/cFS_FreeRTOS_seL4/cfe/fsw/cfe-core/src/es/cfe_es_start.c **** 
68K GAS   			page 68


 1800               	.loc 2 986 0
 1801 0faa 6004      	jra .L69
 1802               	.L68:
 953:/home/simulink/cFS_FreeRTOS_seL4/cfe/fsw/cfe-core/src/es/cfe_es_start.c **** 
 1803               	.loc 2 953 0
 1804 0fac 4E71      	nop
 1805 0fae 6002      	jra .L63
 1806               	.L69:
 986:/home/simulink/cFS_FreeRTOS_seL4/cfe/fsw/cfe-core/src/es/cfe_es_start.c **** 
 1807               	.loc 2 986 0
 1808 0fb0 4E71      	nop
 1809               	.L63:
 792:/home/simulink/cFS_FreeRTOS_seL4/cfe/fsw/cfe-core/src/es/cfe_es_start.c ****     {
 1810               	.loc 2 792 0 discriminator 2
 1811 0fb2 302F 0014 	move.w 20(%sp),%d0
 1812 0fb6 5280      	addq.l #1,%d0
 1813 0fb8 3F40 0014 	move.w %d0,20(%sp)
 1814               	.L46:
 792:/home/simulink/cFS_FreeRTOS_seL4/cfe/fsw/cfe-core/src/es/cfe_es_start.c ****     {
 1815               	.loc 2 792 0 is_stmt 0 discriminator 1
 1816 0fbc 4280      	clr.l %d0
 1817 0fbe 302F 0014 	move.w 20(%sp),%d0
 1818 0fc2 761D      	moveq #29,%d3
 1819 0fc4 B680      	cmp.l %d0,%d3
 1820 0fc6 6400 F95C 	jcc .L67
 992:/home/simulink/cFS_FreeRTOS_seL4/cfe/fsw/cfe-core/src/es/cfe_es_start.c ****        } /* end switch */
 993:/home/simulink/cFS_FreeRTOS_seL4/cfe/fsw/cfe-core/src/es/cfe_es_start.c **** 
 994:/home/simulink/cFS_FreeRTOS_seL4/cfe/fsw/cfe-core/src/es/cfe_es_start.c ****     } /* end for */
 995:/home/simulink/cFS_FreeRTOS_seL4/cfe/fsw/cfe-core/src/es/cfe_es_start.c **** 
 996:/home/simulink/cFS_FreeRTOS_seL4/cfe/fsw/cfe-core/src/es/cfe_es_start.c ****     CFE_ES_WriteToSysLog("ES Startup: Finished ES CreateObject table entries.\n");
 1821               	.loc 2 996 0 is_stmt 1
 1822 0fca 4879 0000 	pea .LC48
 1822      0000 
 1823               	.cfi_def_cfa_offset 32
 1824 0fd0 4EB9 0000 	jsr CFE_ES_WriteToSysLog
 1824      0000 
 1825 0fd6 588F      	addq.l #4,%sp
 1826               	.cfi_def_cfa_offset 28
 997:/home/simulink/cFS_FreeRTOS_seL4/cfe/fsw/cfe-core/src/es/cfe_es_start.c **** }
 1827               	.loc 2 997 0
 1828 0fd8 4E71      	nop
 1829 0fda 241F      	move.l (%sp)+,%d2
 1830 0fdc 261F      	move.l (%sp)+,%d3
 1831 0fde 4FEF 0010 	lea (16,%sp),%sp
 1832 0fe2 4E75      	rts
 1833               	.cfi_endproc
 1834               	.LFE62:
 1835               	.sizeCFE_ES_CreateObjects, .-CFE_ES_CreateObjects
 1836               	.align2
 1837               	.globlCFE_ES_ApplicationSyncDelay
 1838               	.typeCFE_ES_ApplicationSyncDelay, @function
 1839               	CFE_ES_ApplicationSyncDelay:
 1840               	.LFB63:
 998:/home/simulink/cFS_FreeRTOS_seL4/cfe/fsw/cfe-core/src/es/cfe_es_start.c **** 
 999:/home/simulink/cFS_FreeRTOS_seL4/cfe/fsw/cfe-core/src/es/cfe_es_start.c **** /*
1000:/home/simulink/cFS_FreeRTOS_seL4/cfe/fsw/cfe-core/src/es/cfe_es_start.c **** ** Function: CFE_ES_ApplicationSyncDelay
1001:/home/simulink/cFS_FreeRTOS_seL4/cfe/fsw/cfe-core/src/es/cfe_es_start.c **** **
68K GAS   			page 69


1002:/home/simulink/cFS_FreeRTOS_seL4/cfe/fsw/cfe-core/src/es/cfe_es_start.c **** ** Purpose:  Waits for all of the applications that CFE has started thus far to
1003:/home/simulink/cFS_FreeRTOS_seL4/cfe/fsw/cfe-core/src/es/cfe_es_start.c **** **           reach the "running" state, i.e. call CFE_ES_RunLoop or CFE_ES_WaitForStartupSync
1004:/home/simulink/cFS_FreeRTOS_seL4/cfe/fsw/cfe-core/src/es/cfe_es_start.c **** **
1005:/home/simulink/cFS_FreeRTOS_seL4/cfe/fsw/cfe-core/src/es/cfe_es_start.c **** **           It will also wait for the overall system state to be (at least) reach
1006:/home/simulink/cFS_FreeRTOS_seL4/cfe/fsw/cfe-core/src/es/cfe_es_start.c **** **           the desired state.  This may be "CFE_ES_SYSTEM_STATE_UNDEFINED" to match any.
1007:/home/simulink/cFS_FreeRTOS_seL4/cfe/fsw/cfe-core/src/es/cfe_es_start.c **** **
1008:/home/simulink/cFS_FreeRTOS_seL4/cfe/fsw/cfe-core/src/es/cfe_es_start.c **** */
1009:/home/simulink/cFS_FreeRTOS_seL4/cfe/fsw/cfe-core/src/es/cfe_es_start.c **** int32 CFE_ES_ApplicationSyncDelay(uint32 MinimumSystemState, uint32 TimeOutMilliseconds)
1010:/home/simulink/cFS_FreeRTOS_seL4/cfe/fsw/cfe-core/src/es/cfe_es_start.c **** {
 1841               	.loc 2 1010 0
 1842               	.cfi_startproc
 1843 0fe4 4FEF FFF4 	lea (-12,%sp),%sp
 1844               	.cfi_def_cfa_offset 16
1011:/home/simulink/cFS_FreeRTOS_seL4/cfe/fsw/cfe-core/src/es/cfe_es_start.c ****     int32 Status;
1012:/home/simulink/cFS_FreeRTOS_seL4/cfe/fsw/cfe-core/src/es/cfe_es_start.c ****     uint32 WaitTime;
1013:/home/simulink/cFS_FreeRTOS_seL4/cfe/fsw/cfe-core/src/es/cfe_es_start.c ****     uint32 WaitRemaining;
1014:/home/simulink/cFS_FreeRTOS_seL4/cfe/fsw/cfe-core/src/es/cfe_es_start.c **** 
1015:/home/simulink/cFS_FreeRTOS_seL4/cfe/fsw/cfe-core/src/es/cfe_es_start.c ****     Status = CFE_SUCCESS;
 1845               	.loc 2 1015 0
 1846 0fe8 42AF 0008 	clr.l 8(%sp)
1016:/home/simulink/cFS_FreeRTOS_seL4/cfe/fsw/cfe-core/src/es/cfe_es_start.c ****     WaitRemaining = TimeOutMilliseconds;
 1847               	.loc 2 1016 0
 1848 0fec 2EAF 0014 	move.l 20(%sp),(%sp)
1017:/home/simulink/cFS_FreeRTOS_seL4/cfe/fsw/cfe-core/src/es/cfe_es_start.c ****     while (CFE_ES_Global.SystemState < MinimumSystemState ||
 1849               	.loc 2 1017 0
 1850 0ff0 6036      	jra .L71
 1851               	.L76:
1018:/home/simulink/cFS_FreeRTOS_seL4/cfe/fsw/cfe-core/src/es/cfe_es_start.c ****             (CFE_ES_Global.AppReadyCount != CFE_ES_Global.AppStartedCount &&
1019:/home/simulink/cFS_FreeRTOS_seL4/cfe/fsw/cfe-core/src/es/cfe_es_start.c ****                     CFE_ES_SYSTEM_STATE_UNDEFINED == MinimumSystemState))
1020:/home/simulink/cFS_FreeRTOS_seL4/cfe/fsw/cfe-core/src/es/cfe_es_start.c ****     {
1021:/home/simulink/cFS_FreeRTOS_seL4/cfe/fsw/cfe-core/src/es/cfe_es_start.c ****         /* TBD: Very Crude timing here, but not sure if it matters,
1022:/home/simulink/cFS_FreeRTOS_seL4/cfe/fsw/cfe-core/src/es/cfe_es_start.c ****          * as this is only done during startup, not real work */
1023:/home/simulink/cFS_FreeRTOS_seL4/cfe/fsw/cfe-core/src/es/cfe_es_start.c ****         if (WaitRemaining > CFE_ES_STARTUP_SYNC_POLL_MSEC)
 1852               	.loc 2 1023 0
 1853 0ff2 7032      	moveq #50,%d0
 1854 0ff4 B097      	cmp.l (%sp),%d0
 1855 0ff6 6408      	jcc .L72
1024:/home/simulink/cFS_FreeRTOS_seL4/cfe/fsw/cfe-core/src/es/cfe_es_start.c ****         {
1025:/home/simulink/cFS_FreeRTOS_seL4/cfe/fsw/cfe-core/src/es/cfe_es_start.c ****             WaitTime = CFE_ES_STARTUP_SYNC_POLL_MSEC;
 1856               	.loc 2 1025 0
 1857 0ff8 7032      	moveq #50,%d0
 1858 0ffa 2F40 0004 	move.l %d0,4(%sp)
 1859 0ffe 6016      	jra .L73
 1860               	.L72:
1026:/home/simulink/cFS_FreeRTOS_seL4/cfe/fsw/cfe-core/src/es/cfe_es_start.c ****         }
1027:/home/simulink/cFS_FreeRTOS_seL4/cfe/fsw/cfe-core/src/es/cfe_es_start.c ****         else if (WaitRemaining > 0)
 1861               	.loc 2 1027 0
 1862 1000 4A97      	tst.l (%sp)
 1863 1002 6706      	jeq .L74
1028:/home/simulink/cFS_FreeRTOS_seL4/cfe/fsw/cfe-core/src/es/cfe_es_start.c ****         {
1029:/home/simulink/cFS_FreeRTOS_seL4/cfe/fsw/cfe-core/src/es/cfe_es_start.c ****             WaitTime = WaitRemaining;
 1864               	.loc 2 1029 0
 1865 1004 2F57 0004 	move.l (%sp),4(%sp)
 1866 1008 600C      	jra .L73
 1867               	.L74:
1030:/home/simulink/cFS_FreeRTOS_seL4/cfe/fsw/cfe-core/src/es/cfe_es_start.c ****         }
1031:/home/simulink/cFS_FreeRTOS_seL4/cfe/fsw/cfe-core/src/es/cfe_es_start.c ****         else
68K GAS   			page 70


1032:/home/simulink/cFS_FreeRTOS_seL4/cfe/fsw/cfe-core/src/es/cfe_es_start.c ****         {
1033:/home/simulink/cFS_FreeRTOS_seL4/cfe/fsw/cfe-core/src/es/cfe_es_start.c ****             Status = CFE_ES_OPERATION_TIMED_OUT;
 1868               	.loc 2 1033 0
 1869 100a 203C C400 	move.l #-1006632921,%d0
 1869      0027 
 1870 1010 2F40 0008 	move.l %d0,8(%sp)
1034:/home/simulink/cFS_FreeRTOS_seL4/cfe/fsw/cfe-core/src/es/cfe_es_start.c ****             break;
 1871               	.loc 2 1034 0
 1872 1014 6034      	jra .L75
 1873               	.L73:
1035:/home/simulink/cFS_FreeRTOS_seL4/cfe/fsw/cfe-core/src/es/cfe_es_start.c ****         }
1036:/home/simulink/cFS_FreeRTOS_seL4/cfe/fsw/cfe-core/src/es/cfe_es_start.c **** 
1037:/home/simulink/cFS_FreeRTOS_seL4/cfe/fsw/cfe-core/src/es/cfe_es_start.c ****         OS_TaskDelay(WaitTime);
 1874               	.loc 2 1037 0
 1875 1016 2F2F 0004 	move.l 4(%sp),-(%sp)
 1876               	.cfi_def_cfa_offset 20
 1877 101a 4EB9 0000 	jsr OS_TaskDelay
 1877      0000 
 1878 1020 588F      	addq.l #4,%sp
 1879               	.cfi_def_cfa_offset 16
1038:/home/simulink/cFS_FreeRTOS_seL4/cfe/fsw/cfe-core/src/es/cfe_es_start.c ****         WaitRemaining -= WaitTime;
 1880               	.loc 2 1038 0
 1881 1022 202F 0004 	move.l 4(%sp),%d0
 1882 1026 9197      	sub.l %d0,(%sp)
 1883               	.L71:
1017:/home/simulink/cFS_FreeRTOS_seL4/cfe/fsw/cfe-core/src/es/cfe_es_start.c ****             (CFE_ES_Global.AppReadyCount != CFE_ES_Global.AppStartedCount &&
 1884               	.loc 2 1017 0
 1885 1028 2039 0000 	move.l CFE_ES_Global+28,%d0
 1885      0000 
 1886 102e B0AF 0010 	cmp.l 16(%sp),%d0
 1887 1032 65BE      	jcs .L76
1018:/home/simulink/cFS_FreeRTOS_seL4/cfe/fsw/cfe-core/src/es/cfe_es_start.c ****                     CFE_ES_SYSTEM_STATE_UNDEFINED == MinimumSystemState))
 1888               	.loc 2 1018 0 discriminator 1
 1889 1034 2239 0000 	move.l CFE_ES_Global+24,%d1
 1889      0000 
 1890 103a 2039 0000 	move.l CFE_ES_Global+20,%d0
 1890      0000 
1017:/home/simulink/cFS_FreeRTOS_seL4/cfe/fsw/cfe-core/src/es/cfe_es_start.c ****             (CFE_ES_Global.AppReadyCount != CFE_ES_Global.AppStartedCount &&
 1891               	.loc 2 1017 0 discriminator 1
 1892 1040 B081      	cmp.l %d1,%d0
 1893 1042 6706      	jeq .L75
1018:/home/simulink/cFS_FreeRTOS_seL4/cfe/fsw/cfe-core/src/es/cfe_es_start.c ****                     CFE_ES_SYSTEM_STATE_UNDEFINED == MinimumSystemState))
 1894               	.loc 2 1018 0
 1895 1044 4AAF 0010 	tst.l 16(%sp)
 1896 1048 67A8      	jeq .L76
 1897               	.L75:
1039:/home/simulink/cFS_FreeRTOS_seL4/cfe/fsw/cfe-core/src/es/cfe_es_start.c ****     }
1040:/home/simulink/cFS_FreeRTOS_seL4/cfe/fsw/cfe-core/src/es/cfe_es_start.c **** 
1041:/home/simulink/cFS_FreeRTOS_seL4/cfe/fsw/cfe-core/src/es/cfe_es_start.c ****     return Status;
 1898               	.loc 2 1041 0
 1899 104a 202F 0008 	move.l 8(%sp),%d0
1042:/home/simulink/cFS_FreeRTOS_seL4/cfe/fsw/cfe-core/src/es/cfe_es_start.c **** }
 1900               	.loc 2 1042 0
 1901 104e 4FEF 000C 	lea (12,%sp),%sp
 1902 1052 4E75      	rts
 1903               	.cfi_endproc
 1904               	.LFE63:
68K GAS   			page 71


 1905               	.sizeCFE_ES_ApplicationSyncDelay, .-CFE_ES_ApplicationSyncDelay
 1906               	.section.rodata
 1907               	.type__func__.5835, @object
 1908               	.size__func__.5835, 21
 1909               	__func__.5835:
 1910 0a0f 4346 455F 	.string"CFE_ES_CreateObjects"
 1910      4553 5F43 
 1910      7265 6174 
 1910      654F 626A 
 1910      6563 7473 
 1911               	.text
 1912               	.Letext0:
 1913               	.file 3 "/home/simulink/cFS_FreeRTOS_seL4/osal/src/os/inc/common_types.h"
 1914               	.file 4 "/home/simulink/development/rtems/5/m68k-rtems5/include/machine/_default_types.h"
 1915               	.file 5 "/home/simulink/development/rtems/5/m68k-rtems5/include/machine/_types.h"
 1916               	.file 6 "/home/simulink/development/rtems/5/m68k-rtems5/include/sys/lock.h"
 1917               	.file 7 "/home/simulink/development/rtems/5/m68k-rtems5/include/sys/_types.h"
 1918               	.file 8 "/home/simulink/development/rtems/5/lib/gcc/m68k-rtems5/7.3.0/include/stddef.h"
 1919               	.file 9 "/home/simulink/development/rtems/5/m68k-rtems5/include/sys/reent.h"
 1920               	.file 10 "/home/simulink/development/rtems/5/m68k-rtems5/include/stdlib.h"
 1921               	.file 11 "/home/simulink/development/rtems/5/m68k-rtems5/include/time.h"
 1922               	.file 12 "/home/simulink/cFS_FreeRTOS_seL4/cfe/fsw/cfe-core/src/inc/cfe_time.h"
 1923               	.file 13 "/home/simulink/cFS_FreeRTOS_seL4/cfe/fsw/cfe-core/src/inc/cfe_sb.h"
 1924               	.file 14 "/home/simulink/cFS_FreeRTOS_seL4/cfe/fsw/cfe-core/src/inc/cfe_evs_msg.h"
 1925               	.file 15 "/home/simulink/cFS_FreeRTOS_seL4/cfe/fsw/cfe-core/src/inc/private/cfe_es_erlog_typedef.h"
 1926               	.file 16 "/home/simulink/cFS_FreeRTOS_seL4/cfe/fsw/cfe-core/src/inc/private/cfe_es_perfdata_typedef.h"
 1927               	.file 17 "/home/simulink/cFS_FreeRTOS_seL4/cfe/fsw/cfe-core/src/inc/private/cfe_evs_log_typedef.h"
 1928               	.file 18 "/home/simulink/cFS_FreeRTOS_seL4/cfe/fsw/cfe-core/src/inc/private/cfe_es_resetdata_typedef.h"
 1929               	.file 19 "/home/simulink/cFS_FreeRTOS_seL4/cfe/fsw/cfe-core/src/es/cfe_es_apps.h"
 1930               	.file 20 "/home/simulink/cFS_FreeRTOS_seL4/cfe/fsw/cfe-core/src/es/cfe_es_cds_mempool.h"
 1931               	.file 21 "/home/simulink/cFS_FreeRTOS_seL4/cfe/fsw/cfe-core/src/es/cfe_es_cds.h"
 1932               	.file 22 "/home/simulink/cFS_FreeRTOS_seL4/cfe/fsw/cfe-core/src/es/cfe_es_perf.h"
 1933               	.file 23 "/home/simulink/cFS_FreeRTOS_seL4/cfe/fsw/cfe-core/src/es/cfe_es_global.h"
 1934               	.file 24 "/home/simulink/cFS_FreeRTOS_seL4/cfe/fsw/cfe-core/src/es/cfe_es_start.h"
 1935               	.section.debug_info,"",@progbits
 1936               	.Ldebug_info0:
 1937 0000 0000 1880 	.long0x1880
 1938 0004 0004      	.word0x4
 1939 0006 0000 0000 	.long.Ldebug_abbrev0
 1940 000a 04        	.byte0x4
 1941 000b 01        	.uleb128 0x1
 1942 000c 0000 0000 	.long.LASF366
 1943 0010 0C        	.byte0xc
 1944 0011 0000 0000 	.long.LASF367
 1945 0015 0000 0000 	.long.LASF368
 1946 0019 0000 0000 	.long.Ltext0
 1947 001d 0000 1054 	.long.Letext0-.Ltext0
 1948 0021 0000 0000 	.long.Ldebug_line0
 1949 0025 02        	.uleb128 0x2
 1950 0026 0000 0000 	.long.LASF2
 1951 002a 03        	.byte0x3
 1952 002b E6        	.byte0xe6
 1953 002c 0000 0030 	.long0x30
 1954 0030 03        	.uleb128 0x3
 1955 0031 01        	.byte0x1
 1956 0032 08        	.byte0x8
 1957 0033 0000 0000 	.long.LASF0
68K GAS   			page 72


 1958 0037 03        	.uleb128 0x3
 1959 0038 01        	.byte0x1
 1960 0039 06        	.byte0x6
 1961 003a 0000 0000 	.long.LASF1
 1962 003e 02        	.uleb128 0x2
 1963 003f 0000 0000 	.long.LASF3
 1964 0043 03        	.byte0x3
 1965 0044 E8        	.byte0xe8
 1966 0045 0000 0049 	.long0x49
 1967 0049 03        	.uleb128 0x3
 1968 004a 02        	.byte0x2
 1969 004b 05        	.byte0x5
 1970 004c 0000 0000 	.long.LASF4
 1971 0050 02        	.uleb128 0x2
 1972 0051 0000 0000 	.long.LASF5
 1973 0055 03        	.byte0x3
 1974 0056 E9        	.byte0xe9
 1975 0057 0000 005B 	.long0x5b
 1976 005b 03        	.uleb128 0x3
 1977 005c 04        	.byte0x4
 1978 005d 05        	.byte0x5
 1979 005e 0000 0000 	.long.LASF6
 1980 0062 03        	.uleb128 0x3
 1981 0063 08        	.byte0x8
 1982 0064 05        	.byte0x5
 1983 0065 0000 0000 	.long.LASF7
 1984 0069 02        	.uleb128 0x2
 1985 006a 0000 0000 	.long.LASF8
 1986 006e 03        	.byte0x3
 1987 006f EB        	.byte0xeb
 1988 0070 0000 0030 	.long0x30
 1989 0074 02        	.uleb128 0x2
 1990 0075 0000 0000 	.long.LASF9
 1991 0079 03        	.byte0x3
 1992 007a EC        	.byte0xec
 1993 007b 0000 007F 	.long0x7f
 1994 007f 03        	.uleb128 0x3
 1995 0080 02        	.byte0x2
 1996 0081 07        	.byte0x7
 1997 0082 0000 0000 	.long.LASF10
 1998 0086 02        	.uleb128 0x2
 1999 0087 0000 0000 	.long.LASF11
 2000 008b 03        	.byte0x3
 2001 008c ED        	.byte0xed
 2002 008d 0000 0091 	.long0x91
 2003 0091 03        	.uleb128 0x3
 2004 0092 04        	.byte0x4
 2005 0093 07        	.byte0x7
 2006 0094 0000 0000 	.long.LASF12
 2007 0098 03        	.uleb128 0x3
 2008 0099 08        	.byte0x8
 2009 009a 07        	.byte0x7
 2010 009b 0000 0000 	.long.LASF13
 2011 009f 02        	.uleb128 0x2
 2012 00a0 0000 0000 	.long.LASF14
 2013 00a4 03        	.byte0x3
 2014 00a5 F0        	.byte0xf0
68K GAS   			page 73


 2015 00a6 0000 0091 	.long0x91
 2016 00aa 04        	.uleb128 0x4
 2017 00ab 0000 0000 	.long.LASF15
 2018 00af 03        	.byte0x3
 2019 00b0 0131      	.word0x131
 2020 00b2 0000 0025 	.long0x25
 2021 00b6 03        	.uleb128 0x3
 2022 00b7 01        	.byte0x1
 2023 00b8 06        	.byte0x6
 2024 00b9 0000 0000 	.long.LASF16
 2025 00bd 05        	.uleb128 0x5
 2026 00be 0000 00B6 	.long0xb6
 2027 00c2 06        	.uleb128 0x6
 2028 00c3 0000 00B6 	.long0xb6
 2029 00c7 0000 00D2 	.long0xd2
 2030 00cb 07        	.uleb128 0x7
 2031 00cc 0000 0091 	.long0x91
 2032 00d0 13        	.byte0x13
 2033 00d1 00        	.byte0
 2034 00d2 08        	.uleb128 0x8
 2035 00d3 04        	.byte0x4
 2036 00d4 02        	.uleb128 0x2
 2037 00d5 0000 0000 	.long.LASF17
 2038 00d9 04        	.byte0x4
 2039 00da 67        	.byte0x67
 2040 00db 0000 0062 	.long0x62
 2041 00df 03        	.uleb128 0x3
 2042 00e0 08        	.byte0x8
 2043 00e1 04        	.byte0x4
 2044 00e2 0000 0000 	.long.LASF18
 2045 00e6 02        	.uleb128 0x2
 2046 00e7 0000 0000 	.long.LASF19
 2047 00eb 05        	.byte0x5
 2048 00ec 10        	.byte0x10
 2049 00ed 0000 00D4 	.long0xd4
 2050 00f1 02        	.uleb128 0x2
 2051 00f2 0000 0000 	.long.LASF20
 2052 00f6 05        	.byte0x5
 2053 00f7 16        	.byte0x16
 2054 00f8 0000 00E6 	.long0xe6
 2055 00fc 09        	.uleb128 0x9
 2056 00fd 04        	.byte0x4
 2057 00fe 05        	.byte0x5
 2058 00ff 696E 7400 	.string"int"
 2059 0103 0A        	.uleb128 0xa
 2060 0104 0000 0000 	.long.LASF24
 2061 0108 08        	.byte0x8
 2062 0109 06        	.byte0x6
 2063 010a 28        	.byte0x28
 2064 010b 0000 0128 	.long0x128
 2065 010f 0B        	.uleb128 0xb
 2066 0110 0000 0000 	.long.LASF21
 2067 0114 06        	.byte0x6
 2068 0115 29        	.byte0x29
 2069 0116 0000 0128 	.long0x128
 2070 011a 00        	.byte0
 2071 011b 0B        	.uleb128 0xb
68K GAS   			page 74


 2072 011c 0000 0000 	.long.LASF22
 2073 0120 06        	.byte0x6
 2074 0121 2A        	.byte0x2a
 2075 0122 0000 0128 	.long0x128
 2076 0126 04        	.byte0x4
 2077 0127 00        	.byte0
 2078 0128 03        	.uleb128 0x3
 2079 0129 04        	.byte0x4
 2080 012a 07        	.byte0x7
 2081 012b 0000 0000 	.long.LASF23
 2082 012f 0A        	.uleb128 0xa
 2083 0130 0000 0000 	.long.LASF25
 2084 0134 14        	.byte0x14
 2085 0135 06        	.byte0x6
 2086 0136 2D        	.byte0x2d
 2087 0137 0000 016C 	.long0x16c
 2088 013b 0B        	.uleb128 0xb
 2089 013c 0000 0000 	.long.LASF26
 2090 0140 06        	.byte0x6
 2091 0141 2E        	.byte0x2e
 2092 0142 0000 0103 	.long0x103
 2093 0146 00        	.byte0
 2094 0147 0B        	.uleb128 0xb
 2095 0148 0000 0000 	.long.LASF27
 2096 014c 06        	.byte0x6
 2097 014d 2F        	.byte0x2f
 2098 014e 0000 0171 	.long0x171
 2099 0152 08        	.byte0x8
 2100 0153 0B        	.uleb128 0xb
 2101 0154 0000 0000 	.long.LASF28
 2102 0158 06        	.byte0x6
 2103 0159 30        	.byte0x30
 2104 015a 0000 017C 	.long0x17c
 2105 015e 0C        	.byte0xc
 2106 015f 0B        	.uleb128 0xb
 2107 0160 0000 0000 	.long.LASF29
 2108 0164 06        	.byte0x6
 2109 0165 31        	.byte0x31
 2110 0166 0000 0182 	.long0x182
 2111 016a 10        	.byte0x10
 2112 016b 00        	.byte0
 2113 016c 0C        	.uleb128 0xc
 2114 016d 0000 0000 	.long.LASF30
 2115 0171 0D        	.uleb128 0xd
 2116 0172 04        	.byte0x4
 2117 0173 0000 016C 	.long0x16c
 2118 0177 0C        	.uleb128 0xc
 2119 0178 0000 0000 	.long.LASF31
 2120 017c 0D        	.uleb128 0xd
 2121 017d 04        	.byte0x4
 2122 017e 0000 0177 	.long0x177
 2123 0182 0D        	.uleb128 0xd
 2124 0183 04        	.byte0x4
 2125 0184 0000 00BD 	.long0xbd
 2126 0188 0A        	.uleb128 0xa
 2127 0189 0000 0000 	.long.LASF32
 2128 018d 14        	.byte0x14
68K GAS   			page 75


 2129 018e 06        	.byte0x6
 2130 018f 34        	.byte0x34
 2131 0190 0000 01A1 	.long0x1a1
 2132 0194 0B        	.uleb128 0xb
 2133 0195 0000 0000 	.long.LASF33
 2134 0199 06        	.byte0x6
 2135 019a 35        	.byte0x35
 2136 019b 0000 012F 	.long0x12f
 2137 019f 00        	.byte0
 2138 01a0 00        	.byte0
 2139 01a1 0A        	.uleb128 0xa
 2140 01a2 0000 0000 	.long.LASF34
 2141 01a6 18        	.byte0x18
 2142 01a7 06        	.byte0x6
 2143 01a8 38        	.byte0x38
 2144 01a9 0000 01C6 	.long0x1c6
 2145 01ad 0B        	.uleb128 0xb
 2146 01ae 0000 0000 	.long.LASF35
 2147 01b2 06        	.byte0x6
 2148 01b3 39        	.byte0x39
 2149 01b4 0000 0188 	.long0x188
 2150 01b8 00        	.byte0
 2151 01b9 0B        	.uleb128 0xb
 2152 01ba 0000 0000 	.long.LASF36
 2153 01be 06        	.byte0x6
 2154 01bf 3A        	.byte0x3a
 2155 01c0 0000 0128 	.long0x128
 2156 01c4 14        	.byte0x14
 2157 01c5 00        	.byte0
 2158 01c6 04        	.uleb128 0x4
 2159 01c7 0000 0000 	.long.LASF37
 2160 01cb 06        	.byte0x6
 2161 01cc 0171      	.word0x171
 2162 01ce 0000 01A1 	.long0x1a1
 2163 01d2 02        	.uleb128 0x2
 2164 01d3 0000 0000 	.long.LASF38
 2165 01d7 07        	.byte0x7
 2166 01d8 91        	.byte0x91
 2167 01d9 0000 005B 	.long0x5b
 2168 01dd 04        	.uleb128 0x4
 2169 01de 0000 0000 	.long.LASF39
 2170 01e2 08        	.byte0x8
 2171 01e3 0165      	.word0x165
 2172 01e5 0000 0128 	.long0x128
 2173 01e9 0E        	.uleb128 0xe
 2174 01ea 04        	.byte0x4
 2175 01eb 07        	.byte0x7
 2176 01ec A6        	.byte0xa6
 2177 01ed 0000 0208 	.long0x208
 2178 01f1 0F        	.uleb128 0xf
 2179 01f2 0000 0000 	.long.LASF40
 2180 01f6 07        	.byte0x7
 2181 01f7 A8        	.byte0xa8
 2182 01f8 0000 01DD 	.long0x1dd
 2183 01fc 0F        	.uleb128 0xf
 2184 01fd 0000 0000 	.long.LASF41
 2185 0201 07        	.byte0x7
68K GAS   			page 76


 2186 0202 A9        	.byte0xa9
 2187 0203 0000 0208 	.long0x208
 2188 0207 00        	.byte0
 2189 0208 06        	.uleb128 0x6
 2190 0209 0000 0030 	.long0x30
 2191 020d 0000 0218 	.long0x218
 2192 0211 07        	.uleb128 0x7
 2193 0212 0000 0091 	.long0x91
 2194 0216 03        	.byte0x3
 2195 0217 00        	.byte0
 2196 0218 10        	.uleb128 0x10
 2197 0219 08        	.byte0x8
 2198 021a 07        	.byte0x7
 2199 021b A3        	.byte0xa3
 2200 021c 0000 0239 	.long0x239
 2201 0220 0B        	.uleb128 0xb
 2202 0221 0000 0000 	.long.LASF42
 2203 0225 07        	.byte0x7
 2204 0226 A5        	.byte0xa5
 2205 0227 0000 00FC 	.long0xfc
 2206 022b 00        	.byte0
 2207 022c 0B        	.uleb128 0xb
 2208 022d 0000 0000 	.long.LASF43
 2209 0231 07        	.byte0x7
 2210 0232 AA        	.byte0xaa
 2211 0233 0000 01E9 	.long0x1e9
 2212 0237 04        	.byte0x4
 2213 0238 00        	.byte0
 2214 0239 02        	.uleb128 0x2
 2215 023a 0000 0000 	.long.LASF44
 2216 023e 07        	.byte0x7
 2217 023f AB        	.byte0xab
 2218 0240 0000 0218 	.long0x218
 2219 0244 02        	.uleb128 0x2
 2220 0245 0000 0000 	.long.LASF45
 2221 0249 07        	.byte0x7
 2222 024a AF        	.byte0xaf
 2223 024b 0000 01C6 	.long0x1c6
 2224 024f 02        	.uleb128 0x2
 2225 0250 0000 0000 	.long.LASF46
 2226 0254 09        	.byte0x9
 2227 0255 16        	.byte0x16
 2228 0256 0000 0091 	.long0x91
 2229 025a 0A        	.uleb128 0xa
 2230 025b 0000 0000 	.long.LASF47
 2231 025f 18        	.byte0x18
 2232 0260 09        	.byte0x9
 2233 0261 2F        	.byte0x2f
 2234 0262 0000 02AD 	.long0x2ad
 2235 0266 0B        	.uleb128 0xb
 2236 0267 0000 0000 	.long.LASF48
 2237 026b 09        	.byte0x9
 2238 026c 31        	.byte0x31
 2239 026d 0000 02AD 	.long0x2ad
 2240 0271 00        	.byte0
 2241 0272 11        	.uleb128 0x11
 2242 0273 5F6B 00   	.string"_k"
68K GAS   			page 77


 2243 0276 09        	.byte0x9
 2244 0277 32        	.byte0x32
 2245 0278 0000 00FC 	.long0xfc
 2246 027c 04        	.byte0x4
 2247 027d 0B        	.uleb128 0xb
 2248 027e 0000 0000 	.long.LASF49
 2249 0282 09        	.byte0x9
 2250 0283 32        	.byte0x32
 2251 0284 0000 00FC 	.long0xfc
 2252 0288 08        	.byte0x8
 2253 0289 0B        	.uleb128 0xb
 2254 028a 0000 0000 	.long.LASF50
 2255 028e 09        	.byte0x9
 2256 028f 32        	.byte0x32
 2257 0290 0000 00FC 	.long0xfc
 2258 0294 0C        	.byte0xc
 2259 0295 0B        	.uleb128 0xb
 2260 0296 0000 0000 	.long.LASF51
 2261 029a 09        	.byte0x9
 2262 029b 32        	.byte0x32
 2263 029c 0000 00FC 	.long0xfc
 2264 02a0 10        	.byte0x10
 2265 02a1 11        	.uleb128 0x11
 2266 02a2 5F78 00   	.string"_x"
 2267 02a5 09        	.byte0x9
 2268 02a6 33        	.byte0x33
 2269 02a7 0000 02B3 	.long0x2b3
 2270 02ab 14        	.byte0x14
 2271 02ac 00        	.byte0
 2272 02ad 0D        	.uleb128 0xd
 2273 02ae 04        	.byte0x4
 2274 02af 0000 025A 	.long0x25a
 2275 02b3 06        	.uleb128 0x6
 2276 02b4 0000 024F 	.long0x24f
 2277 02b8 0000 02C3 	.long0x2c3
 2278 02bc 07        	.uleb128 0x7
 2279 02bd 0000 0091 	.long0x91
 2280 02c1 00        	.byte0
 2281 02c2 00        	.byte0
 2282 02c3 0A        	.uleb128 0xa
 2283 02c4 0000 0000 	.long.LASF52
 2284 02c8 24        	.byte0x24
 2285 02c9 09        	.byte0x9
 2286 02ca 37        	.byte0x37
 2287 02cb 0000 033C 	.long0x33c
 2288 02cf 0B        	.uleb128 0xb
 2289 02d0 0000 0000 	.long.LASF53
 2290 02d4 09        	.byte0x9
 2291 02d5 39        	.byte0x39
 2292 02d6 0000 00FC 	.long0xfc
 2293 02da 00        	.byte0
 2294 02db 0B        	.uleb128 0xb
 2295 02dc 0000 0000 	.long.LASF54
 2296 02e0 09        	.byte0x9
 2297 02e1 3A        	.byte0x3a
 2298 02e2 0000 00FC 	.long0xfc
 2299 02e6 04        	.byte0x4
68K GAS   			page 78


 2300 02e7 0B        	.uleb128 0xb
 2301 02e8 0000 0000 	.long.LASF55
 2302 02ec 09        	.byte0x9
 2303 02ed 3B        	.byte0x3b
 2304 02ee 0000 00FC 	.long0xfc
 2305 02f2 08        	.byte0x8
 2306 02f3 0B        	.uleb128 0xb
 2307 02f4 0000 0000 	.long.LASF56
 2308 02f8 09        	.byte0x9
 2309 02f9 3C        	.byte0x3c
 2310 02fa 0000 00FC 	.long0xfc
 2311 02fe 0C        	.byte0xc
 2312 02ff 0B        	.uleb128 0xb
 2313 0300 0000 0000 	.long.LASF57
 2314 0304 09        	.byte0x9
 2315 0305 3D        	.byte0x3d
 2316 0306 0000 00FC 	.long0xfc
 2317 030a 10        	.byte0x10
 2318 030b 0B        	.uleb128 0xb
 2319 030c 0000 0000 	.long.LASF58
 2320 0310 09        	.byte0x9
 2321 0311 3E        	.byte0x3e
 2322 0312 0000 00FC 	.long0xfc
 2323 0316 14        	.byte0x14
 2324 0317 0B        	.uleb128 0xb
 2325 0318 0000 0000 	.long.LASF59
 2326 031c 09        	.byte0x9
 2327 031d 3F        	.byte0x3f
 2328 031e 0000 00FC 	.long0xfc
 2329 0322 18        	.byte0x18
 2330 0323 0B        	.uleb128 0xb
 2331 0324 0000 0000 	.long.LASF60
 2332 0328 09        	.byte0x9
 2333 0329 40        	.byte0x40
 2334 032a 0000 00FC 	.long0xfc
 2335 032e 1C        	.byte0x1c
 2336 032f 0B        	.uleb128 0xb
 2337 0330 0000 0000 	.long.LASF61
 2338 0334 09        	.byte0x9
 2339 0335 41        	.byte0x41
 2340 0336 0000 00FC 	.long0xfc
 2341 033a 20        	.byte0x20
 2342 033b 00        	.byte0
 2343 033c 12        	.uleb128 0x12
 2344 033d 0000 0000 	.long.LASF62
 2345 0341 0108      	.word0x108
 2346 0343 09        	.byte0x9
 2347 0344 4A        	.byte0x4a
 2348 0345 0000 037C 	.long0x37c
 2349 0349 0B        	.uleb128 0xb
 2350 034a 0000 0000 	.long.LASF63
 2351 034e 09        	.byte0x9
 2352 034f 4B        	.byte0x4b
 2353 0350 0000 037C 	.long0x37c
 2354 0354 00        	.byte0
 2355 0355 0B        	.uleb128 0xb
 2356 0356 0000 0000 	.long.LASF64
68K GAS   			page 79


 2357 035a 09        	.byte0x9
 2358 035b 4C        	.byte0x4c
 2359 035c 0000 037C 	.long0x37c
 2360 0360 80        	.byte0x80
 2361 0361 13        	.uleb128 0x13
 2362 0362 0000 0000 	.long.LASF65
 2363 0366 09        	.byte0x9
 2364 0367 4E        	.byte0x4e
 2365 0368 0000 024F 	.long0x24f
 2366 036c 0100      	.word0x100
 2367 036e 13        	.uleb128 0x13
 2368 036f 0000 0000 	.long.LASF66
 2369 0373 09        	.byte0x9
 2370 0374 51        	.byte0x51
 2371 0375 0000 024F 	.long0x24f
 2372 0379 0104      	.word0x104
 2373 037b 00        	.byte0
 2374 037c 06        	.uleb128 0x6
 2375 037d 0000 00D2 	.long0xd2
 2376 0381 0000 038C 	.long0x38c
 2377 0385 07        	.uleb128 0x7
 2378 0386 0000 0091 	.long0x91
 2379 038a 1F        	.byte0x1f
 2380 038b 00        	.byte0
 2381 038c 12        	.uleb128 0x12
 2382 038d 0000 0000 	.long.LASF67
 2383 0391 0190      	.word0x190
 2384 0393 09        	.byte0x9
 2385 0394 5D        	.byte0x5d
 2386 0395 0000 03CA 	.long0x3ca
 2387 0399 0B        	.uleb128 0xb
 2388 039a 0000 0000 	.long.LASF48
 2389 039e 09        	.byte0x9
 2390 039f 5E        	.byte0x5e
 2391 03a0 0000 03CA 	.long0x3ca
 2392 03a4 00        	.byte0
 2393 03a5 0B        	.uleb128 0xb
 2394 03a6 0000 0000 	.long.LASF68
 2395 03aa 09        	.byte0x9
 2396 03ab 5F        	.byte0x5f
 2397 03ac 0000 00FC 	.long0xfc
 2398 03b0 04        	.byte0x4
 2399 03b1 0B        	.uleb128 0xb
 2400 03b2 0000 0000 	.long.LASF69
 2401 03b6 09        	.byte0x9
 2402 03b7 61        	.byte0x61
 2403 03b8 0000 03D0 	.long0x3d0
 2404 03bc 08        	.byte0x8
 2405 03bd 0B        	.uleb128 0xb
 2406 03be 0000 0000 	.long.LASF62
 2407 03c2 09        	.byte0x9
 2408 03c3 62        	.byte0x62
 2409 03c4 0000 033C 	.long0x33c
 2410 03c8 88        	.byte0x88
 2411 03c9 00        	.byte0
 2412 03ca 0D        	.uleb128 0xd
 2413 03cb 04        	.byte0x4
68K GAS   			page 80


 2414 03cc 0000 038C 	.long0x38c
 2415 03d0 06        	.uleb128 0x6
 2416 03d1 0000 03E0 	.long0x3e0
 2417 03d5 0000 03E0 	.long0x3e0
 2418 03d9 07        	.uleb128 0x7
 2419 03da 0000 0091 	.long0x91
 2420 03de 1F        	.byte0x1f
 2421 03df 00        	.byte0
 2422 03e0 0D        	.uleb128 0xd
 2423 03e1 04        	.byte0x4
 2424 03e2 0000 03E6 	.long0x3e6
 2425 03e6 14        	.uleb128 0x14
 2426 03e7 0A        	.uleb128 0xa
 2427 03e8 0000 0000 	.long.LASF70
 2428 03ec 08        	.byte0x8
 2429 03ed 09        	.byte0x9
 2430 03ee 75        	.byte0x75
 2431 03ef 0000 040C 	.long0x40c
 2432 03f3 0B        	.uleb128 0xb
 2433 03f4 0000 0000 	.long.LASF71
 2434 03f8 09        	.byte0x9
 2435 03f9 76        	.byte0x76
 2436 03fa 0000 040C 	.long0x40c
 2437 03fe 00        	.byte0
 2438 03ff 0B        	.uleb128 0xb
 2439 0400 0000 0000 	.long.LASF72
 2440 0404 09        	.byte0x9
 2441 0405 77        	.byte0x77
 2442 0406 0000 00FC 	.long0xfc
 2443 040a 04        	.byte0x4
 2444 040b 00        	.byte0
 2445 040c 0D        	.uleb128 0xd
 2446 040d 04        	.byte0x4
 2447 040e 0000 0030 	.long0x30
 2448 0412 0A        	.uleb128 0xa
 2449 0413 0000 0000 	.long.LASF73
 2450 0417 80        	.byte0x80
 2451 0418 09        	.byte0x9
 2452 0419 B5        	.byte0xb5
 2453 041a 0000 053C 	.long0x53c
 2454 041e 11        	.uleb128 0x11
 2455 041f 5F70 00   	.string"_p"
 2456 0422 09        	.byte0x9
 2457 0423 B6        	.byte0xb6
 2458 0424 0000 040C 	.long0x40c
 2459 0428 00        	.byte0
 2460 0429 11        	.uleb128 0x11
 2461 042a 5F72 00   	.string"_r"
 2462 042d 09        	.byte0x9
 2463 042e B7        	.byte0xb7
 2464 042f 0000 00FC 	.long0xfc
 2465 0433 04        	.byte0x4
 2466 0434 11        	.uleb128 0x11
 2467 0435 5F77 00   	.string"_w"
 2468 0438 09        	.byte0x9
 2469 0439 B8        	.byte0xb8
 2470 043a 0000 00FC 	.long0xfc
68K GAS   			page 81


 2471 043e 08        	.byte0x8
 2472 043f 0B        	.uleb128 0xb
 2473 0440 0000 0000 	.long.LASF74
 2474 0444 09        	.byte0x9
 2475 0445 B9        	.byte0xb9
 2476 0446 0000 0049 	.long0x49
 2477 044a 0C        	.byte0xc
 2478 044b 0B        	.uleb128 0xb
 2479 044c 0000 0000 	.long.LASF75
 2480 0450 09        	.byte0x9
 2481 0451 BA        	.byte0xba
 2482 0452 0000 0049 	.long0x49
 2483 0456 0E        	.byte0xe
 2484 0457 11        	.uleb128 0x11
 2485 0458 5F62 6600 	.string"_bf"
 2486 045c 09        	.byte0x9
 2487 045d BB        	.byte0xbb
 2488 045e 0000 03E7 	.long0x3e7
 2489 0462 10        	.byte0x10
 2490 0463 0B        	.uleb128 0xb
 2491 0464 0000 0000 	.long.LASF76
 2492 0468 09        	.byte0x9
 2493 0469 BC        	.byte0xbc
 2494 046a 0000 00FC 	.long0xfc
 2495 046e 18        	.byte0x18
 2496 046f 0B        	.uleb128 0xb
 2497 0470 0000 0000 	.long.LASF77
 2498 0474 09        	.byte0x9
 2499 0475 C3        	.byte0xc3
 2500 0476 0000 00D2 	.long0xd2
 2501 047a 1C        	.byte0x1c
 2502 047b 0B        	.uleb128 0xb
 2503 047c 0000 0000 	.long.LASF78
 2504 0480 09        	.byte0x9
 2505 0481 C5        	.byte0xc5
 2506 0482 0000 0673 	.long0x673
 2507 0486 20        	.byte0x20
 2508 0487 0B        	.uleb128 0xb
 2509 0488 0000 0000 	.long.LASF79
 2510 048c 09        	.byte0x9
 2511 048d C7        	.byte0xc7
 2512 048e 0000 0697 	.long0x697
 2513 0492 24        	.byte0x24
 2514 0493 0B        	.uleb128 0xb
 2515 0494 0000 0000 	.long.LASF80
 2516 0498 09        	.byte0x9
 2517 0499 CA        	.byte0xca
 2518 049a 0000 06BB 	.long0x6bb
 2519 049e 28        	.byte0x28
 2520 049f 0B        	.uleb128 0xb
 2521 04a0 0000 0000 	.long.LASF81
 2522 04a4 09        	.byte0x9
 2523 04a5 CB        	.byte0xcb
 2524 04a6 0000 06D5 	.long0x6d5
 2525 04aa 2C        	.byte0x2c
 2526 04ab 11        	.uleb128 0x11
 2527 04ac 5F75 6200 	.string"_ub"
68K GAS   			page 82


 2528 04b0 09        	.byte0x9
 2529 04b1 CE        	.byte0xce
 2530 04b2 0000 03E7 	.long0x3e7
 2531 04b6 30        	.byte0x30
 2532 04b7 11        	.uleb128 0x11
 2533 04b8 5F75 7000 	.string"_up"
 2534 04bc 09        	.byte0x9
 2535 04bd CF        	.byte0xcf
 2536 04be 0000 040C 	.long0x40c
 2537 04c2 38        	.byte0x38
 2538 04c3 11        	.uleb128 0x11
 2539 04c4 5F75 7200 	.string"_ur"
 2540 04c8 09        	.byte0x9
 2541 04c9 D0        	.byte0xd0
 2542 04ca 0000 00FC 	.long0xfc
 2543 04ce 3C        	.byte0x3c
 2544 04cf 0B        	.uleb128 0xb
 2545 04d0 0000 0000 	.long.LASF82
 2546 04d4 09        	.byte0x9
 2547 04d5 D3        	.byte0xd3
 2548 04d6 0000 06DB 	.long0x6db
 2549 04da 40        	.byte0x40
 2550 04db 0B        	.uleb128 0xb
 2551 04dc 0000 0000 	.long.LASF83
 2552 04e0 09        	.byte0x9
 2553 04e1 D4        	.byte0xd4
 2554 04e2 0000 06EB 	.long0x6eb
 2555 04e6 43        	.byte0x43
 2556 04e7 11        	.uleb128 0x11
 2557 04e8 5F6C 6200 	.string"_lb"
 2558 04ec 09        	.byte0x9
 2559 04ed D7        	.byte0xd7
 2560 04ee 0000 03E7 	.long0x3e7
 2561 04f2 44        	.byte0x44
 2562 04f3 0B        	.uleb128 0xb
 2563 04f4 0000 0000 	.long.LASF84
 2564 04f8 09        	.byte0x9
 2565 04f9 DA        	.byte0xda
 2566 04fa 0000 00FC 	.long0xfc
 2567 04fe 4C        	.byte0x4c
 2568 04ff 0B        	.uleb128 0xb
 2569 0500 0000 0000 	.long.LASF85
 2570 0504 09        	.byte0x9
 2571 0505 DB        	.byte0xdb
 2572 0506 0000 00E6 	.long0xe6
 2573 050a 50        	.byte0x50
 2574 050b 0B        	.uleb128 0xb
 2575 050c 0000 0000 	.long.LASF86
 2576 0510 09        	.byte0x9
 2577 0511 DE        	.byte0xde
 2578 0512 0000 055A 	.long0x55a
 2579 0516 58        	.byte0x58
 2580 0517 0B        	.uleb128 0xb
 2581 0518 0000 0000 	.long.LASF87
 2582 051c 09        	.byte0x9
 2583 051d E2        	.byte0xe2
 2584 051e 0000 0244 	.long0x244
68K GAS   			page 83


 2585 0522 5C        	.byte0x5c
 2586 0523 0B        	.uleb128 0xb
 2587 0524 0000 0000 	.long.LASF88
 2588 0528 09        	.byte0x9
 2589 0529 E4        	.byte0xe4
 2590 052a 0000 0239 	.long0x239
 2591 052e 74        	.byte0x74
 2592 052f 0B        	.uleb128 0xb
 2593 0530 0000 0000 	.long.LASF89
 2594 0534 09        	.byte0x9
 2595 0535 E5        	.byte0xe5
 2596 0536 0000 00FC 	.long0xfc
 2597 053a 7C        	.byte0x7c
 2598 053b 00        	.byte0
 2599 053c 15        	.uleb128 0x15
 2600 053d 0000 01D2 	.long0x1d2
 2601 0541 0000 055A 	.long0x55a
 2602 0545 16        	.uleb128 0x16
 2603 0546 0000 055A 	.long0x55a
 2604 054a 16        	.uleb128 0x16
 2605 054b 0000 00D2 	.long0xd2
 2606 054f 16        	.uleb128 0x16
 2607 0550 0000 066D 	.long0x66d
 2608 0554 16        	.uleb128 0x16
 2609 0555 0000 00FC 	.long0xfc
 2610 0559 00        	.byte0
 2611 055a 0D        	.uleb128 0xd
 2612 055b 04        	.byte0x4
 2613 055c 0000 0565 	.long0x565
 2614 0560 05        	.uleb128 0x5
 2615 0561 0000 055A 	.long0x55a
 2616 0565 17        	.uleb128 0x17
 2617 0566 0000 0000 	.long.LASF90
 2618 056a 0158      	.word0x158
 2619 056c 09        	.byte0x9
 2620 056d 0239      	.word0x239
 2621 056f 0000 066D 	.long0x66d
 2622 0573 18        	.uleb128 0x18
 2623 0574 0000 0000 	.long.LASF91
 2624 0578 09        	.byte0x9
 2625 0579 023B      	.word0x23b
 2626 057b 0000 00FC 	.long0xfc
 2627 057f 00        	.byte0
 2628 0580 18        	.uleb128 0x18
 2629 0581 0000 0000 	.long.LASF92
 2630 0585 09        	.byte0x9
 2631 0586 0240      	.word0x240
 2632 0588 0000 0742 	.long0x742
 2633 058c 04        	.byte0x4
 2634 058d 18        	.uleb128 0x18
 2635 058e 0000 0000 	.long.LASF93
 2636 0592 09        	.byte0x9
 2637 0593 0240      	.word0x240
 2638 0595 0000 0742 	.long0x742
 2639 0599 08        	.byte0x8
 2640 059a 18        	.uleb128 0x18
 2641 059b 0000 0000 	.long.LASF94
68K GAS   			page 84


 2642 059f 09        	.byte0x9
 2643 05a0 0240      	.word0x240
 2644 05a2 0000 0742 	.long0x742
 2645 05a6 0C        	.byte0xc
 2646 05a7 18        	.uleb128 0x18
 2647 05a8 0000 0000 	.long.LASF95
 2648 05ac 09        	.byte0x9
 2649 05ad 0242      	.word0x242
 2650 05af 0000 00FC 	.long0xfc
 2651 05b3 10        	.byte0x10
 2652 05b4 18        	.uleb128 0x18
 2653 05b5 0000 0000 	.long.LASF96
 2654 05b9 09        	.byte0x9
 2655 05ba 0243      	.word0x243
 2656 05bc 0000 0924 	.long0x924
 2657 05c0 14        	.byte0x14
 2658 05c1 18        	.uleb128 0x18
 2659 05c2 0000 0000 	.long.LASF97
 2660 05c6 09        	.byte0x9
 2661 05c7 0246      	.word0x246
 2662 05c9 0000 00FC 	.long0xfc
 2663 05cd 30        	.byte0x30
 2664 05ce 18        	.uleb128 0x18
 2665 05cf 0000 0000 	.long.LASF98
 2666 05d3 09        	.byte0x9
 2667 05d4 0247      	.word0x247
 2668 05d6 0000 0939 	.long0x939
 2669 05da 34        	.byte0x34
 2670 05db 18        	.uleb128 0x18
 2671 05dc 0000 0000 	.long.LASF99
 2672 05e0 09        	.byte0x9
 2673 05e1 0249      	.word0x249
 2674 05e3 0000 00FC 	.long0xfc
 2675 05e7 38        	.byte0x38
 2676 05e8 18        	.uleb128 0x18
 2677 05e9 0000 0000 	.long.LASF100
 2678 05ed 09        	.byte0x9
 2679 05ee 024B      	.word0x24b
 2680 05f0 0000 094A 	.long0x94a
 2681 05f4 3C        	.byte0x3c
 2682 05f5 18        	.uleb128 0x18
 2683 05f6 0000 0000 	.long.LASF101
 2684 05fa 09        	.byte0x9
 2685 05fb 024E      	.word0x24e
 2686 05fd 0000 02AD 	.long0x2ad
 2687 0601 40        	.byte0x40
 2688 0602 18        	.uleb128 0x18
 2689 0603 0000 0000 	.long.LASF102
 2690 0607 09        	.byte0x9
 2691 0608 024F      	.word0x24f
 2692 060a 0000 00FC 	.long0xfc
 2693 060e 44        	.byte0x44
 2694 060f 18        	.uleb128 0x18
 2695 0610 0000 0000 	.long.LASF103
 2696 0614 09        	.byte0x9
 2697 0615 0250      	.word0x250
 2698 0617 0000 02AD 	.long0x2ad
68K GAS   			page 85


 2699 061b 48        	.byte0x48
 2700 061c 18        	.uleb128 0x18
 2701 061d 0000 0000 	.long.LASF104
 2702 0621 09        	.byte0x9
 2703 0622 0251      	.word0x251
 2704 0624 0000 0950 	.long0x950
 2705 0628 4C        	.byte0x4c
 2706 0629 18        	.uleb128 0x18
 2707 062a 0000 0000 	.long.LASF105
 2708 062e 09        	.byte0x9
 2709 062f 0254      	.word0x254
 2710 0631 0000 00FC 	.long0xfc
 2711 0635 50        	.byte0x50
 2712 0636 18        	.uleb128 0x18
 2713 0637 0000 0000 	.long.LASF106
 2714 063b 09        	.byte0x9
 2715 063c 0255      	.word0x255
 2716 063e 0000 066D 	.long0x66d
 2717 0642 54        	.byte0x54
 2718 0643 18        	.uleb128 0x18
 2719 0644 0000 0000 	.long.LASF107
 2720 0648 09        	.byte0x9
 2721 0649 0278      	.word0x278
 2722 064b 0000 0902 	.long0x902
 2723 064f 58        	.byte0x58
 2724 0650 19        	.uleb128 0x19
 2725 0651 0000 0000 	.long.LASF108
 2726 0655 09        	.byte0x9
 2727 0656 0281      	.word0x281
 2728 0658 0000 0961 	.long0x961
 2729 065c 0148      	.word0x148
 2730 065e 19        	.uleb128 0x19
 2731 065f 0000 0000 	.long.LASF109
 2732 0663 09        	.byte0x9
 2733 0664 0286      	.word0x286
 2734 0666 0000 0707 	.long0x707
 2735 066a 014C      	.word0x14c
 2736 066c 00        	.byte0
 2737 066d 0D        	.uleb128 0xd
 2738 066e 04        	.byte0x4
 2739 066f 0000 00B6 	.long0xb6
 2740 0673 0D        	.uleb128 0xd
 2741 0674 04        	.byte0x4
 2742 0675 0000 053C 	.long0x53c
 2743 0679 15        	.uleb128 0x15
 2744 067a 0000 01D2 	.long0x1d2
 2745 067e 0000 0697 	.long0x697
 2746 0682 16        	.uleb128 0x16
 2747 0683 0000 055A 	.long0x55a
 2748 0687 16        	.uleb128 0x16
 2749 0688 0000 00D2 	.long0xd2
 2750 068c 16        	.uleb128 0x16
 2751 068d 0000 0182 	.long0x182
 2752 0691 16        	.uleb128 0x16
 2753 0692 0000 00FC 	.long0xfc
 2754 0696 00        	.byte0
 2755 0697 0D        	.uleb128 0xd
68K GAS   			page 86


 2756 0698 04        	.byte0x4
 2757 0699 0000 0679 	.long0x679
 2758 069d 15        	.uleb128 0x15
 2759 069e 0000 00F1 	.long0xf1
 2760 06a2 0000 06BB 	.long0x6bb
 2761 06a6 16        	.uleb128 0x16
 2762 06a7 0000 055A 	.long0x55a
 2763 06ab 16        	.uleb128 0x16
 2764 06ac 0000 00D2 	.long0xd2
 2765 06b0 16        	.uleb128 0x16
 2766 06b1 0000 00F1 	.long0xf1
 2767 06b5 16        	.uleb128 0x16
 2768 06b6 0000 00FC 	.long0xfc
 2769 06ba 00        	.byte0
 2770 06bb 0D        	.uleb128 0xd
 2771 06bc 04        	.byte0x4
 2772 06bd 0000 069D 	.long0x69d
 2773 06c1 15        	.uleb128 0x15
 2774 06c2 0000 00FC 	.long0xfc
 2775 06c6 0000 06D5 	.long0x6d5
 2776 06ca 16        	.uleb128 0x16
 2777 06cb 0000 055A 	.long0x55a
 2778 06cf 16        	.uleb128 0x16
 2779 06d0 0000 00D2 	.long0xd2
 2780 06d4 00        	.byte0
 2781 06d5 0D        	.uleb128 0xd
 2782 06d6 04        	.byte0x4
 2783 06d7 0000 06C1 	.long0x6c1
 2784 06db 06        	.uleb128 0x6
 2785 06dc 0000 0030 	.long0x30
 2786 06e0 0000 06EB 	.long0x6eb
 2787 06e4 07        	.uleb128 0x7
 2788 06e5 0000 0091 	.long0x91
 2789 06e9 02        	.byte0x2
 2790 06ea 00        	.byte0
 2791 06eb 06        	.uleb128 0x6
 2792 06ec 0000 0030 	.long0x30
 2793 06f0 0000 06FB 	.long0x6fb
 2794 06f4 07        	.uleb128 0x7
 2795 06f5 0000 0091 	.long0x91
 2796 06f9 00        	.byte0
 2797 06fa 00        	.byte0
 2798 06fb 04        	.uleb128 0x4
 2799 06fc 0000 0000 	.long.LASF110
 2800 0700 09        	.byte0x9
 2801 0701 011F      	.word0x11f
 2802 0703 0000 0412 	.long0x412
 2803 0707 1A        	.uleb128 0x1a
 2804 0708 0000 0000 	.long.LASF111
 2805 070c 0C        	.byte0xc
 2806 070d 09        	.byte0x9
 2807 070e 0123      	.word0x123
 2808 0710 0000 073C 	.long0x73c
 2809 0714 18        	.uleb128 0x18
 2810 0715 0000 0000 	.long.LASF48
 2811 0719 09        	.byte0x9
 2812 071a 0125      	.word0x125
68K GAS   			page 87


 2813 071c 0000 073C 	.long0x73c
 2814 0720 00        	.byte0
 2815 0721 18        	.uleb128 0x18
 2816 0722 0000 0000 	.long.LASF112
 2817 0726 09        	.byte0x9
 2818 0727 0126      	.word0x126
 2819 0729 0000 00FC 	.long0xfc
 2820 072d 04        	.byte0x4
 2821 072e 18        	.uleb128 0x18
 2822 072f 0000 0000 	.long.LASF113
 2823 0733 09        	.byte0x9
 2824 0734 0127      	.word0x127
 2825 0736 0000 0742 	.long0x742
 2826 073a 08        	.byte0x8
 2827 073b 00        	.byte0
 2828 073c 0D        	.uleb128 0xd
 2829 073d 04        	.byte0x4
 2830 073e 0000 0707 	.long0x707
 2831 0742 0D        	.uleb128 0xd
 2832 0743 04        	.byte0x4
 2833 0744 0000 06FB 	.long0x6fb
 2834 0748 1A        	.uleb128 0x1a
 2835 0749 0000 0000 	.long.LASF114
 2836 074d 0E        	.byte0xe
 2837 074e 09        	.byte0x9
 2838 074f 013F      	.word0x13f
 2839 0751 0000 077D 	.long0x77d
 2840 0755 18        	.uleb128 0x18
 2841 0756 0000 0000 	.long.LASF115
 2842 075a 09        	.byte0x9
 2843 075b 0140      	.word0x140
 2844 075d 0000 077D 	.long0x77d
 2845 0761 00        	.byte0
 2846 0762 18        	.uleb128 0x18
 2847 0763 0000 0000 	.long.LASF116
 2848 0767 09        	.byte0x9
 2849 0768 0141      	.word0x141
 2850 076a 0000 077D 	.long0x77d
 2851 076e 06        	.byte0x6
 2852 076f 18        	.uleb128 0x18
 2853 0770 0000 0000 	.long.LASF117
 2854 0774 09        	.byte0x9
 2855 0775 0142      	.word0x142
 2856 0777 0000 007F 	.long0x7f
 2857 077b 0C        	.byte0xc
 2858 077c 00        	.byte0
 2859 077d 06        	.uleb128 0x6
 2860 077e 0000 007F 	.long0x7f
 2861 0782 0000 078D 	.long0x78d
 2862 0786 07        	.uleb128 0x7
 2863 0787 0000 0091 	.long0x91
 2864 078b 02        	.byte0x2
 2865 078c 00        	.byte0
 2866 078d 1B        	.uleb128 0x1b
 2867 078e CC        	.byte0xcc
 2868 078f 09        	.byte0x9
 2869 0790 0259      	.word0x259
68K GAS   			page 88


 2870 0792 0000 088E 	.long0x88e
 2871 0796 18        	.uleb128 0x18
 2872 0797 0000 0000 	.long.LASF118
 2873 079b 09        	.byte0x9
 2874 079c 025B      	.word0x25b
 2875 079e 0000 0128 	.long0x128
 2876 07a2 00        	.byte0
 2877 07a3 18        	.uleb128 0x18
 2878 07a4 0000 0000 	.long.LASF119
 2879 07a8 09        	.byte0x9
 2880 07a9 025C      	.word0x25c
 2881 07ab 0000 066D 	.long0x66d
 2882 07af 04        	.byte0x4
 2883 07b0 18        	.uleb128 0x18
 2884 07b1 0000 0000 	.long.LASF120
 2885 07b5 09        	.byte0x9
 2886 07b6 025D      	.word0x25d
 2887 07b8 0000 088E 	.long0x88e
 2888 07bc 08        	.byte0x8
 2889 07bd 18        	.uleb128 0x18
 2890 07be 0000 0000 	.long.LASF121
 2891 07c2 09        	.byte0x9
 2892 07c3 025E      	.word0x25e
 2893 07c5 0000 02C3 	.long0x2c3
 2894 07c9 24        	.byte0x24
 2895 07ca 18        	.uleb128 0x18
 2896 07cb 0000 0000 	.long.LASF122
 2897 07cf 09        	.byte0x9
 2898 07d0 025F      	.word0x25f
 2899 07d2 0000 00FC 	.long0xfc
 2900 07d6 48        	.byte0x48
 2901 07d7 18        	.uleb128 0x18
 2902 07d8 0000 0000 	.long.LASF123
 2903 07dc 09        	.byte0x9
 2904 07dd 0260      	.word0x260
 2905 07df 0000 0098 	.long0x98
 2906 07e3 4C        	.byte0x4c
 2907 07e4 18        	.uleb128 0x18
 2908 07e5 0000 0000 	.long.LASF124
 2909 07e9 09        	.byte0x9
 2910 07ea 0261      	.word0x261
 2911 07ec 0000 0748 	.long0x748
 2912 07f0 54        	.byte0x54
 2913 07f1 18        	.uleb128 0x18
 2914 07f2 0000 0000 	.long.LASF125
 2915 07f6 09        	.byte0x9
 2916 07f7 0262      	.word0x262
 2917 07f9 0000 0239 	.long0x239
 2918 07fd 64        	.byte0x64
 2919 07fe 18        	.uleb128 0x18
 2920 07ff 0000 0000 	.long.LASF126
 2921 0803 09        	.byte0x9
 2922 0804 0263      	.word0x263
 2923 0806 0000 0239 	.long0x239
 2924 080a 6C        	.byte0x6c
 2925 080b 18        	.uleb128 0x18
 2926 080c 0000 0000 	.long.LASF127
68K GAS   			page 89


 2927 0810 09        	.byte0x9
 2928 0811 0264      	.word0x264
 2929 0813 0000 0239 	.long0x239
 2930 0817 74        	.byte0x74
 2931 0818 18        	.uleb128 0x18
 2932 0819 0000 0000 	.long.LASF128
 2933 081d 09        	.byte0x9
 2934 081e 0265      	.word0x265
 2935 0820 0000 089E 	.long0x89e
 2936 0824 7C        	.byte0x7c
 2937 0825 18        	.uleb128 0x18
 2938 0826 0000 0000 	.long.LASF129
 2939 082a 09        	.byte0x9
 2940 082b 0266      	.word0x266
 2941 082d 0000 08AE 	.long0x8ae
 2942 0831 84        	.byte0x84
 2943 0832 18        	.uleb128 0x18
 2944 0833 0000 0000 	.long.LASF130
 2945 0837 09        	.byte0x9
 2946 0838 0267      	.word0x267
 2947 083a 0000 00FC 	.long0xfc
 2948 083e 9C        	.byte0x9c
 2949 083f 18        	.uleb128 0x18
 2950 0840 0000 0000 	.long.LASF131
 2951 0844 09        	.byte0x9
 2952 0845 0268      	.word0x268
 2953 0847 0000 0239 	.long0x239
 2954 084b A0        	.byte0xa0
 2955 084c 18        	.uleb128 0x18
 2956 084d 0000 0000 	.long.LASF132
 2957 0851 09        	.byte0x9
 2958 0852 0269      	.word0x269
 2959 0854 0000 0239 	.long0x239
 2960 0858 A8        	.byte0xa8
 2961 0859 18        	.uleb128 0x18
 2962 085a 0000 0000 	.long.LASF133
 2963 085e 09        	.byte0x9
 2964 085f 026A      	.word0x26a
 2965 0861 0000 0239 	.long0x239
 2966 0865 B0        	.byte0xb0
 2967 0866 18        	.uleb128 0x18
 2968 0867 0000 0000 	.long.LASF134
 2969 086b 09        	.byte0x9
 2970 086c 026B      	.word0x26b
 2971 086e 0000 0239 	.long0x239
 2972 0872 B8        	.byte0xb8
 2973 0873 18        	.uleb128 0x18
 2974 0874 0000 0000 	.long.LASF135
 2975 0878 09        	.byte0x9
 2976 0879 026C      	.word0x26c
 2977 087b 0000 0239 	.long0x239
 2978 087f C0        	.byte0xc0
 2979 0880 18        	.uleb128 0x18
 2980 0881 0000 0000 	.long.LASF136
 2981 0885 09        	.byte0x9
 2982 0886 026D      	.word0x26d
 2983 0888 0000 00FC 	.long0xfc
68K GAS   			page 90


 2984 088c C8        	.byte0xc8
 2985 088d 00        	.byte0
 2986 088e 06        	.uleb128 0x6
 2987 088f 0000 00B6 	.long0xb6
 2988 0893 0000 089E 	.long0x89e
 2989 0897 07        	.uleb128 0x7
 2990 0898 0000 0091 	.long0x91
 2991 089c 19        	.byte0x19
 2992 089d 00        	.byte0
 2993 089e 06        	.uleb128 0x6
 2994 089f 0000 00B6 	.long0xb6
 2995 08a3 0000 08AE 	.long0x8ae
 2996 08a7 07        	.uleb128 0x7
 2997 08a8 0000 0091 	.long0x91
 2998 08ac 07        	.byte0x7
 2999 08ad 00        	.byte0
 3000 08ae 06        	.uleb128 0x6
 3001 08af 0000 00B6 	.long0xb6
 3002 08b3 0000 08BE 	.long0x8be
 3003 08b7 07        	.uleb128 0x7
 3004 08b8 0000 0091 	.long0x91
 3005 08bc 17        	.byte0x17
 3006 08bd 00        	.byte0
 3007 08be 1B        	.uleb128 0x1b
 3008 08bf F0        	.byte0xf0
 3009 08c0 09        	.byte0x9
 3010 08c1 0272      	.word0x272
 3011 08c3 0000 08E2 	.long0x8e2
 3012 08c7 18        	.uleb128 0x18
 3013 08c8 0000 0000 	.long.LASF137
 3014 08cc 09        	.byte0x9
 3015 08cd 0275      	.word0x275
 3016 08cf 0000 08E2 	.long0x8e2
 3017 08d3 00        	.byte0
 3018 08d4 18        	.uleb128 0x18
 3019 08d5 0000 0000 	.long.LASF138
 3020 08d9 09        	.byte0x9
 3021 08da 0276      	.word0x276
 3022 08dc 0000 08F2 	.long0x8f2
 3023 08e0 78        	.byte0x78
 3024 08e1 00        	.byte0
 3025 08e2 06        	.uleb128 0x6
 3026 08e3 0000 040C 	.long0x40c
 3027 08e7 0000 08F2 	.long0x8f2
 3028 08eb 07        	.uleb128 0x7
 3029 08ec 0000 0091 	.long0x91
 3030 08f0 1D        	.byte0x1d
 3031 08f1 00        	.byte0
 3032 08f2 06        	.uleb128 0x6
 3033 08f3 0000 0128 	.long0x128
 3034 08f7 0000 0902 	.long0x902
 3035 08fb 07        	.uleb128 0x7
 3036 08fc 0000 0091 	.long0x91
 3037 0900 1D        	.byte0x1d
 3038 0901 00        	.byte0
 3039 0902 1C        	.uleb128 0x1c
 3040 0903 F0        	.byte0xf0
68K GAS   			page 91


 3041 0904 09        	.byte0x9
 3042 0905 0257      	.word0x257
 3043 0907 0000 0924 	.long0x924
 3044 090b 1D        	.uleb128 0x1d
 3045 090c 0000 0000 	.long.LASF90
 3046 0910 09        	.byte0x9
 3047 0911 026E      	.word0x26e
 3048 0913 0000 078D 	.long0x78d
 3049 0917 1D        	.uleb128 0x1d
 3050 0918 0000 0000 	.long.LASF139
 3051 091c 09        	.byte0x9
 3052 091d 0277      	.word0x277
 3053 091f 0000 08BE 	.long0x8be
 3054 0923 00        	.byte0
 3055 0924 06        	.uleb128 0x6
 3056 0925 0000 00B6 	.long0xb6
 3057 0929 0000 0934 	.long0x934
 3058 092d 07        	.uleb128 0x7
 3059 092e 0000 0091 	.long0x91
 3060 0932 18        	.byte0x18
 3061 0933 00        	.byte0
 3062 0934 0C        	.uleb128 0xc
 3063 0935 0000 0000 	.long.LASF140
 3064 0939 0D        	.uleb128 0xd
 3065 093a 04        	.byte0x4
 3066 093b 0000 0934 	.long0x934
 3067 093f 1E        	.uleb128 0x1e
 3068 0940 0000 094A 	.long0x94a
 3069 0944 16        	.uleb128 0x16
 3070 0945 0000 055A 	.long0x55a
 3071 0949 00        	.byte0
 3072 094a 0D        	.uleb128 0xd
 3073 094b 04        	.byte0x4
 3074 094c 0000 093F 	.long0x93f
 3075 0950 0D        	.uleb128 0xd
 3076 0951 04        	.byte0x4
 3077 0952 0000 02AD 	.long0x2ad
 3078 0956 1E        	.uleb128 0x1e
 3079 0957 0000 0961 	.long0x961
 3080 095b 16        	.uleb128 0x16
 3081 095c 0000 00FC 	.long0xfc
 3082 0960 00        	.byte0
 3083 0961 0D        	.uleb128 0xd
 3084 0962 04        	.byte0x4
 3085 0963 0000 0967 	.long0x967
 3086 0967 0D        	.uleb128 0xd
 3087 0968 04        	.byte0x4
 3088 0969 0000 0956 	.long0x956
 3089 096d 06        	.uleb128 0x6
 3090 096e 0000 06FB 	.long0x6fb
 3091 0972 0000 097D 	.long0x97d
 3092 0976 07        	.uleb128 0x7
 3093 0977 0000 0091 	.long0x91
 3094 097b 02        	.byte0x2
 3095 097c 00        	.byte0
 3096 097d 1F        	.uleb128 0x1f
 3097 097e 0000 0000 	.long.LASF141
68K GAS   			page 92


 3098 0982 09        	.byte0x9
 3099 0983 028D      	.word0x28d
 3100 0985 0000 096D 	.long0x96d
 3101 0989 1F        	.uleb128 0x1f
 3102 098a 0000 0000 	.long.LASF142
 3103 098e 09        	.byte0x9
 3104 098f 0307      	.word0x307
 3105 0991 0000 055A 	.long0x55a
 3106 0995 1F        	.uleb128 0x1f
 3107 0996 0000 0000 	.long.LASF143
 3108 099a 09        	.byte0x9
 3109 099b 0308      	.word0x308
 3110 099d 0000 0560 	.long0x560
 3111 09a1 1F        	.uleb128 0x1f
 3112 09a2 0000 0000 	.long.LASF144
 3113 09a6 09        	.byte0x9
 3114 09a7 031A      	.word0x31a
 3115 09a9 0000 03CA 	.long0x3ca
 3116 09ad 20        	.uleb128 0x20
 3117 09ae 0000 0000 	.long.LASF145
 3118 09b2 0A        	.byte0xa
 3119 09b3 63        	.byte0x63
 3120 09b4 0000 066D 	.long0x66d
 3121 09b8 20        	.uleb128 0x20
 3122 09b9 0000 0000 	.long.LASF146
 3123 09bd 0B        	.byte0xb
 3124 09be 9A        	.byte0x9a
 3125 09bf 0000 005B 	.long0x5b
 3126 09c3 20        	.uleb128 0x20
 3127 09c4 0000 0000 	.long.LASF147
 3128 09c8 0B        	.byte0xb
 3129 09c9 9B        	.byte0x9b
 3130 09ca 0000 00FC 	.long0xfc
 3131 09ce 06        	.uleb128 0x6
 3132 09cf 0000 066D 	.long0x66d
 3133 09d3 0000 09DE 	.long0x9de
 3134 09d7 07        	.uleb128 0x7
 3135 09d8 0000 0091 	.long0x91
 3136 09dc 01        	.byte0x1
 3137 09dd 00        	.byte0
 3138 09de 20        	.uleb128 0x20
 3139 09df 0000 0000 	.long.LASF148
 3140 09e3 0B        	.byte0xb
 3141 09e4 9E        	.byte0x9e
 3142 09e5 0000 09CE 	.long0x9ce
 3143 09e9 06        	.uleb128 0x6
 3144 09ea 0000 00B6 	.long0xb6
 3145 09ee 0000 09F9 	.long0x9f9
 3146 09f2 07        	.uleb128 0x7
 3147 09f3 0000 0091 	.long0x91
 3148 09f7 3F        	.byte0x3f
 3149 09f8 00        	.byte0
 3150 09f9 06        	.uleb128 0x6
 3151 09fa 0000 00B6 	.long0xb6
 3152 09fe 0000 0A09 	.long0xa09
 3153 0a02 07        	.uleb128 0x7
 3154 0a03 0000 0091 	.long0x91
68K GAS   			page 93


 3155 0a07 25        	.byte0x25
 3156 0a08 00        	.byte0
 3157 0a09 0D        	.uleb128 0xd
 3158 0a0a 04        	.byte0x4
 3159 0a0b 0000 0A0F 	.long0xa0f
 3160 0a0f 21        	.uleb128 0x21
 3161 0a10 0000 0050 	.long0x50
 3162 0a14 10        	.uleb128 0x10
 3163 0a15 08        	.byte0x8
 3164 0a16 0C        	.byte0xc
 3165 0a17 4D        	.byte0x4d
 3166 0a18 0000 0A35 	.long0xa35
 3167 0a1c 0B        	.uleb128 0xb
 3168 0a1d 0000 0000 	.long.LASF149
 3169 0a21 0C        	.byte0xc
 3170 0a22 4F        	.byte0x4f
 3171 0a23 0000 0086 	.long0x86
 3172 0a27 00        	.byte0
 3173 0a28 0B        	.uleb128 0xb
 3174 0a29 0000 0000 	.long.LASF150
 3175 0a2d 0C        	.byte0xc
 3176 0a2e 50        	.byte0x50
 3177 0a2f 0000 0086 	.long0x86
 3178 0a33 04        	.byte0x4
 3179 0a34 00        	.byte0
 3180 0a35 02        	.uleb128 0x2
 3181 0a36 0000 0000 	.long.LASF151
 3182 0a3a 0C        	.byte0xc
 3183 0a3b 51        	.byte0x51
 3184 0a3c 0000 0A14 	.long0xa14
 3185 0a40 10        	.uleb128 0x10
 3186 0a41 20        	.byte0x20
 3187 0a42 0C        	.byte0xc
 3188 0a43 92        	.byte0x92
 3189 0a44 0000 0A91 	.long0xa91
 3190 0a48 0B        	.uleb128 0xb
 3191 0a49 0000 0000 	.long.LASF152
 3192 0a4d 0C        	.byte0xc
 3193 0a4e 94        	.byte0x94
 3194 0a4f 0000 0086 	.long0x86
 3195 0a53 00        	.byte0
 3196 0a54 0B        	.uleb128 0xb
 3197 0a55 0000 0000 	.long.LASF153
 3198 0a59 0C        	.byte0xc
 3199 0a5a 95        	.byte0x95
 3200 0a5b 0000 003E 	.long0x3e
 3201 0a5f 04        	.byte0x4
 3202 0a60 0B        	.uleb128 0xb
 3203 0a61 0000 0000 	.long.LASF154
 3204 0a65 0C        	.byte0xc
 3205 0a66 96        	.byte0x96
 3206 0a67 0000 0074 	.long0x74
 3207 0a6b 06        	.byte0x6
 3208 0a6c 0B        	.uleb128 0xb
 3209 0a6d 0000 0000 	.long.LASF155
 3210 0a71 0C        	.byte0xc
 3211 0a72 97        	.byte0x97
68K GAS   			page 94


 3212 0a73 0000 0A35 	.long0xa35
 3213 0a77 08        	.byte0x8
 3214 0a78 0B        	.uleb128 0xb
 3215 0a79 0000 0000 	.long.LASF156
 3216 0a7d 0C        	.byte0xc
 3217 0a7e 98        	.byte0x98
 3218 0a7f 0000 0A35 	.long0xa35
 3219 0a83 10        	.byte0x10
 3220 0a84 0B        	.uleb128 0xb
 3221 0a85 0000 0000 	.long.LASF157
 3222 0a89 0C        	.byte0xc
 3223 0a8a 99        	.byte0x99
 3224 0a8b 0000 0A35 	.long0xa35
 3225 0a8f 18        	.byte0x18
 3226 0a90 00        	.byte0
 3227 0a91 02        	.uleb128 0x2
 3228 0a92 0000 0000 	.long.LASF158
 3229 0a96 0C        	.byte0xc
 3230 0a97 9B        	.byte0x9b
 3231 0a98 0000 0A40 	.long0xa40
 3232 0a9c 06        	.uleb128 0x6
 3233 0a9d 0000 0086 	.long0x86
 3234 0aa1 0000 0AAC 	.long0xaac
 3235 0aa5 07        	.uleb128 0x7
 3236 0aa6 0000 0091 	.long0x91
 3237 0aaa 1F        	.byte0x1f
 3238 0aab 00        	.byte0
 3239 0aac 06        	.uleb128 0x6
 3240 0aad 0000 0069 	.long0x69
 3241 0ab1 0000 0ABC 	.long0xabc
 3242 0ab5 07        	.uleb128 0x7
 3243 0ab6 0000 0091 	.long0x91
 3244 0aba 01        	.byte0x1
 3245 0abb 00        	.byte0
 3246 0abc 10        	.uleb128 0x10
 3247 0abd 02        	.byte0x2
 3248 0abe 0D        	.byte0xd
 3249 0abf B1        	.byte0xb1
 3250 0ac0 0000 0ADD 	.long0xadd
 3251 0ac4 0B        	.uleb128 0xb
 3252 0ac5 0000 0000 	.long.LASF159
 3253 0ac9 0D        	.byte0xd
 3254 0aca B2        	.byte0xb2
 3255 0acb 0000 0069 	.long0x69
 3256 0acf 00        	.byte0
 3257 0ad0 0B        	.uleb128 0xb
 3258 0ad1 0000 0000 	.long.LASF160
 3259 0ad5 0D        	.byte0xd
 3260 0ad6 B3        	.byte0xb3
 3261 0ad7 0000 0069 	.long0x69
 3262 0adb 01        	.byte0x1
 3263 0adc 00        	.byte0
 3264 0add 02        	.uleb128 0x2
 3265 0ade 0000 0000 	.long.LASF161
 3266 0ae2 0D        	.byte0xd
 3267 0ae3 B4        	.byte0xb4
 3268 0ae4 0000 0ABC 	.long0xabc
68K GAS   			page 95


 3269 0ae8 20        	.uleb128 0x20
 3270 0ae9 0000 0000 	.long.LASF162
 3271 0aed 0D        	.byte0xd
 3272 0aee B6        	.byte0xb6
 3273 0aef 0000 0ADD 	.long0xadd
 3274 0af3 06        	.uleb128 0x6
 3275 0af4 0000 0069 	.long0x69
 3276 0af8 0000 0B03 	.long0xb03
 3277 0afc 07        	.uleb128 0x7
 3278 0afd 0000 0091 	.long0x91
 3279 0b01 0B        	.byte0xb
 3280 0b02 00        	.byte0
 3281 0b03 1B        	.uleb128 0x1b
 3282 0b04 20        	.byte0x20
 3283 0b05 0E        	.byte0xe
 3284 0b06 047C      	.word0x47c
 3285 0b08 0000 0B4E 	.long0xb4e
 3286 0b0c 18        	.uleb128 0x18
 3287 0b0d 0000 0000 	.long.LASF163
 3288 0b11 0E        	.byte0xe
 3289 0b12 047D      	.word0x47d
 3290 0b14 0000 00C2 	.long0xc2
 3291 0b18 00        	.byte0
 3292 0b19 18        	.uleb128 0x18
 3293 0b1a 0000 0000 	.long.LASF164
 3294 0b1e 0E        	.byte0xe
 3295 0b1f 047F      	.word0x47f
 3296 0b21 0000 0074 	.long0x74
 3297 0b25 14        	.byte0x14
 3298 0b26 18        	.uleb128 0x18
 3299 0b27 0000 0000 	.long.LASF165
 3300 0b2b 0E        	.byte0xe
 3301 0b2c 0481      	.word0x481
 3302 0b2e 0000 0074 	.long0x74
 3303 0b32 16        	.byte0x16
 3304 0b33 18        	.uleb128 0x18
 3305 0b34 0000 0000 	.long.LASF166
 3306 0b38 0E        	.byte0xe
 3307 0b39 0483      	.word0x483
 3308 0b3b 0000 0086 	.long0x86
 3309 0b3f 18        	.byte0x18
 3310 0b40 18        	.uleb128 0x18
 3311 0b41 0000 0000 	.long.LASF167
 3312 0b45 0E        	.byte0xe
 3313 0b46 0485      	.word0x485
 3314 0b48 0000 0086 	.long0x86
 3315 0b4c 1C        	.byte0x1c
 3316 0b4d 00        	.byte0
 3317 0b4e 04        	.uleb128 0x4
 3318 0b4f 0000 0000 	.long.LASF168
 3319 0b53 0E        	.byte0xe
 3320 0b54 0488      	.word0x488
 3321 0b56 0000 0B03 	.long0xb03
 3322 0b5a 1B        	.uleb128 0x1b
 3323 0b5b 9C        	.byte0x9c
 3324 0b5c 0E        	.byte0xe
 3325 0b5d 048E      	.word0x48e
68K GAS   			page 96


 3326 0b5f 0000 0B98 	.long0xb98
 3327 0b63 18        	.uleb128 0x18
 3328 0b64 0000 0000 	.long.LASF169
 3329 0b68 0E        	.byte0xe
 3330 0b69 048F      	.word0x48f
 3331 0b6b 0000 0B4E 	.long0xb4e
 3332 0b6f 00        	.byte0
 3333 0b70 18        	.uleb128 0x18
 3334 0b71 0000 0000 	.long.LASF170
 3335 0b75 0E        	.byte0xe
 3336 0b76 0490      	.word0x490
 3337 0b78 0000 0B98 	.long0xb98
 3338 0b7c 20        	.byte0x20
 3339 0b7d 18        	.uleb128 0x18
 3340 0b7e 0000 0000 	.long.LASF171
 3341 0b82 0E        	.byte0xe
 3342 0b83 0492      	.word0x492
 3343 0b85 0000 0069 	.long0x69
 3344 0b89 9A        	.byte0x9a
 3345 0b8a 18        	.uleb128 0x18
 3346 0b8b 0000 0000 	.long.LASF172
 3347 0b8f 0E        	.byte0xe
 3348 0b90 0494      	.word0x494
 3349 0b92 0000 0069 	.long0x69
 3350 0b96 9B        	.byte0x9b
 3351 0b97 00        	.byte0
 3352 0b98 06        	.uleb128 0x6
 3353 0b99 0000 00B6 	.long0xb6
 3354 0b9d 0000 0BA8 	.long0xba8
 3355 0ba1 07        	.uleb128 0x7
 3356 0ba2 0000 0091 	.long0x91
 3357 0ba6 79        	.byte0x79
 3358 0ba7 00        	.byte0
 3359 0ba8 04        	.uleb128 0x4
 3360 0ba9 0000 0000 	.long.LASF173
 3361 0bad 0E        	.byte0xe
 3362 0bae 0496      	.word0x496
 3363 0bb0 0000 0B5A 	.long0xb5a
 3364 0bb4 1B        	.uleb128 0x1b
 3365 0bb5 A8        	.byte0xa8
 3366 0bb6 0E        	.byte0xe
 3367 0bb7 0498      	.word0x498
 3368 0bb9 0000 0BD8 	.long0xbd8
 3369 0bbd 18        	.uleb128 0x18
 3370 0bbe 0000 0000 	.long.LASF174
 3371 0bc2 0E        	.byte0xe
 3372 0bc3 0499      	.word0x499
 3373 0bc5 0000 0AF3 	.long0xaf3
 3374 0bc9 00        	.byte0
 3375 0bca 18        	.uleb128 0x18
 3376 0bcb 0000 0000 	.long.LASF175
 3377 0bcf 0E        	.byte0xe
 3378 0bd0 049A      	.word0x49a
 3379 0bd2 0000 0BA8 	.long0xba8
 3380 0bd6 0C        	.byte0xc
 3381 0bd7 00        	.byte0
 3382 0bd8 04        	.uleb128 0x4
68K GAS   			page 97


 3383 0bd9 0000 0000 	.long.LASF176
 3384 0bdd 0E        	.byte0xe
 3385 0bde 049B      	.word0x49b
 3386 0be0 0000 0BB4 	.long0xbb4
 3387 0be4 10        	.uleb128 0x10
 3388 0be5 10        	.byte0x10
 3389 0be6 0F        	.byte0xf
 3390 0be7 1E        	.byte0x1e
 3391 0be8 0000 0C1D 	.long0xc1d
 3392 0bec 0B        	.uleb128 0xb
 3393 0bed 0000 0000 	.long.LASF177
 3394 0bf1 0F        	.byte0xf
 3395 0bf2 20        	.byte0x20
 3396 0bf3 0000 0086 	.long0x86
 3397 0bf7 00        	.byte0
 3398 0bf8 0B        	.uleb128 0xb
 3399 0bf9 0000 0000 	.long.LASF178
 3400 0bfd 0F        	.byte0xf
 3401 0bfe 21        	.byte0x21
 3402 0bff 0000 0086 	.long0x86
 3403 0c03 04        	.byte0x4
 3404 0c04 0B        	.uleb128 0xb
 3405 0c05 0000 0000 	.long.LASF179
 3406 0c09 0F        	.byte0xf
 3407 0c0a 22        	.byte0x22
 3408 0c0b 0000 0086 	.long0x86
 3409 0c0f 08        	.byte0x8
 3410 0c10 0B        	.uleb128 0xb
 3411 0c11 0000 0000 	.long.LASF180
 3412 0c15 0F        	.byte0xf
 3413 0c16 23        	.byte0x23
 3414 0c17 0000 0086 	.long0x86
 3415 0c1b 0C        	.byte0xc
 3416 0c1c 00        	.byte0
 3417 0c1d 02        	.uleb128 0x2
 3418 0c1e 0000 0000 	.long.LASF181
 3419 0c22 0F        	.byte0xf
 3420 0c23 25        	.byte0x25
 3421 0c24 0000 0BE4 	.long0xbe4
 3422 0c28 22        	.uleb128 0x22
 3423 0c29 0108      	.word0x108
 3424 0c2b 0F        	.byte0xf
 3425 0c2c 2A        	.byte0x2a
 3426 0c2d 0000 0CC2 	.long0xcc2
 3427 0c31 0B        	.uleb128 0xb
 3428 0c32 0000 0000 	.long.LASF182
 3429 0c36 0F        	.byte0xf
 3430 0c37 2C        	.byte0x2c
 3431 0c38 0000 0086 	.long0x86
 3432 0c3c 00        	.byte0
 3433 0c3d 0B        	.uleb128 0xb
 3434 0c3e 0000 0000 	.long.LASF183
 3435 0c42 0F        	.byte0xf
 3436 0c43 2D        	.byte0x2d
 3437 0c44 0000 0086 	.long0x86
 3438 0c48 04        	.byte0x4
 3439 0c49 0B        	.uleb128 0xb
68K GAS   			page 98


 3440 0c4a 0000 0000 	.long.LASF184
 3441 0c4e 0F        	.byte0xf
 3442 0c4f 2E        	.byte0x2e
 3443 0c50 0000 0086 	.long0x86
 3444 0c54 08        	.byte0x8
 3445 0c55 0B        	.uleb128 0xb
 3446 0c56 0000 0000 	.long.LASF185
 3447 0c5a 0F        	.byte0xf
 3448 0c5b 2F        	.byte0x2f
 3449 0c5c 0000 0086 	.long0x86
 3450 0c60 0C        	.byte0xc
 3451 0c61 0B        	.uleb128 0xb
 3452 0c62 0000 0000 	.long.LASF186
 3453 0c66 0F        	.byte0xf
 3454 0c67 30        	.byte0x30
 3455 0c68 0000 0086 	.long0x86
 3456 0c6c 10        	.byte0x10
 3457 0c6d 0B        	.uleb128 0xb
 3458 0c6e 0000 0000 	.long.LASF187
 3459 0c72 0F        	.byte0xf
 3460 0c73 31        	.byte0x31
 3461 0c74 0000 0086 	.long0x86
 3462 0c78 14        	.byte0x14
 3463 0c79 0B        	.uleb128 0xb
 3464 0c7a 0000 0000 	.long.LASF188
 3465 0c7e 0F        	.byte0xf
 3466 0c7f 32        	.byte0x32
 3467 0c80 0000 0C1D 	.long0xc1d
 3468 0c84 18        	.byte0x18
 3469 0c85 0B        	.uleb128 0xb
 3470 0c86 0000 0000 	.long.LASF189
 3471 0c8a 0F        	.byte0xf
 3472 0c8b 33        	.byte0x33
 3473 0c8c 0000 0A35 	.long0xa35
 3474 0c90 28        	.byte0x28
 3475 0c91 0B        	.uleb128 0xb
 3476 0c92 0000 0000 	.long.LASF190
 3477 0c96 0F        	.byte0xf
 3478 0c97 34        	.byte0x34
 3479 0c98 0000 0CC2 	.long0xcc2
 3480 0c9c 30        	.byte0x30
 3481 0c9d 0B        	.uleb128 0xb
 3482 0c9e 0000 0000 	.long.LASF191
 3483 0ca2 0F        	.byte0xf
 3484 0ca3 35        	.byte0x35
 3485 0ca4 0000 0086 	.long0x86
 3486 0ca8 80        	.byte0x80
 3487 0ca9 0B        	.uleb128 0xb
 3488 0caa 0000 0000 	.long.LASF192
 3489 0cae 0F        	.byte0xf
 3490 0caf 36        	.byte0x36
 3491 0cb0 0000 0086 	.long0x86
 3492 0cb4 84        	.byte0x84
 3493 0cb5 0B        	.uleb128 0xb
 3494 0cb6 0000 0000 	.long.LASF193
 3495 0cba 0F        	.byte0xf
 3496 0cbb 37        	.byte0x37
68K GAS   			page 99


 3497 0cbc 0000 0A9C 	.long0xa9c
 3498 0cc0 88        	.byte0x88
 3499 0cc1 00        	.byte0
 3500 0cc2 06        	.uleb128 0x6
 3501 0cc3 0000 00B6 	.long0xb6
 3502 0cc7 0000 0CD2 	.long0xcd2
 3503 0ccb 07        	.uleb128 0x7
 3504 0ccc 0000 0091 	.long0x91
 3505 0cd0 4F        	.byte0x4f
 3506 0cd1 00        	.byte0
 3507 0cd2 02        	.uleb128 0x2
 3508 0cd3 0000 0000 	.long.LASF194
 3509 0cd7 0F        	.byte0xf
 3510 0cd8 38        	.byte0x38
 3511 0cd9 0000 0C28 	.long0xc28
 3512 0cdd 10        	.uleb128 0x10
 3513 0cde 0C        	.byte0xc
 3514 0cdf 10        	.byte0x10
 3515 0ce0 1D        	.byte0x1d
 3516 0ce1 0000 0D0A 	.long0xd0a
 3517 0ce5 0B        	.uleb128 0xb
 3518 0ce6 0000 0000 	.long.LASF195
 3519 0cea 10        	.byte0x10
 3520 0ceb 1E        	.byte0x1e
 3521 0cec 0000 0086 	.long0x86
 3522 0cf0 00        	.byte0
 3523 0cf1 0B        	.uleb128 0xb
 3524 0cf2 0000 0000 	.long.LASF196
 3525 0cf6 10        	.byte0x10
 3526 0cf7 1F        	.byte0x1f
 3527 0cf8 0000 0086 	.long0x86
 3528 0cfc 04        	.byte0x4
 3529 0cfd 0B        	.uleb128 0xb
 3530 0cfe 0000 0000 	.long.LASF197
 3531 0d02 10        	.byte0x10
 3532 0d03 20        	.byte0x20
 3533 0d04 0000 0086 	.long0x86
 3534 0d08 08        	.byte0x8
 3535 0d09 00        	.byte0
 3536 0d0a 02        	.uleb128 0x2
 3537 0d0b 0000 0000 	.long.LASF198
 3538 0d0f 10        	.byte0x10
 3539 0d10 21        	.byte0x21
 3540 0d11 0000 0CDD 	.long0xcdd
 3541 0d15 10        	.uleb128 0x10
 3542 0d16 4C        	.byte0x4c
 3543 0d17 10        	.byte0x10
 3544 0d18 23        	.byte0x23
 3545 0d19 0000 0DD2 	.long0xdd2
 3546 0d1d 0B        	.uleb128 0xb
 3547 0d1e 0000 0000 	.long.LASF199
 3548 0d22 10        	.byte0x10
 3549 0d23 24        	.byte0x24
 3550 0d24 0000 0069 	.long0x69
 3551 0d28 00        	.byte0
 3552 0d29 0B        	.uleb128 0xb
 3553 0d2a 0000 0000 	.long.LASF200
68K GAS   			page 100


 3554 0d2e 10        	.byte0x10
 3555 0d2f 25        	.byte0x25
 3556 0d30 0000 0069 	.long0x69
 3557 0d34 01        	.byte0x1
 3558 0d35 0B        	.uleb128 0xb
 3559 0d36 0000 0000 	.long.LASF201
 3560 0d3a 10        	.byte0x10
 3561 0d3b 26        	.byte0x26
 3562 0d3c 0000 0AAC 	.long0xaac
 3563 0d40 02        	.byte0x2
 3564 0d41 0B        	.uleb128 0xb
 3565 0d42 0000 0000 	.long.LASF202
 3566 0d46 10        	.byte0x10
 3567 0d47 27        	.byte0x27
 3568 0d48 0000 0086 	.long0x86
 3569 0d4c 04        	.byte0x4
 3570 0d4d 0B        	.uleb128 0xb
 3571 0d4e 0000 0000 	.long.LASF203
 3572 0d52 10        	.byte0x10
 3573 0d53 28        	.byte0x28
 3574 0d54 0000 0086 	.long0x86
 3575 0d58 08        	.byte0x8
 3576 0d59 0B        	.uleb128 0xb
 3577 0d5a 0000 0000 	.long.LASF204
 3578 0d5e 10        	.byte0x10
 3579 0d5f 29        	.byte0x29
 3580 0d60 0000 0086 	.long0x86
 3581 0d64 0C        	.byte0xc
 3582 0d65 0B        	.uleb128 0xb
 3583 0d66 0000 0000 	.long.LASF205
 3584 0d6a 10        	.byte0x10
 3585 0d6b 2A        	.byte0x2a
 3586 0d6c 0000 0086 	.long0x86
 3587 0d70 10        	.byte0x10
 3588 0d71 0B        	.uleb128 0xb
 3589 0d72 0000 0000 	.long.LASF206
 3590 0d76 10        	.byte0x10
 3591 0d77 2B        	.byte0x2b
 3592 0d78 0000 0086 	.long0x86
 3593 0d7c 14        	.byte0x14
 3594 0d7d 0B        	.uleb128 0xb
 3595 0d7e 0000 0000 	.long.LASF207
 3596 0d82 10        	.byte0x10
 3597 0d83 2C        	.byte0x2c
 3598 0d84 0000 0086 	.long0x86
 3599 0d88 18        	.byte0x18
 3600 0d89 0B        	.uleb128 0xb
 3601 0d8a 0000 0000 	.long.LASF208
 3602 0d8e 10        	.byte0x10
 3603 0d8f 2D        	.byte0x2d
 3604 0d90 0000 0086 	.long0x86
 3605 0d94 1C        	.byte0x1c
 3606 0d95 0B        	.uleb128 0xb
 3607 0d96 0000 0000 	.long.LASF209
 3608 0d9a 10        	.byte0x10
 3609 0d9b 2E        	.byte0x2e
 3610 0d9c 0000 0086 	.long0x86
68K GAS   			page 101


 3611 0da0 20        	.byte0x20
 3612 0da1 0B        	.uleb128 0xb
 3613 0da2 0000 0000 	.long.LASF210
 3614 0da6 10        	.byte0x10
 3615 0da7 2F        	.byte0x2f
 3616 0da8 0000 0086 	.long0x86
 3617 0dac 24        	.byte0x24
 3618 0dad 0B        	.uleb128 0xb
 3619 0dae 0000 0000 	.long.LASF211
 3620 0db2 10        	.byte0x10
 3621 0db3 30        	.byte0x30
 3622 0db4 0000 0086 	.long0x86
 3623 0db8 28        	.byte0x28
 3624 0db9 0B        	.uleb128 0xb
 3625 0dba 0000 0000 	.long.LASF212
 3626 0dbe 10        	.byte0x10
 3627 0dbf 31        	.byte0x31
 3628 0dc0 0000 0DD2 	.long0xdd2
 3629 0dc4 2C        	.byte0x2c
 3630 0dc5 0B        	.uleb128 0xb
 3631 0dc6 0000 0000 	.long.LASF213
 3632 0dca 10        	.byte0x10
 3633 0dcb 32        	.byte0x32
 3634 0dcc 0000 0DD2 	.long0xdd2
 3635 0dd0 3C        	.byte0x3c
 3636 0dd1 00        	.byte0
 3637 0dd2 06        	.uleb128 0x6
 3638 0dd3 0000 0086 	.long0x86
 3639 0dd7 0000 0DE2 	.long0xde2
 3640 0ddb 07        	.uleb128 0x7
 3641 0ddc 0000 0091 	.long0x91
 3642 0de0 03        	.byte0x3
 3643 0de1 00        	.byte0
 3644 0de2 02        	.uleb128 0x2
 3645 0de3 0000 0000 	.long.LASF214
 3646 0de7 10        	.byte0x10
 3647 0de8 33        	.byte0x33
 3648 0de9 0000 0D15 	.long0xd15
 3649 0ded 23        	.uleb128 0x23
 3650 0dee 0001 D50C 	.long0x1d50c
 3651 0df2 10        	.byte0x10
 3652 0df3 35        	.byte0x35
 3653 0df4 0000 0E11 	.long0xe11
 3654 0df8 0B        	.uleb128 0xb
 3655 0df9 0000 0000 	.long.LASF215
 3656 0dfd 10        	.byte0x10
 3657 0dfe 36        	.byte0x36
 3658 0dff 0000 0DE2 	.long0xde2
 3659 0e03 00        	.byte0
 3660 0e04 0B        	.uleb128 0xb
 3661 0e05 0000 0000 	.long.LASF216
 3662 0e09 10        	.byte0x10
 3663 0e0a 37        	.byte0x37
 3664 0e0b 0000 0E11 	.long0xe11
 3665 0e0f 4C        	.byte0x4c
 3666 0e10 00        	.byte0
 3667 0e11 06        	.uleb128 0x6
68K GAS   			page 102


 3668 0e12 0000 0D0A 	.long0xd0a
 3669 0e16 0000 0E22 	.long0xe22
 3670 0e1a 24        	.uleb128 0x24
 3671 0e1b 0000 0091 	.long0x91
 3672 0e1f 270F      	.word0x270f
 3673 0e21 00        	.byte0
 3674 0e22 02        	.uleb128 0x2
 3675 0e23 0000 0000 	.long.LASF217
 3676 0e27 10        	.byte0x10
 3677 0e28 38        	.byte0x38
 3678 0e29 0000 0DED 	.long0xded
 3679 0e2d 22        	.uleb128 0x22
 3680 0e2e 0D28      	.word0xd28
 3681 0e30 11        	.byte0x11
 3682 0e31 1F        	.byte0x1f
 3683 0e32 0000 0E7F 	.long0xe7f
 3684 0e36 0B        	.uleb128 0xb
 3685 0e37 0000 0000 	.long.LASF218
 3686 0e3b 11        	.byte0x11
 3687 0e3c 20        	.byte0x20
 3688 0e3d 0000 0074 	.long0x74
 3689 0e41 00        	.byte0
 3690 0e42 0B        	.uleb128 0xb
 3691 0e43 0000 0000 	.long.LASF219
 3692 0e47 11        	.byte0x11
 3693 0e48 21        	.byte0x21
 3694 0e49 0000 0074 	.long0x74
 3695 0e4d 02        	.byte0x2
 3696 0e4e 0B        	.uleb128 0xb
 3697 0e4f 0000 0000 	.long.LASF220
 3698 0e53 11        	.byte0x11
 3699 0e54 22        	.byte0x22
 3700 0e55 0000 0069 	.long0x69
 3701 0e59 04        	.byte0x4
 3702 0e5a 0B        	.uleb128 0xb
 3703 0e5b 0000 0000 	.long.LASF221
 3704 0e5f 11        	.byte0x11
 3705 0e60 23        	.byte0x23
 3706 0e61 0000 0069 	.long0x69
 3707 0e65 05        	.byte0x5
 3708 0e66 0B        	.uleb128 0xb
 3709 0e67 0000 0000 	.long.LASF222
 3710 0e6b 11        	.byte0x11
 3711 0e6c 24        	.byte0x24
 3712 0e6d 0000 0074 	.long0x74
 3713 0e71 06        	.byte0x6
 3714 0e72 0B        	.uleb128 0xb
 3715 0e73 0000 0000 	.long.LASF223
 3716 0e77 11        	.byte0x11
 3717 0e78 25        	.byte0x25
 3718 0e79 0000 0E7F 	.long0xe7f
 3719 0e7d 08        	.byte0x8
 3720 0e7e 00        	.byte0
 3721 0e7f 06        	.uleb128 0x6
 3722 0e80 0000 0BD8 	.long0xbd8
 3723 0e84 0000 0E8F 	.long0xe8f
 3724 0e88 07        	.uleb128 0x7
68K GAS   			page 103


 3725 0e89 0000 0091 	.long0x91
 3726 0e8d 13        	.byte0x13
 3727 0e8e 00        	.byte0
 3728 0e8f 02        	.uleb128 0x2
 3729 0e90 0000 0000 	.long.LASF224
 3730 0e94 11        	.byte0x11
 3731 0e95 27        	.byte0x27
 3732 0e96 0000 0E2D 	.long0xe2d
 3733 0e9a 10        	.uleb128 0x10
 3734 0e9b 18        	.byte0x18
 3735 0e9c 12        	.byte0x12
 3736 0e9d 23        	.byte0x23
 3737 0e9e 0000 0EEB 	.long0xeeb
 3738 0ea2 0B        	.uleb128 0xb
 3739 0ea3 0000 0000 	.long.LASF183
 3740 0ea7 12        	.byte0x12
 3741 0ea8 25        	.byte0x25
 3742 0ea9 0000 0086 	.long0x86
 3743 0ead 00        	.byte0
 3744 0eae 0B        	.uleb128 0xb
 3745 0eaf 0000 0000 	.long.LASF184
 3746 0eb3 12        	.byte0x12
 3747 0eb4 26        	.byte0x26
 3748 0eb5 0000 0086 	.long0x86
 3749 0eb9 04        	.byte0x4
 3750 0eba 0B        	.uleb128 0xb
 3751 0ebb 0000 0000 	.long.LASF185
 3752 0ebf 12        	.byte0x12
 3753 0ec0 27        	.byte0x27
 3754 0ec1 0000 0086 	.long0x86
 3755 0ec5 08        	.byte0x8
 3756 0ec6 0B        	.uleb128 0xb
 3757 0ec7 0000 0000 	.long.LASF225
 3758 0ecb 12        	.byte0x12
 3759 0ecc 28        	.byte0x28
 3760 0ecd 0000 0086 	.long0x86
 3761 0ed1 0C        	.byte0xc
 3762 0ed2 0B        	.uleb128 0xb
 3763 0ed3 0000 0000 	.long.LASF186
 3764 0ed7 12        	.byte0x12
 3765 0ed8 29        	.byte0x29
 3766 0ed9 0000 0086 	.long0x86
 3767 0edd 10        	.byte0x10
 3768 0ede 0B        	.uleb128 0xb
 3769 0edf 0000 0000 	.long.LASF187
 3770 0ee3 12        	.byte0x12
 3771 0ee4 2A        	.byte0x2a
 3772 0ee5 0000 0086 	.long0x86
 3773 0ee9 14        	.byte0x14
 3774 0eea 00        	.byte0
 3775 0eeb 02        	.uleb128 0x2
 3776 0eec 0000 0000 	.long.LASF226
 3777 0ef0 12        	.byte0x12
 3778 0ef1 2B        	.byte0x2b
 3779 0ef2 0000 0E9A 	.long0xe9a
 3780 0ef6 23        	.uleb128 0x23
 3781 0ef7 0002 0324 	.long0x20324
68K GAS   			page 104


 3782 0efb 12        	.byte0x12
 3783 0efc 33        	.byte0x33
 3784 0efd 0000 0FA3 	.long0xfa3
 3785 0f01 0B        	.uleb128 0xb
 3786 0f02 0000 0000 	.long.LASF227
 3787 0f06 12        	.byte0x12
 3788 0f07 38        	.byte0x38
 3789 0f08 0000 0FA3 	.long0xfa3
 3790 0f0c 00        	.byte0
 3791 0f0d 13        	.uleb128 0x13
 3792 0f0e 0000 0000 	.long.LASF228
 3793 0f12 12        	.byte0x12
 3794 0f13 39        	.byte0x39
 3795 0f14 0000 0086 	.long0x86
 3796 0f18 14A0      	.word0x14a0
 3797 0f1a 13        	.uleb128 0x13
 3798 0f1b 0000 0000 	.long.LASF229
 3799 0f1f 12        	.byte0x12
 3800 0f20 3A        	.byte0x3a
 3801 0f21 0000 0086 	.long0x86
 3802 0f25 14A4      	.word0x14a4
 3803 0f27 13        	.uleb128 0x13
 3804 0f28 0000 0000 	.long.LASF180
 3805 0f2c 12        	.byte0x12
 3806 0f2d 3B        	.byte0x3b
 3807 0f2e 0000 0086 	.long0x86
 3808 0f32 14A8      	.word0x14a8
 3809 0f34 13        	.uleb128 0x13
 3810 0f35 0000 0000 	.long.LASF230
 3811 0f39 12        	.byte0x12
 3812 0f3a 40        	.byte0x40
 3813 0f3b 0000 0FB3 	.long0xfb3
 3814 0f3f 14AC      	.word0x14ac
 3815 0f41 13        	.uleb128 0x13
 3816 0f42 0000 0000 	.long.LASF231
 3817 0f46 12        	.byte0x12
 3818 0f47 41        	.byte0x41
 3819 0f48 0000 0086 	.long0x86
 3820 0f4c 20AC      	.word0x20ac
 3821 0f4e 13        	.uleb128 0x13
 3822 0f4f 0000 0000 	.long.LASF232
 3823 0f53 12        	.byte0x12
 3824 0f54 42        	.byte0x42
 3825 0f55 0000 0086 	.long0x86
 3826 0f59 20B0      	.word0x20b0
 3827 0f5b 13        	.uleb128 0x13
 3828 0f5c 0000 0000 	.long.LASF233
 3829 0f60 12        	.byte0x12
 3830 0f61 43        	.byte0x43
 3831 0f62 0000 0086 	.long0x86
 3832 0f66 20B4      	.word0x20b4
 3833 0f68 13        	.uleb128 0x13
 3834 0f69 0000 0000 	.long.LASF234
 3835 0f6d 12        	.byte0x12
 3836 0f6e 48        	.byte0x48
 3837 0f6f 0000 0E22 	.long0xe22
 3838 0f73 20B8      	.word0x20b8
68K GAS   			page 105


 3839 0f75 25        	.uleb128 0x25
 3840 0f76 0000 0000 	.long.LASF235
 3841 0f7a 12        	.byte0x12
 3842 0f7b 4D        	.byte0x4d
 3843 0f7c 0000 0EEB 	.long0xeeb
 3844 0f80 0001 F5C4 	.long0x1f5c4
 3845 0f84 25        	.uleb128 0x25
 3846 0f85 0000 0000 	.long.LASF236
 3847 0f89 12        	.byte0x12
 3848 0f8a 53        	.byte0x53
 3849 0f8b 0000 0A91 	.long0xa91
 3850 0f8f 0001 F5DC 	.long0x1f5dc
 3851 0f93 25        	.uleb128 0x25
 3852 0f94 0000 0000 	.long.LASF237
 3853 0f98 12        	.byte0x12
 3854 0f99 59        	.byte0x59
 3855 0f9a 0000 0E8F 	.long0xe8f
 3856 0f9e 0001 F5FC 	.long0x1f5fc
 3857 0fa2 00        	.byte0
 3858 0fa3 06        	.uleb128 0x6
 3859 0fa4 0000 0CD2 	.long0xcd2
 3860 0fa8 0000 0FB3 	.long0xfb3
 3861 0fac 07        	.uleb128 0x7
 3862 0fad 0000 0091 	.long0x91
 3863 0fb1 13        	.byte0x13
 3864 0fb2 00        	.byte0
 3865 0fb3 06        	.uleb128 0x6
 3866 0fb4 0000 00B6 	.long0xb6
 3867 0fb8 0000 0FC4 	.long0xfc4
 3868 0fbc 24        	.uleb128 0x24
 3869 0fbd 0000 0091 	.long0x91
 3870 0fc1 0BFF      	.word0xbff
 3871 0fc3 00        	.byte0
 3872 0fc4 02        	.uleb128 0x2
 3873 0fc5 0000 0000 	.long.LASF238
 3874 0fc9 12        	.byte0x12
 3875 0fca 5C        	.byte0x5c
 3876 0fcb 0000 0EF6 	.long0xef6
 3877 0fcf 10        	.uleb128 0x10
 3878 0fd0 0C        	.byte0xc
 3879 0fd1 13        	.byte0x13
 3880 0fd2 7E        	.byte0x7e
 3881 0fd3 0000 0FFC 	.long0xffc
 3882 0fd7 0B        	.uleb128 0xb
 3883 0fd8 0000 0000 	.long.LASF239
 3884 0fdc 13        	.byte0x13
 3885 0fdd 80        	.byte0x80
 3886 0fde 0000 0086 	.long0x86
 3887 0fe2 00        	.byte0
 3888 0fe3 0B        	.uleb128 0xb
 3889 0fe4 0000 0000 	.long.LASF240
 3890 0fe8 13        	.byte0x13
 3891 0fe9 81        	.byte0x81
 3892 0fea 0000 0086 	.long0x86
 3893 0fee 04        	.byte0x4
 3894 0fef 0B        	.uleb128 0xb
 3895 0ff0 0000 0000 	.long.LASF241
68K GAS   			page 106


 3896 0ff4 13        	.byte0x13
 3897 0ff5 82        	.byte0x82
 3898 0ff6 0000 0050 	.long0x50
 3899 0ffa 08        	.byte0x8
 3900 0ffb 00        	.byte0
 3901 0ffc 02        	.uleb128 0x2
 3902 0ffd 0000 0000 	.long.LASF242
 3903 1001 13        	.byte0x13
 3904 1002 84        	.byte0x84
 3905 1003 0000 0FCF 	.long0xfcf
 3906 1007 10        	.uleb128 0x10
 3907 1008 78        	.byte0x78
 3908 1009 13        	.byte0x13
 3909 100a 8B        	.byte0x8b
 3910 100b 0000 1070 	.long0x1070
 3911 100f 0B        	.uleb128 0xb
 3912 1010 0000 0000 	.long.LASF243
 3913 1014 13        	.byte0x13
 3914 1015 8D        	.byte0x8d
 3915 1016 0000 00C2 	.long0xc2
 3916 101a 00        	.byte0
 3917 101b 0B        	.uleb128 0xb
 3918 101c 0000 0000 	.long.LASF244
 3919 1020 13        	.byte0x13
 3920 1021 8E        	.byte0x8e
 3921 1022 0000 00C2 	.long0xc2
 3922 1026 14        	.byte0x14
 3923 1027 0B        	.uleb128 0xb
 3924 1028 0000 0000 	.long.LASF245
 3925 102c 13        	.byte0x13
 3926 102d 8F        	.byte0x8f
 3927 102e 0000 09E9 	.long0x9e9
 3928 1032 28        	.byte0x28
 3929 1033 0B        	.uleb128 0xb
 3930 1034 0000 0000 	.long.LASF246
 3931 1038 13        	.byte0x13
 3932 1039 91        	.byte0x91
 3933 103a 0000 0086 	.long0x86
 3934 103e 68        	.byte0x68
 3935 103f 0B        	.uleb128 0xb
 3936 1040 0000 0000 	.long.LASF247
 3937 1044 13        	.byte0x13
 3938 1045 92        	.byte0x92
 3939 1046 0000 009F 	.long0x9f
 3940 104a 6C        	.byte0x6c
 3941 104b 0B        	.uleb128 0xb
 3942 104c 0000 0000 	.long.LASF248
 3943 1050 13        	.byte0x13
 3944 1051 93        	.byte0x93
 3945 1052 0000 0086 	.long0x86
 3946 1056 70        	.byte0x70
 3947 1057 0B        	.uleb128 0xb
 3948 1058 0000 0000 	.long.LASF249
 3949 105c 13        	.byte0x13
 3950 105d 95        	.byte0x95
 3951 105e 0000 0074 	.long0x74
 3952 1062 74        	.byte0x74
68K GAS   			page 107


 3953 1063 0B        	.uleb128 0xb
 3954 1064 0000 0000 	.long.LASF159
 3955 1068 13        	.byte0x13
 3956 1069 96        	.byte0x96
 3957 106a 0000 0074 	.long0x74
 3958 106e 76        	.byte0x76
 3959 106f 00        	.byte0
 3960 1070 02        	.uleb128 0x2
 3961 1071 0000 0000 	.long.LASF250
 3962 1075 13        	.byte0x13
 3963 1076 98        	.byte0x98
 3964 1077 0000 1007 	.long0x1007
 3965 107b 10        	.uleb128 0x10
 3966 107c 1C        	.byte0x1c
 3967 107d 13        	.byte0x13
 3968 107e 9F        	.byte0x9f
 3969 107f 0000 10A8 	.long0x10a8
 3970 1083 0B        	.uleb128 0xb
 3971 1084 0000 0000 	.long.LASF251
 3972 1088 13        	.byte0x13
 3973 1089 A1        	.byte0xa1
 3974 108a 0000 0086 	.long0x86
 3975 108e 00        	.byte0
 3976 108f 0B        	.uleb128 0xb
 3977 1090 0000 0000 	.long.LASF252
 3978 1094 13        	.byte0x13
 3979 1095 A2        	.byte0xa2
 3980 1096 0000 00C2 	.long0xc2
 3981 109a 04        	.byte0x4
 3982 109b 0B        	.uleb128 0xb
 3983 109c 0000 0000 	.long.LASF253
 3984 10a0 13        	.byte0x13
 3985 10a1 A3        	.byte0xa3
 3986 10a2 0000 0086 	.long0x86
 3987 10a6 18        	.byte0x18
 3988 10a7 00        	.byte0
 3989 10a8 02        	.uleb128 0x2
 3990 10a9 0000 0000 	.long.LASF254
 3991 10ad 13        	.byte0x13
 3992 10ae A5        	.byte0xa5
 3993 10af 0000 107B 	.long0x107b
 3994 10b3 10        	.uleb128 0x10
 3995 10b4 A8        	.byte0xa8
 3996 10b5 13        	.byte0x13
 3997 10b6 AC        	.byte0xac
 3998 10b7 0000 10F8 	.long0x10f8
 3999 10bb 0B        	.uleb128 0xb
 4000 10bc 0000 0000 	.long.LASF255
 4001 10c0 13        	.byte0x13
 4002 10c1 AE        	.byte0xae
 4003 10c2 0000 00AA 	.long0xaa
 4004 10c6 00        	.byte0
 4005 10c7 0B        	.uleb128 0xb
 4006 10c8 0000 0000 	.long.LASF256
 4007 10cc 13        	.byte0x13
 4008 10cd AF        	.byte0xaf
 4009 10ce 0000 0086 	.long0x86
68K GAS   			page 108


 4010 10d2 04        	.byte0x4
 4011 10d3 0B        	.uleb128 0xb
 4012 10d4 0000 0000 	.long.LASF257
 4013 10d8 13        	.byte0x13
 4014 10d9 B0        	.byte0xb0
 4015 10da 0000 1070 	.long0x1070
 4016 10de 08        	.byte0x8
 4017 10df 0B        	.uleb128 0xb
 4018 10e0 0000 0000 	.long.LASF258
 4019 10e4 13        	.byte0x13
 4020 10e5 B1        	.byte0xb1
 4021 10e6 0000 0FFC 	.long0xffc
 4022 10ea 80        	.byte0x80
 4023 10eb 0B        	.uleb128 0xb
 4024 10ec 0000 0000 	.long.LASF259
 4025 10f0 13        	.byte0x13
 4026 10f1 B2        	.byte0xb2
 4027 10f2 0000 10A8 	.long0x10a8
 4028 10f6 8C        	.byte0x8c
 4029 10f7 00        	.byte0
 4030 10f8 02        	.uleb128 0x2
 4031 10f9 0000 0000 	.long.LASF260
 4032 10fd 13        	.byte0x13
 4033 10fe B4        	.byte0xb4
 4034 10ff 0000 10B3 	.long0x10b3
 4035 1103 10        	.uleb128 0x10
 4036 1104 24        	.byte0x24
 4037 1105 13        	.byte0x13
 4038 1106 BB        	.byte0xbb
 4039 1107 0000 1148 	.long0x1148
 4040 110b 0B        	.uleb128 0xb
 4041 110c 0000 0000 	.long.LASF255
 4042 1110 13        	.byte0x13
 4043 1111 BD        	.byte0xbd
 4044 1112 0000 00AA 	.long0xaa
 4045 1116 00        	.byte0
 4046 1117 0B        	.uleb128 0xb
 4047 1118 0000 0000 	.long.LASF261
 4048 111c 13        	.byte0x13
 4049 111d BE        	.byte0xbe
 4050 111e 0000 0086 	.long0x86
 4051 1122 04        	.byte0x4
 4052 1123 0B        	.uleb128 0xb
 4053 1124 0000 0000 	.long.LASF262
 4054 1128 13        	.byte0x13
 4055 1129 BF        	.byte0xbf
 4056 112a 0000 0086 	.long0x86
 4057 112e 08        	.byte0x8
 4058 112f 0B        	.uleb128 0xb
 4059 1130 0000 0000 	.long.LASF263
 4060 1134 13        	.byte0x13
 4061 1135 C0        	.byte0xc0
 4062 1136 0000 0086 	.long0x86
 4063 113a 0C        	.byte0xc
 4064 113b 0B        	.uleb128 0xb
 4065 113c 0000 0000 	.long.LASF264
 4066 1140 13        	.byte0x13
68K GAS   			page 109


 4067 1141 C1        	.byte0xc1
 4068 1142 0000 00C2 	.long0xc2
 4069 1146 10        	.byte0x10
 4070 1147 00        	.byte0
 4071 1148 02        	.uleb128 0x2
 4072 1149 0000 0000 	.long.LASF265
 4073 114d 13        	.byte0x13
 4074 114e C4        	.byte0xc4
 4075 114f 0000 1103 	.long0x1103
 4076 1153 10        	.uleb128 0x10
 4077 1154 15        	.byte0x15
 4078 1155 13        	.byte0x13
 4079 1156 CA        	.byte0xca
 4080 1157 0000 1174 	.long0x1174
 4081 115b 0B        	.uleb128 0xb
 4082 115c 0000 0000 	.long.LASF255
 4083 1160 13        	.byte0x13
 4084 1161 CC        	.byte0xcc
 4085 1162 0000 00AA 	.long0xaa
 4086 1166 00        	.byte0
 4087 1167 0B        	.uleb128 0xb
 4088 1168 0000 0000 	.long.LASF266
 4089 116c 13        	.byte0x13
 4090 116d CD        	.byte0xcd
 4091 116e 0000 00C2 	.long0xc2
 4092 1172 01        	.byte0x1
 4093 1173 00        	.byte0
 4094 1174 02        	.uleb128 0x2
 4095 1175 0000 0000 	.long.LASF267
 4096 1179 13        	.byte0x13
 4097 117a CE        	.byte0xce
 4098 117b 0000 1153 	.long0x1153
 4099 117f 02        	.uleb128 0x2
 4100 1180 0000 0000 	.long.LASF268
 4101 1184 14        	.byte0x14
 4102 1185 38        	.byte0x38
 4103 1186 0000 0086 	.long0x86
 4104 118a 10        	.uleb128 0x10
 4105 118b 14        	.byte0x14
 4106 118c 14        	.byte0x14
 4107 118d 3A        	.byte0x3a
 4108 118e 0000 11DB 	.long0x11db
 4109 1192 0B        	.uleb128 0xb
 4110 1193 0000 0000 	.long.LASF269
 4111 1197 14        	.byte0x14
 4112 1198 3C        	.byte0x3c
 4113 1199 0000 0074 	.long0x74
 4114 119d 00        	.byte0
 4115 119e 0B        	.uleb128 0xb
 4116 119f 0000 0000 	.long.LASF270
 4117 11a3 14        	.byte0x14
 4118 11a4 3D        	.byte0x3d
 4119 11a5 0000 0074 	.long0x74
 4120 11a9 02        	.byte0x2
 4121 11aa 0B        	.uleb128 0xb
 4122 11ab 0000 0000 	.long.LASF271
 4123 11af 14        	.byte0x14
68K GAS   			page 110


 4124 11b0 3E        	.byte0x3e
 4125 11b1 0000 0086 	.long0x86
 4126 11b5 04        	.byte0x4
 4127 11b6 0B        	.uleb128 0xb
 4128 11b7 0000 0000 	.long.LASF272
 4129 11bb 14        	.byte0x14
 4130 11bc 3F        	.byte0x3f
 4131 11bd 0000 0086 	.long0x86
 4132 11c1 08        	.byte0x8
 4133 11c2 11        	.uleb128 0x11
 4134 11c3 4352 4300 	.string"CRC"
 4135 11c7 14        	.byte0x14
 4136 11c8 40        	.byte0x40
 4137 11c9 0000 0086 	.long0x86
 4138 11cd 0C        	.byte0xc
 4139 11ce 0B        	.uleb128 0xb
 4140 11cf 0000 0000 	.long.LASF218
 4141 11d3 14        	.byte0x14
 4142 11d4 41        	.byte0x41
 4143 11d5 0000 0086 	.long0x86
 4144 11d9 10        	.byte0x10
 4145 11da 00        	.byte0
 4146 11db 02        	.uleb128 0x2
 4147 11dc 0000 0000 	.long.LASF273
 4148 11e0 14        	.byte0x14
 4149 11e1 42        	.byte0x42
 4150 11e2 0000 118A 	.long0x118a
 4151 11e6 10        	.uleb128 0x10
 4152 11e7 0C        	.byte0xc
 4153 11e8 14        	.byte0x14
 4154 11e9 44        	.byte0x44
 4155 11ea 0000 1213 	.long0x1213
 4156 11ee 11        	.uleb128 0x11
 4157 11ef 546F 7000 	.string"Top"
 4158 11f3 14        	.byte0x14
 4159 11f4 46        	.byte0x46
 4160 11f5 0000 0086 	.long0x86
 4161 11f9 00        	.byte0
 4162 11fa 0B        	.uleb128 0xb
 4163 11fb 0000 0000 	.long.LASF274
 4164 11ff 14        	.byte0x14
 4165 1200 47        	.byte0x47
 4166 1201 0000 0086 	.long0x86
 4167 1205 04        	.byte0x4
 4168 1206 0B        	.uleb128 0xb
 4169 1207 0000 0000 	.long.LASF275
 4170 120b 14        	.byte0x14
 4171 120c 48        	.byte0x48
 4172 120d 0000 0086 	.long0x86
 4173 1211 08        	.byte0x8
 4174 1212 00        	.byte0
 4175 1213 02        	.uleb128 0x2
 4176 1214 0000 0000 	.long.LASF276
 4177 1218 14        	.byte0x14
 4178 1219 49        	.byte0x49
 4179 121a 0000 11E6 	.long0x11e6
 4180 121e 10        	.uleb128 0x10
68K GAS   			page 111


 4181 121f EC        	.byte0xec
 4182 1220 14        	.byte0x14
 4183 1221 4D        	.byte0x4d
 4184 1222 0000 129F 	.long0x129f
 4185 1226 0B        	.uleb128 0xb
 4186 1227 0000 0000 	.long.LASF277
 4187 122b 14        	.byte0x14
 4188 122c 4E        	.byte0x4e
 4189 122d 0000 0086 	.long0x86
 4190 1231 00        	.byte0
 4191 1232 0B        	.uleb128 0xb
 4192 1233 0000 0000 	.long.LASF278
 4193 1237 14        	.byte0x14
 4194 1238 4F        	.byte0x4f
 4195 1239 0000 0086 	.long0x86
 4196 123d 04        	.byte0x4
 4197 123e 11        	.uleb128 0x11
 4198 123f 456E 6400 	.string"End"
 4199 1243 14        	.byte0x14
 4200 1244 50        	.byte0x50
 4201 1245 0000 0086 	.long0x86
 4202 1249 08        	.byte0x8
 4203 124a 0B        	.uleb128 0xb
 4204 124b 0000 0000 	.long.LASF279
 4205 124f 14        	.byte0x14
 4206 1250 51        	.byte0x51
 4207 1251 0000 0086 	.long0x86
 4208 1255 0C        	.byte0xc
 4209 1256 0B        	.uleb128 0xb
 4210 1257 0000 0000 	.long.LASF280
 4211 125b 14        	.byte0x14
 4212 125c 52        	.byte0x52
 4213 125d 0000 0050 	.long0x50
 4214 1261 10        	.byte0x10
 4215 1262 0B        	.uleb128 0xb
 4216 1263 0000 0000 	.long.LASF281
 4217 1267 14        	.byte0x14
 4218 1268 53        	.byte0x53
 4219 1269 0000 0074 	.long0x74
 4220 126d 14        	.byte0x14
 4221 126e 0B        	.uleb128 0xb
 4222 126f 0000 0000 	.long.LASF282
 4223 1273 14        	.byte0x14
 4224 1274 54        	.byte0x54
 4225 1275 0000 0074 	.long0x74
 4226 1279 16        	.byte0x16
 4227 127a 0B        	.uleb128 0xb
 4228 127b 0000 0000 	.long.LASF283
 4229 127f 14        	.byte0x14
 4230 1280 55        	.byte0x55
 4231 1281 0000 0086 	.long0x86
 4232 1285 18        	.byte0x18
 4233 1286 0B        	.uleb128 0xb
 4234 1287 0000 0000 	.long.LASF284
 4235 128b 14        	.byte0x14
 4236 128c 56        	.byte0x56
 4237 128d 0000 0086 	.long0x86
68K GAS   			page 112


 4238 1291 1C        	.byte0x1c
 4239 1292 0B        	.uleb128 0xb
 4240 1293 0000 0000 	.long.LASF285
 4241 1297 14        	.byte0x14
 4242 1298 57        	.byte0x57
 4243 1299 0000 129F 	.long0x129f
 4244 129d 20        	.byte0x20
 4245 129e 00        	.byte0
 4246 129f 06        	.uleb128 0x6
 4247 12a0 0000 1213 	.long0x1213
 4248 12a4 0000 12AF 	.long0x12af
 4249 12a8 07        	.uleb128 0x7
 4250 12a9 0000 0091 	.long0x91
 4251 12ad 10        	.byte0x10
 4252 12ae 00        	.byte0
 4253 12af 02        	.uleb128 0x2
 4254 12b0 0000 0000 	.long.LASF286
 4255 12b4 14        	.byte0x14
 4256 12b5 58        	.byte0x58
 4257 12b6 0000 121E 	.long0x121e
 4258 12ba 20        	.uleb128 0x20
 4259 12bb 0000 0000 	.long.LASF287
 4260 12bf 14        	.byte0x14
 4261 12c0 60        	.byte0x60
 4262 12c1 0000 12AF 	.long0x12af
 4263 12c5 20        	.uleb128 0x20
 4264 12c6 0000 0000 	.long.LASF288
 4265 12ca 14        	.byte0x14
 4266 12cb 61        	.byte0x61
 4267 12cc 0000 11DB 	.long0x11db
 4268 12d0 10        	.uleb128 0x10
 4269 12d1 34        	.byte0x34
 4270 12d2 15        	.byte0x15
 4271 12d3 43        	.byte0x43
 4272 12d4 0000 1315 	.long0x1315
 4273 12d8 0B        	.uleb128 0xb
 4274 12d9 0000 0000 	.long.LASF243
 4275 12dd 15        	.byte0x15
 4276 12de 45        	.byte0x45
 4277 12df 0000 09F9 	.long0x9f9
 4278 12e3 00        	.byte0
 4279 12e4 0B        	.uleb128 0xb
 4280 12e5 0000 0000 	.long.LASF289
 4281 12e9 15        	.byte0x15
 4282 12ea 46        	.byte0x46
 4283 12eb 0000 117F 	.long0x117f
 4284 12ef 28        	.byte0x28
 4285 12f0 0B        	.uleb128 0xb
 4286 12f1 0000 0000 	.long.LASF278
 4287 12f5 15        	.byte0x15
 4288 12f6 47        	.byte0x47
 4289 12f7 0000 0086 	.long0x86
 4290 12fb 2C        	.byte0x2c
 4291 12fc 0B        	.uleb128 0xb
 4292 12fd 0000 0000 	.long.LASF290
 4293 1301 15        	.byte0x15
 4294 1302 48        	.byte0x48
68K GAS   			page 113


 4295 1303 0000 00AA 	.long0xaa
 4296 1307 30        	.byte0x30
 4297 1308 0B        	.uleb128 0xb
 4298 1309 0000 0000 	.long.LASF291
 4299 130d 15        	.byte0x15
 4300 130e 49        	.byte0x49
 4301 130f 0000 00AA 	.long0xaa
 4302 1313 31        	.byte0x31
 4303 1314 00        	.byte0
 4304 1315 02        	.uleb128 0x2
 4305 1316 0000 0000 	.long.LASF292
 4306 131a 15        	.byte0x15
 4307 131b 4A        	.byte0x4a
 4308 131c 0000 12D0 	.long0x12d0
 4309 1320 22        	.uleb128 0x22
 4310 1321 6818      	.word0x6818
 4311 1323 15        	.byte0x15
 4312 1324 4C        	.byte0x4c
 4313 1325 0000 1373 	.long0x1373
 4314 1329 0B        	.uleb128 0xb
 4315 132a 0000 0000 	.long.LASF293
 4316 132e 15        	.byte0x15
 4317 132f 4E        	.byte0x4e
 4318 1330 0000 0086 	.long0x86
 4319 1334 00        	.byte0
 4320 1335 0B        	.uleb128 0xb
 4321 1336 0000 0000 	.long.LASF294
 4322 133a 15        	.byte0x15
 4323 133b 4F        	.byte0x4f
 4324 133c 0000 0086 	.long0x86
 4325 1340 04        	.byte0x4
 4326 1341 0B        	.uleb128 0xb
 4327 1342 0000 0000 	.long.LASF295
 4328 1346 15        	.byte0x15
 4329 1347 50        	.byte0x50
 4330 1348 0000 0086 	.long0x86
 4331 134c 08        	.byte0x8
 4332 134d 0B        	.uleb128 0xb
 4333 134e 0000 0000 	.long.LASF296
 4334 1352 15        	.byte0x15
 4335 1353 51        	.byte0x51
 4336 1354 0000 0086 	.long0x86
 4337 1358 0C        	.byte0xc
 4338 1359 0B        	.uleb128 0xb
 4339 135a 0000 0000 	.long.LASF297
 4340 135e 15        	.byte0x15
 4341 135f 52        	.byte0x52
 4342 1360 0000 1373 	.long0x1373
 4343 1364 10        	.byte0x10
 4344 1365 13        	.uleb128 0x13
 4345 1366 0000 0000 	.long.LASF298
 4346 136a 15        	.byte0x15
 4347 136b 53        	.byte0x53
 4348 136c 0000 089E 	.long0x89e
 4349 1370 6810      	.word0x6810
 4350 1372 00        	.byte0
 4351 1373 06        	.uleb128 0x6
68K GAS   			page 114


 4352 1374 0000 1315 	.long0x1315
 4353 1378 0000 1384 	.long0x1384
 4354 137c 24        	.uleb128 0x24
 4355 137d 0000 0091 	.long0x91
 4356 1381 01FF      	.word0x1ff
 4357 1383 00        	.byte0
 4358 1384 02        	.uleb128 0x2
 4359 1385 0000 0000 	.long.LASF299
 4360 1389 15        	.byte0x15
 4361 138a 54        	.byte0x54
 4362 138b 0000 1320 	.long0x1320
 4363 138f 10        	.uleb128 0x10
 4364 1390 4C        	.byte0x4c
 4365 1391 16        	.byte0x16
 4366 1392 60        	.byte0x60
 4367 1393 0000 13C8 	.long0x13c8
 4368 1397 0B        	.uleb128 0xb
 4369 1398 0000 0000 	.long.LASF300
 4370 139c 16        	.byte0x16
 4371 139d 61        	.byte0x61
 4372 139e 0000 0086 	.long0x86
 4373 13a2 00        	.byte0
 4374 13a3 0B        	.uleb128 0xb
 4375 13a4 0000 0000 	.long.LASF301
 4376 13a8 16        	.byte0x16
 4377 13a9 62        	.byte0x62
 4378 13aa 0000 0086 	.long0x86
 4379 13ae 04        	.byte0x4
 4380 13af 0B        	.uleb128 0xb
 4381 13b0 0000 0000 	.long.LASF302
 4382 13b4 16        	.byte0x16
 4383 13b5 63        	.byte0x63
 4384 13b6 0000 09E9 	.long0x9e9
 4385 13ba 08        	.byte0x8
 4386 13bb 0B        	.uleb128 0xb
 4387 13bc 0000 0000 	.long.LASF303
 4388 13c0 16        	.byte0x16
 4389 13c1 64        	.byte0x64
 4390 13c2 0000 0050 	.long0x50
 4391 13c6 48        	.byte0x48
 4392 13c7 00        	.byte0
 4393 13c8 02        	.uleb128 0x2
 4394 13c9 0000 0000 	.long.LASF304
 4395 13cd 16        	.byte0x16
 4396 13ce 65        	.byte0x65
 4397 13cf 0000 138F 	.long0x138f
 4398 13d3 20        	.uleb128 0x20
 4399 13d4 0000 0000 	.long.LASF305
 4400 13d8 16        	.byte0x16
 4401 13d9 67        	.byte0x67
 4402 13da 0000 13C8 	.long0x13c8
 4403 13de 10        	.uleb128 0x10
 4404 13df 1C        	.byte0x1c
 4405 13e0 17        	.byte0x17
 4406 13e1 67        	.byte0x67
 4407 13e2 0000 140B 	.long0x140b
 4408 13e6 0B        	.uleb128 0xb
68K GAS   			page 115


 4409 13e7 0000 0000 	.long.LASF255
 4410 13eb 17        	.byte0x17
 4411 13ec 69        	.byte0x69
 4412 13ed 0000 00AA 	.long0xaa
 4413 13f1 00        	.byte0
 4414 13f2 0B        	.uleb128 0xb
 4415 13f3 0000 0000 	.long.LASF306
 4416 13f7 17        	.byte0x17
 4417 13f8 6A        	.byte0x6a
 4418 13f9 0000 0086 	.long0x86
 4419 13fd 04        	.byte0x4
 4420 13fe 0B        	.uleb128 0xb
 4421 13ff 0000 0000 	.long.LASF307
 4422 1403 17        	.byte0x17
 4423 1404 6B        	.byte0x6b
 4424 1405 0000 00C2 	.long0xc2
 4425 1409 08        	.byte0x8
 4426 140a 00        	.byte0
 4427 140b 02        	.uleb128 0x2
 4428 140c 0000 0000 	.long.LASF308
 4429 1410 17        	.byte0x17
 4430 1411 6C        	.byte0x6c
 4431 1412 0000 13DE 	.long0x13de
 4432 1416 22        	.uleb128 0x22
 4433 1417 87FC      	.word0x87fc
 4434 1419 17        	.byte0x17
 4435 141a 74        	.byte0x74
 4436 141b 0000 14CF 	.long0x14cf
 4437 141f 0B        	.uleb128 0xb
 4438 1420 0000 0000 	.long.LASF188
 4439 1424 17        	.byte0x17
 4440 1425 79        	.byte0x79
 4441 1426 0000 0C1D 	.long0xc1d
 4442 142a 00        	.byte0
 4443 142b 0B        	.uleb128 0xb
 4444 142c 0000 0000 	.long.LASF309
 4445 1430 17        	.byte0x17
 4446 1431 7E        	.byte0x7e
 4447 1432 0000 0086 	.long0x86
 4448 1436 10        	.byte0x10
 4449 1437 0B        	.uleb128 0xb
 4450 1438 0000 0000 	.long.LASF310
 4451 143c 17        	.byte0x17
 4452 143d 83        	.byte0x83
 4453 143e 0000 0086 	.long0x86
 4454 1442 14        	.byte0x14
 4455 1443 0B        	.uleb128 0xb
 4456 1444 0000 0000 	.long.LASF311
 4457 1448 17        	.byte0x17
 4458 1449 84        	.byte0x84
 4459 144a 0000 0086 	.long0x86
 4460 144e 18        	.byte0x18
 4461 144f 0B        	.uleb128 0xb
 4462 1450 0000 0000 	.long.LASF312
 4463 1454 17        	.byte0x17
 4464 1455 85        	.byte0x85
 4465 1456 0000 0086 	.long0x86
68K GAS   			page 116


 4466 145a 1C        	.byte0x1c
 4467 145b 0B        	.uleb128 0xb
 4468 145c 0000 0000 	.long.LASF313
 4469 1460 17        	.byte0x17
 4470 1461 8A        	.byte0x8a
 4471 1462 0000 0086 	.long0x86
 4472 1466 20        	.byte0x20
 4473 1467 0B        	.uleb128 0xb
 4474 1468 0000 0000 	.long.LASF314
 4475 146c 17        	.byte0x17
 4476 146d 8B        	.byte0x8b
 4477 146e 0000 14CF 	.long0x14cf
 4478 1472 24        	.byte0x24
 4479 1473 13        	.uleb128 0x13
 4480 1474 0000 0000 	.long.LASF315
 4481 1478 17        	.byte0x17
 4482 1479 90        	.byte0x90
 4483 147a 0000 0086 	.long0x86
 4484 147e 0924      	.word0x924
 4485 1480 13        	.uleb128 0x13
 4486 1481 0000 0000 	.long.LASF316
 4487 1485 17        	.byte0x17
 4488 1486 91        	.byte0x91
 4489 1487 0000 0086 	.long0x86
 4490 148b 0928      	.word0x928
 4491 148d 13        	.uleb128 0x13
 4492 148e 0000 0000 	.long.LASF317
 4493 1492 17        	.byte0x17
 4494 1493 92        	.byte0x92
 4495 1494 0000 14DF 	.long0x14df
 4496 1498 092C      	.word0x92c
 4497 149a 13        	.uleb128 0x13
 4498 149b 0000 0000 	.long.LASF318
 4499 149f 17        	.byte0x17
 4500 14a0 97        	.byte0x97
 4501 14a1 0000 0086 	.long0x86
 4502 14a5 1E2C      	.word0x1e2c
 4503 14a7 13        	.uleb128 0x13
 4504 14a8 0000 0000 	.long.LASF319
 4505 14ac 17        	.byte0x17
 4506 14ad 98        	.byte0x98
 4507 14ae 0000 14EF 	.long0x14ef
 4508 14b2 1E30      	.word0x1e30
 4509 14b4 13        	.uleb128 0x13
 4510 14b5 0000 0000 	.long.LASF320
 4511 14b9 17        	.byte0x17
 4512 14ba 9D        	.byte0x9d
 4513 14bb 0000 14FF 	.long0x14ff
 4514 14bf 1F04      	.word0x1f04
 4515 14c1 13        	.uleb128 0x13
 4516 14c2 0000 0000 	.long.LASF321
 4517 14c6 17        	.byte0x17
 4518 14c7 A2        	.byte0xa2
 4519 14c8 0000 1384 	.long0x1384
 4520 14cc 1FE4      	.word0x1fe4
 4521 14ce 00        	.byte0
 4522 14cf 06        	.uleb128 0x6
68K GAS   			page 117


 4523 14d0 0000 1148 	.long0x1148
 4524 14d4 0000 14DF 	.long0x14df
 4525 14d8 07        	.uleb128 0x7
 4526 14d9 0000 0091 	.long0x91
 4527 14dd 3F        	.byte0x3f
 4528 14de 00        	.byte0
 4529 14df 06        	.uleb128 0x6
 4530 14e0 0000 10F8 	.long0x10f8
 4531 14e4 0000 14EF 	.long0x14ef
 4532 14e8 07        	.uleb128 0x7
 4533 14e9 0000 0091 	.long0x91
 4534 14ed 1F        	.byte0x1f
 4535 14ee 00        	.byte0
 4536 14ef 06        	.uleb128 0x6
 4537 14f0 0000 1174 	.long0x1174
 4538 14f4 0000 14FF 	.long0x14ff
 4539 14f8 07        	.uleb128 0x7
 4540 14f9 0000 0091 	.long0x91
 4541 14fd 09        	.byte0x9
 4542 14fe 00        	.byte0
 4543 14ff 06        	.uleb128 0x6
 4544 1500 0000 140B 	.long0x140b
 4545 1504 0000 150F 	.long0x150f
 4546 1508 07        	.uleb128 0x7
 4547 1509 0000 0091 	.long0x91
 4548 150d 07        	.byte0x7
 4549 150e 00        	.byte0
 4550 150f 02        	.uleb128 0x2
 4551 1510 0000 0000 	.long.LASF322
 4552 1514 17        	.byte0x17
 4553 1515 A4        	.byte0xa4
 4554 1516 0000 1416 	.long0x1416
 4555 151a 20        	.uleb128 0x20
 4556 151b 0000 0000 	.long.LASF323
 4557 151f 17        	.byte0x17
 4558 1520 A9        	.byte0xa9
 4559 1521 0000 150F 	.long0x150f
 4560 1525 20        	.uleb128 0x20
 4561 1526 0000 0000 	.long.LASF324
 4562 152a 17        	.byte0x17
 4563 152b AE        	.byte0xae
 4564 152c 0000 1530 	.long0x1530
 4565 1530 0D        	.uleb128 0xd
 4566 1531 04        	.byte0x4
 4567 1532 0000 0FC4 	.long0xfc4
 4568 1536 02        	.uleb128 0x2
 4569 1537 0000 0000 	.long.LASF325
 4570 153b 18        	.byte0x18
 4571 153c 3D        	.byte0x3d
 4572 153d 0000 0A09 	.long0xa09
 4573 1541 02        	.uleb128 0x2
 4574 1542 0000 0000 	.long.LASF326
 4575 1546 18        	.byte0x18
 4576 1547 3E        	.byte0x3e
 4577 1548 0000 03E0 	.long0x3e0
 4578 154c 0E        	.uleb128 0xe
 4579 154d 04        	.byte0x4
68K GAS   			page 118


 4580 154e 18        	.byte0x18
 4581 154f 40        	.byte0x40
 4582 1550 0000 1576 	.long0x1576
 4583 1554 0F        	.uleb128 0xf
 4584 1555 0000 0000 	.long.LASF327
 4585 1559 18        	.byte0x18
 4586 155a 42        	.byte0x42
 4587 155b 0000 1536 	.long0x1536
 4588 155f 0F        	.uleb128 0xf
 4589 1560 0000 0000 	.long.LASF328
 4590 1564 18        	.byte0x18
 4591 1565 43        	.byte0x43
 4592 1566 0000 1541 	.long0x1541
 4593 156a 0F        	.uleb128 0xf
 4594 156b 0000 0000 	.long.LASF329
 4595 156f 18        	.byte0x18
 4596 1570 44        	.byte0x44
 4597 1571 0000 00D2 	.long0xd2
 4598 1575 00        	.byte0
 4599 1576 02        	.uleb128 0x2
 4600 1577 0000 0000 	.long.LASF330
 4601 157b 18        	.byte0x18
 4602 157c 45        	.byte0x45
 4603 157d 0000 154C 	.long0x154c
 4604 1581 10        	.uleb128 0x10
 4605 1582 28        	.byte0x28
 4606 1583 18        	.byte0x18
 4607 1584 47        	.byte0x47
 4608 1585 0000 15D2 	.long0x15d2
 4609 1589 0B        	.uleb128 0xb
 4610 158a 0000 0000 	.long.LASF331
 4611 158e 18        	.byte0x18
 4612 158f 49        	.byte0x49
 4613 1590 0000 0086 	.long0x86
 4614 1594 00        	.byte0
 4615 1595 0B        	.uleb128 0xb
 4616 1596 0000 0000 	.long.LASF332
 4617 159a 18        	.byte0x18
 4618 159b 4A        	.byte0x4a
 4619 159c 0000 00C2 	.long0xc2
 4620 15a0 04        	.byte0x4
 4621 15a1 0B        	.uleb128 0xb
 4622 15a2 0000 0000 	.long.LASF333
 4623 15a6 18        	.byte0x18
 4624 15a7 4B        	.byte0x4b
 4625 15a8 0000 1576 	.long0x1576
 4626 15ac 18        	.byte0x18
 4627 15ad 0B        	.uleb128 0xb
 4628 15ae 0000 0000 	.long.LASF334
 4629 15b2 18        	.byte0x18
 4630 15b3 4C        	.byte0x4c
 4631 15b4 0000 0086 	.long0x86
 4632 15b8 1C        	.byte0x1c
 4633 15b9 0B        	.uleb128 0xb
 4634 15ba 0000 0000 	.long.LASF335
 4635 15be 18        	.byte0x18
 4636 15bf 4D        	.byte0x4d
68K GAS   			page 119


 4637 15c0 0000 0086 	.long0x86
 4638 15c4 20        	.byte0x20
 4639 15c5 0B        	.uleb128 0xb
 4640 15c6 0000 0000 	.long.LASF336
 4641 15ca 18        	.byte0x18
 4642 15cb 4E        	.byte0x4e
 4643 15cc 0000 0086 	.long0x86
 4644 15d0 24        	.byte0x24
 4645 15d1 00        	.byte0
 4646 15d2 02        	.uleb128 0x2
 4647 15d3 0000 0000 	.long.LASF337
 4648 15d7 18        	.byte0x18
 4649 15d8 50        	.byte0x50
 4650 15d9 0000 1581 	.long0x1581
 4651 15dd 06        	.uleb128 0x6
 4652 15de 0000 15D2 	.long0x15d2
 4653 15e2 0000 15ED 	.long0x15ed
 4654 15e6 07        	.uleb128 0x7
 4655 15e7 0000 0091 	.long0x91
 4656 15eb 1D        	.byte0x1d
 4657 15ec 00        	.byte0
 4658 15ed 20        	.uleb128 0x20
 4659 15ee 0000 0000 	.long.LASF338
 4660 15f2 18        	.byte0x18
 4661 15f3 55        	.byte0x55
 4662 15f4 0000 15DD 	.long0x15dd
 4663 15f8 26        	.uleb128 0x26
 4664 15f9 0000 151A 	.long0x151a
 4665 15fd 02        	.byte0x2
 4666 15fe 92        	.byte0x92
 4667 15ff 05        	.uleb128 0x5
 4668 1600 03        	.byte0x3
 4669 1601 0000 0000 	.longCFE_ES_Global
 4670 1605 26        	.uleb128 0x26
 4671 1606 0000 1525 	.long0x1525
 4672 160a 02        	.byte0x2
 4673 160b 97        	.byte0x97
 4674 160c 05        	.uleb128 0x5
 4675 160d 03        	.byte0x3
 4676 160e 0000 0000 	.longCFE_ES_ResetDataPtr
 4677 1612 27        	.uleb128 0x27
 4678 1613 0000 0000 	.long.LASF369
 4679 1617 02        	.byte0x2
 4680 1618 03F1      	.word0x3f1
 4681 161a 0000 0050 	.long0x50
 4682 161e 0000 0000 	.long.LFB63
 4683 1622 0000 0070 	.long.LFE63-.LFB63
 4684 1626 01        	.uleb128 0x1
 4685 1627 9C        	.byte0x9c
 4686 1628 0000 1678 	.long0x1678
 4687 162c 28        	.uleb128 0x28
 4688 162d 0000 0000 	.long.LASF339
 4689 1631 02        	.byte0x2
 4690 1632 03F1      	.word0x3f1
 4691 1634 0000 0086 	.long0x86
 4692 1638 02        	.uleb128 0x2
 4693 1639 91        	.byte0x91
68K GAS   			page 120


 4694 163a 00        	.sleb128 0
 4695 163b 28        	.uleb128 0x28
 4696 163c 0000 0000 	.long.LASF340
 4697 1640 02        	.byte0x2
 4698 1641 03F1      	.word0x3f1
 4699 1643 0000 0086 	.long0x86
 4700 1647 02        	.uleb128 0x2
 4701 1648 91        	.byte0x91
 4702 1649 04        	.sleb128 4
 4703 164a 29        	.uleb128 0x29
 4704 164b 0000 0000 	.long.LASF341
 4705 164f 02        	.byte0x2
 4706 1650 03F3      	.word0x3f3
 4707 1652 0000 0050 	.long0x50
 4708 1656 02        	.uleb128 0x2
 4709 1657 91        	.byte0x91
 4710 1658 78        	.sleb128 -8
 4711 1659 29        	.uleb128 0x29
 4712 165a 0000 0000 	.long.LASF342
 4713 165e 02        	.byte0x2
 4714 165f 03F4      	.word0x3f4
 4715 1661 0000 0086 	.long0x86
 4716 1665 02        	.uleb128 0x2
 4717 1666 91        	.byte0x91
 4718 1667 74        	.sleb128 -12
 4719 1668 29        	.uleb128 0x29
 4720 1669 0000 0000 	.long.LASF343
 4721 166d 02        	.byte0x2
 4722 166e 03F5      	.word0x3f5
 4723 1670 0000 0086 	.long0x86
 4724 1674 02        	.uleb128 0x2
 4725 1675 91        	.byte0x91
 4726 1676 70        	.sleb128 -16
 4727 1677 00        	.byte0
 4728 1678 2A        	.uleb128 0x2a
 4729 1679 0000 0000 	.long.LASF347
 4730 167d 02        	.byte0x2
 4731 167e 030E      	.word0x30e
 4732 1680 0000 0000 	.long.LFB62
 4733 1684 0000 06E0 	.long.LFE62-.LFB62
 4734 1688 01        	.uleb128 0x1
 4735 1689 9C        	.byte0x9c
 4736 168a 0000 16E5 	.long0x16e5
 4737 168e 29        	.uleb128 0x29
 4738 168f 0000 0000 	.long.LASF344
 4739 1693 02        	.byte0x2
 4740 1694 0310      	.word0x310
 4741 1696 0000 0050 	.long0x50
 4742 169a 02        	.uleb128 0x2
 4743 169b 91        	.byte0x91
 4744 169c 70        	.sleb128 -16
 4745 169d 29        	.uleb128 0x29
 4746 169e 0000 0000 	.long.LASF345
 4747 16a2 02        	.byte0x2
 4748 16a3 0311      	.word0x311
 4749 16a5 0000 0086 	.long0x86
 4750 16a9 02        	.uleb128 0x2
68K GAS   			page 121


 4751 16aa 91        	.byte0x91
 4752 16ab 6C        	.sleb128 -20
 4753 16ac 29        	.uleb128 0x29
 4754 16ad 0000 0000 	.long.LASF346
 4755 16b1 02        	.byte0x2
 4756 16b2 0312      	.word0x312
 4757 16b4 0000 00AA 	.long0xaa
 4758 16b8 02        	.uleb128 0x2
 4759 16b9 91        	.byte0x91
 4760 16ba 7B        	.sleb128 -5
 4761 16bb 2B        	.uleb128 0x2b
 4762 16bc 6900      	.string"i"
 4763 16be 02        	.byte0x2
 4764 16bf 0313      	.word0x313
 4765 16c1 0000 0074 	.long0x74
 4766 16c5 02        	.uleb128 0x2
 4767 16c6 91        	.byte0x91
 4768 16c7 78        	.sleb128 -8
 4769 16c8 2B        	.uleb128 0x2b
 4770 16c9 6A00      	.string"j"
 4771 16cb 02        	.byte0x2
 4772 16cc 0314      	.word0x314
 4773 16ce 0000 0074 	.long0x74
 4774 16d2 02        	.uleb128 0x2
 4775 16d3 91        	.byte0x91
 4776 16d4 76        	.sleb128 -10
 4777 16d5 2C        	.uleb128 0x2c
 4778 16d6 0000 0000 	.long.LASF370
 4779 16da 0000 16F5 	.long0x16f5
 4780 16de 05        	.uleb128 0x5
 4781 16df 03        	.byte0x3
 4782 16e0 0000 0000 	.long__func__.5835
 4783 16e4 00        	.byte0
 4784 16e5 06        	.uleb128 0x6
 4785 16e6 0000 00BD 	.long0xbd
 4786 16ea 0000 16F5 	.long0x16f5
 4787 16ee 07        	.uleb128 0x7
 4788 16ef 0000 0091 	.long0x91
 4789 16f3 14        	.byte0x14
 4790 16f4 00        	.byte0
 4791 16f5 05        	.uleb128 0x5
 4792 16f6 0000 16E5 	.long0x16e5
 4793 16fa 2A        	.uleb128 0x2a
 4794 16fb 0000 0000 	.long.LASF348
 4795 16ff 02        	.byte0x2
 4796 1700 020D      	.word0x20d
 4797 1702 0000 0000 	.long.LFB61
 4798 1706 0000 03A2 	.long.LFE61-.LFB61
 4799 170a 01        	.uleb128 0x1
 4800 170b 9C        	.byte0x9c
 4801 170c 0000 176B 	.long0x176b
 4802 1710 28        	.uleb128 0x28
 4803 1711 0000 0000 	.long.LASF349
 4804 1715 02        	.byte0x2
 4805 1716 020D      	.word0x20d
 4806 1718 0000 0086 	.long0x86
 4807 171c 02        	.uleb128 0x2
68K GAS   			page 122


 4808 171d 91        	.byte0x91
 4809 171e 00        	.sleb128 0
 4810 171f 29        	.uleb128 0x29
 4811 1720 0000 0000 	.long.LASF350
 4812 1724 02        	.byte0x2
 4813 1725 020F      	.word0x20f
 4814 1727 0000 0050 	.long0x50
 4815 172b 02        	.uleb128 0x2
 4816 172c 91        	.byte0x91
 4817 172d 74        	.sleb128 -12
 4818 172e 29        	.uleb128 0x29
 4819 172f 0000 0000 	.long.LASF351
 4820 1733 02        	.byte0x2
 4821 1734 0210      	.word0x210
 4822 1736 0000 009F 	.long0x9f
 4823 173a 02        	.uleb128 0x2
 4824 173b 91        	.byte0x91
 4825 173c 6C        	.sleb128 -20
 4826 173d 29        	.uleb128 0x29
 4827 173e 0000 0000 	.long.LASF352
 4828 1742 02        	.byte0x2
 4829 1743 0211      	.word0x211
 4830 1745 0000 0086 	.long0x86
 4831 1749 02        	.uleb128 0x2
 4832 174a 91        	.byte0x91
 4833 174b 68        	.sleb128 -24
 4834 174c 29        	.uleb128 0x29
 4835 174d 0000 0000 	.long.LASF353
 4836 1751 02        	.byte0x2
 4837 1752 0212      	.word0x212
 4838 1754 0000 0050 	.long0x50
 4839 1758 02        	.uleb128 0x2
 4840 1759 91        	.byte0x91
 4841 175a 78        	.sleb128 -8
 4842 175b 29        	.uleb128 0x29
 4843 175c 0000 0000 	.long.LASF354
 4844 1760 02        	.byte0x2
 4845 1761 0213      	.word0x213
 4846 1763 0000 0050 	.long0x50
 4847 1767 02        	.uleb128 0x2
 4848 1768 91        	.byte0x91
 4849 1769 70        	.sleb128 -16
 4850 176a 00        	.byte0
 4851 176b 2A        	.uleb128 0x2a
 4852 176c 0000 0000 	.long.LASF355
 4853 1770 02        	.byte0x2
 4854 1771 012E      	.word0x12e
 4855 1773 0000 0000 	.long.LFB60
 4856 1777 0000 03C6 	.long.LFE60-.LFB60
 4857 177b 01        	.uleb128 0x1
 4858 177c 9C        	.byte0x9c
 4859 177d 0000 17DC 	.long0x17dc
 4860 1781 28        	.uleb128 0x28
 4861 1782 0000 0000 	.long.LASF356
 4862 1786 02        	.byte0x2
 4863 1787 012E      	.word0x12e
 4864 1789 0000 0086 	.long0x86
68K GAS   			page 123


 4865 178d 02        	.uleb128 0x2
 4866 178e 91        	.byte0x91
 4867 178f 00        	.sleb128 0
 4868 1790 28        	.uleb128 0x28
 4869 1791 0000 0000 	.long.LASF357
 4870 1795 02        	.byte0x2
 4871 1796 012E      	.word0x12e
 4872 1798 0000 0086 	.long0x86
 4873 179c 02        	.uleb128 0x2
 4874 179d 91        	.byte0x91
 4875 179e 04        	.sleb128 4
 4876 179f 28        	.uleb128 0x28
 4877 17a0 0000 0000 	.long.LASF185
 4878 17a4 02        	.byte0x2
 4879 17a5 012E      	.word0x12e
 4880 17a7 0000 0086 	.long0x86
 4881 17ab 02        	.uleb128 0x2
 4882 17ac 91        	.byte0x91
 4883 17ad 08        	.sleb128 8
 4884 17ae 29        	.uleb128 0x29
 4885 17af 0000 0000 	.long.LASF358
 4886 17b3 02        	.byte0x2
 4887 17b4 0131      	.word0x131
 4888 17b6 0000 0050 	.long0x50
 4889 17ba 02        	.uleb128 0x2
 4890 17bb 91        	.byte0x91
 4891 17bc 78        	.sleb128 -8
 4892 17bd 29        	.uleb128 0x29
 4893 17be 0000 0000 	.long.LASF359
 4894 17c2 02        	.byte0x2
 4895 17c3 0132      	.word0x132
 4896 17c5 0000 0086 	.long0x86
 4897 17c9 02        	.uleb128 0x2
 4898 17ca 91        	.byte0x91
 4899 17cb 74        	.sleb128 -12
 4900 17cc 29        	.uleb128 0x29
 4901 17cd 0000 0000 	.long.LASF360
 4902 17d1 02        	.byte0x2
 4903 17d2 0133      	.word0x133
 4904 17d4 0000 009F 	.long0x9f
 4905 17d8 02        	.uleb128 0x2
 4906 17d9 91        	.byte0x91
 4907 17da 70        	.sleb128 -16
 4908 17db 00        	.byte0
 4909 17dc 2D        	.uleb128 0x2d
 4910 17dd 0000 0000 	.long.LASF361
 4911 17e1 02        	.byte0x2
 4912 17e2 A4        	.byte0xa4
 4913 17e3 0000 0000 	.long.LFB59
 4914 17e7 0000 0190 	.long.LFE59-.LFB59
 4915 17eb 01        	.uleb128 0x1
 4916 17ec 9C        	.byte0x9c
 4917 17ed 0000 1844 	.long0x1844
 4918 17f1 2E        	.uleb128 0x2e
 4919 17f2 0000 0000 	.long.LASF356
 4920 17f6 02        	.byte0x2
 4921 17f7 A4        	.byte0xa4
68K GAS   			page 124


 4922 17f8 0000 0086 	.long0x86
 4923 17fc 02        	.uleb128 0x2
 4924 17fd 91        	.byte0x91
 4925 17fe 00        	.sleb128 0
 4926 17ff 2E        	.uleb128 0x2e
 4927 1800 0000 0000 	.long.LASF357
 4928 1804 02        	.byte0x2
 4929 1805 A4        	.byte0xa4
 4930 1806 0000 0086 	.long0x86
 4931 180a 02        	.uleb128 0x2
 4932 180b 91        	.byte0x91
 4933 180c 04        	.sleb128 4
 4934 180d 2E        	.uleb128 0x2e
 4935 180e 0000 0000 	.long.LASF362
 4936 1812 02        	.byte0x2
 4937 1813 A4        	.byte0xa4
 4938 1814 0000 0086 	.long0x86
 4939 1818 02        	.uleb128 0x2
 4940 1819 91        	.byte0x91
 4941 181a 08        	.sleb128 8
 4942 181b 2E        	.uleb128 0x2e
 4943 181c 0000 0000 	.long.LASF363
 4944 1820 02        	.byte0x2
 4945 1821 A4        	.byte0xa4
 4946 1822 0000 0182 	.long0x182
 4947 1826 02        	.uleb128 0x2
 4948 1827 91        	.byte0x91
 4949 1828 0C        	.sleb128 12
 4950 1829 2F        	.uleb128 0x2f
 4951 182a 6900      	.string"i"
 4952 182c 02        	.byte0x2
 4953 182d A6        	.byte0xa6
 4954 182e 0000 0086 	.long0x86
 4955 1832 02        	.uleb128 0x2
 4956 1833 91        	.byte0x91
 4957 1834 78        	.sleb128 -8
 4958 1835 30        	.uleb128 0x30
 4959 1836 0000 0000 	.long.LASF344
 4960 183a 02        	.byte0x2
 4961 183b A7        	.byte0xa7
 4962 183c 0000 0050 	.long0x50
 4963 1840 02        	.uleb128 0x2
 4964 1841 91        	.byte0x91
 4965 1842 74        	.sleb128 -12
 4966 1843 00        	.byte0
 4967 1844 31        	.uleb128 0x31
 4968 1845 0000 0000 	.long.LASF371
 4969 1849 01        	.byte0x1
 4970 184a 01C1      	.word0x1c1
 4971 184c 0000 0050 	.long0x50
 4972 1850 0000 0000 	.long.LFB58
 4973 1854 0000 000C 	.long.LFE58-.LFB58
 4974 1858 01        	.uleb128 0x1
 4975 1859 9C        	.byte0x9c
 4976 185a 0000 187D 	.long0x187d
 4977 185e 28        	.uleb128 0x28
 4978 185f 0000 0000 	.long.LASF364
68K GAS   			page 125


 4979 1863 01        	.byte0x1
 4980 1864 01C1      	.word0x1c1
 4981 1866 0000 0086 	.long0x86
 4982 186a 02        	.uleb128 0x2
 4983 186b 91        	.byte0x91
 4984 186c 00        	.sleb128 0
 4985 186d 28        	.uleb128 0x28
 4986 186e 0000 0000 	.long.LASF365
 4987 1872 01        	.byte0x1
 4988 1873 01C1      	.word0x1c1
 4989 1875 0000 187D 	.long0x187d
 4990 1879 02        	.uleb128 0x2
 4991 187a 91        	.byte0x91
 4992 187b 04        	.sleb128 4
 4993 187c 00        	.byte0
 4994 187d 0D        	.uleb128 0xd
 4995 187e 04        	.byte0x4
 4996 187f 0000 0086 	.long0x86
 4997 1883 00        	.byte0
 4998               	.section.debug_abbrev,"",@progbits
 4999               	.Ldebug_abbrev0:
 5000 0000 01        	.uleb128 0x1
 5001 0001 11        	.uleb128 0x11
 5002 0002 01        	.byte0x1
 5003 0003 25        	.uleb128 0x25
 5004 0004 0E        	.uleb128 0xe
 5005 0005 13        	.uleb128 0x13
 5006 0006 0B        	.uleb128 0xb
 5007 0007 03        	.uleb128 0x3
 5008 0008 0E        	.uleb128 0xe
 5009 0009 1B        	.uleb128 0x1b
 5010 000a 0E        	.uleb128 0xe
 5011 000b 11        	.uleb128 0x11
 5012 000c 01        	.uleb128 0x1
 5013 000d 12        	.uleb128 0x12
 5014 000e 06        	.uleb128 0x6
 5015 000f 10        	.uleb128 0x10
 5016 0010 17        	.uleb128 0x17
 5017 0011 00        	.byte0
 5018 0012 00        	.byte0
 5019 0013 02        	.uleb128 0x2
 5020 0014 16        	.uleb128 0x16
 5021 0015 00        	.byte0
 5022 0016 03        	.uleb128 0x3
 5023 0017 0E        	.uleb128 0xe
 5024 0018 3A        	.uleb128 0x3a
 5025 0019 0B        	.uleb128 0xb
 5026 001a 3B        	.uleb128 0x3b
 5027 001b 0B        	.uleb128 0xb
 5028 001c 49        	.uleb128 0x49
 5029 001d 13        	.uleb128 0x13
 5030 001e 00        	.byte0
 5031 001f 00        	.byte0
 5032 0020 03        	.uleb128 0x3
 5033 0021 24        	.uleb128 0x24
 5034 0022 00        	.byte0
 5035 0023 0B        	.uleb128 0xb
68K GAS   			page 126


 5036 0024 0B        	.uleb128 0xb
 5037 0025 3E        	.uleb128 0x3e
 5038 0026 0B        	.uleb128 0xb
 5039 0027 03        	.uleb128 0x3
 5040 0028 0E        	.uleb128 0xe
 5041 0029 00        	.byte0
 5042 002a 00        	.byte0
 5043 002b 04        	.uleb128 0x4
 5044 002c 16        	.uleb128 0x16
 5045 002d 00        	.byte0
 5046 002e 03        	.uleb128 0x3
 5047 002f 0E        	.uleb128 0xe
 5048 0030 3A        	.uleb128 0x3a
 5049 0031 0B        	.uleb128 0xb
 5050 0032 3B        	.uleb128 0x3b
 5051 0033 05        	.uleb128 0x5
 5052 0034 49        	.uleb128 0x49
 5053 0035 13        	.uleb128 0x13
 5054 0036 00        	.byte0
 5055 0037 00        	.byte0
 5056 0038 05        	.uleb128 0x5
 5057 0039 26        	.uleb128 0x26
 5058 003a 00        	.byte0
 5059 003b 49        	.uleb128 0x49
 5060 003c 13        	.uleb128 0x13
 5061 003d 00        	.byte0
 5062 003e 00        	.byte0
 5063 003f 06        	.uleb128 0x6
 5064 0040 01        	.uleb128 0x1
 5065 0041 01        	.byte0x1
 5066 0042 49        	.uleb128 0x49
 5067 0043 13        	.uleb128 0x13
 5068 0044 01        	.uleb128 0x1
 5069 0045 13        	.uleb128 0x13
 5070 0046 00        	.byte0
 5071 0047 00        	.byte0
 5072 0048 07        	.uleb128 0x7
 5073 0049 21        	.uleb128 0x21
 5074 004a 00        	.byte0
 5075 004b 49        	.uleb128 0x49
 5076 004c 13        	.uleb128 0x13
 5077 004d 2F        	.uleb128 0x2f
 5078 004e 0B        	.uleb128 0xb
 5079 004f 00        	.byte0
 5080 0050 00        	.byte0
 5081 0051 08        	.uleb128 0x8
 5082 0052 0F        	.uleb128 0xf
 5083 0053 00        	.byte0
 5084 0054 0B        	.uleb128 0xb
 5085 0055 0B        	.uleb128 0xb
 5086 0056 00        	.byte0
 5087 0057 00        	.byte0
 5088 0058 09        	.uleb128 0x9
 5089 0059 24        	.uleb128 0x24
 5090 005a 00        	.byte0
 5091 005b 0B        	.uleb128 0xb
 5092 005c 0B        	.uleb128 0xb
68K GAS   			page 127


 5093 005d 3E        	.uleb128 0x3e
 5094 005e 0B        	.uleb128 0xb
 5095 005f 03        	.uleb128 0x3
 5096 0060 08        	.uleb128 0x8
 5097 0061 00        	.byte0
 5098 0062 00        	.byte0
 5099 0063 0A        	.uleb128 0xa
 5100 0064 13        	.uleb128 0x13
 5101 0065 01        	.byte0x1
 5102 0066 03        	.uleb128 0x3
 5103 0067 0E        	.uleb128 0xe
 5104 0068 0B        	.uleb128 0xb
 5105 0069 0B        	.uleb128 0xb
 5106 006a 3A        	.uleb128 0x3a
 5107 006b 0B        	.uleb128 0xb
 5108 006c 3B        	.uleb128 0x3b
 5109 006d 0B        	.uleb128 0xb
 5110 006e 01        	.uleb128 0x1
 5111 006f 13        	.uleb128 0x13
 5112 0070 00        	.byte0
 5113 0071 00        	.byte0
 5114 0072 0B        	.uleb128 0xb
 5115 0073 0D        	.uleb128 0xd
 5116 0074 00        	.byte0
 5117 0075 03        	.uleb128 0x3
 5118 0076 0E        	.uleb128 0xe
 5119 0077 3A        	.uleb128 0x3a
 5120 0078 0B        	.uleb128 0xb
 5121 0079 3B        	.uleb128 0x3b
 5122 007a 0B        	.uleb128 0xb
 5123 007b 49        	.uleb128 0x49
 5124 007c 13        	.uleb128 0x13
 5125 007d 38        	.uleb128 0x38
 5126 007e 0B        	.uleb128 0xb
 5127 007f 00        	.byte0
 5128 0080 00        	.byte0
 5129 0081 0C        	.uleb128 0xc
 5130 0082 13        	.uleb128 0x13
 5131 0083 00        	.byte0
 5132 0084 03        	.uleb128 0x3
 5133 0085 0E        	.uleb128 0xe
 5134 0086 3C        	.uleb128 0x3c
 5135 0087 19        	.uleb128 0x19
 5136 0088 00        	.byte0
 5137 0089 00        	.byte0
 5138 008a 0D        	.uleb128 0xd
 5139 008b 0F        	.uleb128 0xf
 5140 008c 00        	.byte0
 5141 008d 0B        	.uleb128 0xb
 5142 008e 0B        	.uleb128 0xb
 5143 008f 49        	.uleb128 0x49
 5144 0090 13        	.uleb128 0x13
 5145 0091 00        	.byte0
 5146 0092 00        	.byte0
 5147 0093 0E        	.uleb128 0xe
 5148 0094 17        	.uleb128 0x17
 5149 0095 01        	.byte0x1
68K GAS   			page 128


 5150 0096 0B        	.uleb128 0xb
 5151 0097 0B        	.uleb128 0xb
 5152 0098 3A        	.uleb128 0x3a
 5153 0099 0B        	.uleb128 0xb
 5154 009a 3B        	.uleb128 0x3b
 5155 009b 0B        	.uleb128 0xb
 5156 009c 01        	.uleb128 0x1
 5157 009d 13        	.uleb128 0x13
 5158 009e 00        	.byte0
 5159 009f 00        	.byte0
 5160 00a0 0F        	.uleb128 0xf
 5161 00a1 0D        	.uleb128 0xd
 5162 00a2 00        	.byte0
 5163 00a3 03        	.uleb128 0x3
 5164 00a4 0E        	.uleb128 0xe
 5165 00a5 3A        	.uleb128 0x3a
 5166 00a6 0B        	.uleb128 0xb
 5167 00a7 3B        	.uleb128 0x3b
 5168 00a8 0B        	.uleb128 0xb
 5169 00a9 49        	.uleb128 0x49
 5170 00aa 13        	.uleb128 0x13
 5171 00ab 00        	.byte0
 5172 00ac 00        	.byte0
 5173 00ad 10        	.uleb128 0x10
 5174 00ae 13        	.uleb128 0x13
 5175 00af 01        	.byte0x1
 5176 00b0 0B        	.uleb128 0xb
 5177 00b1 0B        	.uleb128 0xb
 5178 00b2 3A        	.uleb128 0x3a
 5179 00b3 0B        	.uleb128 0xb
 5180 00b4 3B        	.uleb128 0x3b
 5181 00b5 0B        	.uleb128 0xb
 5182 00b6 01        	.uleb128 0x1
 5183 00b7 13        	.uleb128 0x13
 5184 00b8 00        	.byte0
 5185 00b9 00        	.byte0
 5186 00ba 11        	.uleb128 0x11
 5187 00bb 0D        	.uleb128 0xd
 5188 00bc 00        	.byte0
 5189 00bd 03        	.uleb128 0x3
 5190 00be 08        	.uleb128 0x8
 5191 00bf 3A        	.uleb128 0x3a
 5192 00c0 0B        	.uleb128 0xb
 5193 00c1 3B        	.uleb128 0x3b
 5194 00c2 0B        	.uleb128 0xb
 5195 00c3 49        	.uleb128 0x49
 5196 00c4 13        	.uleb128 0x13
 5197 00c5 38        	.uleb128 0x38
 5198 00c6 0B        	.uleb128 0xb
 5199 00c7 00        	.byte0
 5200 00c8 00        	.byte0
 5201 00c9 12        	.uleb128 0x12
 5202 00ca 13        	.uleb128 0x13
 5203 00cb 01        	.byte0x1
 5204 00cc 03        	.uleb128 0x3
 5205 00cd 0E        	.uleb128 0xe
 5206 00ce 0B        	.uleb128 0xb
68K GAS   			page 129


 5207 00cf 05        	.uleb128 0x5
 5208 00d0 3A        	.uleb128 0x3a
 5209 00d1 0B        	.uleb128 0xb
 5210 00d2 3B        	.uleb128 0x3b
 5211 00d3 0B        	.uleb128 0xb
 5212 00d4 01        	.uleb128 0x1
 5213 00d5 13        	.uleb128 0x13
 5214 00d6 00        	.byte0
 5215 00d7 00        	.byte0
 5216 00d8 13        	.uleb128 0x13
 5217 00d9 0D        	.uleb128 0xd
 5218 00da 00        	.byte0
 5219 00db 03        	.uleb128 0x3
 5220 00dc 0E        	.uleb128 0xe
 5221 00dd 3A        	.uleb128 0x3a
 5222 00de 0B        	.uleb128 0xb
 5223 00df 3B        	.uleb128 0x3b
 5224 00e0 0B        	.uleb128 0xb
 5225 00e1 49        	.uleb128 0x49
 5226 00e2 13        	.uleb128 0x13
 5227 00e3 38        	.uleb128 0x38
 5228 00e4 05        	.uleb128 0x5
 5229 00e5 00        	.byte0
 5230 00e6 00        	.byte0
 5231 00e7 14        	.uleb128 0x14
 5232 00e8 15        	.uleb128 0x15
 5233 00e9 00        	.byte0
 5234 00ea 27        	.uleb128 0x27
 5235 00eb 19        	.uleb128 0x19
 5236 00ec 00        	.byte0
 5237 00ed 00        	.byte0
 5238 00ee 15        	.uleb128 0x15
 5239 00ef 15        	.uleb128 0x15
 5240 00f0 01        	.byte0x1
 5241 00f1 27        	.uleb128 0x27
 5242 00f2 19        	.uleb128 0x19
 5243 00f3 49        	.uleb128 0x49
 5244 00f4 13        	.uleb128 0x13
 5245 00f5 01        	.uleb128 0x1
 5246 00f6 13        	.uleb128 0x13
 5247 00f7 00        	.byte0
 5248 00f8 00        	.byte0
 5249 00f9 16        	.uleb128 0x16
 5250 00fa 05        	.uleb128 0x5
 5251 00fb 00        	.byte0
 5252 00fc 49        	.uleb128 0x49
 5253 00fd 13        	.uleb128 0x13
 5254 00fe 00        	.byte0
 5255 00ff 00        	.byte0
 5256 0100 17        	.uleb128 0x17
 5257 0101 13        	.uleb128 0x13
 5258 0102 01        	.byte0x1
 5259 0103 03        	.uleb128 0x3
 5260 0104 0E        	.uleb128 0xe
 5261 0105 0B        	.uleb128 0xb
 5262 0106 05        	.uleb128 0x5
 5263 0107 3A        	.uleb128 0x3a
68K GAS   			page 130


 5264 0108 0B        	.uleb128 0xb
 5265 0109 3B        	.uleb128 0x3b
 5266 010a 05        	.uleb128 0x5
 5267 010b 01        	.uleb128 0x1
 5268 010c 13        	.uleb128 0x13
 5269 010d 00        	.byte0
 5270 010e 00        	.byte0
 5271 010f 18        	.uleb128 0x18
 5272 0110 0D        	.uleb128 0xd
 5273 0111 00        	.byte0
 5274 0112 03        	.uleb128 0x3
 5275 0113 0E        	.uleb128 0xe
 5276 0114 3A        	.uleb128 0x3a
 5277 0115 0B        	.uleb128 0xb
 5278 0116 3B        	.uleb128 0x3b
 5279 0117 05        	.uleb128 0x5
 5280 0118 49        	.uleb128 0x49
 5281 0119 13        	.uleb128 0x13
 5282 011a 38        	.uleb128 0x38
 5283 011b 0B        	.uleb128 0xb
 5284 011c 00        	.byte0
 5285 011d 00        	.byte0
 5286 011e 19        	.uleb128 0x19
 5287 011f 0D        	.uleb128 0xd
 5288 0120 00        	.byte0
 5289 0121 03        	.uleb128 0x3
 5290 0122 0E        	.uleb128 0xe
 5291 0123 3A        	.uleb128 0x3a
 5292 0124 0B        	.uleb128 0xb
 5293 0125 3B        	.uleb128 0x3b
 5294 0126 05        	.uleb128 0x5
 5295 0127 49        	.uleb128 0x49
 5296 0128 13        	.uleb128 0x13
 5297 0129 38        	.uleb128 0x38
 5298 012a 05        	.uleb128 0x5
 5299 012b 00        	.byte0
 5300 012c 00        	.byte0
 5301 012d 1A        	.uleb128 0x1a
 5302 012e 13        	.uleb128 0x13
 5303 012f 01        	.byte0x1
 5304 0130 03        	.uleb128 0x3
 5305 0131 0E        	.uleb128 0xe
 5306 0132 0B        	.uleb128 0xb
 5307 0133 0B        	.uleb128 0xb
 5308 0134 3A        	.uleb128 0x3a
 5309 0135 0B        	.uleb128 0xb
 5310 0136 3B        	.uleb128 0x3b
 5311 0137 05        	.uleb128 0x5
 5312 0138 01        	.uleb128 0x1
 5313 0139 13        	.uleb128 0x13
 5314 013a 00        	.byte0
 5315 013b 00        	.byte0
 5316 013c 1B        	.uleb128 0x1b
 5317 013d 13        	.uleb128 0x13
 5318 013e 01        	.byte0x1
 5319 013f 0B        	.uleb128 0xb
 5320 0140 0B        	.uleb128 0xb
68K GAS   			page 131


 5321 0141 3A        	.uleb128 0x3a
 5322 0142 0B        	.uleb128 0xb
 5323 0143 3B        	.uleb128 0x3b
 5324 0144 05        	.uleb128 0x5
 5325 0145 01        	.uleb128 0x1
 5326 0146 13        	.uleb128 0x13
 5327 0147 00        	.byte0
 5328 0148 00        	.byte0
 5329 0149 1C        	.uleb128 0x1c
 5330 014a 17        	.uleb128 0x17
 5331 014b 01        	.byte0x1
 5332 014c 0B        	.uleb128 0xb
 5333 014d 0B        	.uleb128 0xb
 5334 014e 3A        	.uleb128 0x3a
 5335 014f 0B        	.uleb128 0xb
 5336 0150 3B        	.uleb128 0x3b
 5337 0151 05        	.uleb128 0x5
 5338 0152 01        	.uleb128 0x1
 5339 0153 13        	.uleb128 0x13
 5340 0154 00        	.byte0
 5341 0155 00        	.byte0
 5342 0156 1D        	.uleb128 0x1d
 5343 0157 0D        	.uleb128 0xd
 5344 0158 00        	.byte0
 5345 0159 03        	.uleb128 0x3
 5346 015a 0E        	.uleb128 0xe
 5347 015b 3A        	.uleb128 0x3a
 5348 015c 0B        	.uleb128 0xb
 5349 015d 3B        	.uleb128 0x3b
 5350 015e 05        	.uleb128 0x5
 5351 015f 49        	.uleb128 0x49
 5352 0160 13        	.uleb128 0x13
 5353 0161 00        	.byte0
 5354 0162 00        	.byte0
 5355 0163 1E        	.uleb128 0x1e
 5356 0164 15        	.uleb128 0x15
 5357 0165 01        	.byte0x1
 5358 0166 27        	.uleb128 0x27
 5359 0167 19        	.uleb128 0x19
 5360 0168 01        	.uleb128 0x1
 5361 0169 13        	.uleb128 0x13
 5362 016a 00        	.byte0
 5363 016b 00        	.byte0
 5364 016c 1F        	.uleb128 0x1f
 5365 016d 34        	.uleb128 0x34
 5366 016e 00        	.byte0
 5367 016f 03        	.uleb128 0x3
 5368 0170 0E        	.uleb128 0xe
 5369 0171 3A        	.uleb128 0x3a
 5370 0172 0B        	.uleb128 0xb
 5371 0173 3B        	.uleb128 0x3b
 5372 0174 05        	.uleb128 0x5
 5373 0175 49        	.uleb128 0x49
 5374 0176 13        	.uleb128 0x13
 5375 0177 3F        	.uleb128 0x3f
 5376 0178 19        	.uleb128 0x19
 5377 0179 3C        	.uleb128 0x3c
68K GAS   			page 132


 5378 017a 19        	.uleb128 0x19
 5379 017b 00        	.byte0
 5380 017c 00        	.byte0
 5381 017d 20        	.uleb128 0x20
 5382 017e 34        	.uleb128 0x34
 5383 017f 00        	.byte0
 5384 0180 03        	.uleb128 0x3
 5385 0181 0E        	.uleb128 0xe
 5386 0182 3A        	.uleb128 0x3a
 5387 0183 0B        	.uleb128 0xb
 5388 0184 3B        	.uleb128 0x3b
 5389 0185 0B        	.uleb128 0xb
 5390 0186 49        	.uleb128 0x49
 5391 0187 13        	.uleb128 0x13
 5392 0188 3F        	.uleb128 0x3f
 5393 0189 19        	.uleb128 0x19
 5394 018a 3C        	.uleb128 0x3c
 5395 018b 19        	.uleb128 0x19
 5396 018c 00        	.byte0
 5397 018d 00        	.byte0
 5398 018e 21        	.uleb128 0x21
 5399 018f 15        	.uleb128 0x15
 5400 0190 00        	.byte0
 5401 0191 27        	.uleb128 0x27
 5402 0192 19        	.uleb128 0x19
 5403 0193 49        	.uleb128 0x49
 5404 0194 13        	.uleb128 0x13
 5405 0195 00        	.byte0
 5406 0196 00        	.byte0
 5407 0197 22        	.uleb128 0x22
 5408 0198 13        	.uleb128 0x13
 5409 0199 01        	.byte0x1
 5410 019a 0B        	.uleb128 0xb
 5411 019b 05        	.uleb128 0x5
 5412 019c 3A        	.uleb128 0x3a
 5413 019d 0B        	.uleb128 0xb
 5414 019e 3B        	.uleb128 0x3b
 5415 019f 0B        	.uleb128 0xb
 5416 01a0 01        	.uleb128 0x1
 5417 01a1 13        	.uleb128 0x13
 5418 01a2 00        	.byte0
 5419 01a3 00        	.byte0
 5420 01a4 23        	.uleb128 0x23
 5421 01a5 13        	.uleb128 0x13
 5422 01a6 01        	.byte0x1
 5423 01a7 0B        	.uleb128 0xb
 5424 01a8 06        	.uleb128 0x6
 5425 01a9 3A        	.uleb128 0x3a
 5426 01aa 0B        	.uleb128 0xb
 5427 01ab 3B        	.uleb128 0x3b
 5428 01ac 0B        	.uleb128 0xb
 5429 01ad 01        	.uleb128 0x1
 5430 01ae 13        	.uleb128 0x13
 5431 01af 00        	.byte0
 5432 01b0 00        	.byte0
 5433 01b1 24        	.uleb128 0x24
 5434 01b2 21        	.uleb128 0x21
68K GAS   			page 133


 5435 01b3 00        	.byte0
 5436 01b4 49        	.uleb128 0x49
 5437 01b5 13        	.uleb128 0x13
 5438 01b6 2F        	.uleb128 0x2f
 5439 01b7 05        	.uleb128 0x5
 5440 01b8 00        	.byte0
 5441 01b9 00        	.byte0
 5442 01ba 25        	.uleb128 0x25
 5443 01bb 0D        	.uleb128 0xd
 5444 01bc 00        	.byte0
 5445 01bd 03        	.uleb128 0x3
 5446 01be 0E        	.uleb128 0xe
 5447 01bf 3A        	.uleb128 0x3a
 5448 01c0 0B        	.uleb128 0xb
 5449 01c1 3B        	.uleb128 0x3b
 5450 01c2 0B        	.uleb128 0xb
 5451 01c3 49        	.uleb128 0x49
 5452 01c4 13        	.uleb128 0x13
 5453 01c5 38        	.uleb128 0x38
 5454 01c6 06        	.uleb128 0x6
 5455 01c7 00        	.byte0
 5456 01c8 00        	.byte0
 5457 01c9 26        	.uleb128 0x26
 5458 01ca 34        	.uleb128 0x34
 5459 01cb 00        	.byte0
 5460 01cc 47        	.uleb128 0x47
 5461 01cd 13        	.uleb128 0x13
 5462 01ce 3A        	.uleb128 0x3a
 5463 01cf 0B        	.uleb128 0xb
 5464 01d0 3B        	.uleb128 0x3b
 5465 01d1 0B        	.uleb128 0xb
 5466 01d2 02        	.uleb128 0x2
 5467 01d3 18        	.uleb128 0x18
 5468 01d4 00        	.byte0
 5469 01d5 00        	.byte0
 5470 01d6 27        	.uleb128 0x27
 5471 01d7 2E        	.uleb128 0x2e
 5472 01d8 01        	.byte0x1
 5473 01d9 3F        	.uleb128 0x3f
 5474 01da 19        	.uleb128 0x19
 5475 01db 03        	.uleb128 0x3
 5476 01dc 0E        	.uleb128 0xe
 5477 01dd 3A        	.uleb128 0x3a
 5478 01de 0B        	.uleb128 0xb
 5479 01df 3B        	.uleb128 0x3b
 5480 01e0 05        	.uleb128 0x5
 5481 01e1 27        	.uleb128 0x27
 5482 01e2 19        	.uleb128 0x19
 5483 01e3 49        	.uleb128 0x49
 5484 01e4 13        	.uleb128 0x13
 5485 01e5 11        	.uleb128 0x11
 5486 01e6 01        	.uleb128 0x1
 5487 01e7 12        	.uleb128 0x12
 5488 01e8 06        	.uleb128 0x6
 5489 01e9 40        	.uleb128 0x40
 5490 01ea 18        	.uleb128 0x18
 5491 01eb 9642      	.uleb128 0x2116
68K GAS   			page 134


 5492 01ed 19        	.uleb128 0x19
 5493 01ee 01        	.uleb128 0x1
 5494 01ef 13        	.uleb128 0x13
 5495 01f0 00        	.byte0
 5496 01f1 00        	.byte0
 5497 01f2 28        	.uleb128 0x28
 5498 01f3 05        	.uleb128 0x5
 5499 01f4 00        	.byte0
 5500 01f5 03        	.uleb128 0x3
 5501 01f6 0E        	.uleb128 0xe
 5502 01f7 3A        	.uleb128 0x3a
 5503 01f8 0B        	.uleb128 0xb
 5504 01f9 3B        	.uleb128 0x3b
 5505 01fa 05        	.uleb128 0x5
 5506 01fb 49        	.uleb128 0x49
 5507 01fc 13        	.uleb128 0x13
 5508 01fd 02        	.uleb128 0x2
 5509 01fe 18        	.uleb128 0x18
 5510 01ff 00        	.byte0
 5511 0200 00        	.byte0
 5512 0201 29        	.uleb128 0x29
 5513 0202 34        	.uleb128 0x34
 5514 0203 00        	.byte0
 5515 0204 03        	.uleb128 0x3
 5516 0205 0E        	.uleb128 0xe
 5517 0206 3A        	.uleb128 0x3a
 5518 0207 0B        	.uleb128 0xb
 5519 0208 3B        	.uleb128 0x3b
 5520 0209 05        	.uleb128 0x5
 5521 020a 49        	.uleb128 0x49
 5522 020b 13        	.uleb128 0x13
 5523 020c 02        	.uleb128 0x2
 5524 020d 18        	.uleb128 0x18
 5525 020e 00        	.byte0
 5526 020f 00        	.byte0
 5527 0210 2A        	.uleb128 0x2a
 5528 0211 2E        	.uleb128 0x2e
 5529 0212 01        	.byte0x1
 5530 0213 3F        	.uleb128 0x3f
 5531 0214 19        	.uleb128 0x19
 5532 0215 03        	.uleb128 0x3
 5533 0216 0E        	.uleb128 0xe
 5534 0217 3A        	.uleb128 0x3a
 5535 0218 0B        	.uleb128 0xb
 5536 0219 3B        	.uleb128 0x3b
 5537 021a 05        	.uleb128 0x5
 5538 021b 27        	.uleb128 0x27
 5539 021c 19        	.uleb128 0x19
 5540 021d 11        	.uleb128 0x11
 5541 021e 01        	.uleb128 0x1
 5542 021f 12        	.uleb128 0x12
 5543 0220 06        	.uleb128 0x6
 5544 0221 40        	.uleb128 0x40
 5545 0222 18        	.uleb128 0x18
 5546 0223 9642      	.uleb128 0x2116
 5547 0225 19        	.uleb128 0x19
 5548 0226 01        	.uleb128 0x1
68K GAS   			page 135


 5549 0227 13        	.uleb128 0x13
 5550 0228 00        	.byte0
 5551 0229 00        	.byte0
 5552 022a 2B        	.uleb128 0x2b
 5553 022b 34        	.uleb128 0x34
 5554 022c 00        	.byte0
 5555 022d 03        	.uleb128 0x3
 5556 022e 08        	.uleb128 0x8
 5557 022f 3A        	.uleb128 0x3a
 5558 0230 0B        	.uleb128 0xb
 5559 0231 3B        	.uleb128 0x3b
 5560 0232 05        	.uleb128 0x5
 5561 0233 49        	.uleb128 0x49
 5562 0234 13        	.uleb128 0x13
 5563 0235 02        	.uleb128 0x2
 5564 0236 18        	.uleb128 0x18
 5565 0237 00        	.byte0
 5566 0238 00        	.byte0
 5567 0239 2C        	.uleb128 0x2c
 5568 023a 34        	.uleb128 0x34
 5569 023b 00        	.byte0
 5570 023c 03        	.uleb128 0x3
 5571 023d 0E        	.uleb128 0xe
 5572 023e 49        	.uleb128 0x49
 5573 023f 13        	.uleb128 0x13
 5574 0240 34        	.uleb128 0x34
 5575 0241 19        	.uleb128 0x19
 5576 0242 02        	.uleb128 0x2
 5577 0243 18        	.uleb128 0x18
 5578 0244 00        	.byte0
 5579 0245 00        	.byte0
 5580 0246 2D        	.uleb128 0x2d
 5581 0247 2E        	.uleb128 0x2e
 5582 0248 01        	.byte0x1
 5583 0249 3F        	.uleb128 0x3f
 5584 024a 19        	.uleb128 0x19
 5585 024b 03        	.uleb128 0x3
 5586 024c 0E        	.uleb128 0xe
 5587 024d 3A        	.uleb128 0x3a
 5588 024e 0B        	.uleb128 0xb
 5589 024f 3B        	.uleb128 0x3b
 5590 0250 0B        	.uleb128 0xb
 5591 0251 27        	.uleb128 0x27
 5592 0252 19        	.uleb128 0x19
 5593 0253 11        	.uleb128 0x11
 5594 0254 01        	.uleb128 0x1
 5595 0255 12        	.uleb128 0x12
 5596 0256 06        	.uleb128 0x6
 5597 0257 40        	.uleb128 0x40
 5598 0258 18        	.uleb128 0x18
 5599 0259 9642      	.uleb128 0x2116
 5600 025b 19        	.uleb128 0x19
 5601 025c 01        	.uleb128 0x1
 5602 025d 13        	.uleb128 0x13
 5603 025e 00        	.byte0
 5604 025f 00        	.byte0
 5605 0260 2E        	.uleb128 0x2e
68K GAS   			page 136


 5606 0261 05        	.uleb128 0x5
 5607 0262 00        	.byte0
 5608 0263 03        	.uleb128 0x3
 5609 0264 0E        	.uleb128 0xe
 5610 0265 3A        	.uleb128 0x3a
 5611 0266 0B        	.uleb128 0xb
 5612 0267 3B        	.uleb128 0x3b
 5613 0268 0B        	.uleb128 0xb
 5614 0269 49        	.uleb128 0x49
 5615 026a 13        	.uleb128 0x13
 5616 026b 02        	.uleb128 0x2
 5617 026c 18        	.uleb128 0x18
 5618 026d 00        	.byte0
 5619 026e 00        	.byte0
 5620 026f 2F        	.uleb128 0x2f
 5621 0270 34        	.uleb128 0x34
 5622 0271 00        	.byte0
 5623 0272 03        	.uleb128 0x3
 5624 0273 08        	.uleb128 0x8
 5625 0274 3A        	.uleb128 0x3a
 5626 0275 0B        	.uleb128 0xb
 5627 0276 3B        	.uleb128 0x3b
 5628 0277 0B        	.uleb128 0xb
 5629 0278 49        	.uleb128 0x49
 5630 0279 13        	.uleb128 0x13
 5631 027a 02        	.uleb128 0x2
 5632 027b 18        	.uleb128 0x18
 5633 027c 00        	.byte0
 5634 027d 00        	.byte0
 5635 027e 30        	.uleb128 0x30
 5636 027f 34        	.uleb128 0x34
 5637 0280 00        	.byte0
 5638 0281 03        	.uleb128 0x3
 5639 0282 0E        	.uleb128 0xe
 5640 0283 3A        	.uleb128 0x3a
 5641 0284 0B        	.uleb128 0xb
 5642 0285 3B        	.uleb128 0x3b
 5643 0286 0B        	.uleb128 0xb
 5644 0287 49        	.uleb128 0x49
 5645 0288 13        	.uleb128 0x13
 5646 0289 02        	.uleb128 0x2
 5647 028a 18        	.uleb128 0x18
 5648 028b 00        	.byte0
 5649 028c 00        	.byte0
 5650 028d 31        	.uleb128 0x31
 5651 028e 2E        	.uleb128 0x2e
 5652 028f 01        	.byte0x1
 5653 0290 03        	.uleb128 0x3
 5654 0291 0E        	.uleb128 0xe
 5655 0292 3A        	.uleb128 0x3a
 5656 0293 0B        	.uleb128 0xb
 5657 0294 3B        	.uleb128 0x3b
 5658 0295 05        	.uleb128 0x5
 5659 0296 27        	.uleb128 0x27
 5660 0297 19        	.uleb128 0x19
 5661 0298 49        	.uleb128 0x49
 5662 0299 13        	.uleb128 0x13
68K GAS   			page 137


 5663 029a 11        	.uleb128 0x11
 5664 029b 01        	.uleb128 0x1
 5665 029c 12        	.uleb128 0x12
 5666 029d 06        	.uleb128 0x6
 5667 029e 40        	.uleb128 0x40
 5668 029f 18        	.uleb128 0x18
 5669 02a0 9742      	.uleb128 0x2117
 5670 02a2 19        	.uleb128 0x19
 5671 02a3 01        	.uleb128 0x1
 5672 02a4 13        	.uleb128 0x13
 5673 02a5 00        	.byte0
 5674 02a6 00        	.byte0
 5675 02a7 00        	.byte0
 5676               	.section.debug_aranges,"",@progbits
 5677 0000 0000 001C 	.long0x1c
 5678 0004 0002      	.word0x2
 5679 0006 0000 0000 	.long.Ldebug_info0
 5680 000a 04        	.byte0x4
 5681 000b 00        	.byte0
 5682 000c 0000      	.word0
 5683 000e 0000      	.word0
 5684 0010 0000 0000 	.long.Ltext0
 5685 0014 0000 1054 	.long.Letext0-.Ltext0
 5686 0018 0000 0000 	.long0
 5687 001c 0000 0000 	.long0
 5688               	.section.debug_line,"",@progbits
 5689               	.Ldebug_line0:
 5690 0000 0000 0552 	.section.debug_str,"MS",@progbits,1
 5690      0002 0000 
 5690      038A 0201 
 5690      FB0E 0D00 
 5690      0101 0101 
 5691               	.LASF38:
 5692 0000 5F73 7369 	.string"_ssize_t"
 5692      7A65 5F74 
 5692      00
 5693               	.LASF326:
 5694 0009 4346 455F 	.string"CFE_ES_MainAppFuncPtr_t"
 5694      4553 5F4D 
 5694      6169 6E41 
 5694      7070 4675 
 5694      6E63 5074 
 5695               	.LASF140:
 5696 0021 5F5F 6C6F 	.string"__locale_t"
 5696      6361 6C65 
 5696      5F74 00
 5697               	.LASF43:
 5698 002c 5F5F 7661 	.string"__value"
 5698      6C75 6500 
 5699               	.LASF141:
 5700 0034 5F5F 7366 	.string"__sf"
 5700      00
 5701               	.LASF363:
 5702 0039 5374 6172 	.string"StartFilePath"
 5702      7446 696C 
 5702      6550 6174 
 5702      6800 
68K GAS   			page 138


 5703               	.LASF78:
 5704 0047 5F72 6561 	.string"_read"
 5704      6400 
 5705               	.LASF308:
 5706 004d 4346 455F 	.string"CFE_ES_GenCounterRecord_t"
 5706      4553 5F47 
 5706      656E 436F 
 5706      756E 7465 
 5706      7252 6563 
 5707               	.LASF79:
 5708 0067 5F77 7269 	.string"_write"
 5708      7465 00
 5709               	.LASF213:
 5710 006e 5472 6967 	.string"TriggerMask"
 5710      6765 724D 
 5710      6173 6B00 
 5711               	.LASF120:
 5712 007a 5F61 7363 	.string"_asctime_buf"
 5712      7469 6D65 
 5712      5F62 7566 
 5712      00
 5713               	.LASF105:
 5714 0087 5F63 7674 	.string"_cvtlen"
 5714      6C65 6E00 
 5715               	.LASF360:
 5716 008f 5265 7365 	.string"ResetDataAddr"
 5716      7444 6174 
 5716      6141 6464 
 5716      7200 
 5717               	.LASF32:
 5718 009d 5F4D 7574 	.string"_Mutex_Control"
 5718      6578 5F43 
 5718      6F6E 7472 
 5718      6F6C 00
 5719               	.LASF267:
 5720 00ac 4346 455F 	.string"CFE_ES_LibRecord_t"
 5720      4553 5F4C 
 5720      6962 5265 
 5720      636F 7264 
 5720      5F74 00
 5721               	.LASF370:
 5722 00bf 5F5F 6675 	.string"__func__"
 5722      6E63 5F5F 
 5722      00
 5723               	.LASF198:
 5724 00c8 4346 455F 	.string"CFE_ES_PerfDataEntry_t"
 5724      4553 5F50 
 5724      6572 6644 
 5724      6174 6145 
 5724      6E74 7279 
 5725               	.LASF144:
 5726 00df 5F67 6C6F 	.string"_global_atexit"
 5726      6261 6C5F 
 5726      6174 6578 
 5726      6974 00
 5727               	.LASF253:
 5728 00ee 4E75 6D4F 	.string"NumOfChildTasks"
68K GAS   			page 139


 5728      6643 6869 
 5728      6C64 5461 
 5728      736B 7300 
 5729               	.LASF11:
 5730 00fe 7569 6E74 	.string"uint32"
 5730      3332 00
 5731               	.LASF139:
 5732 0105 5F75 6E75 	.string"_unused"
 5732      7365 6400 
 5733               	.LASF52:
 5734 010d 5F5F 746D 	.string"__tm"
 5734      00
 5735               	.LASF135:
 5736 0112 5F77 6373 	.string"_wcsrtombs_state"
 5736      7274 6F6D 
 5736      6273 5F73 
 5736      7461 7465 
 5736      00
 5737               	.LASF83:
 5738 0123 5F6E 6275 	.string"_nbuf"
 5738      6600 
 5739               	.LASF53:
 5740 0129 5F5F 746D 	.string"__tm_sec"
 5740      5F73 6563 
 5740      00
 5741               	.LASF31:
 5742 0132 5F54 6872 	.string"_Thread_Control"
 5742      6561 645F 
 5742      436F 6E74 
 5742      726F 6C00 
 5743               	.LASF128:
 5744 0142 5F6C 3634 	.string"_l64a_buf"
 5744      615F 6275 
 5744      6600 
 5745               	.LASF236:
 5746 014c 5469 6D65 	.string"TimeResetVars"
 5746      5265 7365 
 5746      7456 6172 
 5746      7300 
 5747               	.LASF313:
 5748 015a 5265 6769 	.string"RegisteredTasks"
 5748      7374 6572 
 5748      6564 5461 
 5748      736B 7300 
 5749               	.LASF92:
 5750 016a 5F73 7464 	.string"_stdin"
 5750      696E 00
 5751               	.LASF192:
 5752 0171 4170 7049 	.string"AppID"
 5752      4400 
 5753               	.LASF216:
 5754 0177 4461 7461 	.string"DataBuffer"
 5754      4275 6666 
 5754      6572 00
 5755               	.LASF233:
 5756 0182 5379 7374 	.string"SystemLogEntryNum"
 5756      656D 4C6F 
68K GAS   			page 140


 5756      6745 6E74 
 5756      7279 4E75 
 5756      6D00 
 5757               	.LASF80:
 5758 0194 5F73 6565 	.string"_seek"
 5758      6B00 
 5759               	.LASF299:
 5760 019a 4346 455F 	.string"CFE_ES_CDSVariables_t"
 5760      4553 5F43 
 5760      4453 5661 
 5760      7269 6162 
 5760      6C65 735F 
 5761               	.LASF247:
 5762 01b0 5374 6172 	.string"StartAddress"
 5762      7441 6464 
 5762      7265 7373 
 5762      00
 5763               	.LASF181:
 5764 01bd 4346 455F 	.string"CFE_ES_DebugVariables_t"
 5764      4553 5F44 
 5764      6562 7567 
 5764      5661 7269 
 5764      6162 6C65 
 5765               	.LASF116:
 5766 01d5 5F6D 756C 	.string"_mult"
 5766      7400 
 5767               	.LASF252:
 5768 01db 4D61 696E 	.string"MainTaskName"
 5768      5461 736B 
 5768      4E61 6D65 
 5768      00
 5769               	.LASF304:
 5770 01e8 4346 455F 	.string"CFE_ES_PerfLogDump_t"
 5770      4553 5F50 
 5770      6572 664C 
 5770      6F67 4475 
 5770      6D70 5F74 
 5771               	.LASF191:
 5772 01fd 436F 6E74 	.string"ContextSize"
 5772      6578 7453 
 5772      697A 6500 
 5773               	.LASF238:
 5774 0209 4346 455F 	.string"CFE_ES_ResetData_t"
 5774      4553 5F52 
 5774      6573 6574 
 5774      4461 7461 
 5774      5F74 00
 5775               	.LASF354:
 5776 021c 5065 7263 	.string"PercentFree"
 5776      656E 7446 
 5776      7265 6500 
 5777               	.LASF167:
 5778 0228 5072 6F63 	.string"ProcessorID"
 5778      6573 736F 
 5778      7249 4400 
 5779               	.LASF317:
 5780 0234 4170 7054 	.string"AppTable"
68K GAS   			page 141


 5780      6162 6C65 
 5780      00
 5781               	.LASF202:
 5782 023d 5469 6D65 	.string"TimerTicksPerSecond"
 5782      7254 6963 
 5782      6B73 5065 
 5782      7253 6563 
 5782      6F6E 6400 
 5783               	.LASF40:
 5784 0251 5F5F 7763 	.string"__wch"
 5784      6800 
 5785               	.LASF369:
 5786 0257 4346 455F 	.string"CFE_ES_ApplicationSyncDelay"
 5786      4553 5F41 
 5786      7070 6C69 
 5786      6361 7469 
 5786      6F6E 5379 
 5787               	.LASF271:
 5788 0273 5369 7A65 	.string"SizeUsed"
 5788      5573 6564 
 5788      00
 5789               	.LASF75:
 5790 027c 5F66 696C 	.string"_file"
 5790      6500 
 5791               	.LASF343:
 5792 0282 5761 6974 	.string"WaitRemaining"
 5792      5265 6D61 
 5792      696E 696E 
 5792      6700 
 5793               	.LASF156:
 5794 0290 4375 7272 	.string"CurrentSTCF"
 5794      656E 7453 
 5794      5443 4600 
 5795               	.LASF62:
 5796 029c 5F6F 6E5F 	.string"_on_exit_args"
 5796      6578 6974 
 5796      5F61 7267 
 5796      7300 
 5797               	.LASF200:
 5798 02aa 456E 6469 	.string"Endian"
 5798      616E 00
 5799               	.LASF318:
 5800 02b1 5265 6769 	.string"RegisteredLibs"
 5800      7374 6572 
 5800      6564 4C69 
 5800      6273 00
 5801               	.LASF171:
 5802 02c0 5370 6172 	.string"Spare1"
 5802      6531 00
 5803               	.LASF172:
 5804 02c7 5370 6172 	.string"Spare2"
 5804      6532 00
 5805               	.LASF131:
 5806 02ce 5F6D 6272 	.string"_mbrlen_state"
 5806      6C65 6E5F 
 5806      7374 6174 
 5806      6500 
68K GAS   			page 142


 5807               	.LASF6:
 5808 02dc 6C6F 6E67 	.string"long int"
 5808      2069 6E74 
 5808      00
 5809               	.LASF142:
 5810 02e5 5F69 6D70 	.string"_impure_ptr"
 5810      7572 655F 
 5810      7074 7200 
 5811               	.LASF344:
 5812 02f1 5265 7475 	.string"ReturnCode"
 5812      726E 436F 
 5812      6465 00
 5813               	.LASF102:
 5814 02fc 5F72 6573 	.string"_result_k"
 5814      756C 745F 
 5814      6B00 
 5815               	.LASF257:
 5816 0306 5374 6172 	.string"StartParams"
 5816      7450 6172 
 5816      616D 7300 
 5817               	.LASF72:
 5818 0312 5F73 697A 	.string"_size"
 5818      6500 
 5819               	.LASF249:
 5820 0318 4578 6365 	.string"ExceptionAction"
 5820      7074 696F 
 5820      6E41 6374 
 5820      696F 6E00 
 5821               	.LASF121:
 5822 0328 5F6C 6F63 	.string"_localtime_buf"
 5822      616C 7469 
 5822      6D65 5F62 
 5822      7566 00
 5823               	.LASF210:
 5824 0337 496E 7661 	.string"InvalidMarkerReported"
 5824      6C69 644D 
 5824      6172 6B65 
 5824      7252 6570 
 5824      6F72 7465 
 5825               	.LASF159:
 5826 034d 5072 696F 	.string"Priority"
 5826      7269 7479 
 5826      00
 5827               	.LASF285:
 5828 0356 5369 7A65 	.string"SizeDesc"
 5828      4465 7363 
 5828      00
 5829               	.LASF57:
 5830 035f 5F5F 746D 	.string"__tm_mon"
 5830      5F6D 6F6E 
 5830      00
 5831               	.LASF211:
 5832 0368 4669 6C74 	.string"FilterTriggerMaskSize"
 5832      6572 5472 
 5832      6967 6765 
 5832      724D 6173 
 5832      6B53 697A 
68K GAS   			page 143


 5833               	.LASF158:
 5834 037e 4346 455F 	.string"CFE_TIME_ResetVars_t"
 5834      5449 4D45 
 5834      5F52 6573 
 5834      6574 5661 
 5834      7273 5F74 
 5835               	.LASF345:
 5836 0393 5461 736B 	.string"TaskIndex"
 5836      496E 6465 
 5836      7800 
 5837               	.LASF248:
 5838 039d 4D6F 6475 	.string"ModuleId"
 5838      6C65 4964 
 5838      00
 5839               	.LASF174:
 5840 03a6 546C 6D48 	.string"TlmHeader"
 5840      6561 6465 
 5840      7200 
 5841               	.LASF288:
 5842 03b0 4346 455F 	.string"CFE_ES_CDSBlockDesc"
 5842      4553 5F43 
 5842      4453 426C 
 5842      6F63 6B44 
 5842      6573 6300 
 5843               	.LASF188:
 5844 03c4 4465 6275 	.string"DebugVars"
 5844      6756 6172 
 5844      7300 
 5845               	.LASF359:
 5846 03ce 7265 7365 	.string"resetAreaSize"
 5846      7441 7265 
 5846      6153 697A 
 5846      6500 
 5847               	.LASF278:
 5848 03dc 5369 7A65 	.string"Size"
 5848      00
 5849               	.LASF118:
 5850 03e1 5F75 6E75 	.string"_unused_rand"
 5850      7365 645F 
 5850      7261 6E64 
 5850      00
 5851               	.LASF275:
 5852 03ee 4D61 7853 	.string"MaxSize"
 5852      697A 6500 
 5853               	.LASF1:
 5854 03f6 7369 676E 	.string"signed char"
 5854      6564 2063 
 5854      6861 7200 
 5855               	.LASF15:
 5856 0402 626F 6F6C 	.string"boolean"
 5856      6561 6E00 
 5857               	.LASF337:
 5858 040a 4346 455F 	.string"CFE_ES_ObjectTable_t"
 5858      4553 5F4F 
 5858      626A 6563 
 5858      7454 6162 
 5858      6C65 5F74 
68K GAS   			page 144


 5859               	.LASF217:
 5860 041f 4346 455F 	.string"CFE_ES_PerfData_t"
 5860      4553 5F50 
 5860      6572 6644 
 5860      6174 615F 
 5860      7400 
 5861               	.LASF175:
 5862 0431 5061 796C 	.string"Payload"
 5862      6F61 6400 
 5863               	.LASF30:
 5864 0439 5F54 6872 	.string"_Thread_queue_Heads"
 5864      6561 645F 
 5864      7175 6575 
 5864      655F 4865 
 5864      6164 7300 
 5865               	.LASF327:
 5866 044d 4675 6E63 	.string"FunctionPtr"
 5866      7469 6F6E 
 5866      5074 7200 
 5867               	.LASF0:
 5868 0459 756E 7369 	.string"unsigned char"
 5868      676E 6564 
 5868      2063 6861 
 5868      7200 
 5869               	.LASF251:
 5870 0467 4D61 696E 	.string"MainTaskId"
 5870      5461 736B 
 5870      4964 00
 5871               	.LASF356:
 5872 0472 5374 6172 	.string"StartType"
 5872      7454 7970 
 5872      6500 
 5873               	.LASF97:
 5874 047c 5F75 6E73 	.string"_unspecified_locale_info"
 5874      7065 6369 
 5874      6669 6564 
 5874      5F6C 6F63 
 5874      616C 655F 
 5875               	.LASF350:
 5876 0495 5265 7453 	.string"RetStatus"
 5876      7461 7475 
 5876      7300 
 5877               	.LASF276:
 5878 049f 4346 455F 	.string"CFE_ES_CDSBlockSizeDesc_t"
 5878      4553 5F43 
 5878      4453 426C 
 5878      6F63 6B53 
 5878      697A 6544 
 5879               	.LASF90:
 5880 04b9 5F72 6565 	.string"_reent"
 5880      6E74 00
 5881               	.LASF143:
 5882 04c0 5F67 6C6F 	.string"_global_impure_ptr"
 5882      6261 6C5F 
 5882      696D 7075 
 5882      7265 5F70 
 5882      7472 00
68K GAS   			page 145


 5883               	.LASF368:
 5884 04d3 2F68 6F6D 	.string"/home/simulink/cFS_FreeRTOS_seL4/build/cpu1/cfe/es"
 5884      652F 7369 
 5884      6D75 6C69 
 5884      6E6B 2F63 
 5884      4653 5F46 
 5885               	.LASF179:
 5886 0506 5072 696E 	.string"PrintfEnabledFlag"
 5886      7466 456E 
 5886      6162 6C65 
 5886      6446 6C61 
 5886      6700 
 5887               	.LASF306:
 5888 0518 436F 756E 	.string"Counter"
 5888      7465 7200 
 5889               	.LASF25:
 5890 0520 5F54 6872 	.string"_Thread_queue_Queue"
 5890      6561 645F 
 5890      7175 6575 
 5890      655F 5175 
 5890      6575 6500 
 5891               	.LASF16:
 5892 0534 6368 6172 	.string"char"
 5892      00
 5893               	.LASF309:
 5894 0539 5368 6172 	.string"SharedDataMutex"
 5894      6564 4461 
 5894      7461 4D75 
 5894      7465 7800 
 5895               	.LASF69:
 5896 0549 5F66 6E73 	.string"_fns"
 5896      00
 5897               	.LASF81:
 5898 054e 5F63 6C6F 	.string"_close"
 5898      7365 00
 5899               	.LASF289:
 5900 0555 4D65 6D48 	.string"MemHandle"
 5900      616E 646C 
 5900      6500 
 5901               	.LASF14:
 5902 055f 6370 7561 	.string"cpuaddr"
 5902      6464 7200 
 5903               	.LASF24:
 5904 0567 5F54 6963 	.string"_Ticket_lock_Control"
 5904      6B65 745F 
 5904      6C6F 636B 
 5904      5F43 6F6E 
 5904      7472 6F6C 
 5905               	.LASF290:
 5906 057c 5461 6B65 	.string"Taken"
 5906      6E00 
 5907               	.LASF149:
 5908 0582 5365 636F 	.string"Seconds"
 5908      6E64 7300 
 5909               	.LASF284:
 5910 058a 4D69 6E42 	.string"MinBlockSize"
 5910      6C6F 636B 
68K GAS   			page 146


 5910      5369 7A65 
 5910      00
 5911               	.LASF331:
 5912 0597 4F62 6A65 	.string"ObjectType"
 5912      6374 5479 
 5912      7065 00
 5913               	.LASF222:
 5914 05a2 4C6F 674F 	.string"LogOverflowCounter"
 5914      7665 7266 
 5914      6C6F 7743 
 5914      6F75 6E74 
 5914      6572 00
 5915               	.LASF227:
 5916 05b5 4552 4C6F 	.string"ERLog"
 5916      6700 
 5917               	.LASF28:
 5918 05bb 5F6F 776E 	.string"_owner"
 5918      6572 00
 5919               	.LASF237:
 5920 05c2 4556 535F 	.string"EVS_Log"
 5920      4C6F 6700 
 5921               	.LASF228:
 5922 05ca 4552 4C6F 	.string"ERLogIndex"
 5922      6749 6E64 
 5922      6578 00
 5923               	.LASF325:
 5924 05d5 4346 455F 	.string"CFE_ES_EarlyInitFuncPtr_t"
 5924      4553 5F45 
 5924      6172 6C79 
 5924      496E 6974 
 5924      4675 6E63 
 5925               	.LASF332:
 5926 05ef 4F62 6A65 	.string"ObjectName"
 5926      6374 4E61 
 5926      6D65 00
 5927               	.LASF215:
 5928 05fa 4D65 7461 	.string"MetaData"
 5928      4461 7461 
 5928      00
 5929               	.LASF367:
 5930 0603 2F68 6F6D 	.string"/home/simulink/cFS_FreeRTOS_seL4/cfe/fsw/cfe-core/src/es/cfe_es_start.c"
 5930      652F 7369 
 5930      6D75 6C69 
 5930      6E6B 2F63 
 5930      4653 5F46 
 5931               	.LASF242:
 5932 064b 4346 455F 	.string"CFE_ES_AppState_t"
 5932      4553 5F41 
 5932      7070 5374 
 5932      6174 655F 
 5932      7400 
 5933               	.LASF294:
 5934 065d 4344 5353 	.string"CDSSize"
 5934      697A 6500 
 5935               	.LASF296:
 5936 0665 4D61 784E 	.string"MaxNumRegEntries"
 5936      756D 5265 
68K GAS   			page 147


 5936      6745 6E74 
 5936      7269 6573 
 5936      00
 5937               	.LASF180:
 5938 0676 4C61 7374 	.string"LastAppId"
 5938      4170 7049 
 5938      6400 
 5939               	.LASF220:
 5940 0680 4C6F 6746 	.string"LogFullFlag"
 5940      756C 6C46 
 5940      6C61 6700 
 5941               	.LASF148:
 5942 068c 5F74 7A6E 	.string"_tzname"
 5942      616D 6500 
 5943               	.LASF279:
 5944 0694 4375 7272 	.string"Current"
 5944      656E 7400 
 5945               	.LASF36:
 5946 069c 5F6E 6573 	.string"_nest_level"
 5946      745F 6C65 
 5946      7665 6C00 
 5947               	.LASF154:
 5948 06a8 436C 6F63 	.string"ClockSignal"
 5948      6B53 6967 
 5948      6E61 6C00 
 5949               	.LASF230:
 5950 06b4 5379 7374 	.string"SystemLog"
 5950      656D 4C6F 
 5950      6700 
 5951               	.LASF77:
 5952 06be 5F63 6F6F 	.string"_cookie"
 5952      6B69 6500 
 5953               	.LASF246:
 5954 06c6 5374 6163 	.string"StackSize"
 5954      6B53 697A 
 5954      6500 
 5955               	.LASF51:
 5956 06d0 5F77 6473 	.string"_wds"
 5956      00
 5957               	.LASF108:
 5958 06d5 5F73 6967 	.string"_sig_func"
 5958      5F66 756E 
 5958      6300 
 5959               	.LASF281:
 5960 06df 4368 6563 	.string"CheckErrCntr"
 5960      6B45 7272 
 5960      436E 7472 
 5960      00
 5961               	.LASF334:
 5962 06ec 4F62 6A65 	.string"ObjectPriority"
 5962      6374 5072 
 5962      696F 7269 
 5962      7479 00
 5963               	.LASF85:
 5964 06fb 5F6F 6666 	.string"_offset"
 5964      7365 7400 
 5965               	.LASF106:
68K GAS   			page 148


 5966 0703 5F63 7674 	.string"_cvtbuf"
 5966      6275 6600 
 5967               	.LASF336:
 5968 070b 4F62 6A65 	.string"ObjectFlags"
 5968      6374 466C 
 5968      6167 7300 
 5969               	.LASF280:
 5970 0717 5369 7A65 	.string"SizeIndex"
 5970      496E 6465 
 5970      7800 
 5971               	.LASF245:
 5972 0721 4669 6C65 	.string"FileName"
 5972      4E61 6D65 
 5972      00
 5973               	.LASF21:
 5974 072a 5F6E 6578 	.string"_next_ticket"
 5974      745F 7469 
 5974      636B 6574 
 5974      00
 5975               	.LASF295:
 5976 0737 4D65 6D50 	.string"MemPoolSize"
 5976      6F6F 6C53 
 5976      697A 6500 
 5977               	.LASF324:
 5978 0743 4346 455F 	.string"CFE_ES_ResetDataPtr"
 5978      4553 5F52 
 5978      6573 6574 
 5978      4461 7461 
 5978      5074 7200 
 5979               	.LASF232:
 5980 0757 5379 7374 	.string"SystemLogMode"
 5980      656D 4C6F 
 5980      674D 6F64 
 5980      6500 
 5981               	.LASF269:
 5982 0765 4368 6563 	.string"CheckBits"
 5982      6B42 6974 
 5982      7300 
 5983               	.LASF103:
 5984 076f 5F70 3573 	.string"_p5s"
 5984      00
 5985               	.LASF12:
 5986 0774 6C6F 6E67 	.string"long unsigned int"
 5986      2075 6E73 
 5986      6967 6E65 
 5986      6420 696E 
 5986      7400 
 5987               	.LASF196:
 5988 0786 5469 6D65 	.string"TimerUpper32"
 5988      7255 7070 
 5988      6572 3332 
 5988      00
 5989               	.LASF261:
 5990 0793 4170 7049 	.string"AppId"
 5990      6400 
 5991               	.LASF73:
 5992 0799 5F5F 7346 	.string"__sFILE"
68K GAS   			page 149


 5992      494C 4500 
 5993               	.LASF99:
 5994 07a1 5F5F 7364 	.string"__sdidinit"
 5994      6964 696E 
 5994      6974 00
 5995               	.LASF89:
 5996 07ac 5F66 6C61 	.string"_flags2"
 5996      6773 3200 
 5997               	.LASF187:
 5998 07b4 4D61 7850 	.string"MaxProcessorResetCount"
 5998      726F 6365 
 5998      7373 6F72 
 5998      5265 7365 
 5998      7443 6F75 
 5999               	.LASF37:
 6000 07cb 5F4C 4F43 	.string"_LOCK_RECURSIVE_T"
 6000      4B5F 5245 
 6000      4355 5253 
 6000      4956 455F 
 6000      5400 
 6001               	.LASF219:
 6002 07dd 4C6F 6743 	.string"LogCount"
 6002      6F75 6E74 
 6002      00
 6003               	.LASF310:
 6004 07e6 4170 7053 	.string"AppStartedCount"
 6004      7461 7274 
 6004      6564 436F 
 6004      756E 7400 
 6005               	.LASF91:
 6006 07f6 5F65 7272 	.string"_errno"
 6006      6E6F 00
 6007               	.LASF157:
 6008 07fd 4375 7272 	.string"CurrentDelay"
 6008      656E 7444 
 6008      656C 6179 
 6008      00
 6009               	.LASF305:
 6010 080a 4346 455F 	.string"CFE_ES_PerfLogDumpStatus"
 6010      4553 5F50 
 6010      6572 664C 
 6010      6F67 4475 
 6010      6D70 5374 
 6011               	.LASF129:
 6012 0823 5F73 6967 	.string"_signal_buf"
 6012      6E61 6C5F 
 6012      6275 6600 
 6013               	.LASF170:
 6014 082f 4D65 7373 	.string"Message"
 6014      6167 6500 
 6015               	.LASF47:
 6016 0837 5F42 6967 	.string"_Bigint"
 6016      696E 7400 
 6017               	.LASF49:
 6018 083f 5F6D 6178 	.string"_maxwds"
 6018      7764 7300 
 6019               	.LASF371:
68K GAS   			page 150


 6020 0847 4F53 5F43 	.string"OS_ConvertToArrayIndex"
 6020      6F6E 7665 
 6020      7274 546F 
 6020      4172 7261 
 6020      7949 6E64 
 6021               	.LASF100:
 6022 085e 5F5F 636C 	.string"__cleanup"
 6022      6561 6E75 
 6022      7000 
 6023               	.LASF221:
 6024 0868 4C6F 674D 	.string"LogMode"
 6024      6F64 6500 
 6025               	.LASF341:
 6026 0870 5374 6174 	.string"Status"
 6026      7573 00
 6027               	.LASF153:
 6028 0877 4C65 6170 	.string"LeapSeconds"
 6028      5365 636F 
 6028      6E64 7300 
 6029               	.LASF169:
 6030 0883 5061 636B 	.string"PacketID"
 6030      6574 4944 
 6030      00
 6031               	.LASF268:
 6032 088c 4346 455F 	.string"CFE_ES_CDSBlockHandle_t"
 6032      4553 5F43 
 6032      4453 426C 
 6032      6F63 6B48 
 6032      616E 646C 
 6033               	.LASF302:
 6034 08a4 4461 7461 	.string"DataFileName"
 6034      4669 6C65 
 6034      4E61 6D65 
 6034      00
 6035               	.LASF244:
 6036 08b1 456E 7472 	.string"EntryPoint"
 6036      7950 6F69 
 6036      6E74 00
 6037               	.LASF96:
 6038 08bc 5F65 6D65 	.string"_emergency"
 6038      7267 656E 
 6038      6379 00
 6039               	.LASF176:
 6040 08c7 4346 455F 	.string"CFE_EVS_Packet_t"
 6040      4556 535F 
 6040      5061 636B 
 6040      6574 5F74 
 6040      00
 6041               	.LASF7:
 6042 08d8 6C6F 6E67 	.string"long long int"
 6042      206C 6F6E 
 6042      6720 696E 
 6042      7400 
 6043               	.LASF199:
 6044 08e6 5665 7273 	.string"Version"
 6044      696F 6E00 
 6045               	.LASF112:
68K GAS   			page 151


 6046 08ee 5F6E 696F 	.string"_niobs"
 6046      6273 00
 6047               	.LASF229:
 6048 08f5 4552 4C6F 	.string"ERLogEntries"
 6048      6745 6E74 
 6048      7269 6573 
 6048      00
 6049               	.LASF109:
 6050 0902 5F5F 7367 	.string"__sglue"
 6050      6C75 6500 
 6051               	.LASF203:
 6052 090a 5469 6D65 	.string"TimerLow32Rollover"
 6052      724C 6F77 
 6052      3332 526F 
 6052      6C6C 6F76 
 6052      6572 00
 6053               	.LASF138:
 6054 091d 5F6E 6D61 	.string"_nmalloc"
 6054      6C6C 6F63 
 6054      00
 6055               	.LASF320:
 6056 0926 436F 756E 	.string"CounterTable"
 6056      7465 7254 
 6056      6162 6C65 
 6056      00
 6057               	.LASF122:
 6058 0933 5F67 616D 	.string"_gamma_signgam"
 6058      6D61 5F73 
 6058      6967 6E67 
 6058      616D 00
 6059               	.LASF263:
 6060 0942 4578 6563 	.string"ExecutionCounter"
 6060      7574 696F 
 6060      6E43 6F75 
 6060      6E74 6572 
 6060      00
 6061               	.LASF104:
 6062 0953 5F66 7265 	.string"_freelist"
 6062      656C 6973 
 6062      7400 
 6063               	.LASF311:
 6064 095d 4170 7052 	.string"AppReadyCount"
 6064      6561 6479 
 6064      436F 756E 
 6064      7400 
 6065               	.LASF113:
 6066 096b 5F69 6F62 	.string"_iobs"
 6066      7300 
 6067               	.LASF111:
 6068 0971 5F67 6C75 	.string"_glue"
 6068      6500 
 6069               	.LASF50:
 6070 0977 5F73 6967 	.string"_sign"
 6070      6E00 
 6071               	.LASF214:
 6072 097d 4346 455F 	.string"CFE_ES_PerfMetaData_t"
 6072      4553 5F50 
68K GAS   			page 152


 6072      6572 664D 
 6072      6574 6144 
 6072      6174 615F 
 6073               	.LASF351:
 6074 0993 5261 6D44 	.string"RamDiskMemoryAddress"
 6074      6973 6B4D 
 6074      656D 6F72 
 6074      7941 6464 
 6074      7265 7373 
 6075               	.LASF349:
 6076 09a8 7374 6172 	.string"start_type"
 6076      745F 7479 
 6076      7065 00
 6077               	.LASF270:
 6078 09b3 416C 6C6F 	.string"AllocatedFlag"
 6078      6361 7465 
 6078      6446 6C61 
 6078      6700 
 6079               	.LASF298:
 6080 09c1 5661 6C69 	.string"ValidityField"
 6080      6469 7479 
 6080      4669 656C 
 6080      6400 
 6081               	.LASF316:
 6082 09cf 5265 6769 	.string"RegisteredExternalApps"
 6082      7374 6572 
 6082      6564 4578 
 6082      7465 726E 
 6082      616C 4170 
 6083               	.LASF292:
 6084 09e6 4346 455F 	.string"CFE_ES_CDS_RegRec_t"
 6084      4553 5F43 
 6084      4453 5F52 
 6084      6567 5265 
 6084      635F 7400 
 6085               	.LASF223:
 6086 09fa 4C6F 6745 	.string"LogEntry"
 6086      6E74 7279 
 6086      00
 6087               	.LASF23:
 6088 0a03 756E 7369 	.string"unsigned int"
 6088      676E 6564 
 6088      2069 6E74 
 6088      00
 6089               	.LASF146:
 6090 0a10 5F74 696D 	.string"_timezone"
 6090      657A 6F6E 
 6090      6500 
 6091               	.LASF185:
 6092 0a1a 426F 6F74 	.string"BootSource"
 6092      536F 7572 
 6092      6365 00
 6093               	.LASF136:
 6094 0a25 5F68 5F65 	.string"_h_errno"
 6094      7272 6E6F 
 6094      00
 6095               	.LASF329:
68K GAS   			page 153


 6096 0a2e 566F 6964 	.string"VoidPtr"
 6096      5074 7200 
 6097               	.LASF264:
 6098 0a36 5461 736B 	.string"TaskName"
 6098      4E61 6D65 
 6098      00
 6099               	.LASF234:
 6100 0a3f 5065 7266 	.string"Perf"
 6100      00
 6101               	.LASF226:
 6102 0a44 4346 455F 	.string"CFE_ES_ResetVariables_t"
 6102      4553 5F52 
 6102      6573 6574 
 6102      5661 7269 
 6102      6162 6C65 
 6103               	.LASF134:
 6104 0a5c 5F77 6372 	.string"_wcrtomb_state"
 6104      746F 6D62 
 6104      5F73 7461 
 6104      7465 00
 6105               	.LASF56:
 6106 0a6b 5F5F 746D 	.string"__tm_mday"
 6106      5F6D 6461 
 6106      7900 
 6107               	.LASF107:
 6108 0a75 5F6E 6577 	.string"_new"
 6108      00
 6109               	.LASF29:
 6110 0a7a 5F6E 616D 	.string"_name"
 6110      6500 
 6111               	.LASF82:
 6112 0a80 5F75 6275 	.string"_ubuf"
 6112      6600 
 6113               	.LASF160:
 6114 0a86 5265 6C69 	.string"Reliability"
 6114      6162 696C 
 6114      6974 7900 
 6115               	.LASF94:
 6116 0a92 5F73 7464 	.string"_stderr"
 6116      6572 7200 
 6117               	.LASF127:
 6118 0a9a 5F77 6374 	.string"_wctomb_state"
 6118      6F6D 625F 
 6118      7374 6174 
 6118      6500 
 6119               	.LASF88:
 6120 0aa8 5F6D 6273 	.string"_mbstate"
 6120      7461 7465 
 6120      00
 6121               	.LASF123:
 6122 0ab1 5F72 616E 	.string"_rand_next"
 6122      645F 6E65 
 6122      7874 00
 6123               	.LASF74:
 6124 0abc 5F66 6C61 	.string"_flags"
 6124      6773 00
 6125               	.LASF256:
68K GAS   			page 154


 6126 0ac3 5479 7065 	.string"Type"
 6126      00
 6127               	.LASF342:
 6128 0ac8 5761 6974 	.string"WaitTime"
 6128      5469 6D65 
 6128      00
 6129               	.LASF352:
 6130 0ad1 5261 6D44 	.string"RamDiskMemorySize"
 6130      6973 6B4D 
 6130      656D 6F72 
 6130      7953 697A 
 6130      6500 
 6131               	.LASF312:
 6132 0ae3 5379 7374 	.string"SystemState"
 6132      656D 5374 
 6132      6174 6500 
 6133               	.LASF67:
 6134 0aef 5F61 7465 	.string"_atexit"
 6134      7869 7400 
 6135               	.LASF330:
 6136 0af7 4346 455F 	.string"CFE_ES_FuncPtrUnion_t"
 6136      4553 5F46 
 6136      756E 6350 
 6136      7472 556E 
 6136      696F 6E5F 
 6137               	.LASF150:
 6138 0b0d 5375 6273 	.string"Subseconds"
 6138      6563 6F6E 
 6138      6473 00
 6139               	.LASF42:
 6140 0b18 5F5F 636F 	.string"__count"
 6140      756E 7400 
 6141               	.LASF201:
 6142 0b20 5370 6172 	.string"Spare"
 6142      6500 
 6143               	.LASF274:
 6144 0b26 4E75 6D43 	.string"NumCreated"
 6144      7265 6174 
 6144      6564 00
 6145               	.LASF243:
 6146 0b31 4E61 6D65 	.string"Name"
 6146      00
 6147               	.LASF59:
 6148 0b36 5F5F 746D 	.string"__tm_wday"
 6148      5F77 6461 
 6148      7900 
 6149               	.LASF333:
 6150 0b40 4675 6E63 	.string"FuncPtrUnion"
 6150      5074 7255 
 6150      6E69 6F6E 
 6150      00
 6151               	.LASF18:
 6152 0b4d 6C6F 6E67 	.string"long double"
 6152      2064 6F75 
 6152      626C 6500 
 6153               	.LASF254:
 6154 0b59 4346 455F 	.string"CFE_ES_MainTaskInfo_t"
68K GAS   			page 155


 6154      4553 5F4D 
 6154      6169 6E54 
 6154      6173 6B49 
 6154      6E66 6F5F 
 6155               	.LASF60:
 6156 0b6f 5F5F 746D 	.string"__tm_yday"
 6156      5F79 6461 
 6156      7900 
 6157               	.LASF265:
 6158 0b79 4346 455F 	.string"CFE_ES_TaskRecord_t"
 6158      4553 5F54 
 6158      6173 6B52 
 6158      6563 6F72 
 6158      645F 7400 
 6159               	.LASF347:
 6160 0b8d 4346 455F 	.string"CFE_ES_CreateObjects"
 6160      4553 5F43 
 6160      7265 6174 
 6160      654F 626A 
 6160      6563 7473 
 6161               	.LASF277:
 6162 0ba2 5374 6172 	.string"Start"
 6162      7400 
 6163               	.LASF34:
 6164 0ba8 5F4D 7574 	.string"_Mutex_recursive_Control"
 6164      6578 5F72 
 6164      6563 7572 
 6164      7369 7665 
 6164      5F43 6F6E 
 6165               	.LASF205:
 6166 0bc1 4D6F 6465 	.string"Mode"
 6166      00
 6167               	.LASF27:
 6168 0bc6 5F68 6561 	.string"_heads"
 6168      6473 00
 6169               	.LASF115:
 6170 0bcd 5F73 6565 	.string"_seed"
 6170      6400 
 6171               	.LASF346:
 6172 0bd3 4170 7053 	.string"AppSlotFound"
 6172      6C6F 7446 
 6172      6F75 6E64 
 6172      00
 6173               	.LASF33:
 6174 0be0 5F51 7565 	.string"_Queue"
 6174      7565 00
 6175               	.LASF225:
 6176 0be7 4553 5F43 	.string"ES_CausedReset"
 6176      6175 7365 
 6176      6452 6573 
 6176      6574 00
 6177               	.LASF20:
 6178 0bf6 5F66 706F 	.string"_fpos_t"
 6178      735F 7400 
 6179               	.LASF323:
 6180 0bfe 4346 455F 	.string"CFE_ES_Global"
 6180      4553 5F47 
68K GAS   			page 156


 6180      6C6F 6261 
 6180      6C00 
 6181               	.LASF41:
 6182 0c0c 5F5F 7763 	.string"__wchb"
 6182      6862 00
 6183               	.LASF126:
 6184 0c13 5F6D 6274 	.string"_mbtowc_state"
 6184      6F77 635F 
 6184      7374 6174 
 6184      6500 
 6185               	.LASF307:
 6186 0c21 436F 756E 	.string"CounterName"
 6186      7465 724E 
 6186      616D 6500 
 6187               	.LASF13:
 6188 0c2d 6C6F 6E67 	.string"long long unsigned int"
 6188      206C 6F6E 
 6188      6720 756E 
 6188      7369 676E 
 6188      6564 2069 
 6189               	.LASF258:
 6190 0c44 5374 6174 	.string"StateRecord"
 6190      6552 6563 
 6190      6F72 6400 
 6191               	.LASF303:
 6192 0c50 4461 7461 	.string"DataFileDescriptor"
 6192      4669 6C65 
 6192      4465 7363 
 6192      7269 7074 
 6192      6F72 00
 6193               	.LASF64:
 6194 0c63 5F64 736F 	.string"_dso_handle"
 6194      5F68 616E 
 6194      646C 6500 
 6195               	.LASF114:
 6196 0c6f 5F72 616E 	.string"_rand48"
 6196      6434 3800 
 6197               	.LASF93:
 6198 0c77 5F73 7464 	.string"_stdout"
 6198      6F75 7400 
 6199               	.LASF204:
 6200 0c7f 5374 6174 	.string"State"
 6200      6500 
 6201               	.LASF84:
 6202 0c85 5F62 6C6B 	.string"_blksize"
 6202      7369 7A65 
 6202      00
 6203               	.LASF250:
 6204 0c8e 4346 455F 	.string"CFE_ES_AppStartParams_t"
 6204      4553 5F41 
 6204      7070 5374 
 6204      6172 7450 
 6204      6172 616D 
 6205               	.LASF197:
 6206 0ca6 5469 6D65 	.string"TimerLower32"
 6206      724C 6F77 
 6206      6572 3332 
68K GAS   			page 157


 6206      00
 6207               	.LASF71:
 6208 0cb3 5F62 6173 	.string"_base"
 6208      6500 
 6209               	.LASF209:
 6210 0cb9 4461 7461 	.string"DataCount"
 6210      436F 756E 
 6210      7400 
 6211               	.LASF119:
 6212 0cc3 5F73 7472 	.string"_strtok_last"
 6212      746F 6B5F 
 6212      6C61 7374 
 6212      00
 6213               	.LASF293:
 6214 0cd0 5265 6769 	.string"RegistryMutex"
 6214      7374 7279 
 6214      4D75 7465 
 6214      7800 
 6215               	.LASF314:
 6216 0cde 5461 736B 	.string"TaskTable"
 6216      5461 626C 
 6216      6500 
 6217               	.LASF132:
 6218 0ce8 5F6D 6272 	.string"_mbrtowc_state"
 6218      746F 7763 
 6218      5F73 7461 
 6218      7465 00
 6219               	.LASF212:
 6220 0cf7 4669 6C74 	.string"FilterMask"
 6220      6572 4D61 
 6220      736B 00
 6221               	.LASF183:
 6222 0d02 5265 7365 	.string"ResetType"
 6222      7454 7970 
 6222      6500 
 6223               	.LASF255:
 6224 0d0c 5265 636F 	.string"RecordUsed"
 6224      7264 5573 
 6224      6564 00
 6225               	.LASF155:
 6226 0d17 4375 7272 	.string"CurrentMET"
 6226      656E 744D 
 6226      4554 00
 6227               	.LASF45:
 6228 0d22 5F66 6C6F 	.string"_flock_t"
 6228      636B 5F74 
 6228      00
 6229               	.LASF110:
 6230 0d2b 5F5F 4649 	.string"__FILE"
 6230      4C45 00
 6231               	.LASF286:
 6232 0d32 4346 455F 	.string"CFE_ES_CDSPool_t"
 6232      4553 5F43 
 6232      4453 506F 
 6232      6F6C 5F74 
 6232      00
 6233               	.LASF87:
68K GAS   			page 158


 6234 0d43 5F6C 6F63 	.string"_lock"
 6234      6B00 
 6235               	.LASF322:
 6236 0d49 4346 455F 	.string"CFE_ES_Global_t"
 6236      4553 5F47 
 6236      6C6F 6261 
 6236      6C5F 7400 
 6237               	.LASF44:
 6238 0d59 5F6D 6273 	.string"_mbstate_t"
 6238      7461 7465 
 6238      5F74 00
 6239               	.LASF124:
 6240 0d64 5F72 3438 	.string"_r48"
 6240      00
 6241               	.LASF39:
 6242 0d69 7769 6E74 	.string"wint_t"
 6242      5F74 00
 6243               	.LASF2:
 6244 0d70 6F73 616C 	.string"osalbool"
 6244      626F 6F6C 
 6244      00
 6245               	.LASF48:
 6246 0d79 5F6E 6578 	.string"_next"
 6246      7400 
 6247               	.LASF86:
 6248 0d7f 5F64 6174 	.string"_data"
 6248      6100 
 6249               	.LASF177:
 6250 0d85 4465 6275 	.string"DebugFlag"
 6250      6746 6C61 
 6250      6700 
 6251               	.LASF184:
 6252 0d8f 5265 7365 	.string"ResetSubtype"
 6252      7453 7562 
 6252      7479 7065 
 6252      00
 6253               	.LASF315:
 6254 0d9c 5265 6769 	.string"RegisteredCoreApps"
 6254      7374 6572 
 6254      6564 436F 
 6254      7265 4170 
 6254      7073 00
 6255               	.LASF162:
 6256 0daf 4346 455F 	.string"CFE_SB_Default_Qos"
 6256      5342 5F44 
 6256      6566 6175 
 6256      6C74 5F51 
 6256      6F73 00
 6257               	.LASF206:
 6258 0dc2 5472 6967 	.string"TriggerCount"
 6258      6765 7243 
 6258      6F75 6E74 
 6258      00
 6259               	.LASF241:
 6260 0dcf 4170 7054 	.string"AppTimer"
 6260      696D 6572 
 6260      00
68K GAS   			page 159


 6261               	.LASF319:
 6262 0dd8 4C69 6254 	.string"LibTable"
 6262      6162 6C65 
 6262      00
 6263               	.LASF239:
 6264 0de1 4170 7043 	.string"AppControlRequest"
 6264      6F6E 7472 
 6264      6F6C 5265 
 6264      7175 6573 
 6264      7400 
 6265               	.LASF152:
 6266 0df3 5369 676E 	.string"Signature"
 6266      6174 7572 
 6266      6500 
 6267               	.LASF231:
 6268 0dfd 5379 7374 	.string"SystemLogIndex"
 6268      656D 4C6F 
 6268      6749 6E64 
 6268      6578 00
 6269               	.LASF272:
 6270 0e0c 4163 7475 	.string"ActualSize"
 6270      616C 5369 
 6270      7A65 00
 6271               	.LASF35:
 6272 0e17 5F4D 7574 	.string"_Mutex"
 6272      6578 00
 6273               	.LASF240:
 6274 0e1e 4170 7053 	.string"AppState"
 6274      7461 7465 
 6274      00
 6275               	.LASF364:
 6276 0e27 4F62 6A65 	.string"ObjectId"
 6276      6374 4964 
 6276      00
 6277               	.LASF208:
 6278 0e30 4461 7461 	.string"DataEnd"
 6278      456E 6400 
 6279               	.LASF353:
 6280 0e38 426C 6F63 	.string"BlocksFree"
 6280      6B73 4672 
 6280      6565 00
 6281               	.LASF300:
 6282 0e43 4461 7461 	.string"DataToWrite"
 6282      546F 5772 
 6282      6974 6500 
 6283               	.LASF186:
 6284 0e4f 5072 6F63 	.string"ProcessorResetCount"
 6284      6573 736F 
 6284      7252 6573 
 6284      6574 436F 
 6284      756E 7400 
 6285               	.LASF8:
 6286 0e63 7569 6E74 	.string"uint8"
 6286      3800 
 6287               	.LASF260:
 6288 0e69 4346 455F 	.string"CFE_ES_AppRecord_t"
 6288      4553 5F41 
68K GAS   			page 160


 6288      7070 5265 
 6288      636F 7264 
 6288      5F74 00
 6289               	.LASF273:
 6290 0e7c 4346 455F 	.string"CFE_ES_CDSBlockDesc_t"
 6290      4553 5F43 
 6290      4453 426C 
 6290      6F63 6B44 
 6290      6573 635F 
 6291               	.LASF163:
 6292 0e92 4170 704E 	.string"AppName"
 6292      616D 6500 
 6293               	.LASF218:
 6294 0e9a 4E65 7874 	.string"Next"
 6294      00
 6295               	.LASF195:
 6296 0e9f 4461 7461 	.string"Data"
 6296      00
 6297               	.LASF125:
 6298 0ea4 5F6D 626C 	.string"_mblen_state"
 6298      656E 5F73 
 6298      7461 7465 
 6298      00
 6299               	.LASF340:
 6300 0eb1 5469 6D65 	.string"TimeOutMilliseconds"
 6300      4F75 744D 
 6300      696C 6C69 
 6300      7365 636F 
 6300      6E64 7300 
 6301               	.LASF4:
 6302 0ec5 7368 6F72 	.string"short int"
 6302      7420 696E 
 6302      7400 
 6303               	.LASF165:
 6304 0ecf 4576 656E 	.string"EventType"
 6304      7454 7970 
 6304      6500 
 6305               	.LASF297:
 6306 0ed9 5265 6769 	.string"Registry"
 6306      7374 7279 
 6306      00
 6307               	.LASF145:
 6308 0ee2 7375 626F 	.string"suboptarg"
 6308      7074 6172 
 6308      6700 
 6309               	.LASF65:
 6310 0eec 5F66 6E74 	.string"_fntypes"
 6310      7970 6573 
 6310      00
 6311               	.LASF58:
 6312 0ef5 5F5F 746D 	.string"__tm_year"
 6312      5F79 6561 
 6312      7200 
 6313               	.LASF287:
 6314 0eff 4346 455F 	.string"CFE_ES_CDSMemPool"
 6314      4553 5F43 
 6314      4453 4D65 
68K GAS   			page 161


 6314      6D50 6F6F 
 6314      6C00 
 6315               	.LASF164:
 6316 0f11 4576 656E 	.string"EventID"
 6316      7449 4400 
 6317               	.LASF282:
 6318 0f19 5265 7175 	.string"RequestCntr"
 6318      6573 7443 
 6318      6E74 7200 
 6319               	.LASF339:
 6320 0f25 4D69 6E69 	.string"MinimumSystemState"
 6320      6D75 6D53 
 6320      7973 7465 
 6320      6D53 7461 
 6320      7465 00
 6321               	.LASF361:
 6322 0f38 4346 455F 	.string"CFE_ES_Main"
 6322      4553 5F4D 
 6322      6169 6E00 
 6323               	.LASF76:
 6324 0f44 5F6C 6266 	.string"_lbfsize"
 6324      7369 7A65 
 6324      00
 6325               	.LASF95:
 6326 0f4d 5F69 6E63 	.string"_inc"
 6326      00
 6327               	.LASF68:
 6328 0f52 5F69 6E64 	.string"_ind"
 6328      00
 6329               	.LASF262:
 6330 0f57 5461 736B 	.string"TaskId"
 6330      4964 00
 6331               	.LASF17:
 6332 0f5e 5F5F 696E 	.string"__int64_t"
 6332      7436 345F 
 6332      7400 
 6333               	.LASF207:
 6334 0f68 4461 7461 	.string"DataStart"
 6334      5374 6172 
 6334      7400 
 6335               	.LASF3:
 6336 0f72 696E 7431 	.string"int16"
 6336      3600 
 6337               	.LASF70:
 6338 0f78 5F5F 7362 	.string"__sbuf"
 6338      7566 00
 6339               	.LASF66:
 6340 0f7f 5F69 735F 	.string"_is_cxa"
 6340      6378 6100 
 6341               	.LASF151:
 6342 0f87 4346 455F 	.string"CFE_TIME_SysTime_t"
 6342      5449 4D45 
 6342      5F53 7973 
 6342      5469 6D65 
 6342      5F74 00
 6343               	.LASF137:
 6344 0f9a 5F6E 6578 	.string"_nextf"
68K GAS   			page 162


 6344      7466 00
 6345               	.LASF189:
 6346 0fa1 5469 6D65 	.string"TimeCode"
 6346      436F 6465 
 6346      00
 6347               	.LASF194:
 6348 0faa 4346 455F 	.string"CFE_ES_ERLog_t"
 6348      4553 5F45 
 6348      524C 6F67 
 6348      5F74 00
 6349               	.LASF358:
 6350 0fb9 7374 6174 	.string"status"
 6350      7573 00
 6351               	.LASF266:
 6352 0fc0 4C69 624E 	.string"LibName"
 6352      616D 6500 
 6353               	.LASF173:
 6354 0fc8 4346 455F 	.string"CFE_EVS_Packet_Payload_t"
 6354      4556 535F 
 6354      5061 636B 
 6354      6574 5F50 
 6354      6179 6C6F 
 6355               	.LASF98:
 6356 0fe1 5F6C 6F63 	.string"_locale"
 6356      616C 6500 
 6357               	.LASF46:
 6358 0fe9 5F5F 554C 	.string"__ULong"
 6358      6F6E 6700 
 6359               	.LASF291:
 6360 0ff1 5461 626C 	.string"Table"
 6360      6500 
 6361               	.LASF335:
 6362 0ff7 4F62 6A65 	.string"ObjectSize"
 6362      6374 5369 
 6362      7A65 00
 6363               	.LASF190:
 6364 1002 4465 7363 	.string"Description"
 6364      7269 7074 
 6364      696F 6E00 
 6365               	.LASF283:
 6366 100e 4D75 7465 	.string"MutexId"
 6366      7849 6400 
 6367               	.LASF101:
 6368 1016 5F72 6573 	.string"_result"
 6368      756C 7400 
 6369               	.LASF26:
 6370 101e 5F4C 6F63 	.string"_Lock"
 6370      6B00 
 6371               	.LASF22:
 6372 1024 5F6E 6F77 	.string"_now_serving"
 6372      5F73 6572 
 6372      7669 6E67 
 6372      00
 6373               	.LASF19:
 6374 1031 5F6F 6666 	.string"_off_t"
 6374      5F74 00
 6375               	.LASF117:
68K GAS   			page 163


 6376 1038 5F61 6464 	.string"_add"
 6376      00
 6377               	.LASF328:
 6378 103d 4D61 696E 	.string"MainAppPtr"
 6378      4170 7050 
 6378      7472 00
 6379               	.LASF366:
 6380 1048 474E 5520 	.string"GNU C11 7.3.0 20180125 (RTEMS 5, RSB d2b25d131d55adcb38219f2cd8cbec2436ee78ab, Newlib 3.0.0) -malign-int -mcpu=528x -g -O0 -fomit-frame-pointer"
 6380      4331 3120 
 6380      372E 332E 
 6380      3020 3230 
 6380      3138 3031 
 6381               	.LASF10:
 6382 10d8 7368 6F72 	.string"short unsigned int"
 6382      7420 756E 
 6382      7369 676E 
 6382      6564 2069 
 6382      6E74 00
 6383               	.LASF365:
 6384 10eb 4172 7261 	.string"ArrayIndex"
 6384      7949 6E64 
 6384      6578 00
 6385               	.LASF55:
 6386 10f6 5F5F 746D 	.string"__tm_hour"
 6386      5F68 6F75 
 6386      7200 
 6387               	.LASF182:
 6388 1100 4C6F 6745 	.string"LogEntryType"
 6388      6E74 7279 
 6388      5479 7065 
 6388      00
 6389               	.LASF166:
 6390 110d 5370 6163 	.string"SpacecraftID"
 6390      6563 7261 
 6390      6674 4944 
 6390      00
 6391               	.LASF5:
 6392 111a 696E 7433 	.string"int32"
 6392      3200 
 6393               	.LASF133:
 6394 1120 5F6D 6273 	.string"_mbsrtowcs_state"
 6394      7274 6F77 
 6394      6373 5F73 
 6394      7461 7465 
 6394      00
 6395               	.LASF348:
 6396 1131 4346 455F 	.string"CFE_ES_InitializeFileSystems"
 6396      4553 5F49 
 6396      6E69 7469 
 6396      616C 697A 
 6396      6546 696C 
 6397               	.LASF168:
 6398 114e 4346 455F 	.string"CFE_EVS_PacketID_t"
 6398      4556 535F 
 6398      5061 636B 
 6398      6574 4944 
 6398      5F74 00
68K GAS   			page 164


 6399               	.LASF362:
 6400 1161 4D6F 6465 	.string"ModeId"
 6400      4964 00
 6401               	.LASF357:
 6402 1168 5374 6172 	.string"StartSubtype"
 6402      7453 7562 
 6402      7479 7065 
 6402      00
 6403               	.LASF355:
 6404 1175 4346 455F 	.string"CFE_ES_SetupResetVariables"
 6404      4553 5F53 
 6404      6574 7570 
 6404      5265 7365 
 6404      7456 6172 
 6405               	.LASF63:
 6406 1190 5F66 6E61 	.string"_fnargs"
 6406      7267 7300 
 6407               	.LASF61:
 6408 1198 5F5F 746D 	.string"__tm_isdst"
 6408      5F69 7364 
 6408      7374 00
 6409               	.LASF224:
 6410 11a3 4346 455F 	.string"CFE_EVS_Log_t"
 6410      4556 535F 
 6410      4C6F 675F 
 6410      7400 
 6411               	.LASF193:
 6412 11b1 436F 6E74 	.string"Context"
 6412      6578 7400 
 6413               	.LASF178:
 6414 11b9 5761 7463 	.string"WatchdogWriteFlag"
 6414      6864 6F67 
 6414      5772 6974 
 6414      6546 6C61 
 6414      6700 
 6415               	.LASF147:
 6416 11cb 5F64 6179 	.string"_daylight"
 6416      6C69 6768 
 6416      7400 
 6417               	.LASF301:
 6418 11d5 4368 696C 	.string"ChildID"
 6418      6449 4400 
 6419               	.LASF54:
 6420 11dd 5F5F 746D 	.string"__tm_min"
 6420      5F6D 696E 
 6420      00
 6421               	.LASF235:
 6422 11e6 5265 7365 	.string"ResetVars"
 6422      7456 6172 
 6422      7300 
 6423               	.LASF9:
 6424 11f0 7569 6E74 	.string"uint16"
 6424      3136 00
 6425               	.LASF259:
 6426 11f7 5461 736B 	.string"TaskInfo"
 6426      496E 666F 
 6426      00
68K GAS   			page 165


 6427               	.LASF130:
 6428 1200 5F67 6574 	.string"_getdate_err"
 6428      6461 7465 
 6428      5F65 7272 
 6428      00
 6429               	.LASF161:
 6430 120d 4346 455F 	.string"CFE_SB_Qos_t"
 6430      5342 5F51 
 6430      6F73 5F74 
 6430      00
 6431               	.LASF321:
 6432 121a 4344 5356 	.string"CDSVars"
 6432      6172 7300 
 6433               	.LASF338:
 6434 1222 4346 455F 	.string"CFE_ES_ObjectTable"
 6434      4553 5F4F 
 6434      626A 6563 
 6434      7454 6162 
 6434      6C65 00
 6435               	.ident"GCC: (GNU) 7.3.0 20180125 (RTEMS 5, RSB d2b25d131d55adcb38219f2cd8cbec2436ee78ab, Newlib 3.0.0)"
68K GAS   			page 166


DEFINED SYMBOLS
                            *ABS*:0000000000000000 cfe_es_start.c
    {standard input}:8      .text:0000000000000000 OS_ConvertToArrayIndex
                            *COM*:00000000000087fc CFE_ES_Global
                            *COM*:0000000000000004 CFE_ES_ResetDataPtr
    {standard input}:44     .text:000000000000000c CFE_ES_Main
    {standard input}:275    .text:000000000000019c CFE_ES_SetupResetVariables
    {standard input}:706    .text:0000000000000562 CFE_ES_InitializeFileSystems
    {standard input}:1159   .text:0000000000000904 CFE_ES_CreateObjects
    {standard input}:1839   .text:0000000000000fe4 CFE_ES_ApplicationSyncDelay
    {standard input}:1909   .rodata:0000000000000a0f __func__.5835

UNDEFINED SYMBOLS
CFE_ES_SetupPerfVariables
CFE_ES_WriteToSysLog
CFE_PSP_AttachExceptions
OS_MutSemCreate
OS_TaskDelay
CFE_PSP_Panic
CFE_ES_StartApplications
CFE_PSP_GetResetArea
OS_printf
CFE_ES_WriteToERLog
CFE_PSP_Restart
CFE_PSP_GetVolatileDiskMem
OS_mkfs
OS_initfs
OS_mount
OS_fsBlocksFree
OS_unmount
OS_rmfs
CFE_ES_ObjectTable
CFE_ES_LockSharedData
CFE_PSP_MemSet
strncpy
OS_TaskCreate
CFE_ES_UnlockSharedData
