68K GAS   			page 1


   1               	
   2               	.file"cfe_es_apps.c"
   3               	.text
   4               	.Ltext0:
   5               	.cfi_sections.debug_frame
   6               	.align2
   7               	.typeOS_ConvertToArrayIndex, @function
   8               	OS_ConvertToArrayIndex:
   9               	.LFB58:
  10               	.file 1 "/home/simulink/cFS_FreeRTOS_seL4/cfe/fsw/cfe-core/src/inc/cfe_es.h"
   1:/home/simulink/cFS_FreeRTOS_seL4/cfe/fsw/cfe-core/src/inc/cfe_es.h **** /*
   2:/home/simulink/cFS_FreeRTOS_seL4/cfe/fsw/cfe-core/src/inc/cfe_es.h **** **
   3:/home/simulink/cFS_FreeRTOS_seL4/cfe/fsw/cfe-core/src/inc/cfe_es.h **** **  File: 
   4:/home/simulink/cFS_FreeRTOS_seL4/cfe/fsw/cfe-core/src/inc/cfe_es.h **** **  cfe_es.h
   5:/home/simulink/cFS_FreeRTOS_seL4/cfe/fsw/cfe-core/src/inc/cfe_es.h **** **  $Id: cfe_es.h 1.14 2014/08/19 13:32:01GMT-05:00 sstrege Exp  $
   6:/home/simulink/cFS_FreeRTOS_seL4/cfe/fsw/cfe-core/src/inc/cfe_es.h **** **
   7:/home/simulink/cFS_FreeRTOS_seL4/cfe/fsw/cfe-core/src/inc/cfe_es.h **** **
   8:/home/simulink/cFS_FreeRTOS_seL4/cfe/fsw/cfe-core/src/inc/cfe_es.h **** **      Copyright (c) 2004-2006, United States government as represented by the 
   9:/home/simulink/cFS_FreeRTOS_seL4/cfe/fsw/cfe-core/src/inc/cfe_es.h **** **      administrator of the National Aeronautics Space Administration.  
  10:/home/simulink/cFS_FreeRTOS_seL4/cfe/fsw/cfe-core/src/inc/cfe_es.h **** **      All rights reserved. This software(cFE) was created at NASA's Goddard 
  11:/home/simulink/cFS_FreeRTOS_seL4/cfe/fsw/cfe-core/src/inc/cfe_es.h **** **      Space Flight Center pursuant to government contracts.
  12:/home/simulink/cFS_FreeRTOS_seL4/cfe/fsw/cfe-core/src/inc/cfe_es.h **** **
  13:/home/simulink/cFS_FreeRTOS_seL4/cfe/fsw/cfe-core/src/inc/cfe_es.h **** **      This is governed by the NASA Open Source Agreement and may be used,
  14:/home/simulink/cFS_FreeRTOS_seL4/cfe/fsw/cfe-core/src/inc/cfe_es.h **** **      distributed and modified only pursuant to the terms of that agreement. 
  15:/home/simulink/cFS_FreeRTOS_seL4/cfe/fsw/cfe-core/src/inc/cfe_es.h **** **
  16:/home/simulink/cFS_FreeRTOS_seL4/cfe/fsw/cfe-core/src/inc/cfe_es.h **** **
  17:/home/simulink/cFS_FreeRTOS_seL4/cfe/fsw/cfe-core/src/inc/cfe_es.h **** **  Purpose:
  18:/home/simulink/cFS_FreeRTOS_seL4/cfe/fsw/cfe-core/src/inc/cfe_es.h **** **	Unit specification for Executive Services library functions and macros.
  19:/home/simulink/cFS_FreeRTOS_seL4/cfe/fsw/cfe-core/src/inc/cfe_es.h **** **
  20:/home/simulink/cFS_FreeRTOS_seL4/cfe/fsw/cfe-core/src/inc/cfe_es.h **** **  References:
  21:/home/simulink/cFS_FreeRTOS_seL4/cfe/fsw/cfe-core/src/inc/cfe_es.h **** **     Flight Software Branch C Coding Standard Version 1.0a
  22:/home/simulink/cFS_FreeRTOS_seL4/cfe/fsw/cfe-core/src/inc/cfe_es.h **** **     cFE Flight Software Application Developers Guide
  23:/home/simulink/cFS_FreeRTOS_seL4/cfe/fsw/cfe-core/src/inc/cfe_es.h **** **
  24:/home/simulink/cFS_FreeRTOS_seL4/cfe/fsw/cfe-core/src/inc/cfe_es.h **** **	Notes:
  25:/home/simulink/cFS_FreeRTOS_seL4/cfe/fsw/cfe-core/src/inc/cfe_es.h **** **
  26:/home/simulink/cFS_FreeRTOS_seL4/cfe/fsw/cfe-core/src/inc/cfe_es.h **** **  $Date: 2014/08/19 13:32:01GMT-05:00 $
  27:/home/simulink/cFS_FreeRTOS_seL4/cfe/fsw/cfe-core/src/inc/cfe_es.h **** **  $Revision: 1.14 $
  28:/home/simulink/cFS_FreeRTOS_seL4/cfe/fsw/cfe-core/src/inc/cfe_es.h **** **  $Log: cfe_es.h  $
  29:/home/simulink/cFS_FreeRTOS_seL4/cfe/fsw/cfe-core/src/inc/cfe_es.h **** **  Revision 1.14 2014/08/19 13:32:01GMT-05:00 sstrege 
  30:/home/simulink/cFS_FreeRTOS_seL4/cfe/fsw/cfe-core/src/inc/cfe_es.h **** **  Fixed doxygen warnings
  31:/home/simulink/cFS_FreeRTOS_seL4/cfe/fsw/cfe-core/src/inc/cfe_es.h **** **  Revision 1.13 2011/07/15 14:28:34EDT lwalling 
  32:/home/simulink/cFS_FreeRTOS_seL4/cfe/fsw/cfe-core/src/inc/cfe_es.h **** **  Removed const qualifier from CounterName argument to CFE_ES_RegisterGenCounter()
  33:/home/simulink/cFS_FreeRTOS_seL4/cfe/fsw/cfe-core/src/inc/cfe_es.h **** **  Revision 1.12 2010/11/05 15:54:27EDT aschoeni 
  34:/home/simulink/cFS_FreeRTOS_seL4/cfe/fsw/cfe-core/src/inc/cfe_es.h **** **  Added Generic Counter API to ES
  35:/home/simulink/cFS_FreeRTOS_seL4/cfe/fsw/cfe-core/src/inc/cfe_es.h **** **  Revision 1.11 2010/11/01 16:03:10EDT jmdagost 
  36:/home/simulink/cFS_FreeRTOS_seL4/cfe/fsw/cfe-core/src/inc/cfe_es.h **** **  Removed cfe.h from include list and added cfe_mission_cfg.h
  37:/home/simulink/cFS_FreeRTOS_seL4/cfe/fsw/cfe-core/src/inc/cfe_es.h **** **  Revision 1.10 2010/10/20 12:35:43EDT jmdagost 
  38:/home/simulink/cFS_FreeRTOS_seL4/cfe/fsw/cfe-core/src/inc/cfe_es.h **** **  Major revision to make semaphore use in memory pool creation optional.
  39:/home/simulink/cFS_FreeRTOS_seL4/cfe/fsw/cfe-core/src/inc/cfe_es.h **** **  Revision 1.9 2009/07/29 15:54:46EDT aschoeni 
  40:/home/simulink/cFS_FreeRTOS_seL4/cfe/fsw/cfe-core/src/inc/cfe_es.h **** **  Added GetPoolBufInfo function to return size or invalidity of a buffer in a pool
  41:/home/simulink/cFS_FreeRTOS_seL4/cfe/fsw/cfe-core/src/inc/cfe_es.h **** **  Revision 1.8 2008/12/08 16:10:54EST dkobe 
  42:/home/simulink/cFS_FreeRTOS_seL4/cfe/fsw/cfe-core/src/inc/cfe_es.h **** **  Correcting errors generated during detailed design document generation
  43:/home/simulink/cFS_FreeRTOS_seL4/cfe/fsw/cfe-core/src/inc/cfe_es.h **** **  Revision 1.7 2008/12/08 12:07:09EST dkobe 
  44:/home/simulink/cFS_FreeRTOS_seL4/cfe/fsw/cfe-core/src/inc/cfe_es.h **** **  Updates to correct doxygen errors
  45:/home/simulink/cFS_FreeRTOS_seL4/cfe/fsw/cfe-core/src/inc/cfe_es.h **** **  Revision 1.6 2008/07/31 15:41:31EDT apcudmore 
  46:/home/simulink/cFS_FreeRTOS_seL4/cfe/fsw/cfe-core/src/inc/cfe_es.h **** **  Added execution counter API:
  47:/home/simulink/cFS_FreeRTOS_seL4/cfe/fsw/cfe-core/src/inc/cfe_es.h **** **    -- Added execution counter to ES internal task data
68K GAS   			page 2


  48:/home/simulink/cFS_FreeRTOS_seL4/cfe/fsw/cfe-core/src/inc/cfe_es.h **** **    -- Added code to increment counter in RunLoop
  49:/home/simulink/cFS_FreeRTOS_seL4/cfe/fsw/cfe-core/src/inc/cfe_es.h **** **    -- Added code to report counter in GetInfo APIs
  50:/home/simulink/cFS_FreeRTOS_seL4/cfe/fsw/cfe-core/src/inc/cfe_es.h **** **    -- Added API to increment counter for child tasks
  51:/home/simulink/cFS_FreeRTOS_seL4/cfe/fsw/cfe-core/src/inc/cfe_es.h **** **    -- Added code to cFE Core apps to increment counters.
  52:/home/simulink/cFS_FreeRTOS_seL4/cfe/fsw/cfe-core/src/inc/cfe_es.h **** **  Revision 1.5 2008/07/30 14:53:57EDT apcudmore 
  53:/home/simulink/cFS_FreeRTOS_seL4/cfe/fsw/cfe-core/src/inc/cfe_es.h **** **  Added CFE_ES_WaitForStartupSync API
  54:/home/simulink/cFS_FreeRTOS_seL4/cfe/fsw/cfe-core/src/inc/cfe_es.h **** **  Revision 1.4 2008/07/08 12:35:28EDT apcudmore 
  55:/home/simulink/cFS_FreeRTOS_seL4/cfe/fsw/cfe-core/src/inc/cfe_es.h **** **  Added an "AddressesAreValid" flag to the ES App Info structure.
  56:/home/simulink/cFS_FreeRTOS_seL4/cfe/fsw/cfe-core/src/inc/cfe_es.h **** **  Revision 1.3 2008/06/26 15:41:51EDT apcudmore 
  57:/home/simulink/cFS_FreeRTOS_seL4/cfe/fsw/cfe-core/src/inc/cfe_es.h **** **  Added public CFE_ES_GetAppInfo API.
  58:/home/simulink/cFS_FreeRTOS_seL4/cfe/fsw/cfe-core/src/inc/cfe_es.h **** **  Moved the old API to CFE_ES_GetAppInfoInternal
  59:/home/simulink/cFS_FreeRTOS_seL4/cfe/fsw/cfe-core/src/inc/cfe_es.h **** **  -- May merge these two in the near future.
  60:/home/simulink/cFS_FreeRTOS_seL4/cfe/fsw/cfe-core/src/inc/cfe_es.h **** **  Revision 1.2 2008/06/20 15:40:27EDT apcudmore 
  61:/home/simulink/cFS_FreeRTOS_seL4/cfe/fsw/cfe-core/src/inc/cfe_es.h **** **  Added support for OSAL based module loader
  62:/home/simulink/cFS_FreeRTOS_seL4/cfe/fsw/cfe-core/src/inc/cfe_es.h **** **   - Removed calls and references to the BSP based module loader
  63:/home/simulink/cFS_FreeRTOS_seL4/cfe/fsw/cfe-core/src/inc/cfe_es.h **** **  Revision 1.1 2008/04/17 08:05:19EDT ruperera 
  64:/home/simulink/cFS_FreeRTOS_seL4/cfe/fsw/cfe-core/src/inc/cfe_es.h **** **  Initial revision
  65:/home/simulink/cFS_FreeRTOS_seL4/cfe/fsw/cfe-core/src/inc/cfe_es.h **** **  Member added to project c:/MKSDATA/MKS-REPOSITORY/MKS-CFE-PROJECT/fsw/cfe-core/src/inc/project.
  66:/home/simulink/cFS_FreeRTOS_seL4/cfe/fsw/cfe-core/src/inc/cfe_es.h **** **  Revision 1.58 2007/09/27 15:54:56EDT David Kobe (dlkobe) 
  67:/home/simulink/cFS_FreeRTOS_seL4/cfe/fsw/cfe-core/src/inc/cfe_es.h **** **  Added doxygen comments for commands and telemetry
  68:/home/simulink/cFS_FreeRTOS_seL4/cfe/fsw/cfe-core/src/inc/cfe_es.h **** **  Revision 1.57 2007/09/25 10:24:05EDT apcudmore 
  69:/home/simulink/cFS_FreeRTOS_seL4/cfe/fsw/cfe-core/src/inc/cfe_es.h **** **  Implement Application Restart on Exception:
  70:/home/simulink/cFS_FreeRTOS_seL4/cfe/fsw/cfe-core/src/inc/cfe_es.h **** **  - Added logic to Exception Handler
  71:/home/simulink/cFS_FreeRTOS_seL4/cfe/fsw/cfe-core/src/inc/cfe_es.h **** **  - Changed Exception Hook to pass host task ID
  72:/home/simulink/cFS_FreeRTOS_seL4/cfe/fsw/cfe-core/src/inc/cfe_es.h **** **  - Added App Reset ER Log entry type
  73:/home/simulink/cFS_FreeRTOS_seL4/cfe/fsw/cfe-core/src/inc/cfe_es.h **** **  Revision 1.56 2007/09/21 15:40:15EDT David Kobe (dlkobe) 
  74:/home/simulink/cFS_FreeRTOS_seL4/cfe/fsw/cfe-core/src/inc/cfe_es.h **** **  Modified pointer type definitions to eliminate Linux gcc compile warnings
  75:/home/simulink/cFS_FreeRTOS_seL4/cfe/fsw/cfe-core/src/inc/cfe_es.h **** **  Revision 1.55 2007/09/20 10:52:57EDT apcudmore 
  76:/home/simulink/cFS_FreeRTOS_seL4/cfe/fsw/cfe-core/src/inc/cfe_es.h **** **  Added Query All Tasks command, file definition, events, error codes etc.
  77:/home/simulink/cFS_FreeRTOS_seL4/cfe/fsw/cfe-core/src/inc/cfe_es.h **** **  Revision 1.54 2007/09/12 16:06:09EDT David Kobe (dlkobe) 
  78:/home/simulink/cFS_FreeRTOS_seL4/cfe/fsw/cfe-core/src/inc/cfe_es.h **** **  Moved the definitions of CFE_ES_CRC_xx to the cfe_mission_cfg.h file and deleted TBL Services
  79:/home/simulink/cFS_FreeRTOS_seL4/cfe/fsw/cfe-core/src/inc/cfe_es.h **** **  CRC #define statement.
  80:/home/simulink/cFS_FreeRTOS_seL4/cfe/fsw/cfe-core/src/inc/cfe_es.h **** **  Revision 1.53 2007/08/31 14:11:05EDT apcudmore 
  81:/home/simulink/cFS_FreeRTOS_seL4/cfe/fsw/cfe-core/src/inc/cfe_es.h **** **  Updated reset subtypes ( trunk )
  82:/home/simulink/cFS_FreeRTOS_seL4/cfe/fsw/cfe-core/src/inc/cfe_es.h **** **  Revision 1.52 2007/08/07 12:52:40EDT dlkobe 
  83:/home/simulink/cFS_FreeRTOS_seL4/cfe/fsw/cfe-core/src/inc/cfe_es.h **** **  Modified CFE_ES_GetPoolBuf API's first parameter to be of type uint32**
  84:/home/simulink/cFS_FreeRTOS_seL4/cfe/fsw/cfe-core/src/inc/cfe_es.h **** **  Revision 1.51 2007/05/25 16:24:48EDT dlkobe 
  85:/home/simulink/cFS_FreeRTOS_seL4/cfe/fsw/cfe-core/src/inc/cfe_es.h **** **  Continued updating doxygen comments
  86:/home/simulink/cFS_FreeRTOS_seL4/cfe/fsw/cfe-core/src/inc/cfe_es.h **** **  Revision 1.50 2007/05/23 11:21:23EDT dlkobe 
  87:/home/simulink/cFS_FreeRTOS_seL4/cfe/fsw/cfe-core/src/inc/cfe_es.h **** **  Added doxygen formatting
  88:/home/simulink/cFS_FreeRTOS_seL4/cfe/fsw/cfe-core/src/inc/cfe_es.h **** **  Revision 1.49 2007/05/22 14:56:49EDT apcudmore 
  89:/home/simulink/cFS_FreeRTOS_seL4/cfe/fsw/cfe-core/src/inc/cfe_es.h **** **  cFE Non-Volatile Disk/Startup File changes:
  90:/home/simulink/cFS_FreeRTOS_seL4/cfe/fsw/cfe-core/src/inc/cfe_es.h **** **    - cFE startup now passes in startup file path/name
  91:/home/simulink/cFS_FreeRTOS_seL4/cfe/fsw/cfe-core/src/inc/cfe_es.h **** **    - cFE startup code does not init non-volatile disk ( BSP does )
  92:/home/simulink/cFS_FreeRTOS_seL4/cfe/fsw/cfe-core/src/inc/cfe_es.h **** **    - BSPs now can map cFE paths without making the OS_initfs/OS_mount calls
  93:/home/simulink/cFS_FreeRTOS_seL4/cfe/fsw/cfe-core/src/inc/cfe_es.h **** **    - MCP750 vxWorks6.2 BSP inits/mounts CF disk
  94:/home/simulink/cFS_FreeRTOS_seL4/cfe/fsw/cfe-core/src/inc/cfe_es.h **** **    - Desktop ports pass in the same startup file path/name as before
  95:/home/simulink/cFS_FreeRTOS_seL4/cfe/fsw/cfe-core/src/inc/cfe_es.h **** **  Revision 1.48 2007/05/14 15:43:45EDT apcudmore 
  96:/home/simulink/cFS_FreeRTOS_seL4/cfe/fsw/cfe-core/src/inc/cfe_es.h **** **  Cleaned up events and disabled debug code for application restart.
  97:/home/simulink/cFS_FreeRTOS_seL4/cfe/fsw/cfe-core/src/inc/cfe_es.h **** **  Revision 1.47 2007/05/09 12:42:13EDT dlkobe 
  98:/home/simulink/cFS_FreeRTOS_seL4/cfe/fsw/cfe-core/src/inc/cfe_es.h **** **  Added structure for Dump CDS Registry Record format
  99:/home/simulink/cFS_FreeRTOS_seL4/cfe/fsw/cfe-core/src/inc/cfe_es.h **** **  Revision 1.46 2007/05/04 20:07:51EDT dlkobe 
 100:/home/simulink/cFS_FreeRTOS_seL4/cfe/fsw/cfe-core/src/inc/cfe_es.h **** **  Added command to telemeter memory pool statistics
 101:/home/simulink/cFS_FreeRTOS_seL4/cfe/fsw/cfe-core/src/inc/cfe_es.h **** **  Revision 1.45 2007/04/12 10:37:18EDT apcudmore 
 102:/home/simulink/cFS_FreeRTOS_seL4/cfe/fsw/cfe-core/src/inc/cfe_es.h **** **  Added support for ES task to call CFE_ES_ExitApp on initialization and runtime failure.
 103:/home/simulink/cFS_FreeRTOS_seL4/cfe/fsw/cfe-core/src/inc/cfe_es.h **** **  Revision 1.44 2007/04/10 11:39:19EDT rjmcgraw 
 104:/home/simulink/cFS_FreeRTOS_seL4/cfe/fsw/cfe-core/src/inc/cfe_es.h **** **  Added function prototype CFE_ES_PerfLogAdd
68K GAS   			page 3


 105:/home/simulink/cFS_FreeRTOS_seL4/cfe/fsw/cfe-core/src/inc/cfe_es.h **** **  Revision 1.43 2007/04/10 11:29:10EDT rjmcgraw 
 106:/home/simulink/cFS_FreeRTOS_seL4/cfe/fsw/cfe-core/src/inc/cfe_es.h **** **  Changed perf entry and exit routines to macros
 107:/home/simulink/cFS_FreeRTOS_seL4/cfe/fsw/cfe-core/src/inc/cfe_es.h **** **  Revision 1.42 2007/04/09 15:12:03EDT dlkobe 
 108:/home/simulink/cFS_FreeRTOS_seL4/cfe/fsw/cfe-core/src/inc/cfe_es.h **** **  Modified 'Name' parameter to be a const pointer
 109:/home/simulink/cFS_FreeRTOS_seL4/cfe/fsw/cfe-core/src/inc/cfe_es.h **** **  Revision 1.41 2007/04/05 16:16:03EDT apcudmore 
 110:/home/simulink/cFS_FreeRTOS_seL4/cfe/fsw/cfe-core/src/inc/cfe_es.h **** **  Added CFE_ES_DeleteChildTask and CFE_ES_ExitChildTask along with headers,
 111:/home/simulink/cFS_FreeRTOS_seL4/cfe/fsw/cfe-core/src/inc/cfe_es.h **** **  and associated Error codes.
 112:/home/simulink/cFS_FreeRTOS_seL4/cfe/fsw/cfe-core/src/inc/cfe_es.h **** **  Revision 1.39 2007/04/03 16:49:24EDT apcudmore 
 113:/home/simulink/cFS_FreeRTOS_seL4/cfe/fsw/cfe-core/src/inc/cfe_es.h **** **  Moved all command code defines, command , and telemetry definitions to cfe_es_msg.h
 114:/home/simulink/cFS_FreeRTOS_seL4/cfe/fsw/cfe-core/src/inc/cfe_es.h **** **  Revision 1.38 2007/04/02 10:57:45EDT rjmcgraw 
 115:/home/simulink/cFS_FreeRTOS_seL4/cfe/fsw/cfe-core/src/inc/cfe_es.h **** **  Moved BIT macros from perf.h to cfe_es.h
 116:/home/simulink/cFS_FreeRTOS_seL4/cfe/fsw/cfe-core/src/inc/cfe_es.h **** **  Revision 1.37 2007/03/29 15:49:08EST rjmcgraw 
 117:/home/simulink/cFS_FreeRTOS_seL4/cfe/fsw/cfe-core/src/inc/cfe_es.h **** **  Changed name of performance cmd codes
 118:/home/simulink/cFS_FreeRTOS_seL4/cfe/fsw/cfe-core/src/inc/cfe_es.h **** **  Revision 1.36 2007/03/29 15:22:34EST rjmcgraw 
 119:/home/simulink/cFS_FreeRTOS_seL4/cfe/fsw/cfe-core/src/inc/cfe_es.h **** **  Changed #define names for Logic Analyzer Cmd Codes
 120:/home/simulink/cFS_FreeRTOS_seL4/cfe/fsw/cfe-core/src/inc/cfe_es.h **** **
 121:/home/simulink/cFS_FreeRTOS_seL4/cfe/fsw/cfe-core/src/inc/cfe_es.h **** */
 122:/home/simulink/cFS_FreeRTOS_seL4/cfe/fsw/cfe-core/src/inc/cfe_es.h **** 
 123:/home/simulink/cFS_FreeRTOS_seL4/cfe/fsw/cfe-core/src/inc/cfe_es.h **** #ifndef _cfe_es_
 124:/home/simulink/cFS_FreeRTOS_seL4/cfe/fsw/cfe-core/src/inc/cfe_es.h **** #define _cfe_es_
 125:/home/simulink/cFS_FreeRTOS_seL4/cfe/fsw/cfe-core/src/inc/cfe_es.h **** 
 126:/home/simulink/cFS_FreeRTOS_seL4/cfe/fsw/cfe-core/src/inc/cfe_es.h **** /*
 127:/home/simulink/cFS_FreeRTOS_seL4/cfe/fsw/cfe-core/src/inc/cfe_es.h **** ** Includes 
 128:/home/simulink/cFS_FreeRTOS_seL4/cfe/fsw/cfe-core/src/inc/cfe_es.h **** */
 129:/home/simulink/cFS_FreeRTOS_seL4/cfe/fsw/cfe-core/src/inc/cfe_es.h **** #include "cfe_mission_cfg.h"
 130:/home/simulink/cFS_FreeRTOS_seL4/cfe/fsw/cfe-core/src/inc/cfe_es.h **** #include "cfe_es_perfids.h"
 131:/home/simulink/cFS_FreeRTOS_seL4/cfe/fsw/cfe-core/src/inc/cfe_es.h **** 
 132:/home/simulink/cFS_FreeRTOS_seL4/cfe/fsw/cfe-core/src/inc/cfe_es.h **** /*****************************************************************************/
 133:/home/simulink/cFS_FreeRTOS_seL4/cfe/fsw/cfe-core/src/inc/cfe_es.h **** 
 134:/home/simulink/cFS_FreeRTOS_seL4/cfe/fsw/cfe-core/src/inc/cfe_es.h **** /*
 135:/home/simulink/cFS_FreeRTOS_seL4/cfe/fsw/cfe-core/src/inc/cfe_es.h **** ** Macro Definitions
 136:/home/simulink/cFS_FreeRTOS_seL4/cfe/fsw/cfe-core/src/inc/cfe_es.h **** */
 137:/home/simulink/cFS_FreeRTOS_seL4/cfe/fsw/cfe-core/src/inc/cfe_es.h **** 
 138:/home/simulink/cFS_FreeRTOS_seL4/cfe/fsw/cfe-core/src/inc/cfe_es.h **** /* 
 139:/home/simulink/cFS_FreeRTOS_seL4/cfe/fsw/cfe-core/src/inc/cfe_es.h **** ** The OS_PRINTF macro may be defined by OSAL to enable
 140:/home/simulink/cFS_FreeRTOS_seL4/cfe/fsw/cfe-core/src/inc/cfe_es.h **** ** printf-style argument checking.  If using a version of OSAL
 141:/home/simulink/cFS_FreeRTOS_seL4/cfe/fsw/cfe-core/src/inc/cfe_es.h **** ** that does not define this then define it as a no-op.
 142:/home/simulink/cFS_FreeRTOS_seL4/cfe/fsw/cfe-core/src/inc/cfe_es.h **** */
 143:/home/simulink/cFS_FreeRTOS_seL4/cfe/fsw/cfe-core/src/inc/cfe_es.h **** #ifndef OS_PRINTF
 144:/home/simulink/cFS_FreeRTOS_seL4/cfe/fsw/cfe-core/src/inc/cfe_es.h **** #define OS_PRINTF(m,n)
 145:/home/simulink/cFS_FreeRTOS_seL4/cfe/fsw/cfe-core/src/inc/cfe_es.h **** #endif
 146:/home/simulink/cFS_FreeRTOS_seL4/cfe/fsw/cfe-core/src/inc/cfe_es.h **** 
 147:/home/simulink/cFS_FreeRTOS_seL4/cfe/fsw/cfe-core/src/inc/cfe_es.h **** #define CFE_ES_DBIT(x) (1L << (x))                                    /* Places a one at bit positi
 148:/home/simulink/cFS_FreeRTOS_seL4/cfe/fsw/cfe-core/src/inc/cfe_es.h **** #define CFE_ES_DTEST(i,x) (((i) & CFE_ES_DBIT(x)) != 0)               /* TRUE iff bit x of i is set
 149:/home/simulink/cFS_FreeRTOS_seL4/cfe/fsw/cfe-core/src/inc/cfe_es.h **** #define CFE_ES_TEST_LONG_MASK(m,s)  (CFE_ES_DTEST(m[(s)/32],(s)%32))  /* Test a bit within an array
 150:/home/simulink/cFS_FreeRTOS_seL4/cfe/fsw/cfe-core/src/inc/cfe_es.h **** #define CFE_ES_MAX_MEMPOOL_BLOCK_SIZES     17    /**< Max number of size divisions allowed in a mem
 151:/home/simulink/cFS_FreeRTOS_seL4/cfe/fsw/cfe-core/src/inc/cfe_es.h **** 
 152:/home/simulink/cFS_FreeRTOS_seL4/cfe/fsw/cfe-core/src/inc/cfe_es.h **** /*
 153:/home/simulink/cFS_FreeRTOS_seL4/cfe/fsw/cfe-core/src/inc/cfe_es.h **** ** Note about reset type and subtypes:
 154:/home/simulink/cFS_FreeRTOS_seL4/cfe/fsw/cfe-core/src/inc/cfe_es.h **** **
 155:/home/simulink/cFS_FreeRTOS_seL4/cfe/fsw/cfe-core/src/inc/cfe_es.h **** ** These values come from the PSP so the actual definition of these enumerations
 156:/home/simulink/cFS_FreeRTOS_seL4/cfe/fsw/cfe-core/src/inc/cfe_es.h **** ** was moved to the PSP header file <cfe_psp.h>.
 157:/home/simulink/cFS_FreeRTOS_seL4/cfe/fsw/cfe-core/src/inc/cfe_es.h **** **
 158:/home/simulink/cFS_FreeRTOS_seL4/cfe/fsw/cfe-core/src/inc/cfe_es.h **** ** In the future the Electronic Data sheets (EDS) for PSP/ES
 159:/home/simulink/cFS_FreeRTOS_seL4/cfe/fsw/cfe-core/src/inc/cfe_es.h **** ** will define the exact values to use in telemetry messages.
 160:/home/simulink/cFS_FreeRTOS_seL4/cfe/fsw/cfe-core/src/inc/cfe_es.h **** */
 161:/home/simulink/cFS_FreeRTOS_seL4/cfe/fsw/cfe-core/src/inc/cfe_es.h **** 
68K GAS   			page 4


 162:/home/simulink/cFS_FreeRTOS_seL4/cfe/fsw/cfe-core/src/inc/cfe_es.h **** /*
 163:/home/simulink/cFS_FreeRTOS_seL4/cfe/fsw/cfe-core/src/inc/cfe_es.h **** **  Reset types
 164:/home/simulink/cFS_FreeRTOS_seL4/cfe/fsw/cfe-core/src/inc/cfe_es.h **** */
 165:/home/simulink/cFS_FreeRTOS_seL4/cfe/fsw/cfe-core/src/inc/cfe_es.h **** /** \name Reset Type extensions */
 166:/home/simulink/cFS_FreeRTOS_seL4/cfe/fsw/cfe-core/src/inc/cfe_es.h **** /** \{ */
 167:/home/simulink/cFS_FreeRTOS_seL4/cfe/fsw/cfe-core/src/inc/cfe_es.h **** #define CFE_ES_APP_RESTART       CFE_PSP_RST_TYPE_MAX       /**< Application only was reset (extend
 168:/home/simulink/cFS_FreeRTOS_seL4/cfe/fsw/cfe-core/src/inc/cfe_es.h **** /** \} */
 169:/home/simulink/cFS_FreeRTOS_seL4/cfe/fsw/cfe-core/src/inc/cfe_es.h **** 
 170:/home/simulink/cFS_FreeRTOS_seL4/cfe/fsw/cfe-core/src/inc/cfe_es.h **** 
 171:/home/simulink/cFS_FreeRTOS_seL4/cfe/fsw/cfe-core/src/inc/cfe_es.h **** /** \name Critical Data Store Macros */
 172:/home/simulink/cFS_FreeRTOS_seL4/cfe/fsw/cfe-core/src/inc/cfe_es.h **** /** \{ */
 173:/home/simulink/cFS_FreeRTOS_seL4/cfe/fsw/cfe-core/src/inc/cfe_es.h **** /** Maximum length allowed for CDS name. <BR>
 174:/home/simulink/cFS_FreeRTOS_seL4/cfe/fsw/cfe-core/src/inc/cfe_es.h **** ** NOTE: "+2" is for NULL Character and "." (i.e. - "AppName.CDSName") */
 175:/home/simulink/cFS_FreeRTOS_seL4/cfe/fsw/cfe-core/src/inc/cfe_es.h **** #define CFE_ES_CDS_MAX_FULL_NAME_LEN (CFE_ES_CDS_MAX_NAME_LENGTH + OS_MAX_API_NAME + 2)
 176:/home/simulink/cFS_FreeRTOS_seL4/cfe/fsw/cfe-core/src/inc/cfe_es.h **** 
 177:/home/simulink/cFS_FreeRTOS_seL4/cfe/fsw/cfe-core/src/inc/cfe_es.h **** #define CFE_ES_CDS_BAD_HANDLE  (CFE_ES_CDSHandle_t) 0xFFFF
 178:/home/simulink/cFS_FreeRTOS_seL4/cfe/fsw/cfe-core/src/inc/cfe_es.h **** /** \} */
 179:/home/simulink/cFS_FreeRTOS_seL4/cfe/fsw/cfe-core/src/inc/cfe_es.h **** 
 180:/home/simulink/cFS_FreeRTOS_seL4/cfe/fsw/cfe-core/src/inc/cfe_es.h **** /*
 181:/home/simulink/cFS_FreeRTOS_seL4/cfe/fsw/cfe-core/src/inc/cfe_es.h **** ** ES Run Status and Exit Status defines
 182:/home/simulink/cFS_FreeRTOS_seL4/cfe/fsw/cfe-core/src/inc/cfe_es.h **** */
 183:/home/simulink/cFS_FreeRTOS_seL4/cfe/fsw/cfe-core/src/inc/cfe_es.h **** /** \name Run Status and Exit Status identifiers */
 184:/home/simulink/cFS_FreeRTOS_seL4/cfe/fsw/cfe-core/src/inc/cfe_es.h **** /** \{ */
 185:/home/simulink/cFS_FreeRTOS_seL4/cfe/fsw/cfe-core/src/inc/cfe_es.h **** #define CFE_ES_RUNSTATUS_APP_RUN                  1   /**< \brief Indicates that the Application sh
 186:/home/simulink/cFS_FreeRTOS_seL4/cfe/fsw/cfe-core/src/inc/cfe_es.h **** #define CFE_ES_RUNSTATUS_APP_EXIT                 2  /**< \brief Indicates that the Application wan
 187:/home/simulink/cFS_FreeRTOS_seL4/cfe/fsw/cfe-core/src/inc/cfe_es.h **** #define CFE_ES_RUNSTATUS_APP_ERROR                3  /**< \brief Indicates that the Application is 
 188:/home/simulink/cFS_FreeRTOS_seL4/cfe/fsw/cfe-core/src/inc/cfe_es.h **** #define CFE_ES_RUNSTATUS_SYS_EXCEPTION            4  /**< \brief The cFE App caused an exception */
 189:/home/simulink/cFS_FreeRTOS_seL4/cfe/fsw/cfe-core/src/inc/cfe_es.h **** #define CFE_ES_RUNSTATUS_SYS_RESTART              5  /**< \brief The system is requesting a restart
 190:/home/simulink/cFS_FreeRTOS_seL4/cfe/fsw/cfe-core/src/inc/cfe_es.h **** #define CFE_ES_RUNSTATUS_SYS_RELOAD               6  /**< \brief The system is requesting a reload 
 191:/home/simulink/cFS_FreeRTOS_seL4/cfe/fsw/cfe-core/src/inc/cfe_es.h **** #define CFE_ES_RUNSTATUS_SYS_DELETE               7  /**< \brief The system is requesting that the 
 192:/home/simulink/cFS_FreeRTOS_seL4/cfe/fsw/cfe-core/src/inc/cfe_es.h **** #define CFE_ES_RUNSTATUS_CORE_APP_INIT_ERROR      8 /**< \brief Indicates that the Core Application
 193:/home/simulink/cFS_FreeRTOS_seL4/cfe/fsw/cfe-core/src/inc/cfe_es.h **** #define CFE_ES_RUNSTATUS_CORE_APP_RUNTIME_ERROR   9 /**< \brief Indicates that the Core Application
 194:/home/simulink/cFS_FreeRTOS_seL4/cfe/fsw/cfe-core/src/inc/cfe_es.h **** /** \} */
 195:/home/simulink/cFS_FreeRTOS_seL4/cfe/fsw/cfe-core/src/inc/cfe_es.h **** 
 196:/home/simulink/cFS_FreeRTOS_seL4/cfe/fsw/cfe-core/src/inc/cfe_es.h **** #define CFE_ES_APP_KILL_TIMEOUT         5 /**< \brief Number of cycles that ES will wait before kil
 197:/home/simulink/cFS_FreeRTOS_seL4/cfe/fsw/cfe-core/src/inc/cfe_es.h **** 
 198:/home/simulink/cFS_FreeRTOS_seL4/cfe/fsw/cfe-core/src/inc/cfe_es.h **** #define CFE_ES_NO_MUTEX                 0 /**< \brief Indicates that the memory pool selection will
 199:/home/simulink/cFS_FreeRTOS_seL4/cfe/fsw/cfe-core/src/inc/cfe_es.h **** #define CFE_ES_USE_MUTEX                1 /**< \brief Indicates that the memory pool selection will
 200:/home/simulink/cFS_FreeRTOS_seL4/cfe/fsw/cfe-core/src/inc/cfe_es.h **** 
 201:/home/simulink/cFS_FreeRTOS_seL4/cfe/fsw/cfe-core/src/inc/cfe_es.h **** /*
 202:/home/simulink/cFS_FreeRTOS_seL4/cfe/fsw/cfe-core/src/inc/cfe_es.h **** ** System Log Defines
 203:/home/simulink/cFS_FreeRTOS_seL4/cfe/fsw/cfe-core/src/inc/cfe_es.h **** */
 204:/home/simulink/cFS_FreeRTOS_seL4/cfe/fsw/cfe-core/src/inc/cfe_es.h **** /* "+1" is for the space between the timestamp and the message in the system log */
 205:/home/simulink/cFS_FreeRTOS_seL4/cfe/fsw/cfe-core/src/inc/cfe_es.h **** #define CFE_ES_MAX_SYSLOG_MSG_SIZE (CFE_EVS_MAX_MESSAGE_LENGTH + CFE_TIME_PRINTED_STRING_SIZE + 1)
 206:/home/simulink/cFS_FreeRTOS_seL4/cfe/fsw/cfe-core/src/inc/cfe_es.h **** 
 207:/home/simulink/cFS_FreeRTOS_seL4/cfe/fsw/cfe-core/src/inc/cfe_es.h **** 
 208:/home/simulink/cFS_FreeRTOS_seL4/cfe/fsw/cfe-core/src/inc/cfe_es.h **** /*
 209:/home/simulink/cFS_FreeRTOS_seL4/cfe/fsw/cfe-core/src/inc/cfe_es.h ****  * To preserve source-code compatibility with existing code,
 210:/home/simulink/cFS_FreeRTOS_seL4/cfe/fsw/cfe-core/src/inc/cfe_es.h ****  * this allows the old enum names to still work.  This should
 211:/home/simulink/cFS_FreeRTOS_seL4/cfe/fsw/cfe-core/src/inc/cfe_es.h ****  * be turned off after the new names are established.
 212:/home/simulink/cFS_FreeRTOS_seL4/cfe/fsw/cfe-core/src/inc/cfe_es.h ****  *  (sed -i -e 's/<old-name>/<new-name>/g' should take care of it)
 213:/home/simulink/cFS_FreeRTOS_seL4/cfe/fsw/cfe-core/src/inc/cfe_es.h ****  *
 214:/home/simulink/cFS_FreeRTOS_seL4/cfe/fsw/cfe-core/src/inc/cfe_es.h ****  * Note about why this is a good idea to do --
 215:/home/simulink/cFS_FreeRTOS_seL4/cfe/fsw/cfe-core/src/inc/cfe_es.h ****  * In the list below there are two values with similar names:
 216:/home/simulink/cFS_FreeRTOS_seL4/cfe/fsw/cfe-core/src/inc/cfe_es.h ****  *   CFE_ES_EXCEPTION, CFE_ES_SYS_EXCEPTION
 217:/home/simulink/cFS_FreeRTOS_seL4/cfe/fsw/cfe-core/src/inc/cfe_es.h ****  *
 218:/home/simulink/cFS_FreeRTOS_seL4/cfe/fsw/cfe-core/src/inc/cfe_es.h ****  * But these map to different values for two different purposes,
68K GAS   			page 5


 219:/home/simulink/cFS_FreeRTOS_seL4/cfe/fsw/cfe-core/src/inc/cfe_es.h ****  * one is a app status and the other is a reset subtype.  Using the
 220:/home/simulink/cFS_FreeRTOS_seL4/cfe/fsw/cfe-core/src/inc/cfe_es.h ****  * new names makes it much clearer as to which is which, will
 221:/home/simulink/cFS_FreeRTOS_seL4/cfe/fsw/cfe-core/src/inc/cfe_es.h ****  * greatly reduce the chance of getting them mixed up, and make it
 222:/home/simulink/cFS_FreeRTOS_seL4/cfe/fsw/cfe-core/src/inc/cfe_es.h ****  * much more obvious to a code reviewer if the ARE mixed up somewhere.
 223:/home/simulink/cFS_FreeRTOS_seL4/cfe/fsw/cfe-core/src/inc/cfe_es.h ****  */
 224:/home/simulink/cFS_FreeRTOS_seL4/cfe/fsw/cfe-core/src/inc/cfe_es.h **** #ifndef CFE_ES_ENABLE_NEW_ENUM_NAMES
 225:/home/simulink/cFS_FreeRTOS_seL4/cfe/fsw/cfe-core/src/inc/cfe_es.h **** 
 226:/home/simulink/cFS_FreeRTOS_seL4/cfe/fsw/cfe-core/src/inc/cfe_es.h **** #define CFE_ES_PROCESSOR_RESET            CFE_PSP_RST_TYPE_PROCESSOR
 227:/home/simulink/cFS_FreeRTOS_seL4/cfe/fsw/cfe-core/src/inc/cfe_es.h **** #define CFE_ES_POWERON_RESET              CFE_PSP_RST_TYPE_POWERON
 228:/home/simulink/cFS_FreeRTOS_seL4/cfe/fsw/cfe-core/src/inc/cfe_es.h **** 
 229:/home/simulink/cFS_FreeRTOS_seL4/cfe/fsw/cfe-core/src/inc/cfe_es.h **** #define CFE_ES_POWER_CYCLE                CFE_PSP_RST_SUBTYPE_POWER_CYCLE
 230:/home/simulink/cFS_FreeRTOS_seL4/cfe/fsw/cfe-core/src/inc/cfe_es.h **** #define CFE_ES_PUSH_BUTTON                CFE_PSP_RST_SUBTYPE_PUSH_BUTTON
 231:/home/simulink/cFS_FreeRTOS_seL4/cfe/fsw/cfe-core/src/inc/cfe_es.h **** #define CFE_ES_HW_SPECIAL_COMMAND         CFE_PSP_RST_SUBTYPE_HW_SPECIAL_COMMAND
 232:/home/simulink/cFS_FreeRTOS_seL4/cfe/fsw/cfe-core/src/inc/cfe_es.h **** #define CFE_ES_HW_WATCHDOG                CFE_PSP_RST_SUBTYPE_HW_WATCHDOG
 233:/home/simulink/cFS_FreeRTOS_seL4/cfe/fsw/cfe-core/src/inc/cfe_es.h **** #define CFE_ES_RESET_COMMAND              CFE_PSP_RST_SUBTYPE_RESET_COMMAND
 234:/home/simulink/cFS_FreeRTOS_seL4/cfe/fsw/cfe-core/src/inc/cfe_es.h **** #define CFE_ES_EXCEPTION                  CFE_PSP_RST_SUBTYPE_EXCEPTION
 235:/home/simulink/cFS_FreeRTOS_seL4/cfe/fsw/cfe-core/src/inc/cfe_es.h **** #define CFE_ES_UNDEFINED_RESET            CFE_PSP_RST_SUBTYPE_UNDEFINED_RESET
 236:/home/simulink/cFS_FreeRTOS_seL4/cfe/fsw/cfe-core/src/inc/cfe_es.h **** #define CFE_ES_HWDEBUG_RESET              CFE_PSP_RST_SUBTYPE_HWDEBUG_RESET
 237:/home/simulink/cFS_FreeRTOS_seL4/cfe/fsw/cfe-core/src/inc/cfe_es.h **** #define CFE_ES_BANKSWITCH_RESET           CFE_PSP_RST_SUBTYPE_BANKSWITCH_RESET
 238:/home/simulink/cFS_FreeRTOS_seL4/cfe/fsw/cfe-core/src/inc/cfe_es.h **** 
 239:/home/simulink/cFS_FreeRTOS_seL4/cfe/fsw/cfe-core/src/inc/cfe_es.h **** #define CFE_ES_APP_RUN                    CFE_ES_RUNSTATUS_APP_RUN
 240:/home/simulink/cFS_FreeRTOS_seL4/cfe/fsw/cfe-core/src/inc/cfe_es.h **** #define CFE_ES_APP_EXIT                   CFE_ES_RUNSTATUS_APP_EXIT
 241:/home/simulink/cFS_FreeRTOS_seL4/cfe/fsw/cfe-core/src/inc/cfe_es.h **** #define CFE_ES_APP_ERROR                  CFE_ES_RUNSTATUS_APP_ERROR
 242:/home/simulink/cFS_FreeRTOS_seL4/cfe/fsw/cfe-core/src/inc/cfe_es.h **** #define CFE_ES_SYS_EXCEPTION              CFE_ES_RUNSTATUS_SYS_EXCEPTION
 243:/home/simulink/cFS_FreeRTOS_seL4/cfe/fsw/cfe-core/src/inc/cfe_es.h **** #define CFE_ES_SYS_RESTART                CFE_ES_RUNSTATUS_SYS_RESTART
 244:/home/simulink/cFS_FreeRTOS_seL4/cfe/fsw/cfe-core/src/inc/cfe_es.h **** #define CFE_ES_SYS_RELOAD                 CFE_ES_RUNSTATUS_SYS_RELOAD
 245:/home/simulink/cFS_FreeRTOS_seL4/cfe/fsw/cfe-core/src/inc/cfe_es.h **** #define CFE_ES_SYS_DELETE                 CFE_ES_RUNSTATUS_SYS_DELETE
 246:/home/simulink/cFS_FreeRTOS_seL4/cfe/fsw/cfe-core/src/inc/cfe_es.h **** #define CFE_ES_CORE_APP_INIT_ERROR        CFE_ES_RUNSTATUS_CORE_APP_INIT_ERROR
 247:/home/simulink/cFS_FreeRTOS_seL4/cfe/fsw/cfe-core/src/inc/cfe_es.h **** #define CFE_ES_CORE_APP_RUNTIME_ERROR     CFE_ES_RUNSTATUS_CORE_APP_RUNTIME_ERROR
 248:/home/simulink/cFS_FreeRTOS_seL4/cfe/fsw/cfe-core/src/inc/cfe_es.h **** 
 249:/home/simulink/cFS_FreeRTOS_seL4/cfe/fsw/cfe-core/src/inc/cfe_es.h **** #endif
 250:/home/simulink/cFS_FreeRTOS_seL4/cfe/fsw/cfe-core/src/inc/cfe_es.h **** 
 251:/home/simulink/cFS_FreeRTOS_seL4/cfe/fsw/cfe-core/src/inc/cfe_es.h **** /*****************************************************************************/
 252:/home/simulink/cFS_FreeRTOS_seL4/cfe/fsw/cfe-core/src/inc/cfe_es.h **** /*
 253:/home/simulink/cFS_FreeRTOS_seL4/cfe/fsw/cfe-core/src/inc/cfe_es.h **** ** Type Definitions
 254:/home/simulink/cFS_FreeRTOS_seL4/cfe/fsw/cfe-core/src/inc/cfe_es.h **** */
 255:/home/simulink/cFS_FreeRTOS_seL4/cfe/fsw/cfe-core/src/inc/cfe_es.h **** 
 256:/home/simulink/cFS_FreeRTOS_seL4/cfe/fsw/cfe-core/src/inc/cfe_es.h **** /*
 257:/home/simulink/cFS_FreeRTOS_seL4/cfe/fsw/cfe-core/src/inc/cfe_es.h **** ** Memory Handle type
 258:/home/simulink/cFS_FreeRTOS_seL4/cfe/fsw/cfe-core/src/inc/cfe_es.h **** */
 259:/home/simulink/cFS_FreeRTOS_seL4/cfe/fsw/cfe-core/src/inc/cfe_es.h **** typedef cpuaddr CFE_ES_MemHandle_t;  /**< \brief Data type used to hold Handles of Memory Pools cre
 260:/home/simulink/cFS_FreeRTOS_seL4/cfe/fsw/cfe-core/src/inc/cfe_es.h **** 
 261:/home/simulink/cFS_FreeRTOS_seL4/cfe/fsw/cfe-core/src/inc/cfe_es.h **** /*
 262:/home/simulink/cFS_FreeRTOS_seL4/cfe/fsw/cfe-core/src/inc/cfe_es.h **** ** 
 263:/home/simulink/cFS_FreeRTOS_seL4/cfe/fsw/cfe-core/src/inc/cfe_es.h **** ** CFE_ES_AppInfo_t is a structure that is used to provide
 264:/home/simulink/cFS_FreeRTOS_seL4/cfe/fsw/cfe-core/src/inc/cfe_es.h **** ** information about an app. It is primarily used for the QueryOne and
 265:/home/simulink/cFS_FreeRTOS_seL4/cfe/fsw/cfe-core/src/inc/cfe_es.h **** ** QueryAll Commands.
 266:/home/simulink/cFS_FreeRTOS_seL4/cfe/fsw/cfe-core/src/inc/cfe_es.h **** **
 267:/home/simulink/cFS_FreeRTOS_seL4/cfe/fsw/cfe-core/src/inc/cfe_es.h **** */
 268:/home/simulink/cFS_FreeRTOS_seL4/cfe/fsw/cfe-core/src/inc/cfe_es.h **** typedef struct
 269:/home/simulink/cFS_FreeRTOS_seL4/cfe/fsw/cfe-core/src/inc/cfe_es.h **** {
 270:/home/simulink/cFS_FreeRTOS_seL4/cfe/fsw/cfe-core/src/inc/cfe_es.h ****    uint32   AppId;                          /**< \cfetlmmnemonic \ES_APP_ID
 271:/home/simulink/cFS_FreeRTOS_seL4/cfe/fsw/cfe-core/src/inc/cfe_es.h ****                                                  \brief Application ID for this Application */
 272:/home/simulink/cFS_FreeRTOS_seL4/cfe/fsw/cfe-core/src/inc/cfe_es.h ****    uint32   Type;                           /**< \cfetlmmnemonic \ES_APPTYPE
 273:/home/simulink/cFS_FreeRTOS_seL4/cfe/fsw/cfe-core/src/inc/cfe_es.h ****                                                  \brief The type of App: CORE or EXTERNAL */
 274:/home/simulink/cFS_FreeRTOS_seL4/cfe/fsw/cfe-core/src/inc/cfe_es.h **** 
 275:/home/simulink/cFS_FreeRTOS_seL4/cfe/fsw/cfe-core/src/inc/cfe_es.h ****    char     Name[OS_MAX_API_NAME];          /**< \cfetlmmnemonic \ES_APPNAME
68K GAS   			page 6


 276:/home/simulink/cFS_FreeRTOS_seL4/cfe/fsw/cfe-core/src/inc/cfe_es.h ****                                                  \brief The Registered Name of the Application */
 277:/home/simulink/cFS_FreeRTOS_seL4/cfe/fsw/cfe-core/src/inc/cfe_es.h ****    char     EntryPoint[OS_MAX_API_NAME];    /**< \cfetlmmnemonic \ES_APPENTRYPT
 278:/home/simulink/cFS_FreeRTOS_seL4/cfe/fsw/cfe-core/src/inc/cfe_es.h ****                                                  \brief The Entry Point label for the Application *
 279:/home/simulink/cFS_FreeRTOS_seL4/cfe/fsw/cfe-core/src/inc/cfe_es.h ****    char     FileName[OS_MAX_PATH_LEN];      /**< \cfetlmmnemonic \ES_APPFILENAME
 280:/home/simulink/cFS_FreeRTOS_seL4/cfe/fsw/cfe-core/src/inc/cfe_es.h ****                                                  \brief The Filename of the file containing the App
 281:/home/simulink/cFS_FreeRTOS_seL4/cfe/fsw/cfe-core/src/inc/cfe_es.h **** 
 282:/home/simulink/cFS_FreeRTOS_seL4/cfe/fsw/cfe-core/src/inc/cfe_es.h ****    uint32   StackSize;                      /**< \cfetlmmnemonic \ES_STACKSIZE
 283:/home/simulink/cFS_FreeRTOS_seL4/cfe/fsw/cfe-core/src/inc/cfe_es.h ****                                                  \brief The Stack Size of the Application */
 284:/home/simulink/cFS_FreeRTOS_seL4/cfe/fsw/cfe-core/src/inc/cfe_es.h ****    uint32   ModuleId;                       /**< \cfetlmmnemonic \ES_MODULEID
 285:/home/simulink/cFS_FreeRTOS_seL4/cfe/fsw/cfe-core/src/inc/cfe_es.h ****                                                  \brief The ID of the Loadable Module for the Appli
 286:/home/simulink/cFS_FreeRTOS_seL4/cfe/fsw/cfe-core/src/inc/cfe_es.h ****    uint32   AddressesAreValid;              /**< \cfetlmmnemonic \ES_ADDRVALID
 287:/home/simulink/cFS_FreeRTOS_seL4/cfe/fsw/cfe-core/src/inc/cfe_es.h ****                                                  \brief Indicates that the Code, Data, and BSS addr
 288:/home/simulink/cFS_FreeRTOS_seL4/cfe/fsw/cfe-core/src/inc/cfe_es.h ****    uint32   CodeAddress;                    /**< \cfetlmmnemonic \ES_CODEADDR
 289:/home/simulink/cFS_FreeRTOS_seL4/cfe/fsw/cfe-core/src/inc/cfe_es.h ****                                                  \brief The Address of the Application Code Segment
 290:/home/simulink/cFS_FreeRTOS_seL4/cfe/fsw/cfe-core/src/inc/cfe_es.h ****    uint32   CodeSize;                       /**< \cfetlmmnemonic \ES_CODESIZE
 291:/home/simulink/cFS_FreeRTOS_seL4/cfe/fsw/cfe-core/src/inc/cfe_es.h ****                                                  \brief The Code Size of the Application */
 292:/home/simulink/cFS_FreeRTOS_seL4/cfe/fsw/cfe-core/src/inc/cfe_es.h ****    uint32   DataAddress;                    /**< \cfetlmmnemonic \ES_DATAADDR
 293:/home/simulink/cFS_FreeRTOS_seL4/cfe/fsw/cfe-core/src/inc/cfe_es.h ****                                                  \brief The Address of the Application Data Segment
 294:/home/simulink/cFS_FreeRTOS_seL4/cfe/fsw/cfe-core/src/inc/cfe_es.h ****    uint32   DataSize;                       /**< \cfetlmmnemonic \ES_DATASIZE
 295:/home/simulink/cFS_FreeRTOS_seL4/cfe/fsw/cfe-core/src/inc/cfe_es.h ****                                                  \brief The Data Size of the Application */
 296:/home/simulink/cFS_FreeRTOS_seL4/cfe/fsw/cfe-core/src/inc/cfe_es.h ****    uint32   BSSAddress;                     /**< \cfetlmmnemonic \ES_BSSADDR
 297:/home/simulink/cFS_FreeRTOS_seL4/cfe/fsw/cfe-core/src/inc/cfe_es.h ****                                                  \brief The Address of the Application BSS Segment*
 298:/home/simulink/cFS_FreeRTOS_seL4/cfe/fsw/cfe-core/src/inc/cfe_es.h ****    uint32   BSSSize;                        /**< \cfetlmmnemonic \ES_BSSSIZE
 299:/home/simulink/cFS_FreeRTOS_seL4/cfe/fsw/cfe-core/src/inc/cfe_es.h ****                                                   \brief The BSS Size of the Application */
 300:/home/simulink/cFS_FreeRTOS_seL4/cfe/fsw/cfe-core/src/inc/cfe_es.h ****    uint32   StartAddress;                   /**< \cfetlmmnemonic \ES_STARTADDR
 301:/home/simulink/cFS_FreeRTOS_seL4/cfe/fsw/cfe-core/src/inc/cfe_es.h ****                                                  \brief The Start Address of the Application */
 302:/home/simulink/cFS_FreeRTOS_seL4/cfe/fsw/cfe-core/src/inc/cfe_es.h ****    uint16   ExceptionAction;                /**< \cfetlmmnemonic \ES_EXCEPTNACTN
 303:/home/simulink/cFS_FreeRTOS_seL4/cfe/fsw/cfe-core/src/inc/cfe_es.h ****                                                  \brief What should occur if Application has an exc
 304:/home/simulink/cFS_FreeRTOS_seL4/cfe/fsw/cfe-core/src/inc/cfe_es.h ****                                                  (Restart Application OR Restart Processor) */
 305:/home/simulink/cFS_FreeRTOS_seL4/cfe/fsw/cfe-core/src/inc/cfe_es.h ****    uint16   Priority;                       /**< \cfetlmmnemonic \ES_PRIORITY
 306:/home/simulink/cFS_FreeRTOS_seL4/cfe/fsw/cfe-core/src/inc/cfe_es.h ****                                                  \brief The Priority of the Application */
 307:/home/simulink/cFS_FreeRTOS_seL4/cfe/fsw/cfe-core/src/inc/cfe_es.h ****    uint32   MainTaskId;                     /**< \cfetlmmnemonic \ES_MAINTASKID
 308:/home/simulink/cFS_FreeRTOS_seL4/cfe/fsw/cfe-core/src/inc/cfe_es.h ****                                                  \brief The Application's Main Task ID */
 309:/home/simulink/cFS_FreeRTOS_seL4/cfe/fsw/cfe-core/src/inc/cfe_es.h ****    uint32   ExecutionCounter;               /**< \cfetlmmnemonic \ES_MAINTASKEXECNT
 310:/home/simulink/cFS_FreeRTOS_seL4/cfe/fsw/cfe-core/src/inc/cfe_es.h ****                                                  \brief The Application's Main Task Execution Count
 311:/home/simulink/cFS_FreeRTOS_seL4/cfe/fsw/cfe-core/src/inc/cfe_es.h ****    char     MainTaskName[OS_MAX_API_NAME];  /**< \cfetlmmnemonic \ES_MAINTASKNAME
 312:/home/simulink/cFS_FreeRTOS_seL4/cfe/fsw/cfe-core/src/inc/cfe_es.h ****                                                  \brief The Application's Main Task ID */
 313:/home/simulink/cFS_FreeRTOS_seL4/cfe/fsw/cfe-core/src/inc/cfe_es.h ****    uint32   NumOfChildTasks;                /**< \cfetlmmnemonic \ES_CHILDTASKS
 314:/home/simulink/cFS_FreeRTOS_seL4/cfe/fsw/cfe-core/src/inc/cfe_es.h ****                                                  \brief Number of Child tasks for an App */
 315:/home/simulink/cFS_FreeRTOS_seL4/cfe/fsw/cfe-core/src/inc/cfe_es.h **** 
 316:/home/simulink/cFS_FreeRTOS_seL4/cfe/fsw/cfe-core/src/inc/cfe_es.h **** } CFE_ES_AppInfo_t;
 317:/home/simulink/cFS_FreeRTOS_seL4/cfe/fsw/cfe-core/src/inc/cfe_es.h **** 
 318:/home/simulink/cFS_FreeRTOS_seL4/cfe/fsw/cfe-core/src/inc/cfe_es.h **** /*
 319:/home/simulink/cFS_FreeRTOS_seL4/cfe/fsw/cfe-core/src/inc/cfe_es.h **** ** Task Info Type
 320:/home/simulink/cFS_FreeRTOS_seL4/cfe/fsw/cfe-core/src/inc/cfe_es.h **** */
 321:/home/simulink/cFS_FreeRTOS_seL4/cfe/fsw/cfe-core/src/inc/cfe_es.h **** typedef struct
 322:/home/simulink/cFS_FreeRTOS_seL4/cfe/fsw/cfe-core/src/inc/cfe_es.h **** {
 323:/home/simulink/cFS_FreeRTOS_seL4/cfe/fsw/cfe-core/src/inc/cfe_es.h ****    uint32   TaskId;                    /**< \brief Task Id */
 324:/home/simulink/cFS_FreeRTOS_seL4/cfe/fsw/cfe-core/src/inc/cfe_es.h ****    uint32   ExecutionCounter;          /**K \brief Task Execution Counter */
 325:/home/simulink/cFS_FreeRTOS_seL4/cfe/fsw/cfe-core/src/inc/cfe_es.h ****    uint8    TaskName[OS_MAX_API_NAME]; /**< \brief Task Name */
 326:/home/simulink/cFS_FreeRTOS_seL4/cfe/fsw/cfe-core/src/inc/cfe_es.h ****    uint32   AppId;                     /**< \brief Parent Application ID */
 327:/home/simulink/cFS_FreeRTOS_seL4/cfe/fsw/cfe-core/src/inc/cfe_es.h ****    uint8    AppName[OS_MAX_API_NAME];  /**< \brief Parent Application Name */
 328:/home/simulink/cFS_FreeRTOS_seL4/cfe/fsw/cfe-core/src/inc/cfe_es.h **** 
 329:/home/simulink/cFS_FreeRTOS_seL4/cfe/fsw/cfe-core/src/inc/cfe_es.h **** } CFE_ES_TaskInfo_t;
 330:/home/simulink/cFS_FreeRTOS_seL4/cfe/fsw/cfe-core/src/inc/cfe_es.h **** 
 331:/home/simulink/cFS_FreeRTOS_seL4/cfe/fsw/cfe-core/src/inc/cfe_es.h **** /*
 332:/home/simulink/cFS_FreeRTOS_seL4/cfe/fsw/cfe-core/src/inc/cfe_es.h **** ** Memory Pool Statistics data type
68K GAS   			page 7


 333:/home/simulink/cFS_FreeRTOS_seL4/cfe/fsw/cfe-core/src/inc/cfe_es.h **** */
 334:/home/simulink/cFS_FreeRTOS_seL4/cfe/fsw/cfe-core/src/inc/cfe_es.h **** typedef struct
 335:/home/simulink/cFS_FreeRTOS_seL4/cfe/fsw/cfe-core/src/inc/cfe_es.h **** {
 336:/home/simulink/cFS_FreeRTOS_seL4/cfe/fsw/cfe-core/src/inc/cfe_es.h ****     uint32  BlockSize;               /**< \brief Number of bytes in each of these blocks */
 337:/home/simulink/cFS_FreeRTOS_seL4/cfe/fsw/cfe-core/src/inc/cfe_es.h ****     uint32  NumCreated;              /**< \brief Number of Memory Blocks of this size created */
 338:/home/simulink/cFS_FreeRTOS_seL4/cfe/fsw/cfe-core/src/inc/cfe_es.h ****     uint32  NumFree;                 /**< \brief Number of Memory Blocks of this size that are free
 339:/home/simulink/cFS_FreeRTOS_seL4/cfe/fsw/cfe-core/src/inc/cfe_es.h **** } CFE_ES_BlockStats_t;
 340:/home/simulink/cFS_FreeRTOS_seL4/cfe/fsw/cfe-core/src/inc/cfe_es.h **** 
 341:/home/simulink/cFS_FreeRTOS_seL4/cfe/fsw/cfe-core/src/inc/cfe_es.h **** typedef struct
 342:/home/simulink/cFS_FreeRTOS_seL4/cfe/fsw/cfe-core/src/inc/cfe_es.h **** {
 343:/home/simulink/cFS_FreeRTOS_seL4/cfe/fsw/cfe-core/src/inc/cfe_es.h ****     uint32                PoolSize;                /**< \cfetlmmnemonic \ES_POOLSIZE
 344:/home/simulink/cFS_FreeRTOS_seL4/cfe/fsw/cfe-core/src/inc/cfe_es.h ****                                                         \brief  Size of Memory Pool (in bytes) */
 345:/home/simulink/cFS_FreeRTOS_seL4/cfe/fsw/cfe-core/src/inc/cfe_es.h ****     uint32                NumBlocksRequested;      /**< \cfetlmmnemonic \ES_BLKSREQ
 346:/home/simulink/cFS_FreeRTOS_seL4/cfe/fsw/cfe-core/src/inc/cfe_es.h ****                                                         \brief Number of times a memory block has b
 347:/home/simulink/cFS_FreeRTOS_seL4/cfe/fsw/cfe-core/src/inc/cfe_es.h ****     uint32                CheckErrCtr;             /**< \cfetlmmnemonic \ES_BLKERRCTR
 348:/home/simulink/cFS_FreeRTOS_seL4/cfe/fsw/cfe-core/src/inc/cfe_es.h ****                                                         \brief Number of errors detected when freei
 349:/home/simulink/cFS_FreeRTOS_seL4/cfe/fsw/cfe-core/src/inc/cfe_es.h ****     uint32                NumFreeBytes;            /**< \cfetlmmnemonic \ES_FREEBYTES
 350:/home/simulink/cFS_FreeRTOS_seL4/cfe/fsw/cfe-core/src/inc/cfe_es.h ****                                                         \brief Number of bytes never allocated to a
 351:/home/simulink/cFS_FreeRTOS_seL4/cfe/fsw/cfe-core/src/inc/cfe_es.h ****     CFE_ES_BlockStats_t   BlockStats[CFE_ES_MAX_MEMPOOL_BLOCK_SIZES]; /**< \cfetlmmnemonic \ES_BLKS
 352:/home/simulink/cFS_FreeRTOS_seL4/cfe/fsw/cfe-core/src/inc/cfe_es.h ****                                                                            \brief Contains stats on
 353:/home/simulink/cFS_FreeRTOS_seL4/cfe/fsw/cfe-core/src/inc/cfe_es.h **** } CFE_ES_MemPoolStats_t;
 354:/home/simulink/cFS_FreeRTOS_seL4/cfe/fsw/cfe-core/src/inc/cfe_es.h **** 
 355:/home/simulink/cFS_FreeRTOS_seL4/cfe/fsw/cfe-core/src/inc/cfe_es.h **** /*
 356:/home/simulink/cFS_FreeRTOS_seL4/cfe/fsw/cfe-core/src/inc/cfe_es.h **** ** CDS Handle type
 357:/home/simulink/cFS_FreeRTOS_seL4/cfe/fsw/cfe-core/src/inc/cfe_es.h **** */
 358:/home/simulink/cFS_FreeRTOS_seL4/cfe/fsw/cfe-core/src/inc/cfe_es.h **** typedef cpuaddr CFE_ES_CDSHandle_t;    /**< \brief Data type used to hold Handles of Critical Data 
 359:/home/simulink/cFS_FreeRTOS_seL4/cfe/fsw/cfe-core/src/inc/cfe_es.h **** 
 360:/home/simulink/cFS_FreeRTOS_seL4/cfe/fsw/cfe-core/src/inc/cfe_es.h **** typedef struct
 361:/home/simulink/cFS_FreeRTOS_seL4/cfe/fsw/cfe-core/src/inc/cfe_es.h **** {
 362:/home/simulink/cFS_FreeRTOS_seL4/cfe/fsw/cfe-core/src/inc/cfe_es.h ****     CFE_ES_CDSHandle_t    Handle;          /**< \brief Handle of CDS */
 363:/home/simulink/cFS_FreeRTOS_seL4/cfe/fsw/cfe-core/src/inc/cfe_es.h ****     uint32                Size;            /**< \brief Size, in bytes, of the CDS memory block */
 364:/home/simulink/cFS_FreeRTOS_seL4/cfe/fsw/cfe-core/src/inc/cfe_es.h ****     boolean               Table;           /**< \brief Flag that indicates whether CDS contains a C
 365:/home/simulink/cFS_FreeRTOS_seL4/cfe/fsw/cfe-core/src/inc/cfe_es.h ****     char                  Name[CFE_ES_CDS_MAX_FULL_NAME_LEN]; /**< \brief Processor Unique Name of 
 366:/home/simulink/cFS_FreeRTOS_seL4/cfe/fsw/cfe-core/src/inc/cfe_es.h ****     uint8                 ByteAlignSpare1; /**< \brief Spare byte to insure structure size is multi
 367:/home/simulink/cFS_FreeRTOS_seL4/cfe/fsw/cfe-core/src/inc/cfe_es.h **** } CFE_ES_CDSRegDumpRec_t;
 368:/home/simulink/cFS_FreeRTOS_seL4/cfe/fsw/cfe-core/src/inc/cfe_es.h **** 
 369:/home/simulink/cFS_FreeRTOS_seL4/cfe/fsw/cfe-core/src/inc/cfe_es.h **** /*
 370:/home/simulink/cFS_FreeRTOS_seL4/cfe/fsw/cfe-core/src/inc/cfe_es.h **** ** Child Task Main Function Prototype
 371:/home/simulink/cFS_FreeRTOS_seL4/cfe/fsw/cfe-core/src/inc/cfe_es.h **** */
 372:/home/simulink/cFS_FreeRTOS_seL4/cfe/fsw/cfe-core/src/inc/cfe_es.h **** typedef void (*CFE_ES_ChildTaskMainFuncPtr_t)(void); /**< \brief Required Prototype of Child Task M
 373:/home/simulink/cFS_FreeRTOS_seL4/cfe/fsw/cfe-core/src/inc/cfe_es.h **** typedef int32 (*CFE_ES_LibraryEntryFuncPtr_t)(void); /**< \brief Required Prototype of Library Init
 374:/home/simulink/cFS_FreeRTOS_seL4/cfe/fsw/cfe-core/src/inc/cfe_es.h **** 
 375:/home/simulink/cFS_FreeRTOS_seL4/cfe/fsw/cfe-core/src/inc/cfe_es.h **** typedef enum
 376:/home/simulink/cFS_FreeRTOS_seL4/cfe/fsw/cfe-core/src/inc/cfe_es.h **** {
 377:/home/simulink/cFS_FreeRTOS_seL4/cfe/fsw/cfe-core/src/inc/cfe_es.h ****     CFE_ES_STATICENTRYTYPE_INVALID      = 0,
 378:/home/simulink/cFS_FreeRTOS_seL4/cfe/fsw/cfe-core/src/inc/cfe_es.h ****     CFE_ES_STATICENTRYTYPE_FIRST_VALID  = 2000,
 379:/home/simulink/cFS_FreeRTOS_seL4/cfe/fsw/cfe-core/src/inc/cfe_es.h ****     CFE_ES_STATICENTRYTYPE_APPLICATION,
 380:/home/simulink/cFS_FreeRTOS_seL4/cfe/fsw/cfe-core/src/inc/cfe_es.h ****     CFE_ES_STATICENTRYTYPE_LIBRARY,
 381:/home/simulink/cFS_FreeRTOS_seL4/cfe/fsw/cfe-core/src/inc/cfe_es.h ****     CFE_ES_STATICENTRYTYPE_MAX
 382:/home/simulink/cFS_FreeRTOS_seL4/cfe/fsw/cfe-core/src/inc/cfe_es.h **** } CFE_ES_StaticEntryType_t;
 383:/home/simulink/cFS_FreeRTOS_seL4/cfe/fsw/cfe-core/src/inc/cfe_es.h **** 
 384:/home/simulink/cFS_FreeRTOS_seL4/cfe/fsw/cfe-core/src/inc/cfe_es.h **** /*
 385:/home/simulink/cFS_FreeRTOS_seL4/cfe/fsw/cfe-core/src/inc/cfe_es.h **** ** API Structure for statically linked CFS Applications
 386:/home/simulink/cFS_FreeRTOS_seL4/cfe/fsw/cfe-core/src/inc/cfe_es.h **** */
 387:/home/simulink/cFS_FreeRTOS_seL4/cfe/fsw/cfe-core/src/inc/cfe_es.h **** typedef const struct
 388:/home/simulink/cFS_FreeRTOS_seL4/cfe/fsw/cfe-core/src/inc/cfe_es.h **** {
 389:/home/simulink/cFS_FreeRTOS_seL4/cfe/fsw/cfe-core/src/inc/cfe_es.h ****     CFE_ES_StaticEntryType_t EntryType;
68K GAS   			page 8


 390:/home/simulink/cFS_FreeRTOS_seL4/cfe/fsw/cfe-core/src/inc/cfe_es.h ****     union
 391:/home/simulink/cFS_FreeRTOS_seL4/cfe/fsw/cfe-core/src/inc/cfe_es.h ****     {
 392:/home/simulink/cFS_FreeRTOS_seL4/cfe/fsw/cfe-core/src/inc/cfe_es.h ****         CFE_ES_ChildTaskMainFuncPtr_t AppEntryFunc;     /**< \brief Entry point for Application */
 393:/home/simulink/cFS_FreeRTOS_seL4/cfe/fsw/cfe-core/src/inc/cfe_es.h ****         CFE_ES_LibraryEntryFuncPtr_t LibInitFunc;       /**< \brief Initialization function for Lib
 394:/home/simulink/cFS_FreeRTOS_seL4/cfe/fsw/cfe-core/src/inc/cfe_es.h ****         cpuaddr EntryFuncAddr;
 395:/home/simulink/cFS_FreeRTOS_seL4/cfe/fsw/cfe-core/src/inc/cfe_es.h ****     } Ptrs;
 396:/home/simulink/cFS_FreeRTOS_seL4/cfe/fsw/cfe-core/src/inc/cfe_es.h ****     uint32  Priority;
 397:/home/simulink/cFS_FreeRTOS_seL4/cfe/fsw/cfe-core/src/inc/cfe_es.h ****     uint32  StackSize;
 398:/home/simulink/cFS_FreeRTOS_seL4/cfe/fsw/cfe-core/src/inc/cfe_es.h **** } CFE_ES_AppStaticModuleApi_t;
 399:/home/simulink/cFS_FreeRTOS_seL4/cfe/fsw/cfe-core/src/inc/cfe_es.h **** 
 400:/home/simulink/cFS_FreeRTOS_seL4/cfe/fsw/cfe-core/src/inc/cfe_es.h **** #ifdef CFS_STATIC_MODULE
 401:/home/simulink/cFS_FreeRTOS_seL4/cfe/fsw/cfe-core/src/inc/cfe_es.h **** 
 402:/home/simulink/cFS_FreeRTOS_seL4/cfe/fsw/cfe-core/src/inc/cfe_es.h **** #define CFS_MODULE_DECLARE_APP(name,pri,stack)              \
 403:/home/simulink/cFS_FreeRTOS_seL4/cfe/fsw/cfe-core/src/inc/cfe_es.h ****     void name##_Main(void);                                 \
 404:/home/simulink/cFS_FreeRTOS_seL4/cfe/fsw/cfe-core/src/inc/cfe_es.h ****     CFE_ES_AppStaticModuleApi_t CFS_##name##_API =          \
 405:/home/simulink/cFS_FreeRTOS_seL4/cfe/fsw/cfe-core/src/inc/cfe_es.h ****     {                                                       \
 406:/home/simulink/cFS_FreeRTOS_seL4/cfe/fsw/cfe-core/src/inc/cfe_es.h ****         .EntryType = CFE_ES_STATICENTRYTYPE_APPLICATION,    \
 407:/home/simulink/cFS_FreeRTOS_seL4/cfe/fsw/cfe-core/src/inc/cfe_es.h ****         .Ptrs.AppEntryFunc = name##_Main,                   \
 408:/home/simulink/cFS_FreeRTOS_seL4/cfe/fsw/cfe-core/src/inc/cfe_es.h ****         .Priority = pri,                                    \
 409:/home/simulink/cFS_FreeRTOS_seL4/cfe/fsw/cfe-core/src/inc/cfe_es.h ****         .StackSize = stack,                                 \
 410:/home/simulink/cFS_FreeRTOS_seL4/cfe/fsw/cfe-core/src/inc/cfe_es.h ****     }
 411:/home/simulink/cFS_FreeRTOS_seL4/cfe/fsw/cfe-core/src/inc/cfe_es.h **** 
 412:/home/simulink/cFS_FreeRTOS_seL4/cfe/fsw/cfe-core/src/inc/cfe_es.h **** #define CFS_MODULE_DECLARE_LIB(name)                        \
 413:/home/simulink/cFS_FreeRTOS_seL4/cfe/fsw/cfe-core/src/inc/cfe_es.h ****     int32 name##_Init(void);                                \
 414:/home/simulink/cFS_FreeRTOS_seL4/cfe/fsw/cfe-core/src/inc/cfe_es.h ****     CFE_ES_AppStaticModuleApi_t CFS_##name##_API =          \
 415:/home/simulink/cFS_FreeRTOS_seL4/cfe/fsw/cfe-core/src/inc/cfe_es.h ****     {                                                       \
 416:/home/simulink/cFS_FreeRTOS_seL4/cfe/fsw/cfe-core/src/inc/cfe_es.h ****         .EntryType = CFE_ES_STATICENTRYTYPE_LIBRARY,        \
 417:/home/simulink/cFS_FreeRTOS_seL4/cfe/fsw/cfe-core/src/inc/cfe_es.h ****         .Ptrs.LibInitFunc = name##_Init,                    \
 418:/home/simulink/cFS_FreeRTOS_seL4/cfe/fsw/cfe-core/src/inc/cfe_es.h ****     }
 419:/home/simulink/cFS_FreeRTOS_seL4/cfe/fsw/cfe-core/src/inc/cfe_es.h **** #else
 420:/home/simulink/cFS_FreeRTOS_seL4/cfe/fsw/cfe-core/src/inc/cfe_es.h **** #define CFS_MODULE_DECLARE_APP(name,pri,stack)
 421:/home/simulink/cFS_FreeRTOS_seL4/cfe/fsw/cfe-core/src/inc/cfe_es.h **** #define CFS_MODULE_DECLARE_LIB(name)
 422:/home/simulink/cFS_FreeRTOS_seL4/cfe/fsw/cfe-core/src/inc/cfe_es.h **** #endif
 423:/home/simulink/cFS_FreeRTOS_seL4/cfe/fsw/cfe-core/src/inc/cfe_es.h **** 
 424:/home/simulink/cFS_FreeRTOS_seL4/cfe/fsw/cfe-core/src/inc/cfe_es.h **** 
 425:/home/simulink/cFS_FreeRTOS_seL4/cfe/fsw/cfe-core/src/inc/cfe_es.h **** /*****************************************************************************/
 426:/home/simulink/cFS_FreeRTOS_seL4/cfe/fsw/cfe-core/src/inc/cfe_es.h **** /*
 427:/home/simulink/cFS_FreeRTOS_seL4/cfe/fsw/cfe-core/src/inc/cfe_es.h **** ** Exported Functions
 428:/home/simulink/cFS_FreeRTOS_seL4/cfe/fsw/cfe-core/src/inc/cfe_es.h **** */
 429:/home/simulink/cFS_FreeRTOS_seL4/cfe/fsw/cfe-core/src/inc/cfe_es.h **** 
 430:/home/simulink/cFS_FreeRTOS_seL4/cfe/fsw/cfe-core/src/inc/cfe_es.h **** /*****************************************************************************/
 431:/home/simulink/cFS_FreeRTOS_seL4/cfe/fsw/cfe-core/src/inc/cfe_es.h **** 
 432:/home/simulink/cFS_FreeRTOS_seL4/cfe/fsw/cfe-core/src/inc/cfe_es.h **** #if !defined(OSAL_OPAQUE_OBJECT_IDS)
 433:/home/simulink/cFS_FreeRTOS_seL4/cfe/fsw/cfe-core/src/inc/cfe_es.h **** /*
 434:/home/simulink/cFS_FreeRTOS_seL4/cfe/fsw/cfe-core/src/inc/cfe_es.h **** ** \brief Compatibility wrapper for older versions of OSAL
 435:/home/simulink/cFS_FreeRTOS_seL4/cfe/fsw/cfe-core/src/inc/cfe_es.h **** **
 436:/home/simulink/cFS_FreeRTOS_seL4/cfe/fsw/cfe-core/src/inc/cfe_es.h **** ** \par Description
 437:/home/simulink/cFS_FreeRTOS_seL4/cfe/fsw/cfe-core/src/inc/cfe_es.h **** **   In future versions of OSAL the task/object ID values might not be zero based
 438:/home/simulink/cFS_FreeRTOS_seL4/cfe/fsw/cfe-core/src/inc/cfe_es.h **** **   If that is the case then the OSAL must also define a function to convert back
 439:/home/simulink/cFS_FreeRTOS_seL4/cfe/fsw/cfe-core/src/inc/cfe_es.h **** **   to zero-based numbers such that the value can be used as an array index.
 440:/home/simulink/cFS_FreeRTOS_seL4/cfe/fsw/cfe-core/src/inc/cfe_es.h **** **
 441:/home/simulink/cFS_FreeRTOS_seL4/cfe/fsw/cfe-core/src/inc/cfe_es.h **** **   When using an existing/older version of OSAL, this inline function is defined
 442:/home/simulink/cFS_FreeRTOS_seL4/cfe/fsw/cfe-core/src/inc/cfe_es.h **** **   to mimic this call for backward compatibility.  It just passes through the same
 443:/home/simulink/cFS_FreeRTOS_seL4/cfe/fsw/cfe-core/src/inc/cfe_es.h **** **   value without modification.
 444:/home/simulink/cFS_FreeRTOS_seL4/cfe/fsw/cfe-core/src/inc/cfe_es.h **** **
 445:/home/simulink/cFS_FreeRTOS_seL4/cfe/fsw/cfe-core/src/inc/cfe_es.h **** ** \param[in]  ObjectId     The object ID from OSAL
 446:/home/simulink/cFS_FreeRTOS_seL4/cfe/fsw/cfe-core/src/inc/cfe_es.h **** ** \param[out] ArrayIndex   A zero-based value suitable for use as an array index
68K GAS   			page 9


 447:/home/simulink/cFS_FreeRTOS_seL4/cfe/fsw/cfe-core/src/inc/cfe_es.h **** ** \returns    OS_SUCCESS (a real version might return an error code).
 448:/home/simulink/cFS_FreeRTOS_seL4/cfe/fsw/cfe-core/src/inc/cfe_es.h **** */
 449:/home/simulink/cFS_FreeRTOS_seL4/cfe/fsw/cfe-core/src/inc/cfe_es.h **** static inline int32 OS_ConvertToArrayIndex(uint32 ObjectId, uint32 *ArrayIndex)
 450:/home/simulink/cFS_FreeRTOS_seL4/cfe/fsw/cfe-core/src/inc/cfe_es.h **** {
  11               	.loc 1 450 0
  12               	.cfi_startproc
 451:/home/simulink/cFS_FreeRTOS_seL4/cfe/fsw/cfe-core/src/inc/cfe_es.h ****    *ArrayIndex = ObjectId;
  13               	.loc 1 451 0
  14 0000 206F 0008 	move.l 8(%sp),%a0
  15 0004 20AF 0004 	move.l 4(%sp),(%a0)
 452:/home/simulink/cFS_FreeRTOS_seL4/cfe/fsw/cfe-core/src/inc/cfe_es.h ****    return OS_SUCCESS;
  16               	.loc 1 452 0
  17 0008 4280      	clr.l %d0
 453:/home/simulink/cFS_FreeRTOS_seL4/cfe/fsw/cfe-core/src/inc/cfe_es.h **** }
  18               	.loc 1 453 0
  19 000a 4E75      	rts
  20               	.cfi_endproc
  21               	.LFE58:
  22               	.sizeOS_ConvertToArrayIndex, .-OS_ConvertToArrayIndex
  23               	.section.rodata
  24               	.LC0:
  25 0000 2F72 616D 	.string"/ram/apps/cfe_es_startup.scr"
  25      2F61 7070 
  25      732F 6366 
  25      655F 6573 
  25      5F73 7461 
  26               	.LC1:
  27 001d 4553 2053 	.string"ES Startup: Opened ES App Startup file: %s\n"
  27      7461 7274 
  27      7570 3A20 
  27      4F70 656E 
  27      6564 2045 
  28               	.LC2:
  29 0049 4553 2053 	.string"ES Startup: Cannot Open Volatile Startup file, Trying Nonvolatile.\n"
  29      7461 7274 
  29      7570 3A20 
  29      4361 6E6E 
  29      6F74 204F 
  30               	.LC3:
  31 008d 4553 2053 	.string"ES Startup: Error, Can't Open ES App Startup file: %s EC = 0x%08X\n"
  31      7461 7274 
  31      7570 3A20 
  31      4572 726F 
  31      722C 2043 
  32               	.LC4:
  33 00d0 4553 2053 	.string"ES Startup: Error Reading Startup file. EC = 0x%08X\n"
  33      7461 7274 
  33      7570 3A20 
  33      4572 726F 
  33      7220 5265 
  34               	.LC5:
  35 0105 4553 2053 	.string"ES Startup: ES Startup File Line is too long: %u bytes.\n"
  35      7461 7274 
  35      7570 3A20 
  35      4553 2053 
  35      7461 7274 
  36               	.text
68K GAS   			page 10


  37               	.align2
  38               	.globlCFE_ES_StartApplications
  39               	.typeCFE_ES_StartApplications, @function
  40               	CFE_ES_StartApplications:
  41               	.LFB59:
  42               	.file 2 "/home/simulink/cFS_FreeRTOS_seL4/cfe/fsw/cfe-core/src/es/cfe_es_apps.c"
   1:/home/simulink/cFS_FreeRTOS_seL4/cfe/fsw/cfe-core/src/es/cfe_es_apps.c **** /*
   2:/home/simulink/cFS_FreeRTOS_seL4/cfe/fsw/cfe-core/src/es/cfe_es_apps.c **** **  File:  
   3:/home/simulink/cFS_FreeRTOS_seL4/cfe/fsw/cfe-core/src/es/cfe_es_apps.c **** **    cfe_es_apps.c
   4:/home/simulink/cFS_FreeRTOS_seL4/cfe/fsw/cfe-core/src/es/cfe_es_apps.c **** ** 
   5:/home/simulink/cFS_FreeRTOS_seL4/cfe/fsw/cfe-core/src/es/cfe_es_apps.c **** **
   6:/home/simulink/cFS_FreeRTOS_seL4/cfe/fsw/cfe-core/src/es/cfe_es_apps.c **** **
   7:/home/simulink/cFS_FreeRTOS_seL4/cfe/fsw/cfe-core/src/es/cfe_es_apps.c **** **      Copyright (c) 2004-2012, United States government as represented by the 
   8:/home/simulink/cFS_FreeRTOS_seL4/cfe/fsw/cfe-core/src/es/cfe_es_apps.c **** **      administrator of the National Aeronautics Space Administration.  
   9:/home/simulink/cFS_FreeRTOS_seL4/cfe/fsw/cfe-core/src/es/cfe_es_apps.c **** **      All rights reserved. This software(cFE) was created at NASA's Goddard 
  10:/home/simulink/cFS_FreeRTOS_seL4/cfe/fsw/cfe-core/src/es/cfe_es_apps.c **** **      Space Flight Center pursuant to government contracts.
  11:/home/simulink/cFS_FreeRTOS_seL4/cfe/fsw/cfe-core/src/es/cfe_es_apps.c **** **
  12:/home/simulink/cFS_FreeRTOS_seL4/cfe/fsw/cfe-core/src/es/cfe_es_apps.c **** **      This is governed by the NASA Open Source Agreement and may be used, 
  13:/home/simulink/cFS_FreeRTOS_seL4/cfe/fsw/cfe-core/src/es/cfe_es_apps.c **** **      distributed and modified only pursuant to the terms of that agreement.
  14:/home/simulink/cFS_FreeRTOS_seL4/cfe/fsw/cfe-core/src/es/cfe_es_apps.c **** **
  15:/home/simulink/cFS_FreeRTOS_seL4/cfe/fsw/cfe-core/src/es/cfe_es_apps.c **** **  Purpose:  
  16:/home/simulink/cFS_FreeRTOS_seL4/cfe/fsw/cfe-core/src/es/cfe_es_apps.c **** **    This file contains functions for starting cFE applications from a filesystem.
  17:/home/simulink/cFS_FreeRTOS_seL4/cfe/fsw/cfe-core/src/es/cfe_es_apps.c **** **
  18:/home/simulink/cFS_FreeRTOS_seL4/cfe/fsw/cfe-core/src/es/cfe_es_apps.c **** **  References:
  19:/home/simulink/cFS_FreeRTOS_seL4/cfe/fsw/cfe-core/src/es/cfe_es_apps.c **** **     Flight Software Branch C Coding Standard Version 1.0a
  20:/home/simulink/cFS_FreeRTOS_seL4/cfe/fsw/cfe-core/src/es/cfe_es_apps.c **** **     cFE Flight Software Application Developers Guide
  21:/home/simulink/cFS_FreeRTOS_seL4/cfe/fsw/cfe-core/src/es/cfe_es_apps.c **** **
  22:/home/simulink/cFS_FreeRTOS_seL4/cfe/fsw/cfe-core/src/es/cfe_es_apps.c **** **  Notes:
  23:/home/simulink/cFS_FreeRTOS_seL4/cfe/fsw/cfe-core/src/es/cfe_es_apps.c **** ** 
  24:/home/simulink/cFS_FreeRTOS_seL4/cfe/fsw/cfe-core/src/es/cfe_es_apps.c **** **  $Log: cfe_es_apps.c  $
  25:/home/simulink/cFS_FreeRTOS_seL4/cfe/fsw/cfe-core/src/es/cfe_es_apps.c **** **  Revision 1.26 2014/09/05 11:35:15GMT-05:00 acudmore 
  26:/home/simulink/cFS_FreeRTOS_seL4/cfe/fsw/cfe-core/src/es/cfe_es_apps.c **** **  Changed CFE_ES_AppCreate and CFE_ES_LoadLibrary to remove big shared data lock. Locking shared 
  27:/home/simulink/cFS_FreeRTOS_seL4/cfe/fsw/cfe-core/src/es/cfe_es_apps.c **** **  Revision 1.25 2014/08/22 15:50:04GMT-05:00 lwalling 
  28:/home/simulink/cFS_FreeRTOS_seL4/cfe/fsw/cfe-core/src/es/cfe_es_apps.c **** **  Changed signed loop counters to unsigned
  29:/home/simulink/cFS_FreeRTOS_seL4/cfe/fsw/cfe-core/src/es/cfe_es_apps.c **** **  Revision 1.24 2014/07/25 11:56:54EDT lwalling 
  30:/home/simulink/cFS_FreeRTOS_seL4/cfe/fsw/cfe-core/src/es/cfe_es_apps.c **** **  Changed INCLUDE_CFE_TBL to EXCLUDE_CFE_TBL
  31:/home/simulink/cFS_FreeRTOS_seL4/cfe/fsw/cfe-core/src/es/cfe_es_apps.c **** **  Revision 1.23 2014/07/23 11:33:22EDT lwalling 
  32:/home/simulink/cFS_FreeRTOS_seL4/cfe/fsw/cfe-core/src/es/cfe_es_apps.c **** **  Made Table Services conditionsal based on new environment variable INCLUDE_CFE_TBL
  33:/home/simulink/cFS_FreeRTOS_seL4/cfe/fsw/cfe-core/src/es/cfe_es_apps.c **** **  Revision 1.22 2014/05/05 15:00:08EDT acudmore 
  34:/home/simulink/cFS_FreeRTOS_seL4/cfe/fsw/cfe-core/src/es/cfe_es_apps.c **** **  Clarified misleading event message text.
  35:/home/simulink/cFS_FreeRTOS_seL4/cfe/fsw/cfe-core/src/es/cfe_es_apps.c **** **  Revision 1.21 2014/05/05 13:28:00GMT-05:00 acudmore 
  36:/home/simulink/cFS_FreeRTOS_seL4/cfe/fsw/cfe-core/src/es/cfe_es_apps.c **** **  Fixed event message string, replaced variable name with %s.
  37:/home/simulink/cFS_FreeRTOS_seL4/cfe/fsw/cfe-core/src/es/cfe_es_apps.c **** **  Revision 1.20 2012/09/28 16:13:24GMT-05:00 aschoeni 
  38:/home/simulink/cFS_FreeRTOS_seL4/cfe/fsw/cfe-core/src/es/cfe_es_apps.c **** **  Replaced OS_ERROR with NOT OS_SUCCESS in calls for semphore deletion
  39:/home/simulink/cFS_FreeRTOS_seL4/cfe/fsw/cfe-core/src/es/cfe_es_apps.c **** **  Revision 1.19 2012/01/13 11:49:59EST acudmore 
  40:/home/simulink/cFS_FreeRTOS_seL4/cfe/fsw/cfe-core/src/es/cfe_es_apps.c **** **  Changed license text to reflect open source
  41:/home/simulink/cFS_FreeRTOS_seL4/cfe/fsw/cfe-core/src/es/cfe_es_apps.c **** **  Revision 1.18 2011/12/07 19:20:26EST aschoeni 
  42:/home/simulink/cFS_FreeRTOS_seL4/cfe/fsw/cfe-core/src/es/cfe_es_apps.c **** **  Removed returns for TIME and SB for cleaning up apps
  43:/home/simulink/cFS_FreeRTOS_seL4/cfe/fsw/cfe-core/src/es/cfe_es_apps.c **** **  Revision 1.17 2011/11/30 15:43:11EST jmdagost 
  44:/home/simulink/cFS_FreeRTOS_seL4/cfe/fsw/cfe-core/src/es/cfe_es_apps.c **** **  Added test for task delete error when cleaning up resources.
  45:/home/simulink/cFS_FreeRTOS_seL4/cfe/fsw/cfe-core/src/es/cfe_es_apps.c **** **  Revision 1.16 2011/09/02 11:04:11EDT jmdagost 
  46:/home/simulink/cFS_FreeRTOS_seL4/cfe/fsw/cfe-core/src/es/cfe_es_apps.c **** **  Corrected filename string copy length from max api length to max path length.
  47:/home/simulink/cFS_FreeRTOS_seL4/cfe/fsw/cfe-core/src/es/cfe_es_apps.c **** **  Revision 1.15 2010/11/04 14:06:43EDT acudmore 
  48:/home/simulink/cFS_FreeRTOS_seL4/cfe/fsw/cfe-core/src/es/cfe_es_apps.c **** **  Added ram disk mount path configuration option.
  49:/home/simulink/cFS_FreeRTOS_seL4/cfe/fsw/cfe-core/src/es/cfe_es_apps.c **** **  Revision 1.14 2010/10/25 17:43:44EDT jmdagost 
  50:/home/simulink/cFS_FreeRTOS_seL4/cfe/fsw/cfe-core/src/es/cfe_es_apps.c **** **  Add length tests for extracted filename and path
  51:/home/simulink/cFS_FreeRTOS_seL4/cfe/fsw/cfe-core/src/es/cfe_es_apps.c **** **  Revision 1.13 2009/07/30 19:17:49EDT jmdagost 
68K GAS   			page 11


  52:/home/simulink/cFS_FreeRTOS_seL4/cfe/fsw/cfe-core/src/es/cfe_es_apps.c **** **  Deleted static keyword in CFE_ES_StartApplications
  53:/home/simulink/cFS_FreeRTOS_seL4/cfe/fsw/cfe-core/src/es/cfe_es_apps.c **** **  Revision 1.12 2009/07/28 16:31:15EDT jmdagost 
  54:/home/simulink/cFS_FreeRTOS_seL4/cfe/fsw/cfe-core/src/es/cfe_es_apps.c **** **  Replaced 20 references to filename with references to function name.
  55:/home/simulink/cFS_FreeRTOS_seL4/cfe/fsw/cfe-core/src/es/cfe_es_apps.c **** **  Revision 1.11 2009/06/10 09:08:52EDT acudmore 
  56:/home/simulink/cFS_FreeRTOS_seL4/cfe/fsw/cfe-core/src/es/cfe_es_apps.c **** **  Converted OS_Mem* and OS_BSP* API to CFE_PSP_* API
  57:/home/simulink/cFS_FreeRTOS_seL4/cfe/fsw/cfe-core/src/es/cfe_es_apps.c **** **  Revision 1.10 2008/08/28 08:46:53EDT apcudmore 
  58:/home/simulink/cFS_FreeRTOS_seL4/cfe/fsw/cfe-core/src/es/cfe_es_apps.c **** **  changed CFS call back to CFE
  59:/home/simulink/cFS_FreeRTOS_seL4/cfe/fsw/cfe-core/src/es/cfe_es_apps.c **** **  Revision 1.9 2008/08/27 16:59:01EDT apcudmore 
  60:/home/simulink/cFS_FreeRTOS_seL4/cfe/fsw/cfe-core/src/es/cfe_es_apps.c **** **  Added timer delete code in ES task cleanup.
  61:/home/simulink/cFS_FreeRTOS_seL4/cfe/fsw/cfe-core/src/es/cfe_es_apps.c **** **  Revision 1.8 2008/08/06 22:42:33EDT dkobe 
  62:/home/simulink/cFS_FreeRTOS_seL4/cfe/fsw/cfe-core/src/es/cfe_es_apps.c **** **  Added CFE_TIME_RegisterSynchCallback, CFE_TIME_UnregisterSynchCallback and CFE_TIME_CleanUpApp
  63:/home/simulink/cFS_FreeRTOS_seL4/cfe/fsw/cfe-core/src/es/cfe_es_apps.c **** **  Revision 1.7 2008/08/04 15:06:48EDT apcudmore 
  64:/home/simulink/cFS_FreeRTOS_seL4/cfe/fsw/cfe-core/src/es/cfe_es_apps.c **** **  Updated handling code when file decompress fails.
  65:/home/simulink/cFS_FreeRTOS_seL4/cfe/fsw/cfe-core/src/es/cfe_es_apps.c **** **  Revision 1.6 2008/07/31 15:41:35EDT apcudmore 
  66:/home/simulink/cFS_FreeRTOS_seL4/cfe/fsw/cfe-core/src/es/cfe_es_apps.c **** **  Added execution counter API:
  67:/home/simulink/cFS_FreeRTOS_seL4/cfe/fsw/cfe-core/src/es/cfe_es_apps.c **** **    -- Added execution counter to ES internal task data
  68:/home/simulink/cFS_FreeRTOS_seL4/cfe/fsw/cfe-core/src/es/cfe_es_apps.c **** **    -- Added code to increment counter in RunLoop
  69:/home/simulink/cFS_FreeRTOS_seL4/cfe/fsw/cfe-core/src/es/cfe_es_apps.c **** **    -- Added code to report counter in GetInfo APIs
  70:/home/simulink/cFS_FreeRTOS_seL4/cfe/fsw/cfe-core/src/es/cfe_es_apps.c **** **    -- Added API to increment counter for child tasks
  71:/home/simulink/cFS_FreeRTOS_seL4/cfe/fsw/cfe-core/src/es/cfe_es_apps.c **** **    -- Added code to cFE Core apps to increment counters.
  72:/home/simulink/cFS_FreeRTOS_seL4/cfe/fsw/cfe-core/src/es/cfe_es_apps.c **** **  Revision 1.5 2008/07/30 14:52:32EDT apcudmore 
  73:/home/simulink/cFS_FreeRTOS_seL4/cfe/fsw/cfe-core/src/es/cfe_es_apps.c **** **  Added startup sync support and API
  74:/home/simulink/cFS_FreeRTOS_seL4/cfe/fsw/cfe-core/src/es/cfe_es_apps.c **** **  Revision 1.4 2008/07/08 12:35:29EDT apcudmore 
  75:/home/simulink/cFS_FreeRTOS_seL4/cfe/fsw/cfe-core/src/es/cfe_es_apps.c **** **  Added an "AddressesAreValid" flag to the ES App Info structure.
  76:/home/simulink/cFS_FreeRTOS_seL4/cfe/fsw/cfe-core/src/es/cfe_es_apps.c **** **  Revision 1.3 2008/06/26 15:41:54EDT apcudmore 
  77:/home/simulink/cFS_FreeRTOS_seL4/cfe/fsw/cfe-core/src/es/cfe_es_apps.c **** **  Added public CFE_ES_GetAppInfo API.
  78:/home/simulink/cFS_FreeRTOS_seL4/cfe/fsw/cfe-core/src/es/cfe_es_apps.c **** **  Moved the old API to CFE_ES_GetAppInfoInternal
  79:/home/simulink/cFS_FreeRTOS_seL4/cfe/fsw/cfe-core/src/es/cfe_es_apps.c **** **  -- May merge these two in the near future.
  80:/home/simulink/cFS_FreeRTOS_seL4/cfe/fsw/cfe-core/src/es/cfe_es_apps.c **** **  Revision 1.2 2008/06/20 15:40:31EDT apcudmore 
  81:/home/simulink/cFS_FreeRTOS_seL4/cfe/fsw/cfe-core/src/es/cfe_es_apps.c **** **  Added support for OSAL based module loader
  82:/home/simulink/cFS_FreeRTOS_seL4/cfe/fsw/cfe-core/src/es/cfe_es_apps.c **** **   - Removed calls and references to the BSP based module loader
  83:/home/simulink/cFS_FreeRTOS_seL4/cfe/fsw/cfe-core/src/es/cfe_es_apps.c **** **  Revision 1.1 2008/04/17 08:05:02EDT ruperera 
  84:/home/simulink/cFS_FreeRTOS_seL4/cfe/fsw/cfe-core/src/es/cfe_es_apps.c **** **  Initial revision
  85:/home/simulink/cFS_FreeRTOS_seL4/cfe/fsw/cfe-core/src/es/cfe_es_apps.c **** **  Member added to project c:/MKSDATA/MKS-REPOSITORY/MKS-CFE-PROJECT/fsw/cfe-core/src/es/project.p
  86:/home/simulink/cFS_FreeRTOS_seL4/cfe/fsw/cfe-core/src/es/cfe_es_apps.c **** **  Revision 1.32 2007/09/25 11:46:09EDT apcudmore 
  87:/home/simulink/cFS_FreeRTOS_seL4/cfe/fsw/cfe-core/src/es/cfe_es_apps.c **** **  Updated cfe_es_startup.scr file format
  88:/home/simulink/cFS_FreeRTOS_seL4/cfe/fsw/cfe-core/src/es/cfe_es_apps.c **** **  Revision 1.31 2007/09/21 15:40:19EDT David Kobe (dlkobe) 
  89:/home/simulink/cFS_FreeRTOS_seL4/cfe/fsw/cfe-core/src/es/cfe_es_apps.c **** **  Modified pointer type definitions to eliminate Linux gcc compile warnings
  90:/home/simulink/cFS_FreeRTOS_seL4/cfe/fsw/cfe-core/src/es/cfe_es_apps.c **** **  Revision 1.30 2007/07/11 13:55:38EDT dlkobe 
  91:/home/simulink/cFS_FreeRTOS_seL4/cfe/fsw/cfe-core/src/es/cfe_es_apps.c **** **  Corrected order of WriteToSysLog parameters to match format string
  92:/home/simulink/cFS_FreeRTOS_seL4/cfe/fsw/cfe-core/src/es/cfe_es_apps.c **** **  Revision 1.29 2007/07/05 13:37:14EDT apcudmore 
  93:/home/simulink/cFS_FreeRTOS_seL4/cfe/fsw/cfe-core/src/es/cfe_es_apps.c **** **  Fixed error with Volatile and Nonvolatile ES startup file names.
  94:/home/simulink/cFS_FreeRTOS_seL4/cfe/fsw/cfe-core/src/es/cfe_es_apps.c **** **  Revision 1.28 2007/05/25 14:04:12EDT apcudmore 
  95:/home/simulink/cFS_FreeRTOS_seL4/cfe/fsw/cfe-core/src/es/cfe_es_apps.c **** **  Return an error code on CFE_ES_CleanUpApp function.
  96:/home/simulink/cFS_FreeRTOS_seL4/cfe/fsw/cfe-core/src/es/cfe_es_apps.c **** **  Revision 1.27 2007/05/25 11:55:43EDT apcudmore 
  97:/home/simulink/cFS_FreeRTOS_seL4/cfe/fsw/cfe-core/src/es/cfe_es_apps.c **** **  Error Handling updates
  98:/home/simulink/cFS_FreeRTOS_seL4/cfe/fsw/cfe-core/src/es/cfe_es_apps.c **** **     - CFE_ES_GetAppInfo returns void
  99:/home/simulink/cFS_FreeRTOS_seL4/cfe/fsw/cfe-core/src/es/cfe_es_apps.c **** **     - added app ID range check in RestartApp
 100:/home/simulink/cFS_FreeRTOS_seL4/cfe/fsw/cfe-core/src/es/cfe_es_apps.c **** **   
 101:/home/simulink/cFS_FreeRTOS_seL4/cfe/fsw/cfe-core/src/es/cfe_es_apps.c **** **  Revision 1.26 2007/05/22 14:56:55EDT apcudmore 
 102:/home/simulink/cFS_FreeRTOS_seL4/cfe/fsw/cfe-core/src/es/cfe_es_apps.c **** **  cFE Non-Volatile Disk/Startup File changes:
 103:/home/simulink/cFS_FreeRTOS_seL4/cfe/fsw/cfe-core/src/es/cfe_es_apps.c **** **    - cFE startup now passes in startup file path/name
 104:/home/simulink/cFS_FreeRTOS_seL4/cfe/fsw/cfe-core/src/es/cfe_es_apps.c **** **    - cFE startup code does not init non-volatile disk ( BSP does )
 105:/home/simulink/cFS_FreeRTOS_seL4/cfe/fsw/cfe-core/src/es/cfe_es_apps.c **** **    - BSPs now can map cFE paths without making the OS_initfs/OS_mount calls
 106:/home/simulink/cFS_FreeRTOS_seL4/cfe/fsw/cfe-core/src/es/cfe_es_apps.c **** **    - MCP750 vxWorks6.2 BSP inits/mounts CF disk
 107:/home/simulink/cFS_FreeRTOS_seL4/cfe/fsw/cfe-core/src/es/cfe_es_apps.c **** **    - Desktop ports pass in the same startup file path/name as before
 108:/home/simulink/cFS_FreeRTOS_seL4/cfe/fsw/cfe-core/src/es/cfe_es_apps.c **** **  Revision 1.25 2007/05/15 11:16:07EDT apcudmore 
68K GAS   			page 12


 109:/home/simulink/cFS_FreeRTOS_seL4/cfe/fsw/cfe-core/src/es/cfe_es_apps.c **** **  Added modification log tags.
 110:/home/simulink/cFS_FreeRTOS_seL4/cfe/fsw/cfe-core/src/es/cfe_es_apps.c **** **
 111:/home/simulink/cFS_FreeRTOS_seL4/cfe/fsw/cfe-core/src/es/cfe_es_apps.c **** */
 112:/home/simulink/cFS_FreeRTOS_seL4/cfe/fsw/cfe-core/src/es/cfe_es_apps.c **** 
 113:/home/simulink/cFS_FreeRTOS_seL4/cfe/fsw/cfe-core/src/es/cfe_es_apps.c **** /* 
 114:/home/simulink/cFS_FreeRTOS_seL4/cfe/fsw/cfe-core/src/es/cfe_es_apps.c **** ** Includes
 115:/home/simulink/cFS_FreeRTOS_seL4/cfe/fsw/cfe-core/src/es/cfe_es_apps.c **** */
 116:/home/simulink/cFS_FreeRTOS_seL4/cfe/fsw/cfe-core/src/es/cfe_es_apps.c **** #include "private/cfe_private.h"
 117:/home/simulink/cFS_FreeRTOS_seL4/cfe/fsw/cfe-core/src/es/cfe_es_apps.c **** #include "cfe_es.h"
 118:/home/simulink/cFS_FreeRTOS_seL4/cfe/fsw/cfe-core/src/es/cfe_es_apps.c **** #include "cfe_psp.h"     
 119:/home/simulink/cFS_FreeRTOS_seL4/cfe/fsw/cfe-core/src/es/cfe_es_apps.c **** #include "cfe_es_global.h"
 120:/home/simulink/cFS_FreeRTOS_seL4/cfe/fsw/cfe-core/src/es/cfe_es_apps.c **** #include "cfe_es_apps.h"
 121:/home/simulink/cFS_FreeRTOS_seL4/cfe/fsw/cfe-core/src/es/cfe_es_apps.c **** 
 122:/home/simulink/cFS_FreeRTOS_seL4/cfe/fsw/cfe-core/src/es/cfe_es_apps.c **** #include <stdio.h>
 123:/home/simulink/cFS_FreeRTOS_seL4/cfe/fsw/cfe-core/src/es/cfe_es_apps.c **** #include <string.h> /* memset() */
 124:/home/simulink/cFS_FreeRTOS_seL4/cfe/fsw/cfe-core/src/es/cfe_es_apps.c **** #include <fcntl.h>
 125:/home/simulink/cFS_FreeRTOS_seL4/cfe/fsw/cfe-core/src/es/cfe_es_apps.c **** 
 126:/home/simulink/cFS_FreeRTOS_seL4/cfe/fsw/cfe-core/src/es/cfe_es_apps.c **** #ifdef _ENHANCED_BUILD_
 127:/home/simulink/cFS_FreeRTOS_seL4/cfe/fsw/cfe-core/src/es/cfe_es_apps.c **** #include "target_config.h"
 128:/home/simulink/cFS_FreeRTOS_seL4/cfe/fsw/cfe-core/src/es/cfe_es_apps.c **** #endif
 129:/home/simulink/cFS_FreeRTOS_seL4/cfe/fsw/cfe-core/src/es/cfe_es_apps.c **** 
 130:/home/simulink/cFS_FreeRTOS_seL4/cfe/fsw/cfe-core/src/es/cfe_es_apps.c **** /*
 131:/home/simulink/cFS_FreeRTOS_seL4/cfe/fsw/cfe-core/src/es/cfe_es_apps.c **** ** Defines
 132:/home/simulink/cFS_FreeRTOS_seL4/cfe/fsw/cfe-core/src/es/cfe_es_apps.c **** */
 133:/home/simulink/cFS_FreeRTOS_seL4/cfe/fsw/cfe-core/src/es/cfe_es_apps.c **** #define ES_START_BUFF_SIZE 128
 134:/home/simulink/cFS_FreeRTOS_seL4/cfe/fsw/cfe-core/src/es/cfe_es_apps.c **** 
 135:/home/simulink/cFS_FreeRTOS_seL4/cfe/fsw/cfe-core/src/es/cfe_es_apps.c **** /* For extra debug code */
 136:/home/simulink/cFS_FreeRTOS_seL4/cfe/fsw/cfe-core/src/es/cfe_es_apps.c **** #undef ES_APP_DEBUG
 137:/home/simulink/cFS_FreeRTOS_seL4/cfe/fsw/cfe-core/src/es/cfe_es_apps.c **** 
 138:/home/simulink/cFS_FreeRTOS_seL4/cfe/fsw/cfe-core/src/es/cfe_es_apps.c **** /*
 139:/home/simulink/cFS_FreeRTOS_seL4/cfe/fsw/cfe-core/src/es/cfe_es_apps.c **** **
 140:/home/simulink/cFS_FreeRTOS_seL4/cfe/fsw/cfe-core/src/es/cfe_es_apps.c **** **  Global Variables
 141:/home/simulink/cFS_FreeRTOS_seL4/cfe/fsw/cfe-core/src/es/cfe_es_apps.c **** **
 142:/home/simulink/cFS_FreeRTOS_seL4/cfe/fsw/cfe-core/src/es/cfe_es_apps.c **** */
 143:/home/simulink/cFS_FreeRTOS_seL4/cfe/fsw/cfe-core/src/es/cfe_es_apps.c **** 
 144:/home/simulink/cFS_FreeRTOS_seL4/cfe/fsw/cfe-core/src/es/cfe_es_apps.c **** /*
 145:/home/simulink/cFS_FreeRTOS_seL4/cfe/fsw/cfe-core/src/es/cfe_es_apps.c **** ****************************************************************************
 146:/home/simulink/cFS_FreeRTOS_seL4/cfe/fsw/cfe-core/src/es/cfe_es_apps.c **** ** Functions
 147:/home/simulink/cFS_FreeRTOS_seL4/cfe/fsw/cfe-core/src/es/cfe_es_apps.c **** ***************************************************************************
 148:/home/simulink/cFS_FreeRTOS_seL4/cfe/fsw/cfe-core/src/es/cfe_es_apps.c **** */
 149:/home/simulink/cFS_FreeRTOS_seL4/cfe/fsw/cfe-core/src/es/cfe_es_apps.c **** 
 150:/home/simulink/cFS_FreeRTOS_seL4/cfe/fsw/cfe-core/src/es/cfe_es_apps.c **** /*
 151:/home/simulink/cFS_FreeRTOS_seL4/cfe/fsw/cfe-core/src/es/cfe_es_apps.c **** ** Name: 
 152:/home/simulink/cFS_FreeRTOS_seL4/cfe/fsw/cfe-core/src/es/cfe_es_apps.c **** **   CFE_ES_StartApplications
 153:/home/simulink/cFS_FreeRTOS_seL4/cfe/fsw/cfe-core/src/es/cfe_es_apps.c **** **
 154:/home/simulink/cFS_FreeRTOS_seL4/cfe/fsw/cfe-core/src/es/cfe_es_apps.c **** ** Purpose: 
 155:/home/simulink/cFS_FreeRTOS_seL4/cfe/fsw/cfe-core/src/es/cfe_es_apps.c **** **   This routine loads/starts cFE applications.
 156:/home/simulink/cFS_FreeRTOS_seL4/cfe/fsw/cfe-core/src/es/cfe_es_apps.c **** **
 157:/home/simulink/cFS_FreeRTOS_seL4/cfe/fsw/cfe-core/src/es/cfe_es_apps.c **** */
 158:/home/simulink/cFS_FreeRTOS_seL4/cfe/fsw/cfe-core/src/es/cfe_es_apps.c **** void CFE_ES_StartApplications(uint32 ResetType, const char *StartFilePath )
 159:/home/simulink/cFS_FreeRTOS_seL4/cfe/fsw/cfe-core/src/es/cfe_es_apps.c **** {
  43               	.loc 2 159 0
  44               	.cfi_startproc
  45 000c 4FEF FF6C 	lea (-148,%sp),%sp
  46               	.cfi_def_cfa_offset 152
 160:/home/simulink/cFS_FreeRTOS_seL4/cfe/fsw/cfe-core/src/es/cfe_es_apps.c ****    char ES_AppLoadBuffer[ES_START_BUFF_SIZE];  /* A buffer of for a line in a file */   
 161:/home/simulink/cFS_FreeRTOS_seL4/cfe/fsw/cfe-core/src/es/cfe_es_apps.c ****    uint32      BuffLen = 0;                            /* Length of the current buffer */
68K GAS   			page 13


  47               	.loc 2 161 0
  48 0010 42AF 0090 	clr.l 144(%sp)
 162:/home/simulink/cFS_FreeRTOS_seL4/cfe/fsw/cfe-core/src/es/cfe_es_apps.c ****    int32       AppFile = 0;
  49               	.loc 2 162 0
  50 0014 42AF 008C 	clr.l 140(%sp)
 163:/home/simulink/cFS_FreeRTOS_seL4/cfe/fsw/cfe-core/src/es/cfe_es_apps.c ****    char        c;
 164:/home/simulink/cFS_FreeRTOS_seL4/cfe/fsw/cfe-core/src/es/cfe_es_apps.c ****    int32       ReadStatus;
 165:/home/simulink/cFS_FreeRTOS_seL4/cfe/fsw/cfe-core/src/es/cfe_es_apps.c ****    boolean     LineTooLong = FALSE;
  51               	.loc 2 165 0
  52 0018 4200      	clr.b %d0
  53 001a 1F40 008B 	move.b %d0,139(%sp)
 166:/home/simulink/cFS_FreeRTOS_seL4/cfe/fsw/cfe-core/src/es/cfe_es_apps.c ****    boolean     FileOpened = FALSE;
  54               	.loc 2 166 0
  55 001e 4201      	clr.b %d1
  56 0020 1F41 008A 	move.b %d1,138(%sp)
 167:/home/simulink/cFS_FreeRTOS_seL4/cfe/fsw/cfe-core/src/es/cfe_es_apps.c **** 
 168:/home/simulink/cFS_FreeRTOS_seL4/cfe/fsw/cfe-core/src/es/cfe_es_apps.c **** #ifdef _ENHANCED_BUILD_
 169:/home/simulink/cFS_FreeRTOS_seL4/cfe/fsw/cfe-core/src/es/cfe_es_apps.c ****    CFE_StaticModuleLoadEntry_t *Entry;
 170:/home/simulink/cFS_FreeRTOS_seL4/cfe/fsw/cfe-core/src/es/cfe_es_apps.c ****    CFE_ES_AppStaticModuleApi_t *ApiPtr;
 171:/home/simulink/cFS_FreeRTOS_seL4/cfe/fsw/cfe-core/src/es/cfe_es_apps.c ****    uint32       StaticId;
 172:/home/simulink/cFS_FreeRTOS_seL4/cfe/fsw/cfe-core/src/es/cfe_es_apps.c **** 
 173:/home/simulink/cFS_FreeRTOS_seL4/cfe/fsw/cfe-core/src/es/cfe_es_apps.c ****    /* First run through the static application list */
 174:/home/simulink/cFS_FreeRTOS_seL4/cfe/fsw/cfe-core/src/es/cfe_es_apps.c ****    Entry = GLOBAL_CONFIGDATA.CfsModuleList;
 175:/home/simulink/cFS_FreeRTOS_seL4/cfe/fsw/cfe-core/src/es/cfe_es_apps.c ****    if (Entry != NULL)
 176:/home/simulink/cFS_FreeRTOS_seL4/cfe/fsw/cfe-core/src/es/cfe_es_apps.c ****    {
 177:/home/simulink/cFS_FreeRTOS_seL4/cfe/fsw/cfe-core/src/es/cfe_es_apps.c ****        while (Entry->Name != NULL)
 178:/home/simulink/cFS_FreeRTOS_seL4/cfe/fsw/cfe-core/src/es/cfe_es_apps.c ****        {
 179:/home/simulink/cFS_FreeRTOS_seL4/cfe/fsw/cfe-core/src/es/cfe_es_apps.c ****            ApiPtr = (CFE_ES_AppStaticModuleApi_t *)Entry->Api;
 180:/home/simulink/cFS_FreeRTOS_seL4/cfe/fsw/cfe-core/src/es/cfe_es_apps.c ****            if (ApiPtr->EntryType == CFE_ES_STATICENTRYTYPE_APPLICATION)
 181:/home/simulink/cFS_FreeRTOS_seL4/cfe/fsw/cfe-core/src/es/cfe_es_apps.c ****            {
 182:/home/simulink/cFS_FreeRTOS_seL4/cfe/fsw/cfe-core/src/es/cfe_es_apps.c ****                ReadStatus = CFE_ES_AppCreate(&StaticId, NULL,
 183:/home/simulink/cFS_FreeRTOS_seL4/cfe/fsw/cfe-core/src/es/cfe_es_apps.c ****                        Entry->Api, Entry->Name, ApiPtr->Priority,
 184:/home/simulink/cFS_FreeRTOS_seL4/cfe/fsw/cfe-core/src/es/cfe_es_apps.c ****                        ApiPtr->StackSize, CFE_ES_APP_EXCEPTION_PROC_RESTART);
 185:/home/simulink/cFS_FreeRTOS_seL4/cfe/fsw/cfe-core/src/es/cfe_es_apps.c ****            }
 186:/home/simulink/cFS_FreeRTOS_seL4/cfe/fsw/cfe-core/src/es/cfe_es_apps.c ****            else if (ApiPtr->EntryType == CFE_ES_STATICENTRYTYPE_LIBRARY)
 187:/home/simulink/cFS_FreeRTOS_seL4/cfe/fsw/cfe-core/src/es/cfe_es_apps.c ****            {
 188:/home/simulink/cFS_FreeRTOS_seL4/cfe/fsw/cfe-core/src/es/cfe_es_apps.c ****                ReadStatus = CFE_ES_LoadLibrary(&StaticId, NULL,
 189:/home/simulink/cFS_FreeRTOS_seL4/cfe/fsw/cfe-core/src/es/cfe_es_apps.c ****                        Entry->Api, Entry->Name);
 190:/home/simulink/cFS_FreeRTOS_seL4/cfe/fsw/cfe-core/src/es/cfe_es_apps.c ****            }
 191:/home/simulink/cFS_FreeRTOS_seL4/cfe/fsw/cfe-core/src/es/cfe_es_apps.c ****            ++Entry;
 192:/home/simulink/cFS_FreeRTOS_seL4/cfe/fsw/cfe-core/src/es/cfe_es_apps.c ****        }
 193:/home/simulink/cFS_FreeRTOS_seL4/cfe/fsw/cfe-core/src/es/cfe_es_apps.c ****    }
 194:/home/simulink/cFS_FreeRTOS_seL4/cfe/fsw/cfe-core/src/es/cfe_es_apps.c **** #endif
 195:/home/simulink/cFS_FreeRTOS_seL4/cfe/fsw/cfe-core/src/es/cfe_es_apps.c **** 
 196:/home/simulink/cFS_FreeRTOS_seL4/cfe/fsw/cfe-core/src/es/cfe_es_apps.c ****    /*
 197:/home/simulink/cFS_FreeRTOS_seL4/cfe/fsw/cfe-core/src/es/cfe_es_apps.c ****    ** Get the ES startup script filename.
 198:/home/simulink/cFS_FreeRTOS_seL4/cfe/fsw/cfe-core/src/es/cfe_es_apps.c ****    ** If this is a Processor Reset, try to open the file in the volatile disk first.
 199:/home/simulink/cFS_FreeRTOS_seL4/cfe/fsw/cfe-core/src/es/cfe_es_apps.c ****    */
 200:/home/simulink/cFS_FreeRTOS_seL4/cfe/fsw/cfe-core/src/es/cfe_es_apps.c ****    if ( ResetType == CFE_PSP_RST_TYPE_PROCESSOR )
  57               	.loc 2 200 0
  58 0024 7001      	moveq #1,%d0
  59 0026 B0AF 0098 	cmp.l 152(%sp),%d0
  60 002a 664E      	jne .L4
 201:/home/simulink/cFS_FreeRTOS_seL4/cfe/fsw/cfe-core/src/es/cfe_es_apps.c ****    {
 202:/home/simulink/cFS_FreeRTOS_seL4/cfe/fsw/cfe-core/src/es/cfe_es_apps.c ****       /*
 203:/home/simulink/cFS_FreeRTOS_seL4/cfe/fsw/cfe-core/src/es/cfe_es_apps.c ****       ** Open the file in the volatile disk.
 204:/home/simulink/cFS_FreeRTOS_seL4/cfe/fsw/cfe-core/src/es/cfe_es_apps.c ****       */
68K GAS   			page 14


 205:/home/simulink/cFS_FreeRTOS_seL4/cfe/fsw/cfe-core/src/es/cfe_es_apps.c ****       AppFile = OS_open( CFE_ES_VOLATILE_STARTUP_FILE, O_RDONLY, 0);
  61               	.loc 2 205 0
  62 002c 42A7      	clr.l -(%sp)
  63               	.cfi_def_cfa_offset 156
  64 002e 42A7      	clr.l -(%sp)
  65               	.cfi_def_cfa_offset 160
  66 0030 4879 0000 	pea .LC0
  66      0000 
  67               	.cfi_def_cfa_offset 164
  68 0036 4EB9 0000 	jsr OS_open
  68      0000 
  69 003c 4FEF 000C 	lea (12,%sp),%sp
  70               	.cfi_def_cfa_offset 152
  71 0040 2F40 008C 	move.l %d0,140(%sp)
 206:/home/simulink/cFS_FreeRTOS_seL4/cfe/fsw/cfe-core/src/es/cfe_es_apps.c **** 
 207:/home/simulink/cFS_FreeRTOS_seL4/cfe/fsw/cfe-core/src/es/cfe_es_apps.c ****       if ( AppFile >= 0 )
  72               	.loc 2 207 0
  73 0044 4AAF 008C 	tst.l 140(%sp)
  74 0048 6D1C      	jlt .L5
 208:/home/simulink/cFS_FreeRTOS_seL4/cfe/fsw/cfe-core/src/es/cfe_es_apps.c ****       {
 209:/home/simulink/cFS_FreeRTOS_seL4/cfe/fsw/cfe-core/src/es/cfe_es_apps.c ****          CFE_ES_WriteToSysLog ("ES Startup: Opened ES App Startup file: %s\n", 
  75               	.loc 2 209 0
  76 004a 4879 0000 	pea .LC0
  76      0000 
  77               	.cfi_def_cfa_offset 156
  78 0050 4879 0000 	pea .LC1
  78      0000 
  79               	.cfi_def_cfa_offset 160
  80 0056 4EB9 0000 	jsr CFE_ES_WriteToSysLog
  80      0000 
  81 005c 508F      	addq.l #8,%sp
  82               	.cfi_def_cfa_offset 152
 210:/home/simulink/cFS_FreeRTOS_seL4/cfe/fsw/cfe-core/src/es/cfe_es_apps.c ****                                 CFE_ES_VOLATILE_STARTUP_FILE);
 211:/home/simulink/cFS_FreeRTOS_seL4/cfe/fsw/cfe-core/src/es/cfe_es_apps.c ****          FileOpened = TRUE;
  83               	.loc 2 211 0
  84 005e 7201      	moveq #1,%d1
  85 0060 1F41 008A 	move.b %d1,138(%sp)
  86 0064 6014      	jra .L4
  87               	.L5:
 212:/home/simulink/cFS_FreeRTOS_seL4/cfe/fsw/cfe-core/src/es/cfe_es_apps.c ****       }
 213:/home/simulink/cFS_FreeRTOS_seL4/cfe/fsw/cfe-core/src/es/cfe_es_apps.c ****       else 
 214:/home/simulink/cFS_FreeRTOS_seL4/cfe/fsw/cfe-core/src/es/cfe_es_apps.c ****       {
 215:/home/simulink/cFS_FreeRTOS_seL4/cfe/fsw/cfe-core/src/es/cfe_es_apps.c ****          CFE_ES_WriteToSysLog ("ES Startup: Cannot Open Volatile Startup file, Trying Nonvolatile.\
  88               	.loc 2 215 0
  89 0066 4879 0000 	pea .LC2
  89      0000 
  90               	.cfi_def_cfa_offset 156
  91 006c 4EB9 0000 	jsr CFE_ES_WriteToSysLog
  91      0000 
  92 0072 588F      	addq.l #4,%sp
  93               	.cfi_def_cfa_offset 152
 216:/home/simulink/cFS_FreeRTOS_seL4/cfe/fsw/cfe-core/src/es/cfe_es_apps.c ****          FileOpened = FALSE;
  94               	.loc 2 216 0
  95 0074 4200      	clr.b %d0
  96 0076 1F40 008A 	move.b %d0,138(%sp)
  97               	.L4:
 217:/home/simulink/cFS_FreeRTOS_seL4/cfe/fsw/cfe-core/src/es/cfe_es_apps.c ****       }
68K GAS   			page 15


 218:/home/simulink/cFS_FreeRTOS_seL4/cfe/fsw/cfe-core/src/es/cfe_es_apps.c **** 
 219:/home/simulink/cFS_FreeRTOS_seL4/cfe/fsw/cfe-core/src/es/cfe_es_apps.c ****    } /* end if */
 220:/home/simulink/cFS_FreeRTOS_seL4/cfe/fsw/cfe-core/src/es/cfe_es_apps.c ****    
 221:/home/simulink/cFS_FreeRTOS_seL4/cfe/fsw/cfe-core/src/es/cfe_es_apps.c ****    /*
 222:/home/simulink/cFS_FreeRTOS_seL4/cfe/fsw/cfe-core/src/es/cfe_es_apps.c ****    ** This if block covers two cases: A Power on reset, and a Processor reset when
 223:/home/simulink/cFS_FreeRTOS_seL4/cfe/fsw/cfe-core/src/es/cfe_es_apps.c ****    ** the startup file on the volatile file system could not be opened.
 224:/home/simulink/cFS_FreeRTOS_seL4/cfe/fsw/cfe-core/src/es/cfe_es_apps.c ****    */
 225:/home/simulink/cFS_FreeRTOS_seL4/cfe/fsw/cfe-core/src/es/cfe_es_apps.c ****    if ( FileOpened == FALSE )
  98               	.loc 2 225 0
  99 007a 4A2F 008A 	tst.b 138(%sp)
 100 007e 6656      	jne .L6
 226:/home/simulink/cFS_FreeRTOS_seL4/cfe/fsw/cfe-core/src/es/cfe_es_apps.c ****    {
 227:/home/simulink/cFS_FreeRTOS_seL4/cfe/fsw/cfe-core/src/es/cfe_es_apps.c ****       /*
 228:/home/simulink/cFS_FreeRTOS_seL4/cfe/fsw/cfe-core/src/es/cfe_es_apps.c ****       ** Try to Open the file passed in to the cFE start.
 229:/home/simulink/cFS_FreeRTOS_seL4/cfe/fsw/cfe-core/src/es/cfe_es_apps.c ****       */
 230:/home/simulink/cFS_FreeRTOS_seL4/cfe/fsw/cfe-core/src/es/cfe_es_apps.c ****       AppFile = OS_open( (const char *)StartFilePath, O_RDONLY, 0);
 101               	.loc 2 230 0
 102 0080 42A7      	clr.l -(%sp)
 103               	.cfi_def_cfa_offset 156
 104 0082 42A7      	clr.l -(%sp)
 105               	.cfi_def_cfa_offset 160
 106 0084 2F2F 00A4 	move.l 164(%sp),-(%sp)
 107               	.cfi_def_cfa_offset 164
 108 0088 4EB9 0000 	jsr OS_open
 108      0000 
 109 008e 4FEF 000C 	lea (12,%sp),%sp
 110               	.cfi_def_cfa_offset 152
 111 0092 2F40 008C 	move.l %d0,140(%sp)
 231:/home/simulink/cFS_FreeRTOS_seL4/cfe/fsw/cfe-core/src/es/cfe_es_apps.c **** 
 232:/home/simulink/cFS_FreeRTOS_seL4/cfe/fsw/cfe-core/src/es/cfe_es_apps.c ****       if ( AppFile >= 0 )
 112               	.loc 2 232 0
 113 0096 4AAF 008C 	tst.l 140(%sp)
 114 009a 6D1A      	jlt .L7
 233:/home/simulink/cFS_FreeRTOS_seL4/cfe/fsw/cfe-core/src/es/cfe_es_apps.c ****       {
 234:/home/simulink/cFS_FreeRTOS_seL4/cfe/fsw/cfe-core/src/es/cfe_es_apps.c ****          CFE_ES_WriteToSysLog ("ES Startup: Opened ES App Startup file: %s\n",StartFilePath);
 115               	.loc 2 234 0
 116 009c 2F2F 009C 	move.l 156(%sp),-(%sp)
 117               	.cfi_def_cfa_offset 156
 118 00a0 4879 0000 	pea .LC1
 118      0000 
 119               	.cfi_def_cfa_offset 160
 120 00a6 4EB9 0000 	jsr CFE_ES_WriteToSysLog
 120      0000 
 121 00ac 508F      	addq.l #8,%sp
 122               	.cfi_def_cfa_offset 152
 235:/home/simulink/cFS_FreeRTOS_seL4/cfe/fsw/cfe-core/src/es/cfe_es_apps.c ****          FileOpened = TRUE;
 123               	.loc 2 235 0
 124 00ae 7201      	moveq #1,%d1
 125 00b0 1F41 008A 	move.b %d1,138(%sp)
 126 00b4 6020      	jra .L6
 127               	.L7:
 236:/home/simulink/cFS_FreeRTOS_seL4/cfe/fsw/cfe-core/src/es/cfe_es_apps.c ****       }
 237:/home/simulink/cFS_FreeRTOS_seL4/cfe/fsw/cfe-core/src/es/cfe_es_apps.c ****       else 
 238:/home/simulink/cFS_FreeRTOS_seL4/cfe/fsw/cfe-core/src/es/cfe_es_apps.c ****       {
 239:/home/simulink/cFS_FreeRTOS_seL4/cfe/fsw/cfe-core/src/es/cfe_es_apps.c ****          CFE_ES_WriteToSysLog ("ES Startup: Error, Can't Open ES App Startup file: %s EC = 0x%08X\n
 128               	.loc 2 239 0
 129 00b6 202F 008C 	move.l 140(%sp),%d0
68K GAS   			page 16


 130 00ba 2F00      	move.l %d0,-(%sp)
 131               	.cfi_def_cfa_offset 156
 132 00bc 2F2F 00A0 	move.l 160(%sp),-(%sp)
 133               	.cfi_def_cfa_offset 160
 134 00c0 4879 0000 	pea .LC3
 134      0000 
 135               	.cfi_def_cfa_offset 164
 136 00c6 4EB9 0000 	jsr CFE_ES_WriteToSysLog
 136      0000 
 137 00cc 4FEF 000C 	lea (12,%sp),%sp
 138               	.cfi_def_cfa_offset 152
 240:/home/simulink/cFS_FreeRTOS_seL4/cfe/fsw/cfe-core/src/es/cfe_es_apps.c ****                               StartFilePath, (unsigned int)AppFile );
 241:/home/simulink/cFS_FreeRTOS_seL4/cfe/fsw/cfe-core/src/es/cfe_es_apps.c ****          FileOpened = FALSE;
 139               	.loc 2 241 0
 140 00d0 4200      	clr.b %d0
 141 00d2 1F40 008A 	move.b %d0,138(%sp)
 142               	.L6:
 242:/home/simulink/cFS_FreeRTOS_seL4/cfe/fsw/cfe-core/src/es/cfe_es_apps.c ****       }
 243:/home/simulink/cFS_FreeRTOS_seL4/cfe/fsw/cfe-core/src/es/cfe_es_apps.c ****    
 244:/home/simulink/cFS_FreeRTOS_seL4/cfe/fsw/cfe-core/src/es/cfe_es_apps.c ****    }
 245:/home/simulink/cFS_FreeRTOS_seL4/cfe/fsw/cfe-core/src/es/cfe_es_apps.c ****    
 246:/home/simulink/cFS_FreeRTOS_seL4/cfe/fsw/cfe-core/src/es/cfe_es_apps.c ****    /*
 247:/home/simulink/cFS_FreeRTOS_seL4/cfe/fsw/cfe-core/src/es/cfe_es_apps.c ****    ** If the file is opened in either the Nonvolatile or the Volatile disk, process it.
 248:/home/simulink/cFS_FreeRTOS_seL4/cfe/fsw/cfe-core/src/es/cfe_es_apps.c ****    */
 249:/home/simulink/cFS_FreeRTOS_seL4/cfe/fsw/cfe-core/src/es/cfe_es_apps.c ****    if ( FileOpened == TRUE)
 143               	.loc 2 249 0
 144 00d6 4280      	clr.l %d0
 145 00d8 102F 008A 	move.b 138(%sp),%d0
 146 00dc 7201      	moveq #1,%d1
 147 00de B280      	cmp.l %d0,%d1
 148 00e0 6600 014C 	jne .L24
 250:/home/simulink/cFS_FreeRTOS_seL4/cfe/fsw/cfe-core/src/es/cfe_es_apps.c ****    {
 251:/home/simulink/cFS_FreeRTOS_seL4/cfe/fsw/cfe-core/src/es/cfe_es_apps.c ****       memset(ES_AppLoadBuffer,0x0,ES_START_BUFF_SIZE);
 149               	.loc 2 251 0
 150 00e4 4878 0080 	pea 128.w
 151               	.cfi_def_cfa_offset 156
 152 00e8 42A7      	clr.l -(%sp)
 153               	.cfi_def_cfa_offset 160
 154 00ea 200F      	move.l %sp,%d0
 155 00ec 0680 0000 	add.l #12,%d0
 155      000C 
 156 00f2 2F00      	move.l %d0,-(%sp)
 157               	.cfi_def_cfa_offset 164
 158 00f4 4EB9 0000 	jsr memset
 158      0000 
 159 00fa 4FEF 000C 	lea (12,%sp),%sp
 160               	.cfi_def_cfa_offset 152
 252:/home/simulink/cFS_FreeRTOS_seL4/cfe/fsw/cfe-core/src/es/cfe_es_apps.c ****       BuffLen = 0;      
 161               	.loc 2 252 0
 162 00fe 42AF 0090 	clr.l 144(%sp)
 163               	.L23:
 253:/home/simulink/cFS_FreeRTOS_seL4/cfe/fsw/cfe-core/src/es/cfe_es_apps.c ****       
 254:/home/simulink/cFS_FreeRTOS_seL4/cfe/fsw/cfe-core/src/es/cfe_es_apps.c ****       /*
 255:/home/simulink/cFS_FreeRTOS_seL4/cfe/fsw/cfe-core/src/es/cfe_es_apps.c ****       ** Parse the lines from the file. If it has an error
 256:/home/simulink/cFS_FreeRTOS_seL4/cfe/fsw/cfe-core/src/es/cfe_es_apps.c ****       ** or reaches EOF, then abort the loop.
 257:/home/simulink/cFS_FreeRTOS_seL4/cfe/fsw/cfe-core/src/es/cfe_es_apps.c ****       */
 258:/home/simulink/cFS_FreeRTOS_seL4/cfe/fsw/cfe-core/src/es/cfe_es_apps.c ****       while(1)
68K GAS   			page 17


 259:/home/simulink/cFS_FreeRTOS_seL4/cfe/fsw/cfe-core/src/es/cfe_es_apps.c ****       {
 260:/home/simulink/cFS_FreeRTOS_seL4/cfe/fsw/cfe-core/src/es/cfe_es_apps.c ****          ReadStatus = OS_read(AppFile, &c, 1);
 164               	.loc 2 260 0
 165 0102 4878 0001 	pea 1.w
 166               	.cfi_def_cfa_offset 156
 167 0106 200F      	move.l %sp,%d0
 168 0108 5E80      	addq.l #7,%d0
 169 010a 2F00      	move.l %d0,-(%sp)
 170               	.cfi_def_cfa_offset 160
 171 010c 2F2F 0094 	move.l 148(%sp),-(%sp)
 172               	.cfi_def_cfa_offset 164
 173 0110 4EB9 0000 	jsr OS_read
 173      0000 
 174 0116 4FEF 000C 	lea (12,%sp),%sp
 175               	.cfi_def_cfa_offset 152
 176 011a 2F40 0084 	move.l %d0,132(%sp)
 261:/home/simulink/cFS_FreeRTOS_seL4/cfe/fsw/cfe-core/src/es/cfe_es_apps.c ****          if ( ReadStatus == OS_FS_ERROR )
 177               	.loc 2 261 0
 178 011e 70FF      	moveq #-1,%d0
 179 0120 B0AF 0084 	cmp.l 132(%sp),%d0
 180 0124 6618      	jne .L9
 262:/home/simulink/cFS_FreeRTOS_seL4/cfe/fsw/cfe-core/src/es/cfe_es_apps.c ****          {
 263:/home/simulink/cFS_FreeRTOS_seL4/cfe/fsw/cfe-core/src/es/cfe_es_apps.c ****             CFE_ES_WriteToSysLog ("ES Startup: Error Reading Startup file. EC = 0x%08X\n",(unsigned
 181               	.loc 2 263 0
 182 0126 202F 0084 	move.l 132(%sp),%d0
 183 012a 2F00      	move.l %d0,-(%sp)
 184               	.cfi_def_cfa_offset 156
 185 012c 4879 0000 	pea .LC4
 185      0000 
 186               	.cfi_def_cfa_offset 160
 187 0132 4EB9 0000 	jsr CFE_ES_WriteToSysLog
 187      0000 
 188 0138 508F      	addq.l #8,%sp
 189               	.cfi_def_cfa_offset 152
 264:/home/simulink/cFS_FreeRTOS_seL4/cfe/fsw/cfe-core/src/es/cfe_es_apps.c ****             break;
 190               	.loc 2 264 0
 191 013a 6000 00E6 	jra .L10
 192               	.L9:
 265:/home/simulink/cFS_FreeRTOS_seL4/cfe/fsw/cfe-core/src/es/cfe_es_apps.c ****          }
 266:/home/simulink/cFS_FreeRTOS_seL4/cfe/fsw/cfe-core/src/es/cfe_es_apps.c ****          else if ( ReadStatus == 0 )
 193               	.loc 2 266 0
 194 013e 4AAF 0084 	tst.l 132(%sp)
 195 0142 6700 00D8 	jeq .L25
 267:/home/simulink/cFS_FreeRTOS_seL4/cfe/fsw/cfe-core/src/es/cfe_es_apps.c ****          {
 268:/home/simulink/cFS_FreeRTOS_seL4/cfe/fsw/cfe-core/src/es/cfe_es_apps.c ****             /*
 269:/home/simulink/cFS_FreeRTOS_seL4/cfe/fsw/cfe-core/src/es/cfe_es_apps.c ****             ** EOF Reached
 270:/home/simulink/cFS_FreeRTOS_seL4/cfe/fsw/cfe-core/src/es/cfe_es_apps.c ****             */
 271:/home/simulink/cFS_FreeRTOS_seL4/cfe/fsw/cfe-core/src/es/cfe_es_apps.c ****             break;
 272:/home/simulink/cFS_FreeRTOS_seL4/cfe/fsw/cfe-core/src/es/cfe_es_apps.c ****          }
 273:/home/simulink/cFS_FreeRTOS_seL4/cfe/fsw/cfe-core/src/es/cfe_es_apps.c ****          else if(c != '!')
 196               	.loc 2 273 0
 197 0146 102F 0003 	move.b 3(%sp),%d0
 198 014a 49C0      	extb.l %d0
 199 014c 7221      	moveq #33,%d1
 200 014e B280      	cmp.l %d0,%d1
 201 0150 6700 00CE 	jeq .L26
 274:/home/simulink/cFS_FreeRTOS_seL4/cfe/fsw/cfe-core/src/es/cfe_es_apps.c ****          {
68K GAS   			page 18


 275:/home/simulink/cFS_FreeRTOS_seL4/cfe/fsw/cfe-core/src/es/cfe_es_apps.c ****              if ( c <= ' ')
 202               	.loc 2 275 0
 203 0154 102F 0003 	move.b 3(%sp),%d0
 204 0158 49C0      	extb.l %d0
 205 015a 7220      	moveq #32,%d1
 206 015c B280      	cmp.l %d0,%d1
 207 015e 6CA2      	jge .L23
 276:/home/simulink/cFS_FreeRTOS_seL4/cfe/fsw/cfe-core/src/es/cfe_es_apps.c ****              {
 277:/home/simulink/cFS_FreeRTOS_seL4/cfe/fsw/cfe-core/src/es/cfe_es_apps.c ****                 /*
 278:/home/simulink/cFS_FreeRTOS_seL4/cfe/fsw/cfe-core/src/es/cfe_es_apps.c ****                 ** Skip all white space in the file
 279:/home/simulink/cFS_FreeRTOS_seL4/cfe/fsw/cfe-core/src/es/cfe_es_apps.c ****                 */
 280:/home/simulink/cFS_FreeRTOS_seL4/cfe/fsw/cfe-core/src/es/cfe_es_apps.c ****                 ;
 281:/home/simulink/cFS_FreeRTOS_seL4/cfe/fsw/cfe-core/src/es/cfe_es_apps.c ****              }
 282:/home/simulink/cFS_FreeRTOS_seL4/cfe/fsw/cfe-core/src/es/cfe_es_apps.c ****              else if ( c == ',' )
 208               	.loc 2 282 0
 209 0160 102F 0003 	move.b 3(%sp),%d0
 210 0164 49C0      	extb.l %d0
 211 0166 722C      	moveq #44,%d1
 212 0168 B280      	cmp.l %d0,%d1
 213 016a 6626      	jne .L14
 283:/home/simulink/cFS_FreeRTOS_seL4/cfe/fsw/cfe-core/src/es/cfe_es_apps.c ****              {
 284:/home/simulink/cFS_FreeRTOS_seL4/cfe/fsw/cfe-core/src/es/cfe_es_apps.c ****                 /*
 285:/home/simulink/cFS_FreeRTOS_seL4/cfe/fsw/cfe-core/src/es/cfe_es_apps.c ****                 ** replace the field delimiter with a space
 286:/home/simulink/cFS_FreeRTOS_seL4/cfe/fsw/cfe-core/src/es/cfe_es_apps.c ****                 ** This is used for the sscanf string parsing
 287:/home/simulink/cFS_FreeRTOS_seL4/cfe/fsw/cfe-core/src/es/cfe_es_apps.c ****                 */
 288:/home/simulink/cFS_FreeRTOS_seL4/cfe/fsw/cfe-core/src/es/cfe_es_apps.c ****                 if ( BuffLen < ES_START_BUFF_SIZE )
 214               	.loc 2 288 0
 215 016c 707F      	moveq #127,%d0
 216 016e B0AF 0090 	cmp.l 144(%sp),%d0
 217 0172 6510      	jcs .L15
 289:/home/simulink/cFS_FreeRTOS_seL4/cfe/fsw/cfe-core/src/es/cfe_es_apps.c ****                 {
 290:/home/simulink/cFS_FreeRTOS_seL4/cfe/fsw/cfe-core/src/es/cfe_es_apps.c ****                    ES_AppLoadBuffer[BuffLen] = ' ';
 218               	.loc 2 290 0
 219 0174 200F      	move.l %sp,%d0
 220 0176 5880      	addq.l #4,%d0
 221 0178 2040      	move.l %d0,%a0
 222 017a D1EF 0090 	add.l 144(%sp),%a0
 223 017e 10BC 0020 	move.b #32,(%a0)
 224 0182 6006      	jra .L16
 225               	.L15:
 291:/home/simulink/cFS_FreeRTOS_seL4/cfe/fsw/cfe-core/src/es/cfe_es_apps.c ****                 }
 292:/home/simulink/cFS_FreeRTOS_seL4/cfe/fsw/cfe-core/src/es/cfe_es_apps.c ****                 else
 293:/home/simulink/cFS_FreeRTOS_seL4/cfe/fsw/cfe-core/src/es/cfe_es_apps.c ****                 {
 294:/home/simulink/cFS_FreeRTOS_seL4/cfe/fsw/cfe-core/src/es/cfe_es_apps.c ****                    LineTooLong = TRUE;
 226               	.loc 2 294 0
 227 0184 7201      	moveq #1,%d1
 228 0186 1F41 008B 	move.b %d1,139(%sp)
 229               	.L16:
 295:/home/simulink/cFS_FreeRTOS_seL4/cfe/fsw/cfe-core/src/es/cfe_es_apps.c ****                 } 
 296:/home/simulink/cFS_FreeRTOS_seL4/cfe/fsw/cfe-core/src/es/cfe_es_apps.c ****                 BuffLen++;
 230               	.loc 2 296 0
 231 018a 52AF 0090 	addq.l #1,144(%sp)
 232 018e 6000 FF72 	jra .L23
 233               	.L14:
 297:/home/simulink/cFS_FreeRTOS_seL4/cfe/fsw/cfe-core/src/es/cfe_es_apps.c ****              }
 298:/home/simulink/cFS_FreeRTOS_seL4/cfe/fsw/cfe-core/src/es/cfe_es_apps.c ****              else if ( c != ';' )
 234               	.loc 2 298 0
68K GAS   			page 19


 235 0192 102F 0003 	move.b 3(%sp),%d0
 236 0196 49C0      	extb.l %d0
 237 0198 723B      	moveq #59,%d1
 238 019a B280      	cmp.l %d0,%d1
 239 019c 6728      	jeq .L17
 299:/home/simulink/cFS_FreeRTOS_seL4/cfe/fsw/cfe-core/src/es/cfe_es_apps.c ****              {
 300:/home/simulink/cFS_FreeRTOS_seL4/cfe/fsw/cfe-core/src/es/cfe_es_apps.c ****                 /*
 301:/home/simulink/cFS_FreeRTOS_seL4/cfe/fsw/cfe-core/src/es/cfe_es_apps.c ****                 ** Regular data gets copied in
 302:/home/simulink/cFS_FreeRTOS_seL4/cfe/fsw/cfe-core/src/es/cfe_es_apps.c ****                 */
 303:/home/simulink/cFS_FreeRTOS_seL4/cfe/fsw/cfe-core/src/es/cfe_es_apps.c ****                 if ( BuffLen < ES_START_BUFF_SIZE )
 240               	.loc 2 303 0
 241 019e 707F      	moveq #127,%d0
 242 01a0 B0AF 0090 	cmp.l 144(%sp),%d0
 243 01a4 6512      	jcs .L18
 304:/home/simulink/cFS_FreeRTOS_seL4/cfe/fsw/cfe-core/src/es/cfe_es_apps.c ****                 {
 305:/home/simulink/cFS_FreeRTOS_seL4/cfe/fsw/cfe-core/src/es/cfe_es_apps.c ****                    ES_AppLoadBuffer[BuffLen] = c;
 244               	.loc 2 305 0
 245 01a6 122F 0003 	move.b 3(%sp),%d1
 246 01aa 200F      	move.l %sp,%d0
 247 01ac 5880      	addq.l #4,%d0
 248 01ae 2040      	move.l %d0,%a0
 249 01b0 D1EF 0090 	add.l 144(%sp),%a0
 250 01b4 1081      	move.b %d1,(%a0)
 251 01b6 6006      	jra .L19
 252               	.L18:
 306:/home/simulink/cFS_FreeRTOS_seL4/cfe/fsw/cfe-core/src/es/cfe_es_apps.c ****                 }
 307:/home/simulink/cFS_FreeRTOS_seL4/cfe/fsw/cfe-core/src/es/cfe_es_apps.c ****                 else
 308:/home/simulink/cFS_FreeRTOS_seL4/cfe/fsw/cfe-core/src/es/cfe_es_apps.c ****                 {
 309:/home/simulink/cFS_FreeRTOS_seL4/cfe/fsw/cfe-core/src/es/cfe_es_apps.c ****                    LineTooLong = TRUE;
 253               	.loc 2 309 0
 254 01b8 7201      	moveq #1,%d1
 255 01ba 1F41 008B 	move.b %d1,139(%sp)
 256               	.L19:
 310:/home/simulink/cFS_FreeRTOS_seL4/cfe/fsw/cfe-core/src/es/cfe_es_apps.c ****                 }
 311:/home/simulink/cFS_FreeRTOS_seL4/cfe/fsw/cfe-core/src/es/cfe_es_apps.c ****                 BuffLen++;
 257               	.loc 2 311 0
 258 01be 52AF 0090 	addq.l #1,144(%sp)
 259 01c2 6000 FF3E 	jra .L23
 260               	.L17:
 312:/home/simulink/cFS_FreeRTOS_seL4/cfe/fsw/cfe-core/src/es/cfe_es_apps.c ****              }
 313:/home/simulink/cFS_FreeRTOS_seL4/cfe/fsw/cfe-core/src/es/cfe_es_apps.c ****              else
 314:/home/simulink/cFS_FreeRTOS_seL4/cfe/fsw/cfe-core/src/es/cfe_es_apps.c ****              {
 315:/home/simulink/cFS_FreeRTOS_seL4/cfe/fsw/cfe-core/src/es/cfe_es_apps.c ****                 if ( LineTooLong == TRUE )
 261               	.loc 2 315 0
 262 01c6 4280      	clr.l %d0
 263 01c8 102F 008B 	move.b 139(%sp),%d0
 264 01cc 7201      	moveq #1,%d1
 265 01ce B280      	cmp.l %d0,%d1
 266 01d0 661A      	jne .L20
 316:/home/simulink/cFS_FreeRTOS_seL4/cfe/fsw/cfe-core/src/es/cfe_es_apps.c ****                 {   
 317:/home/simulink/cFS_FreeRTOS_seL4/cfe/fsw/cfe-core/src/es/cfe_es_apps.c ****                    /*
 318:/home/simulink/cFS_FreeRTOS_seL4/cfe/fsw/cfe-core/src/es/cfe_es_apps.c ****                    ** The was too big for the buffer
 319:/home/simulink/cFS_FreeRTOS_seL4/cfe/fsw/cfe-core/src/es/cfe_es_apps.c ****                    */
 320:/home/simulink/cFS_FreeRTOS_seL4/cfe/fsw/cfe-core/src/es/cfe_es_apps.c ****                    CFE_ES_WriteToSysLog ("ES Startup: ES Startup File Line is too long: %u bytes.\n
 267               	.loc 2 320 0
 268 01d2 2F2F 0090 	move.l 144(%sp),-(%sp)
 269               	.cfi_def_cfa_offset 156
68K GAS   			page 20


 270 01d6 4879 0000 	pea .LC5
 270      0000 
 271               	.cfi_def_cfa_offset 160
 272 01dc 4EB9 0000 	jsr CFE_ES_WriteToSysLog
 272      0000 
 273 01e2 508F      	addq.l #8,%sp
 274               	.cfi_def_cfa_offset 152
 321:/home/simulink/cFS_FreeRTOS_seL4/cfe/fsw/cfe-core/src/es/cfe_es_apps.c ****                    LineTooLong = FALSE;
 275               	.loc 2 321 0
 276 01e4 4200      	clr.b %d0
 277 01e6 1F40 008B 	move.b %d0,139(%sp)
 278 01ea 600E      	jra .L21
 279               	.L20:
 322:/home/simulink/cFS_FreeRTOS_seL4/cfe/fsw/cfe-core/src/es/cfe_es_apps.c ****                 }
 323:/home/simulink/cFS_FreeRTOS_seL4/cfe/fsw/cfe-core/src/es/cfe_es_apps.c ****                 else
 324:/home/simulink/cFS_FreeRTOS_seL4/cfe/fsw/cfe-core/src/es/cfe_es_apps.c ****                 {
 325:/home/simulink/cFS_FreeRTOS_seL4/cfe/fsw/cfe-core/src/es/cfe_es_apps.c ****                    /*
 326:/home/simulink/cFS_FreeRTOS_seL4/cfe/fsw/cfe-core/src/es/cfe_es_apps.c ****                    ** Send the line to the file parser
 327:/home/simulink/cFS_FreeRTOS_seL4/cfe/fsw/cfe-core/src/es/cfe_es_apps.c ****                    */
 328:/home/simulink/cFS_FreeRTOS_seL4/cfe/fsw/cfe-core/src/es/cfe_es_apps.c ****                    CFE_ES_ParseFileEntry(ES_AppLoadBuffer);
 280               	.loc 2 328 0
 281 01ec 200F      	move.l %sp,%d0
 282 01ee 5880      	addq.l #4,%d0
 283 01f0 2F00      	move.l %d0,-(%sp)
 284               	.cfi_def_cfa_offset 156
 285 01f2 4EB9 0000 	jsr CFE_ES_ParseFileEntry
 285      0000 
 286 01f8 588F      	addq.l #4,%sp
 287               	.cfi_def_cfa_offset 152
 288               	.L21:
 329:/home/simulink/cFS_FreeRTOS_seL4/cfe/fsw/cfe-core/src/es/cfe_es_apps.c ****                 }
 330:/home/simulink/cFS_FreeRTOS_seL4/cfe/fsw/cfe-core/src/es/cfe_es_apps.c ****                 memset(ES_AppLoadBuffer,0x0,ES_START_BUFF_SIZE);
 289               	.loc 2 330 0
 290 01fa 4878 0080 	pea 128.w
 291               	.cfi_def_cfa_offset 156
 292 01fe 42A7      	clr.l -(%sp)
 293               	.cfi_def_cfa_offset 160
 294 0200 200F      	move.l %sp,%d0
 295 0202 0680 0000 	add.l #12,%d0
 295      000C 
 296 0208 2F00      	move.l %d0,-(%sp)
 297               	.cfi_def_cfa_offset 164
 298 020a 4EB9 0000 	jsr memset
 298      0000 
 299 0210 4FEF 000C 	lea (12,%sp),%sp
 300               	.cfi_def_cfa_offset 152
 331:/home/simulink/cFS_FreeRTOS_seL4/cfe/fsw/cfe-core/src/es/cfe_es_apps.c ****                 BuffLen = 0;
 301               	.loc 2 331 0
 302 0214 42AF 0090 	clr.l 144(%sp)
 260:/home/simulink/cFS_FreeRTOS_seL4/cfe/fsw/cfe-core/src/es/cfe_es_apps.c ****          if ( ReadStatus == OS_FS_ERROR )
 303               	.loc 2 260 0
 304 0218 6000 FEE8 	jra .L23
 305               	.L25:
 271:/home/simulink/cFS_FreeRTOS_seL4/cfe/fsw/cfe-core/src/es/cfe_es_apps.c ****          }
 306               	.loc 2 271 0
 307 021c 4E71      	nop
 308 021e 6002      	jra .L10
68K GAS   			page 21


 309               	.L26:
 332:/home/simulink/cFS_FreeRTOS_seL4/cfe/fsw/cfe-core/src/es/cfe_es_apps.c ****              }
 333:/home/simulink/cFS_FreeRTOS_seL4/cfe/fsw/cfe-core/src/es/cfe_es_apps.c ****          }
 334:/home/simulink/cFS_FreeRTOS_seL4/cfe/fsw/cfe-core/src/es/cfe_es_apps.c ****          else
 335:/home/simulink/cFS_FreeRTOS_seL4/cfe/fsw/cfe-core/src/es/cfe_es_apps.c ****          {
 336:/home/simulink/cFS_FreeRTOS_seL4/cfe/fsw/cfe-core/src/es/cfe_es_apps.c ****            /*
 337:/home/simulink/cFS_FreeRTOS_seL4/cfe/fsw/cfe-core/src/es/cfe_es_apps.c ****            ** break when EOF character '!' is reached
 338:/home/simulink/cFS_FreeRTOS_seL4/cfe/fsw/cfe-core/src/es/cfe_es_apps.c ****            */
 339:/home/simulink/cFS_FreeRTOS_seL4/cfe/fsw/cfe-core/src/es/cfe_es_apps.c ****            break;
 310               	.loc 2 339 0
 311 0220 4E71      	nop
 312               	.L10:
 340:/home/simulink/cFS_FreeRTOS_seL4/cfe/fsw/cfe-core/src/es/cfe_es_apps.c ****          }
 341:/home/simulink/cFS_FreeRTOS_seL4/cfe/fsw/cfe-core/src/es/cfe_es_apps.c ****       }
 342:/home/simulink/cFS_FreeRTOS_seL4/cfe/fsw/cfe-core/src/es/cfe_es_apps.c ****       /*
 343:/home/simulink/cFS_FreeRTOS_seL4/cfe/fsw/cfe-core/src/es/cfe_es_apps.c ****       ** close the file
 344:/home/simulink/cFS_FreeRTOS_seL4/cfe/fsw/cfe-core/src/es/cfe_es_apps.c ****       */
 345:/home/simulink/cFS_FreeRTOS_seL4/cfe/fsw/cfe-core/src/es/cfe_es_apps.c ****       OS_close(AppFile);
 313               	.loc 2 345 0
 314 0222 2F2F 008C 	move.l 140(%sp),-(%sp)
 315               	.cfi_def_cfa_offset 156
 316 0226 4EB9 0000 	jsr OS_close
 316      0000 
 317 022c 588F      	addq.l #4,%sp
 318               	.cfi_def_cfa_offset 152
 319               	.L24:
 346:/home/simulink/cFS_FreeRTOS_seL4/cfe/fsw/cfe-core/src/es/cfe_es_apps.c ****        
 347:/home/simulink/cFS_FreeRTOS_seL4/cfe/fsw/cfe-core/src/es/cfe_es_apps.c ****    }
 348:/home/simulink/cFS_FreeRTOS_seL4/cfe/fsw/cfe-core/src/es/cfe_es_apps.c **** }
 320               	.loc 2 348 0
 321 022e 4E71      	nop
 322 0230 4FEF 0094 	lea (148,%sp),%sp
 323 0234 4E75      	rts
 324               	.cfi_endproc
 325               	.LFE59:
 326               	.sizeCFE_ES_StartApplications, .-CFE_ES_StartApplications
 327               	.section.rodata
 328               	.LC6:
 329 013e 2573 2025 	.string"%s %s %s %s %u %u %x %u"
 329      7320 2573 
 329      2025 7320 
 329      2575 2025 
 329      7520 2578 
 330               	.LC7:
 331 0156 4553 2053 	.string"ES Startup: Invalid ES Startup file entry: %d\n"
 331      7461 7274 
 331      7570 3A20 
 331      496E 7661 
 331      6C69 6420 
 332               	.LC8:
 333 0185 4346 455F 	.string"CFE_APP"
 333      4150 5000 
 334               	.LC9:
 335 018d 4553 2053 	.string"ES Startup: Loading file: %s, APP: %s\n"
 335      7461 7274 
 335      7570 3A20 
 335      4C6F 6164 
68K GAS   			page 22


 335      696E 6720 
 336               	.LC10:
 337 01b4 4346 455F 	.string"CFE_LIB"
 337      4C49 4200 
 338               	.LC11:
 339 01bc 4553 2053 	.string"ES Startup: Loading shared library: %s\n"
 339      7461 7274 
 339      7570 3A20 
 339      4C6F 6164 
 339      696E 6720 
 340               	.LC12:
 341 01e4 4346 455F 	.string"CFE_DRV"
 341      4452 5600 
 342               	.LC13:
 343 01ec 4553 2053 	.string"ES Startup: Device Drivers not yet implemented. %s\n"
 343      7461 7274 
 343      7570 3A20 
 343      4465 7669 
 343      6365 2044 
 344               	.LC14:
 345 0220 4553 2053 	.string"ES Startup: Unexpected EntryType %s in startup file.\n"
 345      7461 7274 
 345      7570 3A20 
 345      556E 6578 
 345      7065 6374 
 346               	.text
 347               	.align2
 348               	.globlCFE_ES_ParseFileEntry
 349               	.typeCFE_ES_ParseFileEntry, @function
 350               	CFE_ES_ParseFileEntry:
 351               	.LFB60:
 349:/home/simulink/cFS_FreeRTOS_seL4/cfe/fsw/cfe-core/src/es/cfe_es_apps.c **** 
 350:/home/simulink/cFS_FreeRTOS_seL4/cfe/fsw/cfe-core/src/es/cfe_es_apps.c **** /*
 351:/home/simulink/cFS_FreeRTOS_seL4/cfe/fsw/cfe-core/src/es/cfe_es_apps.c **** **---------------------------------------------------------------------------------------
 352:/home/simulink/cFS_FreeRTOS_seL4/cfe/fsw/cfe-core/src/es/cfe_es_apps.c **** ** Name: CFE_ES_ParseFileEntry
 353:/home/simulink/cFS_FreeRTOS_seL4/cfe/fsw/cfe-core/src/es/cfe_es_apps.c **** **
 354:/home/simulink/cFS_FreeRTOS_seL4/cfe/fsw/cfe-core/src/es/cfe_es_apps.c **** **   Purpose: This function parses the startup file line for an individual
 355:/home/simulink/cFS_FreeRTOS_seL4/cfe/fsw/cfe-core/src/es/cfe_es_apps.c **** **            cFE application.
 356:/home/simulink/cFS_FreeRTOS_seL4/cfe/fsw/cfe-core/src/es/cfe_es_apps.c **** **---------------------------------------------------------------------------------------
 357:/home/simulink/cFS_FreeRTOS_seL4/cfe/fsw/cfe-core/src/es/cfe_es_apps.c **** */
 358:/home/simulink/cFS_FreeRTOS_seL4/cfe/fsw/cfe-core/src/es/cfe_es_apps.c **** int32 CFE_ES_ParseFileEntry(const char *FileEntry)
 359:/home/simulink/cFS_FreeRTOS_seL4/cfe/fsw/cfe-core/src/es/cfe_es_apps.c **** {
 352               	.loc 2 359 0
 353               	.cfi_startproc
 354 0236 4FEF FF68 	lea (-152,%sp),%sp
 355               	.cfi_def_cfa_offset 156
 360:/home/simulink/cFS_FreeRTOS_seL4/cfe/fsw/cfe-core/src/es/cfe_es_apps.c ****    char   FileName[OS_MAX_PATH_LEN];
 361:/home/simulink/cFS_FreeRTOS_seL4/cfe/fsw/cfe-core/src/es/cfe_es_apps.c ****    char   AppName[OS_MAX_API_NAME];
 362:/home/simulink/cFS_FreeRTOS_seL4/cfe/fsw/cfe-core/src/es/cfe_es_apps.c ****    char   EntryPoint[OS_MAX_API_NAME];
 363:/home/simulink/cFS_FreeRTOS_seL4/cfe/fsw/cfe-core/src/es/cfe_es_apps.c ****    char   EntryType[OS_MAX_API_NAME];
 364:/home/simulink/cFS_FreeRTOS_seL4/cfe/fsw/cfe-core/src/es/cfe_es_apps.c ****    int    ScanfStatus;
 365:/home/simulink/cFS_FreeRTOS_seL4/cfe/fsw/cfe-core/src/es/cfe_es_apps.c ****    unsigned int Priority;
 366:/home/simulink/cFS_FreeRTOS_seL4/cfe/fsw/cfe-core/src/es/cfe_es_apps.c ****    unsigned int StackSize;
 367:/home/simulink/cFS_FreeRTOS_seL4/cfe/fsw/cfe-core/src/es/cfe_es_apps.c ****    unsigned int Unused;
 368:/home/simulink/cFS_FreeRTOS_seL4/cfe/fsw/cfe-core/src/es/cfe_es_apps.c ****    unsigned int ExceptionAction;
 369:/home/simulink/cFS_FreeRTOS_seL4/cfe/fsw/cfe-core/src/es/cfe_es_apps.c ****    uint32 ApplicationId;
 370:/home/simulink/cFS_FreeRTOS_seL4/cfe/fsw/cfe-core/src/es/cfe_es_apps.c ****    int32  CreateStatus = CFE_ES_ERR_APP_CREATE;
68K GAS   			page 23


 356               	.loc 2 370 0
 357 023a 203C C400 	move.l #-1006632956,%d0
 357      0004 
 358 0240 2F40 0094 	move.l %d0,148(%sp)
 371:/home/simulink/cFS_FreeRTOS_seL4/cfe/fsw/cfe-core/src/es/cfe_es_apps.c **** 
 372:/home/simulink/cFS_FreeRTOS_seL4/cfe/fsw/cfe-core/src/es/cfe_es_apps.c ****    /*
 373:/home/simulink/cFS_FreeRTOS_seL4/cfe/fsw/cfe-core/src/es/cfe_es_apps.c ****    ** Use sscanf to parse the string.
 374:/home/simulink/cFS_FreeRTOS_seL4/cfe/fsw/cfe-core/src/es/cfe_es_apps.c ****    ** When this routine is called, the buffer is already verified to be less than the 
 375:/home/simulink/cFS_FreeRTOS_seL4/cfe/fsw/cfe-core/src/es/cfe_es_apps.c ****    ** maximum size, and the parameters have been separated by a single space each.
 376:/home/simulink/cFS_FreeRTOS_seL4/cfe/fsw/cfe-core/src/es/cfe_es_apps.c ****    ** If the sscanf fails, then it is a malformed file entry.  
 377:/home/simulink/cFS_FreeRTOS_seL4/cfe/fsw/cfe-core/src/es/cfe_es_apps.c ****    **
 378:/home/simulink/cFS_FreeRTOS_seL4/cfe/fsw/cfe-core/src/es/cfe_es_apps.c ****    ** CFS CCB is tracking this issue separately, and we no longer need
 379:/home/simulink/cFS_FreeRTOS_seL4/cfe/fsw/cfe-core/src/es/cfe_es_apps.c ****    ** warnings from cppcheck about this call.
 380:/home/simulink/cFS_FreeRTOS_seL4/cfe/fsw/cfe-core/src/es/cfe_es_apps.c ****    */
 381:/home/simulink/cFS_FreeRTOS_seL4/cfe/fsw/cfe-core/src/es/cfe_es_apps.c ****    /* cppcheck-suppress invalidscanf */
 382:/home/simulink/cFS_FreeRTOS_seL4/cfe/fsw/cfe-core/src/es/cfe_es_apps.c ****    ScanfStatus = sscanf(FileEntry,"%s %s %s %s %u %u %x %u",
 359               	.loc 2 382 0
 360 0244 200F      	move.l %sp,%d0
 361 0246 5880      	addq.l #4,%d0
 362 0248 2F00      	move.l %d0,-(%sp)
 363               	.cfi_def_cfa_offset 160
 364 024a 200F      	move.l %sp,%d0
 365 024c 0680 0000 	add.l #12,%d0
 365      000C 
 366 0252 2F00      	move.l %d0,-(%sp)
 367               	.cfi_def_cfa_offset 164
 368 0254 200F      	move.l %sp,%d0
 369 0256 0680 0000 	add.l #20,%d0
 369      0014 
 370 025c 2F00      	move.l %d0,-(%sp)
 371               	.cfi_def_cfa_offset 168
 372 025e 200F      	move.l %sp,%d0
 373 0260 0680 0000 	add.l #28,%d0
 373      001C 
 374 0266 2F00      	move.l %d0,-(%sp)
 375               	.cfi_def_cfa_offset 172
 376 0268 200F      	move.l %sp,%d0
 377 026a 0680 0000 	add.l #76,%d0
 377      004C 
 378 0270 2F00      	move.l %d0,-(%sp)
 379               	.cfi_def_cfa_offset 176
 380 0272 200F      	move.l %sp,%d0
 381 0274 0680 0000 	add.l #60,%d0
 381      003C 
 382 027a 2F00      	move.l %d0,-(%sp)
 383               	.cfi_def_cfa_offset 180
 384 027c 200F      	move.l %sp,%d0
 385 027e 0680 0000 	add.l #104,%d0
 385      0068 
 386 0284 2F00      	move.l %d0,-(%sp)
 387               	.cfi_def_cfa_offset 184
 388 0286 200F      	move.l %sp,%d0
 389 0288 0680 0000 	add.l #48,%d0
 389      0030 
 390 028e 2F00      	move.l %d0,-(%sp)
 391               	.cfi_def_cfa_offset 188
 392 0290 4879 0000 	pea .LC6
68K GAS   			page 24


 392      0000 
 393               	.cfi_def_cfa_offset 192
 394 0296 2F2F 00C0 	move.l 192(%sp),-(%sp)
 395               	.cfi_def_cfa_offset 196
 396 029a 4EB9 0000 	jsr sscanf
 396      0000 
 397 02a0 4FEF 0028 	lea (40,%sp),%sp
 398               	.cfi_def_cfa_offset 156
 399 02a4 2F40 0090 	move.l %d0,144(%sp)
 383:/home/simulink/cFS_FreeRTOS_seL4/cfe/fsw/cfe-core/src/es/cfe_es_apps.c ****                         EntryType, FileName, EntryPoint, AppName, 
 384:/home/simulink/cFS_FreeRTOS_seL4/cfe/fsw/cfe-core/src/es/cfe_es_apps.c ****                         &Priority, &StackSize, &Unused, &ExceptionAction);
 385:/home/simulink/cFS_FreeRTOS_seL4/cfe/fsw/cfe-core/src/es/cfe_es_apps.c **** 
 386:/home/simulink/cFS_FreeRTOS_seL4/cfe/fsw/cfe-core/src/es/cfe_es_apps.c ****    /*
 387:/home/simulink/cFS_FreeRTOS_seL4/cfe/fsw/cfe-core/src/es/cfe_es_apps.c ****    ** Check to see if the correct number of items were parsed
 388:/home/simulink/cFS_FreeRTOS_seL4/cfe/fsw/cfe-core/src/es/cfe_es_apps.c ****    */
 389:/home/simulink/cFS_FreeRTOS_seL4/cfe/fsw/cfe-core/src/es/cfe_es_apps.c ****    if ( ScanfStatus != 8 )
 400               	.loc 2 389 0
 401 02a8 7008      	moveq #8,%d0
 402 02aa B0AF 0090 	cmp.l 144(%sp),%d0
 403 02ae 671A      	jeq .L28
 390:/home/simulink/cFS_FreeRTOS_seL4/cfe/fsw/cfe-core/src/es/cfe_es_apps.c ****    {
 391:/home/simulink/cFS_FreeRTOS_seL4/cfe/fsw/cfe-core/src/es/cfe_es_apps.c ****       CFE_ES_WriteToSysLog("ES Startup: Invalid ES Startup file entry: %d\n",ScanfStatus);
 404               	.loc 2 391 0
 405 02b0 2F2F 0090 	move.l 144(%sp),-(%sp)
 406               	.cfi_def_cfa_offset 160
 407 02b4 4879 0000 	pea .LC7
 407      0000 
 408               	.cfi_def_cfa_offset 164
 409 02ba 4EB9 0000 	jsr CFE_ES_WriteToSysLog
 409      0000 
 410 02c0 508F      	addq.l #8,%sp
 411               	.cfi_def_cfa_offset 156
 392:/home/simulink/cFS_FreeRTOS_seL4/cfe/fsw/cfe-core/src/es/cfe_es_apps.c ****       return (CreateStatus);
 412               	.loc 2 392 0
 413 02c2 202F 0094 	move.l 148(%sp),%d0
 414 02c6 6000 016C 	jra .L35
 415               	.L28:
 393:/home/simulink/cFS_FreeRTOS_seL4/cfe/fsw/cfe-core/src/es/cfe_es_apps.c ****    }
 394:/home/simulink/cFS_FreeRTOS_seL4/cfe/fsw/cfe-core/src/es/cfe_es_apps.c ****      
 395:/home/simulink/cFS_FreeRTOS_seL4/cfe/fsw/cfe-core/src/es/cfe_es_apps.c ****    if(strncmp(EntryType,"CFE_APP",OS_MAX_API_NAME)==0)
 416               	.loc 2 395 0
 417 02ca 4878 0014 	pea 20.w
 418               	.cfi_def_cfa_offset 160
 419 02ce 4879 0000 	pea .LC8
 419      0000 
 420               	.cfi_def_cfa_offset 164
 421 02d4 200F      	move.l %sp,%d0
 422 02d6 0680 0000 	add.l #28,%d0
 422      001C 
 423 02dc 2F00      	move.l %d0,-(%sp)
 424               	.cfi_def_cfa_offset 168
 425 02de 4EB9 0000 	jsr strncmp
 425      0000 
 426 02e4 4FEF 000C 	lea (12,%sp),%sp
 427               	.cfi_def_cfa_offset 156
 428 02e8 4A80      	tst.l %d0
 429 02ea 667E      	jne .L30
68K GAS   			page 25


 396:/home/simulink/cFS_FreeRTOS_seL4/cfe/fsw/cfe-core/src/es/cfe_es_apps.c ****    {
 397:/home/simulink/cFS_FreeRTOS_seL4/cfe/fsw/cfe-core/src/es/cfe_es_apps.c ****       CFE_ES_WriteToSysLog("ES Startup: Loading file: %s, APP: %s\n",
 430               	.loc 2 397 0
 431 02ec 200F      	move.l %sp,%d0
 432 02ee 0680 0000 	add.l #60,%d0
 432      003C 
 433 02f4 2F00      	move.l %d0,-(%sp)
 434               	.cfi_def_cfa_offset 160
 435 02f6 200F      	move.l %sp,%d0
 436 02f8 0680 0000 	add.l #84,%d0
 436      0054 
 437 02fe 2F00      	move.l %d0,-(%sp)
 438               	.cfi_def_cfa_offset 164
 439 0300 4879 0000 	pea .LC9
 439      0000 
 440               	.cfi_def_cfa_offset 168
 441 0306 4EB9 0000 	jsr CFE_ES_WriteToSysLog
 441      0000 
 442 030c 4FEF 000C 	lea (12,%sp),%sp
 443               	.cfi_def_cfa_offset 156
 398:/home/simulink/cFS_FreeRTOS_seL4/cfe/fsw/cfe-core/src/es/cfe_es_apps.c ****                             FileName, AppName);
 399:/home/simulink/cFS_FreeRTOS_seL4/cfe/fsw/cfe-core/src/es/cfe_es_apps.c ****       
 400:/home/simulink/cFS_FreeRTOS_seL4/cfe/fsw/cfe-core/src/es/cfe_es_apps.c ****       /*
 401:/home/simulink/cFS_FreeRTOS_seL4/cfe/fsw/cfe-core/src/es/cfe_es_apps.c ****       ** Validate Some parameters
 402:/home/simulink/cFS_FreeRTOS_seL4/cfe/fsw/cfe-core/src/es/cfe_es_apps.c ****       ** Exception action should be 0 ( Restart App ) or
 403:/home/simulink/cFS_FreeRTOS_seL4/cfe/fsw/cfe-core/src/es/cfe_es_apps.c ****       ** 1 ( Processor reset ). If it's non-zero, assume it means
 404:/home/simulink/cFS_FreeRTOS_seL4/cfe/fsw/cfe-core/src/es/cfe_es_apps.c ****       ** reset CPU.
 405:/home/simulink/cFS_FreeRTOS_seL4/cfe/fsw/cfe-core/src/es/cfe_es_apps.c ****       */
 406:/home/simulink/cFS_FreeRTOS_seL4/cfe/fsw/cfe-core/src/es/cfe_es_apps.c ****       if ( ExceptionAction > CFE_ES_APP_EXCEPTION_RESTART_APP ) 
 444               	.loc 2 406 0
 445 0310 202F 0004 	move.l 4(%sp),%d0
 446 0314 4A80      	tst.l %d0
 447 0316 6706      	jeq .L31
 407:/home/simulink/cFS_FreeRTOS_seL4/cfe/fsw/cfe-core/src/es/cfe_es_apps.c ****           ExceptionAction = CFE_ES_APP_EXCEPTION_PROC_RESTART;
 448               	.loc 2 407 0
 449 0318 7001      	moveq #1,%d0
 450 031a 2F40 0004 	move.l %d0,4(%sp)
 451               	.L31:
 408:/home/simulink/cFS_FreeRTOS_seL4/cfe/fsw/cfe-core/src/es/cfe_es_apps.c ****       /*
 409:/home/simulink/cFS_FreeRTOS_seL4/cfe/fsw/cfe-core/src/es/cfe_es_apps.c ****       ** Now create the application 
 410:/home/simulink/cFS_FreeRTOS_seL4/cfe/fsw/cfe-core/src/es/cfe_es_apps.c ****       */
 411:/home/simulink/cFS_FreeRTOS_seL4/cfe/fsw/cfe-core/src/es/cfe_es_apps.c ****       CreateStatus = CFE_ES_AppCreate(&ApplicationId, FileName, 
 452               	.loc 2 411 0
 453 031e 206F 0004 	move.l 4(%sp),%a0
 454 0322 222F 000C 	move.l 12(%sp),%d1
 455 0326 202F 0010 	move.l 16(%sp),%d0
 456 032a 2F08      	move.l %a0,-(%sp)
 457               	.cfi_def_cfa_offset 160
 458 032c 2F01      	move.l %d1,-(%sp)
 459               	.cfi_def_cfa_offset 164
 460 032e 2F00      	move.l %d0,-(%sp)
 461               	.cfi_def_cfa_offset 168
 462 0330 200F      	move.l %sp,%d0
 463 0332 0680 0000 	add.l #72,%d0
 463      0048 
 464 0338 2F00      	move.l %d0,-(%sp)
 465               	.cfi_def_cfa_offset 172
68K GAS   			page 26


 466 033a 200F      	move.l %sp,%d0
 467 033c 0680 0000 	add.l #56,%d0
 467      0038 
 468 0342 2F00      	move.l %d0,-(%sp)
 469               	.cfi_def_cfa_offset 176
 470 0344 200F      	move.l %sp,%d0
 471 0346 0680 0000 	add.l #100,%d0
 471      0064 
 472 034c 2F00      	move.l %d0,-(%sp)
 473               	.cfi_def_cfa_offset 180
 474 034e 200F      	move.l %sp,%d0
 475 0350 0680 0000 	add.l #24,%d0
 475      0018 
 476 0356 2F00      	move.l %d0,-(%sp)
 477               	.cfi_def_cfa_offset 184
 478 0358 4EB9 0000 	jsr CFE_ES_AppCreate
 478      0000 
 479 035e 4FEF 001C 	lea (28,%sp),%sp
 480               	.cfi_def_cfa_offset 156
 481 0362 2F40 0094 	move.l %d0,148(%sp)
 482 0366 6000 00C8 	jra .L32
 483               	.L30:
 412:/home/simulink/cFS_FreeRTOS_seL4/cfe/fsw/cfe-core/src/es/cfe_es_apps.c ****                                EntryPoint, AppName, (uint32) Priority, 
 413:/home/simulink/cFS_FreeRTOS_seL4/cfe/fsw/cfe-core/src/es/cfe_es_apps.c ****                                (uint32) StackSize, (uint32) ExceptionAction );
 414:/home/simulink/cFS_FreeRTOS_seL4/cfe/fsw/cfe-core/src/es/cfe_es_apps.c ****    }
 415:/home/simulink/cFS_FreeRTOS_seL4/cfe/fsw/cfe-core/src/es/cfe_es_apps.c ****    else if(strncmp(EntryType,"CFE_LIB",OS_MAX_API_NAME)==0)
 484               	.loc 2 415 0
 485 036a 4878 0014 	pea 20.w
 486               	.cfi_def_cfa_offset 160
 487 036e 4879 0000 	pea .LC10
 487      0000 
 488               	.cfi_def_cfa_offset 164
 489 0374 200F      	move.l %sp,%d0
 490 0376 0680 0000 	add.l #28,%d0
 490      001C 
 491 037c 2F00      	move.l %d0,-(%sp)
 492               	.cfi_def_cfa_offset 168
 493 037e 4EB9 0000 	jsr strncmp
 493      0000 
 494 0384 4FEF 000C 	lea (12,%sp),%sp
 495               	.cfi_def_cfa_offset 156
 496 0388 4A80      	tst.l %d0
 497 038a 6650      	jne .L33
 416:/home/simulink/cFS_FreeRTOS_seL4/cfe/fsw/cfe-core/src/es/cfe_es_apps.c ****    {            
 417:/home/simulink/cFS_FreeRTOS_seL4/cfe/fsw/cfe-core/src/es/cfe_es_apps.c ****       CFE_ES_WriteToSysLog("ES Startup: Loading shared library: %s\n",FileName);
 498               	.loc 2 417 0
 499 038c 200F      	move.l %sp,%d0
 500 038e 0680 0000 	add.l #80,%d0
 500      0050 
 501 0394 2F00      	move.l %d0,-(%sp)
 502               	.cfi_def_cfa_offset 160
 503 0396 4879 0000 	pea .LC11
 503      0000 
 504               	.cfi_def_cfa_offset 164
 505 039c 4EB9 0000 	jsr CFE_ES_WriteToSysLog
 505      0000 
 506 03a2 508F      	addq.l #8,%sp
68K GAS   			page 27


 507               	.cfi_def_cfa_offset 156
 418:/home/simulink/cFS_FreeRTOS_seL4/cfe/fsw/cfe-core/src/es/cfe_es_apps.c ****                                                              
 419:/home/simulink/cFS_FreeRTOS_seL4/cfe/fsw/cfe-core/src/es/cfe_es_apps.c ****       /*
 420:/home/simulink/cFS_FreeRTOS_seL4/cfe/fsw/cfe-core/src/es/cfe_es_apps.c ****       ** Now load the library
 421:/home/simulink/cFS_FreeRTOS_seL4/cfe/fsw/cfe-core/src/es/cfe_es_apps.c ****       */
 422:/home/simulink/cFS_FreeRTOS_seL4/cfe/fsw/cfe-core/src/es/cfe_es_apps.c ****       CreateStatus = CFE_ES_LoadLibrary(&ApplicationId, FileName, 
 508               	.loc 2 422 0
 509 03a4 200F      	move.l %sp,%d0
 510 03a6 0680 0000 	add.l #60,%d0
 510      003C 
 511 03ac 2F00      	move.l %d0,-(%sp)
 512               	.cfi_def_cfa_offset 160
 513 03ae 200F      	move.l %sp,%d0
 514 03b0 0680 0000 	add.l #44,%d0
 514      002C 
 515 03b6 2F00      	move.l %d0,-(%sp)
 516               	.cfi_def_cfa_offset 164
 517 03b8 200F      	move.l %sp,%d0
 518 03ba 0680 0000 	add.l #88,%d0
 518      0058 
 519 03c0 2F00      	move.l %d0,-(%sp)
 520               	.cfi_def_cfa_offset 168
 521 03c2 200F      	move.l %sp,%d0
 522 03c4 0680 0000 	add.l #12,%d0
 522      000C 
 523 03ca 2F00      	move.l %d0,-(%sp)
 524               	.cfi_def_cfa_offset 172
 525 03cc 4EB9 0000 	jsr CFE_ES_LoadLibrary
 525      0000 
 526 03d2 4FEF 0010 	lea (16,%sp),%sp
 527               	.cfi_def_cfa_offset 156
 528 03d6 2F40 0094 	move.l %d0,148(%sp)
 529 03da 6054      	jra .L32
 530               	.L33:
 423:/home/simulink/cFS_FreeRTOS_seL4/cfe/fsw/cfe-core/src/es/cfe_es_apps.c ****                                EntryPoint, AppName);
 424:/home/simulink/cFS_FreeRTOS_seL4/cfe/fsw/cfe-core/src/es/cfe_es_apps.c **** 
 425:/home/simulink/cFS_FreeRTOS_seL4/cfe/fsw/cfe-core/src/es/cfe_es_apps.c ****    }
 426:/home/simulink/cFS_FreeRTOS_seL4/cfe/fsw/cfe-core/src/es/cfe_es_apps.c ****    else if(strncmp(EntryType,"CFE_DRV",OS_MAX_API_NAME)==0)
 531               	.loc 2 426 0
 532 03dc 4878 0014 	pea 20.w
 533               	.cfi_def_cfa_offset 160
 534 03e0 4879 0000 	pea .LC12
 534      0000 
 535               	.cfi_def_cfa_offset 164
 536 03e6 200F      	move.l %sp,%d0
 537 03e8 0680 0000 	add.l #28,%d0
 537      001C 
 538 03ee 2F00      	move.l %d0,-(%sp)
 539               	.cfi_def_cfa_offset 168
 540 03f0 4EB9 0000 	jsr strncmp
 540      0000 
 541 03f6 4FEF 000C 	lea (12,%sp),%sp
 542               	.cfi_def_cfa_offset 156
 543 03fa 4A80      	tst.l %d0
 544 03fc 661A      	jne .L34
 427:/home/simulink/cFS_FreeRTOS_seL4/cfe/fsw/cfe-core/src/es/cfe_es_apps.c ****    { 
 428:/home/simulink/cFS_FreeRTOS_seL4/cfe/fsw/cfe-core/src/es/cfe_es_apps.c ****       CFE_ES_WriteToSysLog("ES Startup: Device Drivers not yet implemented. %s\n",FileName);
68K GAS   			page 28


 545               	.loc 2 428 0
 546 03fe 200F      	move.l %sp,%d0
 547 0400 0680 0000 	add.l #80,%d0
 547      0050 
 548 0406 2F00      	move.l %d0,-(%sp)
 549               	.cfi_def_cfa_offset 160
 550 0408 4879 0000 	pea .LC13
 550      0000 
 551               	.cfi_def_cfa_offset 164
 552 040e 4EB9 0000 	jsr CFE_ES_WriteToSysLog
 552      0000 
 553 0414 508F      	addq.l #8,%sp
 554               	.cfi_def_cfa_offset 156
 555 0416 6018      	jra .L32
 556               	.L34:
 429:/home/simulink/cFS_FreeRTOS_seL4/cfe/fsw/cfe-core/src/es/cfe_es_apps.c ****    }
 430:/home/simulink/cFS_FreeRTOS_seL4/cfe/fsw/cfe-core/src/es/cfe_es_apps.c ****    else
 431:/home/simulink/cFS_FreeRTOS_seL4/cfe/fsw/cfe-core/src/es/cfe_es_apps.c ****    {
 432:/home/simulink/cFS_FreeRTOS_seL4/cfe/fsw/cfe-core/src/es/cfe_es_apps.c ****       CFE_ES_WriteToSysLog("ES Startup: Unexpected EntryType %s in startup file.\n",EntryType);
 557               	.loc 2 432 0
 558 0418 200F      	move.l %sp,%d0
 559 041a 0680 0000 	add.l #20,%d0
 559      0014 
 560 0420 2F00      	move.l %d0,-(%sp)
 561               	.cfi_def_cfa_offset 160
 562 0422 4879 0000 	pea .LC14
 562      0000 
 563               	.cfi_def_cfa_offset 164
 564 0428 4EB9 0000 	jsr CFE_ES_WriteToSysLog
 564      0000 
 565 042e 508F      	addq.l #8,%sp
 566               	.cfi_def_cfa_offset 156
 567               	.L32:
 433:/home/simulink/cFS_FreeRTOS_seL4/cfe/fsw/cfe-core/src/es/cfe_es_apps.c ****    }
 434:/home/simulink/cFS_FreeRTOS_seL4/cfe/fsw/cfe-core/src/es/cfe_es_apps.c **** 
 435:/home/simulink/cFS_FreeRTOS_seL4/cfe/fsw/cfe-core/src/es/cfe_es_apps.c ****    return (CreateStatus);
 568               	.loc 2 435 0
 569 0430 202F 0094 	move.l 148(%sp),%d0
 570               	.L35:
 436:/home/simulink/cFS_FreeRTOS_seL4/cfe/fsw/cfe-core/src/es/cfe_es_apps.c **** 
 437:/home/simulink/cFS_FreeRTOS_seL4/cfe/fsw/cfe-core/src/es/cfe_es_apps.c **** }
 571               	.loc 2 437 0 discriminator 1
 572 0434 4FEF 0098 	lea (152,%sp),%sp
 573 0438 4E75      	rts
 574               	.cfi_endproc
 575               	.LFE60:
 576               	.sizeCFE_ES_ParseFileEntry, .-CFE_ES_ParseFileEntry
 577               	.section.rodata
 578               	.LC15:
 579 0256 2F72 616D 	.string"/ram/"
 579      2F00 
 580               	.LC16:
 581 025c 4553 2053 	.string"ES Startup: Unable to decompress Application File: %s\n"
 581      7461 7274 
 581      7570 3A20 
 581      556E 6162 
 581      6C65 2074 
68K GAS   			page 29


 582               	.LC17:
 583 0293 4553 2053 	.string"ES Startup: Application path plus file name length (%d) exceeds max allowed (%d)\n"
 583      7461 7274 
 583      7570 3A20 
 583      4170 706C 
 583      6963 6174 
 584               	.LC18:
 585 02e5 4553 2053 	.string"ES Startup: Unable to extract filename from path: %s.\n"
 585      7461 7274 
 585      7570 3A20 
 585      556E 6162 
 585      6C65 2074 
 586               	.LC19:
 587 031c 4553 2053 	.string"ES Startup: Could not find symbol:%s. EC = 0x%08X\n"
 587      7461 7274 
 587      7570 3A20 
 587      436F 756C 
 587      6420 6E6F 
 588               	.LC20:
 589 034f 4553 2053 	.string"ES Startup: Could not load cFE application file:%s. EC = 0x%08X\n"
 589      7461 7274 
 589      7570 3A20 
 589      436F 756C 
 589      6420 6E6F 
 590               	.LC21:
 591 0390 4553 2053 	.string"ES Startup: AppCreate Error: TaskCreate %s Failed. EC = 0x%08X!\n"
 591      7461 7274 
 591      7570 3A20 
 591      4170 7043 
 591      7265 6174 
 592               	.LC22:
 593 03d1 4553 2053 	.string"ES Startup: Error: ES_TaskTable slot in use at task creation!\n"
 593      7461 7274 
 593      7570 3A20 
 593      4572 726F 
 593      723A 2045 
 594               	.LC23:
 595 0410 4553 2053 	.string"ES Startup: %s loaded and created\n"
 595      7461 7274 
 595      7570 3A20 
 595      2573 206C 
 595      6F61 6465 
 596               	.LC24:
 597 0433 4553 2053 	.string"ES Startup: No free application slots available\n"
 597      7461 7274 
 597      7570 3A20 
 597      4E6F 2066 
 597      7265 6520 
 598               	.text
 599               	.align2
 600               	.globlCFE_ES_AppCreate
 601               	.typeCFE_ES_AppCreate, @function
 602               	CFE_ES_AppCreate:
 603               	.LFB61:
 438:/home/simulink/cFS_FreeRTOS_seL4/cfe/fsw/cfe-core/src/es/cfe_es_apps.c **** 
 439:/home/simulink/cFS_FreeRTOS_seL4/cfe/fsw/cfe-core/src/es/cfe_es_apps.c **** /*
 440:/home/simulink/cFS_FreeRTOS_seL4/cfe/fsw/cfe-core/src/es/cfe_es_apps.c **** **---------------------------------------------------------------------------------------
68K GAS   			page 30


 441:/home/simulink/cFS_FreeRTOS_seL4/cfe/fsw/cfe-core/src/es/cfe_es_apps.c **** ** Name: ES_AppCreate
 442:/home/simulink/cFS_FreeRTOS_seL4/cfe/fsw/cfe-core/src/es/cfe_es_apps.c **** **
 443:/home/simulink/cFS_FreeRTOS_seL4/cfe/fsw/cfe-core/src/es/cfe_es_apps.c **** **   Purpose: This function loads and creates a cFE Application.
 444:/home/simulink/cFS_FreeRTOS_seL4/cfe/fsw/cfe-core/src/es/cfe_es_apps.c **** **            This function can be called from the ES startup code when it
 445:/home/simulink/cFS_FreeRTOS_seL4/cfe/fsw/cfe-core/src/es/cfe_es_apps.c **** **            loads the cFE Applications from the disk using the startup script, or it
 446:/home/simulink/cFS_FreeRTOS_seL4/cfe/fsw/cfe-core/src/es/cfe_es_apps.c **** **            can be called when the ES Start Application command is executed.
 447:/home/simulink/cFS_FreeRTOS_seL4/cfe/fsw/cfe-core/src/es/cfe_es_apps.c **** **
 448:/home/simulink/cFS_FreeRTOS_seL4/cfe/fsw/cfe-core/src/es/cfe_es_apps.c **** **---------------------------------------------------------------------------------------
 449:/home/simulink/cFS_FreeRTOS_seL4/cfe/fsw/cfe-core/src/es/cfe_es_apps.c **** */
 450:/home/simulink/cFS_FreeRTOS_seL4/cfe/fsw/cfe-core/src/es/cfe_es_apps.c **** int32 CFE_ES_AppCreate(uint32 *ApplicationIdPtr,
 451:/home/simulink/cFS_FreeRTOS_seL4/cfe/fsw/cfe-core/src/es/cfe_es_apps.c ****                        const char   *FileName,
 452:/home/simulink/cFS_FreeRTOS_seL4/cfe/fsw/cfe-core/src/es/cfe_es_apps.c ****                        const void   *EntryPointData,
 453:/home/simulink/cFS_FreeRTOS_seL4/cfe/fsw/cfe-core/src/es/cfe_es_apps.c ****                        const char   *AppName,
 454:/home/simulink/cFS_FreeRTOS_seL4/cfe/fsw/cfe-core/src/es/cfe_es_apps.c ****                        uint32  Priority,
 455:/home/simulink/cFS_FreeRTOS_seL4/cfe/fsw/cfe-core/src/es/cfe_es_apps.c ****                        uint32  StackSize,
 456:/home/simulink/cFS_FreeRTOS_seL4/cfe/fsw/cfe-core/src/es/cfe_es_apps.c ****                        uint32  ExceptionAction)
 457:/home/simulink/cFS_FreeRTOS_seL4/cfe/fsw/cfe-core/src/es/cfe_es_apps.c **** {
 604               	.loc 2 457 0
 605               	.cfi_startproc
 606 043a 4FEF FF60 	lea (-160,%sp),%sp
 607               	.cfi_def_cfa_offset 164
 608 043e 2F02      	move.l %d2,-(%sp)
 609               	.cfi_def_cfa_offset 168
 610               	.cfi_offset 2, -168
 458:/home/simulink/cFS_FreeRTOS_seL4/cfe/fsw/cfe-core/src/es/cfe_es_apps.c ****    cpuaddr StartAddr;
 459:/home/simulink/cFS_FreeRTOS_seL4/cfe/fsw/cfe-core/src/es/cfe_es_apps.c ****    int32   ReturnCode;
 460:/home/simulink/cFS_FreeRTOS_seL4/cfe/fsw/cfe-core/src/es/cfe_es_apps.c ****    uint32  i;
 461:/home/simulink/cFS_FreeRTOS_seL4/cfe/fsw/cfe-core/src/es/cfe_es_apps.c ****    boolean AppSlotFound;
 462:/home/simulink/cFS_FreeRTOS_seL4/cfe/fsw/cfe-core/src/es/cfe_es_apps.c ****    uint32  TaskId;
 463:/home/simulink/cFS_FreeRTOS_seL4/cfe/fsw/cfe-core/src/es/cfe_es_apps.c ****    uint32  ModuleId;
 464:/home/simulink/cFS_FreeRTOS_seL4/cfe/fsw/cfe-core/src/es/cfe_es_apps.c ****    char    FileNameOnly[OS_MAX_PATH_LEN];
 465:/home/simulink/cFS_FreeRTOS_seL4/cfe/fsw/cfe-core/src/es/cfe_es_apps.c ****    char    RamDiskPath[OS_MAX_PATH_LEN];
 466:/home/simulink/cFS_FreeRTOS_seL4/cfe/fsw/cfe-core/src/es/cfe_es_apps.c ****    size_t  StringLength;
 467:/home/simulink/cFS_FreeRTOS_seL4/cfe/fsw/cfe-core/src/es/cfe_es_apps.c ****    boolean IsRamDiskFile = FALSE;
 611               	.loc 2 467 0
 612 0440 4200      	clr.b %d0
 613 0442 1F40 009A 	move.b %d0,154(%sp)
 468:/home/simulink/cFS_FreeRTOS_seL4/cfe/fsw/cfe-core/src/es/cfe_es_apps.c ****    CFE_ES_AppStaticModuleApi_t *StaticEntryPtr = NULL;
 614               	.loc 2 468 0
 615 0446 42AF 0094 	clr.l 148(%sp)
 469:/home/simulink/cFS_FreeRTOS_seL4/cfe/fsw/cfe-core/src/es/cfe_es_apps.c **** 
 470:/home/simulink/cFS_FreeRTOS_seL4/cfe/fsw/cfe-core/src/es/cfe_es_apps.c **** 
 471:/home/simulink/cFS_FreeRTOS_seL4/cfe/fsw/cfe-core/src/es/cfe_es_apps.c ****    /*
 472:/home/simulink/cFS_FreeRTOS_seL4/cfe/fsw/cfe-core/src/es/cfe_es_apps.c ****    ** Allocate an ES_AppTable entry
 473:/home/simulink/cFS_FreeRTOS_seL4/cfe/fsw/cfe-core/src/es/cfe_es_apps.c ****    */
 474:/home/simulink/cFS_FreeRTOS_seL4/cfe/fsw/cfe-core/src/es/cfe_es_apps.c ****    CFE_ES_LockSharedData(__func__,__LINE__);
 616               	.loc 2 474 0
 617 044a 4878 01DA 	pea 474.w
 618               	.cfi_def_cfa_offset 172
 619 044e 4879 0000 	pea __func__.5819
 619      0000 
 620               	.cfi_def_cfa_offset 176
 621 0454 4EB9 0000 	jsr CFE_ES_LockSharedData
 621      0000 
 622 045a 508F      	addq.l #8,%sp
 623               	.cfi_def_cfa_offset 168
 475:/home/simulink/cFS_FreeRTOS_seL4/cfe/fsw/cfe-core/src/es/cfe_es_apps.c ****    AppSlotFound = FALSE;
68K GAS   			page 31


 624               	.loc 2 475 0
 625 045c 4201      	clr.b %d1
 626 045e 1F41 009B 	move.b %d1,155(%sp)
 476:/home/simulink/cFS_FreeRTOS_seL4/cfe/fsw/cfe-core/src/es/cfe_es_apps.c ****    for ( i = 0; i < CFE_ES_MAX_APPLICATIONS; i++ )
 627               	.loc 2 476 0
 628 0462 42AF 009C 	clr.l 156(%sp)
 629 0466 6042      	jra .L37
 630               	.L40:
 477:/home/simulink/cFS_FreeRTOS_seL4/cfe/fsw/cfe-core/src/es/cfe_es_apps.c ****    {
 478:/home/simulink/cFS_FreeRTOS_seL4/cfe/fsw/cfe-core/src/es/cfe_es_apps.c ****       if ( CFE_ES_Global.AppTable[i].RecordUsed == FALSE )
 631               	.loc 2 478 0
 632 0468 202F 009C 	move.l 156(%sp),%d0
 633 046c 243C 0000 	move.l #168,%d2
 633      00A8 
 634 0472 4C02 0800 	muls.l %d2,%d0
 635 0476 41F9 0000 	lea CFE_ES_Global+2348,%a0
 635      0000 
 636 047c 1030 0800 	move.b (%a0,%d0.l),%d0
 637 0480 4A00      	tst.b %d0
 638 0482 6622      	jne .L38
 479:/home/simulink/cFS_FreeRTOS_seL4/cfe/fsw/cfe-core/src/es/cfe_es_apps.c ****       {
 480:/home/simulink/cFS_FreeRTOS_seL4/cfe/fsw/cfe-core/src/es/cfe_es_apps.c ****          AppSlotFound = TRUE;
 639               	.loc 2 480 0
 640 0484 7001      	moveq #1,%d0
 641 0486 1F40 009B 	move.b %d0,155(%sp)
 481:/home/simulink/cFS_FreeRTOS_seL4/cfe/fsw/cfe-core/src/es/cfe_es_apps.c ****          CFE_ES_Global.AppTable[i].RecordUsed = TRUE; /* Reserve Slot */
 642               	.loc 2 481 0
 643 048a 202F 009C 	move.l 156(%sp),%d0
 644 048e 223C 0000 	move.l #168,%d1
 644      00A8 
 645 0494 4C01 0800 	muls.l %d1,%d0
 646 0498 41F9 0000 	lea CFE_ES_Global+2348,%a0
 646      0000 
 647 049e 7401      	moveq #1,%d2
 648 04a0 1182 0800 	move.b %d2,(%a0,%d0.l)
 482:/home/simulink/cFS_FreeRTOS_seL4/cfe/fsw/cfe-core/src/es/cfe_es_apps.c ****          break;
 649               	.loc 2 482 0
 650 04a4 600C      	jra .L39
 651               	.L38:
 476:/home/simulink/cFS_FreeRTOS_seL4/cfe/fsw/cfe-core/src/es/cfe_es_apps.c ****    {
 652               	.loc 2 476 0 discriminator 2
 653 04a6 52AF 009C 	addq.l #1,156(%sp)
 654               	.L37:
 476:/home/simulink/cFS_FreeRTOS_seL4/cfe/fsw/cfe-core/src/es/cfe_es_apps.c ****    {
 655               	.loc 2 476 0 is_stmt 0 discriminator 1
 656 04aa 701F      	moveq #31,%d0
 657 04ac B0AF 009C 	cmp.l 156(%sp),%d0
 658 04b0 64B6      	jcc .L40
 659               	.L39:
 483:/home/simulink/cFS_FreeRTOS_seL4/cfe/fsw/cfe-core/src/es/cfe_es_apps.c ****       }
 484:/home/simulink/cFS_FreeRTOS_seL4/cfe/fsw/cfe-core/src/es/cfe_es_apps.c ****    }
 485:/home/simulink/cFS_FreeRTOS_seL4/cfe/fsw/cfe-core/src/es/cfe_es_apps.c ****    CFE_ES_UnlockSharedData(__func__,__LINE__);
 660               	.loc 2 485 0 is_stmt 1
 661 04b2 4878 01E5 	pea 485.w
 662               	.cfi_def_cfa_offset 172
 663 04b6 4879 0000 	pea __func__.5819
 663      0000 
68K GAS   			page 32


 664               	.cfi_def_cfa_offset 176
 665 04bc 4EB9 0000 	jsr CFE_ES_UnlockSharedData
 665      0000 
 666 04c2 508F      	addq.l #8,%sp
 667               	.cfi_def_cfa_offset 168
 486:/home/simulink/cFS_FreeRTOS_seL4/cfe/fsw/cfe-core/src/es/cfe_es_apps.c **** 
 487:/home/simulink/cFS_FreeRTOS_seL4/cfe/fsw/cfe-core/src/es/cfe_es_apps.c ****    /*
 488:/home/simulink/cFS_FreeRTOS_seL4/cfe/fsw/cfe-core/src/es/cfe_es_apps.c ****    ** If a slot was found, create the application
 489:/home/simulink/cFS_FreeRTOS_seL4/cfe/fsw/cfe-core/src/es/cfe_es_apps.c ****    */
 490:/home/simulink/cFS_FreeRTOS_seL4/cfe/fsw/cfe-core/src/es/cfe_es_apps.c ****    if ( AppSlotFound == TRUE)
 668               	.loc 2 490 0
 669 04c4 4280      	clr.l %d0
 670 04c6 102F 009B 	move.b 155(%sp),%d0
 671 04ca 7201      	moveq #1,%d1
 672 04cc B280      	cmp.l %d0,%d1
 673 04ce 6600 0860 	jne .L41
 491:/home/simulink/cFS_FreeRTOS_seL4/cfe/fsw/cfe-core/src/es/cfe_es_apps.c ****    {
 492:/home/simulink/cFS_FreeRTOS_seL4/cfe/fsw/cfe-core/src/es/cfe_es_apps.c ****       /*
 493:/home/simulink/cFS_FreeRTOS_seL4/cfe/fsw/cfe-core/src/es/cfe_es_apps.c ****        * Check if dynamically loading -
 494:/home/simulink/cFS_FreeRTOS_seL4/cfe/fsw/cfe-core/src/es/cfe_es_apps.c ****        * if statically linked then FileName is NULL and EntryPointData points to the API structure
 495:/home/simulink/cFS_FreeRTOS_seL4/cfe/fsw/cfe-core/src/es/cfe_es_apps.c ****        */
 496:/home/simulink/cFS_FreeRTOS_seL4/cfe/fsw/cfe-core/src/es/cfe_es_apps.c ****       if (FileName != NULL)
 674               	.loc 2 496 0
 675 04d2 4AAF 00AC 	tst.l 172(%sp)
 676 04d6 6700 0358 	jeq .L42
 497:/home/simulink/cFS_FreeRTOS_seL4/cfe/fsw/cfe-core/src/es/cfe_es_apps.c ****       {
 498:/home/simulink/cFS_FreeRTOS_seL4/cfe/fsw/cfe-core/src/es/cfe_es_apps.c ****           /*
 499:/home/simulink/cFS_FreeRTOS_seL4/cfe/fsw/cfe-core/src/es/cfe_es_apps.c ****           ** Check to see if the code is a Gzip file
 500:/home/simulink/cFS_FreeRTOS_seL4/cfe/fsw/cfe-core/src/es/cfe_es_apps.c ****           */
 501:/home/simulink/cFS_FreeRTOS_seL4/cfe/fsw/cfe-core/src/es/cfe_es_apps.c ****           if ( CFE_FS_IsGzFile(FileName) == TRUE )
 677               	.loc 2 501 0
 678 04da 2F2F 00AC 	move.l 172(%sp),-(%sp)
 679               	.cfi_def_cfa_offset 172
 680 04de 4EB9 0000 	jsr CFE_FS_IsGzFile
 680      0000 
 681 04e4 588F      	addq.l #4,%sp
 682               	.cfi_def_cfa_offset 168
 683 04e6 1000      	move.b %d0,%d0
 684 04e8 0280 0000 	and.l #255,%d0
 684      00FF 
 685 04ee 7401      	moveq #1,%d2
 686 04f0 B480      	cmp.l %d0,%d2
 687 04f2 6600 022E 	jne .L43
 502:/home/simulink/cFS_FreeRTOS_seL4/cfe/fsw/cfe-core/src/es/cfe_es_apps.c ****           {
 503:/home/simulink/cFS_FreeRTOS_seL4/cfe/fsw/cfe-core/src/es/cfe_es_apps.c ****              /*
 504:/home/simulink/cFS_FreeRTOS_seL4/cfe/fsw/cfe-core/src/es/cfe_es_apps.c ****              ** Build up the destination path in the RAM disk
 505:/home/simulink/cFS_FreeRTOS_seL4/cfe/fsw/cfe-core/src/es/cfe_es_apps.c ****              */
 506:/home/simulink/cFS_FreeRTOS_seL4/cfe/fsw/cfe-core/src/es/cfe_es_apps.c ****              (void) CFE_SB_MessageStringGet(RamDiskPath, 
 688               	.loc 2 506 0
 689 04f6 4878 0006 	pea 6.w
 690               	.cfi_def_cfa_offset 172
 691 04fa 4878 0040 	pea 64.w
 692               	.cfi_def_cfa_offset 176
 693 04fe 42A7      	clr.l -(%sp)
 694               	.cfi_def_cfa_offset 180
 695 0500 4879 0000 	pea .LC15
 695      0000 
68K GAS   			page 33


 696               	.cfi_def_cfa_offset 184
 697 0506 200F      	move.l %sp,%d0
 698 0508 0680 0000 	add.l #20,%d0
 698      0014 
 699 050e 2F00      	move.l %d0,-(%sp)
 700               	.cfi_def_cfa_offset 188
 701 0510 4EB9 0000 	jsr CFE_SB_MessageStringGet
 701      0000 
 702 0516 4FEF 0014 	lea (20,%sp),%sp
 703               	.cfi_def_cfa_offset 168
 507:/home/simulink/cFS_FreeRTOS_seL4/cfe/fsw/cfe-core/src/es/cfe_es_apps.c ****                                             CFE_ES_RAM_DISK_MOUNT_STRING"/", 
 508:/home/simulink/cFS_FreeRTOS_seL4/cfe/fsw/cfe-core/src/es/cfe_es_apps.c ****                                             NULL, 
 509:/home/simulink/cFS_FreeRTOS_seL4/cfe/fsw/cfe-core/src/es/cfe_es_apps.c ****                                             sizeof(RamDiskPath), 
 510:/home/simulink/cFS_FreeRTOS_seL4/cfe/fsw/cfe-core/src/es/cfe_es_apps.c ****                                             sizeof(CFE_ES_RAM_DISK_MOUNT_STRING"/"));
 511:/home/simulink/cFS_FreeRTOS_seL4/cfe/fsw/cfe-core/src/es/cfe_es_apps.c ****             
 512:/home/simulink/cFS_FreeRTOS_seL4/cfe/fsw/cfe-core/src/es/cfe_es_apps.c ****              /*
 513:/home/simulink/cFS_FreeRTOS_seL4/cfe/fsw/cfe-core/src/es/cfe_es_apps.c ****              ** Extract the filename from the path
 514:/home/simulink/cFS_FreeRTOS_seL4/cfe/fsw/cfe-core/src/es/cfe_es_apps.c ****              */
 515:/home/simulink/cFS_FreeRTOS_seL4/cfe/fsw/cfe-core/src/es/cfe_es_apps.c ****              ReturnCode = CFE_FS_ExtractFilenameFromPath(FileName, FileNameOnly);
 704               	.loc 2 515 0
 705 051a 200F      	move.l %sp,%d0
 706 051c 0680 0000 	add.l #68,%d0
 706      0044 
 707 0522 2F00      	move.l %d0,-(%sp)
 708               	.cfi_def_cfa_offset 172
 709 0524 2F2F 00B0 	move.l 176(%sp),-(%sp)
 710               	.cfi_def_cfa_offset 176
 711 0528 4EB9 0000 	jsr CFE_FS_ExtractFilenameFromPath
 711      0000 
 712 052e 508F      	addq.l #8,%sp
 713               	.cfi_def_cfa_offset 168
 714 0530 2F40 00A0 	move.l %d0,160(%sp)
 516:/home/simulink/cFS_FreeRTOS_seL4/cfe/fsw/cfe-core/src/es/cfe_es_apps.c **** 
 517:/home/simulink/cFS_FreeRTOS_seL4/cfe/fsw/cfe-core/src/es/cfe_es_apps.c ****              if ( ReturnCode == CFE_SUCCESS )
 715               	.loc 2 517 0
 716 0534 4AAF 00A0 	tst.l 160(%sp)
 717 0538 6600 018E 	jne .L44
 518:/home/simulink/cFS_FreeRTOS_seL4/cfe/fsw/cfe-core/src/es/cfe_es_apps.c ****              {
 519:/home/simulink/cFS_FreeRTOS_seL4/cfe/fsw/cfe-core/src/es/cfe_es_apps.c ****                 if ((strlen(RamDiskPath) + strlen(FileNameOnly)) < OS_MAX_PATH_LEN)
 718               	.loc 2 519 0
 719 053c 200F      	move.l %sp,%d0
 720 053e 5880      	addq.l #4,%d0
 721 0540 2F00      	move.l %d0,-(%sp)
 722               	.cfi_def_cfa_offset 172
 723 0542 4EB9 0000 	jsr strlen
 723      0000 
 724 0548 588F      	addq.l #4,%sp
 725               	.cfi_def_cfa_offset 168
 726 054a 2400      	move.l %d0,%d2
 727 054c 200F      	move.l %sp,%d0
 728 054e 0680 0000 	add.l #68,%d0
 728      0044 
 729 0554 2F00      	move.l %d0,-(%sp)
 730               	.cfi_def_cfa_offset 172
 731 0556 4EB9 0000 	jsr strlen
 731      0000 
 732 055c 588F      	addq.l #4,%sp
68K GAS   			page 34


 733               	.cfi_def_cfa_offset 168
 734 055e D082      	add.l %d2,%d0
 735 0560 723F      	moveq #63,%d1
 736 0562 B280      	cmp.l %d0,%d1
 737 0564 6500 00E0 	jcs .L45
 520:/home/simulink/cFS_FreeRTOS_seL4/cfe/fsw/cfe-core/src/es/cfe_es_apps.c ****                 {
 521:/home/simulink/cFS_FreeRTOS_seL4/cfe/fsw/cfe-core/src/es/cfe_es_apps.c **** 
 522:/home/simulink/cFS_FreeRTOS_seL4/cfe/fsw/cfe-core/src/es/cfe_es_apps.c ****                     /*
 523:/home/simulink/cFS_FreeRTOS_seL4/cfe/fsw/cfe-core/src/es/cfe_es_apps.c ****                     ** Cat the Filename to the RamDiskPath
 524:/home/simulink/cFS_FreeRTOS_seL4/cfe/fsw/cfe-core/src/es/cfe_es_apps.c ****                     */
 525:/home/simulink/cFS_FreeRTOS_seL4/cfe/fsw/cfe-core/src/es/cfe_es_apps.c ****                     strcat(RamDiskPath, FileNameOnly);
 738               	.loc 2 525 0
 739 0568 200F      	move.l %sp,%d0
 740 056a 0680 0000 	add.l #68,%d0
 740      0044 
 741 0570 2F00      	move.l %d0,-(%sp)
 742               	.cfi_def_cfa_offset 172
 743 0572 200F      	move.l %sp,%d0
 744 0574 5080      	addq.l #8,%d0
 745 0576 2F00      	move.l %d0,-(%sp)
 746               	.cfi_def_cfa_offset 176
 747 0578 4EB9 0000 	jsr strcat
 747      0000 
 748 057e 508F      	addq.l #8,%sp
 749               	.cfi_def_cfa_offset 168
 526:/home/simulink/cFS_FreeRTOS_seL4/cfe/fsw/cfe-core/src/es/cfe_es_apps.c ****             
 527:/home/simulink/cFS_FreeRTOS_seL4/cfe/fsw/cfe-core/src/es/cfe_es_apps.c ****                     /*
 528:/home/simulink/cFS_FreeRTOS_seL4/cfe/fsw/cfe-core/src/es/cfe_es_apps.c ****                     ** Remove the ".gz" prefix from the filename
 529:/home/simulink/cFS_FreeRTOS_seL4/cfe/fsw/cfe-core/src/es/cfe_es_apps.c ****                     ** Already Determined that the filename ends in ".gz"
 530:/home/simulink/cFS_FreeRTOS_seL4/cfe/fsw/cfe-core/src/es/cfe_es_apps.c ****                     */
 531:/home/simulink/cFS_FreeRTOS_seL4/cfe/fsw/cfe-core/src/es/cfe_es_apps.c ****                     StringLength = strlen(RamDiskPath);
 750               	.loc 2 531 0
 751 0580 200F      	move.l %sp,%d0
 752 0582 5880      	addq.l #4,%d0
 753 0584 2F00      	move.l %d0,-(%sp)
 754               	.cfi_def_cfa_offset 172
 755 0586 4EB9 0000 	jsr strlen
 755      0000 
 756 058c 588F      	addq.l #4,%sp
 757               	.cfi_def_cfa_offset 168
 758 058e 2F40 0090 	move.l %d0,144(%sp)
 532:/home/simulink/cFS_FreeRTOS_seL4/cfe/fsw/cfe-core/src/es/cfe_es_apps.c ****                     RamDiskPath[StringLength - 3] = '\0';
 759               	.loc 2 532 0
 760 0592 202F 0090 	move.l 144(%sp),%d0
 761 0596 5780      	subq.l #3,%d0
 762 0598 41EF 00A4 	lea (164,%sp),%a0
 763 059c D1C0      	add.l %d0,%a0
 764 059e 4202      	clr.b %d2
 765 05a0 1142 FF60 	move.b %d2,-160(%a0)
 533:/home/simulink/cFS_FreeRTOS_seL4/cfe/fsw/cfe-core/src/es/cfe_es_apps.c **** 
 534:/home/simulink/cFS_FreeRTOS_seL4/cfe/fsw/cfe-core/src/es/cfe_es_apps.c ****                     /*
 535:/home/simulink/cFS_FreeRTOS_seL4/cfe/fsw/cfe-core/src/es/cfe_es_apps.c ****                     ** Decompress the file:
 536:/home/simulink/cFS_FreeRTOS_seL4/cfe/fsw/cfe-core/src/es/cfe_es_apps.c ****                     */
 537:/home/simulink/cFS_FreeRTOS_seL4/cfe/fsw/cfe-core/src/es/cfe_es_apps.c ****                     ReturnCode =  CFE_FS_Decompress( FileName, RamDiskPath);
 766               	.loc 2 537 0
 767 05a4 200F      	move.l %sp,%d0
 768 05a6 5880      	addq.l #4,%d0
68K GAS   			page 35


 769 05a8 2F00      	move.l %d0,-(%sp)
 770               	.cfi_def_cfa_offset 172
 771 05aa 2F2F 00B0 	move.l 176(%sp),-(%sp)
 772               	.cfi_def_cfa_offset 176
 773 05ae 4EB9 0000 	jsr CFE_FS_Decompress
 773      0000 
 774 05b4 508F      	addq.l #8,%sp
 775               	.cfi_def_cfa_offset 168
 776 05b6 2F40 00A0 	move.l %d0,160(%sp)
 538:/home/simulink/cFS_FreeRTOS_seL4/cfe/fsw/cfe-core/src/es/cfe_es_apps.c **** 
 539:/home/simulink/cFS_FreeRTOS_seL4/cfe/fsw/cfe-core/src/es/cfe_es_apps.c ****                     if ( ReturnCode != OS_SUCCESS )
 777               	.loc 2 539 0
 778 05ba 4AAF 00A0 	tst.l 160(%sp)
 779 05be 675A      	jeq .L46
 540:/home/simulink/cFS_FreeRTOS_seL4/cfe/fsw/cfe-core/src/es/cfe_es_apps.c ****                     {
 541:/home/simulink/cFS_FreeRTOS_seL4/cfe/fsw/cfe-core/src/es/cfe_es_apps.c ****                        CFE_ES_WriteToSysLog("ES Startup: Unable to decompress Application File: %s\
 780               	.loc 2 541 0
 781 05c0 2F2F 00AC 	move.l 172(%sp),-(%sp)
 782               	.cfi_def_cfa_offset 172
 783 05c4 4879 0000 	pea .LC16
 783      0000 
 784               	.cfi_def_cfa_offset 176
 785 05ca 4EB9 0000 	jsr CFE_ES_WriteToSysLog
 785      0000 
 786 05d0 508F      	addq.l #8,%sp
 787               	.cfi_def_cfa_offset 168
 542:/home/simulink/cFS_FreeRTOS_seL4/cfe/fsw/cfe-core/src/es/cfe_es_apps.c **** 
 543:/home/simulink/cFS_FreeRTOS_seL4/cfe/fsw/cfe-core/src/es/cfe_es_apps.c ****                        CFE_ES_LockSharedData(__func__,__LINE__);
 788               	.loc 2 543 0
 789 05d2 4878 021F 	pea 543.w
 790               	.cfi_def_cfa_offset 172
 791 05d6 4879 0000 	pea __func__.5819
 791      0000 
 792               	.cfi_def_cfa_offset 176
 793 05dc 4EB9 0000 	jsr CFE_ES_LockSharedData
 793      0000 
 794 05e2 508F      	addq.l #8,%sp
 795               	.cfi_def_cfa_offset 168
 544:/home/simulink/cFS_FreeRTOS_seL4/cfe/fsw/cfe-core/src/es/cfe_es_apps.c ****                        CFE_ES_Global.AppTable[i].RecordUsed = FALSE; /* Release slot */
 796               	.loc 2 544 0
 797 05e4 202F 009C 	move.l 156(%sp),%d0
 798 05e8 223C 0000 	move.l #168,%d1
 798      00A8 
 799 05ee 4C01 0800 	muls.l %d1,%d0
 800 05f2 41F9 0000 	lea CFE_ES_Global+2348,%a0
 800      0000 
 801 05f8 4202      	clr.b %d2
 802 05fa 1182 0800 	move.b %d2,(%a0,%d0.l)
 545:/home/simulink/cFS_FreeRTOS_seL4/cfe/fsw/cfe-core/src/es/cfe_es_apps.c ****                        CFE_ES_UnlockSharedData(__func__,__LINE__);
 803               	.loc 2 545 0
 804 05fe 4878 0221 	pea 545.w
 805               	.cfi_def_cfa_offset 172
 806 0602 4879 0000 	pea __func__.5819
 806      0000 
 807               	.cfi_def_cfa_offset 176
 808 0608 4EB9 0000 	jsr CFE_ES_UnlockSharedData
 808      0000 
68K GAS   			page 36


 809 060e 508F      	addq.l #8,%sp
 810               	.cfi_def_cfa_offset 168
 546:/home/simulink/cFS_FreeRTOS_seL4/cfe/fsw/cfe-core/src/es/cfe_es_apps.c **** 
 547:/home/simulink/cFS_FreeRTOS_seL4/cfe/fsw/cfe-core/src/es/cfe_es_apps.c ****                        return(CFE_ES_ERR_APP_CREATE);
 811               	.loc 2 547 0
 812 0610 203C C400 	move.l #-1006632956,%d0
 812      0004 
 813 0616 6000 072C 	jra .L57
 814               	.L46:
 548:/home/simulink/cFS_FreeRTOS_seL4/cfe/fsw/cfe-core/src/es/cfe_es_apps.c ****                     }
 549:/home/simulink/cFS_FreeRTOS_seL4/cfe/fsw/cfe-core/src/es/cfe_es_apps.c ****                     else
 550:/home/simulink/cFS_FreeRTOS_seL4/cfe/fsw/cfe-core/src/es/cfe_es_apps.c ****                     {
 551:/home/simulink/cFS_FreeRTOS_seL4/cfe/fsw/cfe-core/src/es/cfe_es_apps.c ****                        /*
 552:/home/simulink/cFS_FreeRTOS_seL4/cfe/fsw/cfe-core/src/es/cfe_es_apps.c ****                        ** All ready to use unzipped RAM disk file
 553:/home/simulink/cFS_FreeRTOS_seL4/cfe/fsw/cfe-core/src/es/cfe_es_apps.c ****                        */
 554:/home/simulink/cFS_FreeRTOS_seL4/cfe/fsw/cfe-core/src/es/cfe_es_apps.c ****                        IsRamDiskFile = TRUE;
 815               	.loc 2 554 0
 816 061a 7001      	moveq #1,%d0
 817 061c 1F40 009A 	move.b %d0,154(%sp)
 555:/home/simulink/cFS_FreeRTOS_seL4/cfe/fsw/cfe-core/src/es/cfe_es_apps.c ****                        ReturnCode = OS_ModuleLoad( &ModuleId, AppName, RamDiskPath);
 818               	.loc 2 555 0
 819 0620 200F      	move.l %sp,%d0
 820 0622 5880      	addq.l #4,%d0
 821 0624 2F00      	move.l %d0,-(%sp)
 822               	.cfi_def_cfa_offset 172
 823 0626 2F2F 00B8 	move.l 184(%sp),-(%sp)
 824               	.cfi_def_cfa_offset 176
 825 062a 200F      	move.l %sp,%d0
 826 062c 0680 0000 	add.l #140,%d0
 826      008C 
 827 0632 2F00      	move.l %d0,-(%sp)
 828               	.cfi_def_cfa_offset 180
 829 0634 4EB9 0000 	jsr OS_ModuleLoad
 829      0000 
 830 063a 4FEF 000C 	lea (12,%sp),%sp
 831               	.cfi_def_cfa_offset 168
 832 063e 2F40 00A0 	move.l %d0,160(%sp)
 833 0642 6000 00FE 	jra .L48
 834               	.L45:
 556:/home/simulink/cFS_FreeRTOS_seL4/cfe/fsw/cfe-core/src/es/cfe_es_apps.c ****                     }
 557:/home/simulink/cFS_FreeRTOS_seL4/cfe/fsw/cfe-core/src/es/cfe_es_apps.c ****                 }
 558:/home/simulink/cFS_FreeRTOS_seL4/cfe/fsw/cfe-core/src/es/cfe_es_apps.c ****                 else
 559:/home/simulink/cFS_FreeRTOS_seL4/cfe/fsw/cfe-core/src/es/cfe_es_apps.c ****                 {
 560:/home/simulink/cFS_FreeRTOS_seL4/cfe/fsw/cfe-core/src/es/cfe_es_apps.c ****                     /* Can't include the name string since it could be too long for the message */
 561:/home/simulink/cFS_FreeRTOS_seL4/cfe/fsw/cfe-core/src/es/cfe_es_apps.c ****                     CFE_ES_WriteToSysLog("ES Startup: Application path plus file name length (%d) e
 562:/home/simulink/cFS_FreeRTOS_seL4/cfe/fsw/cfe-core/src/es/cfe_es_apps.c ****                                          (int)(strlen(RamDiskPath) + strlen(FileNameOnly)), OS_MAX_
 835               	.loc 2 562 0
 836 0646 200F      	move.l %sp,%d0
 837 0648 5880      	addq.l #4,%d0
 838 064a 2F00      	move.l %d0,-(%sp)
 839               	.cfi_def_cfa_offset 172
 840 064c 4EB9 0000 	jsr strlen
 840      0000 
 841 0652 588F      	addq.l #4,%sp
 842               	.cfi_def_cfa_offset 168
 843 0654 2400      	move.l %d0,%d2
 844 0656 200F      	move.l %sp,%d0
68K GAS   			page 37


 845 0658 0680 0000 	add.l #68,%d0
 845      0044 
 846 065e 2F00      	move.l %d0,-(%sp)
 847               	.cfi_def_cfa_offset 172
 848 0660 4EB9 0000 	jsr strlen
 848      0000 
 849 0666 588F      	addq.l #4,%sp
 850               	.cfi_def_cfa_offset 168
 851 0668 D082      	add.l %d2,%d0
 561:/home/simulink/cFS_FreeRTOS_seL4/cfe/fsw/cfe-core/src/es/cfe_es_apps.c ****                                          (int)(strlen(RamDiskPath) + strlen(FileNameOnly)), OS_MAX_
 852               	.loc 2 561 0
 853 066a 4878 0040 	pea 64.w
 854               	.cfi_def_cfa_offset 172
 855 066e 2F00      	move.l %d0,-(%sp)
 856               	.cfi_def_cfa_offset 176
 857 0670 4879 0000 	pea .LC17
 857      0000 
 858               	.cfi_def_cfa_offset 180
 859 0676 4EB9 0000 	jsr CFE_ES_WriteToSysLog
 859      0000 
 860 067c 4FEF 000C 	lea (12,%sp),%sp
 861               	.cfi_def_cfa_offset 168
 563:/home/simulink/cFS_FreeRTOS_seL4/cfe/fsw/cfe-core/src/es/cfe_es_apps.c **** 
 564:/home/simulink/cFS_FreeRTOS_seL4/cfe/fsw/cfe-core/src/es/cfe_es_apps.c ****                     CFE_ES_LockSharedData(__func__,__LINE__);
 862               	.loc 2 564 0
 863 0680 4878 0234 	pea 564.w
 864               	.cfi_def_cfa_offset 172
 865 0684 4879 0000 	pea __func__.5819
 865      0000 
 866               	.cfi_def_cfa_offset 176
 867 068a 4EB9 0000 	jsr CFE_ES_LockSharedData
 867      0000 
 868 0690 508F      	addq.l #8,%sp
 869               	.cfi_def_cfa_offset 168
 565:/home/simulink/cFS_FreeRTOS_seL4/cfe/fsw/cfe-core/src/es/cfe_es_apps.c ****                     CFE_ES_Global.AppTable[i].RecordUsed = FALSE; /* Release slot */
 870               	.loc 2 565 0
 871 0692 202F 009C 	move.l 156(%sp),%d0
 872 0696 223C 0000 	move.l #168,%d1
 872      00A8 
 873 069c 4C01 0800 	muls.l %d1,%d0
 874 06a0 41F9 0000 	lea CFE_ES_Global+2348,%a0
 874      0000 
 875 06a6 4202      	clr.b %d2
 876 06a8 1182 0800 	move.b %d2,(%a0,%d0.l)
 566:/home/simulink/cFS_FreeRTOS_seL4/cfe/fsw/cfe-core/src/es/cfe_es_apps.c ****                     CFE_ES_UnlockSharedData(__func__,__LINE__);
 877               	.loc 2 566 0
 878 06ac 4878 0236 	pea 566.w
 879               	.cfi_def_cfa_offset 172
 880 06b0 4879 0000 	pea __func__.5819
 880      0000 
 881               	.cfi_def_cfa_offset 176
 882 06b6 4EB9 0000 	jsr CFE_ES_UnlockSharedData
 882      0000 
 883 06bc 508F      	addq.l #8,%sp
 884               	.cfi_def_cfa_offset 168
 567:/home/simulink/cFS_FreeRTOS_seL4/cfe/fsw/cfe-core/src/es/cfe_es_apps.c **** 
 568:/home/simulink/cFS_FreeRTOS_seL4/cfe/fsw/cfe-core/src/es/cfe_es_apps.c ****                     return(CFE_ES_ERR_APP_CREATE);
68K GAS   			page 38


 885               	.loc 2 568 0
 886 06be 203C C400 	move.l #-1006632956,%d0
 886      0004 
 887 06c4 6000 067E 	jra .L57
 888               	.L44:
 569:/home/simulink/cFS_FreeRTOS_seL4/cfe/fsw/cfe-core/src/es/cfe_es_apps.c ****                 }
 570:/home/simulink/cFS_FreeRTOS_seL4/cfe/fsw/cfe-core/src/es/cfe_es_apps.c **** 
 571:/home/simulink/cFS_FreeRTOS_seL4/cfe/fsw/cfe-core/src/es/cfe_es_apps.c ****              }
 572:/home/simulink/cFS_FreeRTOS_seL4/cfe/fsw/cfe-core/src/es/cfe_es_apps.c ****              else
 573:/home/simulink/cFS_FreeRTOS_seL4/cfe/fsw/cfe-core/src/es/cfe_es_apps.c ****              {
 574:/home/simulink/cFS_FreeRTOS_seL4/cfe/fsw/cfe-core/src/es/cfe_es_apps.c ****                 CFE_ES_WriteToSysLog("ES Startup: Unable to extract filename from path: %s.\n",File
 889               	.loc 2 574 0
 890 06c8 2F2F 00AC 	move.l 172(%sp),-(%sp)
 891               	.cfi_def_cfa_offset 172
 892 06cc 4879 0000 	pea .LC18
 892      0000 
 893               	.cfi_def_cfa_offset 176
 894 06d2 4EB9 0000 	jsr CFE_ES_WriteToSysLog
 894      0000 
 895 06d8 508F      	addq.l #8,%sp
 896               	.cfi_def_cfa_offset 168
 575:/home/simulink/cFS_FreeRTOS_seL4/cfe/fsw/cfe-core/src/es/cfe_es_apps.c ****                 CFE_ES_LockSharedData(__func__,__LINE__);
 897               	.loc 2 575 0
 898 06da 4878 023F 	pea 575.w
 899               	.cfi_def_cfa_offset 172
 900 06de 4879 0000 	pea __func__.5819
 900      0000 
 901               	.cfi_def_cfa_offset 176
 902 06e4 4EB9 0000 	jsr CFE_ES_LockSharedData
 902      0000 
 903 06ea 508F      	addq.l #8,%sp
 904               	.cfi_def_cfa_offset 168
 576:/home/simulink/cFS_FreeRTOS_seL4/cfe/fsw/cfe-core/src/es/cfe_es_apps.c ****                 CFE_ES_Global.AppTable[i].RecordUsed = FALSE; /* Release slot */
 905               	.loc 2 576 0
 906 06ec 202F 009C 	move.l 156(%sp),%d0
 907 06f0 223C 0000 	move.l #168,%d1
 907      00A8 
 908 06f6 4C01 0800 	muls.l %d1,%d0
 909 06fa 41F9 0000 	lea CFE_ES_Global+2348,%a0
 909      0000 
 910 0700 4202      	clr.b %d2
 911 0702 1182 0800 	move.b %d2,(%a0,%d0.l)
 577:/home/simulink/cFS_FreeRTOS_seL4/cfe/fsw/cfe-core/src/es/cfe_es_apps.c ****                 CFE_ES_UnlockSharedData(__func__,__LINE__);
 912               	.loc 2 577 0
 913 0706 4878 0241 	pea 577.w
 914               	.cfi_def_cfa_offset 172
 915 070a 4879 0000 	pea __func__.5819
 915      0000 
 916               	.cfi_def_cfa_offset 176
 917 0710 4EB9 0000 	jsr CFE_ES_UnlockSharedData
 917      0000 
 918 0716 508F      	addq.l #8,%sp
 919               	.cfi_def_cfa_offset 168
 578:/home/simulink/cFS_FreeRTOS_seL4/cfe/fsw/cfe-core/src/es/cfe_es_apps.c ****                 return(CFE_ES_ERR_APP_CREATE);
 920               	.loc 2 578 0
 921 0718 203C C400 	move.l #-1006632956,%d0
 921      0004 
68K GAS   			page 39


 922 071e 6000 0624 	jra .L57
 923               	.L43:
 579:/home/simulink/cFS_FreeRTOS_seL4/cfe/fsw/cfe-core/src/es/cfe_es_apps.c ****              }
 580:/home/simulink/cFS_FreeRTOS_seL4/cfe/fsw/cfe-core/src/es/cfe_es_apps.c **** 
 581:/home/simulink/cFS_FreeRTOS_seL4/cfe/fsw/cfe-core/src/es/cfe_es_apps.c ****           }
 582:/home/simulink/cFS_FreeRTOS_seL4/cfe/fsw/cfe-core/src/es/cfe_es_apps.c ****           else
 583:/home/simulink/cFS_FreeRTOS_seL4/cfe/fsw/cfe-core/src/es/cfe_es_apps.c ****           {
 584:/home/simulink/cFS_FreeRTOS_seL4/cfe/fsw/cfe-core/src/es/cfe_es_apps.c ****               /*
 585:/home/simulink/cFS_FreeRTOS_seL4/cfe/fsw/cfe-core/src/es/cfe_es_apps.c ****               ** Load the module directly
 586:/home/simulink/cFS_FreeRTOS_seL4/cfe/fsw/cfe-core/src/es/cfe_es_apps.c ****               */
 587:/home/simulink/cFS_FreeRTOS_seL4/cfe/fsw/cfe-core/src/es/cfe_es_apps.c ****               ReturnCode = OS_ModuleLoad ( &ModuleId, AppName, FileName );
 924               	.loc 2 587 0
 925 0722 2F2F 00AC 	move.l 172(%sp),-(%sp)
 926               	.cfi_def_cfa_offset 172
 927 0726 2F2F 00B8 	move.l 184(%sp),-(%sp)
 928               	.cfi_def_cfa_offset 176
 929 072a 200F      	move.l %sp,%d0
 930 072c 0680 0000 	add.l #140,%d0
 930      008C 
 931 0732 2F00      	move.l %d0,-(%sp)
 932               	.cfi_def_cfa_offset 180
 933 0734 4EB9 0000 	jsr OS_ModuleLoad
 933      0000 
 934 073a 4FEF 000C 	lea (12,%sp),%sp
 935               	.cfi_def_cfa_offset 168
 936 073e 2F40 00A0 	move.l %d0,160(%sp)
 937               	.L48:
 588:/home/simulink/cFS_FreeRTOS_seL4/cfe/fsw/cfe-core/src/es/cfe_es_apps.c ****           }
 589:/home/simulink/cFS_FreeRTOS_seL4/cfe/fsw/cfe-core/src/es/cfe_es_apps.c ****           /*
 590:/home/simulink/cFS_FreeRTOS_seL4/cfe/fsw/cfe-core/src/es/cfe_es_apps.c ****           ** If the Load was OK, then lookup the address of the entry point
 591:/home/simulink/cFS_FreeRTOS_seL4/cfe/fsw/cfe-core/src/es/cfe_es_apps.c ****           */
 592:/home/simulink/cFS_FreeRTOS_seL4/cfe/fsw/cfe-core/src/es/cfe_es_apps.c ****           if ( ReturnCode == OS_SUCCESS )
 938               	.loc 2 592 0
 939 0742 4AAF 00A0 	tst.l 160(%sp)
 940 0746 6600 0086 	jne .L49
 593:/home/simulink/cFS_FreeRTOS_seL4/cfe/fsw/cfe-core/src/es/cfe_es_apps.c ****           {
 594:/home/simulink/cFS_FreeRTOS_seL4/cfe/fsw/cfe-core/src/es/cfe_es_apps.c ****              ReturnCode = OS_SymbolLookup( &StartAddr, (const char*)EntryPointData );
 941               	.loc 2 594 0
 942 074a 2F2F 00B0 	move.l 176(%sp),-(%sp)
 943               	.cfi_def_cfa_offset 172
 944 074e 200F      	move.l %sp,%d0
 945 0750 0680 0000 	add.l #144,%d0
 945      0090 
 946 0756 2F00      	move.l %d0,-(%sp)
 947               	.cfi_def_cfa_offset 176
 948 0758 4EB9 0000 	jsr OS_SymbolLookup
 948      0000 
 949 075e 508F      	addq.l #8,%sp
 950               	.cfi_def_cfa_offset 168
 951 0760 2F40 00A0 	move.l %d0,160(%sp)
 595:/home/simulink/cFS_FreeRTOS_seL4/cfe/fsw/cfe-core/src/es/cfe_es_apps.c ****              if ( ReturnCode != OS_SUCCESS )
 952               	.loc 2 595 0
 953 0764 4AAF 00A0 	tst.l 160(%sp)
 954 0768 6700 00DC 	jeq .L50
 596:/home/simulink/cFS_FreeRTOS_seL4/cfe/fsw/cfe-core/src/es/cfe_es_apps.c ****              {
 597:/home/simulink/cFS_FreeRTOS_seL4/cfe/fsw/cfe-core/src/es/cfe_es_apps.c ****                  CFE_ES_WriteToSysLog("ES Startup: Could not find symbol:%s. EC = 0x%08X\n",
 955               	.loc 2 597 0
68K GAS   			page 40


 956 076c 202F 00A0 	move.l 160(%sp),%d0
 957 0770 2F00      	move.l %d0,-(%sp)
 958               	.cfi_def_cfa_offset 172
 959 0772 2F2F 00B4 	move.l 180(%sp),-(%sp)
 960               	.cfi_def_cfa_offset 176
 961 0776 4879 0000 	pea .LC19
 961      0000 
 962               	.cfi_def_cfa_offset 180
 963 077c 4EB9 0000 	jsr CFE_ES_WriteToSysLog
 963      0000 
 964 0782 4FEF 000C 	lea (12,%sp),%sp
 965               	.cfi_def_cfa_offset 168
 598:/home/simulink/cFS_FreeRTOS_seL4/cfe/fsw/cfe-core/src/es/cfe_es_apps.c ****                          (const char*)EntryPointData, (unsigned int)ReturnCode);
 599:/home/simulink/cFS_FreeRTOS_seL4/cfe/fsw/cfe-core/src/es/cfe_es_apps.c **** 
 600:/home/simulink/cFS_FreeRTOS_seL4/cfe/fsw/cfe-core/src/es/cfe_es_apps.c ****                  CFE_ES_LockSharedData(__func__,__LINE__);
 966               	.loc 2 600 0
 967 0786 4878 0258 	pea 600.w
 968               	.cfi_def_cfa_offset 172
 969 078a 4879 0000 	pea __func__.5819
 969      0000 
 970               	.cfi_def_cfa_offset 176
 971 0790 4EB9 0000 	jsr CFE_ES_LockSharedData
 971      0000 
 972 0796 508F      	addq.l #8,%sp
 973               	.cfi_def_cfa_offset 168
 601:/home/simulink/cFS_FreeRTOS_seL4/cfe/fsw/cfe-core/src/es/cfe_es_apps.c ****                  CFE_ES_Global.AppTable[i].RecordUsed = FALSE; /* Release slot */
 974               	.loc 2 601 0
 975 0798 202F 009C 	move.l 156(%sp),%d0
 976 079c 223C 0000 	move.l #168,%d1
 976      00A8 
 977 07a2 4C01 0800 	muls.l %d1,%d0
 978 07a6 41F9 0000 	lea CFE_ES_Global+2348,%a0
 978      0000 
 979 07ac 4202      	clr.b %d2
 980 07ae 1182 0800 	move.b %d2,(%a0,%d0.l)
 602:/home/simulink/cFS_FreeRTOS_seL4/cfe/fsw/cfe-core/src/es/cfe_es_apps.c ****                  CFE_ES_UnlockSharedData(__func__,__LINE__);
 981               	.loc 2 602 0
 982 07b2 4878 025A 	pea 602.w
 983               	.cfi_def_cfa_offset 172
 984 07b6 4879 0000 	pea __func__.5819
 984      0000 
 985               	.cfi_def_cfa_offset 176
 986 07bc 4EB9 0000 	jsr CFE_ES_UnlockSharedData
 986      0000 
 987 07c2 508F      	addq.l #8,%sp
 988               	.cfi_def_cfa_offset 168
 603:/home/simulink/cFS_FreeRTOS_seL4/cfe/fsw/cfe-core/src/es/cfe_es_apps.c **** 
 604:/home/simulink/cFS_FreeRTOS_seL4/cfe/fsw/cfe-core/src/es/cfe_es_apps.c ****                  return(CFE_ES_ERR_APP_CREATE);
 989               	.loc 2 604 0
 990 07c4 203C C400 	move.l #-1006632956,%d0
 990      0004 
 991 07ca 6000 0578 	jra .L57
 992               	.L49:
 605:/home/simulink/cFS_FreeRTOS_seL4/cfe/fsw/cfe-core/src/es/cfe_es_apps.c ****              }
 606:/home/simulink/cFS_FreeRTOS_seL4/cfe/fsw/cfe-core/src/es/cfe_es_apps.c ****           }
 607:/home/simulink/cFS_FreeRTOS_seL4/cfe/fsw/cfe-core/src/es/cfe_es_apps.c ****           else /* load not successful */
 608:/home/simulink/cFS_FreeRTOS_seL4/cfe/fsw/cfe-core/src/es/cfe_es_apps.c ****           {
68K GAS   			page 41


 609:/home/simulink/cFS_FreeRTOS_seL4/cfe/fsw/cfe-core/src/es/cfe_es_apps.c ****               CFE_ES_WriteToSysLog("ES Startup: Could not load cFE application file:%s. EC = 0x%08X
 993               	.loc 2 609 0
 994 07ce 202F 00A0 	move.l 160(%sp),%d0
 995 07d2 2F00      	move.l %d0,-(%sp)
 996               	.cfi_def_cfa_offset 172
 997 07d4 2F2F 00B0 	move.l 176(%sp),-(%sp)
 998               	.cfi_def_cfa_offset 176
 999 07d8 4879 0000 	pea .LC20
 999      0000 
 1000               	.cfi_def_cfa_offset 180
 1001 07de 4EB9 0000 	jsr CFE_ES_WriteToSysLog
 1001      0000 
 1002 07e4 4FEF 000C 	lea (12,%sp),%sp
 1003               	.cfi_def_cfa_offset 168
 610:/home/simulink/cFS_FreeRTOS_seL4/cfe/fsw/cfe-core/src/es/cfe_es_apps.c ****                                 FileName, (unsigned int)ReturnCode);
 611:/home/simulink/cFS_FreeRTOS_seL4/cfe/fsw/cfe-core/src/es/cfe_es_apps.c **** 
 612:/home/simulink/cFS_FreeRTOS_seL4/cfe/fsw/cfe-core/src/es/cfe_es_apps.c ****               CFE_ES_LockSharedData(__func__,__LINE__);
 1004               	.loc 2 612 0
 1005 07e8 4878 0264 	pea 612.w
 1006               	.cfi_def_cfa_offset 172
 1007 07ec 4879 0000 	pea __func__.5819
 1007      0000 
 1008               	.cfi_def_cfa_offset 176
 1009 07f2 4EB9 0000 	jsr CFE_ES_LockSharedData
 1009      0000 
 1010 07f8 508F      	addq.l #8,%sp
 1011               	.cfi_def_cfa_offset 168
 613:/home/simulink/cFS_FreeRTOS_seL4/cfe/fsw/cfe-core/src/es/cfe_es_apps.c ****               CFE_ES_Global.AppTable[i].RecordUsed = FALSE; /* Release slot */
 1012               	.loc 2 613 0
 1013 07fa 202F 009C 	move.l 156(%sp),%d0
 1014 07fe 223C 0000 	move.l #168,%d1
 1014      00A8 
 1015 0804 4C01 0800 	muls.l %d1,%d0
 1016 0808 41F9 0000 	lea CFE_ES_Global+2348,%a0
 1016      0000 
 1017 080e 4202      	clr.b %d2
 1018 0810 1182 0800 	move.b %d2,(%a0,%d0.l)
 614:/home/simulink/cFS_FreeRTOS_seL4/cfe/fsw/cfe-core/src/es/cfe_es_apps.c ****               CFE_ES_UnlockSharedData(__func__,__LINE__);
 1019               	.loc 2 614 0
 1020 0814 4878 0266 	pea 614.w
 1021               	.cfi_def_cfa_offset 172
 1022 0818 4879 0000 	pea __func__.5819
 1022      0000 
 1023               	.cfi_def_cfa_offset 176
 1024 081e 4EB9 0000 	jsr CFE_ES_UnlockSharedData
 1024      0000 
 1025 0824 508F      	addq.l #8,%sp
 1026               	.cfi_def_cfa_offset 168
 615:/home/simulink/cFS_FreeRTOS_seL4/cfe/fsw/cfe-core/src/es/cfe_es_apps.c **** 
 616:/home/simulink/cFS_FreeRTOS_seL4/cfe/fsw/cfe-core/src/es/cfe_es_apps.c ****               return(CFE_ES_ERR_APP_CREATE);
 1027               	.loc 2 616 0
 1028 0826 203C C400 	move.l #-1006632956,%d0
 1028      0004 
 1029 082c 6000 0516 	jra .L57
 1030               	.L42:
 617:/home/simulink/cFS_FreeRTOS_seL4/cfe/fsw/cfe-core/src/es/cfe_es_apps.c ****           }
 618:/home/simulink/cFS_FreeRTOS_seL4/cfe/fsw/cfe-core/src/es/cfe_es_apps.c ****       }
68K GAS   			page 42


 619:/home/simulink/cFS_FreeRTOS_seL4/cfe/fsw/cfe-core/src/es/cfe_es_apps.c ****       else /* Not a dynamic load - app must be statically linked into current exe */
 620:/home/simulink/cFS_FreeRTOS_seL4/cfe/fsw/cfe-core/src/es/cfe_es_apps.c ****       {
 621:/home/simulink/cFS_FreeRTOS_seL4/cfe/fsw/cfe-core/src/es/cfe_es_apps.c ****           StaticEntryPtr = (CFE_ES_AppStaticModuleApi_t *)EntryPointData;
 1031               	.loc 2 621 0
 1032 0830 2F6F 00B0 	move.l 176(%sp),148(%sp)
 1032      0094 
 622:/home/simulink/cFS_FreeRTOS_seL4/cfe/fsw/cfe-core/src/es/cfe_es_apps.c ****           StartAddr = StaticEntryPtr->Ptrs.EntryFuncAddr;
 1033               	.loc 2 622 0
 1034 0836 206F 0094 	move.l 148(%sp),%a0
 1035 083a 2028 0004 	move.l 4(%a0),%d0
 1036 083e 2F40 008C 	move.l %d0,140(%sp)
 623:/home/simulink/cFS_FreeRTOS_seL4/cfe/fsw/cfe-core/src/es/cfe_es_apps.c ****           ModuleId = 0;
 1037               	.loc 2 623 0
 1038 0842 42AF 0084 	clr.l 132(%sp)
 1039               	.L50:
 624:/home/simulink/cFS_FreeRTOS_seL4/cfe/fsw/cfe-core/src/es/cfe_es_apps.c ****       }
 625:/home/simulink/cFS_FreeRTOS_seL4/cfe/fsw/cfe-core/src/es/cfe_es_apps.c **** 
 626:/home/simulink/cFS_FreeRTOS_seL4/cfe/fsw/cfe-core/src/es/cfe_es_apps.c ****       /*
 627:/home/simulink/cFS_FreeRTOS_seL4/cfe/fsw/cfe-core/src/es/cfe_es_apps.c ****       ** If the EntryPoint symbol was found, then start creating the App
 628:/home/simulink/cFS_FreeRTOS_seL4/cfe/fsw/cfe-core/src/es/cfe_es_apps.c ****       */
 629:/home/simulink/cFS_FreeRTOS_seL4/cfe/fsw/cfe-core/src/es/cfe_es_apps.c ****       CFE_ES_LockSharedData(__func__,__LINE__);
 1040               	.loc 2 629 0
 1041 0846 4878 0275 	pea 629.w
 1042               	.cfi_def_cfa_offset 172
 1043 084a 4879 0000 	pea __func__.5819
 1043      0000 
 1044               	.cfi_def_cfa_offset 176
 1045 0850 4EB9 0000 	jsr CFE_ES_LockSharedData
 1045      0000 
 1046 0856 508F      	addq.l #8,%sp
 1047               	.cfi_def_cfa_offset 168
 630:/home/simulink/cFS_FreeRTOS_seL4/cfe/fsw/cfe-core/src/es/cfe_es_apps.c ****       /*
 631:/home/simulink/cFS_FreeRTOS_seL4/cfe/fsw/cfe-core/src/es/cfe_es_apps.c ****       ** Allocate and populate the ES_AppTable entry
 632:/home/simulink/cFS_FreeRTOS_seL4/cfe/fsw/cfe-core/src/es/cfe_es_apps.c ****       */
 633:/home/simulink/cFS_FreeRTOS_seL4/cfe/fsw/cfe-core/src/es/cfe_es_apps.c ****       CFE_PSP_MemSet ( (void *)&(CFE_ES_Global.AppTable[i]), 0, sizeof(CFE_ES_AppRecord_t));
 1048               	.loc 2 633 0
 1049 0858 202F 009C 	move.l 156(%sp),%d0
 1050 085c 223C 0000 	move.l #168,%d1
 1050      00A8 
 1051 0862 4C01 0800 	muls.l %d1,%d0
 1052 0866 0680 0000 	add.l #2348,%d0
 1052      092C 
 1053 086c 0680 0000 	add.l #CFE_ES_Global,%d0
 1053      0000 
 1054 0872 4878 00A8 	pea 168.w
 1055               	.cfi_def_cfa_offset 172
 1056 0876 42A7      	clr.l -(%sp)
 1057               	.cfi_def_cfa_offset 176
 1058 0878 2F00      	move.l %d0,-(%sp)
 1059               	.cfi_def_cfa_offset 180
 1060 087a 4EB9 0000 	jsr CFE_PSP_MemSet
 1060      0000 
 1061 0880 4FEF 000C 	lea (12,%sp),%sp
 1062               	.cfi_def_cfa_offset 168
 634:/home/simulink/cFS_FreeRTOS_seL4/cfe/fsw/cfe-core/src/es/cfe_es_apps.c ****       CFE_ES_Global.AppTable[i].RecordUsed = TRUE;
 1063               	.loc 2 634 0
 1064 0884 202F 009C 	move.l 156(%sp),%d0
68K GAS   			page 43


 1065 0888 243C 0000 	move.l #168,%d2
 1065      00A8 
 1066 088e 4C02 0800 	muls.l %d2,%d0
 1067 0892 41F9 0000 	lea CFE_ES_Global+2348,%a0
 1067      0000 
 1068 0898 7201      	moveq #1,%d1
 1069 089a 1181 0800 	move.b %d1,(%a0,%d0.l)
 635:/home/simulink/cFS_FreeRTOS_seL4/cfe/fsw/cfe-core/src/es/cfe_es_apps.c ****       CFE_ES_Global.AppTable[i].Type = CFE_ES_APP_TYPE_EXTERNAL;
 1070               	.loc 2 635 0
 1071 089e 202F 009C 	move.l 156(%sp),%d0
 1072 08a2 243C 0000 	move.l #168,%d2
 1072      00A8 
 1073 08a8 4C02 0800 	muls.l %d2,%d0
 1074 08ac 41F9 0000 	lea CFE_ES_Global+2352,%a0
 1074      0000 
 1075 08b2 7202      	moveq #2,%d1
 1076 08b4 2181 0800 	move.l %d1,(%a0,%d0.l)
 636:/home/simulink/cFS_FreeRTOS_seL4/cfe/fsw/cfe-core/src/es/cfe_es_apps.c **** 
 637:/home/simulink/cFS_FreeRTOS_seL4/cfe/fsw/cfe-core/src/es/cfe_es_apps.c ****       /*
 638:/home/simulink/cFS_FreeRTOS_seL4/cfe/fsw/cfe-core/src/es/cfe_es_apps.c ****       ** Fill out the parameters in the AppStartParams sub-structure
 639:/home/simulink/cFS_FreeRTOS_seL4/cfe/fsw/cfe-core/src/es/cfe_es_apps.c ****       */
 640:/home/simulink/cFS_FreeRTOS_seL4/cfe/fsw/cfe-core/src/es/cfe_es_apps.c ****       strncpy((char *)CFE_ES_Global.AppTable[i].StartParams.Name, AppName, OS_MAX_API_NAME);
 1077               	.loc 2 640 0
 1078 08b8 202F 009C 	move.l 156(%sp),%d0
 1079 08bc 243C 0000 	move.l #168,%d2
 1079      00A8 
 1080 08c2 4C02 0800 	muls.l %d2,%d0
 1081 08c6 0680 0000 	add.l #2356,%d0
 1081      0934 
 1082 08cc 0680 0000 	add.l #CFE_ES_Global,%d0
 1082      0000 
 1083 08d2 4878 0014 	pea 20.w
 1084               	.cfi_def_cfa_offset 172
 1085 08d6 2F2F 00B8 	move.l 184(%sp),-(%sp)
 1086               	.cfi_def_cfa_offset 176
 1087 08da 2F00      	move.l %d0,-(%sp)
 1088               	.cfi_def_cfa_offset 180
 1089 08dc 4EB9 0000 	jsr strncpy
 1089      0000 
 1090 08e2 4FEF 000C 	lea (12,%sp),%sp
 1091               	.cfi_def_cfa_offset 168
 641:/home/simulink/cFS_FreeRTOS_seL4/cfe/fsw/cfe-core/src/es/cfe_es_apps.c ****       CFE_ES_Global.AppTable[i].StartParams.Name[OS_MAX_API_NAME - 1] = '\0';
 1092               	.loc 2 641 0
 1093 08e6 202F 009C 	move.l 156(%sp),%d0
 1094 08ea 223C 0000 	move.l #168,%d1
 1094      00A8 
 1095 08f0 4C01 0800 	muls.l %d1,%d0
 1096 08f4 41F9 0000 	lea CFE_ES_Global+2375,%a0
 1096      0000 
 1097 08fa 4202      	clr.b %d2
 1098 08fc 1182 0800 	move.b %d2,(%a0,%d0.l)
 642:/home/simulink/cFS_FreeRTOS_seL4/cfe/fsw/cfe-core/src/es/cfe_es_apps.c **** 
 643:/home/simulink/cFS_FreeRTOS_seL4/cfe/fsw/cfe-core/src/es/cfe_es_apps.c ****       if (StaticEntryPtr != NULL)
 1099               	.loc 2 643 0
 1100 0900 4AAF 0094 	tst.l 148(%sp)
 1101 0904 6738      	jeq .L51
 644:/home/simulink/cFS_FreeRTOS_seL4/cfe/fsw/cfe-core/src/es/cfe_es_apps.c ****       {
68K GAS   			page 44


 645:/home/simulink/cFS_FreeRTOS_seL4/cfe/fsw/cfe-core/src/es/cfe_es_apps.c ****          /* Leave entry point / filename blank if static load entry */
 646:/home/simulink/cFS_FreeRTOS_seL4/cfe/fsw/cfe-core/src/es/cfe_es_apps.c ****          CFE_ES_Global.AppTable[i].StartParams.EntryPoint[0] = 0;
 1102               	.loc 2 646 0
 1103 0906 202F 009C 	move.l 156(%sp),%d0
 1104 090a 223C 0000 	move.l #168,%d1
 1104      00A8 
 1105 0910 4C01 0800 	muls.l %d1,%d0
 1106 0914 41F9 0000 	lea CFE_ES_Global+2376,%a0
 1106      0000 
 1107 091a 4202      	clr.b %d2
 1108 091c 1182 0800 	move.b %d2,(%a0,%d0.l)
 647:/home/simulink/cFS_FreeRTOS_seL4/cfe/fsw/cfe-core/src/es/cfe_es_apps.c ****          CFE_ES_Global.AppTable[i].StartParams.FileName[0] = 0;
 1109               	.loc 2 647 0
 1110 0920 202F 009C 	move.l 156(%sp),%d0
 1111 0924 223C 0000 	move.l #168,%d1
 1111      00A8 
 1112 092a 4C01 0800 	muls.l %d1,%d0
 1113 092e 41F9 0000 	lea CFE_ES_Global+2396,%a0
 1113      0000 
 1114 0934 4202      	clr.b %d2
 1115 0936 1182 0800 	move.b %d2,(%a0,%d0.l)
 1116 093a 6000 0092 	jra .L52
 1117               	.L51:
 648:/home/simulink/cFS_FreeRTOS_seL4/cfe/fsw/cfe-core/src/es/cfe_es_apps.c ****       }
 649:/home/simulink/cFS_FreeRTOS_seL4/cfe/fsw/cfe-core/src/es/cfe_es_apps.c ****       else
 650:/home/simulink/cFS_FreeRTOS_seL4/cfe/fsw/cfe-core/src/es/cfe_es_apps.c ****       {
 651:/home/simulink/cFS_FreeRTOS_seL4/cfe/fsw/cfe-core/src/es/cfe_es_apps.c ****          strncpy((char *)CFE_ES_Global.AppTable[i].StartParams.EntryPoint, (const char *)EntryPoint
 1118               	.loc 2 651 0
 1119 093e 202F 009C 	move.l 156(%sp),%d0
 1120 0942 223C 0000 	move.l #168,%d1
 1120      00A8 
 1121 0948 4C01 0800 	muls.l %d1,%d0
 1122 094c 0680 0000 	add.l #2376,%d0
 1122      0948 
 1123 0952 0680 0000 	add.l #CFE_ES_Global,%d0
 1123      0000 
 1124 0958 4878 0014 	pea 20.w
 1125               	.cfi_def_cfa_offset 172
 1126 095c 2F2F 00B4 	move.l 180(%sp),-(%sp)
 1127               	.cfi_def_cfa_offset 176
 1128 0960 2F00      	move.l %d0,-(%sp)
 1129               	.cfi_def_cfa_offset 180
 1130 0962 4EB9 0000 	jsr strncpy
 1130      0000 
 1131 0968 4FEF 000C 	lea (12,%sp),%sp
 1132               	.cfi_def_cfa_offset 168
 652:/home/simulink/cFS_FreeRTOS_seL4/cfe/fsw/cfe-core/src/es/cfe_es_apps.c ****          CFE_ES_Global.AppTable[i].StartParams.EntryPoint[OS_MAX_API_NAME - 1] = '\0';
 1133               	.loc 2 652 0
 1134 096c 202F 009C 	move.l 156(%sp),%d0
 1135 0970 243C 0000 	move.l #168,%d2
 1135      00A8 
 1136 0976 4C02 0800 	muls.l %d2,%d0
 1137 097a 41F9 0000 	lea CFE_ES_Global+2395,%a0
 1137      0000 
 1138 0980 4201      	clr.b %d1
 1139 0982 1181 0800 	move.b %d1,(%a0,%d0.l)
 653:/home/simulink/cFS_FreeRTOS_seL4/cfe/fsw/cfe-core/src/es/cfe_es_apps.c ****          strncpy((char *)CFE_ES_Global.AppTable[i].StartParams.FileName, FileName, OS_MAX_PATH_LEN)
68K GAS   			page 45


 1140               	.loc 2 653 0
 1141 0986 202F 009C 	move.l 156(%sp),%d0
 1142 098a 243C 0000 	move.l #168,%d2
 1142      00A8 
 1143 0990 4C02 0800 	muls.l %d2,%d0
 1144 0994 0680 0000 	add.l #2396,%d0
 1144      095C 
 1145 099a 0680 0000 	add.l #CFE_ES_Global,%d0
 1145      0000 
 1146 09a0 4878 0040 	pea 64.w
 1147               	.cfi_def_cfa_offset 172
 1148 09a4 2F2F 00B0 	move.l 176(%sp),-(%sp)
 1149               	.cfi_def_cfa_offset 176
 1150 09a8 2F00      	move.l %d0,-(%sp)
 1151               	.cfi_def_cfa_offset 180
 1152 09aa 4EB9 0000 	jsr strncpy
 1152      0000 
 1153 09b0 4FEF 000C 	lea (12,%sp),%sp
 1154               	.cfi_def_cfa_offset 168
 654:/home/simulink/cFS_FreeRTOS_seL4/cfe/fsw/cfe-core/src/es/cfe_es_apps.c ****          CFE_ES_Global.AppTable[i].StartParams.FileName[OS_MAX_PATH_LEN - 1] = '\0';
 1155               	.loc 2 654 0
 1156 09b4 202F 009C 	move.l 156(%sp),%d0
 1157 09b8 223C 0000 	move.l #168,%d1
 1157      00A8 
 1158 09be 4C01 0800 	muls.l %d1,%d0
 1159 09c2 41F9 0000 	lea CFE_ES_Global+2459,%a0
 1159      0000 
 1160 09c8 4202      	clr.b %d2
 1161 09ca 1182 0800 	move.b %d2,(%a0,%d0.l)
 1162               	.L52:
 655:/home/simulink/cFS_FreeRTOS_seL4/cfe/fsw/cfe-core/src/es/cfe_es_apps.c ****       }
 656:/home/simulink/cFS_FreeRTOS_seL4/cfe/fsw/cfe-core/src/es/cfe_es_apps.c **** 
 657:/home/simulink/cFS_FreeRTOS_seL4/cfe/fsw/cfe-core/src/es/cfe_es_apps.c ****       CFE_ES_Global.AppTable[i].StartParams.StackSize = StackSize;
 1163               	.loc 2 657 0
 1164 09ce 202F 009C 	move.l 156(%sp),%d0
 1165 09d2 223C 0000 	move.l #168,%d1
 1165      00A8 
 1166 09d8 4C01 0800 	muls.l %d1,%d0
 1167 09dc 41F9 0000 	lea CFE_ES_Global+2460,%a0
 1167      0000 
 1168 09e2 43EF 00BC 	lea (188,%sp),%a1
 1169 09e6 2191 0800 	move.l (%a1),(%a0,%d0.l)
 658:/home/simulink/cFS_FreeRTOS_seL4/cfe/fsw/cfe-core/src/es/cfe_es_apps.c **** 
 659:/home/simulink/cFS_FreeRTOS_seL4/cfe/fsw/cfe-core/src/es/cfe_es_apps.c ****       CFE_ES_Global.AppTable[i].StartParams.StartAddress = StartAddr;
 1170               	.loc 2 659 0
 1171 09ea 222F 008C 	move.l 140(%sp),%d1
 1172 09ee 202F 009C 	move.l 156(%sp),%d0
 1173 09f2 243C 0000 	move.l #168,%d2
 1173      00A8 
 1174 09f8 4C02 0800 	muls.l %d2,%d0
 1175 09fc 41F9 0000 	lea CFE_ES_Global+2464,%a0
 1175      0000 
 1176 0a02 2181 0800 	move.l %d1,(%a0,%d0.l)
 660:/home/simulink/cFS_FreeRTOS_seL4/cfe/fsw/cfe-core/src/es/cfe_es_apps.c ****       CFE_ES_Global.AppTable[i].StartParams.ModuleId = ModuleId;
 1177               	.loc 2 660 0
 1178 0a06 222F 0084 	move.l 132(%sp),%d1
 1179 0a0a 202F 009C 	move.l 156(%sp),%d0
68K GAS   			page 46


 1180 0a0e 243C 0000 	move.l #168,%d2
 1180      00A8 
 1181 0a14 4C02 0800 	muls.l %d2,%d0
 1182 0a18 41F9 0000 	lea CFE_ES_Global+2468,%a0
 1182      0000 
 1183 0a1e 2181 0800 	move.l %d1,(%a0,%d0.l)
 661:/home/simulink/cFS_FreeRTOS_seL4/cfe/fsw/cfe-core/src/es/cfe_es_apps.c **** 
 662:/home/simulink/cFS_FreeRTOS_seL4/cfe/fsw/cfe-core/src/es/cfe_es_apps.c ****       CFE_ES_Global.AppTable[i].StartParams.ExceptionAction = ExceptionAction;
 1184               	.loc 2 662 0
 1185 0a22 202F 00C0 	move.l 192(%sp),%d0
 1186 0a26 3200      	move.w %d0,%d1
 1187 0a28 202F 009C 	move.l 156(%sp),%d0
 1188 0a2c 243C 0000 	move.l #168,%d2
 1188      00A8 
 1189 0a32 4C02 0800 	muls.l %d2,%d0
 1190 0a36 41F9 0000 	lea CFE_ES_Global+2472,%a0
 1190      0000 
 1191 0a3c 3181 0800 	move.w %d1,(%a0,%d0.l)
 663:/home/simulink/cFS_FreeRTOS_seL4/cfe/fsw/cfe-core/src/es/cfe_es_apps.c ****       CFE_ES_Global.AppTable[i].StartParams.Priority = Priority;
 1192               	.loc 2 663 0
 1193 0a40 202F 00B8 	move.l 184(%sp),%d0
 1194 0a44 3200      	move.w %d0,%d1
 1195 0a46 202F 009C 	move.l 156(%sp),%d0
 1196 0a4a 243C 0000 	move.l #168,%d2
 1196      00A8 
 1197 0a50 4C02 0800 	muls.l %d2,%d0
 1198 0a54 41F9 0000 	lea CFE_ES_Global+2474,%a0
 1198      0000 
 1199 0a5a 3181 0800 	move.w %d1,(%a0,%d0.l)
 664:/home/simulink/cFS_FreeRTOS_seL4/cfe/fsw/cfe-core/src/es/cfe_es_apps.c **** 
 665:/home/simulink/cFS_FreeRTOS_seL4/cfe/fsw/cfe-core/src/es/cfe_es_apps.c ****       /*
 666:/home/simulink/cFS_FreeRTOS_seL4/cfe/fsw/cfe-core/src/es/cfe_es_apps.c ****       ** Fill out the Task Info
 667:/home/simulink/cFS_FreeRTOS_seL4/cfe/fsw/cfe-core/src/es/cfe_es_apps.c ****       */
 668:/home/simulink/cFS_FreeRTOS_seL4/cfe/fsw/cfe-core/src/es/cfe_es_apps.c ****       strncpy((char *)CFE_ES_Global.AppTable[i].TaskInfo.MainTaskName, AppName, OS_MAX_API_NAME);
 1200               	.loc 2 668 0
 1201 0a5e 202F 009C 	move.l 156(%sp),%d0
 1202 0a62 223C 0000 	move.l #168,%d1
 1202      00A8 
 1203 0a68 4C01 0800 	muls.l %d1,%d0
 1204 0a6c 0680 0000 	add.l #2492,%d0
 1204      09BC 
 1205 0a72 0680 0000 	add.l #CFE_ES_Global,%d0
 1205      0000 
 1206 0a78 4878 0014 	pea 20.w
 1207               	.cfi_def_cfa_offset 172
 1208 0a7c 2F2F 00B8 	move.l 184(%sp),-(%sp)
 1209               	.cfi_def_cfa_offset 176
 1210 0a80 2F00      	move.l %d0,-(%sp)
 1211               	.cfi_def_cfa_offset 180
 1212 0a82 4EB9 0000 	jsr strncpy
 1212      0000 
 1213 0a88 4FEF 000C 	lea (12,%sp),%sp
 1214               	.cfi_def_cfa_offset 168
 669:/home/simulink/cFS_FreeRTOS_seL4/cfe/fsw/cfe-core/src/es/cfe_es_apps.c ****       CFE_ES_Global.AppTable[i].TaskInfo.MainTaskName[OS_MAX_API_NAME - 1] = '\0';
 1215               	.loc 2 669 0
 1216 0a8c 202F 009C 	move.l 156(%sp),%d0
 1217 0a90 243C 0000 	move.l #168,%d2
68K GAS   			page 47


 1217      00A8 
 1218 0a96 4C02 0800 	muls.l %d2,%d0
 1219 0a9a 41F9 0000 	lea CFE_ES_Global+2511,%a0
 1219      0000 
 1220 0aa0 4201      	clr.b %d1
 1221 0aa2 1181 0800 	move.b %d1,(%a0,%d0.l)
 670:/home/simulink/cFS_FreeRTOS_seL4/cfe/fsw/cfe-core/src/es/cfe_es_apps.c ****       CFE_ES_Global.AppTable[i].TaskInfo.NumOfChildTasks = 0;
 1222               	.loc 2 670 0
 1223 0aa6 202F 009C 	move.l 156(%sp),%d0
 1224 0aaa 243C 0000 	move.l #168,%d2
 1224      00A8 
 1225 0ab0 4C02 0800 	muls.l %d2,%d0
 1226 0ab4 41F9 0000 	lea CFE_ES_Global+2512,%a0
 1226      0000 
 1227 0aba 42B0 0800 	clr.l (%a0,%d0.l)
 671:/home/simulink/cFS_FreeRTOS_seL4/cfe/fsw/cfe-core/src/es/cfe_es_apps.c **** 
 672:/home/simulink/cFS_FreeRTOS_seL4/cfe/fsw/cfe-core/src/es/cfe_es_apps.c ****       /*
 673:/home/simulink/cFS_FreeRTOS_seL4/cfe/fsw/cfe-core/src/es/cfe_es_apps.c ****       ** Increment the app started counter. This is used in the startup sync
 674:/home/simulink/cFS_FreeRTOS_seL4/cfe/fsw/cfe-core/src/es/cfe_es_apps.c ****       ** code.
 675:/home/simulink/cFS_FreeRTOS_seL4/cfe/fsw/cfe-core/src/es/cfe_es_apps.c ****       */
 676:/home/simulink/cFS_FreeRTOS_seL4/cfe/fsw/cfe-core/src/es/cfe_es_apps.c ****       ++CFE_ES_Global.AppStartedCount;
 1228               	.loc 2 676 0
 1229 0abe 2039 0000 	move.l CFE_ES_Global+20,%d0
 1229      0000 
 1230 0ac4 5280      	addq.l #1,%d0
 1231 0ac6 23C0 0000 	move.l %d0,CFE_ES_Global+20
 1231      0000 
 677:/home/simulink/cFS_FreeRTOS_seL4/cfe/fsw/cfe-core/src/es/cfe_es_apps.c **** 
 678:/home/simulink/cFS_FreeRTOS_seL4/cfe/fsw/cfe-core/src/es/cfe_es_apps.c ****       /*
 679:/home/simulink/cFS_FreeRTOS_seL4/cfe/fsw/cfe-core/src/es/cfe_es_apps.c ****       ** Fill out the Task State info
 680:/home/simulink/cFS_FreeRTOS_seL4/cfe/fsw/cfe-core/src/es/cfe_es_apps.c ****       */
 681:/home/simulink/cFS_FreeRTOS_seL4/cfe/fsw/cfe-core/src/es/cfe_es_apps.c ****       CFE_ES_Global.AppTable[i].StateRecord.AppControlRequest = CFE_ES_RUNSTATUS_APP_RUN;
 1232               	.loc 2 681 0
 1233 0acc 202F 009C 	move.l 156(%sp),%d0
 1234 0ad0 223C 0000 	move.l #168,%d1
 1234      00A8 
 1235 0ad6 4C01 0800 	muls.l %d1,%d0
 1236 0ada 41F9 0000 	lea CFE_ES_Global+2476,%a0
 1236      0000 
 1237 0ae0 7401      	moveq #1,%d2
 1238 0ae2 2182 0800 	move.l %d2,(%a0,%d0.l)
 682:/home/simulink/cFS_FreeRTOS_seL4/cfe/fsw/cfe-core/src/es/cfe_es_apps.c ****       CFE_ES_Global.AppTable[i].StateRecord.AppState = CFE_ES_APP_STATE_INITIALIZING;
 1239               	.loc 2 682 0
 1240 0ae6 202F 009C 	move.l 156(%sp),%d0
 1241 0aea 223C 0000 	move.l #168,%d1
 1241      00A8 
 1242 0af0 4C01 0800 	muls.l %d1,%d0
 1243 0af4 41F9 0000 	lea CFE_ES_Global+2480,%a0
 1243      0000 
 1244 0afa 7404      	moveq #4,%d2
 1245 0afc 2182 0800 	move.l %d2,(%a0,%d0.l)
 683:/home/simulink/cFS_FreeRTOS_seL4/cfe/fsw/cfe-core/src/es/cfe_es_apps.c ****       CFE_ES_Global.AppTable[i].StateRecord.AppTimer = 0;
 1246               	.loc 2 683 0
 1247 0b00 202F 009C 	move.l 156(%sp),%d0
 1248 0b04 223C 0000 	move.l #168,%d1
 1248      00A8 
 1249 0b0a 4C01 0800 	muls.l %d1,%d0
68K GAS   			page 48


 1250 0b0e 41F9 0000 	lea CFE_ES_Global+2484,%a0
 1250      0000 
 1251 0b14 42B0 0800 	clr.l (%a0,%d0.l)
 684:/home/simulink/cFS_FreeRTOS_seL4/cfe/fsw/cfe-core/src/es/cfe_es_apps.c **** 
 685:/home/simulink/cFS_FreeRTOS_seL4/cfe/fsw/cfe-core/src/es/cfe_es_apps.c ****       /*
 686:/home/simulink/cFS_FreeRTOS_seL4/cfe/fsw/cfe-core/src/es/cfe_es_apps.c ****       ** Create the primary task for the newly loaded task
 687:/home/simulink/cFS_FreeRTOS_seL4/cfe/fsw/cfe-core/src/es/cfe_es_apps.c ****       */
 688:/home/simulink/cFS_FreeRTOS_seL4/cfe/fsw/cfe-core/src/es/cfe_es_apps.c ****       ReturnCode = OS_TaskCreate(&CFE_ES_Global.AppTable[i].TaskInfo.MainTaskId,   /* task id */
 1252               	.loc 2 688 0
 1253 0b18 202F 008C 	move.l 140(%sp),%d0
 1254 0b1c 2200      	move.l %d0,%d1
 1255 0b1e 202F 009C 	move.l 156(%sp),%d0
 1256 0b22 243C 0000 	move.l #168,%d2
 1256      00A8 
 1257 0b28 4C02 0800 	muls.l %d2,%d0
 1258 0b2c 0680 0000 	add.l #2488,%d0
 1258      09B8 
 1259 0b32 0680 0000 	add.l #CFE_ES_Global,%d0
 1259      0000 
 1260 0b38 4878 0001 	pea 1.w
 1261               	.cfi_def_cfa_offset 172
 1262 0b3c 2F2F 00BC 	move.l 188(%sp),-(%sp)
 1263               	.cfi_def_cfa_offset 176
 1264 0b40 2F2F 00C4 	move.l 196(%sp),-(%sp)
 1265               	.cfi_def_cfa_offset 180
 1266 0b44 42A7      	clr.l -(%sp)
 1267               	.cfi_def_cfa_offset 184
 1268 0b46 2F01      	move.l %d1,-(%sp)
 1269               	.cfi_def_cfa_offset 188
 1270 0b48 2F2F 00C8 	move.l 200(%sp),-(%sp)
 1271               	.cfi_def_cfa_offset 192
 1272 0b4c 2F00      	move.l %d0,-(%sp)
 1273               	.cfi_def_cfa_offset 196
 1274 0b4e 4EB9 0000 	jsr OS_TaskCreate
 1274      0000 
 1275 0b54 4FEF 001C 	lea (28,%sp),%sp
 1276               	.cfi_def_cfa_offset 168
 1277 0b58 2F40 00A0 	move.l %d0,160(%sp)
 689:/home/simulink/cFS_FreeRTOS_seL4/cfe/fsw/cfe-core/src/es/cfe_es_apps.c ****                        AppName,             /* task name */
 690:/home/simulink/cFS_FreeRTOS_seL4/cfe/fsw/cfe-core/src/es/cfe_es_apps.c ****                        (osal_task_entry)StartAddr,   /* task function pointer */
 691:/home/simulink/cFS_FreeRTOS_seL4/cfe/fsw/cfe-core/src/es/cfe_es_apps.c ****                        NULL,                /* stack pointer */
 692:/home/simulink/cFS_FreeRTOS_seL4/cfe/fsw/cfe-core/src/es/cfe_es_apps.c ****                        StackSize,           /* stack size */
 693:/home/simulink/cFS_FreeRTOS_seL4/cfe/fsw/cfe-core/src/es/cfe_es_apps.c ****                        Priority,            /* task priority */
 694:/home/simulink/cFS_FreeRTOS_seL4/cfe/fsw/cfe-core/src/es/cfe_es_apps.c ****                        OS_FP_ENABLED);     /* task options */
 695:/home/simulink/cFS_FreeRTOS_seL4/cfe/fsw/cfe-core/src/es/cfe_es_apps.c **** 
 696:/home/simulink/cFS_FreeRTOS_seL4/cfe/fsw/cfe-core/src/es/cfe_es_apps.c **** 
 697:/home/simulink/cFS_FreeRTOS_seL4/cfe/fsw/cfe-core/src/es/cfe_es_apps.c ****       if(ReturnCode != OS_SUCCESS)
 1278               	.loc 2 697 0
 1279 0b5c 4AAF 00A0 	tst.l 160(%sp)
 1280 0b60 6750      	jeq .L53
 698:/home/simulink/cFS_FreeRTOS_seL4/cfe/fsw/cfe-core/src/es/cfe_es_apps.c ****       {
 699:/home/simulink/cFS_FreeRTOS_seL4/cfe/fsw/cfe-core/src/es/cfe_es_apps.c ****          CFE_ES_WriteToSysLog("ES Startup: AppCreate Error: TaskCreate %s Failed. EC = 0x%08X!\n",
 1281               	.loc 2 699 0
 1282 0b62 202F 00A0 	move.l 160(%sp),%d0
 1283 0b66 2F00      	move.l %d0,-(%sp)
 1284               	.cfi_def_cfa_offset 172
 1285 0b68 2F2F 00B8 	move.l 184(%sp),-(%sp)
68K GAS   			page 49


 1286               	.cfi_def_cfa_offset 176
 1287 0b6c 4879 0000 	pea .LC21
 1287      0000 
 1288               	.cfi_def_cfa_offset 180
 1289 0b72 4EB9 0000 	jsr CFE_ES_WriteToSysLog
 1289      0000 
 1290 0b78 4FEF 000C 	lea (12,%sp),%sp
 1291               	.cfi_def_cfa_offset 168
 700:/home/simulink/cFS_FreeRTOS_seL4/cfe/fsw/cfe-core/src/es/cfe_es_apps.c ****                        AppName,(unsigned int)ReturnCode);
 701:/home/simulink/cFS_FreeRTOS_seL4/cfe/fsw/cfe-core/src/es/cfe_es_apps.c **** 
 702:/home/simulink/cFS_FreeRTOS_seL4/cfe/fsw/cfe-core/src/es/cfe_es_apps.c ****          CFE_ES_Global.AppTable[i].RecordUsed = FALSE;
 1292               	.loc 2 702 0
 1293 0b7c 202F 009C 	move.l 156(%sp),%d0
 1294 0b80 223C 0000 	move.l #168,%d1
 1294      00A8 
 1295 0b86 4C01 0800 	muls.l %d1,%d0
 1296 0b8a 41F9 0000 	lea CFE_ES_Global+2348,%a0
 1296      0000 
 1297 0b90 4202      	clr.b %d2
 1298 0b92 1182 0800 	move.b %d2,(%a0,%d0.l)
 703:/home/simulink/cFS_FreeRTOS_seL4/cfe/fsw/cfe-core/src/es/cfe_es_apps.c ****          CFE_ES_UnlockSharedData(__func__,__LINE__);
 1299               	.loc 2 703 0
 1300 0b96 4878 02BF 	pea 703.w
 1301               	.cfi_def_cfa_offset 172
 1302 0b9a 4879 0000 	pea __func__.5819
 1302      0000 
 1303               	.cfi_def_cfa_offset 176
 1304 0ba0 4EB9 0000 	jsr CFE_ES_UnlockSharedData
 1304      0000 
 1305 0ba6 508F      	addq.l #8,%sp
 1306               	.cfi_def_cfa_offset 168
 704:/home/simulink/cFS_FreeRTOS_seL4/cfe/fsw/cfe-core/src/es/cfe_es_apps.c **** 
 705:/home/simulink/cFS_FreeRTOS_seL4/cfe/fsw/cfe-core/src/es/cfe_es_apps.c ****          return(CFE_ES_ERR_APP_CREATE);
 1307               	.loc 2 705 0
 1308 0ba8 203C C400 	move.l #-1006632956,%d0
 1308      0004 
 1309 0bae 6000 0194 	jra .L57
 1310               	.L53:
 706:/home/simulink/cFS_FreeRTOS_seL4/cfe/fsw/cfe-core/src/es/cfe_es_apps.c ****       }
 707:/home/simulink/cFS_FreeRTOS_seL4/cfe/fsw/cfe-core/src/es/cfe_es_apps.c ****       else
 708:/home/simulink/cFS_FreeRTOS_seL4/cfe/fsw/cfe-core/src/es/cfe_es_apps.c ****       {
 709:/home/simulink/cFS_FreeRTOS_seL4/cfe/fsw/cfe-core/src/es/cfe_es_apps.c **** 
 710:/home/simulink/cFS_FreeRTOS_seL4/cfe/fsw/cfe-core/src/es/cfe_es_apps.c ****          /*
 711:/home/simulink/cFS_FreeRTOS_seL4/cfe/fsw/cfe-core/src/es/cfe_es_apps.c ****          ** Record the ES_TaskTable entry
 712:/home/simulink/cFS_FreeRTOS_seL4/cfe/fsw/cfe-core/src/es/cfe_es_apps.c ****          */
 713:/home/simulink/cFS_FreeRTOS_seL4/cfe/fsw/cfe-core/src/es/cfe_es_apps.c ****          OS_ConvertToArrayIndex(CFE_ES_Global.AppTable[i].TaskInfo.MainTaskId, &TaskId);
 1311               	.loc 2 713 0
 1312 0bb2 202F 009C 	move.l 156(%sp),%d0
 1313 0bb6 223C 0000 	move.l #168,%d1
 1313      00A8 
 1314 0bbc 4C01 0800 	muls.l %d1,%d0
 1315 0bc0 41F9 0000 	lea CFE_ES_Global+2488,%a0
 1315      0000 
 1316 0bc6 2230 0800 	move.l (%a0,%d0.l),%d1
 1317 0bca 200F      	move.l %sp,%d0
 1318 0bcc 0680 0000 	add.l #136,%d0
 1318      0088 
68K GAS   			page 50


 1319 0bd2 2F00      	move.l %d0,-(%sp)
 1320               	.cfi_def_cfa_offset 172
 1321 0bd4 2F01      	move.l %d1,-(%sp)
 1322               	.cfi_def_cfa_offset 176
 1323 0bd6 4EBA F428 	jsr OS_ConvertToArrayIndex
 1324 0bda 508F      	addq.l #8,%sp
 1325               	.cfi_def_cfa_offset 168
 714:/home/simulink/cFS_FreeRTOS_seL4/cfe/fsw/cfe-core/src/es/cfe_es_apps.c **** 
 715:/home/simulink/cFS_FreeRTOS_seL4/cfe/fsw/cfe-core/src/es/cfe_es_apps.c ****          if ( CFE_ES_Global.TaskTable[TaskId].RecordUsed == TRUE )
 1326               	.loc 2 715 0
 1327 0bdc 202F 0088 	move.l 136(%sp),%d0
 1328 0be0 5280      	addq.l #1,%d0
 1329 0be2 7424      	moveq #36,%d2
 1330 0be4 4C02 0800 	muls.l %d2,%d0
 1331 0be8 41F9 0000 	lea CFE_ES_Global,%a0
 1331      0000 
 1332 0bee 1030 0800 	move.b (%a0,%d0.l),%d0
 1333 0bf2 1000      	move.b %d0,%d0
 1334 0bf4 0280 0000 	and.l #255,%d0
 1334      00FF 
 1335 0bfa 7201      	moveq #1,%d1
 1336 0bfc B280      	cmp.l %d0,%d1
 1337 0bfe 6610      	jne .L54
 716:/home/simulink/cFS_FreeRTOS_seL4/cfe/fsw/cfe-core/src/es/cfe_es_apps.c ****          {
 717:/home/simulink/cFS_FreeRTOS_seL4/cfe/fsw/cfe-core/src/es/cfe_es_apps.c ****             CFE_ES_WriteToSysLog("ES Startup: Error: ES_TaskTable slot in use at task creation!\n")
 1338               	.loc 2 717 0
 1339 0c00 4879 0000 	pea .LC22
 1339      0000 
 1340               	.cfi_def_cfa_offset 172
 1341 0c06 4EB9 0000 	jsr CFE_ES_WriteToSysLog
 1341      0000 
 1342 0c0c 588F      	addq.l #4,%sp
 1343               	.cfi_def_cfa_offset 168
 1344 0c0e 6018      	jra .L55
 1345               	.L54:
 718:/home/simulink/cFS_FreeRTOS_seL4/cfe/fsw/cfe-core/src/es/cfe_es_apps.c ****          }
 719:/home/simulink/cFS_FreeRTOS_seL4/cfe/fsw/cfe-core/src/es/cfe_es_apps.c ****          else
 720:/home/simulink/cFS_FreeRTOS_seL4/cfe/fsw/cfe-core/src/es/cfe_es_apps.c ****          {
 721:/home/simulink/cFS_FreeRTOS_seL4/cfe/fsw/cfe-core/src/es/cfe_es_apps.c ****             CFE_ES_Global.TaskTable[TaskId].RecordUsed = TRUE;
 1346               	.loc 2 721 0
 1347 0c10 202F 0088 	move.l 136(%sp),%d0
 1348 0c14 5280      	addq.l #1,%d0
 1349 0c16 7424      	moveq #36,%d2
 1350 0c18 4C02 0800 	muls.l %d2,%d0
 1351 0c1c 41F9 0000 	lea CFE_ES_Global,%a0
 1351      0000 
 1352 0c22 7201      	moveq #1,%d1
 1353 0c24 1181 0800 	move.b %d1,(%a0,%d0.l)
 1354               	.L55:
 722:/home/simulink/cFS_FreeRTOS_seL4/cfe/fsw/cfe-core/src/es/cfe_es_apps.c ****          }
 723:/home/simulink/cFS_FreeRTOS_seL4/cfe/fsw/cfe-core/src/es/cfe_es_apps.c ****          CFE_ES_Global.TaskTable[TaskId].AppId = i;
 1355               	.loc 2 723 0
 1356 0c28 202F 0088 	move.l 136(%sp),%d0
 1357 0c2c 7424      	moveq #36,%d2
 1358 0c2e 4C02 0800 	muls.l %d2,%d0
 1359 0c32 41F9 0000 	lea CFE_ES_Global+40,%a0
 1359      0000 
68K GAS   			page 51


 1360 0c38 43EF 009C 	lea (156,%sp),%a1
 1361 0c3c 2191 0800 	move.l (%a1),(%a0,%d0.l)
 724:/home/simulink/cFS_FreeRTOS_seL4/cfe/fsw/cfe-core/src/es/cfe_es_apps.c ****          CFE_ES_Global.TaskTable[TaskId].TaskId = CFE_ES_Global.AppTable[i].TaskInfo.MainTaskId;
 1362               	.loc 2 724 0
 1363 0c40 242F 0088 	move.l 136(%sp),%d2
 1364 0c44 202F 009C 	move.l 156(%sp),%d0
 1365 0c48 223C 0000 	move.l #168,%d1
 1365      00A8 
 1366 0c4e 4C01 0800 	muls.l %d1,%d0
 1367 0c52 41F9 0000 	lea CFE_ES_Global+2488,%a0
 1367      0000 
 1368 0c58 2230 0800 	move.l (%a0,%d0.l),%d1
 1369 0c5c 7024      	moveq #36,%d0
 1370 0c5e 4C02 0800 	muls.l %d2,%d0
 1371 0c62 41F9 0000 	lea CFE_ES_Global+44,%a0
 1371      0000 
 1372 0c68 2181 0800 	move.l %d1,(%a0,%d0.l)
 725:/home/simulink/cFS_FreeRTOS_seL4/cfe/fsw/cfe-core/src/es/cfe_es_apps.c ****          strncpy((char *)CFE_ES_Global.TaskTable[TaskId].TaskName,
 726:/home/simulink/cFS_FreeRTOS_seL4/cfe/fsw/cfe-core/src/es/cfe_es_apps.c ****              (char *)CFE_ES_Global.AppTable[i].TaskInfo.MainTaskName,OS_MAX_API_NAME );
 1373               	.loc 2 726 0
 1374 0c6c 202F 009C 	move.l 156(%sp),%d0
 1375 0c70 243C 0000 	move.l #168,%d2
 1375      00A8 
 1376 0c76 4C02 0800 	muls.l %d2,%d0
 1377 0c7a 0680 0000 	add.l #2492,%d0
 1377      09BC 
 1378 0c80 2200      	move.l %d0,%d1
 1379 0c82 0681 0000 	add.l #CFE_ES_Global,%d1
 1379      0000 
 725:/home/simulink/cFS_FreeRTOS_seL4/cfe/fsw/cfe-core/src/es/cfe_es_apps.c ****          strncpy((char *)CFE_ES_Global.TaskTable[TaskId].TaskName,
 1380               	.loc 2 725 0
 1381 0c88 202F 0088 	move.l 136(%sp),%d0
 1382 0c8c 7424      	moveq #36,%d2
 1383 0c8e 4C02 0800 	muls.l %d2,%d0
 1384 0c92 0680 0000 	add.l #52,%d0
 1384      0034 
 1385 0c98 0680 0000 	add.l #CFE_ES_Global,%d0
 1385      0000 
 1386 0c9e 4878 0014 	pea 20.w
 1387               	.cfi_def_cfa_offset 172
 1388 0ca2 2F01      	move.l %d1,-(%sp)
 1389               	.cfi_def_cfa_offset 176
 1390 0ca4 2F00      	move.l %d0,-(%sp)
 1391               	.cfi_def_cfa_offset 180
 1392 0ca6 4EB9 0000 	jsr strncpy
 1392      0000 
 1393 0cac 4FEF 000C 	lea (12,%sp),%sp
 1394               	.cfi_def_cfa_offset 168
 727:/home/simulink/cFS_FreeRTOS_seL4/cfe/fsw/cfe-core/src/es/cfe_es_apps.c ****          CFE_ES_Global.TaskTable[TaskId].TaskName[OS_MAX_API_NAME - 1]='\0';
 1395               	.loc 2 727 0
 1396 0cb0 202F 0088 	move.l 136(%sp),%d0
 1397 0cb4 7224      	moveq #36,%d1
 1398 0cb6 4C01 0800 	muls.l %d1,%d0
 1399 0cba 41F9 0000 	lea CFE_ES_Global+71,%a0
 1399      0000 
 1400 0cc0 4202      	clr.b %d2
 1401 0cc2 1182 0800 	move.b %d2,(%a0,%d0.l)
68K GAS   			page 52


 728:/home/simulink/cFS_FreeRTOS_seL4/cfe/fsw/cfe-core/src/es/cfe_es_apps.c ****          CFE_ES_WriteToSysLog("ES Startup: %s loaded and created\n", AppName);
 1402               	.loc 2 728 0
 1403 0cc6 2F2F 00B4 	move.l 180(%sp),-(%sp)
 1404               	.cfi_def_cfa_offset 172
 1405 0cca 4879 0000 	pea .LC23
 1405      0000 
 1406               	.cfi_def_cfa_offset 176
 1407 0cd0 4EB9 0000 	jsr CFE_ES_WriteToSysLog
 1407      0000 
 1408 0cd6 508F      	addq.l #8,%sp
 1409               	.cfi_def_cfa_offset 168
 729:/home/simulink/cFS_FreeRTOS_seL4/cfe/fsw/cfe-core/src/es/cfe_es_apps.c ****          *ApplicationIdPtr = i;
 1410               	.loc 2 729 0
 1411 0cd8 206F 00A8 	move.l 168(%sp),%a0
 1412 0cdc 20AF 009C 	move.l 156(%sp),(%a0)
 730:/home/simulink/cFS_FreeRTOS_seL4/cfe/fsw/cfe-core/src/es/cfe_es_apps.c **** 
 731:/home/simulink/cFS_FreeRTOS_seL4/cfe/fsw/cfe-core/src/es/cfe_es_apps.c ****          /*
 732:/home/simulink/cFS_FreeRTOS_seL4/cfe/fsw/cfe-core/src/es/cfe_es_apps.c ****          ** Increment the registered App and Registered External Task variables.
 733:/home/simulink/cFS_FreeRTOS_seL4/cfe/fsw/cfe-core/src/es/cfe_es_apps.c ****          */
 734:/home/simulink/cFS_FreeRTOS_seL4/cfe/fsw/cfe-core/src/es/cfe_es_apps.c ****          CFE_ES_Global.RegisteredTasks++;
 1413               	.loc 2 734 0
 1414 0ce0 2039 0000 	move.l CFE_ES_Global+32,%d0
 1414      0000 
 1415 0ce6 5280      	addq.l #1,%d0
 1416 0ce8 23C0 0000 	move.l %d0,CFE_ES_Global+32
 1416      0000 
 735:/home/simulink/cFS_FreeRTOS_seL4/cfe/fsw/cfe-core/src/es/cfe_es_apps.c ****          CFE_ES_Global.RegisteredExternalApps++;
 1417               	.loc 2 735 0
 1418 0cee 2039 0000 	move.l CFE_ES_Global+2344,%d0
 1418      0000 
 1419 0cf4 5280      	addq.l #1,%d0
 1420 0cf6 23C0 0000 	move.l %d0,CFE_ES_Global+2344
 1420      0000 
 736:/home/simulink/cFS_FreeRTOS_seL4/cfe/fsw/cfe-core/src/es/cfe_es_apps.c **** 
 737:/home/simulink/cFS_FreeRTOS_seL4/cfe/fsw/cfe-core/src/es/cfe_es_apps.c ****          CFE_ES_UnlockSharedData(__func__,__LINE__);
 1421               	.loc 2 737 0
 1422 0cfc 4878 02E1 	pea 737.w
 1423               	.cfi_def_cfa_offset 172
 1424 0d00 4879 0000 	pea __func__.5819
 1424      0000 
 1425               	.cfi_def_cfa_offset 176
 1426 0d06 4EB9 0000 	jsr CFE_ES_UnlockSharedData
 1426      0000 
 1427 0d0c 508F      	addq.l #8,%sp
 1428               	.cfi_def_cfa_offset 168
 738:/home/simulink/cFS_FreeRTOS_seL4/cfe/fsw/cfe-core/src/es/cfe_es_apps.c **** 
 739:/home/simulink/cFS_FreeRTOS_seL4/cfe/fsw/cfe-core/src/es/cfe_es_apps.c ****          /*
 740:/home/simulink/cFS_FreeRTOS_seL4/cfe/fsw/cfe-core/src/es/cfe_es_apps.c ****          ** Remove the temporary RAM disk file
 741:/home/simulink/cFS_FreeRTOS_seL4/cfe/fsw/cfe-core/src/es/cfe_es_apps.c ****          */
 742:/home/simulink/cFS_FreeRTOS_seL4/cfe/fsw/cfe-core/src/es/cfe_es_apps.c ****          if ( IsRamDiskFile == TRUE )
 1429               	.loc 2 742 0
 1430 0d0e 4280      	clr.l %d0
 1431 0d10 102F 009A 	move.b 154(%sp),%d0
 1432 0d14 7201      	moveq #1,%d1
 1433 0d16 B280      	cmp.l %d0,%d1
 1434 0d18 6612      	jne .L56
 743:/home/simulink/cFS_FreeRTOS_seL4/cfe/fsw/cfe-core/src/es/cfe_es_apps.c ****          {
68K GAS   			page 53


 744:/home/simulink/cFS_FreeRTOS_seL4/cfe/fsw/cfe-core/src/es/cfe_es_apps.c ****             ReturnCode = OS_remove(RamDiskPath);
 1435               	.loc 2 744 0
 1436 0d1a 200F      	move.l %sp,%d0
 1437 0d1c 5880      	addq.l #4,%d0
 1438 0d1e 2F00      	move.l %d0,-(%sp)
 1439               	.cfi_def_cfa_offset 172
 1440 0d20 4EB9 0000 	jsr OS_remove
 1440      0000 
 1441 0d26 588F      	addq.l #4,%sp
 1442               	.cfi_def_cfa_offset 168
 1443 0d28 2F40 00A0 	move.l %d0,160(%sp)
 1444               	.L56:
 745:/home/simulink/cFS_FreeRTOS_seL4/cfe/fsw/cfe-core/src/es/cfe_es_apps.c ****          }
 746:/home/simulink/cFS_FreeRTOS_seL4/cfe/fsw/cfe-core/src/es/cfe_es_apps.c ****           
 747:/home/simulink/cFS_FreeRTOS_seL4/cfe/fsw/cfe-core/src/es/cfe_es_apps.c ****          return(CFE_SUCCESS);
 1445               	.loc 2 747 0
 1446 0d2c 4280      	clr.l %d0
 1447 0d2e 6014      	jra .L57
 1448               	.L41:
 748:/home/simulink/cFS_FreeRTOS_seL4/cfe/fsw/cfe-core/src/es/cfe_es_apps.c **** 
 749:/home/simulink/cFS_FreeRTOS_seL4/cfe/fsw/cfe-core/src/es/cfe_es_apps.c ****       } /* End If OS_TaskCreate */
 750:/home/simulink/cFS_FreeRTOS_seL4/cfe/fsw/cfe-core/src/es/cfe_es_apps.c ****    }
 751:/home/simulink/cFS_FreeRTOS_seL4/cfe/fsw/cfe-core/src/es/cfe_es_apps.c ****    else /* appSlot not found */
 752:/home/simulink/cFS_FreeRTOS_seL4/cfe/fsw/cfe-core/src/es/cfe_es_apps.c ****    {
 753:/home/simulink/cFS_FreeRTOS_seL4/cfe/fsw/cfe-core/src/es/cfe_es_apps.c ****       CFE_ES_WriteToSysLog("ES Startup: No free application slots available\n");
 1449               	.loc 2 753 0
 1450 0d30 4879 0000 	pea .LC24
 1450      0000 
 1451               	.cfi_def_cfa_offset 172
 1452 0d36 4EB9 0000 	jsr CFE_ES_WriteToSysLog
 1452      0000 
 1453 0d3c 588F      	addq.l #4,%sp
 1454               	.cfi_def_cfa_offset 168
 754:/home/simulink/cFS_FreeRTOS_seL4/cfe/fsw/cfe-core/src/es/cfe_es_apps.c ****       return(CFE_ES_ERR_APP_CREATE);
 1455               	.loc 2 754 0
 1456 0d3e 203C C400 	move.l #-1006632956,%d0
 1456      0004 
 1457               	.L57:
 755:/home/simulink/cFS_FreeRTOS_seL4/cfe/fsw/cfe-core/src/es/cfe_es_apps.c ****    }
 756:/home/simulink/cFS_FreeRTOS_seL4/cfe/fsw/cfe-core/src/es/cfe_es_apps.c **** 
 757:/home/simulink/cFS_FreeRTOS_seL4/cfe/fsw/cfe-core/src/es/cfe_es_apps.c **** } /* End Function */
 1458               	.loc 2 757 0 discriminator 3
 1459 0d44 241F      	move.l (%sp)+,%d2
 1460 0d46 4FEF 00A0 	lea (160,%sp),%sp
 1461 0d4a 4E75      	rts
 1462               	.cfi_endproc
 1463               	.LFE61:
 1464               	.sizeCFE_ES_AppCreate, .-CFE_ES_AppCreate
 1465               	.section.rodata
 1466               	.LC25:
 1467 0464 4553 2053 	.string"ES Startup: Unable to decompress library file: %s\n"
 1467      7461 7274 
 1467      7570 3A20 
 1467      556E 6162 
 1467      6C65 2074 
 1468               	.LC26:
 1469 0497 4553 2053 	.string"ES Startup: Library path plus file name length (%d) exceeds max allowed (%d)\n"
68K GAS   			page 54


 1469      7461 7274 
 1469      7570 3A20 
 1469      4C69 6272 
 1469      6172 7920 
 1470               	.LC27:
 1471 04e5 4553 2053 	.string"ES Startup: Could not find Library Init symbol:%s. EC = 0x%08X\n"
 1471      7461 7274 
 1471      7570 3A20 
 1471      436F 756C 
 1471      6420 6E6F 
 1472               	.LC28:
 1473 0525 4553 2053 	.string"ES Startup: Could not load cFE Shared Library\n"
 1473      7461 7274 
 1473      7570 3A20 
 1473      436F 756C 
 1473      6420 6E6F 
 1474               	.LC29:
 1475 0554 4553 2053 	.string"ES Startup: Load Shared Library Init Error.\n"
 1475      7461 7274 
 1475      7570 3A20 
 1475      4C6F 6164 
 1475      2053 6861 
 1476               	.LC30:
 1477 0581 4553 2053 	.string"ES Startup: No free library slots available\n"
 1477      7461 7274 
 1477      7570 3A20 
 1477      4E6F 2066 
 1477      7265 6520 
 1478               	.text
 1479               	.align2
 1480               	.globlCFE_ES_LoadLibrary
 1481               	.typeCFE_ES_LoadLibrary, @function
 1482               	CFE_ES_LoadLibrary:
 1483               	.LFB62:
 758:/home/simulink/cFS_FreeRTOS_seL4/cfe/fsw/cfe-core/src/es/cfe_es_apps.c **** /*
 759:/home/simulink/cFS_FreeRTOS_seL4/cfe/fsw/cfe-core/src/es/cfe_es_apps.c **** **---------------------------------------------------------------------------------------
 760:/home/simulink/cFS_FreeRTOS_seL4/cfe/fsw/cfe-core/src/es/cfe_es_apps.c **** ** Name: CFE_ES_LoadLibrary
 761:/home/simulink/cFS_FreeRTOS_seL4/cfe/fsw/cfe-core/src/es/cfe_es_apps.c **** **
 762:/home/simulink/cFS_FreeRTOS_seL4/cfe/fsw/cfe-core/src/es/cfe_es_apps.c **** **   Purpose: This function loads and initializes a cFE Shared Library.
 763:/home/simulink/cFS_FreeRTOS_seL4/cfe/fsw/cfe-core/src/es/cfe_es_apps.c **** **
 764:/home/simulink/cFS_FreeRTOS_seL4/cfe/fsw/cfe-core/src/es/cfe_es_apps.c **** **---------------------------------------------------------------------------------------
 765:/home/simulink/cFS_FreeRTOS_seL4/cfe/fsw/cfe-core/src/es/cfe_es_apps.c **** */
 766:/home/simulink/cFS_FreeRTOS_seL4/cfe/fsw/cfe-core/src/es/cfe_es_apps.c **** int32 CFE_ES_LoadLibrary(uint32 *LibraryIdPtr,
 767:/home/simulink/cFS_FreeRTOS_seL4/cfe/fsw/cfe-core/src/es/cfe_es_apps.c ****                          const char   *FileName,
 768:/home/simulink/cFS_FreeRTOS_seL4/cfe/fsw/cfe-core/src/es/cfe_es_apps.c ****                          const void   *EntryPointData,
 769:/home/simulink/cFS_FreeRTOS_seL4/cfe/fsw/cfe-core/src/es/cfe_es_apps.c ****                          const char   *LibName)
 770:/home/simulink/cFS_FreeRTOS_seL4/cfe/fsw/cfe-core/src/es/cfe_es_apps.c **** {
 1484               	.loc 2 770 0
 1485               	.cfi_startproc
 1486 0d4c 4FEF FF5C 	lea (-164,%sp),%sp
 1487               	.cfi_def_cfa_offset 168
 1488 0d50 2F02      	move.l %d2,-(%sp)
 1489               	.cfi_def_cfa_offset 172
 1490               	.cfi_offset 2, -172
 771:/home/simulink/cFS_FreeRTOS_seL4/cfe/fsw/cfe-core/src/es/cfe_es_apps.c ****    cpuaddr                      StartAddr;
 772:/home/simulink/cFS_FreeRTOS_seL4/cfe/fsw/cfe-core/src/es/cfe_es_apps.c ****    int32                        ReturnCode;
 773:/home/simulink/cFS_FreeRTOS_seL4/cfe/fsw/cfe-core/src/es/cfe_es_apps.c ****    boolean                      LibSlotFound;
68K GAS   			page 55


 774:/home/simulink/cFS_FreeRTOS_seL4/cfe/fsw/cfe-core/src/es/cfe_es_apps.c ****    CFE_ES_LibraryEntryFuncPtr_t FunctionPointer;
 775:/home/simulink/cFS_FreeRTOS_seL4/cfe/fsw/cfe-core/src/es/cfe_es_apps.c ****    uint32                       ModuleId;
 776:/home/simulink/cFS_FreeRTOS_seL4/cfe/fsw/cfe-core/src/es/cfe_es_apps.c ****    boolean                      IsRamDiskFile = FALSE;
 1491               	.loc 2 776 0
 1492 0d52 4200      	clr.b %d0
 1493 0d54 1F40 009B 	move.b %d0,155(%sp)
 777:/home/simulink/cFS_FreeRTOS_seL4/cfe/fsw/cfe-core/src/es/cfe_es_apps.c ****    char                         FileNameOnly[OS_MAX_PATH_LEN];
 778:/home/simulink/cFS_FreeRTOS_seL4/cfe/fsw/cfe-core/src/es/cfe_es_apps.c ****    char                         RamDiskPath[OS_MAX_PATH_LEN];
 779:/home/simulink/cFS_FreeRTOS_seL4/cfe/fsw/cfe-core/src/es/cfe_es_apps.c ****    size_t                       StringLength;
 780:/home/simulink/cFS_FreeRTOS_seL4/cfe/fsw/cfe-core/src/es/cfe_es_apps.c ****    uint32                       i;
 781:/home/simulink/cFS_FreeRTOS_seL4/cfe/fsw/cfe-core/src/es/cfe_es_apps.c ****    CFE_ES_AppStaticModuleApi_t  *StaticEntryPtr = NULL;
 1494               	.loc 2 781 0
 1495 0d58 42AF 0090 	clr.l 144(%sp)
 782:/home/simulink/cFS_FreeRTOS_seL4/cfe/fsw/cfe-core/src/es/cfe_es_apps.c **** 
 783:/home/simulink/cFS_FreeRTOS_seL4/cfe/fsw/cfe-core/src/es/cfe_es_apps.c **** 
 784:/home/simulink/cFS_FreeRTOS_seL4/cfe/fsw/cfe-core/src/es/cfe_es_apps.c ****    /*
 785:/home/simulink/cFS_FreeRTOS_seL4/cfe/fsw/cfe-core/src/es/cfe_es_apps.c ****    ** Allocate an ES_LibTable entry
 786:/home/simulink/cFS_FreeRTOS_seL4/cfe/fsw/cfe-core/src/es/cfe_es_apps.c ****    */
 787:/home/simulink/cFS_FreeRTOS_seL4/cfe/fsw/cfe-core/src/es/cfe_es_apps.c ****    CFE_ES_LockSharedData(__func__,__LINE__);
 1496               	.loc 2 787 0
 1497 0d5c 4878 0313 	pea 787.w
 1498               	.cfi_def_cfa_offset 176
 1499 0d60 4879 0000 	pea __func__.5840
 1499      0000 
 1500               	.cfi_def_cfa_offset 180
 1501 0d66 4EB9 0000 	jsr CFE_ES_LockSharedData
 1501      0000 
 1502 0d6c 508F      	addq.l #8,%sp
 1503               	.cfi_def_cfa_offset 172
 788:/home/simulink/cFS_FreeRTOS_seL4/cfe/fsw/cfe-core/src/es/cfe_es_apps.c ****    LibSlotFound = FALSE;
 1504               	.loc 2 788 0
 1505 0d6e 4201      	clr.b %d1
 1506 0d70 1F41 00A3 	move.b %d1,163(%sp)
 789:/home/simulink/cFS_FreeRTOS_seL4/cfe/fsw/cfe-core/src/es/cfe_es_apps.c ****    for ( i = 0; i < CFE_ES_MAX_LIBRARIES; i++ )
 1507               	.loc 2 789 0
 1508 0d74 42AF 0094 	clr.l 148(%sp)
 1509 0d78 603A      	jra .L59
 1510               	.L62:
 790:/home/simulink/cFS_FreeRTOS_seL4/cfe/fsw/cfe-core/src/es/cfe_es_apps.c ****    {
 791:/home/simulink/cFS_FreeRTOS_seL4/cfe/fsw/cfe-core/src/es/cfe_es_apps.c ****       if ( CFE_ES_Global.LibTable[i].RecordUsed == FALSE )
 1511               	.loc 2 791 0
 1512 0d7a 202F 0094 	move.l 148(%sp),%d0
 1513 0d7e 7215      	moveq #21,%d1
 1514 0d80 4C01 0800 	muls.l %d1,%d0
 1515 0d84 41F9 0000 	lea CFE_ES_Global+7728,%a0
 1515      0000 
 1516 0d8a 1030 0800 	move.b (%a0,%d0.l),%d0
 1517 0d8e 4A00      	tst.b %d0
 1518 0d90 661E      	jne .L60
 792:/home/simulink/cFS_FreeRTOS_seL4/cfe/fsw/cfe-core/src/es/cfe_es_apps.c ****       {
 793:/home/simulink/cFS_FreeRTOS_seL4/cfe/fsw/cfe-core/src/es/cfe_es_apps.c ****          LibSlotFound = TRUE;
 1519               	.loc 2 793 0
 1520 0d92 7001      	moveq #1,%d0
 1521 0d94 1F40 00A3 	move.b %d0,163(%sp)
 794:/home/simulink/cFS_FreeRTOS_seL4/cfe/fsw/cfe-core/src/es/cfe_es_apps.c ****          CFE_ES_Global.LibTable[i].RecordUsed = TRUE; /* Reserve Slot */
 1522               	.loc 2 794 0
 1523 0d98 202F 0094 	move.l 148(%sp),%d0
68K GAS   			page 56


 1524 0d9c 7215      	moveq #21,%d1
 1525 0d9e 4C01 0800 	muls.l %d1,%d0
 1526 0da2 41F9 0000 	lea CFE_ES_Global+7728,%a0
 1526      0000 
 1527 0da8 7201      	moveq #1,%d1
 1528 0daa 1181 0800 	move.b %d1,(%a0,%d0.l)
 795:/home/simulink/cFS_FreeRTOS_seL4/cfe/fsw/cfe-core/src/es/cfe_es_apps.c ****          break;
 1529               	.loc 2 795 0
 1530 0dae 600C      	jra .L61
 1531               	.L60:
 789:/home/simulink/cFS_FreeRTOS_seL4/cfe/fsw/cfe-core/src/es/cfe_es_apps.c ****    {
 1532               	.loc 2 789 0 discriminator 2
 1533 0db0 52AF 0094 	addq.l #1,148(%sp)
 1534               	.L59:
 789:/home/simulink/cFS_FreeRTOS_seL4/cfe/fsw/cfe-core/src/es/cfe_es_apps.c ****    {
 1535               	.loc 2 789 0 is_stmt 0 discriminator 1
 1536 0db4 7009      	moveq #9,%d0
 1537 0db6 B0AF 0094 	cmp.l 148(%sp),%d0
 1538 0dba 64BE      	jcc .L62
 1539               	.L61:
 796:/home/simulink/cFS_FreeRTOS_seL4/cfe/fsw/cfe-core/src/es/cfe_es_apps.c ****       }
 797:/home/simulink/cFS_FreeRTOS_seL4/cfe/fsw/cfe-core/src/es/cfe_es_apps.c ****    }
 798:/home/simulink/cFS_FreeRTOS_seL4/cfe/fsw/cfe-core/src/es/cfe_es_apps.c ****    CFE_ES_UnlockSharedData(__func__,__LINE__);
 1540               	.loc 2 798 0 is_stmt 1
 1541 0dbc 4878 031E 	pea 798.w
 1542               	.cfi_def_cfa_offset 176
 1543 0dc0 4879 0000 	pea __func__.5840
 1543      0000 
 1544               	.cfi_def_cfa_offset 180
 1545 0dc6 4EB9 0000 	jsr CFE_ES_UnlockSharedData
 1545      0000 
 1546 0dcc 508F      	addq.l #8,%sp
 1547               	.cfi_def_cfa_offset 172
 799:/home/simulink/cFS_FreeRTOS_seL4/cfe/fsw/cfe-core/src/es/cfe_es_apps.c **** 
 800:/home/simulink/cFS_FreeRTOS_seL4/cfe/fsw/cfe-core/src/es/cfe_es_apps.c ****    /*
 801:/home/simulink/cFS_FreeRTOS_seL4/cfe/fsw/cfe-core/src/es/cfe_es_apps.c ****    ** If a slot was found, Load and Register the library 
 802:/home/simulink/cFS_FreeRTOS_seL4/cfe/fsw/cfe-core/src/es/cfe_es_apps.c ****    */
 803:/home/simulink/cFS_FreeRTOS_seL4/cfe/fsw/cfe-core/src/es/cfe_es_apps.c ****    if ( LibSlotFound == TRUE)
 1548               	.loc 2 803 0
 1549 0dce 4280      	clr.l %d0
 1550 0dd0 102F 00A3 	move.b 163(%sp),%d0
 1551 0dd4 7201      	moveq #1,%d1
 1552 0dd6 B280      	cmp.l %d0,%d1
 1553 0dd8 6600 045E 	jne .L63
 804:/home/simulink/cFS_FreeRTOS_seL4/cfe/fsw/cfe-core/src/es/cfe_es_apps.c ****    {
 805:/home/simulink/cFS_FreeRTOS_seL4/cfe/fsw/cfe-core/src/es/cfe_es_apps.c ****       if (FileName != NULL)
 1554               	.loc 2 805 0
 1555 0ddc 4AAF 00B0 	tst.l 176(%sp)
 1556 0de0 6700 0340 	jeq .L64
 806:/home/simulink/cFS_FreeRTOS_seL4/cfe/fsw/cfe-core/src/es/cfe_es_apps.c ****       {
 807:/home/simulink/cFS_FreeRTOS_seL4/cfe/fsw/cfe-core/src/es/cfe_es_apps.c ****           /*
 808:/home/simulink/cFS_FreeRTOS_seL4/cfe/fsw/cfe-core/src/es/cfe_es_apps.c ****           ** Check to see if the library is a Gzip file
 809:/home/simulink/cFS_FreeRTOS_seL4/cfe/fsw/cfe-core/src/es/cfe_es_apps.c ****           */
 810:/home/simulink/cFS_FreeRTOS_seL4/cfe/fsw/cfe-core/src/es/cfe_es_apps.c ****           if ( CFE_FS_IsGzFile(FileName) == TRUE )
 1557               	.loc 2 810 0
 1558 0de4 2F2F 00B0 	move.l 176(%sp),-(%sp)
 1559               	.cfi_def_cfa_offset 176
68K GAS   			page 57


 1560 0de8 4EB9 0000 	jsr CFE_FS_IsGzFile
 1560      0000 
 1561 0dee 588F      	addq.l #4,%sp
 1562               	.cfi_def_cfa_offset 172
 1563 0df0 1000      	move.b %d0,%d0
 1564 0df2 0280 0000 	and.l #255,%d0
 1564      00FF 
 1565 0df8 7201      	moveq #1,%d1
 1566 0dfa B280      	cmp.l %d0,%d1
 1567 0dfc 6600 0222 	jne .L65
 811:/home/simulink/cFS_FreeRTOS_seL4/cfe/fsw/cfe-core/src/es/cfe_es_apps.c ****           {
 812:/home/simulink/cFS_FreeRTOS_seL4/cfe/fsw/cfe-core/src/es/cfe_es_apps.c ****              /*
 813:/home/simulink/cFS_FreeRTOS_seL4/cfe/fsw/cfe-core/src/es/cfe_es_apps.c ****              ** Build up the destination path in the RAM disk
 814:/home/simulink/cFS_FreeRTOS_seL4/cfe/fsw/cfe-core/src/es/cfe_es_apps.c ****              */
 815:/home/simulink/cFS_FreeRTOS_seL4/cfe/fsw/cfe-core/src/es/cfe_es_apps.c ****              (void) CFE_SB_MessageStringGet(RamDiskPath,
 1568               	.loc 2 815 0
 1569 0e00 4878 0006 	pea 6.w
 1570               	.cfi_def_cfa_offset 176
 1571 0e04 4878 0040 	pea 64.w
 1572               	.cfi_def_cfa_offset 180
 1573 0e08 42A7      	clr.l -(%sp)
 1574               	.cfi_def_cfa_offset 184
 1575 0e0a 4879 0000 	pea .LC15
 1575      0000 
 1576               	.cfi_def_cfa_offset 188
 1577 0e10 200F      	move.l %sp,%d0
 1578 0e12 0680 0000 	add.l #20,%d0
 1578      0014 
 1579 0e18 2F00      	move.l %d0,-(%sp)
 1580               	.cfi_def_cfa_offset 192
 1581 0e1a 4EB9 0000 	jsr CFE_SB_MessageStringGet
 1581      0000 
 1582 0e20 4FEF 0014 	lea (20,%sp),%sp
 1583               	.cfi_def_cfa_offset 172
 816:/home/simulink/cFS_FreeRTOS_seL4/cfe/fsw/cfe-core/src/es/cfe_es_apps.c ****                                             CFE_ES_RAM_DISK_MOUNT_STRING"/",
 817:/home/simulink/cFS_FreeRTOS_seL4/cfe/fsw/cfe-core/src/es/cfe_es_apps.c ****                                             NULL,
 818:/home/simulink/cFS_FreeRTOS_seL4/cfe/fsw/cfe-core/src/es/cfe_es_apps.c ****                                             sizeof(RamDiskPath),
 819:/home/simulink/cFS_FreeRTOS_seL4/cfe/fsw/cfe-core/src/es/cfe_es_apps.c ****                                             sizeof(CFE_ES_RAM_DISK_MOUNT_STRING"/"));
 820:/home/simulink/cFS_FreeRTOS_seL4/cfe/fsw/cfe-core/src/es/cfe_es_apps.c ****             
 821:/home/simulink/cFS_FreeRTOS_seL4/cfe/fsw/cfe-core/src/es/cfe_es_apps.c ****              /*
 822:/home/simulink/cFS_FreeRTOS_seL4/cfe/fsw/cfe-core/src/es/cfe_es_apps.c ****              ** Extract the filename from the path
 823:/home/simulink/cFS_FreeRTOS_seL4/cfe/fsw/cfe-core/src/es/cfe_es_apps.c ****              */
 824:/home/simulink/cFS_FreeRTOS_seL4/cfe/fsw/cfe-core/src/es/cfe_es_apps.c ****              ReturnCode = CFE_FS_ExtractFilenameFromPath(FileName, FileNameOnly);
 1584               	.loc 2 824 0
 1585 0e24 200F      	move.l %sp,%d0
 1586 0e26 0680 0000 	add.l #68,%d0
 1586      0044 
 1587 0e2c 2F00      	move.l %d0,-(%sp)
 1588               	.cfi_def_cfa_offset 176
 1589 0e2e 2F2F 00B4 	move.l 180(%sp),-(%sp)
 1590               	.cfi_def_cfa_offset 180
 1591 0e32 4EB9 0000 	jsr CFE_FS_ExtractFilenameFromPath
 1591      0000 
 1592 0e38 508F      	addq.l #8,%sp
 1593               	.cfi_def_cfa_offset 172
 1594 0e3a 2F40 00A4 	move.l %d0,164(%sp)
 825:/home/simulink/cFS_FreeRTOS_seL4/cfe/fsw/cfe-core/src/es/cfe_es_apps.c **** 
68K GAS   			page 58


 826:/home/simulink/cFS_FreeRTOS_seL4/cfe/fsw/cfe-core/src/es/cfe_es_apps.c ****              if ( ReturnCode == CFE_SUCCESS )
 1595               	.loc 2 826 0
 1596 0e3e 4AAF 00A4 	tst.l 164(%sp)
 1597 0e42 6600 0186 	jne .L66
 827:/home/simulink/cFS_FreeRTOS_seL4/cfe/fsw/cfe-core/src/es/cfe_es_apps.c ****              {
 828:/home/simulink/cFS_FreeRTOS_seL4/cfe/fsw/cfe-core/src/es/cfe_es_apps.c ****                 if ((strlen(RamDiskPath) + strlen(FileNameOnly)) < OS_MAX_PATH_LEN)
 1598               	.loc 2 828 0
 1599 0e46 200F      	move.l %sp,%d0
 1600 0e48 5880      	addq.l #4,%d0
 1601 0e4a 2F00      	move.l %d0,-(%sp)
 1602               	.cfi_def_cfa_offset 176
 1603 0e4c 4EB9 0000 	jsr strlen
 1603      0000 
 1604 0e52 588F      	addq.l #4,%sp
 1605               	.cfi_def_cfa_offset 172
 1606 0e54 2400      	move.l %d0,%d2
 1607 0e56 200F      	move.l %sp,%d0
 1608 0e58 0680 0000 	add.l #68,%d0
 1608      0044 
 1609 0e5e 2F00      	move.l %d0,-(%sp)
 1610               	.cfi_def_cfa_offset 176
 1611 0e60 4EB9 0000 	jsr strlen
 1611      0000 
 1612 0e66 588F      	addq.l #4,%sp
 1613               	.cfi_def_cfa_offset 172
 1614 0e68 D082      	add.l %d2,%d0
 1615 0e6a 723F      	moveq #63,%d1
 1616 0e6c B280      	cmp.l %d0,%d1
 1617 0e6e 6500 00DC 	jcs .L67
 829:/home/simulink/cFS_FreeRTOS_seL4/cfe/fsw/cfe-core/src/es/cfe_es_apps.c ****                 {
 830:/home/simulink/cFS_FreeRTOS_seL4/cfe/fsw/cfe-core/src/es/cfe_es_apps.c ****                     /*
 831:/home/simulink/cFS_FreeRTOS_seL4/cfe/fsw/cfe-core/src/es/cfe_es_apps.c ****                     ** Cat the Filename to the RamDiskPath
 832:/home/simulink/cFS_FreeRTOS_seL4/cfe/fsw/cfe-core/src/es/cfe_es_apps.c ****                     */
 833:/home/simulink/cFS_FreeRTOS_seL4/cfe/fsw/cfe-core/src/es/cfe_es_apps.c ****                     strcat(RamDiskPath, FileNameOnly);
 1618               	.loc 2 833 0
 1619 0e72 200F      	move.l %sp,%d0
 1620 0e74 0680 0000 	add.l #68,%d0
 1620      0044 
 1621 0e7a 2F00      	move.l %d0,-(%sp)
 1622               	.cfi_def_cfa_offset 176
 1623 0e7c 200F      	move.l %sp,%d0
 1624 0e7e 5080      	addq.l #8,%d0
 1625 0e80 2F00      	move.l %d0,-(%sp)
 1626               	.cfi_def_cfa_offset 180
 1627 0e82 4EB9 0000 	jsr strcat
 1627      0000 
 1628 0e88 508F      	addq.l #8,%sp
 1629               	.cfi_def_cfa_offset 172
 834:/home/simulink/cFS_FreeRTOS_seL4/cfe/fsw/cfe-core/src/es/cfe_es_apps.c ****             
 835:/home/simulink/cFS_FreeRTOS_seL4/cfe/fsw/cfe-core/src/es/cfe_es_apps.c ****                     /*
 836:/home/simulink/cFS_FreeRTOS_seL4/cfe/fsw/cfe-core/src/es/cfe_es_apps.c ****                     ** Remove the ".gz" prefix from the filename
 837:/home/simulink/cFS_FreeRTOS_seL4/cfe/fsw/cfe-core/src/es/cfe_es_apps.c ****                     ** Already Determined that the filename ends in ".gz"
 838:/home/simulink/cFS_FreeRTOS_seL4/cfe/fsw/cfe-core/src/es/cfe_es_apps.c ****                     */
 839:/home/simulink/cFS_FreeRTOS_seL4/cfe/fsw/cfe-core/src/es/cfe_es_apps.c ****                     StringLength = strlen(RamDiskPath);
 1630               	.loc 2 839 0
 1631 0e8a 200F      	move.l %sp,%d0
 1632 0e8c 5880      	addq.l #4,%d0
68K GAS   			page 59


 1633 0e8e 2F00      	move.l %d0,-(%sp)
 1634               	.cfi_def_cfa_offset 176
 1635 0e90 4EB9 0000 	jsr strlen
 1635      0000 
 1636 0e96 588F      	addq.l #4,%sp
 1637               	.cfi_def_cfa_offset 172
 1638 0e98 2F40 008C 	move.l %d0,140(%sp)
 840:/home/simulink/cFS_FreeRTOS_seL4/cfe/fsw/cfe-core/src/es/cfe_es_apps.c ****                     RamDiskPath[StringLength - 3] = '\0';
 1639               	.loc 2 840 0
 1640 0e9c 202F 008C 	move.l 140(%sp),%d0
 1641 0ea0 5780      	subq.l #3,%d0
 1642 0ea2 41EF 00A8 	lea (168,%sp),%a0
 1643 0ea6 D1C0      	add.l %d0,%a0
 1644 0ea8 4200      	clr.b %d0
 1645 0eaa 1140 FF5C 	move.b %d0,-164(%a0)
 841:/home/simulink/cFS_FreeRTOS_seL4/cfe/fsw/cfe-core/src/es/cfe_es_apps.c **** 
 842:/home/simulink/cFS_FreeRTOS_seL4/cfe/fsw/cfe-core/src/es/cfe_es_apps.c ****                     /*
 843:/home/simulink/cFS_FreeRTOS_seL4/cfe/fsw/cfe-core/src/es/cfe_es_apps.c ****                     ** Decompress the file:
 844:/home/simulink/cFS_FreeRTOS_seL4/cfe/fsw/cfe-core/src/es/cfe_es_apps.c ****                     */
 845:/home/simulink/cFS_FreeRTOS_seL4/cfe/fsw/cfe-core/src/es/cfe_es_apps.c ****                     ReturnCode =  CFE_FS_Decompress( FileName, RamDiskPath);
 1646               	.loc 2 845 0
 1647 0eae 200F      	move.l %sp,%d0
 1648 0eb0 5880      	addq.l #4,%d0
 1649 0eb2 2F00      	move.l %d0,-(%sp)
 1650               	.cfi_def_cfa_offset 176
 1651 0eb4 2F2F 00B4 	move.l 180(%sp),-(%sp)
 1652               	.cfi_def_cfa_offset 180
 1653 0eb8 4EB9 0000 	jsr CFE_FS_Decompress
 1653      0000 
 1654 0ebe 508F      	addq.l #8,%sp
 1655               	.cfi_def_cfa_offset 172
 1656 0ec0 2F40 00A4 	move.l %d0,164(%sp)
 846:/home/simulink/cFS_FreeRTOS_seL4/cfe/fsw/cfe-core/src/es/cfe_es_apps.c **** 
 847:/home/simulink/cFS_FreeRTOS_seL4/cfe/fsw/cfe-core/src/es/cfe_es_apps.c ****                     if ( ReturnCode != OS_SUCCESS )
 1657               	.loc 2 847 0
 1658 0ec4 4AAF 00A4 	tst.l 164(%sp)
 1659 0ec8 6756      	jeq .L68
 848:/home/simulink/cFS_FreeRTOS_seL4/cfe/fsw/cfe-core/src/es/cfe_es_apps.c ****                     {
 849:/home/simulink/cFS_FreeRTOS_seL4/cfe/fsw/cfe-core/src/es/cfe_es_apps.c ****                        CFE_ES_WriteToSysLog("ES Startup: Unable to decompress library file: %s\n",F
 1660               	.loc 2 849 0
 1661 0eca 2F2F 00B0 	move.l 176(%sp),-(%sp)
 1662               	.cfi_def_cfa_offset 176
 1663 0ece 4879 0000 	pea .LC25
 1663      0000 
 1664               	.cfi_def_cfa_offset 180
 1665 0ed4 4EB9 0000 	jsr CFE_ES_WriteToSysLog
 1665      0000 
 1666 0eda 508F      	addq.l #8,%sp
 1667               	.cfi_def_cfa_offset 172
 850:/home/simulink/cFS_FreeRTOS_seL4/cfe/fsw/cfe-core/src/es/cfe_es_apps.c **** 
 851:/home/simulink/cFS_FreeRTOS_seL4/cfe/fsw/cfe-core/src/es/cfe_es_apps.c ****                        CFE_ES_LockSharedData(__func__,__LINE__);
 1668               	.loc 2 851 0
 1669 0edc 4878 0353 	pea 851.w
 1670               	.cfi_def_cfa_offset 176
 1671 0ee0 4879 0000 	pea __func__.5840
 1671      0000 
 1672               	.cfi_def_cfa_offset 180
68K GAS   			page 60


 1673 0ee6 4EB9 0000 	jsr CFE_ES_LockSharedData
 1673      0000 
 1674 0eec 508F      	addq.l #8,%sp
 1675               	.cfi_def_cfa_offset 172
 852:/home/simulink/cFS_FreeRTOS_seL4/cfe/fsw/cfe-core/src/es/cfe_es_apps.c ****                        CFE_ES_Global.LibTable[i].RecordUsed = FALSE; /* Release Slot */
 1676               	.loc 2 852 0
 1677 0eee 202F 0094 	move.l 148(%sp),%d0
 1678 0ef2 7215      	moveq #21,%d1
 1679 0ef4 4C01 0800 	muls.l %d1,%d0
 1680 0ef8 41F9 0000 	lea CFE_ES_Global+7728,%a0
 1680      0000 
 1681 0efe 4201      	clr.b %d1
 1682 0f00 1181 0800 	move.b %d1,(%a0,%d0.l)
 853:/home/simulink/cFS_FreeRTOS_seL4/cfe/fsw/cfe-core/src/es/cfe_es_apps.c ****                        CFE_ES_UnlockSharedData(__func__,__LINE__);
 1683               	.loc 2 853 0
 1684 0f04 4878 0355 	pea 853.w
 1685               	.cfi_def_cfa_offset 176
 1686 0f08 4879 0000 	pea __func__.5840
 1686      0000 
 1687               	.cfi_def_cfa_offset 180
 1688 0f0e 4EB9 0000 	jsr CFE_ES_UnlockSharedData
 1688      0000 
 1689 0f14 508F      	addq.l #8,%sp
 1690               	.cfi_def_cfa_offset 172
 854:/home/simulink/cFS_FreeRTOS_seL4/cfe/fsw/cfe-core/src/es/cfe_es_apps.c **** 
 855:/home/simulink/cFS_FreeRTOS_seL4/cfe/fsw/cfe-core/src/es/cfe_es_apps.c ****                        return(CFE_ES_ERR_LOAD_LIB);
 1691               	.loc 2 855 0
 1692 0f16 203C C400 	move.l #-1006632951,%d0
 1692      0009 
 1693 0f1c 6000 032E 	jra .L76
 1694               	.L68:
 856:/home/simulink/cFS_FreeRTOS_seL4/cfe/fsw/cfe-core/src/es/cfe_es_apps.c ****                     }
 857:/home/simulink/cFS_FreeRTOS_seL4/cfe/fsw/cfe-core/src/es/cfe_es_apps.c ****                     else
 858:/home/simulink/cFS_FreeRTOS_seL4/cfe/fsw/cfe-core/src/es/cfe_es_apps.c ****                     {
 859:/home/simulink/cFS_FreeRTOS_seL4/cfe/fsw/cfe-core/src/es/cfe_es_apps.c ****                        /*
 860:/home/simulink/cFS_FreeRTOS_seL4/cfe/fsw/cfe-core/src/es/cfe_es_apps.c ****                        ** All ready to use unzipped RAM disk file
 861:/home/simulink/cFS_FreeRTOS_seL4/cfe/fsw/cfe-core/src/es/cfe_es_apps.c ****                        */
 862:/home/simulink/cFS_FreeRTOS_seL4/cfe/fsw/cfe-core/src/es/cfe_es_apps.c ****                        IsRamDiskFile = TRUE;
 1695               	.loc 2 862 0
 1696 0f20 7001      	moveq #1,%d0
 1697 0f22 1F40 009B 	move.b %d0,155(%sp)
 863:/home/simulink/cFS_FreeRTOS_seL4/cfe/fsw/cfe-core/src/es/cfe_es_apps.c ****                        ReturnCode = OS_ModuleLoad( &ModuleId, LibName, RamDiskPath);
 1698               	.loc 2 863 0
 1699 0f26 200F      	move.l %sp,%d0
 1700 0f28 5880      	addq.l #4,%d0
 1701 0f2a 2F00      	move.l %d0,-(%sp)
 1702               	.cfi_def_cfa_offset 176
 1703 0f2c 2F2F 00BC 	move.l 188(%sp),-(%sp)
 1704               	.cfi_def_cfa_offset 180
 1705 0f30 200F      	move.l %sp,%d0
 1706 0f32 0680 0000 	add.l #140,%d0
 1706      008C 
 1707 0f38 2F00      	move.l %d0,-(%sp)
 1708               	.cfi_def_cfa_offset 184
 1709 0f3a 4EB9 0000 	jsr OS_ModuleLoad
 1709      0000 
 1710 0f40 4FEF 000C 	lea (12,%sp),%sp
68K GAS   			page 61


 1711               	.cfi_def_cfa_offset 172
 1712 0f44 2F40 00A4 	move.l %d0,164(%sp)
 1713 0f48 6000 00F6 	jra .L70
 1714               	.L67:
 864:/home/simulink/cFS_FreeRTOS_seL4/cfe/fsw/cfe-core/src/es/cfe_es_apps.c ****                     }
 865:/home/simulink/cFS_FreeRTOS_seL4/cfe/fsw/cfe-core/src/es/cfe_es_apps.c ****                 }
 866:/home/simulink/cFS_FreeRTOS_seL4/cfe/fsw/cfe-core/src/es/cfe_es_apps.c ****                 else
 867:/home/simulink/cFS_FreeRTOS_seL4/cfe/fsw/cfe-core/src/es/cfe_es_apps.c ****                 {
 868:/home/simulink/cFS_FreeRTOS_seL4/cfe/fsw/cfe-core/src/es/cfe_es_apps.c ****                     /* Can't include the name string since it could be too long for the message */
 869:/home/simulink/cFS_FreeRTOS_seL4/cfe/fsw/cfe-core/src/es/cfe_es_apps.c ****                     CFE_ES_WriteToSysLog("ES Startup: Library path plus file name length (%d) excee
 870:/home/simulink/cFS_FreeRTOS_seL4/cfe/fsw/cfe-core/src/es/cfe_es_apps.c ****                                          (int)(strlen(RamDiskPath) + strlen(FileNameOnly)), OS_MAX_
 1715               	.loc 2 870 0
 1716 0f4c 200F      	move.l %sp,%d0
 1717 0f4e 5880      	addq.l #4,%d0
 1718 0f50 2F00      	move.l %d0,-(%sp)
 1719               	.cfi_def_cfa_offset 176
 1720 0f52 4EB9 0000 	jsr strlen
 1720      0000 
 1721 0f58 588F      	addq.l #4,%sp
 1722               	.cfi_def_cfa_offset 172
 1723 0f5a 2400      	move.l %d0,%d2
 1724 0f5c 200F      	move.l %sp,%d0
 1725 0f5e 0680 0000 	add.l #68,%d0
 1725      0044 
 1726 0f64 2F00      	move.l %d0,-(%sp)
 1727               	.cfi_def_cfa_offset 176
 1728 0f66 4EB9 0000 	jsr strlen
 1728      0000 
 1729 0f6c 588F      	addq.l #4,%sp
 1730               	.cfi_def_cfa_offset 172
 1731 0f6e D082      	add.l %d2,%d0
 869:/home/simulink/cFS_FreeRTOS_seL4/cfe/fsw/cfe-core/src/es/cfe_es_apps.c ****                                          (int)(strlen(RamDiskPath) + strlen(FileNameOnly)), OS_MAX_
 1732               	.loc 2 869 0
 1733 0f70 4878 0040 	pea 64.w
 1734               	.cfi_def_cfa_offset 176
 1735 0f74 2F00      	move.l %d0,-(%sp)
 1736               	.cfi_def_cfa_offset 180
 1737 0f76 4879 0000 	pea .LC26
 1737      0000 
 1738               	.cfi_def_cfa_offset 184
 1739 0f7c 4EB9 0000 	jsr CFE_ES_WriteToSysLog
 1739      0000 
 1740 0f82 4FEF 000C 	lea (12,%sp),%sp
 1741               	.cfi_def_cfa_offset 172
 871:/home/simulink/cFS_FreeRTOS_seL4/cfe/fsw/cfe-core/src/es/cfe_es_apps.c **** 
 872:/home/simulink/cFS_FreeRTOS_seL4/cfe/fsw/cfe-core/src/es/cfe_es_apps.c ****                     CFE_ES_LockSharedData(__func__,__LINE__);
 1742               	.loc 2 872 0
 1743 0f86 4878 0368 	pea 872.w
 1744               	.cfi_def_cfa_offset 176
 1745 0f8a 4879 0000 	pea __func__.5840
 1745      0000 
 1746               	.cfi_def_cfa_offset 180
 1747 0f90 4EB9 0000 	jsr CFE_ES_LockSharedData
 1747      0000 
 1748 0f96 508F      	addq.l #8,%sp
 1749               	.cfi_def_cfa_offset 172
 873:/home/simulink/cFS_FreeRTOS_seL4/cfe/fsw/cfe-core/src/es/cfe_es_apps.c ****                     CFE_ES_Global.LibTable[i].RecordUsed = FALSE; /* Release Slot */
68K GAS   			page 62


 1750               	.loc 2 873 0
 1751 0f98 202F 0094 	move.l 148(%sp),%d0
 1752 0f9c 7215      	moveq #21,%d1
 1753 0f9e 4C01 0800 	muls.l %d1,%d0
 1754 0fa2 41F9 0000 	lea CFE_ES_Global+7728,%a0
 1754      0000 
 1755 0fa8 4201      	clr.b %d1
 1756 0faa 1181 0800 	move.b %d1,(%a0,%d0.l)
 874:/home/simulink/cFS_FreeRTOS_seL4/cfe/fsw/cfe-core/src/es/cfe_es_apps.c ****                     CFE_ES_UnlockSharedData(__func__,__LINE__);
 1757               	.loc 2 874 0
 1758 0fae 4878 036A 	pea 874.w
 1759               	.cfi_def_cfa_offset 176
 1760 0fb2 4879 0000 	pea __func__.5840
 1760      0000 
 1761               	.cfi_def_cfa_offset 180
 1762 0fb8 4EB9 0000 	jsr CFE_ES_UnlockSharedData
 1762      0000 
 1763 0fbe 508F      	addq.l #8,%sp
 1764               	.cfi_def_cfa_offset 172
 875:/home/simulink/cFS_FreeRTOS_seL4/cfe/fsw/cfe-core/src/es/cfe_es_apps.c **** 
 876:/home/simulink/cFS_FreeRTOS_seL4/cfe/fsw/cfe-core/src/es/cfe_es_apps.c ****                     return(CFE_ES_ERR_LOAD_LIB);
 1765               	.loc 2 876 0
 1766 0fc0 203C C400 	move.l #-1006632951,%d0
 1766      0009 
 1767 0fc6 6000 0284 	jra .L76
 1768               	.L66:
 877:/home/simulink/cFS_FreeRTOS_seL4/cfe/fsw/cfe-core/src/es/cfe_es_apps.c ****                 }
 878:/home/simulink/cFS_FreeRTOS_seL4/cfe/fsw/cfe-core/src/es/cfe_es_apps.c ****              }
 879:/home/simulink/cFS_FreeRTOS_seL4/cfe/fsw/cfe-core/src/es/cfe_es_apps.c ****              else
 880:/home/simulink/cFS_FreeRTOS_seL4/cfe/fsw/cfe-core/src/es/cfe_es_apps.c ****              {
 881:/home/simulink/cFS_FreeRTOS_seL4/cfe/fsw/cfe-core/src/es/cfe_es_apps.c ****                 CFE_ES_WriteToSysLog("ES Startup: Unable to extract filename from path: %s.\n",File
 1769               	.loc 2 881 0
 1770 0fca 2F2F 00B0 	move.l 176(%sp),-(%sp)
 1771               	.cfi_def_cfa_offset 176
 1772 0fce 4879 0000 	pea .LC18
 1772      0000 
 1773               	.cfi_def_cfa_offset 180
 1774 0fd4 4EB9 0000 	jsr CFE_ES_WriteToSysLog
 1774      0000 
 1775 0fda 508F      	addq.l #8,%sp
 1776               	.cfi_def_cfa_offset 172
 882:/home/simulink/cFS_FreeRTOS_seL4/cfe/fsw/cfe-core/src/es/cfe_es_apps.c **** 
 883:/home/simulink/cFS_FreeRTOS_seL4/cfe/fsw/cfe-core/src/es/cfe_es_apps.c ****                 CFE_ES_LockSharedData(__func__,__LINE__);
 1777               	.loc 2 883 0
 1778 0fdc 4878 0373 	pea 883.w
 1779               	.cfi_def_cfa_offset 176
 1780 0fe0 4879 0000 	pea __func__.5840
 1780      0000 
 1781               	.cfi_def_cfa_offset 180
 1782 0fe6 4EB9 0000 	jsr CFE_ES_LockSharedData
 1782      0000 
 1783 0fec 508F      	addq.l #8,%sp
 1784               	.cfi_def_cfa_offset 172
 884:/home/simulink/cFS_FreeRTOS_seL4/cfe/fsw/cfe-core/src/es/cfe_es_apps.c ****                 CFE_ES_Global.LibTable[i].RecordUsed = FALSE; /* Release Slot */
 1785               	.loc 2 884 0
 1786 0fee 202F 0094 	move.l 148(%sp),%d0
 1787 0ff2 7215      	moveq #21,%d1
68K GAS   			page 63


 1788 0ff4 4C01 0800 	muls.l %d1,%d0
 1789 0ff8 41F9 0000 	lea CFE_ES_Global+7728,%a0
 1789      0000 
 1790 0ffe 4201      	clr.b %d1
 1791 1000 1181 0800 	move.b %d1,(%a0,%d0.l)
 885:/home/simulink/cFS_FreeRTOS_seL4/cfe/fsw/cfe-core/src/es/cfe_es_apps.c ****                 CFE_ES_UnlockSharedData(__func__,__LINE__);
 1792               	.loc 2 885 0
 1793 1004 4878 0375 	pea 885.w
 1794               	.cfi_def_cfa_offset 176
 1795 1008 4879 0000 	pea __func__.5840
 1795      0000 
 1796               	.cfi_def_cfa_offset 180
 1797 100e 4EB9 0000 	jsr CFE_ES_UnlockSharedData
 1797      0000 
 1798 1014 508F      	addq.l #8,%sp
 1799               	.cfi_def_cfa_offset 172
 886:/home/simulink/cFS_FreeRTOS_seL4/cfe/fsw/cfe-core/src/es/cfe_es_apps.c **** 
 887:/home/simulink/cFS_FreeRTOS_seL4/cfe/fsw/cfe-core/src/es/cfe_es_apps.c ****                 return(CFE_ES_ERR_LOAD_LIB);
 1800               	.loc 2 887 0
 1801 1016 203C C400 	move.l #-1006632951,%d0
 1801      0009 
 1802 101c 6000 022E 	jra .L76
 1803               	.L65:
 888:/home/simulink/cFS_FreeRTOS_seL4/cfe/fsw/cfe-core/src/es/cfe_es_apps.c ****              }
 889:/home/simulink/cFS_FreeRTOS_seL4/cfe/fsw/cfe-core/src/es/cfe_es_apps.c **** 
 890:/home/simulink/cFS_FreeRTOS_seL4/cfe/fsw/cfe-core/src/es/cfe_es_apps.c ****           }
 891:/home/simulink/cFS_FreeRTOS_seL4/cfe/fsw/cfe-core/src/es/cfe_es_apps.c ****           else
 892:/home/simulink/cFS_FreeRTOS_seL4/cfe/fsw/cfe-core/src/es/cfe_es_apps.c ****           {
 893:/home/simulink/cFS_FreeRTOS_seL4/cfe/fsw/cfe-core/src/es/cfe_es_apps.c ****               /*
 894:/home/simulink/cFS_FreeRTOS_seL4/cfe/fsw/cfe-core/src/es/cfe_es_apps.c ****               ** Load the library module directly
 895:/home/simulink/cFS_FreeRTOS_seL4/cfe/fsw/cfe-core/src/es/cfe_es_apps.c ****               */
 896:/home/simulink/cFS_FreeRTOS_seL4/cfe/fsw/cfe-core/src/es/cfe_es_apps.c ****              ReturnCode = OS_ModuleLoad ( &ModuleId, LibName, FileName );
 1804               	.loc 2 896 0
 1805 1020 2F2F 00B0 	move.l 176(%sp),-(%sp)
 1806               	.cfi_def_cfa_offset 176
 1807 1024 2F2F 00BC 	move.l 188(%sp),-(%sp)
 1808               	.cfi_def_cfa_offset 180
 1809 1028 200F      	move.l %sp,%d0
 1810 102a 0680 0000 	add.l #140,%d0
 1810      008C 
 1811 1030 2F00      	move.l %d0,-(%sp)
 1812               	.cfi_def_cfa_offset 184
 1813 1032 4EB9 0000 	jsr OS_ModuleLoad
 1813      0000 
 1814 1038 4FEF 000C 	lea (12,%sp),%sp
 1815               	.cfi_def_cfa_offset 172
 1816 103c 2F40 00A4 	move.l %d0,164(%sp)
 1817               	.L70:
 897:/home/simulink/cFS_FreeRTOS_seL4/cfe/fsw/cfe-core/src/es/cfe_es_apps.c ****           }
 898:/home/simulink/cFS_FreeRTOS_seL4/cfe/fsw/cfe-core/src/es/cfe_es_apps.c **** 
 899:/home/simulink/cFS_FreeRTOS_seL4/cfe/fsw/cfe-core/src/es/cfe_es_apps.c ****           /*
 900:/home/simulink/cFS_FreeRTOS_seL4/cfe/fsw/cfe-core/src/es/cfe_es_apps.c ****           ** If the Load was OK, then lookup the address of the entry point
 901:/home/simulink/cFS_FreeRTOS_seL4/cfe/fsw/cfe-core/src/es/cfe_es_apps.c ****           */
 902:/home/simulink/cFS_FreeRTOS_seL4/cfe/fsw/cfe-core/src/es/cfe_es_apps.c ****           if ( ReturnCode == OS_SUCCESS )
 1818               	.loc 2 902 0
 1819 1040 4AAF 00A4 	tst.l 164(%sp)
 1820 1044 6600 008A 	jne .L71
68K GAS   			page 64


 903:/home/simulink/cFS_FreeRTOS_seL4/cfe/fsw/cfe-core/src/es/cfe_es_apps.c ****           {
 904:/home/simulink/cFS_FreeRTOS_seL4/cfe/fsw/cfe-core/src/es/cfe_es_apps.c **** 
 905:/home/simulink/cFS_FreeRTOS_seL4/cfe/fsw/cfe-core/src/es/cfe_es_apps.c ****              ReturnCode = OS_SymbolLookup( &StartAddr, (const char *)EntryPointData );
 1821               	.loc 2 905 0
 1822 1048 2F2F 00B4 	move.l 180(%sp),-(%sp)
 1823               	.cfi_def_cfa_offset 176
 1824 104c 200F      	move.l %sp,%d0
 1825 104e 0680 0000 	add.l #140,%d0
 1825      008C 
 1826 1054 2F00      	move.l %d0,-(%sp)
 1827               	.cfi_def_cfa_offset 180
 1828 1056 4EB9 0000 	jsr OS_SymbolLookup
 1828      0000 
 1829 105c 508F      	addq.l #8,%sp
 1830               	.cfi_def_cfa_offset 172
 1831 105e 2F40 00A4 	move.l %d0,164(%sp)
 906:/home/simulink/cFS_FreeRTOS_seL4/cfe/fsw/cfe-core/src/es/cfe_es_apps.c ****              if (ReturnCode != OS_SUCCESS) /* could not find symbol */
 1832               	.loc 2 906 0
 1833 1062 4AAF 00A4 	tst.l 164(%sp)
 1834 1066 675E      	jeq .L72
 907:/home/simulink/cFS_FreeRTOS_seL4/cfe/fsw/cfe-core/src/es/cfe_es_apps.c ****              {
 908:/home/simulink/cFS_FreeRTOS_seL4/cfe/fsw/cfe-core/src/es/cfe_es_apps.c ****                  CFE_ES_WriteToSysLog("ES Startup: Could not find Library Init symbol:%s. EC = 0x%0
 1835               	.loc 2 908 0
 1836 1068 202F 00A4 	move.l 164(%sp),%d0
 1837 106c 2F00      	move.l %d0,-(%sp)
 1838               	.cfi_def_cfa_offset 176
 1839 106e 2F2F 00B8 	move.l 184(%sp),-(%sp)
 1840               	.cfi_def_cfa_offset 180
 1841 1072 4879 0000 	pea .LC27
 1841      0000 
 1842               	.cfi_def_cfa_offset 184
 1843 1078 4EB9 0000 	jsr CFE_ES_WriteToSysLog
 1843      0000 
 1844 107e 4FEF 000C 	lea (12,%sp),%sp
 1845               	.cfi_def_cfa_offset 172
 909:/home/simulink/cFS_FreeRTOS_seL4/cfe/fsw/cfe-core/src/es/cfe_es_apps.c ****                                         (const char *)EntryPointData, (unsigned int)ReturnCode);
 910:/home/simulink/cFS_FreeRTOS_seL4/cfe/fsw/cfe-core/src/es/cfe_es_apps.c **** 
 911:/home/simulink/cFS_FreeRTOS_seL4/cfe/fsw/cfe-core/src/es/cfe_es_apps.c ****                  CFE_ES_LockSharedData(__func__,__LINE__);
 1846               	.loc 2 911 0
 1847 1082 4878 038F 	pea 911.w
 1848               	.cfi_def_cfa_offset 176
 1849 1086 4879 0000 	pea __func__.5840
 1849      0000 
 1850               	.cfi_def_cfa_offset 180
 1851 108c 4EB9 0000 	jsr CFE_ES_LockSharedData
 1851      0000 
 1852 1092 508F      	addq.l #8,%sp
 1853               	.cfi_def_cfa_offset 172
 912:/home/simulink/cFS_FreeRTOS_seL4/cfe/fsw/cfe-core/src/es/cfe_es_apps.c ****                  CFE_ES_Global.LibTable[i].RecordUsed = FALSE; /* Release Slot */
 1854               	.loc 2 912 0
 1855 1094 202F 0094 	move.l 148(%sp),%d0
 1856 1098 7215      	moveq #21,%d1
 1857 109a 4C01 0800 	muls.l %d1,%d0
 1858 109e 41F9 0000 	lea CFE_ES_Global+7728,%a0
 1858      0000 
 1859 10a4 4201      	clr.b %d1
 1860 10a6 1181 0800 	move.b %d1,(%a0,%d0.l)
68K GAS   			page 65


 913:/home/simulink/cFS_FreeRTOS_seL4/cfe/fsw/cfe-core/src/es/cfe_es_apps.c ****                  CFE_ES_UnlockSharedData(__func__,__LINE__);
 1861               	.loc 2 913 0
 1862 10aa 4878 0391 	pea 913.w
 1863               	.cfi_def_cfa_offset 176
 1864 10ae 4879 0000 	pea __func__.5840
 1864      0000 
 1865               	.cfi_def_cfa_offset 180
 1866 10b4 4EB9 0000 	jsr CFE_ES_UnlockSharedData
 1866      0000 
 1867 10ba 508F      	addq.l #8,%sp
 1868               	.cfi_def_cfa_offset 172
 914:/home/simulink/cFS_FreeRTOS_seL4/cfe/fsw/cfe-core/src/es/cfe_es_apps.c **** 
 915:/home/simulink/cFS_FreeRTOS_seL4/cfe/fsw/cfe-core/src/es/cfe_es_apps.c ****                  return(CFE_ES_ERR_LOAD_LIB);
 1869               	.loc 2 915 0
 1870 10bc 203C C400 	move.l #-1006632951,%d0
 1870      0009 
 1871 10c2 6000 0188 	jra .L76
 1872               	.L72:
 916:/home/simulink/cFS_FreeRTOS_seL4/cfe/fsw/cfe-core/src/es/cfe_es_apps.c **** 
 917:/home/simulink/cFS_FreeRTOS_seL4/cfe/fsw/cfe-core/src/es/cfe_es_apps.c ****              } /* end if -- look up symbol */
 918:/home/simulink/cFS_FreeRTOS_seL4/cfe/fsw/cfe-core/src/es/cfe_es_apps.c **** 
 919:/home/simulink/cFS_FreeRTOS_seL4/cfe/fsw/cfe-core/src/es/cfe_es_apps.c ****              FunctionPointer = (CFE_ES_LibraryEntryFuncPtr_t)StartAddr;
 1873               	.loc 2 919 0
 1874 10c6 202F 0088 	move.l 136(%sp),%d0
 1875 10ca 2F40 009C 	move.l %d0,156(%sp)
 1876 10ce 6066      	jra .L73
 1877               	.L71:
 920:/home/simulink/cFS_FreeRTOS_seL4/cfe/fsw/cfe-core/src/es/cfe_es_apps.c ****           }
 921:/home/simulink/cFS_FreeRTOS_seL4/cfe/fsw/cfe-core/src/es/cfe_es_apps.c ****           else /* load not successful */
 922:/home/simulink/cFS_FreeRTOS_seL4/cfe/fsw/cfe-core/src/es/cfe_es_apps.c ****           {
 923:/home/simulink/cFS_FreeRTOS_seL4/cfe/fsw/cfe-core/src/es/cfe_es_apps.c ****              CFE_ES_WriteToSysLog("ES Startup: Could not load cFE Shared Library\n");
 1878               	.loc 2 923 0
 1879 10d0 4879 0000 	pea .LC28
 1879      0000 
 1880               	.cfi_def_cfa_offset 176
 1881 10d6 4EB9 0000 	jsr CFE_ES_WriteToSysLog
 1881      0000 
 1882 10dc 588F      	addq.l #4,%sp
 1883               	.cfi_def_cfa_offset 172
 924:/home/simulink/cFS_FreeRTOS_seL4/cfe/fsw/cfe-core/src/es/cfe_es_apps.c **** 
 925:/home/simulink/cFS_FreeRTOS_seL4/cfe/fsw/cfe-core/src/es/cfe_es_apps.c ****              CFE_ES_LockSharedData(__func__,__LINE__);
 1884               	.loc 2 925 0
 1885 10de 4878 039D 	pea 925.w
 1886               	.cfi_def_cfa_offset 176
 1887 10e2 4879 0000 	pea __func__.5840
 1887      0000 
 1888               	.cfi_def_cfa_offset 180
 1889 10e8 4EB9 0000 	jsr CFE_ES_LockSharedData
 1889      0000 
 1890 10ee 508F      	addq.l #8,%sp
 1891               	.cfi_def_cfa_offset 172
 926:/home/simulink/cFS_FreeRTOS_seL4/cfe/fsw/cfe-core/src/es/cfe_es_apps.c ****              CFE_ES_Global.LibTable[i].RecordUsed = FALSE; /* Release Slot */
 1892               	.loc 2 926 0
 1893 10f0 202F 0094 	move.l 148(%sp),%d0
 1894 10f4 7215      	moveq #21,%d1
 1895 10f6 4C01 0800 	muls.l %d1,%d0
 1896 10fa 41F9 0000 	lea CFE_ES_Global+7728,%a0
68K GAS   			page 66


 1896      0000 
 1897 1100 4201      	clr.b %d1
 1898 1102 1181 0800 	move.b %d1,(%a0,%d0.l)
 927:/home/simulink/cFS_FreeRTOS_seL4/cfe/fsw/cfe-core/src/es/cfe_es_apps.c ****              CFE_ES_UnlockSharedData(__func__,__LINE__);
 1899               	.loc 2 927 0
 1900 1106 4878 039F 	pea 927.w
 1901               	.cfi_def_cfa_offset 176
 1902 110a 4879 0000 	pea __func__.5840
 1902      0000 
 1903               	.cfi_def_cfa_offset 180
 1904 1110 4EB9 0000 	jsr CFE_ES_UnlockSharedData
 1904      0000 
 1905 1116 508F      	addq.l #8,%sp
 1906               	.cfi_def_cfa_offset 172
 928:/home/simulink/cFS_FreeRTOS_seL4/cfe/fsw/cfe-core/src/es/cfe_es_apps.c **** 
 929:/home/simulink/cFS_FreeRTOS_seL4/cfe/fsw/cfe-core/src/es/cfe_es_apps.c ****              return(CFE_ES_ERR_LOAD_LIB);
 1907               	.loc 2 929 0
 1908 1118 203C C400 	move.l #-1006632951,%d0
 1908      0009 
 1909 111e 6000 012C 	jra .L76
 1910               	.L64:
 930:/home/simulink/cFS_FreeRTOS_seL4/cfe/fsw/cfe-core/src/es/cfe_es_apps.c ****           }
 931:/home/simulink/cFS_FreeRTOS_seL4/cfe/fsw/cfe-core/src/es/cfe_es_apps.c ****       }
 932:/home/simulink/cFS_FreeRTOS_seL4/cfe/fsw/cfe-core/src/es/cfe_es_apps.c ****       else /* Not a dynamic load - library must be statically linked into current exe */
 933:/home/simulink/cFS_FreeRTOS_seL4/cfe/fsw/cfe-core/src/es/cfe_es_apps.c ****       {
 934:/home/simulink/cFS_FreeRTOS_seL4/cfe/fsw/cfe-core/src/es/cfe_es_apps.c ****           StaticEntryPtr = (CFE_ES_AppStaticModuleApi_t *)EntryPointData;
 1911               	.loc 2 934 0
 1912 1122 2F6F 00B4 	move.l 180(%sp),144(%sp)
 1912      0090 
 935:/home/simulink/cFS_FreeRTOS_seL4/cfe/fsw/cfe-core/src/es/cfe_es_apps.c ****           FunctionPointer = StaticEntryPtr->Ptrs.LibInitFunc;
 1913               	.loc 2 935 0
 1914 1128 206F 0090 	move.l 144(%sp),%a0
 1915 112c 2F68 0004 	move.l 4(%a0),156(%sp)
 1915      009C 
 936:/home/simulink/cFS_FreeRTOS_seL4/cfe/fsw/cfe-core/src/es/cfe_es_apps.c ****           ModuleId = 0;
 1916               	.loc 2 936 0
 1917 1132 42AF 0084 	clr.l 132(%sp)
 1918               	.L73:
 937:/home/simulink/cFS_FreeRTOS_seL4/cfe/fsw/cfe-core/src/es/cfe_es_apps.c ****       }
 938:/home/simulink/cFS_FreeRTOS_seL4/cfe/fsw/cfe-core/src/es/cfe_es_apps.c ****      
 939:/home/simulink/cFS_FreeRTOS_seL4/cfe/fsw/cfe-core/src/es/cfe_es_apps.c ****       /*
 940:/home/simulink/cFS_FreeRTOS_seL4/cfe/fsw/cfe-core/src/es/cfe_es_apps.c ****       ** If the EntryPoint symbol was found, then finish creating the Library
 941:/home/simulink/cFS_FreeRTOS_seL4/cfe/fsw/cfe-core/src/es/cfe_es_apps.c ****       */
 942:/home/simulink/cFS_FreeRTOS_seL4/cfe/fsw/cfe-core/src/es/cfe_es_apps.c ****       CFE_ES_LockSharedData(__func__,__LINE__);
 1919               	.loc 2 942 0
 1920 1136 4878 03AE 	pea 942.w
 1921               	.cfi_def_cfa_offset 176
 1922 113a 4879 0000 	pea __func__.5840
 1922      0000 
 1923               	.cfi_def_cfa_offset 180
 1924 1140 4EB9 0000 	jsr CFE_ES_LockSharedData
 1924      0000 
 1925 1146 508F      	addq.l #8,%sp
 1926               	.cfi_def_cfa_offset 172
 943:/home/simulink/cFS_FreeRTOS_seL4/cfe/fsw/cfe-core/src/es/cfe_es_apps.c ****       /*
 944:/home/simulink/cFS_FreeRTOS_seL4/cfe/fsw/cfe-core/src/es/cfe_es_apps.c ****       ** Allocate and populate the ES_LibTable entry
 945:/home/simulink/cFS_FreeRTOS_seL4/cfe/fsw/cfe-core/src/es/cfe_es_apps.c ****       */
68K GAS   			page 67


 946:/home/simulink/cFS_FreeRTOS_seL4/cfe/fsw/cfe-core/src/es/cfe_es_apps.c ****       CFE_ES_Global.LibTable[i].RecordUsed = TRUE;
 1927               	.loc 2 946 0
 1928 1148 202F 0094 	move.l 148(%sp),%d0
 1929 114c 7215      	moveq #21,%d1
 1930 114e 4C01 0800 	muls.l %d1,%d0
 1931 1152 41F9 0000 	lea CFE_ES_Global+7728,%a0
 1931      0000 
 1932 1158 7201      	moveq #1,%d1
 1933 115a 1181 0800 	move.b %d1,(%a0,%d0.l)
 947:/home/simulink/cFS_FreeRTOS_seL4/cfe/fsw/cfe-core/src/es/cfe_es_apps.c ****       strncpy(CFE_ES_Global.LibTable[i].LibName, LibName, OS_MAX_API_NAME);
 1934               	.loc 2 947 0
 1935 115e 202F 0094 	move.l 148(%sp),%d0
 1936 1162 7215      	moveq #21,%d1
 1937 1164 4C01 0800 	muls.l %d1,%d0
 1938 1168 0680 0000 	add.l #7728,%d0
 1938      1E30 
 1939 116e 0680 0000 	add.l #CFE_ES_Global,%d0
 1939      0000 
 1940 1174 5280      	addq.l #1,%d0
 1941 1176 4878 0014 	pea 20.w
 1942               	.cfi_def_cfa_offset 176
 1943 117a 2F2F 00BC 	move.l 188(%sp),-(%sp)
 1944               	.cfi_def_cfa_offset 180
 1945 117e 2F00      	move.l %d0,-(%sp)
 1946               	.cfi_def_cfa_offset 184
 1947 1180 4EB9 0000 	jsr strncpy
 1947      0000 
 1948 1186 4FEF 000C 	lea (12,%sp),%sp
 1949               	.cfi_def_cfa_offset 172
 948:/home/simulink/cFS_FreeRTOS_seL4/cfe/fsw/cfe-core/src/es/cfe_es_apps.c ****       CFE_ES_Global.LibTable[i].LibName[OS_MAX_API_NAME - 1] = '\0';
 1950               	.loc 2 948 0
 1951 118a 202F 0094 	move.l 148(%sp),%d0
 1952 118e 7215      	moveq #21,%d1
 1953 1190 4C01 0800 	muls.l %d1,%d0
 1954 1194 41F9 0000 	lea CFE_ES_Global+7748,%a0
 1954      0000 
 1955 119a 4201      	clr.b %d1
 1956 119c 1181 0800 	move.b %d1,(%a0,%d0.l)
 949:/home/simulink/cFS_FreeRTOS_seL4/cfe/fsw/cfe-core/src/es/cfe_es_apps.c **** 
 950:/home/simulink/cFS_FreeRTOS_seL4/cfe/fsw/cfe-core/src/es/cfe_es_apps.c ****       /*
 951:/home/simulink/cFS_FreeRTOS_seL4/cfe/fsw/cfe-core/src/es/cfe_es_apps.c ****       ** Call the library initialization routine
 952:/home/simulink/cFS_FreeRTOS_seL4/cfe/fsw/cfe-core/src/es/cfe_es_apps.c ****       */
 953:/home/simulink/cFS_FreeRTOS_seL4/cfe/fsw/cfe-core/src/es/cfe_es_apps.c ****       ReturnCode = (*FunctionPointer)();
 1957               	.loc 2 953 0
 1958 11a0 206F 009C 	move.l 156(%sp),%a0
 1959 11a4 4E90      	jsr (%a0)
 1960               	.LVL0:
 1961 11a6 2F40 00A4 	move.l %d0,164(%sp)
 954:/home/simulink/cFS_FreeRTOS_seL4/cfe/fsw/cfe-core/src/es/cfe_es_apps.c **** 
 955:/home/simulink/cFS_FreeRTOS_seL4/cfe/fsw/cfe-core/src/es/cfe_es_apps.c ****       if(ReturnCode != CFE_SUCCESS)
 1962               	.loc 2 955 0
 1963 11aa 4AAF 00A4 	tst.l 164(%sp)
 1964 11ae 673E      	jeq .L74
 956:/home/simulink/cFS_FreeRTOS_seL4/cfe/fsw/cfe-core/src/es/cfe_es_apps.c ****       {
 957:/home/simulink/cFS_FreeRTOS_seL4/cfe/fsw/cfe-core/src/es/cfe_es_apps.c ****           CFE_ES_Global.LibTable[i].RecordUsed = FALSE;
 1965               	.loc 2 957 0
 1966 11b0 202F 0094 	move.l 148(%sp),%d0
68K GAS   			page 68


 1967 11b4 7215      	moveq #21,%d1
 1968 11b6 4C01 0800 	muls.l %d1,%d0
 1969 11ba 41F9 0000 	lea CFE_ES_Global+7728,%a0
 1969      0000 
 1970 11c0 4201      	clr.b %d1
 1971 11c2 1181 0800 	move.b %d1,(%a0,%d0.l)
 958:/home/simulink/cFS_FreeRTOS_seL4/cfe/fsw/cfe-core/src/es/cfe_es_apps.c ****           CFE_ES_UnlockSharedData(__func__,__LINE__);
 1972               	.loc 2 958 0
 1973 11c6 4878 03BE 	pea 958.w
 1974               	.cfi_def_cfa_offset 176
 1975 11ca 4879 0000 	pea __func__.5840
 1975      0000 
 1976               	.cfi_def_cfa_offset 180
 1977 11d0 4EB9 0000 	jsr CFE_ES_UnlockSharedData
 1977      0000 
 1978 11d6 508F      	addq.l #8,%sp
 1979               	.cfi_def_cfa_offset 172
 959:/home/simulink/cFS_FreeRTOS_seL4/cfe/fsw/cfe-core/src/es/cfe_es_apps.c **** 
 960:/home/simulink/cFS_FreeRTOS_seL4/cfe/fsw/cfe-core/src/es/cfe_es_apps.c ****           CFE_ES_WriteToSysLog("ES Startup: Load Shared Library Init Error.\n");
 1980               	.loc 2 960 0
 1981 11d8 4879 0000 	pea .LC29
 1981      0000 
 1982               	.cfi_def_cfa_offset 176
 1983 11de 4EB9 0000 	jsr CFE_ES_WriteToSysLog
 1983      0000 
 1984 11e4 588F      	addq.l #4,%sp
 1985               	.cfi_def_cfa_offset 172
 961:/home/simulink/cFS_FreeRTOS_seL4/cfe/fsw/cfe-core/src/es/cfe_es_apps.c ****           return(CFE_ES_ERR_LOAD_LIB);
 1986               	.loc 2 961 0
 1987 11e6 203C C400 	move.l #-1006632951,%d0
 1987      0009 
 1988 11ec 605E      	jra .L76
 1989               	.L74:
 962:/home/simulink/cFS_FreeRTOS_seL4/cfe/fsw/cfe-core/src/es/cfe_es_apps.c ****       }
 963:/home/simulink/cFS_FreeRTOS_seL4/cfe/fsw/cfe-core/src/es/cfe_es_apps.c ****       else
 964:/home/simulink/cFS_FreeRTOS_seL4/cfe/fsw/cfe-core/src/es/cfe_es_apps.c ****       {
 965:/home/simulink/cFS_FreeRTOS_seL4/cfe/fsw/cfe-core/src/es/cfe_es_apps.c ****           CFE_ES_Global.RegisteredLibs++;
 1990               	.loc 2 965 0
 1991 11ee 2039 0000 	move.l CFE_ES_Global+7724,%d0
 1991      0000 
 1992 11f4 5280      	addq.l #1,%d0
 1993 11f6 23C0 0000 	move.l %d0,CFE_ES_Global+7724
 1993      0000 
 966:/home/simulink/cFS_FreeRTOS_seL4/cfe/fsw/cfe-core/src/es/cfe_es_apps.c ****           *LibraryIdPtr = i;
 1994               	.loc 2 966 0
 1995 11fc 206F 00AC 	move.l 172(%sp),%a0
 1996 1200 20AF 0094 	move.l 148(%sp),(%a0)
 967:/home/simulink/cFS_FreeRTOS_seL4/cfe/fsw/cfe-core/src/es/cfe_es_apps.c **** 
 968:/home/simulink/cFS_FreeRTOS_seL4/cfe/fsw/cfe-core/src/es/cfe_es_apps.c ****           CFE_ES_UnlockSharedData(__func__,__LINE__);
 1997               	.loc 2 968 0
 1998 1204 4878 03C8 	pea 968.w
 1999               	.cfi_def_cfa_offset 176
 2000 1208 4879 0000 	pea __func__.5840
 2000      0000 
 2001               	.cfi_def_cfa_offset 180
 2002 120e 4EB9 0000 	jsr CFE_ES_UnlockSharedData
 2002      0000 
68K GAS   			page 69


 2003 1214 508F      	addq.l #8,%sp
 2004               	.cfi_def_cfa_offset 172
 969:/home/simulink/cFS_FreeRTOS_seL4/cfe/fsw/cfe-core/src/es/cfe_es_apps.c **** 
 970:/home/simulink/cFS_FreeRTOS_seL4/cfe/fsw/cfe-core/src/es/cfe_es_apps.c ****           /*
 971:/home/simulink/cFS_FreeRTOS_seL4/cfe/fsw/cfe-core/src/es/cfe_es_apps.c ****           ** Remove the temporary RAM disk file
 972:/home/simulink/cFS_FreeRTOS_seL4/cfe/fsw/cfe-core/src/es/cfe_es_apps.c ****           */
 973:/home/simulink/cFS_FreeRTOS_seL4/cfe/fsw/cfe-core/src/es/cfe_es_apps.c ****           if ( IsRamDiskFile == TRUE )
 2005               	.loc 2 973 0
 2006 1216 4280      	clr.l %d0
 2007 1218 102F 009B 	move.b 155(%sp),%d0
 2008 121c 7201      	moveq #1,%d1
 2009 121e B280      	cmp.l %d0,%d1
 2010 1220 6612      	jne .L75
 974:/home/simulink/cFS_FreeRTOS_seL4/cfe/fsw/cfe-core/src/es/cfe_es_apps.c ****           {
 975:/home/simulink/cFS_FreeRTOS_seL4/cfe/fsw/cfe-core/src/es/cfe_es_apps.c ****              ReturnCode = OS_remove(RamDiskPath);
 2011               	.loc 2 975 0
 2012 1222 200F      	move.l %sp,%d0
 2013 1224 5880      	addq.l #4,%d0
 2014 1226 2F00      	move.l %d0,-(%sp)
 2015               	.cfi_def_cfa_offset 176
 2016 1228 4EB9 0000 	jsr OS_remove
 2016      0000 
 2017 122e 588F      	addq.l #4,%sp
 2018               	.cfi_def_cfa_offset 172
 2019 1230 2F40 00A4 	move.l %d0,164(%sp)
 2020               	.L75:
 976:/home/simulink/cFS_FreeRTOS_seL4/cfe/fsw/cfe-core/src/es/cfe_es_apps.c ****           }
 977:/home/simulink/cFS_FreeRTOS_seL4/cfe/fsw/cfe-core/src/es/cfe_es_apps.c ****           return(CFE_SUCCESS);
 2021               	.loc 2 977 0
 2022 1234 4280      	clr.l %d0
 2023 1236 6014      	jra .L76
 2024               	.L63:
 978:/home/simulink/cFS_FreeRTOS_seL4/cfe/fsw/cfe-core/src/es/cfe_es_apps.c ****       }
 979:/home/simulink/cFS_FreeRTOS_seL4/cfe/fsw/cfe-core/src/es/cfe_es_apps.c ****    }
 980:/home/simulink/cFS_FreeRTOS_seL4/cfe/fsw/cfe-core/src/es/cfe_es_apps.c ****    else /* libSlot not found */
 981:/home/simulink/cFS_FreeRTOS_seL4/cfe/fsw/cfe-core/src/es/cfe_es_apps.c ****    {
 982:/home/simulink/cFS_FreeRTOS_seL4/cfe/fsw/cfe-core/src/es/cfe_es_apps.c ****       CFE_ES_WriteToSysLog("ES Startup: No free library slots available\n");
 2025               	.loc 2 982 0
 2026 1238 4879 0000 	pea .LC30
 2026      0000 
 2027               	.cfi_def_cfa_offset 176
 2028 123e 4EB9 0000 	jsr CFE_ES_WriteToSysLog
 2028      0000 
 2029 1244 588F      	addq.l #4,%sp
 2030               	.cfi_def_cfa_offset 172
 983:/home/simulink/cFS_FreeRTOS_seL4/cfe/fsw/cfe-core/src/es/cfe_es_apps.c ****       return(CFE_ES_ERR_LOAD_LIB); 
 2031               	.loc 2 983 0
 2032 1246 203C C400 	move.l #-1006632951,%d0
 2032      0009 
 2033               	.L76:
 984:/home/simulink/cFS_FreeRTOS_seL4/cfe/fsw/cfe-core/src/es/cfe_es_apps.c ****    }
 985:/home/simulink/cFS_FreeRTOS_seL4/cfe/fsw/cfe-core/src/es/cfe_es_apps.c **** 
 986:/home/simulink/cFS_FreeRTOS_seL4/cfe/fsw/cfe-core/src/es/cfe_es_apps.c **** 
 987:/home/simulink/cFS_FreeRTOS_seL4/cfe/fsw/cfe-core/src/es/cfe_es_apps.c **** } /* End Function */
 2034               	.loc 2 987 0 discriminator 2
 2035 124c 241F      	move.l (%sp)+,%d2
 2036 124e 4FEF 00A4 	lea (164,%sp),%sp
68K GAS   			page 70


 2037 1252 4E75      	rts
 2038               	.cfi_endproc
 2039               	.LFE62:
 2040               	.sizeCFE_ES_LoadLibrary, .-CFE_ES_LoadLibrary
 2041               	.align2
 2042               	.globlCFE_ES_ScanAppTable
 2043               	.typeCFE_ES_ScanAppTable, @function
 2044               	CFE_ES_ScanAppTable:
 2045               	.LFB63:
 988:/home/simulink/cFS_FreeRTOS_seL4/cfe/fsw/cfe-core/src/es/cfe_es_apps.c **** 
 989:/home/simulink/cFS_FreeRTOS_seL4/cfe/fsw/cfe-core/src/es/cfe_es_apps.c **** /*
 990:/home/simulink/cFS_FreeRTOS_seL4/cfe/fsw/cfe-core/src/es/cfe_es_apps.c **** **---------------------------------------------------------------------------------------
 991:/home/simulink/cFS_FreeRTOS_seL4/cfe/fsw/cfe-core/src/es/cfe_es_apps.c **** ** Name: CFE_ES_ScanAppTable
 992:/home/simulink/cFS_FreeRTOS_seL4/cfe/fsw/cfe-core/src/es/cfe_es_apps.c **** **
 993:/home/simulink/cFS_FreeRTOS_seL4/cfe/fsw/cfe-core/src/es/cfe_es_apps.c **** **   Purpose: This function scans the ES Application table and acts on the changes
 994:/home/simulink/cFS_FreeRTOS_seL4/cfe/fsw/cfe-core/src/es/cfe_es_apps.c **** **             in application states. This is where the external cFE Applications are
 995:/home/simulink/cFS_FreeRTOS_seL4/cfe/fsw/cfe-core/src/es/cfe_es_apps.c **** **             restarted, reloaded, or deleted.
 996:/home/simulink/cFS_FreeRTOS_seL4/cfe/fsw/cfe-core/src/es/cfe_es_apps.c **** **---------------------------------------------------------------------------------------
 997:/home/simulink/cFS_FreeRTOS_seL4/cfe/fsw/cfe-core/src/es/cfe_es_apps.c **** */
 998:/home/simulink/cFS_FreeRTOS_seL4/cfe/fsw/cfe-core/src/es/cfe_es_apps.c **** void CFE_ES_ScanAppTable(void)
 999:/home/simulink/cFS_FreeRTOS_seL4/cfe/fsw/cfe-core/src/es/cfe_es_apps.c **** {
 2046               	.loc 2 999 0
 2047               	.cfi_startproc
 2048 1254 598F      	subq.l #4,%sp
 2049               	.cfi_def_cfa_offset 8
 2050 1256 2F02      	move.l %d2,-(%sp)
 2051               	.cfi_def_cfa_offset 12
 2052               	.cfi_offset 2, -12
1000:/home/simulink/cFS_FreeRTOS_seL4/cfe/fsw/cfe-core/src/es/cfe_es_apps.c ****    uint32 i;
1001:/home/simulink/cFS_FreeRTOS_seL4/cfe/fsw/cfe-core/src/es/cfe_es_apps.c ****          
1002:/home/simulink/cFS_FreeRTOS_seL4/cfe/fsw/cfe-core/src/es/cfe_es_apps.c ****    /*
1003:/home/simulink/cFS_FreeRTOS_seL4/cfe/fsw/cfe-core/src/es/cfe_es_apps.c ****    ** Scan the ES Application table. Skip entries that are:
1004:/home/simulink/cFS_FreeRTOS_seL4/cfe/fsw/cfe-core/src/es/cfe_es_apps.c ****    **  - Not in use, or 
1005:/home/simulink/cFS_FreeRTOS_seL4/cfe/fsw/cfe-core/src/es/cfe_es_apps.c ****    **  - cFE Core apps, or
1006:/home/simulink/cFS_FreeRTOS_seL4/cfe/fsw/cfe-core/src/es/cfe_es_apps.c ****    **  - Currently running
1007:/home/simulink/cFS_FreeRTOS_seL4/cfe/fsw/cfe-core/src/es/cfe_es_apps.c ****    */
1008:/home/simulink/cFS_FreeRTOS_seL4/cfe/fsw/cfe-core/src/es/cfe_es_apps.c ****    for ( i = 0; i < CFE_ES_MAX_APPLICATIONS; i++ )
 2053               	.loc 2 1008 0
 2054 1258 42AF 0004 	clr.l 4(%sp)
 2055 125c 6000 0116 	jra .L78
 2056               	.L83:
1009:/home/simulink/cFS_FreeRTOS_seL4/cfe/fsw/cfe-core/src/es/cfe_es_apps.c ****    {
1010:/home/simulink/cFS_FreeRTOS_seL4/cfe/fsw/cfe-core/src/es/cfe_es_apps.c ****    
1011:/home/simulink/cFS_FreeRTOS_seL4/cfe/fsw/cfe-core/src/es/cfe_es_apps.c ****       if ((CFE_ES_Global.AppTable[i].RecordUsed == TRUE) && 
 2057               	.loc 2 1011 0
 2058 1260 202F 0004 	move.l 4(%sp),%d0
 2059 1264 223C 0000 	move.l #168,%d1
 2059      00A8 
 2060 126a 4C01 0800 	muls.l %d1,%d0
 2061 126e 41F9 0000 	lea CFE_ES_Global+2348,%a0
 2061      0000 
 2062 1274 1030 0800 	move.b (%a0,%d0.l),%d0
 2063 1278 1000      	move.b %d0,%d0
 2064 127a 0280 0000 	and.l #255,%d0
 2064      00FF 
 2065 1280 7401      	moveq #1,%d2
 2066 1282 B480      	cmp.l %d0,%d2
68K GAS   			page 71


 2067 1284 6600 00EA 	jne .L79
1012:/home/simulink/cFS_FreeRTOS_seL4/cfe/fsw/cfe-core/src/es/cfe_es_apps.c ****           (CFE_ES_Global.AppTable[i].Type == CFE_ES_APP_TYPE_EXTERNAL) && 
 2068               	.loc 2 1012 0 discriminator 1
 2069 1288 202F 0004 	move.l 4(%sp),%d0
 2070 128c 223C 0000 	move.l #168,%d1
 2070      00A8 
 2071 1292 4C01 0800 	muls.l %d1,%d0
 2072 1296 41F9 0000 	lea CFE_ES_Global+2352,%a0
 2072      0000 
 2073 129c 2030 0800 	move.l (%a0,%d0.l),%d0
1011:/home/simulink/cFS_FreeRTOS_seL4/cfe/fsw/cfe-core/src/es/cfe_es_apps.c ****           (CFE_ES_Global.AppTable[i].Type == CFE_ES_APP_TYPE_EXTERNAL) && 
 2074               	.loc 2 1011 0 discriminator 1
 2075 12a0 7402      	moveq #2,%d2
 2076 12a2 B480      	cmp.l %d0,%d2
 2077 12a4 6600 00CA 	jne .L79
1013:/home/simulink/cFS_FreeRTOS_seL4/cfe/fsw/cfe-core/src/es/cfe_es_apps.c ****           (CFE_ES_Global.AppTable[i].StateRecord.AppState != CFE_ES_APP_STATE_RUNNING))
 2078               	.loc 2 1013 0
 2079 12a8 202F 0004 	move.l 4(%sp),%d0
 2080 12ac 223C 0000 	move.l #168,%d1
 2080      00A8 
 2081 12b2 4C01 0800 	muls.l %d1,%d0
 2082 12b6 41F9 0000 	lea CFE_ES_Global+2480,%a0
 2082      0000 
 2083 12bc 2030 0800 	move.l (%a0,%d0.l),%d0
1012:/home/simulink/cFS_FreeRTOS_seL4/cfe/fsw/cfe-core/src/es/cfe_es_apps.c ****           (CFE_ES_Global.AppTable[i].Type == CFE_ES_APP_TYPE_EXTERNAL) && 
 2084               	.loc 2 1012 0
 2085 12c0 7401      	moveq #1,%d2
 2086 12c2 B480      	cmp.l %d0,%d2
 2087 12c4 6700 00AA 	jeq .L79
1014:/home/simulink/cFS_FreeRTOS_seL4/cfe/fsw/cfe-core/src/es/cfe_es_apps.c ****       {
1015:/home/simulink/cFS_FreeRTOS_seL4/cfe/fsw/cfe-core/src/es/cfe_es_apps.c ****       
1016:/home/simulink/cFS_FreeRTOS_seL4/cfe/fsw/cfe-core/src/es/cfe_es_apps.c ****           /*
1017:/home/simulink/cFS_FreeRTOS_seL4/cfe/fsw/cfe-core/src/es/cfe_es_apps.c ****           ** Process the External cFE App according to it's state.
1018:/home/simulink/cFS_FreeRTOS_seL4/cfe/fsw/cfe-core/src/es/cfe_es_apps.c ****           */
1019:/home/simulink/cFS_FreeRTOS_seL4/cfe/fsw/cfe-core/src/es/cfe_es_apps.c ****           if ( CFE_ES_Global.AppTable[i].StateRecord.AppState == CFE_ES_APP_STATE_WAITING )
 2088               	.loc 2 1019 0
 2089 12c8 202F 0004 	move.l 4(%sp),%d0
 2090 12cc 223C 0000 	move.l #168,%d1
 2090      00A8 
 2091 12d2 4C01 0800 	muls.l %d1,%d0
 2092 12d6 41F9 0000 	lea CFE_ES_Global+2480,%a0
 2092      0000 
 2093 12dc 2030 0800 	move.l (%a0,%d0.l),%d0
 2094 12e0 7403      	moveq #3,%d2
 2095 12e2 B480      	cmp.l %d0,%d2
 2096 12e4 6660      	jne .L80
1020:/home/simulink/cFS_FreeRTOS_seL4/cfe/fsw/cfe-core/src/es/cfe_es_apps.c ****           {
1021:/home/simulink/cFS_FreeRTOS_seL4/cfe/fsw/cfe-core/src/es/cfe_es_apps.c ****               /*
1022:/home/simulink/cFS_FreeRTOS_seL4/cfe/fsw/cfe-core/src/es/cfe_es_apps.c ****               ** If the timeout value is zero, take the action to delete/restart/reload the app
1023:/home/simulink/cFS_FreeRTOS_seL4/cfe/fsw/cfe-core/src/es/cfe_es_apps.c ****               */
1024:/home/simulink/cFS_FreeRTOS_seL4/cfe/fsw/cfe-core/src/es/cfe_es_apps.c ****               if ( CFE_ES_Global.AppTable[i].StateRecord.AppTimer <= 0 )
 2097               	.loc 2 1024 0
 2098 12e6 202F 0004 	move.l 4(%sp),%d0
 2099 12ea 223C 0000 	move.l #168,%d1
 2099      00A8 
 2100 12f0 4C01 0800 	muls.l %d1,%d0
 2101 12f4 41F9 0000 	lea CFE_ES_Global+2484,%a0
68K GAS   			page 72


 2101      0000 
 2102 12fa 2030 0800 	move.l (%a0,%d0.l),%d0
 2103 12fe 4A80      	tst.l %d0
 2104 1300 6E0E      	jgt .L81
1025:/home/simulink/cFS_FreeRTOS_seL4/cfe/fsw/cfe-core/src/es/cfe_es_apps.c ****               {              
1026:/home/simulink/cFS_FreeRTOS_seL4/cfe/fsw/cfe-core/src/es/cfe_es_apps.c ****                  CFE_ES_ProcessControlRequest(i);
 2105               	.loc 2 1026 0
 2106 1302 2F2F 0004 	move.l 4(%sp),-(%sp)
 2107               	.cfi_def_cfa_offset 16
 2108 1306 4EB9 0000 	jsr CFE_ES_ProcessControlRequest
 2108      0000 
 2109 130c 588F      	addq.l #4,%sp
 2110               	.cfi_def_cfa_offset 12
 2111 130e 6060      	jra .L79
 2112               	.L81:
1027:/home/simulink/cFS_FreeRTOS_seL4/cfe/fsw/cfe-core/src/es/cfe_es_apps.c ****               }
1028:/home/simulink/cFS_FreeRTOS_seL4/cfe/fsw/cfe-core/src/es/cfe_es_apps.c ****               else
1029:/home/simulink/cFS_FreeRTOS_seL4/cfe/fsw/cfe-core/src/es/cfe_es_apps.c ****               {
1030:/home/simulink/cFS_FreeRTOS_seL4/cfe/fsw/cfe-core/src/es/cfe_es_apps.c ****                  #ifdef ES_APP_DEBUG
1031:/home/simulink/cFS_FreeRTOS_seL4/cfe/fsw/cfe-core/src/es/cfe_es_apps.c ****                     OS_printf("%d..\n",(int)CFE_ES_Global.AppTable[i].StateRecord.AppTimer);
1032:/home/simulink/cFS_FreeRTOS_seL4/cfe/fsw/cfe-core/src/es/cfe_es_apps.c ****                  #endif
1033:/home/simulink/cFS_FreeRTOS_seL4/cfe/fsw/cfe-core/src/es/cfe_es_apps.c ****                  CFE_ES_Global.AppTable[i].StateRecord.AppTimer --;   
 2113               	.loc 2 1033 0
 2114 1310 202F 0004 	move.l 4(%sp),%d0
 2115 1314 243C 0000 	move.l #168,%d2
 2115      00A8 
 2116 131a 4C02 0800 	muls.l %d2,%d0
 2117 131e 41F9 0000 	lea CFE_ES_Global+2484,%a0
 2117      0000 
 2118 1324 2030 0800 	move.l (%a0,%d0.l),%d0
 2119 1328 2200      	move.l %d0,%d1
 2120 132a 5381      	subq.l #1,%d1
 2121 132c 202F 0004 	move.l 4(%sp),%d0
 2122 1330 243C 0000 	move.l #168,%d2
 2122      00A8 
 2123 1336 4C02 0800 	muls.l %d2,%d0
 2124 133a 41F9 0000 	lea CFE_ES_Global+2484,%a0
 2124      0000 
 2125 1340 2181 0800 	move.l %d1,(%a0,%d0.l)
 2126 1344 602A      	jra .L79
 2127               	.L80:
1034:/home/simulink/cFS_FreeRTOS_seL4/cfe/fsw/cfe-core/src/es/cfe_es_apps.c ****                                 
1035:/home/simulink/cFS_FreeRTOS_seL4/cfe/fsw/cfe-core/src/es/cfe_es_apps.c ****               }
1036:/home/simulink/cFS_FreeRTOS_seL4/cfe/fsw/cfe-core/src/es/cfe_es_apps.c ****               
1037:/home/simulink/cFS_FreeRTOS_seL4/cfe/fsw/cfe-core/src/es/cfe_es_apps.c ****           }
1038:/home/simulink/cFS_FreeRTOS_seL4/cfe/fsw/cfe-core/src/es/cfe_es_apps.c ****           else if ( CFE_ES_Global.AppTable[i].StateRecord.AppState == CFE_ES_APP_STATE_STOPPED )
 2128               	.loc 2 1038 0
 2129 1346 202F 0004 	move.l 4(%sp),%d0
 2130 134a 223C 0000 	move.l #168,%d1
 2130      00A8 
 2131 1350 4C01 0800 	muls.l %d1,%d0
 2132 1354 41F9 0000 	lea CFE_ES_Global+2480,%a0
 2132      0000 
 2133 135a 2030 0800 	move.l (%a0,%d0.l),%d0
 2134 135e 7402      	moveq #2,%d2
 2135 1360 B480      	cmp.l %d0,%d2
 2136 1362 660C      	jne .L79
68K GAS   			page 73


1039:/home/simulink/cFS_FreeRTOS_seL4/cfe/fsw/cfe-core/src/es/cfe_es_apps.c ****           {
1040:/home/simulink/cFS_FreeRTOS_seL4/cfe/fsw/cfe-core/src/es/cfe_es_apps.c ****               /*
1041:/home/simulink/cFS_FreeRTOS_seL4/cfe/fsw/cfe-core/src/es/cfe_es_apps.c ****               ** The App is stopped and ready to get deleted/restarted/reloaded
1042:/home/simulink/cFS_FreeRTOS_seL4/cfe/fsw/cfe-core/src/es/cfe_es_apps.c ****               */
1043:/home/simulink/cFS_FreeRTOS_seL4/cfe/fsw/cfe-core/src/es/cfe_es_apps.c ****               CFE_ES_ProcessControlRequest(i);
 2137               	.loc 2 1043 0
 2138 1364 2F2F 0004 	move.l 4(%sp),-(%sp)
 2139               	.cfi_def_cfa_offset 16
 2140 1368 4EB9 0000 	jsr CFE_ES_ProcessControlRequest
 2140      0000 
 2141 136e 588F      	addq.l #4,%sp
 2142               	.cfi_def_cfa_offset 12
 2143               	.L79:
1008:/home/simulink/cFS_FreeRTOS_seL4/cfe/fsw/cfe-core/src/es/cfe_es_apps.c ****    {
 2144               	.loc 2 1008 0 discriminator 2
 2145 1370 52AF 0004 	addq.l #1,4(%sp)
 2146               	.L78:
1008:/home/simulink/cFS_FreeRTOS_seL4/cfe/fsw/cfe-core/src/es/cfe_es_apps.c ****    {
 2147               	.loc 2 1008 0 is_stmt 0 discriminator 1
 2148 1374 701F      	moveq #31,%d0
 2149 1376 B0AF 0004 	cmp.l 4(%sp),%d0
 2150 137a 6400 FEE4 	jcc .L83
1044:/home/simulink/cFS_FreeRTOS_seL4/cfe/fsw/cfe-core/src/es/cfe_es_apps.c ****             
1045:/home/simulink/cFS_FreeRTOS_seL4/cfe/fsw/cfe-core/src/es/cfe_es_apps.c ****           } /* end if */
1046:/home/simulink/cFS_FreeRTOS_seL4/cfe/fsw/cfe-core/src/es/cfe_es_apps.c ****                        
1047:/home/simulink/cFS_FreeRTOS_seL4/cfe/fsw/cfe-core/src/es/cfe_es_apps.c ****       } /* end if */
1048:/home/simulink/cFS_FreeRTOS_seL4/cfe/fsw/cfe-core/src/es/cfe_es_apps.c **** 
1049:/home/simulink/cFS_FreeRTOS_seL4/cfe/fsw/cfe-core/src/es/cfe_es_apps.c ****    } /* end for loop */
1050:/home/simulink/cFS_FreeRTOS_seL4/cfe/fsw/cfe-core/src/es/cfe_es_apps.c **** 
1051:/home/simulink/cFS_FreeRTOS_seL4/cfe/fsw/cfe-core/src/es/cfe_es_apps.c **** } /* End Function */
 2151               	.loc 2 1051 0 is_stmt 1
 2152 137e 4E71      	nop
 2153 1380 241F      	move.l (%sp)+,%d2
 2154 1382 588F      	addq.l #4,%sp
 2155 1384 4E75      	rts
 2156               	.cfi_endproc
 2157               	.LFE63:
 2158               	.sizeCFE_ES_ScanAppTable, .-CFE_ES_ScanAppTable
 2159               	.section.rodata
 2160               	.LC31:
 2161 05ae 4578 6974 	.string"Exit Application %s Completed."
 2161      2041 7070 
 2161      6C69 6361 
 2161      7469 6F6E 
 2161      2025 7320 
 2162               	.LC32:
 2163 05cd 4578 6974 	.string"Exit Application %s Failed: CleanUpApp Error 0x%08X."
 2163      2041 7070 
 2163      6C69 6361 
 2163      7469 6F6E 
 2163      2025 7320 
 2164               	.LC33:
 2165 0602 4578 6974 	.string"Exit Application %s on Error Completed."
 2165      2041 7070 
 2165      6C69 6361 
 2165      7469 6F6E 
 2165      2025 7320 
68K GAS   			page 74


 2166               	.LC34:
 2167 062a 4578 6974 	.string"Exit Application %s on Error Failed: CleanUpApp Error 0x%08X."
 2167      2041 7070 
 2167      6C69 6361 
 2167      7469 6F6E 
 2167      2025 7320 
 2168               	.LC35:
 2169 0668 5374 6F70 	.string"Stop Application %s Completed."
 2169      2041 7070 
 2169      6C69 6361 
 2169      7469 6F6E 
 2169      2025 7320 
 2170               	.LC36:
 2171 0687 5374 6F70 	.string"Stop Application %s Failed: CleanUpApp Error 0x%08X."
 2171      2041 7070 
 2171      6C69 6361 
 2171      7469 6F6E 
 2171      2025 7320 
 2172               	.LC37:
 2173 06bc 5265 7374 	.string"Restart Application %s Completed."
 2173      6172 7420 
 2173      4170 706C 
 2173      6963 6174 
 2173      696F 6E20 
 2174               	.LC38:
 2175 06de 5265 7374 	.string"Restart Application %s Failed: AppCreate Error 0x%08X."
 2175      6172 7420 
 2175      4170 706C 
 2175      6963 6174 
 2175      696F 6E20 
 2176               	.LC39:
 2177 0715 5265 7374 	.string"Restart Application %s Failed: CleanUpApp Error 0x%08X."
 2177      6172 7420 
 2177      4170 706C 
 2177      6963 6174 
 2177      696F 6E20 
 2178               	.LC40:
 2179 074d 5265 6C6F 	.string"Reload Application %s Completed."
 2179      6164 2041 
 2179      7070 6C69 
 2179      6361 7469 
 2179      6F6E 2025 
 2180               	.LC41:
 2181 076e 5265 6C6F 	.string"Reload Application %s Failed: AppCreate Error 0x%08X."
 2181      6164 2041 
 2181      7070 6C69 
 2181      6361 7469 
 2181      6F6E 2025 
 2182               	.LC42:
 2183 07a4 5265 6C6F 	.string"Reload Application %s Failed: CleanUpApp Error 0x%08X."
 2183      6164 2041 
 2183      7070 6C69 
 2183      6361 7469 
 2183      6F6E 2025 
 2184               	.LC43:
 2185 07db 4553 5F50 	.string"ES_ProcControlReq: Invalid State (EXCEPTION) Application %s."
 2185      726F 6343 
68K GAS   			page 75


 2185      6F6E 7472 
 2185      6F6C 5265 
 2185      713A 2049 
 2186               	.LC44:
 2187 0818 4553 5F50 	.string"ES_ProcControlReq: Unknown State ( %d ) Application %s."
 2187      726F 6343 
 2187      6F6E 7472 
 2187      6F6C 5265 
 2187      713A 2055 
 2188               	.text
 2189               	.align2
 2190               	.globlCFE_ES_ProcessControlRequest
 2191               	.typeCFE_ES_ProcessControlRequest, @function
 2192               	CFE_ES_ProcessControlRequest:
 2193               	.LFB64:
1052:/home/simulink/cFS_FreeRTOS_seL4/cfe/fsw/cfe-core/src/es/cfe_es_apps.c **** 
1053:/home/simulink/cFS_FreeRTOS_seL4/cfe/fsw/cfe-core/src/es/cfe_es_apps.c **** 
1054:/home/simulink/cFS_FreeRTOS_seL4/cfe/fsw/cfe-core/src/es/cfe_es_apps.c **** /*
1055:/home/simulink/cFS_FreeRTOS_seL4/cfe/fsw/cfe-core/src/es/cfe_es_apps.c **** **---------------------------------------------------------------------------------------
1056:/home/simulink/cFS_FreeRTOS_seL4/cfe/fsw/cfe-core/src/es/cfe_es_apps.c **** **   Name: CFE_ES_ProcessControlRequest
1057:/home/simulink/cFS_FreeRTOS_seL4/cfe/fsw/cfe-core/src/es/cfe_es_apps.c **** **
1058:/home/simulink/cFS_FreeRTOS_seL4/cfe/fsw/cfe-core/src/es/cfe_es_apps.c **** **   Purpose: This function will perform the requested control action for an application.
1059:/home/simulink/cFS_FreeRTOS_seL4/cfe/fsw/cfe-core/src/es/cfe_es_apps.c **** **---------------------------------------------------------------------------------------
1060:/home/simulink/cFS_FreeRTOS_seL4/cfe/fsw/cfe-core/src/es/cfe_es_apps.c **** */
1061:/home/simulink/cFS_FreeRTOS_seL4/cfe/fsw/cfe-core/src/es/cfe_es_apps.c **** void CFE_ES_ProcessControlRequest(uint32 AppID)
1062:/home/simulink/cFS_FreeRTOS_seL4/cfe/fsw/cfe-core/src/es/cfe_es_apps.c **** {
 2194               	.loc 2 1062 0
 2195               	.cfi_startproc
 2196 1386 4FEF FF80 	lea (-128,%sp),%sp
 2197               	.cfi_def_cfa_offset 132
1063:/home/simulink/cFS_FreeRTOS_seL4/cfe/fsw/cfe-core/src/es/cfe_es_apps.c ****    
1064:/home/simulink/cFS_FreeRTOS_seL4/cfe/fsw/cfe-core/src/es/cfe_es_apps.c ****    int32                   Status;
1065:/home/simulink/cFS_FreeRTOS_seL4/cfe/fsw/cfe-core/src/es/cfe_es_apps.c ****    CFE_ES_AppStartParams_t AppStartParams;
1066:/home/simulink/cFS_FreeRTOS_seL4/cfe/fsw/cfe-core/src/es/cfe_es_apps.c ****    uint32                  NewAppId;
1067:/home/simulink/cFS_FreeRTOS_seL4/cfe/fsw/cfe-core/src/es/cfe_es_apps.c ****    
1068:/home/simulink/cFS_FreeRTOS_seL4/cfe/fsw/cfe-core/src/es/cfe_es_apps.c ****    /*
1069:/home/simulink/cFS_FreeRTOS_seL4/cfe/fsw/cfe-core/src/es/cfe_es_apps.c ****    ** First get a copy of the Apps Start Parameters
1070:/home/simulink/cFS_FreeRTOS_seL4/cfe/fsw/cfe-core/src/es/cfe_es_apps.c ****    */
1071:/home/simulink/cFS_FreeRTOS_seL4/cfe/fsw/cfe-core/src/es/cfe_es_apps.c ****    CFE_PSP_MemCpy(&AppStartParams, &(CFE_ES_Global.AppTable[AppID].StartParams), sizeof(CFE_ES_AppS
 2198               	.loc 2 1071 0
 2199 138a 202F 0084 	move.l 132(%sp),%d0
 2200 138e 223C 0000 	move.l #168,%d1
 2200      00A8 
 2201 1394 4C01 0800 	muls.l %d1,%d0
 2202 1398 0680 0000 	add.l #2356,%d0
 2202      0934 
 2203 139e 0680 0000 	add.l #CFE_ES_Global,%d0
 2203      0000 
 2204 13a4 4878 0078 	pea 120.w
 2205               	.cfi_def_cfa_offset 136
 2206 13a8 2F00      	move.l %d0,-(%sp)
 2207               	.cfi_def_cfa_offset 140
 2208 13aa 200F      	move.l %sp,%d0
 2209 13ac 0680 0000 	add.l #12,%d0
 2209      000C 
 2210 13b2 2F00      	move.l %d0,-(%sp)
 2211               	.cfi_def_cfa_offset 144
68K GAS   			page 76


 2212 13b4 4EB9 0000 	jsr CFE_PSP_MemCpy
 2212      0000 
 2213 13ba 4FEF 000C 	lea (12,%sp),%sp
 2214               	.cfi_def_cfa_offset 132
1072:/home/simulink/cFS_FreeRTOS_seL4/cfe/fsw/cfe-core/src/es/cfe_es_apps.c ****    
1073:/home/simulink/cFS_FreeRTOS_seL4/cfe/fsw/cfe-core/src/es/cfe_es_apps.c ****    /*
1074:/home/simulink/cFS_FreeRTOS_seL4/cfe/fsw/cfe-core/src/es/cfe_es_apps.c ****    ** Now, find out what kind of Application control is being requested
1075:/home/simulink/cFS_FreeRTOS_seL4/cfe/fsw/cfe-core/src/es/cfe_es_apps.c ****    */
1076:/home/simulink/cFS_FreeRTOS_seL4/cfe/fsw/cfe-core/src/es/cfe_es_apps.c ****    switch ( CFE_ES_Global.AppTable[AppID].StateRecord.AppControlRequest )
 2215               	.loc 2 1076 0
 2216 13be 202F 0084 	move.l 132(%sp),%d0
 2217 13c2 223C 0000 	move.l #168,%d1
 2217      00A8 
 2218 13c8 4C01 0800 	muls.l %d1,%d0
 2219 13cc 41F9 0000 	lea CFE_ES_Global+2476,%a0
 2219      0000 
 2220 13d2 2030 0800 	move.l (%a0,%d0.l),%d0
 2221 13d6 7207      	moveq #7,%d1
 2222 13d8 B280      	cmp.l %d0,%d1
 2223 13da 6500 0342 	jcs .L85
 2224 13de D080      	add.l %d0,%d0
 2225 13e0 2040      	move.l %d0,%a0
 2226 13e2 D1FC 0000 	add.l #.L87,%a0
 2226      0000 
 2227 13e8 3010      	move.w (%a0),%d0
 2228 13ea 48C0      	ext.l %d0
 2229 13ec 4EFB 0802 	jmp %pc@(2,%d0:l)
 2230               	.balignw 2,0x284c
 2231               	.swbeg&8
 2232               	.L87:
 2233 13f0 032E      	.word .L85-.L87
 2234 13f2 032E      	.word .L85-.L87
 2235 13f4 0010      	.word .L86-.L87
 2236 13f6 0070      	.word .L88-.L87
 2237 13f8 030E      	.word .L89-.L87
 2238 13fa 0130      	.word .L90-.L87
 2239 13fc 0220      	.word .L91-.L87
 2240 13fe 00D0      	.word .L92-.L87
 2241               	.L86:
1077:/home/simulink/cFS_FreeRTOS_seL4/cfe/fsw/cfe-core/src/es/cfe_es_apps.c ****    {
1078:/home/simulink/cFS_FreeRTOS_seL4/cfe/fsw/cfe-core/src/es/cfe_es_apps.c ****          
1079:/home/simulink/cFS_FreeRTOS_seL4/cfe/fsw/cfe-core/src/es/cfe_es_apps.c ****       case CFE_ES_RUNSTATUS_APP_EXIT:
1080:/home/simulink/cFS_FreeRTOS_seL4/cfe/fsw/cfe-core/src/es/cfe_es_apps.c ****          /*
1081:/home/simulink/cFS_FreeRTOS_seL4/cfe/fsw/cfe-core/src/es/cfe_es_apps.c ****          ** Kill the app, and dont restart it
1082:/home/simulink/cFS_FreeRTOS_seL4/cfe/fsw/cfe-core/src/es/cfe_es_apps.c ****          */
1083:/home/simulink/cFS_FreeRTOS_seL4/cfe/fsw/cfe-core/src/es/cfe_es_apps.c ****          Status = CFE_ES_CleanUpApp(AppID);
 2242               	.loc 2 1083 0
 2243 1400 2F2F 0084 	move.l 132(%sp),-(%sp)
 2244               	.cfi_def_cfa_offset 136
 2245 1404 4EB9 0000 	jsr CFE_ES_CleanUpApp
 2245      0000 
 2246 140a 588F      	addq.l #4,%sp
 2247               	.cfi_def_cfa_offset 132
 2248 140c 2F40 007C 	move.l %d0,124(%sp)
1084:/home/simulink/cFS_FreeRTOS_seL4/cfe/fsw/cfe-core/src/es/cfe_es_apps.c **** 
1085:/home/simulink/cFS_FreeRTOS_seL4/cfe/fsw/cfe-core/src/es/cfe_es_apps.c ****          if ( Status == CFE_SUCCESS )
 2249               	.loc 2 1085 0
68K GAS   			page 77


 2250 1410 4AAF 007C 	tst.l 124(%sp)
 2251 1414 6622      	jne .L93
1086:/home/simulink/cFS_FreeRTOS_seL4/cfe/fsw/cfe-core/src/es/cfe_es_apps.c ****          {
1087:/home/simulink/cFS_FreeRTOS_seL4/cfe/fsw/cfe-core/src/es/cfe_es_apps.c ****             CFE_EVS_SendEvent(CFE_ES_EXIT_APP_INF_EID, CFE_EVS_INFORMATION, 
 2252               	.loc 2 1087 0
 2253 1416 200F      	move.l %sp,%d0
 2254 1418 5880      	addq.l #4,%d0
 2255 141a 2F00      	move.l %d0,-(%sp)
 2256               	.cfi_def_cfa_offset 136
 2257 141c 4879 0000 	pea .LC31
 2257      0000 
 2258               	.cfi_def_cfa_offset 140
 2259 1422 4878 0002 	pea 2.w
 2260               	.cfi_def_cfa_offset 144
 2261 1426 4878 000D 	pea 13.w
 2262               	.cfi_def_cfa_offset 148
 2263 142a 4EB9 0000 	jsr CFE_EVS_SendEvent
 2263      0000 
 2264 1430 4FEF 0010 	lea (16,%sp),%sp
 2265               	.cfi_def_cfa_offset 132
1088:/home/simulink/cFS_FreeRTOS_seL4/cfe/fsw/cfe-core/src/es/cfe_es_apps.c ****                               "Exit Application %s Completed.",AppStartParams.Name);
1089:/home/simulink/cFS_FreeRTOS_seL4/cfe/fsw/cfe-core/src/es/cfe_es_apps.c ****          }
1090:/home/simulink/cFS_FreeRTOS_seL4/cfe/fsw/cfe-core/src/es/cfe_es_apps.c ****          else
1091:/home/simulink/cFS_FreeRTOS_seL4/cfe/fsw/cfe-core/src/es/cfe_es_apps.c ****          {
1092:/home/simulink/cFS_FreeRTOS_seL4/cfe/fsw/cfe-core/src/es/cfe_es_apps.c ****             CFE_EVS_SendEvent(CFE_ES_EXIT_APP_ERR_EID, CFE_EVS_ERROR, 
1093:/home/simulink/cFS_FreeRTOS_seL4/cfe/fsw/cfe-core/src/es/cfe_es_apps.c ****                                "Exit Application %s Failed: CleanUpApp Error 0x%08X.",AppStartParam
1094:/home/simulink/cFS_FreeRTOS_seL4/cfe/fsw/cfe-core/src/es/cfe_es_apps.c ****          }
1095:/home/simulink/cFS_FreeRTOS_seL4/cfe/fsw/cfe-core/src/es/cfe_es_apps.c ****          break;
 2266               	.loc 2 1095 0
 2267 1434 6000 0324 	jra .L95
 2268               	.L93:
1092:/home/simulink/cFS_FreeRTOS_seL4/cfe/fsw/cfe-core/src/es/cfe_es_apps.c ****                                "Exit Application %s Failed: CleanUpApp Error 0x%08X.",AppStartParam
 2269               	.loc 2 1092 0
 2270 1438 202F 007C 	move.l 124(%sp),%d0
 2271 143c 2F00      	move.l %d0,-(%sp)
 2272               	.cfi_def_cfa_offset 136
 2273 143e 200F      	move.l %sp,%d0
 2274 1440 5080      	addq.l #8,%d0
 2275 1442 2F00      	move.l %d0,-(%sp)
 2276               	.cfi_def_cfa_offset 140
 2277 1444 4879 0000 	pea .LC32
 2277      0000 
 2278               	.cfi_def_cfa_offset 144
 2279 144a 4878 0003 	pea 3.w
 2280               	.cfi_def_cfa_offset 148
 2281 144e 4878 002E 	pea 46.w
 2282               	.cfi_def_cfa_offset 152
 2283 1452 4EB9 0000 	jsr CFE_EVS_SendEvent
 2283      0000 
 2284 1458 4FEF 0014 	lea (20,%sp),%sp
 2285               	.cfi_def_cfa_offset 132
 2286               	.loc 2 1095 0
 2287 145c 6000 02FC 	jra .L95
 2288               	.L88:
1096:/home/simulink/cFS_FreeRTOS_seL4/cfe/fsw/cfe-core/src/es/cfe_es_apps.c ****                 
1097:/home/simulink/cFS_FreeRTOS_seL4/cfe/fsw/cfe-core/src/es/cfe_es_apps.c ****       case CFE_ES_RUNSTATUS_APP_ERROR:
1098:/home/simulink/cFS_FreeRTOS_seL4/cfe/fsw/cfe-core/src/es/cfe_es_apps.c ****          /*
68K GAS   			page 78


1099:/home/simulink/cFS_FreeRTOS_seL4/cfe/fsw/cfe-core/src/es/cfe_es_apps.c ****          ** Kill the app, and dont restart it
1100:/home/simulink/cFS_FreeRTOS_seL4/cfe/fsw/cfe-core/src/es/cfe_es_apps.c ****          */
1101:/home/simulink/cFS_FreeRTOS_seL4/cfe/fsw/cfe-core/src/es/cfe_es_apps.c ****          Status = CFE_ES_CleanUpApp(AppID);
 2289               	.loc 2 1101 0
 2290 1460 2F2F 0084 	move.l 132(%sp),-(%sp)
 2291               	.cfi_def_cfa_offset 136
 2292 1464 4EB9 0000 	jsr CFE_ES_CleanUpApp
 2292      0000 
 2293 146a 588F      	addq.l #4,%sp
 2294               	.cfi_def_cfa_offset 132
 2295 146c 2F40 007C 	move.l %d0,124(%sp)
1102:/home/simulink/cFS_FreeRTOS_seL4/cfe/fsw/cfe-core/src/es/cfe_es_apps.c **** 
1103:/home/simulink/cFS_FreeRTOS_seL4/cfe/fsw/cfe-core/src/es/cfe_es_apps.c ****          if ( Status == CFE_SUCCESS )
 2296               	.loc 2 1103 0
 2297 1470 4AAF 007C 	tst.l 124(%sp)
 2298 1474 6622      	jne .L96
1104:/home/simulink/cFS_FreeRTOS_seL4/cfe/fsw/cfe-core/src/es/cfe_es_apps.c ****          {         
1105:/home/simulink/cFS_FreeRTOS_seL4/cfe/fsw/cfe-core/src/es/cfe_es_apps.c ****             CFE_EVS_SendEvent(CFE_ES_ERREXIT_APP_INF_EID, CFE_EVS_INFORMATION, 
 2299               	.loc 2 1105 0
 2300 1476 200F      	move.l %sp,%d0
 2301 1478 5880      	addq.l #4,%d0
 2302 147a 2F00      	move.l %d0,-(%sp)
 2303               	.cfi_def_cfa_offset 136
 2304 147c 4879 0000 	pea .LC33
 2304      0000 
 2305               	.cfi_def_cfa_offset 140
 2306 1482 4878 0002 	pea 2.w
 2307               	.cfi_def_cfa_offset 144
 2308 1486 4878 000E 	pea 14.w
 2309               	.cfi_def_cfa_offset 148
 2310 148a 4EB9 0000 	jsr CFE_EVS_SendEvent
 2310      0000 
 2311 1490 4FEF 0010 	lea (16,%sp),%sp
 2312               	.cfi_def_cfa_offset 132
1106:/home/simulink/cFS_FreeRTOS_seL4/cfe/fsw/cfe-core/src/es/cfe_es_apps.c ****                                "Exit Application %s on Error Completed.",AppStartParams.Name);
1107:/home/simulink/cFS_FreeRTOS_seL4/cfe/fsw/cfe-core/src/es/cfe_es_apps.c ****          }
1108:/home/simulink/cFS_FreeRTOS_seL4/cfe/fsw/cfe-core/src/es/cfe_es_apps.c ****          else
1109:/home/simulink/cFS_FreeRTOS_seL4/cfe/fsw/cfe-core/src/es/cfe_es_apps.c ****          {
1110:/home/simulink/cFS_FreeRTOS_seL4/cfe/fsw/cfe-core/src/es/cfe_es_apps.c ****             CFE_EVS_SendEvent(CFE_ES_ERREXIT_APP_ERR_EID, CFE_EVS_ERROR, 
1111:/home/simulink/cFS_FreeRTOS_seL4/cfe/fsw/cfe-core/src/es/cfe_es_apps.c ****                               "Exit Application %s on Error Failed: CleanUpApp Error 0x%08X.",AppSt
1112:/home/simulink/cFS_FreeRTOS_seL4/cfe/fsw/cfe-core/src/es/cfe_es_apps.c ****          }
1113:/home/simulink/cFS_FreeRTOS_seL4/cfe/fsw/cfe-core/src/es/cfe_es_apps.c ****          break;
 2313               	.loc 2 1113 0
 2314 1494 6000 02C4 	jra .L95
 2315               	.L96:
1110:/home/simulink/cFS_FreeRTOS_seL4/cfe/fsw/cfe-core/src/es/cfe_es_apps.c ****                               "Exit Application %s on Error Failed: CleanUpApp Error 0x%08X.",AppSt
 2316               	.loc 2 1110 0
 2317 1498 202F 007C 	move.l 124(%sp),%d0
 2318 149c 2F00      	move.l %d0,-(%sp)
 2319               	.cfi_def_cfa_offset 136
 2320 149e 200F      	move.l %sp,%d0
 2321 14a0 5080      	addq.l #8,%d0
 2322 14a2 2F00      	move.l %d0,-(%sp)
 2323               	.cfi_def_cfa_offset 140
 2324 14a4 4879 0000 	pea .LC34
 2324      0000 
 2325               	.cfi_def_cfa_offset 144
68K GAS   			page 79


 2326 14aa 4878 0003 	pea 3.w
 2327               	.cfi_def_cfa_offset 148
 2328 14ae 4878 0021 	pea 33.w
 2329               	.cfi_def_cfa_offset 152
 2330 14b2 4EB9 0000 	jsr CFE_EVS_SendEvent
 2330      0000 
 2331 14b8 4FEF 0014 	lea (20,%sp),%sp
 2332               	.cfi_def_cfa_offset 132
 2333               	.loc 2 1113 0
 2334 14bc 6000 029C 	jra .L95
 2335               	.L92:
1114:/home/simulink/cFS_FreeRTOS_seL4/cfe/fsw/cfe-core/src/es/cfe_es_apps.c ****          
1115:/home/simulink/cFS_FreeRTOS_seL4/cfe/fsw/cfe-core/src/es/cfe_es_apps.c ****       case CFE_ES_RUNSTATUS_SYS_DELETE:
1116:/home/simulink/cFS_FreeRTOS_seL4/cfe/fsw/cfe-core/src/es/cfe_es_apps.c ****          /*
1117:/home/simulink/cFS_FreeRTOS_seL4/cfe/fsw/cfe-core/src/es/cfe_es_apps.c ****          ** Kill the app, and dont restart it
1118:/home/simulink/cFS_FreeRTOS_seL4/cfe/fsw/cfe-core/src/es/cfe_es_apps.c ****          */
1119:/home/simulink/cFS_FreeRTOS_seL4/cfe/fsw/cfe-core/src/es/cfe_es_apps.c ****          Status = CFE_ES_CleanUpApp(AppID);
 2336               	.loc 2 1119 0
 2337 14c0 2F2F 0084 	move.l 132(%sp),-(%sp)
 2338               	.cfi_def_cfa_offset 136
 2339 14c4 4EB9 0000 	jsr CFE_ES_CleanUpApp
 2339      0000 
 2340 14ca 588F      	addq.l #4,%sp
 2341               	.cfi_def_cfa_offset 132
 2342 14cc 2F40 007C 	move.l %d0,124(%sp)
1120:/home/simulink/cFS_FreeRTOS_seL4/cfe/fsw/cfe-core/src/es/cfe_es_apps.c **** 
1121:/home/simulink/cFS_FreeRTOS_seL4/cfe/fsw/cfe-core/src/es/cfe_es_apps.c ****          if ( Status == CFE_SUCCESS )
 2343               	.loc 2 1121 0
 2344 14d0 4AAF 007C 	tst.l 124(%sp)
 2345 14d4 6622      	jne .L98
1122:/home/simulink/cFS_FreeRTOS_seL4/cfe/fsw/cfe-core/src/es/cfe_es_apps.c ****          {         
1123:/home/simulink/cFS_FreeRTOS_seL4/cfe/fsw/cfe-core/src/es/cfe_es_apps.c ****             CFE_EVS_SendEvent(CFE_ES_STOP_INF_EID, CFE_EVS_INFORMATION, 
 2346               	.loc 2 1123 0
 2347 14d6 200F      	move.l %sp,%d0
 2348 14d8 5880      	addq.l #4,%d0
 2349 14da 2F00      	move.l %d0,-(%sp)
 2350               	.cfi_def_cfa_offset 136
 2351 14dc 4879 0000 	pea .LC35
 2351      0000 
 2352               	.cfi_def_cfa_offset 140
 2353 14e2 4878 0002 	pea 2.w
 2354               	.cfi_def_cfa_offset 144
 2355 14e6 4878 0008 	pea 8.w
 2356               	.cfi_def_cfa_offset 148
 2357 14ea 4EB9 0000 	jsr CFE_EVS_SendEvent
 2357      0000 
 2358 14f0 4FEF 0010 	lea (16,%sp),%sp
 2359               	.cfi_def_cfa_offset 132
1124:/home/simulink/cFS_FreeRTOS_seL4/cfe/fsw/cfe-core/src/es/cfe_es_apps.c ****                               "Stop Application %s Completed.",AppStartParams.Name);
1125:/home/simulink/cFS_FreeRTOS_seL4/cfe/fsw/cfe-core/src/es/cfe_es_apps.c ****          }
1126:/home/simulink/cFS_FreeRTOS_seL4/cfe/fsw/cfe-core/src/es/cfe_es_apps.c ****          else
1127:/home/simulink/cFS_FreeRTOS_seL4/cfe/fsw/cfe-core/src/es/cfe_es_apps.c ****          {
1128:/home/simulink/cFS_FreeRTOS_seL4/cfe/fsw/cfe-core/src/es/cfe_es_apps.c ****             CFE_EVS_SendEvent(CFE_ES_STOP_ERR3_EID, CFE_EVS_ERROR, 
1129:/home/simulink/cFS_FreeRTOS_seL4/cfe/fsw/cfe-core/src/es/cfe_es_apps.c ****                               "Stop Application %s Failed: CleanUpApp Error 0x%08X.",AppStartParams
1130:/home/simulink/cFS_FreeRTOS_seL4/cfe/fsw/cfe-core/src/es/cfe_es_apps.c ****          }
1131:/home/simulink/cFS_FreeRTOS_seL4/cfe/fsw/cfe-core/src/es/cfe_es_apps.c ****          break;
 2360               	.loc 2 1131 0
68K GAS   			page 80


 2361 14f4 6000 0264 	jra .L95
 2362               	.L98:
1128:/home/simulink/cFS_FreeRTOS_seL4/cfe/fsw/cfe-core/src/es/cfe_es_apps.c ****                               "Stop Application %s Failed: CleanUpApp Error 0x%08X.",AppStartParams
 2363               	.loc 2 1128 0
 2364 14f8 202F 007C 	move.l 124(%sp),%d0
 2365 14fc 2F00      	move.l %d0,-(%sp)
 2366               	.cfi_def_cfa_offset 136
 2367 14fe 200F      	move.l %sp,%d0
 2368 1500 5080      	addq.l #8,%d0
 2369 1502 2F00      	move.l %d0,-(%sp)
 2370               	.cfi_def_cfa_offset 140
 2371 1504 4879 0000 	pea .LC36
 2371      0000 
 2372               	.cfi_def_cfa_offset 144
 2373 150a 4878 0003 	pea 3.w
 2374               	.cfi_def_cfa_offset 148
 2375 150e 4878 0025 	pea 37.w
 2376               	.cfi_def_cfa_offset 152
 2377 1512 4EB9 0000 	jsr CFE_EVS_SendEvent
 2377      0000 
 2378 1518 4FEF 0014 	lea (20,%sp),%sp
 2379               	.cfi_def_cfa_offset 132
 2380               	.loc 2 1131 0
 2381 151c 6000 023C 	jra .L95
 2382               	.L90:
1132:/home/simulink/cFS_FreeRTOS_seL4/cfe/fsw/cfe-core/src/es/cfe_es_apps.c ****                                          
1133:/home/simulink/cFS_FreeRTOS_seL4/cfe/fsw/cfe-core/src/es/cfe_es_apps.c ****       case CFE_ES_RUNSTATUS_SYS_RESTART:
1134:/home/simulink/cFS_FreeRTOS_seL4/cfe/fsw/cfe-core/src/es/cfe_es_apps.c ****          /*
1135:/home/simulink/cFS_FreeRTOS_seL4/cfe/fsw/cfe-core/src/es/cfe_es_apps.c ****          ** Kill the app
1136:/home/simulink/cFS_FreeRTOS_seL4/cfe/fsw/cfe-core/src/es/cfe_es_apps.c ****          */
1137:/home/simulink/cFS_FreeRTOS_seL4/cfe/fsw/cfe-core/src/es/cfe_es_apps.c ****          Status = CFE_ES_CleanUpApp(AppID);
 2383               	.loc 2 1137 0
 2384 1520 2F2F 0084 	move.l 132(%sp),-(%sp)
 2385               	.cfi_def_cfa_offset 136
 2386 1524 4EB9 0000 	jsr CFE_ES_CleanUpApp
 2386      0000 
 2387 152a 588F      	addq.l #4,%sp
 2388               	.cfi_def_cfa_offset 132
 2389 152c 2F40 007C 	move.l %d0,124(%sp)
1138:/home/simulink/cFS_FreeRTOS_seL4/cfe/fsw/cfe-core/src/es/cfe_es_apps.c **** 
1139:/home/simulink/cFS_FreeRTOS_seL4/cfe/fsw/cfe-core/src/es/cfe_es_apps.c ****          if ( Status == CFE_SUCCESS )
 2390               	.loc 2 1139 0
 2391 1530 4AAF 007C 	tst.l 124(%sp)
 2392 1534 6600 00B2 	jne .L100
1140:/home/simulink/cFS_FreeRTOS_seL4/cfe/fsw/cfe-core/src/es/cfe_es_apps.c ****          {
1141:/home/simulink/cFS_FreeRTOS_seL4/cfe/fsw/cfe-core/src/es/cfe_es_apps.c ****             /*
1142:/home/simulink/cFS_FreeRTOS_seL4/cfe/fsw/cfe-core/src/es/cfe_es_apps.c ****             ** And start it back up again
1143:/home/simulink/cFS_FreeRTOS_seL4/cfe/fsw/cfe-core/src/es/cfe_es_apps.c ****             */
1144:/home/simulink/cFS_FreeRTOS_seL4/cfe/fsw/cfe-core/src/es/cfe_es_apps.c ****             Status = CFE_ES_AppCreate(&NewAppId, (char *)AppStartParams.FileName, 
1145:/home/simulink/cFS_FreeRTOS_seL4/cfe/fsw/cfe-core/src/es/cfe_es_apps.c ****                                            (char *)AppStartParams.EntryPoint, 
1146:/home/simulink/cFS_FreeRTOS_seL4/cfe/fsw/cfe-core/src/es/cfe_es_apps.c ****                                            (char *)AppStartParams.Name, 
1147:/home/simulink/cFS_FreeRTOS_seL4/cfe/fsw/cfe-core/src/es/cfe_es_apps.c ****                                            AppStartParams.Priority, 
1148:/home/simulink/cFS_FreeRTOS_seL4/cfe/fsw/cfe-core/src/es/cfe_es_apps.c ****                                            AppStartParams.StackSize, 
1149:/home/simulink/cFS_FreeRTOS_seL4/cfe/fsw/cfe-core/src/es/cfe_es_apps.c ****                                            AppStartParams.ExceptionAction);
 2393               	.loc 2 1149 0
 2394 1538 302F 0078 	move.w 120(%sp),%d0
1144:/home/simulink/cFS_FreeRTOS_seL4/cfe/fsw/cfe-core/src/es/cfe_es_apps.c ****                                            (char *)AppStartParams.EntryPoint, 
68K GAS   			page 81


 2395               	.loc 2 1144 0
 2396 153c 4281      	clr.l %d1
 2397 153e 3200      	move.w %d0,%d1
 2398 1540 206F 006C 	move.l 108(%sp),%a0
1147:/home/simulink/cFS_FreeRTOS_seL4/cfe/fsw/cfe-core/src/es/cfe_es_apps.c ****                                            AppStartParams.StackSize, 
 2399               	.loc 2 1147 0
 2400 1544 302F 007A 	move.w 122(%sp),%d0
1144:/home/simulink/cFS_FreeRTOS_seL4/cfe/fsw/cfe-core/src/es/cfe_es_apps.c ****                                            (char *)AppStartParams.EntryPoint, 
 2401               	.loc 2 1144 0
 2402 1548 3000      	move.w %d0,%d0
 2403 154a 0280 0000 	and.l #65535,%d0
 2403      FFFF 
 2404 1550 2F01      	move.l %d1,-(%sp)
 2405               	.cfi_def_cfa_offset 136
 2406 1552 2F08      	move.l %a0,-(%sp)
 2407               	.cfi_def_cfa_offset 140
 2408 1554 2F00      	move.l %d0,-(%sp)
 2409               	.cfi_def_cfa_offset 144
 2410 1556 200F      	move.l %sp,%d0
 2411 1558 0680 0000 	add.l #16,%d0
 2411      0010 
 2412 155e 2F00      	move.l %d0,-(%sp)
 2413               	.cfi_def_cfa_offset 148
 2414 1560 200F      	move.l %sp,%d0
 2415 1562 0680 0000 	add.l #20,%d0
 2415      0014 
 2416 1568 0680 0000 	add.l #20,%d0
 2416      0014 
 2417 156e 2F00      	move.l %d0,-(%sp)
 2418               	.cfi_def_cfa_offset 152
 2419 1570 200F      	move.l %sp,%d0
 2420 1572 0680 0000 	add.l #24,%d0
 2420      0018 
 2421 1578 0680 0000 	add.l #40,%d0
 2421      0028 
 2422 157e 2F00      	move.l %d0,-(%sp)
 2423               	.cfi_def_cfa_offset 156
 2424 1580 200F      	move.l %sp,%d0
 2425 1582 0680 0000 	add.l #24,%d0
 2425      0018 
 2426 1588 2F00      	move.l %d0,-(%sp)
 2427               	.cfi_def_cfa_offset 160
 2428 158a 4EB9 0000 	jsr CFE_ES_AppCreate
 2428      0000 
 2429 1590 4FEF 001C 	lea (28,%sp),%sp
 2430               	.cfi_def_cfa_offset 132
 2431 1594 2F40 007C 	move.l %d0,124(%sp)
1150:/home/simulink/cFS_FreeRTOS_seL4/cfe/fsw/cfe-core/src/es/cfe_es_apps.c ****                                            
1151:/home/simulink/cFS_FreeRTOS_seL4/cfe/fsw/cfe-core/src/es/cfe_es_apps.c ****             if ( Status == CFE_SUCCESS )
 2432               	.loc 2 1151 0
 2433 1598 4AAF 007C 	tst.l 124(%sp)
 2434 159c 6622      	jne .L101
1152:/home/simulink/cFS_FreeRTOS_seL4/cfe/fsw/cfe-core/src/es/cfe_es_apps.c ****             {
1153:/home/simulink/cFS_FreeRTOS_seL4/cfe/fsw/cfe-core/src/es/cfe_es_apps.c ****                CFE_EVS_SendEvent(CFE_ES_RESTART_APP_INF_EID, CFE_EVS_INFORMATION, 
 2435               	.loc 2 1153 0
 2436 159e 200F      	move.l %sp,%d0
 2437 15a0 5880      	addq.l #4,%d0
68K GAS   			page 82


 2438 15a2 2F00      	move.l %d0,-(%sp)
 2439               	.cfi_def_cfa_offset 136
 2440 15a4 4879 0000 	pea .LC37
 2440      0000 
 2441               	.cfi_def_cfa_offset 140
 2442 15aa 4878 0002 	pea 2.w
 2443               	.cfi_def_cfa_offset 144
 2444 15ae 4878 000A 	pea 10.w
 2445               	.cfi_def_cfa_offset 148
 2446 15b2 4EB9 0000 	jsr CFE_EVS_SendEvent
 2446      0000 
 2447 15b8 4FEF 0010 	lea (16,%sp),%sp
 2448               	.cfi_def_cfa_offset 132
1154:/home/simulink/cFS_FreeRTOS_seL4/cfe/fsw/cfe-core/src/es/cfe_es_apps.c ****                                   "Restart Application %s Completed.", AppStartParams.Name);
1155:/home/simulink/cFS_FreeRTOS_seL4/cfe/fsw/cfe-core/src/es/cfe_es_apps.c ****             }
1156:/home/simulink/cFS_FreeRTOS_seL4/cfe/fsw/cfe-core/src/es/cfe_es_apps.c ****             else
1157:/home/simulink/cFS_FreeRTOS_seL4/cfe/fsw/cfe-core/src/es/cfe_es_apps.c ****             {
1158:/home/simulink/cFS_FreeRTOS_seL4/cfe/fsw/cfe-core/src/es/cfe_es_apps.c ****                CFE_EVS_SendEvent(CFE_ES_RESTART_APP_ERR3_EID, CFE_EVS_ERROR, 
1159:/home/simulink/cFS_FreeRTOS_seL4/cfe/fsw/cfe-core/src/es/cfe_es_apps.c ****                                   "Restart Application %s Failed: AppCreate Error 0x%08X.", AppStar
1160:/home/simulink/cFS_FreeRTOS_seL4/cfe/fsw/cfe-core/src/es/cfe_es_apps.c ****             }
1161:/home/simulink/cFS_FreeRTOS_seL4/cfe/fsw/cfe-core/src/es/cfe_es_apps.c ****          }
1162:/home/simulink/cFS_FreeRTOS_seL4/cfe/fsw/cfe-core/src/es/cfe_es_apps.c ****          else
1163:/home/simulink/cFS_FreeRTOS_seL4/cfe/fsw/cfe-core/src/es/cfe_es_apps.c ****          {
1164:/home/simulink/cFS_FreeRTOS_seL4/cfe/fsw/cfe-core/src/es/cfe_es_apps.c ****                CFE_EVS_SendEvent(CFE_ES_RESTART_APP_ERR4_EID, CFE_EVS_ERROR, 
1165:/home/simulink/cFS_FreeRTOS_seL4/cfe/fsw/cfe-core/src/es/cfe_es_apps.c ****                                   "Restart Application %s Failed: CleanUpApp Error 0x%08X.", AppSta
1166:/home/simulink/cFS_FreeRTOS_seL4/cfe/fsw/cfe-core/src/es/cfe_es_apps.c ****          }
1167:/home/simulink/cFS_FreeRTOS_seL4/cfe/fsw/cfe-core/src/es/cfe_es_apps.c ****          break;
 2449               	.loc 2 1167 0
 2450 15bc 6000 019C 	jra .L95
 2451               	.L101:
1158:/home/simulink/cFS_FreeRTOS_seL4/cfe/fsw/cfe-core/src/es/cfe_es_apps.c ****                                   "Restart Application %s Failed: AppCreate Error 0x%08X.", AppStar
 2452               	.loc 2 1158 0
 2453 15c0 202F 007C 	move.l 124(%sp),%d0
 2454 15c4 2F00      	move.l %d0,-(%sp)
 2455               	.cfi_def_cfa_offset 136
 2456 15c6 200F      	move.l %sp,%d0
 2457 15c8 5080      	addq.l #8,%d0
 2458 15ca 2F00      	move.l %d0,-(%sp)
 2459               	.cfi_def_cfa_offset 140
 2460 15cc 4879 0000 	pea .LC38
 2460      0000 
 2461               	.cfi_def_cfa_offset 144
 2462 15d2 4878 0003 	pea 3.w
 2463               	.cfi_def_cfa_offset 148
 2464 15d6 4878 0028 	pea 40.w
 2465               	.cfi_def_cfa_offset 152
 2466 15da 4EB9 0000 	jsr CFE_EVS_SendEvent
 2466      0000 
 2467 15e0 4FEF 0014 	lea (20,%sp),%sp
 2468               	.cfi_def_cfa_offset 132
 2469               	.loc 2 1167 0
 2470 15e4 6000 0174 	jra .L95
 2471               	.L100:
1164:/home/simulink/cFS_FreeRTOS_seL4/cfe/fsw/cfe-core/src/es/cfe_es_apps.c ****                                   "Restart Application %s Failed: CleanUpApp Error 0x%08X.", AppSta
 2472               	.loc 2 1164 0
 2473 15e8 202F 007C 	move.l 124(%sp),%d0
 2474 15ec 2F00      	move.l %d0,-(%sp)
68K GAS   			page 83


 2475               	.cfi_def_cfa_offset 136
 2476 15ee 200F      	move.l %sp,%d0
 2477 15f0 5080      	addq.l #8,%d0
 2478 15f2 2F00      	move.l %d0,-(%sp)
 2479               	.cfi_def_cfa_offset 140
 2480 15f4 4879 0000 	pea .LC39
 2480      0000 
 2481               	.cfi_def_cfa_offset 144
 2482 15fa 4878 0003 	pea 3.w
 2483               	.cfi_def_cfa_offset 148
 2484 15fe 4878 0029 	pea 41.w
 2485               	.cfi_def_cfa_offset 152
 2486 1602 4EB9 0000 	jsr CFE_EVS_SendEvent
 2486      0000 
 2487 1608 4FEF 0014 	lea (20,%sp),%sp
 2488               	.cfi_def_cfa_offset 132
 2489               	.loc 2 1167 0
 2490 160c 6000 014C 	jra .L95
 2491               	.L91:
1168:/home/simulink/cFS_FreeRTOS_seL4/cfe/fsw/cfe-core/src/es/cfe_es_apps.c ****             
1169:/home/simulink/cFS_FreeRTOS_seL4/cfe/fsw/cfe-core/src/es/cfe_es_apps.c ****       case CFE_ES_RUNSTATUS_SYS_RELOAD:
1170:/home/simulink/cFS_FreeRTOS_seL4/cfe/fsw/cfe-core/src/es/cfe_es_apps.c ****          /*
1171:/home/simulink/cFS_FreeRTOS_seL4/cfe/fsw/cfe-core/src/es/cfe_es_apps.c ****          ** Kill the app
1172:/home/simulink/cFS_FreeRTOS_seL4/cfe/fsw/cfe-core/src/es/cfe_es_apps.c ****          */
1173:/home/simulink/cFS_FreeRTOS_seL4/cfe/fsw/cfe-core/src/es/cfe_es_apps.c ****          Status = CFE_ES_CleanUpApp(AppID);
 2492               	.loc 2 1173 0
 2493 1610 2F2F 0084 	move.l 132(%sp),-(%sp)
 2494               	.cfi_def_cfa_offset 136
 2495 1614 4EB9 0000 	jsr CFE_ES_CleanUpApp
 2495      0000 
 2496 161a 588F      	addq.l #4,%sp
 2497               	.cfi_def_cfa_offset 132
 2498 161c 2F40 007C 	move.l %d0,124(%sp)
1174:/home/simulink/cFS_FreeRTOS_seL4/cfe/fsw/cfe-core/src/es/cfe_es_apps.c **** 
1175:/home/simulink/cFS_FreeRTOS_seL4/cfe/fsw/cfe-core/src/es/cfe_es_apps.c ****          if ( Status == CFE_SUCCESS )
 2499               	.loc 2 1175 0
 2500 1620 4AAF 007C 	tst.l 124(%sp)
 2501 1624 6600 00B2 	jne .L104
1176:/home/simulink/cFS_FreeRTOS_seL4/cfe/fsw/cfe-core/src/es/cfe_es_apps.c ****          {
1177:/home/simulink/cFS_FreeRTOS_seL4/cfe/fsw/cfe-core/src/es/cfe_es_apps.c ****             /*
1178:/home/simulink/cFS_FreeRTOS_seL4/cfe/fsw/cfe-core/src/es/cfe_es_apps.c ****             ** And start it back up again
1179:/home/simulink/cFS_FreeRTOS_seL4/cfe/fsw/cfe-core/src/es/cfe_es_apps.c ****             */
1180:/home/simulink/cFS_FreeRTOS_seL4/cfe/fsw/cfe-core/src/es/cfe_es_apps.c ****             Status = CFE_ES_AppCreate(&NewAppId, (char *)AppStartParams.FileName, 
1181:/home/simulink/cFS_FreeRTOS_seL4/cfe/fsw/cfe-core/src/es/cfe_es_apps.c ****                                            (char *)AppStartParams.EntryPoint, 
1182:/home/simulink/cFS_FreeRTOS_seL4/cfe/fsw/cfe-core/src/es/cfe_es_apps.c ****                                            (char *)AppStartParams.Name, 
1183:/home/simulink/cFS_FreeRTOS_seL4/cfe/fsw/cfe-core/src/es/cfe_es_apps.c ****                                            AppStartParams.Priority, 
1184:/home/simulink/cFS_FreeRTOS_seL4/cfe/fsw/cfe-core/src/es/cfe_es_apps.c ****                                            AppStartParams.StackSize, 
1185:/home/simulink/cFS_FreeRTOS_seL4/cfe/fsw/cfe-core/src/es/cfe_es_apps.c ****                                            AppStartParams.ExceptionAction);
 2502               	.loc 2 1185 0
 2503 1628 302F 0078 	move.w 120(%sp),%d0
1180:/home/simulink/cFS_FreeRTOS_seL4/cfe/fsw/cfe-core/src/es/cfe_es_apps.c ****                                            (char *)AppStartParams.EntryPoint, 
 2504               	.loc 2 1180 0
 2505 162c 4281      	clr.l %d1
 2506 162e 3200      	move.w %d0,%d1
 2507 1630 206F 006C 	move.l 108(%sp),%a0
1183:/home/simulink/cFS_FreeRTOS_seL4/cfe/fsw/cfe-core/src/es/cfe_es_apps.c ****                                            AppStartParams.StackSize, 
 2508               	.loc 2 1183 0
68K GAS   			page 84


 2509 1634 302F 007A 	move.w 122(%sp),%d0
1180:/home/simulink/cFS_FreeRTOS_seL4/cfe/fsw/cfe-core/src/es/cfe_es_apps.c ****                                            (char *)AppStartParams.EntryPoint, 
 2510               	.loc 2 1180 0
 2511 1638 3000      	move.w %d0,%d0
 2512 163a 0280 0000 	and.l #65535,%d0
 2512      FFFF 
 2513 1640 2F01      	move.l %d1,-(%sp)
 2514               	.cfi_def_cfa_offset 136
 2515 1642 2F08      	move.l %a0,-(%sp)
 2516               	.cfi_def_cfa_offset 140
 2517 1644 2F00      	move.l %d0,-(%sp)
 2518               	.cfi_def_cfa_offset 144
 2519 1646 200F      	move.l %sp,%d0
 2520 1648 0680 0000 	add.l #16,%d0
 2520      0010 
 2521 164e 2F00      	move.l %d0,-(%sp)
 2522               	.cfi_def_cfa_offset 148
 2523 1650 200F      	move.l %sp,%d0
 2524 1652 0680 0000 	add.l #20,%d0
 2524      0014 
 2525 1658 0680 0000 	add.l #20,%d0
 2525      0014 
 2526 165e 2F00      	move.l %d0,-(%sp)
 2527               	.cfi_def_cfa_offset 152
 2528 1660 200F      	move.l %sp,%d0
 2529 1662 0680 0000 	add.l #24,%d0
 2529      0018 
 2530 1668 0680 0000 	add.l #40,%d0
 2530      0028 
 2531 166e 2F00      	move.l %d0,-(%sp)
 2532               	.cfi_def_cfa_offset 156
 2533 1670 200F      	move.l %sp,%d0
 2534 1672 0680 0000 	add.l #24,%d0
 2534      0018 
 2535 1678 2F00      	move.l %d0,-(%sp)
 2536               	.cfi_def_cfa_offset 160
 2537 167a 4EB9 0000 	jsr CFE_ES_AppCreate
 2537      0000 
 2538 1680 4FEF 001C 	lea (28,%sp),%sp
 2539               	.cfi_def_cfa_offset 132
 2540 1684 2F40 007C 	move.l %d0,124(%sp)
1186:/home/simulink/cFS_FreeRTOS_seL4/cfe/fsw/cfe-core/src/es/cfe_es_apps.c ****             if ( Status == CFE_SUCCESS )
 2541               	.loc 2 1186 0
 2542 1688 4AAF 007C 	tst.l 124(%sp)
 2543 168c 6622      	jne .L105
1187:/home/simulink/cFS_FreeRTOS_seL4/cfe/fsw/cfe-core/src/es/cfe_es_apps.c ****             {
1188:/home/simulink/cFS_FreeRTOS_seL4/cfe/fsw/cfe-core/src/es/cfe_es_apps.c ****                CFE_EVS_SendEvent(CFE_ES_RELOAD_APP_INF_EID, CFE_EVS_INFORMATION, 
 2544               	.loc 2 1188 0
 2545 168e 200F      	move.l %sp,%d0
 2546 1690 5880      	addq.l #4,%d0
 2547 1692 2F00      	move.l %d0,-(%sp)
 2548               	.cfi_def_cfa_offset 136
 2549 1694 4879 0000 	pea .LC40
 2549      0000 
 2550               	.cfi_def_cfa_offset 140
 2551 169a 4878 0002 	pea 2.w
 2552               	.cfi_def_cfa_offset 144
68K GAS   			page 85


 2553 169e 4878 000C 	pea 12.w
 2554               	.cfi_def_cfa_offset 148
 2555 16a2 4EB9 0000 	jsr CFE_EVS_SendEvent
 2555      0000 
 2556 16a8 4FEF 0010 	lea (16,%sp),%sp
 2557               	.cfi_def_cfa_offset 132
1189:/home/simulink/cFS_FreeRTOS_seL4/cfe/fsw/cfe-core/src/es/cfe_es_apps.c ****                                   "Reload Application %s Completed.", AppStartParams.Name);
1190:/home/simulink/cFS_FreeRTOS_seL4/cfe/fsw/cfe-core/src/es/cfe_es_apps.c ****             }
1191:/home/simulink/cFS_FreeRTOS_seL4/cfe/fsw/cfe-core/src/es/cfe_es_apps.c ****             else
1192:/home/simulink/cFS_FreeRTOS_seL4/cfe/fsw/cfe-core/src/es/cfe_es_apps.c ****             {
1193:/home/simulink/cFS_FreeRTOS_seL4/cfe/fsw/cfe-core/src/es/cfe_es_apps.c ****                CFE_EVS_SendEvent(CFE_ES_RELOAD_APP_ERR3_EID, CFE_EVS_ERROR, 
1194:/home/simulink/cFS_FreeRTOS_seL4/cfe/fsw/cfe-core/src/es/cfe_es_apps.c ****                                   "Reload Application %s Failed: AppCreate Error 0x%08X.", AppStart
1195:/home/simulink/cFS_FreeRTOS_seL4/cfe/fsw/cfe-core/src/es/cfe_es_apps.c ****             }
1196:/home/simulink/cFS_FreeRTOS_seL4/cfe/fsw/cfe-core/src/es/cfe_es_apps.c ****          }
1197:/home/simulink/cFS_FreeRTOS_seL4/cfe/fsw/cfe-core/src/es/cfe_es_apps.c ****          else
1198:/home/simulink/cFS_FreeRTOS_seL4/cfe/fsw/cfe-core/src/es/cfe_es_apps.c ****          {
1199:/home/simulink/cFS_FreeRTOS_seL4/cfe/fsw/cfe-core/src/es/cfe_es_apps.c ****             CFE_EVS_SendEvent(CFE_ES_RELOAD_APP_ERR4_EID, CFE_EVS_ERROR, 
1200:/home/simulink/cFS_FreeRTOS_seL4/cfe/fsw/cfe-core/src/es/cfe_es_apps.c ****                               "Reload Application %s Failed: CleanUpApp Error 0x%08X.", AppStartPar
1201:/home/simulink/cFS_FreeRTOS_seL4/cfe/fsw/cfe-core/src/es/cfe_es_apps.c ****          }
1202:/home/simulink/cFS_FreeRTOS_seL4/cfe/fsw/cfe-core/src/es/cfe_es_apps.c ****                                            
1203:/home/simulink/cFS_FreeRTOS_seL4/cfe/fsw/cfe-core/src/es/cfe_es_apps.c ****          break;
 2558               	.loc 2 1203 0
 2559 16ac 6000 00AC 	jra .L95
 2560               	.L105:
1193:/home/simulink/cFS_FreeRTOS_seL4/cfe/fsw/cfe-core/src/es/cfe_es_apps.c ****                                   "Reload Application %s Failed: AppCreate Error 0x%08X.", AppStart
 2561               	.loc 2 1193 0
 2562 16b0 202F 007C 	move.l 124(%sp),%d0
 2563 16b4 2F00      	move.l %d0,-(%sp)
 2564               	.cfi_def_cfa_offset 136
 2565 16b6 200F      	move.l %sp,%d0
 2566 16b8 5080      	addq.l #8,%d0
 2567 16ba 2F00      	move.l %d0,-(%sp)
 2568               	.cfi_def_cfa_offset 140
 2569 16bc 4879 0000 	pea .LC41
 2569      0000 
 2570               	.cfi_def_cfa_offset 144
 2571 16c2 4878 0003 	pea 3.w
 2572               	.cfi_def_cfa_offset 148
 2573 16c6 4878 002C 	pea 44.w
 2574               	.cfi_def_cfa_offset 152
 2575 16ca 4EB9 0000 	jsr CFE_EVS_SendEvent
 2575      0000 
 2576 16d0 4FEF 0014 	lea (20,%sp),%sp
 2577               	.cfi_def_cfa_offset 132
 2578               	.loc 2 1203 0
 2579 16d4 6000 0084 	jra .L95
 2580               	.L104:
1199:/home/simulink/cFS_FreeRTOS_seL4/cfe/fsw/cfe-core/src/es/cfe_es_apps.c ****                               "Reload Application %s Failed: CleanUpApp Error 0x%08X.", AppStartPar
 2581               	.loc 2 1199 0
 2582 16d8 202F 007C 	move.l 124(%sp),%d0
 2583 16dc 2F00      	move.l %d0,-(%sp)
 2584               	.cfi_def_cfa_offset 136
 2585 16de 200F      	move.l %sp,%d0
 2586 16e0 5080      	addq.l #8,%d0
 2587 16e2 2F00      	move.l %d0,-(%sp)
 2588               	.cfi_def_cfa_offset 140
 2589 16e4 4879 0000 	pea .LC42
68K GAS   			page 86


 2589      0000 
 2590               	.cfi_def_cfa_offset 144
 2591 16ea 4878 0003 	pea 3.w
 2592               	.cfi_def_cfa_offset 148
 2593 16ee 4878 002D 	pea 45.w
 2594               	.cfi_def_cfa_offset 152
 2595 16f2 4EB9 0000 	jsr CFE_EVS_SendEvent
 2595      0000 
 2596 16f8 4FEF 0014 	lea (20,%sp),%sp
 2597               	.cfi_def_cfa_offset 132
 2598               	.loc 2 1203 0
 2599 16fc 605C      	jra .L95
 2600               	.L89:
1204:/home/simulink/cFS_FreeRTOS_seL4/cfe/fsw/cfe-core/src/es/cfe_es_apps.c ****                 
1205:/home/simulink/cFS_FreeRTOS_seL4/cfe/fsw/cfe-core/src/es/cfe_es_apps.c ****       case CFE_ES_RUNSTATUS_SYS_EXCEPTION:
1206:/home/simulink/cFS_FreeRTOS_seL4/cfe/fsw/cfe-core/src/es/cfe_es_apps.c ****       
1207:/home/simulink/cFS_FreeRTOS_seL4/cfe/fsw/cfe-core/src/es/cfe_es_apps.c ****          CFE_EVS_SendEvent(CFE_ES_PCR_ERR1_EID, CFE_EVS_ERROR, 
 2601               	.loc 2 1207 0
 2602 16fe 200F      	move.l %sp,%d0
 2603 1700 5880      	addq.l #4,%d0
 2604 1702 2F00      	move.l %d0,-(%sp)
 2605               	.cfi_def_cfa_offset 136
 2606 1704 4879 0000 	pea .LC43
 2606      0000 
 2607               	.cfi_def_cfa_offset 140
 2608 170a 4878 0003 	pea 3.w
 2609               	.cfi_def_cfa_offset 144
 2610 170e 4878 002F 	pea 47.w
 2611               	.cfi_def_cfa_offset 148
 2612 1712 4EB9 0000 	jsr CFE_EVS_SendEvent
 2612      0000 
 2613 1718 4FEF 0010 	lea (16,%sp),%sp
 2614               	.cfi_def_cfa_offset 132
1208:/home/simulink/cFS_FreeRTOS_seL4/cfe/fsw/cfe-core/src/es/cfe_es_apps.c ****                             "ES_ProcControlReq: Invalid State (EXCEPTION) Application %s.",
1209:/home/simulink/cFS_FreeRTOS_seL4/cfe/fsw/cfe-core/src/es/cfe_es_apps.c ****                              AppStartParams.Name);            
1210:/home/simulink/cFS_FreeRTOS_seL4/cfe/fsw/cfe-core/src/es/cfe_es_apps.c ****          break;
 2615               	.loc 2 1210 0
 2616 171c 603C      	jra .L95
 2617               	.L85:
1211:/home/simulink/cFS_FreeRTOS_seL4/cfe/fsw/cfe-core/src/es/cfe_es_apps.c ****          
1212:/home/simulink/cFS_FreeRTOS_seL4/cfe/fsw/cfe-core/src/es/cfe_es_apps.c ****       default:
1213:/home/simulink/cFS_FreeRTOS_seL4/cfe/fsw/cfe-core/src/es/cfe_es_apps.c ****  
1214:/home/simulink/cFS_FreeRTOS_seL4/cfe/fsw/cfe-core/src/es/cfe_es_apps.c ****          CFE_EVS_SendEvent(CFE_ES_PCR_ERR2_EID, CFE_EVS_ERROR, 
1215:/home/simulink/cFS_FreeRTOS_seL4/cfe/fsw/cfe-core/src/es/cfe_es_apps.c ****                             "ES_ProcControlReq: Unknown State ( %d ) Application %s.",
1216:/home/simulink/cFS_FreeRTOS_seL4/cfe/fsw/cfe-core/src/es/cfe_es_apps.c ****                             (int)CFE_ES_Global.AppTable[AppID].StateRecord.AppControlRequest, AppSt
 2618               	.loc 2 1216 0
 2619 171e 202F 0084 	move.l 132(%sp),%d0
 2620 1722 223C 0000 	move.l #168,%d1
 2620      00A8 
 2621 1728 4C01 0800 	muls.l %d1,%d0
 2622 172c 41F9 0000 	lea CFE_ES_Global+2476,%a0
 2622      0000 
 2623 1732 2030 0800 	move.l (%a0,%d0.l),%d0
1214:/home/simulink/cFS_FreeRTOS_seL4/cfe/fsw/cfe-core/src/es/cfe_es_apps.c ****                             "ES_ProcControlReq: Unknown State ( %d ) Application %s.",
 2624               	.loc 2 1214 0
 2625 1736 2200      	move.l %d0,%d1
 2626 1738 200F      	move.l %sp,%d0
68K GAS   			page 87


 2627 173a 5880      	addq.l #4,%d0
 2628 173c 2F00      	move.l %d0,-(%sp)
 2629               	.cfi_def_cfa_offset 136
 2630 173e 2F01      	move.l %d1,-(%sp)
 2631               	.cfi_def_cfa_offset 140
 2632 1740 4879 0000 	pea .LC44
 2632      0000 
 2633               	.cfi_def_cfa_offset 144
 2634 1746 4878 0003 	pea 3.w
 2635               	.cfi_def_cfa_offset 148
 2636 174a 4878 0030 	pea 48.w
 2637               	.cfi_def_cfa_offset 152
 2638 174e 4EB9 0000 	jsr CFE_EVS_SendEvent
 2638      0000 
 2639 1754 4FEF 0014 	lea (20,%sp),%sp
 2640               	.cfi_def_cfa_offset 132
1217:/home/simulink/cFS_FreeRTOS_seL4/cfe/fsw/cfe-core/src/es/cfe_es_apps.c ****          break;
 2641               	.loc 2 1217 0
 2642 1758 4E71      	nop
 2643               	.L95:
1218:/home/simulink/cFS_FreeRTOS_seL4/cfe/fsw/cfe-core/src/es/cfe_es_apps.c ****       
1219:/home/simulink/cFS_FreeRTOS_seL4/cfe/fsw/cfe-core/src/es/cfe_es_apps.c ****    } 
1220:/home/simulink/cFS_FreeRTOS_seL4/cfe/fsw/cfe-core/src/es/cfe_es_apps.c ****    
1221:/home/simulink/cFS_FreeRTOS_seL4/cfe/fsw/cfe-core/src/es/cfe_es_apps.c **** } /* End Function */
 2644               	.loc 2 1221 0 discriminator 7
 2645 175a 4E71      	nop
 2646 175c 4FEF 0080 	lea (128,%sp),%sp
 2647 1760 4E75      	rts
 2648               	.cfi_endproc
 2649               	.LFE64:
 2650               	.sizeCFE_ES_ProcessControlRequest, .-CFE_ES_ProcessControlRequest
 2651               	.section.rodata
 2652               	.LC45:
 2653 0850 4346 455F 	.string"CFE_ES_CleanUpApp: Call to CFE_EVS_CleanUpApp returned Error: 0x%08X\n"
 2653      4553 5F43 
 2653      6C65 616E 
 2653      5570 4170 
 2653      703A 2043 
 2654               	.LC46:
 2655 0896 4346 455F 	.string"CFE_ES_CleanUpApp: CleanUpTaskResources for Task ID:%d returned Error: 0x%08X\n"
 2655      4553 5F43 
 2655      6C65 616E 
 2655      5570 4170 
 2655      703A 2043 
 2656               	.LC47:
 2657 08e5 4346 455F 	.string"CFE_ES_CleanUpApp: Module (ID:0x%08X) Unload failed. RC=0x%08X\n"
 2657      4553 5F43 
 2657      6C65 616E 
 2657      5570 4170 
 2657      703A 204D 
 2658               	.text
 2659               	.align2
 2660               	.globlCFE_ES_CleanUpApp
 2661               	.typeCFE_ES_CleanUpApp, @function
 2662               	CFE_ES_CleanUpApp:
 2663               	.LFB65:
1222:/home/simulink/cFS_FreeRTOS_seL4/cfe/fsw/cfe-core/src/es/cfe_es_apps.c **** 
68K GAS   			page 88


1223:/home/simulink/cFS_FreeRTOS_seL4/cfe/fsw/cfe-core/src/es/cfe_es_apps.c **** /*
1224:/home/simulink/cFS_FreeRTOS_seL4/cfe/fsw/cfe-core/src/es/cfe_es_apps.c **** **---------------------------------------------------------------------------------------
1225:/home/simulink/cFS_FreeRTOS_seL4/cfe/fsw/cfe-core/src/es/cfe_es_apps.c **** **   Name: CFE_ES_CleanUpApp
1226:/home/simulink/cFS_FreeRTOS_seL4/cfe/fsw/cfe-core/src/es/cfe_es_apps.c **** **
1227:/home/simulink/cFS_FreeRTOS_seL4/cfe/fsw/cfe-core/src/es/cfe_es_apps.c **** **   Purpose: Delete an application by cleaning up all of it's resources.
1228:/home/simulink/cFS_FreeRTOS_seL4/cfe/fsw/cfe-core/src/es/cfe_es_apps.c **** **---------------------------------------------------------------------------------------
1229:/home/simulink/cFS_FreeRTOS_seL4/cfe/fsw/cfe-core/src/es/cfe_es_apps.c **** */
1230:/home/simulink/cFS_FreeRTOS_seL4/cfe/fsw/cfe-core/src/es/cfe_es_apps.c **** int32 CFE_ES_CleanUpApp(uint32 AppId)
1231:/home/simulink/cFS_FreeRTOS_seL4/cfe/fsw/cfe-core/src/es/cfe_es_apps.c **** {
 2664               	.loc 2 1231 0
 2665               	.cfi_startproc
 2666 1762 4FEF FFF0 	lea (-16,%sp),%sp
 2667               	.cfi_def_cfa_offset 20
 2668 1766 2F02      	move.l %d2,-(%sp)
 2669               	.cfi_def_cfa_offset 24
 2670               	.cfi_offset 2, -24
1232:/home/simulink/cFS_FreeRTOS_seL4/cfe/fsw/cfe-core/src/es/cfe_es_apps.c ****    uint32    i;
1233:/home/simulink/cFS_FreeRTOS_seL4/cfe/fsw/cfe-core/src/es/cfe_es_apps.c ****    int32  Status;
1234:/home/simulink/cFS_FreeRTOS_seL4/cfe/fsw/cfe-core/src/es/cfe_es_apps.c ****    uint32 MainTaskId;
1235:/home/simulink/cFS_FreeRTOS_seL4/cfe/fsw/cfe-core/src/es/cfe_es_apps.c ****    int32  ReturnCode = CFE_SUCCESS;
 2671               	.loc 2 1235 0
 2672 1768 42AF 000C 	clr.l 12(%sp)
1236:/home/simulink/cFS_FreeRTOS_seL4/cfe/fsw/cfe-core/src/es/cfe_es_apps.c **** 
1237:/home/simulink/cFS_FreeRTOS_seL4/cfe/fsw/cfe-core/src/es/cfe_es_apps.c ****    #ifdef ES_APP_DEBUG
1238:/home/simulink/cFS_FreeRTOS_seL4/cfe/fsw/cfe-core/src/es/cfe_es_apps.c ****       OS_printf("------------- Starting App Cleanup: AppID = %d -----------\n",AppId);
1239:/home/simulink/cFS_FreeRTOS_seL4/cfe/fsw/cfe-core/src/es/cfe_es_apps.c ****       CFE_ES_ListResourcesDebug();
1240:/home/simulink/cFS_FreeRTOS_seL4/cfe/fsw/cfe-core/src/es/cfe_es_apps.c ****    #endif
1241:/home/simulink/cFS_FreeRTOS_seL4/cfe/fsw/cfe-core/src/es/cfe_es_apps.c ****    
1242:/home/simulink/cFS_FreeRTOS_seL4/cfe/fsw/cfe-core/src/es/cfe_es_apps.c ****    /*
1243:/home/simulink/cFS_FreeRTOS_seL4/cfe/fsw/cfe-core/src/es/cfe_es_apps.c ****    ** Call the Table Clean up function
1244:/home/simulink/cFS_FreeRTOS_seL4/cfe/fsw/cfe-core/src/es/cfe_es_apps.c ****    */
1245:/home/simulink/cFS_FreeRTOS_seL4/cfe/fsw/cfe-core/src/es/cfe_es_apps.c **** #ifndef EXCLUDE_CFE_TBL
1246:/home/simulink/cFS_FreeRTOS_seL4/cfe/fsw/cfe-core/src/es/cfe_es_apps.c ****    CFE_TBL_CleanUpApp(AppId);
 2673               	.loc 2 1246 0
 2674 176c 2F2F 0018 	move.l 24(%sp),-(%sp)
 2675               	.cfi_def_cfa_offset 28
 2676 1770 4EB9 0000 	jsr CFE_TBL_CleanUpApp
 2676      0000 
 2677 1776 588F      	addq.l #4,%sp
 2678               	.cfi_def_cfa_offset 24
1247:/home/simulink/cFS_FreeRTOS_seL4/cfe/fsw/cfe-core/src/es/cfe_es_apps.c **** #endif   
1248:/home/simulink/cFS_FreeRTOS_seL4/cfe/fsw/cfe-core/src/es/cfe_es_apps.c ****    /*
1249:/home/simulink/cFS_FreeRTOS_seL4/cfe/fsw/cfe-core/src/es/cfe_es_apps.c ****    ** Call the Software Bus clean up function
1250:/home/simulink/cFS_FreeRTOS_seL4/cfe/fsw/cfe-core/src/es/cfe_es_apps.c ****    */
1251:/home/simulink/cFS_FreeRTOS_seL4/cfe/fsw/cfe-core/src/es/cfe_es_apps.c ****    CFE_SB_CleanUpApp(AppId);
 2679               	.loc 2 1251 0
 2680 1778 2F2F 0018 	move.l 24(%sp),-(%sp)
 2681               	.cfi_def_cfa_offset 28
 2682 177c 4EB9 0000 	jsr CFE_SB_CleanUpApp
 2682      0000 
 2683 1782 588F      	addq.l #4,%sp
 2684               	.cfi_def_cfa_offset 24
1252:/home/simulink/cFS_FreeRTOS_seL4/cfe/fsw/cfe-core/src/es/cfe_es_apps.c ****    
1253:/home/simulink/cFS_FreeRTOS_seL4/cfe/fsw/cfe-core/src/es/cfe_es_apps.c ****    /*
1254:/home/simulink/cFS_FreeRTOS_seL4/cfe/fsw/cfe-core/src/es/cfe_es_apps.c ****    ** Call the TIME Clean up function
1255:/home/simulink/cFS_FreeRTOS_seL4/cfe/fsw/cfe-core/src/es/cfe_es_apps.c ****    */
1256:/home/simulink/cFS_FreeRTOS_seL4/cfe/fsw/cfe-core/src/es/cfe_es_apps.c ****    CFE_TIME_CleanUpApp(AppId);
68K GAS   			page 89


 2685               	.loc 2 1256 0
 2686 1784 2F2F 0018 	move.l 24(%sp),-(%sp)
 2687               	.cfi_def_cfa_offset 28
 2688 1788 4EB9 0000 	jsr CFE_TIME_CleanUpApp
 2688      0000 
 2689 178e 588F      	addq.l #4,%sp
 2690               	.cfi_def_cfa_offset 24
1257:/home/simulink/cFS_FreeRTOS_seL4/cfe/fsw/cfe-core/src/es/cfe_es_apps.c ****      
1258:/home/simulink/cFS_FreeRTOS_seL4/cfe/fsw/cfe-core/src/es/cfe_es_apps.c ****    /*
1259:/home/simulink/cFS_FreeRTOS_seL4/cfe/fsw/cfe-core/src/es/cfe_es_apps.c ****    ** Call the EVS Clean up function
1260:/home/simulink/cFS_FreeRTOS_seL4/cfe/fsw/cfe-core/src/es/cfe_es_apps.c ****    */
1261:/home/simulink/cFS_FreeRTOS_seL4/cfe/fsw/cfe-core/src/es/cfe_es_apps.c ****    Status = CFE_EVS_CleanUpApp(AppId);
 2691               	.loc 2 1261 0
 2692 1790 2F2F 0018 	move.l 24(%sp),-(%sp)
 2693               	.cfi_def_cfa_offset 28
 2694 1794 4EB9 0000 	jsr CFE_EVS_CleanUpApp
 2694      0000 
 2695 179a 588F      	addq.l #4,%sp
 2696               	.cfi_def_cfa_offset 24
 2697 179c 2F40 0008 	move.l %d0,8(%sp)
1262:/home/simulink/cFS_FreeRTOS_seL4/cfe/fsw/cfe-core/src/es/cfe_es_apps.c ****    if ( Status != CFE_SUCCESS )
 2698               	.loc 2 1262 0
 2699 17a0 4AAF 0008 	tst.l 8(%sp)
 2700 17a4 671E      	jeq .L109
1263:/home/simulink/cFS_FreeRTOS_seL4/cfe/fsw/cfe-core/src/es/cfe_es_apps.c ****    {
1264:/home/simulink/cFS_FreeRTOS_seL4/cfe/fsw/cfe-core/src/es/cfe_es_apps.c ****       CFE_ES_WriteToSysLog("CFE_ES_CleanUpApp: Call to CFE_EVS_CleanUpApp returned Error: 0x%08X\n"
 2701               	.loc 2 1264 0
 2702 17a6 202F 0008 	move.l 8(%sp),%d0
 2703 17aa 2F00      	move.l %d0,-(%sp)
 2704               	.cfi_def_cfa_offset 28
 2705 17ac 4879 0000 	pea .LC45
 2705      0000 
 2706               	.cfi_def_cfa_offset 32
 2707 17b2 4EB9 0000 	jsr CFE_ES_WriteToSysLog
 2707      0000 
 2708 17b8 508F      	addq.l #8,%sp
 2709               	.cfi_def_cfa_offset 24
1265:/home/simulink/cFS_FreeRTOS_seL4/cfe/fsw/cfe-core/src/es/cfe_es_apps.c ****       ReturnCode = CFE_ES_APP_CLEANUP_ERR;
 2710               	.loc 2 1265 0
 2711 17ba 203C C400 	move.l #-1006632925,%d0
 2711      0023 
 2712 17c0 2F40 000C 	move.l %d0,12(%sp)
 2713               	.L109:
1266:/home/simulink/cFS_FreeRTOS_seL4/cfe/fsw/cfe-core/src/es/cfe_es_apps.c ****    }
1267:/home/simulink/cFS_FreeRTOS_seL4/cfe/fsw/cfe-core/src/es/cfe_es_apps.c ****      
1268:/home/simulink/cFS_FreeRTOS_seL4/cfe/fsw/cfe-core/src/es/cfe_es_apps.c ****    
1269:/home/simulink/cFS_FreeRTOS_seL4/cfe/fsw/cfe-core/src/es/cfe_es_apps.c ****    /*
1270:/home/simulink/cFS_FreeRTOS_seL4/cfe/fsw/cfe-core/src/es/cfe_es_apps.c ****    ** Delete the ES Resources
1271:/home/simulink/cFS_FreeRTOS_seL4/cfe/fsw/cfe-core/src/es/cfe_es_apps.c ****    */
1272:/home/simulink/cFS_FreeRTOS_seL4/cfe/fsw/cfe-core/src/es/cfe_es_apps.c ****    CFE_ES_LockSharedData(__func__,__LINE__);
 2714               	.loc 2 1272 0
 2715 17c4 4878 04F8 	pea 1272.w
 2716               	.cfi_def_cfa_offset 28
 2717 17c8 4879 0000 	pea __func__.5872
 2717      0000 
 2718               	.cfi_def_cfa_offset 32
 2719 17ce 4EB9 0000 	jsr CFE_ES_LockSharedData
68K GAS   			page 90


 2719      0000 
 2720 17d4 508F      	addq.l #8,%sp
 2721               	.cfi_def_cfa_offset 24
1273:/home/simulink/cFS_FreeRTOS_seL4/cfe/fsw/cfe-core/src/es/cfe_es_apps.c ****         
1274:/home/simulink/cFS_FreeRTOS_seL4/cfe/fsw/cfe-core/src/es/cfe_es_apps.c ****    /*
1275:/home/simulink/cFS_FreeRTOS_seL4/cfe/fsw/cfe-core/src/es/cfe_es_apps.c ****    ** Get Main Task ID
1276:/home/simulink/cFS_FreeRTOS_seL4/cfe/fsw/cfe-core/src/es/cfe_es_apps.c ****    */
1277:/home/simulink/cFS_FreeRTOS_seL4/cfe/fsw/cfe-core/src/es/cfe_es_apps.c ****    MainTaskId = CFE_ES_Global.AppTable[AppId].TaskInfo.MainTaskId;   
 2722               	.loc 2 1277 0
 2723 17d6 202F 0018 	move.l 24(%sp),%d0
 2724 17da 223C 0000 	move.l #168,%d1
 2724      00A8 
 2725 17e0 4C01 0800 	muls.l %d1,%d0
 2726 17e4 41F9 0000 	lea CFE_ES_Global+2488,%a0
 2726      0000 
 2727 17ea 43F0 0800 	lea (%a0,%d0.l),%a1
 2728 17ee 2F51 0004 	move.l (%a1),4(%sp)
1278:/home/simulink/cFS_FreeRTOS_seL4/cfe/fsw/cfe-core/src/es/cfe_es_apps.c **** 
1279:/home/simulink/cFS_FreeRTOS_seL4/cfe/fsw/cfe-core/src/es/cfe_es_apps.c ****    /*
1280:/home/simulink/cFS_FreeRTOS_seL4/cfe/fsw/cfe-core/src/es/cfe_es_apps.c ****    ** Delete all of the OS resources, close files, and delete the main task
1281:/home/simulink/cFS_FreeRTOS_seL4/cfe/fsw/cfe-core/src/es/cfe_es_apps.c ****    */
1282:/home/simulink/cFS_FreeRTOS_seL4/cfe/fsw/cfe-core/src/es/cfe_es_apps.c ****    Status = CFE_ES_CleanupTaskResources(MainTaskId);
 2729               	.loc 2 1282 0
 2730 17f2 2F2F 0004 	move.l 4(%sp),-(%sp)
 2731               	.cfi_def_cfa_offset 28
 2732 17f6 4EB9 0000 	jsr CFE_ES_CleanupTaskResources
 2732      0000 
 2733 17fc 588F      	addq.l #4,%sp
 2734               	.cfi_def_cfa_offset 24
 2735 17fe 2F40 0008 	move.l %d0,8(%sp)
1283:/home/simulink/cFS_FreeRTOS_seL4/cfe/fsw/cfe-core/src/es/cfe_es_apps.c ****    if ( Status != CFE_SUCCESS )
 2736               	.loc 2 1283 0
 2737 1802 4AAF 0008 	tst.l 8(%sp)
 2738 1806 6726      	jeq .L110
1284:/home/simulink/cFS_FreeRTOS_seL4/cfe/fsw/cfe-core/src/es/cfe_es_apps.c ****    {
1285:/home/simulink/cFS_FreeRTOS_seL4/cfe/fsw/cfe-core/src/es/cfe_es_apps.c ****       CFE_ES_WriteToSysLog("CFE_ES_CleanUpApp: CleanUpTaskResources for Task ID:%d returned Error: 
 2739               	.loc 2 1285 0
 2740 1808 222F 0008 	move.l 8(%sp),%d1
 2741 180c 202F 0004 	move.l 4(%sp),%d0
 2742 1810 2F01      	move.l %d1,-(%sp)
 2743               	.cfi_def_cfa_offset 28
 2744 1812 2F00      	move.l %d0,-(%sp)
 2745               	.cfi_def_cfa_offset 32
 2746 1814 4879 0000 	pea .LC46
 2746      0000 
 2747               	.cfi_def_cfa_offset 36
 2748 181a 4EB9 0000 	jsr CFE_ES_WriteToSysLog
 2748      0000 
 2749 1820 4FEF 000C 	lea (12,%sp),%sp
 2750               	.cfi_def_cfa_offset 24
1286:/home/simulink/cFS_FreeRTOS_seL4/cfe/fsw/cfe-core/src/es/cfe_es_apps.c ****                                (int)MainTaskId, (unsigned int)Status);
1287:/home/simulink/cFS_FreeRTOS_seL4/cfe/fsw/cfe-core/src/es/cfe_es_apps.c ****       ReturnCode = CFE_ES_APP_CLEANUP_ERR;
 2751               	.loc 2 1287 0
 2752 1824 203C C400 	move.l #-1006632925,%d0
 2752      0023 
 2753 182a 2F40 000C 	move.l %d0,12(%sp)
 2754               	.L110:
68K GAS   			page 91


1288:/home/simulink/cFS_FreeRTOS_seL4/cfe/fsw/cfe-core/src/es/cfe_es_apps.c ****  
1289:/home/simulink/cFS_FreeRTOS_seL4/cfe/fsw/cfe-core/src/es/cfe_es_apps.c ****    }
1290:/home/simulink/cFS_FreeRTOS_seL4/cfe/fsw/cfe-core/src/es/cfe_es_apps.c **** 
1291:/home/simulink/cFS_FreeRTOS_seL4/cfe/fsw/cfe-core/src/es/cfe_es_apps.c ****    /*
1292:/home/simulink/cFS_FreeRTOS_seL4/cfe/fsw/cfe-core/src/es/cfe_es_apps.c ****    ** Delete any child tasks associated with this app
1293:/home/simulink/cFS_FreeRTOS_seL4/cfe/fsw/cfe-core/src/es/cfe_es_apps.c ****    */
1294:/home/simulink/cFS_FreeRTOS_seL4/cfe/fsw/cfe-core/src/es/cfe_es_apps.c ****    for ( i = 0; i < OS_MAX_TASKS; i++ )
 2755               	.loc 2 1294 0
 2756 182e 42AF 0010 	clr.l 16(%sp)
 2757 1832 6000 00AE 	jra .L111
 2758               	.L113:
1295:/home/simulink/cFS_FreeRTOS_seL4/cfe/fsw/cfe-core/src/es/cfe_es_apps.c ****    {
1296:/home/simulink/cFS_FreeRTOS_seL4/cfe/fsw/cfe-core/src/es/cfe_es_apps.c ****       /* delete only CHILD tasks - not the MainTaskId, which is already deleted (above) */
1297:/home/simulink/cFS_FreeRTOS_seL4/cfe/fsw/cfe-core/src/es/cfe_es_apps.c ****       if ((CFE_ES_Global.TaskTable[i].RecordUsed == TRUE) &&
 2759               	.loc 2 1297 0
 2760 1836 202F 0010 	move.l 16(%sp),%d0
 2761 183a 5280      	addq.l #1,%d0
 2762 183c 7224      	moveq #36,%d1
 2763 183e 4C01 0800 	muls.l %d1,%d0
 2764 1842 41F9 0000 	lea CFE_ES_Global,%a0
 2764      0000 
 2765 1848 1030 0800 	move.b (%a0,%d0.l),%d0
 2766 184c 1000      	move.b %d0,%d0
 2767 184e 0280 0000 	and.l #255,%d0
 2767      00FF 
 2768 1854 7401      	moveq #1,%d2
 2769 1856 B480      	cmp.l %d0,%d2
 2770 1858 6600 0084 	jne .L112
1298:/home/simulink/cFS_FreeRTOS_seL4/cfe/fsw/cfe-core/src/es/cfe_es_apps.c ****           (CFE_ES_Global.TaskTable[i].AppId == AppId) &&
 2771               	.loc 2 1298 0 discriminator 1
 2772 185c 202F 0010 	move.l 16(%sp),%d0
 2773 1860 7224      	moveq #36,%d1
 2774 1862 4C01 0800 	muls.l %d1,%d0
 2775 1866 41F9 0000 	lea CFE_ES_Global+40,%a0
 2775      0000 
 2776 186c 2030 0800 	move.l (%a0,%d0.l),%d0
1297:/home/simulink/cFS_FreeRTOS_seL4/cfe/fsw/cfe-core/src/es/cfe_es_apps.c ****           (CFE_ES_Global.TaskTable[i].AppId == AppId) &&
 2777               	.loc 2 1297 0 discriminator 1
 2778 1870 B0AF 0018 	cmp.l 24(%sp),%d0
 2779 1874 6668      	jne .L112
1299:/home/simulink/cFS_FreeRTOS_seL4/cfe/fsw/cfe-core/src/es/cfe_es_apps.c ****           (CFE_ES_Global.TaskTable[i].TaskId != MainTaskId))
 2780               	.loc 2 1299 0
 2781 1876 202F 0010 	move.l 16(%sp),%d0
 2782 187a 7424      	moveq #36,%d2
 2783 187c 4C02 0800 	muls.l %d2,%d0
 2784 1880 41F9 0000 	lea CFE_ES_Global+44,%a0
 2784      0000 
 2785 1886 2030 0800 	move.l (%a0,%d0.l),%d0
1298:/home/simulink/cFS_FreeRTOS_seL4/cfe/fsw/cfe-core/src/es/cfe_es_apps.c ****           (CFE_ES_Global.TaskTable[i].AppId == AppId) &&
 2786               	.loc 2 1298 0
 2787 188a B0AF 0004 	cmp.l 4(%sp),%d0
 2788 188e 674E      	jeq .L112
1300:/home/simulink/cFS_FreeRTOS_seL4/cfe/fsw/cfe-core/src/es/cfe_es_apps.c ****       {         
1301:/home/simulink/cFS_FreeRTOS_seL4/cfe/fsw/cfe-core/src/es/cfe_es_apps.c ****          Status = CFE_ES_CleanupTaskResources(CFE_ES_Global.TaskTable[i].TaskId);
 2789               	.loc 2 1301 0
 2790 1890 202F 0010 	move.l 16(%sp),%d0
 2791 1894 7224      	moveq #36,%d1
68K GAS   			page 92


 2792 1896 4C01 0800 	muls.l %d1,%d0
 2793 189a 41F9 0000 	lea CFE_ES_Global+44,%a0
 2793      0000 
 2794 18a0 2030 0800 	move.l (%a0,%d0.l),%d0
 2795 18a4 2F00      	move.l %d0,-(%sp)
 2796               	.cfi_def_cfa_offset 28
 2797 18a6 4EB9 0000 	jsr CFE_ES_CleanupTaskResources
 2797      0000 
 2798 18ac 588F      	addq.l #4,%sp
 2799               	.cfi_def_cfa_offset 24
 2800 18ae 2F40 0008 	move.l %d0,8(%sp)
1302:/home/simulink/cFS_FreeRTOS_seL4/cfe/fsw/cfe-core/src/es/cfe_es_apps.c ****          if ( Status != CFE_SUCCESS )
 2801               	.loc 2 1302 0
 2802 18b2 4AAF 0008 	tst.l 8(%sp)
 2803 18b6 6726      	jeq .L112
1303:/home/simulink/cFS_FreeRTOS_seL4/cfe/fsw/cfe-core/src/es/cfe_es_apps.c ****          {
1304:/home/simulink/cFS_FreeRTOS_seL4/cfe/fsw/cfe-core/src/es/cfe_es_apps.c ****             CFE_ES_WriteToSysLog("CFE_ES_CleanUpApp: CleanUpTaskResources for Task ID:%d returned E
 2804               	.loc 2 1304 0
 2805 18b8 222F 0008 	move.l 8(%sp),%d1
 2806 18bc 202F 0010 	move.l 16(%sp),%d0
 2807 18c0 2F01      	move.l %d1,-(%sp)
 2808               	.cfi_def_cfa_offset 28
 2809 18c2 2F00      	move.l %d0,-(%sp)
 2810               	.cfi_def_cfa_offset 32
 2811 18c4 4879 0000 	pea .LC46
 2811      0000 
 2812               	.cfi_def_cfa_offset 36
 2813 18ca 4EB9 0000 	jsr CFE_ES_WriteToSysLog
 2813      0000 
 2814 18d0 4FEF 000C 	lea (12,%sp),%sp
 2815               	.cfi_def_cfa_offset 24
1305:/home/simulink/cFS_FreeRTOS_seL4/cfe/fsw/cfe-core/src/es/cfe_es_apps.c ****                                   (int)i, (unsigned int)Status);
1306:/home/simulink/cFS_FreeRTOS_seL4/cfe/fsw/cfe-core/src/es/cfe_es_apps.c ****             ReturnCode = CFE_ES_APP_CLEANUP_ERR;
 2816               	.loc 2 1306 0
 2817 18d4 243C C400 	move.l #-1006632925,%d2
 2817      0023 
 2818 18da 2F42 000C 	move.l %d2,12(%sp)
 2819               	.L112:
1294:/home/simulink/cFS_FreeRTOS_seL4/cfe/fsw/cfe-core/src/es/cfe_es_apps.c ****    {
 2820               	.loc 2 1294 0 discriminator 2
 2821 18de 52AF 0010 	addq.l #1,16(%sp)
 2822               	.L111:
1294:/home/simulink/cFS_FreeRTOS_seL4/cfe/fsw/cfe-core/src/es/cfe_es_apps.c ****    {
 2823               	.loc 2 1294 0 is_stmt 0 discriminator 1
 2824 18e2 703F      	moveq #63,%d0
 2825 18e4 B0AF 0010 	cmp.l 16(%sp),%d0
 2826 18e8 6400 FF4C 	jcc .L113
1307:/home/simulink/cFS_FreeRTOS_seL4/cfe/fsw/cfe-core/src/es/cfe_es_apps.c ****          }
1308:/home/simulink/cFS_FreeRTOS_seL4/cfe/fsw/cfe-core/src/es/cfe_es_apps.c ****       } /* end if */
1309:/home/simulink/cFS_FreeRTOS_seL4/cfe/fsw/cfe-core/src/es/cfe_es_apps.c ****    } /* end for */
1310:/home/simulink/cFS_FreeRTOS_seL4/cfe/fsw/cfe-core/src/es/cfe_es_apps.c **** 
1311:/home/simulink/cFS_FreeRTOS_seL4/cfe/fsw/cfe-core/src/es/cfe_es_apps.c ****    /*
1312:/home/simulink/cFS_FreeRTOS_seL4/cfe/fsw/cfe-core/src/es/cfe_es_apps.c ****    ** Remove the app from the AppTable
1313:/home/simulink/cFS_FreeRTOS_seL4/cfe/fsw/cfe-core/src/es/cfe_es_apps.c ****    */
1314:/home/simulink/cFS_FreeRTOS_seL4/cfe/fsw/cfe-core/src/es/cfe_es_apps.c ****    if ( CFE_ES_Global.AppTable[AppId].Type == CFE_ES_APP_TYPE_EXTERNAL )
 2827               	.loc 2 1314 0 is_stmt 1
 2828 18ec 202F 0018 	move.l 24(%sp),%d0
68K GAS   			page 93


 2829 18f0 223C 0000 	move.l #168,%d1
 2829      00A8 
 2830 18f6 4C01 0800 	muls.l %d1,%d0
 2831 18fa 41F9 0000 	lea CFE_ES_Global+2352,%a0
 2831      0000 
 2832 1900 2030 0800 	move.l (%a0,%d0.l),%d0
 2833 1904 7402      	moveq #2,%d2
 2834 1906 B480      	cmp.l %d0,%d2
 2835 1908 6676      	jne .L114
1315:/home/simulink/cFS_FreeRTOS_seL4/cfe/fsw/cfe-core/src/es/cfe_es_apps.c ****    {
1316:/home/simulink/cFS_FreeRTOS_seL4/cfe/fsw/cfe-core/src/es/cfe_es_apps.c ****       /*
1317:/home/simulink/cFS_FreeRTOS_seL4/cfe/fsw/cfe-core/src/es/cfe_es_apps.c ****       ** Unload the module only if it is an external app
1318:/home/simulink/cFS_FreeRTOS_seL4/cfe/fsw/cfe-core/src/es/cfe_es_apps.c ****       */
1319:/home/simulink/cFS_FreeRTOS_seL4/cfe/fsw/cfe-core/src/es/cfe_es_apps.c ****       Status = OS_ModuleUnload(CFE_ES_Global.AppTable[AppId].StartParams.ModuleId);
 2836               	.loc 2 1319 0
 2837 190a 202F 0018 	move.l 24(%sp),%d0
 2838 190e 223C 0000 	move.l #168,%d1
 2838      00A8 
 2839 1914 4C01 0800 	muls.l %d1,%d0
 2840 1918 41F9 0000 	lea CFE_ES_Global+2468,%a0
 2840      0000 
 2841 191e 2030 0800 	move.l (%a0,%d0.l),%d0
 2842 1922 2F00      	move.l %d0,-(%sp)
 2843               	.cfi_def_cfa_offset 28
 2844 1924 4EB9 0000 	jsr OS_ModuleUnload
 2844      0000 
 2845 192a 588F      	addq.l #4,%sp
 2846               	.cfi_def_cfa_offset 24
 2847 192c 2F40 0008 	move.l %d0,8(%sp)
1320:/home/simulink/cFS_FreeRTOS_seL4/cfe/fsw/cfe-core/src/es/cfe_es_apps.c ****       if ( Status == OS_ERROR )
 2848               	.loc 2 1320 0
 2849 1930 74FF      	moveq #-1,%d2
 2850 1932 B4AF 0008 	cmp.l 8(%sp),%d2
 2851 1936 663A      	jne .L115
1321:/home/simulink/cFS_FreeRTOS_seL4/cfe/fsw/cfe-core/src/es/cfe_es_apps.c ****       {
1322:/home/simulink/cFS_FreeRTOS_seL4/cfe/fsw/cfe-core/src/es/cfe_es_apps.c ****            CFE_ES_WriteToSysLog("CFE_ES_CleanUpApp: Module (ID:0x%08X) Unload failed. RC=0x%08X\n",
 2852               	.loc 2 1322 0
 2853 1938 222F 0008 	move.l 8(%sp),%d1
1323:/home/simulink/cFS_FreeRTOS_seL4/cfe/fsw/cfe-core/src/es/cfe_es_apps.c ****                                  (unsigned int)CFE_ES_Global.AppTable[AppId].StartParams.ModuleId, 
 2854               	.loc 2 1323 0
 2855 193c 202F 0018 	move.l 24(%sp),%d0
 2856 1940 243C 0000 	move.l #168,%d2
 2856      00A8 
 2857 1946 4C02 0800 	muls.l %d2,%d0
 2858 194a 41F9 0000 	lea CFE_ES_Global+2468,%a0
 2858      0000 
 2859 1950 2030 0800 	move.l (%a0,%d0.l),%d0
1322:/home/simulink/cFS_FreeRTOS_seL4/cfe/fsw/cfe-core/src/es/cfe_es_apps.c ****                                  (unsigned int)CFE_ES_Global.AppTable[AppId].StartParams.ModuleId, 
 2860               	.loc 2 1322 0
 2861 1954 2F01      	move.l %d1,-(%sp)
 2862               	.cfi_def_cfa_offset 28
 2863 1956 2F00      	move.l %d0,-(%sp)
 2864               	.cfi_def_cfa_offset 32
 2865 1958 4879 0000 	pea .LC47
 2865      0000 
 2866               	.cfi_def_cfa_offset 36
 2867 195e 4EB9 0000 	jsr CFE_ES_WriteToSysLog
68K GAS   			page 94


 2867      0000 
 2868 1964 4FEF 000C 	lea (12,%sp),%sp
 2869               	.cfi_def_cfa_offset 24
1324:/home/simulink/cFS_FreeRTOS_seL4/cfe/fsw/cfe-core/src/es/cfe_es_apps.c ****            ReturnCode = CFE_ES_APP_CLEANUP_ERR;
 2870               	.loc 2 1324 0
 2871 1968 227C C400 	move.l #-1006632925,%a1
 2871      0023 
 2872 196e 2F49 000C 	move.l %a1,12(%sp)
 2873               	.L115:
1325:/home/simulink/cFS_FreeRTOS_seL4/cfe/fsw/cfe-core/src/es/cfe_es_apps.c ****       }
1326:/home/simulink/cFS_FreeRTOS_seL4/cfe/fsw/cfe-core/src/es/cfe_es_apps.c ****       CFE_ES_Global.RegisteredExternalApps--;
 2874               	.loc 2 1326 0
 2875 1972 2039 0000 	move.l CFE_ES_Global+2344,%d0
 2875      0000 
 2876 1978 5380      	subq.l #1,%d0
 2877 197a 23C0 0000 	move.l %d0,CFE_ES_Global+2344
 2877      0000 
 2878               	.L114:
1327:/home/simulink/cFS_FreeRTOS_seL4/cfe/fsw/cfe-core/src/es/cfe_es_apps.c ****    }
1328:/home/simulink/cFS_FreeRTOS_seL4/cfe/fsw/cfe-core/src/es/cfe_es_apps.c ****       
1329:/home/simulink/cFS_FreeRTOS_seL4/cfe/fsw/cfe-core/src/es/cfe_es_apps.c ****    CFE_ES_Global.AppTable[AppId].RecordUsed = FALSE;
 2879               	.loc 2 1329 0
 2880 1980 202F 0018 	move.l 24(%sp),%d0
 2881 1984 223C 0000 	move.l #168,%d1
 2881      00A8 
 2882 198a 4C01 0800 	muls.l %d1,%d0
 2883 198e 41F9 0000 	lea CFE_ES_Global+2348,%a0
 2883      0000 
 2884 1994 4202      	clr.b %d2
 2885 1996 1182 0800 	move.b %d2,(%a0,%d0.l)
1330:/home/simulink/cFS_FreeRTOS_seL4/cfe/fsw/cfe-core/src/es/cfe_es_apps.c **** 
1331:/home/simulink/cFS_FreeRTOS_seL4/cfe/fsw/cfe-core/src/es/cfe_es_apps.c ****     #ifdef ES_APP_DEBUG   
1332:/home/simulink/cFS_FreeRTOS_seL4/cfe/fsw/cfe-core/src/es/cfe_es_apps.c ****        OS_TaskDelay(1000);   
1333:/home/simulink/cFS_FreeRTOS_seL4/cfe/fsw/cfe-core/src/es/cfe_es_apps.c ****        CFE_ES_ListResourcesDebug();
1334:/home/simulink/cFS_FreeRTOS_seL4/cfe/fsw/cfe-core/src/es/cfe_es_apps.c ****        printf("--------- Finished CFE_ES_CleanUpApp-------------\n");
1335:/home/simulink/cFS_FreeRTOS_seL4/cfe/fsw/cfe-core/src/es/cfe_es_apps.c ****     #endif 
1336:/home/simulink/cFS_FreeRTOS_seL4/cfe/fsw/cfe-core/src/es/cfe_es_apps.c **** 
1337:/home/simulink/cFS_FreeRTOS_seL4/cfe/fsw/cfe-core/src/es/cfe_es_apps.c ****    CFE_ES_UnlockSharedData(__func__,__LINE__);
 2886               	.loc 2 1337 0
 2887 199a 4878 0539 	pea 1337.w
 2888               	.cfi_def_cfa_offset 28
 2889 199e 4879 0000 	pea __func__.5872
 2889      0000 
 2890               	.cfi_def_cfa_offset 32
 2891 19a4 4EB9 0000 	jsr CFE_ES_UnlockSharedData
 2891      0000 
 2892 19aa 508F      	addq.l #8,%sp
 2893               	.cfi_def_cfa_offset 24
1338:/home/simulink/cFS_FreeRTOS_seL4/cfe/fsw/cfe-core/src/es/cfe_es_apps.c ****     
1339:/home/simulink/cFS_FreeRTOS_seL4/cfe/fsw/cfe-core/src/es/cfe_es_apps.c ****    return(ReturnCode);
 2894               	.loc 2 1339 0
 2895 19ac 202F 000C 	move.l 12(%sp),%d0
1340:/home/simulink/cFS_FreeRTOS_seL4/cfe/fsw/cfe-core/src/es/cfe_es_apps.c ****    
1341:/home/simulink/cFS_FreeRTOS_seL4/cfe/fsw/cfe-core/src/es/cfe_es_apps.c **** } /* end function */
 2896               	.loc 2 1341 0
 2897 19b0 241F      	move.l (%sp)+,%d2
 2898 19b2 4FEF 0010 	lea (16,%sp),%sp
68K GAS   			page 95


 2899 19b6 4E75      	rts
 2900               	.cfi_endproc
 2901               	.LFE65:
 2902               	.sizeCFE_ES_CleanUpApp, .-CFE_ES_CleanUpApp
 2903               	.section.rodata
 2904               	.LC48:
 2905 0925 4361 6C6C 	.string"Call to OS_MutSemDelete (ID:%d) failed. RC=0x%08X\n"
 2905      2074 6F20 
 2905      4F53 5F4D 
 2905      7574 5365 
 2905      6D44 656C 
 2906               	.LC49:
 2907 0958 4361 6C6C 	.string"Call to OS_BinSemDelete (ID:%d) failed. RC=0x%08X\n"
 2907      2074 6F20 
 2907      4F53 5F42 
 2907      696E 5365 
 2907      6D44 656C 
 2908               	.LC50:
 2909 098b 4361 6C6C 	.string"Call to OS_CountSemDelete (ID:%d) failed. RC=0x%08X\n"
 2909      2074 6F20 
 2909      4F53 5F43 
 2909      6F75 6E74 
 2909      5365 6D44 
 2910               	.LC51:
 2911 09c0 4361 6C6C 	.string"Call to OS_QueueDelete (ID:%d) failed. RC=0x%08X\n"
 2911      2074 6F20 
 2911      4F53 5F51 
 2911      7565 7565 
 2911      4465 6C65 
 2912               	.LC52:
 2913 09f2 4361 6C6C 	.string"Call to OS_TimerDelete (ID:%d) failed. RC=0x%08X\n"
 2913      2074 6F20 
 2913      4F53 5F54 
 2913      696D 6572 
 2913      4465 6C65 
 2914               	.LC53:
 2915 0a24 4361 6C6C 	.string"Call to OS_close (FD:%d) failed. RC=0x%08X\n"
 2915      2074 6F20 
 2915      4F53 5F63 
 2915      6C6F 7365 
 2915      2028 4644 
 2916               	.LC54:
 2917 0a50 4361 6C6C 	.string"Call to OS_TaskDelete (TaskID:%d) failed. RC=0x%08X\n"
 2917      2074 6F20 
 2917      4F53 5F54 
 2917      6173 6B44 
 2917      656C 6574 
 2918               	.text
 2919               	.align2
 2920               	.globlCFE_ES_CleanupTaskResources
 2921               	.typeCFE_ES_CleanupTaskResources, @function
 2922               	CFE_ES_CleanupTaskResources:
 2923               	.LFB66:
1342:/home/simulink/cFS_FreeRTOS_seL4/cfe/fsw/cfe-core/src/es/cfe_es_apps.c **** 
1343:/home/simulink/cFS_FreeRTOS_seL4/cfe/fsw/cfe-core/src/es/cfe_es_apps.c **** 
1344:/home/simulink/cFS_FreeRTOS_seL4/cfe/fsw/cfe-core/src/es/cfe_es_apps.c **** /*
1345:/home/simulink/cFS_FreeRTOS_seL4/cfe/fsw/cfe-core/src/es/cfe_es_apps.c ****  * Better methods to find OSAL resources associated with a task
68K GAS   			page 96


1346:/home/simulink/cFS_FreeRTOS_seL4/cfe/fsw/cfe-core/src/es/cfe_es_apps.c ****  * have been added in the updated version of OSAL.  Instead of just
1347:/home/simulink/cFS_FreeRTOS_seL4/cfe/fsw/cfe-core/src/es/cfe_es_apps.c ****  * generating an ID in the range of 0..OS_MAX_<OBJTYPE> and calling
1348:/home/simulink/cFS_FreeRTOS_seL4/cfe/fsw/cfe-core/src/es/cfe_es_apps.c ****  * OSAL to see if it is valid or not, the OSAL now has a dedicated
1349:/home/simulink/cFS_FreeRTOS_seL4/cfe/fsw/cfe-core/src/es/cfe_es_apps.c ****  * API to loop through the IDs that _actually are_ valid and call
1350:/home/simulink/cFS_FreeRTOS_seL4/cfe/fsw/cfe-core/src/es/cfe_es_apps.c ****  * a user-defined function for each one.
1351:/home/simulink/cFS_FreeRTOS_seL4/cfe/fsw/cfe-core/src/es/cfe_es_apps.c ****  *
1352:/home/simulink/cFS_FreeRTOS_seL4/cfe/fsw/cfe-core/src/es/cfe_es_apps.c ****  * This is leveraged if a new OSAL is being used, otherwise fall back
1353:/home/simulink/cFS_FreeRTOS_seL4/cfe/fsw/cfe-core/src/es/cfe_es_apps.c ****  * to assuming that the OSAL ID will be in the range of O..OS_MAX_<OBJTYPE>
1354:/home/simulink/cFS_FreeRTOS_seL4/cfe/fsw/cfe-core/src/es/cfe_es_apps.c ****  */
1355:/home/simulink/cFS_FreeRTOS_seL4/cfe/fsw/cfe-core/src/es/cfe_es_apps.c **** #if defined(OSAL_OPAQUE_OBJECT_IDS)
1356:/home/simulink/cFS_FreeRTOS_seL4/cfe/fsw/cfe-core/src/es/cfe_es_apps.c **** 
1357:/home/simulink/cFS_FreeRTOS_seL4/cfe/fsw/cfe-core/src/es/cfe_es_apps.c **** /*
1358:/home/simulink/cFS_FreeRTOS_seL4/cfe/fsw/cfe-core/src/es/cfe_es_apps.c ****  * Simple state structure used when cleaning up objects associated with tasks
1359:/home/simulink/cFS_FreeRTOS_seL4/cfe/fsw/cfe-core/src/es/cfe_es_apps.c ****  *
1360:/home/simulink/cFS_FreeRTOS_seL4/cfe/fsw/cfe-core/src/es/cfe_es_apps.c ****  * This is used locally between CFE_ES_CleanupTaskResources and the
1361:/home/simulink/cFS_FreeRTOS_seL4/cfe/fsw/cfe-core/src/es/cfe_es_apps.c ****  * CFE_ES_CountObjectCallback helper function.
1362:/home/simulink/cFS_FreeRTOS_seL4/cfe/fsw/cfe-core/src/es/cfe_es_apps.c ****  */
1363:/home/simulink/cFS_FreeRTOS_seL4/cfe/fsw/cfe-core/src/es/cfe_es_apps.c **** typedef struct
1364:/home/simulink/cFS_FreeRTOS_seL4/cfe/fsw/cfe-core/src/es/cfe_es_apps.c **** {
1365:/home/simulink/cFS_FreeRTOS_seL4/cfe/fsw/cfe-core/src/es/cfe_es_apps.c ****     uint32 ErrorFlag;
1366:/home/simulink/cFS_FreeRTOS_seL4/cfe/fsw/cfe-core/src/es/cfe_es_apps.c ****     uint32 FoundObjects;
1367:/home/simulink/cFS_FreeRTOS_seL4/cfe/fsw/cfe-core/src/es/cfe_es_apps.c ****     uint32 PrevFoundObjects;
1368:/home/simulink/cFS_FreeRTOS_seL4/cfe/fsw/cfe-core/src/es/cfe_es_apps.c ****     uint32 DeletedObjects;
1369:/home/simulink/cFS_FreeRTOS_seL4/cfe/fsw/cfe-core/src/es/cfe_es_apps.c ****     int32  OverallStatus;
1370:/home/simulink/cFS_FreeRTOS_seL4/cfe/fsw/cfe-core/src/es/cfe_es_apps.c **** } CFE_ES_CleanupState_t;
1371:/home/simulink/cFS_FreeRTOS_seL4/cfe/fsw/cfe-core/src/es/cfe_es_apps.c **** 
1372:/home/simulink/cFS_FreeRTOS_seL4/cfe/fsw/cfe-core/src/es/cfe_es_apps.c **** /*
1373:/home/simulink/cFS_FreeRTOS_seL4/cfe/fsw/cfe-core/src/es/cfe_es_apps.c **** **---------------------------------------------------------------------------------------
1374:/home/simulink/cFS_FreeRTOS_seL4/cfe/fsw/cfe-core/src/es/cfe_es_apps.c **** **   Name: CFE_ES_CountObjectCallback
1375:/home/simulink/cFS_FreeRTOS_seL4/cfe/fsw/cfe-core/src/es/cfe_es_apps.c **** **
1376:/home/simulink/cFS_FreeRTOS_seL4/cfe/fsw/cfe-core/src/es/cfe_es_apps.c **** **   Purpose: Helper function for CFE_ES_ListResourcesDebug to count all objects.
1377:/home/simulink/cFS_FreeRTOS_seL4/cfe/fsw/cfe-core/src/es/cfe_es_apps.c **** **---------------------------------------------------------------------------------------
1378:/home/simulink/cFS_FreeRTOS_seL4/cfe/fsw/cfe-core/src/es/cfe_es_apps.c **** */
1379:/home/simulink/cFS_FreeRTOS_seL4/cfe/fsw/cfe-core/src/es/cfe_es_apps.c **** void CFE_ES_CleanupObjectCallback(uint32 ObjectId, void *arg)
1380:/home/simulink/cFS_FreeRTOS_seL4/cfe/fsw/cfe-core/src/es/cfe_es_apps.c **** {
1381:/home/simulink/cFS_FreeRTOS_seL4/cfe/fsw/cfe-core/src/es/cfe_es_apps.c ****     CFE_ES_CleanupState_t   *CleanState;
1382:/home/simulink/cFS_FreeRTOS_seL4/cfe/fsw/cfe-core/src/es/cfe_es_apps.c ****     int32                   Status;
1383:/home/simulink/cFS_FreeRTOS_seL4/cfe/fsw/cfe-core/src/es/cfe_es_apps.c ****     uint32                  ObjType;
1384:/home/simulink/cFS_FreeRTOS_seL4/cfe/fsw/cfe-core/src/es/cfe_es_apps.c ****     osalbool                ObjIsValid;
1385:/home/simulink/cFS_FreeRTOS_seL4/cfe/fsw/cfe-core/src/es/cfe_es_apps.c **** 
1386:/home/simulink/cFS_FreeRTOS_seL4/cfe/fsw/cfe-core/src/es/cfe_es_apps.c ****     CleanState = (CFE_ES_CleanupState_t *)arg;
1387:/home/simulink/cFS_FreeRTOS_seL4/cfe/fsw/cfe-core/src/es/cfe_es_apps.c ****     ObjIsValid = TRUE;
1388:/home/simulink/cFS_FreeRTOS_seL4/cfe/fsw/cfe-core/src/es/cfe_es_apps.c **** 
1389:/home/simulink/cFS_FreeRTOS_seL4/cfe/fsw/cfe-core/src/es/cfe_es_apps.c ****     ObjType = OS_IdentifyObject(ObjectId);
1390:/home/simulink/cFS_FreeRTOS_seL4/cfe/fsw/cfe-core/src/es/cfe_es_apps.c ****     switch(ObjType)
1391:/home/simulink/cFS_FreeRTOS_seL4/cfe/fsw/cfe-core/src/es/cfe_es_apps.c ****     {
1392:/home/simulink/cFS_FreeRTOS_seL4/cfe/fsw/cfe-core/src/es/cfe_es_apps.c ****     case OS_OBJECT_TYPE_OS_TASK:
1393:/home/simulink/cFS_FreeRTOS_seL4/cfe/fsw/cfe-core/src/es/cfe_es_apps.c ****         Status = OS_TaskDelete(ObjectId);
1394:/home/simulink/cFS_FreeRTOS_seL4/cfe/fsw/cfe-core/src/es/cfe_es_apps.c ****         break;
1395:/home/simulink/cFS_FreeRTOS_seL4/cfe/fsw/cfe-core/src/es/cfe_es_apps.c ****     case OS_OBJECT_TYPE_OS_QUEUE:
1396:/home/simulink/cFS_FreeRTOS_seL4/cfe/fsw/cfe-core/src/es/cfe_es_apps.c ****         Status = OS_QueueDelete(ObjectId);
1397:/home/simulink/cFS_FreeRTOS_seL4/cfe/fsw/cfe-core/src/es/cfe_es_apps.c ****         break;
1398:/home/simulink/cFS_FreeRTOS_seL4/cfe/fsw/cfe-core/src/es/cfe_es_apps.c ****     case OS_OBJECT_TYPE_OS_BINSEM:
1399:/home/simulink/cFS_FreeRTOS_seL4/cfe/fsw/cfe-core/src/es/cfe_es_apps.c ****         Status = OS_BinSemDelete(ObjectId);
1400:/home/simulink/cFS_FreeRTOS_seL4/cfe/fsw/cfe-core/src/es/cfe_es_apps.c ****         break;
1401:/home/simulink/cFS_FreeRTOS_seL4/cfe/fsw/cfe-core/src/es/cfe_es_apps.c ****     case OS_OBJECT_TYPE_OS_COUNTSEM:
1402:/home/simulink/cFS_FreeRTOS_seL4/cfe/fsw/cfe-core/src/es/cfe_es_apps.c ****         Status = OS_CountSemDelete(ObjectId);
68K GAS   			page 97


1403:/home/simulink/cFS_FreeRTOS_seL4/cfe/fsw/cfe-core/src/es/cfe_es_apps.c ****         break;
1404:/home/simulink/cFS_FreeRTOS_seL4/cfe/fsw/cfe-core/src/es/cfe_es_apps.c ****     case OS_OBJECT_TYPE_OS_MUTEX:
1405:/home/simulink/cFS_FreeRTOS_seL4/cfe/fsw/cfe-core/src/es/cfe_es_apps.c ****         Status = OS_MutSemDelete(ObjectId);
1406:/home/simulink/cFS_FreeRTOS_seL4/cfe/fsw/cfe-core/src/es/cfe_es_apps.c ****         break;
1407:/home/simulink/cFS_FreeRTOS_seL4/cfe/fsw/cfe-core/src/es/cfe_es_apps.c ****     case OS_OBJECT_TYPE_OS_TIMECB:
1408:/home/simulink/cFS_FreeRTOS_seL4/cfe/fsw/cfe-core/src/es/cfe_es_apps.c ****         Status = OS_TimerDelete(ObjectId);
1409:/home/simulink/cFS_FreeRTOS_seL4/cfe/fsw/cfe-core/src/es/cfe_es_apps.c ****         break;
1410:/home/simulink/cFS_FreeRTOS_seL4/cfe/fsw/cfe-core/src/es/cfe_es_apps.c ****     case OS_OBJECT_TYPE_OS_STREAM:
1411:/home/simulink/cFS_FreeRTOS_seL4/cfe/fsw/cfe-core/src/es/cfe_es_apps.c ****         Status = OS_close(ObjectId);
1412:/home/simulink/cFS_FreeRTOS_seL4/cfe/fsw/cfe-core/src/es/cfe_es_apps.c ****         break;
1413:/home/simulink/cFS_FreeRTOS_seL4/cfe/fsw/cfe-core/src/es/cfe_es_apps.c ****     case OS_OBJECT_TYPE_OS_MODULE:
1414:/home/simulink/cFS_FreeRTOS_seL4/cfe/fsw/cfe-core/src/es/cfe_es_apps.c ****         Status = OS_ModuleUnload(ObjectId);
1415:/home/simulink/cFS_FreeRTOS_seL4/cfe/fsw/cfe-core/src/es/cfe_es_apps.c ****         break;
1416:/home/simulink/cFS_FreeRTOS_seL4/cfe/fsw/cfe-core/src/es/cfe_es_apps.c ****     default:
1417:/home/simulink/cFS_FreeRTOS_seL4/cfe/fsw/cfe-core/src/es/cfe_es_apps.c ****         ObjIsValid = FALSE;
1418:/home/simulink/cFS_FreeRTOS_seL4/cfe/fsw/cfe-core/src/es/cfe_es_apps.c ****         Status = OS_ERROR;
1419:/home/simulink/cFS_FreeRTOS_seL4/cfe/fsw/cfe-core/src/es/cfe_es_apps.c ****         break;
1420:/home/simulink/cFS_FreeRTOS_seL4/cfe/fsw/cfe-core/src/es/cfe_es_apps.c ****     }
1421:/home/simulink/cFS_FreeRTOS_seL4/cfe/fsw/cfe-core/src/es/cfe_es_apps.c **** 
1422:/home/simulink/cFS_FreeRTOS_seL4/cfe/fsw/cfe-core/src/es/cfe_es_apps.c ****     if (ObjIsValid)
1423:/home/simulink/cFS_FreeRTOS_seL4/cfe/fsw/cfe-core/src/es/cfe_es_apps.c ****     {
1424:/home/simulink/cFS_FreeRTOS_seL4/cfe/fsw/cfe-core/src/es/cfe_es_apps.c ****         ++CleanState->FoundObjects;
1425:/home/simulink/cFS_FreeRTOS_seL4/cfe/fsw/cfe-core/src/es/cfe_es_apps.c ****         if (Status == OS_SUCCESS)
1426:/home/simulink/cFS_FreeRTOS_seL4/cfe/fsw/cfe-core/src/es/cfe_es_apps.c ****         {
1427:/home/simulink/cFS_FreeRTOS_seL4/cfe/fsw/cfe-core/src/es/cfe_es_apps.c ****             ++CleanState->DeletedObjects;
1428:/home/simulink/cFS_FreeRTOS_seL4/cfe/fsw/cfe-core/src/es/cfe_es_apps.c ****         }
1429:/home/simulink/cFS_FreeRTOS_seL4/cfe/fsw/cfe-core/src/es/cfe_es_apps.c ****         else
1430:/home/simulink/cFS_FreeRTOS_seL4/cfe/fsw/cfe-core/src/es/cfe_es_apps.c ****         {
1431:/home/simulink/cFS_FreeRTOS_seL4/cfe/fsw/cfe-core/src/es/cfe_es_apps.c ****             CFE_ES_WriteToSysLog("Call to OSAL Delete Object (ID:%d) failed. RC=0x%08X\n",
1432:/home/simulink/cFS_FreeRTOS_seL4/cfe/fsw/cfe-core/src/es/cfe_es_apps.c ****                          (int)ObjectId, (unsigned int)Status);
1433:/home/simulink/cFS_FreeRTOS_seL4/cfe/fsw/cfe-core/src/es/cfe_es_apps.c ****             if (CleanState->OverallStatus == CFE_SUCCESS)
1434:/home/simulink/cFS_FreeRTOS_seL4/cfe/fsw/cfe-core/src/es/cfe_es_apps.c ****             {
1435:/home/simulink/cFS_FreeRTOS_seL4/cfe/fsw/cfe-core/src/es/cfe_es_apps.c ****                 /*
1436:/home/simulink/cFS_FreeRTOS_seL4/cfe/fsw/cfe-core/src/es/cfe_es_apps.c ****                  * Translate any OS failures into the appropriate CFE_ES return codes
1437:/home/simulink/cFS_FreeRTOS_seL4/cfe/fsw/cfe-core/src/es/cfe_es_apps.c ****                  * (Some object types have special return codes, depending on what type
1438:/home/simulink/cFS_FreeRTOS_seL4/cfe/fsw/cfe-core/src/es/cfe_es_apps.c ****                  * of object failed to delete)
1439:/home/simulink/cFS_FreeRTOS_seL4/cfe/fsw/cfe-core/src/es/cfe_es_apps.c ****                  */
1440:/home/simulink/cFS_FreeRTOS_seL4/cfe/fsw/cfe-core/src/es/cfe_es_apps.c ****                 switch(ObjType)
1441:/home/simulink/cFS_FreeRTOS_seL4/cfe/fsw/cfe-core/src/es/cfe_es_apps.c ****                 {
1442:/home/simulink/cFS_FreeRTOS_seL4/cfe/fsw/cfe-core/src/es/cfe_es_apps.c ****                 case OS_OBJECT_TYPE_OS_TASK:
1443:/home/simulink/cFS_FreeRTOS_seL4/cfe/fsw/cfe-core/src/es/cfe_es_apps.c ****                     CleanState->OverallStatus = CFE_ES_ERR_CHILD_TASK_DELETE;
1444:/home/simulink/cFS_FreeRTOS_seL4/cfe/fsw/cfe-core/src/es/cfe_es_apps.c ****                     break;
1445:/home/simulink/cFS_FreeRTOS_seL4/cfe/fsw/cfe-core/src/es/cfe_es_apps.c ****                 case OS_OBJECT_TYPE_OS_QUEUE:
1446:/home/simulink/cFS_FreeRTOS_seL4/cfe/fsw/cfe-core/src/es/cfe_es_apps.c ****                     CleanState->OverallStatus = CFE_ES_QUEUE_DELETE_ERR;
1447:/home/simulink/cFS_FreeRTOS_seL4/cfe/fsw/cfe-core/src/es/cfe_es_apps.c ****                     break;
1448:/home/simulink/cFS_FreeRTOS_seL4/cfe/fsw/cfe-core/src/es/cfe_es_apps.c ****                 case OS_OBJECT_TYPE_OS_BINSEM:
1449:/home/simulink/cFS_FreeRTOS_seL4/cfe/fsw/cfe-core/src/es/cfe_es_apps.c ****                     CleanState->OverallStatus = CFE_ES_BIN_SEM_DELETE_ERR;
1450:/home/simulink/cFS_FreeRTOS_seL4/cfe/fsw/cfe-core/src/es/cfe_es_apps.c ****                     break;
1451:/home/simulink/cFS_FreeRTOS_seL4/cfe/fsw/cfe-core/src/es/cfe_es_apps.c ****                 case OS_OBJECT_TYPE_OS_COUNTSEM:
1452:/home/simulink/cFS_FreeRTOS_seL4/cfe/fsw/cfe-core/src/es/cfe_es_apps.c ****                     CleanState->OverallStatus = CFE_ES_COUNT_SEM_DELETE_ERR;
1453:/home/simulink/cFS_FreeRTOS_seL4/cfe/fsw/cfe-core/src/es/cfe_es_apps.c ****                     break;
1454:/home/simulink/cFS_FreeRTOS_seL4/cfe/fsw/cfe-core/src/es/cfe_es_apps.c ****                 case OS_OBJECT_TYPE_OS_MUTEX:
1455:/home/simulink/cFS_FreeRTOS_seL4/cfe/fsw/cfe-core/src/es/cfe_es_apps.c ****                     CleanState->OverallStatus = CFE_ES_MUT_SEM_DELETE_ERR;
1456:/home/simulink/cFS_FreeRTOS_seL4/cfe/fsw/cfe-core/src/es/cfe_es_apps.c ****                     break;
1457:/home/simulink/cFS_FreeRTOS_seL4/cfe/fsw/cfe-core/src/es/cfe_es_apps.c ****                 case OS_OBJECT_TYPE_OS_TIMECB:
1458:/home/simulink/cFS_FreeRTOS_seL4/cfe/fsw/cfe-core/src/es/cfe_es_apps.c ****                     CleanState->OverallStatus = CFE_ES_TIMER_DELETE_ERR;
1459:/home/simulink/cFS_FreeRTOS_seL4/cfe/fsw/cfe-core/src/es/cfe_es_apps.c ****                     break;
68K GAS   			page 98


1460:/home/simulink/cFS_FreeRTOS_seL4/cfe/fsw/cfe-core/src/es/cfe_es_apps.c ****                 default:
1461:/home/simulink/cFS_FreeRTOS_seL4/cfe/fsw/cfe-core/src/es/cfe_es_apps.c ****                     /* generic failure */
1462:/home/simulink/cFS_FreeRTOS_seL4/cfe/fsw/cfe-core/src/es/cfe_es_apps.c ****                     CleanState->OverallStatus = CFE_ES_APP_CLEANUP_ERR;
1463:/home/simulink/cFS_FreeRTOS_seL4/cfe/fsw/cfe-core/src/es/cfe_es_apps.c ****                     break;
1464:/home/simulink/cFS_FreeRTOS_seL4/cfe/fsw/cfe-core/src/es/cfe_es_apps.c ****                 }
1465:/home/simulink/cFS_FreeRTOS_seL4/cfe/fsw/cfe-core/src/es/cfe_es_apps.c ****             }
1466:/home/simulink/cFS_FreeRTOS_seL4/cfe/fsw/cfe-core/src/es/cfe_es_apps.c ****         }
1467:/home/simulink/cFS_FreeRTOS_seL4/cfe/fsw/cfe-core/src/es/cfe_es_apps.c ****     }
1468:/home/simulink/cFS_FreeRTOS_seL4/cfe/fsw/cfe-core/src/es/cfe_es_apps.c **** }
1469:/home/simulink/cFS_FreeRTOS_seL4/cfe/fsw/cfe-core/src/es/cfe_es_apps.c **** 
1470:/home/simulink/cFS_FreeRTOS_seL4/cfe/fsw/cfe-core/src/es/cfe_es_apps.c **** /*
1471:/home/simulink/cFS_FreeRTOS_seL4/cfe/fsw/cfe-core/src/es/cfe_es_apps.c **** **---------------------------------------------------------------------------------------
1472:/home/simulink/cFS_FreeRTOS_seL4/cfe/fsw/cfe-core/src/es/cfe_es_apps.c **** **   Name: CFE_ES_CleanupTaskResources
1473:/home/simulink/cFS_FreeRTOS_seL4/cfe/fsw/cfe-core/src/es/cfe_es_apps.c **** **
1474:/home/simulink/cFS_FreeRTOS_seL4/cfe/fsw/cfe-core/src/es/cfe_es_apps.c **** **   Purpose: Clean up the OS resources associated with an individual Task
1475:/home/simulink/cFS_FreeRTOS_seL4/cfe/fsw/cfe-core/src/es/cfe_es_apps.c **** **---------------------------------------------------------------------------------------
1476:/home/simulink/cFS_FreeRTOS_seL4/cfe/fsw/cfe-core/src/es/cfe_es_apps.c **** */
1477:/home/simulink/cFS_FreeRTOS_seL4/cfe/fsw/cfe-core/src/es/cfe_es_apps.c **** int32 CFE_ES_CleanupTaskResources(uint32 TaskId)
1478:/home/simulink/cFS_FreeRTOS_seL4/cfe/fsw/cfe-core/src/es/cfe_es_apps.c **** {
1479:/home/simulink/cFS_FreeRTOS_seL4/cfe/fsw/cfe-core/src/es/cfe_es_apps.c ****     CFE_ES_CleanupState_t   CleanState;
1480:/home/simulink/cFS_FreeRTOS_seL4/cfe/fsw/cfe-core/src/es/cfe_es_apps.c ****     int32                   Result;
1481:/home/simulink/cFS_FreeRTOS_seL4/cfe/fsw/cfe-core/src/es/cfe_es_apps.c **** 
1482:/home/simulink/cFS_FreeRTOS_seL4/cfe/fsw/cfe-core/src/es/cfe_es_apps.c ****     /*
1483:/home/simulink/cFS_FreeRTOS_seL4/cfe/fsw/cfe-core/src/es/cfe_es_apps.c ****     ** Delete all OSAL resources that belong to this task
1484:/home/simulink/cFS_FreeRTOS_seL4/cfe/fsw/cfe-core/src/es/cfe_es_apps.c ****     */
1485:/home/simulink/cFS_FreeRTOS_seL4/cfe/fsw/cfe-core/src/es/cfe_es_apps.c ****     memset(&CleanState, 0, sizeof(CleanState));
1486:/home/simulink/cFS_FreeRTOS_seL4/cfe/fsw/cfe-core/src/es/cfe_es_apps.c ****     --CleanState.PrevFoundObjects;
1487:/home/simulink/cFS_FreeRTOS_seL4/cfe/fsw/cfe-core/src/es/cfe_es_apps.c ****     while (1)
1488:/home/simulink/cFS_FreeRTOS_seL4/cfe/fsw/cfe-core/src/es/cfe_es_apps.c ****     {
1489:/home/simulink/cFS_FreeRTOS_seL4/cfe/fsw/cfe-core/src/es/cfe_es_apps.c ****         OS_ForEachObject (TaskId, CFE_ES_CleanupObjectCallback, &CleanState);
1490:/home/simulink/cFS_FreeRTOS_seL4/cfe/fsw/cfe-core/src/es/cfe_es_apps.c ****         if (CleanState.FoundObjects == 0 || CleanState.ErrorFlag != 0)
1491:/home/simulink/cFS_FreeRTOS_seL4/cfe/fsw/cfe-core/src/es/cfe_es_apps.c ****         {
1492:/home/simulink/cFS_FreeRTOS_seL4/cfe/fsw/cfe-core/src/es/cfe_es_apps.c ****             break;
1493:/home/simulink/cFS_FreeRTOS_seL4/cfe/fsw/cfe-core/src/es/cfe_es_apps.c ****         }
1494:/home/simulink/cFS_FreeRTOS_seL4/cfe/fsw/cfe-core/src/es/cfe_es_apps.c ****         /*
1495:/home/simulink/cFS_FreeRTOS_seL4/cfe/fsw/cfe-core/src/es/cfe_es_apps.c ****          * The number of found objects should show a downward trend,
1496:/home/simulink/cFS_FreeRTOS_seL4/cfe/fsw/cfe-core/src/es/cfe_es_apps.c ****          * if not, then stop and do not loop here forever.  (This can
1497:/home/simulink/cFS_FreeRTOS_seL4/cfe/fsw/cfe-core/src/es/cfe_es_apps.c ****          * happen when using the UT stub functions, or if an object
1498:/home/simulink/cFS_FreeRTOS_seL4/cfe/fsw/cfe-core/src/es/cfe_es_apps.c ****          * cannot be fully deleted successfully).
1499:/home/simulink/cFS_FreeRTOS_seL4/cfe/fsw/cfe-core/src/es/cfe_es_apps.c ****          */
1500:/home/simulink/cFS_FreeRTOS_seL4/cfe/fsw/cfe-core/src/es/cfe_es_apps.c ****         CleanState.ErrorFlag = (CleanState.DeletedObjects == 0 ||
1501:/home/simulink/cFS_FreeRTOS_seL4/cfe/fsw/cfe-core/src/es/cfe_es_apps.c ****                 CleanState.FoundObjects >= CleanState.PrevFoundObjects);
1502:/home/simulink/cFS_FreeRTOS_seL4/cfe/fsw/cfe-core/src/es/cfe_es_apps.c ****         CleanState.PrevFoundObjects = CleanState.FoundObjects;
1503:/home/simulink/cFS_FreeRTOS_seL4/cfe/fsw/cfe-core/src/es/cfe_es_apps.c ****         CleanState.FoundObjects = 0;
1504:/home/simulink/cFS_FreeRTOS_seL4/cfe/fsw/cfe-core/src/es/cfe_es_apps.c ****         CleanState.DeletedObjects = 0;
1505:/home/simulink/cFS_FreeRTOS_seL4/cfe/fsw/cfe-core/src/es/cfe_es_apps.c ****     }
1506:/home/simulink/cFS_FreeRTOS_seL4/cfe/fsw/cfe-core/src/es/cfe_es_apps.c **** 
1507:/home/simulink/cFS_FreeRTOS_seL4/cfe/fsw/cfe-core/src/es/cfe_es_apps.c ****     /*
1508:/home/simulink/cFS_FreeRTOS_seL4/cfe/fsw/cfe-core/src/es/cfe_es_apps.c ****     ** Delete the task itself
1509:/home/simulink/cFS_FreeRTOS_seL4/cfe/fsw/cfe-core/src/es/cfe_es_apps.c ****     */
1510:/home/simulink/cFS_FreeRTOS_seL4/cfe/fsw/cfe-core/src/es/cfe_es_apps.c ****     Result = OS_TaskDelete(TaskId);
1511:/home/simulink/cFS_FreeRTOS_seL4/cfe/fsw/cfe-core/src/es/cfe_es_apps.c ****     if (Result == OS_SUCCESS)
1512:/home/simulink/cFS_FreeRTOS_seL4/cfe/fsw/cfe-core/src/es/cfe_es_apps.c ****     {
1513:/home/simulink/cFS_FreeRTOS_seL4/cfe/fsw/cfe-core/src/es/cfe_es_apps.c ****         Result = CleanState.OverallStatus;
1514:/home/simulink/cFS_FreeRTOS_seL4/cfe/fsw/cfe-core/src/es/cfe_es_apps.c ****         if (Result == CFE_SUCCESS && CleanState.FoundObjects > 0)
1515:/home/simulink/cFS_FreeRTOS_seL4/cfe/fsw/cfe-core/src/es/cfe_es_apps.c ****         {
1516:/home/simulink/cFS_FreeRTOS_seL4/cfe/fsw/cfe-core/src/es/cfe_es_apps.c ****             /* Objects leftover after cleanup -- resource leak */
68K GAS   			page 99


1517:/home/simulink/cFS_FreeRTOS_seL4/cfe/fsw/cfe-core/src/es/cfe_es_apps.c ****             Result = CFE_ES_APP_CLEANUP_ERR;
1518:/home/simulink/cFS_FreeRTOS_seL4/cfe/fsw/cfe-core/src/es/cfe_es_apps.c ****         }
1519:/home/simulink/cFS_FreeRTOS_seL4/cfe/fsw/cfe-core/src/es/cfe_es_apps.c ****     }
1520:/home/simulink/cFS_FreeRTOS_seL4/cfe/fsw/cfe-core/src/es/cfe_es_apps.c ****     else
1521:/home/simulink/cFS_FreeRTOS_seL4/cfe/fsw/cfe-core/src/es/cfe_es_apps.c ****     {
1522:/home/simulink/cFS_FreeRTOS_seL4/cfe/fsw/cfe-core/src/es/cfe_es_apps.c ****         Result = CFE_ES_TASK_DELETE_ERR;
1523:/home/simulink/cFS_FreeRTOS_seL4/cfe/fsw/cfe-core/src/es/cfe_es_apps.c ****     }
1524:/home/simulink/cFS_FreeRTOS_seL4/cfe/fsw/cfe-core/src/es/cfe_es_apps.c **** 
1525:/home/simulink/cFS_FreeRTOS_seL4/cfe/fsw/cfe-core/src/es/cfe_es_apps.c ****     /*
1526:/home/simulink/cFS_FreeRTOS_seL4/cfe/fsw/cfe-core/src/es/cfe_es_apps.c ****     ** Invalidate ES Task Table entry
1527:/home/simulink/cFS_FreeRTOS_seL4/cfe/fsw/cfe-core/src/es/cfe_es_apps.c ****     */
1528:/home/simulink/cFS_FreeRTOS_seL4/cfe/fsw/cfe-core/src/es/cfe_es_apps.c ****     if (OS_ConvertToArrayIndex(TaskId, &TaskId) == OS_SUCCESS)
1529:/home/simulink/cFS_FreeRTOS_seL4/cfe/fsw/cfe-core/src/es/cfe_es_apps.c ****     {
1530:/home/simulink/cFS_FreeRTOS_seL4/cfe/fsw/cfe-core/src/es/cfe_es_apps.c ****        CFE_ES_Global.TaskTable[TaskId].RecordUsed = FALSE;
1531:/home/simulink/cFS_FreeRTOS_seL4/cfe/fsw/cfe-core/src/es/cfe_es_apps.c ****     }
1532:/home/simulink/cFS_FreeRTOS_seL4/cfe/fsw/cfe-core/src/es/cfe_es_apps.c **** 
1533:/home/simulink/cFS_FreeRTOS_seL4/cfe/fsw/cfe-core/src/es/cfe_es_apps.c ****     CFE_ES_Global.RegisteredTasks--;
1534:/home/simulink/cFS_FreeRTOS_seL4/cfe/fsw/cfe-core/src/es/cfe_es_apps.c ****     return(Result);
1535:/home/simulink/cFS_FreeRTOS_seL4/cfe/fsw/cfe-core/src/es/cfe_es_apps.c **** 
1536:/home/simulink/cFS_FreeRTOS_seL4/cfe/fsw/cfe-core/src/es/cfe_es_apps.c **** }
1537:/home/simulink/cFS_FreeRTOS_seL4/cfe/fsw/cfe-core/src/es/cfe_es_apps.c **** 
1538:/home/simulink/cFS_FreeRTOS_seL4/cfe/fsw/cfe-core/src/es/cfe_es_apps.c **** /*
1539:/home/simulink/cFS_FreeRTOS_seL4/cfe/fsw/cfe-core/src/es/cfe_es_apps.c **** **---------------------------------------------------------------------------------------
1540:/home/simulink/cFS_FreeRTOS_seL4/cfe/fsw/cfe-core/src/es/cfe_es_apps.c **** **   Name: CFE_ES_CountObjectCallback
1541:/home/simulink/cFS_FreeRTOS_seL4/cfe/fsw/cfe-core/src/es/cfe_es_apps.c **** **
1542:/home/simulink/cFS_FreeRTOS_seL4/cfe/fsw/cfe-core/src/es/cfe_es_apps.c **** **   Purpose: Helper function for CFE_ES_ListResourcesDebug to count all objects.
1543:/home/simulink/cFS_FreeRTOS_seL4/cfe/fsw/cfe-core/src/es/cfe_es_apps.c **** **---------------------------------------------------------------------------------------
1544:/home/simulink/cFS_FreeRTOS_seL4/cfe/fsw/cfe-core/src/es/cfe_es_apps.c **** */
1545:/home/simulink/cFS_FreeRTOS_seL4/cfe/fsw/cfe-core/src/es/cfe_es_apps.c **** void CFE_ES_CountObjectCallback(uint32 ObjectId, void *arg)
1546:/home/simulink/cFS_FreeRTOS_seL4/cfe/fsw/cfe-core/src/es/cfe_es_apps.c **** {
1547:/home/simulink/cFS_FreeRTOS_seL4/cfe/fsw/cfe-core/src/es/cfe_es_apps.c ****     uint32                 *CountState;
1548:/home/simulink/cFS_FreeRTOS_seL4/cfe/fsw/cfe-core/src/es/cfe_es_apps.c ****     uint32                 idtype;
1549:/home/simulink/cFS_FreeRTOS_seL4/cfe/fsw/cfe-core/src/es/cfe_es_apps.c **** 
1550:/home/simulink/cFS_FreeRTOS_seL4/cfe/fsw/cfe-core/src/es/cfe_es_apps.c ****     CountState = (uint32 *)arg;
1551:/home/simulink/cFS_FreeRTOS_seL4/cfe/fsw/cfe-core/src/es/cfe_es_apps.c ****     idtype = OS_IdentifyObject(ObjectId);
1552:/home/simulink/cFS_FreeRTOS_seL4/cfe/fsw/cfe-core/src/es/cfe_es_apps.c ****     if (idtype < OS_OBJECT_TYPE_USER)
1553:/home/simulink/cFS_FreeRTOS_seL4/cfe/fsw/cfe-core/src/es/cfe_es_apps.c ****     {
1554:/home/simulink/cFS_FreeRTOS_seL4/cfe/fsw/cfe-core/src/es/cfe_es_apps.c ****         ++CountState[idtype];
1555:/home/simulink/cFS_FreeRTOS_seL4/cfe/fsw/cfe-core/src/es/cfe_es_apps.c ****     }
1556:/home/simulink/cFS_FreeRTOS_seL4/cfe/fsw/cfe-core/src/es/cfe_es_apps.c **** }
1557:/home/simulink/cFS_FreeRTOS_seL4/cfe/fsw/cfe-core/src/es/cfe_es_apps.c **** 
1558:/home/simulink/cFS_FreeRTOS_seL4/cfe/fsw/cfe-core/src/es/cfe_es_apps.c **** 
1559:/home/simulink/cFS_FreeRTOS_seL4/cfe/fsw/cfe-core/src/es/cfe_es_apps.c **** /*
1560:/home/simulink/cFS_FreeRTOS_seL4/cfe/fsw/cfe-core/src/es/cfe_es_apps.c **** **---------------------------------------------------------------------------------------
1561:/home/simulink/cFS_FreeRTOS_seL4/cfe/fsw/cfe-core/src/es/cfe_es_apps.c **** **   Name: CFE_ES_ListResourcesDebug
1562:/home/simulink/cFS_FreeRTOS_seL4/cfe/fsw/cfe-core/src/es/cfe_es_apps.c **** **
1563:/home/simulink/cFS_FreeRTOS_seL4/cfe/fsw/cfe-core/src/es/cfe_es_apps.c **** **   Purpose: List the resources.
1564:/home/simulink/cFS_FreeRTOS_seL4/cfe/fsw/cfe-core/src/es/cfe_es_apps.c **** **---------------------------------------------------------------------------------------
1565:/home/simulink/cFS_FreeRTOS_seL4/cfe/fsw/cfe-core/src/es/cfe_es_apps.c **** */
1566:/home/simulink/cFS_FreeRTOS_seL4/cfe/fsw/cfe-core/src/es/cfe_es_apps.c **** int32 CFE_ES_ListResourcesDebug(void)
1567:/home/simulink/cFS_FreeRTOS_seL4/cfe/fsw/cfe-core/src/es/cfe_es_apps.c **** {
1568:/home/simulink/cFS_FreeRTOS_seL4/cfe/fsw/cfe-core/src/es/cfe_es_apps.c ****     uint32   CountState[OS_OBJECT_TYPE_USER];
1569:/home/simulink/cFS_FreeRTOS_seL4/cfe/fsw/cfe-core/src/es/cfe_es_apps.c **** 
1570:/home/simulink/cFS_FreeRTOS_seL4/cfe/fsw/cfe-core/src/es/cfe_es_apps.c ****     memset(CountState,0,sizeof(CountState));
1571:/home/simulink/cFS_FreeRTOS_seL4/cfe/fsw/cfe-core/src/es/cfe_es_apps.c ****     OS_ForEachObject (0, CFE_ES_CountObjectCallback, CountState);
1572:/home/simulink/cFS_FreeRTOS_seL4/cfe/fsw/cfe-core/src/es/cfe_es_apps.c **** 
1573:/home/simulink/cFS_FreeRTOS_seL4/cfe/fsw/cfe-core/src/es/cfe_es_apps.c ****     OS_printf("OS Resources in Use:\n");
68K GAS   			page 100


1574:/home/simulink/cFS_FreeRTOS_seL4/cfe/fsw/cfe-core/src/es/cfe_es_apps.c ****     OS_printf("Number of Tasks: %d\n", (int) CountState[OS_OBJECT_TYPE_OS_TASK]);
1575:/home/simulink/cFS_FreeRTOS_seL4/cfe/fsw/cfe-core/src/es/cfe_es_apps.c ****     OS_printf("Number of Queues: %d\n", (int) CountState[OS_OBJECT_TYPE_OS_QUEUE]);
1576:/home/simulink/cFS_FreeRTOS_seL4/cfe/fsw/cfe-core/src/es/cfe_es_apps.c ****     OS_printf("Number of Counting Semaphores: %d\n",(int) CountState[OS_OBJECT_TYPE_OS_COUNTSEM]);
1577:/home/simulink/cFS_FreeRTOS_seL4/cfe/fsw/cfe-core/src/es/cfe_es_apps.c ****     OS_printf("Number of Binary Semaphores: %d\n",(int) CountState[OS_OBJECT_TYPE_OS_BINSEM]);
1578:/home/simulink/cFS_FreeRTOS_seL4/cfe/fsw/cfe-core/src/es/cfe_es_apps.c ****     OS_printf("Number of Mutexes: %d\n", (int) CountState[OS_OBJECT_TYPE_OS_MUTEX]);
1579:/home/simulink/cFS_FreeRTOS_seL4/cfe/fsw/cfe-core/src/es/cfe_es_apps.c ****     OS_printf("Number of Open Files: %d\n",(int) CountState[OS_OBJECT_TYPE_OS_STREAM]);
1580:/home/simulink/cFS_FreeRTOS_seL4/cfe/fsw/cfe-core/src/es/cfe_es_apps.c **** 
1581:/home/simulink/cFS_FreeRTOS_seL4/cfe/fsw/cfe-core/src/es/cfe_es_apps.c ****     return CFE_SUCCESS;
1582:/home/simulink/cFS_FreeRTOS_seL4/cfe/fsw/cfe-core/src/es/cfe_es_apps.c **** 
1583:/home/simulink/cFS_FreeRTOS_seL4/cfe/fsw/cfe-core/src/es/cfe_es_apps.c **** }
1584:/home/simulink/cFS_FreeRTOS_seL4/cfe/fsw/cfe-core/src/es/cfe_es_apps.c **** 
1585:/home/simulink/cFS_FreeRTOS_seL4/cfe/fsw/cfe-core/src/es/cfe_es_apps.c **** 
1586:/home/simulink/cFS_FreeRTOS_seL4/cfe/fsw/cfe-core/src/es/cfe_es_apps.c **** #else  /* Implementation for old versions of OSAL where object IDs are always zero based */
1587:/home/simulink/cFS_FreeRTOS_seL4/cfe/fsw/cfe-core/src/es/cfe_es_apps.c **** 
1588:/home/simulink/cFS_FreeRTOS_seL4/cfe/fsw/cfe-core/src/es/cfe_es_apps.c **** 
1589:/home/simulink/cFS_FreeRTOS_seL4/cfe/fsw/cfe-core/src/es/cfe_es_apps.c **** /*
1590:/home/simulink/cFS_FreeRTOS_seL4/cfe/fsw/cfe-core/src/es/cfe_es_apps.c **** **---------------------------------------------------------------------------------------
1591:/home/simulink/cFS_FreeRTOS_seL4/cfe/fsw/cfe-core/src/es/cfe_es_apps.c **** **   Name: CFE_ES_CleanupTaskResources
1592:/home/simulink/cFS_FreeRTOS_seL4/cfe/fsw/cfe-core/src/es/cfe_es_apps.c **** **
1593:/home/simulink/cFS_FreeRTOS_seL4/cfe/fsw/cfe-core/src/es/cfe_es_apps.c **** **   Purpose: Clean up the OS resources associated with an individual Task
1594:/home/simulink/cFS_FreeRTOS_seL4/cfe/fsw/cfe-core/src/es/cfe_es_apps.c **** **---------------------------------------------------------------------------------------
1595:/home/simulink/cFS_FreeRTOS_seL4/cfe/fsw/cfe-core/src/es/cfe_es_apps.c **** */
1596:/home/simulink/cFS_FreeRTOS_seL4/cfe/fsw/cfe-core/src/es/cfe_es_apps.c **** int32 CFE_ES_CleanupTaskResources(uint32 TaskId)
1597:/home/simulink/cFS_FreeRTOS_seL4/cfe/fsw/cfe-core/src/es/cfe_es_apps.c **** {
 2924               	.loc 2 1597 0
 2925               	.cfi_startproc
 2926 19b8 4FEF FF1C 	lea (-228,%sp),%sp
 2927               	.cfi_def_cfa_offset 232
1598:/home/simulink/cFS_FreeRTOS_seL4/cfe/fsw/cfe-core/src/es/cfe_es_apps.c ****     OS_queue_prop_t         QueueProp;
1599:/home/simulink/cFS_FreeRTOS_seL4/cfe/fsw/cfe-core/src/es/cfe_es_apps.c ****     OS_timer_prop_t         TimerProp;
1600:/home/simulink/cFS_FreeRTOS_seL4/cfe/fsw/cfe-core/src/es/cfe_es_apps.c ****     OS_bin_sem_prop_t       SemProp;
1601:/home/simulink/cFS_FreeRTOS_seL4/cfe/fsw/cfe-core/src/es/cfe_es_apps.c ****     OS_count_sem_prop_t     CountSemProp;
1602:/home/simulink/cFS_FreeRTOS_seL4/cfe/fsw/cfe-core/src/es/cfe_es_apps.c ****     OS_mut_sem_prop_t       MutProp;
1603:/home/simulink/cFS_FreeRTOS_seL4/cfe/fsw/cfe-core/src/es/cfe_es_apps.c ****     OS_FDTableEntry         FileProp;
1604:/home/simulink/cFS_FreeRTOS_seL4/cfe/fsw/cfe-core/src/es/cfe_es_apps.c ****     
1605:/home/simulink/cFS_FreeRTOS_seL4/cfe/fsw/cfe-core/src/es/cfe_es_apps.c ****     int32                   Status;
1606:/home/simulink/cFS_FreeRTOS_seL4/cfe/fsw/cfe-core/src/es/cfe_es_apps.c ****     
1607:/home/simulink/cFS_FreeRTOS_seL4/cfe/fsw/cfe-core/src/es/cfe_es_apps.c ****     int32 Result = CFE_SUCCESS;
 2928               	.loc 2 1607 0
 2929 19bc 42AF 00E0 	clr.l 224(%sp)
1608:/home/simulink/cFS_FreeRTOS_seL4/cfe/fsw/cfe-core/src/es/cfe_es_apps.c ****     uint32 i;
1609:/home/simulink/cFS_FreeRTOS_seL4/cfe/fsw/cfe-core/src/es/cfe_es_apps.c **** 
1610:/home/simulink/cFS_FreeRTOS_seL4/cfe/fsw/cfe-core/src/es/cfe_es_apps.c ****     /*
1611:/home/simulink/cFS_FreeRTOS_seL4/cfe/fsw/cfe-core/src/es/cfe_es_apps.c ****     ** Delete Mutexes that belong to this task
1612:/home/simulink/cFS_FreeRTOS_seL4/cfe/fsw/cfe-core/src/es/cfe_es_apps.c ****     */
1613:/home/simulink/cFS_FreeRTOS_seL4/cfe/fsw/cfe-core/src/es/cfe_es_apps.c ****     for ( i= 0; i < OS_MAX_MUTEXES; i++)
 2930               	.loc 2 1613 0
 2931 19c0 42AF 00DC 	clr.l 220(%sp)
 2932 19c4 6064      	jra .L118
 2933               	.L120:
1614:/home/simulink/cFS_FreeRTOS_seL4/cfe/fsw/cfe-core/src/es/cfe_es_apps.c ****     {
1615:/home/simulink/cFS_FreeRTOS_seL4/cfe/fsw/cfe-core/src/es/cfe_es_apps.c ****         if (OS_MutSemGetInfo(i, &MutProp) == OS_SUCCESS)
 2934               	.loc 2 1615 0
 2935 19c6 200F      	move.l %sp,%d0
 2936 19c8 0680 0000 	add.l #76,%d0
 2936      004C 
 2937 19ce 2F00      	move.l %d0,-(%sp)
68K GAS   			page 101


 2938               	.cfi_def_cfa_offset 236
 2939 19d0 2F2F 00E0 	move.l 224(%sp),-(%sp)
 2940               	.cfi_def_cfa_offset 240
 2941 19d4 4EB9 0000 	jsr OS_MutSemGetInfo
 2941      0000 
 2942 19da 508F      	addq.l #8,%sp
 2943               	.cfi_def_cfa_offset 232
 2944 19dc 4A80      	tst.l %d0
 2945 19de 6646      	jne .L119
1616:/home/simulink/cFS_FreeRTOS_seL4/cfe/fsw/cfe-core/src/es/cfe_es_apps.c ****         {
1617:/home/simulink/cFS_FreeRTOS_seL4/cfe/fsw/cfe-core/src/es/cfe_es_apps.c ****             if ( MutProp.creator == TaskId )
 2946               	.loc 2 1617 0
 2947 19e0 202F 0060 	move.l 96(%sp),%d0
 2948 19e4 B0AF 00E8 	cmp.l 232(%sp),%d0
 2949 19e8 663C      	jne .L119
1618:/home/simulink/cFS_FreeRTOS_seL4/cfe/fsw/cfe-core/src/es/cfe_es_apps.c ****             {
1619:/home/simulink/cFS_FreeRTOS_seL4/cfe/fsw/cfe-core/src/es/cfe_es_apps.c ****                #ifdef ES_APP_DEBUG   
1620:/home/simulink/cFS_FreeRTOS_seL4/cfe/fsw/cfe-core/src/es/cfe_es_apps.c ****                  OS_printf("Found a Mutex that belongs to Task %d\n", TaskId);
1621:/home/simulink/cFS_FreeRTOS_seL4/cfe/fsw/cfe-core/src/es/cfe_es_apps.c ****                #endif
1622:/home/simulink/cFS_FreeRTOS_seL4/cfe/fsw/cfe-core/src/es/cfe_es_apps.c ****                
1623:/home/simulink/cFS_FreeRTOS_seL4/cfe/fsw/cfe-core/src/es/cfe_es_apps.c ****                /*
1624:/home/simulink/cFS_FreeRTOS_seL4/cfe/fsw/cfe-core/src/es/cfe_es_apps.c ****                ** Delete it
1625:/home/simulink/cFS_FreeRTOS_seL4/cfe/fsw/cfe-core/src/es/cfe_es_apps.c ****                */
1626:/home/simulink/cFS_FreeRTOS_seL4/cfe/fsw/cfe-core/src/es/cfe_es_apps.c ****                Status = OS_MutSemDelete(i);
 2950               	.loc 2 1626 0
 2951 19ea 2F2F 00DC 	move.l 220(%sp),-(%sp)
 2952               	.cfi_def_cfa_offset 236
 2953 19ee 4EB9 0000 	jsr OS_MutSemDelete
 2953      0000 
 2954 19f4 588F      	addq.l #4,%sp
 2955               	.cfi_def_cfa_offset 232
 2956 19f6 2F40 00D8 	move.l %d0,216(%sp)
1627:/home/simulink/cFS_FreeRTOS_seL4/cfe/fsw/cfe-core/src/es/cfe_es_apps.c ****                if ( Status != OS_SUCCESS )
 2957               	.loc 2 1627 0
 2958 19fa 4AAF 00D8 	tst.l 216(%sp)
 2959 19fe 6726      	jeq .L119
1628:/home/simulink/cFS_FreeRTOS_seL4/cfe/fsw/cfe-core/src/es/cfe_es_apps.c ****                {
1629:/home/simulink/cFS_FreeRTOS_seL4/cfe/fsw/cfe-core/src/es/cfe_es_apps.c ****                   CFE_ES_WriteToSysLog("Call to OS_MutSemDelete (ID:%d) failed. RC=0x%08X\n",
 2960               	.loc 2 1629 0
 2961 1a00 222F 00D8 	move.l 216(%sp),%d1
 2962 1a04 202F 00DC 	move.l 220(%sp),%d0
 2963 1a08 2F01      	move.l %d1,-(%sp)
 2964               	.cfi_def_cfa_offset 236
 2965 1a0a 2F00      	move.l %d0,-(%sp)
 2966               	.cfi_def_cfa_offset 240
 2967 1a0c 4879 0000 	pea .LC48
 2967      0000 
 2968               	.cfi_def_cfa_offset 244
 2969 1a12 4EB9 0000 	jsr CFE_ES_WriteToSysLog
 2969      0000 
 2970 1a18 4FEF 000C 	lea (12,%sp),%sp
 2971               	.cfi_def_cfa_offset 232
1630:/home/simulink/cFS_FreeRTOS_seL4/cfe/fsw/cfe-core/src/es/cfe_es_apps.c ****                         (int)i, (unsigned int)Status);
1631:/home/simulink/cFS_FreeRTOS_seL4/cfe/fsw/cfe-core/src/es/cfe_es_apps.c ****                   Result = CFE_ES_MUT_SEM_DELETE_ERR;
 2972               	.loc 2 1631 0
 2973 1a1c 203C C400 	move.l #-1006632933,%d0
 2973      001B 
68K GAS   			page 102


 2974 1a22 2F40 00E0 	move.l %d0,224(%sp)
 2975               	.L119:
1613:/home/simulink/cFS_FreeRTOS_seL4/cfe/fsw/cfe-core/src/es/cfe_es_apps.c ****     {
 2976               	.loc 2 1613 0 discriminator 2
 2977 1a26 52AF 00DC 	addq.l #1,220(%sp)
 2978               	.L118:
1613:/home/simulink/cFS_FreeRTOS_seL4/cfe/fsw/cfe-core/src/es/cfe_es_apps.c ****     {
 2979               	.loc 2 1613 0 is_stmt 0 discriminator 1
 2980 1a2a 7213      	moveq #19,%d1
 2981 1a2c B2AF 00DC 	cmp.l 220(%sp),%d1
 2982 1a30 6494      	jcc .L120
1632:/home/simulink/cFS_FreeRTOS_seL4/cfe/fsw/cfe-core/src/es/cfe_es_apps.c ****                }
1633:/home/simulink/cFS_FreeRTOS_seL4/cfe/fsw/cfe-core/src/es/cfe_es_apps.c ****                
1634:/home/simulink/cFS_FreeRTOS_seL4/cfe/fsw/cfe-core/src/es/cfe_es_apps.c ****             }            
1635:/home/simulink/cFS_FreeRTOS_seL4/cfe/fsw/cfe-core/src/es/cfe_es_apps.c ****         }
1636:/home/simulink/cFS_FreeRTOS_seL4/cfe/fsw/cfe-core/src/es/cfe_es_apps.c ****     }
1637:/home/simulink/cFS_FreeRTOS_seL4/cfe/fsw/cfe-core/src/es/cfe_es_apps.c **** 
1638:/home/simulink/cFS_FreeRTOS_seL4/cfe/fsw/cfe-core/src/es/cfe_es_apps.c ****     /*
1639:/home/simulink/cFS_FreeRTOS_seL4/cfe/fsw/cfe-core/src/es/cfe_es_apps.c ****     ** Delete Binary Semaphores that belong to this task
1640:/home/simulink/cFS_FreeRTOS_seL4/cfe/fsw/cfe-core/src/es/cfe_es_apps.c ****     */
1641:/home/simulink/cFS_FreeRTOS_seL4/cfe/fsw/cfe-core/src/es/cfe_es_apps.c ****     for ( i= 0; i < OS_MAX_BIN_SEMAPHORES; i++)
 2983               	.loc 2 1641 0 is_stmt 1
 2984 1a32 42AF 00DC 	clr.l 220(%sp)
 2985 1a36 6064      	jra .L121
 2986               	.L123:
1642:/home/simulink/cFS_FreeRTOS_seL4/cfe/fsw/cfe-core/src/es/cfe_es_apps.c ****     {
1643:/home/simulink/cFS_FreeRTOS_seL4/cfe/fsw/cfe-core/src/es/cfe_es_apps.c ****         if (OS_BinSemGetInfo(i, &SemProp) == OS_SUCCESS)
 2987               	.loc 2 1643 0
 2988 1a38 200F      	move.l %sp,%d0
 2989 1a3a 0680 0000 	add.l #128,%d0
 2989      0080 
 2990 1a40 2F00      	move.l %d0,-(%sp)
 2991               	.cfi_def_cfa_offset 236
 2992 1a42 2F2F 00E0 	move.l 224(%sp),-(%sp)
 2993               	.cfi_def_cfa_offset 240
 2994 1a46 4EB9 0000 	jsr OS_BinSemGetInfo
 2994      0000 
 2995 1a4c 508F      	addq.l #8,%sp
 2996               	.cfi_def_cfa_offset 232
 2997 1a4e 4A80      	tst.l %d0
 2998 1a50 6646      	jne .L122
1644:/home/simulink/cFS_FreeRTOS_seL4/cfe/fsw/cfe-core/src/es/cfe_es_apps.c ****         {
1645:/home/simulink/cFS_FreeRTOS_seL4/cfe/fsw/cfe-core/src/es/cfe_es_apps.c ****            if(SemProp.creator == TaskId )
 2999               	.loc 2 1645 0
 3000 1a52 202F 0094 	move.l 148(%sp),%d0
 3001 1a56 B0AF 00E8 	cmp.l 232(%sp),%d0
 3002 1a5a 663C      	jne .L122
1646:/home/simulink/cFS_FreeRTOS_seL4/cfe/fsw/cfe-core/src/es/cfe_es_apps.c ****            {
1647:/home/simulink/cFS_FreeRTOS_seL4/cfe/fsw/cfe-core/src/es/cfe_es_apps.c ****                #ifdef ES_APP_DEBUG   
1648:/home/simulink/cFS_FreeRTOS_seL4/cfe/fsw/cfe-core/src/es/cfe_es_apps.c ****                  OS_printf("Found a Bin Semaphore that belongs to Task %d\n", TaskId);
1649:/home/simulink/cFS_FreeRTOS_seL4/cfe/fsw/cfe-core/src/es/cfe_es_apps.c ****                #endif
1650:/home/simulink/cFS_FreeRTOS_seL4/cfe/fsw/cfe-core/src/es/cfe_es_apps.c ****               /*
1651:/home/simulink/cFS_FreeRTOS_seL4/cfe/fsw/cfe-core/src/es/cfe_es_apps.c ****               ** Delete it
1652:/home/simulink/cFS_FreeRTOS_seL4/cfe/fsw/cfe-core/src/es/cfe_es_apps.c ****               */
1653:/home/simulink/cFS_FreeRTOS_seL4/cfe/fsw/cfe-core/src/es/cfe_es_apps.c ****               Status = OS_BinSemDelete(i);
 3003               	.loc 2 1653 0
 3004 1a5c 2F2F 00DC 	move.l 220(%sp),-(%sp)
68K GAS   			page 103


 3005               	.cfi_def_cfa_offset 236
 3006 1a60 4EB9 0000 	jsr OS_BinSemDelete
 3006      0000 
 3007 1a66 588F      	addq.l #4,%sp
 3008               	.cfi_def_cfa_offset 232
 3009 1a68 2F40 00D8 	move.l %d0,216(%sp)
1654:/home/simulink/cFS_FreeRTOS_seL4/cfe/fsw/cfe-core/src/es/cfe_es_apps.c ****                if ( Status != OS_SUCCESS )
 3010               	.loc 2 1654 0
 3011 1a6c 4AAF 00D8 	tst.l 216(%sp)
 3012 1a70 6726      	jeq .L122
1655:/home/simulink/cFS_FreeRTOS_seL4/cfe/fsw/cfe-core/src/es/cfe_es_apps.c ****                {
1656:/home/simulink/cFS_FreeRTOS_seL4/cfe/fsw/cfe-core/src/es/cfe_es_apps.c ****                   CFE_ES_WriteToSysLog("Call to OS_BinSemDelete (ID:%d) failed. RC=0x%08X\n",
 3013               	.loc 2 1656 0
 3014 1a72 222F 00D8 	move.l 216(%sp),%d1
 3015 1a76 202F 00DC 	move.l 220(%sp),%d0
 3016 1a7a 2F01      	move.l %d1,-(%sp)
 3017               	.cfi_def_cfa_offset 236
 3018 1a7c 2F00      	move.l %d0,-(%sp)
 3019               	.cfi_def_cfa_offset 240
 3020 1a7e 4879 0000 	pea .LC49
 3020      0000 
 3021               	.cfi_def_cfa_offset 244
 3022 1a84 4EB9 0000 	jsr CFE_ES_WriteToSysLog
 3022      0000 
 3023 1a8a 4FEF 000C 	lea (12,%sp),%sp
 3024               	.cfi_def_cfa_offset 232
1657:/home/simulink/cFS_FreeRTOS_seL4/cfe/fsw/cfe-core/src/es/cfe_es_apps.c ****                         (int)i, (unsigned int)Status);
1658:/home/simulink/cFS_FreeRTOS_seL4/cfe/fsw/cfe-core/src/es/cfe_es_apps.c ****                   Result = CFE_ES_BIN_SEM_DELETE_ERR;
 3025               	.loc 2 1658 0
 3026 1a8e 203C C400 	move.l #-1006632932,%d0
 3026      001C 
 3027 1a94 2F40 00E0 	move.l %d0,224(%sp)
 3028               	.L122:
1641:/home/simulink/cFS_FreeRTOS_seL4/cfe/fsw/cfe-core/src/es/cfe_es_apps.c ****     {
 3029               	.loc 2 1641 0 discriminator 2
 3030 1a98 52AF 00DC 	addq.l #1,220(%sp)
 3031               	.L121:
1641:/home/simulink/cFS_FreeRTOS_seL4/cfe/fsw/cfe-core/src/es/cfe_es_apps.c ****     {
 3032               	.loc 2 1641 0 is_stmt 0 discriminator 1
 3033 1a9c 7213      	moveq #19,%d1
 3034 1a9e B2AF 00DC 	cmp.l 220(%sp),%d1
 3035 1aa2 6494      	jcc .L123
1659:/home/simulink/cFS_FreeRTOS_seL4/cfe/fsw/cfe-core/src/es/cfe_es_apps.c **** 
1660:/home/simulink/cFS_FreeRTOS_seL4/cfe/fsw/cfe-core/src/es/cfe_es_apps.c ****                }
1661:/home/simulink/cFS_FreeRTOS_seL4/cfe/fsw/cfe-core/src/es/cfe_es_apps.c **** 
1662:/home/simulink/cFS_FreeRTOS_seL4/cfe/fsw/cfe-core/src/es/cfe_es_apps.c ****            }
1663:/home/simulink/cFS_FreeRTOS_seL4/cfe/fsw/cfe-core/src/es/cfe_es_apps.c ****          
1664:/home/simulink/cFS_FreeRTOS_seL4/cfe/fsw/cfe-core/src/es/cfe_es_apps.c ****         }
1665:/home/simulink/cFS_FreeRTOS_seL4/cfe/fsw/cfe-core/src/es/cfe_es_apps.c ****     }
1666:/home/simulink/cFS_FreeRTOS_seL4/cfe/fsw/cfe-core/src/es/cfe_es_apps.c **** 
1667:/home/simulink/cFS_FreeRTOS_seL4/cfe/fsw/cfe-core/src/es/cfe_es_apps.c ****     /*
1668:/home/simulink/cFS_FreeRTOS_seL4/cfe/fsw/cfe-core/src/es/cfe_es_apps.c ****     ** Delete Counting Semaphores that belong to this task
1669:/home/simulink/cFS_FreeRTOS_seL4/cfe/fsw/cfe-core/src/es/cfe_es_apps.c ****     */
1670:/home/simulink/cFS_FreeRTOS_seL4/cfe/fsw/cfe-core/src/es/cfe_es_apps.c ****     for ( i= 0; i < OS_MAX_COUNT_SEMAPHORES; i++)
 3036               	.loc 2 1670 0 is_stmt 1
 3037 1aa4 42AF 00DC 	clr.l 220(%sp)
 3038 1aa8 6064      	jra .L124
68K GAS   			page 104


 3039               	.L126:
1671:/home/simulink/cFS_FreeRTOS_seL4/cfe/fsw/cfe-core/src/es/cfe_es_apps.c ****     {
1672:/home/simulink/cFS_FreeRTOS_seL4/cfe/fsw/cfe-core/src/es/cfe_es_apps.c ****        if (OS_CountSemGetInfo(i, &CountSemProp) == OS_SUCCESS)
 3040               	.loc 2 1672 0
 3041 1aaa 200F      	move.l %sp,%d0
 3042 1aac 0680 0000 	add.l #100,%d0
 3042      0064 
 3043 1ab2 2F00      	move.l %d0,-(%sp)
 3044               	.cfi_def_cfa_offset 236
 3045 1ab4 2F2F 00E0 	move.l 224(%sp),-(%sp)
 3046               	.cfi_def_cfa_offset 240
 3047 1ab8 4EB9 0000 	jsr OS_CountSemGetInfo
 3047      0000 
 3048 1abe 508F      	addq.l #8,%sp
 3049               	.cfi_def_cfa_offset 232
 3050 1ac0 4A80      	tst.l %d0
 3051 1ac2 6646      	jne .L125
1673:/home/simulink/cFS_FreeRTOS_seL4/cfe/fsw/cfe-core/src/es/cfe_es_apps.c ****         {
1674:/home/simulink/cFS_FreeRTOS_seL4/cfe/fsw/cfe-core/src/es/cfe_es_apps.c ****            if(CountSemProp.creator == TaskId )
 3052               	.loc 2 1674 0
 3053 1ac4 202F 0078 	move.l 120(%sp),%d0
 3054 1ac8 B0AF 00E8 	cmp.l 232(%sp),%d0
 3055 1acc 663C      	jne .L125
1675:/home/simulink/cFS_FreeRTOS_seL4/cfe/fsw/cfe-core/src/es/cfe_es_apps.c ****            {
1676:/home/simulink/cFS_FreeRTOS_seL4/cfe/fsw/cfe-core/src/es/cfe_es_apps.c ****                #ifdef ES_APP_DEBUG   
1677:/home/simulink/cFS_FreeRTOS_seL4/cfe/fsw/cfe-core/src/es/cfe_es_apps.c ****                  OS_printf("Found a Counting Semaphore that belongs to Task %d\n", TaskId);
1678:/home/simulink/cFS_FreeRTOS_seL4/cfe/fsw/cfe-core/src/es/cfe_es_apps.c ****                #endif
1679:/home/simulink/cFS_FreeRTOS_seL4/cfe/fsw/cfe-core/src/es/cfe_es_apps.c ****               /*
1680:/home/simulink/cFS_FreeRTOS_seL4/cfe/fsw/cfe-core/src/es/cfe_es_apps.c ****               ** Delete it
1681:/home/simulink/cFS_FreeRTOS_seL4/cfe/fsw/cfe-core/src/es/cfe_es_apps.c ****               */
1682:/home/simulink/cFS_FreeRTOS_seL4/cfe/fsw/cfe-core/src/es/cfe_es_apps.c ****               Status = OS_CountSemDelete(i);
 3056               	.loc 2 1682 0
 3057 1ace 2F2F 00DC 	move.l 220(%sp),-(%sp)
 3058               	.cfi_def_cfa_offset 236
 3059 1ad2 4EB9 0000 	jsr OS_CountSemDelete
 3059      0000 
 3060 1ad8 588F      	addq.l #4,%sp
 3061               	.cfi_def_cfa_offset 232
 3062 1ada 2F40 00D8 	move.l %d0,216(%sp)
1683:/home/simulink/cFS_FreeRTOS_seL4/cfe/fsw/cfe-core/src/es/cfe_es_apps.c ****                if ( Status != OS_SUCCESS )
 3063               	.loc 2 1683 0
 3064 1ade 4AAF 00D8 	tst.l 216(%sp)
 3065 1ae2 6726      	jeq .L125
1684:/home/simulink/cFS_FreeRTOS_seL4/cfe/fsw/cfe-core/src/es/cfe_es_apps.c ****                {
1685:/home/simulink/cFS_FreeRTOS_seL4/cfe/fsw/cfe-core/src/es/cfe_es_apps.c ****                   CFE_ES_WriteToSysLog("Call to OS_CountSemDelete (ID:%d) failed. RC=0x%08X\n",
 3066               	.loc 2 1685 0
 3067 1ae4 222F 00D8 	move.l 216(%sp),%d1
 3068 1ae8 202F 00DC 	move.l 220(%sp),%d0
 3069 1aec 2F01      	move.l %d1,-(%sp)
 3070               	.cfi_def_cfa_offset 236
 3071 1aee 2F00      	move.l %d0,-(%sp)
 3072               	.cfi_def_cfa_offset 240
 3073 1af0 4879 0000 	pea .LC50
 3073      0000 
 3074               	.cfi_def_cfa_offset 244
 3075 1af6 4EB9 0000 	jsr CFE_ES_WriteToSysLog
 3075      0000 
68K GAS   			page 105


 3076 1afc 4FEF 000C 	lea (12,%sp),%sp
 3077               	.cfi_def_cfa_offset 232
1686:/home/simulink/cFS_FreeRTOS_seL4/cfe/fsw/cfe-core/src/es/cfe_es_apps.c ****                         (int)i, (unsigned int)Status);
1687:/home/simulink/cFS_FreeRTOS_seL4/cfe/fsw/cfe-core/src/es/cfe_es_apps.c ****                   Result = CFE_ES_COUNT_SEM_DELETE_ERR;
 3078               	.loc 2 1687 0
 3079 1b00 203C C400 	move.l #-1006632931,%d0
 3079      001D 
 3080 1b06 2F40 00E0 	move.l %d0,224(%sp)
 3081               	.L125:
1670:/home/simulink/cFS_FreeRTOS_seL4/cfe/fsw/cfe-core/src/es/cfe_es_apps.c ****     {
 3082               	.loc 2 1670 0 discriminator 2
 3083 1b0a 52AF 00DC 	addq.l #1,220(%sp)
 3084               	.L124:
1670:/home/simulink/cFS_FreeRTOS_seL4/cfe/fsw/cfe-core/src/es/cfe_es_apps.c ****     {
 3085               	.loc 2 1670 0 is_stmt 0 discriminator 1
 3086 1b0e 7213      	moveq #19,%d1
 3087 1b10 B2AF 00DC 	cmp.l 220(%sp),%d1
 3088 1b14 6494      	jcc .L126
1688:/home/simulink/cFS_FreeRTOS_seL4/cfe/fsw/cfe-core/src/es/cfe_es_apps.c **** 
1689:/home/simulink/cFS_FreeRTOS_seL4/cfe/fsw/cfe-core/src/es/cfe_es_apps.c ****                }
1690:/home/simulink/cFS_FreeRTOS_seL4/cfe/fsw/cfe-core/src/es/cfe_es_apps.c **** 
1691:/home/simulink/cFS_FreeRTOS_seL4/cfe/fsw/cfe-core/src/es/cfe_es_apps.c ****            }
1692:/home/simulink/cFS_FreeRTOS_seL4/cfe/fsw/cfe-core/src/es/cfe_es_apps.c ****         }
1693:/home/simulink/cFS_FreeRTOS_seL4/cfe/fsw/cfe-core/src/es/cfe_es_apps.c ****     }
1694:/home/simulink/cFS_FreeRTOS_seL4/cfe/fsw/cfe-core/src/es/cfe_es_apps.c **** 
1695:/home/simulink/cFS_FreeRTOS_seL4/cfe/fsw/cfe-core/src/es/cfe_es_apps.c **** 
1696:/home/simulink/cFS_FreeRTOS_seL4/cfe/fsw/cfe-core/src/es/cfe_es_apps.c ****     /*
1697:/home/simulink/cFS_FreeRTOS_seL4/cfe/fsw/cfe-core/src/es/cfe_es_apps.c ****     ** Delete Queues that belong to this task
1698:/home/simulink/cFS_FreeRTOS_seL4/cfe/fsw/cfe-core/src/es/cfe_es_apps.c ****     */
1699:/home/simulink/cFS_FreeRTOS_seL4/cfe/fsw/cfe-core/src/es/cfe_es_apps.c ****     for ( i= 0; i < OS_MAX_QUEUES; i++)
 3089               	.loc 2 1699 0 is_stmt 1
 3090 1b16 42AF 00DC 	clr.l 220(%sp)
 3091 1b1a 6066      	jra .L127
 3092               	.L129:
1700:/home/simulink/cFS_FreeRTOS_seL4/cfe/fsw/cfe-core/src/es/cfe_es_apps.c ****     {
1701:/home/simulink/cFS_FreeRTOS_seL4/cfe/fsw/cfe-core/src/es/cfe_es_apps.c ****         if (OS_QueueGetInfo(i, &QueueProp) == OS_SUCCESS)
 3093               	.loc 2 1701 0
 3094 1b1c 200F      	move.l %sp,%d0
 3095 1b1e 0680 0000 	add.l #192,%d0
 3095      00C0 
 3096 1b24 2F00      	move.l %d0,-(%sp)
 3097               	.cfi_def_cfa_offset 236
 3098 1b26 2F2F 00E0 	move.l 224(%sp),-(%sp)
 3099               	.cfi_def_cfa_offset 240
 3100 1b2a 4EB9 0000 	jsr OS_QueueGetInfo
 3100      0000 
 3101 1b30 508F      	addq.l #8,%sp
 3102               	.cfi_def_cfa_offset 232
 3103 1b32 4A80      	tst.l %d0
 3104 1b34 6648      	jne .L128
1702:/home/simulink/cFS_FreeRTOS_seL4/cfe/fsw/cfe-core/src/es/cfe_es_apps.c ****         {
1703:/home/simulink/cFS_FreeRTOS_seL4/cfe/fsw/cfe-core/src/es/cfe_es_apps.c ****            if(QueueProp.creator == TaskId )
 3105               	.loc 2 1703 0
 3106 1b36 202F 00D4 	move.l 212(%sp),%d0
 3107 1b3a B0AF 00E8 	cmp.l 232(%sp),%d0
 3108 1b3e 663E      	jne .L128
1704:/home/simulink/cFS_FreeRTOS_seL4/cfe/fsw/cfe-core/src/es/cfe_es_apps.c ****            {
68K GAS   			page 106


1705:/home/simulink/cFS_FreeRTOS_seL4/cfe/fsw/cfe-core/src/es/cfe_es_apps.c ****                #ifdef ES_APP_DEBUG   
1706:/home/simulink/cFS_FreeRTOS_seL4/cfe/fsw/cfe-core/src/es/cfe_es_apps.c ****                  OS_printf("Found a Queue that belongs to Task %d\n", TaskId);
1707:/home/simulink/cFS_FreeRTOS_seL4/cfe/fsw/cfe-core/src/es/cfe_es_apps.c ****                #endif
1708:/home/simulink/cFS_FreeRTOS_seL4/cfe/fsw/cfe-core/src/es/cfe_es_apps.c ****               /*
1709:/home/simulink/cFS_FreeRTOS_seL4/cfe/fsw/cfe-core/src/es/cfe_es_apps.c ****               ** Delete it
1710:/home/simulink/cFS_FreeRTOS_seL4/cfe/fsw/cfe-core/src/es/cfe_es_apps.c ****               */
1711:/home/simulink/cFS_FreeRTOS_seL4/cfe/fsw/cfe-core/src/es/cfe_es_apps.c ****               Status = OS_QueueDelete(i);
 3109               	.loc 2 1711 0
 3110 1b40 2F2F 00DC 	move.l 220(%sp),-(%sp)
 3111               	.cfi_def_cfa_offset 236
 3112 1b44 4EB9 0000 	jsr OS_QueueDelete
 3112      0000 
 3113 1b4a 588F      	addq.l #4,%sp
 3114               	.cfi_def_cfa_offset 232
 3115 1b4c 2F40 00D8 	move.l %d0,216(%sp)
1712:/home/simulink/cFS_FreeRTOS_seL4/cfe/fsw/cfe-core/src/es/cfe_es_apps.c ****                if ( Status == OS_ERROR )
 3116               	.loc 2 1712 0
 3117 1b50 70FF      	moveq #-1,%d0
 3118 1b52 B0AF 00D8 	cmp.l 216(%sp),%d0
 3119 1b56 6626      	jne .L128
1713:/home/simulink/cFS_FreeRTOS_seL4/cfe/fsw/cfe-core/src/es/cfe_es_apps.c ****                {
1714:/home/simulink/cFS_FreeRTOS_seL4/cfe/fsw/cfe-core/src/es/cfe_es_apps.c ****                   CFE_ES_WriteToSysLog("Call to OS_QueueDelete (ID:%d) failed. RC=0x%08X\n",
 3120               	.loc 2 1714 0
 3121 1b58 222F 00D8 	move.l 216(%sp),%d1
 3122 1b5c 202F 00DC 	move.l 220(%sp),%d0
 3123 1b60 2F01      	move.l %d1,-(%sp)
 3124               	.cfi_def_cfa_offset 236
 3125 1b62 2F00      	move.l %d0,-(%sp)
 3126               	.cfi_def_cfa_offset 240
 3127 1b64 4879 0000 	pea .LC51
 3127      0000 
 3128               	.cfi_def_cfa_offset 244
 3129 1b6a 4EB9 0000 	jsr CFE_ES_WriteToSysLog
 3129      0000 
 3130 1b70 4FEF 000C 	lea (12,%sp),%sp
 3131               	.cfi_def_cfa_offset 232
1715:/home/simulink/cFS_FreeRTOS_seL4/cfe/fsw/cfe-core/src/es/cfe_es_apps.c ****                         (int)i, (unsigned int)Status);
1716:/home/simulink/cFS_FreeRTOS_seL4/cfe/fsw/cfe-core/src/es/cfe_es_apps.c ****                   Result = CFE_ES_QUEUE_DELETE_ERR;
 3132               	.loc 2 1716 0
 3133 1b74 223C C400 	move.l #-1006632930,%d1
 3133      001E 
 3134 1b7a 2F41 00E0 	move.l %d1,224(%sp)
 3135               	.L128:
1699:/home/simulink/cFS_FreeRTOS_seL4/cfe/fsw/cfe-core/src/es/cfe_es_apps.c ****     {
 3136               	.loc 2 1699 0 discriminator 2
 3137 1b7e 52AF 00DC 	addq.l #1,220(%sp)
 3138               	.L127:
1699:/home/simulink/cFS_FreeRTOS_seL4/cfe/fsw/cfe-core/src/es/cfe_es_apps.c ****     {
 3139               	.loc 2 1699 0 is_stmt 0 discriminator 1
 3140 1b82 703F      	moveq #63,%d0
 3141 1b84 B0AF 00DC 	cmp.l 220(%sp),%d0
 3142 1b88 6492      	jcc .L129
1717:/home/simulink/cFS_FreeRTOS_seL4/cfe/fsw/cfe-core/src/es/cfe_es_apps.c **** 
1718:/home/simulink/cFS_FreeRTOS_seL4/cfe/fsw/cfe-core/src/es/cfe_es_apps.c ****                }
1719:/home/simulink/cFS_FreeRTOS_seL4/cfe/fsw/cfe-core/src/es/cfe_es_apps.c **** 
1720:/home/simulink/cFS_FreeRTOS_seL4/cfe/fsw/cfe-core/src/es/cfe_es_apps.c ****            }
1721:/home/simulink/cFS_FreeRTOS_seL4/cfe/fsw/cfe-core/src/es/cfe_es_apps.c ****         }
68K GAS   			page 107


1722:/home/simulink/cFS_FreeRTOS_seL4/cfe/fsw/cfe-core/src/es/cfe_es_apps.c ****     }
1723:/home/simulink/cFS_FreeRTOS_seL4/cfe/fsw/cfe-core/src/es/cfe_es_apps.c **** 
1724:/home/simulink/cFS_FreeRTOS_seL4/cfe/fsw/cfe-core/src/es/cfe_es_apps.c ****     /*
1725:/home/simulink/cFS_FreeRTOS_seL4/cfe/fsw/cfe-core/src/es/cfe_es_apps.c ****     ** Delete Timers that belong to this task
1726:/home/simulink/cFS_FreeRTOS_seL4/cfe/fsw/cfe-core/src/es/cfe_es_apps.c ****     */
1727:/home/simulink/cFS_FreeRTOS_seL4/cfe/fsw/cfe-core/src/es/cfe_es_apps.c ****     for ( i= 0; i < OS_MAX_TIMERS; i++)
 3143               	.loc 2 1727 0 is_stmt 1
 3144 1b8a 42AF 00DC 	clr.l 220(%sp)
 3145 1b8e 6064      	jra .L130
 3146               	.L132:
1728:/home/simulink/cFS_FreeRTOS_seL4/cfe/fsw/cfe-core/src/es/cfe_es_apps.c ****     {
1729:/home/simulink/cFS_FreeRTOS_seL4/cfe/fsw/cfe-core/src/es/cfe_es_apps.c ****         if (OS_TimerGetInfo(i, &TimerProp) == OS_SUCCESS)
 3147               	.loc 2 1729 0
 3148 1b90 200F      	move.l %sp,%d0
 3149 1b92 0680 0000 	add.l #156,%d0
 3149      009C 
 3150 1b98 2F00      	move.l %d0,-(%sp)
 3151               	.cfi_def_cfa_offset 236
 3152 1b9a 2F2F 00E0 	move.l 224(%sp),-(%sp)
 3153               	.cfi_def_cfa_offset 240
 3154 1b9e 4EB9 0000 	jsr OS_TimerGetInfo
 3154      0000 
 3155 1ba4 508F      	addq.l #8,%sp
 3156               	.cfi_def_cfa_offset 232
 3157 1ba6 4A80      	tst.l %d0
 3158 1ba8 6646      	jne .L131
1730:/home/simulink/cFS_FreeRTOS_seL4/cfe/fsw/cfe-core/src/es/cfe_es_apps.c ****         {
1731:/home/simulink/cFS_FreeRTOS_seL4/cfe/fsw/cfe-core/src/es/cfe_es_apps.c ****            if(TimerProp.creator == TaskId )
 3159               	.loc 2 1731 0
 3160 1baa 202F 00B0 	move.l 176(%sp),%d0
 3161 1bae B0AF 00E8 	cmp.l 232(%sp),%d0
 3162 1bb2 663C      	jne .L131
1732:/home/simulink/cFS_FreeRTOS_seL4/cfe/fsw/cfe-core/src/es/cfe_es_apps.c ****            {
1733:/home/simulink/cFS_FreeRTOS_seL4/cfe/fsw/cfe-core/src/es/cfe_es_apps.c ****                #ifdef ES_APP_DEBUG   
1734:/home/simulink/cFS_FreeRTOS_seL4/cfe/fsw/cfe-core/src/es/cfe_es_apps.c ****                  OS_printf("Found a Timer that belongs to Task %d\n", TaskId);
1735:/home/simulink/cFS_FreeRTOS_seL4/cfe/fsw/cfe-core/src/es/cfe_es_apps.c ****                #endif
1736:/home/simulink/cFS_FreeRTOS_seL4/cfe/fsw/cfe-core/src/es/cfe_es_apps.c ****               /*
1737:/home/simulink/cFS_FreeRTOS_seL4/cfe/fsw/cfe-core/src/es/cfe_es_apps.c ****               ** Delete it
1738:/home/simulink/cFS_FreeRTOS_seL4/cfe/fsw/cfe-core/src/es/cfe_es_apps.c ****               */
1739:/home/simulink/cFS_FreeRTOS_seL4/cfe/fsw/cfe-core/src/es/cfe_es_apps.c ****               Status = OS_TimerDelete(i);
 3163               	.loc 2 1739 0
 3164 1bb4 2F2F 00DC 	move.l 220(%sp),-(%sp)
 3165               	.cfi_def_cfa_offset 236
 3166 1bb8 4EB9 0000 	jsr OS_TimerDelete
 3166      0000 
 3167 1bbe 588F      	addq.l #4,%sp
 3168               	.cfi_def_cfa_offset 232
 3169 1bc0 2F40 00D8 	move.l %d0,216(%sp)
1740:/home/simulink/cFS_FreeRTOS_seL4/cfe/fsw/cfe-core/src/es/cfe_es_apps.c ****                if ( Status != OS_SUCCESS )
 3170               	.loc 2 1740 0
 3171 1bc4 4AAF 00D8 	tst.l 216(%sp)
 3172 1bc8 6726      	jeq .L131
1741:/home/simulink/cFS_FreeRTOS_seL4/cfe/fsw/cfe-core/src/es/cfe_es_apps.c ****                {
1742:/home/simulink/cFS_FreeRTOS_seL4/cfe/fsw/cfe-core/src/es/cfe_es_apps.c ****                   CFE_ES_WriteToSysLog("Call to OS_TimerDelete (ID:%d) failed. RC=0x%08X\n",
 3173               	.loc 2 1742 0
 3174 1bca 222F 00D8 	move.l 216(%sp),%d1
 3175 1bce 202F 00DC 	move.l 220(%sp),%d0
68K GAS   			page 108


 3176 1bd2 2F01      	move.l %d1,-(%sp)
 3177               	.cfi_def_cfa_offset 236
 3178 1bd4 2F00      	move.l %d0,-(%sp)
 3179               	.cfi_def_cfa_offset 240
 3180 1bd6 4879 0000 	pea .LC52
 3180      0000 
 3181               	.cfi_def_cfa_offset 244
 3182 1bdc 4EB9 0000 	jsr CFE_ES_WriteToSysLog
 3182      0000 
 3183 1be2 4FEF 000C 	lea (12,%sp),%sp
 3184               	.cfi_def_cfa_offset 232
1743:/home/simulink/cFS_FreeRTOS_seL4/cfe/fsw/cfe-core/src/es/cfe_es_apps.c ****                         (int)i, (unsigned int)Status);
1744:/home/simulink/cFS_FreeRTOS_seL4/cfe/fsw/cfe-core/src/es/cfe_es_apps.c ****                   Result = CFE_ES_TIMER_DELETE_ERR;
 3185               	.loc 2 1744 0
 3186 1be6 223C C400 	move.l #-1006632924,%d1
 3186      0024 
 3187 1bec 2F41 00E0 	move.l %d1,224(%sp)
 3188               	.L131:
1727:/home/simulink/cFS_FreeRTOS_seL4/cfe/fsw/cfe-core/src/es/cfe_es_apps.c ****     {
 3189               	.loc 2 1727 0 discriminator 2
 3190 1bf0 52AF 00DC 	addq.l #1,220(%sp)
 3191               	.L130:
1727:/home/simulink/cFS_FreeRTOS_seL4/cfe/fsw/cfe-core/src/es/cfe_es_apps.c ****     {
 3192               	.loc 2 1727 0 is_stmt 0 discriminator 1
 3193 1bf4 7004      	moveq #4,%d0
 3194 1bf6 B0AF 00DC 	cmp.l 220(%sp),%d0
 3195 1bfa 6494      	jcc .L132
1745:/home/simulink/cFS_FreeRTOS_seL4/cfe/fsw/cfe-core/src/es/cfe_es_apps.c **** 
1746:/home/simulink/cFS_FreeRTOS_seL4/cfe/fsw/cfe-core/src/es/cfe_es_apps.c ****                }
1747:/home/simulink/cFS_FreeRTOS_seL4/cfe/fsw/cfe-core/src/es/cfe_es_apps.c **** 
1748:/home/simulink/cFS_FreeRTOS_seL4/cfe/fsw/cfe-core/src/es/cfe_es_apps.c ****            }
1749:/home/simulink/cFS_FreeRTOS_seL4/cfe/fsw/cfe-core/src/es/cfe_es_apps.c ****         }
1750:/home/simulink/cFS_FreeRTOS_seL4/cfe/fsw/cfe-core/src/es/cfe_es_apps.c ****     }
1751:/home/simulink/cFS_FreeRTOS_seL4/cfe/fsw/cfe-core/src/es/cfe_es_apps.c **** 
1752:/home/simulink/cFS_FreeRTOS_seL4/cfe/fsw/cfe-core/src/es/cfe_es_apps.c ****     /*
1753:/home/simulink/cFS_FreeRTOS_seL4/cfe/fsw/cfe-core/src/es/cfe_es_apps.c ****     ** Close files that belong to this task
1754:/home/simulink/cFS_FreeRTOS_seL4/cfe/fsw/cfe-core/src/es/cfe_es_apps.c ****     */
1755:/home/simulink/cFS_FreeRTOS_seL4/cfe/fsw/cfe-core/src/es/cfe_es_apps.c ****     for ( i= 0; i < OS_MAX_NUM_OPEN_FILES; i++)
 3196               	.loc 2 1755 0 is_stmt 1
 3197 1bfc 42AF 00DC 	clr.l 220(%sp)
 3198 1c00 6062      	jra .L133
 3199               	.L135:
1756:/home/simulink/cFS_FreeRTOS_seL4/cfe/fsw/cfe-core/src/es/cfe_es_apps.c ****     {
1757:/home/simulink/cFS_FreeRTOS_seL4/cfe/fsw/cfe-core/src/es/cfe_es_apps.c ****         if (OS_FDGetInfo(i, &FileProp) == OS_FS_SUCCESS)
 3200               	.loc 2 1757 0
 3201 1c02 222F 00DC 	move.l 220(%sp),%d1
 3202 1c06 200F      	move.l %sp,%d0
 3203 1c08 2F00      	move.l %d0,-(%sp)
 3204               	.cfi_def_cfa_offset 236
 3205 1c0a 2F01      	move.l %d1,-(%sp)
 3206               	.cfi_def_cfa_offset 240
 3207 1c0c 4EB9 0000 	jsr OS_FDGetInfo
 3207      0000 
 3208 1c12 508F      	addq.l #8,%sp
 3209               	.cfi_def_cfa_offset 232
 3210 1c14 4A80      	tst.l %d0
 3211 1c16 6648      	jne .L134
68K GAS   			page 109


1758:/home/simulink/cFS_FreeRTOS_seL4/cfe/fsw/cfe-core/src/es/cfe_es_apps.c ****         {
1759:/home/simulink/cFS_FreeRTOS_seL4/cfe/fsw/cfe-core/src/es/cfe_es_apps.c ****            if(FileProp.User == TaskId )
 3212               	.loc 2 1759 0
 3213 1c18 202F 0044 	move.l 68(%sp),%d0
 3214 1c1c B0AF 00E8 	cmp.l 232(%sp),%d0
 3215 1c20 663E      	jne .L134
1760:/home/simulink/cFS_FreeRTOS_seL4/cfe/fsw/cfe-core/src/es/cfe_es_apps.c ****            {
1761:/home/simulink/cFS_FreeRTOS_seL4/cfe/fsw/cfe-core/src/es/cfe_es_apps.c ****                #ifdef ES_APP_DEBUG   
1762:/home/simulink/cFS_FreeRTOS_seL4/cfe/fsw/cfe-core/src/es/cfe_es_apps.c ****                  OS_printf("Found an open File that belongs to Task %d\n", TaskId);
1763:/home/simulink/cFS_FreeRTOS_seL4/cfe/fsw/cfe-core/src/es/cfe_es_apps.c ****                #endif
1764:/home/simulink/cFS_FreeRTOS_seL4/cfe/fsw/cfe-core/src/es/cfe_es_apps.c ****               /*
1765:/home/simulink/cFS_FreeRTOS_seL4/cfe/fsw/cfe-core/src/es/cfe_es_apps.c ****               ** Close it
1766:/home/simulink/cFS_FreeRTOS_seL4/cfe/fsw/cfe-core/src/es/cfe_es_apps.c ****               */
1767:/home/simulink/cFS_FreeRTOS_seL4/cfe/fsw/cfe-core/src/es/cfe_es_apps.c ****               Status = OS_close(i);
 3216               	.loc 2 1767 0
 3217 1c22 202F 00DC 	move.l 220(%sp),%d0
 3218 1c26 2F00      	move.l %d0,-(%sp)
 3219               	.cfi_def_cfa_offset 236
 3220 1c28 4EB9 0000 	jsr OS_close
 3220      0000 
 3221 1c2e 588F      	addq.l #4,%sp
 3222               	.cfi_def_cfa_offset 232
 3223 1c30 2F40 00D8 	move.l %d0,216(%sp)
1768:/home/simulink/cFS_FreeRTOS_seL4/cfe/fsw/cfe-core/src/es/cfe_es_apps.c ****                if ( Status < OS_FS_SUCCESS )
 3224               	.loc 2 1768 0
 3225 1c34 4AAF 00D8 	tst.l 216(%sp)
 3226 1c38 6C26      	jge .L134
1769:/home/simulink/cFS_FreeRTOS_seL4/cfe/fsw/cfe-core/src/es/cfe_es_apps.c ****                {
1770:/home/simulink/cFS_FreeRTOS_seL4/cfe/fsw/cfe-core/src/es/cfe_es_apps.c ****                   CFE_ES_WriteToSysLog("Call to OS_close (FD:%d) failed. RC=0x%08X\n",
 3227               	.loc 2 1770 0
 3228 1c3a 222F 00D8 	move.l 216(%sp),%d1
 3229 1c3e 202F 00DC 	move.l 220(%sp),%d0
 3230 1c42 2F01      	move.l %d1,-(%sp)
 3231               	.cfi_def_cfa_offset 236
 3232 1c44 2F00      	move.l %d0,-(%sp)
 3233               	.cfi_def_cfa_offset 240
 3234 1c46 4879 0000 	pea .LC53
 3234      0000 
 3235               	.cfi_def_cfa_offset 244
 3236 1c4c 4EB9 0000 	jsr CFE_ES_WriteToSysLog
 3236      0000 
 3237 1c52 4FEF 000C 	lea (12,%sp),%sp
 3238               	.cfi_def_cfa_offset 232
1771:/home/simulink/cFS_FreeRTOS_seL4/cfe/fsw/cfe-core/src/es/cfe_es_apps.c ****                         (int)i, (unsigned int)Status);
1772:/home/simulink/cFS_FreeRTOS_seL4/cfe/fsw/cfe-core/src/es/cfe_es_apps.c ****                   Result = CFE_ES_FILE_CLOSE_ERR;
 3239               	.loc 2 1772 0
 3240 1c56 223C C400 	move.l #-1006632929,%d1
 3240      001F 
 3241 1c5c 2F41 00E0 	move.l %d1,224(%sp)
 3242               	.L134:
1755:/home/simulink/cFS_FreeRTOS_seL4/cfe/fsw/cfe-core/src/es/cfe_es_apps.c ****     {
 3243               	.loc 2 1755 0 discriminator 2
 3244 1c60 52AF 00DC 	addq.l #1,220(%sp)
 3245               	.L133:
1755:/home/simulink/cFS_FreeRTOS_seL4/cfe/fsw/cfe-core/src/es/cfe_es_apps.c ****     {
 3246               	.loc 2 1755 0 is_stmt 0 discriminator 1
 3247 1c64 7031      	moveq #49,%d0
68K GAS   			page 110


 3248 1c66 B0AF 00DC 	cmp.l 220(%sp),%d0
 3249 1c6a 6496      	jcc .L135
1773:/home/simulink/cFS_FreeRTOS_seL4/cfe/fsw/cfe-core/src/es/cfe_es_apps.c ****                }
1774:/home/simulink/cFS_FreeRTOS_seL4/cfe/fsw/cfe-core/src/es/cfe_es_apps.c **** 
1775:/home/simulink/cFS_FreeRTOS_seL4/cfe/fsw/cfe-core/src/es/cfe_es_apps.c ****            }
1776:/home/simulink/cFS_FreeRTOS_seL4/cfe/fsw/cfe-core/src/es/cfe_es_apps.c ****         }
1777:/home/simulink/cFS_FreeRTOS_seL4/cfe/fsw/cfe-core/src/es/cfe_es_apps.c ****     }
1778:/home/simulink/cFS_FreeRTOS_seL4/cfe/fsw/cfe-core/src/es/cfe_es_apps.c **** 
1779:/home/simulink/cFS_FreeRTOS_seL4/cfe/fsw/cfe-core/src/es/cfe_es_apps.c ****     /*
1780:/home/simulink/cFS_FreeRTOS_seL4/cfe/fsw/cfe-core/src/es/cfe_es_apps.c ****     ** Delete the task
1781:/home/simulink/cFS_FreeRTOS_seL4/cfe/fsw/cfe-core/src/es/cfe_es_apps.c ****     */
1782:/home/simulink/cFS_FreeRTOS_seL4/cfe/fsw/cfe-core/src/es/cfe_es_apps.c ****     Status = OS_TaskDelete(TaskId);
 3250               	.loc 2 1782 0 is_stmt 1
 3251 1c6c 2F2F 00E8 	move.l 232(%sp),-(%sp)
 3252               	.cfi_def_cfa_offset 236
 3253 1c70 4EB9 0000 	jsr OS_TaskDelete
 3253      0000 
 3254 1c76 588F      	addq.l #4,%sp
 3255               	.cfi_def_cfa_offset 232
 3256 1c78 2F40 00D8 	move.l %d0,216(%sp)
1783:/home/simulink/cFS_FreeRTOS_seL4/cfe/fsw/cfe-core/src/es/cfe_es_apps.c ****     if ( Status < OS_FS_SUCCESS )
 3257               	.loc 2 1783 0
 3258 1c7c 4AAF 00D8 	tst.l 216(%sp)
 3259 1c80 6C26      	jge .L136
1784:/home/simulink/cFS_FreeRTOS_seL4/cfe/fsw/cfe-core/src/es/cfe_es_apps.c ****     {
1785:/home/simulink/cFS_FreeRTOS_seL4/cfe/fsw/cfe-core/src/es/cfe_es_apps.c ****        CFE_ES_WriteToSysLog("Call to OS_TaskDelete (TaskID:%d) failed. RC=0x%08X\n",
 3260               	.loc 2 1785 0
 3261 1c82 222F 00D8 	move.l 216(%sp),%d1
 3262 1c86 202F 00E8 	move.l 232(%sp),%d0
 3263 1c8a 2F01      	move.l %d1,-(%sp)
 3264               	.cfi_def_cfa_offset 236
 3265 1c8c 2F00      	move.l %d0,-(%sp)
 3266               	.cfi_def_cfa_offset 240
 3267 1c8e 4879 0000 	pea .LC54
 3267      0000 
 3268               	.cfi_def_cfa_offset 244
 3269 1c94 4EB9 0000 	jsr CFE_ES_WriteToSysLog
 3269      0000 
 3270 1c9a 4FEF 000C 	lea (12,%sp),%sp
 3271               	.cfi_def_cfa_offset 232
1786:/home/simulink/cFS_FreeRTOS_seL4/cfe/fsw/cfe-core/src/es/cfe_es_apps.c ****              (int)TaskId, (unsigned int)Status);
1787:/home/simulink/cFS_FreeRTOS_seL4/cfe/fsw/cfe-core/src/es/cfe_es_apps.c ****        Result = CFE_ES_TASK_DELETE_ERR;
 3272               	.loc 2 1787 0
 3273 1c9e 223C C400 	move.l #-1006632922,%d1
 3273      0026 
 3274 1ca4 2F41 00E0 	move.l %d1,224(%sp)
 3275               	.L136:
1788:/home/simulink/cFS_FreeRTOS_seL4/cfe/fsw/cfe-core/src/es/cfe_es_apps.c ****     }
1789:/home/simulink/cFS_FreeRTOS_seL4/cfe/fsw/cfe-core/src/es/cfe_es_apps.c ****     
1790:/home/simulink/cFS_FreeRTOS_seL4/cfe/fsw/cfe-core/src/es/cfe_es_apps.c ****     /*
1791:/home/simulink/cFS_FreeRTOS_seL4/cfe/fsw/cfe-core/src/es/cfe_es_apps.c ****     ** Invalidate ES Task Table entry
1792:/home/simulink/cFS_FreeRTOS_seL4/cfe/fsw/cfe-core/src/es/cfe_es_apps.c ****     */
1793:/home/simulink/cFS_FreeRTOS_seL4/cfe/fsw/cfe-core/src/es/cfe_es_apps.c ****     CFE_ES_Global.TaskTable[TaskId].RecordUsed = FALSE;
 3276               	.loc 2 1793 0
 3277 1ca8 202F 00E8 	move.l 232(%sp),%d0
 3278 1cac 5280      	addq.l #1,%d0
 3279 1cae 7224      	moveq #36,%d1
68K GAS   			page 111


 3280 1cb0 4C01 0800 	muls.l %d1,%d0
 3281 1cb4 41F9 0000 	lea CFE_ES_Global,%a0
 3281      0000 
 3282 1cba 4201      	clr.b %d1
 3283 1cbc 1181 0800 	move.b %d1,(%a0,%d0.l)
1794:/home/simulink/cFS_FreeRTOS_seL4/cfe/fsw/cfe-core/src/es/cfe_es_apps.c ****     CFE_ES_Global.RegisteredTasks--;
 3284               	.loc 2 1794 0
 3285 1cc0 2039 0000 	move.l CFE_ES_Global+32,%d0
 3285      0000 
 3286 1cc6 5380      	subq.l #1,%d0
 3287 1cc8 23C0 0000 	move.l %d0,CFE_ES_Global+32
 3287      0000 
1795:/home/simulink/cFS_FreeRTOS_seL4/cfe/fsw/cfe-core/src/es/cfe_es_apps.c ****     
1796:/home/simulink/cFS_FreeRTOS_seL4/cfe/fsw/cfe-core/src/es/cfe_es_apps.c ****     return(Result);
 3288               	.loc 2 1796 0
 3289 1cce 202F 00E0 	move.l 224(%sp),%d0
1797:/home/simulink/cFS_FreeRTOS_seL4/cfe/fsw/cfe-core/src/es/cfe_es_apps.c **** 
1798:/home/simulink/cFS_FreeRTOS_seL4/cfe/fsw/cfe-core/src/es/cfe_es_apps.c **** }
 3290               	.loc 2 1798 0
 3291 1cd2 4FEF 00E4 	lea (228,%sp),%sp
 3292 1cd6 4E75      	rts
 3293               	.cfi_endproc
 3294               	.LFE66:
 3295               	.sizeCFE_ES_CleanupTaskResources, .-CFE_ES_CleanupTaskResources
 3296               	.section.rodata
 3297               	.LC55:
 3298 0a85 4F53 2052 	.string"OS Resources in Use:\n"
 3298      6573 6F75 
 3298      7263 6573 
 3298      2069 6E20 
 3298      5573 653A 
 3299               	.LC56:
 3300 0a9b 4E75 6D62 	.string"Number of Tasks: %d\n"
 3300      6572 206F 
 3300      6620 5461 
 3300      736B 733A 
 3300      2025 640A 
 3301               	.LC57:
 3302 0ab0 4E75 6D62 	.string"Number of Queues: %d\n"
 3302      6572 206F 
 3302      6620 5175 
 3302      6575 6573 
 3302      3A20 2564 
 3303               	.LC58:
 3304 0ac6 4E75 6D62 	.string"Number of Counting Semaphores: %d\n"
 3304      6572 206F 
 3304      6620 436F 
 3304      756E 7469 
 3304      6E67 2053 
 3305               	.LC59:
 3306 0ae9 4E75 6D62 	.string"Number of Binary Semaphores: %d\n"
 3306      6572 206F 
 3306      6620 4269 
 3306      6E61 7279 
 3306      2053 656D 
 3307               	.LC60:
 3308 0b0a 4E75 6D62 	.string"Number of Mutexes: %d\n"
68K GAS   			page 112


 3308      6572 206F 
 3308      6620 4D75 
 3308      7465 7865 
 3308      733A 2025 
 3309               	.LC61:
 3310 0b21 4E75 6D62 	.string"Number of Open Files: %d\n"
 3310      6572 206F 
 3310      6620 4F70 
 3310      656E 2046 
 3310      696C 6573 
 3311               	.text
 3312               	.align2
 3313               	.globlCFE_ES_ListResourcesDebug
 3314               	.typeCFE_ES_ListResourcesDebug, @function
 3315               	CFE_ES_ListResourcesDebug:
 3316               	.LFB67:
1799:/home/simulink/cFS_FreeRTOS_seL4/cfe/fsw/cfe-core/src/es/cfe_es_apps.c **** 
1800:/home/simulink/cFS_FreeRTOS_seL4/cfe/fsw/cfe-core/src/es/cfe_es_apps.c **** 
1801:/home/simulink/cFS_FreeRTOS_seL4/cfe/fsw/cfe-core/src/es/cfe_es_apps.c **** /*
1802:/home/simulink/cFS_FreeRTOS_seL4/cfe/fsw/cfe-core/src/es/cfe_es_apps.c **** **---------------------------------------------------------------------------------------
1803:/home/simulink/cFS_FreeRTOS_seL4/cfe/fsw/cfe-core/src/es/cfe_es_apps.c **** **   Name: CFE_ES_ListResourcesDebug
1804:/home/simulink/cFS_FreeRTOS_seL4/cfe/fsw/cfe-core/src/es/cfe_es_apps.c **** **
1805:/home/simulink/cFS_FreeRTOS_seL4/cfe/fsw/cfe-core/src/es/cfe_es_apps.c **** **   Purpose: List the resources.
1806:/home/simulink/cFS_FreeRTOS_seL4/cfe/fsw/cfe-core/src/es/cfe_es_apps.c **** **---------------------------------------------------------------------------------------
1807:/home/simulink/cFS_FreeRTOS_seL4/cfe/fsw/cfe-core/src/es/cfe_es_apps.c **** */
1808:/home/simulink/cFS_FreeRTOS_seL4/cfe/fsw/cfe-core/src/es/cfe_es_apps.c **** int32 CFE_ES_ListResourcesDebug(void)
1809:/home/simulink/cFS_FreeRTOS_seL4/cfe/fsw/cfe-core/src/es/cfe_es_apps.c **** {
 3317               	.loc 2 1809 0
 3318               	.cfi_startproc
 3319 1cd8 4FEF FF0C 	lea (-244,%sp),%sp
 3320               	.cfi_def_cfa_offset 248
1810:/home/simulink/cFS_FreeRTOS_seL4/cfe/fsw/cfe-core/src/es/cfe_es_apps.c ****     OS_task_prop_t        TaskProp;
1811:/home/simulink/cFS_FreeRTOS_seL4/cfe/fsw/cfe-core/src/es/cfe_es_apps.c ****     OS_queue_prop_t       QueueProp;
1812:/home/simulink/cFS_FreeRTOS_seL4/cfe/fsw/cfe-core/src/es/cfe_es_apps.c ****     OS_bin_sem_prop_t     SemProp;
1813:/home/simulink/cFS_FreeRTOS_seL4/cfe/fsw/cfe-core/src/es/cfe_es_apps.c ****     OS_count_sem_prop_t   CountSemProp;
1814:/home/simulink/cFS_FreeRTOS_seL4/cfe/fsw/cfe-core/src/es/cfe_es_apps.c ****     OS_mut_sem_prop_t     MutProp;
1815:/home/simulink/cFS_FreeRTOS_seL4/cfe/fsw/cfe-core/src/es/cfe_es_apps.c ****     OS_FDTableEntry       FileProp;
1816:/home/simulink/cFS_FreeRTOS_seL4/cfe/fsw/cfe-core/src/es/cfe_es_apps.c ****     int32                 NumSemaphores = 0;
 3321               	.loc 2 1816 0
 3322 1cdc 42AF 00F0 	clr.l 240(%sp)
1817:/home/simulink/cFS_FreeRTOS_seL4/cfe/fsw/cfe-core/src/es/cfe_es_apps.c ****     int32                 NumCountSems =0;
 3323               	.loc 2 1817 0
 3324 1ce0 42AF 00EC 	clr.l 236(%sp)
1818:/home/simulink/cFS_FreeRTOS_seL4/cfe/fsw/cfe-core/src/es/cfe_es_apps.c ****     int32                 NumMutexes = 0;
 3325               	.loc 2 1818 0
 3326 1ce4 42AF 00E8 	clr.l 232(%sp)
1819:/home/simulink/cFS_FreeRTOS_seL4/cfe/fsw/cfe-core/src/es/cfe_es_apps.c ****     int32                 NumQueues = 0;
 3327               	.loc 2 1819 0
 3328 1ce8 42AF 00E4 	clr.l 228(%sp)
1820:/home/simulink/cFS_FreeRTOS_seL4/cfe/fsw/cfe-core/src/es/cfe_es_apps.c ****     int32                 NumTasks = 0;
 3329               	.loc 2 1820 0
 3330 1cec 42AF 00E0 	clr.l 224(%sp)
1821:/home/simulink/cFS_FreeRTOS_seL4/cfe/fsw/cfe-core/src/es/cfe_es_apps.c ****     int32                 NumFiles = 0;
 3331               	.loc 2 1821 0
 3332 1cf0 42AF 00DC 	clr.l 220(%sp)
1822:/home/simulink/cFS_FreeRTOS_seL4/cfe/fsw/cfe-core/src/es/cfe_es_apps.c ****     uint32                i;
1823:/home/simulink/cFS_FreeRTOS_seL4/cfe/fsw/cfe-core/src/es/cfe_es_apps.c **** 
68K GAS   			page 113


1824:/home/simulink/cFS_FreeRTOS_seL4/cfe/fsw/cfe-core/src/es/cfe_es_apps.c ****     OS_printf("OS Resources in Use:\n");
 3333               	.loc 2 1824 0
 3334 1cf4 4879 0000 	pea .LC55
 3334      0000 
 3335               	.cfi_def_cfa_offset 252
 3336 1cfa 4EB9 0000 	jsr OS_printf
 3336      0000 
 3337 1d00 588F      	addq.l #4,%sp
 3338               	.cfi_def_cfa_offset 248
1825:/home/simulink/cFS_FreeRTOS_seL4/cfe/fsw/cfe-core/src/es/cfe_es_apps.c **** 
1826:/home/simulink/cFS_FreeRTOS_seL4/cfe/fsw/cfe-core/src/es/cfe_es_apps.c ****     for ( i= 0; i < OS_MAX_TASKS; i++)
 3339               	.loc 2 1826 0
 3340 1d02 42AF 00D8 	clr.l 216(%sp)
 3341 1d06 6022      	jra .L139
 3342               	.L141:
1827:/home/simulink/cFS_FreeRTOS_seL4/cfe/fsw/cfe-core/src/es/cfe_es_apps.c ****     {
1828:/home/simulink/cFS_FreeRTOS_seL4/cfe/fsw/cfe-core/src/es/cfe_es_apps.c ****         if (OS_TaskGetInfo(i, &TaskProp) == OS_SUCCESS)
 3343               	.loc 2 1828 0
 3344 1d08 200F      	move.l %sp,%d0
 3345 1d0a 0680 0000 	add.l #180,%d0
 3345      00B4 
 3346 1d10 2F00      	move.l %d0,-(%sp)
 3347               	.cfi_def_cfa_offset 252
 3348 1d12 2F2F 00DC 	move.l 220(%sp),-(%sp)
 3349               	.cfi_def_cfa_offset 256
 3350 1d16 4EB9 0000 	jsr OS_TaskGetInfo
 3350      0000 
 3351 1d1c 508F      	addq.l #8,%sp
 3352               	.cfi_def_cfa_offset 248
 3353 1d1e 4A80      	tst.l %d0
 3354 1d20 6604      	jne .L140
1829:/home/simulink/cFS_FreeRTOS_seL4/cfe/fsw/cfe-core/src/es/cfe_es_apps.c ****         {
1830:/home/simulink/cFS_FreeRTOS_seL4/cfe/fsw/cfe-core/src/es/cfe_es_apps.c ****             NumTasks++;
 3355               	.loc 2 1830 0
 3356 1d22 52AF 00E0 	addq.l #1,224(%sp)
 3357               	.L140:
1826:/home/simulink/cFS_FreeRTOS_seL4/cfe/fsw/cfe-core/src/es/cfe_es_apps.c ****     {
 3358               	.loc 2 1826 0 discriminator 2
 3359 1d26 52AF 00D8 	addq.l #1,216(%sp)
 3360               	.L139:
1826:/home/simulink/cFS_FreeRTOS_seL4/cfe/fsw/cfe-core/src/es/cfe_es_apps.c ****     {
 3361               	.loc 2 1826 0 is_stmt 0 discriminator 1
 3362 1d2a 703F      	moveq #63,%d0
 3363 1d2c B0AF 00D8 	cmp.l 216(%sp),%d0
 3364 1d30 64D6      	jcc .L141
1831:/home/simulink/cFS_FreeRTOS_seL4/cfe/fsw/cfe-core/src/es/cfe_es_apps.c ****         }
1832:/home/simulink/cFS_FreeRTOS_seL4/cfe/fsw/cfe-core/src/es/cfe_es_apps.c ****     }
1833:/home/simulink/cFS_FreeRTOS_seL4/cfe/fsw/cfe-core/src/es/cfe_es_apps.c ****     OS_printf("Number of Tasks: %d\n", (int) NumTasks);
 3365               	.loc 2 1833 0 is_stmt 1
 3366 1d32 2F2F 00E0 	move.l 224(%sp),-(%sp)
 3367               	.cfi_def_cfa_offset 252
 3368 1d36 4879 0000 	pea .LC56
 3368      0000 
 3369               	.cfi_def_cfa_offset 256
 3370 1d3c 4EB9 0000 	jsr OS_printf
 3370      0000 
 3371 1d42 508F      	addq.l #8,%sp
68K GAS   			page 114


 3372               	.cfi_def_cfa_offset 248
1834:/home/simulink/cFS_FreeRTOS_seL4/cfe/fsw/cfe-core/src/es/cfe_es_apps.c **** 
1835:/home/simulink/cFS_FreeRTOS_seL4/cfe/fsw/cfe-core/src/es/cfe_es_apps.c ****     for ( i= 0; i < OS_MAX_QUEUES; i++)
 3373               	.loc 2 1835 0
 3374 1d44 42AF 00D8 	clr.l 216(%sp)
 3375 1d48 6022      	jra .L142
 3376               	.L144:
1836:/home/simulink/cFS_FreeRTOS_seL4/cfe/fsw/cfe-core/src/es/cfe_es_apps.c ****     {
1837:/home/simulink/cFS_FreeRTOS_seL4/cfe/fsw/cfe-core/src/es/cfe_es_apps.c ****         if (OS_QueueGetInfo(i, &QueueProp) == OS_SUCCESS)
 3377               	.loc 2 1837 0
 3378 1d4a 200F      	move.l %sp,%d0
 3379 1d4c 0680 0000 	add.l #156,%d0
 3379      009C 
 3380 1d52 2F00      	move.l %d0,-(%sp)
 3381               	.cfi_def_cfa_offset 252
 3382 1d54 2F2F 00DC 	move.l 220(%sp),-(%sp)
 3383               	.cfi_def_cfa_offset 256
 3384 1d58 4EB9 0000 	jsr OS_QueueGetInfo
 3384      0000 
 3385 1d5e 508F      	addq.l #8,%sp
 3386               	.cfi_def_cfa_offset 248
 3387 1d60 4A80      	tst.l %d0
 3388 1d62 6604      	jne .L143
1838:/home/simulink/cFS_FreeRTOS_seL4/cfe/fsw/cfe-core/src/es/cfe_es_apps.c ****         {
1839:/home/simulink/cFS_FreeRTOS_seL4/cfe/fsw/cfe-core/src/es/cfe_es_apps.c ****             NumQueues++;
 3389               	.loc 2 1839 0
 3390 1d64 52AF 00E4 	addq.l #1,228(%sp)
 3391               	.L143:
1835:/home/simulink/cFS_FreeRTOS_seL4/cfe/fsw/cfe-core/src/es/cfe_es_apps.c ****     {
 3392               	.loc 2 1835 0 discriminator 2
 3393 1d68 52AF 00D8 	addq.l #1,216(%sp)
 3394               	.L142:
1835:/home/simulink/cFS_FreeRTOS_seL4/cfe/fsw/cfe-core/src/es/cfe_es_apps.c ****     {
 3395               	.loc 2 1835 0 is_stmt 0 discriminator 1
 3396 1d6c 703F      	moveq #63,%d0
 3397 1d6e B0AF 00D8 	cmp.l 216(%sp),%d0
 3398 1d72 64D6      	jcc .L144
1840:/home/simulink/cFS_FreeRTOS_seL4/cfe/fsw/cfe-core/src/es/cfe_es_apps.c ****         }
1841:/home/simulink/cFS_FreeRTOS_seL4/cfe/fsw/cfe-core/src/es/cfe_es_apps.c ****     }
1842:/home/simulink/cFS_FreeRTOS_seL4/cfe/fsw/cfe-core/src/es/cfe_es_apps.c ****     OS_printf("Number of Queues: %d\n", (int) NumQueues);
 3399               	.loc 2 1842 0 is_stmt 1
 3400 1d74 2F2F 00E4 	move.l 228(%sp),-(%sp)
 3401               	.cfi_def_cfa_offset 252
 3402 1d78 4879 0000 	pea .LC57
 3402      0000 
 3403               	.cfi_def_cfa_offset 256
 3404 1d7e 4EB9 0000 	jsr OS_printf
 3404      0000 
 3405 1d84 508F      	addq.l #8,%sp
 3406               	.cfi_def_cfa_offset 248
1843:/home/simulink/cFS_FreeRTOS_seL4/cfe/fsw/cfe-core/src/es/cfe_es_apps.c **** 
1844:/home/simulink/cFS_FreeRTOS_seL4/cfe/fsw/cfe-core/src/es/cfe_es_apps.c **** 
1845:/home/simulink/cFS_FreeRTOS_seL4/cfe/fsw/cfe-core/src/es/cfe_es_apps.c ****     for ( i= 0; i < OS_MAX_COUNT_SEMAPHORES; i++)
 3407               	.loc 2 1845 0
 3408 1d86 42AF 00D8 	clr.l 216(%sp)
 3409 1d8a 6022      	jra .L145
 3410               	.L147:
68K GAS   			page 115


1846:/home/simulink/cFS_FreeRTOS_seL4/cfe/fsw/cfe-core/src/es/cfe_es_apps.c ****     {
1847:/home/simulink/cFS_FreeRTOS_seL4/cfe/fsw/cfe-core/src/es/cfe_es_apps.c ****        if (OS_CountSemGetInfo(i, &CountSemProp) == OS_SUCCESS)
 3411               	.loc 2 1847 0
 3412 1d8c 200F      	move.l %sp,%d0
 3413 1d8e 0680 0000 	add.l #100,%d0
 3413      0064 
 3414 1d94 2F00      	move.l %d0,-(%sp)
 3415               	.cfi_def_cfa_offset 252
 3416 1d96 2F2F 00DC 	move.l 220(%sp),-(%sp)
 3417               	.cfi_def_cfa_offset 256
 3418 1d9a 4EB9 0000 	jsr OS_CountSemGetInfo
 3418      0000 
 3419 1da0 508F      	addq.l #8,%sp
 3420               	.cfi_def_cfa_offset 248
 3421 1da2 4A80      	tst.l %d0
 3422 1da4 6604      	jne .L146
1848:/home/simulink/cFS_FreeRTOS_seL4/cfe/fsw/cfe-core/src/es/cfe_es_apps.c ****         {
1849:/home/simulink/cFS_FreeRTOS_seL4/cfe/fsw/cfe-core/src/es/cfe_es_apps.c ****             NumCountSems++;
 3423               	.loc 2 1849 0
 3424 1da6 52AF 00EC 	addq.l #1,236(%sp)
 3425               	.L146:
1845:/home/simulink/cFS_FreeRTOS_seL4/cfe/fsw/cfe-core/src/es/cfe_es_apps.c ****     {
 3426               	.loc 2 1845 0 discriminator 2
 3427 1daa 52AF 00D8 	addq.l #1,216(%sp)
 3428               	.L145:
1845:/home/simulink/cFS_FreeRTOS_seL4/cfe/fsw/cfe-core/src/es/cfe_es_apps.c ****     {
 3429               	.loc 2 1845 0 is_stmt 0 discriminator 1
 3430 1dae 7013      	moveq #19,%d0
 3431 1db0 B0AF 00D8 	cmp.l 216(%sp),%d0
 3432 1db4 64D6      	jcc .L147
1850:/home/simulink/cFS_FreeRTOS_seL4/cfe/fsw/cfe-core/src/es/cfe_es_apps.c ****         }
1851:/home/simulink/cFS_FreeRTOS_seL4/cfe/fsw/cfe-core/src/es/cfe_es_apps.c ****     }
1852:/home/simulink/cFS_FreeRTOS_seL4/cfe/fsw/cfe-core/src/es/cfe_es_apps.c ****     OS_printf("Number of Counting Semaphores: %d\n",(int) NumCountSems);
 3433               	.loc 2 1852 0 is_stmt 1
 3434 1db6 2F2F 00EC 	move.l 236(%sp),-(%sp)
 3435               	.cfi_def_cfa_offset 252
 3436 1dba 4879 0000 	pea .LC58
 3436      0000 
 3437               	.cfi_def_cfa_offset 256
 3438 1dc0 4EB9 0000 	jsr OS_printf
 3438      0000 
 3439 1dc6 508F      	addq.l #8,%sp
 3440               	.cfi_def_cfa_offset 248
1853:/home/simulink/cFS_FreeRTOS_seL4/cfe/fsw/cfe-core/src/es/cfe_es_apps.c ****     
1854:/home/simulink/cFS_FreeRTOS_seL4/cfe/fsw/cfe-core/src/es/cfe_es_apps.c ****     
1855:/home/simulink/cFS_FreeRTOS_seL4/cfe/fsw/cfe-core/src/es/cfe_es_apps.c ****     for ( i= 0; i < OS_MAX_BIN_SEMAPHORES; i++)
 3441               	.loc 2 1855 0
 3442 1dc8 42AF 00D8 	clr.l 216(%sp)
 3443 1dcc 6022      	jra .L148
 3444               	.L150:
1856:/home/simulink/cFS_FreeRTOS_seL4/cfe/fsw/cfe-core/src/es/cfe_es_apps.c ****     {
1857:/home/simulink/cFS_FreeRTOS_seL4/cfe/fsw/cfe-core/src/es/cfe_es_apps.c ****         if (OS_BinSemGetInfo(i, &SemProp) == OS_SUCCESS)
 3445               	.loc 2 1857 0
 3446 1dce 200F      	move.l %sp,%d0
 3447 1dd0 0680 0000 	add.l #128,%d0
 3447      0080 
 3448 1dd6 2F00      	move.l %d0,-(%sp)
68K GAS   			page 116


 3449               	.cfi_def_cfa_offset 252
 3450 1dd8 2F2F 00DC 	move.l 220(%sp),-(%sp)
 3451               	.cfi_def_cfa_offset 256
 3452 1ddc 4EB9 0000 	jsr OS_BinSemGetInfo
 3452      0000 
 3453 1de2 508F      	addq.l #8,%sp
 3454               	.cfi_def_cfa_offset 248
 3455 1de4 4A80      	tst.l %d0
 3456 1de6 6604      	jne .L149
1858:/home/simulink/cFS_FreeRTOS_seL4/cfe/fsw/cfe-core/src/es/cfe_es_apps.c ****         {
1859:/home/simulink/cFS_FreeRTOS_seL4/cfe/fsw/cfe-core/src/es/cfe_es_apps.c ****             NumSemaphores++;
 3457               	.loc 2 1859 0
 3458 1de8 52AF 00F0 	addq.l #1,240(%sp)
 3459               	.L149:
1855:/home/simulink/cFS_FreeRTOS_seL4/cfe/fsw/cfe-core/src/es/cfe_es_apps.c ****     {
 3460               	.loc 2 1855 0 discriminator 2
 3461 1dec 52AF 00D8 	addq.l #1,216(%sp)
 3462               	.L148:
1855:/home/simulink/cFS_FreeRTOS_seL4/cfe/fsw/cfe-core/src/es/cfe_es_apps.c ****     {
 3463               	.loc 2 1855 0 is_stmt 0 discriminator 1
 3464 1df0 7013      	moveq #19,%d0
 3465 1df2 B0AF 00D8 	cmp.l 216(%sp),%d0
 3466 1df6 64D6      	jcc .L150
1860:/home/simulink/cFS_FreeRTOS_seL4/cfe/fsw/cfe-core/src/es/cfe_es_apps.c ****         }
1861:/home/simulink/cFS_FreeRTOS_seL4/cfe/fsw/cfe-core/src/es/cfe_es_apps.c ****     }
1862:/home/simulink/cFS_FreeRTOS_seL4/cfe/fsw/cfe-core/src/es/cfe_es_apps.c ****     OS_printf("Number of Binary Semaphores: %d\n",(int) NumSemaphores);
 3467               	.loc 2 1862 0 is_stmt 1
 3468 1df8 2F2F 00F0 	move.l 240(%sp),-(%sp)
 3469               	.cfi_def_cfa_offset 252
 3470 1dfc 4879 0000 	pea .LC59
 3470      0000 
 3471               	.cfi_def_cfa_offset 256
 3472 1e02 4EB9 0000 	jsr OS_printf
 3472      0000 
 3473 1e08 508F      	addq.l #8,%sp
 3474               	.cfi_def_cfa_offset 248
1863:/home/simulink/cFS_FreeRTOS_seL4/cfe/fsw/cfe-core/src/es/cfe_es_apps.c **** 
1864:/home/simulink/cFS_FreeRTOS_seL4/cfe/fsw/cfe-core/src/es/cfe_es_apps.c **** 
1865:/home/simulink/cFS_FreeRTOS_seL4/cfe/fsw/cfe-core/src/es/cfe_es_apps.c ****     for ( i= 0; i < OS_MAX_MUTEXES; i++)
 3475               	.loc 2 1865 0
 3476 1e0a 42AF 00D8 	clr.l 216(%sp)
 3477 1e0e 6022      	jra .L151
 3478               	.L153:
1866:/home/simulink/cFS_FreeRTOS_seL4/cfe/fsw/cfe-core/src/es/cfe_es_apps.c ****     {
1867:/home/simulink/cFS_FreeRTOS_seL4/cfe/fsw/cfe-core/src/es/cfe_es_apps.c ****         if (OS_MutSemGetInfo(i, &MutProp) == OS_SUCCESS)
 3479               	.loc 2 1867 0
 3480 1e10 200F      	move.l %sp,%d0
 3481 1e12 0680 0000 	add.l #76,%d0
 3481      004C 
 3482 1e18 2F00      	move.l %d0,-(%sp)
 3483               	.cfi_def_cfa_offset 252
 3484 1e1a 2F2F 00DC 	move.l 220(%sp),-(%sp)
 3485               	.cfi_def_cfa_offset 256
 3486 1e1e 4EB9 0000 	jsr OS_MutSemGetInfo
 3486      0000 
 3487 1e24 508F      	addq.l #8,%sp
 3488               	.cfi_def_cfa_offset 248
68K GAS   			page 117


 3489 1e26 4A80      	tst.l %d0
 3490 1e28 6604      	jne .L152
1868:/home/simulink/cFS_FreeRTOS_seL4/cfe/fsw/cfe-core/src/es/cfe_es_apps.c ****         {
1869:/home/simulink/cFS_FreeRTOS_seL4/cfe/fsw/cfe-core/src/es/cfe_es_apps.c ****             NumMutexes++;
 3491               	.loc 2 1869 0
 3492 1e2a 52AF 00E8 	addq.l #1,232(%sp)
 3493               	.L152:
1865:/home/simulink/cFS_FreeRTOS_seL4/cfe/fsw/cfe-core/src/es/cfe_es_apps.c ****     {
 3494               	.loc 2 1865 0 discriminator 2
 3495 1e2e 52AF 00D8 	addq.l #1,216(%sp)
 3496               	.L151:
1865:/home/simulink/cFS_FreeRTOS_seL4/cfe/fsw/cfe-core/src/es/cfe_es_apps.c ****     {
 3497               	.loc 2 1865 0 is_stmt 0 discriminator 1
 3498 1e32 7013      	moveq #19,%d0
 3499 1e34 B0AF 00D8 	cmp.l 216(%sp),%d0
 3500 1e38 64D6      	jcc .L153
1870:/home/simulink/cFS_FreeRTOS_seL4/cfe/fsw/cfe-core/src/es/cfe_es_apps.c ****         }
1871:/home/simulink/cFS_FreeRTOS_seL4/cfe/fsw/cfe-core/src/es/cfe_es_apps.c ****     }
1872:/home/simulink/cFS_FreeRTOS_seL4/cfe/fsw/cfe-core/src/es/cfe_es_apps.c ****     OS_printf("Number of Mutexes: %d\n", (int) NumMutexes);
 3501               	.loc 2 1872 0 is_stmt 1
 3502 1e3a 2F2F 00E8 	move.l 232(%sp),-(%sp)
 3503               	.cfi_def_cfa_offset 252
 3504 1e3e 4879 0000 	pea .LC60
 3504      0000 
 3505               	.cfi_def_cfa_offset 256
 3506 1e44 4EB9 0000 	jsr OS_printf
 3506      0000 
 3507 1e4a 508F      	addq.l #8,%sp
 3508               	.cfi_def_cfa_offset 248
1873:/home/simulink/cFS_FreeRTOS_seL4/cfe/fsw/cfe-core/src/es/cfe_es_apps.c **** 
1874:/home/simulink/cFS_FreeRTOS_seL4/cfe/fsw/cfe-core/src/es/cfe_es_apps.c ****     for ( i= 0; i < OS_MAX_NUM_OPEN_FILES; i++)
 3509               	.loc 2 1874 0
 3510 1e4c 42AF 00D8 	clr.l 216(%sp)
 3511 1e50 601E      	jra .L154
 3512               	.L156:
1875:/home/simulink/cFS_FreeRTOS_seL4/cfe/fsw/cfe-core/src/es/cfe_es_apps.c ****     {
1876:/home/simulink/cFS_FreeRTOS_seL4/cfe/fsw/cfe-core/src/es/cfe_es_apps.c ****         if (OS_FDGetInfo(i, &FileProp) == OS_FS_SUCCESS)
 3513               	.loc 2 1876 0
 3514 1e52 222F 00D8 	move.l 216(%sp),%d1
 3515 1e56 200F      	move.l %sp,%d0
 3516 1e58 2F00      	move.l %d0,-(%sp)
 3517               	.cfi_def_cfa_offset 252
 3518 1e5a 2F01      	move.l %d1,-(%sp)
 3519               	.cfi_def_cfa_offset 256
 3520 1e5c 4EB9 0000 	jsr OS_FDGetInfo
 3520      0000 
 3521 1e62 508F      	addq.l #8,%sp
 3522               	.cfi_def_cfa_offset 248
 3523 1e64 4A80      	tst.l %d0
 3524 1e66 6604      	jne .L155
1877:/home/simulink/cFS_FreeRTOS_seL4/cfe/fsw/cfe-core/src/es/cfe_es_apps.c ****         {
1878:/home/simulink/cFS_FreeRTOS_seL4/cfe/fsw/cfe-core/src/es/cfe_es_apps.c ****             NumFiles++;
 3525               	.loc 2 1878 0
 3526 1e68 52AF 00DC 	addq.l #1,220(%sp)
 3527               	.L155:
1874:/home/simulink/cFS_FreeRTOS_seL4/cfe/fsw/cfe-core/src/es/cfe_es_apps.c ****     {
 3528               	.loc 2 1874 0 discriminator 2
68K GAS   			page 118


 3529 1e6c 52AF 00D8 	addq.l #1,216(%sp)
 3530               	.L154:
1874:/home/simulink/cFS_FreeRTOS_seL4/cfe/fsw/cfe-core/src/es/cfe_es_apps.c ****     {
 3531               	.loc 2 1874 0 is_stmt 0 discriminator 1
 3532 1e70 7031      	moveq #49,%d0
 3533 1e72 B0AF 00D8 	cmp.l 216(%sp),%d0
 3534 1e76 64DA      	jcc .L156
1879:/home/simulink/cFS_FreeRTOS_seL4/cfe/fsw/cfe-core/src/es/cfe_es_apps.c ****         }
1880:/home/simulink/cFS_FreeRTOS_seL4/cfe/fsw/cfe-core/src/es/cfe_es_apps.c ****     }
1881:/home/simulink/cFS_FreeRTOS_seL4/cfe/fsw/cfe-core/src/es/cfe_es_apps.c ****     OS_printf("Number of Open Files: %d\n",(int) NumFiles);
 3535               	.loc 2 1881 0 is_stmt 1
 3536 1e78 2F2F 00DC 	move.l 220(%sp),-(%sp)
 3537               	.cfi_def_cfa_offset 252
 3538 1e7c 4879 0000 	pea .LC61
 3538      0000 
 3539               	.cfi_def_cfa_offset 256
 3540 1e82 4EB9 0000 	jsr OS_printf
 3540      0000 
 3541 1e88 508F      	addq.l #8,%sp
 3542               	.cfi_def_cfa_offset 248
1882:/home/simulink/cFS_FreeRTOS_seL4/cfe/fsw/cfe-core/src/es/cfe_es_apps.c **** 
1883:/home/simulink/cFS_FreeRTOS_seL4/cfe/fsw/cfe-core/src/es/cfe_es_apps.c ****     return CFE_SUCCESS;
 3543               	.loc 2 1883 0
 3544 1e8a 4280      	clr.l %d0
1884:/home/simulink/cFS_FreeRTOS_seL4/cfe/fsw/cfe-core/src/es/cfe_es_apps.c **** 
1885:/home/simulink/cFS_FreeRTOS_seL4/cfe/fsw/cfe-core/src/es/cfe_es_apps.c **** }
 3545               	.loc 2 1885 0
 3546 1e8c 4FEF 00F4 	lea (244,%sp),%sp
 3547 1e90 4E75      	rts
 3548               	.cfi_endproc
 3549               	.LFE67:
 3550               	.sizeCFE_ES_ListResourcesDebug, .-CFE_ES_ListResourcesDebug
 3551               	.align2
 3552               	.globlCFE_ES_GetAppInfoInternal
 3553               	.typeCFE_ES_GetAppInfoInternal, @function
 3554               	CFE_ES_GetAppInfoInternal:
 3555               	.LFB68:
1886:/home/simulink/cFS_FreeRTOS_seL4/cfe/fsw/cfe-core/src/es/cfe_es_apps.c **** 
1887:/home/simulink/cFS_FreeRTOS_seL4/cfe/fsw/cfe-core/src/es/cfe_es_apps.c **** #endif
1888:/home/simulink/cFS_FreeRTOS_seL4/cfe/fsw/cfe-core/src/es/cfe_es_apps.c **** 
1889:/home/simulink/cFS_FreeRTOS_seL4/cfe/fsw/cfe-core/src/es/cfe_es_apps.c **** /*
1890:/home/simulink/cFS_FreeRTOS_seL4/cfe/fsw/cfe-core/src/es/cfe_es_apps.c **** **---------------------------------------------------------------------------------------
1891:/home/simulink/cFS_FreeRTOS_seL4/cfe/fsw/cfe-core/src/es/cfe_es_apps.c **** **   Name: CFE_ES_GetAppInfoInternal
1892:/home/simulink/cFS_FreeRTOS_seL4/cfe/fsw/cfe-core/src/es/cfe_es_apps.c **** **
1893:/home/simulink/cFS_FreeRTOS_seL4/cfe/fsw/cfe-core/src/es/cfe_es_apps.c **** **   Purpose: Populate the cFE_ES_AppInfo structure with the data for an app.
1894:/home/simulink/cFS_FreeRTOS_seL4/cfe/fsw/cfe-core/src/es/cfe_es_apps.c **** **---------------------------------------------------------------------------------------
1895:/home/simulink/cFS_FreeRTOS_seL4/cfe/fsw/cfe-core/src/es/cfe_es_apps.c **** */
1896:/home/simulink/cFS_FreeRTOS_seL4/cfe/fsw/cfe-core/src/es/cfe_es_apps.c **** void CFE_ES_GetAppInfoInternal(uint32 AppId, CFE_ES_AppInfo_t *AppInfoPtr )
1897:/home/simulink/cFS_FreeRTOS_seL4/cfe/fsw/cfe-core/src/es/cfe_es_apps.c **** {
 3556               	.loc 2 1897 0
 3557               	.cfi_startproc
 3558 1e92 4FEF FF7C 	lea (-132,%sp),%sp
 3559               	.cfi_def_cfa_offset 136
1898:/home/simulink/cFS_FreeRTOS_seL4/cfe/fsw/cfe-core/src/es/cfe_es_apps.c **** 
1899:/home/simulink/cFS_FreeRTOS_seL4/cfe/fsw/cfe-core/src/es/cfe_es_apps.c ****    int32              ReturnCode;
1900:/home/simulink/cFS_FreeRTOS_seL4/cfe/fsw/cfe-core/src/es/cfe_es_apps.c ****    OS_module_record_t ModuleInfo;
1901:/home/simulink/cFS_FreeRTOS_seL4/cfe/fsw/cfe-core/src/es/cfe_es_apps.c ****    uint32             TaskIndex;
68K GAS   			page 119


1902:/home/simulink/cFS_FreeRTOS_seL4/cfe/fsw/cfe-core/src/es/cfe_es_apps.c ****    
1903:/home/simulink/cFS_FreeRTOS_seL4/cfe/fsw/cfe-core/src/es/cfe_es_apps.c ****    
1904:/home/simulink/cFS_FreeRTOS_seL4/cfe/fsw/cfe-core/src/es/cfe_es_apps.c ****    CFE_ES_LockSharedData(__func__,__LINE__);
 3560               	.loc 2 1904 0
 3561 1e96 4878 0770 	pea 1904.w
 3562               	.cfi_def_cfa_offset 140
 3563 1e9a 4879 0000 	pea __func__.5947
 3563      0000 
 3564               	.cfi_def_cfa_offset 144
 3565 1ea0 4EB9 0000 	jsr CFE_ES_LockSharedData
 3565      0000 
 3566 1ea6 508F      	addq.l #8,%sp
 3567               	.cfi_def_cfa_offset 136
1905:/home/simulink/cFS_FreeRTOS_seL4/cfe/fsw/cfe-core/src/es/cfe_es_apps.c **** 
1906:/home/simulink/cFS_FreeRTOS_seL4/cfe/fsw/cfe-core/src/es/cfe_es_apps.c ****    AppInfoPtr->AppId = AppId;
 3568               	.loc 2 1906 0
 3569 1ea8 206F 008C 	move.l 140(%sp),%a0
 3570 1eac 20AF 0088 	move.l 136(%sp),(%a0)
1907:/home/simulink/cFS_FreeRTOS_seL4/cfe/fsw/cfe-core/src/es/cfe_es_apps.c ****    AppInfoPtr->Type = CFE_ES_Global.AppTable[AppId].Type;
 3571               	.loc 2 1907 0
 3572 1eb0 202F 0088 	move.l 136(%sp),%d0
 3573 1eb4 223C 0000 	move.l #168,%d1
 3573      00A8 
 3574 1eba 4C01 0800 	muls.l %d1,%d0
 3575 1ebe 41F9 0000 	lea CFE_ES_Global+2352,%a0
 3575      0000 
 3576 1ec4 2030 0800 	move.l (%a0,%d0.l),%d0
 3577 1ec8 206F 008C 	move.l 140(%sp),%a0
 3578 1ecc 2140 0004 	move.l %d0,4(%a0)
1908:/home/simulink/cFS_FreeRTOS_seL4/cfe/fsw/cfe-core/src/es/cfe_es_apps.c ****    strncpy((char *)AppInfoPtr->Name, (char *)CFE_ES_Global.AppTable[AppId].StartParams.Name, OS_MAX
 3579               	.loc 2 1908 0
 3580 1ed0 202F 0088 	move.l 136(%sp),%d0
 3581 1ed4 223C 0000 	move.l #168,%d1
 3581      00A8 
 3582 1eda 4C01 0800 	muls.l %d1,%d0
 3583 1ede 0680 0000 	add.l #2356,%d0
 3583      0934 
 3584 1ee4 0680 0000 	add.l #CFE_ES_Global,%d0
 3584      0000 
 3585 1eea 222F 008C 	move.l 140(%sp),%d1
 3586 1eee 5081      	addq.l #8,%d1
 3587 1ef0 4878 0014 	pea 20.w
 3588               	.cfi_def_cfa_offset 140
 3589 1ef4 2F00      	move.l %d0,-(%sp)
 3590               	.cfi_def_cfa_offset 144
 3591 1ef6 2F01      	move.l %d1,-(%sp)
 3592               	.cfi_def_cfa_offset 148
 3593 1ef8 4EB9 0000 	jsr strncpy
 3593      0000 
 3594 1efe 4FEF 000C 	lea (12,%sp),%sp
 3595               	.cfi_def_cfa_offset 136
1909:/home/simulink/cFS_FreeRTOS_seL4/cfe/fsw/cfe-core/src/es/cfe_es_apps.c ****    AppInfoPtr->Name[OS_MAX_API_NAME - 1] = '\0';
 3596               	.loc 2 1909 0
 3597 1f02 206F 008C 	move.l 140(%sp),%a0
 3598 1f06 4200      	clr.b %d0
 3599 1f08 1140 001B 	move.b %d0,27(%a0)
1910:/home/simulink/cFS_FreeRTOS_seL4/cfe/fsw/cfe-core/src/es/cfe_es_apps.c **** 
68K GAS   			page 120


1911:/home/simulink/cFS_FreeRTOS_seL4/cfe/fsw/cfe-core/src/es/cfe_es_apps.c ****    strncpy((char *)AppInfoPtr->EntryPoint, (char *)CFE_ES_Global.AppTable[AppId].StartParams.EntryP
 3600               	.loc 2 1911 0
 3601 1f0c 202F 0088 	move.l 136(%sp),%d0
 3602 1f10 223C 0000 	move.l #168,%d1
 3602      00A8 
 3603 1f16 4C01 0800 	muls.l %d1,%d0
 3604 1f1a 0680 0000 	add.l #2376,%d0
 3604      0948 
 3605 1f20 2200      	move.l %d0,%d1
 3606 1f22 0681 0000 	add.l #CFE_ES_Global,%d1
 3606      0000 
 3607 1f28 202F 008C 	move.l 140(%sp),%d0
 3608 1f2c 0680 0000 	add.l #28,%d0
 3608      001C 
 3609 1f32 4878 0014 	pea 20.w
 3610               	.cfi_def_cfa_offset 140
 3611 1f36 2F01      	move.l %d1,-(%sp)
 3612               	.cfi_def_cfa_offset 144
 3613 1f38 2F00      	move.l %d0,-(%sp)
 3614               	.cfi_def_cfa_offset 148
 3615 1f3a 4EB9 0000 	jsr strncpy
 3615      0000 
 3616 1f40 4FEF 000C 	lea (12,%sp),%sp
 3617               	.cfi_def_cfa_offset 136
1912:/home/simulink/cFS_FreeRTOS_seL4/cfe/fsw/cfe-core/src/es/cfe_es_apps.c ****    AppInfoPtr->EntryPoint[OS_MAX_API_NAME - 1] = '\0';
 3618               	.loc 2 1912 0
 3619 1f44 206F 008C 	move.l 140(%sp),%a0
 3620 1f48 4200      	clr.b %d0
 3621 1f4a 1140 002F 	move.b %d0,47(%a0)
1913:/home/simulink/cFS_FreeRTOS_seL4/cfe/fsw/cfe-core/src/es/cfe_es_apps.c ****    
1914:/home/simulink/cFS_FreeRTOS_seL4/cfe/fsw/cfe-core/src/es/cfe_es_apps.c ****    strncpy((char *)AppInfoPtr->FileName, (char *)CFE_ES_Global.AppTable[AppId].StartParams.FileName
 3622               	.loc 2 1914 0
 3623 1f4e 202F 0088 	move.l 136(%sp),%d0
 3624 1f52 223C 0000 	move.l #168,%d1
 3624      00A8 
 3625 1f58 4C01 0800 	muls.l %d1,%d0
 3626 1f5c 0680 0000 	add.l #2396,%d0
 3626      095C 
 3627 1f62 2200      	move.l %d0,%d1
 3628 1f64 0681 0000 	add.l #CFE_ES_Global,%d1
 3628      0000 
 3629 1f6a 202F 008C 	move.l 140(%sp),%d0
 3630 1f6e 0680 0000 	add.l #48,%d0
 3630      0030 
 3631 1f74 4878 0040 	pea 64.w
 3632               	.cfi_def_cfa_offset 140
 3633 1f78 2F01      	move.l %d1,-(%sp)
 3634               	.cfi_def_cfa_offset 144
 3635 1f7a 2F00      	move.l %d0,-(%sp)
 3636               	.cfi_def_cfa_offset 148
 3637 1f7c 4EB9 0000 	jsr strncpy
 3637      0000 
 3638 1f82 4FEF 000C 	lea (12,%sp),%sp
 3639               	.cfi_def_cfa_offset 136
1915:/home/simulink/cFS_FreeRTOS_seL4/cfe/fsw/cfe-core/src/es/cfe_es_apps.c ****    AppInfoPtr->FileName[OS_MAX_PATH_LEN - 1] = '\0';
 3640               	.loc 2 1915 0
 3641 1f86 206F 008C 	move.l 140(%sp),%a0
68K GAS   			page 121


 3642 1f8a 4200      	clr.b %d0
 3643 1f8c 1140 006F 	move.b %d0,111(%a0)
1916:/home/simulink/cFS_FreeRTOS_seL4/cfe/fsw/cfe-core/src/es/cfe_es_apps.c ****    
1917:/home/simulink/cFS_FreeRTOS_seL4/cfe/fsw/cfe-core/src/es/cfe_es_apps.c ****    AppInfoPtr->ModuleId = CFE_ES_Global.AppTable[AppId].StartParams.ModuleId;
 3644               	.loc 2 1917 0
 3645 1f90 202F 0088 	move.l 136(%sp),%d0
 3646 1f94 223C 0000 	move.l #168,%d1
 3646      00A8 
 3647 1f9a 4C01 0800 	muls.l %d1,%d0
 3648 1f9e 41F9 0000 	lea CFE_ES_Global+2468,%a0
 3648      0000 
 3649 1fa4 2030 0800 	move.l (%a0,%d0.l),%d0
 3650 1fa8 206F 008C 	move.l 140(%sp),%a0
 3651 1fac 2140 0074 	move.l %d0,116(%a0)
1918:/home/simulink/cFS_FreeRTOS_seL4/cfe/fsw/cfe-core/src/es/cfe_es_apps.c ****    AppInfoPtr->StackSize = CFE_ES_Global.AppTable[AppId].StartParams.StackSize;
 3652               	.loc 2 1918 0
 3653 1fb0 202F 0088 	move.l 136(%sp),%d0
 3654 1fb4 223C 0000 	move.l #168,%d1
 3654      00A8 
 3655 1fba 4C01 0800 	muls.l %d1,%d0
 3656 1fbe 41F9 0000 	lea CFE_ES_Global+2460,%a0
 3656      0000 
 3657 1fc4 2030 0800 	move.l (%a0,%d0.l),%d0
 3658 1fc8 206F 008C 	move.l 140(%sp),%a0
 3659 1fcc 2140 0070 	move.l %d0,112(%a0)
1919:/home/simulink/cFS_FreeRTOS_seL4/cfe/fsw/cfe-core/src/es/cfe_es_apps.c ****    CFE_SB_SET_MEMADDR(AppInfoPtr->StartAddress, CFE_ES_Global.AppTable[AppId].StartParams.StartAddr
 3660               	.loc 2 1919 0
 3661 1fd0 202F 0088 	move.l 136(%sp),%d0
 3662 1fd4 223C 0000 	move.l #168,%d1
 3662      00A8 
 3663 1fda 4C01 0800 	muls.l %d1,%d0
 3664 1fde 41F9 0000 	lea CFE_ES_Global+2464,%a0
 3664      0000 
 3665 1fe4 2030 0800 	move.l (%a0,%d0.l),%d0
 3666 1fe8 206F 008C 	move.l 140(%sp),%a0
 3667 1fec 2140 0094 	move.l %d0,148(%a0)
1920:/home/simulink/cFS_FreeRTOS_seL4/cfe/fsw/cfe-core/src/es/cfe_es_apps.c ****    AppInfoPtr->ExceptionAction = CFE_ES_Global.AppTable[AppId].StartParams.ExceptionAction;
 3668               	.loc 2 1920 0
 3669 1ff0 202F 0088 	move.l 136(%sp),%d0
 3670 1ff4 223C 0000 	move.l #168,%d1
 3670      00A8 
 3671 1ffa 4C01 0800 	muls.l %d1,%d0
 3672 1ffe 41F9 0000 	lea CFE_ES_Global+2472,%a0
 3672      0000 
 3673 2004 3030 0800 	move.w (%a0,%d0.l),%d0
 3674 2008 206F 008C 	move.l 140(%sp),%a0
 3675 200c 3140 0098 	move.w %d0,152(%a0)
1921:/home/simulink/cFS_FreeRTOS_seL4/cfe/fsw/cfe-core/src/es/cfe_es_apps.c ****    AppInfoPtr->Priority = CFE_ES_Global.AppTable[AppId].StartParams.Priority;
 3676               	.loc 2 1921 0
 3677 2010 202F 0088 	move.l 136(%sp),%d0
 3678 2014 223C 0000 	move.l #168,%d1
 3678      00A8 
 3679 201a 4C01 0800 	muls.l %d1,%d0
 3680 201e 41F9 0000 	lea CFE_ES_Global+2474,%a0
 3680      0000 
 3681 2024 3030 0800 	move.w (%a0,%d0.l),%d0
 3682 2028 206F 008C 	move.l 140(%sp),%a0
68K GAS   			page 122


 3683 202c 3140 009A 	move.w %d0,154(%a0)
1922:/home/simulink/cFS_FreeRTOS_seL4/cfe/fsw/cfe-core/src/es/cfe_es_apps.c ****  
1923:/home/simulink/cFS_FreeRTOS_seL4/cfe/fsw/cfe-core/src/es/cfe_es_apps.c ****    AppInfoPtr->MainTaskId = CFE_ES_Global.AppTable[AppId].TaskInfo.MainTaskId;   
 3684               	.loc 2 1923 0
 3685 2030 202F 0088 	move.l 136(%sp),%d0
 3686 2034 223C 0000 	move.l #168,%d1
 3686      00A8 
 3687 203a 4C01 0800 	muls.l %d1,%d0
 3688 203e 41F9 0000 	lea CFE_ES_Global+2488,%a0
 3688      0000 
 3689 2044 2030 0800 	move.l (%a0,%d0.l),%d0
 3690 2048 206F 008C 	move.l 140(%sp),%a0
 3691 204c 2140 009C 	move.l %d0,156(%a0)
1924:/home/simulink/cFS_FreeRTOS_seL4/cfe/fsw/cfe-core/src/es/cfe_es_apps.c ****    strncpy((char *)AppInfoPtr->MainTaskName, (char *)CFE_ES_Global.AppTable[AppId].TaskInfo.MainTas
 3692               	.loc 2 1924 0
 3693 2050 202F 0088 	move.l 136(%sp),%d0
 3694 2054 223C 0000 	move.l #168,%d1
 3694      00A8 
 3695 205a 4C01 0800 	muls.l %d1,%d0
 3696 205e 0680 0000 	add.l #2492,%d0
 3696      09BC 
 3697 2064 2200      	move.l %d0,%d1
 3698 2066 0681 0000 	add.l #CFE_ES_Global,%d1
 3698      0000 
 3699 206c 202F 008C 	move.l 140(%sp),%d0
 3700 2070 0680 0000 	add.l #164,%d0
 3700      00A4 
 3701 2076 4878 0014 	pea 20.w
 3702               	.cfi_def_cfa_offset 140
 3703 207a 2F01      	move.l %d1,-(%sp)
 3704               	.cfi_def_cfa_offset 144
 3705 207c 2F00      	move.l %d0,-(%sp)
 3706               	.cfi_def_cfa_offset 148
 3707 207e 4EB9 0000 	jsr strncpy
 3707      0000 
 3708 2084 4FEF 000C 	lea (12,%sp),%sp
 3709               	.cfi_def_cfa_offset 136
1925:/home/simulink/cFS_FreeRTOS_seL4/cfe/fsw/cfe-core/src/es/cfe_es_apps.c ****    AppInfoPtr->MainTaskName[OS_MAX_API_NAME - 1] = '\0';
 3710               	.loc 2 1925 0
 3711 2088 206F 008C 	move.l 140(%sp),%a0
 3712 208c 4200      	clr.b %d0
 3713 208e 1140 00B7 	move.b %d0,183(%a0)
1926:/home/simulink/cFS_FreeRTOS_seL4/cfe/fsw/cfe-core/src/es/cfe_es_apps.c ****    AppInfoPtr->NumOfChildTasks = CFE_ES_Global.AppTable[AppId].TaskInfo.NumOfChildTasks;
 3714               	.loc 2 1926 0
 3715 2092 202F 0088 	move.l 136(%sp),%d0
 3716 2096 223C 0000 	move.l #168,%d1
 3716      00A8 
 3717 209c 4C01 0800 	muls.l %d1,%d0
 3718 20a0 41F9 0000 	lea CFE_ES_Global+2512,%a0
 3718      0000 
 3719 20a6 2030 0800 	move.l (%a0,%d0.l),%d0
 3720 20aa 206F 008C 	move.l 140(%sp),%a0
 3721 20ae 2140 00B8 	move.l %d0,184(%a0)
1927:/home/simulink/cFS_FreeRTOS_seL4/cfe/fsw/cfe-core/src/es/cfe_es_apps.c **** 
1928:/home/simulink/cFS_FreeRTOS_seL4/cfe/fsw/cfe-core/src/es/cfe_es_apps.c ****    /*
1929:/home/simulink/cFS_FreeRTOS_seL4/cfe/fsw/cfe-core/src/es/cfe_es_apps.c ****    ** Get the execution counter for the main task
1930:/home/simulink/cFS_FreeRTOS_seL4/cfe/fsw/cfe-core/src/es/cfe_es_apps.c ****    */
68K GAS   			page 123


1931:/home/simulink/cFS_FreeRTOS_seL4/cfe/fsw/cfe-core/src/es/cfe_es_apps.c ****    if (OS_ConvertToArrayIndex(AppInfoPtr->MainTaskId, &TaskIndex) == OS_SUCCESS)
 3722               	.loc 2 1931 0
 3723 20b2 206F 008C 	move.l 140(%sp),%a0
 3724 20b6 2228 009C 	move.l 156(%a0),%d1
 3725 20ba 200F      	move.l %sp,%d0
 3726 20bc 2F00      	move.l %d0,-(%sp)
 3727               	.cfi_def_cfa_offset 140
 3728 20be 2F01      	move.l %d1,-(%sp)
 3729               	.cfi_def_cfa_offset 144
 3730 20c0 4EBA DF3E 	jsr OS_ConvertToArrayIndex
 3731 20c4 508F      	addq.l #8,%sp
 3732               	.cfi_def_cfa_offset 136
 3733 20c6 4A80      	tst.l %d0
 3734 20c8 661A      	jne .L159
1932:/home/simulink/cFS_FreeRTOS_seL4/cfe/fsw/cfe-core/src/es/cfe_es_apps.c ****    {
1933:/home/simulink/cFS_FreeRTOS_seL4/cfe/fsw/cfe-core/src/es/cfe_es_apps.c ****       AppInfoPtr->ExecutionCounter = CFE_ES_Global.TaskTable[TaskIndex].ExecutionCounter;
 3735               	.loc 2 1933 0
 3736 20ca 2017      	move.l (%sp),%d0
 3737 20cc 7224      	moveq #36,%d1
 3738 20ce 4C01 0800 	muls.l %d1,%d0
 3739 20d2 41F9 0000 	lea CFE_ES_Global+48,%a0
 3739      0000 
 3740 20d8 2030 0800 	move.l (%a0,%d0.l),%d0
 3741 20dc 206F 008C 	move.l 140(%sp),%a0
 3742 20e0 2140 00A0 	move.l %d0,160(%a0)
 3743               	.L159:
1934:/home/simulink/cFS_FreeRTOS_seL4/cfe/fsw/cfe-core/src/es/cfe_es_apps.c ****    }
1935:/home/simulink/cFS_FreeRTOS_seL4/cfe/fsw/cfe-core/src/es/cfe_es_apps.c **** 
1936:/home/simulink/cFS_FreeRTOS_seL4/cfe/fsw/cfe-core/src/es/cfe_es_apps.c ****    /* 
1937:/home/simulink/cFS_FreeRTOS_seL4/cfe/fsw/cfe-core/src/es/cfe_es_apps.c ****    ** Get the address information from the OSAL
1938:/home/simulink/cFS_FreeRTOS_seL4/cfe/fsw/cfe-core/src/es/cfe_es_apps.c ****    */
1939:/home/simulink/cFS_FreeRTOS_seL4/cfe/fsw/cfe-core/src/es/cfe_es_apps.c ****    ReturnCode = OS_ModuleInfo ( AppInfoPtr->ModuleId, &ModuleInfo );
 3744               	.loc 2 1939 0
 3745 20e4 206F 008C 	move.l 140(%sp),%a0
 3746 20e8 2228 0074 	move.l 116(%a0),%d1
 3747 20ec 200F      	move.l %sp,%d0
 3748 20ee 5880      	addq.l #4,%d0
 3749 20f0 2F00      	move.l %d0,-(%sp)
 3750               	.cfi_def_cfa_offset 140
 3751 20f2 2F01      	move.l %d1,-(%sp)
 3752               	.cfi_def_cfa_offset 144
 3753 20f4 4EB9 0000 	jsr OS_ModuleInfo
 3753      0000 
 3754 20fa 508F      	addq.l #8,%sp
 3755               	.cfi_def_cfa_offset 136
 3756 20fc 2F40 0080 	move.l %d0,128(%sp)
1940:/home/simulink/cFS_FreeRTOS_seL4/cfe/fsw/cfe-core/src/es/cfe_es_apps.c ****    if ( ReturnCode == OS_SUCCESS )
 3757               	.loc 2 1940 0
 3758 2100 4AAF 0080 	tst.l 128(%sp)
 3759 2104 6656      	jne .L160
1941:/home/simulink/cFS_FreeRTOS_seL4/cfe/fsw/cfe-core/src/es/cfe_es_apps.c ****    {
1942:/home/simulink/cFS_FreeRTOS_seL4/cfe/fsw/cfe-core/src/es/cfe_es_apps.c ****       AppInfoPtr->AddressesAreValid = ModuleInfo.addr.valid;
 3760               	.loc 2 1942 0
 3761 2106 202F 0060 	move.l 96(%sp),%d0
 3762 210a 206F 008C 	move.l 140(%sp),%a0
 3763 210e 2140 0078 	move.l %d0,120(%a0)
1943:/home/simulink/cFS_FreeRTOS_seL4/cfe/fsw/cfe-core/src/es/cfe_es_apps.c ****       CFE_SB_SET_MEMADDR(AppInfoPtr->CodeAddress, ModuleInfo.addr.code_address);
68K GAS   			page 124


 3764               	.loc 2 1943 0
 3765 2112 202F 0068 	move.l 104(%sp),%d0
 3766 2116 206F 008C 	move.l 140(%sp),%a0
 3767 211a 2140 007C 	move.l %d0,124(%a0)
1944:/home/simulink/cFS_FreeRTOS_seL4/cfe/fsw/cfe-core/src/es/cfe_es_apps.c ****       CFE_SB_SET_MEMADDR(AppInfoPtr->CodeSize, ModuleInfo.addr.code_size);
 3768               	.loc 2 1944 0
 3769 211e 202F 006C 	move.l 108(%sp),%d0
 3770 2122 206F 008C 	move.l 140(%sp),%a0
 3771 2126 2140 0080 	move.l %d0,128(%a0)
1945:/home/simulink/cFS_FreeRTOS_seL4/cfe/fsw/cfe-core/src/es/cfe_es_apps.c ****       CFE_SB_SET_MEMADDR(AppInfoPtr->DataAddress, ModuleInfo.addr.data_address);
 3772               	.loc 2 1945 0
 3773 212a 202F 0070 	move.l 112(%sp),%d0
 3774 212e 206F 008C 	move.l 140(%sp),%a0
 3775 2132 2140 0084 	move.l %d0,132(%a0)
1946:/home/simulink/cFS_FreeRTOS_seL4/cfe/fsw/cfe-core/src/es/cfe_es_apps.c ****       CFE_SB_SET_MEMADDR(AppInfoPtr->DataSize, ModuleInfo.addr.data_size);
 3776               	.loc 2 1946 0
 3777 2136 202F 0074 	move.l 116(%sp),%d0
 3778 213a 206F 008C 	move.l 140(%sp),%a0
 3779 213e 2140 0088 	move.l %d0,136(%a0)
1947:/home/simulink/cFS_FreeRTOS_seL4/cfe/fsw/cfe-core/src/es/cfe_es_apps.c ****       CFE_SB_SET_MEMADDR(AppInfoPtr->BSSAddress, ModuleInfo.addr.bss_address);
 3780               	.loc 2 1947 0
 3781 2142 202F 0078 	move.l 120(%sp),%d0
 3782 2146 206F 008C 	move.l 140(%sp),%a0
 3783 214a 2140 008C 	move.l %d0,140(%a0)
1948:/home/simulink/cFS_FreeRTOS_seL4/cfe/fsw/cfe-core/src/es/cfe_es_apps.c ****       CFE_SB_SET_MEMADDR(AppInfoPtr->BSSSize, ModuleInfo.addr.bss_size);
 3784               	.loc 2 1948 0
 3785 214e 202F 007C 	move.l 124(%sp),%d0
 3786 2152 206F 008C 	move.l 140(%sp),%a0
 3787 2156 2140 0090 	move.l %d0,144(%a0)
 3788 215a 6038      	jra .L161
 3789               	.L160:
1949:/home/simulink/cFS_FreeRTOS_seL4/cfe/fsw/cfe-core/src/es/cfe_es_apps.c ****    } 
1950:/home/simulink/cFS_FreeRTOS_seL4/cfe/fsw/cfe-core/src/es/cfe_es_apps.c ****    else
1951:/home/simulink/cFS_FreeRTOS_seL4/cfe/fsw/cfe-core/src/es/cfe_es_apps.c ****    {
1952:/home/simulink/cFS_FreeRTOS_seL4/cfe/fsw/cfe-core/src/es/cfe_es_apps.c ****       AppInfoPtr->AddressesAreValid = FALSE;
 3790               	.loc 2 1952 0
 3791 215c 206F 008C 	move.l 140(%sp),%a0
 3792 2160 42A8 0078 	clr.l 120(%a0)
1953:/home/simulink/cFS_FreeRTOS_seL4/cfe/fsw/cfe-core/src/es/cfe_es_apps.c ****       AppInfoPtr->CodeAddress = 0;
 3793               	.loc 2 1953 0
 3794 2164 206F 008C 	move.l 140(%sp),%a0
 3795 2168 42A8 007C 	clr.l 124(%a0)
1954:/home/simulink/cFS_FreeRTOS_seL4/cfe/fsw/cfe-core/src/es/cfe_es_apps.c ****       AppInfoPtr->CodeSize = 0;
 3796               	.loc 2 1954 0
 3797 216c 206F 008C 	move.l 140(%sp),%a0
 3798 2170 42A8 0080 	clr.l 128(%a0)
1955:/home/simulink/cFS_FreeRTOS_seL4/cfe/fsw/cfe-core/src/es/cfe_es_apps.c ****       AppInfoPtr->DataAddress = 0;
 3799               	.loc 2 1955 0
 3800 2174 206F 008C 	move.l 140(%sp),%a0
 3801 2178 42A8 0084 	clr.l 132(%a0)
1956:/home/simulink/cFS_FreeRTOS_seL4/cfe/fsw/cfe-core/src/es/cfe_es_apps.c ****       AppInfoPtr->DataSize = 0;
 3802               	.loc 2 1956 0
 3803 217c 206F 008C 	move.l 140(%sp),%a0
 3804 2180 42A8 0088 	clr.l 136(%a0)
1957:/home/simulink/cFS_FreeRTOS_seL4/cfe/fsw/cfe-core/src/es/cfe_es_apps.c ****       AppInfoPtr->BSSAddress = 0;
 3805               	.loc 2 1957 0
 3806 2184 206F 008C 	move.l 140(%sp),%a0
68K GAS   			page 125


 3807 2188 42A8 008C 	clr.l 140(%a0)
1958:/home/simulink/cFS_FreeRTOS_seL4/cfe/fsw/cfe-core/src/es/cfe_es_apps.c ****       AppInfoPtr->BSSSize = 0;
 3808               	.loc 2 1958 0
 3809 218c 206F 008C 	move.l 140(%sp),%a0
 3810 2190 42A8 0090 	clr.l 144(%a0)
 3811               	.L161:
1959:/home/simulink/cFS_FreeRTOS_seL4/cfe/fsw/cfe-core/src/es/cfe_es_apps.c ****    }
1960:/home/simulink/cFS_FreeRTOS_seL4/cfe/fsw/cfe-core/src/es/cfe_es_apps.c ****    
1961:/home/simulink/cFS_FreeRTOS_seL4/cfe/fsw/cfe-core/src/es/cfe_es_apps.c **** 
1962:/home/simulink/cFS_FreeRTOS_seL4/cfe/fsw/cfe-core/src/es/cfe_es_apps.c **** 
1963:/home/simulink/cFS_FreeRTOS_seL4/cfe/fsw/cfe-core/src/es/cfe_es_apps.c ****    CFE_ES_UnlockSharedData(__func__,__LINE__);
 3812               	.loc 2 1963 0
 3813 2194 4878 07AB 	pea 1963.w
 3814               	.cfi_def_cfa_offset 140
 3815 2198 4879 0000 	pea __func__.5947
 3815      0000 
 3816               	.cfi_def_cfa_offset 144
 3817 219e 4EB9 0000 	jsr CFE_ES_UnlockSharedData
 3817      0000 
 3818 21a4 508F      	addq.l #8,%sp
 3819               	.cfi_def_cfa_offset 136
1964:/home/simulink/cFS_FreeRTOS_seL4/cfe/fsw/cfe-core/src/es/cfe_es_apps.c **** 
1965:/home/simulink/cFS_FreeRTOS_seL4/cfe/fsw/cfe-core/src/es/cfe_es_apps.c **** } /* end function */
 3820               	.loc 2 1965 0
 3821 21a6 4E71      	nop
 3822 21a8 4FEF 0084 	lea (132,%sp),%sp
 3823 21ac 4E75      	rts
 3824               	.cfi_endproc
 3825               	.LFE68:
 3826               	.sizeCFE_ES_GetAppInfoInternal, .-CFE_ES_GetAppInfoInternal
 3827               	.section.rodata
 3828               	.type__func__.5819, @object
 3829               	.size__func__.5819, 17
 3830               	__func__.5819:
 3831 0b3b 4346 455F 	.string"CFE_ES_AppCreate"
 3831      4553 5F41 
 3831      7070 4372 
 3831      6561 7465 
 3831      00
 3832               	.type__func__.5840, @object
 3833               	.size__func__.5840, 19
 3834               	__func__.5840:
 3835 0b4c 4346 455F 	.string"CFE_ES_LoadLibrary"
 3835      4553 5F4C 
 3835      6F61 644C 
 3835      6962 7261 
 3835      7279 00
 3836               	.type__func__.5872, @object
 3837               	.size__func__.5872, 18
 3838               	__func__.5872:
 3839 0b5f 4346 455F 	.string"CFE_ES_CleanUpApp"
 3839      4553 5F43 
 3839      6C65 616E 
 3839      5570 4170 
 3839      7000 
 3840               	.type__func__.5947, @object
 3841               	.size__func__.5947, 26
68K GAS   			page 126


 3842               	__func__.5947:
 3843 0b71 4346 455F 	.string"CFE_ES_GetAppInfoInternal"
 3843      4553 5F47 
 3843      6574 4170 
 3843      7049 6E66 
 3843      6F49 6E74 
 3844               	.text
 3845               	.Letext0:
 3846               	.file 3 "/home/simulink/cFS_FreeRTOS_seL4/osal/src/os/inc/common_types.h"
 3847               	.file 4 "/home/simulink/cFS_FreeRTOS_seL4/osal/src/os/inc/osapi-os-core.h"
 3848               	.file 5 "/home/simulink/development/rtems/5/m68k-rtems5/include/machine/_default_types.h"
 3849               	.file 6 "/home/simulink/development/rtems/5/lib/gcc/m68k-rtems5/7.3.0/include/stddef.h"
 3850               	.file 7 "/home/simulink/development/rtems/5/m68k-rtems5/include/machine/_types.h"
 3851               	.file 8 "/home/simulink/development/rtems/5/m68k-rtems5/include/sys/lock.h"
 3852               	.file 9 "/home/simulink/development/rtems/5/m68k-rtems5/include/sys/_types.h"
 3853               	.file 10 "/home/simulink/development/rtems/5/m68k-rtems5/include/sys/reent.h"
 3854               	.file 11 "/home/simulink/development/rtems/5/m68k-rtems5/include/stdlib.h"
 3855               	.file 12 "/home/simulink/development/rtems/5/m68k-rtems5/include/time.h"
 3856               	.file 13 "/home/simulink/cFS_FreeRTOS_seL4/osal/src/os/inc/osapi-os-filesys.h"
 3857               	.file 14 "/home/simulink/cFS_FreeRTOS_seL4/osal/src/os/inc/osapi-os-loader.h"
 3858               	.file 15 "/home/simulink/cFS_FreeRTOS_seL4/osal/src/os/inc/osapi-os-timer.h"
 3859               	.file 16 "/home/simulink/cFS_FreeRTOS_seL4/cfe/fsw/cfe-core/src/inc/cfe_time.h"
 3860               	.file 17 "/home/simulink/cFS_FreeRTOS_seL4/cfe/fsw/cfe-core/src/inc/cfe_sb.h"
 3861               	.file 18 "/home/simulink/cFS_FreeRTOS_seL4/cfe/fsw/cfe-core/src/inc/cfe_evs_msg.h"
 3862               	.file 19 "/home/simulink/cFS_FreeRTOS_seL4/cfe/fsw/cfe-core/src/inc/private/cfe_es_erlog_typedef.h"
 3863               	.file 20 "/home/simulink/cFS_FreeRTOS_seL4/cfe/fsw/cfe-core/src/inc/private/cfe_es_perfdata_typedef.h"
 3864               	.file 21 "/home/simulink/cFS_FreeRTOS_seL4/cfe/fsw/cfe-core/src/inc/private/cfe_evs_log_typedef.h"
 3865               	.file 22 "/home/simulink/cFS_FreeRTOS_seL4/cfe/fsw/cfe-core/src/inc/private/cfe_es_resetdata_typedef.h"
 3866               	.file 23 "/home/simulink/cFS_FreeRTOS_seL4/cfe/fsw/cfe-core/src/es/cfe_es_apps.h"
 3867               	.file 24 "/home/simulink/cFS_FreeRTOS_seL4/cfe/fsw/cfe-core/src/es/cfe_es_cds_mempool.h"
 3868               	.file 25 "/home/simulink/cFS_FreeRTOS_seL4/cfe/fsw/cfe-core/src/es/cfe_es_cds.h"
 3869               	.file 26 "/home/simulink/cFS_FreeRTOS_seL4/cfe/fsw/cfe-core/src/es/cfe_es_perf.h"
 3870               	.file 27 "/home/simulink/cFS_FreeRTOS_seL4/cfe/fsw/cfe-core/src/es/cfe_es_global.h"
 3871               	.section.debug_info,"",@progbits
 3872               	.Ldebug_info0:
 3873 0000 0000 211A 	.long0x211a
 3874 0004 0004      	.word0x4
 3875 0006 0000 0000 	.long.Ldebug_abbrev0
 3876 000a 04        	.byte0x4
 3877 000b 01        	.uleb128 0x1
 3878 000c 0000 0000 	.long.LASF442
 3879 0010 0C        	.byte0xc
 3880 0011 0000 0000 	.long.LASF443
 3881 0015 0000 0000 	.long.LASF444
 3882 0019 0000 0000 	.long.Ltext0
 3883 001d 0000 21AE 	.long.Letext0-.Ltext0
 3884 0021 0000 0000 	.long.Ldebug_line0
 3885 0025 02        	.uleb128 0x2
 3886 0026 0000 0000 	.long.LASF2
 3887 002a 03        	.byte0x3
 3888 002b E6        	.byte0xe6
 3889 002c 0000 0030 	.long0x30
 3890 0030 03        	.uleb128 0x3
 3891 0031 01        	.byte0x1
 3892 0032 08        	.byte0x8
 3893 0033 0000 0000 	.long.LASF0
 3894 0037 03        	.uleb128 0x3
68K GAS   			page 127


 3895 0038 01        	.byte0x1
 3896 0039 06        	.byte0x6
 3897 003a 0000 0000 	.long.LASF1
 3898 003e 02        	.uleb128 0x2
 3899 003f 0000 0000 	.long.LASF3
 3900 0043 03        	.byte0x3
 3901 0044 E8        	.byte0xe8
 3902 0045 0000 0049 	.long0x49
 3903 0049 03        	.uleb128 0x3
 3904 004a 02        	.byte0x2
 3905 004b 05        	.byte0x5
 3906 004c 0000 0000 	.long.LASF4
 3907 0050 02        	.uleb128 0x2
 3908 0051 0000 0000 	.long.LASF5
 3909 0055 03        	.byte0x3
 3910 0056 E9        	.byte0xe9
 3911 0057 0000 005B 	.long0x5b
 3912 005b 03        	.uleb128 0x3
 3913 005c 04        	.byte0x4
 3914 005d 05        	.byte0x5
 3915 005e 0000 0000 	.long.LASF6
 3916 0062 03        	.uleb128 0x3
 3917 0063 08        	.byte0x8
 3918 0064 05        	.byte0x5
 3919 0065 0000 0000 	.long.LASF7
 3920 0069 02        	.uleb128 0x2
 3921 006a 0000 0000 	.long.LASF8
 3922 006e 03        	.byte0x3
 3923 006f EB        	.byte0xeb
 3924 0070 0000 0030 	.long0x30
 3925 0074 02        	.uleb128 0x2
 3926 0075 0000 0000 	.long.LASF9
 3927 0079 03        	.byte0x3
 3928 007a EC        	.byte0xec
 3929 007b 0000 007F 	.long0x7f
 3930 007f 03        	.uleb128 0x3
 3931 0080 02        	.byte0x2
 3932 0081 07        	.byte0x7
 3933 0082 0000 0000 	.long.LASF10
 3934 0086 02        	.uleb128 0x2
 3935 0087 0000 0000 	.long.LASF11
 3936 008b 03        	.byte0x3
 3937 008c ED        	.byte0xed
 3938 008d 0000 0091 	.long0x91
 3939 0091 03        	.uleb128 0x3
 3940 0092 04        	.byte0x4
 3941 0093 07        	.byte0x7
 3942 0094 0000 0000 	.long.LASF12
 3943 0098 03        	.uleb128 0x3
 3944 0099 08        	.byte0x8
 3945 009a 07        	.byte0x7
 3946 009b 0000 0000 	.long.LASF13
 3947 009f 02        	.uleb128 0x2
 3948 00a0 0000 0000 	.long.LASF14
 3949 00a4 03        	.byte0x3
 3950 00a5 F0        	.byte0xf0
 3951 00a6 0000 0091 	.long0x91
68K GAS   			page 128


 3952 00aa 04        	.uleb128 0x4
 3953 00ab 0000 0000 	.long.LASF15
 3954 00af 03        	.byte0x3
 3955 00b0 0131      	.word0x131
 3956 00b2 0000 0025 	.long0x25
 3957 00b6 03        	.uleb128 0x3
 3958 00b7 01        	.byte0x1
 3959 00b8 06        	.byte0x6
 3960 00b9 0000 0000 	.long.LASF16
 3961 00bd 05        	.uleb128 0x5
 3962 00be 0000 00B6 	.long0xb6
 3963 00c2 06        	.uleb128 0x6
 3964 00c3 24        	.byte0x24
 3965 00c4 04        	.byte0x4
 3966 00c5 35        	.byte0x35
 3967 00c6 0000 0107 	.long0x107
 3968 00ca 07        	.uleb128 0x7
 3969 00cb 0000 0000 	.long.LASF17
 3970 00cf 04        	.byte0x4
 3971 00d0 37        	.byte0x37
 3972 00d1 0000 0107 	.long0x107
 3973 00d5 00        	.byte0
 3974 00d6 07        	.uleb128 0x7
 3975 00d7 0000 0000 	.long.LASF18
 3976 00db 04        	.byte0x4
 3977 00dc 38        	.byte0x38
 3978 00dd 0000 0086 	.long0x86
 3979 00e1 14        	.byte0x14
 3980 00e2 07        	.uleb128 0x7
 3981 00e3 0000 0000 	.long.LASF19
 3982 00e7 04        	.byte0x4
 3983 00e8 39        	.byte0x39
 3984 00e9 0000 0086 	.long0x86
 3985 00ed 18        	.byte0x18
 3986 00ee 07        	.uleb128 0x7
 3987 00ef 0000 0000 	.long.LASF20
 3988 00f3 04        	.byte0x4
 3989 00f4 3A        	.byte0x3a
 3990 00f5 0000 0086 	.long0x86
 3991 00f9 1C        	.byte0x1c
 3992 00fa 07        	.uleb128 0x7
 3993 00fb 0000 0000 	.long.LASF21
 3994 00ff 04        	.byte0x4
 3995 0100 3B        	.byte0x3b
 3996 0101 0000 0086 	.long0x86
 3997 0105 20        	.byte0x20
 3998 0106 00        	.byte0
 3999 0107 08        	.uleb128 0x8
 4000 0108 0000 00B6 	.long0xb6
 4001 010c 0000 0117 	.long0x117
 4002 0110 09        	.uleb128 0x9
 4003 0111 0000 0091 	.long0x91
 4004 0115 13        	.byte0x13
 4005 0116 00        	.byte0
 4006 0117 02        	.uleb128 0x2
 4007 0118 0000 0000 	.long.LASF22
 4008 011c 04        	.byte0x4
68K GAS   			page 129


 4009 011d 3C        	.byte0x3c
 4010 011e 0000 00C2 	.long0xc2
 4011 0122 06        	.uleb128 0x6
 4012 0123 18        	.byte0x18
 4013 0124 04        	.byte0x4
 4014 0125 3F        	.byte0x3f
 4015 0126 0000 0143 	.long0x143
 4016 012a 07        	.uleb128 0x7
 4017 012b 0000 0000 	.long.LASF17
 4018 012f 04        	.byte0x4
 4019 0130 41        	.byte0x41
 4020 0131 0000 0107 	.long0x107
 4021 0135 00        	.byte0
 4022 0136 07        	.uleb128 0x7
 4023 0137 0000 0000 	.long.LASF18
 4024 013b 04        	.byte0x4
 4025 013c 42        	.byte0x42
 4026 013d 0000 0086 	.long0x86
 4027 0141 14        	.byte0x14
 4028 0142 00        	.byte0
 4029 0143 02        	.uleb128 0x2
 4030 0144 0000 0000 	.long.LASF23
 4031 0148 04        	.byte0x4
 4032 0149 43        	.byte0x43
 4033 014a 0000 0122 	.long0x122
 4034 014e 06        	.uleb128 0x6
 4035 014f 1C        	.byte0x1c
 4036 0150 04        	.byte0x4
 4037 0151 46        	.byte0x46
 4038 0152 0000 017B 	.long0x17b
 4039 0156 07        	.uleb128 0x7
 4040 0157 0000 0000 	.long.LASF17
 4041 015b 04        	.byte0x4
 4042 015c 48        	.byte0x48
 4043 015d 0000 0107 	.long0x107
 4044 0161 00        	.byte0
 4045 0162 07        	.uleb128 0x7
 4046 0163 0000 0000 	.long.LASF18
 4047 0167 04        	.byte0x4
 4048 0168 49        	.byte0x49
 4049 0169 0000 0086 	.long0x86
 4050 016d 14        	.byte0x14
 4051 016e 07        	.uleb128 0x7
 4052 016f 0000 0000 	.long.LASF24
 4053 0173 04        	.byte0x4
 4054 0174 4A        	.byte0x4a
 4055 0175 0000 0050 	.long0x50
 4056 0179 18        	.byte0x18
 4057 017a 00        	.byte0
 4058 017b 02        	.uleb128 0x2
 4059 017c 0000 0000 	.long.LASF25
 4060 0180 04        	.byte0x4
 4061 0181 4B        	.byte0x4b
 4062 0182 0000 014E 	.long0x14e
 4063 0186 06        	.uleb128 0x6
 4064 0187 1C        	.byte0x1c
 4065 0188 04        	.byte0x4
68K GAS   			page 130


 4066 0189 4E        	.byte0x4e
 4067 018a 0000 01B3 	.long0x1b3
 4068 018e 07        	.uleb128 0x7
 4069 018f 0000 0000 	.long.LASF17
 4070 0193 04        	.byte0x4
 4071 0194 50        	.byte0x50
 4072 0195 0000 0107 	.long0x107
 4073 0199 00        	.byte0
 4074 019a 07        	.uleb128 0x7
 4075 019b 0000 0000 	.long.LASF18
 4076 019f 04        	.byte0x4
 4077 01a0 51        	.byte0x51
 4078 01a1 0000 0086 	.long0x86
 4079 01a5 14        	.byte0x14
 4080 01a6 07        	.uleb128 0x7
 4081 01a7 0000 0000 	.long.LASF24
 4082 01ab 04        	.byte0x4
 4083 01ac 52        	.byte0x52
 4084 01ad 0000 0050 	.long0x50
 4085 01b1 18        	.byte0x18
 4086 01b2 00        	.byte0
 4087 01b3 02        	.uleb128 0x2
 4088 01b4 0000 0000 	.long.LASF26
 4089 01b8 04        	.byte0x4
 4090 01b9 53        	.byte0x53
 4091 01ba 0000 0186 	.long0x186
 4092 01be 06        	.uleb128 0x6
 4093 01bf 18        	.byte0x18
 4094 01c0 04        	.byte0x4
 4095 01c1 56        	.byte0x56
 4096 01c2 0000 01DF 	.long0x1df
 4097 01c6 07        	.uleb128 0x7
 4098 01c7 0000 0000 	.long.LASF17
 4099 01cb 04        	.byte0x4
 4100 01cc 58        	.byte0x58
 4101 01cd 0000 0107 	.long0x107
 4102 01d1 00        	.byte0
 4103 01d2 07        	.uleb128 0x7
 4104 01d3 0000 0000 	.long.LASF18
 4105 01d7 04        	.byte0x4
 4106 01d8 59        	.byte0x59
 4107 01d9 0000 0086 	.long0x86
 4108 01dd 14        	.byte0x14
 4109 01de 00        	.byte0
 4110 01df 02        	.uleb128 0x2
 4111 01e0 0000 0000 	.long.LASF27
 4112 01e4 04        	.byte0x4
 4113 01e5 5A        	.byte0x5a
 4114 01e6 0000 01BE 	.long0x1be
 4115 01ea 02        	.uleb128 0x2
 4116 01eb 0000 0000 	.long.LASF28
 4117 01ef 04        	.byte0x4
 4118 01f0 7F        	.byte0x7f
 4119 01f1 0000 01F5 	.long0x1f5
 4120 01f5 0A        	.uleb128 0xa
 4121 01f6 04        	.byte0x4
 4122 01f7 0000 01FB 	.long0x1fb
68K GAS   			page 131


 4123 01fb 0B        	.uleb128 0xb
 4124 01fc 0C        	.uleb128 0xc
 4125 01fd 04        	.byte0x4
 4126 01fe 02        	.uleb128 0x2
 4127 01ff 0000 0000 	.long.LASF29
 4128 0203 05        	.byte0x5
 4129 0204 67        	.byte0x67
 4130 0205 0000 0062 	.long0x62
 4131 0209 02        	.uleb128 0x2
 4132 020a 0000 0000 	.long.LASF30
 4133 020e 06        	.byte0x6
 4134 020f D8        	.byte0xd8
 4135 0210 0000 0091 	.long0x91
 4136 0214 03        	.uleb128 0x3
 4137 0215 08        	.byte0x8
 4138 0216 04        	.byte0x4
 4139 0217 0000 0000 	.long.LASF31
 4140 021b 02        	.uleb128 0x2
 4141 021c 0000 0000 	.long.LASF32
 4142 0220 07        	.byte0x7
 4143 0221 10        	.byte0x10
 4144 0222 0000 01FE 	.long0x1fe
 4145 0226 02        	.uleb128 0x2
 4146 0227 0000 0000 	.long.LASF33
 4147 022b 07        	.byte0x7
 4148 022c 16        	.byte0x16
 4149 022d 0000 021B 	.long0x21b
 4150 0231 0D        	.uleb128 0xd
 4151 0232 04        	.byte0x4
 4152 0233 05        	.byte0x5
 4153 0234 696E 7400 	.string"int"
 4154 0238 0E        	.uleb128 0xe
 4155 0239 0000 0000 	.long.LASF37
 4156 023d 08        	.byte0x8
 4157 023e 08        	.byte0x8
 4158 023f 28        	.byte0x28
 4159 0240 0000 025D 	.long0x25d
 4160 0244 07        	.uleb128 0x7
 4161 0245 0000 0000 	.long.LASF34
 4162 0249 08        	.byte0x8
 4163 024a 29        	.byte0x29
 4164 024b 0000 025D 	.long0x25d
 4165 024f 00        	.byte0
 4166 0250 07        	.uleb128 0x7
 4167 0251 0000 0000 	.long.LASF35
 4168 0255 08        	.byte0x8
 4169 0256 2A        	.byte0x2a
 4170 0257 0000 025D 	.long0x25d
 4171 025b 04        	.byte0x4
 4172 025c 00        	.byte0
 4173 025d 03        	.uleb128 0x3
 4174 025e 04        	.byte0x4
 4175 025f 07        	.byte0x7
 4176 0260 0000 0000 	.long.LASF36
 4177 0264 0E        	.uleb128 0xe
 4178 0265 0000 0000 	.long.LASF38
 4179 0269 14        	.byte0x14
68K GAS   			page 132


 4180 026a 08        	.byte0x8
 4181 026b 2D        	.byte0x2d
 4182 026c 0000 02A1 	.long0x2a1
 4183 0270 07        	.uleb128 0x7
 4184 0271 0000 0000 	.long.LASF39
 4185 0275 08        	.byte0x8
 4186 0276 2E        	.byte0x2e
 4187 0277 0000 0238 	.long0x238
 4188 027b 00        	.byte0
 4189 027c 07        	.uleb128 0x7
 4190 027d 0000 0000 	.long.LASF40
 4191 0281 08        	.byte0x8
 4192 0282 2F        	.byte0x2f
 4193 0283 0000 02A6 	.long0x2a6
 4194 0287 08        	.byte0x8
 4195 0288 07        	.uleb128 0x7
 4196 0289 0000 0000 	.long.LASF41
 4197 028d 08        	.byte0x8
 4198 028e 30        	.byte0x30
 4199 028f 0000 02B1 	.long0x2b1
 4200 0293 0C        	.byte0xc
 4201 0294 07        	.uleb128 0x7
 4202 0295 0000 0000 	.long.LASF42
 4203 0299 08        	.byte0x8
 4204 029a 31        	.byte0x31
 4205 029b 0000 02B7 	.long0x2b7
 4206 029f 10        	.byte0x10
 4207 02a0 00        	.byte0
 4208 02a1 0F        	.uleb128 0xf
 4209 02a2 0000 0000 	.long.LASF43
 4210 02a6 0A        	.uleb128 0xa
 4211 02a7 04        	.byte0x4
 4212 02a8 0000 02A1 	.long0x2a1
 4213 02ac 0F        	.uleb128 0xf
 4214 02ad 0000 0000 	.long.LASF44
 4215 02b1 0A        	.uleb128 0xa
 4216 02b2 04        	.byte0x4
 4217 02b3 0000 02AC 	.long0x2ac
 4218 02b7 0A        	.uleb128 0xa
 4219 02b8 04        	.byte0x4
 4220 02b9 0000 00BD 	.long0xbd
 4221 02bd 0E        	.uleb128 0xe
 4222 02be 0000 0000 	.long.LASF45
 4223 02c2 14        	.byte0x14
 4224 02c3 08        	.byte0x8
 4225 02c4 34        	.byte0x34
 4226 02c5 0000 02D6 	.long0x2d6
 4227 02c9 07        	.uleb128 0x7
 4228 02ca 0000 0000 	.long.LASF46
 4229 02ce 08        	.byte0x8
 4230 02cf 35        	.byte0x35
 4231 02d0 0000 0264 	.long0x264
 4232 02d4 00        	.byte0
 4233 02d5 00        	.byte0
 4234 02d6 0E        	.uleb128 0xe
 4235 02d7 0000 0000 	.long.LASF47
 4236 02db 18        	.byte0x18
68K GAS   			page 133


 4237 02dc 08        	.byte0x8
 4238 02dd 38        	.byte0x38
 4239 02de 0000 02FB 	.long0x2fb
 4240 02e2 07        	.uleb128 0x7
 4241 02e3 0000 0000 	.long.LASF48
 4242 02e7 08        	.byte0x8
 4243 02e8 39        	.byte0x39
 4244 02e9 0000 02BD 	.long0x2bd
 4245 02ed 00        	.byte0
 4246 02ee 07        	.uleb128 0x7
 4247 02ef 0000 0000 	.long.LASF49
 4248 02f3 08        	.byte0x8
 4249 02f4 3A        	.byte0x3a
 4250 02f5 0000 025D 	.long0x25d
 4251 02f9 14        	.byte0x14
 4252 02fa 00        	.byte0
 4253 02fb 04        	.uleb128 0x4
 4254 02fc 0000 0000 	.long.LASF50
 4255 0300 08        	.byte0x8
 4256 0301 0171      	.word0x171
 4257 0303 0000 02D6 	.long0x2d6
 4258 0307 02        	.uleb128 0x2
 4259 0308 0000 0000 	.long.LASF51
 4260 030c 09        	.byte0x9
 4261 030d 91        	.byte0x91
 4262 030e 0000 005B 	.long0x5b
 4263 0312 04        	.uleb128 0x4
 4264 0313 0000 0000 	.long.LASF52
 4265 0317 06        	.byte0x6
 4266 0318 0165      	.word0x165
 4267 031a 0000 025D 	.long0x25d
 4268 031e 10        	.uleb128 0x10
 4269 031f 04        	.byte0x4
 4270 0320 09        	.byte0x9
 4271 0321 A6        	.byte0xa6
 4272 0322 0000 033D 	.long0x33d
 4273 0326 11        	.uleb128 0x11
 4274 0327 0000 0000 	.long.LASF53
 4275 032b 09        	.byte0x9
 4276 032c A8        	.byte0xa8
 4277 032d 0000 0312 	.long0x312
 4278 0331 11        	.uleb128 0x11
 4279 0332 0000 0000 	.long.LASF54
 4280 0336 09        	.byte0x9
 4281 0337 A9        	.byte0xa9
 4282 0338 0000 033D 	.long0x33d
 4283 033c 00        	.byte0
 4284 033d 08        	.uleb128 0x8
 4285 033e 0000 0030 	.long0x30
 4286 0342 0000 034D 	.long0x34d
 4287 0346 09        	.uleb128 0x9
 4288 0347 0000 0091 	.long0x91
 4289 034b 03        	.byte0x3
 4290 034c 00        	.byte0
 4291 034d 06        	.uleb128 0x6
 4292 034e 08        	.byte0x8
 4293 034f 09        	.byte0x9
68K GAS   			page 134


 4294 0350 A3        	.byte0xa3
 4295 0351 0000 036E 	.long0x36e
 4296 0355 07        	.uleb128 0x7
 4297 0356 0000 0000 	.long.LASF55
 4298 035a 09        	.byte0x9
 4299 035b A5        	.byte0xa5
 4300 035c 0000 0231 	.long0x231
 4301 0360 00        	.byte0
 4302 0361 07        	.uleb128 0x7
 4303 0362 0000 0000 	.long.LASF56
 4304 0366 09        	.byte0x9
 4305 0367 AA        	.byte0xaa
 4306 0368 0000 031E 	.long0x31e
 4307 036c 04        	.byte0x4
 4308 036d 00        	.byte0
 4309 036e 02        	.uleb128 0x2
 4310 036f 0000 0000 	.long.LASF57
 4311 0373 09        	.byte0x9
 4312 0374 AB        	.byte0xab
 4313 0375 0000 034D 	.long0x34d
 4314 0379 02        	.uleb128 0x2
 4315 037a 0000 0000 	.long.LASF58
 4316 037e 09        	.byte0x9
 4317 037f AF        	.byte0xaf
 4318 0380 0000 02FB 	.long0x2fb
 4319 0384 02        	.uleb128 0x2
 4320 0385 0000 0000 	.long.LASF59
 4321 0389 0A        	.byte0xa
 4322 038a 16        	.byte0x16
 4323 038b 0000 0091 	.long0x91
 4324 038f 0E        	.uleb128 0xe
 4325 0390 0000 0000 	.long.LASF60
 4326 0394 18        	.byte0x18
 4327 0395 0A        	.byte0xa
 4328 0396 2F        	.byte0x2f
 4329 0397 0000 03E2 	.long0x3e2
 4330 039b 07        	.uleb128 0x7
 4331 039c 0000 0000 	.long.LASF61
 4332 03a0 0A        	.byte0xa
 4333 03a1 31        	.byte0x31
 4334 03a2 0000 03E2 	.long0x3e2
 4335 03a6 00        	.byte0
 4336 03a7 12        	.uleb128 0x12
 4337 03a8 5F6B 00   	.string"_k"
 4338 03ab 0A        	.byte0xa
 4339 03ac 32        	.byte0x32
 4340 03ad 0000 0231 	.long0x231
 4341 03b1 04        	.byte0x4
 4342 03b2 07        	.uleb128 0x7
 4343 03b3 0000 0000 	.long.LASF62
 4344 03b7 0A        	.byte0xa
 4345 03b8 32        	.byte0x32
 4346 03b9 0000 0231 	.long0x231
 4347 03bd 08        	.byte0x8
 4348 03be 07        	.uleb128 0x7
 4349 03bf 0000 0000 	.long.LASF63
 4350 03c3 0A        	.byte0xa
68K GAS   			page 135


 4351 03c4 32        	.byte0x32
 4352 03c5 0000 0231 	.long0x231
 4353 03c9 0C        	.byte0xc
 4354 03ca 07        	.uleb128 0x7
 4355 03cb 0000 0000 	.long.LASF64
 4356 03cf 0A        	.byte0xa
 4357 03d0 32        	.byte0x32
 4358 03d1 0000 0231 	.long0x231
 4359 03d5 10        	.byte0x10
 4360 03d6 12        	.uleb128 0x12
 4361 03d7 5F78 00   	.string"_x"
 4362 03da 0A        	.byte0xa
 4363 03db 33        	.byte0x33
 4364 03dc 0000 03E8 	.long0x3e8
 4365 03e0 14        	.byte0x14
 4366 03e1 00        	.byte0
 4367 03e2 0A        	.uleb128 0xa
 4368 03e3 04        	.byte0x4
 4369 03e4 0000 038F 	.long0x38f
 4370 03e8 08        	.uleb128 0x8
 4371 03e9 0000 0384 	.long0x384
 4372 03ed 0000 03F8 	.long0x3f8
 4373 03f1 09        	.uleb128 0x9
 4374 03f2 0000 0091 	.long0x91
 4375 03f6 00        	.byte0
 4376 03f7 00        	.byte0
 4377 03f8 0E        	.uleb128 0xe
 4378 03f9 0000 0000 	.long.LASF65
 4379 03fd 24        	.byte0x24
 4380 03fe 0A        	.byte0xa
 4381 03ff 37        	.byte0x37
 4382 0400 0000 0471 	.long0x471
 4383 0404 07        	.uleb128 0x7
 4384 0405 0000 0000 	.long.LASF66
 4385 0409 0A        	.byte0xa
 4386 040a 39        	.byte0x39
 4387 040b 0000 0231 	.long0x231
 4388 040f 00        	.byte0
 4389 0410 07        	.uleb128 0x7
 4390 0411 0000 0000 	.long.LASF67
 4391 0415 0A        	.byte0xa
 4392 0416 3A        	.byte0x3a
 4393 0417 0000 0231 	.long0x231
 4394 041b 04        	.byte0x4
 4395 041c 07        	.uleb128 0x7
 4396 041d 0000 0000 	.long.LASF68
 4397 0421 0A        	.byte0xa
 4398 0422 3B        	.byte0x3b
 4399 0423 0000 0231 	.long0x231
 4400 0427 08        	.byte0x8
 4401 0428 07        	.uleb128 0x7
 4402 0429 0000 0000 	.long.LASF69
 4403 042d 0A        	.byte0xa
 4404 042e 3C        	.byte0x3c
 4405 042f 0000 0231 	.long0x231
 4406 0433 0C        	.byte0xc
 4407 0434 07        	.uleb128 0x7
68K GAS   			page 136


 4408 0435 0000 0000 	.long.LASF70
 4409 0439 0A        	.byte0xa
 4410 043a 3D        	.byte0x3d
 4411 043b 0000 0231 	.long0x231
 4412 043f 10        	.byte0x10
 4413 0440 07        	.uleb128 0x7
 4414 0441 0000 0000 	.long.LASF71
 4415 0445 0A        	.byte0xa
 4416 0446 3E        	.byte0x3e
 4417 0447 0000 0231 	.long0x231
 4418 044b 14        	.byte0x14
 4419 044c 07        	.uleb128 0x7
 4420 044d 0000 0000 	.long.LASF72
 4421 0451 0A        	.byte0xa
 4422 0452 3F        	.byte0x3f
 4423 0453 0000 0231 	.long0x231
 4424 0457 18        	.byte0x18
 4425 0458 07        	.uleb128 0x7
 4426 0459 0000 0000 	.long.LASF73
 4427 045d 0A        	.byte0xa
 4428 045e 40        	.byte0x40
 4429 045f 0000 0231 	.long0x231
 4430 0463 1C        	.byte0x1c
 4431 0464 07        	.uleb128 0x7
 4432 0465 0000 0000 	.long.LASF74
 4433 0469 0A        	.byte0xa
 4434 046a 41        	.byte0x41
 4435 046b 0000 0231 	.long0x231
 4436 046f 20        	.byte0x20
 4437 0470 00        	.byte0
 4438 0471 13        	.uleb128 0x13
 4439 0472 0000 0000 	.long.LASF75
 4440 0476 0108      	.word0x108
 4441 0478 0A        	.byte0xa
 4442 0479 4A        	.byte0x4a
 4443 047a 0000 04B1 	.long0x4b1
 4444 047e 07        	.uleb128 0x7
 4445 047f 0000 0000 	.long.LASF76
 4446 0483 0A        	.byte0xa
 4447 0484 4B        	.byte0x4b
 4448 0485 0000 04B1 	.long0x4b1
 4449 0489 00        	.byte0
 4450 048a 07        	.uleb128 0x7
 4451 048b 0000 0000 	.long.LASF77
 4452 048f 0A        	.byte0xa
 4453 0490 4C        	.byte0x4c
 4454 0491 0000 04B1 	.long0x4b1
 4455 0495 80        	.byte0x80
 4456 0496 14        	.uleb128 0x14
 4457 0497 0000 0000 	.long.LASF78
 4458 049b 0A        	.byte0xa
 4459 049c 4E        	.byte0x4e
 4460 049d 0000 0384 	.long0x384
 4461 04a1 0100      	.word0x100
 4462 04a3 14        	.uleb128 0x14
 4463 04a4 0000 0000 	.long.LASF79
 4464 04a8 0A        	.byte0xa
68K GAS   			page 137


 4465 04a9 51        	.byte0x51
 4466 04aa 0000 0384 	.long0x384
 4467 04ae 0104      	.word0x104
 4468 04b0 00        	.byte0
 4469 04b1 08        	.uleb128 0x8
 4470 04b2 0000 01FC 	.long0x1fc
 4471 04b6 0000 04C1 	.long0x4c1
 4472 04ba 09        	.uleb128 0x9
 4473 04bb 0000 0091 	.long0x91
 4474 04bf 1F        	.byte0x1f
 4475 04c0 00        	.byte0
 4476 04c1 13        	.uleb128 0x13
 4477 04c2 0000 0000 	.long.LASF80
 4478 04c6 0190      	.word0x190
 4479 04c8 0A        	.byte0xa
 4480 04c9 5D        	.byte0x5d
 4481 04ca 0000 04FF 	.long0x4ff
 4482 04ce 07        	.uleb128 0x7
 4483 04cf 0000 0000 	.long.LASF61
 4484 04d3 0A        	.byte0xa
 4485 04d4 5E        	.byte0x5e
 4486 04d5 0000 04FF 	.long0x4ff
 4487 04d9 00        	.byte0
 4488 04da 07        	.uleb128 0x7
 4489 04db 0000 0000 	.long.LASF81
 4490 04df 0A        	.byte0xa
 4491 04e0 5F        	.byte0x5f
 4492 04e1 0000 0231 	.long0x231
 4493 04e5 04        	.byte0x4
 4494 04e6 07        	.uleb128 0x7
 4495 04e7 0000 0000 	.long.LASF82
 4496 04eb 0A        	.byte0xa
 4497 04ec 61        	.byte0x61
 4498 04ed 0000 0505 	.long0x505
 4499 04f1 08        	.byte0x8
 4500 04f2 07        	.uleb128 0x7
 4501 04f3 0000 0000 	.long.LASF75
 4502 04f7 0A        	.byte0xa
 4503 04f8 62        	.byte0x62
 4504 04f9 0000 0471 	.long0x471
 4505 04fd 88        	.byte0x88
 4506 04fe 00        	.byte0
 4507 04ff 0A        	.uleb128 0xa
 4508 0500 04        	.byte0x4
 4509 0501 0000 04C1 	.long0x4c1
 4510 0505 08        	.uleb128 0x8
 4511 0506 0000 0515 	.long0x515
 4512 050a 0000 0515 	.long0x515
 4513 050e 09        	.uleb128 0x9
 4514 050f 0000 0091 	.long0x91
 4515 0513 1F        	.byte0x1f
 4516 0514 00        	.byte0
 4517 0515 0A        	.uleb128 0xa
 4518 0516 04        	.byte0x4
 4519 0517 0000 051B 	.long0x51b
 4520 051b 0B        	.uleb128 0xb
 4521 051c 0E        	.uleb128 0xe
68K GAS   			page 138


 4522 051d 0000 0000 	.long.LASF83
 4523 0521 08        	.byte0x8
 4524 0522 0A        	.byte0xa
 4525 0523 75        	.byte0x75
 4526 0524 0000 0541 	.long0x541
 4527 0528 07        	.uleb128 0x7
 4528 0529 0000 0000 	.long.LASF84
 4529 052d 0A        	.byte0xa
 4530 052e 76        	.byte0x76
 4531 052f 0000 0541 	.long0x541
 4532 0533 00        	.byte0
 4533 0534 07        	.uleb128 0x7
 4534 0535 0000 0000 	.long.LASF85
 4535 0539 0A        	.byte0xa
 4536 053a 77        	.byte0x77
 4537 053b 0000 0231 	.long0x231
 4538 053f 04        	.byte0x4
 4539 0540 00        	.byte0
 4540 0541 0A        	.uleb128 0xa
 4541 0542 04        	.byte0x4
 4542 0543 0000 0030 	.long0x30
 4543 0547 0E        	.uleb128 0xe
 4544 0548 0000 0000 	.long.LASF86
 4545 054c 80        	.byte0x80
 4546 054d 0A        	.byte0xa
 4547 054e B5        	.byte0xb5
 4548 054f 0000 0671 	.long0x671
 4549 0553 12        	.uleb128 0x12
 4550 0554 5F70 00   	.string"_p"
 4551 0557 0A        	.byte0xa
 4552 0558 B6        	.byte0xb6
 4553 0559 0000 0541 	.long0x541
 4554 055d 00        	.byte0
 4555 055e 12        	.uleb128 0x12
 4556 055f 5F72 00   	.string"_r"
 4557 0562 0A        	.byte0xa
 4558 0563 B7        	.byte0xb7
 4559 0564 0000 0231 	.long0x231
 4560 0568 04        	.byte0x4
 4561 0569 12        	.uleb128 0x12
 4562 056a 5F77 00   	.string"_w"
 4563 056d 0A        	.byte0xa
 4564 056e B8        	.byte0xb8
 4565 056f 0000 0231 	.long0x231
 4566 0573 08        	.byte0x8
 4567 0574 07        	.uleb128 0x7
 4568 0575 0000 0000 	.long.LASF87
 4569 0579 0A        	.byte0xa
 4570 057a B9        	.byte0xb9
 4571 057b 0000 0049 	.long0x49
 4572 057f 0C        	.byte0xc
 4573 0580 07        	.uleb128 0x7
 4574 0581 0000 0000 	.long.LASF88
 4575 0585 0A        	.byte0xa
 4576 0586 BA        	.byte0xba
 4577 0587 0000 0049 	.long0x49
 4578 058b 0E        	.byte0xe
68K GAS   			page 139


 4579 058c 12        	.uleb128 0x12
 4580 058d 5F62 6600 	.string"_bf"
 4581 0591 0A        	.byte0xa
 4582 0592 BB        	.byte0xbb
 4583 0593 0000 051C 	.long0x51c
 4584 0597 10        	.byte0x10
 4585 0598 07        	.uleb128 0x7
 4586 0599 0000 0000 	.long.LASF89
 4587 059d 0A        	.byte0xa
 4588 059e BC        	.byte0xbc
 4589 059f 0000 0231 	.long0x231
 4590 05a3 18        	.byte0x18
 4591 05a4 07        	.uleb128 0x7
 4592 05a5 0000 0000 	.long.LASF90
 4593 05a9 0A        	.byte0xa
 4594 05aa C3        	.byte0xc3
 4595 05ab 0000 01FC 	.long0x1fc
 4596 05af 1C        	.byte0x1c
 4597 05b0 07        	.uleb128 0x7
 4598 05b1 0000 0000 	.long.LASF91
 4599 05b5 0A        	.byte0xa
 4600 05b6 C5        	.byte0xc5
 4601 05b7 0000 07A8 	.long0x7a8
 4602 05bb 20        	.byte0x20
 4603 05bc 07        	.uleb128 0x7
 4604 05bd 0000 0000 	.long.LASF92
 4605 05c1 0A        	.byte0xa
 4606 05c2 C7        	.byte0xc7
 4607 05c3 0000 07CC 	.long0x7cc
 4608 05c7 24        	.byte0x24
 4609 05c8 07        	.uleb128 0x7
 4610 05c9 0000 0000 	.long.LASF93
 4611 05cd 0A        	.byte0xa
 4612 05ce CA        	.byte0xca
 4613 05cf 0000 07F0 	.long0x7f0
 4614 05d3 28        	.byte0x28
 4615 05d4 07        	.uleb128 0x7
 4616 05d5 0000 0000 	.long.LASF94
 4617 05d9 0A        	.byte0xa
 4618 05da CB        	.byte0xcb
 4619 05db 0000 080A 	.long0x80a
 4620 05df 2C        	.byte0x2c
 4621 05e0 12        	.uleb128 0x12
 4622 05e1 5F75 6200 	.string"_ub"
 4623 05e5 0A        	.byte0xa
 4624 05e6 CE        	.byte0xce
 4625 05e7 0000 051C 	.long0x51c
 4626 05eb 30        	.byte0x30
 4627 05ec 12        	.uleb128 0x12
 4628 05ed 5F75 7000 	.string"_up"
 4629 05f1 0A        	.byte0xa
 4630 05f2 CF        	.byte0xcf
 4631 05f3 0000 0541 	.long0x541
 4632 05f7 38        	.byte0x38
 4633 05f8 12        	.uleb128 0x12
 4634 05f9 5F75 7200 	.string"_ur"
 4635 05fd 0A        	.byte0xa
68K GAS   			page 140


 4636 05fe D0        	.byte0xd0
 4637 05ff 0000 0231 	.long0x231
 4638 0603 3C        	.byte0x3c
 4639 0604 07        	.uleb128 0x7
 4640 0605 0000 0000 	.long.LASF95
 4641 0609 0A        	.byte0xa
 4642 060a D3        	.byte0xd3
 4643 060b 0000 0810 	.long0x810
 4644 060f 40        	.byte0x40
 4645 0610 07        	.uleb128 0x7
 4646 0611 0000 0000 	.long.LASF96
 4647 0615 0A        	.byte0xa
 4648 0616 D4        	.byte0xd4
 4649 0617 0000 0820 	.long0x820
 4650 061b 43        	.byte0x43
 4651 061c 12        	.uleb128 0x12
 4652 061d 5F6C 6200 	.string"_lb"
 4653 0621 0A        	.byte0xa
 4654 0622 D7        	.byte0xd7
 4655 0623 0000 051C 	.long0x51c
 4656 0627 44        	.byte0x44
 4657 0628 07        	.uleb128 0x7
 4658 0629 0000 0000 	.long.LASF97
 4659 062d 0A        	.byte0xa
 4660 062e DA        	.byte0xda
 4661 062f 0000 0231 	.long0x231
 4662 0633 4C        	.byte0x4c
 4663 0634 07        	.uleb128 0x7
 4664 0635 0000 0000 	.long.LASF98
 4665 0639 0A        	.byte0xa
 4666 063a DB        	.byte0xdb
 4667 063b 0000 021B 	.long0x21b
 4668 063f 50        	.byte0x50
 4669 0640 07        	.uleb128 0x7
 4670 0641 0000 0000 	.long.LASF99
 4671 0645 0A        	.byte0xa
 4672 0646 DE        	.byte0xde
 4673 0647 0000 068F 	.long0x68f
 4674 064b 58        	.byte0x58
 4675 064c 07        	.uleb128 0x7
 4676 064d 0000 0000 	.long.LASF100
 4677 0651 0A        	.byte0xa
 4678 0652 E2        	.byte0xe2
 4679 0653 0000 0379 	.long0x379
 4680 0657 5C        	.byte0x5c
 4681 0658 07        	.uleb128 0x7
 4682 0659 0000 0000 	.long.LASF101
 4683 065d 0A        	.byte0xa
 4684 065e E4        	.byte0xe4
 4685 065f 0000 036E 	.long0x36e
 4686 0663 74        	.byte0x74
 4687 0664 07        	.uleb128 0x7
 4688 0665 0000 0000 	.long.LASF102
 4689 0669 0A        	.byte0xa
 4690 066a E5        	.byte0xe5
 4691 066b 0000 0231 	.long0x231
 4692 066f 7C        	.byte0x7c
68K GAS   			page 141


 4693 0670 00        	.byte0
 4694 0671 15        	.uleb128 0x15
 4695 0672 0000 0307 	.long0x307
 4696 0676 0000 068F 	.long0x68f
 4697 067a 16        	.uleb128 0x16
 4698 067b 0000 068F 	.long0x68f
 4699 067f 16        	.uleb128 0x16
 4700 0680 0000 01FC 	.long0x1fc
 4701 0684 16        	.uleb128 0x16
 4702 0685 0000 07A2 	.long0x7a2
 4703 0689 16        	.uleb128 0x16
 4704 068a 0000 0231 	.long0x231
 4705 068e 00        	.byte0
 4706 068f 0A        	.uleb128 0xa
 4707 0690 04        	.byte0x4
 4708 0691 0000 069A 	.long0x69a
 4709 0695 05        	.uleb128 0x5
 4710 0696 0000 068F 	.long0x68f
 4711 069a 17        	.uleb128 0x17
 4712 069b 0000 0000 	.long.LASF103
 4713 069f 0158      	.word0x158
 4714 06a1 0A        	.byte0xa
 4715 06a2 0239      	.word0x239
 4716 06a4 0000 07A2 	.long0x7a2
 4717 06a8 18        	.uleb128 0x18
 4718 06a9 0000 0000 	.long.LASF104
 4719 06ad 0A        	.byte0xa
 4720 06ae 023B      	.word0x23b
 4721 06b0 0000 0231 	.long0x231
 4722 06b4 00        	.byte0
 4723 06b5 18        	.uleb128 0x18
 4724 06b6 0000 0000 	.long.LASF105
 4725 06ba 0A        	.byte0xa
 4726 06bb 0240      	.word0x240
 4727 06bd 0000 0877 	.long0x877
 4728 06c1 04        	.byte0x4
 4729 06c2 18        	.uleb128 0x18
 4730 06c3 0000 0000 	.long.LASF106
 4731 06c7 0A        	.byte0xa
 4732 06c8 0240      	.word0x240
 4733 06ca 0000 0877 	.long0x877
 4734 06ce 08        	.byte0x8
 4735 06cf 18        	.uleb128 0x18
 4736 06d0 0000 0000 	.long.LASF107
 4737 06d4 0A        	.byte0xa
 4738 06d5 0240      	.word0x240
 4739 06d7 0000 0877 	.long0x877
 4740 06db 0C        	.byte0xc
 4741 06dc 18        	.uleb128 0x18
 4742 06dd 0000 0000 	.long.LASF108
 4743 06e1 0A        	.byte0xa
 4744 06e2 0242      	.word0x242
 4745 06e4 0000 0231 	.long0x231
 4746 06e8 10        	.byte0x10
 4747 06e9 18        	.uleb128 0x18
 4748 06ea 0000 0000 	.long.LASF109
 4749 06ee 0A        	.byte0xa
68K GAS   			page 142


 4750 06ef 0243      	.word0x243
 4751 06f1 0000 0A59 	.long0xa59
 4752 06f5 14        	.byte0x14
 4753 06f6 18        	.uleb128 0x18
 4754 06f7 0000 0000 	.long.LASF110
 4755 06fb 0A        	.byte0xa
 4756 06fc 0246      	.word0x246
 4757 06fe 0000 0231 	.long0x231
 4758 0702 30        	.byte0x30
 4759 0703 18        	.uleb128 0x18
 4760 0704 0000 0000 	.long.LASF111
 4761 0708 0A        	.byte0xa
 4762 0709 0247      	.word0x247
 4763 070b 0000 0A6E 	.long0xa6e
 4764 070f 34        	.byte0x34
 4765 0710 18        	.uleb128 0x18
 4766 0711 0000 0000 	.long.LASF112
 4767 0715 0A        	.byte0xa
 4768 0716 0249      	.word0x249
 4769 0718 0000 0231 	.long0x231
 4770 071c 38        	.byte0x38
 4771 071d 18        	.uleb128 0x18
 4772 071e 0000 0000 	.long.LASF113
 4773 0722 0A        	.byte0xa
 4774 0723 024B      	.word0x24b
 4775 0725 0000 0A7F 	.long0xa7f
 4776 0729 3C        	.byte0x3c
 4777 072a 18        	.uleb128 0x18
 4778 072b 0000 0000 	.long.LASF114
 4779 072f 0A        	.byte0xa
 4780 0730 024E      	.word0x24e
 4781 0732 0000 03E2 	.long0x3e2
 4782 0736 40        	.byte0x40
 4783 0737 18        	.uleb128 0x18
 4784 0738 0000 0000 	.long.LASF115
 4785 073c 0A        	.byte0xa
 4786 073d 024F      	.word0x24f
 4787 073f 0000 0231 	.long0x231
 4788 0743 44        	.byte0x44
 4789 0744 18        	.uleb128 0x18
 4790 0745 0000 0000 	.long.LASF116
 4791 0749 0A        	.byte0xa
 4792 074a 0250      	.word0x250
 4793 074c 0000 03E2 	.long0x3e2
 4794 0750 48        	.byte0x48
 4795 0751 18        	.uleb128 0x18
 4796 0752 0000 0000 	.long.LASF117
 4797 0756 0A        	.byte0xa
 4798 0757 0251      	.word0x251
 4799 0759 0000 0A85 	.long0xa85
 4800 075d 4C        	.byte0x4c
 4801 075e 18        	.uleb128 0x18
 4802 075f 0000 0000 	.long.LASF118
 4803 0763 0A        	.byte0xa
 4804 0764 0254      	.word0x254
 4805 0766 0000 0231 	.long0x231
 4806 076a 50        	.byte0x50
68K GAS   			page 143


 4807 076b 18        	.uleb128 0x18
 4808 076c 0000 0000 	.long.LASF119
 4809 0770 0A        	.byte0xa
 4810 0771 0255      	.word0x255
 4811 0773 0000 07A2 	.long0x7a2
 4812 0777 54        	.byte0x54
 4813 0778 18        	.uleb128 0x18
 4814 0779 0000 0000 	.long.LASF120
 4815 077d 0A        	.byte0xa
 4816 077e 0278      	.word0x278
 4817 0780 0000 0A37 	.long0xa37
 4818 0784 58        	.byte0x58
 4819 0785 19        	.uleb128 0x19
 4820 0786 0000 0000 	.long.LASF121
 4821 078a 0A        	.byte0xa
 4822 078b 0281      	.word0x281
 4823 078d 0000 0A96 	.long0xa96
 4824 0791 0148      	.word0x148
 4825 0793 19        	.uleb128 0x19
 4826 0794 0000 0000 	.long.LASF122
 4827 0798 0A        	.byte0xa
 4828 0799 0286      	.word0x286
 4829 079b 0000 083C 	.long0x83c
 4830 079f 014C      	.word0x14c
 4831 07a1 00        	.byte0
 4832 07a2 0A        	.uleb128 0xa
 4833 07a3 04        	.byte0x4
 4834 07a4 0000 00B6 	.long0xb6
 4835 07a8 0A        	.uleb128 0xa
 4836 07a9 04        	.byte0x4
 4837 07aa 0000 0671 	.long0x671
 4838 07ae 15        	.uleb128 0x15
 4839 07af 0000 0307 	.long0x307
 4840 07b3 0000 07CC 	.long0x7cc
 4841 07b7 16        	.uleb128 0x16
 4842 07b8 0000 068F 	.long0x68f
 4843 07bc 16        	.uleb128 0x16
 4844 07bd 0000 01FC 	.long0x1fc
 4845 07c1 16        	.uleb128 0x16
 4846 07c2 0000 02B7 	.long0x2b7
 4847 07c6 16        	.uleb128 0x16
 4848 07c7 0000 0231 	.long0x231
 4849 07cb 00        	.byte0
 4850 07cc 0A        	.uleb128 0xa
 4851 07cd 04        	.byte0x4
 4852 07ce 0000 07AE 	.long0x7ae
 4853 07d2 15        	.uleb128 0x15
 4854 07d3 0000 0226 	.long0x226
 4855 07d7 0000 07F0 	.long0x7f0
 4856 07db 16        	.uleb128 0x16
 4857 07dc 0000 068F 	.long0x68f
 4858 07e0 16        	.uleb128 0x16
 4859 07e1 0000 01FC 	.long0x1fc
 4860 07e5 16        	.uleb128 0x16
 4861 07e6 0000 0226 	.long0x226
 4862 07ea 16        	.uleb128 0x16
 4863 07eb 0000 0231 	.long0x231
68K GAS   			page 144


 4864 07ef 00        	.byte0
 4865 07f0 0A        	.uleb128 0xa
 4866 07f1 04        	.byte0x4
 4867 07f2 0000 07D2 	.long0x7d2
 4868 07f6 15        	.uleb128 0x15
 4869 07f7 0000 0231 	.long0x231
 4870 07fb 0000 080A 	.long0x80a
 4871 07ff 16        	.uleb128 0x16
 4872 0800 0000 068F 	.long0x68f
 4873 0804 16        	.uleb128 0x16
 4874 0805 0000 01FC 	.long0x1fc
 4875 0809 00        	.byte0
 4876 080a 0A        	.uleb128 0xa
 4877 080b 04        	.byte0x4
 4878 080c 0000 07F6 	.long0x7f6
 4879 0810 08        	.uleb128 0x8
 4880 0811 0000 0030 	.long0x30
 4881 0815 0000 0820 	.long0x820
 4882 0819 09        	.uleb128 0x9
 4883 081a 0000 0091 	.long0x91
 4884 081e 02        	.byte0x2
 4885 081f 00        	.byte0
 4886 0820 08        	.uleb128 0x8
 4887 0821 0000 0030 	.long0x30
 4888 0825 0000 0830 	.long0x830
 4889 0829 09        	.uleb128 0x9
 4890 082a 0000 0091 	.long0x91
 4891 082e 00        	.byte0
 4892 082f 00        	.byte0
 4893 0830 04        	.uleb128 0x4
 4894 0831 0000 0000 	.long.LASF123
 4895 0835 0A        	.byte0xa
 4896 0836 011F      	.word0x11f
 4897 0838 0000 0547 	.long0x547
 4898 083c 1A        	.uleb128 0x1a
 4899 083d 0000 0000 	.long.LASF124
 4900 0841 0C        	.byte0xc
 4901 0842 0A        	.byte0xa
 4902 0843 0123      	.word0x123
 4903 0845 0000 0871 	.long0x871
 4904 0849 18        	.uleb128 0x18
 4905 084a 0000 0000 	.long.LASF61
 4906 084e 0A        	.byte0xa
 4907 084f 0125      	.word0x125
 4908 0851 0000 0871 	.long0x871
 4909 0855 00        	.byte0
 4910 0856 18        	.uleb128 0x18
 4911 0857 0000 0000 	.long.LASF125
 4912 085b 0A        	.byte0xa
 4913 085c 0126      	.word0x126
 4914 085e 0000 0231 	.long0x231
 4915 0862 04        	.byte0x4
 4916 0863 18        	.uleb128 0x18
 4917 0864 0000 0000 	.long.LASF126
 4918 0868 0A        	.byte0xa
 4919 0869 0127      	.word0x127
 4920 086b 0000 0877 	.long0x877
68K GAS   			page 145


 4921 086f 08        	.byte0x8
 4922 0870 00        	.byte0
 4923 0871 0A        	.uleb128 0xa
 4924 0872 04        	.byte0x4
 4925 0873 0000 083C 	.long0x83c
 4926 0877 0A        	.uleb128 0xa
 4927 0878 04        	.byte0x4
 4928 0879 0000 0830 	.long0x830
 4929 087d 1A        	.uleb128 0x1a
 4930 087e 0000 0000 	.long.LASF127
 4931 0882 0E        	.byte0xe
 4932 0883 0A        	.byte0xa
 4933 0884 013F      	.word0x13f
 4934 0886 0000 08B2 	.long0x8b2
 4935 088a 18        	.uleb128 0x18
 4936 088b 0000 0000 	.long.LASF128
 4937 088f 0A        	.byte0xa
 4938 0890 0140      	.word0x140
 4939 0892 0000 08B2 	.long0x8b2
 4940 0896 00        	.byte0
 4941 0897 18        	.uleb128 0x18
 4942 0898 0000 0000 	.long.LASF129
 4943 089c 0A        	.byte0xa
 4944 089d 0141      	.word0x141
 4945 089f 0000 08B2 	.long0x8b2
 4946 08a3 06        	.byte0x6
 4947 08a4 18        	.uleb128 0x18
 4948 08a5 0000 0000 	.long.LASF130
 4949 08a9 0A        	.byte0xa
 4950 08aa 0142      	.word0x142
 4951 08ac 0000 007F 	.long0x7f
 4952 08b0 0C        	.byte0xc
 4953 08b1 00        	.byte0
 4954 08b2 08        	.uleb128 0x8
 4955 08b3 0000 007F 	.long0x7f
 4956 08b7 0000 08C2 	.long0x8c2
 4957 08bb 09        	.uleb128 0x9
 4958 08bc 0000 0091 	.long0x91
 4959 08c0 02        	.byte0x2
 4960 08c1 00        	.byte0
 4961 08c2 1B        	.uleb128 0x1b
 4962 08c3 CC        	.byte0xcc
 4963 08c4 0A        	.byte0xa
 4964 08c5 0259      	.word0x259
 4965 08c7 0000 09C3 	.long0x9c3
 4966 08cb 18        	.uleb128 0x18
 4967 08cc 0000 0000 	.long.LASF131
 4968 08d0 0A        	.byte0xa
 4969 08d1 025B      	.word0x25b
 4970 08d3 0000 025D 	.long0x25d
 4971 08d7 00        	.byte0
 4972 08d8 18        	.uleb128 0x18
 4973 08d9 0000 0000 	.long.LASF132
 4974 08dd 0A        	.byte0xa
 4975 08de 025C      	.word0x25c
 4976 08e0 0000 07A2 	.long0x7a2
 4977 08e4 04        	.byte0x4
68K GAS   			page 146


 4978 08e5 18        	.uleb128 0x18
 4979 08e6 0000 0000 	.long.LASF133
 4980 08ea 0A        	.byte0xa
 4981 08eb 025D      	.word0x25d
 4982 08ed 0000 09C3 	.long0x9c3
 4983 08f1 08        	.byte0x8
 4984 08f2 18        	.uleb128 0x18
 4985 08f3 0000 0000 	.long.LASF134
 4986 08f7 0A        	.byte0xa
 4987 08f8 025E      	.word0x25e
 4988 08fa 0000 03F8 	.long0x3f8
 4989 08fe 24        	.byte0x24
 4990 08ff 18        	.uleb128 0x18
 4991 0900 0000 0000 	.long.LASF135
 4992 0904 0A        	.byte0xa
 4993 0905 025F      	.word0x25f
 4994 0907 0000 0231 	.long0x231
 4995 090b 48        	.byte0x48
 4996 090c 18        	.uleb128 0x18
 4997 090d 0000 0000 	.long.LASF136
 4998 0911 0A        	.byte0xa
 4999 0912 0260      	.word0x260
 5000 0914 0000 0098 	.long0x98
 5001 0918 4C        	.byte0x4c
 5002 0919 18        	.uleb128 0x18
 5003 091a 0000 0000 	.long.LASF137
 5004 091e 0A        	.byte0xa
 5005 091f 0261      	.word0x261
 5006 0921 0000 087D 	.long0x87d
 5007 0925 54        	.byte0x54
 5008 0926 18        	.uleb128 0x18
 5009 0927 0000 0000 	.long.LASF138
 5010 092b 0A        	.byte0xa
 5011 092c 0262      	.word0x262
 5012 092e 0000 036E 	.long0x36e
 5013 0932 64        	.byte0x64
 5014 0933 18        	.uleb128 0x18
 5015 0934 0000 0000 	.long.LASF139
 5016 0938 0A        	.byte0xa
 5017 0939 0263      	.word0x263
 5018 093b 0000 036E 	.long0x36e
 5019 093f 6C        	.byte0x6c
 5020 0940 18        	.uleb128 0x18
 5021 0941 0000 0000 	.long.LASF140
 5022 0945 0A        	.byte0xa
 5023 0946 0264      	.word0x264
 5024 0948 0000 036E 	.long0x36e
 5025 094c 74        	.byte0x74
 5026 094d 18        	.uleb128 0x18
 5027 094e 0000 0000 	.long.LASF141
 5028 0952 0A        	.byte0xa
 5029 0953 0265      	.word0x265
 5030 0955 0000 09D3 	.long0x9d3
 5031 0959 7C        	.byte0x7c
 5032 095a 18        	.uleb128 0x18
 5033 095b 0000 0000 	.long.LASF142
 5034 095f 0A        	.byte0xa
68K GAS   			page 147


 5035 0960 0266      	.word0x266
 5036 0962 0000 09E3 	.long0x9e3
 5037 0966 84        	.byte0x84
 5038 0967 18        	.uleb128 0x18
 5039 0968 0000 0000 	.long.LASF143
 5040 096c 0A        	.byte0xa
 5041 096d 0267      	.word0x267
 5042 096f 0000 0231 	.long0x231
 5043 0973 9C        	.byte0x9c
 5044 0974 18        	.uleb128 0x18
 5045 0975 0000 0000 	.long.LASF144
 5046 0979 0A        	.byte0xa
 5047 097a 0268      	.word0x268
 5048 097c 0000 036E 	.long0x36e
 5049 0980 A0        	.byte0xa0
 5050 0981 18        	.uleb128 0x18
 5051 0982 0000 0000 	.long.LASF145
 5052 0986 0A        	.byte0xa
 5053 0987 0269      	.word0x269
 5054 0989 0000 036E 	.long0x36e
 5055 098d A8        	.byte0xa8
 5056 098e 18        	.uleb128 0x18
 5057 098f 0000 0000 	.long.LASF146
 5058 0993 0A        	.byte0xa
 5059 0994 026A      	.word0x26a
 5060 0996 0000 036E 	.long0x36e
 5061 099a B0        	.byte0xb0
 5062 099b 18        	.uleb128 0x18
 5063 099c 0000 0000 	.long.LASF147
 5064 09a0 0A        	.byte0xa
 5065 09a1 026B      	.word0x26b
 5066 09a3 0000 036E 	.long0x36e
 5067 09a7 B8        	.byte0xb8
 5068 09a8 18        	.uleb128 0x18
 5069 09a9 0000 0000 	.long.LASF148
 5070 09ad 0A        	.byte0xa
 5071 09ae 026C      	.word0x26c
 5072 09b0 0000 036E 	.long0x36e
 5073 09b4 C0        	.byte0xc0
 5074 09b5 18        	.uleb128 0x18
 5075 09b6 0000 0000 	.long.LASF149
 5076 09ba 0A        	.byte0xa
 5077 09bb 026D      	.word0x26d
 5078 09bd 0000 0231 	.long0x231
 5079 09c1 C8        	.byte0xc8
 5080 09c2 00        	.byte0
 5081 09c3 08        	.uleb128 0x8
 5082 09c4 0000 00B6 	.long0xb6
 5083 09c8 0000 09D3 	.long0x9d3
 5084 09cc 09        	.uleb128 0x9
 5085 09cd 0000 0091 	.long0x91
 5086 09d1 19        	.byte0x19
 5087 09d2 00        	.byte0
 5088 09d3 08        	.uleb128 0x8
 5089 09d4 0000 00B6 	.long0xb6
 5090 09d8 0000 09E3 	.long0x9e3
 5091 09dc 09        	.uleb128 0x9
68K GAS   			page 148


 5092 09dd 0000 0091 	.long0x91
 5093 09e1 07        	.byte0x7
 5094 09e2 00        	.byte0
 5095 09e3 08        	.uleb128 0x8
 5096 09e4 0000 00B6 	.long0xb6
 5097 09e8 0000 09F3 	.long0x9f3
 5098 09ec 09        	.uleb128 0x9
 5099 09ed 0000 0091 	.long0x91
 5100 09f1 17        	.byte0x17
 5101 09f2 00        	.byte0
 5102 09f3 1B        	.uleb128 0x1b
 5103 09f4 F0        	.byte0xf0
 5104 09f5 0A        	.byte0xa
 5105 09f6 0272      	.word0x272
 5106 09f8 0000 0A17 	.long0xa17
 5107 09fc 18        	.uleb128 0x18
 5108 09fd 0000 0000 	.long.LASF150
 5109 0a01 0A        	.byte0xa
 5110 0a02 0275      	.word0x275
 5111 0a04 0000 0A17 	.long0xa17
 5112 0a08 00        	.byte0
 5113 0a09 18        	.uleb128 0x18
 5114 0a0a 0000 0000 	.long.LASF151
 5115 0a0e 0A        	.byte0xa
 5116 0a0f 0276      	.word0x276
 5117 0a11 0000 0A27 	.long0xa27
 5118 0a15 78        	.byte0x78
 5119 0a16 00        	.byte0
 5120 0a17 08        	.uleb128 0x8
 5121 0a18 0000 0541 	.long0x541
 5122 0a1c 0000 0A27 	.long0xa27
 5123 0a20 09        	.uleb128 0x9
 5124 0a21 0000 0091 	.long0x91
 5125 0a25 1D        	.byte0x1d
 5126 0a26 00        	.byte0
 5127 0a27 08        	.uleb128 0x8
 5128 0a28 0000 025D 	.long0x25d
 5129 0a2c 0000 0A37 	.long0xa37
 5130 0a30 09        	.uleb128 0x9
 5131 0a31 0000 0091 	.long0x91
 5132 0a35 1D        	.byte0x1d
 5133 0a36 00        	.byte0
 5134 0a37 1C        	.uleb128 0x1c
 5135 0a38 F0        	.byte0xf0
 5136 0a39 0A        	.byte0xa
 5137 0a3a 0257      	.word0x257
 5138 0a3c 0000 0A59 	.long0xa59
 5139 0a40 1D        	.uleb128 0x1d
 5140 0a41 0000 0000 	.long.LASF103
 5141 0a45 0A        	.byte0xa
 5142 0a46 026E      	.word0x26e
 5143 0a48 0000 08C2 	.long0x8c2
 5144 0a4c 1D        	.uleb128 0x1d
 5145 0a4d 0000 0000 	.long.LASF152
 5146 0a51 0A        	.byte0xa
 5147 0a52 0277      	.word0x277
 5148 0a54 0000 09F3 	.long0x9f3
68K GAS   			page 149


 5149 0a58 00        	.byte0
 5150 0a59 08        	.uleb128 0x8
 5151 0a5a 0000 00B6 	.long0xb6
 5152 0a5e 0000 0A69 	.long0xa69
 5153 0a62 09        	.uleb128 0x9
 5154 0a63 0000 0091 	.long0x91
 5155 0a67 18        	.byte0x18
 5156 0a68 00        	.byte0
 5157 0a69 0F        	.uleb128 0xf
 5158 0a6a 0000 0000 	.long.LASF153
 5159 0a6e 0A        	.uleb128 0xa
 5160 0a6f 04        	.byte0x4
 5161 0a70 0000 0A69 	.long0xa69
 5162 0a74 1E        	.uleb128 0x1e
 5163 0a75 0000 0A7F 	.long0xa7f
 5164 0a79 16        	.uleb128 0x16
 5165 0a7a 0000 068F 	.long0x68f
 5166 0a7e 00        	.byte0
 5167 0a7f 0A        	.uleb128 0xa
 5168 0a80 04        	.byte0x4
 5169 0a81 0000 0A74 	.long0xa74
 5170 0a85 0A        	.uleb128 0xa
 5171 0a86 04        	.byte0x4
 5172 0a87 0000 03E2 	.long0x3e2
 5173 0a8b 1E        	.uleb128 0x1e
 5174 0a8c 0000 0A96 	.long0xa96
 5175 0a90 16        	.uleb128 0x16
 5176 0a91 0000 0231 	.long0x231
 5177 0a95 00        	.byte0
 5178 0a96 0A        	.uleb128 0xa
 5179 0a97 04        	.byte0x4
 5180 0a98 0000 0A9C 	.long0xa9c
 5181 0a9c 0A        	.uleb128 0xa
 5182 0a9d 04        	.byte0x4
 5183 0a9e 0000 0A8B 	.long0xa8b
 5184 0aa2 08        	.uleb128 0x8
 5185 0aa3 0000 0830 	.long0x830
 5186 0aa7 0000 0AB2 	.long0xab2
 5187 0aab 09        	.uleb128 0x9
 5188 0aac 0000 0091 	.long0x91
 5189 0ab0 02        	.byte0x2
 5190 0ab1 00        	.byte0
 5191 0ab2 1F        	.uleb128 0x1f
 5192 0ab3 0000 0000 	.long.LASF154
 5193 0ab7 0A        	.byte0xa
 5194 0ab8 028D      	.word0x28d
 5195 0aba 0000 0AA2 	.long0xaa2
 5196 0abe 1F        	.uleb128 0x1f
 5197 0abf 0000 0000 	.long.LASF155
 5198 0ac3 0A        	.byte0xa
 5199 0ac4 0307      	.word0x307
 5200 0ac6 0000 068F 	.long0x68f
 5201 0aca 1F        	.uleb128 0x1f
 5202 0acb 0000 0000 	.long.LASF156
 5203 0acf 0A        	.byte0xa
 5204 0ad0 0308      	.word0x308
 5205 0ad2 0000 0695 	.long0x695
68K GAS   			page 150


 5206 0ad6 1F        	.uleb128 0x1f
 5207 0ad7 0000 0000 	.long.LASF157
 5208 0adb 0A        	.byte0xa
 5209 0adc 031A      	.word0x31a
 5210 0ade 0000 04FF 	.long0x4ff
 5211 0ae2 0A        	.uleb128 0xa
 5212 0ae3 04        	.byte0x4
 5213 0ae4 0000 0AE8 	.long0xae8
 5214 0ae8 20        	.uleb128 0x20
 5215 0ae9 21        	.uleb128 0x21
 5216 0aea 0000 0000 	.long.LASF158
 5217 0aee 0B        	.byte0xb
 5218 0aef 63        	.byte0x63
 5219 0af0 0000 07A2 	.long0x7a2
 5220 0af4 21        	.uleb128 0x21
 5221 0af5 0000 0000 	.long.LASF159
 5222 0af9 0C        	.byte0xc
 5223 0afa 9A        	.byte0x9a
 5224 0afb 0000 005B 	.long0x5b
 5225 0aff 21        	.uleb128 0x21
 5226 0b00 0000 0000 	.long.LASF160
 5227 0b04 0C        	.byte0xc
 5228 0b05 9B        	.byte0x9b
 5229 0b06 0000 0231 	.long0x231
 5230 0b0a 08        	.uleb128 0x8
 5231 0b0b 0000 07A2 	.long0x7a2
 5232 0b0f 0000 0B1A 	.long0xb1a
 5233 0b13 09        	.uleb128 0x9
 5234 0b14 0000 0091 	.long0x91
 5235 0b18 01        	.byte0x1
 5236 0b19 00        	.byte0
 5237 0b1a 21        	.uleb128 0x21
 5238 0b1b 0000 0000 	.long.LASF161
 5239 0b1f 0C        	.byte0xc
 5240 0b20 9E        	.byte0x9e
 5241 0b21 0000 0B0A 	.long0xb0a
 5242 0b25 08        	.uleb128 0x8
 5243 0b26 0000 00B6 	.long0xb6
 5244 0b2a 0000 0B35 	.long0xb35
 5245 0b2e 09        	.uleb128 0x9
 5246 0b2f 0000 0091 	.long0x91
 5247 0b33 3F        	.byte0x3f
 5248 0b34 00        	.byte0
 5249 0b35 06        	.uleb128 0x6
 5250 0b36 4C        	.byte0x4c
 5251 0b37 0D        	.byte0xd
 5252 0b38 DA        	.byte0xda
 5253 0b39 0000 0B6E 	.long0xb6e
 5254 0b3d 07        	.uleb128 0x7
 5255 0b3e 0000 0000 	.long.LASF162
 5256 0b42 0D        	.byte0xd
 5257 0b43 DC        	.byte0xdc
 5258 0b44 0000 0050 	.long0x50
 5259 0b48 00        	.byte0
 5260 0b49 07        	.uleb128 0x7
 5261 0b4a 0000 0000 	.long.LASF163
 5262 0b4e 0D        	.byte0xd
68K GAS   			page 151


 5263 0b4f DD        	.byte0xdd
 5264 0b50 0000 0B25 	.long0xb25
 5265 0b54 04        	.byte0x4
 5266 0b55 07        	.uleb128 0x7
 5267 0b56 0000 0000 	.long.LASF164
 5268 0b5a 0D        	.byte0xd
 5269 0b5b DE        	.byte0xde
 5270 0b5c 0000 0086 	.long0x86
 5271 0b60 44        	.byte0x44
 5272 0b61 07        	.uleb128 0x7
 5273 0b62 0000 0000 	.long.LASF165
 5274 0b66 0D        	.byte0xd
 5275 0b67 DF        	.byte0xdf
 5276 0b68 0000 0069 	.long0x69
 5277 0b6c 48        	.byte0x48
 5278 0b6d 00        	.byte0
 5279 0b6e 02        	.uleb128 0x2
 5280 0b6f 0000 0000 	.long.LASF166
 5281 0b73 0D        	.byte0xd
 5282 0b74 E0        	.byte0xe0
 5283 0b75 0000 0B35 	.long0xb35
 5284 0b79 06        	.uleb128 0x6
 5285 0b7a 20        	.byte0x20
 5286 0b7b 0E        	.byte0xe
 5287 0b7c 34        	.byte0x34
 5288 0b7d 0000 0BE2 	.long0xbe2
 5289 0b81 07        	.uleb128 0x7
 5290 0b82 0000 0000 	.long.LASF167
 5291 0b86 0E        	.byte0xe
 5292 0b87 36        	.byte0x36
 5293 0b88 0000 0086 	.long0x86
 5294 0b8c 00        	.byte0
 5295 0b8d 07        	.uleb128 0x7
 5296 0b8e 0000 0000 	.long.LASF168
 5297 0b92 0E        	.byte0xe
 5298 0b93 37        	.byte0x37
 5299 0b94 0000 0086 	.long0x86
 5300 0b98 04        	.byte0x4
 5301 0b99 07        	.uleb128 0x7
 5302 0b9a 0000 0000 	.long.LASF169
 5303 0b9e 0E        	.byte0xe
 5304 0b9f 38        	.byte0x38
 5305 0ba0 0000 009F 	.long0x9f
 5306 0ba4 08        	.byte0x8
 5307 0ba5 07        	.uleb128 0x7
 5308 0ba6 0000 0000 	.long.LASF170
 5309 0baa 0E        	.byte0xe
 5310 0bab 39        	.byte0x39
 5311 0bac 0000 009F 	.long0x9f
 5312 0bb0 0C        	.byte0xc
 5313 0bb1 07        	.uleb128 0x7
 5314 0bb2 0000 0000 	.long.LASF171
 5315 0bb6 0E        	.byte0xe
 5316 0bb7 3A        	.byte0x3a
 5317 0bb8 0000 009F 	.long0x9f
 5318 0bbc 10        	.byte0x10
 5319 0bbd 07        	.uleb128 0x7
68K GAS   			page 152


 5320 0bbe 0000 0000 	.long.LASF172
 5321 0bc2 0E        	.byte0xe
 5322 0bc3 3B        	.byte0x3b
 5323 0bc4 0000 009F 	.long0x9f
 5324 0bc8 14        	.byte0x14
 5325 0bc9 07        	.uleb128 0x7
 5326 0bca 0000 0000 	.long.LASF173
 5327 0bce 0E        	.byte0xe
 5328 0bcf 3C        	.byte0x3c
 5329 0bd0 0000 009F 	.long0x9f
 5330 0bd4 18        	.byte0x18
 5331 0bd5 07        	.uleb128 0x7
 5332 0bd6 0000 0000 	.long.LASF174
 5333 0bda 0E        	.byte0xe
 5334 0bdb 3D        	.byte0x3d
 5335 0bdc 0000 009F 	.long0x9f
 5336 0be0 1C        	.byte0x1c
 5337 0be1 00        	.byte0
 5338 0be2 02        	.uleb128 0x2
 5339 0be3 0000 0000 	.long.LASF175
 5340 0be7 0E        	.byte0xe
 5341 0be8 3E        	.byte0x3e
 5342 0be9 0000 0B79 	.long0xb79
 5343 0bed 06        	.uleb128 0x6
 5344 0bee 7C        	.byte0x7c
 5345 0bef 0E        	.byte0xe
 5346 0bf0 40        	.byte0x40
 5347 0bf1 0000 0C32 	.long0xc32
 5348 0bf5 07        	.uleb128 0x7
 5349 0bf6 0000 0000 	.long.LASF176
 5350 0bfa 0E        	.byte0xe
 5351 0bfb 42        	.byte0x42
 5352 0bfc 0000 009F 	.long0x9f
 5353 0c00 00        	.byte0
 5354 0c01 07        	.uleb128 0x7
 5355 0c02 0000 0000 	.long.LASF177
 5356 0c06 0E        	.byte0xe
 5357 0c07 43        	.byte0x43
 5358 0c08 0000 0086 	.long0x86
 5359 0c0c 04        	.byte0x4
 5360 0c0d 07        	.uleb128 0x7
 5361 0c0e 0000 0000 	.long.LASF178
 5362 0c12 0E        	.byte0xe
 5363 0c13 44        	.byte0x44
 5364 0c14 0000 0B25 	.long0xb25
 5365 0c18 08        	.byte0x8
 5366 0c19 07        	.uleb128 0x7
 5367 0c1a 0000 0000 	.long.LASF17
 5368 0c1e 0E        	.byte0xe
 5369 0c1f 45        	.byte0x45
 5370 0c20 0000 0107 	.long0x107
 5371 0c24 48        	.byte0x48
 5372 0c25 07        	.uleb128 0x7
 5373 0c26 0000 0000 	.long.LASF179
 5374 0c2a 0E        	.byte0xe
 5375 0c2b 46        	.byte0x46
 5376 0c2c 0000 0BE2 	.long0xbe2
68K GAS   			page 153


 5377 0c30 5C        	.byte0x5c
 5378 0c31 00        	.byte0
 5379 0c32 02        	.uleb128 0x2
 5380 0c33 0000 0000 	.long.LASF180
 5381 0c37 0E        	.byte0xe
 5382 0c38 47        	.byte0x47
 5383 0c39 0000 0BED 	.long0xbed
 5384 0c3d 02        	.uleb128 0x2
 5385 0c3e 0000 0000 	.long.LASF181
 5386 0c42 0E        	.byte0xe
 5387 0c43 55        	.byte0x55
 5388 0c44 0000 0C32 	.long0xc32
 5389 0c48 06        	.uleb128 0x6
 5390 0c49 24        	.byte0x24
 5391 0c4a 0F        	.byte0xf
 5392 0c4b 2E        	.byte0x2e
 5393 0c4c 0000 0C8D 	.long0xc8d
 5394 0c50 07        	.uleb128 0x7
 5395 0c51 0000 0000 	.long.LASF17
 5396 0c55 0F        	.byte0xf
 5397 0c56 30        	.byte0x30
 5398 0c57 0000 0107 	.long0x107
 5399 0c5b 00        	.byte0
 5400 0c5c 07        	.uleb128 0x7
 5401 0c5d 0000 0000 	.long.LASF18
 5402 0c61 0F        	.byte0xf
 5403 0c62 31        	.byte0x31
 5404 0c63 0000 0086 	.long0x86
 5405 0c67 14        	.byte0x14
 5406 0c68 07        	.uleb128 0x7
 5407 0c69 0000 0000 	.long.LASF182
 5408 0c6d 0F        	.byte0xf
 5409 0c6e 32        	.byte0x32
 5410 0c6f 0000 0086 	.long0x86
 5411 0c73 18        	.byte0x18
 5412 0c74 07        	.uleb128 0x7
 5413 0c75 0000 0000 	.long.LASF183
 5414 0c79 0F        	.byte0xf
 5415 0c7a 33        	.byte0x33
 5416 0c7b 0000 0086 	.long0x86
 5417 0c7f 1C        	.byte0x1c
 5418 0c80 07        	.uleb128 0x7
 5419 0c81 0000 0000 	.long.LASF184
 5420 0c85 0F        	.byte0xf
 5421 0c86 34        	.byte0x34
 5422 0c87 0000 0086 	.long0x86
 5423 0c8b 20        	.byte0x20
 5424 0c8c 00        	.byte0
 5425 0c8d 02        	.uleb128 0x2
 5426 0c8e 0000 0000 	.long.LASF185
 5427 0c92 0F        	.byte0xf
 5428 0c93 36        	.byte0x36
 5429 0c94 0000 0C48 	.long0xc48
 5430 0c98 1B        	.uleb128 0x1b
 5431 0c99 BC        	.byte0xbc
 5432 0c9a 01        	.byte0x1
 5433 0c9b 010C      	.word0x10c
68K GAS   			page 154


 5434 0c9d 0000 0DB3 	.long0xdb3
 5435 0ca1 18        	.uleb128 0x18
 5436 0ca2 0000 0000 	.long.LASF186
 5437 0ca6 01        	.byte0x1
 5438 0ca7 010E      	.word0x10e
 5439 0ca9 0000 0086 	.long0x86
 5440 0cad 00        	.byte0
 5441 0cae 18        	.uleb128 0x18
 5442 0caf 0000 0000 	.long.LASF187
 5443 0cb3 01        	.byte0x1
 5444 0cb4 0110      	.word0x110
 5445 0cb6 0000 0086 	.long0x86
 5446 0cba 04        	.byte0x4
 5447 0cbb 18        	.uleb128 0x18
 5448 0cbc 0000 0000 	.long.LASF188
 5449 0cc0 01        	.byte0x1
 5450 0cc1 0113      	.word0x113
 5451 0cc3 0000 0107 	.long0x107
 5452 0cc7 08        	.byte0x8
 5453 0cc8 18        	.uleb128 0x18
 5454 0cc9 0000 0000 	.long.LASF189
 5455 0ccd 01        	.byte0x1
 5456 0cce 0115      	.word0x115
 5457 0cd0 0000 0107 	.long0x107
 5458 0cd4 1C        	.byte0x1c
 5459 0cd5 18        	.uleb128 0x18
 5460 0cd6 0000 0000 	.long.LASF190
 5461 0cda 01        	.byte0x1
 5462 0cdb 0117      	.word0x117
 5463 0cdd 0000 0B25 	.long0xb25
 5464 0ce1 30        	.byte0x30
 5465 0ce2 18        	.uleb128 0x18
 5466 0ce3 0000 0000 	.long.LASF191
 5467 0ce7 01        	.byte0x1
 5468 0ce8 011A      	.word0x11a
 5469 0cea 0000 0086 	.long0x86
 5470 0cee 70        	.byte0x70
 5471 0cef 18        	.uleb128 0x18
 5472 0cf0 0000 0000 	.long.LASF192
 5473 0cf4 01        	.byte0x1
 5474 0cf5 011C      	.word0x11c
 5475 0cf7 0000 0086 	.long0x86
 5476 0cfb 74        	.byte0x74
 5477 0cfc 18        	.uleb128 0x18
 5478 0cfd 0000 0000 	.long.LASF193
 5479 0d01 01        	.byte0x1
 5480 0d02 011E      	.word0x11e
 5481 0d04 0000 0086 	.long0x86
 5482 0d08 78        	.byte0x78
 5483 0d09 18        	.uleb128 0x18
 5484 0d0a 0000 0000 	.long.LASF194
 5485 0d0e 01        	.byte0x1
 5486 0d0f 0120      	.word0x120
 5487 0d11 0000 0086 	.long0x86
 5488 0d15 7C        	.byte0x7c
 5489 0d16 18        	.uleb128 0x18
 5490 0d17 0000 0000 	.long.LASF195
68K GAS   			page 155


 5491 0d1b 01        	.byte0x1
 5492 0d1c 0122      	.word0x122
 5493 0d1e 0000 0086 	.long0x86
 5494 0d22 80        	.byte0x80
 5495 0d23 18        	.uleb128 0x18
 5496 0d24 0000 0000 	.long.LASF196
 5497 0d28 01        	.byte0x1
 5498 0d29 0124      	.word0x124
 5499 0d2b 0000 0086 	.long0x86
 5500 0d2f 84        	.byte0x84
 5501 0d30 18        	.uleb128 0x18
 5502 0d31 0000 0000 	.long.LASF197
 5503 0d35 01        	.byte0x1
 5504 0d36 0126      	.word0x126
 5505 0d38 0000 0086 	.long0x86
 5506 0d3c 88        	.byte0x88
 5507 0d3d 18        	.uleb128 0x18
 5508 0d3e 0000 0000 	.long.LASF198
 5509 0d42 01        	.byte0x1
 5510 0d43 0128      	.word0x128
 5511 0d45 0000 0086 	.long0x86
 5512 0d49 8C        	.byte0x8c
 5513 0d4a 18        	.uleb128 0x18
 5514 0d4b 0000 0000 	.long.LASF199
 5515 0d4f 01        	.byte0x1
 5516 0d50 012A      	.word0x12a
 5517 0d52 0000 0086 	.long0x86
 5518 0d56 90        	.byte0x90
 5519 0d57 18        	.uleb128 0x18
 5520 0d58 0000 0000 	.long.LASF200
 5521 0d5c 01        	.byte0x1
 5522 0d5d 012C      	.word0x12c
 5523 0d5f 0000 0086 	.long0x86
 5524 0d63 94        	.byte0x94
 5525 0d64 18        	.uleb128 0x18
 5526 0d65 0000 0000 	.long.LASF201
 5527 0d69 01        	.byte0x1
 5528 0d6a 012E      	.word0x12e
 5529 0d6c 0000 0074 	.long0x74
 5530 0d70 98        	.byte0x98
 5531 0d71 18        	.uleb128 0x18
 5532 0d72 0000 0000 	.long.LASF202
 5533 0d76 01        	.byte0x1
 5534 0d77 0131      	.word0x131
 5535 0d79 0000 0074 	.long0x74
 5536 0d7d 9A        	.byte0x9a
 5537 0d7e 18        	.uleb128 0x18
 5538 0d7f 0000 0000 	.long.LASF203
 5539 0d83 01        	.byte0x1
 5540 0d84 0133      	.word0x133
 5541 0d86 0000 0086 	.long0x86
 5542 0d8a 9C        	.byte0x9c
 5543 0d8b 18        	.uleb128 0x18
 5544 0d8c 0000 0000 	.long.LASF204
 5545 0d90 01        	.byte0x1
 5546 0d91 0135      	.word0x135
 5547 0d93 0000 0086 	.long0x86
68K GAS   			page 156


 5548 0d97 A0        	.byte0xa0
 5549 0d98 18        	.uleb128 0x18
 5550 0d99 0000 0000 	.long.LASF205
 5551 0d9d 01        	.byte0x1
 5552 0d9e 0137      	.word0x137
 5553 0da0 0000 0107 	.long0x107
 5554 0da4 A4        	.byte0xa4
 5555 0da5 18        	.uleb128 0x18
 5556 0da6 0000 0000 	.long.LASF206
 5557 0daa 01        	.byte0x1
 5558 0dab 0139      	.word0x139
 5559 0dad 0000 0086 	.long0x86
 5560 0db1 B8        	.byte0xb8
 5561 0db2 00        	.byte0
 5562 0db3 04        	.uleb128 0x4
 5563 0db4 0000 0000 	.long.LASF207
 5564 0db8 01        	.byte0x1
 5565 0db9 013C      	.word0x13c
 5566 0dbb 0000 0C98 	.long0xc98
 5567 0dbf 08        	.uleb128 0x8
 5568 0dc0 0000 00B6 	.long0xb6
 5569 0dc4 0000 0DCF 	.long0xdcf
 5570 0dc8 09        	.uleb128 0x9
 5571 0dc9 0000 0091 	.long0x91
 5572 0dcd 25        	.byte0x25
 5573 0dce 00        	.byte0
 5574 0dcf 04        	.uleb128 0x4
 5575 0dd0 0000 0000 	.long.LASF208
 5576 0dd4 01        	.byte0x1
 5577 0dd5 0174      	.word0x174
 5578 0dd7 0000 0515 	.long0x515
 5579 0ddb 04        	.uleb128 0x4
 5580 0ddc 0000 0000 	.long.LASF209
 5581 0de0 01        	.byte0x1
 5582 0de1 0175      	.word0x175
 5583 0de3 0000 0DE7 	.long0xde7
 5584 0de7 0A        	.uleb128 0xa
 5585 0de8 04        	.byte0x4
 5586 0de9 0000 0DED 	.long0xded
 5587 0ded 22        	.uleb128 0x22
 5588 0dee 0000 0050 	.long0x50
 5589 0df2 23        	.uleb128 0x23
 5590 0df3 07        	.byte0x7
 5591 0df4 04        	.byte0x4
 5592 0df5 0000 025D 	.long0x25d
 5593 0df9 01        	.byte0x1
 5594 0dfa 0178      	.word0x178
 5595 0dfc 0000 0E23 	.long0xe23
 5596 0e00 24        	.uleb128 0x24
 5597 0e01 0000 0000 	.long.LASF210
 5598 0e05 00        	.byte0
 5599 0e06 25        	.uleb128 0x25
 5600 0e07 0000 0000 	.long.LASF211
 5601 0e0b 07D0      	.word0x7d0
 5602 0e0d 25        	.uleb128 0x25
 5603 0e0e 0000 0000 	.long.LASF212
 5604 0e12 07D1      	.word0x7d1
68K GAS   			page 157


 5605 0e14 25        	.uleb128 0x25
 5606 0e15 0000 0000 	.long.LASF213
 5607 0e19 07D2      	.word0x7d2
 5608 0e1b 25        	.uleb128 0x25
 5609 0e1c 0000 0000 	.long.LASF214
 5610 0e20 07D3      	.word0x7d3
 5611 0e22 00        	.byte0
 5612 0e23 04        	.uleb128 0x4
 5613 0e24 0000 0000 	.long.LASF215
 5614 0e28 01        	.byte0x1
 5615 0e29 017E      	.word0x17e
 5616 0e2b 0000 0DF2 	.long0xdf2
 5617 0e2f 1C        	.uleb128 0x1c
 5618 0e30 04        	.byte0x4
 5619 0e31 01        	.byte0x1
 5620 0e32 0186      	.word0x186
 5621 0e34 0000 0E5D 	.long0xe5d
 5622 0e38 1D        	.uleb128 0x1d
 5623 0e39 0000 0000 	.long.LASF216
 5624 0e3d 01        	.byte0x1
 5625 0e3e 0188      	.word0x188
 5626 0e40 0000 0DCF 	.long0xdcf
 5627 0e44 1D        	.uleb128 0x1d
 5628 0e45 0000 0000 	.long.LASF217
 5629 0e49 01        	.byte0x1
 5630 0e4a 0189      	.word0x189
 5631 0e4c 0000 0DDB 	.long0xddb
 5632 0e50 1D        	.uleb128 0x1d
 5633 0e51 0000 0000 	.long.LASF218
 5634 0e55 01        	.byte0x1
 5635 0e56 018A      	.word0x18a
 5636 0e58 0000 009F 	.long0x9f
 5637 0e5c 00        	.byte0
 5638 0e5d 1B        	.uleb128 0x1b
 5639 0e5e 10        	.byte0x10
 5640 0e5f 01        	.byte0x1
 5641 0e60 0183      	.word0x183
 5642 0e62 0000 0E9B 	.long0xe9b
 5643 0e66 18        	.uleb128 0x18
 5644 0e67 0000 0000 	.long.LASF219
 5645 0e6b 01        	.byte0x1
 5646 0e6c 0185      	.word0x185
 5647 0e6e 0000 0E23 	.long0xe23
 5648 0e72 00        	.byte0
 5649 0e73 18        	.uleb128 0x18
 5650 0e74 0000 0000 	.long.LASF220
 5651 0e78 01        	.byte0x1
 5652 0e79 018B      	.word0x18b
 5653 0e7b 0000 0E2F 	.long0xe2f
 5654 0e7f 04        	.byte0x4
 5655 0e80 18        	.uleb128 0x18
 5656 0e81 0000 0000 	.long.LASF202
 5657 0e85 01        	.byte0x1
 5658 0e86 018C      	.word0x18c
 5659 0e88 0000 0086 	.long0x86
 5660 0e8c 08        	.byte0x8
 5661 0e8d 18        	.uleb128 0x18
68K GAS   			page 158


 5662 0e8e 0000 0000 	.long.LASF191
 5663 0e92 01        	.byte0x1
 5664 0e93 018D      	.word0x18d
 5665 0e95 0000 0086 	.long0x86
 5666 0e99 0C        	.byte0xc
 5667 0e9a 00        	.byte0
 5668 0e9b 05        	.uleb128 0x5
 5669 0e9c 0000 0E5D 	.long0xe5d
 5670 0ea0 04        	.uleb128 0x4
 5671 0ea1 0000 0000 	.long.LASF221
 5672 0ea5 01        	.byte0x1
 5673 0ea6 018E      	.word0x18e
 5674 0ea8 0000 0E9B 	.long0xe9b
 5675 0eac 06        	.uleb128 0x6
 5676 0ead 08        	.byte0x8
 5677 0eae 10        	.byte0x10
 5678 0eaf 4D        	.byte0x4d
 5679 0eb0 0000 0ECD 	.long0xecd
 5680 0eb4 07        	.uleb128 0x7
 5681 0eb5 0000 0000 	.long.LASF222
 5682 0eb9 10        	.byte0x10
 5683 0eba 4F        	.byte0x4f
 5684 0ebb 0000 0086 	.long0x86
 5685 0ebf 00        	.byte0
 5686 0ec0 07        	.uleb128 0x7
 5687 0ec1 0000 0000 	.long.LASF223
 5688 0ec5 10        	.byte0x10
 5689 0ec6 50        	.byte0x50
 5690 0ec7 0000 0086 	.long0x86
 5691 0ecb 04        	.byte0x4
 5692 0ecc 00        	.byte0
 5693 0ecd 02        	.uleb128 0x2
 5694 0ece 0000 0000 	.long.LASF224
 5695 0ed2 10        	.byte0x10
 5696 0ed3 51        	.byte0x51
 5697 0ed4 0000 0EAC 	.long0xeac
 5698 0ed8 06        	.uleb128 0x6
 5699 0ed9 20        	.byte0x20
 5700 0eda 10        	.byte0x10
 5701 0edb 92        	.byte0x92
 5702 0edc 0000 0F29 	.long0xf29
 5703 0ee0 07        	.uleb128 0x7
 5704 0ee1 0000 0000 	.long.LASF225
 5705 0ee5 10        	.byte0x10
 5706 0ee6 94        	.byte0x94
 5707 0ee7 0000 0086 	.long0x86
 5708 0eeb 00        	.byte0
 5709 0eec 07        	.uleb128 0x7
 5710 0eed 0000 0000 	.long.LASF226
 5711 0ef1 10        	.byte0x10
 5712 0ef2 95        	.byte0x95
 5713 0ef3 0000 003E 	.long0x3e
 5714 0ef7 04        	.byte0x4
 5715 0ef8 07        	.uleb128 0x7
 5716 0ef9 0000 0000 	.long.LASF227
 5717 0efd 10        	.byte0x10
 5718 0efe 96        	.byte0x96
68K GAS   			page 159


 5719 0eff 0000 0074 	.long0x74
 5720 0f03 06        	.byte0x6
 5721 0f04 07        	.uleb128 0x7
 5722 0f05 0000 0000 	.long.LASF228
 5723 0f09 10        	.byte0x10
 5724 0f0a 97        	.byte0x97
 5725 0f0b 0000 0ECD 	.long0xecd
 5726 0f0f 08        	.byte0x8
 5727 0f10 07        	.uleb128 0x7
 5728 0f11 0000 0000 	.long.LASF229
 5729 0f15 10        	.byte0x10
 5730 0f16 98        	.byte0x98
 5731 0f17 0000 0ECD 	.long0xecd
 5732 0f1b 10        	.byte0x10
 5733 0f1c 07        	.uleb128 0x7
 5734 0f1d 0000 0000 	.long.LASF230
 5735 0f21 10        	.byte0x10
 5736 0f22 99        	.byte0x99
 5737 0f23 0000 0ECD 	.long0xecd
 5738 0f27 18        	.byte0x18
 5739 0f28 00        	.byte0
 5740 0f29 02        	.uleb128 0x2
 5741 0f2a 0000 0000 	.long.LASF231
 5742 0f2e 10        	.byte0x10
 5743 0f2f 9B        	.byte0x9b
 5744 0f30 0000 0ED8 	.long0xed8
 5745 0f34 08        	.uleb128 0x8
 5746 0f35 0000 0086 	.long0x86
 5747 0f39 0000 0F44 	.long0xf44
 5748 0f3d 09        	.uleb128 0x9
 5749 0f3e 0000 0091 	.long0x91
 5750 0f42 1F        	.byte0x1f
 5751 0f43 00        	.byte0
 5752 0f44 08        	.uleb128 0x8
 5753 0f45 0000 0069 	.long0x69
 5754 0f49 0000 0F54 	.long0xf54
 5755 0f4d 09        	.uleb128 0x9
 5756 0f4e 0000 0091 	.long0x91
 5757 0f52 01        	.byte0x1
 5758 0f53 00        	.byte0
 5759 0f54 06        	.uleb128 0x6
 5760 0f55 02        	.byte0x2
 5761 0f56 11        	.byte0x11
 5762 0f57 B1        	.byte0xb1
 5763 0f58 0000 0F75 	.long0xf75
 5764 0f5c 07        	.uleb128 0x7
 5765 0f5d 0000 0000 	.long.LASF202
 5766 0f61 11        	.byte0x11
 5767 0f62 B2        	.byte0xb2
 5768 0f63 0000 0069 	.long0x69
 5769 0f67 00        	.byte0
 5770 0f68 07        	.uleb128 0x7
 5771 0f69 0000 0000 	.long.LASF232
 5772 0f6d 11        	.byte0x11
 5773 0f6e B3        	.byte0xb3
 5774 0f6f 0000 0069 	.long0x69
 5775 0f73 01        	.byte0x1
68K GAS   			page 160


 5776 0f74 00        	.byte0
 5777 0f75 02        	.uleb128 0x2
 5778 0f76 0000 0000 	.long.LASF233
 5779 0f7a 11        	.byte0x11
 5780 0f7b B4        	.byte0xb4
 5781 0f7c 0000 0F54 	.long0xf54
 5782 0f80 21        	.uleb128 0x21
 5783 0f81 0000 0000 	.long.LASF234
 5784 0f85 11        	.byte0x11
 5785 0f86 B6        	.byte0xb6
 5786 0f87 0000 0F75 	.long0xf75
 5787 0f8b 08        	.uleb128 0x8
 5788 0f8c 0000 0069 	.long0x69
 5789 0f90 0000 0F9B 	.long0xf9b
 5790 0f94 09        	.uleb128 0x9
 5791 0f95 0000 0091 	.long0x91
 5792 0f99 0B        	.byte0xb
 5793 0f9a 00        	.byte0
 5794 0f9b 1B        	.uleb128 0x1b
 5795 0f9c 20        	.byte0x20
 5796 0f9d 12        	.byte0x12
 5797 0f9e 047C      	.word0x47c
 5798 0fa0 0000 0FE6 	.long0xfe6
 5799 0fa4 18        	.uleb128 0x18
 5800 0fa5 0000 0000 	.long.LASF235
 5801 0fa9 12        	.byte0x12
 5802 0faa 047D      	.word0x47d
 5803 0fac 0000 0107 	.long0x107
 5804 0fb0 00        	.byte0
 5805 0fb1 18        	.uleb128 0x18
 5806 0fb2 0000 0000 	.long.LASF236
 5807 0fb6 12        	.byte0x12
 5808 0fb7 047F      	.word0x47f
 5809 0fb9 0000 0074 	.long0x74
 5810 0fbd 14        	.byte0x14
 5811 0fbe 18        	.uleb128 0x18
 5812 0fbf 0000 0000 	.long.LASF237
 5813 0fc3 12        	.byte0x12
 5814 0fc4 0481      	.word0x481
 5815 0fc6 0000 0074 	.long0x74
 5816 0fca 16        	.byte0x16
 5817 0fcb 18        	.uleb128 0x18
 5818 0fcc 0000 0000 	.long.LASF238
 5819 0fd0 12        	.byte0x12
 5820 0fd1 0483      	.word0x483
 5821 0fd3 0000 0086 	.long0x86
 5822 0fd7 18        	.byte0x18
 5823 0fd8 18        	.uleb128 0x18
 5824 0fd9 0000 0000 	.long.LASF239
 5825 0fdd 12        	.byte0x12
 5826 0fde 0485      	.word0x485
 5827 0fe0 0000 0086 	.long0x86
 5828 0fe4 1C        	.byte0x1c
 5829 0fe5 00        	.byte0
 5830 0fe6 04        	.uleb128 0x4
 5831 0fe7 0000 0000 	.long.LASF240
 5832 0feb 12        	.byte0x12
68K GAS   			page 161


 5833 0fec 0488      	.word0x488
 5834 0fee 0000 0F9B 	.long0xf9b
 5835 0ff2 1B        	.uleb128 0x1b
 5836 0ff3 9C        	.byte0x9c
 5837 0ff4 12        	.byte0x12
 5838 0ff5 048E      	.word0x48e
 5839 0ff7 0000 1030 	.long0x1030
 5840 0ffb 18        	.uleb128 0x18
 5841 0ffc 0000 0000 	.long.LASF241
 5842 1000 12        	.byte0x12
 5843 1001 048F      	.word0x48f
 5844 1003 0000 0FE6 	.long0xfe6
 5845 1007 00        	.byte0
 5846 1008 18        	.uleb128 0x18
 5847 1009 0000 0000 	.long.LASF242
 5848 100d 12        	.byte0x12
 5849 100e 0490      	.word0x490
 5850 1010 0000 1030 	.long0x1030
 5851 1014 20        	.byte0x20
 5852 1015 18        	.uleb128 0x18
 5853 1016 0000 0000 	.long.LASF243
 5854 101a 12        	.byte0x12
 5855 101b 0492      	.word0x492
 5856 101d 0000 0069 	.long0x69
 5857 1021 9A        	.byte0x9a
 5858 1022 18        	.uleb128 0x18
 5859 1023 0000 0000 	.long.LASF244
 5860 1027 12        	.byte0x12
 5861 1028 0494      	.word0x494
 5862 102a 0000 0069 	.long0x69
 5863 102e 9B        	.byte0x9b
 5864 102f 00        	.byte0
 5865 1030 08        	.uleb128 0x8
 5866 1031 0000 00B6 	.long0xb6
 5867 1035 0000 1040 	.long0x1040
 5868 1039 09        	.uleb128 0x9
 5869 103a 0000 0091 	.long0x91
 5870 103e 79        	.byte0x79
 5871 103f 00        	.byte0
 5872 1040 04        	.uleb128 0x4
 5873 1041 0000 0000 	.long.LASF245
 5874 1045 12        	.byte0x12
 5875 1046 0496      	.word0x496
 5876 1048 0000 0FF2 	.long0xff2
 5877 104c 1B        	.uleb128 0x1b
 5878 104d A8        	.byte0xa8
 5879 104e 12        	.byte0x12
 5880 104f 0498      	.word0x498
 5881 1051 0000 1070 	.long0x1070
 5882 1055 18        	.uleb128 0x18
 5883 1056 0000 0000 	.long.LASF246
 5884 105a 12        	.byte0x12
 5885 105b 0499      	.word0x499
 5886 105d 0000 0F8B 	.long0xf8b
 5887 1061 00        	.byte0
 5888 1062 18        	.uleb128 0x18
 5889 1063 0000 0000 	.long.LASF247
68K GAS   			page 162


 5890 1067 12        	.byte0x12
 5891 1068 049A      	.word0x49a
 5892 106a 0000 1040 	.long0x1040
 5893 106e 0C        	.byte0xc
 5894 106f 00        	.byte0
 5895 1070 04        	.uleb128 0x4
 5896 1071 0000 0000 	.long.LASF248
 5897 1075 12        	.byte0x12
 5898 1076 049B      	.word0x49b
 5899 1078 0000 104C 	.long0x104c
 5900 107c 06        	.uleb128 0x6
 5901 107d 10        	.byte0x10
 5902 107e 13        	.byte0x13
 5903 107f 1E        	.byte0x1e
 5904 1080 0000 10B5 	.long0x10b5
 5905 1084 07        	.uleb128 0x7
 5906 1085 0000 0000 	.long.LASF249
 5907 1089 13        	.byte0x13
 5908 108a 20        	.byte0x20
 5909 108b 0000 0086 	.long0x86
 5910 108f 00        	.byte0
 5911 1090 07        	.uleb128 0x7
 5912 1091 0000 0000 	.long.LASF250
 5913 1095 13        	.byte0x13
 5914 1096 21        	.byte0x21
 5915 1097 0000 0086 	.long0x86
 5916 109b 04        	.byte0x4
 5917 109c 07        	.uleb128 0x7
 5918 109d 0000 0000 	.long.LASF251
 5919 10a1 13        	.byte0x13
 5920 10a2 22        	.byte0x22
 5921 10a3 0000 0086 	.long0x86
 5922 10a7 08        	.byte0x8
 5923 10a8 07        	.uleb128 0x7
 5924 10a9 0000 0000 	.long.LASF252
 5925 10ad 13        	.byte0x13
 5926 10ae 23        	.byte0x23
 5927 10af 0000 0086 	.long0x86
 5928 10b3 0C        	.byte0xc
 5929 10b4 00        	.byte0
 5930 10b5 02        	.uleb128 0x2
 5931 10b6 0000 0000 	.long.LASF253
 5932 10ba 13        	.byte0x13
 5933 10bb 25        	.byte0x25
 5934 10bc 0000 107C 	.long0x107c
 5935 10c0 26        	.uleb128 0x26
 5936 10c1 0108      	.word0x108
 5937 10c3 13        	.byte0x13
 5938 10c4 2A        	.byte0x2a
 5939 10c5 0000 115A 	.long0x115a
 5940 10c9 07        	.uleb128 0x7
 5941 10ca 0000 0000 	.long.LASF254
 5942 10ce 13        	.byte0x13
 5943 10cf 2C        	.byte0x2c
 5944 10d0 0000 0086 	.long0x86
 5945 10d4 00        	.byte0
 5946 10d5 07        	.uleb128 0x7
68K GAS   			page 163


 5947 10d6 0000 0000 	.long.LASF255
 5948 10da 13        	.byte0x13
 5949 10db 2D        	.byte0x2d
 5950 10dc 0000 0086 	.long0x86
 5951 10e0 04        	.byte0x4
 5952 10e1 07        	.uleb128 0x7
 5953 10e2 0000 0000 	.long.LASF256
 5954 10e6 13        	.byte0x13
 5955 10e7 2E        	.byte0x2e
 5956 10e8 0000 0086 	.long0x86
 5957 10ec 08        	.byte0x8
 5958 10ed 07        	.uleb128 0x7
 5959 10ee 0000 0000 	.long.LASF257
 5960 10f2 13        	.byte0x13
 5961 10f3 2F        	.byte0x2f
 5962 10f4 0000 0086 	.long0x86
 5963 10f8 0C        	.byte0xc
 5964 10f9 07        	.uleb128 0x7
 5965 10fa 0000 0000 	.long.LASF258
 5966 10fe 13        	.byte0x13
 5967 10ff 30        	.byte0x30
 5968 1100 0000 0086 	.long0x86
 5969 1104 10        	.byte0x10
 5970 1105 07        	.uleb128 0x7
 5971 1106 0000 0000 	.long.LASF259
 5972 110a 13        	.byte0x13
 5973 110b 31        	.byte0x31
 5974 110c 0000 0086 	.long0x86
 5975 1110 14        	.byte0x14
 5976 1111 07        	.uleb128 0x7
 5977 1112 0000 0000 	.long.LASF260
 5978 1116 13        	.byte0x13
 5979 1117 32        	.byte0x32
 5980 1118 0000 10B5 	.long0x10b5
 5981 111c 18        	.byte0x18
 5982 111d 07        	.uleb128 0x7
 5983 111e 0000 0000 	.long.LASF261
 5984 1122 13        	.byte0x13
 5985 1123 33        	.byte0x33
 5986 1124 0000 0ECD 	.long0xecd
 5987 1128 28        	.byte0x28
 5988 1129 07        	.uleb128 0x7
 5989 112a 0000 0000 	.long.LASF262
 5990 112e 13        	.byte0x13
 5991 112f 34        	.byte0x34
 5992 1130 0000 115A 	.long0x115a
 5993 1134 30        	.byte0x30
 5994 1135 07        	.uleb128 0x7
 5995 1136 0000 0000 	.long.LASF263
 5996 113a 13        	.byte0x13
 5997 113b 35        	.byte0x35
 5998 113c 0000 0086 	.long0x86
 5999 1140 80        	.byte0x80
 6000 1141 07        	.uleb128 0x7
 6001 1142 0000 0000 	.long.LASF264
 6002 1146 13        	.byte0x13
 6003 1147 36        	.byte0x36
68K GAS   			page 164


 6004 1148 0000 0086 	.long0x86
 6005 114c 84        	.byte0x84
 6006 114d 07        	.uleb128 0x7
 6007 114e 0000 0000 	.long.LASF265
 6008 1152 13        	.byte0x13
 6009 1153 37        	.byte0x37
 6010 1154 0000 0F34 	.long0xf34
 6011 1158 88        	.byte0x88
 6012 1159 00        	.byte0
 6013 115a 08        	.uleb128 0x8
 6014 115b 0000 00B6 	.long0xb6
 6015 115f 0000 116A 	.long0x116a
 6016 1163 09        	.uleb128 0x9
 6017 1164 0000 0091 	.long0x91
 6018 1168 4F        	.byte0x4f
 6019 1169 00        	.byte0
 6020 116a 02        	.uleb128 0x2
 6021 116b 0000 0000 	.long.LASF266
 6022 116f 13        	.byte0x13
 6023 1170 38        	.byte0x38
 6024 1171 0000 10C0 	.long0x10c0
 6025 1175 06        	.uleb128 0x6
 6026 1176 0C        	.byte0xc
 6027 1177 14        	.byte0x14
 6028 1178 1D        	.byte0x1d
 6029 1179 0000 11A2 	.long0x11a2
 6030 117d 07        	.uleb128 0x7
 6031 117e 0000 0000 	.long.LASF267
 6032 1182 14        	.byte0x14
 6033 1183 1E        	.byte0x1e
 6034 1184 0000 0086 	.long0x86
 6035 1188 00        	.byte0
 6036 1189 07        	.uleb128 0x7
 6037 118a 0000 0000 	.long.LASF268
 6038 118e 14        	.byte0x14
 6039 118f 1F        	.byte0x1f
 6040 1190 0000 0086 	.long0x86
 6041 1194 04        	.byte0x4
 6042 1195 07        	.uleb128 0x7
 6043 1196 0000 0000 	.long.LASF269
 6044 119a 14        	.byte0x14
 6045 119b 20        	.byte0x20
 6046 119c 0000 0086 	.long0x86
 6047 11a0 08        	.byte0x8
 6048 11a1 00        	.byte0
 6049 11a2 02        	.uleb128 0x2
 6050 11a3 0000 0000 	.long.LASF270
 6051 11a7 14        	.byte0x14
 6052 11a8 21        	.byte0x21
 6053 11a9 0000 1175 	.long0x1175
 6054 11ad 06        	.uleb128 0x6
 6055 11ae 4C        	.byte0x4c
 6056 11af 14        	.byte0x14
 6057 11b0 23        	.byte0x23
 6058 11b1 0000 126A 	.long0x126a
 6059 11b5 07        	.uleb128 0x7
 6060 11b6 0000 0000 	.long.LASF271
68K GAS   			page 165


 6061 11ba 14        	.byte0x14
 6062 11bb 24        	.byte0x24
 6063 11bc 0000 0069 	.long0x69
 6064 11c0 00        	.byte0
 6065 11c1 07        	.uleb128 0x7
 6066 11c2 0000 0000 	.long.LASF272
 6067 11c6 14        	.byte0x14
 6068 11c7 25        	.byte0x25
 6069 11c8 0000 0069 	.long0x69
 6070 11cc 01        	.byte0x1
 6071 11cd 07        	.uleb128 0x7
 6072 11ce 0000 0000 	.long.LASF273
 6073 11d2 14        	.byte0x14
 6074 11d3 26        	.byte0x26
 6075 11d4 0000 0F44 	.long0xf44
 6076 11d8 02        	.byte0x2
 6077 11d9 07        	.uleb128 0x7
 6078 11da 0000 0000 	.long.LASF274
 6079 11de 14        	.byte0x14
 6080 11df 27        	.byte0x27
 6081 11e0 0000 0086 	.long0x86
 6082 11e4 04        	.byte0x4
 6083 11e5 07        	.uleb128 0x7
 6084 11e6 0000 0000 	.long.LASF275
 6085 11ea 14        	.byte0x14
 6086 11eb 28        	.byte0x28
 6087 11ec 0000 0086 	.long0x86
 6088 11f0 08        	.byte0x8
 6089 11f1 07        	.uleb128 0x7
 6090 11f2 0000 0000 	.long.LASF276
 6091 11f6 14        	.byte0x14
 6092 11f7 29        	.byte0x29
 6093 11f8 0000 0086 	.long0x86
 6094 11fc 0C        	.byte0xc
 6095 11fd 07        	.uleb128 0x7
 6096 11fe 0000 0000 	.long.LASF277
 6097 1202 14        	.byte0x14
 6098 1203 2A        	.byte0x2a
 6099 1204 0000 0086 	.long0x86
 6100 1208 10        	.byte0x10
 6101 1209 07        	.uleb128 0x7
 6102 120a 0000 0000 	.long.LASF278
 6103 120e 14        	.byte0x14
 6104 120f 2B        	.byte0x2b
 6105 1210 0000 0086 	.long0x86
 6106 1214 14        	.byte0x14
 6107 1215 07        	.uleb128 0x7
 6108 1216 0000 0000 	.long.LASF279
 6109 121a 14        	.byte0x14
 6110 121b 2C        	.byte0x2c
 6111 121c 0000 0086 	.long0x86
 6112 1220 18        	.byte0x18
 6113 1221 07        	.uleb128 0x7
 6114 1222 0000 0000 	.long.LASF280
 6115 1226 14        	.byte0x14
 6116 1227 2D        	.byte0x2d
 6117 1228 0000 0086 	.long0x86
68K GAS   			page 166


 6118 122c 1C        	.byte0x1c
 6119 122d 07        	.uleb128 0x7
 6120 122e 0000 0000 	.long.LASF281
 6121 1232 14        	.byte0x14
 6122 1233 2E        	.byte0x2e
 6123 1234 0000 0086 	.long0x86
 6124 1238 20        	.byte0x20
 6125 1239 07        	.uleb128 0x7
 6126 123a 0000 0000 	.long.LASF282
 6127 123e 14        	.byte0x14
 6128 123f 2F        	.byte0x2f
 6129 1240 0000 0086 	.long0x86
 6130 1244 24        	.byte0x24
 6131 1245 07        	.uleb128 0x7
 6132 1246 0000 0000 	.long.LASF283
 6133 124a 14        	.byte0x14
 6134 124b 30        	.byte0x30
 6135 124c 0000 0086 	.long0x86
 6136 1250 28        	.byte0x28
 6137 1251 07        	.uleb128 0x7
 6138 1252 0000 0000 	.long.LASF284
 6139 1256 14        	.byte0x14
 6140 1257 31        	.byte0x31
 6141 1258 0000 126A 	.long0x126a
 6142 125c 2C        	.byte0x2c
 6143 125d 07        	.uleb128 0x7
 6144 125e 0000 0000 	.long.LASF285
 6145 1262 14        	.byte0x14
 6146 1263 32        	.byte0x32
 6147 1264 0000 126A 	.long0x126a
 6148 1268 3C        	.byte0x3c
 6149 1269 00        	.byte0
 6150 126a 08        	.uleb128 0x8
 6151 126b 0000 0086 	.long0x86
 6152 126f 0000 127A 	.long0x127a
 6153 1273 09        	.uleb128 0x9
 6154 1274 0000 0091 	.long0x91
 6155 1278 03        	.byte0x3
 6156 1279 00        	.byte0
 6157 127a 02        	.uleb128 0x2
 6158 127b 0000 0000 	.long.LASF286
 6159 127f 14        	.byte0x14
 6160 1280 33        	.byte0x33
 6161 1281 0000 11AD 	.long0x11ad
 6162 1285 27        	.uleb128 0x27
 6163 1286 0001 D50C 	.long0x1d50c
 6164 128a 14        	.byte0x14
 6165 128b 35        	.byte0x35
 6166 128c 0000 12A9 	.long0x12a9
 6167 1290 07        	.uleb128 0x7
 6168 1291 0000 0000 	.long.LASF287
 6169 1295 14        	.byte0x14
 6170 1296 36        	.byte0x36
 6171 1297 0000 127A 	.long0x127a
 6172 129b 00        	.byte0
 6173 129c 07        	.uleb128 0x7
 6174 129d 0000 0000 	.long.LASF288
68K GAS   			page 167


 6175 12a1 14        	.byte0x14
 6176 12a2 37        	.byte0x37
 6177 12a3 0000 12A9 	.long0x12a9
 6178 12a7 4C        	.byte0x4c
 6179 12a8 00        	.byte0
 6180 12a9 08        	.uleb128 0x8
 6181 12aa 0000 11A2 	.long0x11a2
 6182 12ae 0000 12BA 	.long0x12ba
 6183 12b2 28        	.uleb128 0x28
 6184 12b3 0000 0091 	.long0x91
 6185 12b7 270F      	.word0x270f
 6186 12b9 00        	.byte0
 6187 12ba 02        	.uleb128 0x2
 6188 12bb 0000 0000 	.long.LASF289
 6189 12bf 14        	.byte0x14
 6190 12c0 38        	.byte0x38
 6191 12c1 0000 1285 	.long0x1285
 6192 12c5 26        	.uleb128 0x26
 6193 12c6 0D28      	.word0xd28
 6194 12c8 15        	.byte0x15
 6195 12c9 1F        	.byte0x1f
 6196 12ca 0000 1317 	.long0x1317
 6197 12ce 07        	.uleb128 0x7
 6198 12cf 0000 0000 	.long.LASF290
 6199 12d3 15        	.byte0x15
 6200 12d4 20        	.byte0x20
 6201 12d5 0000 0074 	.long0x74
 6202 12d9 00        	.byte0
 6203 12da 07        	.uleb128 0x7
 6204 12db 0000 0000 	.long.LASF291
 6205 12df 15        	.byte0x15
 6206 12e0 21        	.byte0x21
 6207 12e1 0000 0074 	.long0x74
 6208 12e5 02        	.byte0x2
 6209 12e6 07        	.uleb128 0x7
 6210 12e7 0000 0000 	.long.LASF292
 6211 12eb 15        	.byte0x15
 6212 12ec 22        	.byte0x22
 6213 12ed 0000 0069 	.long0x69
 6214 12f1 04        	.byte0x4
 6215 12f2 07        	.uleb128 0x7
 6216 12f3 0000 0000 	.long.LASF293
 6217 12f7 15        	.byte0x15
 6218 12f8 23        	.byte0x23
 6219 12f9 0000 0069 	.long0x69
 6220 12fd 05        	.byte0x5
 6221 12fe 07        	.uleb128 0x7
 6222 12ff 0000 0000 	.long.LASF294
 6223 1303 15        	.byte0x15
 6224 1304 24        	.byte0x24
 6225 1305 0000 0074 	.long0x74
 6226 1309 06        	.byte0x6
 6227 130a 07        	.uleb128 0x7
 6228 130b 0000 0000 	.long.LASF295
 6229 130f 15        	.byte0x15
 6230 1310 25        	.byte0x25
 6231 1311 0000 1317 	.long0x1317
68K GAS   			page 168


 6232 1315 08        	.byte0x8
 6233 1316 00        	.byte0
 6234 1317 08        	.uleb128 0x8
 6235 1318 0000 1070 	.long0x1070
 6236 131c 0000 1327 	.long0x1327
 6237 1320 09        	.uleb128 0x9
 6238 1321 0000 0091 	.long0x91
 6239 1325 13        	.byte0x13
 6240 1326 00        	.byte0
 6241 1327 02        	.uleb128 0x2
 6242 1328 0000 0000 	.long.LASF296
 6243 132c 15        	.byte0x15
 6244 132d 27        	.byte0x27
 6245 132e 0000 12C5 	.long0x12c5
 6246 1332 06        	.uleb128 0x6
 6247 1333 18        	.byte0x18
 6248 1334 16        	.byte0x16
 6249 1335 23        	.byte0x23
 6250 1336 0000 1383 	.long0x1383
 6251 133a 07        	.uleb128 0x7
 6252 133b 0000 0000 	.long.LASF255
 6253 133f 16        	.byte0x16
 6254 1340 25        	.byte0x25
 6255 1341 0000 0086 	.long0x86
 6256 1345 00        	.byte0
 6257 1346 07        	.uleb128 0x7
 6258 1347 0000 0000 	.long.LASF256
 6259 134b 16        	.byte0x16
 6260 134c 26        	.byte0x26
 6261 134d 0000 0086 	.long0x86
 6262 1351 04        	.byte0x4
 6263 1352 07        	.uleb128 0x7
 6264 1353 0000 0000 	.long.LASF257
 6265 1357 16        	.byte0x16
 6266 1358 27        	.byte0x27
 6267 1359 0000 0086 	.long0x86
 6268 135d 08        	.byte0x8
 6269 135e 07        	.uleb128 0x7
 6270 135f 0000 0000 	.long.LASF297
 6271 1363 16        	.byte0x16
 6272 1364 28        	.byte0x28
 6273 1365 0000 0086 	.long0x86
 6274 1369 0C        	.byte0xc
 6275 136a 07        	.uleb128 0x7
 6276 136b 0000 0000 	.long.LASF258
 6277 136f 16        	.byte0x16
 6278 1370 29        	.byte0x29
 6279 1371 0000 0086 	.long0x86
 6280 1375 10        	.byte0x10
 6281 1376 07        	.uleb128 0x7
 6282 1377 0000 0000 	.long.LASF259
 6283 137b 16        	.byte0x16
 6284 137c 2A        	.byte0x2a
 6285 137d 0000 0086 	.long0x86
 6286 1381 14        	.byte0x14
 6287 1382 00        	.byte0
 6288 1383 02        	.uleb128 0x2
68K GAS   			page 169


 6289 1384 0000 0000 	.long.LASF298
 6290 1388 16        	.byte0x16
 6291 1389 2B        	.byte0x2b
 6292 138a 0000 1332 	.long0x1332
 6293 138e 27        	.uleb128 0x27
 6294 138f 0002 0324 	.long0x20324
 6295 1393 16        	.byte0x16
 6296 1394 33        	.byte0x33
 6297 1395 0000 143B 	.long0x143b
 6298 1399 07        	.uleb128 0x7
 6299 139a 0000 0000 	.long.LASF299
 6300 139e 16        	.byte0x16
 6301 139f 38        	.byte0x38
 6302 13a0 0000 143B 	.long0x143b
 6303 13a4 00        	.byte0
 6304 13a5 14        	.uleb128 0x14
 6305 13a6 0000 0000 	.long.LASF300
 6306 13aa 16        	.byte0x16
 6307 13ab 39        	.byte0x39
 6308 13ac 0000 0086 	.long0x86
 6309 13b0 14A0      	.word0x14a0
 6310 13b2 14        	.uleb128 0x14
 6311 13b3 0000 0000 	.long.LASF301
 6312 13b7 16        	.byte0x16
 6313 13b8 3A        	.byte0x3a
 6314 13b9 0000 0086 	.long0x86
 6315 13bd 14A4      	.word0x14a4
 6316 13bf 14        	.uleb128 0x14
 6317 13c0 0000 0000 	.long.LASF252
 6318 13c4 16        	.byte0x16
 6319 13c5 3B        	.byte0x3b
 6320 13c6 0000 0086 	.long0x86
 6321 13ca 14A8      	.word0x14a8
 6322 13cc 14        	.uleb128 0x14
 6323 13cd 0000 0000 	.long.LASF302
 6324 13d1 16        	.byte0x16
 6325 13d2 40        	.byte0x40
 6326 13d3 0000 144B 	.long0x144b
 6327 13d7 14AC      	.word0x14ac
 6328 13d9 14        	.uleb128 0x14
 6329 13da 0000 0000 	.long.LASF303
 6330 13de 16        	.byte0x16
 6331 13df 41        	.byte0x41
 6332 13e0 0000 0086 	.long0x86
 6333 13e4 20AC      	.word0x20ac
 6334 13e6 14        	.uleb128 0x14
 6335 13e7 0000 0000 	.long.LASF304
 6336 13eb 16        	.byte0x16
 6337 13ec 42        	.byte0x42
 6338 13ed 0000 0086 	.long0x86
 6339 13f1 20B0      	.word0x20b0
 6340 13f3 14        	.uleb128 0x14
 6341 13f4 0000 0000 	.long.LASF305
 6342 13f8 16        	.byte0x16
 6343 13f9 43        	.byte0x43
 6344 13fa 0000 0086 	.long0x86
 6345 13fe 20B4      	.word0x20b4
68K GAS   			page 170


 6346 1400 14        	.uleb128 0x14
 6347 1401 0000 0000 	.long.LASF306
 6348 1405 16        	.byte0x16
 6349 1406 48        	.byte0x48
 6350 1407 0000 12BA 	.long0x12ba
 6351 140b 20B8      	.word0x20b8
 6352 140d 29        	.uleb128 0x29
 6353 140e 0000 0000 	.long.LASF307
 6354 1412 16        	.byte0x16
 6355 1413 4D        	.byte0x4d
 6356 1414 0000 1383 	.long0x1383
 6357 1418 0001 F5C4 	.long0x1f5c4
 6358 141c 29        	.uleb128 0x29
 6359 141d 0000 0000 	.long.LASF308
 6360 1421 16        	.byte0x16
 6361 1422 53        	.byte0x53
 6362 1423 0000 0F29 	.long0xf29
 6363 1427 0001 F5DC 	.long0x1f5dc
 6364 142b 29        	.uleb128 0x29
 6365 142c 0000 0000 	.long.LASF309
 6366 1430 16        	.byte0x16
 6367 1431 59        	.byte0x59
 6368 1432 0000 1327 	.long0x1327
 6369 1436 0001 F5FC 	.long0x1f5fc
 6370 143a 00        	.byte0
 6371 143b 08        	.uleb128 0x8
 6372 143c 0000 116A 	.long0x116a
 6373 1440 0000 144B 	.long0x144b
 6374 1444 09        	.uleb128 0x9
 6375 1445 0000 0091 	.long0x91
 6376 1449 13        	.byte0x13
 6377 144a 00        	.byte0
 6378 144b 08        	.uleb128 0x8
 6379 144c 0000 00B6 	.long0xb6
 6380 1450 0000 145C 	.long0x145c
 6381 1454 28        	.uleb128 0x28
 6382 1455 0000 0091 	.long0x91
 6383 1459 0BFF      	.word0xbff
 6384 145b 00        	.byte0
 6385 145c 02        	.uleb128 0x2
 6386 145d 0000 0000 	.long.LASF310
 6387 1461 16        	.byte0x16
 6388 1462 5C        	.byte0x5c
 6389 1463 0000 138E 	.long0x138e
 6390 1467 06        	.uleb128 0x6
 6391 1468 0C        	.byte0xc
 6392 1469 17        	.byte0x17
 6393 146a 7E        	.byte0x7e
 6394 146b 0000 1494 	.long0x1494
 6395 146f 07        	.uleb128 0x7
 6396 1470 0000 0000 	.long.LASF311
 6397 1474 17        	.byte0x17
 6398 1475 80        	.byte0x80
 6399 1476 0000 0086 	.long0x86
 6400 147a 00        	.byte0
 6401 147b 07        	.uleb128 0x7
 6402 147c 0000 0000 	.long.LASF312
68K GAS   			page 171


 6403 1480 17        	.byte0x17
 6404 1481 81        	.byte0x81
 6405 1482 0000 0086 	.long0x86
 6406 1486 04        	.byte0x4
 6407 1487 07        	.uleb128 0x7
 6408 1488 0000 0000 	.long.LASF313
 6409 148c 17        	.byte0x17
 6410 148d 82        	.byte0x82
 6411 148e 0000 0050 	.long0x50
 6412 1492 08        	.byte0x8
 6413 1493 00        	.byte0
 6414 1494 02        	.uleb128 0x2
 6415 1495 0000 0000 	.long.LASF314
 6416 1499 17        	.byte0x17
 6417 149a 84        	.byte0x84
 6418 149b 0000 1467 	.long0x1467
 6419 149f 06        	.uleb128 0x6
 6420 14a0 78        	.byte0x78
 6421 14a1 17        	.byte0x17
 6422 14a2 8B        	.byte0x8b
 6423 14a3 0000 1508 	.long0x1508
 6424 14a7 07        	.uleb128 0x7
 6425 14a8 0000 0000 	.long.LASF188
 6426 14ac 17        	.byte0x17
 6427 14ad 8D        	.byte0x8d
 6428 14ae 0000 0107 	.long0x107
 6429 14b2 00        	.byte0
 6430 14b3 07        	.uleb128 0x7
 6431 14b4 0000 0000 	.long.LASF189
 6432 14b8 17        	.byte0x17
 6433 14b9 8E        	.byte0x8e
 6434 14ba 0000 0107 	.long0x107
 6435 14be 14        	.byte0x14
 6436 14bf 07        	.uleb128 0x7
 6437 14c0 0000 0000 	.long.LASF190
 6438 14c4 17        	.byte0x17
 6439 14c5 8F        	.byte0x8f
 6440 14c6 0000 0B25 	.long0xb25
 6441 14ca 28        	.byte0x28
 6442 14cb 07        	.uleb128 0x7
 6443 14cc 0000 0000 	.long.LASF191
 6444 14d0 17        	.byte0x17
 6445 14d1 91        	.byte0x91
 6446 14d2 0000 0086 	.long0x86
 6447 14d6 68        	.byte0x68
 6448 14d7 07        	.uleb128 0x7
 6449 14d8 0000 0000 	.long.LASF200
 6450 14dc 17        	.byte0x17
 6451 14dd 92        	.byte0x92
 6452 14de 0000 009F 	.long0x9f
 6453 14e2 6C        	.byte0x6c
 6454 14e3 07        	.uleb128 0x7
 6455 14e4 0000 0000 	.long.LASF192
 6456 14e8 17        	.byte0x17
 6457 14e9 93        	.byte0x93
 6458 14ea 0000 0086 	.long0x86
 6459 14ee 70        	.byte0x70
68K GAS   			page 172


 6460 14ef 07        	.uleb128 0x7
 6461 14f0 0000 0000 	.long.LASF201
 6462 14f4 17        	.byte0x17
 6463 14f5 95        	.byte0x95
 6464 14f6 0000 0074 	.long0x74
 6465 14fa 74        	.byte0x74
 6466 14fb 07        	.uleb128 0x7
 6467 14fc 0000 0000 	.long.LASF202
 6468 1500 17        	.byte0x17
 6469 1501 96        	.byte0x96
 6470 1502 0000 0074 	.long0x74
 6471 1506 76        	.byte0x76
 6472 1507 00        	.byte0
 6473 1508 02        	.uleb128 0x2
 6474 1509 0000 0000 	.long.LASF315
 6475 150d 17        	.byte0x17
 6476 150e 98        	.byte0x98
 6477 150f 0000 149F 	.long0x149f
 6478 1513 06        	.uleb128 0x6
 6479 1514 1C        	.byte0x1c
 6480 1515 17        	.byte0x17
 6481 1516 9F        	.byte0x9f
 6482 1517 0000 1540 	.long0x1540
 6483 151b 07        	.uleb128 0x7
 6484 151c 0000 0000 	.long.LASF203
 6485 1520 17        	.byte0x17
 6486 1521 A1        	.byte0xa1
 6487 1522 0000 0086 	.long0x86
 6488 1526 00        	.byte0
 6489 1527 07        	.uleb128 0x7
 6490 1528 0000 0000 	.long.LASF205
 6491 152c 17        	.byte0x17
 6492 152d A2        	.byte0xa2
 6493 152e 0000 0107 	.long0x107
 6494 1532 04        	.byte0x4
 6495 1533 07        	.uleb128 0x7
 6496 1534 0000 0000 	.long.LASF206
 6497 1538 17        	.byte0x17
 6498 1539 A3        	.byte0xa3
 6499 153a 0000 0086 	.long0x86
 6500 153e 18        	.byte0x18
 6501 153f 00        	.byte0
 6502 1540 02        	.uleb128 0x2
 6503 1541 0000 0000 	.long.LASF316
 6504 1545 17        	.byte0x17
 6505 1546 A5        	.byte0xa5
 6506 1547 0000 1513 	.long0x1513
 6507 154b 06        	.uleb128 0x6
 6508 154c A8        	.byte0xa8
 6509 154d 17        	.byte0x17
 6510 154e AC        	.byte0xac
 6511 154f 0000 1590 	.long0x1590
 6512 1553 07        	.uleb128 0x7
 6513 1554 0000 0000 	.long.LASF317
 6514 1558 17        	.byte0x17
 6515 1559 AE        	.byte0xae
 6516 155a 0000 00AA 	.long0xaa
68K GAS   			page 173


 6517 155e 00        	.byte0
 6518 155f 07        	.uleb128 0x7
 6519 1560 0000 0000 	.long.LASF187
 6520 1564 17        	.byte0x17
 6521 1565 AF        	.byte0xaf
 6522 1566 0000 0086 	.long0x86
 6523 156a 04        	.byte0x4
 6524 156b 07        	.uleb128 0x7
 6525 156c 0000 0000 	.long.LASF318
 6526 1570 17        	.byte0x17
 6527 1571 B0        	.byte0xb0
 6528 1572 0000 1508 	.long0x1508
 6529 1576 08        	.byte0x8
 6530 1577 07        	.uleb128 0x7
 6531 1578 0000 0000 	.long.LASF319
 6532 157c 17        	.byte0x17
 6533 157d B1        	.byte0xb1
 6534 157e 0000 1494 	.long0x1494
 6535 1582 80        	.byte0x80
 6536 1583 07        	.uleb128 0x7
 6537 1584 0000 0000 	.long.LASF320
 6538 1588 17        	.byte0x17
 6539 1589 B2        	.byte0xb2
 6540 158a 0000 1540 	.long0x1540
 6541 158e 8C        	.byte0x8c
 6542 158f 00        	.byte0
 6543 1590 02        	.uleb128 0x2
 6544 1591 0000 0000 	.long.LASF321
 6545 1595 17        	.byte0x17
 6546 1596 B4        	.byte0xb4
 6547 1597 0000 154B 	.long0x154b
 6548 159b 06        	.uleb128 0x6
 6549 159c 24        	.byte0x24
 6550 159d 17        	.byte0x17
 6551 159e BB        	.byte0xbb
 6552 159f 0000 15E0 	.long0x15e0
 6553 15a3 07        	.uleb128 0x7
 6554 15a4 0000 0000 	.long.LASF317
 6555 15a8 17        	.byte0x17
 6556 15a9 BD        	.byte0xbd
 6557 15aa 0000 00AA 	.long0xaa
 6558 15ae 00        	.byte0
 6559 15af 07        	.uleb128 0x7
 6560 15b0 0000 0000 	.long.LASF186
 6561 15b4 17        	.byte0x17
 6562 15b5 BE        	.byte0xbe
 6563 15b6 0000 0086 	.long0x86
 6564 15ba 04        	.byte0x4
 6565 15bb 07        	.uleb128 0x7
 6566 15bc 0000 0000 	.long.LASF322
 6567 15c0 17        	.byte0x17
 6568 15c1 BF        	.byte0xbf
 6569 15c2 0000 0086 	.long0x86
 6570 15c6 08        	.byte0x8
 6571 15c7 07        	.uleb128 0x7
 6572 15c8 0000 0000 	.long.LASF204
 6573 15cc 17        	.byte0x17
68K GAS   			page 174


 6574 15cd C0        	.byte0xc0
 6575 15ce 0000 0086 	.long0x86
 6576 15d2 0C        	.byte0xc
 6577 15d3 07        	.uleb128 0x7
 6578 15d4 0000 0000 	.long.LASF323
 6579 15d8 17        	.byte0x17
 6580 15d9 C1        	.byte0xc1
 6581 15da 0000 0107 	.long0x107
 6582 15de 10        	.byte0x10
 6583 15df 00        	.byte0
 6584 15e0 02        	.uleb128 0x2
 6585 15e1 0000 0000 	.long.LASF324
 6586 15e5 17        	.byte0x17
 6587 15e6 C4        	.byte0xc4
 6588 15e7 0000 159B 	.long0x159b
 6589 15eb 06        	.uleb128 0x6
 6590 15ec 15        	.byte0x15
 6591 15ed 17        	.byte0x17
 6592 15ee CA        	.byte0xca
 6593 15ef 0000 160C 	.long0x160c
 6594 15f3 07        	.uleb128 0x7
 6595 15f4 0000 0000 	.long.LASF317
 6596 15f8 17        	.byte0x17
 6597 15f9 CC        	.byte0xcc
 6598 15fa 0000 00AA 	.long0xaa
 6599 15fe 00        	.byte0
 6600 15ff 07        	.uleb128 0x7
 6601 1600 0000 0000 	.long.LASF325
 6602 1604 17        	.byte0x17
 6603 1605 CD        	.byte0xcd
 6604 1606 0000 0107 	.long0x107
 6605 160a 01        	.byte0x1
 6606 160b 00        	.byte0
 6607 160c 02        	.uleb128 0x2
 6608 160d 0000 0000 	.long.LASF326
 6609 1611 17        	.byte0x17
 6610 1612 CE        	.byte0xce
 6611 1613 0000 15EB 	.long0x15eb
 6612 1617 02        	.uleb128 0x2
 6613 1618 0000 0000 	.long.LASF327
 6614 161c 18        	.byte0x18
 6615 161d 38        	.byte0x38
 6616 161e 0000 0086 	.long0x86
 6617 1622 06        	.uleb128 0x6
 6618 1623 14        	.byte0x14
 6619 1624 18        	.byte0x18
 6620 1625 3A        	.byte0x3a
 6621 1626 0000 1673 	.long0x1673
 6622 162a 07        	.uleb128 0x7
 6623 162b 0000 0000 	.long.LASF328
 6624 162f 18        	.byte0x18
 6625 1630 3C        	.byte0x3c
 6626 1631 0000 0074 	.long0x74
 6627 1635 00        	.byte0
 6628 1636 07        	.uleb128 0x7
 6629 1637 0000 0000 	.long.LASF329
 6630 163b 18        	.byte0x18
68K GAS   			page 175


 6631 163c 3D        	.byte0x3d
 6632 163d 0000 0074 	.long0x74
 6633 1641 02        	.byte0x2
 6634 1642 07        	.uleb128 0x7
 6635 1643 0000 0000 	.long.LASF330
 6636 1647 18        	.byte0x18
 6637 1648 3E        	.byte0x3e
 6638 1649 0000 0086 	.long0x86
 6639 164d 04        	.byte0x4
 6640 164e 07        	.uleb128 0x7
 6641 164f 0000 0000 	.long.LASF331
 6642 1653 18        	.byte0x18
 6643 1654 3F        	.byte0x3f
 6644 1655 0000 0086 	.long0x86
 6645 1659 08        	.byte0x8
 6646 165a 12        	.uleb128 0x12
 6647 165b 4352 4300 	.string"CRC"
 6648 165f 18        	.byte0x18
 6649 1660 40        	.byte0x40
 6650 1661 0000 0086 	.long0x86
 6651 1665 0C        	.byte0xc
 6652 1666 07        	.uleb128 0x7
 6653 1667 0000 0000 	.long.LASF290
 6654 166b 18        	.byte0x18
 6655 166c 41        	.byte0x41
 6656 166d 0000 0086 	.long0x86
 6657 1671 10        	.byte0x10
 6658 1672 00        	.byte0
 6659 1673 02        	.uleb128 0x2
 6660 1674 0000 0000 	.long.LASF332
 6661 1678 18        	.byte0x18
 6662 1679 42        	.byte0x42
 6663 167a 0000 1622 	.long0x1622
 6664 167e 06        	.uleb128 0x6
 6665 167f 0C        	.byte0xc
 6666 1680 18        	.byte0x18
 6667 1681 44        	.byte0x44
 6668 1682 0000 16AB 	.long0x16ab
 6669 1686 12        	.uleb128 0x12
 6670 1687 546F 7000 	.string"Top"
 6671 168b 18        	.byte0x18
 6672 168c 46        	.byte0x46
 6673 168d 0000 0086 	.long0x86
 6674 1691 00        	.byte0
 6675 1692 07        	.uleb128 0x7
 6676 1693 0000 0000 	.long.LASF333
 6677 1697 18        	.byte0x18
 6678 1698 47        	.byte0x47
 6679 1699 0000 0086 	.long0x86
 6680 169d 04        	.byte0x4
 6681 169e 07        	.uleb128 0x7
 6682 169f 0000 0000 	.long.LASF334
 6683 16a3 18        	.byte0x18
 6684 16a4 48        	.byte0x48
 6685 16a5 0000 0086 	.long0x86
 6686 16a9 08        	.byte0x8
 6687 16aa 00        	.byte0
68K GAS   			page 176


 6688 16ab 02        	.uleb128 0x2
 6689 16ac 0000 0000 	.long.LASF335
 6690 16b0 18        	.byte0x18
 6691 16b1 49        	.byte0x49
 6692 16b2 0000 167E 	.long0x167e
 6693 16b6 06        	.uleb128 0x6
 6694 16b7 EC        	.byte0xec
 6695 16b8 18        	.byte0x18
 6696 16b9 4D        	.byte0x4d
 6697 16ba 0000 1737 	.long0x1737
 6698 16be 07        	.uleb128 0x7
 6699 16bf 0000 0000 	.long.LASF336
 6700 16c3 18        	.byte0x18
 6701 16c4 4E        	.byte0x4e
 6702 16c5 0000 0086 	.long0x86
 6703 16c9 00        	.byte0
 6704 16ca 07        	.uleb128 0x7
 6705 16cb 0000 0000 	.long.LASF337
 6706 16cf 18        	.byte0x18
 6707 16d0 4F        	.byte0x4f
 6708 16d1 0000 0086 	.long0x86
 6709 16d5 04        	.byte0x4
 6710 16d6 12        	.uleb128 0x12
 6711 16d7 456E 6400 	.string"End"
 6712 16db 18        	.byte0x18
 6713 16dc 50        	.byte0x50
 6714 16dd 0000 0086 	.long0x86
 6715 16e1 08        	.byte0x8
 6716 16e2 07        	.uleb128 0x7
 6717 16e3 0000 0000 	.long.LASF338
 6718 16e7 18        	.byte0x18
 6719 16e8 51        	.byte0x51
 6720 16e9 0000 0086 	.long0x86
 6721 16ed 0C        	.byte0xc
 6722 16ee 07        	.uleb128 0x7
 6723 16ef 0000 0000 	.long.LASF339
 6724 16f3 18        	.byte0x18
 6725 16f4 52        	.byte0x52
 6726 16f5 0000 0050 	.long0x50
 6727 16f9 10        	.byte0x10
 6728 16fa 07        	.uleb128 0x7
 6729 16fb 0000 0000 	.long.LASF340
 6730 16ff 18        	.byte0x18
 6731 1700 53        	.byte0x53
 6732 1701 0000 0074 	.long0x74
 6733 1705 14        	.byte0x14
 6734 1706 07        	.uleb128 0x7
 6735 1707 0000 0000 	.long.LASF341
 6736 170b 18        	.byte0x18
 6737 170c 54        	.byte0x54
 6738 170d 0000 0074 	.long0x74
 6739 1711 16        	.byte0x16
 6740 1712 07        	.uleb128 0x7
 6741 1713 0000 0000 	.long.LASF342
 6742 1717 18        	.byte0x18
 6743 1718 55        	.byte0x55
 6744 1719 0000 0086 	.long0x86
68K GAS   			page 177


 6745 171d 18        	.byte0x18
 6746 171e 07        	.uleb128 0x7
 6747 171f 0000 0000 	.long.LASF343
 6748 1723 18        	.byte0x18
 6749 1724 56        	.byte0x56
 6750 1725 0000 0086 	.long0x86
 6751 1729 1C        	.byte0x1c
 6752 172a 07        	.uleb128 0x7
 6753 172b 0000 0000 	.long.LASF344
 6754 172f 18        	.byte0x18
 6755 1730 57        	.byte0x57
 6756 1731 0000 1737 	.long0x1737
 6757 1735 20        	.byte0x20
 6758 1736 00        	.byte0
 6759 1737 08        	.uleb128 0x8
 6760 1738 0000 16AB 	.long0x16ab
 6761 173c 0000 1747 	.long0x1747
 6762 1740 09        	.uleb128 0x9
 6763 1741 0000 0091 	.long0x91
 6764 1745 10        	.byte0x10
 6765 1746 00        	.byte0
 6766 1747 02        	.uleb128 0x2
 6767 1748 0000 0000 	.long.LASF345
 6768 174c 18        	.byte0x18
 6769 174d 58        	.byte0x58
 6770 174e 0000 16B6 	.long0x16b6
 6771 1752 21        	.uleb128 0x21
 6772 1753 0000 0000 	.long.LASF346
 6773 1757 18        	.byte0x18
 6774 1758 60        	.byte0x60
 6775 1759 0000 1747 	.long0x1747
 6776 175d 21        	.uleb128 0x21
 6777 175e 0000 0000 	.long.LASF347
 6778 1762 18        	.byte0x18
 6779 1763 61        	.byte0x61
 6780 1764 0000 1673 	.long0x1673
 6781 1768 06        	.uleb128 0x6
 6782 1769 34        	.byte0x34
 6783 176a 19        	.byte0x19
 6784 176b 43        	.byte0x43
 6785 176c 0000 17AD 	.long0x17ad
 6786 1770 07        	.uleb128 0x7
 6787 1771 0000 0000 	.long.LASF188
 6788 1775 19        	.byte0x19
 6789 1776 45        	.byte0x45
 6790 1777 0000 0DBF 	.long0xdbf
 6791 177b 00        	.byte0
 6792 177c 07        	.uleb128 0x7
 6793 177d 0000 0000 	.long.LASF348
 6794 1781 19        	.byte0x19
 6795 1782 46        	.byte0x46
 6796 1783 0000 1617 	.long0x1617
 6797 1787 28        	.byte0x28
 6798 1788 07        	.uleb128 0x7
 6799 1789 0000 0000 	.long.LASF337
 6800 178d 19        	.byte0x19
 6801 178e 47        	.byte0x47
68K GAS   			page 178


 6802 178f 0000 0086 	.long0x86
 6803 1793 2C        	.byte0x2c
 6804 1794 07        	.uleb128 0x7
 6805 1795 0000 0000 	.long.LASF349
 6806 1799 19        	.byte0x19
 6807 179a 48        	.byte0x48
 6808 179b 0000 00AA 	.long0xaa
 6809 179f 30        	.byte0x30
 6810 17a0 07        	.uleb128 0x7
 6811 17a1 0000 0000 	.long.LASF350
 6812 17a5 19        	.byte0x19
 6813 17a6 49        	.byte0x49
 6814 17a7 0000 00AA 	.long0xaa
 6815 17ab 31        	.byte0x31
 6816 17ac 00        	.byte0
 6817 17ad 02        	.uleb128 0x2
 6818 17ae 0000 0000 	.long.LASF351
 6819 17b2 19        	.byte0x19
 6820 17b3 4A        	.byte0x4a
 6821 17b4 0000 1768 	.long0x1768
 6822 17b8 26        	.uleb128 0x26
 6823 17b9 6818      	.word0x6818
 6824 17bb 19        	.byte0x19
 6825 17bc 4C        	.byte0x4c
 6826 17bd 0000 180B 	.long0x180b
 6827 17c1 07        	.uleb128 0x7
 6828 17c2 0000 0000 	.long.LASF352
 6829 17c6 19        	.byte0x19
 6830 17c7 4E        	.byte0x4e
 6831 17c8 0000 0086 	.long0x86
 6832 17cc 00        	.byte0
 6833 17cd 07        	.uleb128 0x7
 6834 17ce 0000 0000 	.long.LASF353
 6835 17d2 19        	.byte0x19
 6836 17d3 4F        	.byte0x4f
 6837 17d4 0000 0086 	.long0x86
 6838 17d8 04        	.byte0x4
 6839 17d9 07        	.uleb128 0x7
 6840 17da 0000 0000 	.long.LASF354
 6841 17de 19        	.byte0x19
 6842 17df 50        	.byte0x50
 6843 17e0 0000 0086 	.long0x86
 6844 17e4 08        	.byte0x8
 6845 17e5 07        	.uleb128 0x7
 6846 17e6 0000 0000 	.long.LASF355
 6847 17ea 19        	.byte0x19
 6848 17eb 51        	.byte0x51
 6849 17ec 0000 0086 	.long0x86
 6850 17f0 0C        	.byte0xc
 6851 17f1 07        	.uleb128 0x7
 6852 17f2 0000 0000 	.long.LASF356
 6853 17f6 19        	.byte0x19
 6854 17f7 52        	.byte0x52
 6855 17f8 0000 180B 	.long0x180b
 6856 17fc 10        	.byte0x10
 6857 17fd 14        	.uleb128 0x14
 6858 17fe 0000 0000 	.long.LASF357
68K GAS   			page 179


 6859 1802 19        	.byte0x19
 6860 1803 53        	.byte0x53
 6861 1804 0000 09D3 	.long0x9d3
 6862 1808 6810      	.word0x6810
 6863 180a 00        	.byte0
 6864 180b 08        	.uleb128 0x8
 6865 180c 0000 17AD 	.long0x17ad
 6866 1810 0000 181C 	.long0x181c
 6867 1814 28        	.uleb128 0x28
 6868 1815 0000 0091 	.long0x91
 6869 1819 01FF      	.word0x1ff
 6870 181b 00        	.byte0
 6871 181c 02        	.uleb128 0x2
 6872 181d 0000 0000 	.long.LASF358
 6873 1821 19        	.byte0x19
 6874 1822 54        	.byte0x54
 6875 1823 0000 17B8 	.long0x17b8
 6876 1827 06        	.uleb128 0x6
 6877 1828 4C        	.byte0x4c
 6878 1829 1A        	.byte0x1a
 6879 182a 60        	.byte0x60
 6880 182b 0000 1860 	.long0x1860
 6881 182f 07        	.uleb128 0x7
 6882 1830 0000 0000 	.long.LASF359
 6883 1834 1A        	.byte0x1a
 6884 1835 61        	.byte0x61
 6885 1836 0000 0086 	.long0x86
 6886 183a 00        	.byte0
 6887 183b 07        	.uleb128 0x7
 6888 183c 0000 0000 	.long.LASF360
 6889 1840 1A        	.byte0x1a
 6890 1841 62        	.byte0x62
 6891 1842 0000 0086 	.long0x86
 6892 1846 04        	.byte0x4
 6893 1847 07        	.uleb128 0x7
 6894 1848 0000 0000 	.long.LASF361
 6895 184c 1A        	.byte0x1a
 6896 184d 63        	.byte0x63
 6897 184e 0000 0B25 	.long0xb25
 6898 1852 08        	.byte0x8
 6899 1853 07        	.uleb128 0x7
 6900 1854 0000 0000 	.long.LASF362
 6901 1858 1A        	.byte0x1a
 6902 1859 64        	.byte0x64
 6903 185a 0000 0050 	.long0x50
 6904 185e 48        	.byte0x48
 6905 185f 00        	.byte0
 6906 1860 02        	.uleb128 0x2
 6907 1861 0000 0000 	.long.LASF363
 6908 1865 1A        	.byte0x1a
 6909 1866 65        	.byte0x65
 6910 1867 0000 1827 	.long0x1827
 6911 186b 21        	.uleb128 0x21
 6912 186c 0000 0000 	.long.LASF364
 6913 1870 1A        	.byte0x1a
 6914 1871 67        	.byte0x67
 6915 1872 0000 1860 	.long0x1860
68K GAS   			page 180


 6916 1876 06        	.uleb128 0x6
 6917 1877 1C        	.byte0x1c
 6918 1878 1B        	.byte0x1b
 6919 1879 67        	.byte0x67
 6920 187a 0000 18A3 	.long0x18a3
 6921 187e 07        	.uleb128 0x7
 6922 187f 0000 0000 	.long.LASF317
 6923 1883 1B        	.byte0x1b
 6924 1884 69        	.byte0x69
 6925 1885 0000 00AA 	.long0xaa
 6926 1889 00        	.byte0
 6927 188a 07        	.uleb128 0x7
 6928 188b 0000 0000 	.long.LASF365
 6929 188f 1B        	.byte0x1b
 6930 1890 6A        	.byte0x6a
 6931 1891 0000 0086 	.long0x86
 6932 1895 04        	.byte0x4
 6933 1896 07        	.uleb128 0x7
 6934 1897 0000 0000 	.long.LASF366
 6935 189b 1B        	.byte0x1b
 6936 189c 6B        	.byte0x6b
 6937 189d 0000 0107 	.long0x107
 6938 18a1 08        	.byte0x8
 6939 18a2 00        	.byte0
 6940 18a3 02        	.uleb128 0x2
 6941 18a4 0000 0000 	.long.LASF367
 6942 18a8 1B        	.byte0x1b
 6943 18a9 6C        	.byte0x6c
 6944 18aa 0000 1876 	.long0x1876
 6945 18ae 26        	.uleb128 0x26
 6946 18af 87FC      	.word0x87fc
 6947 18b1 1B        	.byte0x1b
 6948 18b2 74        	.byte0x74
 6949 18b3 0000 1967 	.long0x1967
 6950 18b7 07        	.uleb128 0x7
 6951 18b8 0000 0000 	.long.LASF260
 6952 18bc 1B        	.byte0x1b
 6953 18bd 79        	.byte0x79
 6954 18be 0000 10B5 	.long0x10b5
 6955 18c2 00        	.byte0
 6956 18c3 07        	.uleb128 0x7
 6957 18c4 0000 0000 	.long.LASF368
 6958 18c8 1B        	.byte0x1b
 6959 18c9 7E        	.byte0x7e
 6960 18ca 0000 0086 	.long0x86
 6961 18ce 10        	.byte0x10
 6962 18cf 07        	.uleb128 0x7
 6963 18d0 0000 0000 	.long.LASF369
 6964 18d4 1B        	.byte0x1b
 6965 18d5 83        	.byte0x83
 6966 18d6 0000 0086 	.long0x86
 6967 18da 14        	.byte0x14
 6968 18db 07        	.uleb128 0x7
 6969 18dc 0000 0000 	.long.LASF370
 6970 18e0 1B        	.byte0x1b
 6971 18e1 84        	.byte0x84
 6972 18e2 0000 0086 	.long0x86
68K GAS   			page 181


 6973 18e6 18        	.byte0x18
 6974 18e7 07        	.uleb128 0x7
 6975 18e8 0000 0000 	.long.LASF371
 6976 18ec 1B        	.byte0x1b
 6977 18ed 85        	.byte0x85
 6978 18ee 0000 0086 	.long0x86
 6979 18f2 1C        	.byte0x1c
 6980 18f3 07        	.uleb128 0x7
 6981 18f4 0000 0000 	.long.LASF372
 6982 18f8 1B        	.byte0x1b
 6983 18f9 8A        	.byte0x8a
 6984 18fa 0000 0086 	.long0x86
 6985 18fe 20        	.byte0x20
 6986 18ff 07        	.uleb128 0x7
 6987 1900 0000 0000 	.long.LASF373
 6988 1904 1B        	.byte0x1b
 6989 1905 8B        	.byte0x8b
 6990 1906 0000 1967 	.long0x1967
 6991 190a 24        	.byte0x24
 6992 190b 14        	.uleb128 0x14
 6993 190c 0000 0000 	.long.LASF374
 6994 1910 1B        	.byte0x1b
 6995 1911 90        	.byte0x90
 6996 1912 0000 0086 	.long0x86
 6997 1916 0924      	.word0x924
 6998 1918 14        	.uleb128 0x14
 6999 1919 0000 0000 	.long.LASF375
 7000 191d 1B        	.byte0x1b
 7001 191e 91        	.byte0x91
 7002 191f 0000 0086 	.long0x86
 7003 1923 0928      	.word0x928
 7004 1925 14        	.uleb128 0x14
 7005 1926 0000 0000 	.long.LASF376
 7006 192a 1B        	.byte0x1b
 7007 192b 92        	.byte0x92
 7008 192c 0000 1977 	.long0x1977
 7009 1930 092C      	.word0x92c
 7010 1932 14        	.uleb128 0x14
 7011 1933 0000 0000 	.long.LASF377
 7012 1937 1B        	.byte0x1b
 7013 1938 97        	.byte0x97
 7014 1939 0000 0086 	.long0x86
 7015 193d 1E2C      	.word0x1e2c
 7016 193f 14        	.uleb128 0x14
 7017 1940 0000 0000 	.long.LASF378
 7018 1944 1B        	.byte0x1b
 7019 1945 98        	.byte0x98
 7020 1946 0000 1987 	.long0x1987
 7021 194a 1E30      	.word0x1e30
 7022 194c 14        	.uleb128 0x14
 7023 194d 0000 0000 	.long.LASF379
 7024 1951 1B        	.byte0x1b
 7025 1952 9D        	.byte0x9d
 7026 1953 0000 1997 	.long0x1997
 7027 1957 1F04      	.word0x1f04
 7028 1959 14        	.uleb128 0x14
 7029 195a 0000 0000 	.long.LASF380
68K GAS   			page 182


 7030 195e 1B        	.byte0x1b
 7031 195f A2        	.byte0xa2
 7032 1960 0000 181C 	.long0x181c
 7033 1964 1FE4      	.word0x1fe4
 7034 1966 00        	.byte0
 7035 1967 08        	.uleb128 0x8
 7036 1968 0000 15E0 	.long0x15e0
 7037 196c 0000 1977 	.long0x1977
 7038 1970 09        	.uleb128 0x9
 7039 1971 0000 0091 	.long0x91
 7040 1975 3F        	.byte0x3f
 7041 1976 00        	.byte0
 7042 1977 08        	.uleb128 0x8
 7043 1978 0000 1590 	.long0x1590
 7044 197c 0000 1987 	.long0x1987
 7045 1980 09        	.uleb128 0x9
 7046 1981 0000 0091 	.long0x91
 7047 1985 1F        	.byte0x1f
 7048 1986 00        	.byte0
 7049 1987 08        	.uleb128 0x8
 7050 1988 0000 160C 	.long0x160c
 7051 198c 0000 1997 	.long0x1997
 7052 1990 09        	.uleb128 0x9
 7053 1991 0000 0091 	.long0x91
 7054 1995 09        	.byte0x9
 7055 1996 00        	.byte0
 7056 1997 08        	.uleb128 0x8
 7057 1998 0000 18A3 	.long0x18a3
 7058 199c 0000 19A7 	.long0x19a7
 7059 19a0 09        	.uleb128 0x9
 7060 19a1 0000 0091 	.long0x91
 7061 19a5 07        	.byte0x7
 7062 19a6 00        	.byte0
 7063 19a7 02        	.uleb128 0x2
 7064 19a8 0000 0000 	.long.LASF381
 7065 19ac 1B        	.byte0x1b
 7066 19ad A4        	.byte0xa4
 7067 19ae 0000 18AE 	.long0x18ae
 7068 19b2 21        	.uleb128 0x21
 7069 19b3 0000 0000 	.long.LASF382
 7070 19b7 1B        	.byte0x1b
 7071 19b8 A9        	.byte0xa9
 7072 19b9 0000 19A7 	.long0x19a7
 7073 19bd 21        	.uleb128 0x21
 7074 19be 0000 0000 	.long.LASF383
 7075 19c2 1B        	.byte0x1b
 7076 19c3 AE        	.byte0xae
 7077 19c4 0000 19C8 	.long0x19c8
 7078 19c8 0A        	.uleb128 0xa
 7079 19c9 04        	.byte0x4
 7080 19ca 0000 145C 	.long0x145c
 7081 19ce 2A        	.uleb128 0x2a
 7082 19cf 0000 0000 	.long.LASF407
 7083 19d3 02        	.byte0x2
 7084 19d4 0768      	.word0x768
 7085 19d6 0000 0000 	.long.LFB68
 7086 19da 0000 031C 	.long.LFE68-.LFB68
68K GAS   			page 183


 7087 19de 01        	.uleb128 0x1
 7088 19df 9C        	.byte0x9c
 7089 19e0 0000 1A41 	.long0x1a41
 7090 19e4 2B        	.uleb128 0x2b
 7091 19e5 0000 0000 	.long.LASF186
 7092 19e9 02        	.byte0x2
 7093 19ea 0768      	.word0x768
 7094 19ec 0000 0086 	.long0x86
 7095 19f0 02        	.uleb128 0x2
 7096 19f1 91        	.byte0x91
 7097 19f2 00        	.sleb128 0
 7098 19f3 2B        	.uleb128 0x2b
 7099 19f4 0000 0000 	.long.LASF384
 7100 19f8 02        	.byte0x2
 7101 19f9 0768      	.word0x768
 7102 19fb 0000 1A41 	.long0x1a41
 7103 19ff 02        	.uleb128 0x2
 7104 1a00 91        	.byte0x91
 7105 1a01 04        	.sleb128 4
 7106 1a02 2C        	.uleb128 0x2c
 7107 1a03 0000 0000 	.long.LASF385
 7108 1a07 02        	.byte0x2
 7109 1a08 076B      	.word0x76b
 7110 1a0a 0000 0050 	.long0x50
 7111 1a0e 02        	.uleb128 0x2
 7112 1a0f 91        	.byte0x91
 7113 1a10 78        	.sleb128 -8
 7114 1a11 2C        	.uleb128 0x2c
 7115 1a12 0000 0000 	.long.LASF386
 7116 1a16 02        	.byte0x2
 7117 1a17 076C      	.word0x76c
 7118 1a19 0000 0C3D 	.long0xc3d
 7119 1a1d 03        	.uleb128 0x3
 7120 1a1e 91        	.byte0x91
 7121 1a1f FC7E      	.sleb128 -132
 7122 1a21 2C        	.uleb128 0x2c
 7123 1a22 0000 0000 	.long.LASF387
 7124 1a26 02        	.byte0x2
 7125 1a27 076D      	.word0x76d
 7126 1a29 0000 0086 	.long0x86
 7127 1a2d 03        	.uleb128 0x3
 7128 1a2e 91        	.byte0x91
 7129 1a2f F87E      	.sleb128 -136
 7130 1a31 2D        	.uleb128 0x2d
 7131 1a32 0000 0000 	.long.LASF406
 7132 1a36 0000 1A57 	.long0x1a57
 7133 1a3a 05        	.uleb128 0x5
 7134 1a3b 03        	.byte0x3
 7135 1a3c 0000 0000 	.long__func__.5947
 7136 1a40 00        	.byte0
 7137 1a41 0A        	.uleb128 0xa
 7138 1a42 04        	.byte0x4
 7139 1a43 0000 0DB3 	.long0xdb3
 7140 1a47 08        	.uleb128 0x8
 7141 1a48 0000 00BD 	.long0xbd
 7142 1a4c 0000 1A57 	.long0x1a57
 7143 1a50 09        	.uleb128 0x9
68K GAS   			page 184


 7144 1a51 0000 0091 	.long0x91
 7145 1a55 19        	.byte0x19
 7146 1a56 00        	.byte0
 7147 1a57 05        	.uleb128 0x5
 7148 1a58 0000 1A47 	.long0x1a47
 7149 1a5c 2E        	.uleb128 0x2e
 7150 1a5d 0000 0000 	.long.LASF400
 7151 1a61 02        	.byte0x2
 7152 1a62 0710      	.word0x710
 7153 1a64 0000 0050 	.long0x50
 7154 1a68 0000 0000 	.long.LFB67
 7155 1a6c 0000 01BA 	.long.LFE67-.LFB67
 7156 1a70 01        	.uleb128 0x1
 7157 1a71 9C        	.byte0x9c
 7158 1a72 0000 1B3E 	.long0x1b3e
 7159 1a76 2C        	.uleb128 0x2c
 7160 1a77 0000 0000 	.long.LASF388
 7161 1a7b 02        	.byte0x2
 7162 1a7c 0712      	.word0x712
 7163 1a7e 0000 0117 	.long0x117
 7164 1a82 03        	.uleb128 0x3
 7165 1a83 91        	.byte0x91
 7166 1a84 BC7F      	.sleb128 -68
 7167 1a86 2C        	.uleb128 0x2c
 7168 1a87 0000 0000 	.long.LASF389
 7169 1a8b 02        	.byte0x2
 7170 1a8c 0713      	.word0x713
 7171 1a8e 0000 0143 	.long0x143
 7172 1a92 03        	.uleb128 0x3
 7173 1a93 91        	.byte0x91
 7174 1a94 A47F      	.sleb128 -92
 7175 1a96 2C        	.uleb128 0x2c
 7176 1a97 0000 0000 	.long.LASF390
 7177 1a9b 02        	.byte0x2
 7178 1a9c 0714      	.word0x714
 7179 1a9e 0000 017B 	.long0x17b
 7180 1aa2 03        	.uleb128 0x3
 7181 1aa3 91        	.byte0x91
 7182 1aa4 887F      	.sleb128 -120
 7183 1aa6 2C        	.uleb128 0x2c
 7184 1aa7 0000 0000 	.long.LASF391
 7185 1aab 02        	.byte0x2
 7186 1aac 0715      	.word0x715
 7187 1aae 0000 01B3 	.long0x1b3
 7188 1ab2 03        	.uleb128 0x3
 7189 1ab3 91        	.byte0x91
 7190 1ab4 EC7E      	.sleb128 -148
 7191 1ab6 2C        	.uleb128 0x2c
 7192 1ab7 0000 0000 	.long.LASF392
 7193 1abb 02        	.byte0x2
 7194 1abc 0716      	.word0x716
 7195 1abe 0000 01DF 	.long0x1df
 7196 1ac2 03        	.uleb128 0x3
 7197 1ac3 91        	.byte0x91
 7198 1ac4 D47E      	.sleb128 -172
 7199 1ac6 2C        	.uleb128 0x2c
 7200 1ac7 0000 0000 	.long.LASF393
68K GAS   			page 185


 7201 1acb 02        	.byte0x2
 7202 1acc 0717      	.word0x717
 7203 1ace 0000 0B6E 	.long0xb6e
 7204 1ad2 03        	.uleb128 0x3
 7205 1ad3 91        	.byte0x91
 7206 1ad4 887E      	.sleb128 -248
 7207 1ad6 2C        	.uleb128 0x2c
 7208 1ad7 0000 0000 	.long.LASF394
 7209 1adb 02        	.byte0x2
 7210 1adc 0718      	.word0x718
 7211 1ade 0000 0050 	.long0x50
 7212 1ae2 02        	.uleb128 0x2
 7213 1ae3 91        	.byte0x91
 7214 1ae4 78        	.sleb128 -8
 7215 1ae5 2C        	.uleb128 0x2c
 7216 1ae6 0000 0000 	.long.LASF395
 7217 1aea 02        	.byte0x2
 7218 1aeb 0719      	.word0x719
 7219 1aed 0000 0050 	.long0x50
 7220 1af1 02        	.uleb128 0x2
 7221 1af2 91        	.byte0x91
 7222 1af3 74        	.sleb128 -12
 7223 1af4 2C        	.uleb128 0x2c
 7224 1af5 0000 0000 	.long.LASF396
 7225 1af9 02        	.byte0x2
 7226 1afa 071A      	.word0x71a
 7227 1afc 0000 0050 	.long0x50
 7228 1b00 02        	.uleb128 0x2
 7229 1b01 91        	.byte0x91
 7230 1b02 70        	.sleb128 -16
 7231 1b03 2C        	.uleb128 0x2c
 7232 1b04 0000 0000 	.long.LASF397
 7233 1b08 02        	.byte0x2
 7234 1b09 071B      	.word0x71b
 7235 1b0b 0000 0050 	.long0x50
 7236 1b0f 02        	.uleb128 0x2
 7237 1b10 91        	.byte0x91
 7238 1b11 6C        	.sleb128 -20
 7239 1b12 2C        	.uleb128 0x2c
 7240 1b13 0000 0000 	.long.LASF398
 7241 1b17 02        	.byte0x2
 7242 1b18 071C      	.word0x71c
 7243 1b1a 0000 0050 	.long0x50
 7244 1b1e 02        	.uleb128 0x2
 7245 1b1f 91        	.byte0x91
 7246 1b20 68        	.sleb128 -24
 7247 1b21 2C        	.uleb128 0x2c
 7248 1b22 0000 0000 	.long.LASF399
 7249 1b26 02        	.byte0x2
 7250 1b27 071D      	.word0x71d
 7251 1b29 0000 0050 	.long0x50
 7252 1b2d 02        	.uleb128 0x2
 7253 1b2e 91        	.byte0x91
 7254 1b2f 64        	.sleb128 -28
 7255 1b30 2F        	.uleb128 0x2f
 7256 1b31 6900      	.string"i"
 7257 1b33 02        	.byte0x2
68K GAS   			page 186


 7258 1b34 071E      	.word0x71e
 7259 1b36 0000 0086 	.long0x86
 7260 1b3a 02        	.uleb128 0x2
 7261 1b3b 91        	.byte0x91
 7262 1b3c 60        	.sleb128 -32
 7263 1b3d 00        	.byte0
 7264 1b3e 2E        	.uleb128 0x2e
 7265 1b3f 0000 0000 	.long.LASF401
 7266 1b43 02        	.byte0x2
 7267 1b44 063C      	.word0x63c
 7268 1b46 0000 0050 	.long0x50
 7269 1b4a 0000 0000 	.long.LFB66
 7270 1b4e 0000 0320 	.long.LFE66-.LFB66
 7271 1b52 01        	.uleb128 0x1
 7272 1b53 9C        	.byte0x9c
 7273 1b54 0000 1BF2 	.long0x1bf2
 7274 1b58 2B        	.uleb128 0x2b
 7275 1b59 0000 0000 	.long.LASF322
 7276 1b5d 02        	.byte0x2
 7277 1b5e 063C      	.word0x63c
 7278 1b60 0000 0086 	.long0x86
 7279 1b64 02        	.uleb128 0x2
 7280 1b65 91        	.byte0x91
 7281 1b66 00        	.sleb128 0
 7282 1b67 2C        	.uleb128 0x2c
 7283 1b68 0000 0000 	.long.LASF389
 7284 1b6c 02        	.byte0x2
 7285 1b6d 063E      	.word0x63e
 7286 1b6f 0000 0143 	.long0x143
 7287 1b73 02        	.uleb128 0x2
 7288 1b74 91        	.byte0x91
 7289 1b75 58        	.sleb128 -40
 7290 1b76 2C        	.uleb128 0x2c
 7291 1b77 0000 0000 	.long.LASF402
 7292 1b7b 02        	.byte0x2
 7293 1b7c 063F      	.word0x63f
 7294 1b7e 0000 0C8D 	.long0xc8d
 7295 1b82 03        	.uleb128 0x3
 7296 1b83 91        	.byte0x91
 7297 1b84 B47F      	.sleb128 -76
 7298 1b86 2C        	.uleb128 0x2c
 7299 1b87 0000 0000 	.long.LASF390
 7300 1b8b 02        	.byte0x2
 7301 1b8c 0640      	.word0x640
 7302 1b8e 0000 017B 	.long0x17b
 7303 1b92 03        	.uleb128 0x3
 7304 1b93 91        	.byte0x91
 7305 1b94 987F      	.sleb128 -104
 7306 1b96 2C        	.uleb128 0x2c
 7307 1b97 0000 0000 	.long.LASF391
 7308 1b9b 02        	.byte0x2
 7309 1b9c 0641      	.word0x641
 7310 1b9e 0000 01B3 	.long0x1b3
 7311 1ba2 03        	.uleb128 0x3
 7312 1ba3 91        	.byte0x91
 7313 1ba4 FC7E      	.sleb128 -132
 7314 1ba6 2C        	.uleb128 0x2c
68K GAS   			page 187


 7315 1ba7 0000 0000 	.long.LASF392
 7316 1bab 02        	.byte0x2
 7317 1bac 0642      	.word0x642
 7318 1bae 0000 01DF 	.long0x1df
 7319 1bb2 03        	.uleb128 0x3
 7320 1bb3 91        	.byte0x91
 7321 1bb4 E47E      	.sleb128 -156
 7322 1bb6 2C        	.uleb128 0x2c
 7323 1bb7 0000 0000 	.long.LASF393
 7324 1bbb 02        	.byte0x2
 7325 1bbc 0643      	.word0x643
 7326 1bbe 0000 0B6E 	.long0xb6e
 7327 1bc2 03        	.uleb128 0x3
 7328 1bc3 91        	.byte0x91
 7329 1bc4 987E      	.sleb128 -232
 7330 1bc6 2C        	.uleb128 0x2c
 7331 1bc7 0000 0000 	.long.LASF403
 7332 1bcb 02        	.byte0x2
 7333 1bcc 0645      	.word0x645
 7334 1bce 0000 0050 	.long0x50
 7335 1bd2 02        	.uleb128 0x2
 7336 1bd3 91        	.byte0x91
 7337 1bd4 70        	.sleb128 -16
 7338 1bd5 2C        	.uleb128 0x2c
 7339 1bd6 0000 0000 	.long.LASF404
 7340 1bda 02        	.byte0x2
 7341 1bdb 0647      	.word0x647
 7342 1bdd 0000 0050 	.long0x50
 7343 1be1 02        	.uleb128 0x2
 7344 1be2 91        	.byte0x91
 7345 1be3 78        	.sleb128 -8
 7346 1be4 2F        	.uleb128 0x2f
 7347 1be5 6900      	.string"i"
 7348 1be7 02        	.byte0x2
 7349 1be8 0648      	.word0x648
 7350 1bea 0000 0086 	.long0x86
 7351 1bee 02        	.uleb128 0x2
 7352 1bef 91        	.byte0x91
 7353 1bf0 74        	.sleb128 -12
 7354 1bf1 00        	.byte0
 7355 1bf2 2E        	.uleb128 0x2e
 7356 1bf3 0000 0000 	.long.LASF405
 7357 1bf7 02        	.byte0x2
 7358 1bf8 04CE      	.word0x4ce
 7359 1bfa 0000 0050 	.long0x50
 7360 1bfe 0000 0000 	.long.LFB65
 7361 1c02 0000 0256 	.long.LFE65-.LFB65
 7362 1c06 01        	.uleb128 0x1
 7363 1c07 9C        	.byte0x9c
 7364 1c08 0000 1C65 	.long0x1c65
 7365 1c0c 2B        	.uleb128 0x2b
 7366 1c0d 0000 0000 	.long.LASF186
 7367 1c11 02        	.byte0x2
 7368 1c12 04CE      	.word0x4ce
 7369 1c14 0000 0086 	.long0x86
 7370 1c18 02        	.uleb128 0x2
 7371 1c19 91        	.byte0x91
68K GAS   			page 188


 7372 1c1a 00        	.sleb128 0
 7373 1c1b 2F        	.uleb128 0x2f
 7374 1c1c 6900      	.string"i"
 7375 1c1e 02        	.byte0x2
 7376 1c1f 04D0      	.word0x4d0
 7377 1c21 0000 0086 	.long0x86
 7378 1c25 02        	.uleb128 0x2
 7379 1c26 91        	.byte0x91
 7380 1c27 78        	.sleb128 -8
 7381 1c28 2C        	.uleb128 0x2c
 7382 1c29 0000 0000 	.long.LASF403
 7383 1c2d 02        	.byte0x2
 7384 1c2e 04D1      	.word0x4d1
 7385 1c30 0000 0050 	.long0x50
 7386 1c34 02        	.uleb128 0x2
 7387 1c35 91        	.byte0x91
 7388 1c36 70        	.sleb128 -16
 7389 1c37 2C        	.uleb128 0x2c
 7390 1c38 0000 0000 	.long.LASF203
 7391 1c3c 02        	.byte0x2
 7392 1c3d 04D2      	.word0x4d2
 7393 1c3f 0000 0086 	.long0x86
 7394 1c43 02        	.uleb128 0x2
 7395 1c44 91        	.byte0x91
 7396 1c45 6C        	.sleb128 -20
 7397 1c46 2C        	.uleb128 0x2c
 7398 1c47 0000 0000 	.long.LASF385
 7399 1c4b 02        	.byte0x2
 7400 1c4c 04D3      	.word0x4d3
 7401 1c4e 0000 0050 	.long0x50
 7402 1c52 02        	.uleb128 0x2
 7403 1c53 91        	.byte0x91
 7404 1c54 74        	.sleb128 -12
 7405 1c55 2D        	.uleb128 0x2d
 7406 1c56 0000 0000 	.long.LASF406
 7407 1c5a 0000 1C75 	.long0x1c75
 7408 1c5e 05        	.uleb128 0x5
 7409 1c5f 03        	.byte0x3
 7410 1c60 0000 0000 	.long__func__.5872
 7411 1c64 00        	.byte0
 7412 1c65 08        	.uleb128 0x8
 7413 1c66 0000 00BD 	.long0xbd
 7414 1c6a 0000 1C75 	.long0x1c75
 7415 1c6e 09        	.uleb128 0x9
 7416 1c6f 0000 0091 	.long0x91
 7417 1c73 11        	.byte0x11
 7418 1c74 00        	.byte0
 7419 1c75 05        	.uleb128 0x5
 7420 1c76 0000 1C65 	.long0x1c65
 7421 1c7a 2A        	.uleb128 0x2a
 7422 1c7b 0000 0000 	.long.LASF408
 7423 1c7f 02        	.byte0x2
 7424 1c80 0425      	.word0x425
 7425 1c82 0000 0000 	.long.LFB64
 7426 1c86 0000 03DC 	.long.LFE64-.LFB64
 7427 1c8a 01        	.uleb128 0x1
 7428 1c8b 9C        	.byte0x9c
68K GAS   			page 189


 7429 1c8c 0000 1CCF 	.long0x1ccf
 7430 1c90 2B        	.uleb128 0x2b
 7431 1c91 0000 0000 	.long.LASF264
 7432 1c95 02        	.byte0x2
 7433 1c96 0425      	.word0x425
 7434 1c98 0000 0086 	.long0x86
 7435 1c9c 02        	.uleb128 0x2
 7436 1c9d 91        	.byte0x91
 7437 1c9e 00        	.sleb128 0
 7438 1c9f 2C        	.uleb128 0x2c
 7439 1ca0 0000 0000 	.long.LASF403
 7440 1ca4 02        	.byte0x2
 7441 1ca5 0428      	.word0x428
 7442 1ca7 0000 0050 	.long0x50
 7443 1cab 02        	.uleb128 0x2
 7444 1cac 91        	.byte0x91
 7445 1cad 78        	.sleb128 -8
 7446 1cae 2C        	.uleb128 0x2c
 7447 1caf 0000 0000 	.long.LASF409
 7448 1cb3 02        	.byte0x2
 7449 1cb4 0429      	.word0x429
 7450 1cb6 0000 1508 	.long0x1508
 7451 1cba 03        	.uleb128 0x3
 7452 1cbb 91        	.byte0x91
 7453 1cbc 807F      	.sleb128 -128
 7454 1cbe 2C        	.uleb128 0x2c
 7455 1cbf 0000 0000 	.long.LASF410
 7456 1cc3 02        	.byte0x2
 7457 1cc4 042A      	.word0x42a
 7458 1cc6 0000 0086 	.long0x86
 7459 1cca 03        	.uleb128 0x3
 7460 1ccb 91        	.byte0x91
 7461 1ccc FC7E      	.sleb128 -132
 7462 1cce 00        	.byte0
 7463 1ccf 2A        	.uleb128 0x2a
 7464 1cd0 0000 0000 	.long.LASF411
 7465 1cd4 02        	.byte0x2
 7466 1cd5 03E6      	.word0x3e6
 7467 1cd7 0000 0000 	.long.LFB63
 7468 1cdb 0000 0132 	.long.LFE63-.LFB63
 7469 1cdf 01        	.uleb128 0x1
 7470 1ce0 9C        	.byte0x9c
 7471 1ce1 0000 1CF3 	.long0x1cf3
 7472 1ce5 2F        	.uleb128 0x2f
 7473 1ce6 6900      	.string"i"
 7474 1ce8 02        	.byte0x2
 7475 1ce9 03E8      	.word0x3e8
 7476 1ceb 0000 0086 	.long0x86
 7477 1cef 02        	.uleb128 0x2
 7478 1cf0 91        	.byte0x91
 7479 1cf1 78        	.sleb128 -8
 7480 1cf2 00        	.byte0
 7481 1cf3 2E        	.uleb128 0x2e
 7482 1cf4 0000 0000 	.long.LASF412
 7483 1cf8 02        	.byte0x2
 7484 1cf9 02FE      	.word0x2fe
 7485 1cfb 0000 0050 	.long0x50
68K GAS   			page 190


 7486 1cff 0000 0000 	.long.LFB62
 7487 1d03 0000 0508 	.long.LFE62-.LFB62
 7488 1d07 01        	.uleb128 0x1
 7489 1d08 9C        	.byte0x9c
 7490 1d09 0000 1DFE 	.long0x1dfe
 7491 1d0d 2B        	.uleb128 0x2b
 7492 1d0e 0000 0000 	.long.LASF413
 7493 1d12 02        	.byte0x2
 7494 1d13 02FE      	.word0x2fe
 7495 1d15 0000 1DFE 	.long0x1dfe
 7496 1d19 02        	.uleb128 0x2
 7497 1d1a 91        	.byte0x91
 7498 1d1b 00        	.sleb128 0
 7499 1d1c 2B        	.uleb128 0x2b
 7500 1d1d 0000 0000 	.long.LASF190
 7501 1d21 02        	.byte0x2
 7502 1d22 02FF      	.word0x2ff
 7503 1d24 0000 02B7 	.long0x2b7
 7504 1d28 02        	.uleb128 0x2
 7505 1d29 91        	.byte0x91
 7506 1d2a 04        	.sleb128 4
 7507 1d2b 2B        	.uleb128 0x2b
 7508 1d2c 0000 0000 	.long.LASF414
 7509 1d30 02        	.byte0x2
 7510 1d31 0300      	.word0x300
 7511 1d33 0000 0AE2 	.long0xae2
 7512 1d37 02        	.uleb128 0x2
 7513 1d38 91        	.byte0x91
 7514 1d39 08        	.sleb128 8
 7515 1d3a 2B        	.uleb128 0x2b
 7516 1d3b 0000 0000 	.long.LASF325
 7517 1d3f 02        	.byte0x2
 7518 1d40 0301      	.word0x301
 7519 1d42 0000 02B7 	.long0x2b7
 7520 1d46 02        	.uleb128 0x2
 7521 1d47 91        	.byte0x91
 7522 1d48 0C        	.sleb128 12
 7523 1d49 2C        	.uleb128 0x2c
 7524 1d4a 0000 0000 	.long.LASF415
 7525 1d4e 02        	.byte0x2
 7526 1d4f 0303      	.word0x303
 7527 1d51 0000 009F 	.long0x9f
 7528 1d55 02        	.uleb128 0x2
 7529 1d56 91        	.byte0x91
 7530 1d57 5C        	.sleb128 -36
 7531 1d58 2C        	.uleb128 0x2c
 7532 1d59 0000 0000 	.long.LASF385
 7533 1d5d 02        	.byte0x2
 7534 1d5e 0304      	.word0x304
 7535 1d60 0000 0050 	.long0x50
 7536 1d64 02        	.uleb128 0x2
 7537 1d65 91        	.byte0x91
 7538 1d66 78        	.sleb128 -8
 7539 1d67 2C        	.uleb128 0x2c
 7540 1d68 0000 0000 	.long.LASF416
 7541 1d6c 02        	.byte0x2
 7542 1d6d 0305      	.word0x305
68K GAS   			page 191


 7543 1d6f 0000 00AA 	.long0xaa
 7544 1d73 02        	.uleb128 0x2
 7545 1d74 91        	.byte0x91
 7546 1d75 77        	.sleb128 -9
 7547 1d76 2C        	.uleb128 0x2c
 7548 1d77 0000 0000 	.long.LASF417
 7549 1d7b 02        	.byte0x2
 7550 1d7c 0306      	.word0x306
 7551 1d7e 0000 0DDB 	.long0xddb
 7552 1d82 02        	.uleb128 0x2
 7553 1d83 91        	.byte0x91
 7554 1d84 70        	.sleb128 -16
 7555 1d85 2C        	.uleb128 0x2c
 7556 1d86 0000 0000 	.long.LASF192
 7557 1d8a 02        	.byte0x2
 7558 1d8b 0307      	.word0x307
 7559 1d8d 0000 0086 	.long0x86
 7560 1d91 02        	.uleb128 0x2
 7561 1d92 91        	.byte0x91
 7562 1d93 58        	.sleb128 -40
 7563 1d94 2C        	.uleb128 0x2c
 7564 1d95 0000 0000 	.long.LASF418
 7565 1d99 02        	.byte0x2
 7566 1d9a 0308      	.word0x308
 7567 1d9c 0000 00AA 	.long0xaa
 7568 1da0 02        	.uleb128 0x2
 7569 1da1 91        	.byte0x91
 7570 1da2 6F        	.sleb128 -17
 7571 1da3 2C        	.uleb128 0x2c
 7572 1da4 0000 0000 	.long.LASF419
 7573 1da8 02        	.byte0x2
 7574 1da9 0309      	.word0x309
 7575 1dab 0000 0B25 	.long0xb25
 7576 1daf 03        	.uleb128 0x3
 7577 1db0 91        	.byte0x91
 7578 1db1 987F      	.sleb128 -104
 7579 1db3 2C        	.uleb128 0x2c
 7580 1db4 0000 0000 	.long.LASF420
 7581 1db8 02        	.byte0x2
 7582 1db9 030A      	.word0x30a
 7583 1dbb 0000 0B25 	.long0xb25
 7584 1dbf 03        	.uleb128 0x3
 7585 1dc0 91        	.byte0x91
 7586 1dc1 D87E      	.sleb128 -168
 7587 1dc3 2C        	.uleb128 0x2c
 7588 1dc4 0000 0000 	.long.LASF421
 7589 1dc8 02        	.byte0x2
 7590 1dc9 030B      	.word0x30b
 7591 1dcb 0000 0209 	.long0x209
 7592 1dcf 02        	.uleb128 0x2
 7593 1dd0 91        	.byte0x91
 7594 1dd1 60        	.sleb128 -32
 7595 1dd2 2F        	.uleb128 0x2f
 7596 1dd3 6900      	.string"i"
 7597 1dd5 02        	.byte0x2
 7598 1dd6 030C      	.word0x30c
 7599 1dd8 0000 0086 	.long0x86
68K GAS   			page 192


 7600 1ddc 02        	.uleb128 0x2
 7601 1ddd 91        	.byte0x91
 7602 1dde 68        	.sleb128 -24
 7603 1ddf 2C        	.uleb128 0x2c
 7604 1de0 0000 0000 	.long.LASF422
 7605 1de4 02        	.byte0x2
 7606 1de5 030D      	.word0x30d
 7607 1de7 0000 1E04 	.long0x1e04
 7608 1deb 02        	.uleb128 0x2
 7609 1dec 91        	.byte0x91
 7610 1ded 64        	.sleb128 -28
 7611 1dee 2D        	.uleb128 0x2d
 7612 1def 0000 0000 	.long.LASF406
 7613 1df3 0000 1E1A 	.long0x1e1a
 7614 1df7 05        	.uleb128 0x5
 7615 1df8 03        	.byte0x3
 7616 1df9 0000 0000 	.long__func__.5840
 7617 1dfd 00        	.byte0
 7618 1dfe 0A        	.uleb128 0xa
 7619 1dff 04        	.byte0x4
 7620 1e00 0000 0086 	.long0x86
 7621 1e04 0A        	.uleb128 0xa
 7622 1e05 04        	.byte0x4
 7623 1e06 0000 0EA0 	.long0xea0
 7624 1e0a 08        	.uleb128 0x8
 7625 1e0b 0000 00BD 	.long0xbd
 7626 1e0f 0000 1E1A 	.long0x1e1a
 7627 1e13 09        	.uleb128 0x9
 7628 1e14 0000 0091 	.long0x91
 7629 1e18 12        	.byte0x12
 7630 1e19 00        	.byte0
 7631 1e1a 05        	.uleb128 0x5
 7632 1e1b 0000 1E0A 	.long0x1e0a
 7633 1e1f 2E        	.uleb128 0x2e
 7634 1e20 0000 0000 	.long.LASF423
 7635 1e24 02        	.byte0x2
 7636 1e25 01C2      	.word0x1c2
 7637 1e27 0000 0050 	.long0x50
 7638 1e2b 0000 0000 	.long.LFB61
 7639 1e2f 0000 0912 	.long.LFE61-.LFB61
 7640 1e33 01        	.uleb128 0x1
 7641 1e34 9C        	.byte0x9c
 7642 1e35 0000 1F57 	.long0x1f57
 7643 1e39 2B        	.uleb128 0x2b
 7644 1e3a 0000 0000 	.long.LASF424
 7645 1e3e 02        	.byte0x2
 7646 1e3f 01C2      	.word0x1c2
 7647 1e41 0000 1DFE 	.long0x1dfe
 7648 1e45 02        	.uleb128 0x2
 7649 1e46 91        	.byte0x91
 7650 1e47 00        	.sleb128 0
 7651 1e48 2B        	.uleb128 0x2b
 7652 1e49 0000 0000 	.long.LASF190
 7653 1e4d 02        	.byte0x2
 7654 1e4e 01C3      	.word0x1c3
 7655 1e50 0000 02B7 	.long0x2b7
 7656 1e54 02        	.uleb128 0x2
68K GAS   			page 193


 7657 1e55 91        	.byte0x91
 7658 1e56 04        	.sleb128 4
 7659 1e57 2B        	.uleb128 0x2b
 7660 1e58 0000 0000 	.long.LASF414
 7661 1e5c 02        	.byte0x2
 7662 1e5d 01C4      	.word0x1c4
 7663 1e5f 0000 0AE2 	.long0xae2
 7664 1e63 02        	.uleb128 0x2
 7665 1e64 91        	.byte0x91
 7666 1e65 08        	.sleb128 8
 7667 1e66 2B        	.uleb128 0x2b
 7668 1e67 0000 0000 	.long.LASF235
 7669 1e6b 02        	.byte0x2
 7670 1e6c 01C5      	.word0x1c5
 7671 1e6e 0000 02B7 	.long0x2b7
 7672 1e72 02        	.uleb128 0x2
 7673 1e73 91        	.byte0x91
 7674 1e74 0C        	.sleb128 12
 7675 1e75 2B        	.uleb128 0x2b
 7676 1e76 0000 0000 	.long.LASF202
 7677 1e7a 02        	.byte0x2
 7678 1e7b 01C6      	.word0x1c6
 7679 1e7d 0000 0086 	.long0x86
 7680 1e81 02        	.uleb128 0x2
 7681 1e82 91        	.byte0x91
 7682 1e83 10        	.sleb128 16
 7683 1e84 2B        	.uleb128 0x2b
 7684 1e85 0000 0000 	.long.LASF191
 7685 1e89 02        	.byte0x2
 7686 1e8a 01C7      	.word0x1c7
 7687 1e8c 0000 0086 	.long0x86
 7688 1e90 02        	.uleb128 0x2
 7689 1e91 91        	.byte0x91
 7690 1e92 14        	.sleb128 20
 7691 1e93 2B        	.uleb128 0x2b
 7692 1e94 0000 0000 	.long.LASF201
 7693 1e98 02        	.byte0x2
 7694 1e99 01C8      	.word0x1c8
 7695 1e9b 0000 0086 	.long0x86
 7696 1e9f 02        	.uleb128 0x2
 7697 1ea0 91        	.byte0x91
 7698 1ea1 18        	.sleb128 24
 7699 1ea2 2C        	.uleb128 0x2c
 7700 1ea3 0000 0000 	.long.LASF415
 7701 1ea7 02        	.byte0x2
 7702 1ea8 01CA      	.word0x1ca
 7703 1eaa 0000 009F 	.long0x9f
 7704 1eae 02        	.uleb128 0x2
 7705 1eaf 91        	.byte0x91
 7706 1eb0 64        	.sleb128 -28
 7707 1eb1 2C        	.uleb128 0x2c
 7708 1eb2 0000 0000 	.long.LASF385
 7709 1eb6 02        	.byte0x2
 7710 1eb7 01CB      	.word0x1cb
 7711 1eb9 0000 0050 	.long0x50
 7712 1ebd 02        	.uleb128 0x2
 7713 1ebe 91        	.byte0x91
68K GAS   			page 194


 7714 1ebf 78        	.sleb128 -8
 7715 1ec0 2F        	.uleb128 0x2f
 7716 1ec1 6900      	.string"i"
 7717 1ec3 02        	.byte0x2
 7718 1ec4 01CC      	.word0x1cc
 7719 1ec6 0000 0086 	.long0x86
 7720 1eca 02        	.uleb128 0x2
 7721 1ecb 91        	.byte0x91
 7722 1ecc 74        	.sleb128 -12
 7723 1ecd 2C        	.uleb128 0x2c
 7724 1ece 0000 0000 	.long.LASF425
 7725 1ed2 02        	.byte0x2
 7726 1ed3 01CD      	.word0x1cd
 7727 1ed5 0000 00AA 	.long0xaa
 7728 1ed9 02        	.uleb128 0x2
 7729 1eda 91        	.byte0x91
 7730 1edb 73        	.sleb128 -13
 7731 1edc 2C        	.uleb128 0x2c
 7732 1edd 0000 0000 	.long.LASF322
 7733 1ee1 02        	.byte0x2
 7734 1ee2 01CE      	.word0x1ce
 7735 1ee4 0000 0086 	.long0x86
 7736 1ee8 02        	.uleb128 0x2
 7737 1ee9 91        	.byte0x91
 7738 1eea 60        	.sleb128 -32
 7739 1eeb 2C        	.uleb128 0x2c
 7740 1eec 0000 0000 	.long.LASF192
 7741 1ef0 02        	.byte0x2
 7742 1ef1 01CF      	.word0x1cf
 7743 1ef3 0000 0086 	.long0x86
 7744 1ef7 02        	.uleb128 0x2
 7745 1ef8 91        	.byte0x91
 7746 1ef9 5C        	.sleb128 -36
 7747 1efa 2C        	.uleb128 0x2c
 7748 1efb 0000 0000 	.long.LASF419
 7749 1eff 02        	.byte0x2
 7750 1f00 01D0      	.word0x1d0
 7751 1f02 0000 0B25 	.long0xb25
 7752 1f06 03        	.uleb128 0x3
 7753 1f07 91        	.byte0x91
 7754 1f08 9C7F      	.sleb128 -100
 7755 1f0a 2C        	.uleb128 0x2c
 7756 1f0b 0000 0000 	.long.LASF420
 7757 1f0f 02        	.byte0x2
 7758 1f10 01D1      	.word0x1d1
 7759 1f12 0000 0B25 	.long0xb25
 7760 1f16 03        	.uleb128 0x3
 7761 1f17 91        	.byte0x91
 7762 1f18 DC7E      	.sleb128 -164
 7763 1f1a 2C        	.uleb128 0x2c
 7764 1f1b 0000 0000 	.long.LASF421
 7765 1f1f 02        	.byte0x2
 7766 1f20 01D2      	.word0x1d2
 7767 1f22 0000 0209 	.long0x209
 7768 1f26 02        	.uleb128 0x2
 7769 1f27 91        	.byte0x91
 7770 1f28 68        	.sleb128 -24
68K GAS   			page 195


 7771 1f29 2C        	.uleb128 0x2c
 7772 1f2a 0000 0000 	.long.LASF418
 7773 1f2e 02        	.byte0x2
 7774 1f2f 01D3      	.word0x1d3
 7775 1f31 0000 00AA 	.long0xaa
 7776 1f35 02        	.uleb128 0x2
 7777 1f36 91        	.byte0x91
 7778 1f37 72        	.sleb128 -14
 7779 1f38 2C        	.uleb128 0x2c
 7780 1f39 0000 0000 	.long.LASF422
 7781 1f3d 02        	.byte0x2
 7782 1f3e 01D4      	.word0x1d4
 7783 1f40 0000 1E04 	.long0x1e04
 7784 1f44 02        	.uleb128 0x2
 7785 1f45 91        	.byte0x91
 7786 1f46 6C        	.sleb128 -20
 7787 1f47 2D        	.uleb128 0x2d
 7788 1f48 0000 0000 	.long.LASF406
 7789 1f4c 0000 1F67 	.long0x1f67
 7790 1f50 05        	.uleb128 0x5
 7791 1f51 03        	.byte0x3
 7792 1f52 0000 0000 	.long__func__.5819
 7793 1f56 00        	.byte0
 7794 1f57 08        	.uleb128 0x8
 7795 1f58 0000 00BD 	.long0xbd
 7796 1f5c 0000 1F67 	.long0x1f67
 7797 1f60 09        	.uleb128 0x9
 7798 1f61 0000 0091 	.long0x91
 7799 1f65 10        	.byte0x10
 7800 1f66 00        	.byte0
 7801 1f67 05        	.uleb128 0x5
 7802 1f68 0000 1F57 	.long0x1f57
 7803 1f6c 2E        	.uleb128 0x2e
 7804 1f6d 0000 0000 	.long.LASF426
 7805 1f71 02        	.byte0x2
 7806 1f72 0166      	.word0x166
 7807 1f74 0000 0050 	.long0x50
 7808 1f78 0000 0000 	.long.LFB60
 7809 1f7c 0000 0204 	.long.LFE60-.LFB60
 7810 1f80 01        	.uleb128 0x1
 7811 1f81 9C        	.byte0x9c
 7812 1f82 0000 2044 	.long0x2044
 7813 1f86 2B        	.uleb128 0x2b
 7814 1f87 0000 0000 	.long.LASF427
 7815 1f8b 02        	.byte0x2
 7816 1f8c 0166      	.word0x166
 7817 1f8e 0000 02B7 	.long0x2b7
 7818 1f92 02        	.uleb128 0x2
 7819 1f93 91        	.byte0x91
 7820 1f94 00        	.sleb128 0
 7821 1f95 2C        	.uleb128 0x2c
 7822 1f96 0000 0000 	.long.LASF190
 7823 1f9a 02        	.byte0x2
 7824 1f9b 0168      	.word0x168
 7825 1f9d 0000 0B25 	.long0xb25
 7826 1fa1 03        	.uleb128 0x3
 7827 1fa2 91        	.byte0x91
68K GAS   			page 196


 7828 1fa3 B47F      	.sleb128 -76
 7829 1fa5 2C        	.uleb128 0x2c
 7830 1fa6 0000 0000 	.long.LASF235
 7831 1faa 02        	.byte0x2
 7832 1fab 0169      	.word0x169
 7833 1fad 0000 0107 	.long0x107
 7834 1fb1 03        	.uleb128 0x3
 7835 1fb2 91        	.byte0x91
 7836 1fb3 A07F      	.sleb128 -96
 7837 1fb5 2C        	.uleb128 0x2c
 7838 1fb6 0000 0000 	.long.LASF189
 7839 1fba 02        	.byte0x2
 7840 1fbb 016A      	.word0x16a
 7841 1fbd 0000 0107 	.long0x107
 7842 1fc1 03        	.uleb128 0x3
 7843 1fc2 91        	.byte0x91
 7844 1fc3 8C7F      	.sleb128 -116
 7845 1fc5 2C        	.uleb128 0x2c
 7846 1fc6 0000 0000 	.long.LASF219
 7847 1fca 02        	.byte0x2
 7848 1fcb 016B      	.word0x16b
 7849 1fcd 0000 0107 	.long0x107
 7850 1fd1 03        	.uleb128 0x3
 7851 1fd2 91        	.byte0x91
 7852 1fd3 F87E      	.sleb128 -136
 7853 1fd5 2C        	.uleb128 0x2c
 7854 1fd6 0000 0000 	.long.LASF428
 7855 1fda 02        	.byte0x2
 7856 1fdb 016C      	.word0x16c
 7857 1fdd 0000 0231 	.long0x231
 7858 1fe1 02        	.uleb128 0x2
 7859 1fe2 91        	.byte0x91
 7860 1fe3 74        	.sleb128 -12
 7861 1fe4 2C        	.uleb128 0x2c
 7862 1fe5 0000 0000 	.long.LASF202
 7863 1fe9 02        	.byte0x2
 7864 1fea 016D      	.word0x16d
 7865 1fec 0000 025D 	.long0x25d
 7866 1ff0 03        	.uleb128 0x3
 7867 1ff1 91        	.byte0x91
 7868 1ff2 F47E      	.sleb128 -140
 7869 1ff4 2C        	.uleb128 0x2c
 7870 1ff5 0000 0000 	.long.LASF191
 7871 1ff9 02        	.byte0x2
 7872 1ffa 016E      	.word0x16e
 7873 1ffc 0000 025D 	.long0x25d
 7874 2000 03        	.uleb128 0x3
 7875 2001 91        	.byte0x91
 7876 2002 F07E      	.sleb128 -144
 7877 2004 2C        	.uleb128 0x2c
 7878 2005 0000 0000 	.long.LASF429
 7879 2009 02        	.byte0x2
 7880 200a 016F      	.word0x16f
 7881 200c 0000 025D 	.long0x25d
 7882 2010 03        	.uleb128 0x3
 7883 2011 91        	.byte0x91
 7884 2012 EC7E      	.sleb128 -148
68K GAS   			page 197


 7885 2014 2C        	.uleb128 0x2c
 7886 2015 0000 0000 	.long.LASF201
 7887 2019 02        	.byte0x2
 7888 201a 0170      	.word0x170
 7889 201c 0000 025D 	.long0x25d
 7890 2020 03        	.uleb128 0x3
 7891 2021 91        	.byte0x91
 7892 2022 E87E      	.sleb128 -152
 7893 2024 2C        	.uleb128 0x2c
 7894 2025 0000 0000 	.long.LASF430
 7895 2029 02        	.byte0x2
 7896 202a 0171      	.word0x171
 7897 202c 0000 0086 	.long0x86
 7898 2030 03        	.uleb128 0x3
 7899 2031 91        	.byte0x91
 7900 2032 E47E      	.sleb128 -156
 7901 2034 2C        	.uleb128 0x2c
 7902 2035 0000 0000 	.long.LASF431
 7903 2039 02        	.byte0x2
 7904 203a 0172      	.word0x172
 7905 203c 0000 0050 	.long0x50
 7906 2040 02        	.uleb128 0x2
 7907 2041 91        	.byte0x91
 7908 2042 78        	.sleb128 -8
 7909 2043 00        	.byte0
 7910 2044 30        	.uleb128 0x30
 7911 2045 0000 0000 	.long.LASF432
 7912 2049 02        	.byte0x2
 7913 204a 9E        	.byte0x9e
 7914 204b 0000 0000 	.long.LFB59
 7915 204f 0000 022A 	.long.LFE59-.LFB59
 7916 2053 01        	.uleb128 0x1
 7917 2054 9C        	.byte0x9c
 7918 2055 0000 20D8 	.long0x20d8
 7919 2059 31        	.uleb128 0x31
 7920 205a 0000 0000 	.long.LASF255
 7921 205e 02        	.byte0x2
 7922 205f 9E        	.byte0x9e
 7923 2060 0000 0086 	.long0x86
 7924 2064 02        	.uleb128 0x2
 7925 2065 91        	.byte0x91
 7926 2066 00        	.sleb128 0
 7927 2067 31        	.uleb128 0x31
 7928 2068 0000 0000 	.long.LASF433
 7929 206c 02        	.byte0x2
 7930 206d 9E        	.byte0x9e
 7931 206e 0000 02B7 	.long0x2b7
 7932 2072 02        	.uleb128 0x2
 7933 2073 91        	.byte0x91
 7934 2074 04        	.sleb128 4
 7935 2075 32        	.uleb128 0x32
 7936 2076 0000 0000 	.long.LASF434
 7937 207a 02        	.byte0x2
 7938 207b A0        	.byte0xa0
 7939 207c 0000 20D8 	.long0x20d8
 7940 2080 03        	.uleb128 0x3
 7941 2081 91        	.byte0x91
68K GAS   			page 198


 7942 2082 EC7E      	.sleb128 -148
 7943 2084 32        	.uleb128 0x32
 7944 2085 0000 0000 	.long.LASF435
 7945 2089 02        	.byte0x2
 7946 208a A1        	.byte0xa1
 7947 208b 0000 0086 	.long0x86
 7948 208f 02        	.uleb128 0x2
 7949 2090 91        	.byte0x91
 7950 2091 78        	.sleb128 -8
 7951 2092 32        	.uleb128 0x32
 7952 2093 0000 0000 	.long.LASF436
 7953 2097 02        	.byte0x2
 7954 2098 A2        	.byte0xa2
 7955 2099 0000 0050 	.long0x50
 7956 209d 02        	.uleb128 0x2
 7957 209e 91        	.byte0x91
 7958 209f 74        	.sleb128 -12
 7959 20a0 33        	.uleb128 0x33
 7960 20a1 6300      	.string"c"
 7961 20a3 02        	.byte0x2
 7962 20a4 A3        	.byte0xa3
 7963 20a5 0000 00B6 	.long0xb6
 7964 20a9 03        	.uleb128 0x3
 7965 20aa 91        	.byte0x91
 7966 20ab EB7E      	.sleb128 -149
 7967 20ad 32        	.uleb128 0x32
 7968 20ae 0000 0000 	.long.LASF437
 7969 20b2 02        	.byte0x2
 7970 20b3 A4        	.byte0xa4
 7971 20b4 0000 0050 	.long0x50
 7972 20b8 02        	.uleb128 0x2
 7973 20b9 91        	.byte0x91
 7974 20ba 6C        	.sleb128 -20
 7975 20bb 32        	.uleb128 0x32
 7976 20bc 0000 0000 	.long.LASF438
 7977 20c0 02        	.byte0x2
 7978 20c1 A5        	.byte0xa5
 7979 20c2 0000 00AA 	.long0xaa
 7980 20c6 02        	.uleb128 0x2
 7981 20c7 91        	.byte0x91
 7982 20c8 73        	.sleb128 -13
 7983 20c9 32        	.uleb128 0x32
 7984 20ca 0000 0000 	.long.LASF439
 7985 20ce 02        	.byte0x2
 7986 20cf A6        	.byte0xa6
 7987 20d0 0000 00AA 	.long0xaa
 7988 20d4 02        	.uleb128 0x2
 7989 20d5 91        	.byte0x91
 7990 20d6 72        	.sleb128 -14
 7991 20d7 00        	.byte0
 7992 20d8 08        	.uleb128 0x8
 7993 20d9 0000 00B6 	.long0xb6
 7994 20dd 0000 20E8 	.long0x20e8
 7995 20e1 09        	.uleb128 0x9
 7996 20e2 0000 0091 	.long0x91
 7997 20e6 7F        	.byte0x7f
 7998 20e7 00        	.byte0
68K GAS   			page 199


 7999 20e8 34        	.uleb128 0x34
 8000 20e9 0000 0000 	.long.LASF445
 8001 20ed 01        	.byte0x1
 8002 20ee 01C1      	.word0x1c1
 8003 20f0 0000 0050 	.long0x50
 8004 20f4 0000 0000 	.long.LFB58
 8005 20f8 0000 000C 	.long.LFE58-.LFB58
 8006 20fc 01        	.uleb128 0x1
 8007 20fd 9C        	.byte0x9c
 8008 20fe 2B        	.uleb128 0x2b
 8009 20ff 0000 0000 	.long.LASF440
 8010 2103 01        	.byte0x1
 8011 2104 01C1      	.word0x1c1
 8012 2106 0000 0086 	.long0x86
 8013 210a 02        	.uleb128 0x2
 8014 210b 91        	.byte0x91
 8015 210c 00        	.sleb128 0
 8016 210d 2B        	.uleb128 0x2b
 8017 210e 0000 0000 	.long.LASF441
 8018 2112 01        	.byte0x1
 8019 2113 01C1      	.word0x1c1
 8020 2115 0000 1DFE 	.long0x1dfe
 8021 2119 02        	.uleb128 0x2
 8022 211a 91        	.byte0x91
 8023 211b 04        	.sleb128 4
 8024 211c 00        	.byte0
 8025 211d 00        	.byte0
 8026               	.section.debug_abbrev,"",@progbits
 8027               	.Ldebug_abbrev0:
 8028 0000 01        	.uleb128 0x1
 8029 0001 11        	.uleb128 0x11
 8030 0002 01        	.byte0x1
 8031 0003 25        	.uleb128 0x25
 8032 0004 0E        	.uleb128 0xe
 8033 0005 13        	.uleb128 0x13
 8034 0006 0B        	.uleb128 0xb
 8035 0007 03        	.uleb128 0x3
 8036 0008 0E        	.uleb128 0xe
 8037 0009 1B        	.uleb128 0x1b
 8038 000a 0E        	.uleb128 0xe
 8039 000b 11        	.uleb128 0x11
 8040 000c 01        	.uleb128 0x1
 8041 000d 12        	.uleb128 0x12
 8042 000e 06        	.uleb128 0x6
 8043 000f 10        	.uleb128 0x10
 8044 0010 17        	.uleb128 0x17
 8045 0011 00        	.byte0
 8046 0012 00        	.byte0
 8047 0013 02        	.uleb128 0x2
 8048 0014 16        	.uleb128 0x16
 8049 0015 00        	.byte0
 8050 0016 03        	.uleb128 0x3
 8051 0017 0E        	.uleb128 0xe
 8052 0018 3A        	.uleb128 0x3a
 8053 0019 0B        	.uleb128 0xb
 8054 001a 3B        	.uleb128 0x3b
 8055 001b 0B        	.uleb128 0xb
68K GAS   			page 200


 8056 001c 49        	.uleb128 0x49
 8057 001d 13        	.uleb128 0x13
 8058 001e 00        	.byte0
 8059 001f 00        	.byte0
 8060 0020 03        	.uleb128 0x3
 8061 0021 24        	.uleb128 0x24
 8062 0022 00        	.byte0
 8063 0023 0B        	.uleb128 0xb
 8064 0024 0B        	.uleb128 0xb
 8065 0025 3E        	.uleb128 0x3e
 8066 0026 0B        	.uleb128 0xb
 8067 0027 03        	.uleb128 0x3
 8068 0028 0E        	.uleb128 0xe
 8069 0029 00        	.byte0
 8070 002a 00        	.byte0
 8071 002b 04        	.uleb128 0x4
 8072 002c 16        	.uleb128 0x16
 8073 002d 00        	.byte0
 8074 002e 03        	.uleb128 0x3
 8075 002f 0E        	.uleb128 0xe
 8076 0030 3A        	.uleb128 0x3a
 8077 0031 0B        	.uleb128 0xb
 8078 0032 3B        	.uleb128 0x3b
 8079 0033 05        	.uleb128 0x5
 8080 0034 49        	.uleb128 0x49
 8081 0035 13        	.uleb128 0x13
 8082 0036 00        	.byte0
 8083 0037 00        	.byte0
 8084 0038 05        	.uleb128 0x5
 8085 0039 26        	.uleb128 0x26
 8086 003a 00        	.byte0
 8087 003b 49        	.uleb128 0x49
 8088 003c 13        	.uleb128 0x13
 8089 003d 00        	.byte0
 8090 003e 00        	.byte0
 8091 003f 06        	.uleb128 0x6
 8092 0040 13        	.uleb128 0x13
 8093 0041 01        	.byte0x1
 8094 0042 0B        	.uleb128 0xb
 8095 0043 0B        	.uleb128 0xb
 8096 0044 3A        	.uleb128 0x3a
 8097 0045 0B        	.uleb128 0xb
 8098 0046 3B        	.uleb128 0x3b
 8099 0047 0B        	.uleb128 0xb
 8100 0048 01        	.uleb128 0x1
 8101 0049 13        	.uleb128 0x13
 8102 004a 00        	.byte0
 8103 004b 00        	.byte0
 8104 004c 07        	.uleb128 0x7
 8105 004d 0D        	.uleb128 0xd
 8106 004e 00        	.byte0
 8107 004f 03        	.uleb128 0x3
 8108 0050 0E        	.uleb128 0xe
 8109 0051 3A        	.uleb128 0x3a
 8110 0052 0B        	.uleb128 0xb
 8111 0053 3B        	.uleb128 0x3b
 8112 0054 0B        	.uleb128 0xb
68K GAS   			page 201


 8113 0055 49        	.uleb128 0x49
 8114 0056 13        	.uleb128 0x13
 8115 0057 38        	.uleb128 0x38
 8116 0058 0B        	.uleb128 0xb
 8117 0059 00        	.byte0
 8118 005a 00        	.byte0
 8119 005b 08        	.uleb128 0x8
 8120 005c 01        	.uleb128 0x1
 8121 005d 01        	.byte0x1
 8122 005e 49        	.uleb128 0x49
 8123 005f 13        	.uleb128 0x13
 8124 0060 01        	.uleb128 0x1
 8125 0061 13        	.uleb128 0x13
 8126 0062 00        	.byte0
 8127 0063 00        	.byte0
 8128 0064 09        	.uleb128 0x9
 8129 0065 21        	.uleb128 0x21
 8130 0066 00        	.byte0
 8131 0067 49        	.uleb128 0x49
 8132 0068 13        	.uleb128 0x13
 8133 0069 2F        	.uleb128 0x2f
 8134 006a 0B        	.uleb128 0xb
 8135 006b 00        	.byte0
 8136 006c 00        	.byte0
 8137 006d 0A        	.uleb128 0xa
 8138 006e 0F        	.uleb128 0xf
 8139 006f 00        	.byte0
 8140 0070 0B        	.uleb128 0xb
 8141 0071 0B        	.uleb128 0xb
 8142 0072 49        	.uleb128 0x49
 8143 0073 13        	.uleb128 0x13
 8144 0074 00        	.byte0
 8145 0075 00        	.byte0
 8146 0076 0B        	.uleb128 0xb
 8147 0077 15        	.uleb128 0x15
 8148 0078 00        	.byte0
 8149 0079 27        	.uleb128 0x27
 8150 007a 19        	.uleb128 0x19
 8151 007b 00        	.byte0
 8152 007c 00        	.byte0
 8153 007d 0C        	.uleb128 0xc
 8154 007e 0F        	.uleb128 0xf
 8155 007f 00        	.byte0
 8156 0080 0B        	.uleb128 0xb
 8157 0081 0B        	.uleb128 0xb
 8158 0082 00        	.byte0
 8159 0083 00        	.byte0
 8160 0084 0D        	.uleb128 0xd
 8161 0085 24        	.uleb128 0x24
 8162 0086 00        	.byte0
 8163 0087 0B        	.uleb128 0xb
 8164 0088 0B        	.uleb128 0xb
 8165 0089 3E        	.uleb128 0x3e
 8166 008a 0B        	.uleb128 0xb
 8167 008b 03        	.uleb128 0x3
 8168 008c 08        	.uleb128 0x8
 8169 008d 00        	.byte0
68K GAS   			page 202


 8170 008e 00        	.byte0
 8171 008f 0E        	.uleb128 0xe
 8172 0090 13        	.uleb128 0x13
 8173 0091 01        	.byte0x1
 8174 0092 03        	.uleb128 0x3
 8175 0093 0E        	.uleb128 0xe
 8176 0094 0B        	.uleb128 0xb
 8177 0095 0B        	.uleb128 0xb
 8178 0096 3A        	.uleb128 0x3a
 8179 0097 0B        	.uleb128 0xb
 8180 0098 3B        	.uleb128 0x3b
 8181 0099 0B        	.uleb128 0xb
 8182 009a 01        	.uleb128 0x1
 8183 009b 13        	.uleb128 0x13
 8184 009c 00        	.byte0
 8185 009d 00        	.byte0
 8186 009e 0F        	.uleb128 0xf
 8187 009f 13        	.uleb128 0x13
 8188 00a0 00        	.byte0
 8189 00a1 03        	.uleb128 0x3
 8190 00a2 0E        	.uleb128 0xe
 8191 00a3 3C        	.uleb128 0x3c
 8192 00a4 19        	.uleb128 0x19
 8193 00a5 00        	.byte0
 8194 00a6 00        	.byte0
 8195 00a7 10        	.uleb128 0x10
 8196 00a8 17        	.uleb128 0x17
 8197 00a9 01        	.byte0x1
 8198 00aa 0B        	.uleb128 0xb
 8199 00ab 0B        	.uleb128 0xb
 8200 00ac 3A        	.uleb128 0x3a
 8201 00ad 0B        	.uleb128 0xb
 8202 00ae 3B        	.uleb128 0x3b
 8203 00af 0B        	.uleb128 0xb
 8204 00b0 01        	.uleb128 0x1
 8205 00b1 13        	.uleb128 0x13
 8206 00b2 00        	.byte0
 8207 00b3 00        	.byte0
 8208 00b4 11        	.uleb128 0x11
 8209 00b5 0D        	.uleb128 0xd
 8210 00b6 00        	.byte0
 8211 00b7 03        	.uleb128 0x3
 8212 00b8 0E        	.uleb128 0xe
 8213 00b9 3A        	.uleb128 0x3a
 8214 00ba 0B        	.uleb128 0xb
 8215 00bb 3B        	.uleb128 0x3b
 8216 00bc 0B        	.uleb128 0xb
 8217 00bd 49        	.uleb128 0x49
 8218 00be 13        	.uleb128 0x13
 8219 00bf 00        	.byte0
 8220 00c0 00        	.byte0
 8221 00c1 12        	.uleb128 0x12
 8222 00c2 0D        	.uleb128 0xd
 8223 00c3 00        	.byte0
 8224 00c4 03        	.uleb128 0x3
 8225 00c5 08        	.uleb128 0x8
 8226 00c6 3A        	.uleb128 0x3a
68K GAS   			page 203


 8227 00c7 0B        	.uleb128 0xb
 8228 00c8 3B        	.uleb128 0x3b
 8229 00c9 0B        	.uleb128 0xb
 8230 00ca 49        	.uleb128 0x49
 8231 00cb 13        	.uleb128 0x13
 8232 00cc 38        	.uleb128 0x38
 8233 00cd 0B        	.uleb128 0xb
 8234 00ce 00        	.byte0
 8235 00cf 00        	.byte0
 8236 00d0 13        	.uleb128 0x13
 8237 00d1 13        	.uleb128 0x13
 8238 00d2 01        	.byte0x1
 8239 00d3 03        	.uleb128 0x3
 8240 00d4 0E        	.uleb128 0xe
 8241 00d5 0B        	.uleb128 0xb
 8242 00d6 05        	.uleb128 0x5
 8243 00d7 3A        	.uleb128 0x3a
 8244 00d8 0B        	.uleb128 0xb
 8245 00d9 3B        	.uleb128 0x3b
 8246 00da 0B        	.uleb128 0xb
 8247 00db 01        	.uleb128 0x1
 8248 00dc 13        	.uleb128 0x13
 8249 00dd 00        	.byte0
 8250 00de 00        	.byte0
 8251 00df 14        	.uleb128 0x14
 8252 00e0 0D        	.uleb128 0xd
 8253 00e1 00        	.byte0
 8254 00e2 03        	.uleb128 0x3
 8255 00e3 0E        	.uleb128 0xe
 8256 00e4 3A        	.uleb128 0x3a
 8257 00e5 0B        	.uleb128 0xb
 8258 00e6 3B        	.uleb128 0x3b
 8259 00e7 0B        	.uleb128 0xb
 8260 00e8 49        	.uleb128 0x49
 8261 00e9 13        	.uleb128 0x13
 8262 00ea 38        	.uleb128 0x38
 8263 00eb 05        	.uleb128 0x5
 8264 00ec 00        	.byte0
 8265 00ed 00        	.byte0
 8266 00ee 15        	.uleb128 0x15
 8267 00ef 15        	.uleb128 0x15
 8268 00f0 01        	.byte0x1
 8269 00f1 27        	.uleb128 0x27
 8270 00f2 19        	.uleb128 0x19
 8271 00f3 49        	.uleb128 0x49
 8272 00f4 13        	.uleb128 0x13
 8273 00f5 01        	.uleb128 0x1
 8274 00f6 13        	.uleb128 0x13
 8275 00f7 00        	.byte0
 8276 00f8 00        	.byte0
 8277 00f9 16        	.uleb128 0x16
 8278 00fa 05        	.uleb128 0x5
 8279 00fb 00        	.byte0
 8280 00fc 49        	.uleb128 0x49
 8281 00fd 13        	.uleb128 0x13
 8282 00fe 00        	.byte0
 8283 00ff 00        	.byte0
68K GAS   			page 204


 8284 0100 17        	.uleb128 0x17
 8285 0101 13        	.uleb128 0x13
 8286 0102 01        	.byte0x1
 8287 0103 03        	.uleb128 0x3
 8288 0104 0E        	.uleb128 0xe
 8289 0105 0B        	.uleb128 0xb
 8290 0106 05        	.uleb128 0x5
 8291 0107 3A        	.uleb128 0x3a
 8292 0108 0B        	.uleb128 0xb
 8293 0109 3B        	.uleb128 0x3b
 8294 010a 05        	.uleb128 0x5
 8295 010b 01        	.uleb128 0x1
 8296 010c 13        	.uleb128 0x13
 8297 010d 00        	.byte0
 8298 010e 00        	.byte0
 8299 010f 18        	.uleb128 0x18
 8300 0110 0D        	.uleb128 0xd
 8301 0111 00        	.byte0
 8302 0112 03        	.uleb128 0x3
 8303 0113 0E        	.uleb128 0xe
 8304 0114 3A        	.uleb128 0x3a
 8305 0115 0B        	.uleb128 0xb
 8306 0116 3B        	.uleb128 0x3b
 8307 0117 05        	.uleb128 0x5
 8308 0118 49        	.uleb128 0x49
 8309 0119 13        	.uleb128 0x13
 8310 011a 38        	.uleb128 0x38
 8311 011b 0B        	.uleb128 0xb
 8312 011c 00        	.byte0
 8313 011d 00        	.byte0
 8314 011e 19        	.uleb128 0x19
 8315 011f 0D        	.uleb128 0xd
 8316 0120 00        	.byte0
 8317 0121 03        	.uleb128 0x3
 8318 0122 0E        	.uleb128 0xe
 8319 0123 3A        	.uleb128 0x3a
 8320 0124 0B        	.uleb128 0xb
 8321 0125 3B        	.uleb128 0x3b
 8322 0126 05        	.uleb128 0x5
 8323 0127 49        	.uleb128 0x49
 8324 0128 13        	.uleb128 0x13
 8325 0129 38        	.uleb128 0x38
 8326 012a 05        	.uleb128 0x5
 8327 012b 00        	.byte0
 8328 012c 00        	.byte0
 8329 012d 1A        	.uleb128 0x1a
 8330 012e 13        	.uleb128 0x13
 8331 012f 01        	.byte0x1
 8332 0130 03        	.uleb128 0x3
 8333 0131 0E        	.uleb128 0xe
 8334 0132 0B        	.uleb128 0xb
 8335 0133 0B        	.uleb128 0xb
 8336 0134 3A        	.uleb128 0x3a
 8337 0135 0B        	.uleb128 0xb
 8338 0136 3B        	.uleb128 0x3b
 8339 0137 05        	.uleb128 0x5
 8340 0138 01        	.uleb128 0x1
68K GAS   			page 205


 8341 0139 13        	.uleb128 0x13
 8342 013a 00        	.byte0
 8343 013b 00        	.byte0
 8344 013c 1B        	.uleb128 0x1b
 8345 013d 13        	.uleb128 0x13
 8346 013e 01        	.byte0x1
 8347 013f 0B        	.uleb128 0xb
 8348 0140 0B        	.uleb128 0xb
 8349 0141 3A        	.uleb128 0x3a
 8350 0142 0B        	.uleb128 0xb
 8351 0143 3B        	.uleb128 0x3b
 8352 0144 05        	.uleb128 0x5
 8353 0145 01        	.uleb128 0x1
 8354 0146 13        	.uleb128 0x13
 8355 0147 00        	.byte0
 8356 0148 00        	.byte0
 8357 0149 1C        	.uleb128 0x1c
 8358 014a 17        	.uleb128 0x17
 8359 014b 01        	.byte0x1
 8360 014c 0B        	.uleb128 0xb
 8361 014d 0B        	.uleb128 0xb
 8362 014e 3A        	.uleb128 0x3a
 8363 014f 0B        	.uleb128 0xb
 8364 0150 3B        	.uleb128 0x3b
 8365 0151 05        	.uleb128 0x5
 8366 0152 01        	.uleb128 0x1
 8367 0153 13        	.uleb128 0x13
 8368 0154 00        	.byte0
 8369 0155 00        	.byte0
 8370 0156 1D        	.uleb128 0x1d
 8371 0157 0D        	.uleb128 0xd
 8372 0158 00        	.byte0
 8373 0159 03        	.uleb128 0x3
 8374 015a 0E        	.uleb128 0xe
 8375 015b 3A        	.uleb128 0x3a
 8376 015c 0B        	.uleb128 0xb
 8377 015d 3B        	.uleb128 0x3b
 8378 015e 05        	.uleb128 0x5
 8379 015f 49        	.uleb128 0x49
 8380 0160 13        	.uleb128 0x13
 8381 0161 00        	.byte0
 8382 0162 00        	.byte0
 8383 0163 1E        	.uleb128 0x1e
 8384 0164 15        	.uleb128 0x15
 8385 0165 01        	.byte0x1
 8386 0166 27        	.uleb128 0x27
 8387 0167 19        	.uleb128 0x19
 8388 0168 01        	.uleb128 0x1
 8389 0169 13        	.uleb128 0x13
 8390 016a 00        	.byte0
 8391 016b 00        	.byte0
 8392 016c 1F        	.uleb128 0x1f
 8393 016d 34        	.uleb128 0x34
 8394 016e 00        	.byte0
 8395 016f 03        	.uleb128 0x3
 8396 0170 0E        	.uleb128 0xe
 8397 0171 3A        	.uleb128 0x3a
68K GAS   			page 206


 8398 0172 0B        	.uleb128 0xb
 8399 0173 3B        	.uleb128 0x3b
 8400 0174 05        	.uleb128 0x5
 8401 0175 49        	.uleb128 0x49
 8402 0176 13        	.uleb128 0x13
 8403 0177 3F        	.uleb128 0x3f
 8404 0178 19        	.uleb128 0x19
 8405 0179 3C        	.uleb128 0x3c
 8406 017a 19        	.uleb128 0x19
 8407 017b 00        	.byte0
 8408 017c 00        	.byte0
 8409 017d 20        	.uleb128 0x20
 8410 017e 26        	.uleb128 0x26
 8411 017f 00        	.byte0
 8412 0180 00        	.byte0
 8413 0181 00        	.byte0
 8414 0182 21        	.uleb128 0x21
 8415 0183 34        	.uleb128 0x34
 8416 0184 00        	.byte0
 8417 0185 03        	.uleb128 0x3
 8418 0186 0E        	.uleb128 0xe
 8419 0187 3A        	.uleb128 0x3a
 8420 0188 0B        	.uleb128 0xb
 8421 0189 3B        	.uleb128 0x3b
 8422 018a 0B        	.uleb128 0xb
 8423 018b 49        	.uleb128 0x49
 8424 018c 13        	.uleb128 0x13
 8425 018d 3F        	.uleb128 0x3f
 8426 018e 19        	.uleb128 0x19
 8427 018f 3C        	.uleb128 0x3c
 8428 0190 19        	.uleb128 0x19
 8429 0191 00        	.byte0
 8430 0192 00        	.byte0
 8431 0193 22        	.uleb128 0x22
 8432 0194 15        	.uleb128 0x15
 8433 0195 00        	.byte0
 8434 0196 27        	.uleb128 0x27
 8435 0197 19        	.uleb128 0x19
 8436 0198 49        	.uleb128 0x49
 8437 0199 13        	.uleb128 0x13
 8438 019a 00        	.byte0
 8439 019b 00        	.byte0
 8440 019c 23        	.uleb128 0x23
 8441 019d 04        	.uleb128 0x4
 8442 019e 01        	.byte0x1
 8443 019f 3E        	.uleb128 0x3e
 8444 01a0 0B        	.uleb128 0xb
 8445 01a1 0B        	.uleb128 0xb
 8446 01a2 0B        	.uleb128 0xb
 8447 01a3 49        	.uleb128 0x49
 8448 01a4 13        	.uleb128 0x13
 8449 01a5 3A        	.uleb128 0x3a
 8450 01a6 0B        	.uleb128 0xb
 8451 01a7 3B        	.uleb128 0x3b
 8452 01a8 05        	.uleb128 0x5
 8453 01a9 01        	.uleb128 0x1
 8454 01aa 13        	.uleb128 0x13
68K GAS   			page 207


 8455 01ab 00        	.byte0
 8456 01ac 00        	.byte0
 8457 01ad 24        	.uleb128 0x24
 8458 01ae 28        	.uleb128 0x28
 8459 01af 00        	.byte0
 8460 01b0 03        	.uleb128 0x3
 8461 01b1 0E        	.uleb128 0xe
 8462 01b2 1C        	.uleb128 0x1c
 8463 01b3 0B        	.uleb128 0xb
 8464 01b4 00        	.byte0
 8465 01b5 00        	.byte0
 8466 01b6 25        	.uleb128 0x25
 8467 01b7 28        	.uleb128 0x28
 8468 01b8 00        	.byte0
 8469 01b9 03        	.uleb128 0x3
 8470 01ba 0E        	.uleb128 0xe
 8471 01bb 1C        	.uleb128 0x1c
 8472 01bc 05        	.uleb128 0x5
 8473 01bd 00        	.byte0
 8474 01be 00        	.byte0
 8475 01bf 26        	.uleb128 0x26
 8476 01c0 13        	.uleb128 0x13
 8477 01c1 01        	.byte0x1
 8478 01c2 0B        	.uleb128 0xb
 8479 01c3 05        	.uleb128 0x5
 8480 01c4 3A        	.uleb128 0x3a
 8481 01c5 0B        	.uleb128 0xb
 8482 01c6 3B        	.uleb128 0x3b
 8483 01c7 0B        	.uleb128 0xb
 8484 01c8 01        	.uleb128 0x1
 8485 01c9 13        	.uleb128 0x13
 8486 01ca 00        	.byte0
 8487 01cb 00        	.byte0
 8488 01cc 27        	.uleb128 0x27
 8489 01cd 13        	.uleb128 0x13
 8490 01ce 01        	.byte0x1
 8491 01cf 0B        	.uleb128 0xb
 8492 01d0 06        	.uleb128 0x6
 8493 01d1 3A        	.uleb128 0x3a
 8494 01d2 0B        	.uleb128 0xb
 8495 01d3 3B        	.uleb128 0x3b
 8496 01d4 0B        	.uleb128 0xb
 8497 01d5 01        	.uleb128 0x1
 8498 01d6 13        	.uleb128 0x13
 8499 01d7 00        	.byte0
 8500 01d8 00        	.byte0
 8501 01d9 28        	.uleb128 0x28
 8502 01da 21        	.uleb128 0x21
 8503 01db 00        	.byte0
 8504 01dc 49        	.uleb128 0x49
 8505 01dd 13        	.uleb128 0x13
 8506 01de 2F        	.uleb128 0x2f
 8507 01df 05        	.uleb128 0x5
 8508 01e0 00        	.byte0
 8509 01e1 00        	.byte0
 8510 01e2 29        	.uleb128 0x29
 8511 01e3 0D        	.uleb128 0xd
68K GAS   			page 208


 8512 01e4 00        	.byte0
 8513 01e5 03        	.uleb128 0x3
 8514 01e6 0E        	.uleb128 0xe
 8515 01e7 3A        	.uleb128 0x3a
 8516 01e8 0B        	.uleb128 0xb
 8517 01e9 3B        	.uleb128 0x3b
 8518 01ea 0B        	.uleb128 0xb
 8519 01eb 49        	.uleb128 0x49
 8520 01ec 13        	.uleb128 0x13
 8521 01ed 38        	.uleb128 0x38
 8522 01ee 06        	.uleb128 0x6
 8523 01ef 00        	.byte0
 8524 01f0 00        	.byte0
 8525 01f1 2A        	.uleb128 0x2a
 8526 01f2 2E        	.uleb128 0x2e
 8527 01f3 01        	.byte0x1
 8528 01f4 3F        	.uleb128 0x3f
 8529 01f5 19        	.uleb128 0x19
 8530 01f6 03        	.uleb128 0x3
 8531 01f7 0E        	.uleb128 0xe
 8532 01f8 3A        	.uleb128 0x3a
 8533 01f9 0B        	.uleb128 0xb
 8534 01fa 3B        	.uleb128 0x3b
 8535 01fb 05        	.uleb128 0x5
 8536 01fc 27        	.uleb128 0x27
 8537 01fd 19        	.uleb128 0x19
 8538 01fe 11        	.uleb128 0x11
 8539 01ff 01        	.uleb128 0x1
 8540 0200 12        	.uleb128 0x12
 8541 0201 06        	.uleb128 0x6
 8542 0202 40        	.uleb128 0x40
 8543 0203 18        	.uleb128 0x18
 8544 0204 9642      	.uleb128 0x2116
 8545 0206 19        	.uleb128 0x19
 8546 0207 01        	.uleb128 0x1
 8547 0208 13        	.uleb128 0x13
 8548 0209 00        	.byte0
 8549 020a 00        	.byte0
 8550 020b 2B        	.uleb128 0x2b
 8551 020c 05        	.uleb128 0x5
 8552 020d 00        	.byte0
 8553 020e 03        	.uleb128 0x3
 8554 020f 0E        	.uleb128 0xe
 8555 0210 3A        	.uleb128 0x3a
 8556 0211 0B        	.uleb128 0xb
 8557 0212 3B        	.uleb128 0x3b
 8558 0213 05        	.uleb128 0x5
 8559 0214 49        	.uleb128 0x49
 8560 0215 13        	.uleb128 0x13
 8561 0216 02        	.uleb128 0x2
 8562 0217 18        	.uleb128 0x18
 8563 0218 00        	.byte0
 8564 0219 00        	.byte0
 8565 021a 2C        	.uleb128 0x2c
 8566 021b 34        	.uleb128 0x34
 8567 021c 00        	.byte0
 8568 021d 03        	.uleb128 0x3
68K GAS   			page 209


 8569 021e 0E        	.uleb128 0xe
 8570 021f 3A        	.uleb128 0x3a
 8571 0220 0B        	.uleb128 0xb
 8572 0221 3B        	.uleb128 0x3b
 8573 0222 05        	.uleb128 0x5
 8574 0223 49        	.uleb128 0x49
 8575 0224 13        	.uleb128 0x13
 8576 0225 02        	.uleb128 0x2
 8577 0226 18        	.uleb128 0x18
 8578 0227 00        	.byte0
 8579 0228 00        	.byte0
 8580 0229 2D        	.uleb128 0x2d
 8581 022a 34        	.uleb128 0x34
 8582 022b 00        	.byte0
 8583 022c 03        	.uleb128 0x3
 8584 022d 0E        	.uleb128 0xe
 8585 022e 49        	.uleb128 0x49
 8586 022f 13        	.uleb128 0x13
 8587 0230 34        	.uleb128 0x34
 8588 0231 19        	.uleb128 0x19
 8589 0232 02        	.uleb128 0x2
 8590 0233 18        	.uleb128 0x18
 8591 0234 00        	.byte0
 8592 0235 00        	.byte0
 8593 0236 2E        	.uleb128 0x2e
 8594 0237 2E        	.uleb128 0x2e
 8595 0238 01        	.byte0x1
 8596 0239 3F        	.uleb128 0x3f
 8597 023a 19        	.uleb128 0x19
 8598 023b 03        	.uleb128 0x3
 8599 023c 0E        	.uleb128 0xe
 8600 023d 3A        	.uleb128 0x3a
 8601 023e 0B        	.uleb128 0xb
 8602 023f 3B        	.uleb128 0x3b
 8603 0240 05        	.uleb128 0x5
 8604 0241 27        	.uleb128 0x27
 8605 0242 19        	.uleb128 0x19
 8606 0243 49        	.uleb128 0x49
 8607 0244 13        	.uleb128 0x13
 8608 0245 11        	.uleb128 0x11
 8609 0246 01        	.uleb128 0x1
 8610 0247 12        	.uleb128 0x12
 8611 0248 06        	.uleb128 0x6
 8612 0249 40        	.uleb128 0x40
 8613 024a 18        	.uleb128 0x18
 8614 024b 9642      	.uleb128 0x2116
 8615 024d 19        	.uleb128 0x19
 8616 024e 01        	.uleb128 0x1
 8617 024f 13        	.uleb128 0x13
 8618 0250 00        	.byte0
 8619 0251 00        	.byte0
 8620 0252 2F        	.uleb128 0x2f
 8621 0253 34        	.uleb128 0x34
 8622 0254 00        	.byte0
 8623 0255 03        	.uleb128 0x3
 8624 0256 08        	.uleb128 0x8
 8625 0257 3A        	.uleb128 0x3a
68K GAS   			page 210


 8626 0258 0B        	.uleb128 0xb
 8627 0259 3B        	.uleb128 0x3b
 8628 025a 05        	.uleb128 0x5
 8629 025b 49        	.uleb128 0x49
 8630 025c 13        	.uleb128 0x13
 8631 025d 02        	.uleb128 0x2
 8632 025e 18        	.uleb128 0x18
 8633 025f 00        	.byte0
 8634 0260 00        	.byte0
 8635 0261 30        	.uleb128 0x30
 8636 0262 2E        	.uleb128 0x2e
 8637 0263 01        	.byte0x1
 8638 0264 3F        	.uleb128 0x3f
 8639 0265 19        	.uleb128 0x19
 8640 0266 03        	.uleb128 0x3
 8641 0267 0E        	.uleb128 0xe
 8642 0268 3A        	.uleb128 0x3a
 8643 0269 0B        	.uleb128 0xb
 8644 026a 3B        	.uleb128 0x3b
 8645 026b 0B        	.uleb128 0xb
 8646 026c 27        	.uleb128 0x27
 8647 026d 19        	.uleb128 0x19
 8648 026e 11        	.uleb128 0x11
 8649 026f 01        	.uleb128 0x1
 8650 0270 12        	.uleb128 0x12
 8651 0271 06        	.uleb128 0x6
 8652 0272 40        	.uleb128 0x40
 8653 0273 18        	.uleb128 0x18
 8654 0274 9642      	.uleb128 0x2116
 8655 0276 19        	.uleb128 0x19
 8656 0277 01        	.uleb128 0x1
 8657 0278 13        	.uleb128 0x13
 8658 0279 00        	.byte0
 8659 027a 00        	.byte0
 8660 027b 31        	.uleb128 0x31
 8661 027c 05        	.uleb128 0x5
 8662 027d 00        	.byte0
 8663 027e 03        	.uleb128 0x3
 8664 027f 0E        	.uleb128 0xe
 8665 0280 3A        	.uleb128 0x3a
 8666 0281 0B        	.uleb128 0xb
 8667 0282 3B        	.uleb128 0x3b
 8668 0283 0B        	.uleb128 0xb
 8669 0284 49        	.uleb128 0x49
 8670 0285 13        	.uleb128 0x13
 8671 0286 02        	.uleb128 0x2
 8672 0287 18        	.uleb128 0x18
 8673 0288 00        	.byte0
 8674 0289 00        	.byte0
 8675 028a 32        	.uleb128 0x32
 8676 028b 34        	.uleb128 0x34
 8677 028c 00        	.byte0
 8678 028d 03        	.uleb128 0x3
 8679 028e 0E        	.uleb128 0xe
 8680 028f 3A        	.uleb128 0x3a
 8681 0290 0B        	.uleb128 0xb
 8682 0291 3B        	.uleb128 0x3b
68K GAS   			page 211


 8683 0292 0B        	.uleb128 0xb
 8684 0293 49        	.uleb128 0x49
 8685 0294 13        	.uleb128 0x13
 8686 0295 02        	.uleb128 0x2
 8687 0296 18        	.uleb128 0x18
 8688 0297 00        	.byte0
 8689 0298 00        	.byte0
 8690 0299 33        	.uleb128 0x33
 8691 029a 34        	.uleb128 0x34
 8692 029b 00        	.byte0
 8693 029c 03        	.uleb128 0x3
 8694 029d 08        	.uleb128 0x8
 8695 029e 3A        	.uleb128 0x3a
 8696 029f 0B        	.uleb128 0xb
 8697 02a0 3B        	.uleb128 0x3b
 8698 02a1 0B        	.uleb128 0xb
 8699 02a2 49        	.uleb128 0x49
 8700 02a3 13        	.uleb128 0x13
 8701 02a4 02        	.uleb128 0x2
 8702 02a5 18        	.uleb128 0x18
 8703 02a6 00        	.byte0
 8704 02a7 00        	.byte0
 8705 02a8 34        	.uleb128 0x34
 8706 02a9 2E        	.uleb128 0x2e
 8707 02aa 01        	.byte0x1
 8708 02ab 03        	.uleb128 0x3
 8709 02ac 0E        	.uleb128 0xe
 8710 02ad 3A        	.uleb128 0x3a
 8711 02ae 0B        	.uleb128 0xb
 8712 02af 3B        	.uleb128 0x3b
 8713 02b0 05        	.uleb128 0x5
 8714 02b1 27        	.uleb128 0x27
 8715 02b2 19        	.uleb128 0x19
 8716 02b3 49        	.uleb128 0x49
 8717 02b4 13        	.uleb128 0x13
 8718 02b5 11        	.uleb128 0x11
 8719 02b6 01        	.uleb128 0x1
 8720 02b7 12        	.uleb128 0x12
 8721 02b8 06        	.uleb128 0x6
 8722 02b9 40        	.uleb128 0x40
 8723 02ba 18        	.uleb128 0x18
 8724 02bb 9742      	.uleb128 0x2117
 8725 02bd 19        	.uleb128 0x19
 8726 02be 00        	.byte0
 8727 02bf 00        	.byte0
 8728 02c0 00        	.byte0
 8729               	.section.debug_aranges,"",@progbits
 8730 0000 0000 001C 	.long0x1c
 8731 0004 0002      	.word0x2
 8732 0006 0000 0000 	.long.Ldebug_info0
 8733 000a 04        	.byte0x4
 8734 000b 00        	.byte0
 8735 000c 0000      	.word0
 8736 000e 0000      	.word0
 8737 0010 0000 0000 	.long.Ltext0
 8738 0014 0000 21AE 	.long.Letext0-.Ltext0
 8739 0018 0000 0000 	.long0
68K GAS   			page 212


 8740 001c 0000 0000 	.long0
 8741               	.section.debug_line,"",@progbits
 8742               	.Ldebug_line0:
 8743 0000 0000 0753 	.section.debug_str,"MS",@progbits,1
 8743      0002 0000 
 8743      03C9 0201 
 8743      FB0E 0D00 
 8743      0101 0101 
 8744               	.LASF51:
 8745 0000 5F73 7369 	.string"_ssize_t"
 8745      7A65 5F74 
 8745      00
 8746               	.LASF415:
 8747 0009 5374 6172 	.string"StartAddr"
 8747      7441 6464 
 8747      7200 
 8748               	.LASF30:
 8749 0013 7369 7A65 	.string"size_t"
 8749      5F74 00
 8750               	.LASF153:
 8751 001a 5F5F 6C6F 	.string"__locale_t"
 8751      6361 6C65 
 8751      5F74 00
 8752               	.LASF56:
 8753 0025 5F5F 7661 	.string"__value"
 8753      6C75 6500 
 8754               	.LASF221:
 8755 002d 4346 455F 	.string"CFE_ES_AppStaticModuleApi_t"
 8755      4553 5F41 
 8755      7070 5374 
 8755      6174 6963 
 8755      4D6F 6475 
 8756               	.LASF418:
 8757 0049 4973 5261 	.string"IsRamDiskFile"
 8757      6D44 6973 
 8757      6B46 696C 
 8757      6500 
 8758               	.LASF154:
 8759 0057 5F5F 7366 	.string"__sf"
 8759      00
 8760               	.LASF433:
 8761 005c 5374 6172 	.string"StartFilePath"
 8761      7446 696C 
 8761      6550 6174 
 8761      6800 
 8762               	.LASF175:
 8763 006a 4F53 5F6D 	.string"OS_module_address_t"
 8763      6F64 756C 
 8763      655F 6164 
 8763      6472 6573 
 8763      735F 7400 
 8764               	.LASF91:
 8765 007e 5F72 6561 	.string"_read"
 8765      6400 
 8766               	.LASF367:
 8767 0084 4346 455F 	.string"CFE_ES_GenCounterRecord_t"
 8767      4553 5F47 
68K GAS   			page 213


 8767      656E 436F 
 8767      756E 7465 
 8767      7252 6563 
 8768               	.LASF92:
 8769 009e 5F77 7269 	.string"_write"
 8769      7465 00
 8770               	.LASF285:
 8771 00a5 5472 6967 	.string"TriggerMask"
 8771      6765 724D 
 8771      6173 6B00 
 8772               	.LASF133:
 8773 00b1 5F61 7363 	.string"_asctime_buf"
 8773      7469 6D65 
 8773      5F62 7566 
 8773      00
 8774               	.LASF118:
 8775 00be 5F63 7674 	.string"_cvtlen"
 8775      6C65 6E00 
 8776               	.LASF45:
 8777 00c6 5F4D 7574 	.string"_Mutex_Control"
 8777      6578 5F43 
 8777      6F6E 7472 
 8777      6F6C 00
 8778               	.LASF326:
 8779 00d5 4346 455F 	.string"CFE_ES_LibRecord_t"
 8779      4553 5F4C 
 8779      6962 5265 
 8779      636F 7264 
 8779      5F74 00
 8780               	.LASF406:
 8781 00e8 5F5F 6675 	.string"__func__"
 8781      6E63 5F5F 
 8781      00
 8782               	.LASF270:
 8783 00f1 4346 455F 	.string"CFE_ES_PerfDataEntry_t"
 8783      4553 5F50 
 8783      6572 6644 
 8783      6174 6145 
 8783      6E74 7279 
 8784               	.LASF157:
 8785 0108 5F67 6C6F 	.string"_global_atexit"
 8785      6261 6C5F 
 8785      6174 6578 
 8785      6974 00
 8786               	.LASF206:
 8787 0117 4E75 6D4F 	.string"NumOfChildTasks"
 8787      6643 6869 
 8787      6C64 5461 
 8787      736B 7300 
 8788               	.LASF11:
 8789 0127 7569 6E74 	.string"uint32"
 8789      3332 00
 8790               	.LASF411:
 8791 012e 4346 455F 	.string"CFE_ES_ScanAppTable"
 8791      4553 5F53 
 8791      6361 6E41 
 8791      7070 5461 
68K GAS   			page 214


 8791      626C 6500 
 8792               	.LASF152:
 8793 0142 5F75 6E75 	.string"_unused"
 8793      7365 6400 
 8794               	.LASF65:
 8795 014a 5F5F 746D 	.string"__tm"
 8795      00
 8796               	.LASF148:
 8797 014f 5F77 6373 	.string"_wcsrtombs_state"
 8797      7274 6F6D 
 8797      6273 5F73 
 8797      7461 7465 
 8797      00
 8798               	.LASF96:
 8799 0160 5F6E 6275 	.string"_nbuf"
 8799      6600 
 8800               	.LASF66:
 8801 0166 5F5F 746D 	.string"__tm_sec"
 8801      5F73 6563 
 8801      00
 8802               	.LASF44:
 8803 016f 5F54 6872 	.string"_Thread_Control"
 8803      6561 645F 
 8803      436F 6E74 
 8803      726F 6C00 
 8804               	.LASF141:
 8805 017f 5F6C 3634 	.string"_l64a_buf"
 8805      615F 6275 
 8805      6600 
 8806               	.LASF308:
 8807 0189 5469 6D65 	.string"TimeResetVars"
 8807      5265 7365 
 8807      7456 6172 
 8807      7300 
 8808               	.LASF372:
 8809 0197 5265 6769 	.string"RegisteredTasks"
 8809      7374 6572 
 8809      6564 5461 
 8809      736B 7300 
 8810               	.LASF424:
 8811 01a7 4170 706C 	.string"ApplicationIdPtr"
 8811      6963 6174 
 8811      696F 6E49 
 8811      6450 7472 
 8811      00
 8812               	.LASF105:
 8813 01b8 5F73 7464 	.string"_stdin"
 8813      696E 00
 8814               	.LASF264:
 8815 01bf 4170 7049 	.string"AppID"
 8815      4400 
 8816               	.LASF288:
 8817 01c5 4461 7461 	.string"DataBuffer"
 8817      4275 6666 
 8817      6572 00
 8818               	.LASF305:
 8819 01d0 5379 7374 	.string"SystemLogEntryNum"
68K GAS   			page 215


 8819      656D 4C6F 
 8819      6745 6E74 
 8819      7279 4E75 
 8819      6D00 
 8820               	.LASF93:
 8821 01e2 5F73 6565 	.string"_seek"
 8821      6B00 
 8822               	.LASF388:
 8823 01e8 5461 736B 	.string"TaskProp"
 8823      5072 6F70 
 8823      00
 8824               	.LASF414:
 8825 01f1 456E 7472 	.string"EntryPointData"
 8825      7950 6F69 
 8825      6E74 4461 
 8825      7461 00
 8826               	.LASF358:
 8827 0200 4346 455F 	.string"CFE_ES_CDSVariables_t"
 8827      4553 5F43 
 8827      4453 5661 
 8827      7269 6162 
 8827      6C65 735F 
 8828               	.LASF200:
 8829 0216 5374 6172 	.string"StartAddress"
 8829      7441 6464 
 8829      7265 7373 
 8829      00
 8830               	.LASF253:
 8831 0223 4346 455F 	.string"CFE_ES_DebugVariables_t"
 8831      4553 5F44 
 8831      6562 7567 
 8831      5661 7269 
 8831      6162 6C65 
 8832               	.LASF162:
 8833 023b 4F53 6664 	.string"OSfd"
 8833      00
 8834               	.LASF129:
 8835 0240 5F6D 756C 	.string"_mult"
 8835      7400 
 8836               	.LASF173:
 8837 0246 6273 735F 	.string"bss_address"
 8837      6164 6472 
 8837      6573 7300 
 8838               	.LASF205:
 8839 0252 4D61 696E 	.string"MainTaskName"
 8839      5461 736B 
 8839      4E61 6D65 
 8839      00
 8840               	.LASF384:
 8841 025f 4170 7049 	.string"AppInfoPtr"
 8841      6E66 6F50 
 8841      7472 00
 8842               	.LASF363:
 8843 026a 4346 455F 	.string"CFE_ES_PerfLogDump_t"
 8843      4553 5F50 
 8843      6572 664C 
 8843      6F67 4475 
68K GAS   			page 216


 8843      6D70 5F74 
 8844               	.LASF263:
 8845 027f 436F 6E74 	.string"ContextSize"
 8845      6578 7453 
 8845      697A 6500 
 8846               	.LASF416:
 8847 028b 4C69 6253 	.string"LibSlotFound"
 8847      6C6F 7446 
 8847      6F75 6E64 
 8847      00
 8848               	.LASF310:
 8849 0298 4346 455F 	.string"CFE_ES_ResetData_t"
 8849      4553 5F52 
 8849      6573 6574 
 8849      4461 7461 
 8849      5F74 00
 8850               	.LASF194:
 8851 02ab 436F 6465 	.string"CodeAddress"
 8851      4164 6472 
 8851      6573 7300 
 8852               	.LASF239:
 8853 02b7 5072 6F63 	.string"ProcessorID"
 8853      6573 736F 
 8853      7249 4400 
 8854               	.LASF376:
 8855 02c3 4170 7054 	.string"AppTable"
 8855      6162 6C65 
 8855      00
 8856               	.LASF274:
 8857 02cc 5469 6D65 	.string"TimerTicksPerSecond"
 8857      7254 6963 
 8857      6B73 5065 
 8857      7253 6563 
 8857      6F6E 6400 
 8858               	.LASF184:
 8859 02e0 6163 6375 	.string"accuracy"
 8859      7261 6379 
 8859      00
 8860               	.LASF53:
 8861 02e9 5F5F 7763 	.string"__wch"
 8861      6800 
 8862               	.LASF330:
 8863 02ef 5369 7A65 	.string"SizeUsed"
 8863      5573 6564 
 8863      00
 8864               	.LASF88:
 8865 02f8 5F66 696C 	.string"_file"
 8865      6500 
 8866               	.LASF229:
 8867 02fe 4375 7272 	.string"CurrentSTCF"
 8867      656E 7453 
 8867      5443 4600 
 8868               	.LASF75:
 8869 030a 5F6F 6E5F 	.string"_on_exit_args"
 8869      6578 6974 
 8869      5F61 7267 
 8869      7300 
68K GAS   			page 217


 8870               	.LASF396:
 8871 0318 4E75 6D4D 	.string"NumMutexes"
 8871      7574 6578 
 8871      6573 00
 8872               	.LASF272:
 8873 0323 456E 6469 	.string"Endian"
 8873      616E 00
 8874               	.LASF377:
 8875 032a 5265 6769 	.string"RegisteredLibs"
 8875      7374 6572 
 8875      6564 4C69 
 8875      6273 00
 8876               	.LASF243:
 8877 0339 5370 6172 	.string"Spare1"
 8877      6531 00
 8878               	.LASF244:
 8879 0340 5370 6172 	.string"Spare2"
 8879      6532 00
 8880               	.LASF398:
 8881 0347 4E75 6D54 	.string"NumTasks"
 8881      6173 6B73 
 8881      00
 8882               	.LASF171:
 8883 0350 6461 7461 	.string"data_address"
 8883      5F61 6464 
 8883      7265 7373 
 8883      00
 8884               	.LASF144:
 8885 035d 5F6D 6272 	.string"_mbrlen_state"
 8885      6C65 6E5F 
 8885      7374 6174 
 8885      6500 
 8886               	.LASF6:
 8887 036b 6C6F 6E67 	.string"long int"
 8887      2069 6E74 
 8887      00
 8888               	.LASF155:
 8889 0374 5F69 6D70 	.string"_impure_ptr"
 8889      7572 655F 
 8889      7074 7200 
 8890               	.LASF385:
 8891 0380 5265 7475 	.string"ReturnCode"
 8891      726E 436F 
 8891      6465 00
 8892               	.LASF115:
 8893 038b 5F72 6573 	.string"_result_k"
 8893      756C 745F 
 8893      6B00 
 8894               	.LASF318:
 8895 0395 5374 6172 	.string"StartParams"
 8895      7450 6172 
 8895      616D 7300 
 8896               	.LASF85:
 8897 03a1 5F73 697A 	.string"_size"
 8897      6500 
 8898               	.LASF201:
 8899 03a7 4578 6365 	.string"ExceptionAction"
68K GAS   			page 218


 8899      7074 696F 
 8899      6E41 6374 
 8899      696F 6E00 
 8900               	.LASF134:
 8901 03b7 5F6C 6F63 	.string"_localtime_buf"
 8901      616C 7469 
 8901      6D65 5F62 
 8901      7566 00
 8902               	.LASF282:
 8903 03c6 496E 7661 	.string"InvalidMarkerReported"
 8903      6C69 644D 
 8903      6172 6B65 
 8903      7252 6570 
 8903      6F72 7465 
 8904               	.LASF202:
 8905 03dc 5072 696F 	.string"Priority"
 8905      7269 7479 
 8905      00
 8906               	.LASF344:
 8907 03e5 5369 7A65 	.string"SizeDesc"
 8907      4465 7363 
 8907      00
 8908               	.LASF70:
 8909 03ee 5F5F 746D 	.string"__tm_mon"
 8909      5F6D 6F6E 
 8909      00
 8910               	.LASF283:
 8911 03f7 4669 6C74 	.string"FilterTriggerMaskSize"
 8911      6572 5472 
 8911      6967 6765 
 8911      724D 6173 
 8911      6B53 697A 
 8912               	.LASF231:
 8913 040d 4346 455F 	.string"CFE_TIME_ResetVars_t"
 8913      5449 4D45 
 8913      5F52 6573 
 8913      6574 5661 
 8913      7273 5F74 
 8914               	.LASF387:
 8915 0422 5461 736B 	.string"TaskIndex"
 8915      496E 6465 
 8915      7800 
 8916               	.LASF404:
 8917 042c 5265 7375 	.string"Result"
 8917      6C74 00
 8918               	.LASF192:
 8919 0433 4D6F 6475 	.string"ModuleId"
 8919      6C65 4964 
 8919      00
 8920               	.LASF246:
 8921 043c 546C 6D48 	.string"TlmHeader"
 8921      6561 6465 
 8921      7200 
 8922               	.LASF347:
 8923 0446 4346 455F 	.string"CFE_ES_CDSBlockDesc"
 8923      4553 5F43 
 8923      4453 426C 
68K GAS   			page 219


 8923      6F63 6B44 
 8923      6573 6300 
 8924               	.LASF260:
 8925 045a 4465 6275 	.string"DebugVars"
 8925      6756 6172 
 8925      7300 
 8926               	.LASF337:
 8927 0464 5369 7A65 	.string"Size"
 8927      00
 8928               	.LASF131:
 8929 0469 5F75 6E75 	.string"_unused_rand"
 8929      7365 645F 
 8929      7261 6E64 
 8929      00
 8930               	.LASF334:
 8931 0476 4D61 7853 	.string"MaxSize"
 8931      697A 6500 
 8932               	.LASF1:
 8933 047e 7369 676E 	.string"signed char"
 8933      6564 2063 
 8933      6861 7200 
 8934               	.LASF180:
 8935 048a 4F53 5F6D 	.string"OS_module_prop_t"
 8935      6F64 756C 
 8935      655F 7072 
 8935      6F70 5F74 
 8935      00
 8936               	.LASF389:
 8937 049b 5175 6575 	.string"QueueProp"
 8937      6550 726F 
 8937      7000 
 8938               	.LASF178:
 8939 04a5 6669 6C65 	.string"filename"
 8939      6E61 6D65 
 8939      00
 8940               	.LASF15:
 8941 04ae 626F 6F6C 	.string"boolean"
 8941      6561 6E00 
 8942               	.LASF289:
 8943 04b6 4346 455F 	.string"CFE_ES_PerfData_t"
 8943      4553 5F50 
 8943      6572 6644 
 8943      6174 615F 
 8943      7400 
 8944               	.LASF247:
 8945 04c8 5061 796C 	.string"Payload"
 8945      6F61 6400 
 8946               	.LASF443:
 8947 04d0 2F68 6F6D 	.string"/home/simulink/cFS_FreeRTOS_seL4/cfe/fsw/cfe-core/src/es/cfe_es_apps.c"
 8947      652F 7369 
 8947      6D75 6C69 
 8947      6E6B 2F63 
 8947      4653 5F46 
 8948               	.LASF43:
 8949 0517 5F54 6872 	.string"_Thread_queue_Heads"
 8949      6561 645F 
 8949      7175 6575 
68K GAS   			page 220


 8949      655F 4865 
 8949      6164 7300 
 8950               	.LASF419:
 8951 052b 4669 6C65 	.string"FileNameOnly"
 8951      4E61 6D65 
 8951      4F6E 6C79 
 8951      00
 8952               	.LASF214:
 8953 0538 4346 455F 	.string"CFE_ES_STATICENTRYTYPE_MAX"
 8953      4553 5F53 
 8953      5441 5449 
 8953      4345 4E54 
 8953      5259 5459 
 8954               	.LASF0:
 8955 0553 756E 7369 	.string"unsigned char"
 8955      676E 6564 
 8955      2063 6861 
 8955      7200 
 8956               	.LASF203:
 8957 0561 4D61 696E 	.string"MainTaskId"
 8957      5461 736B 
 8957      4964 00
 8958               	.LASF110:
 8959 056c 5F75 6E73 	.string"_unspecified_locale_info"
 8959      7065 6369 
 8959      6669 6564 
 8959      5F6C 6F63 
 8959      616C 655F 
 8960               	.LASF335:
 8961 0585 4346 455F 	.string"CFE_ES_CDSBlockSizeDesc_t"
 8961      4553 5F43 
 8961      4453 426C 
 8961      6F63 6B53 
 8961      697A 6544 
 8962               	.LASF103:
 8963 059f 5F72 6565 	.string"_reent"
 8963      6E74 00
 8964               	.LASF156:
 8965 05a6 5F67 6C6F 	.string"_global_impure_ptr"
 8965      6261 6C5F 
 8965      696D 7075 
 8965      7265 5F70 
 8965      7472 00
 8966               	.LASF444:
 8967 05b9 2F68 6F6D 	.string"/home/simulink/cFS_FreeRTOS_seL4/build/cpu1/cfe/es"
 8967      652F 7369 
 8967      6D75 6C69 
 8967      6E6B 2F63 
 8967      4653 5F46 
 8968               	.LASF198:
 8969 05ec 4253 5341 	.string"BSSAddress"
 8969      6464 7265 
 8969      7373 00
 8970               	.LASF365:
 8971 05f7 436F 756E 	.string"Counter"
 8971      7465 7200 
 8972               	.LASF390:
68K GAS   			page 221


 8973 05ff 5365 6D50 	.string"SemProp"
 8973      726F 7000 
 8974               	.LASF24:
 8975 0607 7661 6C75 	.string"value"
 8975      6500 
 8976               	.LASF38:
 8977 060d 5F54 6872 	.string"_Thread_queue_Queue"
 8977      6561 645F 
 8977      7175 6575 
 8977      655F 5175 
 8977      6575 6500 
 8978               	.LASF16:
 8979 0621 6368 6172 	.string"char"
 8979      00
 8980               	.LASF207:
 8981 0626 4346 455F 	.string"CFE_ES_AppInfo_t"
 8981      4553 5F41 
 8981      7070 496E 
 8981      666F 5F74 
 8981      00
 8982               	.LASF368:
 8983 0637 5368 6172 	.string"SharedDataMutex"
 8983      6564 4461 
 8983      7461 4D75 
 8983      7465 7800 
 8984               	.LASF82:
 8985 0647 5F66 6E73 	.string"_fns"
 8985      00
 8986               	.LASF405:
 8987 064c 4346 455F 	.string"CFE_ES_CleanUpApp"
 8987      4553 5F43 
 8987      6C65 616E 
 8987      5570 4170 
 8987      7000 
 8988               	.LASF94:
 8989 065e 5F63 6C6F 	.string"_close"
 8989      7365 00
 8990               	.LASF348:
 8991 0665 4D65 6D48 	.string"MemHandle"
 8991      616E 646C 
 8991      6500 
 8992               	.LASF426:
 8993 066f 4346 455F 	.string"CFE_ES_ParseFileEntry"
 8993      4553 5F50 
 8993      6172 7365 
 8993      4669 6C65 
 8993      456E 7472 
 8994               	.LASF14:
 8995 0685 6370 7561 	.string"cpuaddr"
 8995      6464 7200 
 8996               	.LASF37:
 8997 068d 5F54 6963 	.string"_Ticket_lock_Control"
 8997      6B65 745F 
 8997      6C6F 636B 
 8997      5F43 6F6E 
 8997      7472 6F6C 
 8998               	.LASF349:
68K GAS   			page 222


 8999 06a2 5461 6B65 	.string"Taken"
 8999      6E00 
 9000               	.LASF169:
 9001 06a8 636F 6465 	.string"code_address"
 9001      5F61 6464 
 9001      7265 7373 
 9001      00
 9002               	.LASF222:
 9003 06b5 5365 636F 	.string"Seconds"
 9003      6E64 7300 
 9004               	.LASF343:
 9005 06bd 4D69 6E42 	.string"MinBlockSize"
 9005      6C6F 636B 
 9005      5369 7A65 
 9005      00
 9006               	.LASF168:
 9007 06ca 666C 6167 	.string"flags"
 9007      7300 
 9008               	.LASF294:
 9009 06d0 4C6F 674F 	.string"LogOverflowCounter"
 9009      7665 7266 
 9009      6C6F 7743 
 9009      6F75 6E74 
 9009      6572 00
 9010               	.LASF299:
 9011 06e3 4552 4C6F 	.string"ERLog"
 9011      6700 
 9012               	.LASF41:
 9013 06e9 5F6F 776E 	.string"_owner"
 9013      6572 00
 9014               	.LASF421:
 9015 06f0 5374 7269 	.string"StringLength"
 9015      6E67 4C65 
 9015      6E67 7468 
 9015      00
 9016               	.LASF412:
 9017 06fd 4346 455F 	.string"CFE_ES_LoadLibrary"
 9017      4553 5F4C 
 9017      6F61 644C 
 9017      6962 7261 
 9017      7279 00
 9018               	.LASF309:
 9019 0710 4556 535F 	.string"EVS_Log"
 9019      4C6F 6700 
 9020               	.LASF434:
 9021 0718 4553 5F41 	.string"ES_AppLoadBuffer"
 9021      7070 4C6F 
 9021      6164 4275 
 9021      6666 6572 
 9021      00
 9022               	.LASF300:
 9023 0729 4552 4C6F 	.string"ERLogIndex"
 9023      6749 6E64 
 9023      6578 00
 9024               	.LASF429:
 9025 0734 556E 7573 	.string"Unused"
 9025      6564 00
68K GAS   			page 223


 9026               	.LASF287:
 9027 073b 4D65 7461 	.string"MetaData"
 9027      4461 7461 
 9027      00
 9028               	.LASF364:
 9029 0744 4346 455F 	.string"CFE_ES_PerfLogDumpStatus"
 9029      4553 5F50 
 9029      6572 664C 
 9029      6F67 4475 
 9029      6D70 5374 
 9030               	.LASF392:
 9031 075d 4D75 7450 	.string"MutProp"
 9031      726F 7000 
 9032               	.LASF314:
 9033 0765 4346 455F 	.string"CFE_ES_AppState_t"
 9033      4553 5F41 
 9033      7070 5374 
 9033      6174 655F 
 9033      7400 
 9034               	.LASF353:
 9035 0777 4344 5353 	.string"CDSSize"
 9035      697A 6500 
 9036               	.LASF436:
 9037 077f 4170 7046 	.string"AppFile"
 9037      696C 6500 
 9038               	.LASF355:
 9039 0787 4D61 784E 	.string"MaxNumRegEntries"
 9039      756D 5265 
 9039      6745 6E74 
 9039      7269 6573 
 9039      00
 9040               	.LASF252:
 9041 0798 4C61 7374 	.string"LastAppId"
 9041      4170 7049 
 9041      6400 
 9042               	.LASF292:
 9043 07a2 4C6F 6746 	.string"LogFullFlag"
 9043      756C 6C46 
 9043      6C61 6700 
 9044               	.LASF209:
 9045 07ae 4346 455F 	.string"CFE_ES_LibraryEntryFuncPtr_t"
 9045      4553 5F4C 
 9045      6962 7261 
 9045      7279 456E 
 9045      7472 7946 
 9046               	.LASF161:
 9047 07cb 5F74 7A6E 	.string"_tzname"
 9047      616D 6500 
 9048               	.LASF338:
 9049 07d3 4375 7272 	.string"Current"
 9049      656E 7400 
 9050               	.LASF49:
 9051 07db 5F6E 6573 	.string"_nest_level"
 9051      745F 6C65 
 9051      7665 6C00 
 9052               	.LASF423:
 9053 07e7 4346 455F 	.string"CFE_ES_AppCreate"
68K GAS   			page 224


 9053      4553 5F41 
 9053      7070 4372 
 9053      6561 7465 
 9053      00
 9054               	.LASF227:
 9055 07f8 436C 6F63 	.string"ClockSignal"
 9055      6B53 6967 
 9055      6E61 6C00 
 9056               	.LASF302:
 9057 0804 5379 7374 	.string"SystemLog"
 9057      656D 4C6F 
 9057      6700 
 9058               	.LASF90:
 9059 080e 5F63 6F6F 	.string"_cookie"
 9059      6B69 6500 
 9060               	.LASF191:
 9061 0816 5374 6163 	.string"StackSize"
 9061      6B53 697A 
 9061      6500 
 9062               	.LASF64:
 9063 0820 5F77 6473 	.string"_wds"
 9063      00
 9064               	.LASF121:
 9065 0825 5F73 6967 	.string"_sig_func"
 9065      5F66 756E 
 9065      6300 
 9066               	.LASF340:
 9067 082f 4368 6563 	.string"CheckErrCntr"
 9067      6B45 7272 
 9067      436E 7472 
 9067      00
 9068               	.LASF98:
 9069 083c 5F6F 6666 	.string"_offset"
 9069      7365 7400 
 9070               	.LASF119:
 9071 0844 5F63 7674 	.string"_cvtbuf"
 9071      6275 6600 
 9072               	.LASF286:
 9073 084c 4346 455F 	.string"CFE_ES_PerfMetaData_t"
 9073      4553 5F50 
 9073      6572 664D 
 9073      6574 6144 
 9073      6174 615F 
 9074               	.LASF339:
 9075 0862 5369 7A65 	.string"SizeIndex"
 9075      496E 6465 
 9075      7800 
 9076               	.LASF190:
 9077 086c 4669 6C65 	.string"FileName"
 9077      4E61 6D65 
 9077      00
 9078               	.LASF34:
 9079 0875 5F6E 6578 	.string"_next_ticket"
 9079      745F 7469 
 9079      636B 6574 
 9079      00
 9080               	.LASF354:
68K GAS   			page 225


 9081 0882 4D65 6D50 	.string"MemPoolSize"
 9081      6F6F 6C53 
 9081      697A 6500 
 9082               	.LASF397:
 9083 088e 4E75 6D51 	.string"NumQueues"
 9083      7565 7565 
 9083      7300 
 9084               	.LASF383:
 9085 0898 4346 455F 	.string"CFE_ES_ResetDataPtr"
 9085      4553 5F52 
 9085      6573 6574 
 9085      4461 7461 
 9085      5074 7200 
 9086               	.LASF304:
 9087 08ac 5379 7374 	.string"SystemLogMode"
 9087      656D 4C6F 
 9087      674D 6F64 
 9087      6500 
 9088               	.LASF328:
 9089 08ba 4368 6563 	.string"CheckBits"
 9089      6B42 6974 
 9089      7300 
 9090               	.LASF116:
 9091 08c4 5F70 3573 	.string"_p5s"
 9091      00
 9092               	.LASF12:
 9093 08c9 6C6F 6E67 	.string"long unsigned int"
 9093      2075 6E73 
 9093      6967 6E65 
 9093      6420 696E 
 9093      7400 
 9094               	.LASF22:
 9095 08db 4F53 5F74 	.string"OS_task_prop_t"
 9095      6173 6B5F 
 9095      7072 6F70 
 9095      5F74 00
 9096               	.LASF408:
 9097 08ea 4346 455F 	.string"CFE_ES_ProcessControlRequest"
 9097      4553 5F50 
 9097      726F 6365 
 9097      7373 436F 
 9097      6E74 726F 
 9098               	.LASF268:
 9099 0907 5469 6D65 	.string"TimerUpper32"
 9099      7255 7070 
 9099      6572 3332 
 9099      00
 9100               	.LASF216:
 9101 0914 4170 7045 	.string"AppEntryFunc"
 9101      6E74 7279 
 9101      4675 6E63 
 9101      00
 9102               	.LASF186:
 9103 0921 4170 7049 	.string"AppId"
 9103      6400 
 9104               	.LASF86:
 9105 0927 5F5F 7346 	.string"__sFILE"
68K GAS   			page 226


 9105      494C 4500 
 9106               	.LASF112:
 9107 092f 5F5F 7364 	.string"__sdidinit"
 9107      6964 696E 
 9107      6974 00
 9108               	.LASF102:
 9109 093a 5F66 6C61 	.string"_flags2"
 9109      6773 3200 
 9110               	.LASF259:
 9111 0942 4D61 7850 	.string"MaxProcessorResetCount"
 9111      726F 6365 
 9111      7373 6F72 
 9111      5265 7365 
 9111      7443 6F75 
 9112               	.LASF185:
 9113 0959 4F53 5F74 	.string"OS_timer_prop_t"
 9113      696D 6572 
 9113      5F70 726F 
 9113      705F 7400 
 9114               	.LASF431:
 9115 0969 4372 6561 	.string"CreateStatus"
 9115      7465 5374 
 9115      6174 7573 
 9115      00
 9116               	.LASF420:
 9117 0976 5261 6D44 	.string"RamDiskPath"
 9117      6973 6B50 
 9117      6174 6800 
 9118               	.LASF251:
 9119 0982 5072 696E 	.string"PrintfEnabledFlag"
 9119      7466 456E 
 9119      6162 6C65 
 9119      6446 6C61 
 9119      6700 
 9120               	.LASF50:
 9121 0994 5F4C 4F43 	.string"_LOCK_RECURSIVE_T"
 9121      4B5F 5245 
 9121      4355 5253 
 9121      4956 455F 
 9121      5400 
 9122               	.LASF291:
 9123 09a6 4C6F 6743 	.string"LogCount"
 9123      6F75 6E74 
 9123      00
 9124               	.LASF369:
 9125 09af 4170 7053 	.string"AppStartedCount"
 9125      7461 7274 
 9125      6564 436F 
 9125      756E 7400 
 9126               	.LASF104:
 9127 09bf 5F65 7272 	.string"_errno"
 9127      6E6F 00
 9128               	.LASF230:
 9129 09c6 4375 7272 	.string"CurrentDelay"
 9129      656E 7444 
 9129      656C 6179 
 9129      00
68K GAS   			page 227


 9130               	.LASF439:
 9131 09d3 4669 6C65 	.string"FileOpened"
 9131      4F70 656E 
 9131      6564 00
 9132               	.LASF213:
 9133 09de 4346 455F 	.string"CFE_ES_STATICENTRYTYPE_LIBRARY"
 9133      4553 5F53 
 9133      5441 5449 
 9133      4345 4E54 
 9133      5259 5459 
 9134               	.LASF142:
 9135 09fd 5F73 6967 	.string"_signal_buf"
 9135      6E61 6C5F 
 9135      6275 6600 
 9136               	.LASF170:
 9137 0a09 636F 6465 	.string"code_size"
 9137      5F73 697A 
 9137      6500 
 9138               	.LASF172:
 9139 0a13 6461 7461 	.string"data_size"
 9139      5F73 697A 
 9139      6500 
 9140               	.LASF242:
 9141 0a1d 4D65 7373 	.string"Message"
 9141      6167 6500 
 9142               	.LASF60:
 9143 0a25 5F42 6967 	.string"_Bigint"
 9143      696E 7400 
 9144               	.LASF62:
 9145 0a2d 5F6D 6178 	.string"_maxwds"
 9145      7764 7300 
 9146               	.LASF445:
 9147 0a35 4F53 5F43 	.string"OS_ConvertToArrayIndex"
 9147      6F6E 7665 
 9147      7274 546F 
 9147      4172 7261 
 9147      7949 6E64 
 9148               	.LASF113:
 9149 0a4c 5F5F 636C 	.string"__cleanup"
 9149      6561 6E75 
 9149      7000 
 9150               	.LASF197:
 9151 0a56 4461 7461 	.string"DataSize"
 9151      5369 7A65 
 9151      00
 9152               	.LASF293:
 9153 0a5f 4C6F 674D 	.string"LogMode"
 9153      6F64 6500 
 9154               	.LASF403:
 9155 0a67 5374 6174 	.string"Status"
 9155      7573 00
 9156               	.LASF226:
 9157 0a6e 4C65 6170 	.string"LeapSeconds"
 9157      5365 636F 
 9157      6E64 7300 
 9158               	.LASF241:
 9159 0a7a 5061 636B 	.string"PacketID"
68K GAS   			page 228


 9159      6574 4944 
 9159      00
 9160               	.LASF327:
 9161 0a83 4346 455F 	.string"CFE_ES_CDSBlockHandle_t"
 9161      4553 5F43 
 9161      4453 426C 
 9161      6F63 6B48 
 9161      616E 646C 
 9162               	.LASF361:
 9163 0a9b 4461 7461 	.string"DataFileName"
 9163      4669 6C65 
 9163      4E61 6D65 
 9163      00
 9164               	.LASF189:
 9165 0aa8 456E 7472 	.string"EntryPoint"
 9165      7950 6F69 
 9165      6E74 00
 9166               	.LASF109:
 9167 0ab3 5F65 6D65 	.string"_emergency"
 9167      7267 656E 
 9167      6379 00
 9168               	.LASF248:
 9169 0abe 4346 455F 	.string"CFE_EVS_Packet_t"
 9169      4556 535F 
 9169      5061 636B 
 9169      6574 5F74 
 9169      00
 9170               	.LASF7:
 9171 0acf 6C6F 6E67 	.string"long long int"
 9171      206C 6F6E 
 9171      6720 696E 
 9171      7400 
 9172               	.LASF271:
 9173 0add 5665 7273 	.string"Version"
 9173      696F 6E00 
 9174               	.LASF125:
 9175 0ae5 5F6E 696F 	.string"_niobs"
 9175      6273 00
 9176               	.LASF301:
 9177 0aec 4552 4C6F 	.string"ERLogEntries"
 9177      6745 6E74 
 9177      7269 6573 
 9177      00
 9178               	.LASF122:
 9179 0af9 5F5F 7367 	.string"__sglue"
 9179      6C75 6500 
 9180               	.LASF275:
 9181 0b01 5469 6D65 	.string"TimerLow32Rollover"
 9181      724C 6F77 
 9181      3332 526F 
 9181      6C6C 6F76 
 9181      6572 00
 9182               	.LASF151:
 9183 0b14 5F6E 6D61 	.string"_nmalloc"
 9183      6C6C 6F63 
 9183      00
 9184               	.LASF379:
68K GAS   			page 229


 9185 0b1d 436F 756E 	.string"CounterTable"
 9185      7465 7254 
 9185      6162 6C65 
 9185      00
 9186               	.LASF135:
 9187 0b2a 5F67 616D 	.string"_gamma_signgam"
 9187      6D61 5F73 
 9187      6967 6E67 
 9187      616D 00
 9188               	.LASF395:
 9189 0b39 4E75 6D43 	.string"NumCountSems"
 9189      6F75 6E74 
 9189      5365 6D73 
 9189      00
 9190               	.LASF204:
 9191 0b46 4578 6563 	.string"ExecutionCounter"
 9191      7574 696F 
 9191      6E43 6F75 
 9191      6E74 6572 
 9191      00
 9192               	.LASF117:
 9193 0b57 5F66 7265 	.string"_freelist"
 9193      656C 6973 
 9193      7400 
 9194               	.LASF370:
 9195 0b61 4170 7052 	.string"AppReadyCount"
 9195      6561 6479 
 9195      436F 756E 
 9195      7400 
 9196               	.LASF126:
 9197 0b6f 5F69 6F62 	.string"_iobs"
 9197      7300 
 9198               	.LASF124:
 9199 0b75 5F67 6C75 	.string"_glue"
 9199      6500 
 9200               	.LASF63:
 9201 0b7b 5F73 6967 	.string"_sign"
 9201      6E00 
 9202               	.LASF21:
 9203 0b81 4F53 7461 	.string"OStask_id"
 9203      736B 5F69 
 9203      6400 
 9204               	.LASF329:
 9205 0b8b 416C 6C6F 	.string"AllocatedFlag"
 9205      6361 7465 
 9205      6446 6C61 
 9205      6700 
 9206               	.LASF164:
 9207 0b99 5573 6572 	.string"User"
 9207      00
 9208               	.LASF357:
 9209 0b9e 5661 6C69 	.string"ValidityField"
 9209      6469 7479 
 9209      4669 656C 
 9209      6400 
 9210               	.LASF179:
 9211 0bac 6164 6472 	.string"addr"
68K GAS   			page 230


 9211      00
 9212               	.LASF375:
 9213 0bb1 5265 6769 	.string"RegisteredExternalApps"
 9213      7374 6572 
 9213      6564 4578 
 9213      7465 726E 
 9213      616C 4170 
 9214               	.LASF351:
 9215 0bc8 4346 455F 	.string"CFE_ES_CDS_RegRec_t"
 9215      4553 5F43 
 9215      4453 5F52 
 9215      6567 5265 
 9215      635F 7400 
 9216               	.LASF25:
 9217 0bdc 4F53 5F62 	.string"OS_bin_sem_prop_t"
 9217      696E 5F73 
 9217      656D 5F70 
 9217      726F 705F 
 9217      7400 
 9218               	.LASF295:
 9219 0bee 4C6F 6745 	.string"LogEntry"
 9219      6E74 7279 
 9219      00
 9220               	.LASF36:
 9221 0bf7 756E 7369 	.string"unsigned int"
 9221      676E 6564 
 9221      2069 6E74 
 9221      00
 9222               	.LASF159:
 9223 0c04 5F74 696D 	.string"_timezone"
 9223      657A 6F6E 
 9223      6500 
 9224               	.LASF257:
 9225 0c0e 426F 6F74 	.string"BootSource"
 9225      536F 7572 
 9225      6365 00
 9226               	.LASF149:
 9227 0c19 5F68 5F65 	.string"_h_errno"
 9227      7272 6E6F 
 9227      00
 9228               	.LASF323:
 9229 0c22 5461 736B 	.string"TaskName"
 9229      4E61 6D65 
 9229      00
 9230               	.LASF183:
 9231 0c2b 696E 7465 	.string"interval_time"
 9231      7276 616C 
 9231      5F74 696D 
 9231      6500 
 9232               	.LASF306:
 9233 0c39 5065 7266 	.string"Perf"
 9233      00
 9234               	.LASF298:
 9235 0c3e 4346 455F 	.string"CFE_ES_ResetVariables_t"
 9235      4553 5F52 
 9235      6573 6574 
 9235      5661 7269 
68K GAS   			page 231


 9235      6162 6C65 
 9236               	.LASF211:
 9237 0c56 4346 455F 	.string"CFE_ES_STATICENTRYTYPE_FIRST_VALID"
 9237      4553 5F53 
 9237      5441 5449 
 9237      4345 4E54 
 9237      5259 5459 
 9238               	.LASF147:
 9239 0c79 5F77 6372 	.string"_wcrtomb_state"
 9239      746F 6D62 
 9239      5F73 7461 
 9239      7465 00
 9240               	.LASF386:
 9241 0c88 4D6F 6475 	.string"ModuleInfo"
 9241      6C65 496E 
 9241      666F 00
 9242               	.LASF417:
 9243 0c93 4675 6E63 	.string"FunctionPointer"
 9243      7469 6F6E 
 9243      506F 696E 
 9243      7465 7200 
 9244               	.LASF69:
 9245 0ca3 5F5F 746D 	.string"__tm_mday"
 9245      5F6D 6461 
 9245      7900 
 9246               	.LASF437:
 9247 0cad 5265 6164 	.string"ReadStatus"
 9247      5374 6174 
 9247      7573 00
 9248               	.LASF19:
 9249 0cb8 7374 6163 	.string"stack_size"
 9249      6B5F 7369 
 9249      7A65 00
 9250               	.LASF120:
 9251 0cc3 5F6E 6577 	.string"_new"
 9251      00
 9252               	.LASF42:
 9253 0cc8 5F6E 616D 	.string"_name"
 9253      6500 
 9254               	.LASF95:
 9255 0cce 5F75 6275 	.string"_ubuf"
 9255      6600 
 9256               	.LASF232:
 9257 0cd4 5265 6C69 	.string"Reliability"
 9257      6162 696C 
 9257      6974 7900 
 9258               	.LASF107:
 9259 0ce0 5F73 7464 	.string"_stderr"
 9259      6572 7200 
 9260               	.LASF140:
 9261 0ce8 5F77 6374 	.string"_wctomb_state"
 9261      6F6D 625F 
 9261      7374 6174 
 9261      6500 
 9262               	.LASF101:
 9263 0cf6 5F6D 6273 	.string"_mbstate"
 9263      7461 7465 
68K GAS   			page 232


 9263      00
 9264               	.LASF402:
 9265 0cff 5469 6D65 	.string"TimerProp"
 9265      7250 726F 
 9265      7000 
 9266               	.LASF136:
 9267 0d09 5F72 616E 	.string"_rand_next"
 9267      645F 6E65 
 9267      7874 00
 9268               	.LASF87:
 9269 0d14 5F66 6C61 	.string"_flags"
 9269      6773 00
 9270               	.LASF187:
 9271 0d1b 5479 7065 	.string"Type"
 9271      00
 9272               	.LASF371:
 9273 0d20 5379 7374 	.string"SystemState"
 9273      656D 5374 
 9273      6174 6500 
 9274               	.LASF80:
 9275 0d2c 5F61 7465 	.string"_atexit"
 9275      7869 7400 
 9276               	.LASF26:
 9277 0d34 4F53 5F63 	.string"OS_count_sem_prop_t"
 9277      6F75 6E74 
 9277      5F73 656D 
 9277      5F70 726F 
 9277      705F 7400 
 9278               	.LASF223:
 9279 0d48 5375 6273 	.string"Subseconds"
 9279      6563 6F6E 
 9279      6473 00
 9280               	.LASF193:
 9281 0d53 4164 6472 	.string"AddressesAreValid"
 9281      6573 7365 
 9281      7341 7265 
 9281      5661 6C69 
 9281      6400 
 9282               	.LASF174:
 9283 0d65 6273 735F 	.string"bss_size"
 9283      7369 7A65 
 9283      00
 9284               	.LASF407:
 9285 0d6e 4346 455F 	.string"CFE_ES_GetAppInfoInternal"
 9285      4553 5F47 
 9285      6574 4170 
 9285      7049 6E66 
 9285      6F49 6E74 
 9286               	.LASF55:
 9287 0d88 5F5F 636F 	.string"__count"
 9287      756E 7400 
 9288               	.LASF273:
 9289 0d90 5370 6172 	.string"Spare"
 9289      6500 
 9290               	.LASF208:
 9291 0d96 4346 455F 	.string"CFE_ES_ChildTaskMainFuncPtr_t"
 9291      4553 5F43 
68K GAS   			page 233


 9291      6869 6C64 
 9291      5461 736B 
 9291      4D61 696E 
 9292               	.LASF333:
 9293 0db4 4E75 6D43 	.string"NumCreated"
 9293      7265 6174 
 9293      6564 00
 9294               	.LASF188:
 9295 0dbf 4E61 6D65 	.string"Name"
 9295      00
 9296               	.LASF72:
 9297 0dc4 5F5F 746D 	.string"__tm_wday"
 9297      5F77 6461 
 9297      7900 
 9298               	.LASF394:
 9299 0dce 4E75 6D53 	.string"NumSemaphores"
 9299      656D 6170 
 9299      686F 7265 
 9299      7300 
 9300               	.LASF31:
 9301 0ddc 6C6F 6E67 	.string"long double"
 9301      2064 6F75 
 9301      626C 6500 
 9302               	.LASF220:
 9303 0de8 5074 7273 	.string"Ptrs"
 9303      00
 9304               	.LASF73:
 9305 0ded 5F5F 746D 	.string"__tm_yday"
 9305      5F79 6461 
 9305      7900 
 9306               	.LASF324:
 9307 0df7 4346 455F 	.string"CFE_ES_TaskRecord_t"
 9307      4553 5F54 
 9307      6173 6B52 
 9307      6563 6F72 
 9307      645F 7400 
 9308               	.LASF409:
 9309 0e0b 4170 7053 	.string"AppStartParams"
 9309      7461 7274 
 9309      5061 7261 
 9309      6D73 00
 9310               	.LASF432:
 9311 0e1a 4346 455F 	.string"CFE_ES_StartApplications"
 9311      4553 5F53 
 9311      7461 7274 
 9311      4170 706C 
 9311      6963 6174 
 9312               	.LASF336:
 9313 0e33 5374 6172 	.string"Start"
 9313      7400 
 9314               	.LASF27:
 9315 0e39 4F53 5F6D 	.string"OS_mut_sem_prop_t"
 9315      7574 5F73 
 9315      656D 5F70 
 9315      726F 705F 
 9315      7400 
 9316               	.LASF47:
68K GAS   			page 234


 9317 0e4b 5F4D 7574 	.string"_Mutex_recursive_Control"
 9317      6578 5F72 
 9317      6563 7572 
 9317      7369 7665 
 9317      5F43 6F6E 
 9318               	.LASF28:
 9319 0e64 6F73 616C 	.string"osal_task_entry"
 9319      5F74 6173 
 9319      6B5F 656E 
 9319      7472 7900 
 9320               	.LASF277:
 9321 0e74 4D6F 6465 	.string"Mode"
 9321      00
 9322               	.LASF40:
 9323 0e79 5F68 6561 	.string"_heads"
 9323      6473 00
 9324               	.LASF128:
 9325 0e80 5F73 6565 	.string"_seed"
 9325      6400 
 9326               	.LASF425:
 9327 0e86 4170 7053 	.string"AppSlotFound"
 9327      6C6F 7446 
 9327      6F75 6E64 
 9327      00
 9328               	.LASF46:
 9329 0e93 5F51 7565 	.string"_Queue"
 9329      7565 00
 9330               	.LASF297:
 9331 0e9a 4553 5F43 	.string"ES_CausedReset"
 9331      6175 7365 
 9331      6452 6573 
 9331      6574 00
 9332               	.LASF33:
 9333 0ea9 5F66 706F 	.string"_fpos_t"
 9333      735F 7400 
 9334               	.LASF382:
 9335 0eb1 4346 455F 	.string"CFE_ES_Global"
 9335      4553 5F47 
 9335      6C6F 6261 
 9335      6C00 
 9336               	.LASF54:
 9337 0ebf 5F5F 7763 	.string"__wchb"
 9337      6862 00
 9338               	.LASF139:
 9339 0ec6 5F6D 6274 	.string"_mbtowc_state"
 9339      6F77 635F 
 9339      7374 6174 
 9339      6500 
 9340               	.LASF366:
 9341 0ed4 436F 756E 	.string"CounterName"
 9341      7465 724E 
 9341      616D 6500 
 9342               	.LASF13:
 9343 0ee0 6C6F 6E67 	.string"long long unsigned int"
 9343      206C 6F6E 
 9343      6720 756E 
 9343      7369 676E 
68K GAS   			page 235


 9343      6564 2069 
 9344               	.LASF319:
 9345 0ef7 5374 6174 	.string"StateRecord"
 9345      6552 6563 
 9345      6F72 6400 
 9346               	.LASF362:
 9347 0f03 4461 7461 	.string"DataFileDescriptor"
 9347      4669 6C65 
 9347      4465 7363 
 9347      7269 7074 
 9347      6F72 00
 9348               	.LASF199:
 9349 0f16 4253 5353 	.string"BSSSize"
 9349      697A 6500 
 9350               	.LASF77:
 9351 0f1e 5F64 736F 	.string"_dso_handle"
 9351      5F68 616E 
 9351      646C 6500 
 9352               	.LASF127:
 9353 0f2a 5F72 616E 	.string"_rand48"
 9353      6434 3800 
 9354               	.LASF428:
 9355 0f32 5363 616E 	.string"ScanfStatus"
 9355      6653 7461 
 9355      7475 7300 
 9356               	.LASF106:
 9357 0f3e 5F73 7464 	.string"_stdout"
 9357      6F75 7400 
 9358               	.LASF276:
 9359 0f46 5374 6174 	.string"State"
 9359      6500 
 9360               	.LASF217:
 9361 0f4c 4C69 6249 	.string"LibInitFunc"
 9361      6E69 7446 
 9361      756E 6300 
 9362               	.LASF97:
 9363 0f58 5F62 6C6B 	.string"_blksize"
 9363      7369 7A65 
 9363      00
 9364               	.LASF315:
 9365 0f61 4346 455F 	.string"CFE_ES_AppStartParams_t"
 9365      4553 5F41 
 9365      7070 5374 
 9365      6172 7450 
 9365      6172 616D 
 9366               	.LASF269:
 9367 0f79 5469 6D65 	.string"TimerLower32"
 9367      724C 6F77 
 9367      6572 3332 
 9367      00
 9368               	.LASF84:
 9369 0f86 5F62 6173 	.string"_base"
 9369      6500 
 9370               	.LASF281:
 9371 0f8c 4461 7461 	.string"DataCount"
 9371      436F 756E 
 9371      7400 
68K GAS   			page 236


 9372               	.LASF132:
 9373 0f96 5F73 7472 	.string"_strtok_last"
 9373      746F 6B5F 
 9373      6C61 7374 
 9373      00
 9374               	.LASF352:
 9375 0fa3 5265 6769 	.string"RegistryMutex"
 9375      7374 7279 
 9375      4D75 7465 
 9375      7800 
 9376               	.LASF373:
 9377 0fb1 5461 736B 	.string"TaskTable"
 9377      5461 626C 
 9377      6500 
 9378               	.LASF145:
 9379 0fbb 5F6D 6272 	.string"_mbrtowc_state"
 9379      746F 7763 
 9379      5F73 7461 
 9379      7465 00
 9380               	.LASF284:
 9381 0fca 4669 6C74 	.string"FilterMask"
 9381      6572 4D61 
 9381      736B 00
 9382               	.LASF255:
 9383 0fd5 5265 7365 	.string"ResetType"
 9383      7454 7970 
 9383      6500 
 9384               	.LASF317:
 9385 0fdf 5265 636F 	.string"RecordUsed"
 9385      7264 5573 
 9385      6564 00
 9386               	.LASF228:
 9387 0fea 4375 7272 	.string"CurrentMET"
 9387      656E 744D 
 9387      4554 00
 9388               	.LASF58:
 9389 0ff5 5F66 6C6F 	.string"_flock_t"
 9389      636B 5F74 
 9389      00
 9390               	.LASF210:
 9391 0ffe 4346 455F 	.string"CFE_ES_STATICENTRYTYPE_INVALID"
 9391      4553 5F53 
 9391      5441 5449 
 9391      4345 4E54 
 9391      5259 5459 
 9392               	.LASF123:
 9393 101d 5F5F 4649 	.string"__FILE"
 9393      4C45 00
 9394               	.LASF345:
 9395 1024 4346 455F 	.string"CFE_ES_CDSPool_t"
 9395      4553 5F43 
 9395      4453 506F 
 9395      6F6C 5F74 
 9395      00
 9396               	.LASF100:
 9397 1035 5F6C 6F63 	.string"_lock"
 9397      6B00 
68K GAS   			page 237


 9398               	.LASF399:
 9399 103b 4E75 6D46 	.string"NumFiles"
 9399      696C 6573 
 9399      00
 9400               	.LASF381:
 9401 1044 4346 455F 	.string"CFE_ES_Global_t"
 9401      4553 5F47 
 9401      6C6F 6261 
 9401      6C5F 7400 
 9402               	.LASF57:
 9403 1054 5F6D 6273 	.string"_mbstate_t"
 9403      7461 7465 
 9403      5F74 00
 9404               	.LASF137:
 9405 105f 5F72 3438 	.string"_r48"
 9405      00
 9406               	.LASF52:
 9407 1064 7769 6E74 	.string"wint_t"
 9407      5F74 00
 9408               	.LASF2:
 9409 106b 6F73 616C 	.string"osalbool"
 9409      626F 6F6C 
 9409      00
 9410               	.LASF61:
 9411 1074 5F6E 6578 	.string"_next"
 9411      7400 
 9412               	.LASF427:
 9413 107a 4669 6C65 	.string"FileEntry"
 9413      456E 7472 
 9413      7900 
 9414               	.LASF435:
 9415 1084 4275 6666 	.string"BuffLen"
 9415      4C65 6E00 
 9416               	.LASF99:
 9417 108c 5F64 6174 	.string"_data"
 9417      6100 
 9418               	.LASF422:
 9419 1092 5374 6174 	.string"StaticEntryPtr"
 9419      6963 456E 
 9419      7472 7950 
 9419      7472 00
 9420               	.LASF249:
 9421 10a1 4465 6275 	.string"DebugFlag"
 9421      6746 6C61 
 9421      6700 
 9422               	.LASF256:
 9423 10ab 5265 7365 	.string"ResetSubtype"
 9423      7453 7562 
 9423      7479 7065 
 9423      00
 9424               	.LASF195:
 9425 10b8 436F 6465 	.string"CodeSize"
 9425      5369 7A65 
 9425      00
 9426               	.LASF401:
 9427 10c1 4346 455F 	.string"CFE_ES_CleanupTaskResources"
 9427      4553 5F43 
68K GAS   			page 238


 9427      6C65 616E 
 9427      7570 5461 
 9427      736B 5265 
 9428               	.LASF374:
 9429 10dd 5265 6769 	.string"RegisteredCoreApps"
 9429      7374 6572 
 9429      6564 436F 
 9429      7265 4170 
 9429      7073 00
 9430               	.LASF234:
 9431 10f0 4346 455F 	.string"CFE_SB_Default_Qos"
 9431      5342 5F44 
 9431      6566 6175 
 9431      6C74 5F51 
 9431      6F73 00
 9432               	.LASF278:
 9433 1103 5472 6967 	.string"TriggerCount"
 9433      6765 7243 
 9433      6F75 6E74 
 9433      00
 9434               	.LASF313:
 9435 1110 4170 7054 	.string"AppTimer"
 9435      696D 6572 
 9435      00
 9436               	.LASF378:
 9437 1119 4C69 6254 	.string"LibTable"
 9437      6162 6C65 
 9437      00
 9438               	.LASF311:
 9439 1122 4170 7043 	.string"AppControlRequest"
 9439      6F6E 7472 
 9439      6F6C 5265 
 9439      7175 6573 
 9439      7400 
 9440               	.LASF225:
 9441 1134 5369 676E 	.string"Signature"
 9441      6174 7572 
 9441      6500 
 9442               	.LASF165:
 9443 113e 4973 5661 	.string"IsValid"
 9443      6C69 6400 
 9444               	.LASF303:
 9445 1146 5379 7374 	.string"SystemLogIndex"
 9445      656D 4C6F 
 9445      6749 6E64 
 9445      6578 00
 9446               	.LASF331:
 9447 1155 4163 7475 	.string"ActualSize"
 9447      616C 5369 
 9447      7A65 00
 9448               	.LASF48:
 9449 1160 5F4D 7574 	.string"_Mutex"
 9449      6578 00
 9450               	.LASF312:
 9451 1167 4170 7053 	.string"AppState"
 9451      7461 7465 
 9451      00
68K GAS   			page 239


 9452               	.LASF440:
 9453 1170 4F62 6A65 	.string"ObjectId"
 9453      6374 4964 
 9453      00
 9454               	.LASF400:
 9455 1179 4346 455F 	.string"CFE_ES_ListResourcesDebug"
 9455      4553 5F4C 
 9455      6973 7452 
 9455      6573 6F75 
 9455      7263 6573 
 9456               	.LASF280:
 9457 1193 4461 7461 	.string"DataEnd"
 9457      456E 6400 
 9458               	.LASF359:
 9459 119b 4461 7461 	.string"DataToWrite"
 9459      546F 5772 
 9459      6974 6500 
 9460               	.LASF258:
 9461 11a7 5072 6F63 	.string"ProcessorResetCount"
 9461      6573 736F 
 9461      7252 6573 
 9461      6574 436F 
 9461      756E 7400 
 9462               	.LASF17:
 9463 11bb 6E61 6D65 	.string"name"
 9463      00
 9464               	.LASF8:
 9465 11c0 7569 6E74 	.string"uint8"
 9465      3800 
 9466               	.LASF321:
 9467 11c6 4346 455F 	.string"CFE_ES_AppRecord_t"
 9467      4553 5F41 
 9467      7070 5265 
 9467      636F 7264 
 9467      5F74 00
 9468               	.LASF332:
 9469 11d9 4346 455F 	.string"CFE_ES_CDSBlockDesc_t"
 9469      4553 5F43 
 9469      4453 426C 
 9469      6F63 6B44 
 9469      6573 635F 
 9470               	.LASF219:
 9471 11ef 456E 7472 	.string"EntryType"
 9471      7954 7970 
 9471      6500 
 9472               	.LASF235:
 9473 11f9 4170 704E 	.string"AppName"
 9473      616D 6500 
 9474               	.LASF290:
 9475 1201 4E65 7874 	.string"Next"
 9475      00
 9476               	.LASF267:
 9477 1206 4461 7461 	.string"Data"
 9477      00
 9478               	.LASF138:
 9479 120b 5F6D 626C 	.string"_mblen_state"
 9479      656E 5F73 
68K GAS   			page 240


 9479      7461 7465 
 9479      00
 9480               	.LASF316:
 9481 1218 4346 455F 	.string"CFE_ES_MainTaskInfo_t"
 9481      4553 5F4D 
 9481      6169 6E54 
 9481      6173 6B49 
 9481      6E66 6F5F 
 9482               	.LASF4:
 9483 122e 7368 6F72 	.string"short int"
 9483      7420 696E 
 9483      7400 
 9484               	.LASF237:
 9485 1238 4576 656E 	.string"EventType"
 9485      7454 7970 
 9485      6500 
 9486               	.LASF356:
 9487 1242 5265 6769 	.string"Registry"
 9487      7374 7279 
 9487      00
 9488               	.LASF20:
 9489 124b 7072 696F 	.string"priority"
 9489      7269 7479 
 9489      00
 9490               	.LASF158:
 9491 1254 7375 626F 	.string"suboptarg"
 9491      7074 6172 
 9491      6700 
 9492               	.LASF181:
 9493 125e 4F53 5F6D 	.string"OS_module_record_t"
 9493      6F64 756C 
 9493      655F 7265 
 9493      636F 7264 
 9493      5F74 00
 9494               	.LASF78:
 9495 1271 5F66 6E74 	.string"_fntypes"
 9495      7970 6573 
 9495      00
 9496               	.LASF71:
 9497 127a 5F5F 746D 	.string"__tm_year"
 9497      5F79 6561 
 9497      7200 
 9498               	.LASF346:
 9499 1284 4346 455F 	.string"CFE_ES_CDSMemPool"
 9499      4553 5F43 
 9499      4453 4D65 
 9499      6D50 6F6F 
 9499      6C00 
 9500               	.LASF236:
 9501 1296 4576 656E 	.string"EventID"
 9501      7449 4400 
 9502               	.LASF341:
 9503 129e 5265 7175 	.string"RequestCntr"
 9503      6573 7443 
 9503      6E74 7200 
 9504               	.LASF391:
 9505 12aa 436F 756E 	.string"CountSemProp"
68K GAS   			page 241


 9505      7453 656D 
 9505      5072 6F70 
 9505      00
 9506               	.LASF167:
 9507 12b7 7661 6C69 	.string"valid"
 9507      6400 
 9508               	.LASF89:
 9509 12bd 5F6C 6266 	.string"_lbfsize"
 9509      7369 7A65 
 9509      00
 9510               	.LASF108:
 9511 12c6 5F69 6E63 	.string"_inc"
 9511      00
 9512               	.LASF81:
 9513 12cb 5F69 6E64 	.string"_ind"
 9513      00
 9514               	.LASF322:
 9515 12d0 5461 736B 	.string"TaskId"
 9515      4964 00
 9516               	.LASF29:
 9517 12d7 5F5F 696E 	.string"__int64_t"
 9517      7436 345F 
 9517      7400 
 9518               	.LASF279:
 9519 12e1 4461 7461 	.string"DataStart"
 9519      5374 6172 
 9519      7400 
 9520               	.LASF3:
 9521 12eb 696E 7431 	.string"int16"
 9521      3600 
 9522               	.LASF163:
 9523 12f1 5061 7468 	.string"Path"
 9523      00
 9524               	.LASF83:
 9525 12f6 5F5F 7362 	.string"__sbuf"
 9525      7566 00
 9526               	.LASF79:
 9527 12fd 5F69 735F 	.string"_is_cxa"
 9527      6378 6100 
 9528               	.LASF224:
 9529 1305 4346 455F 	.string"CFE_TIME_SysTime_t"
 9529      5449 4D45 
 9529      5F53 7973 
 9529      5469 6D65 
 9529      5F74 00
 9530               	.LASF150:
 9531 1318 5F6E 6578 	.string"_nextf"
 9531      7466 00
 9532               	.LASF261:
 9533 131f 5469 6D65 	.string"TimeCode"
 9533      436F 6465 
 9533      00
 9534               	.LASF23:
 9535 1328 4F53 5F71 	.string"OS_queue_prop_t"
 9535      7565 7565 
 9535      5F70 726F 
 9535      705F 7400 
68K GAS   			page 242


 9536               	.LASF266:
 9537 1338 4346 455F 	.string"CFE_ES_ERLog_t"
 9537      4553 5F45 
 9537      524C 6F67 
 9537      5F74 00
 9538               	.LASF325:
 9539 1347 4C69 624E 	.string"LibName"
 9539      616D 6500 
 9540               	.LASF245:
 9541 134f 4346 455F 	.string"CFE_EVS_Packet_Payload_t"
 9541      4556 535F 
 9541      5061 636B 
 9541      6574 5F50 
 9541      6179 6C6F 
 9542               	.LASF438:
 9543 1368 4C69 6E65 	.string"LineTooLong"
 9543      546F 6F4C 
 9543      6F6E 6700 
 9544               	.LASF111:
 9545 1374 5F6C 6F63 	.string"_locale"
 9545      616C 6500 
 9546               	.LASF59:
 9547 137c 5F5F 554C 	.string"__ULong"
 9547      6F6E 6700 
 9548               	.LASF350:
 9549 1384 5461 626C 	.string"Table"
 9549      6500 
 9550               	.LASF177:
 9551 138a 686F 7374 	.string"host_module_id"
 9551      5F6D 6F64 
 9551      756C 655F 
 9551      6964 00
 9552               	.LASF393:
 9553 1399 4669 6C65 	.string"FileProp"
 9553      5072 6F70 
 9553      00
 9554               	.LASF262:
 9555 13a2 4465 7363 	.string"Description"
 9555      7269 7074 
 9555      696F 6E00 
 9556               	.LASF166:
 9557 13ae 4F53 5F46 	.string"OS_FDTableEntry"
 9557      4454 6162 
 9557      6C65 456E 
 9557      7472 7900 
 9558               	.LASF342:
 9559 13be 4D75 7465 	.string"MutexId"
 9559      7849 6400 
 9560               	.LASF114:
 9561 13c6 5F72 6573 	.string"_result"
 9561      756C 7400 
 9562               	.LASF18:
 9563 13ce 6372 6561 	.string"creator"
 9563      746F 7200 
 9564               	.LASF35:
 9565 13d6 5F6E 6F77 	.string"_now_serving"
 9565      5F73 6572 
68K GAS   			page 243


 9565      7669 6E67 
 9565      00
 9566               	.LASF218:
 9567 13e3 456E 7472 	.string"EntryFuncAddr"
 9567      7946 756E 
 9567      6341 6464 
 9567      7200 
 9568               	.LASF413:
 9569 13f1 4C69 6272 	.string"LibraryIdPtr"
 9569      6172 7949 
 9569      6450 7472 
 9569      00
 9570               	.LASF32:
 9571 13fe 5F6F 6666 	.string"_off_t"
 9571      5F74 00
 9572               	.LASF176:
 9573 1405 656E 7472 	.string"entry_point"
 9573      795F 706F 
 9573      696E 7400 
 9574               	.LASF130:
 9575 1411 5F61 6464 	.string"_add"
 9575      00
 9576               	.LASF182:
 9577 1416 7374 6172 	.string"start_time"
 9577      745F 7469 
 9577      6D65 00
 9578               	.LASF442:
 9579 1421 474E 5520 	.string"GNU C11 7.3.0 20180125 (RTEMS 5, RSB d2b25d131d55adcb38219f2cd8cbec2436ee78ab, Newlib 3.0.0) -malign-int -mcpu=528x -g -O0 -fomit-frame-pointer"
 9579      4331 3120 
 9579      372E 332E 
 9579      3020 3230 
 9579      3138 3031 
 9580               	.LASF10:
 9581 14b1 7368 6F72 	.string"short unsigned int"
 9581      7420 756E 
 9581      7369 676E 
 9581      6564 2069 
 9581      6E74 00
 9582               	.LASF441:
 9583 14c4 4172 7261 	.string"ArrayIndex"
 9583      7949 6E64 
 9583      6578 00
 9584               	.LASF68:
 9585 14cf 5F5F 746D 	.string"__tm_hour"
 9585      5F68 6F75 
 9585      7200 
 9586               	.LASF254:
 9587 14d9 4C6F 6745 	.string"LogEntryType"
 9587      6E74 7279 
 9587      5479 7065 
 9587      00
 9588               	.LASF196:
 9589 14e6 4461 7461 	.string"DataAddress"
 9589      4164 6472 
 9589      6573 7300 
 9590               	.LASF238:
 9591 14f2 5370 6163 	.string"SpacecraftID"
68K GAS   			page 244


 9591      6563 7261 
 9591      6674 4944 
 9591      00
 9592               	.LASF5:
 9593 14ff 696E 7433 	.string"int32"
 9593      3200 
 9594               	.LASF146:
 9595 1505 5F6D 6273 	.string"_mbsrtowcs_state"
 9595      7274 6F77 
 9595      6373 5F73 
 9595      7461 7465 
 9595      00
 9596               	.LASF410:
 9597 1516 4E65 7741 	.string"NewAppId"
 9597      7070 4964 
 9597      00
 9598               	.LASF39:
 9599 151f 5F4C 6F63 	.string"_Lock"
 9599      6B00 
 9600               	.LASF215:
 9601 1525 4346 455F 	.string"CFE_ES_StaticEntryType_t"
 9601      4553 5F53 
 9601      7461 7469 
 9601      6345 6E74 
 9601      7279 5479 
 9602               	.LASF240:
 9603 153e 4346 455F 	.string"CFE_EVS_PacketID_t"
 9603      4556 535F 
 9603      5061 636B 
 9603      6574 4944 
 9603      5F74 00
 9604               	.LASF430:
 9605 1551 4170 706C 	.string"ApplicationId"
 9605      6963 6174 
 9605      696F 6E49 
 9605      6400 
 9606               	.LASF76:
 9607 155f 5F66 6E61 	.string"_fnargs"
 9607      7267 7300 
 9608               	.LASF74:
 9609 1567 5F5F 746D 	.string"__tm_isdst"
 9609      5F69 7364 
 9609      7374 00
 9610               	.LASF296:
 9611 1572 4346 455F 	.string"CFE_EVS_Log_t"
 9611      4556 535F 
 9611      4C6F 675F 
 9611      7400 
 9612               	.LASF265:
 9613 1580 436F 6E74 	.string"Context"
 9613      6578 7400 
 9614               	.LASF250:
 9615 1588 5761 7463 	.string"WatchdogWriteFlag"
 9615      6864 6F67 
 9615      5772 6974 
 9615      6546 6C61 
 9615      6700 
68K GAS   			page 245


 9616               	.LASF212:
 9617 159a 4346 455F 	.string"CFE_ES_STATICENTRYTYPE_APPLICATION"
 9617      4553 5F53 
 9617      5441 5449 
 9617      4345 4E54 
 9617      5259 5459 
 9618               	.LASF160:
 9619 15bd 5F64 6179 	.string"_daylight"
 9619      6C69 6768 
 9619      7400 
 9620               	.LASF360:
 9621 15c7 4368 696C 	.string"ChildID"
 9621      6449 4400 
 9622               	.LASF67:
 9623 15cf 5F5F 746D 	.string"__tm_min"
 9623      5F6D 696E 
 9623      00
 9624               	.LASF307:
 9625 15d8 5265 7365 	.string"ResetVars"
 9625      7456 6172 
 9625      7300 
 9626               	.LASF9:
 9627 15e2 7569 6E74 	.string"uint16"
 9627      3136 00
 9628               	.LASF320:
 9629 15e9 5461 736B 	.string"TaskInfo"
 9629      496E 666F 
 9629      00
 9630               	.LASF143:
 9631 15f2 5F67 6574 	.string"_getdate_err"
 9631      6461 7465 
 9631      5F65 7272 
 9631      00
 9632               	.LASF233:
 9633 15ff 4346 455F 	.string"CFE_SB_Qos_t"
 9633      5342 5F51 
 9633      6F73 5F74 
 9633      00
 9634               	.LASF380:
 9635 160c 4344 5356 	.string"CDSVars"
 9635      6172 7300 
 9636               	.ident"GCC: (GNU) 7.3.0 20180125 (RTEMS 5, RSB d2b25d131d55adcb38219f2cd8cbec2436ee78ab, Newlib 3.0.0)"
68K GAS   			page 246


DEFINED SYMBOLS
                            *ABS*:0000000000000000 cfe_es_apps.c
    {standard input}:8      .text:0000000000000000 OS_ConvertToArrayIndex
    {standard input}:40     .text:000000000000000c CFE_ES_StartApplications
    {standard input}:350    .text:0000000000000236 CFE_ES_ParseFileEntry
    {standard input}:602    .text:000000000000043a CFE_ES_AppCreate
    {standard input}:1482   .text:0000000000000d4c CFE_ES_LoadLibrary
    {standard input}:3830   .rodata:0000000000000b3b __func__.5819
    {standard input}:3834   .rodata:0000000000000b4c __func__.5840
    {standard input}:2044   .text:0000000000001254 CFE_ES_ScanAppTable
    {standard input}:2192   .text:0000000000001386 CFE_ES_ProcessControlRequest
    {standard input}:2662   .text:0000000000001762 CFE_ES_CleanUpApp
    {standard input}:3838   .rodata:0000000000000b5f __func__.5872
    {standard input}:2922   .text:00000000000019b8 CFE_ES_CleanupTaskResources
    {standard input}:3315   .text:0000000000001cd8 CFE_ES_ListResourcesDebug
    {standard input}:3554   .text:0000000000001e92 CFE_ES_GetAppInfoInternal
    {standard input}:3842   .rodata:0000000000000b71 __func__.5947

UNDEFINED SYMBOLS
OS_open
CFE_ES_WriteToSysLog
memset
OS_read
OS_close
sscanf
strncmp
CFE_ES_LockSharedData
CFE_ES_Global
CFE_ES_UnlockSharedData
CFE_FS_IsGzFile
CFE_SB_MessageStringGet
CFE_FS_ExtractFilenameFromPath
strlen
strcat
CFE_FS_Decompress
OS_ModuleLoad
OS_SymbolLookup
CFE_PSP_MemSet
strncpy
OS_TaskCreate
OS_remove
CFE_PSP_MemCpy
CFE_EVS_SendEvent
CFE_TBL_CleanUpApp
CFE_SB_CleanUpApp
CFE_TIME_CleanUpApp
CFE_EVS_CleanUpApp
OS_ModuleUnload
OS_MutSemGetInfo
OS_MutSemDelete
OS_BinSemGetInfo
OS_BinSemDelete
OS_CountSemGetInfo
OS_CountSemDelete
OS_QueueGetInfo
OS_QueueDelete
OS_TimerGetInfo
68K GAS   			page 247


OS_TimerDelete
OS_FDGetInfo
OS_TaskDelete
OS_printf
OS_TaskGetInfo
OS_ModuleInfo
