68K GAS   			page 1


   1               	
   2               	.file"cfe_es_task.c"
   3               	.text
   4               	.Ltext0:
   5               	.cfi_sections.debug_frame
   6               	.commCFE_ES_TaskData,704,4
   7               	.section.rodata
   8               	.LC0:
   9 0000 4553 3A41 	.string"ES:Application Init Failed,RC=0x%08X\n"
   9      7070 6C69 
   9      6361 7469 
   9      6F6E 2049 
   9      6E69 7420 
  10               	.LC1:
  11 0026 4553 3A45 	.string"ES:Error reading cmd pipe,RC=0x%08X\n"
  11      7272 6F72 
  11      2072 6561 
  11      6469 6E67 
  11      2063 6D64 
  12               	.text
  13               	.align2
  14               	.globlCFE_ES_TaskMain
  15               	.typeCFE_ES_TaskMain, @function
  16               	CFE_ES_TaskMain:
  17               	.LFB59:
  18               	.file 1 "/home/simulink/cFS_FreeRTOS_seL4/cfe/fsw/cfe-core/src/es/cfe_es_task.c"
   1:/home/simulink/cFS_FreeRTOS_seL4/cfe/fsw/cfe-core/src/es/cfe_es_task.c **** /*
   2:/home/simulink/cFS_FreeRTOS_seL4/cfe/fsw/cfe-core/src/es/cfe_es_task.c **** **  File:
   3:/home/simulink/cFS_FreeRTOS_seL4/cfe/fsw/cfe-core/src/es/cfe_es_task.c **** **  cfe_es_task.c
   4:/home/simulink/cFS_FreeRTOS_seL4/cfe/fsw/cfe-core/src/es/cfe_es_task.c **** **  $Id: cfe_es_task.c 1.16 2014/07/07 10:56:17GMT-05:00 acudmore Exp  $
   5:/home/simulink/cFS_FreeRTOS_seL4/cfe/fsw/cfe-core/src/es/cfe_es_task.c **** **
   6:/home/simulink/cFS_FreeRTOS_seL4/cfe/fsw/cfe-core/src/es/cfe_es_task.c **** **      Copyright (c) 2004-2012, United States government as represented by the
   7:/home/simulink/cFS_FreeRTOS_seL4/cfe/fsw/cfe-core/src/es/cfe_es_task.c **** **      administrator of the National Aeronautics Space Administration.
   8:/home/simulink/cFS_FreeRTOS_seL4/cfe/fsw/cfe-core/src/es/cfe_es_task.c **** **      All rights reserved. This software(cFE) was created at NASA's Goddard
   9:/home/simulink/cFS_FreeRTOS_seL4/cfe/fsw/cfe-core/src/es/cfe_es_task.c **** **      Space Flight Center pursuant to government contracts.
  10:/home/simulink/cFS_FreeRTOS_seL4/cfe/fsw/cfe-core/src/es/cfe_es_task.c **** **
  11:/home/simulink/cFS_FreeRTOS_seL4/cfe/fsw/cfe-core/src/es/cfe_es_task.c **** **      This is governed by the NASA Open Source Agreement and may be used,
  12:/home/simulink/cFS_FreeRTOS_seL4/cfe/fsw/cfe-core/src/es/cfe_es_task.c **** **      distributed and modified only pursuant to the terms of that agreement.
  13:/home/simulink/cFS_FreeRTOS_seL4/cfe/fsw/cfe-core/src/es/cfe_es_task.c **** **
  14:/home/simulink/cFS_FreeRTOS_seL4/cfe/fsw/cfe-core/src/es/cfe_es_task.c **** **  Purpose:
  15:/home/simulink/cFS_FreeRTOS_seL4/cfe/fsw/cfe-core/src/es/cfe_es_task.c **** **  cFE Executive Services (ES) task
  16:/home/simulink/cFS_FreeRTOS_seL4/cfe/fsw/cfe-core/src/es/cfe_es_task.c **** **
  17:/home/simulink/cFS_FreeRTOS_seL4/cfe/fsw/cfe-core/src/es/cfe_es_task.c **** **  References:
  18:/home/simulink/cFS_FreeRTOS_seL4/cfe/fsw/cfe-core/src/es/cfe_es_task.c **** **     Flight Software Branch C Coding Standard Version 1.0a
  19:/home/simulink/cFS_FreeRTOS_seL4/cfe/fsw/cfe-core/src/es/cfe_es_task.c **** **     cFE Flight Software Application Developers Guide
  20:/home/simulink/cFS_FreeRTOS_seL4/cfe/fsw/cfe-core/src/es/cfe_es_task.c **** **
  21:/home/simulink/cFS_FreeRTOS_seL4/cfe/fsw/cfe-core/src/es/cfe_es_task.c **** **  Notes:
  22:/home/simulink/cFS_FreeRTOS_seL4/cfe/fsw/cfe-core/src/es/cfe_es_task.c **** **
  23:/home/simulink/cFS_FreeRTOS_seL4/cfe/fsw/cfe-core/src/es/cfe_es_task.c **** ** $Log: cfe_es_task.c  $
  24:/home/simulink/cFS_FreeRTOS_seL4/cfe/fsw/cfe-core/src/es/cfe_es_task.c **** ** Revision 1.16 2014/07/07 10:56:17GMT-05:00 acudmore 
  25:/home/simulink/cFS_FreeRTOS_seL4/cfe/fsw/cfe-core/src/es/cfe_es_task.c **** ** Added comment to note that Mempool info has an unused parameter
  26:/home/simulink/cFS_FreeRTOS_seL4/cfe/fsw/cfe-core/src/es/cfe_es_task.c **** ** Revision 1.15 2012/01/18 16:27:14GMT-05:00 jmdagost 
  27:/home/simulink/cFS_FreeRTOS_seL4/cfe/fsw/cfe-core/src/es/cfe_es_task.c **** ** Modified init and no-op event messages to include OSAL revision and mission revision numbers, al
  28:/home/simulink/cFS_FreeRTOS_seL4/cfe/fsw/cfe-core/src/es/cfe_es_task.c **** ** those numbers to the ES HK tlm pkt.
  29:/home/simulink/cFS_FreeRTOS_seL4/cfe/fsw/cfe-core/src/es/cfe_es_task.c **** ** Revision 1.14 2012/01/13 11:50:05EST acudmore 
  30:/home/simulink/cFS_FreeRTOS_seL4/cfe/fsw/cfe-core/src/es/cfe_es_task.c **** ** Changed license text to reflect open source
  31:/home/simulink/cFS_FreeRTOS_seL4/cfe/fsw/cfe-core/src/es/cfe_es_task.c **** ** Revision 1.13 2012/01/10 13:35:47EST lwalling 
68K GAS   			page 2


  32:/home/simulink/cFS_FreeRTOS_seL4/cfe/fsw/cfe-core/src/es/cfe_es_task.c **** ** Add output filename to shell command packet structure
  33:/home/simulink/cFS_FreeRTOS_seL4/cfe/fsw/cfe-core/src/es/cfe_es_task.c **** ** Revision 1.12 2011/11/30 14:11:19EST jmdagost 
  34:/home/simulink/cFS_FreeRTOS_seL4/cfe/fsw/cfe-core/src/es/cfe_es_task.c **** ** Corrected CFE_MISSION_REV to CFE_PSP_MISSION_REV, as it should be.
  35:/home/simulink/cFS_FreeRTOS_seL4/cfe/fsw/cfe-core/src/es/cfe_es_task.c **** ** Revision 1.11 2010/11/23 15:30:54EST jmdagost 
  36:/home/simulink/cFS_FreeRTOS_seL4/cfe/fsw/cfe-core/src/es/cfe_es_task.c **** ** Added cFE Mission Rev to init message and telemetry, added PSP Mission Rev to init message.
  37:/home/simulink/cFS_FreeRTOS_seL4/cfe/fsw/cfe-core/src/es/cfe_es_task.c **** ** Revision 1.10 2009/08/04 13:34:05EDT aschoeni 
  38:/home/simulink/cFS_FreeRTOS_seL4/cfe/fsw/cfe-core/src/es/cfe_es_task.c **** ** Added heap information to ES telemetry
  39:/home/simulink/cFS_FreeRTOS_seL4/cfe/fsw/cfe-core/src/es/cfe_es_task.c **** ** Revision 1.9 2009/07/28 16:40:19EDT jmdagost 
  40:/home/simulink/cFS_FreeRTOS_seL4/cfe/fsw/cfe-core/src/es/cfe_es_task.c **** ** Replaced reference to ComputeChecksum with CalculateCRC.
  41:/home/simulink/cFS_FreeRTOS_seL4/cfe/fsw/cfe-core/src/es/cfe_es_task.c **** ** Revision 1.8 2009/06/10 09:09:02EDT acudmore 
  42:/home/simulink/cFS_FreeRTOS_seL4/cfe/fsw/cfe-core/src/es/cfe_es_task.c **** ** Converted OS_Mem* and OS_BSP* API to CFE_PSP_* API
  43:/home/simulink/cFS_FreeRTOS_seL4/cfe/fsw/cfe-core/src/es/cfe_es_task.c **** ** Revision 1.7 2009/06/04 16:45:36EDT rmcgraw 
  44:/home/simulink/cFS_FreeRTOS_seL4/cfe/fsw/cfe-core/src/es/cfe_es_task.c **** ** Fixed compiler error in version event
  45:/home/simulink/cFS_FreeRTOS_seL4/cfe/fsw/cfe-core/src/es/cfe_es_task.c **** ** Revision 1.6 2009/06/04 11:00:29EDT rmcgraw 
  46:/home/simulink/cFS_FreeRTOS_seL4/cfe/fsw/cfe-core/src/es/cfe_es_task.c **** ** DCR8290:1 Added PSP Version to event
  47:/home/simulink/cFS_FreeRTOS_seL4/cfe/fsw/cfe-core/src/es/cfe_es_task.c **** ** Revision 1.5 2008/07/31 15:41:36EDT apcudmore 
  48:/home/simulink/cFS_FreeRTOS_seL4/cfe/fsw/cfe-core/src/es/cfe_es_task.c **** ** Added execution counter API:
  49:/home/simulink/cFS_FreeRTOS_seL4/cfe/fsw/cfe-core/src/es/cfe_es_task.c **** **   -- Added execution counter to ES internal task data
  50:/home/simulink/cFS_FreeRTOS_seL4/cfe/fsw/cfe-core/src/es/cfe_es_task.c **** **   -- Added code to increment counter in RunLoop
  51:/home/simulink/cFS_FreeRTOS_seL4/cfe/fsw/cfe-core/src/es/cfe_es_task.c **** **   -- Added code to report counter in GetInfo APIs
  52:/home/simulink/cFS_FreeRTOS_seL4/cfe/fsw/cfe-core/src/es/cfe_es_task.c **** **   -- Added API to increment counter for child tasks
  53:/home/simulink/cFS_FreeRTOS_seL4/cfe/fsw/cfe-core/src/es/cfe_es_task.c **** **   -- Added code to cFE Core apps to increment counters.
  54:/home/simulink/cFS_FreeRTOS_seL4/cfe/fsw/cfe-core/src/es/cfe_es_task.c **** ** Revision 1.4 2008/07/28 14:11:29EDT apcudmore 
  55:/home/simulink/cFS_FreeRTOS_seL4/cfe/fsw/cfe-core/src/es/cfe_es_task.c **** ** Changed cFE Kernel Text segment checksum to cFE Core checksum in housekeeping.
  56:/home/simulink/cFS_FreeRTOS_seL4/cfe/fsw/cfe-core/src/es/cfe_es_task.c **** ** Revision 1.3 2008/06/26 15:41:52EDT apcudmore 
  57:/home/simulink/cFS_FreeRTOS_seL4/cfe/fsw/cfe-core/src/es/cfe_es_task.c **** ** Added public CFE_ES_GetAppInfo API.
  58:/home/simulink/cFS_FreeRTOS_seL4/cfe/fsw/cfe-core/src/es/cfe_es_task.c **** ** Moved the old API to CFE_ES_GetAppInfoInternal
  59:/home/simulink/cFS_FreeRTOS_seL4/cfe/fsw/cfe-core/src/es/cfe_es_task.c **** ** -- May merge these two in the near future.
  60:/home/simulink/cFS_FreeRTOS_seL4/cfe/fsw/cfe-core/src/es/cfe_es_task.c **** ** Revision 1.2 2008/06/20 15:40:29EDT apcudmore 
  61:/home/simulink/cFS_FreeRTOS_seL4/cfe/fsw/cfe-core/src/es/cfe_es_task.c **** ** Added support for OSAL based module loader
  62:/home/simulink/cFS_FreeRTOS_seL4/cfe/fsw/cfe-core/src/es/cfe_es_task.c **** **  - Removed calls and references to the BSP based module loader
  63:/home/simulink/cFS_FreeRTOS_seL4/cfe/fsw/cfe-core/src/es/cfe_es_task.c **** ** Revision 1.1 2008/04/17 08:05:09EDT ruperera 
  64:/home/simulink/cFS_FreeRTOS_seL4/cfe/fsw/cfe-core/src/es/cfe_es_task.c **** ** Member added to tlserver3 project /MKS-CFE-PROJECT/fsw/cfe-core/src/es
  65:/home/simulink/cFS_FreeRTOS_seL4/cfe/fsw/cfe-core/src/es/cfe_es_task.c **** ** Revision 1.107 2008/01/24 09:06:21EST njyanchik 
  66:/home/simulink/cFS_FreeRTOS_seL4/cfe/fsw/cfe-core/src/es/cfe_es_task.c **** ** Removed comments
  67:/home/simulink/cFS_FreeRTOS_seL4/cfe/fsw/cfe-core/src/es/cfe_es_task.c **** ** Revision 1.106 2008/01/24 08:54:07EST njyanchik 
  68:/home/simulink/cFS_FreeRTOS_seL4/cfe/fsw/cfe-core/src/es/cfe_es_task.c **** ** I added this:
  69:/home/simulink/cFS_FreeRTOS_seL4/cfe/fsw/cfe-core/src/es/cfe_es_task.c **** ** 
  70:/home/simulink/cFS_FreeRTOS_seL4/cfe/fsw/cfe-core/src/es/cfe_es_task.c **** **         CFE_ES_ResetDataPtr->ERLogEntries = 0;
  71:/home/simulink/cFS_FreeRTOS_seL4/cfe/fsw/cfe-core/src/es/cfe_es_task.c **** ** 
  72:/home/simulink/cFS_FreeRTOS_seL4/cfe/fsw/cfe-core/src/es/cfe_es_task.c **** ** to CFE_ES_ClearERlogCmd so that the number of entries are cleared.
  73:/home/simulink/cFS_FreeRTOS_seL4/cfe/fsw/cfe-core/src/es/cfe_es_task.c **** ** Revision 1.105 2007/09/25 10:04:31EDT apcudmore 
  74:/home/simulink/cFS_FreeRTOS_seL4/cfe/fsw/cfe-core/src/es/cfe_es_task.c **** ** Created new config parameter for default filename for Query All Tasks cmd.
  75:/home/simulink/cFS_FreeRTOS_seL4/cfe/fsw/cfe-core/src/es/cfe_es_task.c **** ** Revision 1.104 2007/09/20 10:52:58EDT apcudmore 
  76:/home/simulink/cFS_FreeRTOS_seL4/cfe/fsw/cfe-core/src/es/cfe_es_task.c **** ** Added Query All Tasks command, file definition, events, error codes etc.
  77:/home/simulink/cFS_FreeRTOS_seL4/cfe/fsw/cfe-core/src/es/cfe_es_task.c **** ** Revision 1.103 2007/09/18 16:39:10EDT apcudmore 
  78:/home/simulink/cFS_FreeRTOS_seL4/cfe/fsw/cfe-core/src/es/cfe_es_task.c **** ** Updated ES invalid command length event message to make it clear.
  79:/home/simulink/cFS_FreeRTOS_seL4/cfe/fsw/cfe-core/src/es/cfe_es_task.c **** ** Revision 1.102 2007/08/31 10:57:10EDT rjmcgraw 
  80:/home/simulink/cFS_FreeRTOS_seL4/cfe/fsw/cfe-core/src/es/cfe_es_task.c **** ** Changes to eliminate perl script
  81:/home/simulink/cFS_FreeRTOS_seL4/cfe/fsw/cfe-core/src/es/cfe_es_task.c **** ** Revision 1.101 2007/06/01 11:01:12EDT dlkobe 
  82:/home/simulink/cFS_FreeRTOS_seL4/cfe/fsw/cfe-core/src/es/cfe_es_task.c **** ** Corrected unassigned Pool Handle in Mem Pool Stats Telemetry Packet
  83:/home/simulink/cFS_FreeRTOS_seL4/cfe/fsw/cfe-core/src/es/cfe_es_task.c **** ** Revision 1.100 2007/05/25 11:55:42EDT apcudmore 
  84:/home/simulink/cFS_FreeRTOS_seL4/cfe/fsw/cfe-core/src/es/cfe_es_task.c **** ** Error Handling updates
  85:/home/simulink/cFS_FreeRTOS_seL4/cfe/fsw/cfe-core/src/es/cfe_es_task.c **** **    - CFE_ES_GetAppInfo returns void
  86:/home/simulink/cFS_FreeRTOS_seL4/cfe/fsw/cfe-core/src/es/cfe_es_task.c **** **    - added app ID range check in RestartApp
  87:/home/simulink/cFS_FreeRTOS_seL4/cfe/fsw/cfe-core/src/es/cfe_es_task.c **** **  
  88:/home/simulink/cFS_FreeRTOS_seL4/cfe/fsw/cfe-core/src/es/cfe_es_task.c **** ** Revision 1.99 2007/05/15 11:11:12EDT rjmcgraw 
68K GAS   			page 3


  89:/home/simulink/cFS_FreeRTOS_seL4/cfe/fsw/cfe-core/src/es/cfe_es_task.c **** ** Changed syslog msgs to be consistent with other tasks
  90:/home/simulink/cFS_FreeRTOS_seL4/cfe/fsw/cfe-core/src/es/cfe_es_task.c **** ** Revision 1.98 2007/05/14 15:58:45EDT apcudmore 
  91:/home/simulink/cFS_FreeRTOS_seL4/cfe/fsw/cfe-core/src/es/cfe_es_task.c **** ** Added runtime error detection back in to the ES main task.
  92:/home/simulink/cFS_FreeRTOS_seL4/cfe/fsw/cfe-core/src/es/cfe_es_task.c **** ** Revision 1.97 2007/05/14 15:43:46EDT apcudmore 
  93:/home/simulink/cFS_FreeRTOS_seL4/cfe/fsw/cfe-core/src/es/cfe_es_task.c **** ** Cleaned up events and disabled debug code for application restart.
  94:/home/simulink/cFS_FreeRTOS_seL4/cfe/fsw/cfe-core/src/es/cfe_es_task.c **** ** Revision 1.95 2007/05/11 10:30:13EDT rjmcgraw 
  95:/home/simulink/cFS_FreeRTOS_seL4/cfe/fsw/cfe-core/src/es/cfe_es_task.c **** ** DCR2987:4 Added return checking on init event and version event
  96:/home/simulink/cFS_FreeRTOS_seL4/cfe/fsw/cfe-core/src/es/cfe_es_task.c **** ** Revision 1.94 2007/05/09 12:41:02EDT dlkobe 
  97:/home/simulink/cFS_FreeRTOS_seL4/cfe/fsw/cfe-core/src/es/cfe_es_task.c **** ** Added processing for Dump CDS Registry Command
  98:/home/simulink/cFS_FreeRTOS_seL4/cfe/fsw/cfe-core/src/es/cfe_es_task.c **** ** Revision 1.92 2007/05/07 11:59:37EDT apcudmore 
  99:/home/simulink/cFS_FreeRTOS_seL4/cfe/fsw/cfe-core/src/es/cfe_es_task.c **** ** Removed SB Pipe error telemetry point
 100:/home/simulink/cFS_FreeRTOS_seL4/cfe/fsw/cfe-core/src/es/cfe_es_task.c **** ** Handle SB error with sys log message
 101:/home/simulink/cFS_FreeRTOS_seL4/cfe/fsw/cfe-core/src/es/cfe_es_task.c **** ** Revision 1.91 2007/05/04 20:22:23EDT dlkobe 
 102:/home/simulink/cFS_FreeRTOS_seL4/cfe/fsw/cfe-core/src/es/cfe_es_task.c **** ** Corrected prototype errors and added missing event message IDs
 103:/home/simulink/cFS_FreeRTOS_seL4/cfe/fsw/cfe-core/src/es/cfe_es_task.c **** ** Revision 1.90 2007/05/04 20:07:52EDT dlkobe 
 104:/home/simulink/cFS_FreeRTOS_seL4/cfe/fsw/cfe-core/src/es/cfe_es_task.c **** ** Added command to telemeter memory pool statistics
 105:/home/simulink/cFS_FreeRTOS_seL4/cfe/fsw/cfe-core/src/es/cfe_es_task.c **** ** Revision 1.89 2007/05/04 15:52:40EDT dlkobe 
 106:/home/simulink/cFS_FreeRTOS_seL4/cfe/fsw/cfe-core/src/es/cfe_es_task.c **** ** Modified CFE_ES_DeleteCDSCmd to make use of new CFE_ES_DeleteCDS function
 107:/home/simulink/cFS_FreeRTOS_seL4/cfe/fsw/cfe-core/src/es/cfe_es_task.c **** ** Revision 1.88 2007/05/03 14:34:59EDT dlkobe 
 108:/home/simulink/cFS_FreeRTOS_seL4/cfe/fsw/cfe-core/src/es/cfe_es_task.c **** ** Added test to prevent Delete CDS command from deleting a Critical Table Image from CDS
 109:/home/simulink/cFS_FreeRTOS_seL4/cfe/fsw/cfe-core/src/es/cfe_es_task.c **** ** Revision 1.87 2007/04/28 15:57:00EDT dlkobe 
 110:/home/simulink/cFS_FreeRTOS_seL4/cfe/fsw/cfe-core/src/es/cfe_es_task.c **** ** Added "cfe_es_cds.h" includes to resolve sudden errors.
 111:/home/simulink/cFS_FreeRTOS_seL4/cfe/fsw/cfe-core/src/es/cfe_es_task.c **** ** Revision 1.86 2007/04/27 15:55:15EDT rjmcgraw 
 112:/home/simulink/cFS_FreeRTOS_seL4/cfe/fsw/cfe-core/src/es/cfe_es_task.c **** ** DCR2987 Moved call to CFE_ES_RegisterApp into TaskInit and checked return for err
 113:/home/simulink/cFS_FreeRTOS_seL4/cfe/fsw/cfe-core/src/es/cfe_es_task.c **** ** Revision 1.85 2007/04/27 15:41:13EDT rjmcgraw 
 114:/home/simulink/cFS_FreeRTOS_seL4/cfe/fsw/cfe-core/src/es/cfe_es_task.c **** ** DCR2987:4 Standardize task init error code
 115:/home/simulink/cFS_FreeRTOS_seL4/cfe/fsw/cfe-core/src/es/cfe_es_task.c **** ** Revision 1.84 2007/04/25 11:57:05EDT apcudmore 
 116:/home/simulink/cFS_FreeRTOS_seL4/cfe/fsw/cfe-core/src/es/cfe_es_task.c **** ** Implemented "Back End" of Application Restart and Delete.
 117:/home/simulink/cFS_FreeRTOS_seL4/cfe/fsw/cfe-core/src/es/cfe_es_task.c **** ** Changes include all ES Cleanup code to delete App and Task Resources.
 118:/home/simulink/cFS_FreeRTOS_seL4/cfe/fsw/cfe-core/src/es/cfe_es_task.c **** ** Revision 1.83 2007/04/17 11:00:27EDT rjmcgraw 
 119:/home/simulink/cFS_FreeRTOS_seL4/cfe/fsw/cfe-core/src/es/cfe_es_task.c **** ** Copy DataToWrite into ES HK Pkt
 120:/home/simulink/cFS_FreeRTOS_seL4/cfe/fsw/cfe-core/src/es/cfe_es_task.c **** ** Revision 1.82 2007/04/13 16:26:00EDT apcudmore 
 121:/home/simulink/cFS_FreeRTOS_seL4/cfe/fsw/cfe-core/src/es/cfe_es_task.c **** ** Updated how ES scans its App table. It will now scan after processing a 
 122:/home/simulink/cFS_FreeRTOS_seL4/cfe/fsw/cfe-core/src/es/cfe_es_task.c **** ** ground/external command.
 123:/home/simulink/cFS_FreeRTOS_seL4/cfe/fsw/cfe-core/src/es/cfe_es_task.c **** ** Revision 1.81 2007/04/12 13:40:58EDT apcudmore 
 124:/home/simulink/cFS_FreeRTOS_seL4/cfe/fsw/cfe-core/src/es/cfe_es_task.c **** ** Added system log messages to ES init failures.
 125:/home/simulink/cFS_FreeRTOS_seL4/cfe/fsw/cfe-core/src/es/cfe_es_task.c **** ** Revision 1.80 2007/04/12 10:37:18EDT apcudmore 
 126:/home/simulink/cFS_FreeRTOS_seL4/cfe/fsw/cfe-core/src/es/cfe_es_task.c **** ** Added support for ES task to call CFE_ES_ExitApp on initialization and 
 127:/home/simulink/cFS_FreeRTOS_seL4/cfe/fsw/cfe-core/src/es/cfe_es_task.c **** ** runtime failure.
 128:/home/simulink/cFS_FreeRTOS_seL4/cfe/fsw/cfe-core/src/es/cfe_es_task.c **** **
 129:/home/simulink/cFS_FreeRTOS_seL4/cfe/fsw/cfe-core/src/es/cfe_es_task.c **** */
 130:/home/simulink/cFS_FreeRTOS_seL4/cfe/fsw/cfe-core/src/es/cfe_es_task.c **** 
 131:/home/simulink/cFS_FreeRTOS_seL4/cfe/fsw/cfe-core/src/es/cfe_es_task.c **** 
 132:/home/simulink/cFS_FreeRTOS_seL4/cfe/fsw/cfe-core/src/es/cfe_es_task.c **** /*
 133:/home/simulink/cFS_FreeRTOS_seL4/cfe/fsw/cfe-core/src/es/cfe_es_task.c **** ** Includes
 134:/home/simulink/cFS_FreeRTOS_seL4/cfe/fsw/cfe-core/src/es/cfe_es_task.c **** */
 135:/home/simulink/cFS_FreeRTOS_seL4/cfe/fsw/cfe-core/src/es/cfe_es_task.c **** #include "private/cfe_private.h"
 136:/home/simulink/cFS_FreeRTOS_seL4/cfe/fsw/cfe-core/src/es/cfe_es_task.c **** #include "cfe_platform_cfg.h"
 137:/home/simulink/cFS_FreeRTOS_seL4/cfe/fsw/cfe-core/src/es/cfe_es_task.c **** #include "cfe_version.h"
 138:/home/simulink/cFS_FreeRTOS_seL4/cfe/fsw/cfe-core/src/es/cfe_es_task.c **** #include "cfe_es_global.h"
 139:/home/simulink/cFS_FreeRTOS_seL4/cfe/fsw/cfe-core/src/es/cfe_es_task.c **** #include "cfe_es_apps.h"
 140:/home/simulink/cFS_FreeRTOS_seL4/cfe/fsw/cfe-core/src/es/cfe_es_task.c **** #include "cfe_es_events.h"
 141:/home/simulink/cFS_FreeRTOS_seL4/cfe/fsw/cfe-core/src/es/cfe_es_task.c **** #include "cfe_es_verify.h"
 142:/home/simulink/cFS_FreeRTOS_seL4/cfe/fsw/cfe-core/src/es/cfe_es_task.c **** #include "cfe_es_task.h"
 143:/home/simulink/cFS_FreeRTOS_seL4/cfe/fsw/cfe-core/src/es/cfe_es_task.c **** #include "cfe_es_shell.h"
 144:/home/simulink/cFS_FreeRTOS_seL4/cfe/fsw/cfe-core/src/es/cfe_es_task.c **** #include "cfe_es_log.h"
 145:/home/simulink/cFS_FreeRTOS_seL4/cfe/fsw/cfe-core/src/es/cfe_es_task.c **** #include "cfe_es_cds.h"
68K GAS   			page 4


 146:/home/simulink/cFS_FreeRTOS_seL4/cfe/fsw/cfe-core/src/es/cfe_es_task.c **** #include "cfe_fs.h"
 147:/home/simulink/cFS_FreeRTOS_seL4/cfe/fsw/cfe-core/src/es/cfe_es_task.c **** #include "cfe_psp.h"
 148:/home/simulink/cFS_FreeRTOS_seL4/cfe/fsw/cfe-core/src/es/cfe_es_task.c **** 
 149:/home/simulink/cFS_FreeRTOS_seL4/cfe/fsw/cfe-core/src/es/cfe_es_task.c **** #include <string.h>
 150:/home/simulink/cFS_FreeRTOS_seL4/cfe/fsw/cfe-core/src/es/cfe_es_task.c **** 
 151:/home/simulink/cFS_FreeRTOS_seL4/cfe/fsw/cfe-core/src/es/cfe_es_task.c **** /*
 152:/home/simulink/cFS_FreeRTOS_seL4/cfe/fsw/cfe-core/src/es/cfe_es_task.c **** ** Defines
 153:/home/simulink/cFS_FreeRTOS_seL4/cfe/fsw/cfe-core/src/es/cfe_es_task.c **** */
 154:/home/simulink/cFS_FreeRTOS_seL4/cfe/fsw/cfe-core/src/es/cfe_es_task.c **** #define CFE_ES_PERF_TRIGGERMASK_INT_SIZE    (sizeof(CFE_ES_ResetDataPtr->Perf.MetaData.TriggerMask)
 155:/home/simulink/cFS_FreeRTOS_seL4/cfe/fsw/cfe-core/src/es/cfe_es_task.c **** #define CFE_ES_PERF_TRIGGERMASK_EXT_SIZE    (sizeof(CFE_ES_TaskData.HkPacket.Payload.PerfTriggerMas
 156:/home/simulink/cFS_FreeRTOS_seL4/cfe/fsw/cfe-core/src/es/cfe_es_task.c **** #define CFE_ES_PERF_FILTERMASK_INT_SIZE     (sizeof(CFE_ES_ResetDataPtr->Perf.MetaData.FilterMask) 
 157:/home/simulink/cFS_FreeRTOS_seL4/cfe/fsw/cfe-core/src/es/cfe_es_task.c **** #define CFE_ES_PERF_FILTERMASK_EXT_SIZE     (sizeof(CFE_ES_TaskData.HkPacket.Payload.PerfFilterMask
 158:/home/simulink/cFS_FreeRTOS_seL4/cfe/fsw/cfe-core/src/es/cfe_es_task.c **** 
 159:/home/simulink/cFS_FreeRTOS_seL4/cfe/fsw/cfe-core/src/es/cfe_es_task.c **** /* 
 160:/home/simulink/cFS_FreeRTOS_seL4/cfe/fsw/cfe-core/src/es/cfe_es_task.c **** ** This define should be put in the OS API headers -- Right now it matches what the OS API uses 
 161:/home/simulink/cFS_FreeRTOS_seL4/cfe/fsw/cfe-core/src/es/cfe_es_task.c **** */
 162:/home/simulink/cFS_FreeRTOS_seL4/cfe/fsw/cfe-core/src/es/cfe_es_task.c **** #define OS_MAX_PRIORITY 255 
 163:/home/simulink/cFS_FreeRTOS_seL4/cfe/fsw/cfe-core/src/es/cfe_es_task.c **** 
 164:/home/simulink/cFS_FreeRTOS_seL4/cfe/fsw/cfe-core/src/es/cfe_es_task.c **** /*
 165:/home/simulink/cFS_FreeRTOS_seL4/cfe/fsw/cfe-core/src/es/cfe_es_task.c **** ** Executive Services (ES) task global data.
 166:/home/simulink/cFS_FreeRTOS_seL4/cfe/fsw/cfe-core/src/es/cfe_es_task.c **** */
 167:/home/simulink/cFS_FreeRTOS_seL4/cfe/fsw/cfe-core/src/es/cfe_es_task.c **** CFE_ES_TaskData_t CFE_ES_TaskData;
 168:/home/simulink/cFS_FreeRTOS_seL4/cfe/fsw/cfe-core/src/es/cfe_es_task.c **** 
 169:/home/simulink/cFS_FreeRTOS_seL4/cfe/fsw/cfe-core/src/es/cfe_es_task.c **** /* * * * * * * * * * * * * * * * * * * * * * * * * * * * * * * * * */
 170:/home/simulink/cFS_FreeRTOS_seL4/cfe/fsw/cfe-core/src/es/cfe_es_task.c **** /*                                                                 */
 171:/home/simulink/cFS_FreeRTOS_seL4/cfe/fsw/cfe-core/src/es/cfe_es_task.c **** /* CFE_ES_TaskMain() -- Task entry point and main process loop     */
 172:/home/simulink/cFS_FreeRTOS_seL4/cfe/fsw/cfe-core/src/es/cfe_es_task.c **** /*                                                                 */
 173:/home/simulink/cFS_FreeRTOS_seL4/cfe/fsw/cfe-core/src/es/cfe_es_task.c **** /* * * * * * * * * * * * * * * * * * * * * * * * * * * * * * * * * */
 174:/home/simulink/cFS_FreeRTOS_seL4/cfe/fsw/cfe-core/src/es/cfe_es_task.c **** 
 175:/home/simulink/cFS_FreeRTOS_seL4/cfe/fsw/cfe-core/src/es/cfe_es_task.c **** void CFE_ES_TaskMain(void)
 176:/home/simulink/cFS_FreeRTOS_seL4/cfe/fsw/cfe-core/src/es/cfe_es_task.c **** {
  19               	.loc 1 176 0
  20               	.cfi_startproc
  21 0000 4FEF FFF4 	lea (-12,%sp),%sp
  22               	.cfi_def_cfa_offset 16
 177:/home/simulink/cFS_FreeRTOS_seL4/cfe/fsw/cfe-core/src/es/cfe_es_task.c ****     int32   Status;
 178:/home/simulink/cFS_FreeRTOS_seL4/cfe/fsw/cfe-core/src/es/cfe_es_task.c ****     uint32  TimeOut = CFE_ES_APP_SCAN_RATE;
  23               	.loc 1 178 0
  24 0004 203C 0000 	move.l #1000,%d0
  24      03E8 
  25 000a 2F40 0004 	move.l %d0,4(%sp)
 179:/home/simulink/cFS_FreeRTOS_seL4/cfe/fsw/cfe-core/src/es/cfe_es_task.c ****     uint32  AppRunStatus = CFE_ES_RUNSTATUS_APP_RUN;
  26               	.loc 1 179 0
  27 000e 7001      	moveq #1,%d0
  28 0010 2F40 0008 	move.l %d0,8(%sp)
 180:/home/simulink/cFS_FreeRTOS_seL4/cfe/fsw/cfe-core/src/es/cfe_es_task.c **** 
 181:/home/simulink/cFS_FreeRTOS_seL4/cfe/fsw/cfe-core/src/es/cfe_es_task.c ****     
 182:/home/simulink/cFS_FreeRTOS_seL4/cfe/fsw/cfe-core/src/es/cfe_es_task.c ****     /*
 183:/home/simulink/cFS_FreeRTOS_seL4/cfe/fsw/cfe-core/src/es/cfe_es_task.c ****     ** Performance Time Stamp Entry
 184:/home/simulink/cFS_FreeRTOS_seL4/cfe/fsw/cfe-core/src/es/cfe_es_task.c ****     */
 185:/home/simulink/cFS_FreeRTOS_seL4/cfe/fsw/cfe-core/src/es/cfe_es_task.c ****     CFE_ES_PerfLogEntry(CFE_ES_MAIN_PERF_ID);
  29               	.loc 1 185 0
  30 0014 42A7      	clr.l -(%sp)
  31               	.cfi_def_cfa_offset 20
  32 0016 4878 0001 	pea 1.w
  33               	.cfi_def_cfa_offset 24
  34 001a 4EB9 0000 	jsr CFE_ES_PerfLogAdd
68K GAS   			page 5


  34      0000 
  35 0020 508F      	addq.l #8,%sp
  36               	.cfi_def_cfa_offset 16
 186:/home/simulink/cFS_FreeRTOS_seL4/cfe/fsw/cfe-core/src/es/cfe_es_task.c **** 
 187:/home/simulink/cFS_FreeRTOS_seL4/cfe/fsw/cfe-core/src/es/cfe_es_task.c ****     /*
 188:/home/simulink/cFS_FreeRTOS_seL4/cfe/fsw/cfe-core/src/es/cfe_es_task.c ****     ** Perform task specific initialization.
 189:/home/simulink/cFS_FreeRTOS_seL4/cfe/fsw/cfe-core/src/es/cfe_es_task.c ****     */
 190:/home/simulink/cFS_FreeRTOS_seL4/cfe/fsw/cfe-core/src/es/cfe_es_task.c ****     Status = CFE_ES_TaskInit();
  37               	.loc 1 190 0
  38 0022 4EB9 0000 	jsr CFE_ES_TaskInit
  38      0000 
  39 0028 2E80      	move.l %d0,(%sp)
 191:/home/simulink/cFS_FreeRTOS_seL4/cfe/fsw/cfe-core/src/es/cfe_es_task.c ****     if ( Status != CFE_SUCCESS )
  40               	.loc 1 191 0
  41 002a 4A97      	tst.l (%sp)
  42 002c 6718      	jeq .L2
 192:/home/simulink/cFS_FreeRTOS_seL4/cfe/fsw/cfe-core/src/es/cfe_es_task.c ****     {
 193:/home/simulink/cFS_FreeRTOS_seL4/cfe/fsw/cfe-core/src/es/cfe_es_task.c ****        /*
 194:/home/simulink/cFS_FreeRTOS_seL4/cfe/fsw/cfe-core/src/es/cfe_es_task.c ****        ** Create a syslog entry
 195:/home/simulink/cFS_FreeRTOS_seL4/cfe/fsw/cfe-core/src/es/cfe_es_task.c ****        */
 196:/home/simulink/cFS_FreeRTOS_seL4/cfe/fsw/cfe-core/src/es/cfe_es_task.c ****        CFE_ES_WriteToSysLog("ES:Application Init Failed,RC=0x%08X\n", (unsigned int)Status);
  43               	.loc 1 196 0
  44 002e 2017      	move.l (%sp),%d0
  45 0030 2F00      	move.l %d0,-(%sp)
  46               	.cfi_def_cfa_offset 20
  47 0032 4879 0000 	pea .LC0
  47      0000 
  48               	.cfi_def_cfa_offset 24
  49 0038 4EB9 0000 	jsr CFE_ES_WriteToSysLog
  49      0000 
  50 003e 508F      	addq.l #8,%sp
  51               	.cfi_def_cfa_offset 16
 197:/home/simulink/cFS_FreeRTOS_seL4/cfe/fsw/cfe-core/src/es/cfe_es_task.c ****       
 198:/home/simulink/cFS_FreeRTOS_seL4/cfe/fsw/cfe-core/src/es/cfe_es_task.c **** 
 199:/home/simulink/cFS_FreeRTOS_seL4/cfe/fsw/cfe-core/src/es/cfe_es_task.c ****        /*
 200:/home/simulink/cFS_FreeRTOS_seL4/cfe/fsw/cfe-core/src/es/cfe_es_task.c ****        ** Allow Core App to Exit 
 201:/home/simulink/cFS_FreeRTOS_seL4/cfe/fsw/cfe-core/src/es/cfe_es_task.c ****        */
 202:/home/simulink/cFS_FreeRTOS_seL4/cfe/fsw/cfe-core/src/es/cfe_es_task.c ****        AppRunStatus = CFE_ES_RUNSTATUS_CORE_APP_INIT_ERROR;
  52               	.loc 1 202 0
  53 0040 7008      	moveq #8,%d0
  54 0042 2F40 0008 	move.l %d0,8(%sp)
  55               	.L2:
 203:/home/simulink/cFS_FreeRTOS_seL4/cfe/fsw/cfe-core/src/es/cfe_es_task.c ****        
 204:/home/simulink/cFS_FreeRTOS_seL4/cfe/fsw/cfe-core/src/es/cfe_es_task.c ****     } /* end if */
 205:/home/simulink/cFS_FreeRTOS_seL4/cfe/fsw/cfe-core/src/es/cfe_es_task.c **** 
 206:/home/simulink/cFS_FreeRTOS_seL4/cfe/fsw/cfe-core/src/es/cfe_es_task.c ****     /*
 207:/home/simulink/cFS_FreeRTOS_seL4/cfe/fsw/cfe-core/src/es/cfe_es_task.c ****      * Wait for other apps to start.
 208:/home/simulink/cFS_FreeRTOS_seL4/cfe/fsw/cfe-core/src/es/cfe_es_task.c ****      * It is important that the core apps are present before this starts receiving
 209:/home/simulink/cFS_FreeRTOS_seL4/cfe/fsw/cfe-core/src/es/cfe_es_task.c ****      * messages from the command pipe, as some of those handlers might depend on
 210:/home/simulink/cFS_FreeRTOS_seL4/cfe/fsw/cfe-core/src/es/cfe_es_task.c ****      * the other core apps.
 211:/home/simulink/cFS_FreeRTOS_seL4/cfe/fsw/cfe-core/src/es/cfe_es_task.c ****      */
 212:/home/simulink/cFS_FreeRTOS_seL4/cfe/fsw/cfe-core/src/es/cfe_es_task.c ****     CFE_ES_WaitForStartupSync(CFE_CORE_MAX_STARTUP_MSEC);
  56               	.loc 1 212 0
  57 0046 4878 7530 	pea 30000.w
  58               	.cfi_def_cfa_offset 20
  59 004a 4EB9 0000 	jsr CFE_ES_WaitForStartupSync
  59      0000 
68K GAS   			page 6


  60 0050 588F      	addq.l #4,%sp
  61               	.cfi_def_cfa_offset 16
 213:/home/simulink/cFS_FreeRTOS_seL4/cfe/fsw/cfe-core/src/es/cfe_es_task.c **** 
 214:/home/simulink/cFS_FreeRTOS_seL4/cfe/fsw/cfe-core/src/es/cfe_es_task.c ****     /*
 215:/home/simulink/cFS_FreeRTOS_seL4/cfe/fsw/cfe-core/src/es/cfe_es_task.c ****     ** Main process loop
 216:/home/simulink/cFS_FreeRTOS_seL4/cfe/fsw/cfe-core/src/es/cfe_es_task.c ****     */
 217:/home/simulink/cFS_FreeRTOS_seL4/cfe/fsw/cfe-core/src/es/cfe_es_task.c ****     while (AppRunStatus == CFE_ES_RUNSTATUS_APP_RUN)
  62               	.loc 1 217 0
  63 0052 6000 0094 	jra .L3
  64               	.L6:
 218:/home/simulink/cFS_FreeRTOS_seL4/cfe/fsw/cfe-core/src/es/cfe_es_task.c ****     {
 219:/home/simulink/cFS_FreeRTOS_seL4/cfe/fsw/cfe-core/src/es/cfe_es_task.c ****         /*
 220:/home/simulink/cFS_FreeRTOS_seL4/cfe/fsw/cfe-core/src/es/cfe_es_task.c ****         ** Increment the main task execution counter
 221:/home/simulink/cFS_FreeRTOS_seL4/cfe/fsw/cfe-core/src/es/cfe_es_task.c ****         **  This is normally done in the CFE_ES_RunLoop call, but
 222:/home/simulink/cFS_FreeRTOS_seL4/cfe/fsw/cfe-core/src/es/cfe_es_task.c ****         **  currently CFE Child tasks and the cFE core tasks do not
 223:/home/simulink/cFS_FreeRTOS_seL4/cfe/fsw/cfe-core/src/es/cfe_es_task.c ****         **  use the RunLoop call.
 224:/home/simulink/cFS_FreeRTOS_seL4/cfe/fsw/cfe-core/src/es/cfe_es_task.c ****         */
 225:/home/simulink/cFS_FreeRTOS_seL4/cfe/fsw/cfe-core/src/es/cfe_es_task.c ****         CFE_ES_IncrementTaskCounter();
  65               	.loc 1 225 0
  66 0056 4EB9 0000 	jsr CFE_ES_IncrementTaskCounter
  66      0000 
 226:/home/simulink/cFS_FreeRTOS_seL4/cfe/fsw/cfe-core/src/es/cfe_es_task.c ****         
 227:/home/simulink/cFS_FreeRTOS_seL4/cfe/fsw/cfe-core/src/es/cfe_es_task.c ****         /*
 228:/home/simulink/cFS_FreeRTOS_seL4/cfe/fsw/cfe-core/src/es/cfe_es_task.c ****         ** Performance Time Stamp Exit
 229:/home/simulink/cFS_FreeRTOS_seL4/cfe/fsw/cfe-core/src/es/cfe_es_task.c ****         */
 230:/home/simulink/cFS_FreeRTOS_seL4/cfe/fsw/cfe-core/src/es/cfe_es_task.c ****         CFE_ES_PerfLogExit(CFE_ES_MAIN_PERF_ID);
  67               	.loc 1 230 0
  68 005c 4878 0001 	pea 1.w
  69               	.cfi_def_cfa_offset 20
  70 0060 4878 0001 	pea 1.w
  71               	.cfi_def_cfa_offset 24
  72 0064 4EB9 0000 	jsr CFE_ES_PerfLogAdd
  72      0000 
  73 006a 508F      	addq.l #8,%sp
  74               	.cfi_def_cfa_offset 16
 231:/home/simulink/cFS_FreeRTOS_seL4/cfe/fsw/cfe-core/src/es/cfe_es_task.c **** 
 232:/home/simulink/cFS_FreeRTOS_seL4/cfe/fsw/cfe-core/src/es/cfe_es_task.c ****         /*
 233:/home/simulink/cFS_FreeRTOS_seL4/cfe/fsw/cfe-core/src/es/cfe_es_task.c ****         ** Wait for the next Software Bus message.
 234:/home/simulink/cFS_FreeRTOS_seL4/cfe/fsw/cfe-core/src/es/cfe_es_task.c ****         */
 235:/home/simulink/cFS_FreeRTOS_seL4/cfe/fsw/cfe-core/src/es/cfe_es_task.c ****         Status = CFE_SB_RcvMsg(&CFE_ES_TaskData.MsgPtr,
  75               	.loc 1 235 0
  76 006c 222F 0004 	move.l 4(%sp),%d1
 236:/home/simulink/cFS_FreeRTOS_seL4/cfe/fsw/cfe-core/src/es/cfe_es_task.c ****                                   CFE_ES_TaskData.CmdPipe,
  77               	.loc 1 236 0
  78 0070 1039 0000 	move.b CFE_ES_TaskData+676,%d0
  78      0000 
 235:/home/simulink/cFS_FreeRTOS_seL4/cfe/fsw/cfe-core/src/es/cfe_es_task.c ****                                   CFE_ES_TaskData.CmdPipe,
  79               	.loc 1 235 0
  80 0076 1000      	move.b %d0,%d0
  81 0078 0280 0000 	and.l #255,%d0
  81      00FF 
  82 007e 2F01      	move.l %d1,-(%sp)
  83               	.cfi_def_cfa_offset 20
  84 0080 2F00      	move.l %d0,-(%sp)
  85               	.cfi_def_cfa_offset 24
  86 0082 4879 0000 	pea CFE_ES_TaskData+672
  86      0000 
68K GAS   			page 7


  87               	.cfi_def_cfa_offset 28
  88 0088 4EB9 0000 	jsr CFE_SB_RcvMsg
  88      0000 
  89 008e 4FEF 000C 	lea (12,%sp),%sp
  90               	.cfi_def_cfa_offset 16
  91 0092 2E80      	move.l %d0,(%sp)
 237:/home/simulink/cFS_FreeRTOS_seL4/cfe/fsw/cfe-core/src/es/cfe_es_task.c ****                                   TimeOut);
 238:/home/simulink/cFS_FreeRTOS_seL4/cfe/fsw/cfe-core/src/es/cfe_es_task.c **** 
 239:/home/simulink/cFS_FreeRTOS_seL4/cfe/fsw/cfe-core/src/es/cfe_es_task.c ****         /*
 240:/home/simulink/cFS_FreeRTOS_seL4/cfe/fsw/cfe-core/src/es/cfe_es_task.c ****         ** Performance Time Stamp Entry
 241:/home/simulink/cFS_FreeRTOS_seL4/cfe/fsw/cfe-core/src/es/cfe_es_task.c ****         */
 242:/home/simulink/cFS_FreeRTOS_seL4/cfe/fsw/cfe-core/src/es/cfe_es_task.c ****         CFE_ES_PerfLogEntry(CFE_ES_MAIN_PERF_ID);
  92               	.loc 1 242 0
  93 0094 42A7      	clr.l -(%sp)
  94               	.cfi_def_cfa_offset 20
  95 0096 4878 0001 	pea 1.w
  96               	.cfi_def_cfa_offset 24
  97 009a 4EB9 0000 	jsr CFE_ES_PerfLogAdd
  97      0000 
  98 00a0 508F      	addq.l #8,%sp
  99               	.cfi_def_cfa_offset 16
 243:/home/simulink/cFS_FreeRTOS_seL4/cfe/fsw/cfe-core/src/es/cfe_es_task.c **** 
 244:/home/simulink/cFS_FreeRTOS_seL4/cfe/fsw/cfe-core/src/es/cfe_es_task.c ****         /*
 245:/home/simulink/cFS_FreeRTOS_seL4/cfe/fsw/cfe-core/src/es/cfe_es_task.c ****         ** Scan the App table for Application Deletion requests
 246:/home/simulink/cFS_FreeRTOS_seL4/cfe/fsw/cfe-core/src/es/cfe_es_task.c ****         */
 247:/home/simulink/cFS_FreeRTOS_seL4/cfe/fsw/cfe-core/src/es/cfe_es_task.c ****         if ( Status == CFE_SB_TIME_OUT )
 100               	.loc 1 247 0
 101 00a2 203C CA00 	move.l #-905969663,%d0
 101      0001 
 102 00a8 B097      	cmp.l (%sp),%d0
 103 00aa 6608      	jne .L4
 248:/home/simulink/cFS_FreeRTOS_seL4/cfe/fsw/cfe-core/src/es/cfe_es_task.c ****         {
 249:/home/simulink/cFS_FreeRTOS_seL4/cfe/fsw/cfe-core/src/es/cfe_es_task.c ****            CFE_ES_ScanAppTable();
 104               	.loc 1 249 0
 105 00ac 4EB9 0000 	jsr CFE_ES_ScanAppTable
 105      0000 
 106 00b2 6034      	jra .L3
 107               	.L4:
 250:/home/simulink/cFS_FreeRTOS_seL4/cfe/fsw/cfe-core/src/es/cfe_es_task.c ****         }
 251:/home/simulink/cFS_FreeRTOS_seL4/cfe/fsw/cfe-core/src/es/cfe_es_task.c ****         else if (Status == CFE_SUCCESS)
 108               	.loc 1 251 0
 109 00b4 4A97      	tst.l (%sp)
 110 00b6 6618      	jne .L5
 252:/home/simulink/cFS_FreeRTOS_seL4/cfe/fsw/cfe-core/src/es/cfe_es_task.c ****         {
 253:/home/simulink/cFS_FreeRTOS_seL4/cfe/fsw/cfe-core/src/es/cfe_es_task.c ****            /*
 254:/home/simulink/cFS_FreeRTOS_seL4/cfe/fsw/cfe-core/src/es/cfe_es_task.c ****            ** Process Software Bus message.
 255:/home/simulink/cFS_FreeRTOS_seL4/cfe/fsw/cfe-core/src/es/cfe_es_task.c ****            */
 256:/home/simulink/cFS_FreeRTOS_seL4/cfe/fsw/cfe-core/src/es/cfe_es_task.c ****            CFE_ES_TaskPipe(CFE_ES_TaskData.MsgPtr);
 111               	.loc 1 256 0
 112 00b8 2039 0000 	move.l CFE_ES_TaskData+672,%d0
 112      0000 
 113 00be 2F00      	move.l %d0,-(%sp)
 114               	.cfi_def_cfa_offset 20
 115 00c0 4EB9 0000 	jsr CFE_ES_TaskPipe
 115      0000 
 116 00c6 588F      	addq.l #4,%sp
 117               	.cfi_def_cfa_offset 16
68K GAS   			page 8


 257:/home/simulink/cFS_FreeRTOS_seL4/cfe/fsw/cfe-core/src/es/cfe_es_task.c ****            
 258:/home/simulink/cFS_FreeRTOS_seL4/cfe/fsw/cfe-core/src/es/cfe_es_task.c ****            /*
 259:/home/simulink/cFS_FreeRTOS_seL4/cfe/fsw/cfe-core/src/es/cfe_es_task.c ****            ** Scan the App Table for changes after processing a command
 260:/home/simulink/cFS_FreeRTOS_seL4/cfe/fsw/cfe-core/src/es/cfe_es_task.c ****            */
 261:/home/simulink/cFS_FreeRTOS_seL4/cfe/fsw/cfe-core/src/es/cfe_es_task.c ****            CFE_ES_ScanAppTable();
 118               	.loc 1 261 0
 119 00c8 4EB9 0000 	jsr CFE_ES_ScanAppTable
 119      0000 
 120 00ce 6018      	jra .L3
 121               	.L5:
 262:/home/simulink/cFS_FreeRTOS_seL4/cfe/fsw/cfe-core/src/es/cfe_es_task.c ****         }
 263:/home/simulink/cFS_FreeRTOS_seL4/cfe/fsw/cfe-core/src/es/cfe_es_task.c ****         else
 264:/home/simulink/cFS_FreeRTOS_seL4/cfe/fsw/cfe-core/src/es/cfe_es_task.c ****         {
 265:/home/simulink/cFS_FreeRTOS_seL4/cfe/fsw/cfe-core/src/es/cfe_es_task.c ****             /*
 266:/home/simulink/cFS_FreeRTOS_seL4/cfe/fsw/cfe-core/src/es/cfe_es_task.c ****             ** SB Error: Write a SysLog Message 
 267:/home/simulink/cFS_FreeRTOS_seL4/cfe/fsw/cfe-core/src/es/cfe_es_task.c ****             */
 268:/home/simulink/cFS_FreeRTOS_seL4/cfe/fsw/cfe-core/src/es/cfe_es_task.c ****             CFE_ES_WriteToSysLog("ES:Error reading cmd pipe,RC=0x%08X\n",(unsigned int)Status);
 122               	.loc 1 268 0
 123 00d0 2017      	move.l (%sp),%d0
 124 00d2 2F00      	move.l %d0,-(%sp)
 125               	.cfi_def_cfa_offset 20
 126 00d4 4879 0000 	pea .LC1
 126      0000 
 127               	.cfi_def_cfa_offset 24
 128 00da 4EB9 0000 	jsr CFE_ES_WriteToSysLog
 128      0000 
 129 00e0 508F      	addq.l #8,%sp
 130               	.cfi_def_cfa_offset 16
 269:/home/simulink/cFS_FreeRTOS_seL4/cfe/fsw/cfe-core/src/es/cfe_es_task.c **** 
 270:/home/simulink/cFS_FreeRTOS_seL4/cfe/fsw/cfe-core/src/es/cfe_es_task.c ****             /*
 271:/home/simulink/cFS_FreeRTOS_seL4/cfe/fsw/cfe-core/src/es/cfe_es_task.c ****             ** Allow Core App to Exit 
 272:/home/simulink/cFS_FreeRTOS_seL4/cfe/fsw/cfe-core/src/es/cfe_es_task.c ****             */
 273:/home/simulink/cFS_FreeRTOS_seL4/cfe/fsw/cfe-core/src/es/cfe_es_task.c ****             AppRunStatus = CFE_ES_RUNSTATUS_CORE_APP_RUNTIME_ERROR;
 131               	.loc 1 273 0
 132 00e2 7009      	moveq #9,%d0
 133 00e4 2F40 0008 	move.l %d0,8(%sp)
 134               	.L3:
 217:/home/simulink/cFS_FreeRTOS_seL4/cfe/fsw/cfe-core/src/es/cfe_es_task.c ****     {
 135               	.loc 1 217 0
 136 00e8 7001      	moveq #1,%d0
 137 00ea B0AF 0008 	cmp.l 8(%sp),%d0
 138 00ee 6700 FF66 	jeq .L6
 274:/home/simulink/cFS_FreeRTOS_seL4/cfe/fsw/cfe-core/src/es/cfe_es_task.c **** 
 275:/home/simulink/cFS_FreeRTOS_seL4/cfe/fsw/cfe-core/src/es/cfe_es_task.c ****         }  /* end if */
 276:/home/simulink/cFS_FreeRTOS_seL4/cfe/fsw/cfe-core/src/es/cfe_es_task.c ****         
 277:/home/simulink/cFS_FreeRTOS_seL4/cfe/fsw/cfe-core/src/es/cfe_es_task.c ****     } /* end while */    
 278:/home/simulink/cFS_FreeRTOS_seL4/cfe/fsw/cfe-core/src/es/cfe_es_task.c ****     
 279:/home/simulink/cFS_FreeRTOS_seL4/cfe/fsw/cfe-core/src/es/cfe_es_task.c ****     /*
 280:/home/simulink/cFS_FreeRTOS_seL4/cfe/fsw/cfe-core/src/es/cfe_es_task.c ****     ** Performance Time Stamp Exit
 281:/home/simulink/cFS_FreeRTOS_seL4/cfe/fsw/cfe-core/src/es/cfe_es_task.c ****     */
 282:/home/simulink/cFS_FreeRTOS_seL4/cfe/fsw/cfe-core/src/es/cfe_es_task.c ****     CFE_ES_PerfLogExit(CFE_ES_MAIN_PERF_ID);
 139               	.loc 1 282 0
 140 00f2 4878 0001 	pea 1.w
 141               	.cfi_def_cfa_offset 20
 142 00f6 4878 0001 	pea 1.w
 143               	.cfi_def_cfa_offset 24
 144 00fa 4EB9 0000 	jsr CFE_ES_PerfLogAdd
68K GAS   			page 9


 144      0000 
 145 0100 508F      	addq.l #8,%sp
 146               	.cfi_def_cfa_offset 16
 283:/home/simulink/cFS_FreeRTOS_seL4/cfe/fsw/cfe-core/src/es/cfe_es_task.c ****        
 284:/home/simulink/cFS_FreeRTOS_seL4/cfe/fsw/cfe-core/src/es/cfe_es_task.c ****     /*
 285:/home/simulink/cFS_FreeRTOS_seL4/cfe/fsw/cfe-core/src/es/cfe_es_task.c ****     ** Exit the application, CFE_ES_ExitApp will not return.
 286:/home/simulink/cFS_FreeRTOS_seL4/cfe/fsw/cfe-core/src/es/cfe_es_task.c ****     */
 287:/home/simulink/cFS_FreeRTOS_seL4/cfe/fsw/cfe-core/src/es/cfe_es_task.c ****     CFE_ES_ExitApp(AppRunStatus);
 147               	.loc 1 287 0
 148 0102 2F2F 0008 	move.l 8(%sp),-(%sp)
 149               	.cfi_def_cfa_offset 20
 150 0106 4EB9 0000 	jsr CFE_ES_ExitApp
 150      0000 
 151 010c 588F      	addq.l #4,%sp
 152               	.cfi_def_cfa_offset 16
 288:/home/simulink/cFS_FreeRTOS_seL4/cfe/fsw/cfe-core/src/es/cfe_es_task.c **** 
 289:/home/simulink/cFS_FreeRTOS_seL4/cfe/fsw/cfe-core/src/es/cfe_es_task.c **** } /* End of CFE_ES_TaskMain() */
 153               	.loc 1 289 0
 154 010e 4E71      	nop
 155 0110 4FEF 000C 	lea (12,%sp),%sp
 156 0114 4E75      	rts
 157               	.cfi_endproc
 158               	.LFE59:
 159               	.sizeCFE_ES_TaskMain, .-CFE_ES_TaskMain
 160               	.section.rodata
 161               	.LC2:
 162 004b 4553 3A43 	.string"ES:Call to CFE_ES_RegisterApp Failed, RC = 0x%08X\n"
 162      616C 6C20 
 162      746F 2043 
 162      4645 5F45 
 162      535F 5265 
 163               	.LC3:
 164 007e 4553 3A43 	.string"ES:Call to CFE_EVS_Register Failed, RC = 0x%08X\n"
 164      616C 6C20 
 164      746F 2043 
 164      4645 5F45 
 164      5653 5F52 
 165               	.LC4:
 166 00af 4553 3A43 	.string"ES:Cannot Create SB Pipe, RC = 0x%08X\n"
 166      616E 6E6F 
 166      7420 4372 
 166      6561 7465 
 166      2053 4220 
 167               	.LC5:
 168 00d6 4553 3A43 	.string"ES:Cannot Subscribe to HK packet, RC = 0x%08X\n"
 168      616E 6E6F 
 168      7420 5375 
 168      6273 6372 
 168      6962 6520 
 169               	.LC6:
 170 0105 4553 3A43 	.string"ES:Cannot Subscribe to ES ground commands, RC = 0x%08X\n"
 170      616E 6E6F 
 170      7420 5375 
 170      6273 6372 
 170      6962 6520 
 171               	.LC7:
 172 013d 6346 4520 	.string"cFE ES Initialized"
68K GAS   			page 10


 172      4553 2049 
 172      6E69 7469 
 172      616C 697A 
 172      6564 00
 173               	.LC8:
 174 0150 4553 3A45 	.string"ES:Error sending init event:RC=0x%08X\n"
 174      7272 6F72 
 174      2073 656E 
 174      6469 6E67 
 174      2069 6E69 
 175               	.LC9:
 176 0177 5665 7273 	.string"Versions:cFE %d.%d.%d.%d, OSAL %d.%d.%d.%d, PSP %d.%d.%d.%d, chksm %d"
 176      696F 6E73 
 176      3A63 4645 
 176      2025 642E 
 176      2564 2E25 
 177               	.LC10:
 178 01bd 4553 3A45 	.string"ES:Error sending version event:RC=0x%08X\n"
 178      7272 6F72 
 178      2073 656E 
 178      6469 6E67 
 178      2076 6572 
 179               	.text
 180               	.align2
 181               	.globlCFE_ES_TaskInit
 182               	.typeCFE_ES_TaskInit, @function
 183               	CFE_ES_TaskInit:
 184               	.LFB60:
 290:/home/simulink/cFS_FreeRTOS_seL4/cfe/fsw/cfe-core/src/es/cfe_es_task.c **** 
 291:/home/simulink/cFS_FreeRTOS_seL4/cfe/fsw/cfe-core/src/es/cfe_es_task.c **** 
 292:/home/simulink/cFS_FreeRTOS_seL4/cfe/fsw/cfe-core/src/es/cfe_es_task.c **** /* * * * * * * * * * * * * * * * * * * * * * * * * * * * * * * * * */
 293:/home/simulink/cFS_FreeRTOS_seL4/cfe/fsw/cfe-core/src/es/cfe_es_task.c **** /*                                                                 */
 294:/home/simulink/cFS_FreeRTOS_seL4/cfe/fsw/cfe-core/src/es/cfe_es_task.c **** /* CFE_ES_TaskInit() -- ES task initialization                     */
 295:/home/simulink/cFS_FreeRTOS_seL4/cfe/fsw/cfe-core/src/es/cfe_es_task.c **** /*                                                                 */
 296:/home/simulink/cFS_FreeRTOS_seL4/cfe/fsw/cfe-core/src/es/cfe_es_task.c **** /* * * * * * * * * * * * * * * * * * * * * * * * * * * * * * * * * */
 297:/home/simulink/cFS_FreeRTOS_seL4/cfe/fsw/cfe-core/src/es/cfe_es_task.c **** 
 298:/home/simulink/cFS_FreeRTOS_seL4/cfe/fsw/cfe-core/src/es/cfe_es_task.c **** int32 CFE_ES_TaskInit(void)
 299:/home/simulink/cFS_FreeRTOS_seL4/cfe/fsw/cfe-core/src/es/cfe_es_task.c **** {
 185               	.loc 1 299 0
 186               	.cfi_startproc
 187 0116 4FEF FFF4 	lea (-12,%sp),%sp
 188               	.cfi_def_cfa_offset 16
 300:/home/simulink/cFS_FreeRTOS_seL4/cfe/fsw/cfe-core/src/es/cfe_es_task.c ****     int32   Status;
 301:/home/simulink/cFS_FreeRTOS_seL4/cfe/fsw/cfe-core/src/es/cfe_es_task.c ****     uint32  SizeofCfeSegment;
 302:/home/simulink/cFS_FreeRTOS_seL4/cfe/fsw/cfe-core/src/es/cfe_es_task.c ****     cpuaddr CfeSegmentAddr;
 303:/home/simulink/cFS_FreeRTOS_seL4/cfe/fsw/cfe-core/src/es/cfe_es_task.c **** 
 304:/home/simulink/cFS_FreeRTOS_seL4/cfe/fsw/cfe-core/src/es/cfe_es_task.c ****     /*
 305:/home/simulink/cFS_FreeRTOS_seL4/cfe/fsw/cfe-core/src/es/cfe_es_task.c ****     ** Register the Application
 306:/home/simulink/cFS_FreeRTOS_seL4/cfe/fsw/cfe-core/src/es/cfe_es_task.c ****     */
 307:/home/simulink/cFS_FreeRTOS_seL4/cfe/fsw/cfe-core/src/es/cfe_es_task.c ****     Status = CFE_ES_RegisterApp();
 189               	.loc 1 307 0
 190 011a 4EB9 0000 	jsr CFE_ES_RegisterApp
 190      0000 
 191 0120 2F40 0008 	move.l %d0,8(%sp)
 308:/home/simulink/cFS_FreeRTOS_seL4/cfe/fsw/cfe-core/src/es/cfe_es_task.c ****     if ( Status != CFE_SUCCESS )
 192               	.loc 1 308 0
 193 0124 4AAF 0008 	tst.l 8(%sp)
68K GAS   			page 11


 194 0128 671C      	jeq .L8
 309:/home/simulink/cFS_FreeRTOS_seL4/cfe/fsw/cfe-core/src/es/cfe_es_task.c ****     {
 310:/home/simulink/cFS_FreeRTOS_seL4/cfe/fsw/cfe-core/src/es/cfe_es_task.c ****         CFE_ES_WriteToSysLog("ES:Call to CFE_ES_RegisterApp Failed, RC = 0x%08X\n", (unsigned int)S
 195               	.loc 1 310 0
 196 012a 202F 0008 	move.l 8(%sp),%d0
 197 012e 2F00      	move.l %d0,-(%sp)
 198               	.cfi_def_cfa_offset 20
 199 0130 4879 0000 	pea .LC2
 199      0000 
 200               	.cfi_def_cfa_offset 24
 201 0136 4EB9 0000 	jsr CFE_ES_WriteToSysLog
 201      0000 
 202 013c 508F      	addq.l #8,%sp
 203               	.cfi_def_cfa_offset 16
 311:/home/simulink/cFS_FreeRTOS_seL4/cfe/fsw/cfe-core/src/es/cfe_es_task.c ****         return(Status);
 204               	.loc 1 311 0
 205 013e 202F 0008 	move.l 8(%sp),%d0
 206 0142 6000 0330 	jra .L18
 207               	.L8:
 312:/home/simulink/cFS_FreeRTOS_seL4/cfe/fsw/cfe-core/src/es/cfe_es_task.c ****     }    
 313:/home/simulink/cFS_FreeRTOS_seL4/cfe/fsw/cfe-core/src/es/cfe_es_task.c **** 
 314:/home/simulink/cFS_FreeRTOS_seL4/cfe/fsw/cfe-core/src/es/cfe_es_task.c ****     /*
 315:/home/simulink/cFS_FreeRTOS_seL4/cfe/fsw/cfe-core/src/es/cfe_es_task.c ****     ** Initialize task command execution counters
 316:/home/simulink/cFS_FreeRTOS_seL4/cfe/fsw/cfe-core/src/es/cfe_es_task.c ****     */
 317:/home/simulink/cFS_FreeRTOS_seL4/cfe/fsw/cfe-core/src/es/cfe_es_task.c ****     CFE_ES_TaskData.CmdCounter = 0;
 208               	.loc 1 317 0
 209 0146 4200      	clr.b %d0
 210 0148 13C0 0000 	move.b %d0,CFE_ES_TaskData
 210      0000 
 318:/home/simulink/cFS_FreeRTOS_seL4/cfe/fsw/cfe-core/src/es/cfe_es_task.c ****     CFE_ES_TaskData.ErrCounter = 0;
 211               	.loc 1 318 0
 212 014e 4200      	clr.b %d0
 213 0150 13C0 0000 	move.b %d0,CFE_ES_TaskData+1
 213      0000 
 319:/home/simulink/cFS_FreeRTOS_seL4/cfe/fsw/cfe-core/src/es/cfe_es_task.c **** 
 320:/home/simulink/cFS_FreeRTOS_seL4/cfe/fsw/cfe-core/src/es/cfe_es_task.c ****     /*
 321:/home/simulink/cFS_FreeRTOS_seL4/cfe/fsw/cfe-core/src/es/cfe_es_task.c ****     ** Initialize task configuration data
 322:/home/simulink/cFS_FreeRTOS_seL4/cfe/fsw/cfe-core/src/es/cfe_es_task.c ****     */
 323:/home/simulink/cFS_FreeRTOS_seL4/cfe/fsw/cfe-core/src/es/cfe_es_task.c ****     strcpy(CFE_ES_TaskData.PipeName, "ES_CMD_PIPE");
 214               	.loc 1 323 0
 215 0156 41F9 0000 	lea CFE_ES_TaskData+677,%a0
 215      0000 
 216 015c 20BC 4553 	move.l #1163091779,(%a0)
 216      5F43 
 217 0162 5888      	addq.l #4,%a0
 218 0164 20BC 4D44 	move.l #1296326480,(%a0)
 218      5F50 
 219 016a 5888      	addq.l #4,%a0
 220 016c 20BC 4950 	move.l #1229997312,(%a0)
 220      4500 
 221 0172 5888      	addq.l #4,%a0
 324:/home/simulink/cFS_FreeRTOS_seL4/cfe/fsw/cfe-core/src/es/cfe_es_task.c ****     CFE_ES_TaskData.PipeDepth = 12;
 222               	.loc 1 324 0
 223 0174 700C      	moveq #12,%d0
 224 0176 33C0 0000 	move.w %d0,CFE_ES_TaskData+698
 224      0000 
 325:/home/simulink/cFS_FreeRTOS_seL4/cfe/fsw/cfe-core/src/es/cfe_es_task.c **** 
68K GAS   			page 12


 326:/home/simulink/cFS_FreeRTOS_seL4/cfe/fsw/cfe-core/src/es/cfe_es_task.c ****     CFE_ES_TaskData.LimitHK   = 2;
 225               	.loc 1 326 0
 226 017c 7002      	moveq #2,%d0
 227 017e 13C0 0000 	move.b %d0,CFE_ES_TaskData+700
 227      0000 
 327:/home/simulink/cFS_FreeRTOS_seL4/cfe/fsw/cfe-core/src/es/cfe_es_task.c ****     CFE_ES_TaskData.LimitCmd  = 4;
 228               	.loc 1 327 0
 229 0184 7004      	moveq #4,%d0
 230 0186 13C0 0000 	move.b %d0,CFE_ES_TaskData+701
 230      0000 
 328:/home/simulink/cFS_FreeRTOS_seL4/cfe/fsw/cfe-core/src/es/cfe_es_task.c ****     
 329:/home/simulink/cFS_FreeRTOS_seL4/cfe/fsw/cfe-core/src/es/cfe_es_task.c ****     /*
 330:/home/simulink/cFS_FreeRTOS_seL4/cfe/fsw/cfe-core/src/es/cfe_es_task.c ****     ** Initialize systemlog to default mode
 331:/home/simulink/cFS_FreeRTOS_seL4/cfe/fsw/cfe-core/src/es/cfe_es_task.c ****     */
 332:/home/simulink/cFS_FreeRTOS_seL4/cfe/fsw/cfe-core/src/es/cfe_es_task.c ****     CFE_ES_ResetDataPtr->SystemLogMode = CFE_ES_DEFAULT_SYSLOG_MODE;
 231               	.loc 1 332 0
 232 018c 2079 0000 	move.l CFE_ES_ResetDataPtr,%a0
 232      0000 
 233 0192 7001      	moveq #1,%d0
 234 0194 2140 20B0 	move.l %d0,8368(%a0)
 333:/home/simulink/cFS_FreeRTOS_seL4/cfe/fsw/cfe-core/src/es/cfe_es_task.c **** 
 334:/home/simulink/cFS_FreeRTOS_seL4/cfe/fsw/cfe-core/src/es/cfe_es_task.c ****     /*
 335:/home/simulink/cFS_FreeRTOS_seL4/cfe/fsw/cfe-core/src/es/cfe_es_task.c ****     ** Register event filter table.
 336:/home/simulink/cFS_FreeRTOS_seL4/cfe/fsw/cfe-core/src/es/cfe_es_task.c ****     */
 337:/home/simulink/cFS_FreeRTOS_seL4/cfe/fsw/cfe-core/src/es/cfe_es_task.c ****     Status = CFE_EVS_Register(NULL,0,CFE_EVS_BINARY_FILTER);
 235               	.loc 1 337 0
 236 0198 42A7      	clr.l -(%sp)
 237               	.cfi_def_cfa_offset 20
 238 019a 42A7      	clr.l -(%sp)
 239               	.cfi_def_cfa_offset 24
 240 019c 42A7      	clr.l -(%sp)
 241               	.cfi_def_cfa_offset 28
 242 019e 4EB9 0000 	jsr CFE_EVS_Register
 242      0000 
 243 01a4 4FEF 000C 	lea (12,%sp),%sp
 244               	.cfi_def_cfa_offset 16
 245 01a8 2F40 0008 	move.l %d0,8(%sp)
 338:/home/simulink/cFS_FreeRTOS_seL4/cfe/fsw/cfe-core/src/es/cfe_es_task.c ****     if ( Status != CFE_SUCCESS )
 246               	.loc 1 338 0
 247 01ac 4AAF 0008 	tst.l 8(%sp)
 248 01b0 671C      	jeq .L10
 339:/home/simulink/cFS_FreeRTOS_seL4/cfe/fsw/cfe-core/src/es/cfe_es_task.c ****     {
 340:/home/simulink/cFS_FreeRTOS_seL4/cfe/fsw/cfe-core/src/es/cfe_es_task.c ****         CFE_ES_WriteToSysLog("ES:Call to CFE_EVS_Register Failed, RC = 0x%08X\n", (unsigned int)Sta
 249               	.loc 1 340 0
 250 01b2 202F 0008 	move.l 8(%sp),%d0
 251 01b6 2F00      	move.l %d0,-(%sp)
 252               	.cfi_def_cfa_offset 20
 253 01b8 4879 0000 	pea .LC3
 253      0000 
 254               	.cfi_def_cfa_offset 24
 255 01be 4EB9 0000 	jsr CFE_ES_WriteToSysLog
 255      0000 
 256 01c4 508F      	addq.l #8,%sp
 257               	.cfi_def_cfa_offset 16
 341:/home/simulink/cFS_FreeRTOS_seL4/cfe/fsw/cfe-core/src/es/cfe_es_task.c ****         return(Status);
 258               	.loc 1 341 0
 259 01c6 202F 0008 	move.l 8(%sp),%d0
68K GAS   			page 13


 260 01ca 6000 02A8 	jra .L18
 261               	.L10:
 342:/home/simulink/cFS_FreeRTOS_seL4/cfe/fsw/cfe-core/src/es/cfe_es_task.c ****     }
 343:/home/simulink/cFS_FreeRTOS_seL4/cfe/fsw/cfe-core/src/es/cfe_es_task.c **** 
 344:/home/simulink/cFS_FreeRTOS_seL4/cfe/fsw/cfe-core/src/es/cfe_es_task.c ****     /*
 345:/home/simulink/cFS_FreeRTOS_seL4/cfe/fsw/cfe-core/src/es/cfe_es_task.c ****     ** Initialize housekeeping packet (clear user data area)
 346:/home/simulink/cFS_FreeRTOS_seL4/cfe/fsw/cfe-core/src/es/cfe_es_task.c ****     */
 347:/home/simulink/cFS_FreeRTOS_seL4/cfe/fsw/cfe-core/src/es/cfe_es_task.c ****     CFE_SB_InitMsg(&CFE_ES_TaskData.HkPacket, CFE_ES_HK_TLM_MID, sizeof(CFE_ES_HkPacket_t), TRUE);
 262               	.loc 1 347 0
 263 01ce 4878 0001 	pea 1.w
 264               	.cfi_def_cfa_offset 20
 265 01d2 4878 009C 	pea 156.w
 266               	.cfi_def_cfa_offset 24
 267 01d6 4878 0800 	pea 2048.w
 268               	.cfi_def_cfa_offset 28
 269 01da 4879 0000 	pea CFE_ES_TaskData+4
 269      0000 
 270               	.cfi_def_cfa_offset 32
 271 01e0 4EB9 0000 	jsr CFE_SB_InitMsg
 271      0000 
 272 01e6 4FEF 0010 	lea (16,%sp),%sp
 273               	.cfi_def_cfa_offset 16
 348:/home/simulink/cFS_FreeRTOS_seL4/cfe/fsw/cfe-core/src/es/cfe_es_task.c **** 
 349:/home/simulink/cFS_FreeRTOS_seL4/cfe/fsw/cfe-core/src/es/cfe_es_task.c ****     /*
 350:/home/simulink/cFS_FreeRTOS_seL4/cfe/fsw/cfe-core/src/es/cfe_es_task.c ****     ** Initialize shell output packet (clear user data area)
 351:/home/simulink/cFS_FreeRTOS_seL4/cfe/fsw/cfe-core/src/es/cfe_es_task.c ****     */
 352:/home/simulink/cFS_FreeRTOS_seL4/cfe/fsw/cfe-core/src/es/cfe_es_task.c ****     CFE_SB_InitMsg(&CFE_ES_TaskData.ShellPacket, CFE_ES_SHELL_TLM_MID, sizeof(CFE_ES_ShellPacket_t)
 274               	.loc 1 352 0
 275 01ea 4878 0001 	pea 1.w
 276               	.cfi_def_cfa_offset 20
 277 01ee 4878 004C 	pea 76.w
 278               	.cfi_def_cfa_offset 24
 279 01f2 4878 080F 	pea 2063.w
 280               	.cfi_def_cfa_offset 28
 281 01f6 4879 0000 	pea CFE_ES_TaskData+160
 281      0000 
 282               	.cfi_def_cfa_offset 32
 283 01fc 4EB9 0000 	jsr CFE_SB_InitMsg
 283      0000 
 284 0202 4FEF 0010 	lea (16,%sp),%sp
 285               	.cfi_def_cfa_offset 16
 353:/home/simulink/cFS_FreeRTOS_seL4/cfe/fsw/cfe-core/src/es/cfe_es_task.c **** 
 354:/home/simulink/cFS_FreeRTOS_seL4/cfe/fsw/cfe-core/src/es/cfe_es_task.c ****     /*
 355:/home/simulink/cFS_FreeRTOS_seL4/cfe/fsw/cfe-core/src/es/cfe_es_task.c ****     ** Initialize single application telemetry packet
 356:/home/simulink/cFS_FreeRTOS_seL4/cfe/fsw/cfe-core/src/es/cfe_es_task.c ****     */
 357:/home/simulink/cFS_FreeRTOS_seL4/cfe/fsw/cfe-core/src/es/cfe_es_task.c ****     CFE_SB_InitMsg(&CFE_ES_TaskData.OneAppPacket, CFE_ES_APP_TLM_MID, sizeof(CFE_ES_OneAppTlm_t), T
 286               	.loc 1 357 0
 287 0206 4878 0001 	pea 1.w
 288               	.cfi_def_cfa_offset 20
 289 020a 4878 00C8 	pea 200.w
 290               	.cfi_def_cfa_offset 24
 291 020e 4878 080B 	pea 2059.w
 292               	.cfi_def_cfa_offset 28
 293 0212 4879 0000 	pea CFE_ES_TaskData+236
 293      0000 
 294               	.cfi_def_cfa_offset 32
 295 0218 4EB9 0000 	jsr CFE_SB_InitMsg
68K GAS   			page 14


 295      0000 
 296 021e 4FEF 0010 	lea (16,%sp),%sp
 297               	.cfi_def_cfa_offset 16
 358:/home/simulink/cFS_FreeRTOS_seL4/cfe/fsw/cfe-core/src/es/cfe_es_task.c **** 
 359:/home/simulink/cFS_FreeRTOS_seL4/cfe/fsw/cfe-core/src/es/cfe_es_task.c ****     /*
 360:/home/simulink/cFS_FreeRTOS_seL4/cfe/fsw/cfe-core/src/es/cfe_es_task.c ****     ** Initialize memory pool statistics telemetry packet
 361:/home/simulink/cFS_FreeRTOS_seL4/cfe/fsw/cfe-core/src/es/cfe_es_task.c ****     */
 362:/home/simulink/cFS_FreeRTOS_seL4/cfe/fsw/cfe-core/src/es/cfe_es_task.c ****     CFE_SB_InitMsg(&CFE_ES_TaskData.MemStatsPacket, CFE_ES_MEMSTATS_TLM_MID, 
 298               	.loc 1 362 0
 299 0222 4878 0001 	pea 1.w
 300               	.cfi_def_cfa_offset 20
 301 0226 4878 00EC 	pea 236.w
 302               	.cfi_def_cfa_offset 24
 303 022a 4878 0810 	pea 2064.w
 304               	.cfi_def_cfa_offset 28
 305 022e 4879 0000 	pea CFE_ES_TaskData+436
 305      0000 
 306               	.cfi_def_cfa_offset 32
 307 0234 4EB9 0000 	jsr CFE_SB_InitMsg
 307      0000 
 308 023a 4FEF 0010 	lea (16,%sp),%sp
 309               	.cfi_def_cfa_offset 16
 363:/home/simulink/cFS_FreeRTOS_seL4/cfe/fsw/cfe-core/src/es/cfe_es_task.c ****                    sizeof(CFE_ES_PoolStatsTlm_t), TRUE);
 364:/home/simulink/cFS_FreeRTOS_seL4/cfe/fsw/cfe-core/src/es/cfe_es_task.c **** 
 365:/home/simulink/cFS_FreeRTOS_seL4/cfe/fsw/cfe-core/src/es/cfe_es_task.c ****     /*
 366:/home/simulink/cFS_FreeRTOS_seL4/cfe/fsw/cfe-core/src/es/cfe_es_task.c ****     ** Create Software Bus message pipe
 367:/home/simulink/cFS_FreeRTOS_seL4/cfe/fsw/cfe-core/src/es/cfe_es_task.c ****     */
 368:/home/simulink/cFS_FreeRTOS_seL4/cfe/fsw/cfe-core/src/es/cfe_es_task.c ****     Status = CFE_SB_CreatePipe(&CFE_ES_TaskData.CmdPipe, CFE_ES_TaskData.PipeDepth, CFE_ES_TaskData
 310               	.loc 1 368 0
 311 023e 3039 0000 	move.w CFE_ES_TaskData+698,%d0
 311      0000 
 312 0244 3000      	move.w %d0,%d0
 313 0246 0280 0000 	and.l #65535,%d0
 313      FFFF 
 314 024c 4879 0000 	pea CFE_ES_TaskData+677
 314      0000 
 315               	.cfi_def_cfa_offset 20
 316 0252 2F00      	move.l %d0,-(%sp)
 317               	.cfi_def_cfa_offset 24
 318 0254 4879 0000 	pea CFE_ES_TaskData+676
 318      0000 
 319               	.cfi_def_cfa_offset 28
 320 025a 4EB9 0000 	jsr CFE_SB_CreatePipe
 320      0000 
 321 0260 4FEF 000C 	lea (12,%sp),%sp
 322               	.cfi_def_cfa_offset 16
 323 0264 2F40 0008 	move.l %d0,8(%sp)
 369:/home/simulink/cFS_FreeRTOS_seL4/cfe/fsw/cfe-core/src/es/cfe_es_task.c ****     if ( Status != CFE_SUCCESS )
 324               	.loc 1 369 0
 325 0268 4AAF 0008 	tst.l 8(%sp)
 326 026c 671C      	jeq .L11
 370:/home/simulink/cFS_FreeRTOS_seL4/cfe/fsw/cfe-core/src/es/cfe_es_task.c ****     {
 371:/home/simulink/cFS_FreeRTOS_seL4/cfe/fsw/cfe-core/src/es/cfe_es_task.c ****         CFE_ES_WriteToSysLog("ES:Cannot Create SB Pipe, RC = 0x%08X\n", (unsigned int)Status);
 327               	.loc 1 371 0
 328 026e 202F 0008 	move.l 8(%sp),%d0
 329 0272 2F00      	move.l %d0,-(%sp)
 330               	.cfi_def_cfa_offset 20
68K GAS   			page 15


 331 0274 4879 0000 	pea .LC4
 331      0000 
 332               	.cfi_def_cfa_offset 24
 333 027a 4EB9 0000 	jsr CFE_ES_WriteToSysLog
 333      0000 
 334 0280 508F      	addq.l #8,%sp
 335               	.cfi_def_cfa_offset 16
 372:/home/simulink/cFS_FreeRTOS_seL4/cfe/fsw/cfe-core/src/es/cfe_es_task.c ****         return(Status);
 336               	.loc 1 372 0
 337 0282 202F 0008 	move.l 8(%sp),%d0
 338 0286 6000 01EC 	jra .L18
 339               	.L11:
 373:/home/simulink/cFS_FreeRTOS_seL4/cfe/fsw/cfe-core/src/es/cfe_es_task.c ****     }
 374:/home/simulink/cFS_FreeRTOS_seL4/cfe/fsw/cfe-core/src/es/cfe_es_task.c ****     
 375:/home/simulink/cFS_FreeRTOS_seL4/cfe/fsw/cfe-core/src/es/cfe_es_task.c ****     /*
 376:/home/simulink/cFS_FreeRTOS_seL4/cfe/fsw/cfe-core/src/es/cfe_es_task.c ****     ** Subscribe to Housekeeping request commands
 377:/home/simulink/cFS_FreeRTOS_seL4/cfe/fsw/cfe-core/src/es/cfe_es_task.c ****     */
 378:/home/simulink/cFS_FreeRTOS_seL4/cfe/fsw/cfe-core/src/es/cfe_es_task.c ****     Status = CFE_SB_SubscribeEx(CFE_ES_SEND_HK_MID, CFE_ES_TaskData.CmdPipe,
 379:/home/simulink/cFS_FreeRTOS_seL4/cfe/fsw/cfe-core/src/es/cfe_es_task.c ****                                 CFE_SB_Default_Qos, CFE_ES_TaskData.LimitHK);
 340               	.loc 1 379 0
 341 028a 1039 0000 	move.b CFE_ES_TaskData+700,%d0
 341      0000 
 378:/home/simulink/cFS_FreeRTOS_seL4/cfe/fsw/cfe-core/src/es/cfe_es_task.c ****                                 CFE_SB_Default_Qos, CFE_ES_TaskData.LimitHK);
 342               	.loc 1 378 0
 343 0290 4281      	clr.l %d1
 344 0292 1200      	move.b %d0,%d1
 345 0294 1039 0000 	move.b CFE_ES_TaskData+676,%d0
 345      0000 
 346 029a 1000      	move.b %d0,%d0
 347 029c 0280 0000 	and.l #255,%d0
 347      00FF 
 348 02a2 2F01      	move.l %d1,-(%sp)
 349               	.cfi_def_cfa_offset 20
 350 02a4 3F39 0000 	move.w CFE_SB_Default_Qos,-(%sp)
 350      0000 
 351               	.cfi_def_cfa_offset 22
 352 02aa 558F      	subq.l #2,%sp
 353               	.cfi_def_cfa_offset 24
 354 02ac 2F00      	move.l %d0,-(%sp)
 355               	.cfi_def_cfa_offset 28
 356 02ae 4878 1808 	pea 6152.w
 357               	.cfi_def_cfa_offset 32
 358 02b2 4EB9 0000 	jsr CFE_SB_SubscribeEx
 358      0000 
 359 02b8 4FEF 0010 	lea (16,%sp),%sp
 360               	.cfi_def_cfa_offset 16
 361 02bc 2F40 0008 	move.l %d0,8(%sp)
 380:/home/simulink/cFS_FreeRTOS_seL4/cfe/fsw/cfe-core/src/es/cfe_es_task.c ****     if ( Status != CFE_SUCCESS )
 362               	.loc 1 380 0
 363 02c0 4AAF 0008 	tst.l 8(%sp)
 364 02c4 671C      	jeq .L12
 381:/home/simulink/cFS_FreeRTOS_seL4/cfe/fsw/cfe-core/src/es/cfe_es_task.c ****     {
 382:/home/simulink/cFS_FreeRTOS_seL4/cfe/fsw/cfe-core/src/es/cfe_es_task.c ****         CFE_ES_WriteToSysLog("ES:Cannot Subscribe to HK packet, RC = 0x%08X\n", (unsigned int)Statu
 365               	.loc 1 382 0
 366 02c6 202F 0008 	move.l 8(%sp),%d0
 367 02ca 2F00      	move.l %d0,-(%sp)
 368               	.cfi_def_cfa_offset 20
68K GAS   			page 16


 369 02cc 4879 0000 	pea .LC5
 369      0000 
 370               	.cfi_def_cfa_offset 24
 371 02d2 4EB9 0000 	jsr CFE_ES_WriteToSysLog
 371      0000 
 372 02d8 508F      	addq.l #8,%sp
 373               	.cfi_def_cfa_offset 16
 383:/home/simulink/cFS_FreeRTOS_seL4/cfe/fsw/cfe-core/src/es/cfe_es_task.c ****         return(Status);
 374               	.loc 1 383 0
 375 02da 202F 0008 	move.l 8(%sp),%d0
 376 02de 6000 0194 	jra .L18
 377               	.L12:
 384:/home/simulink/cFS_FreeRTOS_seL4/cfe/fsw/cfe-core/src/es/cfe_es_task.c ****     }
 385:/home/simulink/cFS_FreeRTOS_seL4/cfe/fsw/cfe-core/src/es/cfe_es_task.c **** 
 386:/home/simulink/cFS_FreeRTOS_seL4/cfe/fsw/cfe-core/src/es/cfe_es_task.c ****     /*
 387:/home/simulink/cFS_FreeRTOS_seL4/cfe/fsw/cfe-core/src/es/cfe_es_task.c ****     ** Subscribe to ES task ground command packets
 388:/home/simulink/cFS_FreeRTOS_seL4/cfe/fsw/cfe-core/src/es/cfe_es_task.c ****     */
 389:/home/simulink/cFS_FreeRTOS_seL4/cfe/fsw/cfe-core/src/es/cfe_es_task.c ****     Status = CFE_SB_SubscribeEx(CFE_ES_CMD_MID, CFE_ES_TaskData.CmdPipe,
 390:/home/simulink/cFS_FreeRTOS_seL4/cfe/fsw/cfe-core/src/es/cfe_es_task.c ****                        CFE_SB_Default_Qos, CFE_ES_TaskData.LimitCmd);
 378               	.loc 1 390 0
 379 02e2 1039 0000 	move.b CFE_ES_TaskData+701,%d0
 379      0000 
 389:/home/simulink/cFS_FreeRTOS_seL4/cfe/fsw/cfe-core/src/es/cfe_es_task.c ****                        CFE_SB_Default_Qos, CFE_ES_TaskData.LimitCmd);
 380               	.loc 1 389 0
 381 02e8 4281      	clr.l %d1
 382 02ea 1200      	move.b %d0,%d1
 383 02ec 1039 0000 	move.b CFE_ES_TaskData+676,%d0
 383      0000 
 384 02f2 1000      	move.b %d0,%d0
 385 02f4 0280 0000 	and.l #255,%d0
 385      00FF 
 386 02fa 2F01      	move.l %d1,-(%sp)
 387               	.cfi_def_cfa_offset 20
 388 02fc 3F39 0000 	move.w CFE_SB_Default_Qos,-(%sp)
 388      0000 
 389               	.cfi_def_cfa_offset 22
 390 0302 558F      	subq.l #2,%sp
 391               	.cfi_def_cfa_offset 24
 392 0304 2F00      	move.l %d0,-(%sp)
 393               	.cfi_def_cfa_offset 28
 394 0306 4878 1806 	pea 6150.w
 395               	.cfi_def_cfa_offset 32
 396 030a 4EB9 0000 	jsr CFE_SB_SubscribeEx
 396      0000 
 397 0310 4FEF 0010 	lea (16,%sp),%sp
 398               	.cfi_def_cfa_offset 16
 399 0314 2F40 0008 	move.l %d0,8(%sp)
 391:/home/simulink/cFS_FreeRTOS_seL4/cfe/fsw/cfe-core/src/es/cfe_es_task.c ****     if ( Status != CFE_SUCCESS )
 400               	.loc 1 391 0
 401 0318 4AAF 0008 	tst.l 8(%sp)
 402 031c 671C      	jeq .L13
 392:/home/simulink/cFS_FreeRTOS_seL4/cfe/fsw/cfe-core/src/es/cfe_es_task.c ****     {
 393:/home/simulink/cFS_FreeRTOS_seL4/cfe/fsw/cfe-core/src/es/cfe_es_task.c ****         CFE_ES_WriteToSysLog("ES:Cannot Subscribe to ES ground commands, RC = 0x%08X\n", (unsigned 
 403               	.loc 1 393 0
 404 031e 202F 0008 	move.l 8(%sp),%d0
 405 0322 2F00      	move.l %d0,-(%sp)
 406               	.cfi_def_cfa_offset 20
68K GAS   			page 17


 407 0324 4879 0000 	pea .LC6
 407      0000 
 408               	.cfi_def_cfa_offset 24
 409 032a 4EB9 0000 	jsr CFE_ES_WriteToSysLog
 409      0000 
 410 0330 508F      	addq.l #8,%sp
 411               	.cfi_def_cfa_offset 16
 394:/home/simulink/cFS_FreeRTOS_seL4/cfe/fsw/cfe-core/src/es/cfe_es_task.c ****         return(Status);
 412               	.loc 1 394 0
 413 0332 202F 0008 	move.l 8(%sp),%d0
 414 0336 6000 013C 	jra .L18
 415               	.L13:
 395:/home/simulink/cFS_FreeRTOS_seL4/cfe/fsw/cfe-core/src/es/cfe_es_task.c ****     }
 396:/home/simulink/cFS_FreeRTOS_seL4/cfe/fsw/cfe-core/src/es/cfe_es_task.c **** 
 397:/home/simulink/cFS_FreeRTOS_seL4/cfe/fsw/cfe-core/src/es/cfe_es_task.c ****     /*
 398:/home/simulink/cFS_FreeRTOS_seL4/cfe/fsw/cfe-core/src/es/cfe_es_task.c ****     ** Compute the CRC for the cfe core code segment and place
 399:/home/simulink/cFS_FreeRTOS_seL4/cfe/fsw/cfe-core/src/es/cfe_es_task.c ****     ** in ES Housekeeping pkt.   
 400:/home/simulink/cFS_FreeRTOS_seL4/cfe/fsw/cfe-core/src/es/cfe_es_task.c ****     */
 401:/home/simulink/cFS_FreeRTOS_seL4/cfe/fsw/cfe-core/src/es/cfe_es_task.c ****     Status = CFE_PSP_GetCFETextSegmentInfo( &CfeSegmentAddr, &SizeofCfeSegment);
 416               	.loc 1 401 0
 417 033a 200F      	move.l %sp,%d0
 418 033c 5880      	addq.l #4,%d0
 419 033e 2F00      	move.l %d0,-(%sp)
 420               	.cfi_def_cfa_offset 20
 421 0340 200F      	move.l %sp,%d0
 422 0342 5880      	addq.l #4,%d0
 423 0344 2F00      	move.l %d0,-(%sp)
 424               	.cfi_def_cfa_offset 24
 425 0346 4EB9 0000 	jsr CFE_PSP_GetCFETextSegmentInfo
 425      0000 
 426 034c 508F      	addq.l #8,%sp
 427               	.cfi_def_cfa_offset 16
 428 034e 2F40 0008 	move.l %d0,8(%sp)
 402:/home/simulink/cFS_FreeRTOS_seL4/cfe/fsw/cfe-core/src/es/cfe_es_task.c ****    
 403:/home/simulink/cFS_FreeRTOS_seL4/cfe/fsw/cfe-core/src/es/cfe_es_task.c ****     if ( Status == CFE_PSP_SUCCESS )
 429               	.loc 1 403 0
 430 0352 4AAF 0008 	tst.l 8(%sp)
 431 0356 6624      	jne .L14
 404:/home/simulink/cFS_FreeRTOS_seL4/cfe/fsw/cfe-core/src/es/cfe_es_task.c ****     { 
 405:/home/simulink/cFS_FreeRTOS_seL4/cfe/fsw/cfe-core/src/es/cfe_es_task.c ****        CFE_ES_TaskData.HkPacket.Payload.CFECoreChecksum = CFE_ES_CalculateCRC(
 432               	.loc 1 405 0
 433 0358 222F 0004 	move.l 4(%sp),%d1
 434 035c 2017      	move.l (%sp),%d0
 435 035e 4878 0002 	pea 2.w
 436               	.cfi_def_cfa_offset 20
 437 0362 42A7      	clr.l -(%sp)
 438               	.cfi_def_cfa_offset 24
 439 0364 2F01      	move.l %d1,-(%sp)
 440               	.cfi_def_cfa_offset 28
 441 0366 2F00      	move.l %d0,-(%sp)
 442               	.cfi_def_cfa_offset 32
 443 0368 4EB9 0000 	jsr CFE_ES_CalculateCRC
 443      0000 
 444 036e 4FEF 0010 	lea (16,%sp),%sp
 445               	.cfi_def_cfa_offset 16
 446 0372 3000      	move.w %d0,%d0
 447 0374 33C0 0000 	move.w %d0,CFE_ES_TaskData+18
68K GAS   			page 18


 447      0000 
 448 037a 6008      	jra .L15
 449               	.L14:
 406:/home/simulink/cFS_FreeRTOS_seL4/cfe/fsw/cfe-core/src/es/cfe_es_task.c ****                                   (void *)(CfeSegmentAddr), SizeofCfeSegment, 0, CFE_ES_DEFAULT_CRC
 407:/home/simulink/cFS_FreeRTOS_seL4/cfe/fsw/cfe-core/src/es/cfe_es_task.c ****     }
 408:/home/simulink/cFS_FreeRTOS_seL4/cfe/fsw/cfe-core/src/es/cfe_es_task.c ****     else
 409:/home/simulink/cFS_FreeRTOS_seL4/cfe/fsw/cfe-core/src/es/cfe_es_task.c ****     {
 410:/home/simulink/cFS_FreeRTOS_seL4/cfe/fsw/cfe-core/src/es/cfe_es_task.c ****        CFE_ES_TaskData.HkPacket.Payload.CFECoreChecksum = 0xFFFF;
 450               	.loc 1 410 0
 451 037c 70FF      	moveq #-1,%d0
 452 037e 33C0 0000 	move.w %d0,CFE_ES_TaskData+18
 452      0000 
 453               	.L15:
 411:/home/simulink/cFS_FreeRTOS_seL4/cfe/fsw/cfe-core/src/es/cfe_es_task.c ****     }
 412:/home/simulink/cFS_FreeRTOS_seL4/cfe/fsw/cfe-core/src/es/cfe_es_task.c **** 
 413:/home/simulink/cFS_FreeRTOS_seL4/cfe/fsw/cfe-core/src/es/cfe_es_task.c ****     /*
 414:/home/simulink/cFS_FreeRTOS_seL4/cfe/fsw/cfe-core/src/es/cfe_es_task.c ****     ** Initialize the version numbers in the ES Housekeeping pkt
 415:/home/simulink/cFS_FreeRTOS_seL4/cfe/fsw/cfe-core/src/es/cfe_es_task.c ****     */
 416:/home/simulink/cFS_FreeRTOS_seL4/cfe/fsw/cfe-core/src/es/cfe_es_task.c ****     CFE_ES_TaskData.HkPacket.Payload.CFEMajorVersion     = CFE_MAJOR_VERSION;
 454               	.loc 1 416 0
 455 0384 7006      	moveq #6,%d0
 456 0386 13C0 0000 	move.b %d0,CFE_ES_TaskData+20
 456      0000 
 417:/home/simulink/cFS_FreeRTOS_seL4/cfe/fsw/cfe-core/src/es/cfe_es_task.c ****     CFE_ES_TaskData.HkPacket.Payload.CFEMinorVersion     = CFE_MINOR_VERSION;
 457               	.loc 1 417 0
 458 038c 7005      	moveq #5,%d0
 459 038e 13C0 0000 	move.b %d0,CFE_ES_TaskData+21
 459      0000 
 418:/home/simulink/cFS_FreeRTOS_seL4/cfe/fsw/cfe-core/src/es/cfe_es_task.c ****     CFE_ES_TaskData.HkPacket.Payload.CFERevision         = CFE_REVISION;
 460               	.loc 1 418 0
 461 0394 4200      	clr.b %d0
 462 0396 13C0 0000 	move.b %d0,CFE_ES_TaskData+22
 462      0000 
 419:/home/simulink/cFS_FreeRTOS_seL4/cfe/fsw/cfe-core/src/es/cfe_es_task.c ****     CFE_ES_TaskData.HkPacket.Payload.CFEMissionRevision  = CFE_MISSION_REV;
 463               	.loc 1 419 0
 464 039c 4200      	clr.b %d0
 465 039e 13C0 0000 	move.b %d0,CFE_ES_TaskData+23
 465      0000 
 420:/home/simulink/cFS_FreeRTOS_seL4/cfe/fsw/cfe-core/src/es/cfe_es_task.c ****     CFE_ES_TaskData.HkPacket.Payload.OSALMajorVersion    = OS_MAJOR_VERSION;
 466               	.loc 1 420 0
 467 03a4 7004      	moveq #4,%d0
 468 03a6 13C0 0000 	move.b %d0,CFE_ES_TaskData+24
 468      0000 
 421:/home/simulink/cFS_FreeRTOS_seL4/cfe/fsw/cfe-core/src/es/cfe_es_task.c ****     CFE_ES_TaskData.HkPacket.Payload.OSALMinorVersion    = OS_MINOR_VERSION;
 469               	.loc 1 421 0
 470 03ac 7002      	moveq #2,%d0
 471 03ae 13C0 0000 	move.b %d0,CFE_ES_TaskData+25
 471      0000 
 422:/home/simulink/cFS_FreeRTOS_seL4/cfe/fsw/cfe-core/src/es/cfe_es_task.c ****     CFE_ES_TaskData.HkPacket.Payload.OSALRevision        = OS_REVISION;
 472               	.loc 1 422 0
 473 03b4 7001      	moveq #1,%d0
 474 03b6 13C0 0000 	move.b %d0,CFE_ES_TaskData+26
 474      0000 
 423:/home/simulink/cFS_FreeRTOS_seL4/cfe/fsw/cfe-core/src/es/cfe_es_task.c ****     CFE_ES_TaskData.HkPacket.Payload.OSALMissionRevision = OS_MISSION_REV;
 475               	.loc 1 423 0
 476 03bc 4200      	clr.b %d0
 477 03be 13C0 0000 	move.b %d0,CFE_ES_TaskData+27
68K GAS   			page 19


 477      0000 
 424:/home/simulink/cFS_FreeRTOS_seL4/cfe/fsw/cfe-core/src/es/cfe_es_task.c **** 
 425:/home/simulink/cFS_FreeRTOS_seL4/cfe/fsw/cfe-core/src/es/cfe_es_task.c ****     /*
 426:/home/simulink/cFS_FreeRTOS_seL4/cfe/fsw/cfe-core/src/es/cfe_es_task.c ****     ** Task startup event message.
 427:/home/simulink/cFS_FreeRTOS_seL4/cfe/fsw/cfe-core/src/es/cfe_es_task.c ****     */
 428:/home/simulink/cFS_FreeRTOS_seL4/cfe/fsw/cfe-core/src/es/cfe_es_task.c ****     Status = CFE_EVS_SendEvent(CFE_ES_INIT_INF_EID,
 478               	.loc 1 428 0
 479 03c4 4879 0000 	pea .LC7
 479      0000 
 480               	.cfi_def_cfa_offset 20
 481 03ca 4878 0002 	pea 2.w
 482               	.cfi_def_cfa_offset 24
 483 03ce 4878 0001 	pea 1.w
 484               	.cfi_def_cfa_offset 28
 485 03d2 4EB9 0000 	jsr CFE_EVS_SendEvent
 485      0000 
 486 03d8 4FEF 000C 	lea (12,%sp),%sp
 487               	.cfi_def_cfa_offset 16
 488 03dc 2F40 0008 	move.l %d0,8(%sp)
 429:/home/simulink/cFS_FreeRTOS_seL4/cfe/fsw/cfe-core/src/es/cfe_es_task.c ****                       CFE_EVS_INFORMATION,
 430:/home/simulink/cFS_FreeRTOS_seL4/cfe/fsw/cfe-core/src/es/cfe_es_task.c ****                       "cFE ES Initialized");
 431:/home/simulink/cFS_FreeRTOS_seL4/cfe/fsw/cfe-core/src/es/cfe_es_task.c ****     if ( Status != CFE_SUCCESS )
 489               	.loc 1 431 0
 490 03e0 4AAF 0008 	tst.l 8(%sp)
 491 03e4 671A      	jeq .L16
 432:/home/simulink/cFS_FreeRTOS_seL4/cfe/fsw/cfe-core/src/es/cfe_es_task.c ****     {
 433:/home/simulink/cFS_FreeRTOS_seL4/cfe/fsw/cfe-core/src/es/cfe_es_task.c ****         CFE_ES_WriteToSysLog("ES:Error sending init event:RC=0x%08X\n", (unsigned int)Status);
 492               	.loc 1 433 0
 493 03e6 202F 0008 	move.l 8(%sp),%d0
 494 03ea 2F00      	move.l %d0,-(%sp)
 495               	.cfi_def_cfa_offset 20
 496 03ec 4879 0000 	pea .LC8
 496      0000 
 497               	.cfi_def_cfa_offset 24
 498 03f2 4EB9 0000 	jsr CFE_ES_WriteToSysLog
 498      0000 
 499 03f8 508F      	addq.l #8,%sp
 500               	.cfi_def_cfa_offset 16
 434:/home/simulink/cFS_FreeRTOS_seL4/cfe/fsw/cfe-core/src/es/cfe_es_task.c ****         return(Status);
 501               	.loc 1 434 0
 502 03fa 202F 0008 	move.l 8(%sp),%d0
 503 03fe 6074      	jra .L18
 504               	.L16:
 435:/home/simulink/cFS_FreeRTOS_seL4/cfe/fsw/cfe-core/src/es/cfe_es_task.c ****     }                      
 436:/home/simulink/cFS_FreeRTOS_seL4/cfe/fsw/cfe-core/src/es/cfe_es_task.c **** 
 437:/home/simulink/cFS_FreeRTOS_seL4/cfe/fsw/cfe-core/src/es/cfe_es_task.c ****     Status = CFE_EVS_SendEvent(CFE_ES_INITSTATS_INF_EID,
 438:/home/simulink/cFS_FreeRTOS_seL4/cfe/fsw/cfe-core/src/es/cfe_es_task.c ****                       CFE_EVS_INFORMATION,
 439:/home/simulink/cFS_FreeRTOS_seL4/cfe/fsw/cfe-core/src/es/cfe_es_task.c ****                       "Versions:cFE %d.%d.%d.%d, OSAL %d.%d.%d.%d, PSP %d.%d.%d.%d, chksm %d",
 440:/home/simulink/cFS_FreeRTOS_seL4/cfe/fsw/cfe-core/src/es/cfe_es_task.c ****                       CFE_MAJOR_VERSION,CFE_MINOR_VERSION,CFE_REVISION,CFE_MISSION_REV,            
 441:/home/simulink/cFS_FreeRTOS_seL4/cfe/fsw/cfe-core/src/es/cfe_es_task.c ****                       OS_MAJOR_VERSION,OS_MINOR_VERSION,OS_REVISION,OS_MISSION_REV,
 442:/home/simulink/cFS_FreeRTOS_seL4/cfe/fsw/cfe-core/src/es/cfe_es_task.c ****                       CFE_PSP_MAJOR_VERSION,CFE_PSP_MINOR_VERSION,CFE_PSP_REVISION,CFE_PSP_MISSION_
 443:/home/simulink/cFS_FreeRTOS_seL4/cfe/fsw/cfe-core/src/es/cfe_es_task.c ****                       (int)CFE_ES_TaskData.HkPacket.Payload.CFECoreChecksum);
 505               	.loc 1 443 0
 506 0400 3039 0000 	move.w CFE_ES_TaskData+18,%d0
 506      0000 
 437:/home/simulink/cFS_FreeRTOS_seL4/cfe/fsw/cfe-core/src/es/cfe_es_task.c ****                       CFE_EVS_INFORMATION,
 507               	.loc 1 437 0
68K GAS   			page 20


 508 0406 3000      	move.w %d0,%d0
 509 0408 0280 0000 	and.l #65535,%d0
 509      FFFF 
 510 040e 2F00      	move.l %d0,-(%sp)
 511               	.cfi_def_cfa_offset 20
 512 0410 42A7      	clr.l -(%sp)
 513               	.cfi_def_cfa_offset 24
 514 0412 42A7      	clr.l -(%sp)
 515               	.cfi_def_cfa_offset 28
 516 0414 4878 0001 	pea 1.w
 517               	.cfi_def_cfa_offset 32
 518 0418 4878 0001 	pea 1.w
 519               	.cfi_def_cfa_offset 36
 520 041c 42A7      	clr.l -(%sp)
 521               	.cfi_def_cfa_offset 40
 522 041e 4878 0001 	pea 1.w
 523               	.cfi_def_cfa_offset 44
 524 0422 4878 0002 	pea 2.w
 525               	.cfi_def_cfa_offset 48
 526 0426 4878 0004 	pea 4.w
 527               	.cfi_def_cfa_offset 52
 528 042a 42A7      	clr.l -(%sp)
 529               	.cfi_def_cfa_offset 56
 530 042c 42A7      	clr.l -(%sp)
 531               	.cfi_def_cfa_offset 60
 532 042e 4878 0005 	pea 5.w
 533               	.cfi_def_cfa_offset 64
 534 0432 4878 0006 	pea 6.w
 535               	.cfi_def_cfa_offset 68
 536 0436 4879 0000 	pea .LC9
 536      0000 
 537               	.cfi_def_cfa_offset 72
 538 043c 4878 0002 	pea 2.w
 539               	.cfi_def_cfa_offset 76
 540 0440 4878 0002 	pea 2.w
 541               	.cfi_def_cfa_offset 80
 542 0444 4EB9 0000 	jsr CFE_EVS_SendEvent
 542      0000 
 543 044a 4FEF 0040 	lea (64,%sp),%sp
 544               	.cfi_def_cfa_offset 16
 545 044e 2F40 0008 	move.l %d0,8(%sp)
 444:/home/simulink/cFS_FreeRTOS_seL4/cfe/fsw/cfe-core/src/es/cfe_es_task.c ****     if ( Status != CFE_SUCCESS )
 546               	.loc 1 444 0
 547 0452 4AAF 0008 	tst.l 8(%sp)
 548 0456 671A      	jeq .L17
 445:/home/simulink/cFS_FreeRTOS_seL4/cfe/fsw/cfe-core/src/es/cfe_es_task.c ****     {
 446:/home/simulink/cFS_FreeRTOS_seL4/cfe/fsw/cfe-core/src/es/cfe_es_task.c ****         CFE_ES_WriteToSysLog("ES:Error sending version event:RC=0x%08X\n", (unsigned int)Status);
 549               	.loc 1 446 0
 550 0458 202F 0008 	move.l 8(%sp),%d0
 551 045c 2F00      	move.l %d0,-(%sp)
 552               	.cfi_def_cfa_offset 20
 553 045e 4879 0000 	pea .LC10
 553      0000 
 554               	.cfi_def_cfa_offset 24
 555 0464 4EB9 0000 	jsr CFE_ES_WriteToSysLog
 555      0000 
 556 046a 508F      	addq.l #8,%sp
68K GAS   			page 21


 557               	.cfi_def_cfa_offset 16
 447:/home/simulink/cFS_FreeRTOS_seL4/cfe/fsw/cfe-core/src/es/cfe_es_task.c ****         return(Status);
 558               	.loc 1 447 0
 559 046c 202F 0008 	move.l 8(%sp),%d0
 560 0470 6002      	jra .L18
 561               	.L17:
 448:/home/simulink/cFS_FreeRTOS_seL4/cfe/fsw/cfe-core/src/es/cfe_es_task.c ****     }
 449:/home/simulink/cFS_FreeRTOS_seL4/cfe/fsw/cfe-core/src/es/cfe_es_task.c **** 
 450:/home/simulink/cFS_FreeRTOS_seL4/cfe/fsw/cfe-core/src/es/cfe_es_task.c **** #ifdef _ENHANCED_BUILD_
 451:/home/simulink/cFS_FreeRTOS_seL4/cfe/fsw/cfe-core/src/es/cfe_es_task.c ****     /*
 452:/home/simulink/cFS_FreeRTOS_seL4/cfe/fsw/cfe-core/src/es/cfe_es_task.c ****      ** Advertise the build and version information at start up
 453:/home/simulink/cFS_FreeRTOS_seL4/cfe/fsw/cfe-core/src/es/cfe_es_task.c ****      */
 454:/home/simulink/cFS_FreeRTOS_seL4/cfe/fsw/cfe-core/src/es/cfe_es_task.c ****     Status = CFE_EVS_SendEvent(CFE_ES_VERSION_INF_EID,
 455:/home/simulink/cFS_FreeRTOS_seL4/cfe/fsw/cfe-core/src/es/cfe_es_task.c ****           CFE_EVS_INFORMATION,
 456:/home/simulink/cFS_FreeRTOS_seL4/cfe/fsw/cfe-core/src/es/cfe_es_task.c ****           "Mission %s.%s, %s, %s",
 457:/home/simulink/cFS_FreeRTOS_seL4/cfe/fsw/cfe-core/src/es/cfe_es_task.c ****           GLOBAL_CONFIGDATA.MissionVersion, GLOBAL_CONFIGDATA.Config,
 458:/home/simulink/cFS_FreeRTOS_seL4/cfe/fsw/cfe-core/src/es/cfe_es_task.c ****           GLOBAL_CONFIGDATA.CfeVersion, GLOBAL_CONFIGDATA.OsalVersion);
 459:/home/simulink/cFS_FreeRTOS_seL4/cfe/fsw/cfe-core/src/es/cfe_es_task.c ****     if ( Status != CFE_SUCCESS )
 460:/home/simulink/cFS_FreeRTOS_seL4/cfe/fsw/cfe-core/src/es/cfe_es_task.c ****     {
 461:/home/simulink/cFS_FreeRTOS_seL4/cfe/fsw/cfe-core/src/es/cfe_es_task.c ****        CFE_ES_WriteToSysLog("ES:Error sending version event:RC=0x%08X\n", (unsigned int)Status);
 462:/home/simulink/cFS_FreeRTOS_seL4/cfe/fsw/cfe-core/src/es/cfe_es_task.c ****        return(Status);
 463:/home/simulink/cFS_FreeRTOS_seL4/cfe/fsw/cfe-core/src/es/cfe_es_task.c ****     }
 464:/home/simulink/cFS_FreeRTOS_seL4/cfe/fsw/cfe-core/src/es/cfe_es_task.c **** 
 465:/home/simulink/cFS_FreeRTOS_seL4/cfe/fsw/cfe-core/src/es/cfe_es_task.c ****     Status = CFE_EVS_SendEvent(CFE_ES_BUILD_INF_EID,
 466:/home/simulink/cFS_FreeRTOS_seL4/cfe/fsw/cfe-core/src/es/cfe_es_task.c ****           CFE_EVS_INFORMATION,
 467:/home/simulink/cFS_FreeRTOS_seL4/cfe/fsw/cfe-core/src/es/cfe_es_task.c ****           "Build %s %s",
 468:/home/simulink/cFS_FreeRTOS_seL4/cfe/fsw/cfe-core/src/es/cfe_es_task.c ****           GLOBAL_CONFIGDATA.Date, GLOBAL_CONFIGDATA.User);
 469:/home/simulink/cFS_FreeRTOS_seL4/cfe/fsw/cfe-core/src/es/cfe_es_task.c ****     if ( Status != CFE_SUCCESS )
 470:/home/simulink/cFS_FreeRTOS_seL4/cfe/fsw/cfe-core/src/es/cfe_es_task.c ****     {
 471:/home/simulink/cFS_FreeRTOS_seL4/cfe/fsw/cfe-core/src/es/cfe_es_task.c ****        CFE_ES_WriteToSysLog("ES:Error sending build info event:RC=0x%08X\n", (unsigned int)Status);
 472:/home/simulink/cFS_FreeRTOS_seL4/cfe/fsw/cfe-core/src/es/cfe_es_task.c ****        return(Status);
 473:/home/simulink/cFS_FreeRTOS_seL4/cfe/fsw/cfe-core/src/es/cfe_es_task.c ****     }
 474:/home/simulink/cFS_FreeRTOS_seL4/cfe/fsw/cfe-core/src/es/cfe_es_task.c **** #endif
 475:/home/simulink/cFS_FreeRTOS_seL4/cfe/fsw/cfe-core/src/es/cfe_es_task.c **** 
 476:/home/simulink/cFS_FreeRTOS_seL4/cfe/fsw/cfe-core/src/es/cfe_es_task.c **** 
 477:/home/simulink/cFS_FreeRTOS_seL4/cfe/fsw/cfe-core/src/es/cfe_es_task.c ****    return(CFE_SUCCESS);
 562               	.loc 1 477 0
 563 0472 4280      	clr.l %d0
 564               	.L18:
 478:/home/simulink/cFS_FreeRTOS_seL4/cfe/fsw/cfe-core/src/es/cfe_es_task.c ****    
 479:/home/simulink/cFS_FreeRTOS_seL4/cfe/fsw/cfe-core/src/es/cfe_es_task.c **** } /* End of CFE_ES_TaskInit() */
 565               	.loc 1 479 0 discriminator 1
 566 0474 4FEF 000C 	lea (12,%sp),%sp
 567 0478 4E75      	rts
 568               	.cfi_endproc
 569               	.LFE60:
 570               	.sizeCFE_ES_TaskInit, .-CFE_ES_TaskInit
 571               	.section.rodata
 572               	.LC11:
 573 01e7 496E 7661 	.string"Invalid ground command code: ID = 0x%X, CC = %d"
 573      6C69 6420 
 573      6772 6F75 
 573      6E64 2063 
 573      6F6D 6D61 
 574               	.LC12:
 575 0217 496E 7661 	.string"Invalid command pipe message ID: 0x%X"
 575      6C69 6420 
68K GAS   			page 22


 575      636F 6D6D 
 575      616E 6420 
 575      7069 7065 
 576               	.text
 577               	.align2
 578               	.globlCFE_ES_TaskPipe
 579               	.typeCFE_ES_TaskPipe, @function
 580               	CFE_ES_TaskPipe:
 581               	.LFB61:
 480:/home/simulink/cFS_FreeRTOS_seL4/cfe/fsw/cfe-core/src/es/cfe_es_task.c **** 
 481:/home/simulink/cFS_FreeRTOS_seL4/cfe/fsw/cfe-core/src/es/cfe_es_task.c **** 
 482:/home/simulink/cFS_FreeRTOS_seL4/cfe/fsw/cfe-core/src/es/cfe_es_task.c **** /* * * * * * * * * * * * * * * * * * * * * * * * * * * * * * * * * */
 483:/home/simulink/cFS_FreeRTOS_seL4/cfe/fsw/cfe-core/src/es/cfe_es_task.c **** /*                                                                 */
 484:/home/simulink/cFS_FreeRTOS_seL4/cfe/fsw/cfe-core/src/es/cfe_es_task.c **** /* CFE_ES_TaskPipe() -- Process command pipe message               */
 485:/home/simulink/cFS_FreeRTOS_seL4/cfe/fsw/cfe-core/src/es/cfe_es_task.c **** /*                                                                 */
 486:/home/simulink/cFS_FreeRTOS_seL4/cfe/fsw/cfe-core/src/es/cfe_es_task.c **** /* * * * * * * * * * * * * * * * * * * * * * * * * * * * * * * * * */
 487:/home/simulink/cFS_FreeRTOS_seL4/cfe/fsw/cfe-core/src/es/cfe_es_task.c **** 
 488:/home/simulink/cFS_FreeRTOS_seL4/cfe/fsw/cfe-core/src/es/cfe_es_task.c **** void CFE_ES_TaskPipe(CFE_SB_MsgPtr_t Msg)
 489:/home/simulink/cFS_FreeRTOS_seL4/cfe/fsw/cfe-core/src/es/cfe_es_task.c **** {
 582               	.loc 1 489 0
 583               	.cfi_startproc
 584 047a 598F      	subq.l #4,%sp
 585               	.cfi_def_cfa_offset 8
 490:/home/simulink/cFS_FreeRTOS_seL4/cfe/fsw/cfe-core/src/es/cfe_es_task.c ****     CFE_SB_MsgId_t MessageID;
 491:/home/simulink/cFS_FreeRTOS_seL4/cfe/fsw/cfe-core/src/es/cfe_es_task.c ****     uint16         CommandCode;
 492:/home/simulink/cFS_FreeRTOS_seL4/cfe/fsw/cfe-core/src/es/cfe_es_task.c **** 
 493:/home/simulink/cFS_FreeRTOS_seL4/cfe/fsw/cfe-core/src/es/cfe_es_task.c ****     MessageID = CFE_SB_GetMsgId(Msg);
 586               	.loc 1 493 0
 587 047c 2F2F 0008 	move.l 8(%sp),-(%sp)
 588               	.cfi_def_cfa_offset 12
 589 0480 4EB9 0000 	jsr CFE_SB_GetMsgId
 589      0000 
 590 0486 588F      	addq.l #4,%sp
 591               	.cfi_def_cfa_offset 8
 592 0488 3F40 0002 	move.w %d0,2(%sp)
 494:/home/simulink/cFS_FreeRTOS_seL4/cfe/fsw/cfe-core/src/es/cfe_es_task.c ****     switch (MessageID)
 593               	.loc 1 494 0
 594 048c 4280      	clr.l %d0
 595 048e 302F 0002 	move.w 2(%sp),%d0
 596 0492 0C80 0000 	cmp.l #6150,%d0
 596      1806 
 597 0498 671A      	jeq .L21
 598 049a 0C80 0000 	cmp.l #6152,%d0
 598      1808 
 599 04a0 6600 022E 	jne .L52
 495:/home/simulink/cFS_FreeRTOS_seL4/cfe/fsw/cfe-core/src/es/cfe_es_task.c ****     {
 496:/home/simulink/cFS_FreeRTOS_seL4/cfe/fsw/cfe-core/src/es/cfe_es_task.c ****         /*
 497:/home/simulink/cFS_FreeRTOS_seL4/cfe/fsw/cfe-core/src/es/cfe_es_task.c ****         ** Housekeeping telemetry request
 498:/home/simulink/cFS_FreeRTOS_seL4/cfe/fsw/cfe-core/src/es/cfe_es_task.c ****         */
 499:/home/simulink/cFS_FreeRTOS_seL4/cfe/fsw/cfe-core/src/es/cfe_es_task.c ****         case CFE_ES_SEND_HK_MID:
 500:/home/simulink/cFS_FreeRTOS_seL4/cfe/fsw/cfe-core/src/es/cfe_es_task.c ****             CFE_ES_HousekeepingCmd(Msg);
 600               	.loc 1 500 0
 601 04a4 2F2F 0008 	move.l 8(%sp),-(%sp)
 602               	.cfi_def_cfa_offset 12
 603 04a8 4EB9 0000 	jsr CFE_ES_HousekeepingCmd
 603      0000 
 604 04ae 588F      	addq.l #4,%sp
68K GAS   			page 23


 605               	.cfi_def_cfa_offset 8
 501:/home/simulink/cFS_FreeRTOS_seL4/cfe/fsw/cfe-core/src/es/cfe_es_task.c ****             break;
 606               	.loc 1 501 0
 607 04b0 6000 0250 	jra .L23
 608               	.L21:
 502:/home/simulink/cFS_FreeRTOS_seL4/cfe/fsw/cfe-core/src/es/cfe_es_task.c **** 
 503:/home/simulink/cFS_FreeRTOS_seL4/cfe/fsw/cfe-core/src/es/cfe_es_task.c ****         /*
 504:/home/simulink/cFS_FreeRTOS_seL4/cfe/fsw/cfe-core/src/es/cfe_es_task.c ****         ** ES task ground commands
 505:/home/simulink/cFS_FreeRTOS_seL4/cfe/fsw/cfe-core/src/es/cfe_es_task.c ****         */
 506:/home/simulink/cFS_FreeRTOS_seL4/cfe/fsw/cfe-core/src/es/cfe_es_task.c ****         case CFE_ES_CMD_MID:
 507:/home/simulink/cFS_FreeRTOS_seL4/cfe/fsw/cfe-core/src/es/cfe_es_task.c **** 
 508:/home/simulink/cFS_FreeRTOS_seL4/cfe/fsw/cfe-core/src/es/cfe_es_task.c ****             CommandCode = CFE_SB_GetCmdCode(Msg);
 609               	.loc 1 508 0
 610 04b4 2F2F 0008 	move.l 8(%sp),-(%sp)
 611               	.cfi_def_cfa_offset 12
 612 04b8 4EB9 0000 	jsr CFE_SB_GetCmdCode
 612      0000 
 613 04be 588F      	addq.l #4,%sp
 614               	.cfi_def_cfa_offset 8
 615 04c0 3E80      	move.w %d0,(%sp)
 509:/home/simulink/cFS_FreeRTOS_seL4/cfe/fsw/cfe-core/src/es/cfe_es_task.c ****             switch (CommandCode)
 616               	.loc 1 509 0
 617 04c2 4280      	clr.l %d0
 618 04c4 3017      	move.w (%sp),%d0
 619 04c6 7218      	moveq #24,%d1
 620 04c8 B280      	cmp.l %d0,%d1
 621 04ca 6500 01CA 	jcs .L24
 622 04ce D080      	add.l %d0,%d0
 623 04d0 2040      	move.l %d0,%a0
 624 04d2 D1FC 0000 	add.l #.L26,%a0
 624      0000 
 625 04d8 3010      	move.w (%a0),%d0
 626 04da 48C0      	ext.l %d0
 627 04dc 4EFB 0802 	jmp %pc@(2,%d0:l)
 628               	.balignw 2,0x284c
 629               	.swbeg&25
 630               	.L26:
 631 04e0 0032      	.word .L25-.L26
 632 04e2 0042      	.word .L27-.L26
 633 04e4 0052      	.word .L28-.L26
 634 04e6 0062      	.word .L29-.L26
 635 04e8 0072      	.word .L30-.L26
 636 04ea 0082      	.word .L31-.L26
 637 04ec 0092      	.word .L32-.L26
 638 04ee 00A2      	.word .L33-.L26
 639 04f0 00B2      	.word .L34-.L26
 640 04f2 00C2      	.word .L35-.L26
 641 04f4 00E2      	.word .L36-.L26
 642 04f6 00F2      	.word .L37-.L26
 643 04f8 0112      	.word .L38-.L26
 644 04fa 0122      	.word .L39-.L26
 645 04fc 0132      	.word .L40-.L26
 646 04fe 0142      	.word .L41-.L26
 647 0500 0152      	.word .L42-.L26
 648 0502 0162      	.word .L43-.L26
 649 0504 0102      	.word .L44-.L26
 650 0506 0170      	.word .L45-.L26
68K GAS   			page 24


 651 0508 017E      	.word .L46-.L26
 652 050a 018C      	.word .L47-.L26
 653 050c 019A      	.word .L48-.L26
 654 050e 01A8      	.word .L49-.L26
 655 0510 00D2      	.word .L50-.L26
 656               	.L25:
 510:/home/simulink/cFS_FreeRTOS_seL4/cfe/fsw/cfe-core/src/es/cfe_es_task.c ****             {
 511:/home/simulink/cFS_FreeRTOS_seL4/cfe/fsw/cfe-core/src/es/cfe_es_task.c ****                 case CFE_ES_NOOP_CC:
 512:/home/simulink/cFS_FreeRTOS_seL4/cfe/fsw/cfe-core/src/es/cfe_es_task.c ****                     CFE_ES_NoopCmd(Msg);
 657               	.loc 1 512 0
 658 0512 2F2F 0008 	move.l 8(%sp),-(%sp)
 659               	.cfi_def_cfa_offset 12
 660 0516 4EB9 0000 	jsr CFE_ES_NoopCmd
 660      0000 
 661 051c 588F      	addq.l #4,%sp
 662               	.cfi_def_cfa_offset 8
 513:/home/simulink/cFS_FreeRTOS_seL4/cfe/fsw/cfe-core/src/es/cfe_es_task.c ****                     break;
 663               	.loc 1 513 0
 664 051e 6000 01AE 	jra .L51
 665               	.L27:
 514:/home/simulink/cFS_FreeRTOS_seL4/cfe/fsw/cfe-core/src/es/cfe_es_task.c **** 
 515:/home/simulink/cFS_FreeRTOS_seL4/cfe/fsw/cfe-core/src/es/cfe_es_task.c ****                 case CFE_ES_RESET_CC:
 516:/home/simulink/cFS_FreeRTOS_seL4/cfe/fsw/cfe-core/src/es/cfe_es_task.c ****                     CFE_ES_ResetCmd(Msg);
 666               	.loc 1 516 0
 667 0522 2F2F 0008 	move.l 8(%sp),-(%sp)
 668               	.cfi_def_cfa_offset 12
 669 0526 4EB9 0000 	jsr CFE_ES_ResetCmd
 669      0000 
 670 052c 588F      	addq.l #4,%sp
 671               	.cfi_def_cfa_offset 8
 517:/home/simulink/cFS_FreeRTOS_seL4/cfe/fsw/cfe-core/src/es/cfe_es_task.c ****                     break;
 672               	.loc 1 517 0
 673 052e 6000 019E 	jra .L51
 674               	.L28:
 518:/home/simulink/cFS_FreeRTOS_seL4/cfe/fsw/cfe-core/src/es/cfe_es_task.c **** 
 519:/home/simulink/cFS_FreeRTOS_seL4/cfe/fsw/cfe-core/src/es/cfe_es_task.c ****                 case CFE_ES_RESTART_CC:
 520:/home/simulink/cFS_FreeRTOS_seL4/cfe/fsw/cfe-core/src/es/cfe_es_task.c ****                     CFE_ES_RestartCmd(Msg);
 675               	.loc 1 520 0
 676 0532 2F2F 0008 	move.l 8(%sp),-(%sp)
 677               	.cfi_def_cfa_offset 12
 678 0536 4EB9 0000 	jsr CFE_ES_RestartCmd
 678      0000 
 679 053c 588F      	addq.l #4,%sp
 680               	.cfi_def_cfa_offset 8
 521:/home/simulink/cFS_FreeRTOS_seL4/cfe/fsw/cfe-core/src/es/cfe_es_task.c ****                     break;
 681               	.loc 1 521 0
 682 053e 6000 018E 	jra .L51
 683               	.L29:
 522:/home/simulink/cFS_FreeRTOS_seL4/cfe/fsw/cfe-core/src/es/cfe_es_task.c **** 
 523:/home/simulink/cFS_FreeRTOS_seL4/cfe/fsw/cfe-core/src/es/cfe_es_task.c ****                 case CFE_ES_SHELL_CMD_CC:
 524:/home/simulink/cFS_FreeRTOS_seL4/cfe/fsw/cfe-core/src/es/cfe_es_task.c ****                     CFE_ES_ShellCmd(Msg);
 684               	.loc 1 524 0
 685 0542 2F2F 0008 	move.l 8(%sp),-(%sp)
 686               	.cfi_def_cfa_offset 12
 687 0546 4EB9 0000 	jsr CFE_ES_ShellCmd
 687      0000 
 688 054c 588F      	addq.l #4,%sp
68K GAS   			page 25


 689               	.cfi_def_cfa_offset 8
 525:/home/simulink/cFS_FreeRTOS_seL4/cfe/fsw/cfe-core/src/es/cfe_es_task.c ****                     break;
 690               	.loc 1 525 0
 691 054e 6000 017E 	jra .L51
 692               	.L30:
 526:/home/simulink/cFS_FreeRTOS_seL4/cfe/fsw/cfe-core/src/es/cfe_es_task.c **** 
 527:/home/simulink/cFS_FreeRTOS_seL4/cfe/fsw/cfe-core/src/es/cfe_es_task.c ****                 case CFE_ES_START_APP_CC:
 528:/home/simulink/cFS_FreeRTOS_seL4/cfe/fsw/cfe-core/src/es/cfe_es_task.c ****                     CFE_ES_StartAppCmd(Msg);
 693               	.loc 1 528 0
 694 0552 2F2F 0008 	move.l 8(%sp),-(%sp)
 695               	.cfi_def_cfa_offset 12
 696 0556 4EB9 0000 	jsr CFE_ES_StartAppCmd
 696      0000 
 697 055c 588F      	addq.l #4,%sp
 698               	.cfi_def_cfa_offset 8
 529:/home/simulink/cFS_FreeRTOS_seL4/cfe/fsw/cfe-core/src/es/cfe_es_task.c ****                     break;
 699               	.loc 1 529 0
 700 055e 6000 016E 	jra .L51
 701               	.L31:
 530:/home/simulink/cFS_FreeRTOS_seL4/cfe/fsw/cfe-core/src/es/cfe_es_task.c **** 
 531:/home/simulink/cFS_FreeRTOS_seL4/cfe/fsw/cfe-core/src/es/cfe_es_task.c ****                 case CFE_ES_STOP_APP_CC:
 532:/home/simulink/cFS_FreeRTOS_seL4/cfe/fsw/cfe-core/src/es/cfe_es_task.c ****                     CFE_ES_StopAppCmd(Msg);
 702               	.loc 1 532 0
 703 0562 2F2F 0008 	move.l 8(%sp),-(%sp)
 704               	.cfi_def_cfa_offset 12
 705 0566 4EB9 0000 	jsr CFE_ES_StopAppCmd
 705      0000 
 706 056c 588F      	addq.l #4,%sp
 707               	.cfi_def_cfa_offset 8
 533:/home/simulink/cFS_FreeRTOS_seL4/cfe/fsw/cfe-core/src/es/cfe_es_task.c ****                     break;
 708               	.loc 1 533 0
 709 056e 6000 015E 	jra .L51
 710               	.L32:
 534:/home/simulink/cFS_FreeRTOS_seL4/cfe/fsw/cfe-core/src/es/cfe_es_task.c **** 
 535:/home/simulink/cFS_FreeRTOS_seL4/cfe/fsw/cfe-core/src/es/cfe_es_task.c ****                 case CFE_ES_RESTART_APP_CC:
 536:/home/simulink/cFS_FreeRTOS_seL4/cfe/fsw/cfe-core/src/es/cfe_es_task.c ****                     CFE_ES_RestartAppCmd(Msg);
 711               	.loc 1 536 0
 712 0572 2F2F 0008 	move.l 8(%sp),-(%sp)
 713               	.cfi_def_cfa_offset 12
 714 0576 4EB9 0000 	jsr CFE_ES_RestartAppCmd
 714      0000 
 715 057c 588F      	addq.l #4,%sp
 716               	.cfi_def_cfa_offset 8
 537:/home/simulink/cFS_FreeRTOS_seL4/cfe/fsw/cfe-core/src/es/cfe_es_task.c ****                     break;
 717               	.loc 1 537 0
 718 057e 6000 014E 	jra .L51
 719               	.L33:
 538:/home/simulink/cFS_FreeRTOS_seL4/cfe/fsw/cfe-core/src/es/cfe_es_task.c **** 
 539:/home/simulink/cFS_FreeRTOS_seL4/cfe/fsw/cfe-core/src/es/cfe_es_task.c ****                 case CFE_ES_RELOAD_APP_CC:
 540:/home/simulink/cFS_FreeRTOS_seL4/cfe/fsw/cfe-core/src/es/cfe_es_task.c ****                     CFE_ES_ReloadAppCmd(Msg);
 720               	.loc 1 540 0
 721 0582 2F2F 0008 	move.l 8(%sp),-(%sp)
 722               	.cfi_def_cfa_offset 12
 723 0586 4EB9 0000 	jsr CFE_ES_ReloadAppCmd
 723      0000 
 724 058c 588F      	addq.l #4,%sp
 725               	.cfi_def_cfa_offset 8
68K GAS   			page 26


 541:/home/simulink/cFS_FreeRTOS_seL4/cfe/fsw/cfe-core/src/es/cfe_es_task.c ****                     break;
 726               	.loc 1 541 0
 727 058e 6000 013E 	jra .L51
 728               	.L34:
 542:/home/simulink/cFS_FreeRTOS_seL4/cfe/fsw/cfe-core/src/es/cfe_es_task.c **** 
 543:/home/simulink/cFS_FreeRTOS_seL4/cfe/fsw/cfe-core/src/es/cfe_es_task.c ****                 case CFE_ES_QUERY_ONE_CC:
 544:/home/simulink/cFS_FreeRTOS_seL4/cfe/fsw/cfe-core/src/es/cfe_es_task.c ****                     CFE_ES_QueryOneCmd(Msg);
 729               	.loc 1 544 0
 730 0592 2F2F 0008 	move.l 8(%sp),-(%sp)
 731               	.cfi_def_cfa_offset 12
 732 0596 4EB9 0000 	jsr CFE_ES_QueryOneCmd
 732      0000 
 733 059c 588F      	addq.l #4,%sp
 734               	.cfi_def_cfa_offset 8
 545:/home/simulink/cFS_FreeRTOS_seL4/cfe/fsw/cfe-core/src/es/cfe_es_task.c ****                     break;
 735               	.loc 1 545 0
 736 059e 6000 012E 	jra .L51
 737               	.L35:
 546:/home/simulink/cFS_FreeRTOS_seL4/cfe/fsw/cfe-core/src/es/cfe_es_task.c **** 
 547:/home/simulink/cFS_FreeRTOS_seL4/cfe/fsw/cfe-core/src/es/cfe_es_task.c ****                 case CFE_ES_QUERY_ALL_CC:
 548:/home/simulink/cFS_FreeRTOS_seL4/cfe/fsw/cfe-core/src/es/cfe_es_task.c ****                     CFE_ES_QueryAllCmd(Msg);
 738               	.loc 1 548 0
 739 05a2 2F2F 0008 	move.l 8(%sp),-(%sp)
 740               	.cfi_def_cfa_offset 12
 741 05a6 4EB9 0000 	jsr CFE_ES_QueryAllCmd
 741      0000 
 742 05ac 588F      	addq.l #4,%sp
 743               	.cfi_def_cfa_offset 8
 549:/home/simulink/cFS_FreeRTOS_seL4/cfe/fsw/cfe-core/src/es/cfe_es_task.c ****                     break;
 744               	.loc 1 549 0
 745 05ae 6000 011E 	jra .L51
 746               	.L50:
 550:/home/simulink/cFS_FreeRTOS_seL4/cfe/fsw/cfe-core/src/es/cfe_es_task.c **** 
 551:/home/simulink/cFS_FreeRTOS_seL4/cfe/fsw/cfe-core/src/es/cfe_es_task.c ****                 case CFE_ES_QUERY_ALL_TASKS_CC:
 552:/home/simulink/cFS_FreeRTOS_seL4/cfe/fsw/cfe-core/src/es/cfe_es_task.c ****                     CFE_ES_QueryAllTasksCmd(Msg);
 747               	.loc 1 552 0
 748 05b2 2F2F 0008 	move.l 8(%sp),-(%sp)
 749               	.cfi_def_cfa_offset 12
 750 05b6 4EB9 0000 	jsr CFE_ES_QueryAllTasksCmd
 750      0000 
 751 05bc 588F      	addq.l #4,%sp
 752               	.cfi_def_cfa_offset 8
 553:/home/simulink/cFS_FreeRTOS_seL4/cfe/fsw/cfe-core/src/es/cfe_es_task.c ****                     break;
 753               	.loc 1 553 0
 754 05be 6000 010E 	jra .L51
 755               	.L36:
 554:/home/simulink/cFS_FreeRTOS_seL4/cfe/fsw/cfe-core/src/es/cfe_es_task.c **** 
 555:/home/simulink/cFS_FreeRTOS_seL4/cfe/fsw/cfe-core/src/es/cfe_es_task.c ****                 case CFE_ES_CLEAR_SYSLOG_CC:
 556:/home/simulink/cFS_FreeRTOS_seL4/cfe/fsw/cfe-core/src/es/cfe_es_task.c ****                     CFE_ES_ClearSyslogCmd(Msg);
 756               	.loc 1 556 0
 757 05c2 2F2F 0008 	move.l 8(%sp),-(%sp)
 758               	.cfi_def_cfa_offset 12
 759 05c6 4EB9 0000 	jsr CFE_ES_ClearSyslogCmd
 759      0000 
 760 05cc 588F      	addq.l #4,%sp
 761               	.cfi_def_cfa_offset 8
 557:/home/simulink/cFS_FreeRTOS_seL4/cfe/fsw/cfe-core/src/es/cfe_es_task.c ****                     break;
68K GAS   			page 27


 762               	.loc 1 557 0
 763 05ce 6000 00FE 	jra .L51
 764               	.L37:
 558:/home/simulink/cFS_FreeRTOS_seL4/cfe/fsw/cfe-core/src/es/cfe_es_task.c **** 
 559:/home/simulink/cFS_FreeRTOS_seL4/cfe/fsw/cfe-core/src/es/cfe_es_task.c ****                 case CFE_ES_WRITE_SYSLOG_CC:
 560:/home/simulink/cFS_FreeRTOS_seL4/cfe/fsw/cfe-core/src/es/cfe_es_task.c ****                     CFE_ES_WriteSyslogCmd(Msg);
 765               	.loc 1 560 0
 766 05d2 2F2F 0008 	move.l 8(%sp),-(%sp)
 767               	.cfi_def_cfa_offset 12
 768 05d6 4EB9 0000 	jsr CFE_ES_WriteSyslogCmd
 768      0000 
 769 05dc 588F      	addq.l #4,%sp
 770               	.cfi_def_cfa_offset 8
 561:/home/simulink/cFS_FreeRTOS_seL4/cfe/fsw/cfe-core/src/es/cfe_es_task.c ****                     break;
 771               	.loc 1 561 0
 772 05de 6000 00EE 	jra .L51
 773               	.L44:
 562:/home/simulink/cFS_FreeRTOS_seL4/cfe/fsw/cfe-core/src/es/cfe_es_task.c **** 
 563:/home/simulink/cFS_FreeRTOS_seL4/cfe/fsw/cfe-core/src/es/cfe_es_task.c ****                 case CFE_ES_OVERWRITE_SYSLOG_CC:
 564:/home/simulink/cFS_FreeRTOS_seL4/cfe/fsw/cfe-core/src/es/cfe_es_task.c ****                     CFE_ES_OverWriteSyslogCmd(Msg);
 774               	.loc 1 564 0
 775 05e2 2F2F 0008 	move.l 8(%sp),-(%sp)
 776               	.cfi_def_cfa_offset 12
 777 05e6 4EB9 0000 	jsr CFE_ES_OverWriteSyslogCmd
 777      0000 
 778 05ec 588F      	addq.l #4,%sp
 779               	.cfi_def_cfa_offset 8
 565:/home/simulink/cFS_FreeRTOS_seL4/cfe/fsw/cfe-core/src/es/cfe_es_task.c ****                     break;
 780               	.loc 1 565 0
 781 05ee 6000 00DE 	jra .L51
 782               	.L38:
 566:/home/simulink/cFS_FreeRTOS_seL4/cfe/fsw/cfe-core/src/es/cfe_es_task.c **** 
 567:/home/simulink/cFS_FreeRTOS_seL4/cfe/fsw/cfe-core/src/es/cfe_es_task.c ****                 case CFE_ES_CLEAR_ERLOG_CC:
 568:/home/simulink/cFS_FreeRTOS_seL4/cfe/fsw/cfe-core/src/es/cfe_es_task.c ****                     CFE_ES_ClearERlogCmd(Msg);
 783               	.loc 1 568 0
 784 05f2 2F2F 0008 	move.l 8(%sp),-(%sp)
 785               	.cfi_def_cfa_offset 12
 786 05f6 4EB9 0000 	jsr CFE_ES_ClearERlogCmd
 786      0000 
 787 05fc 588F      	addq.l #4,%sp
 788               	.cfi_def_cfa_offset 8
 569:/home/simulink/cFS_FreeRTOS_seL4/cfe/fsw/cfe-core/src/es/cfe_es_task.c ****                     break;
 789               	.loc 1 569 0
 790 05fe 6000 00CE 	jra .L51
 791               	.L39:
 570:/home/simulink/cFS_FreeRTOS_seL4/cfe/fsw/cfe-core/src/es/cfe_es_task.c **** 
 571:/home/simulink/cFS_FreeRTOS_seL4/cfe/fsw/cfe-core/src/es/cfe_es_task.c ****                 case CFE_ES_WRITE_ERLOG_CC:
 572:/home/simulink/cFS_FreeRTOS_seL4/cfe/fsw/cfe-core/src/es/cfe_es_task.c ****                     CFE_ES_WriteERlogCmd(Msg);
 792               	.loc 1 572 0
 793 0602 2F2F 0008 	move.l 8(%sp),-(%sp)
 794               	.cfi_def_cfa_offset 12
 795 0606 4EB9 0000 	jsr CFE_ES_WriteERlogCmd
 795      0000 
 796 060c 588F      	addq.l #4,%sp
 797               	.cfi_def_cfa_offset 8
 573:/home/simulink/cFS_FreeRTOS_seL4/cfe/fsw/cfe-core/src/es/cfe_es_task.c ****                     break;
 798               	.loc 1 573 0
68K GAS   			page 28


 799 060e 6000 00BE 	jra .L51
 800               	.L40:
 574:/home/simulink/cFS_FreeRTOS_seL4/cfe/fsw/cfe-core/src/es/cfe_es_task.c **** 
 575:/home/simulink/cFS_FreeRTOS_seL4/cfe/fsw/cfe-core/src/es/cfe_es_task.c ****                 case CFE_ES_PERF_STARTDATA_CC:
 576:/home/simulink/cFS_FreeRTOS_seL4/cfe/fsw/cfe-core/src/es/cfe_es_task.c ****                     CFE_ES_PerfStartDataCmd(Msg);
 801               	.loc 1 576 0
 802 0612 2F2F 0008 	move.l 8(%sp),-(%sp)
 803               	.cfi_def_cfa_offset 12
 804 0616 4EB9 0000 	jsr CFE_ES_PerfStartDataCmd
 804      0000 
 805 061c 588F      	addq.l #4,%sp
 806               	.cfi_def_cfa_offset 8
 577:/home/simulink/cFS_FreeRTOS_seL4/cfe/fsw/cfe-core/src/es/cfe_es_task.c ****                     break;
 807               	.loc 1 577 0
 808 061e 6000 00AE 	jra .L51
 809               	.L41:
 578:/home/simulink/cFS_FreeRTOS_seL4/cfe/fsw/cfe-core/src/es/cfe_es_task.c **** 
 579:/home/simulink/cFS_FreeRTOS_seL4/cfe/fsw/cfe-core/src/es/cfe_es_task.c ****                 case CFE_ES_PERF_STOPDATA_CC:
 580:/home/simulink/cFS_FreeRTOS_seL4/cfe/fsw/cfe-core/src/es/cfe_es_task.c ****                     CFE_ES_PerfStopDataCmd(Msg);
 810               	.loc 1 580 0
 811 0622 2F2F 0008 	move.l 8(%sp),-(%sp)
 812               	.cfi_def_cfa_offset 12
 813 0626 4EB9 0000 	jsr CFE_ES_PerfStopDataCmd
 813      0000 
 814 062c 588F      	addq.l #4,%sp
 815               	.cfi_def_cfa_offset 8
 581:/home/simulink/cFS_FreeRTOS_seL4/cfe/fsw/cfe-core/src/es/cfe_es_task.c ****                     break;
 816               	.loc 1 581 0
 817 062e 6000 009E 	jra .L51
 818               	.L42:
 582:/home/simulink/cFS_FreeRTOS_seL4/cfe/fsw/cfe-core/src/es/cfe_es_task.c **** 
 583:/home/simulink/cFS_FreeRTOS_seL4/cfe/fsw/cfe-core/src/es/cfe_es_task.c ****                 case CFE_ES_PERF_SETFILTERMASK_CC:
 584:/home/simulink/cFS_FreeRTOS_seL4/cfe/fsw/cfe-core/src/es/cfe_es_task.c ****                     CFE_ES_PerfSetFilterMaskCmd(Msg);
 819               	.loc 1 584 0
 820 0632 2F2F 0008 	move.l 8(%sp),-(%sp)
 821               	.cfi_def_cfa_offset 12
 822 0636 4EB9 0000 	jsr CFE_ES_PerfSetFilterMaskCmd
 822      0000 
 823 063c 588F      	addq.l #4,%sp
 824               	.cfi_def_cfa_offset 8
 585:/home/simulink/cFS_FreeRTOS_seL4/cfe/fsw/cfe-core/src/es/cfe_es_task.c ****                     break;
 825               	.loc 1 585 0
 826 063e 6000 008E 	jra .L51
 827               	.L43:
 586:/home/simulink/cFS_FreeRTOS_seL4/cfe/fsw/cfe-core/src/es/cfe_es_task.c **** 
 587:/home/simulink/cFS_FreeRTOS_seL4/cfe/fsw/cfe-core/src/es/cfe_es_task.c ****                 case CFE_ES_PERF_SETTRIGMASK_CC:
 588:/home/simulink/cFS_FreeRTOS_seL4/cfe/fsw/cfe-core/src/es/cfe_es_task.c ****                     CFE_ES_PerfSetTriggerMaskCmd(Msg);
 828               	.loc 1 588 0
 829 0642 2F2F 0008 	move.l 8(%sp),-(%sp)
 830               	.cfi_def_cfa_offset 12
 831 0646 4EB9 0000 	jsr CFE_ES_PerfSetTriggerMaskCmd
 831      0000 
 832 064c 588F      	addq.l #4,%sp
 833               	.cfi_def_cfa_offset 8
 589:/home/simulink/cFS_FreeRTOS_seL4/cfe/fsw/cfe-core/src/es/cfe_es_task.c ****                     break;
 834               	.loc 1 589 0
 835 064e 607E      	jra .L51
68K GAS   			page 29


 836               	.L45:
 590:/home/simulink/cFS_FreeRTOS_seL4/cfe/fsw/cfe-core/src/es/cfe_es_task.c **** 
 591:/home/simulink/cFS_FreeRTOS_seL4/cfe/fsw/cfe-core/src/es/cfe_es_task.c ****                 case CFE_ES_RESET_PR_COUNT_CC:
 592:/home/simulink/cFS_FreeRTOS_seL4/cfe/fsw/cfe-core/src/es/cfe_es_task.c ****                     CFE_ES_ResetPRCountCmd(Msg);
 837               	.loc 1 592 0
 838 0650 2F2F 0008 	move.l 8(%sp),-(%sp)
 839               	.cfi_def_cfa_offset 12
 840 0654 4EB9 0000 	jsr CFE_ES_ResetPRCountCmd
 840      0000 
 841 065a 588F      	addq.l #4,%sp
 842               	.cfi_def_cfa_offset 8
 593:/home/simulink/cFS_FreeRTOS_seL4/cfe/fsw/cfe-core/src/es/cfe_es_task.c ****                     break;
 843               	.loc 1 593 0
 844 065c 6070      	jra .L51
 845               	.L46:
 594:/home/simulink/cFS_FreeRTOS_seL4/cfe/fsw/cfe-core/src/es/cfe_es_task.c **** 
 595:/home/simulink/cFS_FreeRTOS_seL4/cfe/fsw/cfe-core/src/es/cfe_es_task.c ****                 case CFE_ES_SET_MAX_PR_COUNT_CC:
 596:/home/simulink/cFS_FreeRTOS_seL4/cfe/fsw/cfe-core/src/es/cfe_es_task.c ****                     CFE_ES_SetMaxPRCountCmd(Msg);
 846               	.loc 1 596 0
 847 065e 2F2F 0008 	move.l 8(%sp),-(%sp)
 848               	.cfi_def_cfa_offset 12
 849 0662 4EB9 0000 	jsr CFE_ES_SetMaxPRCountCmd
 849      0000 
 850 0668 588F      	addq.l #4,%sp
 851               	.cfi_def_cfa_offset 8
 597:/home/simulink/cFS_FreeRTOS_seL4/cfe/fsw/cfe-core/src/es/cfe_es_task.c ****                     break;
 852               	.loc 1 597 0
 853 066a 6062      	jra .L51
 854               	.L47:
 598:/home/simulink/cFS_FreeRTOS_seL4/cfe/fsw/cfe-core/src/es/cfe_es_task.c **** 
 599:/home/simulink/cFS_FreeRTOS_seL4/cfe/fsw/cfe-core/src/es/cfe_es_task.c ****                 case CFE_ES_DELETE_CDS_CC:
 600:/home/simulink/cFS_FreeRTOS_seL4/cfe/fsw/cfe-core/src/es/cfe_es_task.c ****                     CFE_ES_DeleteCDSCmd(Msg);
 855               	.loc 1 600 0
 856 066c 2F2F 0008 	move.l 8(%sp),-(%sp)
 857               	.cfi_def_cfa_offset 12
 858 0670 4EB9 0000 	jsr CFE_ES_DeleteCDSCmd
 858      0000 
 859 0676 588F      	addq.l #4,%sp
 860               	.cfi_def_cfa_offset 8
 601:/home/simulink/cFS_FreeRTOS_seL4/cfe/fsw/cfe-core/src/es/cfe_es_task.c ****                     break;
 861               	.loc 1 601 0
 862 0678 6054      	jra .L51
 863               	.L48:
 602:/home/simulink/cFS_FreeRTOS_seL4/cfe/fsw/cfe-core/src/es/cfe_es_task.c **** 
 603:/home/simulink/cFS_FreeRTOS_seL4/cfe/fsw/cfe-core/src/es/cfe_es_task.c ****                 case CFE_ES_TLM_POOL_STATS_CC:
 604:/home/simulink/cFS_FreeRTOS_seL4/cfe/fsw/cfe-core/src/es/cfe_es_task.c ****                     CFE_ES_TlmPoolStatsCmd(Msg);
 864               	.loc 1 604 0
 865 067a 2F2F 0008 	move.l 8(%sp),-(%sp)
 866               	.cfi_def_cfa_offset 12
 867 067e 4EB9 0000 	jsr CFE_ES_TlmPoolStatsCmd
 867      0000 
 868 0684 588F      	addq.l #4,%sp
 869               	.cfi_def_cfa_offset 8
 605:/home/simulink/cFS_FreeRTOS_seL4/cfe/fsw/cfe-core/src/es/cfe_es_task.c ****                     break;
 870               	.loc 1 605 0
 871 0686 6046      	jra .L51
 872               	.L49:
68K GAS   			page 30


 606:/home/simulink/cFS_FreeRTOS_seL4/cfe/fsw/cfe-core/src/es/cfe_es_task.c **** 
 607:/home/simulink/cFS_FreeRTOS_seL4/cfe/fsw/cfe-core/src/es/cfe_es_task.c ****                 case CFE_ES_DUMP_CDS_REG_CC:
 608:/home/simulink/cFS_FreeRTOS_seL4/cfe/fsw/cfe-core/src/es/cfe_es_task.c ****                     CFE_ES_DumpCDSRegCmd(Msg);
 873               	.loc 1 608 0
 874 0688 2F2F 0008 	move.l 8(%sp),-(%sp)
 875               	.cfi_def_cfa_offset 12
 876 068c 4EB9 0000 	jsr CFE_ES_DumpCDSRegCmd
 876      0000 
 877 0692 588F      	addq.l #4,%sp
 878               	.cfi_def_cfa_offset 8
 609:/home/simulink/cFS_FreeRTOS_seL4/cfe/fsw/cfe-core/src/es/cfe_es_task.c ****                     break;
 879               	.loc 1 609 0
 880 0694 6038      	jra .L51
 881               	.L24:
 610:/home/simulink/cFS_FreeRTOS_seL4/cfe/fsw/cfe-core/src/es/cfe_es_task.c **** 
 611:/home/simulink/cFS_FreeRTOS_seL4/cfe/fsw/cfe-core/src/es/cfe_es_task.c ****                 default:
 612:/home/simulink/cFS_FreeRTOS_seL4/cfe/fsw/cfe-core/src/es/cfe_es_task.c ****                     CFE_EVS_SendEvent(CFE_ES_CC1_ERR_EID, CFE_EVS_ERROR,
 882               	.loc 1 612 0
 883 0696 4281      	clr.l %d1
 884 0698 3217      	move.w (%sp),%d1
 885 069a 4280      	clr.l %d0
 886 069c 302F 0002 	move.w 2(%sp),%d0
 887 06a0 2F01      	move.l %d1,-(%sp)
 888               	.cfi_def_cfa_offset 12
 889 06a2 2F00      	move.l %d0,-(%sp)
 890               	.cfi_def_cfa_offset 16
 891 06a4 4879 0000 	pea .LC11
 891      0000 
 892               	.cfi_def_cfa_offset 20
 893 06aa 4878 0003 	pea 3.w
 894               	.cfi_def_cfa_offset 24
 895 06ae 4878 0016 	pea 22.w
 896               	.cfi_def_cfa_offset 28
 897 06b2 4EB9 0000 	jsr CFE_EVS_SendEvent
 897      0000 
 898 06b8 4FEF 0014 	lea (20,%sp),%sp
 899               	.cfi_def_cfa_offset 8
 613:/home/simulink/cFS_FreeRTOS_seL4/cfe/fsw/cfe-core/src/es/cfe_es_task.c ****                      "Invalid ground command code: ID = 0x%X, CC = %d",
 614:/home/simulink/cFS_FreeRTOS_seL4/cfe/fsw/cfe-core/src/es/cfe_es_task.c ****                                       MessageID, CommandCode);
 615:/home/simulink/cFS_FreeRTOS_seL4/cfe/fsw/cfe-core/src/es/cfe_es_task.c ****                     CFE_ES_TaskData.ErrCounter++;
 900               	.loc 1 615 0
 901 06bc 1039 0000 	move.b CFE_ES_TaskData+1,%d0
 901      0000 
 902 06c2 5280      	addq.l #1,%d0
 903 06c4 1000      	move.b %d0,%d0
 904 06c6 13C0 0000 	move.b %d0,CFE_ES_TaskData+1
 904      0000 
 616:/home/simulink/cFS_FreeRTOS_seL4/cfe/fsw/cfe-core/src/es/cfe_es_task.c ****                     break;
 905               	.loc 1 616 0
 906 06cc 4E71      	nop
 907               	.L51:
 617:/home/simulink/cFS_FreeRTOS_seL4/cfe/fsw/cfe-core/src/es/cfe_es_task.c ****             }
 618:/home/simulink/cFS_FreeRTOS_seL4/cfe/fsw/cfe-core/src/es/cfe_es_task.c ****             break;
 908               	.loc 1 618 0
 909 06ce 6032      	jra .L23
 910               	.L52:
 619:/home/simulink/cFS_FreeRTOS_seL4/cfe/fsw/cfe-core/src/es/cfe_es_task.c **** 
68K GAS   			page 31


 620:/home/simulink/cFS_FreeRTOS_seL4/cfe/fsw/cfe-core/src/es/cfe_es_task.c ****         default:
 621:/home/simulink/cFS_FreeRTOS_seL4/cfe/fsw/cfe-core/src/es/cfe_es_task.c **** 
 622:/home/simulink/cFS_FreeRTOS_seL4/cfe/fsw/cfe-core/src/es/cfe_es_task.c ****             CFE_EVS_SendEvent(CFE_ES_MID_ERR_EID, CFE_EVS_ERROR,
 911               	.loc 1 622 0
 912 06d0 4280      	clr.l %d0
 913 06d2 302F 0002 	move.w 2(%sp),%d0
 914 06d6 2F00      	move.l %d0,-(%sp)
 915               	.cfi_def_cfa_offset 12
 916 06d8 4879 0000 	pea .LC12
 916      0000 
 917               	.cfi_def_cfa_offset 16
 918 06de 4878 0003 	pea 3.w
 919               	.cfi_def_cfa_offset 20
 920 06e2 4878 0015 	pea 21.w
 921               	.cfi_def_cfa_offset 24
 922 06e6 4EB9 0000 	jsr CFE_EVS_SendEvent
 922      0000 
 923 06ec 4FEF 0010 	lea (16,%sp),%sp
 924               	.cfi_def_cfa_offset 8
 623:/home/simulink/cFS_FreeRTOS_seL4/cfe/fsw/cfe-core/src/es/cfe_es_task.c ****                              "Invalid command pipe message ID: 0x%X",
 624:/home/simulink/cFS_FreeRTOS_seL4/cfe/fsw/cfe-core/src/es/cfe_es_task.c ****                               MessageID);
 625:/home/simulink/cFS_FreeRTOS_seL4/cfe/fsw/cfe-core/src/es/cfe_es_task.c ****             CFE_ES_TaskData.ErrCounter++;
 925               	.loc 1 625 0
 926 06f0 1039 0000 	move.b CFE_ES_TaskData+1,%d0
 926      0000 
 927 06f6 5280      	addq.l #1,%d0
 928 06f8 1000      	move.b %d0,%d0
 929 06fa 13C0 0000 	move.b %d0,CFE_ES_TaskData+1
 929      0000 
 626:/home/simulink/cFS_FreeRTOS_seL4/cfe/fsw/cfe-core/src/es/cfe_es_task.c ****             break;
 930               	.loc 1 626 0
 931 0700 4E71      	nop
 932               	.L23:
 627:/home/simulink/cFS_FreeRTOS_seL4/cfe/fsw/cfe-core/src/es/cfe_es_task.c ****     }
 628:/home/simulink/cFS_FreeRTOS_seL4/cfe/fsw/cfe-core/src/es/cfe_es_task.c **** 
 629:/home/simulink/cFS_FreeRTOS_seL4/cfe/fsw/cfe-core/src/es/cfe_es_task.c **** } /* End of CFE_ES_TaskPipe() */
 933               	.loc 1 629 0
 934 0702 4E71      	nop
 935 0704 588F      	addq.l #4,%sp
 936 0706 4E75      	rts
 937               	.cfi_endproc
 938               	.LFE61:
 939               	.sizeCFE_ES_TaskPipe, .-CFE_ES_TaskPipe
 940               	.align2
 941               	.globlCFE_ES_HousekeepingCmd
 942               	.typeCFE_ES_HousekeepingCmd, @function
 943               	CFE_ES_HousekeepingCmd:
 944               	.LFB62:
 630:/home/simulink/cFS_FreeRTOS_seL4/cfe/fsw/cfe-core/src/es/cfe_es_task.c **** 
 631:/home/simulink/cFS_FreeRTOS_seL4/cfe/fsw/cfe-core/src/es/cfe_es_task.c **** 
 632:/home/simulink/cFS_FreeRTOS_seL4/cfe/fsw/cfe-core/src/es/cfe_es_task.c **** /* * * * * * * * * * * * * * * * * * * * * * * * * * * * * * * * * */
 633:/home/simulink/cFS_FreeRTOS_seL4/cfe/fsw/cfe-core/src/es/cfe_es_task.c **** /*                                                                 */
 634:/home/simulink/cFS_FreeRTOS_seL4/cfe/fsw/cfe-core/src/es/cfe_es_task.c **** /* CFE_ES_HousekeepingCmd() -- On-board command (HK request)       */
 635:/home/simulink/cFS_FreeRTOS_seL4/cfe/fsw/cfe-core/src/es/cfe_es_task.c **** /*                                                                 */
 636:/home/simulink/cFS_FreeRTOS_seL4/cfe/fsw/cfe-core/src/es/cfe_es_task.c **** /* * * * * * * * * * * * * * * * * * * * * * * * * * * * * * * * * */
 637:/home/simulink/cFS_FreeRTOS_seL4/cfe/fsw/cfe-core/src/es/cfe_es_task.c **** 
 638:/home/simulink/cFS_FreeRTOS_seL4/cfe/fsw/cfe-core/src/es/cfe_es_task.c **** void CFE_ES_HousekeepingCmd(CFE_SB_MsgPtr_t Msg)
68K GAS   			page 32


 639:/home/simulink/cFS_FreeRTOS_seL4/cfe/fsw/cfe-core/src/es/cfe_es_task.c **** {
 945               	.loc 1 639 0
 946               	.cfi_startproc
 947 0708 4FEF FFEC 	lea (-20,%sp),%sp
 948               	.cfi_def_cfa_offset 24
 640:/home/simulink/cFS_FreeRTOS_seL4/cfe/fsw/cfe-core/src/es/cfe_es_task.c ****     OS_heap_prop_t HeapProp;
 641:/home/simulink/cFS_FreeRTOS_seL4/cfe/fsw/cfe-core/src/es/cfe_es_task.c ****     int32          stat;
 642:/home/simulink/cFS_FreeRTOS_seL4/cfe/fsw/cfe-core/src/es/cfe_es_task.c ****     uint32         PerfIdx;
 643:/home/simulink/cFS_FreeRTOS_seL4/cfe/fsw/cfe-core/src/es/cfe_es_task.c **** 
 644:/home/simulink/cFS_FreeRTOS_seL4/cfe/fsw/cfe-core/src/es/cfe_es_task.c ****     /*
 645:/home/simulink/cFS_FreeRTOS_seL4/cfe/fsw/cfe-core/src/es/cfe_es_task.c ****     ** Get command execution counters, system log entry count & bytes used.
 646:/home/simulink/cFS_FreeRTOS_seL4/cfe/fsw/cfe-core/src/es/cfe_es_task.c ****     */
 647:/home/simulink/cFS_FreeRTOS_seL4/cfe/fsw/cfe-core/src/es/cfe_es_task.c ****     CFE_ES_TaskData.HkPacket.Payload.CmdCounter = CFE_ES_TaskData.CmdCounter;
 949               	.loc 1 647 0
 950 070c 1039 0000 	move.b CFE_ES_TaskData,%d0
 950      0000 
 951 0712 13C0 0000 	move.b %d0,CFE_ES_TaskData+16
 951      0000 
 648:/home/simulink/cFS_FreeRTOS_seL4/cfe/fsw/cfe-core/src/es/cfe_es_task.c ****     CFE_ES_TaskData.HkPacket.Payload.ErrCounter = CFE_ES_TaskData.ErrCounter;
 952               	.loc 1 648 0
 953 0718 1039 0000 	move.b CFE_ES_TaskData+1,%d0
 953      0000 
 954 071e 13C0 0000 	move.b %d0,CFE_ES_TaskData+17
 954      0000 
 649:/home/simulink/cFS_FreeRTOS_seL4/cfe/fsw/cfe-core/src/es/cfe_es_task.c **** 
 650:/home/simulink/cFS_FreeRTOS_seL4/cfe/fsw/cfe-core/src/es/cfe_es_task.c ****     CFE_ES_TaskData.HkPacket.Payload.SysLogBytesUsed = CFE_ES_ResetDataPtr->SystemLogIndex;
 955               	.loc 1 650 0
 956 0724 2079 0000 	move.l CFE_ES_ResetDataPtr,%a0
 956      0000 
 957 072a 2028 20AC 	move.l 8364(%a0),%d0
 958 072e 23C0 0000 	move.l %d0,CFE_ES_TaskData+28
 958      0000 
 651:/home/simulink/cFS_FreeRTOS_seL4/cfe/fsw/cfe-core/src/es/cfe_es_task.c ****     CFE_ES_TaskData.HkPacket.Payload.SysLogSize = CFE_ES_SYSTEM_LOG_SIZE;
 959               	.loc 1 651 0
 960 0734 203C 0000 	move.l #3072,%d0
 960      0C00 
 961 073a 23C0 0000 	move.l %d0,CFE_ES_TaskData+32
 961      0000 
 652:/home/simulink/cFS_FreeRTOS_seL4/cfe/fsw/cfe-core/src/es/cfe_es_task.c ****     CFE_ES_TaskData.HkPacket.Payload.SysLogEntries   = CFE_ES_ResetDataPtr->SystemLogEntryNum;
 962               	.loc 1 652 0
 963 0740 2079 0000 	move.l CFE_ES_ResetDataPtr,%a0
 963      0000 
 964 0746 2028 20B4 	move.l 8372(%a0),%d0
 965 074a 23C0 0000 	move.l %d0,CFE_ES_TaskData+36
 965      0000 
 653:/home/simulink/cFS_FreeRTOS_seL4/cfe/fsw/cfe-core/src/es/cfe_es_task.c ****     CFE_ES_TaskData.HkPacket.Payload.SysLogMode = CFE_ES_ResetDataPtr->SystemLogMode;
 966               	.loc 1 653 0
 967 0750 2079 0000 	move.l CFE_ES_ResetDataPtr,%a0
 967      0000 
 968 0756 2028 20B0 	move.l 8368(%a0),%d0
 969 075a 23C0 0000 	move.l %d0,CFE_ES_TaskData+40
 969      0000 
 654:/home/simulink/cFS_FreeRTOS_seL4/cfe/fsw/cfe-core/src/es/cfe_es_task.c **** 
 655:/home/simulink/cFS_FreeRTOS_seL4/cfe/fsw/cfe-core/src/es/cfe_es_task.c ****     CFE_ES_TaskData.HkPacket.Payload.ERLogIndex      = CFE_ES_ResetDataPtr->ERLogIndex;
 970               	.loc 1 655 0
 971 0760 2079 0000 	move.l CFE_ES_ResetDataPtr,%a0
 971      0000 
68K GAS   			page 33


 972 0766 2028 14A0 	move.l 5280(%a0),%d0
 973 076a 23C0 0000 	move.l %d0,CFE_ES_TaskData+44
 973      0000 
 656:/home/simulink/cFS_FreeRTOS_seL4/cfe/fsw/cfe-core/src/es/cfe_es_task.c ****     CFE_ES_TaskData.HkPacket.Payload.ERLogEntries    = CFE_ES_ResetDataPtr->ERLogEntries;
 974               	.loc 1 656 0
 975 0770 2079 0000 	move.l CFE_ES_ResetDataPtr,%a0
 975      0000 
 976 0776 2028 14A4 	move.l 5284(%a0),%d0
 977 077a 23C0 0000 	move.l %d0,CFE_ES_TaskData+48
 977      0000 
 657:/home/simulink/cFS_FreeRTOS_seL4/cfe/fsw/cfe-core/src/es/cfe_es_task.c ****     
 658:/home/simulink/cFS_FreeRTOS_seL4/cfe/fsw/cfe-core/src/es/cfe_es_task.c ****     CFE_ES_TaskData.HkPacket.Payload.RegisteredCoreApps      = CFE_ES_Global.RegisteredCoreApps;
 978               	.loc 1 658 0
 979 0780 2039 0000 	move.l CFE_ES_Global+2340,%d0
 979      0000 
 980 0786 23C0 0000 	move.l %d0,CFE_ES_TaskData+52
 980      0000 
 659:/home/simulink/cFS_FreeRTOS_seL4/cfe/fsw/cfe-core/src/es/cfe_es_task.c ****     CFE_ES_TaskData.HkPacket.Payload.RegisteredExternalApps  = CFE_ES_Global.RegisteredExternalApps
 981               	.loc 1 659 0
 982 078c 2039 0000 	move.l CFE_ES_Global+2344,%d0
 982      0000 
 983 0792 23C0 0000 	move.l %d0,CFE_ES_TaskData+56
 983      0000 
 660:/home/simulink/cFS_FreeRTOS_seL4/cfe/fsw/cfe-core/src/es/cfe_es_task.c ****     CFE_ES_TaskData.HkPacket.Payload.RegisteredTasks         = CFE_ES_Global.RegisteredTasks;
 984               	.loc 1 660 0
 985 0798 2039 0000 	move.l CFE_ES_Global+32,%d0
 985      0000 
 986 079e 23C0 0000 	move.l %d0,CFE_ES_TaskData+60
 986      0000 
 661:/home/simulink/cFS_FreeRTOS_seL4/cfe/fsw/cfe-core/src/es/cfe_es_task.c ****     CFE_ES_TaskData.HkPacket.Payload.RegisteredLibs          = CFE_ES_Global.RegisteredLibs;
 987               	.loc 1 661 0
 988 07a4 2039 0000 	move.l CFE_ES_Global+7724,%d0
 988      0000 
 989 07aa 23C0 0000 	move.l %d0,CFE_ES_TaskData+64
 989      0000 
 662:/home/simulink/cFS_FreeRTOS_seL4/cfe/fsw/cfe-core/src/es/cfe_es_task.c **** 
 663:/home/simulink/cFS_FreeRTOS_seL4/cfe/fsw/cfe-core/src/es/cfe_es_task.c ****     CFE_ES_TaskData.HkPacket.Payload.ResetType = CFE_ES_ResetDataPtr->ResetVars.ResetType;
 990               	.loc 1 663 0
 991 07b0 2079 0000 	move.l CFE_ES_ResetDataPtr,%a0
 991      0000 
 992 07b6 203C 0001 	move.l #128452,%d0
 992      F5C4 
 993 07bc 2030 0800 	move.l (%a0,%d0.l),%d0
 994 07c0 23C0 0000 	move.l %d0,CFE_ES_TaskData+68
 994      0000 
 664:/home/simulink/cFS_FreeRTOS_seL4/cfe/fsw/cfe-core/src/es/cfe_es_task.c ****     CFE_ES_TaskData.HkPacket.Payload.ResetSubtype = CFE_ES_ResetDataPtr->ResetVars.ResetSubtype;
 995               	.loc 1 664 0
 996 07c6 2079 0000 	move.l CFE_ES_ResetDataPtr,%a0
 996      0000 
 997 07cc 203C 0001 	move.l #128456,%d0
 997      F5C8 
 998 07d2 2030 0800 	move.l (%a0,%d0.l),%d0
 999 07d6 23C0 0000 	move.l %d0,CFE_ES_TaskData+72
 999      0000 
 665:/home/simulink/cFS_FreeRTOS_seL4/cfe/fsw/cfe-core/src/es/cfe_es_task.c ****     CFE_ES_TaskData.HkPacket.Payload.ProcessorResets = CFE_ES_ResetDataPtr->ResetVars.ProcessorRese
 1000               	.loc 1 665 0
 1001 07dc 2079 0000 	move.l CFE_ES_ResetDataPtr,%a0
68K GAS   			page 34


 1001      0000 
 1002 07e2 203C 0001 	move.l #128468,%d0
 1002      F5D4 
 1003 07e8 2030 0800 	move.l (%a0,%d0.l),%d0
 1004 07ec 23C0 0000 	move.l %d0,CFE_ES_TaskData+76
 1004      0000 
 666:/home/simulink/cFS_FreeRTOS_seL4/cfe/fsw/cfe-core/src/es/cfe_es_task.c ****     CFE_ES_TaskData.HkPacket.Payload.MaxProcessorResets = CFE_ES_ResetDataPtr->ResetVars.MaxProcess
 1005               	.loc 1 666 0
 1006 07f2 2079 0000 	move.l CFE_ES_ResetDataPtr,%a0
 1006      0000 
 1007 07f8 203C 0001 	move.l #128472,%d0
 1007      F5D8 
 1008 07fe 2030 0800 	move.l (%a0,%d0.l),%d0
 1009 0802 23C0 0000 	move.l %d0,CFE_ES_TaskData+80
 1009      0000 
 667:/home/simulink/cFS_FreeRTOS_seL4/cfe/fsw/cfe-core/src/es/cfe_es_task.c ****     CFE_ES_TaskData.HkPacket.Payload.BootSource = CFE_ES_ResetDataPtr->ResetVars.BootSource;
 1010               	.loc 1 667 0
 1011 0808 2079 0000 	move.l CFE_ES_ResetDataPtr,%a0
 1011      0000 
 1012 080e 203C 0001 	move.l #128460,%d0
 1012      F5CC 
 1013 0814 2030 0800 	move.l (%a0,%d0.l),%d0
 1014 0818 23C0 0000 	move.l %d0,CFE_ES_TaskData+84
 1014      0000 
 668:/home/simulink/cFS_FreeRTOS_seL4/cfe/fsw/cfe-core/src/es/cfe_es_task.c **** 
 669:/home/simulink/cFS_FreeRTOS_seL4/cfe/fsw/cfe-core/src/es/cfe_es_task.c ****     CFE_ES_TaskData.HkPacket.Payload.PerfState = CFE_ES_ResetDataPtr->Perf.MetaData.State;
 1015               	.loc 1 669 0
 1016 081e 2079 0000 	move.l CFE_ES_ResetDataPtr,%a0
 1016      0000 
 1017 0824 2028 20C4 	move.l 8388(%a0),%d0
 1018 0828 23C0 0000 	move.l %d0,CFE_ES_TaskData+88
 1018      0000 
 670:/home/simulink/cFS_FreeRTOS_seL4/cfe/fsw/cfe-core/src/es/cfe_es_task.c ****     CFE_ES_TaskData.HkPacket.Payload.PerfMode = CFE_ES_ResetDataPtr->Perf.MetaData.Mode;
 1019               	.loc 1 670 0
 1020 082e 2079 0000 	move.l CFE_ES_ResetDataPtr,%a0
 1020      0000 
 1021 0834 2028 20C8 	move.l 8392(%a0),%d0
 1022 0838 23C0 0000 	move.l %d0,CFE_ES_TaskData+92
 1022      0000 
 671:/home/simulink/cFS_FreeRTOS_seL4/cfe/fsw/cfe-core/src/es/cfe_es_task.c ****     CFE_ES_TaskData.HkPacket.Payload.PerfTriggerCount = CFE_ES_ResetDataPtr->Perf.MetaData.TriggerC
 1023               	.loc 1 671 0
 1024 083e 2079 0000 	move.l CFE_ES_ResetDataPtr,%a0
 1024      0000 
 1025 0844 2028 20CC 	move.l 8396(%a0),%d0
 1026 0848 23C0 0000 	move.l %d0,CFE_ES_TaskData+96
 1026      0000 
 672:/home/simulink/cFS_FreeRTOS_seL4/cfe/fsw/cfe-core/src/es/cfe_es_task.c ****     CFE_ES_TaskData.HkPacket.Payload.PerfDataStart = CFE_ES_ResetDataPtr->Perf.MetaData.DataStart;
 1027               	.loc 1 672 0
 1028 084e 2079 0000 	move.l CFE_ES_ResetDataPtr,%a0
 1028      0000 
 1029 0854 2028 20D0 	move.l 8400(%a0),%d0
 1030 0858 23C0 0000 	move.l %d0,CFE_ES_TaskData+132
 1030      0000 
 673:/home/simulink/cFS_FreeRTOS_seL4/cfe/fsw/cfe-core/src/es/cfe_es_task.c ****     CFE_ES_TaskData.HkPacket.Payload.PerfDataEnd = CFE_ES_ResetDataPtr->Perf.MetaData.DataEnd;
 1031               	.loc 1 673 0
 1032 085e 2079 0000 	move.l CFE_ES_ResetDataPtr,%a0
 1032      0000 
68K GAS   			page 35


 1033 0864 2028 20D4 	move.l 8404(%a0),%d0
 1034 0868 23C0 0000 	move.l %d0,CFE_ES_TaskData+136
 1034      0000 
 674:/home/simulink/cFS_FreeRTOS_seL4/cfe/fsw/cfe-core/src/es/cfe_es_task.c ****     CFE_ES_TaskData.HkPacket.Payload.PerfDataCount = CFE_ES_ResetDataPtr->Perf.MetaData.DataCount;
 1035               	.loc 1 674 0
 1036 086e 2079 0000 	move.l CFE_ES_ResetDataPtr,%a0
 1036      0000 
 1037 0874 2028 20D8 	move.l 8408(%a0),%d0
 1038 0878 23C0 0000 	move.l %d0,CFE_ES_TaskData+140
 1038      0000 
 675:/home/simulink/cFS_FreeRTOS_seL4/cfe/fsw/cfe-core/src/es/cfe_es_task.c ****     CFE_ES_TaskData.HkPacket.Payload.PerfDataToWrite = CFE_ES_PerfLogDumpStatus.DataToWrite;
 1039               	.loc 1 675 0
 1040 087e 2039 0000 	move.l CFE_ES_PerfLogDumpStatus,%d0
 1040      0000 
 1041 0884 23C0 0000 	move.l %d0,CFE_ES_TaskData+144
 1041      0000 
 676:/home/simulink/cFS_FreeRTOS_seL4/cfe/fsw/cfe-core/src/es/cfe_es_task.c **** 
 677:/home/simulink/cFS_FreeRTOS_seL4/cfe/fsw/cfe-core/src/es/cfe_es_task.c ****     /*
 678:/home/simulink/cFS_FreeRTOS_seL4/cfe/fsw/cfe-core/src/es/cfe_es_task.c ****      * Fill out the perf trigger/filter mask objects
 679:/home/simulink/cFS_FreeRTOS_seL4/cfe/fsw/cfe-core/src/es/cfe_es_task.c ****      * The entire array in the HK payload object (external size) must be filled,
 680:/home/simulink/cFS_FreeRTOS_seL4/cfe/fsw/cfe-core/src/es/cfe_es_task.c ****      * to avoid sending garbage data.
 681:/home/simulink/cFS_FreeRTOS_seL4/cfe/fsw/cfe-core/src/es/cfe_es_task.c ****      *
 682:/home/simulink/cFS_FreeRTOS_seL4/cfe/fsw/cfe-core/src/es/cfe_es_task.c ****      * If it is larger than what the platform supports (internal size), it will
 683:/home/simulink/cFS_FreeRTOS_seL4/cfe/fsw/cfe-core/src/es/cfe_es_task.c ****      * be padded with 0's
 684:/home/simulink/cFS_FreeRTOS_seL4/cfe/fsw/cfe-core/src/es/cfe_es_task.c ****      *
 685:/home/simulink/cFS_FreeRTOS_seL4/cfe/fsw/cfe-core/src/es/cfe_es_task.c ****      * If it is smaller than what the platform supports, then truncate.
 686:/home/simulink/cFS_FreeRTOS_seL4/cfe/fsw/cfe-core/src/es/cfe_es_task.c ****      */
 687:/home/simulink/cFS_FreeRTOS_seL4/cfe/fsw/cfe-core/src/es/cfe_es_task.c ****     for (PerfIdx = 0; PerfIdx < CFE_ES_PERF_TRIGGERMASK_EXT_SIZE; ++PerfIdx)
 1042               	.loc 1 687 0
 1043 088a 42AF 0010 	clr.l 16(%sp)
 1044 088e 604E      	jra .L54
 1045               	.L57:
 688:/home/simulink/cFS_FreeRTOS_seL4/cfe/fsw/cfe-core/src/es/cfe_es_task.c ****     {
 689:/home/simulink/cFS_FreeRTOS_seL4/cfe/fsw/cfe-core/src/es/cfe_es_task.c ****         if (PerfIdx < CFE_ES_PERF_TRIGGERMASK_INT_SIZE)
 1046               	.loc 1 689 0
 1047 0890 7003      	moveq #3,%d0
 1048 0892 B0AF 0010 	cmp.l 16(%sp),%d0
 1049 0896 652C      	jcs .L55
 690:/home/simulink/cFS_FreeRTOS_seL4/cfe/fsw/cfe-core/src/es/cfe_es_task.c ****         {
 691:/home/simulink/cFS_FreeRTOS_seL4/cfe/fsw/cfe-core/src/es/cfe_es_task.c ****             CFE_ES_TaskData.HkPacket.Payload.PerfTriggerMask[PerfIdx] =
 692:/home/simulink/cFS_FreeRTOS_seL4/cfe/fsw/cfe-core/src/es/cfe_es_task.c ****                     CFE_ES_ResetDataPtr->Perf.MetaData.TriggerMask[PerfIdx];
 1050               	.loc 1 692 0
 1051 0898 2079 0000 	move.l CFE_ES_ResetDataPtr,%a0
 1051      0000 
 1052 089e 202F 0010 	move.l 16(%sp),%d0
 1053 08a2 0680 0000 	add.l #2109,%d0
 1053      083D 
 1054 08a8 2230 0C00 	move.l (%a0,%d0.l*4),%d1
 691:/home/simulink/cFS_FreeRTOS_seL4/cfe/fsw/cfe-core/src/es/cfe_es_task.c ****                     CFE_ES_ResetDataPtr->Perf.MetaData.TriggerMask[PerfIdx];
 1055               	.loc 1 691 0
 1056 08ac 202F 0010 	move.l 16(%sp),%d0
 1057 08b0 0680 0000 	add.l #29,%d0
 1057      001D 
 1058 08b6 E588      	lsl.l #2,%d0
 1059 08b8 41F9 0000 	lea CFE_ES_TaskData,%a0
 1059      0000 
 1060 08be 2181 0800 	move.l %d1,(%a0,%d0.l)
68K GAS   			page 36


 1061 08c2 6016      	jra .L56
 1062               	.L55:
 693:/home/simulink/cFS_FreeRTOS_seL4/cfe/fsw/cfe-core/src/es/cfe_es_task.c ****         }
 694:/home/simulink/cFS_FreeRTOS_seL4/cfe/fsw/cfe-core/src/es/cfe_es_task.c ****         else
 695:/home/simulink/cFS_FreeRTOS_seL4/cfe/fsw/cfe-core/src/es/cfe_es_task.c ****         {
 696:/home/simulink/cFS_FreeRTOS_seL4/cfe/fsw/cfe-core/src/es/cfe_es_task.c ****             CFE_ES_TaskData.HkPacket.Payload.PerfTriggerMask[PerfIdx] = 0;
 1063               	.loc 1 696 0
 1064 08c4 202F 0010 	move.l 16(%sp),%d0
 1065 08c8 0680 0000 	add.l #29,%d0
 1065      001D 
 1066 08ce E588      	lsl.l #2,%d0
 1067 08d0 41F9 0000 	lea CFE_ES_TaskData,%a0
 1067      0000 
 1068 08d6 42B0 0800 	clr.l (%a0,%d0.l)
 1069               	.L56:
 687:/home/simulink/cFS_FreeRTOS_seL4/cfe/fsw/cfe-core/src/es/cfe_es_task.c ****     {
 1070               	.loc 1 687 0 discriminator 2
 1071 08da 52AF 0010 	addq.l #1,16(%sp)
 1072               	.L54:
 687:/home/simulink/cFS_FreeRTOS_seL4/cfe/fsw/cfe-core/src/es/cfe_es_task.c ****     {
 1073               	.loc 1 687 0 is_stmt 0 discriminator 1
 1074 08de 7003      	moveq #3,%d0
 1075 08e0 B0AF 0010 	cmp.l 16(%sp),%d0
 1076 08e4 64AA      	jcc .L57
 697:/home/simulink/cFS_FreeRTOS_seL4/cfe/fsw/cfe-core/src/es/cfe_es_task.c ****         }
 698:/home/simulink/cFS_FreeRTOS_seL4/cfe/fsw/cfe-core/src/es/cfe_es_task.c ****     }
 699:/home/simulink/cFS_FreeRTOS_seL4/cfe/fsw/cfe-core/src/es/cfe_es_task.c **** 
 700:/home/simulink/cFS_FreeRTOS_seL4/cfe/fsw/cfe-core/src/es/cfe_es_task.c ****     for (PerfIdx = 0; PerfIdx < CFE_ES_PERF_FILTERMASK_EXT_SIZE; ++PerfIdx)
 1077               	.loc 1 700 0 is_stmt 1
 1078 08e6 42AF 0010 	clr.l 16(%sp)
 1079 08ea 604E      	jra .L58
 1080               	.L61:
 701:/home/simulink/cFS_FreeRTOS_seL4/cfe/fsw/cfe-core/src/es/cfe_es_task.c ****     {
 702:/home/simulink/cFS_FreeRTOS_seL4/cfe/fsw/cfe-core/src/es/cfe_es_task.c ****         if (PerfIdx < CFE_ES_PERF_FILTERMASK_INT_SIZE)
 1081               	.loc 1 702 0
 1082 08ec 7003      	moveq #3,%d0
 1083 08ee B0AF 0010 	cmp.l 16(%sp),%d0
 1084 08f2 652C      	jcs .L59
 703:/home/simulink/cFS_FreeRTOS_seL4/cfe/fsw/cfe-core/src/es/cfe_es_task.c ****         {
 704:/home/simulink/cFS_FreeRTOS_seL4/cfe/fsw/cfe-core/src/es/cfe_es_task.c ****             CFE_ES_TaskData.HkPacket.Payload.PerfFilterMask[PerfIdx] =
 705:/home/simulink/cFS_FreeRTOS_seL4/cfe/fsw/cfe-core/src/es/cfe_es_task.c ****                     CFE_ES_ResetDataPtr->Perf.MetaData.FilterMask[PerfIdx];
 1085               	.loc 1 705 0
 1086 08f4 2079 0000 	move.l CFE_ES_ResetDataPtr,%a0
 1086      0000 
 1087 08fa 202F 0010 	move.l 16(%sp),%d0
 1088 08fe 0680 0000 	add.l #2105,%d0
 1088      0839 
 1089 0904 2230 0C00 	move.l (%a0,%d0.l*4),%d1
 704:/home/simulink/cFS_FreeRTOS_seL4/cfe/fsw/cfe-core/src/es/cfe_es_task.c ****                     CFE_ES_ResetDataPtr->Perf.MetaData.FilterMask[PerfIdx];
 1090               	.loc 1 704 0
 1091 0908 202F 0010 	move.l 16(%sp),%d0
 1092 090c 0680 0000 	add.l #25,%d0
 1092      0019 
 1093 0912 E588      	lsl.l #2,%d0
 1094 0914 41F9 0000 	lea CFE_ES_TaskData,%a0
 1094      0000 
 1095 091a 2181 0800 	move.l %d1,(%a0,%d0.l)
68K GAS   			page 37


 1096 091e 6016      	jra .L60
 1097               	.L59:
 706:/home/simulink/cFS_FreeRTOS_seL4/cfe/fsw/cfe-core/src/es/cfe_es_task.c ****         }
 707:/home/simulink/cFS_FreeRTOS_seL4/cfe/fsw/cfe-core/src/es/cfe_es_task.c ****         else
 708:/home/simulink/cFS_FreeRTOS_seL4/cfe/fsw/cfe-core/src/es/cfe_es_task.c ****         {
 709:/home/simulink/cFS_FreeRTOS_seL4/cfe/fsw/cfe-core/src/es/cfe_es_task.c ****             CFE_ES_TaskData.HkPacket.Payload.PerfFilterMask[PerfIdx] = 0;
 1098               	.loc 1 709 0
 1099 0920 202F 0010 	move.l 16(%sp),%d0
 1100 0924 0680 0000 	add.l #25,%d0
 1100      0019 
 1101 092a E588      	lsl.l #2,%d0
 1102 092c 41F9 0000 	lea CFE_ES_TaskData,%a0
 1102      0000 
 1103 0932 42B0 0800 	clr.l (%a0,%d0.l)
 1104               	.L60:
 700:/home/simulink/cFS_FreeRTOS_seL4/cfe/fsw/cfe-core/src/es/cfe_es_task.c ****     {
 1105               	.loc 1 700 0 discriminator 2
 1106 0936 52AF 0010 	addq.l #1,16(%sp)
 1107               	.L58:
 700:/home/simulink/cFS_FreeRTOS_seL4/cfe/fsw/cfe-core/src/es/cfe_es_task.c ****     {
 1108               	.loc 1 700 0 is_stmt 0 discriminator 1
 1109 093a 7003      	moveq #3,%d0
 1110 093c B0AF 0010 	cmp.l 16(%sp),%d0
 1111 0940 64AA      	jcc .L61
 710:/home/simulink/cFS_FreeRTOS_seL4/cfe/fsw/cfe-core/src/es/cfe_es_task.c ****         }
 711:/home/simulink/cFS_FreeRTOS_seL4/cfe/fsw/cfe-core/src/es/cfe_es_task.c ****     }
 712:/home/simulink/cFS_FreeRTOS_seL4/cfe/fsw/cfe-core/src/es/cfe_es_task.c **** 
 713:/home/simulink/cFS_FreeRTOS_seL4/cfe/fsw/cfe-core/src/es/cfe_es_task.c ****     stat = OS_HeapGetInfo(&HeapProp);
 1112               	.loc 1 713 0 is_stmt 1
 1113 0942 200F      	move.l %sp,%d0
 1114 0944 2F00      	move.l %d0,-(%sp)
 1115               	.cfi_def_cfa_offset 28
 1116 0946 4EB9 0000 	jsr OS_HeapGetInfo
 1116      0000 
 1117 094c 588F      	addq.l #4,%sp
 1118               	.cfi_def_cfa_offset 24
 1119 094e 2F40 000C 	move.l %d0,12(%sp)
 714:/home/simulink/cFS_FreeRTOS_seL4/cfe/fsw/cfe-core/src/es/cfe_es_task.c **** 
 715:/home/simulink/cFS_FreeRTOS_seL4/cfe/fsw/cfe-core/src/es/cfe_es_task.c ****     if(stat == OS_SUCCESS)
 1120               	.loc 1 715 0
 1121 0952 4AAF 000C 	tst.l 12(%sp)
 1122 0956 661E      	jne .L62
 716:/home/simulink/cFS_FreeRTOS_seL4/cfe/fsw/cfe-core/src/es/cfe_es_task.c ****     {
 717:/home/simulink/cFS_FreeRTOS_seL4/cfe/fsw/cfe-core/src/es/cfe_es_task.c ****         CFE_ES_TaskData.HkPacket.Payload.HeapBytesFree = HeapProp.free_bytes;
 1123               	.loc 1 717 0
 1124 0958 2017      	move.l (%sp),%d0
 1125 095a 23C0 0000 	move.l %d0,CFE_ES_TaskData+148
 1125      0000 
 718:/home/simulink/cFS_FreeRTOS_seL4/cfe/fsw/cfe-core/src/es/cfe_es_task.c ****         CFE_ES_TaskData.HkPacket.Payload.HeapBlocksFree = HeapProp.free_blocks;
 1126               	.loc 1 718 0
 1127 0960 202F 0004 	move.l 4(%sp),%d0
 1128 0964 23C0 0000 	move.l %d0,CFE_ES_TaskData+152
 1128      0000 
 719:/home/simulink/cFS_FreeRTOS_seL4/cfe/fsw/cfe-core/src/es/cfe_es_task.c ****         CFE_ES_TaskData.HkPacket.Payload.HeapMaxBlockSize = HeapProp.largest_free_block;
 1129               	.loc 1 719 0
 1130 096a 202F 0008 	move.l 8(%sp),%d0
 1131 096e 23C0 0000 	move.l %d0,CFE_ES_TaskData+156
68K GAS   			page 38


 1131      0000 
 1132 0974 6012      	jra .L63
 1133               	.L62:
 720:/home/simulink/cFS_FreeRTOS_seL4/cfe/fsw/cfe-core/src/es/cfe_es_task.c ****     }
 721:/home/simulink/cFS_FreeRTOS_seL4/cfe/fsw/cfe-core/src/es/cfe_es_task.c ****     else
 722:/home/simulink/cFS_FreeRTOS_seL4/cfe/fsw/cfe-core/src/es/cfe_es_task.c ****     {
 723:/home/simulink/cFS_FreeRTOS_seL4/cfe/fsw/cfe-core/src/es/cfe_es_task.c ****         CFE_ES_TaskData.HkPacket.Payload.HeapBytesFree = 0;
 1134               	.loc 1 723 0
 1135 0976 42B9 0000 	clr.l CFE_ES_TaskData+148
 1135      0000 
 724:/home/simulink/cFS_FreeRTOS_seL4/cfe/fsw/cfe-core/src/es/cfe_es_task.c ****         CFE_ES_TaskData.HkPacket.Payload.HeapBlocksFree = 0;
 1136               	.loc 1 724 0
 1137 097c 42B9 0000 	clr.l CFE_ES_TaskData+152
 1137      0000 
 725:/home/simulink/cFS_FreeRTOS_seL4/cfe/fsw/cfe-core/src/es/cfe_es_task.c ****         CFE_ES_TaskData.HkPacket.Payload.HeapMaxBlockSize = 0;
 1138               	.loc 1 725 0
 1139 0982 42B9 0000 	clr.l CFE_ES_TaskData+156
 1139      0000 
 1140               	.L63:
 726:/home/simulink/cFS_FreeRTOS_seL4/cfe/fsw/cfe-core/src/es/cfe_es_task.c ****     }
 727:/home/simulink/cFS_FreeRTOS_seL4/cfe/fsw/cfe-core/src/es/cfe_es_task.c **** 
 728:/home/simulink/cFS_FreeRTOS_seL4/cfe/fsw/cfe-core/src/es/cfe_es_task.c ****     /*
 729:/home/simulink/cFS_FreeRTOS_seL4/cfe/fsw/cfe-core/src/es/cfe_es_task.c ****     ** Send housekeeping telemetry packet.
 730:/home/simulink/cFS_FreeRTOS_seL4/cfe/fsw/cfe-core/src/es/cfe_es_task.c ****     */
 731:/home/simulink/cFS_FreeRTOS_seL4/cfe/fsw/cfe-core/src/es/cfe_es_task.c ****     CFE_SB_TimeStampMsg((CFE_SB_Msg_t *) &CFE_ES_TaskData.HkPacket);
 1141               	.loc 1 731 0
 1142 0988 4879 0000 	pea CFE_ES_TaskData+4
 1142      0000 
 1143               	.cfi_def_cfa_offset 28
 1144 098e 4EB9 0000 	jsr CFE_SB_TimeStampMsg
 1144      0000 
 1145 0994 588F      	addq.l #4,%sp
 1146               	.cfi_def_cfa_offset 24
 732:/home/simulink/cFS_FreeRTOS_seL4/cfe/fsw/cfe-core/src/es/cfe_es_task.c ****     CFE_SB_SendMsg((CFE_SB_Msg_t *) &CFE_ES_TaskData.HkPacket);
 1147               	.loc 1 732 0
 1148 0996 4879 0000 	pea CFE_ES_TaskData+4
 1148      0000 
 1149               	.cfi_def_cfa_offset 28
 1150 099c 4EB9 0000 	jsr CFE_SB_SendMsg
 1150      0000 
 1151 09a2 588F      	addq.l #4,%sp
 1152               	.cfi_def_cfa_offset 24
 733:/home/simulink/cFS_FreeRTOS_seL4/cfe/fsw/cfe-core/src/es/cfe_es_task.c **** 
 734:/home/simulink/cFS_FreeRTOS_seL4/cfe/fsw/cfe-core/src/es/cfe_es_task.c ****     /*
 735:/home/simulink/cFS_FreeRTOS_seL4/cfe/fsw/cfe-core/src/es/cfe_es_task.c ****     ** This command does not affect the command execution counter.
 736:/home/simulink/cFS_FreeRTOS_seL4/cfe/fsw/cfe-core/src/es/cfe_es_task.c ****     */
 737:/home/simulink/cFS_FreeRTOS_seL4/cfe/fsw/cfe-core/src/es/cfe_es_task.c **** 
 738:/home/simulink/cFS_FreeRTOS_seL4/cfe/fsw/cfe-core/src/es/cfe_es_task.c **** } /* End of CFE_ES_HousekeepingCmd() */
 1153               	.loc 1 738 0
 1154 09a4 4E71      	nop
 1155 09a6 4FEF 0014 	lea (20,%sp),%sp
 1156 09aa 4E75      	rts
 1157               	.cfi_endproc
 1158               	.LFE62:
 1159               	.sizeCFE_ES_HousekeepingCmd, .-CFE_ES_HousekeepingCmd
 1160               	.section.rodata
 1161               	.LC13:
68K GAS   			page 39


 1162 023d 4E6F 2D6F 	.string"No-op command. Versions:cFE %d.%d.%d.%d, OSAL %d.%d.%d.%d, PSP %d.%d.%d.%d"
 1162      7020 636F 
 1162      6D6D 616E 
 1162      642E 2056 
 1162      6572 7369 
 1163               	.text
 1164               	.align2
 1165               	.globlCFE_ES_NoopCmd
 1166               	.typeCFE_ES_NoopCmd, @function
 1167               	CFE_ES_NoopCmd:
 1168               	.LFB63:
 739:/home/simulink/cFS_FreeRTOS_seL4/cfe/fsw/cfe-core/src/es/cfe_es_task.c **** 
 740:/home/simulink/cFS_FreeRTOS_seL4/cfe/fsw/cfe-core/src/es/cfe_es_task.c **** 
 741:/home/simulink/cFS_FreeRTOS_seL4/cfe/fsw/cfe-core/src/es/cfe_es_task.c **** /* * * * * * * * * * * * * * * * * * * * * * * * * * * * * * * * * */
 742:/home/simulink/cFS_FreeRTOS_seL4/cfe/fsw/cfe-core/src/es/cfe_es_task.c **** /*                                                                 */
 743:/home/simulink/cFS_FreeRTOS_seL4/cfe/fsw/cfe-core/src/es/cfe_es_task.c **** /* CFE_ES_NoopCmd() -- ES task ground command (NO-OP)              */
 744:/home/simulink/cFS_FreeRTOS_seL4/cfe/fsw/cfe-core/src/es/cfe_es_task.c **** /*                                                                 */
 745:/home/simulink/cFS_FreeRTOS_seL4/cfe/fsw/cfe-core/src/es/cfe_es_task.c **** /* * * * * * * * * * * * * * * * * * * * * * * * * * * * * * * * * */
 746:/home/simulink/cFS_FreeRTOS_seL4/cfe/fsw/cfe-core/src/es/cfe_es_task.c **** 
 747:/home/simulink/cFS_FreeRTOS_seL4/cfe/fsw/cfe-core/src/es/cfe_es_task.c **** void CFE_ES_NoopCmd(CFE_SB_MsgPtr_t Msg)
 748:/home/simulink/cFS_FreeRTOS_seL4/cfe/fsw/cfe-core/src/es/cfe_es_task.c **** {
 1169               	.loc 1 748 0
 1170               	.cfi_startproc
 1171 09ac 598F      	subq.l #4,%sp
 1172               	.cfi_def_cfa_offset 8
 749:/home/simulink/cFS_FreeRTOS_seL4/cfe/fsw/cfe-core/src/es/cfe_es_task.c ****     uint16 ExpectedLength = sizeof(CFE_ES_NoArgsCmd_t);
 1173               	.loc 1 749 0
 1174 09ae 7008      	moveq #8,%d0
 1175 09b0 3F40 0002 	move.w %d0,2(%sp)
 750:/home/simulink/cFS_FreeRTOS_seL4/cfe/fsw/cfe-core/src/es/cfe_es_task.c **** 
 751:/home/simulink/cFS_FreeRTOS_seL4/cfe/fsw/cfe-core/src/es/cfe_es_task.c ****     /*
 752:/home/simulink/cFS_FreeRTOS_seL4/cfe/fsw/cfe-core/src/es/cfe_es_task.c ****     ** Verify command packet length.
 753:/home/simulink/cFS_FreeRTOS_seL4/cfe/fsw/cfe-core/src/es/cfe_es_task.c ****     */
 754:/home/simulink/cFS_FreeRTOS_seL4/cfe/fsw/cfe-core/src/es/cfe_es_task.c ****     if (CFE_ES_VerifyCmdLength(Msg, ExpectedLength))
 1176               	.loc 1 754 0
 1177 09b4 4280      	clr.l %d0
 1178 09b6 302F 0002 	move.w 2(%sp),%d0
 1179 09ba 2F00      	move.l %d0,-(%sp)
 1180               	.cfi_def_cfa_offset 12
 1181 09bc 2F2F 000C 	move.l 12(%sp),-(%sp)
 1182               	.cfi_def_cfa_offset 16
 1183 09c0 4EB9 0000 	jsr CFE_ES_VerifyCmdLength
 1183      0000 
 1184 09c6 508F      	addq.l #8,%sp
 1185               	.cfi_def_cfa_offset 8
 1186 09c8 4A00      	tst.b %d0
 1187 09ca 674E      	jeq .L66
 755:/home/simulink/cFS_FreeRTOS_seL4/cfe/fsw/cfe-core/src/es/cfe_es_task.c ****     {
 756:/home/simulink/cFS_FreeRTOS_seL4/cfe/fsw/cfe-core/src/es/cfe_es_task.c ****         /*
 757:/home/simulink/cFS_FreeRTOS_seL4/cfe/fsw/cfe-core/src/es/cfe_es_task.c ****          ** Advertise the build and version information with the no-op command
 758:/home/simulink/cFS_FreeRTOS_seL4/cfe/fsw/cfe-core/src/es/cfe_es_task.c ****          ** For unit testing purposes, it helps to put this first - the UT
 759:/home/simulink/cFS_FreeRTOS_seL4/cfe/fsw/cfe-core/src/es/cfe_es_task.c ****          ** is checking for the last event sent to be NOOP_INF_EID.
 760:/home/simulink/cFS_FreeRTOS_seL4/cfe/fsw/cfe-core/src/es/cfe_es_task.c ****          */
 761:/home/simulink/cFS_FreeRTOS_seL4/cfe/fsw/cfe-core/src/es/cfe_es_task.c **** #ifdef _ENHANCED_BUILD_
 762:/home/simulink/cFS_FreeRTOS_seL4/cfe/fsw/cfe-core/src/es/cfe_es_task.c ****         CFE_EVS_SendEvent(CFE_ES_BUILD_INF_EID,
 763:/home/simulink/cFS_FreeRTOS_seL4/cfe/fsw/cfe-core/src/es/cfe_es_task.c ****               CFE_EVS_INFORMATION,
 764:/home/simulink/cFS_FreeRTOS_seL4/cfe/fsw/cfe-core/src/es/cfe_es_task.c ****               "Build %s %s",
68K GAS   			page 40


 765:/home/simulink/cFS_FreeRTOS_seL4/cfe/fsw/cfe-core/src/es/cfe_es_task.c ****               GLOBAL_CONFIGDATA.Date, GLOBAL_CONFIGDATA.User);
 766:/home/simulink/cFS_FreeRTOS_seL4/cfe/fsw/cfe-core/src/es/cfe_es_task.c **** #endif
 767:/home/simulink/cFS_FreeRTOS_seL4/cfe/fsw/cfe-core/src/es/cfe_es_task.c **** 
 768:/home/simulink/cFS_FreeRTOS_seL4/cfe/fsw/cfe-core/src/es/cfe_es_task.c ****         /*
 769:/home/simulink/cFS_FreeRTOS_seL4/cfe/fsw/cfe-core/src/es/cfe_es_task.c ****         ** This command will always succeed.
 770:/home/simulink/cFS_FreeRTOS_seL4/cfe/fsw/cfe-core/src/es/cfe_es_task.c ****         */
 771:/home/simulink/cFS_FreeRTOS_seL4/cfe/fsw/cfe-core/src/es/cfe_es_task.c ****         CFE_ES_TaskData.CmdCounter++;
 1188               	.loc 1 771 0
 1189 09cc 1039 0000 	move.b CFE_ES_TaskData,%d0
 1189      0000 
 1190 09d2 5280      	addq.l #1,%d0
 1191 09d4 1000      	move.b %d0,%d0
 1192 09d6 13C0 0000 	move.b %d0,CFE_ES_TaskData
 1192      0000 
 772:/home/simulink/cFS_FreeRTOS_seL4/cfe/fsw/cfe-core/src/es/cfe_es_task.c ****         CFE_EVS_SendEvent(CFE_ES_NOOP_INF_EID, CFE_EVS_INFORMATION,
 1193               	.loc 1 772 0
 1194 09dc 42A7      	clr.l -(%sp)
 1195               	.cfi_def_cfa_offset 12
 1196 09de 42A7      	clr.l -(%sp)
 1197               	.cfi_def_cfa_offset 16
 1198 09e0 4878 0001 	pea 1.w
 1199               	.cfi_def_cfa_offset 20
 1200 09e4 4878 0001 	pea 1.w
 1201               	.cfi_def_cfa_offset 24
 1202 09e8 42A7      	clr.l -(%sp)
 1203               	.cfi_def_cfa_offset 28
 1204 09ea 4878 0001 	pea 1.w
 1205               	.cfi_def_cfa_offset 32
 1206 09ee 4878 0002 	pea 2.w
 1207               	.cfi_def_cfa_offset 36
 1208 09f2 4878 0004 	pea 4.w
 1209               	.cfi_def_cfa_offset 40
 1210 09f6 42A7      	clr.l -(%sp)
 1211               	.cfi_def_cfa_offset 44
 1212 09f8 42A7      	clr.l -(%sp)
 1213               	.cfi_def_cfa_offset 48
 1214 09fa 4878 0005 	pea 5.w
 1215               	.cfi_def_cfa_offset 52
 1216 09fe 4878 0006 	pea 6.w
 1217               	.cfi_def_cfa_offset 56
 1218 0a02 4879 0000 	pea .LC13
 1218      0000 
 1219               	.cfi_def_cfa_offset 60
 1220 0a08 4878 0002 	pea 2.w
 1221               	.cfi_def_cfa_offset 64
 1222 0a0c 4878 0003 	pea 3.w
 1223               	.cfi_def_cfa_offset 68
 1224 0a10 4EB9 0000 	jsr CFE_EVS_SendEvent
 1224      0000 
 1225 0a16 4FEF 003C 	lea (60,%sp),%sp
 1226               	.cfi_def_cfa_offset 8
 1227               	.L66:
 773:/home/simulink/cFS_FreeRTOS_seL4/cfe/fsw/cfe-core/src/es/cfe_es_task.c ****                          "No-op command. Versions:cFE %d.%d.%d.%d, OSAL %d.%d.%d.%d, PSP %d.%d.%d.%
 774:/home/simulink/cFS_FreeRTOS_seL4/cfe/fsw/cfe-core/src/es/cfe_es_task.c ****                          CFE_MAJOR_VERSION,CFE_MINOR_VERSION,CFE_REVISION,CFE_MISSION_REV,         
 775:/home/simulink/cFS_FreeRTOS_seL4/cfe/fsw/cfe-core/src/es/cfe_es_task.c ****                          OS_MAJOR_VERSION,OS_MINOR_VERSION,OS_REVISION,OS_MISSION_REV,
 776:/home/simulink/cFS_FreeRTOS_seL4/cfe/fsw/cfe-core/src/es/cfe_es_task.c ****                          CFE_PSP_MAJOR_VERSION,CFE_PSP_MINOR_VERSION,CFE_PSP_REVISION,CFE_PSP_MISSI
 777:/home/simulink/cFS_FreeRTOS_seL4/cfe/fsw/cfe-core/src/es/cfe_es_task.c **** 
68K GAS   			page 41


 778:/home/simulink/cFS_FreeRTOS_seL4/cfe/fsw/cfe-core/src/es/cfe_es_task.c ****     }
 779:/home/simulink/cFS_FreeRTOS_seL4/cfe/fsw/cfe-core/src/es/cfe_es_task.c **** 
 780:/home/simulink/cFS_FreeRTOS_seL4/cfe/fsw/cfe-core/src/es/cfe_es_task.c ****         
 781:/home/simulink/cFS_FreeRTOS_seL4/cfe/fsw/cfe-core/src/es/cfe_es_task.c **** } /* End of CFE_ES_NoopCmd() */
 1228               	.loc 1 781 0
 1229 0a1a 4E71      	nop
 1230 0a1c 588F      	addq.l #4,%sp
 1231 0a1e 4E75      	rts
 1232               	.cfi_endproc
 1233               	.LFE63:
 1234               	.sizeCFE_ES_NoopCmd, .-CFE_ES_NoopCmd
 1235               	.section.rodata
 1236               	.LC14:
 1237 0288 5265 7365 	.string"Reset Counters command"
 1237      7420 436F 
 1237      756E 7465 
 1237      7273 2063 
 1237      6F6D 6D61 
 1238               	.text
 1239               	.align2
 1240               	.globlCFE_ES_ResetCmd
 1241               	.typeCFE_ES_ResetCmd, @function
 1242               	CFE_ES_ResetCmd:
 1243               	.LFB64:
 782:/home/simulink/cFS_FreeRTOS_seL4/cfe/fsw/cfe-core/src/es/cfe_es_task.c **** 
 783:/home/simulink/cFS_FreeRTOS_seL4/cfe/fsw/cfe-core/src/es/cfe_es_task.c **** 
 784:/home/simulink/cFS_FreeRTOS_seL4/cfe/fsw/cfe-core/src/es/cfe_es_task.c **** /* * * * * * * * * * * * * * * * * * * * * * * * * * * * * * * * * */
 785:/home/simulink/cFS_FreeRTOS_seL4/cfe/fsw/cfe-core/src/es/cfe_es_task.c **** /*                                                                 */
 786:/home/simulink/cFS_FreeRTOS_seL4/cfe/fsw/cfe-core/src/es/cfe_es_task.c **** /* CFE_ES_ResetCmd() -- ES task ground command (reset counters)    */
 787:/home/simulink/cFS_FreeRTOS_seL4/cfe/fsw/cfe-core/src/es/cfe_es_task.c **** /*                                                                 */
 788:/home/simulink/cFS_FreeRTOS_seL4/cfe/fsw/cfe-core/src/es/cfe_es_task.c **** /* * * * * * * * * * * * * * * * * * * * * * * * * * * * * * * * * */
 789:/home/simulink/cFS_FreeRTOS_seL4/cfe/fsw/cfe-core/src/es/cfe_es_task.c **** 
 790:/home/simulink/cFS_FreeRTOS_seL4/cfe/fsw/cfe-core/src/es/cfe_es_task.c **** void CFE_ES_ResetCmd(CFE_SB_MsgPtr_t Msg)
 791:/home/simulink/cFS_FreeRTOS_seL4/cfe/fsw/cfe-core/src/es/cfe_es_task.c **** {
 1244               	.loc 1 791 0
 1245               	.cfi_startproc
 1246 0a20 598F      	subq.l #4,%sp
 1247               	.cfi_def_cfa_offset 8
 792:/home/simulink/cFS_FreeRTOS_seL4/cfe/fsw/cfe-core/src/es/cfe_es_task.c ****     uint16 ExpectedLength = sizeof(CFE_ES_NoArgsCmd_t);
 1248               	.loc 1 792 0
 1249 0a22 7008      	moveq #8,%d0
 1250 0a24 3F40 0002 	move.w %d0,2(%sp)
 793:/home/simulink/cFS_FreeRTOS_seL4/cfe/fsw/cfe-core/src/es/cfe_es_task.c **** 
 794:/home/simulink/cFS_FreeRTOS_seL4/cfe/fsw/cfe-core/src/es/cfe_es_task.c ****     /*
 795:/home/simulink/cFS_FreeRTOS_seL4/cfe/fsw/cfe-core/src/es/cfe_es_task.c ****     ** Verify command packet length.
 796:/home/simulink/cFS_FreeRTOS_seL4/cfe/fsw/cfe-core/src/es/cfe_es_task.c ****     */
 797:/home/simulink/cFS_FreeRTOS_seL4/cfe/fsw/cfe-core/src/es/cfe_es_task.c ****     if (CFE_ES_VerifyCmdLength(Msg, ExpectedLength))
 1251               	.loc 1 797 0
 1252 0a28 4280      	clr.l %d0
 1253 0a2a 302F 0002 	move.w 2(%sp),%d0
 1254 0a2e 2F00      	move.l %d0,-(%sp)
 1255               	.cfi_def_cfa_offset 12
 1256 0a30 2F2F 000C 	move.l 12(%sp),-(%sp)
 1257               	.cfi_def_cfa_offset 16
 1258 0a34 4EB9 0000 	jsr CFE_ES_VerifyCmdLength
 1258      0000 
 1259 0a3a 508F      	addq.l #8,%sp
68K GAS   			page 42


 1260               	.cfi_def_cfa_offset 8
 1261 0a3c 4A00      	tst.b %d0
 1262 0a3e 6728      	jeq .L69
 798:/home/simulink/cFS_FreeRTOS_seL4/cfe/fsw/cfe-core/src/es/cfe_es_task.c ****     {
 799:/home/simulink/cFS_FreeRTOS_seL4/cfe/fsw/cfe-core/src/es/cfe_es_task.c ****         CFE_ES_TaskData.CmdCounter = 0;
 1263               	.loc 1 799 0
 1264 0a40 4200      	clr.b %d0
 1265 0a42 13C0 0000 	move.b %d0,CFE_ES_TaskData
 1265      0000 
 800:/home/simulink/cFS_FreeRTOS_seL4/cfe/fsw/cfe-core/src/es/cfe_es_task.c ****         CFE_ES_TaskData.ErrCounter = 0;
 1266               	.loc 1 800 0
 1267 0a48 4200      	clr.b %d0
 1268 0a4a 13C0 0000 	move.b %d0,CFE_ES_TaskData+1
 1268      0000 
 801:/home/simulink/cFS_FreeRTOS_seL4/cfe/fsw/cfe-core/src/es/cfe_es_task.c **** 
 802:/home/simulink/cFS_FreeRTOS_seL4/cfe/fsw/cfe-core/src/es/cfe_es_task.c ****         /*
 803:/home/simulink/cFS_FreeRTOS_seL4/cfe/fsw/cfe-core/src/es/cfe_es_task.c ****         ** This command will always succeed.
 804:/home/simulink/cFS_FreeRTOS_seL4/cfe/fsw/cfe-core/src/es/cfe_es_task.c ****         */
 805:/home/simulink/cFS_FreeRTOS_seL4/cfe/fsw/cfe-core/src/es/cfe_es_task.c ****         CFE_EVS_SendEvent(CFE_ES_RESET_INF_EID, CFE_EVS_INFORMATION,
 1269               	.loc 1 805 0
 1270 0a50 4879 0000 	pea .LC14
 1270      0000 
 1271               	.cfi_def_cfa_offset 12
 1272 0a56 4878 0002 	pea 2.w
 1273               	.cfi_def_cfa_offset 16
 1274 0a5a 4878 0004 	pea 4.w
 1275               	.cfi_def_cfa_offset 20
 1276 0a5e 4EB9 0000 	jsr CFE_EVS_SendEvent
 1276      0000 
 1277 0a64 4FEF 000C 	lea (12,%sp),%sp
 1278               	.cfi_def_cfa_offset 8
 1279               	.L69:
 806:/home/simulink/cFS_FreeRTOS_seL4/cfe/fsw/cfe-core/src/es/cfe_es_task.c ****                          "Reset Counters command");
 807:/home/simulink/cFS_FreeRTOS_seL4/cfe/fsw/cfe-core/src/es/cfe_es_task.c ****     }
 808:/home/simulink/cFS_FreeRTOS_seL4/cfe/fsw/cfe-core/src/es/cfe_es_task.c **** 
 809:/home/simulink/cFS_FreeRTOS_seL4/cfe/fsw/cfe-core/src/es/cfe_es_task.c **** } /* End of CFE_ES_ResetCmd() */
 1280               	.loc 1 809 0
 1281 0a68 4E71      	nop
 1282 0a6a 588F      	addq.l #4,%sp
 1283 0a6c 4E75      	rts
 1284               	.cfi_endproc
 1285               	.LFE64:
 1286               	.sizeCFE_ES_ResetCmd, .-CFE_ES_ResetCmd
 1287               	.section.rodata
 1288               	.LC15:
 1289 029f 496E 7661 	.string"Invalid cFE restart type: %d"
 1289      6C69 6420 
 1289      6346 4520 
 1289      7265 7374 
 1289      6172 7420 
 1290               	.text
 1291               	.align2
 1292               	.globlCFE_ES_RestartCmd
 1293               	.typeCFE_ES_RestartCmd, @function
 1294               	CFE_ES_RestartCmd:
 1295               	.LFB65:
 810:/home/simulink/cFS_FreeRTOS_seL4/cfe/fsw/cfe-core/src/es/cfe_es_task.c **** 
68K GAS   			page 43


 811:/home/simulink/cFS_FreeRTOS_seL4/cfe/fsw/cfe-core/src/es/cfe_es_task.c **** 
 812:/home/simulink/cFS_FreeRTOS_seL4/cfe/fsw/cfe-core/src/es/cfe_es_task.c **** /* * * * * * * * * * * * * * * * * * * * * * * * * * * * * * * * * */
 813:/home/simulink/cFS_FreeRTOS_seL4/cfe/fsw/cfe-core/src/es/cfe_es_task.c **** /*                                                                 */
 814:/home/simulink/cFS_FreeRTOS_seL4/cfe/fsw/cfe-core/src/es/cfe_es_task.c **** /* CFE_ES_RestartCmd() -- Restart cFE (may reset processor)        */
 815:/home/simulink/cFS_FreeRTOS_seL4/cfe/fsw/cfe-core/src/es/cfe_es_task.c **** /*                                                                 */
 816:/home/simulink/cFS_FreeRTOS_seL4/cfe/fsw/cfe-core/src/es/cfe_es_task.c **** /* * * * * * * * * * * * * * * * * * * * * * * * * * * * * * * * * */
 817:/home/simulink/cFS_FreeRTOS_seL4/cfe/fsw/cfe-core/src/es/cfe_es_task.c **** 
 818:/home/simulink/cFS_FreeRTOS_seL4/cfe/fsw/cfe-core/src/es/cfe_es_task.c **** void CFE_ES_RestartCmd(CFE_SB_MsgPtr_t Msg)
 819:/home/simulink/cFS_FreeRTOS_seL4/cfe/fsw/cfe-core/src/es/cfe_es_task.c **** {
 1296               	.loc 1 819 0
 1297               	.cfi_startproc
 1298 0a6e 518F      	subq.l #8,%sp
 1299               	.cfi_def_cfa_offset 12
 820:/home/simulink/cFS_FreeRTOS_seL4/cfe/fsw/cfe-core/src/es/cfe_es_task.c ****     CFE_ES_RestartCmd_Payload_t *cmd = (CFE_ES_RestartCmd_Payload_t *)&Msg->Byte[CFE_SB_CMD_HDR_SIZ
 1300               	.loc 1 820 0
 1301 0a70 202F 000C 	move.l 12(%sp),%d0
 1302 0a74 5080      	addq.l #8,%d0
 1303 0a76 2F40 0004 	move.l %d0,4(%sp)
 821:/home/simulink/cFS_FreeRTOS_seL4/cfe/fsw/cfe-core/src/es/cfe_es_task.c ****     uint16 ExpectedLength = sizeof(CFE_ES_RestartCmd_t);
 1304               	.loc 1 821 0
 1305 0a7a 720A      	moveq #10,%d1
 1306 0a7c 3F41 0002 	move.w %d1,2(%sp)
 822:/home/simulink/cFS_FreeRTOS_seL4/cfe/fsw/cfe-core/src/es/cfe_es_task.c **** 
 823:/home/simulink/cFS_FreeRTOS_seL4/cfe/fsw/cfe-core/src/es/cfe_es_task.c ****     /*
 824:/home/simulink/cFS_FreeRTOS_seL4/cfe/fsw/cfe-core/src/es/cfe_es_task.c ****     ** Verify command packet length.
 825:/home/simulink/cFS_FreeRTOS_seL4/cfe/fsw/cfe-core/src/es/cfe_es_task.c ****     */
 826:/home/simulink/cFS_FreeRTOS_seL4/cfe/fsw/cfe-core/src/es/cfe_es_task.c ****     if (CFE_ES_VerifyCmdLength(Msg, ExpectedLength))
 1307               	.loc 1 826 0
 1308 0a80 4280      	clr.l %d0
 1309 0a82 302F 0002 	move.w 2(%sp),%d0
 1310 0a86 2F00      	move.l %d0,-(%sp)
 1311               	.cfi_def_cfa_offset 16
 1312 0a88 2F2F 0010 	move.l 16(%sp),-(%sp)
 1313               	.cfi_def_cfa_offset 20
 1314 0a8c 4EB9 0000 	jsr CFE_ES_VerifyCmdLength
 1314      0000 
 1315 0a92 508F      	addq.l #8,%sp
 1316               	.cfi_def_cfa_offset 12
 1317 0a94 4A00      	tst.b %d0
 1318 0a96 677A      	jeq .L73
 827:/home/simulink/cFS_FreeRTOS_seL4/cfe/fsw/cfe-core/src/es/cfe_es_task.c ****     {
 828:/home/simulink/cFS_FreeRTOS_seL4/cfe/fsw/cfe-core/src/es/cfe_es_task.c **** 
 829:/home/simulink/cFS_FreeRTOS_seL4/cfe/fsw/cfe-core/src/es/cfe_es_task.c ****         if ((cmd->RestartType != CFE_PSP_RST_TYPE_PROCESSOR) &&
 1319               	.loc 1 829 0
 1320 0a98 206F 0004 	move.l 4(%sp),%a0
 1321 0a9c 3010      	move.w (%a0),%d0
 1322 0a9e 3000      	move.w %d0,%d0
 1323 0aa0 0280 0000 	and.l #65535,%d0
 1323      FFFF 
 1324 0aa6 7201      	moveq #1,%d1
 1325 0aa8 B280      	cmp.l %d0,%d1
 1326 0aaa 674E      	jeq .L72
 830:/home/simulink/cFS_FreeRTOS_seL4/cfe/fsw/cfe-core/src/es/cfe_es_task.c ****             (cmd->RestartType != CFE_PSP_RST_TYPE_POWERON))
 1327               	.loc 1 830 0 discriminator 1
 1328 0aac 206F 0004 	move.l 4(%sp),%a0
 1329 0ab0 3010      	move.w (%a0),%d0
 829:/home/simulink/cFS_FreeRTOS_seL4/cfe/fsw/cfe-core/src/es/cfe_es_task.c ****             (cmd->RestartType != CFE_PSP_RST_TYPE_POWERON))
68K GAS   			page 44


 1330               	.loc 1 829 0 discriminator 1
 1331 0ab2 3000      	move.w %d0,%d0
 1332 0ab4 0280 0000 	and.l #65535,%d0
 1332      FFFF 
 1333 0aba 7202      	moveq #2,%d1
 1334 0abc B280      	cmp.l %d0,%d1
 1335 0abe 673A      	jeq .L72
 831:/home/simulink/cFS_FreeRTOS_seL4/cfe/fsw/cfe-core/src/es/cfe_es_task.c ****         {
 832:/home/simulink/cFS_FreeRTOS_seL4/cfe/fsw/cfe-core/src/es/cfe_es_task.c ****             CFE_ES_TaskData.ErrCounter++;
 1336               	.loc 1 832 0
 1337 0ac0 1039 0000 	move.b CFE_ES_TaskData+1,%d0
 1337      0000 
 1338 0ac6 5280      	addq.l #1,%d0
 1339 0ac8 1000      	move.b %d0,%d0
 1340 0aca 13C0 0000 	move.b %d0,CFE_ES_TaskData+1
 1340      0000 
 833:/home/simulink/cFS_FreeRTOS_seL4/cfe/fsw/cfe-core/src/es/cfe_es_task.c ****             CFE_EVS_SendEvent(CFE_ES_BOOT_ERR_EID, CFE_EVS_ERROR,
 834:/home/simulink/cFS_FreeRTOS_seL4/cfe/fsw/cfe-core/src/es/cfe_es_task.c ****                              "Invalid cFE restart type: %d",
 835:/home/simulink/cFS_FreeRTOS_seL4/cfe/fsw/cfe-core/src/es/cfe_es_task.c ****                               (int)cmd->RestartType);
 1341               	.loc 1 835 0
 1342 0ad0 206F 0004 	move.l 4(%sp),%a0
 1343 0ad4 3010      	move.w (%a0),%d0
 833:/home/simulink/cFS_FreeRTOS_seL4/cfe/fsw/cfe-core/src/es/cfe_es_task.c ****             CFE_EVS_SendEvent(CFE_ES_BOOT_ERR_EID, CFE_EVS_ERROR,
 1344               	.loc 1 833 0
 1345 0ad6 3000      	move.w %d0,%d0
 1346 0ad8 0280 0000 	and.l #65535,%d0
 1346      FFFF 
 1347 0ade 2F00      	move.l %d0,-(%sp)
 1348               	.cfi_def_cfa_offset 16
 1349 0ae0 4879 0000 	pea .LC15
 1349      0000 
 1350               	.cfi_def_cfa_offset 20
 1351 0ae6 4878 0003 	pea 3.w
 1352               	.cfi_def_cfa_offset 24
 1353 0aea 4878 0018 	pea 24.w
 1354               	.cfi_def_cfa_offset 28
 1355 0aee 4EB9 0000 	jsr CFE_EVS_SendEvent
 1355      0000 
 1356 0af4 4FEF 0010 	lea (16,%sp),%sp
 1357               	.cfi_def_cfa_offset 12
 836:/home/simulink/cFS_FreeRTOS_seL4/cfe/fsw/cfe-core/src/es/cfe_es_task.c ****         }
 837:/home/simulink/cFS_FreeRTOS_seL4/cfe/fsw/cfe-core/src/es/cfe_es_task.c ****         else
 838:/home/simulink/cFS_FreeRTOS_seL4/cfe/fsw/cfe-core/src/es/cfe_es_task.c ****         {
 839:/home/simulink/cFS_FreeRTOS_seL4/cfe/fsw/cfe-core/src/es/cfe_es_task.c ****             /*
 840:/home/simulink/cFS_FreeRTOS_seL4/cfe/fsw/cfe-core/src/es/cfe_es_task.c ****             ** This function will not return.
 841:/home/simulink/cFS_FreeRTOS_seL4/cfe/fsw/cfe-core/src/es/cfe_es_task.c ****             */
 842:/home/simulink/cFS_FreeRTOS_seL4/cfe/fsw/cfe-core/src/es/cfe_es_task.c ****             CFE_ES_ResetCFE(cmd->RestartType);
 843:/home/simulink/cFS_FreeRTOS_seL4/cfe/fsw/cfe-core/src/es/cfe_es_task.c ****         }
 844:/home/simulink/cFS_FreeRTOS_seL4/cfe/fsw/cfe-core/src/es/cfe_es_task.c ****     }
 845:/home/simulink/cFS_FreeRTOS_seL4/cfe/fsw/cfe-core/src/es/cfe_es_task.c **** 
 846:/home/simulink/cFS_FreeRTOS_seL4/cfe/fsw/cfe-core/src/es/cfe_es_task.c **** } /* End of CFE_ES_RestartCmd() */
 1358               	.loc 1 846 0
 1359 0af8 6018      	jra .L73
 1360               	.L72:
 842:/home/simulink/cFS_FreeRTOS_seL4/cfe/fsw/cfe-core/src/es/cfe_es_task.c ****         }
 1361               	.loc 1 842 0
 1362 0afa 206F 0004 	move.l 4(%sp),%a0
68K GAS   			page 45


 1363 0afe 3010      	move.w (%a0),%d0
 1364 0b00 3000      	move.w %d0,%d0
 1365 0b02 0280 0000 	and.l #65535,%d0
 1365      FFFF 
 1366 0b08 2F00      	move.l %d0,-(%sp)
 1367               	.cfi_def_cfa_offset 16
 1368 0b0a 4EB9 0000 	jsr CFE_ES_ResetCFE
 1368      0000 
 1369 0b10 588F      	addq.l #4,%sp
 1370               	.cfi_def_cfa_offset 12
 1371               	.L73:
 1372               	.loc 1 846 0
 1373 0b12 4E71      	nop
 1374 0b14 508F      	addq.l #8,%sp
 1375 0b16 4E75      	rts
 1376               	.cfi_endproc
 1377               	.LFE65:
 1378               	.sizeCFE_ES_RestartCmd, .-CFE_ES_RestartCmd
 1379               	.section.rodata
 1380               	.LC16:
 1381 02bc 496E 766F 	.string"Invoked shell command: '%s'"
 1381      6B65 6420 
 1381      7368 656C 
 1381      6C20 636F 
 1381      6D6D 616E 
 1382               	.LC17:
 1383 02d8 4661 696C 	.string"Failed to invoke shell command: '%s', RC = 0x%08X"
 1383      6564 2074 
 1383      6F20 696E 
 1383      766F 6B65 
 1383      2073 6865 
 1384               	.text
 1385               	.align2
 1386               	.globlCFE_ES_ShellCmd
 1387               	.typeCFE_ES_ShellCmd, @function
 1388               	CFE_ES_ShellCmd:
 1389               	.LFB66:
 847:/home/simulink/cFS_FreeRTOS_seL4/cfe/fsw/cfe-core/src/es/cfe_es_task.c **** 
 848:/home/simulink/cFS_FreeRTOS_seL4/cfe/fsw/cfe-core/src/es/cfe_es_task.c **** 
 849:/home/simulink/cFS_FreeRTOS_seL4/cfe/fsw/cfe-core/src/es/cfe_es_task.c **** /* * * * * * * * * * * * * * * * * * * * * * * * * * * * * * * * * */
 850:/home/simulink/cFS_FreeRTOS_seL4/cfe/fsw/cfe-core/src/es/cfe_es_task.c **** /*                                                                 */
 851:/home/simulink/cFS_FreeRTOS_seL4/cfe/fsw/cfe-core/src/es/cfe_es_task.c **** /* CFE_ES_ShellCmd() -- Pass thru string to O/S shell              */
 852:/home/simulink/cFS_FreeRTOS_seL4/cfe/fsw/cfe-core/src/es/cfe_es_task.c **** /*                                                                 */
 853:/home/simulink/cFS_FreeRTOS_seL4/cfe/fsw/cfe-core/src/es/cfe_es_task.c **** /* * * * * * * * * * * * * * * * * * * * * * * * * * * * * * * * * */
 854:/home/simulink/cFS_FreeRTOS_seL4/cfe/fsw/cfe-core/src/es/cfe_es_task.c **** 
 855:/home/simulink/cFS_FreeRTOS_seL4/cfe/fsw/cfe-core/src/es/cfe_es_task.c **** void CFE_ES_ShellCmd(CFE_SB_MsgPtr_t Msg)
 856:/home/simulink/cFS_FreeRTOS_seL4/cfe/fsw/cfe-core/src/es/cfe_es_task.c **** {
 1390               	.loc 1 856 0
 1391               	.cfi_startproc
 1392 0b18 4FEF FF74 	lea (-140,%sp),%sp
 1393               	.cfi_def_cfa_offset 144
 857:/home/simulink/cFS_FreeRTOS_seL4/cfe/fsw/cfe-core/src/es/cfe_es_task.c ****     uint16 ExpectedLength = sizeof(CFE_ES_ShellCmd_t);
 1394               	.loc 1 857 0
 1395 0b1c 303C 0088 	move.w #136,%d0
 1396 0b20 3F40 008A 	move.w %d0,138(%sp)
 858:/home/simulink/cFS_FreeRTOS_seL4/cfe/fsw/cfe-core/src/es/cfe_es_task.c ****     int32 Result;
 859:/home/simulink/cFS_FreeRTOS_seL4/cfe/fsw/cfe-core/src/es/cfe_es_task.c ****     CFE_ES_ShellCmd_Payload_t *cmd = (CFE_ES_ShellCmd_Payload_t *)&Msg->Byte[CFE_SB_CMD_HDR_SIZE];
68K GAS   			page 46


 1397               	.loc 1 859 0
 1398 0b24 202F 0090 	move.l 144(%sp),%d0
 1399 0b28 5080      	addq.l #8,%d0
 1400 0b2a 2F40 0084 	move.l %d0,132(%sp)
 860:/home/simulink/cFS_FreeRTOS_seL4/cfe/fsw/cfe-core/src/es/cfe_es_task.c ****     char LocalCmd[CFE_ES_MAX_SHELL_CMD];
 861:/home/simulink/cFS_FreeRTOS_seL4/cfe/fsw/cfe-core/src/es/cfe_es_task.c ****     char LocalFile[OS_MAX_PATH_LEN];
 862:/home/simulink/cFS_FreeRTOS_seL4/cfe/fsw/cfe-core/src/es/cfe_es_task.c **** 
 863:/home/simulink/cFS_FreeRTOS_seL4/cfe/fsw/cfe-core/src/es/cfe_es_task.c ****     /*
 864:/home/simulink/cFS_FreeRTOS_seL4/cfe/fsw/cfe-core/src/es/cfe_es_task.c ****     ** Verify command packet length.
 865:/home/simulink/cFS_FreeRTOS_seL4/cfe/fsw/cfe-core/src/es/cfe_es_task.c ****     */
 866:/home/simulink/cFS_FreeRTOS_seL4/cfe/fsw/cfe-core/src/es/cfe_es_task.c ****     if (CFE_ES_VerifyCmdLength(Msg, ExpectedLength))
 1401               	.loc 1 866 0
 1402 0b2e 4280      	clr.l %d0
 1403 0b30 302F 008A 	move.w 138(%sp),%d0
 1404 0b34 2F00      	move.l %d0,-(%sp)
 1405               	.cfi_def_cfa_offset 148
 1406 0b36 2F2F 0094 	move.l 148(%sp),-(%sp)
 1407               	.cfi_def_cfa_offset 152
 1408 0b3a 4EB9 0000 	jsr CFE_ES_VerifyCmdLength
 1408      0000 
 1409 0b40 508F      	addq.l #8,%sp
 1410               	.cfi_def_cfa_offset 144
 1411 0b42 4A00      	tst.b %d0
 1412 0b44 6700 00DC 	jeq .L77
 867:/home/simulink/cFS_FreeRTOS_seL4/cfe/fsw/cfe-core/src/es/cfe_es_task.c ****     {
 868:/home/simulink/cFS_FreeRTOS_seL4/cfe/fsw/cfe-core/src/es/cfe_es_task.c ****         /* Create local copies of both input strings and ensure null termination */
 869:/home/simulink/cFS_FreeRTOS_seL4/cfe/fsw/cfe-core/src/es/cfe_es_task.c ****         CFE_SB_MessageStringGet(LocalCmd, (char *)cmd->CmdString, NULL,
 1413               	.loc 1 869 0
 1414 0b48 202F 0084 	move.l 132(%sp),%d0
 1415 0b4c 4878 0040 	pea 64.w
 1416               	.cfi_def_cfa_offset 148
 1417 0b50 4878 0040 	pea 64.w
 1418               	.cfi_def_cfa_offset 152
 1419 0b54 42A7      	clr.l -(%sp)
 1420               	.cfi_def_cfa_offset 156
 1421 0b56 2F00      	move.l %d0,-(%sp)
 1422               	.cfi_def_cfa_offset 160
 1423 0b58 200F      	move.l %sp,%d0
 1424 0b5a 0680 0000 	add.l #80,%d0
 1424      0050 
 1425 0b60 2F00      	move.l %d0,-(%sp)
 1426               	.cfi_def_cfa_offset 164
 1427 0b62 4EB9 0000 	jsr CFE_SB_MessageStringGet
 1427      0000 
 1428 0b68 4FEF 0014 	lea (20,%sp),%sp
 1429               	.cfi_def_cfa_offset 144
 870:/home/simulink/cFS_FreeRTOS_seL4/cfe/fsw/cfe-core/src/es/cfe_es_task.c ****                 CFE_ES_MAX_SHELL_CMD, sizeof(cmd->CmdString));
 871:/home/simulink/cFS_FreeRTOS_seL4/cfe/fsw/cfe-core/src/es/cfe_es_task.c **** 
 872:/home/simulink/cFS_FreeRTOS_seL4/cfe/fsw/cfe-core/src/es/cfe_es_task.c ****         CFE_SB_MessageStringGet(LocalFile, (char *)cmd->OutputFilename, NULL,
 1430               	.loc 1 872 0
 1431 0b6c 202F 0084 	move.l 132(%sp),%d0
 1432 0b70 0680 0000 	add.l #64,%d0
 1432      0040 
 1433 0b76 4878 0040 	pea 64.w
 1434               	.cfi_def_cfa_offset 148
 1435 0b7a 4878 0040 	pea 64.w
 1436               	.cfi_def_cfa_offset 152
68K GAS   			page 47


 1437 0b7e 42A7      	clr.l -(%sp)
 1438               	.cfi_def_cfa_offset 156
 1439 0b80 2F00      	move.l %d0,-(%sp)
 1440               	.cfi_def_cfa_offset 160
 1441 0b82 200F      	move.l %sp,%d0
 1442 0b84 0680 0000 	add.l #16,%d0
 1442      0010 
 1443 0b8a 2F00      	move.l %d0,-(%sp)
 1444               	.cfi_def_cfa_offset 164
 1445 0b8c 4EB9 0000 	jsr CFE_SB_MessageStringGet
 1445      0000 
 1446 0b92 4FEF 0014 	lea (20,%sp),%sp
 1447               	.cfi_def_cfa_offset 144
 873:/home/simulink/cFS_FreeRTOS_seL4/cfe/fsw/cfe-core/src/es/cfe_es_task.c ****                 OS_MAX_PATH_LEN, sizeof(cmd->OutputFilename));
 874:/home/simulink/cFS_FreeRTOS_seL4/cfe/fsw/cfe-core/src/es/cfe_es_task.c **** 
 875:/home/simulink/cFS_FreeRTOS_seL4/cfe/fsw/cfe-core/src/es/cfe_es_task.c ****         /*
 876:/home/simulink/cFS_FreeRTOS_seL4/cfe/fsw/cfe-core/src/es/cfe_es_task.c ****         ** Call the Shell command API
 877:/home/simulink/cFS_FreeRTOS_seL4/cfe/fsw/cfe-core/src/es/cfe_es_task.c ****         */
 878:/home/simulink/cFS_FreeRTOS_seL4/cfe/fsw/cfe-core/src/es/cfe_es_task.c ****         Result = CFE_ES_ShellOutputCommand(LocalCmd, LocalFile);
 1448               	.loc 1 878 0
 1449 0b96 200F      	move.l %sp,%d0
 1450 0b98 2F00      	move.l %d0,-(%sp)
 1451               	.cfi_def_cfa_offset 148
 1452 0b9a 200F      	move.l %sp,%d0
 1453 0b9c 0680 0000 	add.l #68,%d0
 1453      0044 
 1454 0ba2 2F00      	move.l %d0,-(%sp)
 1455               	.cfi_def_cfa_offset 152
 1456 0ba4 4EB9 0000 	jsr CFE_ES_ShellOutputCommand
 1456      0000 
 1457 0baa 508F      	addq.l #8,%sp
 1458               	.cfi_def_cfa_offset 144
 1459 0bac 2F40 0080 	move.l %d0,128(%sp)
 879:/home/simulink/cFS_FreeRTOS_seL4/cfe/fsw/cfe-core/src/es/cfe_es_task.c ****         /*
 880:/home/simulink/cFS_FreeRTOS_seL4/cfe/fsw/cfe-core/src/es/cfe_es_task.c ****         ** Send appropriate event message.
 881:/home/simulink/cFS_FreeRTOS_seL4/cfe/fsw/cfe-core/src/es/cfe_es_task.c ****         */
 882:/home/simulink/cFS_FreeRTOS_seL4/cfe/fsw/cfe-core/src/es/cfe_es_task.c ****         if (Result == CFE_SUCCESS)
 1460               	.loc 1 882 0
 1461 0bb0 4AAF 0080 	tst.l 128(%sp)
 1462 0bb4 6634      	jne .L76
 883:/home/simulink/cFS_FreeRTOS_seL4/cfe/fsw/cfe-core/src/es/cfe_es_task.c ****         {
 884:/home/simulink/cFS_FreeRTOS_seL4/cfe/fsw/cfe-core/src/es/cfe_es_task.c ****             CFE_ES_TaskData.CmdCounter++;
 1463               	.loc 1 884 0
 1464 0bb6 1039 0000 	move.b CFE_ES_TaskData,%d0
 1464      0000 
 1465 0bbc 5280      	addq.l #1,%d0
 1466 0bbe 1000      	move.b %d0,%d0
 1467 0bc0 13C0 0000 	move.b %d0,CFE_ES_TaskData
 1467      0000 
 885:/home/simulink/cFS_FreeRTOS_seL4/cfe/fsw/cfe-core/src/es/cfe_es_task.c ****             CFE_EVS_SendEvent(CFE_ES_SHELL_INF_EID, CFE_EVS_INFORMATION,
 1468               	.loc 1 885 0
 1469 0bc6 200F      	move.l %sp,%d0
 1470 0bc8 0680 0000 	add.l #64,%d0
 1470      0040 
 1471 0bce 2F00      	move.l %d0,-(%sp)
 1472               	.cfi_def_cfa_offset 148
 1473 0bd0 4879 0000 	pea .LC16
68K GAS   			page 48


 1473      0000 
 1474               	.cfi_def_cfa_offset 152
 1475 0bd6 4878 0002 	pea 2.w
 1476               	.cfi_def_cfa_offset 156
 1477 0bda 4878 0005 	pea 5.w
 1478               	.cfi_def_cfa_offset 160
 1479 0bde 4EB9 0000 	jsr CFE_EVS_SendEvent
 1479      0000 
 1480 0be4 4FEF 0010 	lea (16,%sp),%sp
 1481               	.cfi_def_cfa_offset 144
 886:/home/simulink/cFS_FreeRTOS_seL4/cfe/fsw/cfe-core/src/es/cfe_es_task.c ****                              "Invoked shell command: '%s'",
 887:/home/simulink/cFS_FreeRTOS_seL4/cfe/fsw/cfe-core/src/es/cfe_es_task.c ****                               LocalCmd);
 888:/home/simulink/cFS_FreeRTOS_seL4/cfe/fsw/cfe-core/src/es/cfe_es_task.c ****         }
 889:/home/simulink/cFS_FreeRTOS_seL4/cfe/fsw/cfe-core/src/es/cfe_es_task.c ****         else
 890:/home/simulink/cFS_FreeRTOS_seL4/cfe/fsw/cfe-core/src/es/cfe_es_task.c ****         {
 891:/home/simulink/cFS_FreeRTOS_seL4/cfe/fsw/cfe-core/src/es/cfe_es_task.c ****             CFE_ES_TaskData.ErrCounter++;
 892:/home/simulink/cFS_FreeRTOS_seL4/cfe/fsw/cfe-core/src/es/cfe_es_task.c ****             CFE_EVS_SendEvent(CFE_ES_SHELL_ERR_EID, CFE_EVS_ERROR,
 893:/home/simulink/cFS_FreeRTOS_seL4/cfe/fsw/cfe-core/src/es/cfe_es_task.c ****                     "Failed to invoke shell command: '%s', RC = 0x%08X",
 894:/home/simulink/cFS_FreeRTOS_seL4/cfe/fsw/cfe-core/src/es/cfe_es_task.c ****                     LocalCmd, (unsigned int)Result);
 895:/home/simulink/cFS_FreeRTOS_seL4/cfe/fsw/cfe-core/src/es/cfe_es_task.c ****         }
 896:/home/simulink/cFS_FreeRTOS_seL4/cfe/fsw/cfe-core/src/es/cfe_es_task.c ****     }
 897:/home/simulink/cFS_FreeRTOS_seL4/cfe/fsw/cfe-core/src/es/cfe_es_task.c **** 
 898:/home/simulink/cFS_FreeRTOS_seL4/cfe/fsw/cfe-core/src/es/cfe_es_task.c **** } /* End of CFE_ES_ShellCmd() */
 1482               	.loc 1 898 0
 1483 0be8 6038      	jra .L77
 1484               	.L76:
 891:/home/simulink/cFS_FreeRTOS_seL4/cfe/fsw/cfe-core/src/es/cfe_es_task.c ****             CFE_EVS_SendEvent(CFE_ES_SHELL_ERR_EID, CFE_EVS_ERROR,
 1485               	.loc 1 891 0
 1486 0bea 1039 0000 	move.b CFE_ES_TaskData+1,%d0
 1486      0000 
 1487 0bf0 5280      	addq.l #1,%d0
 1488 0bf2 1000      	move.b %d0,%d0
 1489 0bf4 13C0 0000 	move.b %d0,CFE_ES_TaskData+1
 1489      0000 
 892:/home/simulink/cFS_FreeRTOS_seL4/cfe/fsw/cfe-core/src/es/cfe_es_task.c ****                     "Failed to invoke shell command: '%s', RC = 0x%08X",
 1490               	.loc 1 892 0
 1491 0bfa 202F 0080 	move.l 128(%sp),%d0
 1492 0bfe 2F00      	move.l %d0,-(%sp)
 1493               	.cfi_def_cfa_offset 148
 1494 0c00 200F      	move.l %sp,%d0
 1495 0c02 0680 0000 	add.l #68,%d0
 1495      0044 
 1496 0c08 2F00      	move.l %d0,-(%sp)
 1497               	.cfi_def_cfa_offset 152
 1498 0c0a 4879 0000 	pea .LC17
 1498      0000 
 1499               	.cfi_def_cfa_offset 156
 1500 0c10 4878 0003 	pea 3.w
 1501               	.cfi_def_cfa_offset 160
 1502 0c14 4878 0019 	pea 25.w
 1503               	.cfi_def_cfa_offset 164
 1504 0c18 4EB9 0000 	jsr CFE_EVS_SendEvent
 1504      0000 
 1505 0c1e 4FEF 0014 	lea (20,%sp),%sp
 1506               	.cfi_def_cfa_offset 144
 1507               	.L77:
 1508               	.loc 1 898 0
68K GAS   			page 49


 1509 0c22 4E71      	nop
 1510 0c24 4FEF 008C 	lea (140,%sp),%sp
 1511 0c28 4E75      	rts
 1512               	.cfi_endproc
 1513               	.LFE66:
 1514               	.sizeCFE_ES_ShellCmd, .-CFE_ES_ShellCmd
 1515               	.section.rodata
 1516               	.LC18:
 1517 030a 4346 455F 	.string"CFE_ES_StartAppCmd: invalid filename: %s"
 1517      4553 5F53 
 1517      7461 7274 
 1517      4170 7043 
 1517      6D64 3A20 
 1518               	.LC19:
 1519 0333 4346 455F 	.string"CFE_ES_StartAppCmd: App Entry Point is NULL."
 1519      4553 5F53 
 1519      7461 7274 
 1519      4170 7043 
 1519      6D64 3A20 
 1520               	.LC20:
 1521 0360 4346 455F 	.string"CFE_ES_StartAppCmd: App Name is NULL."
 1521      4553 5F53 
 1521      7461 7274 
 1521      4170 7043 
 1521      6D64 3A20 
 1522               	.LC21:
 1523 0386 4346 455F 	.string"CFE_ES_StartAppCmd: Stack size is less than system Minimum: %d."
 1523      4553 5F53 
 1523      7461 7274 
 1523      4170 7043 
 1523      6D64 3A20 
 1524               	.LC22:
 1525 03c6 4346 455F 	.string"CFE_ES_StartAppCmd: Priority is too large: %d."
 1525      4553 5F53 
 1525      7461 7274 
 1525      4170 7043 
 1525      6D64 3A20 
 1526               	.LC23:
 1527 03f5 4346 455F 	.string"CFE_ES_StartAppCmd: Invalid Exception Action: %d."
 1527      4553 5F53 
 1527      7461 7274 
 1527      4170 7043 
 1527      6D64 3A20 
 1528               	.LC24:
 1529 0427 5374 6172 	.string"Started %s from %s, AppID = %d"
 1529      7465 6420 
 1529      2573 2066 
 1529      726F 6D20 
 1529      2573 2C20 
 1530               	.LC25:
 1531 0446 4661 696C 	.string"Failed to start %s from %s, RC = 0x%08X"
 1531      6564 2074 
 1531      6F20 7374 
 1531      6172 7420 
 1531      2573 2066 
 1532               	.text
 1533               	.align2
68K GAS   			page 50


 1534               	.globlCFE_ES_StartAppCmd
 1535               	.typeCFE_ES_StartAppCmd, @function
 1536               	CFE_ES_StartAppCmd:
 1537               	.LFB67:
 899:/home/simulink/cFS_FreeRTOS_seL4/cfe/fsw/cfe-core/src/es/cfe_es_task.c **** 
 900:/home/simulink/cFS_FreeRTOS_seL4/cfe/fsw/cfe-core/src/es/cfe_es_task.c **** 
 901:/home/simulink/cFS_FreeRTOS_seL4/cfe/fsw/cfe-core/src/es/cfe_es_task.c **** /* * * * * * * * * * * * * * * * * * * * * * * * * * * * * * * * * */
 902:/home/simulink/cFS_FreeRTOS_seL4/cfe/fsw/cfe-core/src/es/cfe_es_task.c **** /*                                                                 */
 903:/home/simulink/cFS_FreeRTOS_seL4/cfe/fsw/cfe-core/src/es/cfe_es_task.c **** /* CFE_ES_StartAppCmd() -- Load (and start) single application     */
 904:/home/simulink/cFS_FreeRTOS_seL4/cfe/fsw/cfe-core/src/es/cfe_es_task.c **** /*                                                                 */
 905:/home/simulink/cFS_FreeRTOS_seL4/cfe/fsw/cfe-core/src/es/cfe_es_task.c **** /* * * * * * * * * * * * * * * * * * * * * * * * * * * * * * * * * */
 906:/home/simulink/cFS_FreeRTOS_seL4/cfe/fsw/cfe-core/src/es/cfe_es_task.c **** 
 907:/home/simulink/cFS_FreeRTOS_seL4/cfe/fsw/cfe-core/src/es/cfe_es_task.c **** void CFE_ES_StartAppCmd(CFE_SB_MsgPtr_t Msg)
 908:/home/simulink/cFS_FreeRTOS_seL4/cfe/fsw/cfe-core/src/es/cfe_es_task.c **** {
 1538               	.loc 1 908 0
 1539               	.cfi_startproc
 1540 0c2a 4FEF FF7C 	lea (-132,%sp),%sp
 1541               	.cfi_def_cfa_offset 136
 909:/home/simulink/cFS_FreeRTOS_seL4/cfe/fsw/cfe-core/src/es/cfe_es_task.c ****     uint16                ExpectedLength = sizeof(CFE_ES_StartAppCmd_t);
 1542               	.loc 1 909 0
 1543 0c2e 7078      	moveq #120,%d0
 1544 0c30 3F40 0082 	move.w %d0,130(%sp)
 910:/home/simulink/cFS_FreeRTOS_seL4/cfe/fsw/cfe-core/src/es/cfe_es_task.c ****     CFE_ES_StartAppCmd_Payload_t *cmd = (CFE_ES_StartAppCmd_Payload_t *)&Msg->Byte[CFE_SB_CMD_HDR_S
 1545               	.loc 1 910 0
 1546 0c34 222F 0088 	move.l 136(%sp),%d1
 1547 0c38 5081      	addq.l #8,%d1
 1548 0c3a 2F41 007C 	move.l %d1,124(%sp)
 911:/home/simulink/cFS_FreeRTOS_seL4/cfe/fsw/cfe-core/src/es/cfe_es_task.c ****     uint32                AppID          = 0;
 1549               	.loc 1 911 0
 1550 0c3e 42AF 0068 	clr.l 104(%sp)
 912:/home/simulink/cFS_FreeRTOS_seL4/cfe/fsw/cfe-core/src/es/cfe_es_task.c ****     int32                 Result;
 913:/home/simulink/cFS_FreeRTOS_seL4/cfe/fsw/cfe-core/src/es/cfe_es_task.c ****     int32                 FilenameLen;
 914:/home/simulink/cFS_FreeRTOS_seL4/cfe/fsw/cfe-core/src/es/cfe_es_task.c ****     int32                 AppEntryLen;
 915:/home/simulink/cFS_FreeRTOS_seL4/cfe/fsw/cfe-core/src/es/cfe_es_task.c ****     int32                 AppNameLen;
 916:/home/simulink/cFS_FreeRTOS_seL4/cfe/fsw/cfe-core/src/es/cfe_es_task.c ****     char                  LocalFile[OS_MAX_PATH_LEN];
 917:/home/simulink/cFS_FreeRTOS_seL4/cfe/fsw/cfe-core/src/es/cfe_es_task.c ****     char                  LocalEntryPt[OS_MAX_API_NAME];
 918:/home/simulink/cFS_FreeRTOS_seL4/cfe/fsw/cfe-core/src/es/cfe_es_task.c ****     char                  LocalAppName[OS_MAX_API_NAME];
 919:/home/simulink/cFS_FreeRTOS_seL4/cfe/fsw/cfe-core/src/es/cfe_es_task.c **** 
 920:/home/simulink/cFS_FreeRTOS_seL4/cfe/fsw/cfe-core/src/es/cfe_es_task.c ****     /*
 921:/home/simulink/cFS_FreeRTOS_seL4/cfe/fsw/cfe-core/src/es/cfe_es_task.c ****     ** Verify command packet length.
 922:/home/simulink/cFS_FreeRTOS_seL4/cfe/fsw/cfe-core/src/es/cfe_es_task.c ****     */
 923:/home/simulink/cFS_FreeRTOS_seL4/cfe/fsw/cfe-core/src/es/cfe_es_task.c ****     if (CFE_ES_VerifyCmdLength(Msg, ExpectedLength))
 1551               	.loc 1 923 0
 1552 0c42 4280      	clr.l %d0
 1553 0c44 302F 0082 	move.w 130(%sp),%d0
 1554 0c48 2F00      	move.l %d0,-(%sp)
 1555               	.cfi_def_cfa_offset 140
 1556 0c4a 2F2F 008C 	move.l 140(%sp),-(%sp)
 1557               	.cfi_def_cfa_offset 144
 1558 0c4e 4EB9 0000 	jsr CFE_ES_VerifyCmdLength
 1558      0000 
 1559 0c54 508F      	addq.l #8,%sp
 1560               	.cfi_def_cfa_offset 136
 1561 0c56 4A00      	tst.b %d0
 1562 0c58 6700 0302 	jeq .L87
 924:/home/simulink/cFS_FreeRTOS_seL4/cfe/fsw/cfe-core/src/es/cfe_es_task.c ****     {
 925:/home/simulink/cFS_FreeRTOS_seL4/cfe/fsw/cfe-core/src/es/cfe_es_task.c ****         /* Create local copies of all input strings and ensure null termination */
68K GAS   			page 51


 926:/home/simulink/cFS_FreeRTOS_seL4/cfe/fsw/cfe-core/src/es/cfe_es_task.c ****         FilenameLen = CFE_SB_MessageStringGet(LocalFile, (char *)cmd->AppFileName, NULL,
 1563               	.loc 1 926 0
 1564 0c5c 202F 007C 	move.l 124(%sp),%d0
 1565 0c60 0680 0000 	add.l #40,%d0
 1565      0028 
 1566 0c66 4878 0040 	pea 64.w
 1567               	.cfi_def_cfa_offset 140
 1568 0c6a 4878 0040 	pea 64.w
 1569               	.cfi_def_cfa_offset 144
 1570 0c6e 42A7      	clr.l -(%sp)
 1571               	.cfi_def_cfa_offset 148
 1572 0c70 2F00      	move.l %d0,-(%sp)
 1573               	.cfi_def_cfa_offset 152
 1574 0c72 200F      	move.l %sp,%d0
 1575 0c74 0680 0000 	add.l #56,%d0
 1575      0038 
 1576 0c7a 2F00      	move.l %d0,-(%sp)
 1577               	.cfi_def_cfa_offset 156
 1578 0c7c 4EB9 0000 	jsr CFE_SB_MessageStringGet
 1578      0000 
 1579 0c82 4FEF 0014 	lea (20,%sp),%sp
 1580               	.cfi_def_cfa_offset 136
 1581 0c86 2F40 0078 	move.l %d0,120(%sp)
 927:/home/simulink/cFS_FreeRTOS_seL4/cfe/fsw/cfe-core/src/es/cfe_es_task.c ****                 OS_MAX_PATH_LEN, sizeof(cmd->AppFileName));
 928:/home/simulink/cFS_FreeRTOS_seL4/cfe/fsw/cfe-core/src/es/cfe_es_task.c **** 
 929:/home/simulink/cFS_FreeRTOS_seL4/cfe/fsw/cfe-core/src/es/cfe_es_task.c ****         AppEntryLen = CFE_SB_MessageStringGet(LocalEntryPt, (char *)cmd->AppEntryPoint, NULL,
 1582               	.loc 1 929 0
 1583 0c8a 202F 007C 	move.l 124(%sp),%d0
 1584 0c8e 0680 0000 	add.l #20,%d0
 1584      0014 
 1585 0c94 4878 0014 	pea 20.w
 1586               	.cfi_def_cfa_offset 140
 1587 0c98 4878 0014 	pea 20.w
 1588               	.cfi_def_cfa_offset 144
 1589 0c9c 42A7      	clr.l -(%sp)
 1590               	.cfi_def_cfa_offset 148
 1591 0c9e 2F00      	move.l %d0,-(%sp)
 1592               	.cfi_def_cfa_offset 152
 1593 0ca0 200F      	move.l %sp,%d0
 1594 0ca2 0680 0000 	add.l #36,%d0
 1594      0024 
 1595 0ca8 2F00      	move.l %d0,-(%sp)
 1596               	.cfi_def_cfa_offset 156
 1597 0caa 4EB9 0000 	jsr CFE_SB_MessageStringGet
 1597      0000 
 1598 0cb0 4FEF 0014 	lea (20,%sp),%sp
 1599               	.cfi_def_cfa_offset 136
 1600 0cb4 2F40 0074 	move.l %d0,116(%sp)
 930:/home/simulink/cFS_FreeRTOS_seL4/cfe/fsw/cfe-core/src/es/cfe_es_task.c ****                 OS_MAX_API_NAME, sizeof(cmd->AppEntryPoint));
 931:/home/simulink/cFS_FreeRTOS_seL4/cfe/fsw/cfe-core/src/es/cfe_es_task.c **** 
 932:/home/simulink/cFS_FreeRTOS_seL4/cfe/fsw/cfe-core/src/es/cfe_es_task.c ****         AppNameLen = CFE_SB_MessageStringGet(LocalAppName, (char *)cmd->Application, NULL,
 1601               	.loc 1 932 0
 1602 0cb8 202F 007C 	move.l 124(%sp),%d0
 1603 0cbc 4878 0014 	pea 20.w
 1604               	.cfi_def_cfa_offset 140
 1605 0cc0 4878 0014 	pea 20.w
 1606               	.cfi_def_cfa_offset 144
68K GAS   			page 52


 1607 0cc4 42A7      	clr.l -(%sp)
 1608               	.cfi_def_cfa_offset 148
 1609 0cc6 2F00      	move.l %d0,-(%sp)
 1610               	.cfi_def_cfa_offset 152
 1611 0cc8 200F      	move.l %sp,%d0
 1612 0cca 0680 0000 	add.l #16,%d0
 1612      0010 
 1613 0cd0 2F00      	move.l %d0,-(%sp)
 1614               	.cfi_def_cfa_offset 156
 1615 0cd2 4EB9 0000 	jsr CFE_SB_MessageStringGet
 1615      0000 
 1616 0cd8 4FEF 0014 	lea (20,%sp),%sp
 1617               	.cfi_def_cfa_offset 136
 1618 0cdc 2F40 0070 	move.l %d0,112(%sp)
 933:/home/simulink/cFS_FreeRTOS_seL4/cfe/fsw/cfe-core/src/es/cfe_es_task.c ****                 OS_MAX_API_NAME, sizeof(cmd->Application));
 934:/home/simulink/cFS_FreeRTOS_seL4/cfe/fsw/cfe-core/src/es/cfe_es_task.c **** 
 935:/home/simulink/cFS_FreeRTOS_seL4/cfe/fsw/cfe-core/src/es/cfe_es_task.c ****         /*
 936:/home/simulink/cFS_FreeRTOS_seL4/cfe/fsw/cfe-core/src/es/cfe_es_task.c ****         ** Verify command parameters
 937:/home/simulink/cFS_FreeRTOS_seL4/cfe/fsw/cfe-core/src/es/cfe_es_task.c ****         */
 938:/home/simulink/cFS_FreeRTOS_seL4/cfe/fsw/cfe-core/src/es/cfe_es_task.c ****         if (FilenameLen < 4)
 1619               	.loc 1 938 0
 1620 0ce0 7003      	moveq #3,%d0
 1621 0ce2 B0AF 0078 	cmp.l 120(%sp),%d0
 1622 0ce6 6D36      	jlt .L80
 939:/home/simulink/cFS_FreeRTOS_seL4/cfe/fsw/cfe-core/src/es/cfe_es_task.c ****        {
 940:/home/simulink/cFS_FreeRTOS_seL4/cfe/fsw/cfe-core/src/es/cfe_es_task.c ****           CFE_ES_TaskData.ErrCounter++;
 1623               	.loc 1 940 0
 1624 0ce8 1039 0000 	move.b CFE_ES_TaskData+1,%d0
 1624      0000 
 1625 0cee 5280      	addq.l #1,%d0
 1626 0cf0 1000      	move.b %d0,%d0
 1627 0cf2 13C0 0000 	move.b %d0,CFE_ES_TaskData+1
 1627      0000 
 941:/home/simulink/cFS_FreeRTOS_seL4/cfe/fsw/cfe-core/src/es/cfe_es_task.c ****           CFE_EVS_SendEvent(CFE_ES_START_INVALID_FILENAME_ERR_EID, CFE_EVS_ERROR,
 1628               	.loc 1 941 0
 1629 0cf8 200F      	move.l %sp,%d0
 1630 0cfa 0680 0000 	add.l #40,%d0
 1630      0028 
 1631 0d00 2F00      	move.l %d0,-(%sp)
 1632               	.cfi_def_cfa_offset 140
 1633 0d02 4879 0000 	pea .LC18
 1633      0000 
 1634               	.cfi_def_cfa_offset 144
 1635 0d08 4878 0003 	pea 3.w
 1636               	.cfi_def_cfa_offset 148
 1637 0d0c 4878 001B 	pea 27.w
 1638               	.cfi_def_cfa_offset 152
 1639 0d10 4EB9 0000 	jsr CFE_EVS_SendEvent
 1639      0000 
 1640 0d16 4FEF 0010 	lea (16,%sp),%sp
 1641               	.cfi_def_cfa_offset 136
 942:/home/simulink/cFS_FreeRTOS_seL4/cfe/fsw/cfe-core/src/es/cfe_es_task.c ****                            "CFE_ES_StartAppCmd: invalid filename: %s",
 943:/home/simulink/cFS_FreeRTOS_seL4/cfe/fsw/cfe-core/src/es/cfe_es_task.c ****                            LocalFile);
 944:/home/simulink/cFS_FreeRTOS_seL4/cfe/fsw/cfe-core/src/es/cfe_es_task.c ****        }
 945:/home/simulink/cFS_FreeRTOS_seL4/cfe/fsw/cfe-core/src/es/cfe_es_task.c ****        else if (AppEntryLen <= 0)
 946:/home/simulink/cFS_FreeRTOS_seL4/cfe/fsw/cfe-core/src/es/cfe_es_task.c ****        {
 947:/home/simulink/cFS_FreeRTOS_seL4/cfe/fsw/cfe-core/src/es/cfe_es_task.c ****           CFE_ES_TaskData.ErrCounter++;
68K GAS   			page 53


 948:/home/simulink/cFS_FreeRTOS_seL4/cfe/fsw/cfe-core/src/es/cfe_es_task.c ****           CFE_EVS_SendEvent(CFE_ES_START_INVALID_ENTRY_POINT_ERR_EID, CFE_EVS_ERROR,
 949:/home/simulink/cFS_FreeRTOS_seL4/cfe/fsw/cfe-core/src/es/cfe_es_task.c ****                            "CFE_ES_StartAppCmd: App Entry Point is NULL.");
 950:/home/simulink/cFS_FreeRTOS_seL4/cfe/fsw/cfe-core/src/es/cfe_es_task.c ****        }
 951:/home/simulink/cFS_FreeRTOS_seL4/cfe/fsw/cfe-core/src/es/cfe_es_task.c ****        else if (AppNameLen <= 0)
 952:/home/simulink/cFS_FreeRTOS_seL4/cfe/fsw/cfe-core/src/es/cfe_es_task.c ****        {
 953:/home/simulink/cFS_FreeRTOS_seL4/cfe/fsw/cfe-core/src/es/cfe_es_task.c ****           CFE_ES_TaskData.ErrCounter++;
 954:/home/simulink/cFS_FreeRTOS_seL4/cfe/fsw/cfe-core/src/es/cfe_es_task.c ****           CFE_EVS_SendEvent(CFE_ES_START_NULL_APP_NAME_ERR_EID, CFE_EVS_ERROR,
 955:/home/simulink/cFS_FreeRTOS_seL4/cfe/fsw/cfe-core/src/es/cfe_es_task.c ****                            "CFE_ES_StartAppCmd: App Name is NULL.");
 956:/home/simulink/cFS_FreeRTOS_seL4/cfe/fsw/cfe-core/src/es/cfe_es_task.c ****        }
 957:/home/simulink/cFS_FreeRTOS_seL4/cfe/fsw/cfe-core/src/es/cfe_es_task.c ****        else if (cmd->StackSize < CFE_ES_DEFAULT_STACK_SIZE)
 958:/home/simulink/cFS_FreeRTOS_seL4/cfe/fsw/cfe-core/src/es/cfe_es_task.c ****        {
 959:/home/simulink/cFS_FreeRTOS_seL4/cfe/fsw/cfe-core/src/es/cfe_es_task.c ****           CFE_ES_TaskData.ErrCounter++;
 960:/home/simulink/cFS_FreeRTOS_seL4/cfe/fsw/cfe-core/src/es/cfe_es_task.c ****           CFE_EVS_SendEvent(CFE_ES_START_STACK_ERR_EID, CFE_EVS_ERROR,
 961:/home/simulink/cFS_FreeRTOS_seL4/cfe/fsw/cfe-core/src/es/cfe_es_task.c ****                            "CFE_ES_StartAppCmd: Stack size is less than system Minimum: %d.",
 962:/home/simulink/cFS_FreeRTOS_seL4/cfe/fsw/cfe-core/src/es/cfe_es_task.c ****                            CFE_ES_DEFAULT_STACK_SIZE);
 963:/home/simulink/cFS_FreeRTOS_seL4/cfe/fsw/cfe-core/src/es/cfe_es_task.c ****        }
 964:/home/simulink/cFS_FreeRTOS_seL4/cfe/fsw/cfe-core/src/es/cfe_es_task.c ****        else if (cmd->Priority > OS_MAX_PRIORITY)
 965:/home/simulink/cFS_FreeRTOS_seL4/cfe/fsw/cfe-core/src/es/cfe_es_task.c ****        {
 966:/home/simulink/cFS_FreeRTOS_seL4/cfe/fsw/cfe-core/src/es/cfe_es_task.c ****           CFE_ES_TaskData.ErrCounter++;
 967:/home/simulink/cFS_FreeRTOS_seL4/cfe/fsw/cfe-core/src/es/cfe_es_task.c ****           CFE_EVS_SendEvent(CFE_ES_START_PRIORITY_ERR_EID, CFE_EVS_ERROR,
 968:/home/simulink/cFS_FreeRTOS_seL4/cfe/fsw/cfe-core/src/es/cfe_es_task.c ****                            "CFE_ES_StartAppCmd: Priority is too large: %d.",
 969:/home/simulink/cFS_FreeRTOS_seL4/cfe/fsw/cfe-core/src/es/cfe_es_task.c ****                            cmd->Priority);
 970:/home/simulink/cFS_FreeRTOS_seL4/cfe/fsw/cfe-core/src/es/cfe_es_task.c ****        }
 971:/home/simulink/cFS_FreeRTOS_seL4/cfe/fsw/cfe-core/src/es/cfe_es_task.c ****        else if ((cmd->ExceptionAction != CFE_ES_APP_EXCEPTION_RESTART_APP) &&
 972:/home/simulink/cFS_FreeRTOS_seL4/cfe/fsw/cfe-core/src/es/cfe_es_task.c ****                 (cmd->ExceptionAction != CFE_ES_APP_EXCEPTION_PROC_RESTART ))
 973:/home/simulink/cFS_FreeRTOS_seL4/cfe/fsw/cfe-core/src/es/cfe_es_task.c ****        {
 974:/home/simulink/cFS_FreeRTOS_seL4/cfe/fsw/cfe-core/src/es/cfe_es_task.c ****           CFE_ES_TaskData.ErrCounter++;
 975:/home/simulink/cFS_FreeRTOS_seL4/cfe/fsw/cfe-core/src/es/cfe_es_task.c ****           CFE_EVS_SendEvent(CFE_ES_START_EXC_ACTION_ERR_EID, CFE_EVS_ERROR,
 976:/home/simulink/cFS_FreeRTOS_seL4/cfe/fsw/cfe-core/src/es/cfe_es_task.c ****                            "CFE_ES_StartAppCmd: Invalid Exception Action: %d.",
 977:/home/simulink/cFS_FreeRTOS_seL4/cfe/fsw/cfe-core/src/es/cfe_es_task.c ****                            cmd->ExceptionAction);
 978:/home/simulink/cFS_FreeRTOS_seL4/cfe/fsw/cfe-core/src/es/cfe_es_task.c ****        }
 979:/home/simulink/cFS_FreeRTOS_seL4/cfe/fsw/cfe-core/src/es/cfe_es_task.c ****        else
 980:/home/simulink/cFS_FreeRTOS_seL4/cfe/fsw/cfe-core/src/es/cfe_es_task.c ****        {
 981:/home/simulink/cFS_FreeRTOS_seL4/cfe/fsw/cfe-core/src/es/cfe_es_task.c ****           /*
 982:/home/simulink/cFS_FreeRTOS_seL4/cfe/fsw/cfe-core/src/es/cfe_es_task.c ****           ** Invoke application loader/startup function.
 983:/home/simulink/cFS_FreeRTOS_seL4/cfe/fsw/cfe-core/src/es/cfe_es_task.c ****           */
 984:/home/simulink/cFS_FreeRTOS_seL4/cfe/fsw/cfe-core/src/es/cfe_es_task.c ****           Result = CFE_ES_AppCreate(&AppID, LocalFile,
 985:/home/simulink/cFS_FreeRTOS_seL4/cfe/fsw/cfe-core/src/es/cfe_es_task.c ****                       LocalEntryPt,
 986:/home/simulink/cFS_FreeRTOS_seL4/cfe/fsw/cfe-core/src/es/cfe_es_task.c ****                       LocalAppName,
 987:/home/simulink/cFS_FreeRTOS_seL4/cfe/fsw/cfe-core/src/es/cfe_es_task.c ****                       (uint32) cmd->Priority, 
 988:/home/simulink/cFS_FreeRTOS_seL4/cfe/fsw/cfe-core/src/es/cfe_es_task.c ****                       (uint32) cmd->StackSize,
 989:/home/simulink/cFS_FreeRTOS_seL4/cfe/fsw/cfe-core/src/es/cfe_es_task.c ****                       (uint32) cmd->ExceptionAction);
 990:/home/simulink/cFS_FreeRTOS_seL4/cfe/fsw/cfe-core/src/es/cfe_es_task.c **** 
 991:/home/simulink/cFS_FreeRTOS_seL4/cfe/fsw/cfe-core/src/es/cfe_es_task.c ****           /*
 992:/home/simulink/cFS_FreeRTOS_seL4/cfe/fsw/cfe-core/src/es/cfe_es_task.c ****           ** Send appropriate event message
 993:/home/simulink/cFS_FreeRTOS_seL4/cfe/fsw/cfe-core/src/es/cfe_es_task.c ****           */
 994:/home/simulink/cFS_FreeRTOS_seL4/cfe/fsw/cfe-core/src/es/cfe_es_task.c ****           if (Result == CFE_SUCCESS)
 995:/home/simulink/cFS_FreeRTOS_seL4/cfe/fsw/cfe-core/src/es/cfe_es_task.c ****           {
 996:/home/simulink/cFS_FreeRTOS_seL4/cfe/fsw/cfe-core/src/es/cfe_es_task.c ****              CFE_ES_TaskData.CmdCounter++;
 997:/home/simulink/cFS_FreeRTOS_seL4/cfe/fsw/cfe-core/src/es/cfe_es_task.c ****              CFE_EVS_SendEvent(CFE_ES_START_INF_EID, CFE_EVS_INFORMATION,
 998:/home/simulink/cFS_FreeRTOS_seL4/cfe/fsw/cfe-core/src/es/cfe_es_task.c ****                                 "Started %s from %s, AppID = %d",
 999:/home/simulink/cFS_FreeRTOS_seL4/cfe/fsw/cfe-core/src/es/cfe_es_task.c ****                                 LocalAppName, LocalFile, (int)AppID);
1000:/home/simulink/cFS_FreeRTOS_seL4/cfe/fsw/cfe-core/src/es/cfe_es_task.c ****            }
1001:/home/simulink/cFS_FreeRTOS_seL4/cfe/fsw/cfe-core/src/es/cfe_es_task.c ****            else
1002:/home/simulink/cFS_FreeRTOS_seL4/cfe/fsw/cfe-core/src/es/cfe_es_task.c ****            {
1003:/home/simulink/cFS_FreeRTOS_seL4/cfe/fsw/cfe-core/src/es/cfe_es_task.c ****                CFE_ES_TaskData.ErrCounter++;
1004:/home/simulink/cFS_FreeRTOS_seL4/cfe/fsw/cfe-core/src/es/cfe_es_task.c ****                CFE_EVS_SendEvent(CFE_ES_START_ERR_EID, CFE_EVS_ERROR,
68K GAS   			page 54


1005:/home/simulink/cFS_FreeRTOS_seL4/cfe/fsw/cfe-core/src/es/cfe_es_task.c ****                              "Failed to start %s from %s, RC = 0x%08X",
1006:/home/simulink/cFS_FreeRTOS_seL4/cfe/fsw/cfe-core/src/es/cfe_es_task.c ****                              LocalAppName, LocalFile, (unsigned int)Result);
1007:/home/simulink/cFS_FreeRTOS_seL4/cfe/fsw/cfe-core/src/es/cfe_es_task.c ****            }
1008:/home/simulink/cFS_FreeRTOS_seL4/cfe/fsw/cfe-core/src/es/cfe_es_task.c ****            
1009:/home/simulink/cFS_FreeRTOS_seL4/cfe/fsw/cfe-core/src/es/cfe_es_task.c ****        } /* End if -- command parameter validation */
1010:/home/simulink/cFS_FreeRTOS_seL4/cfe/fsw/cfe-core/src/es/cfe_es_task.c **** 
1011:/home/simulink/cFS_FreeRTOS_seL4/cfe/fsw/cfe-core/src/es/cfe_es_task.c ****    } /* End if - command length verification */
1012:/home/simulink/cFS_FreeRTOS_seL4/cfe/fsw/cfe-core/src/es/cfe_es_task.c ****      
1013:/home/simulink/cFS_FreeRTOS_seL4/cfe/fsw/cfe-core/src/es/cfe_es_task.c **** } /* End of CFE_ES_StartAppCmd() */
 1642               	.loc 1 1013 0
 1643 0d1a 6000 0240 	jra .L87
 1644               	.L80:
 945:/home/simulink/cFS_FreeRTOS_seL4/cfe/fsw/cfe-core/src/es/cfe_es_task.c ****        {
 1645               	.loc 1 945 0
 1646 0d1e 4AAF 0074 	tst.l 116(%sp)
 1647 0d22 6E2C      	jgt .L81
 947:/home/simulink/cFS_FreeRTOS_seL4/cfe/fsw/cfe-core/src/es/cfe_es_task.c ****           CFE_EVS_SendEvent(CFE_ES_START_INVALID_ENTRY_POINT_ERR_EID, CFE_EVS_ERROR,
 1648               	.loc 1 947 0
 1649 0d24 1039 0000 	move.b CFE_ES_TaskData+1,%d0
 1649      0000 
 1650 0d2a 5280      	addq.l #1,%d0
 1651 0d2c 1000      	move.b %d0,%d0
 1652 0d2e 13C0 0000 	move.b %d0,CFE_ES_TaskData+1
 1652      0000 
 948:/home/simulink/cFS_FreeRTOS_seL4/cfe/fsw/cfe-core/src/es/cfe_es_task.c ****                            "CFE_ES_StartAppCmd: App Entry Point is NULL.");
 1653               	.loc 1 948 0
 1654 0d34 4879 0000 	pea .LC19
 1654      0000 
 1655               	.cfi_def_cfa_offset 140
 1656 0d3a 4878 0003 	pea 3.w
 1657               	.cfi_def_cfa_offset 144
 1658 0d3e 4878 001C 	pea 28.w
 1659               	.cfi_def_cfa_offset 148
 1660 0d42 4EB9 0000 	jsr CFE_EVS_SendEvent
 1660      0000 
 1661 0d48 4FEF 000C 	lea (12,%sp),%sp
 1662               	.cfi_def_cfa_offset 136
 1663               	.loc 1 1013 0
 1664 0d4c 6000 020E 	jra .L87
 1665               	.L81:
 951:/home/simulink/cFS_FreeRTOS_seL4/cfe/fsw/cfe-core/src/es/cfe_es_task.c ****        {
 1666               	.loc 1 951 0
 1667 0d50 4AAF 0070 	tst.l 112(%sp)
 1668 0d54 6E2C      	jgt .L82
 953:/home/simulink/cFS_FreeRTOS_seL4/cfe/fsw/cfe-core/src/es/cfe_es_task.c ****           CFE_EVS_SendEvent(CFE_ES_START_NULL_APP_NAME_ERR_EID, CFE_EVS_ERROR,
 1669               	.loc 1 953 0
 1670 0d56 1039 0000 	move.b CFE_ES_TaskData+1,%d0
 1670      0000 
 1671 0d5c 5280      	addq.l #1,%d0
 1672 0d5e 1000      	move.b %d0,%d0
 1673 0d60 13C0 0000 	move.b %d0,CFE_ES_TaskData+1
 1673      0000 
 954:/home/simulink/cFS_FreeRTOS_seL4/cfe/fsw/cfe-core/src/es/cfe_es_task.c ****                            "CFE_ES_StartAppCmd: App Name is NULL.");
 1674               	.loc 1 954 0
 1675 0d66 4879 0000 	pea .LC20
 1675      0000 
 1676               	.cfi_def_cfa_offset 140
68K GAS   			page 55


 1677 0d6c 4878 0003 	pea 3.w
 1678               	.cfi_def_cfa_offset 144
 1679 0d70 4878 001D 	pea 29.w
 1680               	.cfi_def_cfa_offset 148
 1681 0d74 4EB9 0000 	jsr CFE_EVS_SendEvent
 1681      0000 
 1682 0d7a 4FEF 000C 	lea (12,%sp),%sp
 1683               	.cfi_def_cfa_offset 136
 1684               	.loc 1 1013 0
 1685 0d7e 6000 01DC 	jra .L87
 1686               	.L82:
 957:/home/simulink/cFS_FreeRTOS_seL4/cfe/fsw/cfe-core/src/es/cfe_es_task.c ****        {
 1687               	.loc 1 957 0
 1688 0d82 206F 007C 	move.l 124(%sp),%a0
 1689 0d86 2028 0068 	move.l 104(%a0),%d0
 1690 0d8a 0C80 0000 	cmp.l #8191,%d0
 1690      1FFF 
 1691 0d90 6230      	jhi .L83
 959:/home/simulink/cFS_FreeRTOS_seL4/cfe/fsw/cfe-core/src/es/cfe_es_task.c ****           CFE_EVS_SendEvent(CFE_ES_START_STACK_ERR_EID, CFE_EVS_ERROR,
 1692               	.loc 1 959 0
 1693 0d92 1039 0000 	move.b CFE_ES_TaskData+1,%d0
 1693      0000 
 1694 0d98 5280      	addq.l #1,%d0
 1695 0d9a 1000      	move.b %d0,%d0
 1696 0d9c 13C0 0000 	move.b %d0,CFE_ES_TaskData+1
 1696      0000 
 960:/home/simulink/cFS_FreeRTOS_seL4/cfe/fsw/cfe-core/src/es/cfe_es_task.c ****                            "CFE_ES_StartAppCmd: Stack size is less than system Minimum: %d.",
 1697               	.loc 1 960 0
 1698 0da2 4878 2000 	pea 8192.w
 1699               	.cfi_def_cfa_offset 140
 1700 0da6 4879 0000 	pea .LC21
 1700      0000 
 1701               	.cfi_def_cfa_offset 144
 1702 0dac 4878 0003 	pea 3.w
 1703               	.cfi_def_cfa_offset 148
 1704 0db0 4878 001E 	pea 30.w
 1705               	.cfi_def_cfa_offset 152
 1706 0db4 4EB9 0000 	jsr CFE_EVS_SendEvent
 1706      0000 
 1707 0dba 4FEF 0010 	lea (16,%sp),%sp
 1708               	.cfi_def_cfa_offset 136
 1709               	.loc 1 1013 0
 1710 0dbe 6000 019C 	jra .L87
 1711               	.L83:
 964:/home/simulink/cFS_FreeRTOS_seL4/cfe/fsw/cfe-core/src/es/cfe_es_task.c ****        {
 1712               	.loc 1 964 0
 1713 0dc2 206F 007C 	move.l 124(%sp),%a0
 1714 0dc6 3028 006E 	move.w 110(%a0),%d0
 1715 0dca 3000      	move.w %d0,%d0
 1716 0dcc 0280 0000 	and.l #65535,%d0
 1716      FFFF 
 1717 0dd2 0C80 0000 	cmp.l #255,%d0
 1717      00FF 
 1718 0dd8 633E      	jls .L84
 966:/home/simulink/cFS_FreeRTOS_seL4/cfe/fsw/cfe-core/src/es/cfe_es_task.c ****           CFE_EVS_SendEvent(CFE_ES_START_PRIORITY_ERR_EID, CFE_EVS_ERROR,
 1719               	.loc 1 966 0
 1720 0dda 1039 0000 	move.b CFE_ES_TaskData+1,%d0
68K GAS   			page 56


 1720      0000 
 1721 0de0 5280      	addq.l #1,%d0
 1722 0de2 1000      	move.b %d0,%d0
 1723 0de4 13C0 0000 	move.b %d0,CFE_ES_TaskData+1
 1723      0000 
 969:/home/simulink/cFS_FreeRTOS_seL4/cfe/fsw/cfe-core/src/es/cfe_es_task.c ****        }
 1724               	.loc 1 969 0
 1725 0dea 206F 007C 	move.l 124(%sp),%a0
 1726 0dee 3028 006E 	move.w 110(%a0),%d0
 967:/home/simulink/cFS_FreeRTOS_seL4/cfe/fsw/cfe-core/src/es/cfe_es_task.c ****                            "CFE_ES_StartAppCmd: Priority is too large: %d.",
 1727               	.loc 1 967 0
 1728 0df2 3000      	move.w %d0,%d0
 1729 0df4 0280 0000 	and.l #65535,%d0
 1729      FFFF 
 1730 0dfa 2F00      	move.l %d0,-(%sp)
 1731               	.cfi_def_cfa_offset 140
 1732 0dfc 4879 0000 	pea .LC22
 1732      0000 
 1733               	.cfi_def_cfa_offset 144
 1734 0e02 4878 0003 	pea 3.w
 1735               	.cfi_def_cfa_offset 148
 1736 0e06 4878 001F 	pea 31.w
 1737               	.cfi_def_cfa_offset 152
 1738 0e0a 4EB9 0000 	jsr CFE_EVS_SendEvent
 1738      0000 
 1739 0e10 4FEF 0010 	lea (16,%sp),%sp
 1740               	.cfi_def_cfa_offset 136
 1741               	.loc 1 1013 0
 1742 0e14 6000 0146 	jra .L87
 1743               	.L84:
 971:/home/simulink/cFS_FreeRTOS_seL4/cfe/fsw/cfe-core/src/es/cfe_es_task.c ****                 (cmd->ExceptionAction != CFE_ES_APP_EXCEPTION_PROC_RESTART ))
 1744               	.loc 1 971 0
 1745 0e18 206F 007C 	move.l 124(%sp),%a0
 1746 0e1c 3028 006C 	move.w 108(%a0),%d0
 1747 0e20 4A40      	tst.w %d0
 1748 0e22 6754      	jeq .L85
 972:/home/simulink/cFS_FreeRTOS_seL4/cfe/fsw/cfe-core/src/es/cfe_es_task.c ****        {
 1749               	.loc 1 972 0 discriminator 1
 1750 0e24 206F 007C 	move.l 124(%sp),%a0
 1751 0e28 3028 006C 	move.w 108(%a0),%d0
 971:/home/simulink/cFS_FreeRTOS_seL4/cfe/fsw/cfe-core/src/es/cfe_es_task.c ****                 (cmd->ExceptionAction != CFE_ES_APP_EXCEPTION_PROC_RESTART ))
 1752               	.loc 1 971 0 discriminator 1
 1753 0e2c 3000      	move.w %d0,%d0
 1754 0e2e 0280 0000 	and.l #65535,%d0
 1754      FFFF 
 1755 0e34 7201      	moveq #1,%d1
 1756 0e36 B280      	cmp.l %d0,%d1
 1757 0e38 673E      	jeq .L85
 974:/home/simulink/cFS_FreeRTOS_seL4/cfe/fsw/cfe-core/src/es/cfe_es_task.c ****           CFE_EVS_SendEvent(CFE_ES_START_EXC_ACTION_ERR_EID, CFE_EVS_ERROR,
 1758               	.loc 1 974 0
 1759 0e3a 1039 0000 	move.b CFE_ES_TaskData+1,%d0
 1759      0000 
 1760 0e40 5280      	addq.l #1,%d0
 1761 0e42 1000      	move.b %d0,%d0
 1762 0e44 13C0 0000 	move.b %d0,CFE_ES_TaskData+1
 1762      0000 
 977:/home/simulink/cFS_FreeRTOS_seL4/cfe/fsw/cfe-core/src/es/cfe_es_task.c ****        }
68K GAS   			page 57


 1763               	.loc 1 977 0
 1764 0e4a 206F 007C 	move.l 124(%sp),%a0
 1765 0e4e 3028 006C 	move.w 108(%a0),%d0
 975:/home/simulink/cFS_FreeRTOS_seL4/cfe/fsw/cfe-core/src/es/cfe_es_task.c ****                            "CFE_ES_StartAppCmd: Invalid Exception Action: %d.",
 1766               	.loc 1 975 0
 1767 0e52 3000      	move.w %d0,%d0
 1768 0e54 0280 0000 	and.l #65535,%d0
 1768      FFFF 
 1769 0e5a 2F00      	move.l %d0,-(%sp)
 1770               	.cfi_def_cfa_offset 140
 1771 0e5c 4879 0000 	pea .LC23
 1771      0000 
 1772               	.cfi_def_cfa_offset 144
 1773 0e62 4878 0003 	pea 3.w
 1774               	.cfi_def_cfa_offset 148
 1775 0e66 4878 0020 	pea 32.w
 1776               	.cfi_def_cfa_offset 152
 1777 0e6a 4EB9 0000 	jsr CFE_EVS_SendEvent
 1777      0000 
 1778 0e70 4FEF 0010 	lea (16,%sp),%sp
 1779               	.cfi_def_cfa_offset 136
 1780               	.loc 1 1013 0
 1781 0e74 6000 00E6 	jra .L87
 1782               	.L85:
 989:/home/simulink/cFS_FreeRTOS_seL4/cfe/fsw/cfe-core/src/es/cfe_es_task.c **** 
 1783               	.loc 1 989 0
 1784 0e78 206F 007C 	move.l 124(%sp),%a0
 1785 0e7c 3028 006C 	move.w 108(%a0),%d0
 984:/home/simulink/cFS_FreeRTOS_seL4/cfe/fsw/cfe-core/src/es/cfe_es_task.c ****                       LocalEntryPt,
 1786               	.loc 1 984 0
 1787 0e80 4281      	clr.l %d1
 1788 0e82 3200      	move.w %d0,%d1
 988:/home/simulink/cFS_FreeRTOS_seL4/cfe/fsw/cfe-core/src/es/cfe_es_task.c ****                       (uint32) cmd->ExceptionAction);
 1789               	.loc 1 988 0
 1790 0e84 206F 007C 	move.l 124(%sp),%a0
 1791 0e88 2268 0068 	move.l 104(%a0),%a1
 987:/home/simulink/cFS_FreeRTOS_seL4/cfe/fsw/cfe-core/src/es/cfe_es_task.c ****                       (uint32) cmd->StackSize,
 1792               	.loc 1 987 0
 1793 0e8c 206F 007C 	move.l 124(%sp),%a0
 1794 0e90 3028 006E 	move.w 110(%a0),%d0
 984:/home/simulink/cFS_FreeRTOS_seL4/cfe/fsw/cfe-core/src/es/cfe_es_task.c ****                       LocalEntryPt,
 1795               	.loc 1 984 0
 1796 0e94 3000      	move.w %d0,%d0
 1797 0e96 0280 0000 	and.l #65535,%d0
 1797      FFFF 
 1798 0e9c 2F01      	move.l %d1,-(%sp)
 1799               	.cfi_def_cfa_offset 140
 1800 0e9e 2F09      	move.l %a1,-(%sp)
 1801               	.cfi_def_cfa_offset 144
 1802 0ea0 2F00      	move.l %d0,-(%sp)
 1803               	.cfi_def_cfa_offset 148
 1804 0ea2 200F      	move.l %sp,%d0
 1805 0ea4 0680 0000 	add.l #12,%d0
 1805      000C 
 1806 0eaa 2F00      	move.l %d0,-(%sp)
 1807               	.cfi_def_cfa_offset 152
 1808 0eac 200F      	move.l %sp,%d0
68K GAS   			page 58


 1809 0eae 0680 0000 	add.l #36,%d0
 1809      0024 
 1810 0eb4 2F00      	move.l %d0,-(%sp)
 1811               	.cfi_def_cfa_offset 156
 1812 0eb6 200F      	move.l %sp,%d0
 1813 0eb8 0680 0000 	add.l #60,%d0
 1813      003C 
 1814 0ebe 2F00      	move.l %d0,-(%sp)
 1815               	.cfi_def_cfa_offset 160
 1816 0ec0 200F      	move.l %sp,%d0
 1817 0ec2 0680 0000 	add.l #128,%d0
 1817      0080 
 1818 0ec8 2F00      	move.l %d0,-(%sp)
 1819               	.cfi_def_cfa_offset 164
 1820 0eca 4EB9 0000 	jsr CFE_ES_AppCreate
 1820      0000 
 1821 0ed0 4FEF 001C 	lea (28,%sp),%sp
 1822               	.cfi_def_cfa_offset 136
 1823 0ed4 2F40 006C 	move.l %d0,108(%sp)
 994:/home/simulink/cFS_FreeRTOS_seL4/cfe/fsw/cfe-core/src/es/cfe_es_task.c ****           {
 1824               	.loc 1 994 0
 1825 0ed8 4AAF 006C 	tst.l 108(%sp)
 1826 0edc 6640      	jne .L86
 996:/home/simulink/cFS_FreeRTOS_seL4/cfe/fsw/cfe-core/src/es/cfe_es_task.c ****              CFE_EVS_SendEvent(CFE_ES_START_INF_EID, CFE_EVS_INFORMATION,
 1827               	.loc 1 996 0
 1828 0ede 1039 0000 	move.b CFE_ES_TaskData,%d0
 1828      0000 
 1829 0ee4 5280      	addq.l #1,%d0
 1830 0ee6 1000      	move.b %d0,%d0
 1831 0ee8 13C0 0000 	move.b %d0,CFE_ES_TaskData
 1831      0000 
 997:/home/simulink/cFS_FreeRTOS_seL4/cfe/fsw/cfe-core/src/es/cfe_es_task.c ****                                 "Started %s from %s, AppID = %d",
 1832               	.loc 1 997 0
 1833 0eee 202F 0068 	move.l 104(%sp),%d0
 1834 0ef2 2F00      	move.l %d0,-(%sp)
 1835               	.cfi_def_cfa_offset 140
 1836 0ef4 200F      	move.l %sp,%d0
 1837 0ef6 0680 0000 	add.l #44,%d0
 1837      002C 
 1838 0efc 2F00      	move.l %d0,-(%sp)
 1839               	.cfi_def_cfa_offset 144
 1840 0efe 200F      	move.l %sp,%d0
 1841 0f00 5080      	addq.l #8,%d0
 1842 0f02 2F00      	move.l %d0,-(%sp)
 1843               	.cfi_def_cfa_offset 148
 1844 0f04 4879 0000 	pea .LC24
 1844      0000 
 1845               	.cfi_def_cfa_offset 152
 1846 0f0a 4878 0002 	pea 2.w
 1847               	.cfi_def_cfa_offset 156
 1848 0f0e 4878 0006 	pea 6.w
 1849               	.cfi_def_cfa_offset 160
 1850 0f12 4EB9 0000 	jsr CFE_EVS_SendEvent
 1850      0000 
 1851 0f18 4FEF 0018 	lea (24,%sp),%sp
 1852               	.cfi_def_cfa_offset 136
 1853               	.loc 1 1013 0
68K GAS   			page 59


 1854 0f1c 603E      	jra .L87
 1855               	.L86:
1003:/home/simulink/cFS_FreeRTOS_seL4/cfe/fsw/cfe-core/src/es/cfe_es_task.c ****                CFE_EVS_SendEvent(CFE_ES_START_ERR_EID, CFE_EVS_ERROR,
 1856               	.loc 1 1003 0
 1857 0f1e 1039 0000 	move.b CFE_ES_TaskData+1,%d0
 1857      0000 
 1858 0f24 5280      	addq.l #1,%d0
 1859 0f26 1000      	move.b %d0,%d0
 1860 0f28 13C0 0000 	move.b %d0,CFE_ES_TaskData+1
 1860      0000 
1004:/home/simulink/cFS_FreeRTOS_seL4/cfe/fsw/cfe-core/src/es/cfe_es_task.c ****                              "Failed to start %s from %s, RC = 0x%08X",
 1861               	.loc 1 1004 0
 1862 0f2e 202F 006C 	move.l 108(%sp),%d0
 1863 0f32 2F00      	move.l %d0,-(%sp)
 1864               	.cfi_def_cfa_offset 140
 1865 0f34 200F      	move.l %sp,%d0
 1866 0f36 0680 0000 	add.l #44,%d0
 1866      002C 
 1867 0f3c 2F00      	move.l %d0,-(%sp)
 1868               	.cfi_def_cfa_offset 144
 1869 0f3e 200F      	move.l %sp,%d0
 1870 0f40 5080      	addq.l #8,%d0
 1871 0f42 2F00      	move.l %d0,-(%sp)
 1872               	.cfi_def_cfa_offset 148
 1873 0f44 4879 0000 	pea .LC25
 1873      0000 
 1874               	.cfi_def_cfa_offset 152
 1875 0f4a 4878 0003 	pea 3.w
 1876               	.cfi_def_cfa_offset 156
 1877 0f4e 4878 001A 	pea 26.w
 1878               	.cfi_def_cfa_offset 160
 1879 0f52 4EB9 0000 	jsr CFE_EVS_SendEvent
 1879      0000 
 1880 0f58 4FEF 0018 	lea (24,%sp),%sp
 1881               	.cfi_def_cfa_offset 136
 1882               	.L87:
 1883               	.loc 1 1013 0
 1884 0f5c 4E71      	nop
 1885 0f5e 4FEF 0084 	lea (132,%sp),%sp
 1886 0f62 4E75      	rts
 1887               	.cfi_endproc
 1888               	.LFE67:
 1889               	.sizeCFE_ES_StartAppCmd, .-CFE_ES_StartAppCmd
 1890               	.section.rodata
 1891               	.LC26:
 1892 046e 5374 6F70 	.string"Stop Application %s Initiated."
 1892      2041 7070 
 1892      6C69 6361 
 1892      7469 6F6E 
 1892      2025 7320 
 1893               	.LC27:
 1894 048d 5374 6F70 	.string"Stop Application %s Failed, RC = 0x%08X"
 1894      2041 7070 
 1894      6C69 6361 
 1894      7469 6F6E 
 1894      2025 7320 
 1895               	.LC28:
68K GAS   			page 60


 1896 04b5 5374 6F70 	.string"Stop Application %s, GetAppIDByName failed. RC = 0x%08X."
 1896      2041 7070 
 1896      6C69 6361 
 1896      7469 6F6E 
 1896      2025 732C 
 1897               	.text
 1898               	.align2
 1899               	.globlCFE_ES_StopAppCmd
 1900               	.typeCFE_ES_StopAppCmd, @function
 1901               	CFE_ES_StopAppCmd:
 1902               	.LFB68:
1014:/home/simulink/cFS_FreeRTOS_seL4/cfe/fsw/cfe-core/src/es/cfe_es_task.c **** 
1015:/home/simulink/cFS_FreeRTOS_seL4/cfe/fsw/cfe-core/src/es/cfe_es_task.c **** 
1016:/home/simulink/cFS_FreeRTOS_seL4/cfe/fsw/cfe-core/src/es/cfe_es_task.c **** /* * * * * * * * * * * * * * * * * * * * * * * * * * * * * * * * * */
1017:/home/simulink/cFS_FreeRTOS_seL4/cfe/fsw/cfe-core/src/es/cfe_es_task.c **** /*                                                                 */
1018:/home/simulink/cFS_FreeRTOS_seL4/cfe/fsw/cfe-core/src/es/cfe_es_task.c **** /* CFE_ES_StopAppCmd() -- Stop single application                  */
1019:/home/simulink/cFS_FreeRTOS_seL4/cfe/fsw/cfe-core/src/es/cfe_es_task.c **** /*                                                                 */
1020:/home/simulink/cFS_FreeRTOS_seL4/cfe/fsw/cfe-core/src/es/cfe_es_task.c **** /* * * * * * * * * * * * * * * * * * * * * * * * * * * * * * * * * */
1021:/home/simulink/cFS_FreeRTOS_seL4/cfe/fsw/cfe-core/src/es/cfe_es_task.c **** 
1022:/home/simulink/cFS_FreeRTOS_seL4/cfe/fsw/cfe-core/src/es/cfe_es_task.c **** void CFE_ES_StopAppCmd(CFE_SB_MsgPtr_t Msg)
1023:/home/simulink/cFS_FreeRTOS_seL4/cfe/fsw/cfe-core/src/es/cfe_es_task.c **** {
 1903               	.loc 1 1023 0
 1904               	.cfi_startproc
 1905 0f64 4FEF FFDC 	lea (-36,%sp),%sp
 1906               	.cfi_def_cfa_offset 40
1024:/home/simulink/cFS_FreeRTOS_seL4/cfe/fsw/cfe-core/src/es/cfe_es_task.c ****     CFE_ES_AppNameCmd_Payload_t *cmd = (CFE_ES_AppNameCmd_Payload_t *)&Msg->Byte[CFE_SB_CMD_HDR_SIZ
 1907               	.loc 1 1024 0
 1908 0f68 202F 0028 	move.l 40(%sp),%d0
 1909 0f6c 5080      	addq.l #8,%d0
 1910 0f6e 2F40 0020 	move.l %d0,32(%sp)
1025:/home/simulink/cFS_FreeRTOS_seL4/cfe/fsw/cfe-core/src/es/cfe_es_task.c ****     uint16 ExpectedLength = sizeof(CFE_ES_AppNameCmd_t);
 1911               	.loc 1 1025 0
 1912 0f72 701C      	moveq #28,%d0
 1913 0f74 3F40 001E 	move.w %d0,30(%sp)
1026:/home/simulink/cFS_FreeRTOS_seL4/cfe/fsw/cfe-core/src/es/cfe_es_task.c ****     char LocalApp[OS_MAX_API_NAME];
1027:/home/simulink/cFS_FreeRTOS_seL4/cfe/fsw/cfe-core/src/es/cfe_es_task.c **** 
1028:/home/simulink/cFS_FreeRTOS_seL4/cfe/fsw/cfe-core/src/es/cfe_es_task.c **** 
1029:/home/simulink/cFS_FreeRTOS_seL4/cfe/fsw/cfe-core/src/es/cfe_es_task.c ****     /*
1030:/home/simulink/cFS_FreeRTOS_seL4/cfe/fsw/cfe-core/src/es/cfe_es_task.c ****     ** Verify command packet length.
1031:/home/simulink/cFS_FreeRTOS_seL4/cfe/fsw/cfe-core/src/es/cfe_es_task.c ****     */
1032:/home/simulink/cFS_FreeRTOS_seL4/cfe/fsw/cfe-core/src/es/cfe_es_task.c ****     if (CFE_ES_VerifyCmdLength(Msg, ExpectedLength))
 1914               	.loc 1 1032 0
 1915 0f78 4280      	clr.l %d0
 1916 0f7a 302F 001E 	move.w 30(%sp),%d0
 1917 0f7e 2F00      	move.l %d0,-(%sp)
 1918               	.cfi_def_cfa_offset 44
 1919 0f80 2F2F 002C 	move.l 44(%sp),-(%sp)
 1920               	.cfi_def_cfa_offset 48
 1921 0f84 4EB9 0000 	jsr CFE_ES_VerifyCmdLength
 1921      0000 
 1922 0f8a 508F      	addq.l #8,%sp
 1923               	.cfi_def_cfa_offset 40
 1924 0f8c 4A00      	tst.b %d0
 1925 0f8e 6700 00F4 	jeq .L94
 1926               	.LBB2:
1033:/home/simulink/cFS_FreeRTOS_seL4/cfe/fsw/cfe-core/src/es/cfe_es_task.c ****     {
1034:/home/simulink/cFS_FreeRTOS_seL4/cfe/fsw/cfe-core/src/es/cfe_es_task.c ****         uint32 AppID;
68K GAS   			page 61


1035:/home/simulink/cFS_FreeRTOS_seL4/cfe/fsw/cfe-core/src/es/cfe_es_task.c ****         int32 Result;
1036:/home/simulink/cFS_FreeRTOS_seL4/cfe/fsw/cfe-core/src/es/cfe_es_task.c ****         
1037:/home/simulink/cFS_FreeRTOS_seL4/cfe/fsw/cfe-core/src/es/cfe_es_task.c ****         CFE_SB_MessageStringGet(LocalApp, (char *)cmd->Application, NULL, OS_MAX_API_NAME, sizeof(c
 1927               	.loc 1 1037 0
 1928 0f92 202F 0020 	move.l 32(%sp),%d0
 1929 0f96 4878 0014 	pea 20.w
 1930               	.cfi_def_cfa_offset 44
 1931 0f9a 4878 0014 	pea 20.w
 1932               	.cfi_def_cfa_offset 48
 1933 0f9e 42A7      	clr.l -(%sp)
 1934               	.cfi_def_cfa_offset 52
 1935 0fa0 2F00      	move.l %d0,-(%sp)
 1936               	.cfi_def_cfa_offset 56
 1937 0fa2 200F      	move.l %sp,%d0
 1938 0fa4 0680 0000 	add.l #20,%d0
 1938      0014 
 1939 0faa 2F00      	move.l %d0,-(%sp)
 1940               	.cfi_def_cfa_offset 60
 1941 0fac 4EB9 0000 	jsr CFE_SB_MessageStringGet
 1941      0000 
 1942 0fb2 4FEF 0014 	lea (20,%sp),%sp
 1943               	.cfi_def_cfa_offset 40
1038:/home/simulink/cFS_FreeRTOS_seL4/cfe/fsw/cfe-core/src/es/cfe_es_task.c **** 
1039:/home/simulink/cFS_FreeRTOS_seL4/cfe/fsw/cfe-core/src/es/cfe_es_task.c ****         Result = CFE_ES_GetAppIDByName(&AppID, LocalApp);
 1944               	.loc 1 1039 0
 1945 0fb6 200F      	move.l %sp,%d0
 1946 0fb8 5880      	addq.l #4,%d0
 1947 0fba 2F00      	move.l %d0,-(%sp)
 1948               	.cfi_def_cfa_offset 44
 1949 0fbc 200F      	move.l %sp,%d0
 1950 0fbe 5880      	addq.l #4,%d0
 1951 0fc0 2F00      	move.l %d0,-(%sp)
 1952               	.cfi_def_cfa_offset 48
 1953 0fc2 4EB9 0000 	jsr CFE_ES_GetAppIDByName
 1953      0000 
 1954 0fc8 508F      	addq.l #8,%sp
 1955               	.cfi_def_cfa_offset 40
 1956 0fca 2F40 0018 	move.l %d0,24(%sp)
1040:/home/simulink/cFS_FreeRTOS_seL4/cfe/fsw/cfe-core/src/es/cfe_es_task.c **** 
1041:/home/simulink/cFS_FreeRTOS_seL4/cfe/fsw/cfe-core/src/es/cfe_es_task.c ****         if (Result == CFE_SUCCESS)
 1957               	.loc 1 1041 0
 1958 0fce 4AAF 0018 	tst.l 24(%sp)
 1959 0fd2 667C      	jne .L90
1042:/home/simulink/cFS_FreeRTOS_seL4/cfe/fsw/cfe-core/src/es/cfe_es_task.c ****         {            
1043:/home/simulink/cFS_FreeRTOS_seL4/cfe/fsw/cfe-core/src/es/cfe_es_task.c ****             /*
1044:/home/simulink/cFS_FreeRTOS_seL4/cfe/fsw/cfe-core/src/es/cfe_es_task.c ****             ** Delete the App
1045:/home/simulink/cFS_FreeRTOS_seL4/cfe/fsw/cfe-core/src/es/cfe_es_task.c ****             */
1046:/home/simulink/cFS_FreeRTOS_seL4/cfe/fsw/cfe-core/src/es/cfe_es_task.c ****             Result = CFE_ES_DeleteApp(AppID);
 1960               	.loc 1 1046 0
 1961 0fd4 2017      	move.l (%sp),%d0
 1962 0fd6 2F00      	move.l %d0,-(%sp)
 1963               	.cfi_def_cfa_offset 44
 1964 0fd8 4EB9 0000 	jsr CFE_ES_DeleteApp
 1964      0000 
 1965 0fde 588F      	addq.l #4,%sp
 1966               	.cfi_def_cfa_offset 40
 1967 0fe0 2F40 0018 	move.l %d0,24(%sp)
68K GAS   			page 62


1047:/home/simulink/cFS_FreeRTOS_seL4/cfe/fsw/cfe-core/src/es/cfe_es_task.c **** 
1048:/home/simulink/cFS_FreeRTOS_seL4/cfe/fsw/cfe-core/src/es/cfe_es_task.c ****             /*
1049:/home/simulink/cFS_FreeRTOS_seL4/cfe/fsw/cfe-core/src/es/cfe_es_task.c ****             ** Send appropriate event message.
1050:/home/simulink/cFS_FreeRTOS_seL4/cfe/fsw/cfe-core/src/es/cfe_es_task.c ****             */
1051:/home/simulink/cFS_FreeRTOS_seL4/cfe/fsw/cfe-core/src/es/cfe_es_task.c ****             if (Result == CFE_SUCCESS)
 1968               	.loc 1 1051 0
 1969 0fe4 4AAF 0018 	tst.l 24(%sp)
 1970 0fe8 6630      	jne .L91
1052:/home/simulink/cFS_FreeRTOS_seL4/cfe/fsw/cfe-core/src/es/cfe_es_task.c ****             {
1053:/home/simulink/cFS_FreeRTOS_seL4/cfe/fsw/cfe-core/src/es/cfe_es_task.c ****                 CFE_ES_TaskData.CmdCounter++;
 1971               	.loc 1 1053 0
 1972 0fea 1039 0000 	move.b CFE_ES_TaskData,%d0
 1972      0000 
 1973 0ff0 5280      	addq.l #1,%d0
 1974 0ff2 1000      	move.b %d0,%d0
 1975 0ff4 13C0 0000 	move.b %d0,CFE_ES_TaskData
 1975      0000 
1054:/home/simulink/cFS_FreeRTOS_seL4/cfe/fsw/cfe-core/src/es/cfe_es_task.c ****                 CFE_EVS_SendEvent(CFE_ES_STOP_DBG_EID, CFE_EVS_DEBUG,
 1976               	.loc 1 1054 0
 1977 0ffa 200F      	move.l %sp,%d0
 1978 0ffc 5880      	addq.l #4,%d0
 1979 0ffe 2F00      	move.l %d0,-(%sp)
 1980               	.cfi_def_cfa_offset 44
 1981 1000 4879 0000 	pea .LC26
 1981      0000 
 1982               	.cfi_def_cfa_offset 48
 1983 1006 4878 0001 	pea 1.w
 1984               	.cfi_def_cfa_offset 52
 1985 100a 4878 0007 	pea 7.w
 1986               	.cfi_def_cfa_offset 56
 1987 100e 4EB9 0000 	jsr CFE_EVS_SendEvent
 1987      0000 
 1988 1014 4FEF 0010 	lea (16,%sp),%sp
 1989               	.cfi_def_cfa_offset 40
 1990               	.LBE2:
1055:/home/simulink/cFS_FreeRTOS_seL4/cfe/fsw/cfe-core/src/es/cfe_es_task.c ****                              "Stop Application %s Initiated.", LocalApp);
1056:/home/simulink/cFS_FreeRTOS_seL4/cfe/fsw/cfe-core/src/es/cfe_es_task.c ****             }
1057:/home/simulink/cFS_FreeRTOS_seL4/cfe/fsw/cfe-core/src/es/cfe_es_task.c ****             else
1058:/home/simulink/cFS_FreeRTOS_seL4/cfe/fsw/cfe-core/src/es/cfe_es_task.c ****             {
1059:/home/simulink/cFS_FreeRTOS_seL4/cfe/fsw/cfe-core/src/es/cfe_es_task.c ****                 CFE_ES_TaskData.ErrCounter++;
1060:/home/simulink/cFS_FreeRTOS_seL4/cfe/fsw/cfe-core/src/es/cfe_es_task.c ****                 CFE_EVS_SendEvent(CFE_ES_STOP_ERR1_EID, CFE_EVS_ERROR,
1061:/home/simulink/cFS_FreeRTOS_seL4/cfe/fsw/cfe-core/src/es/cfe_es_task.c ****                              "Stop Application %s Failed, RC = 0x%08X",
1062:/home/simulink/cFS_FreeRTOS_seL4/cfe/fsw/cfe-core/src/es/cfe_es_task.c ****                              LocalApp, (unsigned int)Result);
1063:/home/simulink/cFS_FreeRTOS_seL4/cfe/fsw/cfe-core/src/es/cfe_es_task.c ****             }
1064:/home/simulink/cFS_FreeRTOS_seL4/cfe/fsw/cfe-core/src/es/cfe_es_task.c ****         }
1065:/home/simulink/cFS_FreeRTOS_seL4/cfe/fsw/cfe-core/src/es/cfe_es_task.c ****         else
1066:/home/simulink/cFS_FreeRTOS_seL4/cfe/fsw/cfe-core/src/es/cfe_es_task.c ****         {
1067:/home/simulink/cFS_FreeRTOS_seL4/cfe/fsw/cfe-core/src/es/cfe_es_task.c ****             CFE_ES_TaskData.ErrCounter++;
1068:/home/simulink/cFS_FreeRTOS_seL4/cfe/fsw/cfe-core/src/es/cfe_es_task.c ****             CFE_EVS_SendEvent(CFE_ES_STOP_ERR2_EID, CFE_EVS_ERROR,
1069:/home/simulink/cFS_FreeRTOS_seL4/cfe/fsw/cfe-core/src/es/cfe_es_task.c ****                               "Stop Application %s, GetAppIDByName failed. RC = 0x%08X.",
1070:/home/simulink/cFS_FreeRTOS_seL4/cfe/fsw/cfe-core/src/es/cfe_es_task.c ****                               LocalApp, (unsigned int)Result);
1071:/home/simulink/cFS_FreeRTOS_seL4/cfe/fsw/cfe-core/src/es/cfe_es_task.c ****         }
1072:/home/simulink/cFS_FreeRTOS_seL4/cfe/fsw/cfe-core/src/es/cfe_es_task.c **** 
1073:/home/simulink/cFS_FreeRTOS_seL4/cfe/fsw/cfe-core/src/es/cfe_es_task.c ****     }
1074:/home/simulink/cFS_FreeRTOS_seL4/cfe/fsw/cfe-core/src/es/cfe_es_task.c **** 
1075:/home/simulink/cFS_FreeRTOS_seL4/cfe/fsw/cfe-core/src/es/cfe_es_task.c **** } /* End of CFE_ES_StopAppCmd() */
 1991               	.loc 1 1075 0
68K GAS   			page 63


 1992 1018 606A      	jra .L94
 1993               	.L91:
 1994               	.LBB3:
1059:/home/simulink/cFS_FreeRTOS_seL4/cfe/fsw/cfe-core/src/es/cfe_es_task.c ****                 CFE_EVS_SendEvent(CFE_ES_STOP_ERR1_EID, CFE_EVS_ERROR,
 1995               	.loc 1 1059 0
 1996 101a 1039 0000 	move.b CFE_ES_TaskData+1,%d0
 1996      0000 
 1997 1020 5280      	addq.l #1,%d0
 1998 1022 1000      	move.b %d0,%d0
 1999 1024 13C0 0000 	move.b %d0,CFE_ES_TaskData+1
 1999      0000 
1060:/home/simulink/cFS_FreeRTOS_seL4/cfe/fsw/cfe-core/src/es/cfe_es_task.c ****                              "Stop Application %s Failed, RC = 0x%08X",
 2000               	.loc 1 1060 0
 2001 102a 202F 0018 	move.l 24(%sp),%d0
 2002 102e 2F00      	move.l %d0,-(%sp)
 2003               	.cfi_def_cfa_offset 44
 2004 1030 200F      	move.l %sp,%d0
 2005 1032 5080      	addq.l #8,%d0
 2006 1034 2F00      	move.l %d0,-(%sp)
 2007               	.cfi_def_cfa_offset 48
 2008 1036 4879 0000 	pea .LC27
 2008      0000 
 2009               	.cfi_def_cfa_offset 52
 2010 103c 4878 0003 	pea 3.w
 2011               	.cfi_def_cfa_offset 56
 2012 1040 4878 0023 	pea 35.w
 2013               	.cfi_def_cfa_offset 60
 2014 1044 4EB9 0000 	jsr CFE_EVS_SendEvent
 2014      0000 
 2015 104a 4FEF 0014 	lea (20,%sp),%sp
 2016               	.cfi_def_cfa_offset 40
 2017               	.LBE3:
 2018               	.loc 1 1075 0
 2019 104e 6034      	jra .L94
 2020               	.L90:
 2021               	.LBB4:
1067:/home/simulink/cFS_FreeRTOS_seL4/cfe/fsw/cfe-core/src/es/cfe_es_task.c ****             CFE_EVS_SendEvent(CFE_ES_STOP_ERR2_EID, CFE_EVS_ERROR,
 2022               	.loc 1 1067 0
 2023 1050 1039 0000 	move.b CFE_ES_TaskData+1,%d0
 2023      0000 
 2024 1056 5280      	addq.l #1,%d0
 2025 1058 1000      	move.b %d0,%d0
 2026 105a 13C0 0000 	move.b %d0,CFE_ES_TaskData+1
 2026      0000 
1068:/home/simulink/cFS_FreeRTOS_seL4/cfe/fsw/cfe-core/src/es/cfe_es_task.c ****                               "Stop Application %s, GetAppIDByName failed. RC = 0x%08X.",
 2027               	.loc 1 1068 0
 2028 1060 202F 0018 	move.l 24(%sp),%d0
 2029 1064 2F00      	move.l %d0,-(%sp)
 2030               	.cfi_def_cfa_offset 44
 2031 1066 200F      	move.l %sp,%d0
 2032 1068 5080      	addq.l #8,%d0
 2033 106a 2F00      	move.l %d0,-(%sp)
 2034               	.cfi_def_cfa_offset 48
 2035 106c 4879 0000 	pea .LC28
 2035      0000 
 2036               	.cfi_def_cfa_offset 52
 2037 1072 4878 0003 	pea 3.w
68K GAS   			page 64


 2038               	.cfi_def_cfa_offset 56
 2039 1076 4878 0024 	pea 36.w
 2040               	.cfi_def_cfa_offset 60
 2041 107a 4EB9 0000 	jsr CFE_EVS_SendEvent
 2041      0000 
 2042 1080 4FEF 0014 	lea (20,%sp),%sp
 2043               	.cfi_def_cfa_offset 40
 2044               	.L94:
 2045               	.LBE4:
 2046               	.loc 1 1075 0
 2047 1084 4E71      	nop
 2048 1086 4FEF 0024 	lea (36,%sp),%sp
 2049 108a 4E75      	rts
 2050               	.cfi_endproc
 2051               	.LFE68:
 2052               	.sizeCFE_ES_StopAppCmd, .-CFE_ES_StopAppCmd
 2053               	.section.rodata
 2054               	.LC29:
 2055 04ee 5265 7374 	.string"Restart Application %s Initiated."
 2055      6172 7420 
 2055      4170 706C 
 2055      6963 6174 
 2055      696F 6E20 
 2056               	.LC30:
 2057 0510 5265 7374 	.string"Restart Application %s Failed, RC = 0x%08X"
 2057      6172 7420 
 2057      4170 706C 
 2057      6963 6174 
 2057      696F 6E20 
 2058               	.LC31:
 2059 053b 5265 7374 	.string"Restart Application %s, GetAppIDByName failed. RC = 0x%08X."
 2059      6172 7420 
 2059      4170 706C 
 2059      6963 6174 
 2059      696F 6E20 
 2060               	.text
 2061               	.align2
 2062               	.globlCFE_ES_RestartAppCmd
 2063               	.typeCFE_ES_RestartAppCmd, @function
 2064               	CFE_ES_RestartAppCmd:
 2065               	.LFB69:
1076:/home/simulink/cFS_FreeRTOS_seL4/cfe/fsw/cfe-core/src/es/cfe_es_task.c **** 
1077:/home/simulink/cFS_FreeRTOS_seL4/cfe/fsw/cfe-core/src/es/cfe_es_task.c **** 
1078:/home/simulink/cFS_FreeRTOS_seL4/cfe/fsw/cfe-core/src/es/cfe_es_task.c **** /* * * * * * * * * * * * * * * * * * * * * * * * * * * * * * * * * */
1079:/home/simulink/cFS_FreeRTOS_seL4/cfe/fsw/cfe-core/src/es/cfe_es_task.c **** /*                                                                 */
1080:/home/simulink/cFS_FreeRTOS_seL4/cfe/fsw/cfe-core/src/es/cfe_es_task.c **** /* CFE_ES_RestartAppCmd() -- Restart a single application            */
1081:/home/simulink/cFS_FreeRTOS_seL4/cfe/fsw/cfe-core/src/es/cfe_es_task.c **** /*                                                                 */
1082:/home/simulink/cFS_FreeRTOS_seL4/cfe/fsw/cfe-core/src/es/cfe_es_task.c **** /* * * * * * * * * * * * * * * * * * * * * * * * * * * * * * * * * */
1083:/home/simulink/cFS_FreeRTOS_seL4/cfe/fsw/cfe-core/src/es/cfe_es_task.c **** 
1084:/home/simulink/cFS_FreeRTOS_seL4/cfe/fsw/cfe-core/src/es/cfe_es_task.c **** void CFE_ES_RestartAppCmd(CFE_SB_MsgPtr_t Msg)
1085:/home/simulink/cFS_FreeRTOS_seL4/cfe/fsw/cfe-core/src/es/cfe_es_task.c **** {
 2066               	.loc 1 1085 0
 2067               	.cfi_startproc
 2068 108c 4FEF FFDC 	lea (-36,%sp),%sp
 2069               	.cfi_def_cfa_offset 40
1086:/home/simulink/cFS_FreeRTOS_seL4/cfe/fsw/cfe-core/src/es/cfe_es_task.c ****     CFE_ES_AppNameCmd_Payload_t *cmd = (CFE_ES_AppNameCmd_Payload_t *)&Msg->Byte[CFE_SB_CMD_HDR_SIZ
 2070               	.loc 1 1086 0
68K GAS   			page 65


 2071 1090 202F 0028 	move.l 40(%sp),%d0
 2072 1094 5080      	addq.l #8,%d0
 2073 1096 2F40 0020 	move.l %d0,32(%sp)
1087:/home/simulink/cFS_FreeRTOS_seL4/cfe/fsw/cfe-core/src/es/cfe_es_task.c ****     uint16 ExpectedLength = sizeof(CFE_ES_AppNameCmd_t);
 2074               	.loc 1 1087 0
 2075 109a 701C      	moveq #28,%d0
 2076 109c 3F40 001E 	move.w %d0,30(%sp)
1088:/home/simulink/cFS_FreeRTOS_seL4/cfe/fsw/cfe-core/src/es/cfe_es_task.c ****     char LocalApp[OS_MAX_API_NAME];
1089:/home/simulink/cFS_FreeRTOS_seL4/cfe/fsw/cfe-core/src/es/cfe_es_task.c **** 
1090:/home/simulink/cFS_FreeRTOS_seL4/cfe/fsw/cfe-core/src/es/cfe_es_task.c ****     /*
1091:/home/simulink/cFS_FreeRTOS_seL4/cfe/fsw/cfe-core/src/es/cfe_es_task.c ****     ** Verify command packet length.
1092:/home/simulink/cFS_FreeRTOS_seL4/cfe/fsw/cfe-core/src/es/cfe_es_task.c ****     */
1093:/home/simulink/cFS_FreeRTOS_seL4/cfe/fsw/cfe-core/src/es/cfe_es_task.c ****     if (CFE_ES_VerifyCmdLength(Msg, ExpectedLength))
 2077               	.loc 1 1093 0
 2078 10a0 4280      	clr.l %d0
 2079 10a2 302F 001E 	move.w 30(%sp),%d0
 2080 10a6 2F00      	move.l %d0,-(%sp)
 2081               	.cfi_def_cfa_offset 44
 2082 10a8 2F2F 002C 	move.l 44(%sp),-(%sp)
 2083               	.cfi_def_cfa_offset 48
 2084 10ac 4EB9 0000 	jsr CFE_ES_VerifyCmdLength
 2084      0000 
 2085 10b2 508F      	addq.l #8,%sp
 2086               	.cfi_def_cfa_offset 40
 2087 10b4 4A00      	tst.b %d0
 2088 10b6 6700 00F4 	jeq .L101
 2089               	.LBB5:
1094:/home/simulink/cFS_FreeRTOS_seL4/cfe/fsw/cfe-core/src/es/cfe_es_task.c ****     {
1095:/home/simulink/cFS_FreeRTOS_seL4/cfe/fsw/cfe-core/src/es/cfe_es_task.c ****         uint32 AppID;
1096:/home/simulink/cFS_FreeRTOS_seL4/cfe/fsw/cfe-core/src/es/cfe_es_task.c ****         int32 Result;
1097:/home/simulink/cFS_FreeRTOS_seL4/cfe/fsw/cfe-core/src/es/cfe_es_task.c **** 
1098:/home/simulink/cFS_FreeRTOS_seL4/cfe/fsw/cfe-core/src/es/cfe_es_task.c ****         CFE_SB_MessageStringGet(LocalApp, (char *)cmd->Application, NULL, OS_MAX_API_NAME, sizeof(c
 2090               	.loc 1 1098 0
 2091 10ba 202F 0020 	move.l 32(%sp),%d0
 2092 10be 4878 0014 	pea 20.w
 2093               	.cfi_def_cfa_offset 44
 2094 10c2 4878 0014 	pea 20.w
 2095               	.cfi_def_cfa_offset 48
 2096 10c6 42A7      	clr.l -(%sp)
 2097               	.cfi_def_cfa_offset 52
 2098 10c8 2F00      	move.l %d0,-(%sp)
 2099               	.cfi_def_cfa_offset 56
 2100 10ca 200F      	move.l %sp,%d0
 2101 10cc 0680 0000 	add.l #20,%d0
 2101      0014 
 2102 10d2 2F00      	move.l %d0,-(%sp)
 2103               	.cfi_def_cfa_offset 60
 2104 10d4 4EB9 0000 	jsr CFE_SB_MessageStringGet
 2104      0000 
 2105 10da 4FEF 0014 	lea (20,%sp),%sp
 2106               	.cfi_def_cfa_offset 40
1099:/home/simulink/cFS_FreeRTOS_seL4/cfe/fsw/cfe-core/src/es/cfe_es_task.c **** 
1100:/home/simulink/cFS_FreeRTOS_seL4/cfe/fsw/cfe-core/src/es/cfe_es_task.c ****         Result = CFE_ES_GetAppIDByName(&AppID, LocalApp);
 2107               	.loc 1 1100 0
 2108 10de 200F      	move.l %sp,%d0
 2109 10e0 5880      	addq.l #4,%d0
 2110 10e2 2F00      	move.l %d0,-(%sp)
68K GAS   			page 66


 2111               	.cfi_def_cfa_offset 44
 2112 10e4 200F      	move.l %sp,%d0
 2113 10e6 5880      	addq.l #4,%d0
 2114 10e8 2F00      	move.l %d0,-(%sp)
 2115               	.cfi_def_cfa_offset 48
 2116 10ea 4EB9 0000 	jsr CFE_ES_GetAppIDByName
 2116      0000 
 2117 10f0 508F      	addq.l #8,%sp
 2118               	.cfi_def_cfa_offset 40
 2119 10f2 2F40 0018 	move.l %d0,24(%sp)
1101:/home/simulink/cFS_FreeRTOS_seL4/cfe/fsw/cfe-core/src/es/cfe_es_task.c **** 
1102:/home/simulink/cFS_FreeRTOS_seL4/cfe/fsw/cfe-core/src/es/cfe_es_task.c ****         if (Result == CFE_SUCCESS)
 2120               	.loc 1 1102 0
 2121 10f6 4AAF 0018 	tst.l 24(%sp)
 2122 10fa 667C      	jne .L97
1103:/home/simulink/cFS_FreeRTOS_seL4/cfe/fsw/cfe-core/src/es/cfe_es_task.c ****         {
1104:/home/simulink/cFS_FreeRTOS_seL4/cfe/fsw/cfe-core/src/es/cfe_es_task.c ****             Result = CFE_ES_RestartApp(AppID);
 2123               	.loc 1 1104 0
 2124 10fc 2017      	move.l (%sp),%d0
 2125 10fe 2F00      	move.l %d0,-(%sp)
 2126               	.cfi_def_cfa_offset 44
 2127 1100 4EB9 0000 	jsr CFE_ES_RestartApp
 2127      0000 
 2128 1106 588F      	addq.l #4,%sp
 2129               	.cfi_def_cfa_offset 40
 2130 1108 2F40 0018 	move.l %d0,24(%sp)
1105:/home/simulink/cFS_FreeRTOS_seL4/cfe/fsw/cfe-core/src/es/cfe_es_task.c **** 
1106:/home/simulink/cFS_FreeRTOS_seL4/cfe/fsw/cfe-core/src/es/cfe_es_task.c ****             /*
1107:/home/simulink/cFS_FreeRTOS_seL4/cfe/fsw/cfe-core/src/es/cfe_es_task.c ****             ** Send appropriate event message.
1108:/home/simulink/cFS_FreeRTOS_seL4/cfe/fsw/cfe-core/src/es/cfe_es_task.c ****             */
1109:/home/simulink/cFS_FreeRTOS_seL4/cfe/fsw/cfe-core/src/es/cfe_es_task.c ****             if (Result == CFE_SUCCESS)
 2131               	.loc 1 1109 0
 2132 110c 4AAF 0018 	tst.l 24(%sp)
 2133 1110 6630      	jne .L98
1110:/home/simulink/cFS_FreeRTOS_seL4/cfe/fsw/cfe-core/src/es/cfe_es_task.c ****             {
1111:/home/simulink/cFS_FreeRTOS_seL4/cfe/fsw/cfe-core/src/es/cfe_es_task.c ****                 CFE_ES_TaskData.CmdCounter++;
 2134               	.loc 1 1111 0
 2135 1112 1039 0000 	move.b CFE_ES_TaskData,%d0
 2135      0000 
 2136 1118 5280      	addq.l #1,%d0
 2137 111a 1000      	move.b %d0,%d0
 2138 111c 13C0 0000 	move.b %d0,CFE_ES_TaskData
 2138      0000 
1112:/home/simulink/cFS_FreeRTOS_seL4/cfe/fsw/cfe-core/src/es/cfe_es_task.c ****                 CFE_EVS_SendEvent(CFE_ES_RESTART_APP_DBG_EID, CFE_EVS_DEBUG,
 2139               	.loc 1 1112 0
 2140 1122 200F      	move.l %sp,%d0
 2141 1124 5880      	addq.l #4,%d0
 2142 1126 2F00      	move.l %d0,-(%sp)
 2143               	.cfi_def_cfa_offset 44
 2144 1128 4879 0000 	pea .LC29
 2144      0000 
 2145               	.cfi_def_cfa_offset 48
 2146 112e 4878 0001 	pea 1.w
 2147               	.cfi_def_cfa_offset 52
 2148 1132 4878 0009 	pea 9.w
 2149               	.cfi_def_cfa_offset 56
 2150 1136 4EB9 0000 	jsr CFE_EVS_SendEvent
68K GAS   			page 67


 2150      0000 
 2151 113c 4FEF 0010 	lea (16,%sp),%sp
 2152               	.cfi_def_cfa_offset 40
 2153               	.LBE5:
1113:/home/simulink/cFS_FreeRTOS_seL4/cfe/fsw/cfe-core/src/es/cfe_es_task.c ****                              "Restart Application %s Initiated.", LocalApp);
1114:/home/simulink/cFS_FreeRTOS_seL4/cfe/fsw/cfe-core/src/es/cfe_es_task.c ****             }
1115:/home/simulink/cFS_FreeRTOS_seL4/cfe/fsw/cfe-core/src/es/cfe_es_task.c ****             else
1116:/home/simulink/cFS_FreeRTOS_seL4/cfe/fsw/cfe-core/src/es/cfe_es_task.c ****             {
1117:/home/simulink/cFS_FreeRTOS_seL4/cfe/fsw/cfe-core/src/es/cfe_es_task.c ****                 CFE_ES_TaskData.ErrCounter++;
1118:/home/simulink/cFS_FreeRTOS_seL4/cfe/fsw/cfe-core/src/es/cfe_es_task.c ****                 CFE_EVS_SendEvent(CFE_ES_RESTART_APP_ERR1_EID, CFE_EVS_ERROR,
1119:/home/simulink/cFS_FreeRTOS_seL4/cfe/fsw/cfe-core/src/es/cfe_es_task.c ****                              "Restart Application %s Failed, RC = 0x%08X",
1120:/home/simulink/cFS_FreeRTOS_seL4/cfe/fsw/cfe-core/src/es/cfe_es_task.c ****                              LocalApp, (unsigned int)Result);
1121:/home/simulink/cFS_FreeRTOS_seL4/cfe/fsw/cfe-core/src/es/cfe_es_task.c ****             }
1122:/home/simulink/cFS_FreeRTOS_seL4/cfe/fsw/cfe-core/src/es/cfe_es_task.c ****         }
1123:/home/simulink/cFS_FreeRTOS_seL4/cfe/fsw/cfe-core/src/es/cfe_es_task.c ****         else
1124:/home/simulink/cFS_FreeRTOS_seL4/cfe/fsw/cfe-core/src/es/cfe_es_task.c ****         {
1125:/home/simulink/cFS_FreeRTOS_seL4/cfe/fsw/cfe-core/src/es/cfe_es_task.c ****             CFE_ES_TaskData.ErrCounter++;
1126:/home/simulink/cFS_FreeRTOS_seL4/cfe/fsw/cfe-core/src/es/cfe_es_task.c ****             CFE_EVS_SendEvent(CFE_ES_RESTART_APP_ERR2_EID, CFE_EVS_ERROR,
1127:/home/simulink/cFS_FreeRTOS_seL4/cfe/fsw/cfe-core/src/es/cfe_es_task.c ****                               "Restart Application %s, GetAppIDByName failed. RC = 0x%08X.",
1128:/home/simulink/cFS_FreeRTOS_seL4/cfe/fsw/cfe-core/src/es/cfe_es_task.c ****                               LocalApp, (unsigned int)Result);
1129:/home/simulink/cFS_FreeRTOS_seL4/cfe/fsw/cfe-core/src/es/cfe_es_task.c ****         }
1130:/home/simulink/cFS_FreeRTOS_seL4/cfe/fsw/cfe-core/src/es/cfe_es_task.c ****     }
1131:/home/simulink/cFS_FreeRTOS_seL4/cfe/fsw/cfe-core/src/es/cfe_es_task.c **** 
1132:/home/simulink/cFS_FreeRTOS_seL4/cfe/fsw/cfe-core/src/es/cfe_es_task.c **** } /* End of CFE_ES_ResetAppCmd() */
 2154               	.loc 1 1132 0
 2155 1140 606A      	jra .L101
 2156               	.L98:
 2157               	.LBB6:
1117:/home/simulink/cFS_FreeRTOS_seL4/cfe/fsw/cfe-core/src/es/cfe_es_task.c ****                 CFE_EVS_SendEvent(CFE_ES_RESTART_APP_ERR1_EID, CFE_EVS_ERROR,
 2158               	.loc 1 1117 0
 2159 1142 1039 0000 	move.b CFE_ES_TaskData+1,%d0
 2159      0000 
 2160 1148 5280      	addq.l #1,%d0
 2161 114a 1000      	move.b %d0,%d0
 2162 114c 13C0 0000 	move.b %d0,CFE_ES_TaskData+1
 2162      0000 
1118:/home/simulink/cFS_FreeRTOS_seL4/cfe/fsw/cfe-core/src/es/cfe_es_task.c ****                              "Restart Application %s Failed, RC = 0x%08X",
 2163               	.loc 1 1118 0
 2164 1152 202F 0018 	move.l 24(%sp),%d0
 2165 1156 2F00      	move.l %d0,-(%sp)
 2166               	.cfi_def_cfa_offset 44
 2167 1158 200F      	move.l %sp,%d0
 2168 115a 5080      	addq.l #8,%d0
 2169 115c 2F00      	move.l %d0,-(%sp)
 2170               	.cfi_def_cfa_offset 48
 2171 115e 4879 0000 	pea .LC30
 2171      0000 
 2172               	.cfi_def_cfa_offset 52
 2173 1164 4878 0003 	pea 3.w
 2174               	.cfi_def_cfa_offset 56
 2175 1168 4878 0026 	pea 38.w
 2176               	.cfi_def_cfa_offset 60
 2177 116c 4EB9 0000 	jsr CFE_EVS_SendEvent
 2177      0000 
 2178 1172 4FEF 0014 	lea (20,%sp),%sp
 2179               	.cfi_def_cfa_offset 40
 2180               	.LBE6:
68K GAS   			page 68


 2181               	.loc 1 1132 0
 2182 1176 6034      	jra .L101
 2183               	.L97:
 2184               	.LBB7:
1125:/home/simulink/cFS_FreeRTOS_seL4/cfe/fsw/cfe-core/src/es/cfe_es_task.c ****             CFE_EVS_SendEvent(CFE_ES_RESTART_APP_ERR2_EID, CFE_EVS_ERROR,
 2185               	.loc 1 1125 0
 2186 1178 1039 0000 	move.b CFE_ES_TaskData+1,%d0
 2186      0000 
 2187 117e 5280      	addq.l #1,%d0
 2188 1180 1000      	move.b %d0,%d0
 2189 1182 13C0 0000 	move.b %d0,CFE_ES_TaskData+1
 2189      0000 
1126:/home/simulink/cFS_FreeRTOS_seL4/cfe/fsw/cfe-core/src/es/cfe_es_task.c ****                               "Restart Application %s, GetAppIDByName failed. RC = 0x%08X.",
 2190               	.loc 1 1126 0
 2191 1188 202F 0018 	move.l 24(%sp),%d0
 2192 118c 2F00      	move.l %d0,-(%sp)
 2193               	.cfi_def_cfa_offset 44
 2194 118e 200F      	move.l %sp,%d0
 2195 1190 5080      	addq.l #8,%d0
 2196 1192 2F00      	move.l %d0,-(%sp)
 2197               	.cfi_def_cfa_offset 48
 2198 1194 4879 0000 	pea .LC31
 2198      0000 
 2199               	.cfi_def_cfa_offset 52
 2200 119a 4878 0003 	pea 3.w
 2201               	.cfi_def_cfa_offset 56
 2202 119e 4878 0027 	pea 39.w
 2203               	.cfi_def_cfa_offset 60
 2204 11a2 4EB9 0000 	jsr CFE_EVS_SendEvent
 2204      0000 
 2205 11a8 4FEF 0014 	lea (20,%sp),%sp
 2206               	.cfi_def_cfa_offset 40
 2207               	.L101:
 2208               	.LBE7:
 2209               	.loc 1 1132 0
 2210 11ac 4E71      	nop
 2211 11ae 4FEF 0024 	lea (36,%sp),%sp
 2212 11b2 4E75      	rts
 2213               	.cfi_endproc
 2214               	.LFE69:
 2215               	.sizeCFE_ES_RestartAppCmd, .-CFE_ES_RestartAppCmd
 2216               	.section.rodata
 2217               	.LC32:
 2218 0577 5265 6C6F 	.string"Reload Application %s Initiated."
 2218      6164 2041 
 2218      7070 6C69 
 2218      6361 7469 
 2218      6F6E 2025 
 2219               	.LC33:
 2220 0598 5265 6C6F 	.string"Reload Application %s Failed, RC = 0x%08X"
 2220      6164 2041 
 2220      7070 6C69 
 2220      6361 7469 
 2220      6F6E 2025 
 2221               	.LC34:
 2222 05c2 5265 6C6F 	.string"Reload Application %s, GetAppIDByName failed. RC = 0x%08X."
 2222      6164 2041 
68K GAS   			page 69


 2222      7070 6C69 
 2222      6361 7469 
 2222      6F6E 2025 
 2223               	.text
 2224               	.align2
 2225               	.globlCFE_ES_ReloadAppCmd
 2226               	.typeCFE_ES_ReloadAppCmd, @function
 2227               	CFE_ES_ReloadAppCmd:
 2228               	.LFB70:
1133:/home/simulink/cFS_FreeRTOS_seL4/cfe/fsw/cfe-core/src/es/cfe_es_task.c **** 
1134:/home/simulink/cFS_FreeRTOS_seL4/cfe/fsw/cfe-core/src/es/cfe_es_task.c **** /* * * * * * * * * * * * * * * * * * * * * * * * * * * * * * * * * */
1135:/home/simulink/cFS_FreeRTOS_seL4/cfe/fsw/cfe-core/src/es/cfe_es_task.c **** /*                                                                 */
1136:/home/simulink/cFS_FreeRTOS_seL4/cfe/fsw/cfe-core/src/es/cfe_es_task.c **** /* CFE_ES_ReloadAppCmd() -- Reload a single application            */
1137:/home/simulink/cFS_FreeRTOS_seL4/cfe/fsw/cfe-core/src/es/cfe_es_task.c **** /*                                                                 */
1138:/home/simulink/cFS_FreeRTOS_seL4/cfe/fsw/cfe-core/src/es/cfe_es_task.c **** /* * * * * * * * * * * * * * * * * * * * * * * * * * * * * * * * * */
1139:/home/simulink/cFS_FreeRTOS_seL4/cfe/fsw/cfe-core/src/es/cfe_es_task.c **** 
1140:/home/simulink/cFS_FreeRTOS_seL4/cfe/fsw/cfe-core/src/es/cfe_es_task.c **** void CFE_ES_ReloadAppCmd(CFE_SB_MsgPtr_t Msg)
1141:/home/simulink/cFS_FreeRTOS_seL4/cfe/fsw/cfe-core/src/es/cfe_es_task.c **** {
 2229               	.loc 1 1141 0
 2230               	.cfi_startproc
 2231 11b4 4FEF FF9C 	lea (-100,%sp),%sp
 2232               	.cfi_def_cfa_offset 104
1142:/home/simulink/cFS_FreeRTOS_seL4/cfe/fsw/cfe-core/src/es/cfe_es_task.c ****     CFE_ES_AppReloadCmd_Payload_t *cmd = (CFE_ES_AppReloadCmd_Payload_t *)&Msg->Byte[CFE_SB_CMD_HDR
 2233               	.loc 1 1142 0
 2234 11b8 202F 0068 	move.l 104(%sp),%d0
 2235 11bc 5080      	addq.l #8,%d0
 2236 11be 2F40 0060 	move.l %d0,96(%sp)
1143:/home/simulink/cFS_FreeRTOS_seL4/cfe/fsw/cfe-core/src/es/cfe_es_task.c ****     uint16 ExpectedLength = sizeof(CFE_ES_AppReloadCmd_t);
 2237               	.loc 1 1143 0
 2238 11c2 705C      	moveq #92,%d0
 2239 11c4 3F40 005E 	move.w %d0,94(%sp)
1144:/home/simulink/cFS_FreeRTOS_seL4/cfe/fsw/cfe-core/src/es/cfe_es_task.c ****     char LocalApp[OS_MAX_API_NAME];
1145:/home/simulink/cFS_FreeRTOS_seL4/cfe/fsw/cfe-core/src/es/cfe_es_task.c ****     char LocalFileName[OS_MAX_PATH_LEN];
1146:/home/simulink/cFS_FreeRTOS_seL4/cfe/fsw/cfe-core/src/es/cfe_es_task.c **** 
1147:/home/simulink/cFS_FreeRTOS_seL4/cfe/fsw/cfe-core/src/es/cfe_es_task.c ****     /*
1148:/home/simulink/cFS_FreeRTOS_seL4/cfe/fsw/cfe-core/src/es/cfe_es_task.c ****     ** Verify command packet length.
1149:/home/simulink/cFS_FreeRTOS_seL4/cfe/fsw/cfe-core/src/es/cfe_es_task.c ****     */
1150:/home/simulink/cFS_FreeRTOS_seL4/cfe/fsw/cfe-core/src/es/cfe_es_task.c ****     if (CFE_ES_VerifyCmdLength(Msg, ExpectedLength))
 2240               	.loc 1 1150 0
 2241 11c8 4280      	clr.l %d0
 2242 11ca 302F 005E 	move.w 94(%sp),%d0
 2243 11ce 2F00      	move.l %d0,-(%sp)
 2244               	.cfi_def_cfa_offset 108
 2245 11d0 2F2F 006C 	move.l 108(%sp),-(%sp)
 2246               	.cfi_def_cfa_offset 112
 2247 11d4 4EB9 0000 	jsr CFE_ES_VerifyCmdLength
 2247      0000 
 2248 11da 508F      	addq.l #8,%sp
 2249               	.cfi_def_cfa_offset 104
 2250 11dc 4A00      	tst.b %d0
 2251 11de 6700 0136 	jeq .L108
 2252               	.LBB8:
1151:/home/simulink/cFS_FreeRTOS_seL4/cfe/fsw/cfe-core/src/es/cfe_es_task.c ****     {
1152:/home/simulink/cFS_FreeRTOS_seL4/cfe/fsw/cfe-core/src/es/cfe_es_task.c ****         uint32  AppID;
1153:/home/simulink/cFS_FreeRTOS_seL4/cfe/fsw/cfe-core/src/es/cfe_es_task.c ****         int32   Result;
1154:/home/simulink/cFS_FreeRTOS_seL4/cfe/fsw/cfe-core/src/es/cfe_es_task.c **** 
1155:/home/simulink/cFS_FreeRTOS_seL4/cfe/fsw/cfe-core/src/es/cfe_es_task.c ****         CFE_SB_MessageStringGet(LocalFileName, (char *)cmd->AppFileName, NULL, sizeof(LocalFileName
68K GAS   			page 70


 2253               	.loc 1 1155 0
 2254 11e2 202F 0060 	move.l 96(%sp),%d0
 2255 11e6 0680 0000 	add.l #20,%d0
 2255      0014 
 2256 11ec 4878 0040 	pea 64.w
 2257               	.cfi_def_cfa_offset 108
 2258 11f0 4878 0040 	pea 64.w
 2259               	.cfi_def_cfa_offset 112
 2260 11f4 42A7      	clr.l -(%sp)
 2261               	.cfi_def_cfa_offset 116
 2262 11f6 2F00      	move.l %d0,-(%sp)
 2263               	.cfi_def_cfa_offset 120
 2264 11f8 200F      	move.l %sp,%d0
 2265 11fa 0680 0000 	add.l #20,%d0
 2265      0014 
 2266 1200 2F00      	move.l %d0,-(%sp)
 2267               	.cfi_def_cfa_offset 124
 2268 1202 4EB9 0000 	jsr CFE_SB_MessageStringGet
 2268      0000 
 2269 1208 4FEF 0014 	lea (20,%sp),%sp
 2270               	.cfi_def_cfa_offset 104
1156:/home/simulink/cFS_FreeRTOS_seL4/cfe/fsw/cfe-core/src/es/cfe_es_task.c ****         CFE_SB_MessageStringGet(LocalApp, (char *)cmd->Application, NULL, sizeof(LocalApp), sizeof(
 2271               	.loc 1 1156 0
 2272 120c 202F 0060 	move.l 96(%sp),%d0
 2273 1210 4878 0014 	pea 20.w
 2274               	.cfi_def_cfa_offset 108
 2275 1214 4878 0014 	pea 20.w
 2276               	.cfi_def_cfa_offset 112
 2277 1218 42A7      	clr.l -(%sp)
 2278               	.cfi_def_cfa_offset 116
 2279 121a 2F00      	move.l %d0,-(%sp)
 2280               	.cfi_def_cfa_offset 120
 2281 121c 200F      	move.l %sp,%d0
 2282 121e 0680 0000 	add.l #84,%d0
 2282      0054 
 2283 1224 2F00      	move.l %d0,-(%sp)
 2284               	.cfi_def_cfa_offset 124
 2285 1226 4EB9 0000 	jsr CFE_SB_MessageStringGet
 2285      0000 
 2286 122c 4FEF 0014 	lea (20,%sp),%sp
 2287               	.cfi_def_cfa_offset 104
1157:/home/simulink/cFS_FreeRTOS_seL4/cfe/fsw/cfe-core/src/es/cfe_es_task.c **** 
1158:/home/simulink/cFS_FreeRTOS_seL4/cfe/fsw/cfe-core/src/es/cfe_es_task.c ****         Result = CFE_ES_GetAppIDByName(&AppID, LocalApp);
 2288               	.loc 1 1158 0
 2289 1230 200F      	move.l %sp,%d0
 2290 1232 0680 0000 	add.l #68,%d0
 2290      0044 
 2291 1238 2F00      	move.l %d0,-(%sp)
 2292               	.cfi_def_cfa_offset 108
 2293 123a 200F      	move.l %sp,%d0
 2294 123c 5880      	addq.l #4,%d0
 2295 123e 2F00      	move.l %d0,-(%sp)
 2296               	.cfi_def_cfa_offset 112
 2297 1240 4EB9 0000 	jsr CFE_ES_GetAppIDByName
 2297      0000 
 2298 1246 508F      	addq.l #8,%sp
 2299               	.cfi_def_cfa_offset 104
68K GAS   			page 71


 2300 1248 2F40 0058 	move.l %d0,88(%sp)
1159:/home/simulink/cFS_FreeRTOS_seL4/cfe/fsw/cfe-core/src/es/cfe_es_task.c **** 
1160:/home/simulink/cFS_FreeRTOS_seL4/cfe/fsw/cfe-core/src/es/cfe_es_task.c ****         if (Result == CFE_SUCCESS)
 2301               	.loc 1 1160 0
 2302 124c 4AAF 0058 	tst.l 88(%sp)
 2303 1250 6600 008C 	jne .L104
1161:/home/simulink/cFS_FreeRTOS_seL4/cfe/fsw/cfe-core/src/es/cfe_es_task.c ****         {
1162:/home/simulink/cFS_FreeRTOS_seL4/cfe/fsw/cfe-core/src/es/cfe_es_task.c ****            Result = CFE_ES_ReloadApp(AppID, LocalFileName);
 2304               	.loc 1 1162 0
 2305 1254 2217      	move.l (%sp),%d1
 2306 1256 200F      	move.l %sp,%d0
 2307 1258 5880      	addq.l #4,%d0
 2308 125a 2F00      	move.l %d0,-(%sp)
 2309               	.cfi_def_cfa_offset 108
 2310 125c 2F01      	move.l %d1,-(%sp)
 2311               	.cfi_def_cfa_offset 112
 2312 125e 4EB9 0000 	jsr CFE_ES_ReloadApp
 2312      0000 
 2313 1264 508F      	addq.l #8,%sp
 2314               	.cfi_def_cfa_offset 104
 2315 1266 2F40 0058 	move.l %d0,88(%sp)
1163:/home/simulink/cFS_FreeRTOS_seL4/cfe/fsw/cfe-core/src/es/cfe_es_task.c **** 
1164:/home/simulink/cFS_FreeRTOS_seL4/cfe/fsw/cfe-core/src/es/cfe_es_task.c ****             /*
1165:/home/simulink/cFS_FreeRTOS_seL4/cfe/fsw/cfe-core/src/es/cfe_es_task.c ****             ** Send appropriate event message.
1166:/home/simulink/cFS_FreeRTOS_seL4/cfe/fsw/cfe-core/src/es/cfe_es_task.c ****             */
1167:/home/simulink/cFS_FreeRTOS_seL4/cfe/fsw/cfe-core/src/es/cfe_es_task.c ****             if (Result == CFE_SUCCESS)
 2316               	.loc 1 1167 0
 2317 126a 4AAF 0058 	tst.l 88(%sp)
 2318 126e 6634      	jne .L105
1168:/home/simulink/cFS_FreeRTOS_seL4/cfe/fsw/cfe-core/src/es/cfe_es_task.c ****             {
1169:/home/simulink/cFS_FreeRTOS_seL4/cfe/fsw/cfe-core/src/es/cfe_es_task.c ****                 CFE_ES_TaskData.CmdCounter++;
 2319               	.loc 1 1169 0
 2320 1270 1039 0000 	move.b CFE_ES_TaskData,%d0
 2320      0000 
 2321 1276 5280      	addq.l #1,%d0
 2322 1278 1000      	move.b %d0,%d0
 2323 127a 13C0 0000 	move.b %d0,CFE_ES_TaskData
 2323      0000 
1170:/home/simulink/cFS_FreeRTOS_seL4/cfe/fsw/cfe-core/src/es/cfe_es_task.c ****                 CFE_EVS_SendEvent(CFE_ES_RELOAD_APP_DBG_EID, CFE_EVS_DEBUG,
 2324               	.loc 1 1170 0
 2325 1280 200F      	move.l %sp,%d0
 2326 1282 0680 0000 	add.l #68,%d0
 2326      0044 
 2327 1288 2F00      	move.l %d0,-(%sp)
 2328               	.cfi_def_cfa_offset 108
 2329 128a 4879 0000 	pea .LC32
 2329      0000 
 2330               	.cfi_def_cfa_offset 112
 2331 1290 4878 0001 	pea 1.w
 2332               	.cfi_def_cfa_offset 116
 2333 1294 4878 000B 	pea 11.w
 2334               	.cfi_def_cfa_offset 120
 2335 1298 4EB9 0000 	jsr CFE_EVS_SendEvent
 2335      0000 
 2336 129e 4FEF 0010 	lea (16,%sp),%sp
 2337               	.cfi_def_cfa_offset 104
 2338               	.LBE8:
68K GAS   			page 72


1171:/home/simulink/cFS_FreeRTOS_seL4/cfe/fsw/cfe-core/src/es/cfe_es_task.c ****                              "Reload Application %s Initiated.", LocalApp);
1172:/home/simulink/cFS_FreeRTOS_seL4/cfe/fsw/cfe-core/src/es/cfe_es_task.c ****             }
1173:/home/simulink/cFS_FreeRTOS_seL4/cfe/fsw/cfe-core/src/es/cfe_es_task.c ****             else
1174:/home/simulink/cFS_FreeRTOS_seL4/cfe/fsw/cfe-core/src/es/cfe_es_task.c ****             {
1175:/home/simulink/cFS_FreeRTOS_seL4/cfe/fsw/cfe-core/src/es/cfe_es_task.c ****                 CFE_ES_TaskData.ErrCounter++;
1176:/home/simulink/cFS_FreeRTOS_seL4/cfe/fsw/cfe-core/src/es/cfe_es_task.c ****                 CFE_EVS_SendEvent(CFE_ES_RELOAD_APP_ERR1_EID, CFE_EVS_ERROR,
1177:/home/simulink/cFS_FreeRTOS_seL4/cfe/fsw/cfe-core/src/es/cfe_es_task.c ****                              "Reload Application %s Failed, RC = 0x%08X",
1178:/home/simulink/cFS_FreeRTOS_seL4/cfe/fsw/cfe-core/src/es/cfe_es_task.c ****                              LocalApp, (unsigned int)Result);
1179:/home/simulink/cFS_FreeRTOS_seL4/cfe/fsw/cfe-core/src/es/cfe_es_task.c ****             }
1180:/home/simulink/cFS_FreeRTOS_seL4/cfe/fsw/cfe-core/src/es/cfe_es_task.c ****         }
1181:/home/simulink/cFS_FreeRTOS_seL4/cfe/fsw/cfe-core/src/es/cfe_es_task.c ****         else
1182:/home/simulink/cFS_FreeRTOS_seL4/cfe/fsw/cfe-core/src/es/cfe_es_task.c ****         {
1183:/home/simulink/cFS_FreeRTOS_seL4/cfe/fsw/cfe-core/src/es/cfe_es_task.c ****             CFE_ES_TaskData.ErrCounter++;
1184:/home/simulink/cFS_FreeRTOS_seL4/cfe/fsw/cfe-core/src/es/cfe_es_task.c ****             CFE_EVS_SendEvent(CFE_ES_RELOAD_APP_ERR2_EID, CFE_EVS_ERROR,
1185:/home/simulink/cFS_FreeRTOS_seL4/cfe/fsw/cfe-core/src/es/cfe_es_task.c ****                               "Reload Application %s, GetAppIDByName failed. RC = 0x%08X.",
1186:/home/simulink/cFS_FreeRTOS_seL4/cfe/fsw/cfe-core/src/es/cfe_es_task.c ****                               LocalApp, (unsigned int)Result);
1187:/home/simulink/cFS_FreeRTOS_seL4/cfe/fsw/cfe-core/src/es/cfe_es_task.c ****         }
1188:/home/simulink/cFS_FreeRTOS_seL4/cfe/fsw/cfe-core/src/es/cfe_es_task.c ****     }
1189:/home/simulink/cFS_FreeRTOS_seL4/cfe/fsw/cfe-core/src/es/cfe_es_task.c **** 
1190:/home/simulink/cFS_FreeRTOS_seL4/cfe/fsw/cfe-core/src/es/cfe_es_task.c **** } /* End of CFE_ES_ReloadAppCmd() */
 2339               	.loc 1 1190 0
 2340 12a2 6072      	jra .L108
 2341               	.L105:
 2342               	.LBB9:
1175:/home/simulink/cFS_FreeRTOS_seL4/cfe/fsw/cfe-core/src/es/cfe_es_task.c ****                 CFE_EVS_SendEvent(CFE_ES_RELOAD_APP_ERR1_EID, CFE_EVS_ERROR,
 2343               	.loc 1 1175 0
 2344 12a4 1039 0000 	move.b CFE_ES_TaskData+1,%d0
 2344      0000 
 2345 12aa 5280      	addq.l #1,%d0
 2346 12ac 1000      	move.b %d0,%d0
 2347 12ae 13C0 0000 	move.b %d0,CFE_ES_TaskData+1
 2347      0000 
1176:/home/simulink/cFS_FreeRTOS_seL4/cfe/fsw/cfe-core/src/es/cfe_es_task.c ****                              "Reload Application %s Failed, RC = 0x%08X",
 2348               	.loc 1 1176 0
 2349 12b4 202F 0058 	move.l 88(%sp),%d0
 2350 12b8 2F00      	move.l %d0,-(%sp)
 2351               	.cfi_def_cfa_offset 108
 2352 12ba 200F      	move.l %sp,%d0
 2353 12bc 0680 0000 	add.l #72,%d0
 2353      0048 
 2354 12c2 2F00      	move.l %d0,-(%sp)
 2355               	.cfi_def_cfa_offset 112
 2356 12c4 4879 0000 	pea .LC33
 2356      0000 
 2357               	.cfi_def_cfa_offset 116
 2358 12ca 4878 0003 	pea 3.w
 2359               	.cfi_def_cfa_offset 120
 2360 12ce 4878 002A 	pea 42.w
 2361               	.cfi_def_cfa_offset 124
 2362 12d2 4EB9 0000 	jsr CFE_EVS_SendEvent
 2362      0000 
 2363 12d8 4FEF 0014 	lea (20,%sp),%sp
 2364               	.cfi_def_cfa_offset 104
 2365               	.LBE9:
 2366               	.loc 1 1190 0
 2367 12dc 6038      	jra .L108
 2368               	.L104:
68K GAS   			page 73


 2369               	.LBB10:
1183:/home/simulink/cFS_FreeRTOS_seL4/cfe/fsw/cfe-core/src/es/cfe_es_task.c ****             CFE_EVS_SendEvent(CFE_ES_RELOAD_APP_ERR2_EID, CFE_EVS_ERROR,
 2370               	.loc 1 1183 0
 2371 12de 1039 0000 	move.b CFE_ES_TaskData+1,%d0
 2371      0000 
 2372 12e4 5280      	addq.l #1,%d0
 2373 12e6 1000      	move.b %d0,%d0
 2374 12e8 13C0 0000 	move.b %d0,CFE_ES_TaskData+1
 2374      0000 
1184:/home/simulink/cFS_FreeRTOS_seL4/cfe/fsw/cfe-core/src/es/cfe_es_task.c ****                               "Reload Application %s, GetAppIDByName failed. RC = 0x%08X.",
 2375               	.loc 1 1184 0
 2376 12ee 202F 0058 	move.l 88(%sp),%d0
 2377 12f2 2F00      	move.l %d0,-(%sp)
 2378               	.cfi_def_cfa_offset 108
 2379 12f4 200F      	move.l %sp,%d0
 2380 12f6 0680 0000 	add.l #72,%d0
 2380      0048 
 2381 12fc 2F00      	move.l %d0,-(%sp)
 2382               	.cfi_def_cfa_offset 112
 2383 12fe 4879 0000 	pea .LC34
 2383      0000 
 2384               	.cfi_def_cfa_offset 116
 2385 1304 4878 0003 	pea 3.w
 2386               	.cfi_def_cfa_offset 120
 2387 1308 4878 002B 	pea 43.w
 2388               	.cfi_def_cfa_offset 124
 2389 130c 4EB9 0000 	jsr CFE_EVS_SendEvent
 2389      0000 
 2390 1312 4FEF 0014 	lea (20,%sp),%sp
 2391               	.cfi_def_cfa_offset 104
 2392               	.L108:
 2393               	.LBE10:
 2394               	.loc 1 1190 0
 2395 1316 4E71      	nop
 2396 1318 4FEF 0064 	lea (100,%sp),%sp
 2397 131c 4E75      	rts
 2398               	.cfi_endproc
 2399               	.LFE70:
 2400               	.sizeCFE_ES_ReloadAppCmd, .-CFE_ES_ReloadAppCmd
 2401               	.section.rodata
 2402               	.LC35:
 2403 05fd 5365 6E74 	.string"Sent %s application data"
 2403      2025 7320 
 2403      6170 706C 
 2403      6963 6174 
 2403      696F 6E20 
 2404               	.LC36:
 2405 0616 4661 696C 	.string"Failed to send %s application data, RC = 0x%08X"
 2405      6564 2074 
 2405      6F20 7365 
 2405      6E64 2025 
 2405      7320 6170 
 2406               	.LC37:
 2407 0646 4661 696C 	.string"Failed to send %s application data: GetAppIDByName Failed, RC = 0x%08X"
 2407      6564 2074 
 2407      6F20 7365 
 2407      6E64 2025 
68K GAS   			page 74


 2407      7320 6170 
 2408               	.text
 2409               	.align2
 2410               	.globlCFE_ES_QueryOneCmd
 2411               	.typeCFE_ES_QueryOneCmd, @function
 2412               	CFE_ES_QueryOneCmd:
 2413               	.LFB71:
1191:/home/simulink/cFS_FreeRTOS_seL4/cfe/fsw/cfe-core/src/es/cfe_es_task.c **** 
1192:/home/simulink/cFS_FreeRTOS_seL4/cfe/fsw/cfe-core/src/es/cfe_es_task.c **** 
1193:/home/simulink/cFS_FreeRTOS_seL4/cfe/fsw/cfe-core/src/es/cfe_es_task.c **** /* * * * * * * * * * * * * * * * * * * * * * * * * * * * * * * * * */
1194:/home/simulink/cFS_FreeRTOS_seL4/cfe/fsw/cfe-core/src/es/cfe_es_task.c **** /*                                                                 */
1195:/home/simulink/cFS_FreeRTOS_seL4/cfe/fsw/cfe-core/src/es/cfe_es_task.c **** /* CFE_ES_QueryOneCmd() -- Request tlm packet with single app data */
1196:/home/simulink/cFS_FreeRTOS_seL4/cfe/fsw/cfe-core/src/es/cfe_es_task.c **** /*                                                                 */
1197:/home/simulink/cFS_FreeRTOS_seL4/cfe/fsw/cfe-core/src/es/cfe_es_task.c **** /* * * * * * * * * * * * * * * * * * * * * * * * * * * * * * * * * */
1198:/home/simulink/cFS_FreeRTOS_seL4/cfe/fsw/cfe-core/src/es/cfe_es_task.c **** 
1199:/home/simulink/cFS_FreeRTOS_seL4/cfe/fsw/cfe-core/src/es/cfe_es_task.c **** void CFE_ES_QueryOneCmd(CFE_SB_MsgPtr_t Msg)
1200:/home/simulink/cFS_FreeRTOS_seL4/cfe/fsw/cfe-core/src/es/cfe_es_task.c **** {
 2414               	.loc 1 1200 0
 2415               	.cfi_startproc
 2416 131e 4FEF FFDC 	lea (-36,%sp),%sp
 2417               	.cfi_def_cfa_offset 40
1201:/home/simulink/cFS_FreeRTOS_seL4/cfe/fsw/cfe-core/src/es/cfe_es_task.c ****     CFE_ES_AppNameCmd_Payload_t *cmd = (CFE_ES_AppNameCmd_Payload_t *)&Msg->Byte[CFE_SB_CMD_HDR_SIZ
 2418               	.loc 1 1201 0
 2419 1322 202F 0028 	move.l 40(%sp),%d0
 2420 1326 5080      	addq.l #8,%d0
 2421 1328 2F40 0020 	move.l %d0,32(%sp)
1202:/home/simulink/cFS_FreeRTOS_seL4/cfe/fsw/cfe-core/src/es/cfe_es_task.c ****     uint16 ExpectedLength = sizeof(CFE_ES_AppNameCmd_t);
 2422               	.loc 1 1202 0
 2423 132c 701C      	moveq #28,%d0
 2424 132e 3F40 001E 	move.w %d0,30(%sp)
1203:/home/simulink/cFS_FreeRTOS_seL4/cfe/fsw/cfe-core/src/es/cfe_es_task.c ****     char LocalApp[OS_MAX_API_NAME];
1204:/home/simulink/cFS_FreeRTOS_seL4/cfe/fsw/cfe-core/src/es/cfe_es_task.c **** 
1205:/home/simulink/cFS_FreeRTOS_seL4/cfe/fsw/cfe-core/src/es/cfe_es_task.c ****     /*
1206:/home/simulink/cFS_FreeRTOS_seL4/cfe/fsw/cfe-core/src/es/cfe_es_task.c ****     ** Verify command packet length
1207:/home/simulink/cFS_FreeRTOS_seL4/cfe/fsw/cfe-core/src/es/cfe_es_task.c ****     */
1208:/home/simulink/cFS_FreeRTOS_seL4/cfe/fsw/cfe-core/src/es/cfe_es_task.c ****     if (CFE_ES_VerifyCmdLength(Msg, ExpectedLength))
 2425               	.loc 1 1208 0
 2426 1332 4280      	clr.l %d0
 2427 1334 302F 001E 	move.w 30(%sp),%d0
 2428 1338 2F00      	move.l %d0,-(%sp)
 2429               	.cfi_def_cfa_offset 44
 2430 133a 2F2F 002C 	move.l 44(%sp),-(%sp)
 2431               	.cfi_def_cfa_offset 48
 2432 133e 4EB9 0000 	jsr CFE_ES_VerifyCmdLength
 2432      0000 
 2433 1344 508F      	addq.l #8,%sp
 2434               	.cfi_def_cfa_offset 40
 2435 1346 4A00      	tst.b %d0
 2436 1348 6700 0118 	jeq .L115
 2437               	.LBB11:
1209:/home/simulink/cFS_FreeRTOS_seL4/cfe/fsw/cfe-core/src/es/cfe_es_task.c ****     {
1210:/home/simulink/cFS_FreeRTOS_seL4/cfe/fsw/cfe-core/src/es/cfe_es_task.c ****         uint32 AppID;
1211:/home/simulink/cFS_FreeRTOS_seL4/cfe/fsw/cfe-core/src/es/cfe_es_task.c ****         int32 Result;
1212:/home/simulink/cFS_FreeRTOS_seL4/cfe/fsw/cfe-core/src/es/cfe_es_task.c **** 
1213:/home/simulink/cFS_FreeRTOS_seL4/cfe/fsw/cfe-core/src/es/cfe_es_task.c ****         CFE_SB_MessageStringGet(LocalApp, (char *)cmd->Application, NULL, OS_MAX_API_NAME, sizeof(c
 2438               	.loc 1 1213 0
 2439 134c 202F 0020 	move.l 32(%sp),%d0
68K GAS   			page 75


 2440 1350 4878 0014 	pea 20.w
 2441               	.cfi_def_cfa_offset 44
 2442 1354 4878 0014 	pea 20.w
 2443               	.cfi_def_cfa_offset 48
 2444 1358 42A7      	clr.l -(%sp)
 2445               	.cfi_def_cfa_offset 52
 2446 135a 2F00      	move.l %d0,-(%sp)
 2447               	.cfi_def_cfa_offset 56
 2448 135c 200F      	move.l %sp,%d0
 2449 135e 0680 0000 	add.l #20,%d0
 2449      0014 
 2450 1364 2F00      	move.l %d0,-(%sp)
 2451               	.cfi_def_cfa_offset 60
 2452 1366 4EB9 0000 	jsr CFE_SB_MessageStringGet
 2452      0000 
 2453 136c 4FEF 0014 	lea (20,%sp),%sp
 2454               	.cfi_def_cfa_offset 40
1214:/home/simulink/cFS_FreeRTOS_seL4/cfe/fsw/cfe-core/src/es/cfe_es_task.c **** 
1215:/home/simulink/cFS_FreeRTOS_seL4/cfe/fsw/cfe-core/src/es/cfe_es_task.c ****         Result = CFE_ES_GetAppIDByName(&AppID, LocalApp);
 2455               	.loc 1 1215 0
 2456 1370 200F      	move.l %sp,%d0
 2457 1372 5880      	addq.l #4,%d0
 2458 1374 2F00      	move.l %d0,-(%sp)
 2459               	.cfi_def_cfa_offset 44
 2460 1376 200F      	move.l %sp,%d0
 2461 1378 5880      	addq.l #4,%d0
 2462 137a 2F00      	move.l %d0,-(%sp)
 2463               	.cfi_def_cfa_offset 48
 2464 137c 4EB9 0000 	jsr CFE_ES_GetAppIDByName
 2464      0000 
 2465 1382 508F      	addq.l #8,%sp
 2466               	.cfi_def_cfa_offset 40
 2467 1384 2F40 0018 	move.l %d0,24(%sp)
1216:/home/simulink/cFS_FreeRTOS_seL4/cfe/fsw/cfe-core/src/es/cfe_es_task.c **** 
1217:/home/simulink/cFS_FreeRTOS_seL4/cfe/fsw/cfe-core/src/es/cfe_es_task.c ****         /*
1218:/home/simulink/cFS_FreeRTOS_seL4/cfe/fsw/cfe-core/src/es/cfe_es_task.c ****         ** Send appropriate event message...
1219:/home/simulink/cFS_FreeRTOS_seL4/cfe/fsw/cfe-core/src/es/cfe_es_task.c ****         */
1220:/home/simulink/cFS_FreeRTOS_seL4/cfe/fsw/cfe-core/src/es/cfe_es_task.c ****         if (Result == CFE_SUCCESS)
 2468               	.loc 1 1220 0
 2469 1388 4AAF 0018 	tst.l 24(%sp)
 2470 138c 6600 00A0 	jne .L111
1221:/home/simulink/cFS_FreeRTOS_seL4/cfe/fsw/cfe-core/src/es/cfe_es_task.c ****         {
1222:/home/simulink/cFS_FreeRTOS_seL4/cfe/fsw/cfe-core/src/es/cfe_es_task.c ****         
1223:/home/simulink/cFS_FreeRTOS_seL4/cfe/fsw/cfe-core/src/es/cfe_es_task.c ****            CFE_ES_GetAppInfoInternal(AppID, &(CFE_ES_TaskData.OneAppPacket.Payload.AppInfo));
 2471               	.loc 1 1223 0
 2472 1390 2017      	move.l (%sp),%d0
 2473 1392 4879 0000 	pea CFE_ES_TaskData+248
 2473      0000 
 2474               	.cfi_def_cfa_offset 44
 2475 1398 2F00      	move.l %d0,-(%sp)
 2476               	.cfi_def_cfa_offset 48
 2477 139a 4EB9 0000 	jsr CFE_ES_GetAppInfoInternal
 2477      0000 
 2478 13a0 508F      	addq.l #8,%sp
 2479               	.cfi_def_cfa_offset 40
1224:/home/simulink/cFS_FreeRTOS_seL4/cfe/fsw/cfe-core/src/es/cfe_es_task.c ****            /*
1225:/home/simulink/cFS_FreeRTOS_seL4/cfe/fsw/cfe-core/src/es/cfe_es_task.c ****            ** Send application status telemetry packet.
68K GAS   			page 76


1226:/home/simulink/cFS_FreeRTOS_seL4/cfe/fsw/cfe-core/src/es/cfe_es_task.c ****            */
1227:/home/simulink/cFS_FreeRTOS_seL4/cfe/fsw/cfe-core/src/es/cfe_es_task.c ****            CFE_SB_TimeStampMsg((CFE_SB_Msg_t *) &CFE_ES_TaskData.OneAppPacket);
 2480               	.loc 1 1227 0
 2481 13a2 4879 0000 	pea CFE_ES_TaskData+236
 2481      0000 
 2482               	.cfi_def_cfa_offset 44
 2483 13a8 4EB9 0000 	jsr CFE_SB_TimeStampMsg
 2483      0000 
 2484 13ae 588F      	addq.l #4,%sp
 2485               	.cfi_def_cfa_offset 40
1228:/home/simulink/cFS_FreeRTOS_seL4/cfe/fsw/cfe-core/src/es/cfe_es_task.c ****            Result = CFE_SB_SendMsg((CFE_SB_Msg_t *) &CFE_ES_TaskData.OneAppPacket);
 2486               	.loc 1 1228 0
 2487 13b0 4879 0000 	pea CFE_ES_TaskData+236
 2487      0000 
 2488               	.cfi_def_cfa_offset 44
 2489 13b6 4EB9 0000 	jsr CFE_SB_SendMsg
 2489      0000 
 2490 13bc 588F      	addq.l #4,%sp
 2491               	.cfi_def_cfa_offset 40
 2492 13be 2F40 0018 	move.l %d0,24(%sp)
1229:/home/simulink/cFS_FreeRTOS_seL4/cfe/fsw/cfe-core/src/es/cfe_es_task.c ****            if ( Result == CFE_SUCCESS )
 2493               	.loc 1 1229 0
 2494 13c2 4AAF 0018 	tst.l 24(%sp)
 2495 13c6 6630      	jne .L112
1230:/home/simulink/cFS_FreeRTOS_seL4/cfe/fsw/cfe-core/src/es/cfe_es_task.c ****            {
1231:/home/simulink/cFS_FreeRTOS_seL4/cfe/fsw/cfe-core/src/es/cfe_es_task.c ****                CFE_ES_TaskData.CmdCounter++;
 2496               	.loc 1 1231 0
 2497 13c8 1039 0000 	move.b CFE_ES_TaskData,%d0
 2497      0000 
 2498 13ce 5280      	addq.l #1,%d0
 2499 13d0 1000      	move.b %d0,%d0
 2500 13d2 13C0 0000 	move.b %d0,CFE_ES_TaskData
 2500      0000 
1232:/home/simulink/cFS_FreeRTOS_seL4/cfe/fsw/cfe-core/src/es/cfe_es_task.c ****                CFE_EVS_SendEvent(CFE_ES_ONE_APP_EID, CFE_EVS_DEBUG,
 2501               	.loc 1 1232 0
 2502 13d8 200F      	move.l %sp,%d0
 2503 13da 5880      	addq.l #4,%d0
 2504 13dc 2F00      	move.l %d0,-(%sp)
 2505               	.cfi_def_cfa_offset 44
 2506 13de 4879 0000 	pea .LC35
 2506      0000 
 2507               	.cfi_def_cfa_offset 48
 2508 13e4 4878 0001 	pea 1.w
 2509               	.cfi_def_cfa_offset 52
 2510 13e8 4878 000F 	pea 15.w
 2511               	.cfi_def_cfa_offset 56
 2512 13ec 4EB9 0000 	jsr CFE_EVS_SendEvent
 2512      0000 
 2513 13f2 4FEF 0010 	lea (16,%sp),%sp
 2514               	.cfi_def_cfa_offset 40
 2515               	.LBE11:
1233:/home/simulink/cFS_FreeRTOS_seL4/cfe/fsw/cfe-core/src/es/cfe_es_task.c ****                        "Sent %s application data", LocalApp);
1234:/home/simulink/cFS_FreeRTOS_seL4/cfe/fsw/cfe-core/src/es/cfe_es_task.c ****            }
1235:/home/simulink/cFS_FreeRTOS_seL4/cfe/fsw/cfe-core/src/es/cfe_es_task.c ****            else
1236:/home/simulink/cFS_FreeRTOS_seL4/cfe/fsw/cfe-core/src/es/cfe_es_task.c ****            {
1237:/home/simulink/cFS_FreeRTOS_seL4/cfe/fsw/cfe-core/src/es/cfe_es_task.c ****                CFE_ES_TaskData.ErrCounter++;
1238:/home/simulink/cFS_FreeRTOS_seL4/cfe/fsw/cfe-core/src/es/cfe_es_task.c ****                CFE_EVS_SendEvent(CFE_ES_ONE_ERR_EID, CFE_EVS_ERROR,
68K GAS   			page 77


1239:/home/simulink/cFS_FreeRTOS_seL4/cfe/fsw/cfe-core/src/es/cfe_es_task.c ****                           "Failed to send %s application data, RC = 0x%08X",
1240:/home/simulink/cFS_FreeRTOS_seL4/cfe/fsw/cfe-core/src/es/cfe_es_task.c ****                           LocalApp, (unsigned int)Result);
1241:/home/simulink/cFS_FreeRTOS_seL4/cfe/fsw/cfe-core/src/es/cfe_es_task.c ****            }
1242:/home/simulink/cFS_FreeRTOS_seL4/cfe/fsw/cfe-core/src/es/cfe_es_task.c ****         }
1243:/home/simulink/cFS_FreeRTOS_seL4/cfe/fsw/cfe-core/src/es/cfe_es_task.c ****         else
1244:/home/simulink/cFS_FreeRTOS_seL4/cfe/fsw/cfe-core/src/es/cfe_es_task.c ****         {
1245:/home/simulink/cFS_FreeRTOS_seL4/cfe/fsw/cfe-core/src/es/cfe_es_task.c ****             CFE_ES_TaskData.ErrCounter++;
1246:/home/simulink/cFS_FreeRTOS_seL4/cfe/fsw/cfe-core/src/es/cfe_es_task.c ****             CFE_EVS_SendEvent(CFE_ES_ONE_APPID_ERR_EID, CFE_EVS_ERROR,
1247:/home/simulink/cFS_FreeRTOS_seL4/cfe/fsw/cfe-core/src/es/cfe_es_task.c ****                        "Failed to send %s application data: GetAppIDByName Failed, RC = 0x%08X",
1248:/home/simulink/cFS_FreeRTOS_seL4/cfe/fsw/cfe-core/src/es/cfe_es_task.c ****                        LocalApp, (unsigned int)Result);
1249:/home/simulink/cFS_FreeRTOS_seL4/cfe/fsw/cfe-core/src/es/cfe_es_task.c ****         }
1250:/home/simulink/cFS_FreeRTOS_seL4/cfe/fsw/cfe-core/src/es/cfe_es_task.c ****     }
1251:/home/simulink/cFS_FreeRTOS_seL4/cfe/fsw/cfe-core/src/es/cfe_es_task.c **** 
1252:/home/simulink/cFS_FreeRTOS_seL4/cfe/fsw/cfe-core/src/es/cfe_es_task.c **** } /* End of CFE_ES_QueryOneCmd() */
 2516               	.loc 1 1252 0
 2517 13f6 606A      	jra .L115
 2518               	.L112:
 2519               	.LBB12:
1237:/home/simulink/cFS_FreeRTOS_seL4/cfe/fsw/cfe-core/src/es/cfe_es_task.c ****                CFE_EVS_SendEvent(CFE_ES_ONE_ERR_EID, CFE_EVS_ERROR,
 2520               	.loc 1 1237 0
 2521 13f8 1039 0000 	move.b CFE_ES_TaskData+1,%d0
 2521      0000 
 2522 13fe 5280      	addq.l #1,%d0
 2523 1400 1000      	move.b %d0,%d0
 2524 1402 13C0 0000 	move.b %d0,CFE_ES_TaskData+1
 2524      0000 
1238:/home/simulink/cFS_FreeRTOS_seL4/cfe/fsw/cfe-core/src/es/cfe_es_task.c ****                           "Failed to send %s application data, RC = 0x%08X",
 2525               	.loc 1 1238 0
 2526 1408 202F 0018 	move.l 24(%sp),%d0
 2527 140c 2F00      	move.l %d0,-(%sp)
 2528               	.cfi_def_cfa_offset 44
 2529 140e 200F      	move.l %sp,%d0
 2530 1410 5080      	addq.l #8,%d0
 2531 1412 2F00      	move.l %d0,-(%sp)
 2532               	.cfi_def_cfa_offset 48
 2533 1414 4879 0000 	pea .LC36
 2533      0000 
 2534               	.cfi_def_cfa_offset 52
 2535 141a 4878 0003 	pea 3.w
 2536               	.cfi_def_cfa_offset 56
 2537 141e 4878 0031 	pea 49.w
 2538               	.cfi_def_cfa_offset 60
 2539 1422 4EB9 0000 	jsr CFE_EVS_SendEvent
 2539      0000 
 2540 1428 4FEF 0014 	lea (20,%sp),%sp
 2541               	.cfi_def_cfa_offset 40
 2542               	.LBE12:
 2543               	.loc 1 1252 0
 2544 142c 6034      	jra .L115
 2545               	.L111:
 2546               	.LBB13:
1245:/home/simulink/cFS_FreeRTOS_seL4/cfe/fsw/cfe-core/src/es/cfe_es_task.c ****             CFE_EVS_SendEvent(CFE_ES_ONE_APPID_ERR_EID, CFE_EVS_ERROR,
 2547               	.loc 1 1245 0
 2548 142e 1039 0000 	move.b CFE_ES_TaskData+1,%d0
 2548      0000 
 2549 1434 5280      	addq.l #1,%d0
 2550 1436 1000      	move.b %d0,%d0
68K GAS   			page 78


 2551 1438 13C0 0000 	move.b %d0,CFE_ES_TaskData+1
 2551      0000 
1246:/home/simulink/cFS_FreeRTOS_seL4/cfe/fsw/cfe-core/src/es/cfe_es_task.c ****                        "Failed to send %s application data: GetAppIDByName Failed, RC = 0x%08X",
 2552               	.loc 1 1246 0
 2553 143e 202F 0018 	move.l 24(%sp),%d0
 2554 1442 2F00      	move.l %d0,-(%sp)
 2555               	.cfi_def_cfa_offset 44
 2556 1444 200F      	move.l %sp,%d0
 2557 1446 5080      	addq.l #8,%d0
 2558 1448 2F00      	move.l %d0,-(%sp)
 2559               	.cfi_def_cfa_offset 48
 2560 144a 4879 0000 	pea .LC37
 2560      0000 
 2561               	.cfi_def_cfa_offset 52
 2562 1450 4878 0003 	pea 3.w
 2563               	.cfi_def_cfa_offset 56
 2564 1454 4878 0032 	pea 50.w
 2565               	.cfi_def_cfa_offset 60
 2566 1458 4EB9 0000 	jsr CFE_EVS_SendEvent
 2566      0000 
 2567 145e 4FEF 0014 	lea (20,%sp),%sp
 2568               	.cfi_def_cfa_offset 40
 2569               	.L115:
 2570               	.LBE13:
 2571               	.loc 1 1252 0
 2572 1462 4E71      	nop
 2573 1464 4FEF 0024 	lea (36,%sp),%sp
 2574 1468 4E75      	rts
 2575               	.cfi_endproc
 2576               	.LFE71:
 2577               	.sizeCFE_ES_QueryOneCmd, .-CFE_ES_QueryOneCmd
 2578               	.section.rodata
 2579               	.LC38:
 2580 068d 2F72 616D 	.string"/ram/cfe_es_app_info.log"
 2580      2F63 6665 
 2580      5F65 735F 
 2580      6170 705F 
 2580      696E 666F 
 2581               	.LC39:
 2582 06a6 4553 2041 	.string"ES Application Info file"
 2582      7070 6C69 
 2582      6361 7469 
 2582      6F6E 2049 
 2582      6E66 6F20 
 2583               	.LC40:
 2584 06bf 4661 696C 	.string"Failed to write App Info file, WriteHdr RC = 0x%08X, exp %d"
 2584      6564 2074 
 2584      6F20 7772 
 2584      6974 6520 
 2584      4170 7020 
 2585               	.LC41:
 2586 06fb 4661 696C 	.string"Failed to write App Info file, Task write RC = 0x%08X, exp %d"
 2586      6564 2074 
 2586      6F20 7772 
 2586      6974 6520 
 2586      4170 7020 
 2587               	.LC42:
68K GAS   			page 79


 2588 0739 4170 7020 	.string"App Info file written to %s, Entries=%d, FileSize=%d"
 2588      496E 666F 
 2588      2066 696C 
 2588      6520 7772 
 2588      6974 7465 
 2589               	.LC43:
 2590 076e 4661 696C 	.string"Failed to write App Info file, OS_creat RC = 0x%08X"
 2590      6564 2074 
 2590      6F20 7772 
 2590      6974 6520 
 2590      4170 7020 
 2591               	.text
 2592               	.align2
 2593               	.globlCFE_ES_QueryAllCmd
 2594               	.typeCFE_ES_QueryAllCmd, @function
 2595               	CFE_ES_QueryAllCmd:
 2596               	.LFB72:
1253:/home/simulink/cFS_FreeRTOS_seL4/cfe/fsw/cfe-core/src/es/cfe_es_task.c **** 
1254:/home/simulink/cFS_FreeRTOS_seL4/cfe/fsw/cfe-core/src/es/cfe_es_task.c **** /* * * * * * * * * * * * * * * * * * * * * * * * * * * * * * * * * */
1255:/home/simulink/cFS_FreeRTOS_seL4/cfe/fsw/cfe-core/src/es/cfe_es_task.c **** /*                                                                 */
1256:/home/simulink/cFS_FreeRTOS_seL4/cfe/fsw/cfe-core/src/es/cfe_es_task.c **** /* CFE_ES_QueryAllCmd() -- Write all app data to file              */
1257:/home/simulink/cFS_FreeRTOS_seL4/cfe/fsw/cfe-core/src/es/cfe_es_task.c **** /*                                                                 */
1258:/home/simulink/cFS_FreeRTOS_seL4/cfe/fsw/cfe-core/src/es/cfe_es_task.c **** /* * * * * * * * * * * * * * * * * * * * * * * * * * * * * * * * * */
1259:/home/simulink/cFS_FreeRTOS_seL4/cfe/fsw/cfe-core/src/es/cfe_es_task.c **** 
1260:/home/simulink/cFS_FreeRTOS_seL4/cfe/fsw/cfe-core/src/es/cfe_es_task.c **** void CFE_ES_QueryAllCmd(CFE_SB_MsgPtr_t Msg)
1261:/home/simulink/cFS_FreeRTOS_seL4/cfe/fsw/cfe-core/src/es/cfe_es_task.c **** {
 2597               	.loc 1 1261 0
 2598               	.cfi_startproc
 2599 146a 4FEF FEA8 	lea (-344,%sp),%sp
 2600               	.cfi_def_cfa_offset 348
1262:/home/simulink/cFS_FreeRTOS_seL4/cfe/fsw/cfe-core/src/es/cfe_es_task.c **** 
1263:/home/simulink/cFS_FreeRTOS_seL4/cfe/fsw/cfe-core/src/es/cfe_es_task.c ****     uint16                ExpectedLength = sizeof(CFE_ES_QueryAllCmd_t);
 2601               	.loc 1 1263 0
 2602 146e 7048      	moveq #72,%d0
 2603 1470 3F40 014A 	move.w %d0,330(%sp)
1264:/home/simulink/cFS_FreeRTOS_seL4/cfe/fsw/cfe-core/src/es/cfe_es_task.c ****     CFE_FS_Header_t       FileHeader;
1265:/home/simulink/cFS_FreeRTOS_seL4/cfe/fsw/cfe-core/src/es/cfe_es_task.c ****     int32                 FileDescriptor;
1266:/home/simulink/cFS_FreeRTOS_seL4/cfe/fsw/cfe-core/src/es/cfe_es_task.c ****     uint32                i;
1267:/home/simulink/cFS_FreeRTOS_seL4/cfe/fsw/cfe-core/src/es/cfe_es_task.c ****     uint32                EntryCount = 0;
 2604               	.loc 1 1267 0
 2605 1474 42AF 0150 	clr.l 336(%sp)
1268:/home/simulink/cFS_FreeRTOS_seL4/cfe/fsw/cfe-core/src/es/cfe_es_task.c ****     uint32                FileSize = 0;
 2606               	.loc 1 1268 0
 2607 1478 42AF 014C 	clr.l 332(%sp)
1269:/home/simulink/cFS_FreeRTOS_seL4/cfe/fsw/cfe-core/src/es/cfe_es_task.c ****     int32                 Result;
1270:/home/simulink/cFS_FreeRTOS_seL4/cfe/fsw/cfe-core/src/es/cfe_es_task.c ****     CFE_ES_AppInfo_t      AppInfo;
1271:/home/simulink/cFS_FreeRTOS_seL4/cfe/fsw/cfe-core/src/es/cfe_es_task.c ****     CFE_ES_QueryAllCmd_Payload_t *CmdPtr = (CFE_ES_QueryAllCmd_Payload_t *)&Msg->Byte[CFE_SB_CMD_HD
 2608               	.loc 1 1271 0
 2609 147c 222F 015C 	move.l 348(%sp),%d1
 2610 1480 5081      	addq.l #8,%d1
 2611 1482 2F41 0144 	move.l %d1,324(%sp)
1272:/home/simulink/cFS_FreeRTOS_seL4/cfe/fsw/cfe-core/src/es/cfe_es_task.c ****     char                  QueryAllFilename[OS_MAX_PATH_LEN];
1273:/home/simulink/cFS_FreeRTOS_seL4/cfe/fsw/cfe-core/src/es/cfe_es_task.c **** 
1274:/home/simulink/cFS_FreeRTOS_seL4/cfe/fsw/cfe-core/src/es/cfe_es_task.c ****     /*
1275:/home/simulink/cFS_FreeRTOS_seL4/cfe/fsw/cfe-core/src/es/cfe_es_task.c ****     ** Verify command packet length.
1276:/home/simulink/cFS_FreeRTOS_seL4/cfe/fsw/cfe-core/src/es/cfe_es_task.c ****     */
1277:/home/simulink/cFS_FreeRTOS_seL4/cfe/fsw/cfe-core/src/es/cfe_es_task.c ****     if (CFE_ES_VerifyCmdLength(Msg, ExpectedLength))
68K GAS   			page 80


 2612               	.loc 1 1277 0
 2613 1486 4280      	clr.l %d0
 2614 1488 302F 014A 	move.w 330(%sp),%d0
 2615 148c 2F00      	move.l %d0,-(%sp)
 2616               	.cfi_def_cfa_offset 352
 2617 148e 2F2F 0160 	move.l 352(%sp),-(%sp)
 2618               	.cfi_def_cfa_offset 356
 2619 1492 4EB9 0000 	jsr CFE_ES_VerifyCmdLength
 2619      0000 
 2620 1498 508F      	addq.l #8,%sp
 2621               	.cfi_def_cfa_offset 348
 2622 149a 4A00      	tst.b %d0
 2623 149c 6700 025E 	jeq .L127
1278:/home/simulink/cFS_FreeRTOS_seL4/cfe/fsw/cfe-core/src/es/cfe_es_task.c ****     {
1279:/home/simulink/cFS_FreeRTOS_seL4/cfe/fsw/cfe-core/src/es/cfe_es_task.c ****        /* 
1280:/home/simulink/cFS_FreeRTOS_seL4/cfe/fsw/cfe-core/src/es/cfe_es_task.c ****        ** Copy the commanded filename into local buffer to ensure size limitation and to allow for 
1281:/home/simulink/cFS_FreeRTOS_seL4/cfe/fsw/cfe-core/src/es/cfe_es_task.c ****        */
1282:/home/simulink/cFS_FreeRTOS_seL4/cfe/fsw/cfe-core/src/es/cfe_es_task.c ****        CFE_SB_MessageStringGet(QueryAllFilename, (char *)CmdPtr->QueryAllFileName,
 2624               	.loc 1 1282 0
 2625 14a0 202F 0144 	move.l 324(%sp),%d0
 2626 14a4 4878 0040 	pea 64.w
 2627               	.cfi_def_cfa_offset 352
 2628 14a8 4878 0040 	pea 64.w
 2629               	.cfi_def_cfa_offset 356
 2630 14ac 4879 0000 	pea .LC38
 2630      0000 
 2631               	.cfi_def_cfa_offset 360
 2632 14b2 2F00      	move.l %d0,-(%sp)
 2633               	.cfi_def_cfa_offset 364
 2634 14b4 200F      	move.l %sp,%d0
 2635 14b6 0680 0000 	add.l #16,%d0
 2635      0010 
 2636 14bc 2F00      	move.l %d0,-(%sp)
 2637               	.cfi_def_cfa_offset 368
 2638 14be 4EB9 0000 	jsr CFE_SB_MessageStringGet
 2638      0000 
 2639 14c4 4FEF 0014 	lea (20,%sp),%sp
 2640               	.cfi_def_cfa_offset 348
1283:/home/simulink/cFS_FreeRTOS_seL4/cfe/fsw/cfe-core/src/es/cfe_es_task.c ****                 CFE_ES_DEFAULT_APP_LOG_FILE, OS_MAX_PATH_LEN, sizeof(CmdPtr->QueryAllFileName));
1284:/home/simulink/cFS_FreeRTOS_seL4/cfe/fsw/cfe-core/src/es/cfe_es_task.c **** 
1285:/home/simulink/cFS_FreeRTOS_seL4/cfe/fsw/cfe-core/src/es/cfe_es_task.c ****        /* 
1286:/home/simulink/cFS_FreeRTOS_seL4/cfe/fsw/cfe-core/src/es/cfe_es_task.c ****        ** Check to see if the file already exists 
1287:/home/simulink/cFS_FreeRTOS_seL4/cfe/fsw/cfe-core/src/es/cfe_es_task.c ****        */
1288:/home/simulink/cFS_FreeRTOS_seL4/cfe/fsw/cfe-core/src/es/cfe_es_task.c ****        FileDescriptor = OS_open(QueryAllFilename, OS_READ_ONLY, 0);
 2641               	.loc 1 1288 0
 2642 14c8 42A7      	clr.l -(%sp)
 2643               	.cfi_def_cfa_offset 352
 2644 14ca 42A7      	clr.l -(%sp)
 2645               	.cfi_def_cfa_offset 356
 2646 14cc 200F      	move.l %sp,%d0
 2647 14ce 5080      	addq.l #8,%d0
 2648 14d0 2F00      	move.l %d0,-(%sp)
 2649               	.cfi_def_cfa_offset 360
 2650 14d2 4EB9 0000 	jsr OS_open
 2650      0000 
 2651 14d8 4FEF 000C 	lea (12,%sp),%sp
 2652               	.cfi_def_cfa_offset 348
68K GAS   			page 81


 2653 14dc 2F40 0140 	move.l %d0,320(%sp)
1289:/home/simulink/cFS_FreeRTOS_seL4/cfe/fsw/cfe-core/src/es/cfe_es_task.c ****        if (FileDescriptor >= 0)
 2654               	.loc 1 1289 0
 2655 14e0 4AAF 0140 	tst.l 320(%sp)
 2656 14e4 6D18      	jlt .L118
1290:/home/simulink/cFS_FreeRTOS_seL4/cfe/fsw/cfe-core/src/es/cfe_es_task.c ****        {
1291:/home/simulink/cFS_FreeRTOS_seL4/cfe/fsw/cfe-core/src/es/cfe_es_task.c ****            OS_close(FileDescriptor);
 2657               	.loc 1 1291 0
 2658 14e6 2F2F 0140 	move.l 320(%sp),-(%sp)
 2659               	.cfi_def_cfa_offset 352
 2660 14ea 4EB9 0000 	jsr OS_close
 2660      0000 
 2661 14f0 588F      	addq.l #4,%sp
 2662               	.cfi_def_cfa_offset 348
1292:/home/simulink/cFS_FreeRTOS_seL4/cfe/fsw/cfe-core/src/es/cfe_es_task.c ****            OS_remove(QueryAllFilename);
 2663               	.loc 1 1292 0
 2664 14f2 200F      	move.l %sp,%d0
 2665 14f4 2F00      	move.l %d0,-(%sp)
 2666               	.cfi_def_cfa_offset 352
 2667 14f6 4EB9 0000 	jsr OS_remove
 2667      0000 
 2668 14fc 588F      	addq.l #4,%sp
 2669               	.cfi_def_cfa_offset 348
 2670               	.L118:
1293:/home/simulink/cFS_FreeRTOS_seL4/cfe/fsw/cfe-core/src/es/cfe_es_task.c ****        }
1294:/home/simulink/cFS_FreeRTOS_seL4/cfe/fsw/cfe-core/src/es/cfe_es_task.c **** 
1295:/home/simulink/cFS_FreeRTOS_seL4/cfe/fsw/cfe-core/src/es/cfe_es_task.c ****        /*
1296:/home/simulink/cFS_FreeRTOS_seL4/cfe/fsw/cfe-core/src/es/cfe_es_task.c ****        ** Create ES task log data file
1297:/home/simulink/cFS_FreeRTOS_seL4/cfe/fsw/cfe-core/src/es/cfe_es_task.c ****        */
1298:/home/simulink/cFS_FreeRTOS_seL4/cfe/fsw/cfe-core/src/es/cfe_es_task.c ****        FileDescriptor = OS_creat(QueryAllFilename, OS_WRITE_ONLY);
 2671               	.loc 1 1298 0
 2672 14fe 4878 0001 	pea 1.w
 2673               	.cfi_def_cfa_offset 352
 2674 1502 200F      	move.l %sp,%d0
 2675 1504 5880      	addq.l #4,%d0
 2676 1506 2F00      	move.l %d0,-(%sp)
 2677               	.cfi_def_cfa_offset 356
 2678 1508 4EB9 0000 	jsr OS_creat
 2678      0000 
 2679 150e 508F      	addq.l #8,%sp
 2680               	.cfi_def_cfa_offset 348
 2681 1510 2F40 0140 	move.l %d0,320(%sp)
1299:/home/simulink/cFS_FreeRTOS_seL4/cfe/fsw/cfe-core/src/es/cfe_es_task.c ****        if (FileDescriptor >= 0)
 2682               	.loc 1 1299 0
 2683 1514 4AAF 0140 	tst.l 320(%sp)
 2684 1518 6D00 01B2 	jlt .L119
1300:/home/simulink/cFS_FreeRTOS_seL4/cfe/fsw/cfe-core/src/es/cfe_es_task.c ****        {
1301:/home/simulink/cFS_FreeRTOS_seL4/cfe/fsw/cfe-core/src/es/cfe_es_task.c ****           /*
1302:/home/simulink/cFS_FreeRTOS_seL4/cfe/fsw/cfe-core/src/es/cfe_es_task.c ****           ** Initialize cFE file header
1303:/home/simulink/cFS_FreeRTOS_seL4/cfe/fsw/cfe-core/src/es/cfe_es_task.c ****           */
1304:/home/simulink/cFS_FreeRTOS_seL4/cfe/fsw/cfe-core/src/es/cfe_es_task.c ****           CFE_FS_InitHeader(&FileHeader, CFE_ES_APP_LOG_DESC, CFE_FS_ES_QUERYALL_SUBTYPE);
 2685               	.loc 1 1304 0
 2686 151c 4878 0003 	pea 3.w
 2687               	.cfi_def_cfa_offset 352
 2688 1520 4879 0000 	pea .LC39
 2688      0000 
 2689               	.cfi_def_cfa_offset 356
68K GAS   			page 82


 2690 1526 200F      	move.l %sp,%d0
 2691 1528 0680 0000 	add.l #260,%d0
 2691      0104 
 2692 152e 2F00      	move.l %d0,-(%sp)
 2693               	.cfi_def_cfa_offset 360
 2694 1530 4EB9 0000 	jsr CFE_FS_InitHeader
 2694      0000 
 2695 1536 4FEF 000C 	lea (12,%sp),%sp
 2696               	.cfi_def_cfa_offset 348
1305:/home/simulink/cFS_FreeRTOS_seL4/cfe/fsw/cfe-core/src/es/cfe_es_task.c **** 
1306:/home/simulink/cFS_FreeRTOS_seL4/cfe/fsw/cfe-core/src/es/cfe_es_task.c ****           /*
1307:/home/simulink/cFS_FreeRTOS_seL4/cfe/fsw/cfe-core/src/es/cfe_es_task.c ****           ** Output the Standard cFE File Header to the App File
1308:/home/simulink/cFS_FreeRTOS_seL4/cfe/fsw/cfe-core/src/es/cfe_es_task.c ****           */
1309:/home/simulink/cFS_FreeRTOS_seL4/cfe/fsw/cfe-core/src/es/cfe_es_task.c ****           Result = CFE_FS_WriteHeader(FileDescriptor, &FileHeader);
 2697               	.loc 1 1309 0
 2698 153a 200F      	move.l %sp,%d0
 2699 153c 0680 0000 	add.l #252,%d0
 2699      00FC 
 2700 1542 2F00      	move.l %d0,-(%sp)
 2701               	.cfi_def_cfa_offset 352
 2702 1544 2F2F 0144 	move.l 324(%sp),-(%sp)
 2703               	.cfi_def_cfa_offset 356
 2704 1548 4EB9 0000 	jsr CFE_FS_WriteHeader
 2704      0000 
 2705 154e 508F      	addq.l #8,%sp
 2706               	.cfi_def_cfa_offset 348
 2707 1550 2F40 013C 	move.l %d0,316(%sp)
1310:/home/simulink/cFS_FreeRTOS_seL4/cfe/fsw/cfe-core/src/es/cfe_es_task.c **** 
1311:/home/simulink/cFS_FreeRTOS_seL4/cfe/fsw/cfe-core/src/es/cfe_es_task.c ****           if (Result != sizeof(CFE_FS_Header_t))
 2708               	.loc 1 1311 0
 2709 1554 7040      	moveq #64,%d0
 2710 1556 B0AF 013C 	cmp.l 316(%sp),%d0
 2711 155a 6742      	jeq .L120
1312:/home/simulink/cFS_FreeRTOS_seL4/cfe/fsw/cfe-core/src/es/cfe_es_task.c ****           {
1313:/home/simulink/cFS_FreeRTOS_seL4/cfe/fsw/cfe-core/src/es/cfe_es_task.c ****               OS_close(FileDescriptor);
 2712               	.loc 1 1313 0
 2713 155c 2F2F 0140 	move.l 320(%sp),-(%sp)
 2714               	.cfi_def_cfa_offset 352
 2715 1560 4EB9 0000 	jsr OS_close
 2715      0000 
 2716 1566 588F      	addq.l #4,%sp
 2717               	.cfi_def_cfa_offset 348
1314:/home/simulink/cFS_FreeRTOS_seL4/cfe/fsw/cfe-core/src/es/cfe_es_task.c ****               CFE_ES_TaskData.ErrCounter++;
 2718               	.loc 1 1314 0
 2719 1568 1039 0000 	move.b CFE_ES_TaskData+1,%d0
 2719      0000 
 2720 156e 5280      	addq.l #1,%d0
 2721 1570 1000      	move.b %d0,%d0
 2722 1572 13C0 0000 	move.b %d0,CFE_ES_TaskData+1
 2722      0000 
1315:/home/simulink/cFS_FreeRTOS_seL4/cfe/fsw/cfe-core/src/es/cfe_es_task.c ****               CFE_EVS_SendEvent(CFE_ES_WRHDR_ERR_EID, CFE_EVS_ERROR,
 2723               	.loc 1 1315 0
 2724 1578 202F 013C 	move.l 316(%sp),%d0
 2725 157c 4878 0040 	pea 64.w
 2726               	.cfi_def_cfa_offset 352
 2727 1580 2F00      	move.l %d0,-(%sp)
 2728               	.cfi_def_cfa_offset 356
68K GAS   			page 83


 2729 1582 4879 0000 	pea .LC40
 2729      0000 
 2730               	.cfi_def_cfa_offset 360
 2731 1588 4878 0003 	pea 3.w
 2732               	.cfi_def_cfa_offset 364
 2733 158c 4878 0034 	pea 52.w
 2734               	.cfi_def_cfa_offset 368
 2735 1590 4EB9 0000 	jsr CFE_EVS_SendEvent
 2735      0000 
 2736 1596 4FEF 0014 	lea (20,%sp),%sp
 2737               	.cfi_def_cfa_offset 348
1316:/home/simulink/cFS_FreeRTOS_seL4/cfe/fsw/cfe-core/src/es/cfe_es_task.c ****                  "Failed to write App Info file, WriteHdr RC = 0x%08X, exp %d",
1317:/home/simulink/cFS_FreeRTOS_seL4/cfe/fsw/cfe-core/src/es/cfe_es_task.c ****               (unsigned int)Result,(int)sizeof(CFE_FS_Header_t));
1318:/home/simulink/cFS_FreeRTOS_seL4/cfe/fsw/cfe-core/src/es/cfe_es_task.c ****               return;
 2738               	.loc 1 1318 0
 2739 159a 6000 0162 	jra .L116
 2740               	.L120:
1319:/home/simulink/cFS_FreeRTOS_seL4/cfe/fsw/cfe-core/src/es/cfe_es_task.c ****           }/* end if */
1320:/home/simulink/cFS_FreeRTOS_seL4/cfe/fsw/cfe-core/src/es/cfe_es_task.c **** 
1321:/home/simulink/cFS_FreeRTOS_seL4/cfe/fsw/cfe-core/src/es/cfe_es_task.c ****           /* 
1322:/home/simulink/cFS_FreeRTOS_seL4/cfe/fsw/cfe-core/src/es/cfe_es_task.c ****           ** Maintain statistics of amount of data written to file 
1323:/home/simulink/cFS_FreeRTOS_seL4/cfe/fsw/cfe-core/src/es/cfe_es_task.c ****           */
1324:/home/simulink/cFS_FreeRTOS_seL4/cfe/fsw/cfe-core/src/es/cfe_es_task.c ****           FileSize += Result;
 2741               	.loc 1 1324 0
 2742 159e 202F 013C 	move.l 316(%sp),%d0
 2743 15a2 D1AF 014C 	add.l %d0,332(%sp)
1325:/home/simulink/cFS_FreeRTOS_seL4/cfe/fsw/cfe-core/src/es/cfe_es_task.c **** 
1326:/home/simulink/cFS_FreeRTOS_seL4/cfe/fsw/cfe-core/src/es/cfe_es_task.c ****           /*
1327:/home/simulink/cFS_FreeRTOS_seL4/cfe/fsw/cfe-core/src/es/cfe_es_task.c ****           ** Loop through the ES AppTable for main applications
1328:/home/simulink/cFS_FreeRTOS_seL4/cfe/fsw/cfe-core/src/es/cfe_es_task.c ****           */
1329:/home/simulink/cFS_FreeRTOS_seL4/cfe/fsw/cfe-core/src/es/cfe_es_task.c ****           for(i=0;i<CFE_ES_MAX_APPLICATIONS;i++)
 2744               	.loc 1 1329 0
 2745 15a6 42AF 0154 	clr.l 340(%sp)
 2746 15aa 6000 00CE 	jra .L122
 2747               	.L125:
1330:/home/simulink/cFS_FreeRTOS_seL4/cfe/fsw/cfe-core/src/es/cfe_es_task.c ****           {
1331:/home/simulink/cFS_FreeRTOS_seL4/cfe/fsw/cfe-core/src/es/cfe_es_task.c ****              if(CFE_ES_Global.AppTable[i].RecordUsed != FALSE)
 2748               	.loc 1 1331 0
 2749 15ae 202F 0154 	move.l 340(%sp),%d0
 2750 15b2 223C 0000 	move.l #168,%d1
 2750      00A8 
 2751 15b8 4C01 0800 	muls.l %d1,%d0
 2752 15bc 41F9 0000 	lea CFE_ES_Global+2348,%a0
 2752      0000 
 2753 15c2 1030 0800 	move.b (%a0,%d0.l),%d0
 2754 15c6 4A00      	tst.b %d0
 2755 15c8 6700 00AC 	jeq .L123
1332:/home/simulink/cFS_FreeRTOS_seL4/cfe/fsw/cfe-core/src/es/cfe_es_task.c ****              {
1333:/home/simulink/cFS_FreeRTOS_seL4/cfe/fsw/cfe-core/src/es/cfe_es_task.c ****                 /* 
1334:/home/simulink/cFS_FreeRTOS_seL4/cfe/fsw/cfe-core/src/es/cfe_es_task.c ****                 ** zero out the local entry 
1335:/home/simulink/cFS_FreeRTOS_seL4/cfe/fsw/cfe-core/src/es/cfe_es_task.c ****                 */
1336:/home/simulink/cFS_FreeRTOS_seL4/cfe/fsw/cfe-core/src/es/cfe_es_task.c ****                 CFE_PSP_MemSet(&AppInfo,0,sizeof(CFE_ES_AppInfo_t));
 2756               	.loc 1 1336 0
 2757 15cc 4878 00BC 	pea 188.w
 2758               	.cfi_def_cfa_offset 352
 2759 15d0 42A7      	clr.l -(%sp)
 2760               	.cfi_def_cfa_offset 356
68K GAS   			page 84


 2761 15d2 200F      	move.l %sp,%d0
 2762 15d4 0680 0000 	add.l #72,%d0
 2762      0048 
 2763 15da 2F00      	move.l %d0,-(%sp)
 2764               	.cfi_def_cfa_offset 360
 2765 15dc 4EB9 0000 	jsr CFE_PSP_MemSet
 2765      0000 
 2766 15e2 4FEF 000C 	lea (12,%sp),%sp
 2767               	.cfi_def_cfa_offset 348
1337:/home/simulink/cFS_FreeRTOS_seL4/cfe/fsw/cfe-core/src/es/cfe_es_task.c **** 
1338:/home/simulink/cFS_FreeRTOS_seL4/cfe/fsw/cfe-core/src/es/cfe_es_task.c ****                 /*
1339:/home/simulink/cFS_FreeRTOS_seL4/cfe/fsw/cfe-core/src/es/cfe_es_task.c ****                 ** Populate the AppInfo entry 
1340:/home/simulink/cFS_FreeRTOS_seL4/cfe/fsw/cfe-core/src/es/cfe_es_task.c ****                 */
1341:/home/simulink/cFS_FreeRTOS_seL4/cfe/fsw/cfe-core/src/es/cfe_es_task.c ****                 CFE_ES_GetAppInfoInternal(i, &AppInfo);
 2768               	.loc 1 1341 0
 2769 15e6 200F      	move.l %sp,%d0
 2770 15e8 0680 0000 	add.l #64,%d0
 2770      0040 
 2771 15ee 2F00      	move.l %d0,-(%sp)
 2772               	.cfi_def_cfa_offset 352
 2773 15f0 2F2F 0158 	move.l 344(%sp),-(%sp)
 2774               	.cfi_def_cfa_offset 356
 2775 15f4 4EB9 0000 	jsr CFE_ES_GetAppInfoInternal
 2775      0000 
 2776 15fa 508F      	addq.l #8,%sp
 2777               	.cfi_def_cfa_offset 348
1342:/home/simulink/cFS_FreeRTOS_seL4/cfe/fsw/cfe-core/src/es/cfe_es_task.c **** 
1343:/home/simulink/cFS_FreeRTOS_seL4/cfe/fsw/cfe-core/src/es/cfe_es_task.c ****                 /*
1344:/home/simulink/cFS_FreeRTOS_seL4/cfe/fsw/cfe-core/src/es/cfe_es_task.c ****                 ** Write the local entry to file 
1345:/home/simulink/cFS_FreeRTOS_seL4/cfe/fsw/cfe-core/src/es/cfe_es_task.c ****                 */
1346:/home/simulink/cFS_FreeRTOS_seL4/cfe/fsw/cfe-core/src/es/cfe_es_task.c ****                 Result = OS_write(FileDescriptor, &AppInfo, sizeof(CFE_ES_AppInfo_t));
 2778               	.loc 1 1346 0
 2779 15fc 4878 00BC 	pea 188.w
 2780               	.cfi_def_cfa_offset 352
 2781 1600 200F      	move.l %sp,%d0
 2782 1602 0680 0000 	add.l #68,%d0
 2782      0044 
 2783 1608 2F00      	move.l %d0,-(%sp)
 2784               	.cfi_def_cfa_offset 356
 2785 160a 2F2F 0148 	move.l 328(%sp),-(%sp)
 2786               	.cfi_def_cfa_offset 360
 2787 160e 4EB9 0000 	jsr OS_write
 2787      0000 
 2788 1614 4FEF 000C 	lea (12,%sp),%sp
 2789               	.cfi_def_cfa_offset 348
 2790 1618 2F40 013C 	move.l %d0,316(%sp)
1347:/home/simulink/cFS_FreeRTOS_seL4/cfe/fsw/cfe-core/src/es/cfe_es_task.c ****                 if (Result !=  sizeof(CFE_ES_AppInfo_t))
 2791               	.loc 1 1347 0
 2792 161c 203C 0000 	move.l #188,%d0
 2792      00BC 
 2793 1622 B0AF 013C 	cmp.l 316(%sp),%d0
 2794 1626 6742      	jeq .L124
1348:/home/simulink/cFS_FreeRTOS_seL4/cfe/fsw/cfe-core/src/es/cfe_es_task.c ****                 {
1349:/home/simulink/cFS_FreeRTOS_seL4/cfe/fsw/cfe-core/src/es/cfe_es_task.c ****                    OS_close(FileDescriptor);
 2795               	.loc 1 1349 0
 2796 1628 2F2F 0140 	move.l 320(%sp),-(%sp)
 2797               	.cfi_def_cfa_offset 352
68K GAS   			page 85


 2798 162c 4EB9 0000 	jsr OS_close
 2798      0000 
 2799 1632 588F      	addq.l #4,%sp
 2800               	.cfi_def_cfa_offset 348
1350:/home/simulink/cFS_FreeRTOS_seL4/cfe/fsw/cfe-core/src/es/cfe_es_task.c ****                    CFE_ES_TaskData.ErrCounter++;
 2801               	.loc 1 1350 0
 2802 1634 1039 0000 	move.b CFE_ES_TaskData+1,%d0
 2802      0000 
 2803 163a 5280      	addq.l #1,%d0
 2804 163c 1000      	move.b %d0,%d0
 2805 163e 13C0 0000 	move.b %d0,CFE_ES_TaskData+1
 2805      0000 
1351:/home/simulink/cFS_FreeRTOS_seL4/cfe/fsw/cfe-core/src/es/cfe_es_task.c ****                    CFE_EVS_SendEvent(CFE_ES_TASKWR_ERR_EID, CFE_EVS_ERROR,
 2806               	.loc 1 1351 0
 2807 1644 202F 013C 	move.l 316(%sp),%d0
 2808 1648 4878 00BC 	pea 188.w
 2809               	.cfi_def_cfa_offset 352
 2810 164c 2F00      	move.l %d0,-(%sp)
 2811               	.cfi_def_cfa_offset 356
 2812 164e 4879 0000 	pea .LC41
 2812      0000 
 2813               	.cfi_def_cfa_offset 360
 2814 1654 4878 0003 	pea 3.w
 2815               	.cfi_def_cfa_offset 364
 2816 1658 4878 0035 	pea 53.w
 2817               	.cfi_def_cfa_offset 368
 2818 165c 4EB9 0000 	jsr CFE_EVS_SendEvent
 2818      0000 
 2819 1662 4FEF 0014 	lea (20,%sp),%sp
 2820               	.cfi_def_cfa_offset 348
1352:/home/simulink/cFS_FreeRTOS_seL4/cfe/fsw/cfe-core/src/es/cfe_es_task.c ****                       "Failed to write App Info file, Task write RC = 0x%08X, exp %d",
1353:/home/simulink/cFS_FreeRTOS_seL4/cfe/fsw/cfe-core/src/es/cfe_es_task.c ****                       (unsigned int)Result,(int)sizeof(CFE_ES_AppInfo_t));
1354:/home/simulink/cFS_FreeRTOS_seL4/cfe/fsw/cfe-core/src/es/cfe_es_task.c ****                    return;
 2821               	.loc 1 1354 0
 2822 1666 6000 0096 	jra .L116
 2823               	.L124:
1355:/home/simulink/cFS_FreeRTOS_seL4/cfe/fsw/cfe-core/src/es/cfe_es_task.c ****                 }/* end if */
1356:/home/simulink/cFS_FreeRTOS_seL4/cfe/fsw/cfe-core/src/es/cfe_es_task.c **** 
1357:/home/simulink/cFS_FreeRTOS_seL4/cfe/fsw/cfe-core/src/es/cfe_es_task.c ****                 FileSize += Result;
 2824               	.loc 1 1357 0
 2825 166a 202F 013C 	move.l 316(%sp),%d0
 2826 166e D1AF 014C 	add.l %d0,332(%sp)
1358:/home/simulink/cFS_FreeRTOS_seL4/cfe/fsw/cfe-core/src/es/cfe_es_task.c ****                 EntryCount ++;
 2827               	.loc 1 1358 0
 2828 1672 52AF 0150 	addq.l #1,336(%sp)
 2829               	.L123:
1329:/home/simulink/cFS_FreeRTOS_seL4/cfe/fsw/cfe-core/src/es/cfe_es_task.c ****           {
 2830               	.loc 1 1329 0 discriminator 2
 2831 1676 52AF 0154 	addq.l #1,340(%sp)
 2832               	.L122:
1329:/home/simulink/cFS_FreeRTOS_seL4/cfe/fsw/cfe-core/src/es/cfe_es_task.c ****           {
 2833               	.loc 1 1329 0 is_stmt 0 discriminator 1
 2834 167a 721F      	moveq #31,%d1
 2835 167c B2AF 0154 	cmp.l 340(%sp),%d1
 2836 1680 6400 FF2C 	jcc .L125
1359:/home/simulink/cFS_FreeRTOS_seL4/cfe/fsw/cfe-core/src/es/cfe_es_task.c ****              }
1360:/home/simulink/cFS_FreeRTOS_seL4/cfe/fsw/cfe-core/src/es/cfe_es_task.c ****           } /* end for */
68K GAS   			page 86


1361:/home/simulink/cFS_FreeRTOS_seL4/cfe/fsw/cfe-core/src/es/cfe_es_task.c **** 
1362:/home/simulink/cFS_FreeRTOS_seL4/cfe/fsw/cfe-core/src/es/cfe_es_task.c ****           OS_close(FileDescriptor);
 2837               	.loc 1 1362 0 is_stmt 1
 2838 1684 2F2F 0140 	move.l 320(%sp),-(%sp)
 2839               	.cfi_def_cfa_offset 352
 2840 1688 4EB9 0000 	jsr OS_close
 2840      0000 
 2841 168e 588F      	addq.l #4,%sp
 2842               	.cfi_def_cfa_offset 348
1363:/home/simulink/cFS_FreeRTOS_seL4/cfe/fsw/cfe-core/src/es/cfe_es_task.c ****           CFE_ES_TaskData.CmdCounter++;
 2843               	.loc 1 1363 0
 2844 1690 1039 0000 	move.b CFE_ES_TaskData,%d0
 2844      0000 
 2845 1696 5280      	addq.l #1,%d0
 2846 1698 1000      	move.b %d0,%d0
 2847 169a 13C0 0000 	move.b %d0,CFE_ES_TaskData
 2847      0000 
1364:/home/simulink/cFS_FreeRTOS_seL4/cfe/fsw/cfe-core/src/es/cfe_es_task.c ****           CFE_EVS_SendEvent(CFE_ES_ALL_APPS_EID, CFE_EVS_DEBUG,
 2848               	.loc 1 1364 0
 2849 16a0 222F 014C 	move.l 332(%sp),%d1
 2850 16a4 202F 0150 	move.l 336(%sp),%d0
 2851 16a8 2F01      	move.l %d1,-(%sp)
 2852               	.cfi_def_cfa_offset 352
 2853 16aa 2F00      	move.l %d0,-(%sp)
 2854               	.cfi_def_cfa_offset 356
 2855 16ac 200F      	move.l %sp,%d0
 2856 16ae 5080      	addq.l #8,%d0
 2857 16b0 2F00      	move.l %d0,-(%sp)
 2858               	.cfi_def_cfa_offset 360
 2859 16b2 4879 0000 	pea .LC42
 2859      0000 
 2860               	.cfi_def_cfa_offset 364
 2861 16b8 4878 0001 	pea 1.w
 2862               	.cfi_def_cfa_offset 368
 2863 16bc 4878 0010 	pea 16.w
 2864               	.cfi_def_cfa_offset 372
 2865 16c0 4EB9 0000 	jsr CFE_EVS_SendEvent
 2865      0000 
 2866 16c6 4FEF 0018 	lea (24,%sp),%sp
 2867               	.cfi_def_cfa_offset 348
1365:/home/simulink/cFS_FreeRTOS_seL4/cfe/fsw/cfe-core/src/es/cfe_es_task.c ****                         "App Info file written to %s, Entries=%d, FileSize=%d",
1366:/home/simulink/cFS_FreeRTOS_seL4/cfe/fsw/cfe-core/src/es/cfe_es_task.c ****                       QueryAllFilename,(int)EntryCount,(int)FileSize);
1367:/home/simulink/cFS_FreeRTOS_seL4/cfe/fsw/cfe-core/src/es/cfe_es_task.c ****        }
1368:/home/simulink/cFS_FreeRTOS_seL4/cfe/fsw/cfe-core/src/es/cfe_es_task.c ****        else
1369:/home/simulink/cFS_FreeRTOS_seL4/cfe/fsw/cfe-core/src/es/cfe_es_task.c ****        {
1370:/home/simulink/cFS_FreeRTOS_seL4/cfe/fsw/cfe-core/src/es/cfe_es_task.c ****            CFE_ES_TaskData.ErrCounter++;
1371:/home/simulink/cFS_FreeRTOS_seL4/cfe/fsw/cfe-core/src/es/cfe_es_task.c ****            CFE_EVS_SendEvent(CFE_ES_OSCREATE_ERR_EID, CFE_EVS_ERROR,
1372:/home/simulink/cFS_FreeRTOS_seL4/cfe/fsw/cfe-core/src/es/cfe_es_task.c ****            "Failed to write App Info file, OS_creat RC = 0x%08X",(unsigned int)FileDescriptor);
1373:/home/simulink/cFS_FreeRTOS_seL4/cfe/fsw/cfe-core/src/es/cfe_es_task.c ****        }
1374:/home/simulink/cFS_FreeRTOS_seL4/cfe/fsw/cfe-core/src/es/cfe_es_task.c ****        
1375:/home/simulink/cFS_FreeRTOS_seL4/cfe/fsw/cfe-core/src/es/cfe_es_task.c ****     } /* end if verify command length */
1376:/home/simulink/cFS_FreeRTOS_seL4/cfe/fsw/cfe-core/src/es/cfe_es_task.c ****     return;
 2868               	.loc 1 1376 0
 2869 16ca 6030      	jra .L127
 2870               	.L119:
1370:/home/simulink/cFS_FreeRTOS_seL4/cfe/fsw/cfe-core/src/es/cfe_es_task.c ****            CFE_EVS_SendEvent(CFE_ES_OSCREATE_ERR_EID, CFE_EVS_ERROR,
 2871               	.loc 1 1370 0
68K GAS   			page 87


 2872 16cc 1039 0000 	move.b CFE_ES_TaskData+1,%d0
 2872      0000 
 2873 16d2 5280      	addq.l #1,%d0
 2874 16d4 1000      	move.b %d0,%d0
 2875 16d6 13C0 0000 	move.b %d0,CFE_ES_TaskData+1
 2875      0000 
1371:/home/simulink/cFS_FreeRTOS_seL4/cfe/fsw/cfe-core/src/es/cfe_es_task.c ****            "Failed to write App Info file, OS_creat RC = 0x%08X",(unsigned int)FileDescriptor);
 2876               	.loc 1 1371 0
 2877 16dc 202F 0140 	move.l 320(%sp),%d0
 2878 16e0 2F00      	move.l %d0,-(%sp)
 2879               	.cfi_def_cfa_offset 352
 2880 16e2 4879 0000 	pea .LC43
 2880      0000 
 2881               	.cfi_def_cfa_offset 356
 2882 16e8 4878 0003 	pea 3.w
 2883               	.cfi_def_cfa_offset 360
 2884 16ec 4878 0033 	pea 51.w
 2885               	.cfi_def_cfa_offset 364
 2886 16f0 4EB9 0000 	jsr CFE_EVS_SendEvent
 2886      0000 
 2887 16f6 4FEF 0010 	lea (16,%sp),%sp
 2888               	.cfi_def_cfa_offset 348
 2889               	.loc 1 1376 0
 2890 16fa 4E71      	nop
 2891               	.L127:
 2892 16fc 4E71      	nop
 2893               	.L116:
1377:/home/simulink/cFS_FreeRTOS_seL4/cfe/fsw/cfe-core/src/es/cfe_es_task.c **** 
1378:/home/simulink/cFS_FreeRTOS_seL4/cfe/fsw/cfe-core/src/es/cfe_es_task.c **** } /* End of CFE_ES_QueryAllCmd() */
 2894               	.loc 1 1378 0
 2895 16fe 4FEF 0158 	lea (344,%sp),%sp
 2896 1702 4E75      	rts
 2897               	.cfi_endproc
 2898               	.LFE72:
 2899               	.sizeCFE_ES_QueryAllCmd, .-CFE_ES_QueryAllCmd
 2900               	.section.rodata
 2901               	.LC44:
 2902 07a2 2F72 616D 	.string"/ram/cfe_es_task_info.log"
 2902      2F63 6665 
 2902      5F65 735F 
 2902      7461 736B 
 2902      5F69 6E66 
 2903               	.LC45:
 2904 07bc 4553 2054 	.string"ES Task Info file"
 2904      6173 6B20 
 2904      496E 666F 
 2904      2066 696C 
 2904      6500 
 2905               	.LC46:
 2906 07ce 4661 696C 	.string"Failed to write Task Info file, WriteHdr RC = 0x%08X, exp %d"
 2906      6564 2074 
 2906      6F20 7772 
 2906      6974 6520 
 2906      5461 736B 
 2907               	.LC47:
 2908 080b 4661 696C 	.string"Failed to write Task Info file, Task write RC = 0x%08X, exp %d"
 2908      6564 2074 
68K GAS   			page 88


 2908      6F20 7772 
 2908      6974 6520 
 2908      5461 736B 
 2909               	.LC48:
 2910 084a 5461 736B 	.string"Task Info file written to %s, Entries=%d, FileSize=%d"
 2910      2049 6E66 
 2910      6F20 6669 
 2910      6C65 2077 
 2910      7269 7474 
 2911               	.LC49:
 2912 0880 4661 696C 	.string"Failed to write Task Info file, OS_creat RC = 0x%08X"
 2912      6564 2074 
 2912      6F20 7772 
 2912      6974 6520 
 2912      5461 736B 
 2913               	.text
 2914               	.align2
 2915               	.globlCFE_ES_QueryAllTasksCmd
 2916               	.typeCFE_ES_QueryAllTasksCmd, @function
 2917               	CFE_ES_QueryAllTasksCmd:
 2918               	.LFB73:
1379:/home/simulink/cFS_FreeRTOS_seL4/cfe/fsw/cfe-core/src/es/cfe_es_task.c **** 
1380:/home/simulink/cFS_FreeRTOS_seL4/cfe/fsw/cfe-core/src/es/cfe_es_task.c **** /* * * * * * * * * * * * * * * * * * * * * * * * * * * * * * * * * */
1381:/home/simulink/cFS_FreeRTOS_seL4/cfe/fsw/cfe-core/src/es/cfe_es_task.c **** /*                                                                 */
1382:/home/simulink/cFS_FreeRTOS_seL4/cfe/fsw/cfe-core/src/es/cfe_es_task.c **** /* CFE_ES_QueryAllTasksCmd() -- Write all Task Data to a file      */
1383:/home/simulink/cFS_FreeRTOS_seL4/cfe/fsw/cfe-core/src/es/cfe_es_task.c **** /*                                                                 */
1384:/home/simulink/cFS_FreeRTOS_seL4/cfe/fsw/cfe-core/src/es/cfe_es_task.c **** /* * * * * * * * * * * * * * * * * * * * * * * * * * * * * * * * * */
1385:/home/simulink/cFS_FreeRTOS_seL4/cfe/fsw/cfe-core/src/es/cfe_es_task.c **** 
1386:/home/simulink/cFS_FreeRTOS_seL4/cfe/fsw/cfe-core/src/es/cfe_es_task.c **** void CFE_ES_QueryAllTasksCmd(CFE_SB_MsgPtr_t Msg)
1387:/home/simulink/cFS_FreeRTOS_seL4/cfe/fsw/cfe-core/src/es/cfe_es_task.c **** {
 2919               	.loc 1 1387 0
 2920               	.cfi_startproc
 2921 1704 4FEF FF30 	lea (-208,%sp),%sp
 2922               	.cfi_def_cfa_offset 212
1388:/home/simulink/cFS_FreeRTOS_seL4/cfe/fsw/cfe-core/src/es/cfe_es_task.c **** 
1389:/home/simulink/cFS_FreeRTOS_seL4/cfe/fsw/cfe-core/src/es/cfe_es_task.c ****     uint16                     ExpectedLength = sizeof(CFE_ES_QueryAllTasksCmd_t);
 2923               	.loc 1 1389 0
 2924 1708 7048      	moveq #72,%d0
 2925 170a 3F40 00C2 	move.w %d0,194(%sp)
1390:/home/simulink/cFS_FreeRTOS_seL4/cfe/fsw/cfe-core/src/es/cfe_es_task.c ****     CFE_FS_Header_t            FileHeader;
1391:/home/simulink/cFS_FreeRTOS_seL4/cfe/fsw/cfe-core/src/es/cfe_es_task.c ****     int32                      FileDescriptor;
1392:/home/simulink/cFS_FreeRTOS_seL4/cfe/fsw/cfe-core/src/es/cfe_es_task.c ****     uint32                     i;
1393:/home/simulink/cFS_FreeRTOS_seL4/cfe/fsw/cfe-core/src/es/cfe_es_task.c ****     uint32                     EntryCount = 0;
 2926               	.loc 1 1393 0
 2927 170e 42AF 00C8 	clr.l 200(%sp)
1394:/home/simulink/cFS_FreeRTOS_seL4/cfe/fsw/cfe-core/src/es/cfe_es_task.c ****     uint32                     FileSize = 0;
 2928               	.loc 1 1394 0
 2929 1712 42AF 00C4 	clr.l 196(%sp)
1395:/home/simulink/cFS_FreeRTOS_seL4/cfe/fsw/cfe-core/src/es/cfe_es_task.c ****     int32                      Result;
1396:/home/simulink/cFS_FreeRTOS_seL4/cfe/fsw/cfe-core/src/es/cfe_es_task.c ****     CFE_ES_TaskInfo_t          TaskInfo;
1397:/home/simulink/cFS_FreeRTOS_seL4/cfe/fsw/cfe-core/src/es/cfe_es_task.c ****     CFE_ES_QueryAllTasksCmd_Payload_t *CmdPtr = (CFE_ES_QueryAllTasksCmd_Payload_t *)&Msg->Byte[CFE
 2930               	.loc 1 1397 0
 2931 1716 222F 00D4 	move.l 212(%sp),%d1
 2932 171a 5081      	addq.l #8,%d1
 2933 171c 2F41 00BC 	move.l %d1,188(%sp)
1398:/home/simulink/cFS_FreeRTOS_seL4/cfe/fsw/cfe-core/src/es/cfe_es_task.c ****     char                       QueryAllFilename[OS_MAX_PATH_LEN];
1399:/home/simulink/cFS_FreeRTOS_seL4/cfe/fsw/cfe-core/src/es/cfe_es_task.c **** 
68K GAS   			page 89


1400:/home/simulink/cFS_FreeRTOS_seL4/cfe/fsw/cfe-core/src/es/cfe_es_task.c ****     /*
1401:/home/simulink/cFS_FreeRTOS_seL4/cfe/fsw/cfe-core/src/es/cfe_es_task.c ****     ** Verify command packet length.
1402:/home/simulink/cFS_FreeRTOS_seL4/cfe/fsw/cfe-core/src/es/cfe_es_task.c ****     */
1403:/home/simulink/cFS_FreeRTOS_seL4/cfe/fsw/cfe-core/src/es/cfe_es_task.c ****     if (CFE_ES_VerifyCmdLength(Msg, ExpectedLength))
 2934               	.loc 1 1403 0
 2935 1720 4280      	clr.l %d0
 2936 1722 302F 00C2 	move.w 194(%sp),%d0
 2937 1726 2F00      	move.l %d0,-(%sp)
 2938               	.cfi_def_cfa_offset 216
 2939 1728 2F2F 00D8 	move.l 216(%sp),-(%sp)
 2940               	.cfi_def_cfa_offset 220
 2941 172c 4EB9 0000 	jsr CFE_ES_VerifyCmdLength
 2941      0000 
 2942 1732 508F      	addq.l #8,%sp
 2943               	.cfi_def_cfa_offset 212
 2944 1734 4A00      	tst.b %d0
 2945 1736 6700 026A 	jeq .L139
1404:/home/simulink/cFS_FreeRTOS_seL4/cfe/fsw/cfe-core/src/es/cfe_es_task.c ****     {
1405:/home/simulink/cFS_FreeRTOS_seL4/cfe/fsw/cfe-core/src/es/cfe_es_task.c ****        /* 
1406:/home/simulink/cFS_FreeRTOS_seL4/cfe/fsw/cfe-core/src/es/cfe_es_task.c ****        ** Copy the commanded filename into local buffer to ensure size limitation and to allow for 
1407:/home/simulink/cFS_FreeRTOS_seL4/cfe/fsw/cfe-core/src/es/cfe_es_task.c ****        */
1408:/home/simulink/cFS_FreeRTOS_seL4/cfe/fsw/cfe-core/src/es/cfe_es_task.c ****        CFE_SB_MessageStringGet(QueryAllFilename, (char *)CmdPtr->QueryAllFileName,
 2946               	.loc 1 1408 0
 2947 173a 202F 00BC 	move.l 188(%sp),%d0
 2948 173e 4878 0040 	pea 64.w
 2949               	.cfi_def_cfa_offset 216
 2950 1742 4878 0040 	pea 64.w
 2951               	.cfi_def_cfa_offset 220
 2952 1746 4879 0000 	pea .LC44
 2952      0000 
 2953               	.cfi_def_cfa_offset 224
 2954 174c 2F00      	move.l %d0,-(%sp)
 2955               	.cfi_def_cfa_offset 228
 2956 174e 200F      	move.l %sp,%d0
 2957 1750 0680 0000 	add.l #16,%d0
 2957      0010 
 2958 1756 2F00      	move.l %d0,-(%sp)
 2959               	.cfi_def_cfa_offset 232
 2960 1758 4EB9 0000 	jsr CFE_SB_MessageStringGet
 2960      0000 
 2961 175e 4FEF 0014 	lea (20,%sp),%sp
 2962               	.cfi_def_cfa_offset 212
1409:/home/simulink/cFS_FreeRTOS_seL4/cfe/fsw/cfe-core/src/es/cfe_es_task.c ****                CFE_ES_DEFAULT_TASK_LOG_FILE, OS_MAX_PATH_LEN, sizeof(CmdPtr->QueryAllFileName));
1410:/home/simulink/cFS_FreeRTOS_seL4/cfe/fsw/cfe-core/src/es/cfe_es_task.c **** 
1411:/home/simulink/cFS_FreeRTOS_seL4/cfe/fsw/cfe-core/src/es/cfe_es_task.c ****        /* 
1412:/home/simulink/cFS_FreeRTOS_seL4/cfe/fsw/cfe-core/src/es/cfe_es_task.c ****        ** Check to see if the file already exists 
1413:/home/simulink/cFS_FreeRTOS_seL4/cfe/fsw/cfe-core/src/es/cfe_es_task.c ****        */
1414:/home/simulink/cFS_FreeRTOS_seL4/cfe/fsw/cfe-core/src/es/cfe_es_task.c ****        FileDescriptor = OS_open(QueryAllFilename, OS_READ_ONLY, 0);
 2963               	.loc 1 1414 0
 2964 1762 42A7      	clr.l -(%sp)
 2965               	.cfi_def_cfa_offset 216
 2966 1764 42A7      	clr.l -(%sp)
 2967               	.cfi_def_cfa_offset 220
 2968 1766 200F      	move.l %sp,%d0
 2969 1768 5080      	addq.l #8,%d0
 2970 176a 2F00      	move.l %d0,-(%sp)
 2971               	.cfi_def_cfa_offset 224
68K GAS   			page 90


 2972 176c 4EB9 0000 	jsr OS_open
 2972      0000 
 2973 1772 4FEF 000C 	lea (12,%sp),%sp
 2974               	.cfi_def_cfa_offset 212
 2975 1776 2F40 00B8 	move.l %d0,184(%sp)
1415:/home/simulink/cFS_FreeRTOS_seL4/cfe/fsw/cfe-core/src/es/cfe_es_task.c ****        if (FileDescriptor >= 0)
 2976               	.loc 1 1415 0
 2977 177a 4AAF 00B8 	tst.l 184(%sp)
 2978 177e 6D18      	jlt .L130
1416:/home/simulink/cFS_FreeRTOS_seL4/cfe/fsw/cfe-core/src/es/cfe_es_task.c ****        {
1417:/home/simulink/cFS_FreeRTOS_seL4/cfe/fsw/cfe-core/src/es/cfe_es_task.c ****            OS_close(FileDescriptor);
 2979               	.loc 1 1417 0
 2980 1780 2F2F 00B8 	move.l 184(%sp),-(%sp)
 2981               	.cfi_def_cfa_offset 216
 2982 1784 4EB9 0000 	jsr OS_close
 2982      0000 
 2983 178a 588F      	addq.l #4,%sp
 2984               	.cfi_def_cfa_offset 212
1418:/home/simulink/cFS_FreeRTOS_seL4/cfe/fsw/cfe-core/src/es/cfe_es_task.c ****            OS_remove(QueryAllFilename);
 2985               	.loc 1 1418 0
 2986 178c 200F      	move.l %sp,%d0
 2987 178e 2F00      	move.l %d0,-(%sp)
 2988               	.cfi_def_cfa_offset 216
 2989 1790 4EB9 0000 	jsr OS_remove
 2989      0000 
 2990 1796 588F      	addq.l #4,%sp
 2991               	.cfi_def_cfa_offset 212
 2992               	.L130:
1419:/home/simulink/cFS_FreeRTOS_seL4/cfe/fsw/cfe-core/src/es/cfe_es_task.c ****        }
1420:/home/simulink/cFS_FreeRTOS_seL4/cfe/fsw/cfe-core/src/es/cfe_es_task.c **** 
1421:/home/simulink/cFS_FreeRTOS_seL4/cfe/fsw/cfe-core/src/es/cfe_es_task.c ****        /*
1422:/home/simulink/cFS_FreeRTOS_seL4/cfe/fsw/cfe-core/src/es/cfe_es_task.c ****        ** Create ES task log data file
1423:/home/simulink/cFS_FreeRTOS_seL4/cfe/fsw/cfe-core/src/es/cfe_es_task.c ****        */
1424:/home/simulink/cFS_FreeRTOS_seL4/cfe/fsw/cfe-core/src/es/cfe_es_task.c ****        FileDescriptor = OS_creat(QueryAllFilename, OS_WRITE_ONLY);
 2993               	.loc 1 1424 0
 2994 1798 4878 0001 	pea 1.w
 2995               	.cfi_def_cfa_offset 216
 2996 179c 200F      	move.l %sp,%d0
 2997 179e 5880      	addq.l #4,%d0
 2998 17a0 2F00      	move.l %d0,-(%sp)
 2999               	.cfi_def_cfa_offset 220
 3000 17a2 4EB9 0000 	jsr OS_creat
 3000      0000 
 3001 17a8 508F      	addq.l #8,%sp
 3002               	.cfi_def_cfa_offset 212
 3003 17aa 2F40 00B8 	move.l %d0,184(%sp)
1425:/home/simulink/cFS_FreeRTOS_seL4/cfe/fsw/cfe-core/src/es/cfe_es_task.c ****        if (FileDescriptor >= 0)
 3004               	.loc 1 1425 0
 3005 17ae 4AAF 00B8 	tst.l 184(%sp)
 3006 17b2 6D00 01BE 	jlt .L131
1426:/home/simulink/cFS_FreeRTOS_seL4/cfe/fsw/cfe-core/src/es/cfe_es_task.c ****        {
1427:/home/simulink/cFS_FreeRTOS_seL4/cfe/fsw/cfe-core/src/es/cfe_es_task.c ****           /*
1428:/home/simulink/cFS_FreeRTOS_seL4/cfe/fsw/cfe-core/src/es/cfe_es_task.c ****           ** Initialize cFE file header
1429:/home/simulink/cFS_FreeRTOS_seL4/cfe/fsw/cfe-core/src/es/cfe_es_task.c ****           */
1430:/home/simulink/cFS_FreeRTOS_seL4/cfe/fsw/cfe-core/src/es/cfe_es_task.c ****           CFE_FS_InitHeader(&FileHeader, CFE_ES_TASK_LOG_DESC, CFE_FS_ES_QUERYALLTASKS_SUBTYPE);
 3007               	.loc 1 1430 0
 3008 17b6 4878 0017 	pea 23.w
68K GAS   			page 91


 3009               	.cfi_def_cfa_offset 216
 3010 17ba 4879 0000 	pea .LC45
 3010      0000 
 3011               	.cfi_def_cfa_offset 220
 3012 17c0 200F      	move.l %sp,%d0
 3013 17c2 0680 0000 	add.l #124,%d0
 3013      007C 
 3014 17c8 2F00      	move.l %d0,-(%sp)
 3015               	.cfi_def_cfa_offset 224
 3016 17ca 4EB9 0000 	jsr CFE_FS_InitHeader
 3016      0000 
 3017 17d0 4FEF 000C 	lea (12,%sp),%sp
 3018               	.cfi_def_cfa_offset 212
1431:/home/simulink/cFS_FreeRTOS_seL4/cfe/fsw/cfe-core/src/es/cfe_es_task.c **** 
1432:/home/simulink/cFS_FreeRTOS_seL4/cfe/fsw/cfe-core/src/es/cfe_es_task.c ****           /*
1433:/home/simulink/cFS_FreeRTOS_seL4/cfe/fsw/cfe-core/src/es/cfe_es_task.c ****           ** Output the Standard cFE File Header to the App File
1434:/home/simulink/cFS_FreeRTOS_seL4/cfe/fsw/cfe-core/src/es/cfe_es_task.c ****           */
1435:/home/simulink/cFS_FreeRTOS_seL4/cfe/fsw/cfe-core/src/es/cfe_es_task.c ****           Result = CFE_FS_WriteHeader(FileDescriptor, &FileHeader);
 3019               	.loc 1 1435 0
 3020 17d4 200F      	move.l %sp,%d0
 3021 17d6 0680 0000 	add.l #116,%d0
 3021      0074 
 3022 17dc 2F00      	move.l %d0,-(%sp)
 3023               	.cfi_def_cfa_offset 216
 3024 17de 2F2F 00BC 	move.l 188(%sp),-(%sp)
 3025               	.cfi_def_cfa_offset 220
 3026 17e2 4EB9 0000 	jsr CFE_FS_WriteHeader
 3026      0000 
 3027 17e8 508F      	addq.l #8,%sp
 3028               	.cfi_def_cfa_offset 212
 3029 17ea 2F40 00B4 	move.l %d0,180(%sp)
1436:/home/simulink/cFS_FreeRTOS_seL4/cfe/fsw/cfe-core/src/es/cfe_es_task.c **** 
1437:/home/simulink/cFS_FreeRTOS_seL4/cfe/fsw/cfe-core/src/es/cfe_es_task.c ****           if (Result != sizeof(CFE_FS_Header_t))
 3030               	.loc 1 1437 0
 3031 17ee 7040      	moveq #64,%d0
 3032 17f0 B0AF 00B4 	cmp.l 180(%sp),%d0
 3033 17f4 6742      	jeq .L132
1438:/home/simulink/cFS_FreeRTOS_seL4/cfe/fsw/cfe-core/src/es/cfe_es_task.c ****           {
1439:/home/simulink/cFS_FreeRTOS_seL4/cfe/fsw/cfe-core/src/es/cfe_es_task.c ****               OS_close(FileDescriptor);
 3034               	.loc 1 1439 0
 3035 17f6 2F2F 00B8 	move.l 184(%sp),-(%sp)
 3036               	.cfi_def_cfa_offset 216
 3037 17fa 4EB9 0000 	jsr OS_close
 3037      0000 
 3038 1800 588F      	addq.l #4,%sp
 3039               	.cfi_def_cfa_offset 212
1440:/home/simulink/cFS_FreeRTOS_seL4/cfe/fsw/cfe-core/src/es/cfe_es_task.c ****               CFE_ES_TaskData.ErrCounter++;
 3040               	.loc 1 1440 0
 3041 1802 1039 0000 	move.b CFE_ES_TaskData+1,%d0
 3041      0000 
 3042 1808 5280      	addq.l #1,%d0
 3043 180a 1000      	move.b %d0,%d0
 3044 180c 13C0 0000 	move.b %d0,CFE_ES_TaskData+1
 3044      0000 
1441:/home/simulink/cFS_FreeRTOS_seL4/cfe/fsw/cfe-core/src/es/cfe_es_task.c ****               CFE_EVS_SendEvent(CFE_ES_TASKINFO_WRHDR_ERR_EID, CFE_EVS_ERROR,
 3045               	.loc 1 1441 0
 3046 1812 202F 00B4 	move.l 180(%sp),%d0
68K GAS   			page 92


 3047 1816 4878 0040 	pea 64.w
 3048               	.cfi_def_cfa_offset 216
 3049 181a 2F00      	move.l %d0,-(%sp)
 3050               	.cfi_def_cfa_offset 220
 3051 181c 4879 0000 	pea .LC46
 3051      0000 
 3052               	.cfi_def_cfa_offset 224
 3053 1822 4878 0003 	pea 3.w
 3054               	.cfi_def_cfa_offset 228
 3055 1826 4878 0059 	pea 89.w
 3056               	.cfi_def_cfa_offset 232
 3057 182a 4EB9 0000 	jsr CFE_EVS_SendEvent
 3057      0000 
 3058 1830 4FEF 0014 	lea (20,%sp),%sp
 3059               	.cfi_def_cfa_offset 212
1442:/home/simulink/cFS_FreeRTOS_seL4/cfe/fsw/cfe-core/src/es/cfe_es_task.c ****                  "Failed to write Task Info file, WriteHdr RC = 0x%08X, exp %d",
1443:/home/simulink/cFS_FreeRTOS_seL4/cfe/fsw/cfe-core/src/es/cfe_es_task.c ****               (unsigned int)Result,(int)sizeof(CFE_FS_Header_t));
1444:/home/simulink/cFS_FreeRTOS_seL4/cfe/fsw/cfe-core/src/es/cfe_es_task.c ****               return;
 3060               	.loc 1 1444 0
 3061 1834 6000 016E 	jra .L128
 3062               	.L132:
1445:/home/simulink/cFS_FreeRTOS_seL4/cfe/fsw/cfe-core/src/es/cfe_es_task.c ****           }/* end if */
1446:/home/simulink/cFS_FreeRTOS_seL4/cfe/fsw/cfe-core/src/es/cfe_es_task.c **** 
1447:/home/simulink/cFS_FreeRTOS_seL4/cfe/fsw/cfe-core/src/es/cfe_es_task.c ****           /* 
1448:/home/simulink/cFS_FreeRTOS_seL4/cfe/fsw/cfe-core/src/es/cfe_es_task.c ****           ** Maintain statistics of amount of data written to file 
1449:/home/simulink/cFS_FreeRTOS_seL4/cfe/fsw/cfe-core/src/es/cfe_es_task.c ****           */
1450:/home/simulink/cFS_FreeRTOS_seL4/cfe/fsw/cfe-core/src/es/cfe_es_task.c ****           FileSize += Result;
 3063               	.loc 1 1450 0
 3064 1838 202F 00B4 	move.l 180(%sp),%d0
 3065 183c D1AF 00C4 	add.l %d0,196(%sp)
1451:/home/simulink/cFS_FreeRTOS_seL4/cfe/fsw/cfe-core/src/es/cfe_es_task.c **** 
1452:/home/simulink/cFS_FreeRTOS_seL4/cfe/fsw/cfe-core/src/es/cfe_es_task.c ****           /*
1453:/home/simulink/cFS_FreeRTOS_seL4/cfe/fsw/cfe-core/src/es/cfe_es_task.c ****           ** Loop through the ES AppTable for main applications
1454:/home/simulink/cFS_FreeRTOS_seL4/cfe/fsw/cfe-core/src/es/cfe_es_task.c ****           */
1455:/home/simulink/cFS_FreeRTOS_seL4/cfe/fsw/cfe-core/src/es/cfe_es_task.c ****           for(i=0;i<OS_MAX_TASKS;i++)
 3066               	.loc 1 1455 0
 3067 1840 42AF 00CC 	clr.l 204(%sp)
 3068 1844 6000 00DA 	jra .L134
 3069               	.L137:
1456:/home/simulink/cFS_FreeRTOS_seL4/cfe/fsw/cfe-core/src/es/cfe_es_task.c ****           {
1457:/home/simulink/cFS_FreeRTOS_seL4/cfe/fsw/cfe-core/src/es/cfe_es_task.c ****              if(CFE_ES_Global.TaskTable[i].RecordUsed != FALSE)
 3070               	.loc 1 1457 0
 3071 1848 202F 00CC 	move.l 204(%sp),%d0
 3072 184c 5280      	addq.l #1,%d0
 3073 184e 7224      	moveq #36,%d1
 3074 1850 4C01 0800 	muls.l %d1,%d0
 3075 1854 41F9 0000 	lea CFE_ES_Global,%a0
 3075      0000 
 3076 185a 1030 0800 	move.b (%a0,%d0.l),%d0
 3077 185e 4A00      	tst.b %d0
 3078 1860 6700 00BA 	jeq .L135
1458:/home/simulink/cFS_FreeRTOS_seL4/cfe/fsw/cfe-core/src/es/cfe_es_task.c ****              {
1459:/home/simulink/cFS_FreeRTOS_seL4/cfe/fsw/cfe-core/src/es/cfe_es_task.c ****                 /* 
1460:/home/simulink/cFS_FreeRTOS_seL4/cfe/fsw/cfe-core/src/es/cfe_es_task.c ****                 ** zero out the local entry 
1461:/home/simulink/cFS_FreeRTOS_seL4/cfe/fsw/cfe-core/src/es/cfe_es_task.c ****                 */
1462:/home/simulink/cFS_FreeRTOS_seL4/cfe/fsw/cfe-core/src/es/cfe_es_task.c ****                 CFE_PSP_MemSet(&TaskInfo,0,sizeof(CFE_ES_TaskInfo_t));
 3079               	.loc 1 1462 0
68K GAS   			page 93


 3080 1864 4878 0034 	pea 52.w
 3081               	.cfi_def_cfa_offset 216
 3082 1868 42A7      	clr.l -(%sp)
 3083               	.cfi_def_cfa_offset 220
 3084 186a 200F      	move.l %sp,%d0
 3085 186c 0680 0000 	add.l #72,%d0
 3085      0048 
 3086 1872 2F00      	move.l %d0,-(%sp)
 3087               	.cfi_def_cfa_offset 224
 3088 1874 4EB9 0000 	jsr CFE_PSP_MemSet
 3088      0000 
 3089 187a 4FEF 000C 	lea (12,%sp),%sp
 3090               	.cfi_def_cfa_offset 212
1463:/home/simulink/cFS_FreeRTOS_seL4/cfe/fsw/cfe-core/src/es/cfe_es_task.c **** 
1464:/home/simulink/cFS_FreeRTOS_seL4/cfe/fsw/cfe-core/src/es/cfe_es_task.c ****                 /*
1465:/home/simulink/cFS_FreeRTOS_seL4/cfe/fsw/cfe-core/src/es/cfe_es_task.c ****                 ** Populate the AppInfo entry 
1466:/home/simulink/cFS_FreeRTOS_seL4/cfe/fsw/cfe-core/src/es/cfe_es_task.c ****                 */
1467:/home/simulink/cFS_FreeRTOS_seL4/cfe/fsw/cfe-core/src/es/cfe_es_task.c ****                 CFE_ES_GetTaskInfo(&TaskInfo,CFE_ES_Global.TaskTable[i].TaskId);
 3091               	.loc 1 1467 0
 3092 187e 202F 00CC 	move.l 204(%sp),%d0
 3093 1882 7224      	moveq #36,%d1
 3094 1884 4C01 0800 	muls.l %d1,%d0
 3095 1888 41F9 0000 	lea CFE_ES_Global+44,%a0
 3095      0000 
 3096 188e 2030 0800 	move.l (%a0,%d0.l),%d0
 3097 1892 2F00      	move.l %d0,-(%sp)
 3098               	.cfi_def_cfa_offset 216
 3099 1894 200F      	move.l %sp,%d0
 3100 1896 0680 0000 	add.l #68,%d0
 3100      0044 
 3101 189c 2F00      	move.l %d0,-(%sp)
 3102               	.cfi_def_cfa_offset 220
 3103 189e 4EB9 0000 	jsr CFE_ES_GetTaskInfo
 3103      0000 
 3104 18a4 508F      	addq.l #8,%sp
 3105               	.cfi_def_cfa_offset 212
1468:/home/simulink/cFS_FreeRTOS_seL4/cfe/fsw/cfe-core/src/es/cfe_es_task.c **** 
1469:/home/simulink/cFS_FreeRTOS_seL4/cfe/fsw/cfe-core/src/es/cfe_es_task.c ****                 /*
1470:/home/simulink/cFS_FreeRTOS_seL4/cfe/fsw/cfe-core/src/es/cfe_es_task.c ****                 ** Write the local entry to file 
1471:/home/simulink/cFS_FreeRTOS_seL4/cfe/fsw/cfe-core/src/es/cfe_es_task.c ****                 */
1472:/home/simulink/cFS_FreeRTOS_seL4/cfe/fsw/cfe-core/src/es/cfe_es_task.c ****                 Result = OS_write(FileDescriptor, &TaskInfo, sizeof(CFE_ES_TaskInfo_t));
 3106               	.loc 1 1472 0
 3107 18a6 4878 0034 	pea 52.w
 3108               	.cfi_def_cfa_offset 216
 3109 18aa 200F      	move.l %sp,%d0
 3110 18ac 0680 0000 	add.l #68,%d0
 3110      0044 
 3111 18b2 2F00      	move.l %d0,-(%sp)
 3112               	.cfi_def_cfa_offset 220
 3113 18b4 2F2F 00C0 	move.l 192(%sp),-(%sp)
 3114               	.cfi_def_cfa_offset 224
 3115 18b8 4EB9 0000 	jsr OS_write
 3115      0000 
 3116 18be 4FEF 000C 	lea (12,%sp),%sp
 3117               	.cfi_def_cfa_offset 212
 3118 18c2 2F40 00B4 	move.l %d0,180(%sp)
1473:/home/simulink/cFS_FreeRTOS_seL4/cfe/fsw/cfe-core/src/es/cfe_es_task.c ****                 if (Result !=  sizeof(CFE_ES_TaskInfo_t))
68K GAS   			page 94


 3119               	.loc 1 1473 0
 3120 18c6 7034      	moveq #52,%d0
 3121 18c8 B0AF 00B4 	cmp.l 180(%sp),%d0
 3122 18cc 6742      	jeq .L136
1474:/home/simulink/cFS_FreeRTOS_seL4/cfe/fsw/cfe-core/src/es/cfe_es_task.c ****                 {
1475:/home/simulink/cFS_FreeRTOS_seL4/cfe/fsw/cfe-core/src/es/cfe_es_task.c ****                    OS_close(FileDescriptor);
 3123               	.loc 1 1475 0
 3124 18ce 2F2F 00B8 	move.l 184(%sp),-(%sp)
 3125               	.cfi_def_cfa_offset 216
 3126 18d2 4EB9 0000 	jsr OS_close
 3126      0000 
 3127 18d8 588F      	addq.l #4,%sp
 3128               	.cfi_def_cfa_offset 212
1476:/home/simulink/cFS_FreeRTOS_seL4/cfe/fsw/cfe-core/src/es/cfe_es_task.c ****                    CFE_ES_TaskData.ErrCounter++;
 3129               	.loc 1 1476 0
 3130 18da 1039 0000 	move.b CFE_ES_TaskData+1,%d0
 3130      0000 
 3131 18e0 5280      	addq.l #1,%d0
 3132 18e2 1000      	move.b %d0,%d0
 3133 18e4 13C0 0000 	move.b %d0,CFE_ES_TaskData+1
 3133      0000 
1477:/home/simulink/cFS_FreeRTOS_seL4/cfe/fsw/cfe-core/src/es/cfe_es_task.c ****                    CFE_EVS_SendEvent(CFE_ES_TASKINFO_WR_ERR_EID, CFE_EVS_ERROR,
 3134               	.loc 1 1477 0
 3135 18ea 202F 00B4 	move.l 180(%sp),%d0
 3136 18ee 4878 0034 	pea 52.w
 3137               	.cfi_def_cfa_offset 216
 3138 18f2 2F00      	move.l %d0,-(%sp)
 3139               	.cfi_def_cfa_offset 220
 3140 18f4 4879 0000 	pea .LC47
 3140      0000 
 3141               	.cfi_def_cfa_offset 224
 3142 18fa 4878 0003 	pea 3.w
 3143               	.cfi_def_cfa_offset 228
 3144 18fe 4878 005A 	pea 90.w
 3145               	.cfi_def_cfa_offset 232
 3146 1902 4EB9 0000 	jsr CFE_EVS_SendEvent
 3146      0000 
 3147 1908 4FEF 0014 	lea (20,%sp),%sp
 3148               	.cfi_def_cfa_offset 212
1478:/home/simulink/cFS_FreeRTOS_seL4/cfe/fsw/cfe-core/src/es/cfe_es_task.c ****                       "Failed to write Task Info file, Task write RC = 0x%08X, exp %d",
1479:/home/simulink/cFS_FreeRTOS_seL4/cfe/fsw/cfe-core/src/es/cfe_es_task.c ****                       (unsigned int)Result,(int)sizeof(CFE_ES_TaskInfo_t));
1480:/home/simulink/cFS_FreeRTOS_seL4/cfe/fsw/cfe-core/src/es/cfe_es_task.c ****                    return;
 3149               	.loc 1 1480 0
 3150 190c 6000 0096 	jra .L128
 3151               	.L136:
1481:/home/simulink/cFS_FreeRTOS_seL4/cfe/fsw/cfe-core/src/es/cfe_es_task.c ****                 }/* end if */
1482:/home/simulink/cFS_FreeRTOS_seL4/cfe/fsw/cfe-core/src/es/cfe_es_task.c **** 
1483:/home/simulink/cFS_FreeRTOS_seL4/cfe/fsw/cfe-core/src/es/cfe_es_task.c ****                 FileSize += Result;
 3152               	.loc 1 1483 0
 3153 1910 202F 00B4 	move.l 180(%sp),%d0
 3154 1914 D1AF 00C4 	add.l %d0,196(%sp)
1484:/home/simulink/cFS_FreeRTOS_seL4/cfe/fsw/cfe-core/src/es/cfe_es_task.c ****                 EntryCount ++;
 3155               	.loc 1 1484 0
 3156 1918 52AF 00C8 	addq.l #1,200(%sp)
 3157               	.L135:
1455:/home/simulink/cFS_FreeRTOS_seL4/cfe/fsw/cfe-core/src/es/cfe_es_task.c ****           {
 3158               	.loc 1 1455 0 discriminator 2
68K GAS   			page 95


 3159 191c 52AF 00CC 	addq.l #1,204(%sp)
 3160               	.L134:
1455:/home/simulink/cFS_FreeRTOS_seL4/cfe/fsw/cfe-core/src/es/cfe_es_task.c ****           {
 3161               	.loc 1 1455 0 is_stmt 0 discriminator 1
 3162 1920 723F      	moveq #63,%d1
 3163 1922 B2AF 00CC 	cmp.l 204(%sp),%d1
 3164 1926 6400 FF20 	jcc .L137
1485:/home/simulink/cFS_FreeRTOS_seL4/cfe/fsw/cfe-core/src/es/cfe_es_task.c ****              }
1486:/home/simulink/cFS_FreeRTOS_seL4/cfe/fsw/cfe-core/src/es/cfe_es_task.c ****             
1487:/home/simulink/cFS_FreeRTOS_seL4/cfe/fsw/cfe-core/src/es/cfe_es_task.c ****           } /* end for */
1488:/home/simulink/cFS_FreeRTOS_seL4/cfe/fsw/cfe-core/src/es/cfe_es_task.c **** 
1489:/home/simulink/cFS_FreeRTOS_seL4/cfe/fsw/cfe-core/src/es/cfe_es_task.c ****           OS_close(FileDescriptor);
 3165               	.loc 1 1489 0 is_stmt 1
 3166 192a 2F2F 00B8 	move.l 184(%sp),-(%sp)
 3167               	.cfi_def_cfa_offset 216
 3168 192e 4EB9 0000 	jsr OS_close
 3168      0000 
 3169 1934 588F      	addq.l #4,%sp
 3170               	.cfi_def_cfa_offset 212
1490:/home/simulink/cFS_FreeRTOS_seL4/cfe/fsw/cfe-core/src/es/cfe_es_task.c ****           CFE_ES_TaskData.CmdCounter++;
 3171               	.loc 1 1490 0
 3172 1936 1039 0000 	move.b CFE_ES_TaskData,%d0
 3172      0000 
 3173 193c 5280      	addq.l #1,%d0
 3174 193e 1000      	move.b %d0,%d0
 3175 1940 13C0 0000 	move.b %d0,CFE_ES_TaskData
 3175      0000 
1491:/home/simulink/cFS_FreeRTOS_seL4/cfe/fsw/cfe-core/src/es/cfe_es_task.c ****           CFE_EVS_SendEvent(CFE_ES_TASKINFO_EID, CFE_EVS_DEBUG,
 3176               	.loc 1 1491 0
 3177 1946 222F 00C4 	move.l 196(%sp),%d1
 3178 194a 202F 00C8 	move.l 200(%sp),%d0
 3179 194e 2F01      	move.l %d1,-(%sp)
 3180               	.cfi_def_cfa_offset 216
 3181 1950 2F00      	move.l %d0,-(%sp)
 3182               	.cfi_def_cfa_offset 220
 3183 1952 200F      	move.l %sp,%d0
 3184 1954 5080      	addq.l #8,%d0
 3185 1956 2F00      	move.l %d0,-(%sp)
 3186               	.cfi_def_cfa_offset 224
 3187 1958 4879 0000 	pea .LC48
 3187      0000 
 3188               	.cfi_def_cfa_offset 228
 3189 195e 4878 0001 	pea 1.w
 3190               	.cfi_def_cfa_offset 232
 3191 1962 4878 0057 	pea 87.w
 3192               	.cfi_def_cfa_offset 236
 3193 1966 4EB9 0000 	jsr CFE_EVS_SendEvent
 3193      0000 
 3194 196c 4FEF 0018 	lea (24,%sp),%sp
 3195               	.cfi_def_cfa_offset 212
1492:/home/simulink/cFS_FreeRTOS_seL4/cfe/fsw/cfe-core/src/es/cfe_es_task.c ****                         "Task Info file written to %s, Entries=%d, FileSize=%d",
1493:/home/simulink/cFS_FreeRTOS_seL4/cfe/fsw/cfe-core/src/es/cfe_es_task.c ****                       QueryAllFilename,(int)EntryCount,(int)FileSize);
1494:/home/simulink/cFS_FreeRTOS_seL4/cfe/fsw/cfe-core/src/es/cfe_es_task.c ****        }
1495:/home/simulink/cFS_FreeRTOS_seL4/cfe/fsw/cfe-core/src/es/cfe_es_task.c ****        else
1496:/home/simulink/cFS_FreeRTOS_seL4/cfe/fsw/cfe-core/src/es/cfe_es_task.c ****        {
1497:/home/simulink/cFS_FreeRTOS_seL4/cfe/fsw/cfe-core/src/es/cfe_es_task.c ****            CFE_ES_TaskData.ErrCounter++;
1498:/home/simulink/cFS_FreeRTOS_seL4/cfe/fsw/cfe-core/src/es/cfe_es_task.c ****            CFE_EVS_SendEvent(CFE_ES_TASKINFO_OSCREATE_ERR_EID, CFE_EVS_ERROR,
68K GAS   			page 96


1499:/home/simulink/cFS_FreeRTOS_seL4/cfe/fsw/cfe-core/src/es/cfe_es_task.c ****            "Failed to write Task Info file, OS_creat RC = 0x%08X",(unsigned int)FileDescriptor);
1500:/home/simulink/cFS_FreeRTOS_seL4/cfe/fsw/cfe-core/src/es/cfe_es_task.c ****        }
1501:/home/simulink/cFS_FreeRTOS_seL4/cfe/fsw/cfe-core/src/es/cfe_es_task.c ****        
1502:/home/simulink/cFS_FreeRTOS_seL4/cfe/fsw/cfe-core/src/es/cfe_es_task.c ****     } /* end if verify command length */
1503:/home/simulink/cFS_FreeRTOS_seL4/cfe/fsw/cfe-core/src/es/cfe_es_task.c ****     return;
 3196               	.loc 1 1503 0
 3197 1970 6030      	jra .L139
 3198               	.L131:
1497:/home/simulink/cFS_FreeRTOS_seL4/cfe/fsw/cfe-core/src/es/cfe_es_task.c ****            CFE_EVS_SendEvent(CFE_ES_TASKINFO_OSCREATE_ERR_EID, CFE_EVS_ERROR,
 3199               	.loc 1 1497 0
 3200 1972 1039 0000 	move.b CFE_ES_TaskData+1,%d0
 3200      0000 
 3201 1978 5280      	addq.l #1,%d0
 3202 197a 1000      	move.b %d0,%d0
 3203 197c 13C0 0000 	move.b %d0,CFE_ES_TaskData+1
 3203      0000 
1498:/home/simulink/cFS_FreeRTOS_seL4/cfe/fsw/cfe-core/src/es/cfe_es_task.c ****            "Failed to write Task Info file, OS_creat RC = 0x%08X",(unsigned int)FileDescriptor);
 3204               	.loc 1 1498 0
 3205 1982 202F 00B8 	move.l 184(%sp),%d0
 3206 1986 2F00      	move.l %d0,-(%sp)
 3207               	.cfi_def_cfa_offset 216
 3208 1988 4879 0000 	pea .LC49
 3208      0000 
 3209               	.cfi_def_cfa_offset 220
 3210 198e 4878 0003 	pea 3.w
 3211               	.cfi_def_cfa_offset 224
 3212 1992 4878 0058 	pea 88.w
 3213               	.cfi_def_cfa_offset 228
 3214 1996 4EB9 0000 	jsr CFE_EVS_SendEvent
 3214      0000 
 3215 199c 4FEF 0010 	lea (16,%sp),%sp
 3216               	.cfi_def_cfa_offset 212
 3217               	.loc 1 1503 0
 3218 19a0 4E71      	nop
 3219               	.L139:
 3220 19a2 4E71      	nop
 3221               	.L128:
1504:/home/simulink/cFS_FreeRTOS_seL4/cfe/fsw/cfe-core/src/es/cfe_es_task.c **** 
1505:/home/simulink/cFS_FreeRTOS_seL4/cfe/fsw/cfe-core/src/es/cfe_es_task.c **** } /* End of CFE_ES_QueryAllTasksCmd() */
 3222               	.loc 1 1505 0
 3223 19a4 4FEF 00D0 	lea (208,%sp),%sp
 3224 19a8 4E75      	rts
 3225               	.cfi_endproc
 3226               	.LFE73:
 3227               	.sizeCFE_ES_QueryAllTasksCmd, .-CFE_ES_QueryAllTasksCmd
 3228               	.section.rodata
 3229               	.LC50:
 3230 08b5 436C 6561 	.string"Cleared Executive Services log data"
 3230      7265 6420 
 3230      4578 6563 
 3230      7574 6976 
 3230      6520 5365 
 3231               	.text
 3232               	.align2
 3233               	.globlCFE_ES_ClearSyslogCmd
 3234               	.typeCFE_ES_ClearSyslogCmd, @function
 3235               	CFE_ES_ClearSyslogCmd:
68K GAS   			page 97


 3236               	.LFB74:
1506:/home/simulink/cFS_FreeRTOS_seL4/cfe/fsw/cfe-core/src/es/cfe_es_task.c **** 
1507:/home/simulink/cFS_FreeRTOS_seL4/cfe/fsw/cfe-core/src/es/cfe_es_task.c **** 
1508:/home/simulink/cFS_FreeRTOS_seL4/cfe/fsw/cfe-core/src/es/cfe_es_task.c **** /* * * * * * * * * * * * * * * * * * * * * * * * * * * * * * * * * */
1509:/home/simulink/cFS_FreeRTOS_seL4/cfe/fsw/cfe-core/src/es/cfe_es_task.c **** /*                                                                 */
1510:/home/simulink/cFS_FreeRTOS_seL4/cfe/fsw/cfe-core/src/es/cfe_es_task.c **** /* CFE_ES_ClearSyslogCmd() -- Clear executive services system log  */
1511:/home/simulink/cFS_FreeRTOS_seL4/cfe/fsw/cfe-core/src/es/cfe_es_task.c **** /*                                                                 */
1512:/home/simulink/cFS_FreeRTOS_seL4/cfe/fsw/cfe-core/src/es/cfe_es_task.c **** /* * * * * * * * * * * * * * * * * * * * * * * * * * * * * * * * * */
1513:/home/simulink/cFS_FreeRTOS_seL4/cfe/fsw/cfe-core/src/es/cfe_es_task.c **** 
1514:/home/simulink/cFS_FreeRTOS_seL4/cfe/fsw/cfe-core/src/es/cfe_es_task.c **** void CFE_ES_ClearSyslogCmd(CFE_SB_MsgPtr_t Msg)
1515:/home/simulink/cFS_FreeRTOS_seL4/cfe/fsw/cfe-core/src/es/cfe_es_task.c **** {
 3237               	.loc 1 1515 0
 3238               	.cfi_startproc
 3239 19aa 598F      	subq.l #4,%sp
 3240               	.cfi_def_cfa_offset 8
1516:/home/simulink/cFS_FreeRTOS_seL4/cfe/fsw/cfe-core/src/es/cfe_es_task.c ****     uint16 ExpectedLength = sizeof(CFE_ES_NoArgsCmd_t);
 3241               	.loc 1 1516 0
 3242 19ac 7008      	moveq #8,%d0
 3243 19ae 3F40 0002 	move.w %d0,2(%sp)
1517:/home/simulink/cFS_FreeRTOS_seL4/cfe/fsw/cfe-core/src/es/cfe_es_task.c **** 
1518:/home/simulink/cFS_FreeRTOS_seL4/cfe/fsw/cfe-core/src/es/cfe_es_task.c ****     /*
1519:/home/simulink/cFS_FreeRTOS_seL4/cfe/fsw/cfe-core/src/es/cfe_es_task.c ****     ** Verify command packet length.
1520:/home/simulink/cFS_FreeRTOS_seL4/cfe/fsw/cfe-core/src/es/cfe_es_task.c ****     */
1521:/home/simulink/cFS_FreeRTOS_seL4/cfe/fsw/cfe-core/src/es/cfe_es_task.c ****     if (CFE_ES_VerifyCmdLength(Msg, ExpectedLength))
 3244               	.loc 1 1521 0
 3245 19b2 4280      	clr.l %d0
 3246 19b4 302F 0002 	move.w 2(%sp),%d0
 3247 19b8 2F00      	move.l %d0,-(%sp)
 3248               	.cfi_def_cfa_offset 12
 3249 19ba 2F2F 000C 	move.l 12(%sp),-(%sp)
 3250               	.cfi_def_cfa_offset 16
 3251 19be 4EB9 0000 	jsr CFE_ES_VerifyCmdLength
 3251      0000 
 3252 19c4 508F      	addq.l #8,%sp
 3253               	.cfi_def_cfa_offset 8
 3254 19c6 4A00      	tst.b %d0
 3255 19c8 672E      	jeq .L142
1522:/home/simulink/cFS_FreeRTOS_seL4/cfe/fsw/cfe-core/src/es/cfe_es_task.c ****     {
1523:/home/simulink/cFS_FreeRTOS_seL4/cfe/fsw/cfe-core/src/es/cfe_es_task.c **** 
1524:/home/simulink/cFS_FreeRTOS_seL4/cfe/fsw/cfe-core/src/es/cfe_es_task.c ****         /*
1525:/home/simulink/cFS_FreeRTOS_seL4/cfe/fsw/cfe-core/src/es/cfe_es_task.c ****         ** Clear syslog index and memory area
1526:/home/simulink/cFS_FreeRTOS_seL4/cfe/fsw/cfe-core/src/es/cfe_es_task.c ****         */
1527:/home/simulink/cFS_FreeRTOS_seL4/cfe/fsw/cfe-core/src/es/cfe_es_task.c ****         CFE_ES_SysLogClear();
 3256               	.loc 1 1527 0
 3257 19ca 4EB9 0000 	jsr CFE_ES_SysLogClear
 3257      0000 
1528:/home/simulink/cFS_FreeRTOS_seL4/cfe/fsw/cfe-core/src/es/cfe_es_task.c **** 
1529:/home/simulink/cFS_FreeRTOS_seL4/cfe/fsw/cfe-core/src/es/cfe_es_task.c ****         /*
1530:/home/simulink/cFS_FreeRTOS_seL4/cfe/fsw/cfe-core/src/es/cfe_es_task.c ****         ** This command will always succeed...
1531:/home/simulink/cFS_FreeRTOS_seL4/cfe/fsw/cfe-core/src/es/cfe_es_task.c ****         */
1532:/home/simulink/cFS_FreeRTOS_seL4/cfe/fsw/cfe-core/src/es/cfe_es_task.c ****         CFE_ES_TaskData.CmdCounter++;
 3258               	.loc 1 1532 0
 3259 19d0 1039 0000 	move.b CFE_ES_TaskData,%d0
 3259      0000 
 3260 19d6 5280      	addq.l #1,%d0
 3261 19d8 1000      	move.b %d0,%d0
 3262 19da 13C0 0000 	move.b %d0,CFE_ES_TaskData
68K GAS   			page 98


 3262      0000 
1533:/home/simulink/cFS_FreeRTOS_seL4/cfe/fsw/cfe-core/src/es/cfe_es_task.c ****         CFE_EVS_SendEvent(CFE_ES_SYSLOG1_INF_EID, CFE_EVS_INFORMATION,
 3263               	.loc 1 1533 0
 3264 19e0 4879 0000 	pea .LC50
 3264      0000 
 3265               	.cfi_def_cfa_offset 12
 3266 19e6 4878 0002 	pea 2.w
 3267               	.cfi_def_cfa_offset 16
 3268 19ea 4878 0011 	pea 17.w
 3269               	.cfi_def_cfa_offset 20
 3270 19ee 4EB9 0000 	jsr CFE_EVS_SendEvent
 3270      0000 
 3271 19f4 4FEF 000C 	lea (12,%sp),%sp
 3272               	.cfi_def_cfa_offset 8
 3273               	.L142:
1534:/home/simulink/cFS_FreeRTOS_seL4/cfe/fsw/cfe-core/src/es/cfe_es_task.c ****                          "Cleared Executive Services log data");
1535:/home/simulink/cFS_FreeRTOS_seL4/cfe/fsw/cfe-core/src/es/cfe_es_task.c ****     }
1536:/home/simulink/cFS_FreeRTOS_seL4/cfe/fsw/cfe-core/src/es/cfe_es_task.c **** 
1537:/home/simulink/cFS_FreeRTOS_seL4/cfe/fsw/cfe-core/src/es/cfe_es_task.c **** } /* End of CFE_ES_ClearSyslogCmd() */
 3274               	.loc 1 1537 0
 3275 19f8 4E71      	nop
 3276 19fa 588F      	addq.l #4,%sp
 3277 19fc 4E75      	rts
 3278               	.cfi_endproc
 3279               	.LFE74:
 3280               	.sizeCFE_ES_ClearSyslogCmd, .-CFE_ES_ClearSyslogCmd
 3281               	.section.rodata
 3282               	.LC51:
 3283 08d9 5365 7420 	.string"Set OverWriteSysLog Command: Invalid Mode setting = %d"
 3283      4F76 6572 
 3283      5772 6974 
 3283      6553 7973 
 3283      4C6F 6720 
 3284               	.LC52:
 3285 0910 5365 7420 	.string"Set OverWriteSysLog Command Received with Mode setting = %d"
 3285      4F76 6572 
 3285      5772 6974 
 3285      6553 7973 
 3285      4C6F 6720 
 3286               	.text
 3287               	.align2
 3288               	.globlCFE_ES_OverWriteSyslogCmd
 3289               	.typeCFE_ES_OverWriteSyslogCmd, @function
 3290               	CFE_ES_OverWriteSyslogCmd:
 3291               	.LFB75:
1538:/home/simulink/cFS_FreeRTOS_seL4/cfe/fsw/cfe-core/src/es/cfe_es_task.c **** 
1539:/home/simulink/cFS_FreeRTOS_seL4/cfe/fsw/cfe-core/src/es/cfe_es_task.c **** /* * * * * * * * * * * * * * * * * * * * * * * * * * * * * * * * * */
1540:/home/simulink/cFS_FreeRTOS_seL4/cfe/fsw/cfe-core/src/es/cfe_es_task.c **** /*                                                                 */
1541:/home/simulink/cFS_FreeRTOS_seL4/cfe/fsw/cfe-core/src/es/cfe_es_task.c **** /* CFE_ES_OverWriteSyslogCmd() -- set syslog mode                  */
1542:/home/simulink/cFS_FreeRTOS_seL4/cfe/fsw/cfe-core/src/es/cfe_es_task.c **** /*                                                                 */
1543:/home/simulink/cFS_FreeRTOS_seL4/cfe/fsw/cfe-core/src/es/cfe_es_task.c **** /* * * * * * * * * * * * * * * * * * * * * * * * * * * * * * * * * */
1544:/home/simulink/cFS_FreeRTOS_seL4/cfe/fsw/cfe-core/src/es/cfe_es_task.c **** 
1545:/home/simulink/cFS_FreeRTOS_seL4/cfe/fsw/cfe-core/src/es/cfe_es_task.c **** void CFE_ES_OverWriteSyslogCmd(CFE_SB_MsgPtr_t Msg)
1546:/home/simulink/cFS_FreeRTOS_seL4/cfe/fsw/cfe-core/src/es/cfe_es_task.c **** {
 3292               	.loc 1 1546 0
 3293               	.cfi_startproc
 3294 19fe 4FEF FFF4 	lea (-12,%sp),%sp
68K GAS   			page 99


 3295               	.cfi_def_cfa_offset 16
1547:/home/simulink/cFS_FreeRTOS_seL4/cfe/fsw/cfe-core/src/es/cfe_es_task.c ****    uint32                        Status = 0;
 3296               	.loc 1 1547 0
 3297 1a02 42AF 0008 	clr.l 8(%sp)
1548:/home/simulink/cFS_FreeRTOS_seL4/cfe/fsw/cfe-core/src/es/cfe_es_task.c ****    CFE_ES_OverWriteSysLogCmd_Payload_t *CmdPtr = (CFE_ES_OverWriteSysLogCmd_Payload_t *)&Msg->Byte[
 3298               	.loc 1 1548 0
 3299 1a06 202F 0010 	move.l 16(%sp),%d0
 3300 1a0a 5080      	addq.l #8,%d0
 3301 1a0c 2F40 0004 	move.l %d0,4(%sp)
1549:/home/simulink/cFS_FreeRTOS_seL4/cfe/fsw/cfe-core/src/es/cfe_es_task.c ****    uint16                        ExpectedLength = sizeof(CFE_ES_OverWriteSysLogCmd_t);
 3302               	.loc 1 1549 0
 3303 1a10 700C      	moveq #12,%d0
 3304 1a12 3F40 0002 	move.w %d0,2(%sp)
1550:/home/simulink/cFS_FreeRTOS_seL4/cfe/fsw/cfe-core/src/es/cfe_es_task.c **** 
1551:/home/simulink/cFS_FreeRTOS_seL4/cfe/fsw/cfe-core/src/es/cfe_es_task.c ****     /*
1552:/home/simulink/cFS_FreeRTOS_seL4/cfe/fsw/cfe-core/src/es/cfe_es_task.c ****     ** Verify command packet length.
1553:/home/simulink/cFS_FreeRTOS_seL4/cfe/fsw/cfe-core/src/es/cfe_es_task.c ****     */
1554:/home/simulink/cFS_FreeRTOS_seL4/cfe/fsw/cfe-core/src/es/cfe_es_task.c ****     if (CFE_ES_VerifyCmdLength(Msg, ExpectedLength))
 3305               	.loc 1 1554 0
 3306 1a16 4280      	clr.l %d0
 3307 1a18 302F 0002 	move.w 2(%sp),%d0
 3308 1a1c 2F00      	move.l %d0,-(%sp)
 3309               	.cfi_def_cfa_offset 20
 3310 1a1e 2F2F 0014 	move.l 20(%sp),-(%sp)
 3311               	.cfi_def_cfa_offset 24
 3312 1a22 4EB9 0000 	jsr CFE_ES_VerifyCmdLength
 3312      0000 
 3313 1a28 508F      	addq.l #8,%sp
 3314               	.cfi_def_cfa_offset 16
 3315 1a2a 4A00      	tst.b %d0
 3316 1a2c 677C      	jeq .L146
1555:/home/simulink/cFS_FreeRTOS_seL4/cfe/fsw/cfe-core/src/es/cfe_es_task.c ****     {
1556:/home/simulink/cFS_FreeRTOS_seL4/cfe/fsw/cfe-core/src/es/cfe_es_task.c **** 
1557:/home/simulink/cFS_FreeRTOS_seL4/cfe/fsw/cfe-core/src/es/cfe_es_task.c ****       Status = CFE_ES_SysLogOverwrite(CmdPtr->Mode);
 3317               	.loc 1 1557 0
 3318 1a2e 206F 0004 	move.l 4(%sp),%a0
 3319 1a32 2010      	move.l (%a0),%d0
 3320 1a34 2F00      	move.l %d0,-(%sp)
 3321               	.cfi_def_cfa_offset 20
 3322 1a36 4EB9 0000 	jsr CFE_ES_SysLogOverwrite
 3322      0000 
 3323 1a3c 588F      	addq.l #4,%sp
 3324               	.cfi_def_cfa_offset 16
 3325 1a3e 2F40 0008 	move.l %d0,8(%sp)
1558:/home/simulink/cFS_FreeRTOS_seL4/cfe/fsw/cfe-core/src/es/cfe_es_task.c **** 
1559:/home/simulink/cFS_FreeRTOS_seL4/cfe/fsw/cfe-core/src/es/cfe_es_task.c ****       if (Status == FALSE)
 3326               	.loc 1 1559 0
 3327 1a42 4AAF 0008 	tst.l 8(%sp)
 3328 1a46 6632      	jne .L145
1560:/home/simulink/cFS_FreeRTOS_seL4/cfe/fsw/cfe-core/src/es/cfe_es_task.c ****       {
1561:/home/simulink/cFS_FreeRTOS_seL4/cfe/fsw/cfe-core/src/es/cfe_es_task.c ****          CFE_EVS_SendEvent(CFE_ES_ERR_SYSLOGMODE_EID,
1562:/home/simulink/cFS_FreeRTOS_seL4/cfe/fsw/cfe-core/src/es/cfe_es_task.c ****                            CFE_EVS_ERROR,
1563:/home/simulink/cFS_FreeRTOS_seL4/cfe/fsw/cfe-core/src/es/cfe_es_task.c ****                         "Set OverWriteSysLog Command: Invalid Mode setting = %d", (int)CmdPtr->Mode
 3329               	.loc 1 1563 0
 3330 1a48 206F 0004 	move.l 4(%sp),%a0
 3331 1a4c 2010      	move.l (%a0),%d0
1561:/home/simulink/cFS_FreeRTOS_seL4/cfe/fsw/cfe-core/src/es/cfe_es_task.c ****                            CFE_EVS_ERROR,
68K GAS   			page 100


 3332               	.loc 1 1561 0
 3333 1a4e 2F00      	move.l %d0,-(%sp)
 3334               	.cfi_def_cfa_offset 20
 3335 1a50 4879 0000 	pea .LC51
 3335      0000 
 3336               	.cfi_def_cfa_offset 24
 3337 1a56 4878 0003 	pea 3.w
 3338               	.cfi_def_cfa_offset 28
 3339 1a5a 4878 0047 	pea 71.w
 3340               	.cfi_def_cfa_offset 32
 3341 1a5e 4EB9 0000 	jsr CFE_EVS_SendEvent
 3341      0000 
 3342 1a64 4FEF 0010 	lea (16,%sp),%sp
 3343               	.cfi_def_cfa_offset 16
1564:/home/simulink/cFS_FreeRTOS_seL4/cfe/fsw/cfe-core/src/es/cfe_es_task.c ****                            
1565:/home/simulink/cFS_FreeRTOS_seL4/cfe/fsw/cfe-core/src/es/cfe_es_task.c ****          CFE_ES_TaskData.ErrCounter++;      
 3344               	.loc 1 1565 0
 3345 1a68 1039 0000 	move.b CFE_ES_TaskData+1,%d0
 3345      0000 
 3346 1a6e 5280      	addq.l #1,%d0
 3347 1a70 1000      	move.b %d0,%d0
 3348 1a72 13C0 0000 	move.b %d0,CFE_ES_TaskData+1
 3348      0000 
1566:/home/simulink/cFS_FreeRTOS_seL4/cfe/fsw/cfe-core/src/es/cfe_es_task.c ****       }
1567:/home/simulink/cFS_FreeRTOS_seL4/cfe/fsw/cfe-core/src/es/cfe_es_task.c ****       else
1568:/home/simulink/cFS_FreeRTOS_seL4/cfe/fsw/cfe-core/src/es/cfe_es_task.c ****       {
1569:/home/simulink/cFS_FreeRTOS_seL4/cfe/fsw/cfe-core/src/es/cfe_es_task.c ****          CFE_EVS_SendEvent(CFE_ES_SYSLOGMODE_EID,
1570:/home/simulink/cFS_FreeRTOS_seL4/cfe/fsw/cfe-core/src/es/cfe_es_task.c ****                            CFE_EVS_DEBUG,
1571:/home/simulink/cFS_FreeRTOS_seL4/cfe/fsw/cfe-core/src/es/cfe_es_task.c ****                         "Set OverWriteSysLog Command Received with Mode setting = %d", (int)CmdPtr-
1572:/home/simulink/cFS_FreeRTOS_seL4/cfe/fsw/cfe-core/src/es/cfe_es_task.c ****                            
1573:/home/simulink/cFS_FreeRTOS_seL4/cfe/fsw/cfe-core/src/es/cfe_es_task.c ****          CFE_ES_TaskData.CmdCounter++;
1574:/home/simulink/cFS_FreeRTOS_seL4/cfe/fsw/cfe-core/src/es/cfe_es_task.c ****       }
1575:/home/simulink/cFS_FreeRTOS_seL4/cfe/fsw/cfe-core/src/es/cfe_es_task.c **** 
1576:/home/simulink/cFS_FreeRTOS_seL4/cfe/fsw/cfe-core/src/es/cfe_es_task.c ****    } /* end if verify command length */
1577:/home/simulink/cFS_FreeRTOS_seL4/cfe/fsw/cfe-core/src/es/cfe_es_task.c ****    
1578:/home/simulink/cFS_FreeRTOS_seL4/cfe/fsw/cfe-core/src/es/cfe_es_task.c **** } /* End CFE_ES_OverWriteSyslogCmd() */
 3349               	.loc 1 1578 0
 3350 1a78 6030      	jra .L146
 3351               	.L145:
1571:/home/simulink/cFS_FreeRTOS_seL4/cfe/fsw/cfe-core/src/es/cfe_es_task.c ****                            
 3352               	.loc 1 1571 0
 3353 1a7a 206F 0004 	move.l 4(%sp),%a0
 3354 1a7e 2010      	move.l (%a0),%d0
1569:/home/simulink/cFS_FreeRTOS_seL4/cfe/fsw/cfe-core/src/es/cfe_es_task.c ****                            CFE_EVS_DEBUG,
 3355               	.loc 1 1569 0
 3356 1a80 2F00      	move.l %d0,-(%sp)
 3357               	.cfi_def_cfa_offset 20
 3358 1a82 4879 0000 	pea .LC52
 3358      0000 
 3359               	.cfi_def_cfa_offset 24
 3360 1a88 4878 0001 	pea 1.w
 3361               	.cfi_def_cfa_offset 28
 3362 1a8c 4878 0046 	pea 70.w
 3363               	.cfi_def_cfa_offset 32
 3364 1a90 4EB9 0000 	jsr CFE_EVS_SendEvent
 3364      0000 
 3365 1a96 4FEF 0010 	lea (16,%sp),%sp
68K GAS   			page 101


 3366               	.cfi_def_cfa_offset 16
1573:/home/simulink/cFS_FreeRTOS_seL4/cfe/fsw/cfe-core/src/es/cfe_es_task.c ****       }
 3367               	.loc 1 1573 0
 3368 1a9a 1039 0000 	move.b CFE_ES_TaskData,%d0
 3368      0000 
 3369 1aa0 5280      	addq.l #1,%d0
 3370 1aa2 1000      	move.b %d0,%d0
 3371 1aa4 13C0 0000 	move.b %d0,CFE_ES_TaskData
 3371      0000 
 3372               	.L146:
 3373               	.loc 1 1578 0
 3374 1aaa 4E71      	nop
 3375 1aac 4FEF 000C 	lea (12,%sp),%sp
 3376 1ab0 4E75      	rts
 3377               	.cfi_endproc
 3378               	.LFE75:
 3379               	.sizeCFE_ES_OverWriteSyslogCmd, .-CFE_ES_OverWriteSyslogCmd
 3380               	.align2
 3381               	.globlCFE_ES_SysLogClear
 3382               	.typeCFE_ES_SysLogClear, @function
 3383               	CFE_ES_SysLogClear:
 3384               	.LFB76:
1579:/home/simulink/cFS_FreeRTOS_seL4/cfe/fsw/cfe-core/src/es/cfe_es_task.c **** 
1580:/home/simulink/cFS_FreeRTOS_seL4/cfe/fsw/cfe-core/src/es/cfe_es_task.c **** /* * * * * * * * * * * * * * * * * * * * * * * * * * * * * * * * * */
1581:/home/simulink/cFS_FreeRTOS_seL4/cfe/fsw/cfe-core/src/es/cfe_es_task.c **** /*                                                                 */
1582:/home/simulink/cFS_FreeRTOS_seL4/cfe/fsw/cfe-core/src/es/cfe_es_task.c **** /* CFE_ES_SysLogClear -- Clear system log & index                  */
1583:/home/simulink/cFS_FreeRTOS_seL4/cfe/fsw/cfe-core/src/es/cfe_es_task.c **** /*                                                                 */
1584:/home/simulink/cFS_FreeRTOS_seL4/cfe/fsw/cfe-core/src/es/cfe_es_task.c **** /* * * * * * * * * * * * * * * * * * * * * * * * * * * * * * * * * */
1585:/home/simulink/cFS_FreeRTOS_seL4/cfe/fsw/cfe-core/src/es/cfe_es_task.c **** 
1586:/home/simulink/cFS_FreeRTOS_seL4/cfe/fsw/cfe-core/src/es/cfe_es_task.c **** void CFE_ES_SysLogClear(void)
1587:/home/simulink/cFS_FreeRTOS_seL4/cfe/fsw/cfe-core/src/es/cfe_es_task.c **** {
 3385               	.loc 1 1587 0
 3386               	.cfi_startproc
1588:/home/simulink/cFS_FreeRTOS_seL4/cfe/fsw/cfe-core/src/es/cfe_es_task.c ****     /*
1589:/home/simulink/cFS_FreeRTOS_seL4/cfe/fsw/cfe-core/src/es/cfe_es_task.c ****     ** Clear SysLog data buffer
1590:/home/simulink/cFS_FreeRTOS_seL4/cfe/fsw/cfe-core/src/es/cfe_es_task.c ****     */
1591:/home/simulink/cFS_FreeRTOS_seL4/cfe/fsw/cfe-core/src/es/cfe_es_task.c ****     CFE_PSP_MemSet(CFE_ES_ResetDataPtr->SystemLog, 0, CFE_ES_SYSTEM_LOG_SIZE);
 3387               	.loc 1 1591 0
 3388 1ab2 2039 0000 	move.l CFE_ES_ResetDataPtr,%d0
 3388      0000 
 3389 1ab8 0680 0000 	add.l #5292,%d0
 3389      14AC 
 3390 1abe 4878 0C00 	pea 3072.w
 3391               	.cfi_def_cfa_offset 8
 3392 1ac2 42A7      	clr.l -(%sp)
 3393               	.cfi_def_cfa_offset 12
 3394 1ac4 2F00      	move.l %d0,-(%sp)
 3395               	.cfi_def_cfa_offset 16
 3396 1ac6 4EB9 0000 	jsr CFE_PSP_MemSet
 3396      0000 
 3397 1acc 4FEF 000C 	lea (12,%sp),%sp
 3398               	.cfi_def_cfa_offset 4
1592:/home/simulink/cFS_FreeRTOS_seL4/cfe/fsw/cfe-core/src/es/cfe_es_task.c **** 
1593:/home/simulink/cFS_FreeRTOS_seL4/cfe/fsw/cfe-core/src/es/cfe_es_task.c ****     /*
1594:/home/simulink/cFS_FreeRTOS_seL4/cfe/fsw/cfe-core/src/es/cfe_es_task.c ****     ** Initialize SysLog index & Entry Count
1595:/home/simulink/cFS_FreeRTOS_seL4/cfe/fsw/cfe-core/src/es/cfe_es_task.c ****     */
1596:/home/simulink/cFS_FreeRTOS_seL4/cfe/fsw/cfe-core/src/es/cfe_es_task.c ****     CFE_ES_ResetDataPtr->SystemLogIndex = 0;
68K GAS   			page 102


 3399               	.loc 1 1596 0
 3400 1ad0 2079 0000 	move.l CFE_ES_ResetDataPtr,%a0
 3400      0000 
 3401 1ad6 42A8 20AC 	clr.l 8364(%a0)
1597:/home/simulink/cFS_FreeRTOS_seL4/cfe/fsw/cfe-core/src/es/cfe_es_task.c ****     CFE_ES_ResetDataPtr->SystemLogEntryNum = 0;
 3402               	.loc 1 1597 0
 3403 1ada 2079 0000 	move.l CFE_ES_ResetDataPtr,%a0
 3403      0000 
 3404 1ae0 42A8 20B4 	clr.l 8372(%a0)
1598:/home/simulink/cFS_FreeRTOS_seL4/cfe/fsw/cfe-core/src/es/cfe_es_task.c **** 
1599:/home/simulink/cFS_FreeRTOS_seL4/cfe/fsw/cfe-core/src/es/cfe_es_task.c **** } /* End of CFE_ES_SysLogClear() */
 3405               	.loc 1 1599 0
 3406 1ae4 4E71      	nop
 3407 1ae6 4E75      	rts
 3408               	.cfi_endproc
 3409               	.LFE76:
 3410               	.sizeCFE_ES_SysLogClear, .-CFE_ES_SysLogClear
 3411               	.section.rodata
 3412               	.LC53:
 3413 094c 2F72 616D 	.string"/ram/cfe_es_syslog.log"
 3413      2F63 6665 
 3413      5F65 735F 
 3413      7379 736C 
 3413      6F67 2E6C 
 3414               	.text
 3415               	.align2
 3416               	.globlCFE_ES_WriteSyslogCmd
 3417               	.typeCFE_ES_WriteSyslogCmd, @function
 3418               	CFE_ES_WriteSyslogCmd:
 3419               	.LFB77:
1600:/home/simulink/cFS_FreeRTOS_seL4/cfe/fsw/cfe-core/src/es/cfe_es_task.c **** 
1601:/home/simulink/cFS_FreeRTOS_seL4/cfe/fsw/cfe-core/src/es/cfe_es_task.c **** 
1602:/home/simulink/cFS_FreeRTOS_seL4/cfe/fsw/cfe-core/src/es/cfe_es_task.c **** /* * * * * * * * * * * * * * * * * * * * * * * * * * * * * * * * * * * * */
1603:/home/simulink/cFS_FreeRTOS_seL4/cfe/fsw/cfe-core/src/es/cfe_es_task.c **** /*                                                                       */
1604:/home/simulink/cFS_FreeRTOS_seL4/cfe/fsw/cfe-core/src/es/cfe_es_task.c **** /* CFE_ES_WriteSyslogCmd() -- Process Cmd to write ES System Log to file */
1605:/home/simulink/cFS_FreeRTOS_seL4/cfe/fsw/cfe-core/src/es/cfe_es_task.c **** /*                                                                       */
1606:/home/simulink/cFS_FreeRTOS_seL4/cfe/fsw/cfe-core/src/es/cfe_es_task.c **** /* * * * * * * * * * * * * * * * * * * * * * * * * * * * * * * * * * * * */
1607:/home/simulink/cFS_FreeRTOS_seL4/cfe/fsw/cfe-core/src/es/cfe_es_task.c **** 
1608:/home/simulink/cFS_FreeRTOS_seL4/cfe/fsw/cfe-core/src/es/cfe_es_task.c **** void CFE_ES_WriteSyslogCmd(CFE_SB_MsgPtr_t Msg)
1609:/home/simulink/cFS_FreeRTOS_seL4/cfe/fsw/cfe-core/src/es/cfe_es_task.c **** {
 3420               	.loc 1 1609 0
 3421               	.cfi_startproc
 3422 1ae8 4FEF FFB4 	lea (-76,%sp),%sp
 3423               	.cfi_def_cfa_offset 80
1610:/home/simulink/cFS_FreeRTOS_seL4/cfe/fsw/cfe-core/src/es/cfe_es_task.c ****     CFE_ES_WriteSyslogCmd_Payload_t *CmdPtr = (CFE_ES_WriteSyslogCmd_Payload_t *)&Msg->Byte[CFE_SB_
 3424               	.loc 1 1610 0
 3425 1aec 202F 0050 	move.l 80(%sp),%d0
 3426 1af0 5080      	addq.l #8,%d0
 3427 1af2 2F40 0048 	move.l %d0,72(%sp)
1611:/home/simulink/cFS_FreeRTOS_seL4/cfe/fsw/cfe-core/src/es/cfe_es_task.c ****     int32                     Stat;
1612:/home/simulink/cFS_FreeRTOS_seL4/cfe/fsw/cfe-core/src/es/cfe_es_task.c ****     uint16                    ExpectedLength = sizeof(CFE_ES_WriteSyslogCmd_t);
 3428               	.loc 1 1612 0
 3429 1af6 7048      	moveq #72,%d0
 3430 1af8 3F40 0046 	move.w %d0,70(%sp)
1613:/home/simulink/cFS_FreeRTOS_seL4/cfe/fsw/cfe-core/src/es/cfe_es_task.c ****     char                      LogFilename[OS_MAX_PATH_LEN];
1614:/home/simulink/cFS_FreeRTOS_seL4/cfe/fsw/cfe-core/src/es/cfe_es_task.c **** 
1615:/home/simulink/cFS_FreeRTOS_seL4/cfe/fsw/cfe-core/src/es/cfe_es_task.c ****     /*
68K GAS   			page 103


1616:/home/simulink/cFS_FreeRTOS_seL4/cfe/fsw/cfe-core/src/es/cfe_es_task.c ****     ** Verify command packet length.
1617:/home/simulink/cFS_FreeRTOS_seL4/cfe/fsw/cfe-core/src/es/cfe_es_task.c ****     */
1618:/home/simulink/cFS_FreeRTOS_seL4/cfe/fsw/cfe-core/src/es/cfe_es_task.c ****     if (CFE_ES_VerifyCmdLength(Msg, ExpectedLength))
 3431               	.loc 1 1618 0
 3432 1afc 4280      	clr.l %d0
 3433 1afe 302F 0046 	move.w 70(%sp),%d0
 3434 1b02 2F00      	move.l %d0,-(%sp)
 3435               	.cfi_def_cfa_offset 84
 3436 1b04 2F2F 0054 	move.l 84(%sp),-(%sp)
 3437               	.cfi_def_cfa_offset 88
 3438 1b08 4EB9 0000 	jsr CFE_ES_VerifyCmdLength
 3438      0000 
 3439 1b0e 508F      	addq.l #8,%sp
 3440               	.cfi_def_cfa_offset 80
 3441 1b10 4A00      	tst.b %d0
 3442 1b12 6760      	jeq .L151
1619:/home/simulink/cFS_FreeRTOS_seL4/cfe/fsw/cfe-core/src/es/cfe_es_task.c ****     {
1620:/home/simulink/cFS_FreeRTOS_seL4/cfe/fsw/cfe-core/src/es/cfe_es_task.c ****        CFE_SB_MessageStringGet(LogFilename, (char *)CmdPtr->SysLogFileName,
 3443               	.loc 1 1620 0
 3444 1b14 202F 0048 	move.l 72(%sp),%d0
 3445 1b18 4878 0040 	pea 64.w
 3446               	.cfi_def_cfa_offset 84
 3447 1b1c 4878 0040 	pea 64.w
 3448               	.cfi_def_cfa_offset 88
 3449 1b20 4879 0000 	pea .LC53
 3449      0000 
 3450               	.cfi_def_cfa_offset 92
 3451 1b26 2F00      	move.l %d0,-(%sp)
 3452               	.cfi_def_cfa_offset 96
 3453 1b28 200F      	move.l %sp,%d0
 3454 1b2a 0680 0000 	add.l #16,%d0
 3454      0010 
 3455 1b30 2F00      	move.l %d0,-(%sp)
 3456               	.cfi_def_cfa_offset 100
 3457 1b32 4EB9 0000 	jsr CFE_SB_MessageStringGet
 3457      0000 
 3458 1b38 4FEF 0014 	lea (20,%sp),%sp
 3459               	.cfi_def_cfa_offset 80
1621:/home/simulink/cFS_FreeRTOS_seL4/cfe/fsw/cfe-core/src/es/cfe_es_task.c ****                CFE_ES_DEFAULT_SYSLOG_FILE, OS_MAX_PATH_LEN, sizeof(CmdPtr->SysLogFileName));
1622:/home/simulink/cFS_FreeRTOS_seL4/cfe/fsw/cfe-core/src/es/cfe_es_task.c **** 
1623:/home/simulink/cFS_FreeRTOS_seL4/cfe/fsw/cfe-core/src/es/cfe_es_task.c ****        Stat = CFE_ES_SysLogDump(LogFilename);
 3460               	.loc 1 1623 0
 3461 1b3c 200F      	move.l %sp,%d0
 3462 1b3e 2F00      	move.l %d0,-(%sp)
 3463               	.cfi_def_cfa_offset 84
 3464 1b40 4EB9 0000 	jsr CFE_ES_SysLogDump
 3464      0000 
 3465 1b46 588F      	addq.l #4,%sp
 3466               	.cfi_def_cfa_offset 80
 3467 1b48 2F40 0040 	move.l %d0,64(%sp)
1624:/home/simulink/cFS_FreeRTOS_seL4/cfe/fsw/cfe-core/src/es/cfe_es_task.c ****          
1625:/home/simulink/cFS_FreeRTOS_seL4/cfe/fsw/cfe-core/src/es/cfe_es_task.c ****        if(Stat == CFE_SUCCESS)
 3468               	.loc 1 1625 0
 3469 1b4c 4AAF 0040 	tst.l 64(%sp)
 3470 1b50 6612      	jne .L150
1626:/home/simulink/cFS_FreeRTOS_seL4/cfe/fsw/cfe-core/src/es/cfe_es_task.c ****        {
1627:/home/simulink/cFS_FreeRTOS_seL4/cfe/fsw/cfe-core/src/es/cfe_es_task.c ****            CFE_ES_TaskData.CmdCounter++;
68K GAS   			page 104


 3471               	.loc 1 1627 0
 3472 1b52 1039 0000 	move.b CFE_ES_TaskData,%d0
 3472      0000 
 3473 1b58 5280      	addq.l #1,%d0
 3474 1b5a 1000      	move.b %d0,%d0
 3475 1b5c 13C0 0000 	move.b %d0,CFE_ES_TaskData
 3475      0000 
1628:/home/simulink/cFS_FreeRTOS_seL4/cfe/fsw/cfe-core/src/es/cfe_es_task.c ****        }
1629:/home/simulink/cFS_FreeRTOS_seL4/cfe/fsw/cfe-core/src/es/cfe_es_task.c ****        else
1630:/home/simulink/cFS_FreeRTOS_seL4/cfe/fsw/cfe-core/src/es/cfe_es_task.c ****        {
1631:/home/simulink/cFS_FreeRTOS_seL4/cfe/fsw/cfe-core/src/es/cfe_es_task.c ****            CFE_ES_TaskData.ErrCounter++;
1632:/home/simulink/cFS_FreeRTOS_seL4/cfe/fsw/cfe-core/src/es/cfe_es_task.c ****        }/* end if */
1633:/home/simulink/cFS_FreeRTOS_seL4/cfe/fsw/cfe-core/src/es/cfe_es_task.c **** 
1634:/home/simulink/cFS_FreeRTOS_seL4/cfe/fsw/cfe-core/src/es/cfe_es_task.c ****    } /* end if command length verify */
1635:/home/simulink/cFS_FreeRTOS_seL4/cfe/fsw/cfe-core/src/es/cfe_es_task.c ****    
1636:/home/simulink/cFS_FreeRTOS_seL4/cfe/fsw/cfe-core/src/es/cfe_es_task.c **** }/* end CFE_ES_WriteSyslogCmd */
 3476               	.loc 1 1636 0
 3477 1b62 6010      	jra .L151
 3478               	.L150:
1631:/home/simulink/cFS_FreeRTOS_seL4/cfe/fsw/cfe-core/src/es/cfe_es_task.c ****        }/* end if */
 3479               	.loc 1 1631 0
 3480 1b64 1039 0000 	move.b CFE_ES_TaskData+1,%d0
 3480      0000 
 3481 1b6a 5280      	addq.l #1,%d0
 3482 1b6c 1000      	move.b %d0,%d0
 3483 1b6e 13C0 0000 	move.b %d0,CFE_ES_TaskData+1
 3483      0000 
 3484               	.L151:
 3485               	.loc 1 1636 0
 3486 1b74 4E71      	nop
 3487 1b76 4FEF 004C 	lea (76,%sp),%sp
 3488 1b7a 4E75      	rts
 3489               	.cfi_endproc
 3490               	.LFE77:
 3491               	.sizeCFE_ES_WriteSyslogCmd, .-CFE_ES_WriteSyslogCmd
 3492               	.section.rodata
 3493               	.LC54:
 3494 0963 4572 726F 	.string"Error creating file %s, RC = 0x%08X"
 3494      7220 6372 
 3494      6561 7469 
 3494      6E67 2066 
 3494      696C 6520 
 3495               	.LC55:
 3496 0987 4553 2073 	.string"ES system log data file"
 3496      7973 7465 
 3496      6D20 6C6F 
 3496      6720 6461 
 3496      7461 2066 
 3497               	.LC56:
 3498 099f 2573 2077 	.string"%s written:Size=%d,Entries=%d"
 3498      7269 7474 
 3498      656E 3A53 
 3498      697A 653D 
 3498      2564 2C45 
 3499               	.text
 3500               	.align2
 3501               	.globlCFE_ES_SysLogDump
68K GAS   			page 105


 3502               	.typeCFE_ES_SysLogDump, @function
 3503               	CFE_ES_SysLogDump:
 3504               	.LFB78:
1637:/home/simulink/cFS_FreeRTOS_seL4/cfe/fsw/cfe-core/src/es/cfe_es_task.c **** 
1638:/home/simulink/cFS_FreeRTOS_seL4/cfe/fsw/cfe-core/src/es/cfe_es_task.c **** 
1639:/home/simulink/cFS_FreeRTOS_seL4/cfe/fsw/cfe-core/src/es/cfe_es_task.c **** /* * * * * * * * * * * * * * * * * * * * * * * * * * * * * * * * * */
1640:/home/simulink/cFS_FreeRTOS_seL4/cfe/fsw/cfe-core/src/es/cfe_es_task.c **** /*                                                                 */
1641:/home/simulink/cFS_FreeRTOS_seL4/cfe/fsw/cfe-core/src/es/cfe_es_task.c **** /* CFE_ES_SysLogDump() -- Write ES System Log to a file.    */
1642:/home/simulink/cFS_FreeRTOS_seL4/cfe/fsw/cfe-core/src/es/cfe_es_task.c **** /*                                                                 */
1643:/home/simulink/cFS_FreeRTOS_seL4/cfe/fsw/cfe-core/src/es/cfe_es_task.c **** /* * * * * * * * * * * * * * * * * * * * * * * * * * * * * * * * * */
1644:/home/simulink/cFS_FreeRTOS_seL4/cfe/fsw/cfe-core/src/es/cfe_es_task.c **** int32 CFE_ES_SysLogDump(const char *Filename)
1645:/home/simulink/cFS_FreeRTOS_seL4/cfe/fsw/cfe-core/src/es/cfe_es_task.c **** {
 3505               	.loc 1 1645 0
 3506               	.cfi_startproc
 3507 1b7c 4FEF FFB4 	lea (-76,%sp),%sp
 3508               	.cfi_def_cfa_offset 80
1646:/home/simulink/cFS_FreeRTOS_seL4/cfe/fsw/cfe-core/src/es/cfe_es_task.c ****     int32   fd;
1647:/home/simulink/cFS_FreeRTOS_seL4/cfe/fsw/cfe-core/src/es/cfe_es_task.c ****     int32   WriteStat;
1648:/home/simulink/cFS_FreeRTOS_seL4/cfe/fsw/cfe-core/src/es/cfe_es_task.c ****     uint32  FileSize;
1649:/home/simulink/cFS_FreeRTOS_seL4/cfe/fsw/cfe-core/src/es/cfe_es_task.c ****     CFE_FS_Header_t FileHdr;
1650:/home/simulink/cFS_FreeRTOS_seL4/cfe/fsw/cfe-core/src/es/cfe_es_task.c **** 
1651:/home/simulink/cFS_FreeRTOS_seL4/cfe/fsw/cfe-core/src/es/cfe_es_task.c ****     fd = OS_creat(Filename, OS_WRITE_ONLY);
 3509               	.loc 1 1651 0
 3510 1b80 4878 0001 	pea 1.w
 3511               	.cfi_def_cfa_offset 84
 3512 1b84 2F2F 0054 	move.l 84(%sp),-(%sp)
 3513               	.cfi_def_cfa_offset 88
 3514 1b88 4EB9 0000 	jsr OS_creat
 3514      0000 
 3515 1b8e 508F      	addq.l #8,%sp
 3516               	.cfi_def_cfa_offset 80
 3517 1b90 2F40 0048 	move.l %d0,72(%sp)
1652:/home/simulink/cFS_FreeRTOS_seL4/cfe/fsw/cfe-core/src/es/cfe_es_task.c ****     if(fd < 0)
 3518               	.loc 1 1652 0
 3519 1b94 4AAF 0048 	tst.l 72(%sp)
 3520 1b98 6C2C      	jge .L153
1653:/home/simulink/cFS_FreeRTOS_seL4/cfe/fsw/cfe-core/src/es/cfe_es_task.c ****     {
1654:/home/simulink/cFS_FreeRTOS_seL4/cfe/fsw/cfe-core/src/es/cfe_es_task.c ****         CFE_EVS_SendEvent(CFE_ES_SYSLOG2_ERR_EID,CFE_EVS_ERROR,
 3521               	.loc 1 1654 0
 3522 1b9a 202F 0048 	move.l 72(%sp),%d0
 3523 1b9e 2F00      	move.l %d0,-(%sp)
 3524               	.cfi_def_cfa_offset 84
 3525 1ba0 2F2F 0054 	move.l 84(%sp),-(%sp)
 3526               	.cfi_def_cfa_offset 88
 3527 1ba4 4879 0000 	pea .LC54
 3527      0000 
 3528               	.cfi_def_cfa_offset 92
 3529 1baa 4878 0003 	pea 3.w
 3530               	.cfi_def_cfa_offset 96
 3531 1bae 4878 0037 	pea 55.w
 3532               	.cfi_def_cfa_offset 100
 3533 1bb2 4EB9 0000 	jsr CFE_EVS_SendEvent
 3533      0000 
 3534 1bb8 4FEF 0014 	lea (20,%sp),%sp
 3535               	.cfi_def_cfa_offset 80
1655:/home/simulink/cFS_FreeRTOS_seL4/cfe/fsw/cfe-core/src/es/cfe_es_task.c ****                       "Error creating file %s, RC = 0x%08X",
1656:/home/simulink/cFS_FreeRTOS_seL4/cfe/fsw/cfe-core/src/es/cfe_es_task.c ****                       Filename,(unsigned int)fd);
68K GAS   			page 106


1657:/home/simulink/cFS_FreeRTOS_seL4/cfe/fsw/cfe-core/src/es/cfe_es_task.c ****         return CFE_ES_FILE_IO_ERR;
 3536               	.loc 1 1657 0
 3537 1bbc 203C C400 	move.l #-1006632940,%d0
 3537      0014 
 3538 1bc2 6000 010A 	jra .L157
 3539               	.L153:
1658:/home/simulink/cFS_FreeRTOS_seL4/cfe/fsw/cfe-core/src/es/cfe_es_task.c ****     }/* end if */
1659:/home/simulink/cFS_FreeRTOS_seL4/cfe/fsw/cfe-core/src/es/cfe_es_task.c **** 
1660:/home/simulink/cFS_FreeRTOS_seL4/cfe/fsw/cfe-core/src/es/cfe_es_task.c ****     CFE_FS_InitHeader(&FileHdr, CFE_ES_SYS_LOG_DESC, CFE_FS_ES_SYSLOG_SUBTYPE);
 3540               	.loc 1 1660 0
 3541 1bc6 4878 0002 	pea 2.w
 3542               	.cfi_def_cfa_offset 84
 3543 1bca 4879 0000 	pea .LC55
 3543      0000 
 3544               	.cfi_def_cfa_offset 88
 3545 1bd0 200F      	move.l %sp,%d0
 3546 1bd2 5080      	addq.l #8,%d0
 3547 1bd4 2F00      	move.l %d0,-(%sp)
 3548               	.cfi_def_cfa_offset 92
 3549 1bd6 4EB9 0000 	jsr CFE_FS_InitHeader
 3549      0000 
 3550 1bdc 4FEF 000C 	lea (12,%sp),%sp
 3551               	.cfi_def_cfa_offset 80
1661:/home/simulink/cFS_FreeRTOS_seL4/cfe/fsw/cfe-core/src/es/cfe_es_task.c **** 
1662:/home/simulink/cFS_FreeRTOS_seL4/cfe/fsw/cfe-core/src/es/cfe_es_task.c ****     WriteStat = CFE_FS_WriteHeader(fd, &FileHdr);
 3552               	.loc 1 1662 0
 3553 1be0 200F      	move.l %sp,%d0
 3554 1be2 2F00      	move.l %d0,-(%sp)
 3555               	.cfi_def_cfa_offset 84
 3556 1be4 2F2F 004C 	move.l 76(%sp),-(%sp)
 3557               	.cfi_def_cfa_offset 88
 3558 1be8 4EB9 0000 	jsr CFE_FS_WriteHeader
 3558      0000 
 3559 1bee 508F      	addq.l #8,%sp
 3560               	.cfi_def_cfa_offset 80
 3561 1bf0 2F40 0044 	move.l %d0,68(%sp)
1663:/home/simulink/cFS_FreeRTOS_seL4/cfe/fsw/cfe-core/src/es/cfe_es_task.c ****     if(WriteStat != sizeof(CFE_FS_Header_t))
 3562               	.loc 1 1663 0
 3563 1bf4 7040      	moveq #64,%d0
 3564 1bf6 B0AF 0044 	cmp.l 68(%sp),%d0
 3565 1bfa 672E      	jeq .L155
1664:/home/simulink/cFS_FreeRTOS_seL4/cfe/fsw/cfe-core/src/es/cfe_es_task.c ****     {
1665:/home/simulink/cFS_FreeRTOS_seL4/cfe/fsw/cfe-core/src/es/cfe_es_task.c ****         CFE_ES_FileWriteByteCntErr(Filename,sizeof(CFE_FS_Header_t),WriteStat);
 3566               	.loc 1 1665 0
 3567 1bfc 202F 0044 	move.l 68(%sp),%d0
 3568 1c00 2F00      	move.l %d0,-(%sp)
 3569               	.cfi_def_cfa_offset 84
 3570 1c02 4878 0040 	pea 64.w
 3571               	.cfi_def_cfa_offset 88
 3572 1c06 2F2F 0058 	move.l 88(%sp),-(%sp)
 3573               	.cfi_def_cfa_offset 92
 3574 1c0a 4EB9 0000 	jsr CFE_ES_FileWriteByteCntErr
 3574      0000 
 3575 1c10 4FEF 000C 	lea (12,%sp),%sp
 3576               	.cfi_def_cfa_offset 80
1666:/home/simulink/cFS_FreeRTOS_seL4/cfe/fsw/cfe-core/src/es/cfe_es_task.c ****         OS_close(fd);
 3577               	.loc 1 1666 0
68K GAS   			page 107


 3578 1c14 2F2F 0048 	move.l 72(%sp),-(%sp)
 3579               	.cfi_def_cfa_offset 84
 3580 1c18 4EB9 0000 	jsr OS_close
 3580      0000 
 3581 1c1e 588F      	addq.l #4,%sp
 3582               	.cfi_def_cfa_offset 80
1667:/home/simulink/cFS_FreeRTOS_seL4/cfe/fsw/cfe-core/src/es/cfe_es_task.c ****         return CFE_ES_FILE_IO_ERR;
 3583               	.loc 1 1667 0
 3584 1c20 203C C400 	move.l #-1006632940,%d0
 3584      0014 
 3585 1c26 6000 00A6 	jra .L157
 3586               	.L155:
1668:/home/simulink/cFS_FreeRTOS_seL4/cfe/fsw/cfe-core/src/es/cfe_es_task.c ****     }/* end if */
1669:/home/simulink/cFS_FreeRTOS_seL4/cfe/fsw/cfe-core/src/es/cfe_es_task.c **** 
1670:/home/simulink/cFS_FreeRTOS_seL4/cfe/fsw/cfe-core/src/es/cfe_es_task.c ****     FileSize = WriteStat;
 3587               	.loc 1 1670 0
 3588 1c2a 2F6F 0044 	move.l 68(%sp),64(%sp)
 3588      0040 
1671:/home/simulink/cFS_FreeRTOS_seL4/cfe/fsw/cfe-core/src/es/cfe_es_task.c **** 
1672:/home/simulink/cFS_FreeRTOS_seL4/cfe/fsw/cfe-core/src/es/cfe_es_task.c ****     /* need to take semaphore here */
1673:/home/simulink/cFS_FreeRTOS_seL4/cfe/fsw/cfe-core/src/es/cfe_es_task.c **** 
1674:/home/simulink/cFS_FreeRTOS_seL4/cfe/fsw/cfe-core/src/es/cfe_es_task.c ****     WriteStat = OS_write(fd,CFE_ES_ResetDataPtr->SystemLog,CFE_ES_SYSTEM_LOG_SIZE);
 3589               	.loc 1 1674 0
 3590 1c30 2039 0000 	move.l CFE_ES_ResetDataPtr,%d0
 3590      0000 
 3591 1c36 0680 0000 	add.l #5292,%d0
 3591      14AC 
 3592 1c3c 4878 0C00 	pea 3072.w
 3593               	.cfi_def_cfa_offset 84
 3594 1c40 2F00      	move.l %d0,-(%sp)
 3595               	.cfi_def_cfa_offset 88
 3596 1c42 2F2F 0050 	move.l 80(%sp),-(%sp)
 3597               	.cfi_def_cfa_offset 92
 3598 1c46 4EB9 0000 	jsr OS_write
 3598      0000 
 3599 1c4c 4FEF 000C 	lea (12,%sp),%sp
 3600               	.cfi_def_cfa_offset 80
 3601 1c50 2F40 0044 	move.l %d0,68(%sp)
1675:/home/simulink/cFS_FreeRTOS_seL4/cfe/fsw/cfe-core/src/es/cfe_es_task.c ****     if(WriteStat != CFE_ES_SYSTEM_LOG_SIZE)
 3602               	.loc 1 1675 0
 3603 1c54 203C 0000 	move.l #3072,%d0
 3603      0C00 
 3604 1c5a B0AF 0044 	cmp.l 68(%sp),%d0
 3605 1c5e 672C      	jeq .L156
1676:/home/simulink/cFS_FreeRTOS_seL4/cfe/fsw/cfe-core/src/es/cfe_es_task.c ****     {
1677:/home/simulink/cFS_FreeRTOS_seL4/cfe/fsw/cfe-core/src/es/cfe_es_task.c ****         CFE_ES_FileWriteByteCntErr(Filename,CFE_ES_SYSTEM_LOG_SIZE,WriteStat);
 3606               	.loc 1 1677 0
 3607 1c60 202F 0044 	move.l 68(%sp),%d0
 3608 1c64 2F00      	move.l %d0,-(%sp)
 3609               	.cfi_def_cfa_offset 84
 3610 1c66 4878 0C00 	pea 3072.w
 3611               	.cfi_def_cfa_offset 88
 3612 1c6a 2F2F 0058 	move.l 88(%sp),-(%sp)
 3613               	.cfi_def_cfa_offset 92
 3614 1c6e 4EB9 0000 	jsr CFE_ES_FileWriteByteCntErr
 3614      0000 
 3615 1c74 4FEF 000C 	lea (12,%sp),%sp
68K GAS   			page 108


 3616               	.cfi_def_cfa_offset 80
1678:/home/simulink/cFS_FreeRTOS_seL4/cfe/fsw/cfe-core/src/es/cfe_es_task.c ****         OS_close(fd);
 3617               	.loc 1 1678 0
 3618 1c78 2F2F 0048 	move.l 72(%sp),-(%sp)
 3619               	.cfi_def_cfa_offset 84
 3620 1c7c 4EB9 0000 	jsr OS_close
 3620      0000 
 3621 1c82 588F      	addq.l #4,%sp
 3622               	.cfi_def_cfa_offset 80
1679:/home/simulink/cFS_FreeRTOS_seL4/cfe/fsw/cfe-core/src/es/cfe_es_task.c ****         return CFE_ES_FILE_IO_ERR;
 3623               	.loc 1 1679 0
 3624 1c84 203C C400 	move.l #-1006632940,%d0
 3624      0014 
 3625 1c8a 6042      	jra .L157
 3626               	.L156:
1680:/home/simulink/cFS_FreeRTOS_seL4/cfe/fsw/cfe-core/src/es/cfe_es_task.c ****     }/* end if */
1681:/home/simulink/cFS_FreeRTOS_seL4/cfe/fsw/cfe-core/src/es/cfe_es_task.c **** 
1682:/home/simulink/cFS_FreeRTOS_seL4/cfe/fsw/cfe-core/src/es/cfe_es_task.c ****     /* need to release the semaphore here */
1683:/home/simulink/cFS_FreeRTOS_seL4/cfe/fsw/cfe-core/src/es/cfe_es_task.c **** 
1684:/home/simulink/cFS_FreeRTOS_seL4/cfe/fsw/cfe-core/src/es/cfe_es_task.c ****     FileSize += WriteStat;    
 3627               	.loc 1 1684 0
 3628 1c8c 202F 0044 	move.l 68(%sp),%d0
 3629 1c90 D1AF 0040 	add.l %d0,64(%sp)
1685:/home/simulink/cFS_FreeRTOS_seL4/cfe/fsw/cfe-core/src/es/cfe_es_task.c ****     
1686:/home/simulink/cFS_FreeRTOS_seL4/cfe/fsw/cfe-core/src/es/cfe_es_task.c ****     OS_close(fd);
 3630               	.loc 1 1686 0
 3631 1c94 2F2F 0048 	move.l 72(%sp),-(%sp)
 3632               	.cfi_def_cfa_offset 84
 3633 1c98 4EB9 0000 	jsr OS_close
 3633      0000 
 3634 1c9e 588F      	addq.l #4,%sp
 3635               	.cfi_def_cfa_offset 80
1687:/home/simulink/cFS_FreeRTOS_seL4/cfe/fsw/cfe-core/src/es/cfe_es_task.c **** 
1688:/home/simulink/cFS_FreeRTOS_seL4/cfe/fsw/cfe-core/src/es/cfe_es_task.c ****     CFE_EVS_SendEvent(CFE_ES_SYSLOG2_EID, CFE_EVS_DEBUG,
1689:/home/simulink/cFS_FreeRTOS_seL4/cfe/fsw/cfe-core/src/es/cfe_es_task.c ****                       "%s written:Size=%d,Entries=%d",Filename,(int)FileSize,
1690:/home/simulink/cFS_FreeRTOS_seL4/cfe/fsw/cfe-core/src/es/cfe_es_task.c ****                       (int)CFE_ES_TaskData.HkPacket.Payload.SysLogEntries);
 3636               	.loc 1 1690 0
 3637 1ca0 2039 0000 	move.l CFE_ES_TaskData+36,%d0
 3637      0000 
1688:/home/simulink/cFS_FreeRTOS_seL4/cfe/fsw/cfe-core/src/es/cfe_es_task.c ****                       "%s written:Size=%d,Entries=%d",Filename,(int)FileSize,
 3638               	.loc 1 1688 0
 3639 1ca6 2200      	move.l %d0,%d1
 3640 1ca8 202F 0040 	move.l 64(%sp),%d0
 3641 1cac 2F01      	move.l %d1,-(%sp)
 3642               	.cfi_def_cfa_offset 84
 3643 1cae 2F00      	move.l %d0,-(%sp)
 3644               	.cfi_def_cfa_offset 88
 3645 1cb0 2F2F 0058 	move.l 88(%sp),-(%sp)
 3646               	.cfi_def_cfa_offset 92
 3647 1cb4 4879 0000 	pea .LC56
 3647      0000 
 3648               	.cfi_def_cfa_offset 96
 3649 1cba 4878 0001 	pea 1.w
 3650               	.cfi_def_cfa_offset 100
 3651 1cbe 4878 0012 	pea 18.w
 3652               	.cfi_def_cfa_offset 104
 3653 1cc2 4EB9 0000 	jsr CFE_EVS_SendEvent
68K GAS   			page 109


 3653      0000 
 3654 1cc8 4FEF 0018 	lea (24,%sp),%sp
 3655               	.cfi_def_cfa_offset 80
1691:/home/simulink/cFS_FreeRTOS_seL4/cfe/fsw/cfe-core/src/es/cfe_es_task.c **** 
1692:/home/simulink/cFS_FreeRTOS_seL4/cfe/fsw/cfe-core/src/es/cfe_es_task.c ****     return CFE_SUCCESS;
 3656               	.loc 1 1692 0
 3657 1ccc 4280      	clr.l %d0
 3658               	.L157:
1693:/home/simulink/cFS_FreeRTOS_seL4/cfe/fsw/cfe-core/src/es/cfe_es_task.c **** 
1694:/home/simulink/cFS_FreeRTOS_seL4/cfe/fsw/cfe-core/src/es/cfe_es_task.c **** } /* End of CFE_ES_SysLogDump() */
 3659               	.loc 1 1694 0 discriminator 1
 3660 1cce 4FEF 004C 	lea (76,%sp),%sp
 3661 1cd2 4E75      	rts
 3662               	.cfi_endproc
 3663               	.LFE78:
 3664               	.sizeCFE_ES_SysLogDump, .-CFE_ES_SysLogDump
 3665               	.align2
 3666               	.globlCFE_ES_SysLogOverwrite
 3667               	.typeCFE_ES_SysLogOverwrite, @function
 3668               	CFE_ES_SysLogOverwrite:
 3669               	.LFB79:
1695:/home/simulink/cFS_FreeRTOS_seL4/cfe/fsw/cfe-core/src/es/cfe_es_task.c **** 
1696:/home/simulink/cFS_FreeRTOS_seL4/cfe/fsw/cfe-core/src/es/cfe_es_task.c **** 
1697:/home/simulink/cFS_FreeRTOS_seL4/cfe/fsw/cfe-core/src/es/cfe_es_task.c **** 
1698:/home/simulink/cFS_FreeRTOS_seL4/cfe/fsw/cfe-core/src/es/cfe_es_task.c **** /*
1699:/home/simulink/cFS_FreeRTOS_seL4/cfe/fsw/cfe-core/src/es/cfe_es_task.c **** ** Function: CFE_ES_SysLogOverwrite
1700:/home/simulink/cFS_FreeRTOS_seL4/cfe/fsw/cfe-core/src/es/cfe_es_task.c **** **
1701:/home/simulink/cFS_FreeRTOS_seL4/cfe/fsw/cfe-core/src/es/cfe_es_task.c **** ** Purpose:  Set syslog write mode
1702:/home/simulink/cFS_FreeRTOS_seL4/cfe/fsw/cfe-core/src/es/cfe_es_task.c **** **
1703:/home/simulink/cFS_FreeRTOS_seL4/cfe/fsw/cfe-core/src/es/cfe_es_task.c **** */
1704:/home/simulink/cFS_FreeRTOS_seL4/cfe/fsw/cfe-core/src/es/cfe_es_task.c **** int32 CFE_ES_SysLogOverwrite(uint32 Mode )
1705:/home/simulink/cFS_FreeRTOS_seL4/cfe/fsw/cfe-core/src/es/cfe_es_task.c **** {
 3670               	.loc 1 1705 0
 3671               	.cfi_startproc
 3672 1cd4 598F      	subq.l #4,%sp
 3673               	.cfi_def_cfa_offset 8
1706:/home/simulink/cFS_FreeRTOS_seL4/cfe/fsw/cfe-core/src/es/cfe_es_task.c ****     uint32 Status = TRUE;
 3674               	.loc 1 1706 0
 3675 1cd6 2EBC 0000 	move.l #1,(%sp)
 3675      0001 
1707:/home/simulink/cFS_FreeRTOS_seL4/cfe/fsw/cfe-core/src/es/cfe_es_task.c **** 
1708:/home/simulink/cFS_FreeRTOS_seL4/cfe/fsw/cfe-core/src/es/cfe_es_task.c ****     if((Mode == CFE_ES_LOG_OVERWRITE) || (Mode == CFE_ES_LOG_DISCARD))
 3676               	.loc 1 1708 0
 3677 1cdc 4AAF 0008 	tst.l 8(%sp)
 3678 1ce0 6708      	jeq .L159
 3679               	.loc 1 1708 0 is_stmt 0 discriminator 1
 3680 1ce2 7001      	moveq #1,%d0
 3681 1ce4 B0AF 0008 	cmp.l 8(%sp),%d0
 3682 1ce8 660E      	jne .L160
 3683               	.L159:
1709:/home/simulink/cFS_FreeRTOS_seL4/cfe/fsw/cfe-core/src/es/cfe_es_task.c ****     {
1710:/home/simulink/cFS_FreeRTOS_seL4/cfe/fsw/cfe-core/src/es/cfe_es_task.c ****         CFE_ES_ResetDataPtr->SystemLogMode = Mode;
 3684               	.loc 1 1710 0 is_stmt 1
 3685 1cea 2079 0000 	move.l CFE_ES_ResetDataPtr,%a0
 3685      0000 
 3686 1cf0 216F 0008 	move.l 8(%sp),8368(%a0)
 3686      20B0 
68K GAS   			page 110


 3687 1cf6 6002      	jra .L161
 3688               	.L160:
1711:/home/simulink/cFS_FreeRTOS_seL4/cfe/fsw/cfe-core/src/es/cfe_es_task.c ****     }
1712:/home/simulink/cFS_FreeRTOS_seL4/cfe/fsw/cfe-core/src/es/cfe_es_task.c ****     else
1713:/home/simulink/cFS_FreeRTOS_seL4/cfe/fsw/cfe-core/src/es/cfe_es_task.c ****     {
1714:/home/simulink/cFS_FreeRTOS_seL4/cfe/fsw/cfe-core/src/es/cfe_es_task.c ****         Status = FALSE;
 3689               	.loc 1 1714 0
 3690 1cf8 4297      	clr.l (%sp)
 3691               	.L161:
1715:/home/simulink/cFS_FreeRTOS_seL4/cfe/fsw/cfe-core/src/es/cfe_es_task.c ****     }
1716:/home/simulink/cFS_FreeRTOS_seL4/cfe/fsw/cfe-core/src/es/cfe_es_task.c **** 
1717:/home/simulink/cFS_FreeRTOS_seL4/cfe/fsw/cfe-core/src/es/cfe_es_task.c ****     return Status;
 3692               	.loc 1 1717 0
 3693 1cfa 2017      	move.l (%sp),%d0
1718:/home/simulink/cFS_FreeRTOS_seL4/cfe/fsw/cfe-core/src/es/cfe_es_task.c **** }
 3694               	.loc 1 1718 0
 3695 1cfc 588F      	addq.l #4,%sp
 3696 1cfe 4E75      	rts
 3697               	.cfi_endproc
 3698               	.LFE79:
 3699               	.sizeCFE_ES_SysLogOverwrite, .-CFE_ES_SysLogOverwrite
 3700               	.section.rodata
 3701               	.LC57:
 3702 09bd 436C 6561 	.string"Cleared ES Exception and Reset Log data"
 3702      7265 6420 
 3702      4553 2045 
 3702      7863 6570 
 3702      7469 6F6E 
 3703               	.text
 3704               	.align2
 3705               	.globlCFE_ES_ClearERlogCmd
 3706               	.typeCFE_ES_ClearERlogCmd, @function
 3707               	CFE_ES_ClearERlogCmd:
 3708               	.LFB80:
1719:/home/simulink/cFS_FreeRTOS_seL4/cfe/fsw/cfe-core/src/es/cfe_es_task.c **** /* * * * * * * * * * * * * * * * * * * * * * * * * * * * * * * * * */
1720:/home/simulink/cFS_FreeRTOS_seL4/cfe/fsw/cfe-core/src/es/cfe_es_task.c **** /*                                                                 */
1721:/home/simulink/cFS_FreeRTOS_seL4/cfe/fsw/cfe-core/src/es/cfe_es_task.c **** /* CFE_ES_ClearERlogCmd() -- Clear The exception and reset log.    */
1722:/home/simulink/cFS_FreeRTOS_seL4/cfe/fsw/cfe-core/src/es/cfe_es_task.c **** /*                                                                 */
1723:/home/simulink/cFS_FreeRTOS_seL4/cfe/fsw/cfe-core/src/es/cfe_es_task.c **** /* * * * * * * * * * * * * * * * * * * * * * * * * * * * * * * * * */
1724:/home/simulink/cFS_FreeRTOS_seL4/cfe/fsw/cfe-core/src/es/cfe_es_task.c **** 
1725:/home/simulink/cFS_FreeRTOS_seL4/cfe/fsw/cfe-core/src/es/cfe_es_task.c **** void CFE_ES_ClearERlogCmd(CFE_SB_MsgPtr_t Msg)
1726:/home/simulink/cFS_FreeRTOS_seL4/cfe/fsw/cfe-core/src/es/cfe_es_task.c **** {
 3709               	.loc 1 1726 0
 3710               	.cfi_startproc
 3711 1d00 598F      	subq.l #4,%sp
 3712               	.cfi_def_cfa_offset 8
1727:/home/simulink/cFS_FreeRTOS_seL4/cfe/fsw/cfe-core/src/es/cfe_es_task.c ****     uint16 ExpectedLength = sizeof(CFE_ES_NoArgsCmd_t);
 3713               	.loc 1 1727 0
 3714 1d02 7008      	moveq #8,%d0
 3715 1d04 3F40 0002 	move.w %d0,2(%sp)
1728:/home/simulink/cFS_FreeRTOS_seL4/cfe/fsw/cfe-core/src/es/cfe_es_task.c **** 
1729:/home/simulink/cFS_FreeRTOS_seL4/cfe/fsw/cfe-core/src/es/cfe_es_task.c ****     /*
1730:/home/simulink/cFS_FreeRTOS_seL4/cfe/fsw/cfe-core/src/es/cfe_es_task.c ****     ** Verify command packet length
1731:/home/simulink/cFS_FreeRTOS_seL4/cfe/fsw/cfe-core/src/es/cfe_es_task.c ****     */
1732:/home/simulink/cFS_FreeRTOS_seL4/cfe/fsw/cfe-core/src/es/cfe_es_task.c ****     if (CFE_ES_VerifyCmdLength(Msg, ExpectedLength))
 3716               	.loc 1 1732 0
 3717 1d08 4280      	clr.l %d0
68K GAS   			page 111


 3718 1d0a 302F 0002 	move.w 2(%sp),%d0
 3719 1d0e 2F00      	move.l %d0,-(%sp)
 3720               	.cfi_def_cfa_offset 12
 3721 1d10 2F2F 000C 	move.l 12(%sp),-(%sp)
 3722               	.cfi_def_cfa_offset 16
 3723 1d14 4EB9 0000 	jsr CFE_ES_VerifyCmdLength
 3723      0000 
 3724 1d1a 508F      	addq.l #8,%sp
 3725               	.cfi_def_cfa_offset 8
 3726 1d1c 4A00      	tst.b %d0
 3727 1d1e 6754      	jeq .L165
1733:/home/simulink/cFS_FreeRTOS_seL4/cfe/fsw/cfe-core/src/es/cfe_es_task.c ****     {
1734:/home/simulink/cFS_FreeRTOS_seL4/cfe/fsw/cfe-core/src/es/cfe_es_task.c ****         /*
1735:/home/simulink/cFS_FreeRTOS_seL4/cfe/fsw/cfe-core/src/es/cfe_es_task.c ****         ** Clear ER log data buffer
1736:/home/simulink/cFS_FreeRTOS_seL4/cfe/fsw/cfe-core/src/es/cfe_es_task.c ****         */
1737:/home/simulink/cFS_FreeRTOS_seL4/cfe/fsw/cfe-core/src/es/cfe_es_task.c **** 
1738:/home/simulink/cFS_FreeRTOS_seL4/cfe/fsw/cfe-core/src/es/cfe_es_task.c ****         CFE_PSP_MemSet(CFE_ES_ResetDataPtr->ERLog, 0, sizeof(CFE_ES_ResetDataPtr->ERLog));
 3728               	.loc 1 1738 0
 3729 1d20 2039 0000 	move.l CFE_ES_ResetDataPtr,%d0
 3729      0000 
 3730 1d26 4878 14A0 	pea 5280.w
 3731               	.cfi_def_cfa_offset 12
 3732 1d2a 42A7      	clr.l -(%sp)
 3733               	.cfi_def_cfa_offset 16
 3734 1d2c 2F00      	move.l %d0,-(%sp)
 3735               	.cfi_def_cfa_offset 20
 3736 1d2e 4EB9 0000 	jsr CFE_PSP_MemSet
 3736      0000 
 3737 1d34 4FEF 000C 	lea (12,%sp),%sp
 3738               	.cfi_def_cfa_offset 8
1739:/home/simulink/cFS_FreeRTOS_seL4/cfe/fsw/cfe-core/src/es/cfe_es_task.c **** 
1740:/home/simulink/cFS_FreeRTOS_seL4/cfe/fsw/cfe-core/src/es/cfe_es_task.c ****         /*
1741:/home/simulink/cFS_FreeRTOS_seL4/cfe/fsw/cfe-core/src/es/cfe_es_task.c ****         ** Reset ER log buffer index
1742:/home/simulink/cFS_FreeRTOS_seL4/cfe/fsw/cfe-core/src/es/cfe_es_task.c ****         */
1743:/home/simulink/cFS_FreeRTOS_seL4/cfe/fsw/cfe-core/src/es/cfe_es_task.c **** 
1744:/home/simulink/cFS_FreeRTOS_seL4/cfe/fsw/cfe-core/src/es/cfe_es_task.c ****         CFE_ES_ResetDataPtr->ERLogIndex = 0;
 3739               	.loc 1 1744 0
 3740 1d38 2079 0000 	move.l CFE_ES_ResetDataPtr,%a0
 3740      0000 
 3741 1d3e 42A8 14A0 	clr.l 5280(%a0)
1745:/home/simulink/cFS_FreeRTOS_seL4/cfe/fsw/cfe-core/src/es/cfe_es_task.c ****         
1746:/home/simulink/cFS_FreeRTOS_seL4/cfe/fsw/cfe-core/src/es/cfe_es_task.c ****         /* 
1747:/home/simulink/cFS_FreeRTOS_seL4/cfe/fsw/cfe-core/src/es/cfe_es_task.c ****         ** Set Number of Entries in ER log buffer back to zero
1748:/home/simulink/cFS_FreeRTOS_seL4/cfe/fsw/cfe-core/src/es/cfe_es_task.c ****         */
1749:/home/simulink/cFS_FreeRTOS_seL4/cfe/fsw/cfe-core/src/es/cfe_es_task.c ****         CFE_ES_ResetDataPtr->ERLogEntries = 0;
 3742               	.loc 1 1749 0
 3743 1d42 2079 0000 	move.l CFE_ES_ResetDataPtr,%a0
 3743      0000 
 3744 1d48 42A8 14A4 	clr.l 5284(%a0)
1750:/home/simulink/cFS_FreeRTOS_seL4/cfe/fsw/cfe-core/src/es/cfe_es_task.c **** 
1751:/home/simulink/cFS_FreeRTOS_seL4/cfe/fsw/cfe-core/src/es/cfe_es_task.c ****         /*
1752:/home/simulink/cFS_FreeRTOS_seL4/cfe/fsw/cfe-core/src/es/cfe_es_task.c ****         ** This command will always succeed
1753:/home/simulink/cFS_FreeRTOS_seL4/cfe/fsw/cfe-core/src/es/cfe_es_task.c ****         */
1754:/home/simulink/cFS_FreeRTOS_seL4/cfe/fsw/cfe-core/src/es/cfe_es_task.c ****         CFE_ES_TaskData.CmdCounter++;
 3745               	.loc 1 1754 0
 3746 1d4c 1039 0000 	move.b CFE_ES_TaskData,%d0
 3746      0000 
68K GAS   			page 112


 3747 1d52 5280      	addq.l #1,%d0
 3748 1d54 1000      	move.b %d0,%d0
 3749 1d56 13C0 0000 	move.b %d0,CFE_ES_TaskData
 3749      0000 
1755:/home/simulink/cFS_FreeRTOS_seL4/cfe/fsw/cfe-core/src/es/cfe_es_task.c ****         CFE_EVS_SendEvent(CFE_ES_ERLOG1_INF_EID, CFE_EVS_INFORMATION,
 3750               	.loc 1 1755 0
 3751 1d5c 4879 0000 	pea .LC57
 3751      0000 
 3752               	.cfi_def_cfa_offset 12
 3753 1d62 4878 0002 	pea 2.w
 3754               	.cfi_def_cfa_offset 16
 3755 1d66 4878 0013 	pea 19.w
 3756               	.cfi_def_cfa_offset 20
 3757 1d6a 4EB9 0000 	jsr CFE_EVS_SendEvent
 3757      0000 
 3758 1d70 4FEF 000C 	lea (12,%sp),%sp
 3759               	.cfi_def_cfa_offset 8
 3760               	.L165:
1756:/home/simulink/cFS_FreeRTOS_seL4/cfe/fsw/cfe-core/src/es/cfe_es_task.c ****                          "Cleared ES Exception and Reset Log data");
1757:/home/simulink/cFS_FreeRTOS_seL4/cfe/fsw/cfe-core/src/es/cfe_es_task.c ****     }
1758:/home/simulink/cFS_FreeRTOS_seL4/cfe/fsw/cfe-core/src/es/cfe_es_task.c **** 
1759:/home/simulink/cFS_FreeRTOS_seL4/cfe/fsw/cfe-core/src/es/cfe_es_task.c **** } /* End of CFE_ES_ClearERlogCmd() */
 3761               	.loc 1 1759 0
 3762 1d74 4E71      	nop
 3763 1d76 588F      	addq.l #4,%sp
 3764 1d78 4E75      	rts
 3765               	.cfi_endproc
 3766               	.LFE80:
 3767               	.sizeCFE_ES_ClearERlogCmd, .-CFE_ES_ClearERlogCmd
 3768               	.section.rodata
 3769               	.LC58:
 3770 09e5 2F72 616D 	.string"/ram/cfe_erlog.log"
 3770      2F63 6665 
 3770      5F65 726C 
 3770      6F67 2E6C 
 3770      6F67 00
 3771               	.text
 3772               	.align2
 3773               	.globlCFE_ES_WriteERlogCmd
 3774               	.typeCFE_ES_WriteERlogCmd, @function
 3775               	CFE_ES_WriteERlogCmd:
 3776               	.LFB81:
1760:/home/simulink/cFS_FreeRTOS_seL4/cfe/fsw/cfe-core/src/es/cfe_es_task.c **** 
1761:/home/simulink/cFS_FreeRTOS_seL4/cfe/fsw/cfe-core/src/es/cfe_es_task.c **** /* * * * * * * * * * * * * * * * * * * * * * * * * * * * * * * * * */
1762:/home/simulink/cFS_FreeRTOS_seL4/cfe/fsw/cfe-core/src/es/cfe_es_task.c **** /*                                                                 */
1763:/home/simulink/cFS_FreeRTOS_seL4/cfe/fsw/cfe-core/src/es/cfe_es_task.c **** /* CFE_ES_WriteERlogCmd() -- Process Cmd to write exception & reset*/
1764:/home/simulink/cFS_FreeRTOS_seL4/cfe/fsw/cfe-core/src/es/cfe_es_task.c **** /*                           log to a file.                        */
1765:/home/simulink/cFS_FreeRTOS_seL4/cfe/fsw/cfe-core/src/es/cfe_es_task.c **** /* * * * * * * * * * * * * * * * * * * * * * * * * * * * * * * * * */
1766:/home/simulink/cFS_FreeRTOS_seL4/cfe/fsw/cfe-core/src/es/cfe_es_task.c **** 
1767:/home/simulink/cFS_FreeRTOS_seL4/cfe/fsw/cfe-core/src/es/cfe_es_task.c **** void CFE_ES_WriteERlogCmd(CFE_SB_MsgPtr_t Msg)
1768:/home/simulink/cFS_FreeRTOS_seL4/cfe/fsw/cfe-core/src/es/cfe_es_task.c **** {
 3777               	.loc 1 1768 0
 3778               	.cfi_startproc
 3779 1d7a 4FEF FFB4 	lea (-76,%sp),%sp
 3780               	.cfi_def_cfa_offset 80
1769:/home/simulink/cFS_FreeRTOS_seL4/cfe/fsw/cfe-core/src/es/cfe_es_task.c ****     CFE_ES_WriteERlogCmd_Payload_t *CmdPtr = (CFE_ES_WriteERlogCmd_Payload_t *)&Msg->Byte[CFE_SB_CM
 3781               	.loc 1 1769 0
68K GAS   			page 113


 3782 1d7e 202F 0050 	move.l 80(%sp),%d0
 3783 1d82 5080      	addq.l #8,%d0
 3784 1d84 2F40 0048 	move.l %d0,72(%sp)
1770:/home/simulink/cFS_FreeRTOS_seL4/cfe/fsw/cfe-core/src/es/cfe_es_task.c ****     int32                    Stat;
1771:/home/simulink/cFS_FreeRTOS_seL4/cfe/fsw/cfe-core/src/es/cfe_es_task.c ****     uint16                   ExpectedLength = sizeof(CFE_ES_WriteERlogCmd_t);
 3785               	.loc 1 1771 0
 3786 1d88 7048      	moveq #72,%d0
 3787 1d8a 3F40 0046 	move.w %d0,70(%sp)
1772:/home/simulink/cFS_FreeRTOS_seL4/cfe/fsw/cfe-core/src/es/cfe_es_task.c ****     char                     LogFilename[OS_MAX_PATH_LEN];
1773:/home/simulink/cFS_FreeRTOS_seL4/cfe/fsw/cfe-core/src/es/cfe_es_task.c **** 
1774:/home/simulink/cFS_FreeRTOS_seL4/cfe/fsw/cfe-core/src/es/cfe_es_task.c ****     /*
1775:/home/simulink/cFS_FreeRTOS_seL4/cfe/fsw/cfe-core/src/es/cfe_es_task.c ****     ** Verify command packet length
1776:/home/simulink/cFS_FreeRTOS_seL4/cfe/fsw/cfe-core/src/es/cfe_es_task.c ****     */
1777:/home/simulink/cFS_FreeRTOS_seL4/cfe/fsw/cfe-core/src/es/cfe_es_task.c ****     if (CFE_ES_VerifyCmdLength(Msg, ExpectedLength))
 3788               	.loc 1 1777 0
 3789 1d8e 4280      	clr.l %d0
 3790 1d90 302F 0046 	move.w 70(%sp),%d0
 3791 1d94 2F00      	move.l %d0,-(%sp)
 3792               	.cfi_def_cfa_offset 84
 3793 1d96 2F2F 0054 	move.l 84(%sp),-(%sp)
 3794               	.cfi_def_cfa_offset 88
 3795 1d9a 4EB9 0000 	jsr CFE_ES_VerifyCmdLength
 3795      0000 
 3796 1da0 508F      	addq.l #8,%sp
 3797               	.cfi_def_cfa_offset 80
 3798 1da2 4A00      	tst.b %d0
 3799 1da4 6760      	jeq .L169
1778:/home/simulink/cFS_FreeRTOS_seL4/cfe/fsw/cfe-core/src/es/cfe_es_task.c ****     {
1779:/home/simulink/cFS_FreeRTOS_seL4/cfe/fsw/cfe-core/src/es/cfe_es_task.c ****        CFE_SB_MessageStringGet(LogFilename, (char *)CmdPtr->ERLogFileName,
 3800               	.loc 1 1779 0
 3801 1da6 202F 0048 	move.l 72(%sp),%d0
 3802 1daa 4878 0040 	pea 64.w
 3803               	.cfi_def_cfa_offset 84
 3804 1dae 4878 0040 	pea 64.w
 3805               	.cfi_def_cfa_offset 88
 3806 1db2 4879 0000 	pea .LC58
 3806      0000 
 3807               	.cfi_def_cfa_offset 92
 3808 1db8 2F00      	move.l %d0,-(%sp)
 3809               	.cfi_def_cfa_offset 96
 3810 1dba 200F      	move.l %sp,%d0
 3811 1dbc 0680 0000 	add.l #16,%d0
 3811      0010 
 3812 1dc2 2F00      	move.l %d0,-(%sp)
 3813               	.cfi_def_cfa_offset 100
 3814 1dc4 4EB9 0000 	jsr CFE_SB_MessageStringGet
 3814      0000 
 3815 1dca 4FEF 0014 	lea (20,%sp),%sp
 3816               	.cfi_def_cfa_offset 80
1780:/home/simulink/cFS_FreeRTOS_seL4/cfe/fsw/cfe-core/src/es/cfe_es_task.c ****                CFE_ES_DEFAULT_ER_LOG_FILE, OS_MAX_PATH_LEN, sizeof(CmdPtr->ERLogFileName));
1781:/home/simulink/cFS_FreeRTOS_seL4/cfe/fsw/cfe-core/src/es/cfe_es_task.c **** 
1782:/home/simulink/cFS_FreeRTOS_seL4/cfe/fsw/cfe-core/src/es/cfe_es_task.c ****        Stat = CFE_ES_ERLogDump(LogFilename);
 3817               	.loc 1 1782 0
 3818 1dce 200F      	move.l %sp,%d0
 3819 1dd0 2F00      	move.l %d0,-(%sp)
 3820               	.cfi_def_cfa_offset 84
 3821 1dd2 4EB9 0000 	jsr CFE_ES_ERLogDump
68K GAS   			page 114


 3821      0000 
 3822 1dd8 588F      	addq.l #4,%sp
 3823               	.cfi_def_cfa_offset 80
 3824 1dda 2F40 0040 	move.l %d0,64(%sp)
1783:/home/simulink/cFS_FreeRTOS_seL4/cfe/fsw/cfe-core/src/es/cfe_es_task.c ****          
1784:/home/simulink/cFS_FreeRTOS_seL4/cfe/fsw/cfe-core/src/es/cfe_es_task.c ****        if(Stat == CFE_SUCCESS)
 3825               	.loc 1 1784 0
 3826 1dde 4AAF 0040 	tst.l 64(%sp)
 3827 1de2 6612      	jne .L168
1785:/home/simulink/cFS_FreeRTOS_seL4/cfe/fsw/cfe-core/src/es/cfe_es_task.c ****        {
1786:/home/simulink/cFS_FreeRTOS_seL4/cfe/fsw/cfe-core/src/es/cfe_es_task.c ****            CFE_ES_TaskData.CmdCounter++;
 3828               	.loc 1 1786 0
 3829 1de4 1039 0000 	move.b CFE_ES_TaskData,%d0
 3829      0000 
 3830 1dea 5280      	addq.l #1,%d0
 3831 1dec 1000      	move.b %d0,%d0
 3832 1dee 13C0 0000 	move.b %d0,CFE_ES_TaskData
 3832      0000 
1787:/home/simulink/cFS_FreeRTOS_seL4/cfe/fsw/cfe-core/src/es/cfe_es_task.c ****        }
1788:/home/simulink/cFS_FreeRTOS_seL4/cfe/fsw/cfe-core/src/es/cfe_es_task.c ****        else
1789:/home/simulink/cFS_FreeRTOS_seL4/cfe/fsw/cfe-core/src/es/cfe_es_task.c ****        {
1790:/home/simulink/cFS_FreeRTOS_seL4/cfe/fsw/cfe-core/src/es/cfe_es_task.c ****            CFE_ES_TaskData.ErrCounter++;
1791:/home/simulink/cFS_FreeRTOS_seL4/cfe/fsw/cfe-core/src/es/cfe_es_task.c ****        }/* end if */
1792:/home/simulink/cFS_FreeRTOS_seL4/cfe/fsw/cfe-core/src/es/cfe_es_task.c ****        
1793:/home/simulink/cFS_FreeRTOS_seL4/cfe/fsw/cfe-core/src/es/cfe_es_task.c ****    } /* end if verify command length */
1794:/home/simulink/cFS_FreeRTOS_seL4/cfe/fsw/cfe-core/src/es/cfe_es_task.c ****    
1795:/home/simulink/cFS_FreeRTOS_seL4/cfe/fsw/cfe-core/src/es/cfe_es_task.c **** }/* end CFE_ES_WriteERlogCmd */
 3833               	.loc 1 1795 0
 3834 1df4 6010      	jra .L169
 3835               	.L168:
1790:/home/simulink/cFS_FreeRTOS_seL4/cfe/fsw/cfe-core/src/es/cfe_es_task.c ****        }/* end if */
 3836               	.loc 1 1790 0
 3837 1df6 1039 0000 	move.b CFE_ES_TaskData+1,%d0
 3837      0000 
 3838 1dfc 5280      	addq.l #1,%d0
 3839 1dfe 1000      	move.b %d0,%d0
 3840 1e00 13C0 0000 	move.b %d0,CFE_ES_TaskData+1
 3840      0000 
 3841               	.L169:
 3842               	.loc 1 1795 0
 3843 1e06 4E71      	nop
 3844 1e08 4FEF 004C 	lea (76,%sp),%sp
 3845 1e0c 4E75      	rts
 3846               	.cfi_endproc
 3847               	.LFE81:
 3848               	.sizeCFE_ES_WriteERlogCmd, .-CFE_ES_WriteERlogCmd
 3849               	.section.rodata
 3850               	.LC59:
 3851 09f8 4553 2045 	.string"ES ERlog data file"
 3851      526C 6F67 
 3851      2064 6174 
 3851      6120 6669 
 3851      6C65 00
 3852               	.LC60:
 3853 0a0b 4572 726F 	.string"Error accessing ER Log,%s not written. RC = 0x%08X"
 3853      7220 6163 
 3853      6365 7373 
68K GAS   			page 115


 3853      696E 6720 
 3853      4552 204C 
 3854               	.LC61:
 3855 0a3e 2573 2077 	.string"%s written:Size=%d"
 3855      7269 7474 
 3855      656E 3A53 
 3855      697A 653D 
 3855      2564 00
 3856               	.text
 3857               	.align2
 3858               	.globlCFE_ES_ERLogDump
 3859               	.typeCFE_ES_ERLogDump, @function
 3860               	CFE_ES_ERLogDump:
 3861               	.LFB82:
1796:/home/simulink/cFS_FreeRTOS_seL4/cfe/fsw/cfe-core/src/es/cfe_es_task.c **** 
1797:/home/simulink/cFS_FreeRTOS_seL4/cfe/fsw/cfe-core/src/es/cfe_es_task.c **** 
1798:/home/simulink/cFS_FreeRTOS_seL4/cfe/fsw/cfe-core/src/es/cfe_es_task.c **** /* * * * * * * * * * * * * * * * * * * * * * * * * * * * * * * * * */
1799:/home/simulink/cFS_FreeRTOS_seL4/cfe/fsw/cfe-core/src/es/cfe_es_task.c **** /*                                                                 */
1800:/home/simulink/cFS_FreeRTOS_seL4/cfe/fsw/cfe-core/src/es/cfe_es_task.c **** /* CFE_ES_ERLogDump() -- Write exception & reset log to a file.    */
1801:/home/simulink/cFS_FreeRTOS_seL4/cfe/fsw/cfe-core/src/es/cfe_es_task.c **** /*                                                                 */
1802:/home/simulink/cFS_FreeRTOS_seL4/cfe/fsw/cfe-core/src/es/cfe_es_task.c **** /* * * * * * * * * * * * * * * * * * * * * * * * * * * * * * * * * */
1803:/home/simulink/cFS_FreeRTOS_seL4/cfe/fsw/cfe-core/src/es/cfe_es_task.c **** int32 CFE_ES_ERLogDump(const char *Filename)
1804:/home/simulink/cFS_FreeRTOS_seL4/cfe/fsw/cfe-core/src/es/cfe_es_task.c **** {
 3862               	.loc 1 1804 0
 3863               	.cfi_startproc
 3864 1e0e 4FEF FFA4 	lea (-92,%sp),%sp
 3865               	.cfi_def_cfa_offset 96
1805:/home/simulink/cFS_FreeRTOS_seL4/cfe/fsw/cfe-core/src/es/cfe_es_task.c **** 
1806:/home/simulink/cFS_FreeRTOS_seL4/cfe/fsw/cfe-core/src/es/cfe_es_task.c ****     int32   fd;
1807:/home/simulink/cFS_FreeRTOS_seL4/cfe/fsw/cfe-core/src/es/cfe_es_task.c ****     int32   WriteStat,BspStat;
1808:/home/simulink/cFS_FreeRTOS_seL4/cfe/fsw/cfe-core/src/es/cfe_es_task.c ****     uint32  FileSize,i,ResetAreaSize;
1809:/home/simulink/cFS_FreeRTOS_seL4/cfe/fsw/cfe-core/src/es/cfe_es_task.c ****     CFE_FS_Header_t FileHdr;
1810:/home/simulink/cFS_FreeRTOS_seL4/cfe/fsw/cfe-core/src/es/cfe_es_task.c ****     cpuaddr ResetDataAddr;
1811:/home/simulink/cFS_FreeRTOS_seL4/cfe/fsw/cfe-core/src/es/cfe_es_task.c ****     
1812:/home/simulink/cFS_FreeRTOS_seL4/cfe/fsw/cfe-core/src/es/cfe_es_task.c ****     fd = OS_creat(Filename, OS_WRITE_ONLY);
 3866               	.loc 1 1812 0
 3867 1e12 4878 0001 	pea 1.w
 3868               	.cfi_def_cfa_offset 100
 3869 1e16 2F2F 0064 	move.l 100(%sp),-(%sp)
 3870               	.cfi_def_cfa_offset 104
 3871 1e1a 4EB9 0000 	jsr OS_creat
 3871      0000 
 3872 1e20 508F      	addq.l #8,%sp
 3873               	.cfi_def_cfa_offset 96
 3874 1e22 2F40 0050 	move.l %d0,80(%sp)
1813:/home/simulink/cFS_FreeRTOS_seL4/cfe/fsw/cfe-core/src/es/cfe_es_task.c ****     if(fd < 0)
 3875               	.loc 1 1813 0
 3876 1e26 4AAF 0050 	tst.l 80(%sp)
 3877 1e2a 6C2C      	jge .L171
1814:/home/simulink/cFS_FreeRTOS_seL4/cfe/fsw/cfe-core/src/es/cfe_es_task.c ****     {
1815:/home/simulink/cFS_FreeRTOS_seL4/cfe/fsw/cfe-core/src/es/cfe_es_task.c ****         CFE_EVS_SendEvent(CFE_ES_ERLOG2_ERR_EID,CFE_EVS_ERROR,
 3878               	.loc 1 1815 0
 3879 1e2c 202F 0050 	move.l 80(%sp),%d0
 3880 1e30 2F00      	move.l %d0,-(%sp)
 3881               	.cfi_def_cfa_offset 100
 3882 1e32 2F2F 0064 	move.l 100(%sp),-(%sp)
 3883               	.cfi_def_cfa_offset 104
68K GAS   			page 116


 3884 1e36 4879 0000 	pea .LC54
 3884      0000 
 3885               	.cfi_def_cfa_offset 108
 3886 1e3c 4878 0003 	pea 3.w
 3887               	.cfi_def_cfa_offset 112
 3888 1e40 4878 0038 	pea 56.w
 3889               	.cfi_def_cfa_offset 116
 3890 1e44 4EB9 0000 	jsr CFE_EVS_SendEvent
 3890      0000 
 3891 1e4a 4FEF 0014 	lea (20,%sp),%sp
 3892               	.cfi_def_cfa_offset 96
1816:/home/simulink/cFS_FreeRTOS_seL4/cfe/fsw/cfe-core/src/es/cfe_es_task.c ****                       "Error creating file %s, RC = 0x%08X",
1817:/home/simulink/cFS_FreeRTOS_seL4/cfe/fsw/cfe-core/src/es/cfe_es_task.c ****                       Filename,(unsigned int)fd);
1818:/home/simulink/cFS_FreeRTOS_seL4/cfe/fsw/cfe-core/src/es/cfe_es_task.c ****         return CFE_ES_FILE_IO_ERR;
 3893               	.loc 1 1818 0
 3894 1e4e 203C C400 	move.l #-1006632940,%d0
 3894      0014 
 3895 1e54 6000 0172 	jra .L178
 3896               	.L171:
1819:/home/simulink/cFS_FreeRTOS_seL4/cfe/fsw/cfe-core/src/es/cfe_es_task.c ****     }/* end if */
1820:/home/simulink/cFS_FreeRTOS_seL4/cfe/fsw/cfe-core/src/es/cfe_es_task.c **** 
1821:/home/simulink/cFS_FreeRTOS_seL4/cfe/fsw/cfe-core/src/es/cfe_es_task.c ****     CFE_FS_InitHeader(&FileHdr, CFE_ES_ER_LOG_DESC, CFE_FS_ES_ERLOG_SUBTYPE);
 3897               	.loc 1 1821 0
 3898 1e58 4878 0001 	pea 1.w
 3899               	.cfi_def_cfa_offset 100
 3900 1e5c 4879 0000 	pea .LC59
 3900      0000 
 3901               	.cfi_def_cfa_offset 104
 3902 1e62 200F      	move.l %sp,%d0
 3903 1e64 0680 0000 	add.l #12,%d0
 3903      000C 
 3904 1e6a 2F00      	move.l %d0,-(%sp)
 3905               	.cfi_def_cfa_offset 108
 3906 1e6c 4EB9 0000 	jsr CFE_FS_InitHeader
 3906      0000 
 3907 1e72 4FEF 000C 	lea (12,%sp),%sp
 3908               	.cfi_def_cfa_offset 96
1822:/home/simulink/cFS_FreeRTOS_seL4/cfe/fsw/cfe-core/src/es/cfe_es_task.c **** 
1823:/home/simulink/cFS_FreeRTOS_seL4/cfe/fsw/cfe-core/src/es/cfe_es_task.c ****     /* write the cFE header to the file */
1824:/home/simulink/cFS_FreeRTOS_seL4/cfe/fsw/cfe-core/src/es/cfe_es_task.c ****     WriteStat = CFE_FS_WriteHeader(fd, &FileHdr);    
 3909               	.loc 1 1824 0
 3910 1e76 200F      	move.l %sp,%d0
 3911 1e78 5880      	addq.l #4,%d0
 3912 1e7a 2F00      	move.l %d0,-(%sp)
 3913               	.cfi_def_cfa_offset 100
 3914 1e7c 2F2F 0054 	move.l 84(%sp),-(%sp)
 3915               	.cfi_def_cfa_offset 104
 3916 1e80 4EB9 0000 	jsr CFE_FS_WriteHeader
 3916      0000 
 3917 1e86 508F      	addq.l #8,%sp
 3918               	.cfi_def_cfa_offset 96
 3919 1e88 2F40 004C 	move.l %d0,76(%sp)
1825:/home/simulink/cFS_FreeRTOS_seL4/cfe/fsw/cfe-core/src/es/cfe_es_task.c ****     if(WriteStat != sizeof(CFE_FS_Header_t))
 3920               	.loc 1 1825 0
 3921 1e8c 7040      	moveq #64,%d0
 3922 1e8e B0AF 004C 	cmp.l 76(%sp),%d0
 3923 1e92 672E      	jeq .L173
68K GAS   			page 117


1826:/home/simulink/cFS_FreeRTOS_seL4/cfe/fsw/cfe-core/src/es/cfe_es_task.c ****     {
1827:/home/simulink/cFS_FreeRTOS_seL4/cfe/fsw/cfe-core/src/es/cfe_es_task.c ****         CFE_ES_FileWriteByteCntErr(Filename,sizeof(CFE_FS_Header_t),WriteStat);
 3924               	.loc 1 1827 0
 3925 1e94 202F 004C 	move.l 76(%sp),%d0
 3926 1e98 2F00      	move.l %d0,-(%sp)
 3927               	.cfi_def_cfa_offset 100
 3928 1e9a 4878 0040 	pea 64.w
 3929               	.cfi_def_cfa_offset 104
 3930 1e9e 2F2F 0068 	move.l 104(%sp),-(%sp)
 3931               	.cfi_def_cfa_offset 108
 3932 1ea2 4EB9 0000 	jsr CFE_ES_FileWriteByteCntErr
 3932      0000 
 3933 1ea8 4FEF 000C 	lea (12,%sp),%sp
 3934               	.cfi_def_cfa_offset 96
1828:/home/simulink/cFS_FreeRTOS_seL4/cfe/fsw/cfe-core/src/es/cfe_es_task.c ****         OS_close(fd);
 3935               	.loc 1 1828 0
 3936 1eac 2F2F 0050 	move.l 80(%sp),-(%sp)
 3937               	.cfi_def_cfa_offset 100
 3938 1eb0 4EB9 0000 	jsr OS_close
 3938      0000 
 3939 1eb6 588F      	addq.l #4,%sp
 3940               	.cfi_def_cfa_offset 96
1829:/home/simulink/cFS_FreeRTOS_seL4/cfe/fsw/cfe-core/src/es/cfe_es_task.c ****         return CFE_ES_FILE_IO_ERR;        
 3941               	.loc 1 1829 0
 3942 1eb8 203C C400 	move.l #-1006632940,%d0
 3942      0014 
 3943 1ebe 6000 0108 	jra .L178
 3944               	.L173:
1830:/home/simulink/cFS_FreeRTOS_seL4/cfe/fsw/cfe-core/src/es/cfe_es_task.c ****     }/* end if */
1831:/home/simulink/cFS_FreeRTOS_seL4/cfe/fsw/cfe-core/src/es/cfe_es_task.c ****     FileSize = WriteStat;
 3945               	.loc 1 1831 0
 3946 1ec2 2F6F 004C 	move.l 76(%sp),88(%sp)
 3946      0058 
1832:/home/simulink/cFS_FreeRTOS_seL4/cfe/fsw/cfe-core/src/es/cfe_es_task.c **** 
1833:/home/simulink/cFS_FreeRTOS_seL4/cfe/fsw/cfe-core/src/es/cfe_es_task.c ****     /* Get the pointer to the Reset Log from the BSP */
1834:/home/simulink/cFS_FreeRTOS_seL4/cfe/fsw/cfe-core/src/es/cfe_es_task.c ****     BspStat = CFE_PSP_GetResetArea (&ResetDataAddr, &ResetAreaSize);
 3947               	.loc 1 1834 0
 3948 1ec8 200F      	move.l %sp,%d0
 3949 1eca 0680 0000 	add.l #68,%d0
 3949      0044 
 3950 1ed0 2F00      	move.l %d0,-(%sp)
 3951               	.cfi_def_cfa_offset 100
 3952 1ed2 200F      	move.l %sp,%d0
 3953 1ed4 5880      	addq.l #4,%d0
 3954 1ed6 2F00      	move.l %d0,-(%sp)
 3955               	.cfi_def_cfa_offset 104
 3956 1ed8 4EB9 0000 	jsr CFE_PSP_GetResetArea
 3956      0000 
 3957 1ede 508F      	addq.l #8,%sp
 3958               	.cfi_def_cfa_offset 96
 3959 1ee0 2F40 0048 	move.l %d0,72(%sp)
1835:/home/simulink/cFS_FreeRTOS_seL4/cfe/fsw/cfe-core/src/es/cfe_es_task.c ****     if(BspStat != CFE_PSP_SUCCESS)
 3960               	.loc 1 1835 0
 3961 1ee4 4AAF 0048 	tst.l 72(%sp)
 3962 1ee8 6738      	jeq .L174
1836:/home/simulink/cFS_FreeRTOS_seL4/cfe/fsw/cfe-core/src/es/cfe_es_task.c ****     {
1837:/home/simulink/cFS_FreeRTOS_seL4/cfe/fsw/cfe-core/src/es/cfe_es_task.c ****         CFE_EVS_SendEvent(CFE_ES_RST_ACCESS_EID, CFE_EVS_ERROR,
68K GAS   			page 118


 3963               	.loc 1 1837 0
 3964 1eea 202F 0048 	move.l 72(%sp),%d0
 3965 1eee 2F00      	move.l %d0,-(%sp)
 3966               	.cfi_def_cfa_offset 100
 3967 1ef0 2F2F 0064 	move.l 100(%sp),-(%sp)
 3968               	.cfi_def_cfa_offset 104
 3969 1ef4 4879 0000 	pea .LC60
 3969      0000 
 3970               	.cfi_def_cfa_offset 108
 3971 1efa 4878 0003 	pea 3.w
 3972               	.cfi_def_cfa_offset 112
 3973 1efe 4878 004B 	pea 75.w
 3974               	.cfi_def_cfa_offset 116
 3975 1f02 4EB9 0000 	jsr CFE_EVS_SendEvent
 3975      0000 
 3976 1f08 4FEF 0014 	lea (20,%sp),%sp
 3977               	.cfi_def_cfa_offset 96
1838:/home/simulink/cFS_FreeRTOS_seL4/cfe/fsw/cfe-core/src/es/cfe_es_task.c ****               "Error accessing ER Log,%s not written. RC = 0x%08X",Filename,(unsigned int)BspStat);
1839:/home/simulink/cFS_FreeRTOS_seL4/cfe/fsw/cfe-core/src/es/cfe_es_task.c ****         OS_close(fd);
 3978               	.loc 1 1839 0
 3979 1f0c 2F2F 0050 	move.l 80(%sp),-(%sp)
 3980               	.cfi_def_cfa_offset 100
 3981 1f10 4EB9 0000 	jsr OS_close
 3981      0000 
 3982 1f16 588F      	addq.l #4,%sp
 3983               	.cfi_def_cfa_offset 96
1840:/home/simulink/cFS_FreeRTOS_seL4/cfe/fsw/cfe-core/src/es/cfe_es_task.c ****         return CFE_ES_RST_ACCESS_ERR;        
 3984               	.loc 1 1840 0
 3985 1f18 203C C400 	move.l #-1006632939,%d0
 3985      0015 
 3986 1f1e 6000 00A8 	jra .L178
 3987               	.L174:
1841:/home/simulink/cFS_FreeRTOS_seL4/cfe/fsw/cfe-core/src/es/cfe_es_task.c ****     }/* end if */
1842:/home/simulink/cFS_FreeRTOS_seL4/cfe/fsw/cfe-core/src/es/cfe_es_task.c **** 
1843:/home/simulink/cFS_FreeRTOS_seL4/cfe/fsw/cfe-core/src/es/cfe_es_task.c ****     /* write a single ER log entry on each pass */
1844:/home/simulink/cFS_FreeRTOS_seL4/cfe/fsw/cfe-core/src/es/cfe_es_task.c ****     for(i=0;i<CFE_ES_ER_LOG_ENTRIES;i++)
 3988               	.loc 1 1844 0
 3989 1f22 42AF 0054 	clr.l 84(%sp)
 3990 1f26 6068      	jra .L175
 3991               	.L177:
1845:/home/simulink/cFS_FreeRTOS_seL4/cfe/fsw/cfe-core/src/es/cfe_es_task.c ****     {
1846:/home/simulink/cFS_FreeRTOS_seL4/cfe/fsw/cfe-core/src/es/cfe_es_task.c ****         WriteStat = OS_write(fd,(uint8 *)ResetDataAddr,sizeof(CFE_ES_ERLog_t));
 3992               	.loc 1 1846 0
 3993 1f28 2017      	move.l (%sp),%d0
 3994 1f2a 4878 0108 	pea 264.w
 3995               	.cfi_def_cfa_offset 100
 3996 1f2e 2F00      	move.l %d0,-(%sp)
 3997               	.cfi_def_cfa_offset 104
 3998 1f30 2F2F 0058 	move.l 88(%sp),-(%sp)
 3999               	.cfi_def_cfa_offset 108
 4000 1f34 4EB9 0000 	jsr OS_write
 4000      0000 
 4001 1f3a 4FEF 000C 	lea (12,%sp),%sp
 4002               	.cfi_def_cfa_offset 96
 4003 1f3e 2F40 004C 	move.l %d0,76(%sp)
1847:/home/simulink/cFS_FreeRTOS_seL4/cfe/fsw/cfe-core/src/es/cfe_es_task.c ****         if(WriteStat != sizeof(CFE_ES_ERLog_t))
 4004               	.loc 1 1847 0
68K GAS   			page 119


 4005 1f42 203C 0000 	move.l #264,%d0
 4005      0108 
 4006 1f48 B0AF 004C 	cmp.l 76(%sp),%d0
 4007 1f4c 672C      	jeq .L176
1848:/home/simulink/cFS_FreeRTOS_seL4/cfe/fsw/cfe-core/src/es/cfe_es_task.c ****         {
1849:/home/simulink/cFS_FreeRTOS_seL4/cfe/fsw/cfe-core/src/es/cfe_es_task.c ****             CFE_ES_FileWriteByteCntErr(Filename,sizeof(CFE_ES_ERLog_t),WriteStat);
 4008               	.loc 1 1849 0
 4009 1f4e 202F 004C 	move.l 76(%sp),%d0
 4010 1f52 2F00      	move.l %d0,-(%sp)
 4011               	.cfi_def_cfa_offset 100
 4012 1f54 4878 0108 	pea 264.w
 4013               	.cfi_def_cfa_offset 104
 4014 1f58 2F2F 0068 	move.l 104(%sp),-(%sp)
 4015               	.cfi_def_cfa_offset 108
 4016 1f5c 4EB9 0000 	jsr CFE_ES_FileWriteByteCntErr
 4016      0000 
 4017 1f62 4FEF 000C 	lea (12,%sp),%sp
 4018               	.cfi_def_cfa_offset 96
1850:/home/simulink/cFS_FreeRTOS_seL4/cfe/fsw/cfe-core/src/es/cfe_es_task.c ****             OS_close(fd);
 4019               	.loc 1 1850 0
 4020 1f66 2F2F 0050 	move.l 80(%sp),-(%sp)
 4021               	.cfi_def_cfa_offset 100
 4022 1f6a 4EB9 0000 	jsr OS_close
 4022      0000 
 4023 1f70 588F      	addq.l #4,%sp
 4024               	.cfi_def_cfa_offset 96
1851:/home/simulink/cFS_FreeRTOS_seL4/cfe/fsw/cfe-core/src/es/cfe_es_task.c ****             return CFE_ES_FILE_IO_ERR;        
 4025               	.loc 1 1851 0
 4026 1f72 203C C400 	move.l #-1006632940,%d0
 4026      0014 
 4027 1f78 604E      	jra .L178
 4028               	.L176:
1852:/home/simulink/cFS_FreeRTOS_seL4/cfe/fsw/cfe-core/src/es/cfe_es_task.c ****         }/* end if */        
1853:/home/simulink/cFS_FreeRTOS_seL4/cfe/fsw/cfe-core/src/es/cfe_es_task.c ****         FileSize += WriteStat;
 4029               	.loc 1 1853 0 discriminator 2
 4030 1f7a 202F 004C 	move.l 76(%sp),%d0
 4031 1f7e D1AF 0058 	add.l %d0,88(%sp)
1854:/home/simulink/cFS_FreeRTOS_seL4/cfe/fsw/cfe-core/src/es/cfe_es_task.c ****         ResetDataAddr+=sizeof(CFE_ES_ERLog_t);
 4032               	.loc 1 1854 0 discriminator 2
 4033 1f82 2017      	move.l (%sp),%d0
 4034 1f84 0680 0000 	add.l #264,%d0
 4034      0108 
 4035 1f8a 2E80      	move.l %d0,(%sp)
1844:/home/simulink/cFS_FreeRTOS_seL4/cfe/fsw/cfe-core/src/es/cfe_es_task.c ****     {
 4036               	.loc 1 1844 0 discriminator 2
 4037 1f8c 52AF 0054 	addq.l #1,84(%sp)
 4038               	.L175:
1844:/home/simulink/cFS_FreeRTOS_seL4/cfe/fsw/cfe-core/src/es/cfe_es_task.c ****     {
 4039               	.loc 1 1844 0 is_stmt 0 discriminator 1
 4040 1f90 7013      	moveq #19,%d0
 4041 1f92 B0AF 0054 	cmp.l 84(%sp),%d0
 4042 1f96 6490      	jcc .L177
1855:/home/simulink/cFS_FreeRTOS_seL4/cfe/fsw/cfe-core/src/es/cfe_es_task.c ****     }/* end for */   
1856:/home/simulink/cFS_FreeRTOS_seL4/cfe/fsw/cfe-core/src/es/cfe_es_task.c ****     
1857:/home/simulink/cFS_FreeRTOS_seL4/cfe/fsw/cfe-core/src/es/cfe_es_task.c ****     OS_close(fd);
 4043               	.loc 1 1857 0 is_stmt 1
 4044 1f98 2F2F 0050 	move.l 80(%sp),-(%sp)
68K GAS   			page 120


 4045               	.cfi_def_cfa_offset 100
 4046 1f9c 4EB9 0000 	jsr OS_close
 4046      0000 
 4047 1fa2 588F      	addq.l #4,%sp
 4048               	.cfi_def_cfa_offset 96
1858:/home/simulink/cFS_FreeRTOS_seL4/cfe/fsw/cfe-core/src/es/cfe_es_task.c **** 
1859:/home/simulink/cFS_FreeRTOS_seL4/cfe/fsw/cfe-core/src/es/cfe_es_task.c ****     CFE_EVS_SendEvent(CFE_ES_ERLOG2_EID, CFE_EVS_DEBUG,
 4049               	.loc 1 1859 0
 4050 1fa4 202F 0058 	move.l 88(%sp),%d0
 4051 1fa8 2F00      	move.l %d0,-(%sp)
 4052               	.cfi_def_cfa_offset 100
 4053 1faa 2F2F 0064 	move.l 100(%sp),-(%sp)
 4054               	.cfi_def_cfa_offset 104
 4055 1fae 4879 0000 	pea .LC61
 4055      0000 
 4056               	.cfi_def_cfa_offset 108
 4057 1fb4 4878 0001 	pea 1.w
 4058               	.cfi_def_cfa_offset 112
 4059 1fb8 4878 0014 	pea 20.w
 4060               	.cfi_def_cfa_offset 116
 4061 1fbc 4EB9 0000 	jsr CFE_EVS_SendEvent
 4061      0000 
 4062 1fc2 4FEF 0014 	lea (20,%sp),%sp
 4063               	.cfi_def_cfa_offset 96
1860:/home/simulink/cFS_FreeRTOS_seL4/cfe/fsw/cfe-core/src/es/cfe_es_task.c ****                       "%s written:Size=%d",Filename,(int)FileSize);
1861:/home/simulink/cFS_FreeRTOS_seL4/cfe/fsw/cfe-core/src/es/cfe_es_task.c **** 
1862:/home/simulink/cFS_FreeRTOS_seL4/cfe/fsw/cfe-core/src/es/cfe_es_task.c ****     return CFE_SUCCESS;
 4064               	.loc 1 1862 0
 4065 1fc6 4280      	clr.l %d0
 4066               	.L178:
1863:/home/simulink/cFS_FreeRTOS_seL4/cfe/fsw/cfe-core/src/es/cfe_es_task.c **** 
1864:/home/simulink/cFS_FreeRTOS_seL4/cfe/fsw/cfe-core/src/es/cfe_es_task.c **** } /* end CFE_ES_ERLogDump() */
 4067               	.loc 1 1864 0 discriminator 1
 4068 1fc8 4FEF 005C 	lea (92,%sp),%sp
 4069 1fcc 4E75      	rts
 4070               	.cfi_endproc
 4071               	.LFE82:
 4072               	.sizeCFE_ES_ERLogDump, .-CFE_ES_ERLogDump
 4073               	.section.rodata
 4074               	.LC62:
 4075 0a51 496E 7661 	.string"Invalid cmd length: ID = 0x%X, CC = %d, Exp Len = %d, Len = %d"
 4075      6C69 6420 
 4075      636D 6420 
 4075      6C65 6E67 
 4075      7468 3A20 
 4076               	.text
 4077               	.align2
 4078               	.globlCFE_ES_VerifyCmdLength
 4079               	.typeCFE_ES_VerifyCmdLength, @function
 4080               	CFE_ES_VerifyCmdLength:
 4081               	.LFB83:
1865:/home/simulink/cFS_FreeRTOS_seL4/cfe/fsw/cfe-core/src/es/cfe_es_task.c **** 
1866:/home/simulink/cFS_FreeRTOS_seL4/cfe/fsw/cfe-core/src/es/cfe_es_task.c **** /* * * * * * * * * * * * * * * * * * * * * * * * * * * * * * * * * */
1867:/home/simulink/cFS_FreeRTOS_seL4/cfe/fsw/cfe-core/src/es/cfe_es_task.c **** /*                                                                 */
1868:/home/simulink/cFS_FreeRTOS_seL4/cfe/fsw/cfe-core/src/es/cfe_es_task.c **** /* CFE_ES_VerifyCmdLength() -- Verify command packet length        */
1869:/home/simulink/cFS_FreeRTOS_seL4/cfe/fsw/cfe-core/src/es/cfe_es_task.c **** /*                                                                 */
1870:/home/simulink/cFS_FreeRTOS_seL4/cfe/fsw/cfe-core/src/es/cfe_es_task.c **** /* * * * * * * * * * * * * * * * * * * * * * * * * * * * * * * * * */
68K GAS   			page 121


1871:/home/simulink/cFS_FreeRTOS_seL4/cfe/fsw/cfe-core/src/es/cfe_es_task.c **** 
1872:/home/simulink/cFS_FreeRTOS_seL4/cfe/fsw/cfe-core/src/es/cfe_es_task.c **** boolean CFE_ES_VerifyCmdLength(CFE_SB_MsgPtr_t Msg, uint16 ExpectedLength)
1873:/home/simulink/cFS_FreeRTOS_seL4/cfe/fsw/cfe-core/src/es/cfe_es_task.c **** {
 4082               	.loc 1 1873 0
 4083               	.cfi_startproc
 4084 1fce 4FEF FFF4 	lea (-12,%sp),%sp
 4085               	.cfi_def_cfa_offset 16
 4086 1fd2 2F03      	move.l %d3,-(%sp)
 4087               	.cfi_def_cfa_offset 20
 4088               	.cfi_offset 3, -20
 4089 1fd4 2F02      	move.l %d2,-(%sp)
 4090               	.cfi_def_cfa_offset 24
 4091               	.cfi_offset 2, -24
 4092 1fd6 202F 001C 	move.l 28(%sp),%d0
 4093 1fda 3000      	move.w %d0,%d0
 4094 1fdc 3F40 0008 	move.w %d0,8(%sp)
1874:/home/simulink/cFS_FreeRTOS_seL4/cfe/fsw/cfe-core/src/es/cfe_es_task.c ****     boolean result       = TRUE;
 4095               	.loc 1 1874 0
 4096 1fe0 7001      	moveq #1,%d0
 4097 1fe2 1F40 0013 	move.b %d0,19(%sp)
1875:/home/simulink/cFS_FreeRTOS_seL4/cfe/fsw/cfe-core/src/es/cfe_es_task.c ****     uint16  ActualLength = CFE_SB_GetTotalMsgLength(Msg);
 4098               	.loc 1 1875 0
 4099 1fe6 2F2F 0018 	move.l 24(%sp),-(%sp)
 4100               	.cfi_def_cfa_offset 28
 4101 1fea 4EB9 0000 	jsr CFE_SB_GetTotalMsgLength
 4101      0000 
 4102 1ff0 588F      	addq.l #4,%sp
 4103               	.cfi_def_cfa_offset 24
 4104 1ff2 3F40 0010 	move.w %d0,16(%sp)
1876:/home/simulink/cFS_FreeRTOS_seL4/cfe/fsw/cfe-core/src/es/cfe_es_task.c **** 
1877:/home/simulink/cFS_FreeRTOS_seL4/cfe/fsw/cfe-core/src/es/cfe_es_task.c ****     /*
1878:/home/simulink/cFS_FreeRTOS_seL4/cfe/fsw/cfe-core/src/es/cfe_es_task.c ****     ** Verify the command packet length
1879:/home/simulink/cFS_FreeRTOS_seL4/cfe/fsw/cfe-core/src/es/cfe_es_task.c ****     */
1880:/home/simulink/cFS_FreeRTOS_seL4/cfe/fsw/cfe-core/src/es/cfe_es_task.c ****     if (ExpectedLength != ActualLength)
 4105               	.loc 1 1880 0
 4106 1ff6 4281      	clr.l %d1
 4107 1ff8 322F 0008 	move.w 8(%sp),%d1
 4108 1ffc 4280      	clr.l %d0
 4109 1ffe 302F 0010 	move.w 16(%sp),%d0
 4110 2002 B081      	cmp.l %d1,%d0
 4111 2004 676E      	jeq .L180
 4112               	.LBB14:
1881:/home/simulink/cFS_FreeRTOS_seL4/cfe/fsw/cfe-core/src/es/cfe_es_task.c ****     {
1882:/home/simulink/cFS_FreeRTOS_seL4/cfe/fsw/cfe-core/src/es/cfe_es_task.c ****         CFE_SB_MsgId_t MessageID = CFE_SB_GetMsgId(Msg);
 4113               	.loc 1 1882 0
 4114 2006 2F2F 0018 	move.l 24(%sp),-(%sp)
 4115               	.cfi_def_cfa_offset 28
 4116 200a 4EB9 0000 	jsr CFE_SB_GetMsgId
 4116      0000 
 4117 2010 588F      	addq.l #4,%sp
 4118               	.cfi_def_cfa_offset 24
 4119 2012 3F40 000E 	move.w %d0,14(%sp)
1883:/home/simulink/cFS_FreeRTOS_seL4/cfe/fsw/cfe-core/src/es/cfe_es_task.c ****         uint16 CommandCode = CFE_SB_GetCmdCode(Msg);
 4120               	.loc 1 1883 0
 4121 2016 2F2F 0018 	move.l 24(%sp),-(%sp)
 4122               	.cfi_def_cfa_offset 28
 4123 201a 4EB9 0000 	jsr CFE_SB_GetCmdCode
68K GAS   			page 122


 4123      0000 
 4124 2020 588F      	addq.l #4,%sp
 4125               	.cfi_def_cfa_offset 24
 4126 2022 3F40 000C 	move.w %d0,12(%sp)
1884:/home/simulink/cFS_FreeRTOS_seL4/cfe/fsw/cfe-core/src/es/cfe_es_task.c **** 
1885:/home/simulink/cFS_FreeRTOS_seL4/cfe/fsw/cfe-core/src/es/cfe_es_task.c ****         CFE_EVS_SendEvent(CFE_ES_LEN_ERR_EID, CFE_EVS_ERROR,
 4127               	.loc 1 1885 0
 4128 2026 4283      	clr.l %d3
 4129 2028 362F 0010 	move.w 16(%sp),%d3
 4130 202c 4282      	clr.l %d2
 4131 202e 342F 0008 	move.w 8(%sp),%d2
 4132 2032 4281      	clr.l %d1
 4133 2034 322F 000C 	move.w 12(%sp),%d1
 4134 2038 4280      	clr.l %d0
 4135 203a 302F 000E 	move.w 14(%sp),%d0
 4136 203e 2F03      	move.l %d3,-(%sp)
 4137               	.cfi_def_cfa_offset 28
 4138 2040 2F02      	move.l %d2,-(%sp)
 4139               	.cfi_def_cfa_offset 32
 4140 2042 2F01      	move.l %d1,-(%sp)
 4141               	.cfi_def_cfa_offset 36
 4142 2044 2F00      	move.l %d0,-(%sp)
 4143               	.cfi_def_cfa_offset 40
 4144 2046 4879 0000 	pea .LC62
 4144      0000 
 4145               	.cfi_def_cfa_offset 44
 4146 204c 4878 0003 	pea 3.w
 4147               	.cfi_def_cfa_offset 48
 4148 2050 4878 0017 	pea 23.w
 4149               	.cfi_def_cfa_offset 52
 4150 2054 4EB9 0000 	jsr CFE_EVS_SendEvent
 4150      0000 
 4151 205a 4FEF 001C 	lea (28,%sp),%sp
 4152               	.cfi_def_cfa_offset 24
1886:/home/simulink/cFS_FreeRTOS_seL4/cfe/fsw/cfe-core/src/es/cfe_es_task.c ****            "Invalid cmd length: ID = 0x%X, CC = %d, Exp Len = %d, Len = %d",
1887:/home/simulink/cFS_FreeRTOS_seL4/cfe/fsw/cfe-core/src/es/cfe_es_task.c ****                           MessageID, CommandCode, ExpectedLength, ActualLength);
1888:/home/simulink/cFS_FreeRTOS_seL4/cfe/fsw/cfe-core/src/es/cfe_es_task.c ****         result = FALSE;
 4153               	.loc 1 1888 0
 4154 205e 4200      	clr.b %d0
 4155 2060 1F40 0013 	move.b %d0,19(%sp)
1889:/home/simulink/cFS_FreeRTOS_seL4/cfe/fsw/cfe-core/src/es/cfe_es_task.c ****         CFE_ES_TaskData.ErrCounter++;
 4156               	.loc 1 1889 0
 4157 2064 1039 0000 	move.b CFE_ES_TaskData+1,%d0
 4157      0000 
 4158 206a 5280      	addq.l #1,%d0
 4159 206c 1000      	move.b %d0,%d0
 4160 206e 13C0 0000 	move.b %d0,CFE_ES_TaskData+1
 4160      0000 
 4161               	.L180:
 4162               	.LBE14:
1890:/home/simulink/cFS_FreeRTOS_seL4/cfe/fsw/cfe-core/src/es/cfe_es_task.c ****     }
1891:/home/simulink/cFS_FreeRTOS_seL4/cfe/fsw/cfe-core/src/es/cfe_es_task.c **** 
1892:/home/simulink/cFS_FreeRTOS_seL4/cfe/fsw/cfe-core/src/es/cfe_es_task.c ****     return(result);
 4163               	.loc 1 1892 0
 4164 2074 102F 0013 	move.b 19(%sp),%d0
1893:/home/simulink/cFS_FreeRTOS_seL4/cfe/fsw/cfe-core/src/es/cfe_es_task.c **** 
1894:/home/simulink/cFS_FreeRTOS_seL4/cfe/fsw/cfe-core/src/es/cfe_es_task.c **** } /* End of CFE_ES_VerifyCmdLength() */
68K GAS   			page 123


 4165               	.loc 1 1894 0
 4166 2078 241F      	move.l (%sp)+,%d2
 4167 207a 261F      	move.l (%sp)+,%d3
 4168 207c 4FEF 000C 	lea (12,%sp),%sp
 4169 2080 4E75      	rts
 4170               	.cfi_endproc
 4171               	.LFE83:
 4172               	.sizeCFE_ES_VerifyCmdLength, .-CFE_ES_VerifyCmdLength
 4173               	.section.rodata
 4174               	.LC63:
 4175 0a90 5365 7420 	.string"Set Processor Reset Count to Zero"
 4175      5072 6F63 
 4175      6573 736F 
 4175      7220 5265 
 4175      7365 7420 
 4176               	.text
 4177               	.align2
 4178               	.globlCFE_ES_ResetPRCountCmd
 4179               	.typeCFE_ES_ResetPRCountCmd, @function
 4180               	CFE_ES_ResetPRCountCmd:
 4181               	.LFB84:
1895:/home/simulink/cFS_FreeRTOS_seL4/cfe/fsw/cfe-core/src/es/cfe_es_task.c **** 
1896:/home/simulink/cFS_FreeRTOS_seL4/cfe/fsw/cfe-core/src/es/cfe_es_task.c **** 
1897:/home/simulink/cFS_FreeRTOS_seL4/cfe/fsw/cfe-core/src/es/cfe_es_task.c **** /* * * * * * * * * * * * * * * * * * * * * * * * * * * * * * * * * */
1898:/home/simulink/cFS_FreeRTOS_seL4/cfe/fsw/cfe-core/src/es/cfe_es_task.c **** /*                                                                 */
1899:/home/simulink/cFS_FreeRTOS_seL4/cfe/fsw/cfe-core/src/es/cfe_es_task.c **** /* CFE_ES_ResetPRCountCmd() -- ES task ground command              */
1900:/home/simulink/cFS_FreeRTOS_seL4/cfe/fsw/cfe-core/src/es/cfe_es_task.c **** /*                              (Processor Reset Count)            */
1901:/home/simulink/cFS_FreeRTOS_seL4/cfe/fsw/cfe-core/src/es/cfe_es_task.c **** /*                                                                 */
1902:/home/simulink/cFS_FreeRTOS_seL4/cfe/fsw/cfe-core/src/es/cfe_es_task.c **** /* * * * * * * * * * * * * * * * * * * * * * * * * * * * * * * * * */
1903:/home/simulink/cFS_FreeRTOS_seL4/cfe/fsw/cfe-core/src/es/cfe_es_task.c ****                 
1904:/home/simulink/cFS_FreeRTOS_seL4/cfe/fsw/cfe-core/src/es/cfe_es_task.c **** void CFE_ES_ResetPRCountCmd(CFE_SB_MsgPtr_t Msg)
1905:/home/simulink/cFS_FreeRTOS_seL4/cfe/fsw/cfe-core/src/es/cfe_es_task.c **** {                   
 4182               	.loc 1 1905 0
 4183               	.cfi_startproc
 4184 2082 598F      	subq.l #4,%sp
 4185               	.cfi_def_cfa_offset 8
1906:/home/simulink/cFS_FreeRTOS_seL4/cfe/fsw/cfe-core/src/es/cfe_es_task.c ****     uint16 ExpectedLength = sizeof(CFE_ES_NoArgsCmd_t);
 4186               	.loc 1 1906 0
 4187 2084 7008      	moveq #8,%d0
 4188 2086 3F40 0002 	move.w %d0,2(%sp)
1907:/home/simulink/cFS_FreeRTOS_seL4/cfe/fsw/cfe-core/src/es/cfe_es_task.c ****                 
1908:/home/simulink/cFS_FreeRTOS_seL4/cfe/fsw/cfe-core/src/es/cfe_es_task.c ****     /*              
1909:/home/simulink/cFS_FreeRTOS_seL4/cfe/fsw/cfe-core/src/es/cfe_es_task.c ****     ** Verify command packet length.
1910:/home/simulink/cFS_FreeRTOS_seL4/cfe/fsw/cfe-core/src/es/cfe_es_task.c ****     */
1911:/home/simulink/cFS_FreeRTOS_seL4/cfe/fsw/cfe-core/src/es/cfe_es_task.c ****     if (CFE_ES_VerifyCmdLength(Msg, ExpectedLength))
 4189               	.loc 1 1911 0
 4190 208a 4280      	clr.l %d0
 4191 208c 302F 0002 	move.w 2(%sp),%d0
 4192 2090 2F00      	move.l %d0,-(%sp)
 4193               	.cfi_def_cfa_offset 12
 4194 2092 2F2F 000C 	move.l 12(%sp),-(%sp)
 4195               	.cfi_def_cfa_offset 16
 4196 2096 4EB9 0000 	jsr CFE_ES_VerifyCmdLength
 4196      0000 
 4197 209c 508F      	addq.l #8,%sp
 4198               	.cfi_def_cfa_offset 8
 4199 209e 4A00      	tst.b %d0
68K GAS   			page 124


 4200 20a0 6738      	jeq .L184
1912:/home/simulink/cFS_FreeRTOS_seL4/cfe/fsw/cfe-core/src/es/cfe_es_task.c ****     {               
1913:/home/simulink/cFS_FreeRTOS_seL4/cfe/fsw/cfe-core/src/es/cfe_es_task.c ****                      
1914:/home/simulink/cFS_FreeRTOS_seL4/cfe/fsw/cfe-core/src/es/cfe_es_task.c ****         /*                            
1915:/home/simulink/cFS_FreeRTOS_seL4/cfe/fsw/cfe-core/src/es/cfe_es_task.c ****         ** Reset the processor reset count
1916:/home/simulink/cFS_FreeRTOS_seL4/cfe/fsw/cfe-core/src/es/cfe_es_task.c ****         */          
1917:/home/simulink/cFS_FreeRTOS_seL4/cfe/fsw/cfe-core/src/es/cfe_es_task.c ****         CFE_ES_ResetDataPtr->ResetVars.ProcessorResetCount = 0;
 4201               	.loc 1 1917 0
 4202 20a2 2079 0000 	move.l CFE_ES_ResetDataPtr,%a0
 4202      0000 
 4203 20a8 203C 0001 	move.l #128468,%d0
 4203      F5D4 
 4204 20ae 42B0 0800 	clr.l (%a0,%d0.l)
1918:/home/simulink/cFS_FreeRTOS_seL4/cfe/fsw/cfe-core/src/es/cfe_es_task.c ****             
1919:/home/simulink/cFS_FreeRTOS_seL4/cfe/fsw/cfe-core/src/es/cfe_es_task.c ****         /*
1920:/home/simulink/cFS_FreeRTOS_seL4/cfe/fsw/cfe-core/src/es/cfe_es_task.c ****         ** This command will always succeed.                                       
1921:/home/simulink/cFS_FreeRTOS_seL4/cfe/fsw/cfe-core/src/es/cfe_es_task.c ****         */                                                                         
1922:/home/simulink/cFS_FreeRTOS_seL4/cfe/fsw/cfe-core/src/es/cfe_es_task.c ****         CFE_EVS_SendEvent(CFE_ES_RESET_PR_COUNT_EID, CFE_EVS_INFORMATION,          
 4205               	.loc 1 1922 0
 4206 20b2 4879 0000 	pea .LC63
 4206      0000 
 4207               	.cfi_def_cfa_offset 12
 4208 20b8 4878 0002 	pea 2.w
 4209               	.cfi_def_cfa_offset 16
 4210 20bc 4878 0048 	pea 72.w
 4211               	.cfi_def_cfa_offset 20
 4212 20c0 4EB9 0000 	jsr CFE_EVS_SendEvent
 4212      0000 
 4213 20c6 4FEF 000C 	lea (12,%sp),%sp
 4214               	.cfi_def_cfa_offset 8
1923:/home/simulink/cFS_FreeRTOS_seL4/cfe/fsw/cfe-core/src/es/cfe_es_task.c ****                          "Set Processor Reset Count to Zero");  
1924:/home/simulink/cFS_FreeRTOS_seL4/cfe/fsw/cfe-core/src/es/cfe_es_task.c ****                          
1925:/home/simulink/cFS_FreeRTOS_seL4/cfe/fsw/cfe-core/src/es/cfe_es_task.c ****         CFE_ES_TaskData.CmdCounter++;
 4215               	.loc 1 1925 0
 4216 20ca 1039 0000 	move.b CFE_ES_TaskData,%d0
 4216      0000 
 4217 20d0 5280      	addq.l #1,%d0
 4218 20d2 1000      	move.b %d0,%d0
 4219 20d4 13C0 0000 	move.b %d0,CFE_ES_TaskData
 4219      0000 
 4220               	.L184:
1926:/home/simulink/cFS_FreeRTOS_seL4/cfe/fsw/cfe-core/src/es/cfe_es_task.c ****     }                                                                              
1927:/home/simulink/cFS_FreeRTOS_seL4/cfe/fsw/cfe-core/src/es/cfe_es_task.c ****                                                                                    
1928:/home/simulink/cFS_FreeRTOS_seL4/cfe/fsw/cfe-core/src/es/cfe_es_task.c **** } /* End of CFE_ES_ResetPRCountCmd() */                                            
 4221               	.loc 1 1928 0
 4222 20da 4E71      	nop
 4223 20dc 588F      	addq.l #4,%sp
 4224 20de 4E75      	rts
 4225               	.cfi_endproc
 4226               	.LFE84:
 4227               	.sizeCFE_ES_ResetPRCountCmd, .-CFE_ES_ResetPRCountCmd
 4228               	.section.rodata
 4229               	.LC64:
 4230 0ab2 4D61 7869 	.string"Maximum Processor Reset Count set to: %d"
 4230      6D75 6D20 
 4230      5072 6F63 
 4230      6573 736F 
68K GAS   			page 125


 4230      7220 5265 
 4231               	.text
 4232               	.align2
 4233               	.globlCFE_ES_SetMaxPRCountCmd
 4234               	.typeCFE_ES_SetMaxPRCountCmd, @function
 4235               	CFE_ES_SetMaxPRCountCmd:
 4236               	.LFB85:
1929:/home/simulink/cFS_FreeRTOS_seL4/cfe/fsw/cfe-core/src/es/cfe_es_task.c **** 
1930:/home/simulink/cFS_FreeRTOS_seL4/cfe/fsw/cfe-core/src/es/cfe_es_task.c **** /* * * * * * * * * * * * * * * * * * * * * * * * * * * * * * * * * */              
1931:/home/simulink/cFS_FreeRTOS_seL4/cfe/fsw/cfe-core/src/es/cfe_es_task.c **** /*                                                                 */              
1932:/home/simulink/cFS_FreeRTOS_seL4/cfe/fsw/cfe-core/src/es/cfe_es_task.c **** /* CFE_ES_SetMaxPRCountCmd() -- Set Maximum Processor reset count  */              
1933:/home/simulink/cFS_FreeRTOS_seL4/cfe/fsw/cfe-core/src/es/cfe_es_task.c **** /*                                                                 */              
1934:/home/simulink/cFS_FreeRTOS_seL4/cfe/fsw/cfe-core/src/es/cfe_es_task.c **** /* * * * * * * * * * * * * * * * * * * * * * * * * * * * * * * * * */              
1935:/home/simulink/cFS_FreeRTOS_seL4/cfe/fsw/cfe-core/src/es/cfe_es_task.c ****                                                                                    
1936:/home/simulink/cFS_FreeRTOS_seL4/cfe/fsw/cfe-core/src/es/cfe_es_task.c **** void CFE_ES_SetMaxPRCountCmd(CFE_SB_MsgPtr_t Msg)                                  
1937:/home/simulink/cFS_FreeRTOS_seL4/cfe/fsw/cfe-core/src/es/cfe_es_task.c **** {                                                                                  
 4237               	.loc 1 1937 0
 4238               	.cfi_startproc
 4239 20e0 518F      	subq.l #8,%sp
 4240               	.cfi_def_cfa_offset 12
1938:/home/simulink/cFS_FreeRTOS_seL4/cfe/fsw/cfe-core/src/es/cfe_es_task.c ****     CFE_ES_SetMaxPRCountCmd_Payload_t *cmd = (CFE_ES_SetMaxPRCountCmd_Payload_t *)&Msg->Byte[CFE_SB
 4241               	.loc 1 1938 0
 4242 20e2 202F 000C 	move.l 12(%sp),%d0
 4243 20e6 5080      	addq.l #8,%d0
 4244 20e8 2F40 0004 	move.l %d0,4(%sp)
1939:/home/simulink/cFS_FreeRTOS_seL4/cfe/fsw/cfe-core/src/es/cfe_es_task.c ****     uint16 ExpectedLength = sizeof(CFE_ES_SetMaxPRCountCmd_t);                     
 4245               	.loc 1 1939 0
 4246 20ec 700A      	moveq #10,%d0
 4247 20ee 3F40 0002 	move.w %d0,2(%sp)
1940:/home/simulink/cFS_FreeRTOS_seL4/cfe/fsw/cfe-core/src/es/cfe_es_task.c ****                                                                                    
1941:/home/simulink/cFS_FreeRTOS_seL4/cfe/fsw/cfe-core/src/es/cfe_es_task.c ****     /*                                                                             
1942:/home/simulink/cFS_FreeRTOS_seL4/cfe/fsw/cfe-core/src/es/cfe_es_task.c ****     ** Verify command packet length.                                               
1943:/home/simulink/cFS_FreeRTOS_seL4/cfe/fsw/cfe-core/src/es/cfe_es_task.c ****     */                                                                             
1944:/home/simulink/cFS_FreeRTOS_seL4/cfe/fsw/cfe-core/src/es/cfe_es_task.c ****     if (CFE_ES_VerifyCmdLength(Msg, ExpectedLength))                               
 4248               	.loc 1 1944 0
 4249 20f2 4280      	clr.l %d0
 4250 20f4 302F 0002 	move.w 2(%sp),%d0
 4251 20f8 2F00      	move.l %d0,-(%sp)
 4252               	.cfi_def_cfa_offset 16
 4253 20fa 2F2F 0010 	move.l 16(%sp),-(%sp)
 4254               	.cfi_def_cfa_offset 20
 4255 20fe 4EB9 0000 	jsr CFE_ES_VerifyCmdLength
 4255      0000 
 4256 2104 508F      	addq.l #8,%sp
 4257               	.cfi_def_cfa_offset 12
 4258 2106 4A00      	tst.b %d0
 4259 2108 6752      	jeq .L187
1945:/home/simulink/cFS_FreeRTOS_seL4/cfe/fsw/cfe-core/src/es/cfe_es_task.c ****     {                                                                              
1946:/home/simulink/cFS_FreeRTOS_seL4/cfe/fsw/cfe-core/src/es/cfe_es_task.c ****                                                                                    
1947:/home/simulink/cFS_FreeRTOS_seL4/cfe/fsw/cfe-core/src/es/cfe_es_task.c ****         /*                                                                         
1948:/home/simulink/cFS_FreeRTOS_seL4/cfe/fsw/cfe-core/src/es/cfe_es_task.c ****         ** Set the MAX Processor reset count                                       
1949:/home/simulink/cFS_FreeRTOS_seL4/cfe/fsw/cfe-core/src/es/cfe_es_task.c ****         */                                                                         
1950:/home/simulink/cFS_FreeRTOS_seL4/cfe/fsw/cfe-core/src/es/cfe_es_task.c ****         CFE_ES_ResetDataPtr->ResetVars.MaxProcessorResetCount = cmd->MaxPRCount;   
 4260               	.loc 1 1950 0
 4261 210a 206F 0004 	move.l 4(%sp),%a0
 4262 210e 3010      	move.w (%a0),%d0
 4263 2110 2079 0000 	move.l CFE_ES_ResetDataPtr,%a0
68K GAS   			page 126


 4263      0000 
 4264 2116 4281      	clr.l %d1
 4265 2118 3200      	move.w %d0,%d1
 4266 211a 203C 0001 	move.l #128472,%d0
 4266      F5D8 
 4267 2120 2181 0800 	move.l %d1,(%a0,%d0.l)
1951:/home/simulink/cFS_FreeRTOS_seL4/cfe/fsw/cfe-core/src/es/cfe_es_task.c ****                                                                                    
1952:/home/simulink/cFS_FreeRTOS_seL4/cfe/fsw/cfe-core/src/es/cfe_es_task.c ****         /*                                                                         
1953:/home/simulink/cFS_FreeRTOS_seL4/cfe/fsw/cfe-core/src/es/cfe_es_task.c ****         ** This command will always succeed.                                       
1954:/home/simulink/cFS_FreeRTOS_seL4/cfe/fsw/cfe-core/src/es/cfe_es_task.c ****         */                                                                         
1955:/home/simulink/cFS_FreeRTOS_seL4/cfe/fsw/cfe-core/src/es/cfe_es_task.c ****         CFE_EVS_SendEvent(CFE_ES_SET_MAX_PR_COUNT_EID, CFE_EVS_INFORMATION,        
1956:/home/simulink/cFS_FreeRTOS_seL4/cfe/fsw/cfe-core/src/es/cfe_es_task.c ****                          "Maximum Processor Reset Count set to: %d", cmd->MaxPRCount);
 4268               	.loc 1 1956 0
 4269 2124 206F 0004 	move.l 4(%sp),%a0
 4270 2128 3010      	move.w (%a0),%d0
1955:/home/simulink/cFS_FreeRTOS_seL4/cfe/fsw/cfe-core/src/es/cfe_es_task.c ****                          "Maximum Processor Reset Count set to: %d", cmd->MaxPRCount);
 4271               	.loc 1 1955 0
 4272 212a 3000      	move.w %d0,%d0
 4273 212c 0280 0000 	and.l #65535,%d0
 4273      FFFF 
 4274 2132 2F00      	move.l %d0,-(%sp)
 4275               	.cfi_def_cfa_offset 16
 4276 2134 4879 0000 	pea .LC64
 4276      0000 
 4277               	.cfi_def_cfa_offset 20
 4278 213a 4878 0002 	pea 2.w
 4279               	.cfi_def_cfa_offset 24
 4280 213e 4878 0049 	pea 73.w
 4281               	.cfi_def_cfa_offset 28
 4282 2142 4EB9 0000 	jsr CFE_EVS_SendEvent
 4282      0000 
 4283 2148 4FEF 0010 	lea (16,%sp),%sp
 4284               	.cfi_def_cfa_offset 12
1957:/home/simulink/cFS_FreeRTOS_seL4/cfe/fsw/cfe-core/src/es/cfe_es_task.c ****                          
1958:/home/simulink/cFS_FreeRTOS_seL4/cfe/fsw/cfe-core/src/es/cfe_es_task.c ****         CFE_ES_TaskData.CmdCounter++;
 4285               	.loc 1 1958 0
 4286 214c 1039 0000 	move.b CFE_ES_TaskData,%d0
 4286      0000 
 4287 2152 5280      	addq.l #1,%d0
 4288 2154 1000      	move.b %d0,%d0
 4289 2156 13C0 0000 	move.b %d0,CFE_ES_TaskData
 4289      0000 
 4290               	.L187:
1959:/home/simulink/cFS_FreeRTOS_seL4/cfe/fsw/cfe-core/src/es/cfe_es_task.c ****         
1960:/home/simulink/cFS_FreeRTOS_seL4/cfe/fsw/cfe-core/src/es/cfe_es_task.c ****     }                                                                              
1961:/home/simulink/cFS_FreeRTOS_seL4/cfe/fsw/cfe-core/src/es/cfe_es_task.c ****                                                                                    
1962:/home/simulink/cFS_FreeRTOS_seL4/cfe/fsw/cfe-core/src/es/cfe_es_task.c **** } /* End of CFE_ES_RestartCmd() */ 
 4291               	.loc 1 1962 0
 4292 215c 4E71      	nop
 4293 215e 508F      	addq.l #8,%sp
 4294 2160 4E75      	rts
 4295               	.cfi_endproc
 4296               	.LFE85:
 4297               	.sizeCFE_ES_SetMaxPRCountCmd, .-CFE_ES_SetMaxPRCountCmd
 4298               	.section.rodata
 4299               	.LC65:
 4300 0adb 4344 5320 	.string"CDS '%s' is a Critical Table CDS. Must be deleted via TBL Command"
68K GAS   			page 127


 4300      2725 7327 
 4300      2069 7320 
 4300      6120 4372 
 4300      6974 6963 
 4301               	.LC66:
 4302 0b1d 4344 5320 	.string"CDS '%s' not deleted because owning app is active"
 4302      2725 7327 
 4302      206E 6F74 
 4302      2064 656C 
 4302      6574 6564 
 4303               	.LC67:
 4304 0b4f 556E 6162 	.string"Unable to locate '%s' in CDS Registry"
 4304      6C65 2074 
 4304      6F20 6C6F 
 4304      6361 7465 
 4304      2027 2573 
 4305               	.LC68:
 4306 0b75 4572 726F 	.string"Error while deleting '%s' from CDS, See SysLog.(Err=0x%08X)"
 4306      7220 7768 
 4306      696C 6520 
 4306      6465 6C65 
 4306      7469 6E67 
 4307               	.LC69:
 4308 0bb1 5375 6363 	.string"Successfully removed '%s' from CDS"
 4308      6573 7366 
 4308      756C 6C79 
 4308      2072 656D 
 4308      6F76 6564 
 4309               	.text
 4310               	.align2
 4311               	.globlCFE_ES_DeleteCDSCmd
 4312               	.typeCFE_ES_DeleteCDSCmd, @function
 4313               	CFE_ES_DeleteCDSCmd:
 4314               	.LFB86:
1963:/home/simulink/cFS_FreeRTOS_seL4/cfe/fsw/cfe-core/src/es/cfe_es_task.c **** 
1964:/home/simulink/cFS_FreeRTOS_seL4/cfe/fsw/cfe-core/src/es/cfe_es_task.c **** /* * * * * * * * * * * * * * * * * * * * * * * * * * * * * * * * * */              
1965:/home/simulink/cFS_FreeRTOS_seL4/cfe/fsw/cfe-core/src/es/cfe_es_task.c **** /*                                                                 */              
1966:/home/simulink/cFS_FreeRTOS_seL4/cfe/fsw/cfe-core/src/es/cfe_es_task.c **** /* CFE_ES_DeleteCDSCmd() -- Delete Specified Critical Data Store   */              
1967:/home/simulink/cFS_FreeRTOS_seL4/cfe/fsw/cfe-core/src/es/cfe_es_task.c **** /*                                                                 */              
1968:/home/simulink/cFS_FreeRTOS_seL4/cfe/fsw/cfe-core/src/es/cfe_es_task.c **** /* * * * * * * * * * * * * * * * * * * * * * * * * * * * * * * * * */              
1969:/home/simulink/cFS_FreeRTOS_seL4/cfe/fsw/cfe-core/src/es/cfe_es_task.c ****                                                                                    
1970:/home/simulink/cFS_FreeRTOS_seL4/cfe/fsw/cfe-core/src/es/cfe_es_task.c **** void CFE_ES_DeleteCDSCmd(CFE_SB_MsgPtr_t Msg)                                  
1971:/home/simulink/cFS_FreeRTOS_seL4/cfe/fsw/cfe-core/src/es/cfe_es_task.c **** {                                                                                  
 4315               	.loc 1 1971 0
 4316               	.cfi_startproc
 4317 2162 4FEF FFCC 	lea (-52,%sp),%sp
 4318               	.cfi_def_cfa_offset 56
1972:/home/simulink/cFS_FreeRTOS_seL4/cfe/fsw/cfe-core/src/es/cfe_es_task.c ****     uint16 ExpectedLength = sizeof(CFE_ES_DeleteCDSCmd_t);                     
 4319               	.loc 1 1972 0
 4320 2166 702E      	moveq #46,%d0
 4321 2168 3F40 0032 	move.w %d0,50(%sp)
1973:/home/simulink/cFS_FreeRTOS_seL4/cfe/fsw/cfe-core/src/es/cfe_es_task.c ****     int32   Status;
1974:/home/simulink/cFS_FreeRTOS_seL4/cfe/fsw/cfe-core/src/es/cfe_es_task.c ****     CFE_ES_DeleteCDSCmd_Payload_t *cmd = (CFE_ES_DeleteCDSCmd_Payload_t *)&Msg->Byte[CFE_SB_CMD_HDR
 4322               	.loc 1 1974 0
 4323 216c 202F 0038 	move.l 56(%sp),%d0
 4324 2170 5080      	addq.l #8,%d0
 4325 2172 2F40 002C 	move.l %d0,44(%sp)
68K GAS   			page 128


1975:/home/simulink/cFS_FreeRTOS_seL4/cfe/fsw/cfe-core/src/es/cfe_es_task.c ****     char LocalCdsName[CFE_ES_CDS_MAX_FULL_NAME_LEN];
1976:/home/simulink/cFS_FreeRTOS_seL4/cfe/fsw/cfe-core/src/es/cfe_es_task.c ****                                                                                    
1977:/home/simulink/cFS_FreeRTOS_seL4/cfe/fsw/cfe-core/src/es/cfe_es_task.c ****     /*                                                                             
1978:/home/simulink/cFS_FreeRTOS_seL4/cfe/fsw/cfe-core/src/es/cfe_es_task.c ****     ** Verify command packet length.                                               
1979:/home/simulink/cFS_FreeRTOS_seL4/cfe/fsw/cfe-core/src/es/cfe_es_task.c ****     */                                                                             
1980:/home/simulink/cFS_FreeRTOS_seL4/cfe/fsw/cfe-core/src/es/cfe_es_task.c ****     if (CFE_ES_VerifyCmdLength(Msg, ExpectedLength))                               
 4326               	.loc 1 1980 0
 4327 2176 4280      	clr.l %d0
 4328 2178 302F 0032 	move.w 50(%sp),%d0
 4329 217c 2F00      	move.l %d0,-(%sp)
 4330               	.cfi_def_cfa_offset 60
 4331 217e 2F2F 003C 	move.l 60(%sp),-(%sp)
 4332               	.cfi_def_cfa_offset 64
 4333 2182 4EB9 0000 	jsr CFE_ES_VerifyCmdLength
 4333      0000 
 4334 2188 508F      	addq.l #8,%sp
 4335               	.cfi_def_cfa_offset 56
 4336 218a 4A00      	tst.b %d0
 4337 218c 6700 015C 	jeq .L194
1981:/home/simulink/cFS_FreeRTOS_seL4/cfe/fsw/cfe-core/src/es/cfe_es_task.c ****     {
1982:/home/simulink/cFS_FreeRTOS_seL4/cfe/fsw/cfe-core/src/es/cfe_es_task.c ****         CFE_SB_MessageStringGet(LocalCdsName, (char *)cmd->CdsName, NULL,
 4338               	.loc 1 1982 0
 4339 2190 202F 002C 	move.l 44(%sp),%d0
 4340 2194 4878 0026 	pea 38.w
 4341               	.cfi_def_cfa_offset 60
 4342 2198 4878 0026 	pea 38.w
 4343               	.cfi_def_cfa_offset 64
 4344 219c 42A7      	clr.l -(%sp)
 4345               	.cfi_def_cfa_offset 68
 4346 219e 2F00      	move.l %d0,-(%sp)
 4347               	.cfi_def_cfa_offset 72
 4348 21a0 200F      	move.l %sp,%d0
 4349 21a2 0680 0000 	add.l #18,%d0
 4349      0012 
 4350 21a8 2F00      	move.l %d0,-(%sp)
 4351               	.cfi_def_cfa_offset 76
 4352 21aa 4EB9 0000 	jsr CFE_SB_MessageStringGet
 4352      0000 
 4353 21b0 4FEF 0014 	lea (20,%sp),%sp
 4354               	.cfi_def_cfa_offset 56
1983:/home/simulink/cFS_FreeRTOS_seL4/cfe/fsw/cfe-core/src/es/cfe_es_task.c ****                 CFE_ES_CDS_MAX_FULL_NAME_LEN, sizeof(cmd->CdsName));
1984:/home/simulink/cFS_FreeRTOS_seL4/cfe/fsw/cfe-core/src/es/cfe_es_task.c **** 
1985:/home/simulink/cFS_FreeRTOS_seL4/cfe/fsw/cfe-core/src/es/cfe_es_task.c ****         Status = CFE_ES_DeleteCDS(LocalCdsName, FALSE);
 4355               	.loc 1 1985 0
 4356 21b4 42A7      	clr.l -(%sp)
 4357               	.cfi_def_cfa_offset 60
 4358 21b6 200F      	move.l %sp,%d0
 4359 21b8 5C80      	addq.l #6,%d0
 4360 21ba 2F00      	move.l %d0,-(%sp)
 4361               	.cfi_def_cfa_offset 64
 4362 21bc 4EB9 0000 	jsr CFE_ES_DeleteCDS
 4362      0000 
 4363 21c2 508F      	addq.l #8,%sp
 4364               	.cfi_def_cfa_offset 56
 4365 21c4 2F40 0028 	move.l %d0,40(%sp)
1986:/home/simulink/cFS_FreeRTOS_seL4/cfe/fsw/cfe-core/src/es/cfe_es_task.c ****         
1987:/home/simulink/cFS_FreeRTOS_seL4/cfe/fsw/cfe-core/src/es/cfe_es_task.c ****         if (Status == CFE_ES_CDS_WRONG_TYPE_ERR)
68K GAS   			page 129


 4366               	.loc 1 1987 0
 4367 21c8 203C C400 	move.l #-1006632928,%d0
 4367      0020 
 4368 21ce B0AF 0028 	cmp.l 40(%sp),%d0
 4369 21d2 6632      	jne .L190
1988:/home/simulink/cFS_FreeRTOS_seL4/cfe/fsw/cfe-core/src/es/cfe_es_task.c ****         {
1989:/home/simulink/cFS_FreeRTOS_seL4/cfe/fsw/cfe-core/src/es/cfe_es_task.c ****             CFE_EVS_SendEvent(CFE_ES_CDS_DELETE_TBL_ERR_EID, CFE_EVS_ERROR,
 4370               	.loc 1 1989 0
 4371 21d4 200F      	move.l %sp,%d0
 4372 21d6 5480      	addq.l #2,%d0
 4373 21d8 2F00      	move.l %d0,-(%sp)
 4374               	.cfi_def_cfa_offset 60
 4375 21da 4879 0000 	pea .LC65
 4375      0000 
 4376               	.cfi_def_cfa_offset 64
 4377 21e0 4878 0003 	pea 3.w
 4378               	.cfi_def_cfa_offset 68
 4379 21e4 4878 004F 	pea 79.w
 4380               	.cfi_def_cfa_offset 72
 4381 21e8 4EB9 0000 	jsr CFE_EVS_SendEvent
 4381      0000 
 4382 21ee 4FEF 0010 	lea (16,%sp),%sp
 4383               	.cfi_def_cfa_offset 56
1990:/home/simulink/cFS_FreeRTOS_seL4/cfe/fsw/cfe-core/src/es/cfe_es_task.c ****                               "CDS '%s' is a Critical Table CDS. Must be deleted via TBL Command", 
1991:/home/simulink/cFS_FreeRTOS_seL4/cfe/fsw/cfe-core/src/es/cfe_es_task.c ****                               LocalCdsName);
1992:/home/simulink/cFS_FreeRTOS_seL4/cfe/fsw/cfe-core/src/es/cfe_es_task.c **** 
1993:/home/simulink/cFS_FreeRTOS_seL4/cfe/fsw/cfe-core/src/es/cfe_es_task.c ****             CFE_ES_TaskData.ErrCounter++;      
 4384               	.loc 1 1993 0
 4385 21f2 1039 0000 	move.b CFE_ES_TaskData+1,%d0
 4385      0000 
 4386 21f8 5280      	addq.l #1,%d0
 4387 21fa 1000      	move.b %d0,%d0
 4388 21fc 13C0 0000 	move.b %d0,CFE_ES_TaskData+1
 4388      0000 
1994:/home/simulink/cFS_FreeRTOS_seL4/cfe/fsw/cfe-core/src/es/cfe_es_task.c ****         }
1995:/home/simulink/cFS_FreeRTOS_seL4/cfe/fsw/cfe-core/src/es/cfe_es_task.c ****         else if (Status == CFE_ES_CDS_OWNER_ACTIVE_ERR)
1996:/home/simulink/cFS_FreeRTOS_seL4/cfe/fsw/cfe-core/src/es/cfe_es_task.c ****         {
1997:/home/simulink/cFS_FreeRTOS_seL4/cfe/fsw/cfe-core/src/es/cfe_es_task.c ****             CFE_EVS_SendEvent(CFE_ES_CDS_OWNER_ACTIVE_EID, CFE_EVS_ERROR,        
1998:/home/simulink/cFS_FreeRTOS_seL4/cfe/fsw/cfe-core/src/es/cfe_es_task.c ****                              "CDS '%s' not deleted because owning app is active", LocalCdsName);
1999:/home/simulink/cFS_FreeRTOS_seL4/cfe/fsw/cfe-core/src/es/cfe_es_task.c ****                              
2000:/home/simulink/cFS_FreeRTOS_seL4/cfe/fsw/cfe-core/src/es/cfe_es_task.c ****             CFE_ES_TaskData.ErrCounter++;
2001:/home/simulink/cFS_FreeRTOS_seL4/cfe/fsw/cfe-core/src/es/cfe_es_task.c ****         }
2002:/home/simulink/cFS_FreeRTOS_seL4/cfe/fsw/cfe-core/src/es/cfe_es_task.c ****         else if (Status == CFE_ES_CDS_NOT_FOUND_ERR)
2003:/home/simulink/cFS_FreeRTOS_seL4/cfe/fsw/cfe-core/src/es/cfe_es_task.c ****         {
2004:/home/simulink/cFS_FreeRTOS_seL4/cfe/fsw/cfe-core/src/es/cfe_es_task.c ****             CFE_EVS_SendEvent(CFE_ES_CDS_NAME_ERR_EID, CFE_EVS_ERROR,        
2005:/home/simulink/cFS_FreeRTOS_seL4/cfe/fsw/cfe-core/src/es/cfe_es_task.c ****                              "Unable to locate '%s' in CDS Registry", LocalCdsName);
2006:/home/simulink/cFS_FreeRTOS_seL4/cfe/fsw/cfe-core/src/es/cfe_es_task.c ****                              
2007:/home/simulink/cFS_FreeRTOS_seL4/cfe/fsw/cfe-core/src/es/cfe_es_task.c ****             CFE_ES_TaskData.ErrCounter++;
2008:/home/simulink/cFS_FreeRTOS_seL4/cfe/fsw/cfe-core/src/es/cfe_es_task.c ****         }
2009:/home/simulink/cFS_FreeRTOS_seL4/cfe/fsw/cfe-core/src/es/cfe_es_task.c ****         else if (Status != CFE_SUCCESS)
2010:/home/simulink/cFS_FreeRTOS_seL4/cfe/fsw/cfe-core/src/es/cfe_es_task.c ****         {
2011:/home/simulink/cFS_FreeRTOS_seL4/cfe/fsw/cfe-core/src/es/cfe_es_task.c ****             CFE_EVS_SendEvent(CFE_ES_CDS_DELETE_ERR_EID, CFE_EVS_ERROR,
2012:/home/simulink/cFS_FreeRTOS_seL4/cfe/fsw/cfe-core/src/es/cfe_es_task.c ****                              "Error while deleting '%s' from CDS, See SysLog.(Err=0x%08X)",
2013:/home/simulink/cFS_FreeRTOS_seL4/cfe/fsw/cfe-core/src/es/cfe_es_task.c ****                              LocalCdsName, (unsigned int)Status);
2014:/home/simulink/cFS_FreeRTOS_seL4/cfe/fsw/cfe-core/src/es/cfe_es_task.c **** 
2015:/home/simulink/cFS_FreeRTOS_seL4/cfe/fsw/cfe-core/src/es/cfe_es_task.c ****             CFE_ES_TaskData.ErrCounter++;      
2016:/home/simulink/cFS_FreeRTOS_seL4/cfe/fsw/cfe-core/src/es/cfe_es_task.c ****         }
68K GAS   			page 130


2017:/home/simulink/cFS_FreeRTOS_seL4/cfe/fsw/cfe-core/src/es/cfe_es_task.c ****         else
2018:/home/simulink/cFS_FreeRTOS_seL4/cfe/fsw/cfe-core/src/es/cfe_es_task.c ****         {
2019:/home/simulink/cFS_FreeRTOS_seL4/cfe/fsw/cfe-core/src/es/cfe_es_task.c ****             CFE_EVS_SendEvent(CFE_ES_CDS_DELETED_INFO_EID, CFE_EVS_INFORMATION,
2020:/home/simulink/cFS_FreeRTOS_seL4/cfe/fsw/cfe-core/src/es/cfe_es_task.c ****                               "Successfully removed '%s' from CDS", LocalCdsName);
2021:/home/simulink/cFS_FreeRTOS_seL4/cfe/fsw/cfe-core/src/es/cfe_es_task.c **** 
2022:/home/simulink/cFS_FreeRTOS_seL4/cfe/fsw/cfe-core/src/es/cfe_es_task.c ****             CFE_ES_TaskData.CmdCounter++;      
2023:/home/simulink/cFS_FreeRTOS_seL4/cfe/fsw/cfe-core/src/es/cfe_es_task.c ****         }
2024:/home/simulink/cFS_FreeRTOS_seL4/cfe/fsw/cfe-core/src/es/cfe_es_task.c ****     }
2025:/home/simulink/cFS_FreeRTOS_seL4/cfe/fsw/cfe-core/src/es/cfe_es_task.c **** 
2026:/home/simulink/cFS_FreeRTOS_seL4/cfe/fsw/cfe-core/src/es/cfe_es_task.c **** } /* End of CFE_ES_DeleteCDSCmd() */ 
 4389               	.loc 1 2026 0
 4390 2202 6000 00E6 	jra .L194
 4391               	.L190:
1995:/home/simulink/cFS_FreeRTOS_seL4/cfe/fsw/cfe-core/src/es/cfe_es_task.c ****         {
 4392               	.loc 1 1995 0
 4393 2206 203C C400 	move.l #-1006632926,%d0
 4393      0022 
 4394 220c B0AF 0028 	cmp.l 40(%sp),%d0
 4395 2210 6632      	jne .L191
1997:/home/simulink/cFS_FreeRTOS_seL4/cfe/fsw/cfe-core/src/es/cfe_es_task.c ****                              "CDS '%s' not deleted because owning app is active", LocalCdsName);
 4396               	.loc 1 1997 0
 4397 2212 200F      	move.l %sp,%d0
 4398 2214 5480      	addq.l #2,%d0
 4399 2216 2F00      	move.l %d0,-(%sp)
 4400               	.cfi_def_cfa_offset 60
 4401 2218 4879 0000 	pea .LC66
 4401      0000 
 4402               	.cfi_def_cfa_offset 64
 4403 221e 4878 0003 	pea 3.w
 4404               	.cfi_def_cfa_offset 68
 4405 2222 4878 0050 	pea 80.w
 4406               	.cfi_def_cfa_offset 72
 4407 2226 4EB9 0000 	jsr CFE_EVS_SendEvent
 4407      0000 
 4408 222c 4FEF 0010 	lea (16,%sp),%sp
 4409               	.cfi_def_cfa_offset 56
2000:/home/simulink/cFS_FreeRTOS_seL4/cfe/fsw/cfe-core/src/es/cfe_es_task.c ****         }
 4410               	.loc 1 2000 0
 4411 2230 1039 0000 	move.b CFE_ES_TaskData+1,%d0
 4411      0000 
 4412 2236 5280      	addq.l #1,%d0
 4413 2238 1000      	move.b %d0,%d0
 4414 223a 13C0 0000 	move.b %d0,CFE_ES_TaskData+1
 4414      0000 
 4415               	.loc 1 2026 0
 4416 2240 6000 00A8 	jra .L194
 4417               	.L191:
2002:/home/simulink/cFS_FreeRTOS_seL4/cfe/fsw/cfe-core/src/es/cfe_es_task.c ****         {
 4418               	.loc 1 2002 0
 4419 2244 203C C400 	move.l #-1006632927,%d0
 4419      0021 
 4420 224a B0AF 0028 	cmp.l 40(%sp),%d0
 4421 224e 6630      	jne .L192
2004:/home/simulink/cFS_FreeRTOS_seL4/cfe/fsw/cfe-core/src/es/cfe_es_task.c ****                              "Unable to locate '%s' in CDS Registry", LocalCdsName);
 4422               	.loc 1 2004 0
 4423 2250 200F      	move.l %sp,%d0
 4424 2252 5480      	addq.l #2,%d0
68K GAS   			page 131


 4425 2254 2F00      	move.l %d0,-(%sp)
 4426               	.cfi_def_cfa_offset 60
 4427 2256 4879 0000 	pea .LC67
 4427      0000 
 4428               	.cfi_def_cfa_offset 64
 4429 225c 4878 0003 	pea 3.w
 4430               	.cfi_def_cfa_offset 68
 4431 2260 4878 004D 	pea 77.w
 4432               	.cfi_def_cfa_offset 72
 4433 2264 4EB9 0000 	jsr CFE_EVS_SendEvent
 4433      0000 
 4434 226a 4FEF 0010 	lea (16,%sp),%sp
 4435               	.cfi_def_cfa_offset 56
2007:/home/simulink/cFS_FreeRTOS_seL4/cfe/fsw/cfe-core/src/es/cfe_es_task.c ****         }
 4436               	.loc 1 2007 0
 4437 226e 1039 0000 	move.b CFE_ES_TaskData+1,%d0
 4437      0000 
 4438 2274 5280      	addq.l #1,%d0
 4439 2276 1000      	move.b %d0,%d0
 4440 2278 13C0 0000 	move.b %d0,CFE_ES_TaskData+1
 4440      0000 
 4441               	.loc 1 2026 0
 4442 227e 606A      	jra .L194
 4443               	.L192:
2009:/home/simulink/cFS_FreeRTOS_seL4/cfe/fsw/cfe-core/src/es/cfe_es_task.c ****         {
 4444               	.loc 1 2009 0
 4445 2280 4AAF 0028 	tst.l 40(%sp)
 4446 2284 6736      	jeq .L193
2011:/home/simulink/cFS_FreeRTOS_seL4/cfe/fsw/cfe-core/src/es/cfe_es_task.c ****                              "Error while deleting '%s' from CDS, See SysLog.(Err=0x%08X)",
 4447               	.loc 1 2011 0
 4448 2286 202F 0028 	move.l 40(%sp),%d0
 4449 228a 2F00      	move.l %d0,-(%sp)
 4450               	.cfi_def_cfa_offset 60
 4451 228c 200F      	move.l %sp,%d0
 4452 228e 5C80      	addq.l #6,%d0
 4453 2290 2F00      	move.l %d0,-(%sp)
 4454               	.cfi_def_cfa_offset 64
 4455 2292 4879 0000 	pea .LC68
 4455      0000 
 4456               	.cfi_def_cfa_offset 68
 4457 2298 4878 0003 	pea 3.w
 4458               	.cfi_def_cfa_offset 72
 4459 229c 4878 004C 	pea 76.w
 4460               	.cfi_def_cfa_offset 76
 4461 22a0 4EB9 0000 	jsr CFE_EVS_SendEvent
 4461      0000 
 4462 22a6 4FEF 0014 	lea (20,%sp),%sp
 4463               	.cfi_def_cfa_offset 56
2015:/home/simulink/cFS_FreeRTOS_seL4/cfe/fsw/cfe-core/src/es/cfe_es_task.c ****         }
 4464               	.loc 1 2015 0
 4465 22aa 1039 0000 	move.b CFE_ES_TaskData+1,%d0
 4465      0000 
 4466 22b0 5280      	addq.l #1,%d0
 4467 22b2 1000      	move.b %d0,%d0
 4468 22b4 13C0 0000 	move.b %d0,CFE_ES_TaskData+1
 4468      0000 
 4469               	.loc 1 2026 0
68K GAS   			page 132


 4470 22ba 602E      	jra .L194
 4471               	.L193:
2019:/home/simulink/cFS_FreeRTOS_seL4/cfe/fsw/cfe-core/src/es/cfe_es_task.c ****                               "Successfully removed '%s' from CDS", LocalCdsName);
 4472               	.loc 1 2019 0
 4473 22bc 200F      	move.l %sp,%d0
 4474 22be 5480      	addq.l #2,%d0
 4475 22c0 2F00      	move.l %d0,-(%sp)
 4476               	.cfi_def_cfa_offset 60
 4477 22c2 4879 0000 	pea .LC69
 4477      0000 
 4478               	.cfi_def_cfa_offset 64
 4479 22c8 4878 0002 	pea 2.w
 4480               	.cfi_def_cfa_offset 68
 4481 22cc 4878 004E 	pea 78.w
 4482               	.cfi_def_cfa_offset 72
 4483 22d0 4EB9 0000 	jsr CFE_EVS_SendEvent
 4483      0000 
 4484 22d6 4FEF 0010 	lea (16,%sp),%sp
 4485               	.cfi_def_cfa_offset 56
2022:/home/simulink/cFS_FreeRTOS_seL4/cfe/fsw/cfe-core/src/es/cfe_es_task.c ****         }
 4486               	.loc 1 2022 0
 4487 22da 1039 0000 	move.b CFE_ES_TaskData,%d0
 4487      0000 
 4488 22e0 5280      	addq.l #1,%d0
 4489 22e2 1000      	move.b %d0,%d0
 4490 22e4 13C0 0000 	move.b %d0,CFE_ES_TaskData
 4490      0000 
 4491               	.L194:
 4492               	.loc 1 2026 0
 4493 22ea 4E71      	nop
 4494 22ec 4FEF 0034 	lea (52,%sp),%sp
 4495 22f0 4E75      	rts
 4496               	.cfi_endproc
 4497               	.LFE86:
 4498               	.sizeCFE_ES_DeleteCDSCmd, .-CFE_ES_DeleteCDSCmd
 4499               	.section.rodata
 4500               	.LC70:
 4501 0bd4 5375 6363 	.string"Successfully telemetered memory pool stats for 0x%08lX"
 4501      6573 7366 
 4501      756C 6C79 
 4501      2074 656C 
 4501      656D 6574 
 4502               	.LC71:
 4503 0c0b 4361 6E6E 	.string"Cannot telemeter memory pool stats. Illegal Handle (0x%08lX)"
 4503      6F74 2074 
 4503      656C 656D 
 4503      6574 6572 
 4503      206D 656D 
 4504               	.text
 4505               	.align2
 4506               	.globlCFE_ES_TlmPoolStatsCmd
 4507               	.typeCFE_ES_TlmPoolStatsCmd, @function
 4508               	CFE_ES_TlmPoolStatsCmd:
 4509               	.LFB87:
2027:/home/simulink/cFS_FreeRTOS_seL4/cfe/fsw/cfe-core/src/es/cfe_es_task.c **** 
2028:/home/simulink/cFS_FreeRTOS_seL4/cfe/fsw/cfe-core/src/es/cfe_es_task.c **** /* * * * * * * * * * * * * * * * * * * * * * * * * * * * * * * * * */              
2029:/home/simulink/cFS_FreeRTOS_seL4/cfe/fsw/cfe-core/src/es/cfe_es_task.c **** /*                                                                 */              
68K GAS   			page 133


2030:/home/simulink/cFS_FreeRTOS_seL4/cfe/fsw/cfe-core/src/es/cfe_es_task.c **** /* CFE_ES_TlmPoolStatsCmd() -- Telemeter Memory Pool Statistics    */              
2031:/home/simulink/cFS_FreeRTOS_seL4/cfe/fsw/cfe-core/src/es/cfe_es_task.c **** /*                                                                 */
2032:/home/simulink/cFS_FreeRTOS_seL4/cfe/fsw/cfe-core/src/es/cfe_es_task.c **** /* Note: The "Application" parameter of the                        */ 
2033:/home/simulink/cFS_FreeRTOS_seL4/cfe/fsw/cfe-core/src/es/cfe_es_task.c **** /*       CFE_ES_TlmPoolSatatsCmd_t structure is not used.          */
2034:/home/simulink/cFS_FreeRTOS_seL4/cfe/fsw/cfe-core/src/es/cfe_es_task.c **** /*                                                                 */              
2035:/home/simulink/cFS_FreeRTOS_seL4/cfe/fsw/cfe-core/src/es/cfe_es_task.c **** /* * * * * * * * * * * * * * * * * * * * * * * * * * * * * * * * * */              
2036:/home/simulink/cFS_FreeRTOS_seL4/cfe/fsw/cfe-core/src/es/cfe_es_task.c ****                                                                                    
2037:/home/simulink/cFS_FreeRTOS_seL4/cfe/fsw/cfe-core/src/es/cfe_es_task.c **** void CFE_ES_TlmPoolStatsCmd(CFE_SB_MsgPtr_t Msg)                                  
2038:/home/simulink/cFS_FreeRTOS_seL4/cfe/fsw/cfe-core/src/es/cfe_es_task.c **** {                                                                                  
 4510               	.loc 1 2038 0
 4511               	.cfi_startproc
 4512 22f2 4FEF FFF0 	lea (-16,%sp),%sp
 4513               	.cfi_def_cfa_offset 20
2039:/home/simulink/cFS_FreeRTOS_seL4/cfe/fsw/cfe-core/src/es/cfe_es_task.c ****     uint16                    ExpectedLength = sizeof(CFE_ES_TlmPoolStatsCmd_t);                   
 4514               	.loc 1 2039 0
 4515 22f6 7020      	moveq #32,%d0
 4516 22f8 3F40 000E 	move.w %d0,14(%sp)
2040:/home/simulink/cFS_FreeRTOS_seL4/cfe/fsw/cfe-core/src/es/cfe_es_task.c ****     CFE_ES_TlmPoolStatsCmd_Payload_t *Cmd;
2041:/home/simulink/cFS_FreeRTOS_seL4/cfe/fsw/cfe-core/src/es/cfe_es_task.c ****     CFE_ES_MemHandle_t        MemHandle;
2042:/home/simulink/cFS_FreeRTOS_seL4/cfe/fsw/cfe-core/src/es/cfe_es_task.c ****     boolean                   ValidHandle;
2043:/home/simulink/cFS_FreeRTOS_seL4/cfe/fsw/cfe-core/src/es/cfe_es_task.c ****                                                                                    
2044:/home/simulink/cFS_FreeRTOS_seL4/cfe/fsw/cfe-core/src/es/cfe_es_task.c ****     /*                                                                             
2045:/home/simulink/cFS_FreeRTOS_seL4/cfe/fsw/cfe-core/src/es/cfe_es_task.c ****     ** Verify command packet length.                                               
2046:/home/simulink/cFS_FreeRTOS_seL4/cfe/fsw/cfe-core/src/es/cfe_es_task.c ****     */                                                                             
2047:/home/simulink/cFS_FreeRTOS_seL4/cfe/fsw/cfe-core/src/es/cfe_es_task.c ****     if (CFE_ES_VerifyCmdLength(Msg, ExpectedLength))                               
 4517               	.loc 1 2047 0
 4518 22fc 4280      	clr.l %d0
 4519 22fe 302F 000E 	move.w 14(%sp),%d0
 4520 2302 2F00      	move.l %d0,-(%sp)
 4521               	.cfi_def_cfa_offset 24
 4522 2304 2F2F 0018 	move.l 24(%sp),-(%sp)
 4523               	.cfi_def_cfa_offset 28
 4524 2308 4EB9 0000 	jsr CFE_ES_VerifyCmdLength
 4524      0000 
 4525 230e 508F      	addq.l #8,%sp
 4526               	.cfi_def_cfa_offset 20
 4527 2310 4A00      	tst.b %d0
 4528 2312 6700 00CA 	jeq .L198
2048:/home/simulink/cFS_FreeRTOS_seL4/cfe/fsw/cfe-core/src/es/cfe_es_task.c ****     {                                                                              
2049:/home/simulink/cFS_FreeRTOS_seL4/cfe/fsw/cfe-core/src/es/cfe_es_task.c ****         Cmd = (CFE_ES_TlmPoolStatsCmd_Payload_t *) &Msg->Byte[CFE_SB_CMD_HDR_SIZE];
 4529               	.loc 1 2049 0
 4530 2316 206F 0014 	move.l 20(%sp),%a0
 4531 231a 5088      	addq.l #8,%a0
 4532 231c 2F48 0008 	move.l %a0,8(%sp)
2050:/home/simulink/cFS_FreeRTOS_seL4/cfe/fsw/cfe-core/src/es/cfe_es_task.c ****         
2051:/home/simulink/cFS_FreeRTOS_seL4/cfe/fsw/cfe-core/src/es/cfe_es_task.c ****         /* Verify the handle to make sure it is legit */
2052:/home/simulink/cFS_FreeRTOS_seL4/cfe/fsw/cfe-core/src/es/cfe_es_task.c ****         MemHandle = CFE_SB_GET_MEMADDR(Cmd->PoolHandle);
 4533               	.loc 1 2052 0
 4534 2320 206F 0008 	move.l 8(%sp),%a0
 4535 2324 2F68 0014 	move.l 20(%a0),4(%sp)
 4535      0004 
2053:/home/simulink/cFS_FreeRTOS_seL4/cfe/fsw/cfe-core/src/es/cfe_es_task.c ****         ValidHandle = CFE_ES_ValidateHandle(MemHandle);
 4536               	.loc 1 2053 0
 4537 232a 2F2F 0004 	move.l 4(%sp),-(%sp)
 4538               	.cfi_def_cfa_offset 24
 4539 232e 4EB9 0000 	jsr CFE_ES_ValidateHandle
 4539      0000 
68K GAS   			page 134


 4540 2334 588F      	addq.l #4,%sp
 4541               	.cfi_def_cfa_offset 20
 4542 2336 1F40 0003 	move.b %d0,3(%sp)
2054:/home/simulink/cFS_FreeRTOS_seL4/cfe/fsw/cfe-core/src/es/cfe_es_task.c ****         
2055:/home/simulink/cFS_FreeRTOS_seL4/cfe/fsw/cfe-core/src/es/cfe_es_task.c ****         if (ValidHandle)
 4543               	.loc 1 2055 0
 4544 233a 4A2F 0003 	tst.b 3(%sp)
 4545 233e 676C      	jeq .L197
2056:/home/simulink/cFS_FreeRTOS_seL4/cfe/fsw/cfe-core/src/es/cfe_es_task.c ****         {
2057:/home/simulink/cFS_FreeRTOS_seL4/cfe/fsw/cfe-core/src/es/cfe_es_task.c ****             /* Extract the memory statistics from the memory pool */
2058:/home/simulink/cFS_FreeRTOS_seL4/cfe/fsw/cfe-core/src/es/cfe_es_task.c ****             CFE_ES_GetMemPoolStats(&CFE_ES_TaskData.MemStatsPacket.Payload.PoolStats, MemHandle);
 4546               	.loc 1 2058 0
 4547 2340 2F2F 0004 	move.l 4(%sp),-(%sp)
 4548               	.cfi_def_cfa_offset 24
 4549 2344 4879 0000 	pea CFE_ES_TaskData+452
 4549      0000 
 4550               	.cfi_def_cfa_offset 28
 4551 234a 4EB9 0000 	jsr CFE_ES_GetMemPoolStats
 4551      0000 
 4552 2350 508F      	addq.l #8,%sp
 4553               	.cfi_def_cfa_offset 20
2059:/home/simulink/cFS_FreeRTOS_seL4/cfe/fsw/cfe-core/src/es/cfe_es_task.c ****             
2060:/home/simulink/cFS_FreeRTOS_seL4/cfe/fsw/cfe-core/src/es/cfe_es_task.c ****             /* Echo the specified pool handle in the telemetry packet */
2061:/home/simulink/cFS_FreeRTOS_seL4/cfe/fsw/cfe-core/src/es/cfe_es_task.c ****             CFE_SB_SET_MEMADDR(CFE_ES_TaskData.MemStatsPacket.Payload.PoolHandle, MemHandle);
 4554               	.loc 1 2061 0
 4555 2352 41EF 0004 	lea (4,%sp),%a0
 4556 2356 23D0 0000 	move.l (%a0),CFE_ES_TaskData+448
 4556      0000 
2062:/home/simulink/cFS_FreeRTOS_seL4/cfe/fsw/cfe-core/src/es/cfe_es_task.c ****             
2063:/home/simulink/cFS_FreeRTOS_seL4/cfe/fsw/cfe-core/src/es/cfe_es_task.c ****             /*
2064:/home/simulink/cFS_FreeRTOS_seL4/cfe/fsw/cfe-core/src/es/cfe_es_task.c ****             ** Send memory statistics telemetry packet.
2065:/home/simulink/cFS_FreeRTOS_seL4/cfe/fsw/cfe-core/src/es/cfe_es_task.c ****             */
2066:/home/simulink/cFS_FreeRTOS_seL4/cfe/fsw/cfe-core/src/es/cfe_es_task.c ****             CFE_SB_TimeStampMsg((CFE_SB_Msg_t *) &CFE_ES_TaskData.MemStatsPacket);
 4557               	.loc 1 2066 0
 4558 235c 4879 0000 	pea CFE_ES_TaskData+436
 4558      0000 
 4559               	.cfi_def_cfa_offset 24
 4560 2362 4EB9 0000 	jsr CFE_SB_TimeStampMsg
 4560      0000 
 4561 2368 588F      	addq.l #4,%sp
 4562               	.cfi_def_cfa_offset 20
2067:/home/simulink/cFS_FreeRTOS_seL4/cfe/fsw/cfe-core/src/es/cfe_es_task.c ****             CFE_SB_SendMsg((CFE_SB_Msg_t *) &CFE_ES_TaskData.MemStatsPacket);
 4563               	.loc 1 2067 0
 4564 236a 4879 0000 	pea CFE_ES_TaskData+436
 4564      0000 
 4565               	.cfi_def_cfa_offset 24
 4566 2370 4EB9 0000 	jsr CFE_SB_SendMsg
 4566      0000 
 4567 2376 588F      	addq.l #4,%sp
 4568               	.cfi_def_cfa_offset 20
2068:/home/simulink/cFS_FreeRTOS_seL4/cfe/fsw/cfe-core/src/es/cfe_es_task.c **** 
2069:/home/simulink/cFS_FreeRTOS_seL4/cfe/fsw/cfe-core/src/es/cfe_es_task.c ****             CFE_ES_TaskData.CmdCounter++;      
 4569               	.loc 1 2069 0
 4570 2378 1039 0000 	move.b CFE_ES_TaskData,%d0
 4570      0000 
 4571 237e 5280      	addq.l #1,%d0
 4572 2380 1000      	move.b %d0,%d0
68K GAS   			page 135


 4573 2382 13C0 0000 	move.b %d0,CFE_ES_TaskData
 4573      0000 
2070:/home/simulink/cFS_FreeRTOS_seL4/cfe/fsw/cfe-core/src/es/cfe_es_task.c ****             CFE_EVS_SendEvent(CFE_ES_TLM_POOL_STATS_INFO_EID, CFE_EVS_DEBUG,
2071:/home/simulink/cFS_FreeRTOS_seL4/cfe/fsw/cfe-core/src/es/cfe_es_task.c ****                         "Successfully telemetered memory pool stats for 0x%08lX", (unsigned long)Cm
 4574               	.loc 1 2071 0
 4575 2388 206F 0008 	move.l 8(%sp),%a0
 4576 238c 2028 0014 	move.l 20(%a0),%d0
2070:/home/simulink/cFS_FreeRTOS_seL4/cfe/fsw/cfe-core/src/es/cfe_es_task.c ****             CFE_EVS_SendEvent(CFE_ES_TLM_POOL_STATS_INFO_EID, CFE_EVS_DEBUG,
 4577               	.loc 1 2070 0
 4578 2390 2F00      	move.l %d0,-(%sp)
 4579               	.cfi_def_cfa_offset 24
 4580 2392 4879 0000 	pea .LC70
 4580      0000 
 4581               	.cfi_def_cfa_offset 28
 4582 2398 4878 0001 	pea 1.w
 4583               	.cfi_def_cfa_offset 32
 4584 239c 4878 0051 	pea 81.w
 4585               	.cfi_def_cfa_offset 36
 4586 23a0 4EB9 0000 	jsr CFE_EVS_SendEvent
 4586      0000 
 4587 23a6 4FEF 0010 	lea (16,%sp),%sp
 4588               	.cfi_def_cfa_offset 20
2072:/home/simulink/cFS_FreeRTOS_seL4/cfe/fsw/cfe-core/src/es/cfe_es_task.c ****         }
2073:/home/simulink/cFS_FreeRTOS_seL4/cfe/fsw/cfe-core/src/es/cfe_es_task.c ****         else
2074:/home/simulink/cFS_FreeRTOS_seL4/cfe/fsw/cfe-core/src/es/cfe_es_task.c ****         {
2075:/home/simulink/cFS_FreeRTOS_seL4/cfe/fsw/cfe-core/src/es/cfe_es_task.c ****             CFE_ES_TaskData.ErrCounter++;      
2076:/home/simulink/cFS_FreeRTOS_seL4/cfe/fsw/cfe-core/src/es/cfe_es_task.c ****             CFE_EVS_SendEvent(CFE_ES_INVALID_POOL_HANDLE_ERR_EID, CFE_EVS_ERROR,
2077:/home/simulink/cFS_FreeRTOS_seL4/cfe/fsw/cfe-core/src/es/cfe_es_task.c ****                               "Cannot telemeter memory pool stats. Illegal Handle (0x%08lX)", 
2078:/home/simulink/cFS_FreeRTOS_seL4/cfe/fsw/cfe-core/src/es/cfe_es_task.c ****                               (unsigned long)Cmd->PoolHandle);
2079:/home/simulink/cFS_FreeRTOS_seL4/cfe/fsw/cfe-core/src/es/cfe_es_task.c ****         }
2080:/home/simulink/cFS_FreeRTOS_seL4/cfe/fsw/cfe-core/src/es/cfe_es_task.c ****     }
2081:/home/simulink/cFS_FreeRTOS_seL4/cfe/fsw/cfe-core/src/es/cfe_es_task.c **** 
2082:/home/simulink/cFS_FreeRTOS_seL4/cfe/fsw/cfe-core/src/es/cfe_es_task.c **** } /* End of CFE_ES_TlmPoolStatsCmd() */ 
 4589               	.loc 1 2082 0
 4590 23aa 6032      	jra .L198
 4591               	.L197:
2075:/home/simulink/cFS_FreeRTOS_seL4/cfe/fsw/cfe-core/src/es/cfe_es_task.c ****             CFE_EVS_SendEvent(CFE_ES_INVALID_POOL_HANDLE_ERR_EID, CFE_EVS_ERROR,
 4592               	.loc 1 2075 0
 4593 23ac 1039 0000 	move.b CFE_ES_TaskData+1,%d0
 4593      0000 
 4594 23b2 5280      	addq.l #1,%d0
 4595 23b4 1000      	move.b %d0,%d0
 4596 23b6 13C0 0000 	move.b %d0,CFE_ES_TaskData+1
 4596      0000 
2078:/home/simulink/cFS_FreeRTOS_seL4/cfe/fsw/cfe-core/src/es/cfe_es_task.c ****         }
 4597               	.loc 1 2078 0
 4598 23bc 206F 0008 	move.l 8(%sp),%a0
 4599 23c0 2028 0014 	move.l 20(%a0),%d0
2076:/home/simulink/cFS_FreeRTOS_seL4/cfe/fsw/cfe-core/src/es/cfe_es_task.c ****                               "Cannot telemeter memory pool stats. Illegal Handle (0x%08lX)", 
 4600               	.loc 1 2076 0
 4601 23c4 2F00      	move.l %d0,-(%sp)
 4602               	.cfi_def_cfa_offset 24
 4603 23c6 4879 0000 	pea .LC71
 4603      0000 
 4604               	.cfi_def_cfa_offset 28
 4605 23cc 4878 0003 	pea 3.w
 4606               	.cfi_def_cfa_offset 32
68K GAS   			page 136


 4607 23d0 4878 0052 	pea 82.w
 4608               	.cfi_def_cfa_offset 36
 4609 23d4 4EB9 0000 	jsr CFE_EVS_SendEvent
 4609      0000 
 4610 23da 4FEF 0010 	lea (16,%sp),%sp
 4611               	.cfi_def_cfa_offset 20
 4612               	.L198:
 4613               	.loc 1 2082 0
 4614 23de 4E71      	nop
 4615 23e0 4FEF 0010 	lea (16,%sp),%sp
 4616 23e4 4E75      	rts
 4617               	.cfi_endproc
 4618               	.LFE87:
 4619               	.sizeCFE_ES_TlmPoolStatsCmd, .-CFE_ES_TlmPoolStatsCmd
 4620               	.section.rodata
 4621               	.LC72:
 4622 0c48 2F72 616D 	.string"/ram/cfe_cds_reg.log"
 4622      2F63 6665 
 4622      5F63 6473 
 4622      5F72 6567 
 4622      2E6C 6F67 
 4623               	.LC73:
 4624 0c5d 4344 535F 	.string"CDS_Registry"
 4624      5265 6769 
 4624      7374 7279 
 4624      00
 4625               	.LC74:
 4626 0c6a 5375 6363 	.string"Successfully dumped CDS Registry to '%s':Size=%d,Entries=%d"
 4626      6573 7366 
 4626      756C 6C79 
 4626      2064 756D 
 4626      7065 6420 
 4627               	.LC75:
 4628 0ca6 4572 726F 	.string"Error writing CDS Registry to '%s', Status=0x%08X"
 4628      7220 7772 
 4628      6974 696E 
 4628      6720 4344 
 4628      5320 5265 
 4629               	.LC76:
 4630 0cd8 4572 726F 	.string"Error writing cFE File Header to '%s', Status=0x%08X"
 4630      7220 7772 
 4630      6974 696E 
 4630      6720 6346 
 4630      4520 4669 
 4631               	.LC77:
 4632 0d0d 4572 726F 	.string"Error creating CDS dump file '%s', Status=0x%08X"
 4632      7220 6372 
 4632      6561 7469 
 4632      6E67 2043 
 4632      4453 2064 
 4633               	.text
 4634               	.align2
 4635               	.globlCFE_ES_DumpCDSRegCmd
 4636               	.typeCFE_ES_DumpCDSRegCmd, @function
 4637               	CFE_ES_DumpCDSRegCmd:
 4638               	.LFB88:
2083:/home/simulink/cFS_FreeRTOS_seL4/cfe/fsw/cfe-core/src/es/cfe_es_task.c **** 
68K GAS   			page 137


2084:/home/simulink/cFS_FreeRTOS_seL4/cfe/fsw/cfe-core/src/es/cfe_es_task.c **** /* * * * * * * * * * * * * * * * * * * * * * * * * * * * * * * * * */              
2085:/home/simulink/cFS_FreeRTOS_seL4/cfe/fsw/cfe-core/src/es/cfe_es_task.c **** /*                                                                 */              
2086:/home/simulink/cFS_FreeRTOS_seL4/cfe/fsw/cfe-core/src/es/cfe_es_task.c **** /* CFE_ES_DumpCDSRegCmd() -- Dump CDS Registry to a file           */              
2087:/home/simulink/cFS_FreeRTOS_seL4/cfe/fsw/cfe-core/src/es/cfe_es_task.c **** /*                                                                 */              
2088:/home/simulink/cFS_FreeRTOS_seL4/cfe/fsw/cfe-core/src/es/cfe_es_task.c **** /* * * * * * * * * * * * * * * * * * * * * * * * * * * * * * * * * */              
2089:/home/simulink/cFS_FreeRTOS_seL4/cfe/fsw/cfe-core/src/es/cfe_es_task.c ****                                                                                    
2090:/home/simulink/cFS_FreeRTOS_seL4/cfe/fsw/cfe-core/src/es/cfe_es_task.c **** void CFE_ES_DumpCDSRegCmd( const CFE_SB_Msg_t *MessagePtr )
2091:/home/simulink/cFS_FreeRTOS_seL4/cfe/fsw/cfe-core/src/es/cfe_es_task.c **** {
 4639               	.loc 1 2091 0
 4640               	.cfi_startproc
 4641 23e6 4FEF FF34 	lea (-204,%sp),%sp
 4642               	.cfi_def_cfa_offset 208
2092:/home/simulink/cFS_FreeRTOS_seL4/cfe/fsw/cfe-core/src/es/cfe_es_task.c ****     CFE_FS_Header_t               StdFileHeader;
2093:/home/simulink/cFS_FreeRTOS_seL4/cfe/fsw/cfe-core/src/es/cfe_es_task.c ****     int32                         FileDescriptor;
2094:/home/simulink/cFS_FreeRTOS_seL4/cfe/fsw/cfe-core/src/es/cfe_es_task.c ****     int32                         Status;
2095:/home/simulink/cFS_FreeRTOS_seL4/cfe/fsw/cfe-core/src/es/cfe_es_task.c ****     int16                         RegIndex=0;
 4643               	.loc 1 2095 0
 4644 23ea 4240      	clr.w %d0
 4645 23ec 3F40 00C6 	move.w %d0,198(%sp)
2096:/home/simulink/cFS_FreeRTOS_seL4/cfe/fsw/cfe-core/src/es/cfe_es_task.c ****     const CFE_ES_DumpCDSRegCmd_Payload_t *CmdPtr = (const CFE_ES_DumpCDSRegCmd_Payload_t *) &Messag
 4646               	.loc 1 2096 0
 4647 23f0 222F 00D0 	move.l 208(%sp),%d1
 4648 23f4 5081      	addq.l #8,%d1
 4649 23f6 2F41 00B8 	move.l %d1,184(%sp)
2097:/home/simulink/cFS_FreeRTOS_seL4/cfe/fsw/cfe-core/src/es/cfe_es_task.c ****     char                          DumpFilename[OS_MAX_PATH_LEN];
2098:/home/simulink/cFS_FreeRTOS_seL4/cfe/fsw/cfe-core/src/es/cfe_es_task.c ****     CFE_ES_CDS_RegRec_t          *RegRecPtr;
2099:/home/simulink/cFS_FreeRTOS_seL4/cfe/fsw/cfe-core/src/es/cfe_es_task.c ****     CFE_ES_CDSRegDumpRec_t        DumpRecord;
2100:/home/simulink/cFS_FreeRTOS_seL4/cfe/fsw/cfe-core/src/es/cfe_es_task.c ****     int32                         FileSize=0;
 4650               	.loc 1 2100 0
 4651 23fa 42AF 00C0 	clr.l 192(%sp)
2101:/home/simulink/cFS_FreeRTOS_seL4/cfe/fsw/cfe-core/src/es/cfe_es_task.c ****     int32                         NumEntries=0;
 4652               	.loc 1 2101 0
 4653 23fe 42AF 00BC 	clr.l 188(%sp)
2102:/home/simulink/cFS_FreeRTOS_seL4/cfe/fsw/cfe-core/src/es/cfe_es_task.c **** 
2103:/home/simulink/cFS_FreeRTOS_seL4/cfe/fsw/cfe-core/src/es/cfe_es_task.c ****     /* Copy the commanded filename into local buffer to ensure size limitation and to allow for mod
2104:/home/simulink/cFS_FreeRTOS_seL4/cfe/fsw/cfe-core/src/es/cfe_es_task.c ****     CFE_SB_MessageStringGet(DumpFilename, CmdPtr->DumpFilename, CFE_ES_DEFAULT_CDS_REG_DUMP_FILE,
 4654               	.loc 1 2104 0
 4655 2402 202F 00B8 	move.l 184(%sp),%d0
 4656 2406 4878 0040 	pea 64.w
 4657               	.cfi_def_cfa_offset 212
 4658 240a 4878 0040 	pea 64.w
 4659               	.cfi_def_cfa_offset 216
 4660 240e 4879 0000 	pea .LC72
 4660      0000 
 4661               	.cfi_def_cfa_offset 220
 4662 2414 2F00      	move.l %d0,-(%sp)
 4663               	.cfi_def_cfa_offset 224
 4664 2416 200F      	move.l %sp,%d0
 4665 2418 0680 0000 	add.l #64,%d0
 4665      0040 
 4666 241e 2F00      	move.l %d0,-(%sp)
 4667               	.cfi_def_cfa_offset 228
 4668 2420 4EB9 0000 	jsr CFE_SB_MessageStringGet
 4668      0000 
 4669 2426 4FEF 0014 	lea (20,%sp),%sp
 4670               	.cfi_def_cfa_offset 208
2105:/home/simulink/cFS_FreeRTOS_seL4/cfe/fsw/cfe-core/src/es/cfe_es_task.c ****             OS_MAX_PATH_LEN, sizeof(CmdPtr->DumpFilename));
68K GAS   			page 138


2106:/home/simulink/cFS_FreeRTOS_seL4/cfe/fsw/cfe-core/src/es/cfe_es_task.c **** 
2107:/home/simulink/cFS_FreeRTOS_seL4/cfe/fsw/cfe-core/src/es/cfe_es_task.c ****     /* Create a new dump file, overwriting anything that may have existed previously */
2108:/home/simulink/cFS_FreeRTOS_seL4/cfe/fsw/cfe-core/src/es/cfe_es_task.c ****     FileDescriptor = OS_creat(DumpFilename, OS_WRITE_ONLY);
 4671               	.loc 1 2108 0
 4672 242a 4878 0001 	pea 1.w
 4673               	.cfi_def_cfa_offset 212
 4674 242e 200F      	move.l %sp,%d0
 4675 2430 0680 0000 	add.l #52,%d0
 4675      0034 
 4676 2436 2F00      	move.l %d0,-(%sp)
 4677               	.cfi_def_cfa_offset 216
 4678 2438 4EB9 0000 	jsr OS_creat
 4678      0000 
 4679 243e 508F      	addq.l #8,%sp
 4680               	.cfi_def_cfa_offset 208
 4681 2440 2F40 00B4 	move.l %d0,180(%sp)
2109:/home/simulink/cFS_FreeRTOS_seL4/cfe/fsw/cfe-core/src/es/cfe_es_task.c **** 
2110:/home/simulink/cFS_FreeRTOS_seL4/cfe/fsw/cfe-core/src/es/cfe_es_task.c ****     if (FileDescriptor >= OS_FS_SUCCESS)
 4682               	.loc 1 2110 0
 4683 2444 4AAF 00B4 	tst.l 180(%sp)
 4684 2448 6D00 01E0 	jlt .L200
2111:/home/simulink/cFS_FreeRTOS_seL4/cfe/fsw/cfe-core/src/es/cfe_es_task.c ****     {
2112:/home/simulink/cFS_FreeRTOS_seL4/cfe/fsw/cfe-core/src/es/cfe_es_task.c ****         /* Initialize the standard cFE File Header for the Dump File */
2113:/home/simulink/cFS_FreeRTOS_seL4/cfe/fsw/cfe-core/src/es/cfe_es_task.c ****         CFE_FS_InitHeader(&StdFileHeader, "CDS_Registry", CFE_FS_ES_CDS_REG_SUBTYPE);
 4685               	.loc 1 2113 0
 4686 244c 4878 0006 	pea 6.w
 4687               	.cfi_def_cfa_offset 212
 4688 2450 4879 0000 	pea .LC73
 4688      0000 
 4689               	.cfi_def_cfa_offset 216
 4690 2456 200F      	move.l %sp,%d0
 4691 2458 0680 0000 	add.l #120,%d0
 4691      0078 
 4692 245e 2F00      	move.l %d0,-(%sp)
 4693               	.cfi_def_cfa_offset 220
 4694 2460 4EB9 0000 	jsr CFE_FS_InitHeader
 4694      0000 
 4695 2466 4FEF 000C 	lea (12,%sp),%sp
 4696               	.cfi_def_cfa_offset 208
2114:/home/simulink/cFS_FreeRTOS_seL4/cfe/fsw/cfe-core/src/es/cfe_es_task.c **** 
2115:/home/simulink/cFS_FreeRTOS_seL4/cfe/fsw/cfe-core/src/es/cfe_es_task.c ****         /* Output the Standard cFE File Header to the Dump File */
2116:/home/simulink/cFS_FreeRTOS_seL4/cfe/fsw/cfe-core/src/es/cfe_es_task.c ****         Status = CFE_FS_WriteHeader(FileDescriptor, &StdFileHeader);
 4697               	.loc 1 2116 0
 4698 246a 200F      	move.l %sp,%d0
 4699 246c 0680 0000 	add.l #112,%d0
 4699      0070 
 4700 2472 2F00      	move.l %d0,-(%sp)
 4701               	.cfi_def_cfa_offset 212
 4702 2474 2F2F 00B8 	move.l 184(%sp),-(%sp)
 4703               	.cfi_def_cfa_offset 216
 4704 2478 4EB9 0000 	jsr CFE_FS_WriteHeader
 4704      0000 
 4705 247e 508F      	addq.l #8,%sp
 4706               	.cfi_def_cfa_offset 208
 4707 2480 2F40 00C8 	move.l %d0,200(%sp)
2117:/home/simulink/cFS_FreeRTOS_seL4/cfe/fsw/cfe-core/src/es/cfe_es_task.c ****         
2118:/home/simulink/cFS_FreeRTOS_seL4/cfe/fsw/cfe-core/src/es/cfe_es_task.c ****         /* Maintain statistics of amount of data written to file */
68K GAS   			page 139


2119:/home/simulink/cFS_FreeRTOS_seL4/cfe/fsw/cfe-core/src/es/cfe_es_task.c ****         FileSize += Status;
 4708               	.loc 1 2119 0
 4709 2484 202F 00C8 	move.l 200(%sp),%d0
 4710 2488 D1AF 00C0 	add.l %d0,192(%sp)
2120:/home/simulink/cFS_FreeRTOS_seL4/cfe/fsw/cfe-core/src/es/cfe_es_task.c **** 
2121:/home/simulink/cFS_FreeRTOS_seL4/cfe/fsw/cfe-core/src/es/cfe_es_task.c ****         if (Status == sizeof(CFE_FS_Header_t))
 4711               	.loc 1 2121 0
 4712 248c 7240      	moveq #64,%d1
 4713 248e B2AF 00C8 	cmp.l 200(%sp),%d1
 4714 2492 6600 0150 	jne .L201
2122:/home/simulink/cFS_FreeRTOS_seL4/cfe/fsw/cfe-core/src/es/cfe_es_task.c ****         {
2123:/home/simulink/cFS_FreeRTOS_seL4/cfe/fsw/cfe-core/src/es/cfe_es_task.c ****             Status = sizeof(CFE_ES_CDSRegDumpRec_t);
 4715               	.loc 1 2123 0
 4716 2496 7030      	moveq #48,%d0
 4717 2498 2F40 00C8 	move.l %d0,200(%sp)
2124:/home/simulink/cFS_FreeRTOS_seL4/cfe/fsw/cfe-core/src/es/cfe_es_task.c ****             while ((RegIndex < CFE_ES_CDS_MAX_NUM_ENTRIES) && (Status == sizeof(CFE_ES_CDSRegDumpRe
 4718               	.loc 1 2124 0
 4719 249c 6000 00B2 	jra .L202
 4720               	.L205:
2125:/home/simulink/cFS_FreeRTOS_seL4/cfe/fsw/cfe-core/src/es/cfe_es_task.c ****             {
2126:/home/simulink/cFS_FreeRTOS_seL4/cfe/fsw/cfe-core/src/es/cfe_es_task.c ****                 /* Make a pointer to simplify code look and to remove redundant indexing into regis
2127:/home/simulink/cFS_FreeRTOS_seL4/cfe/fsw/cfe-core/src/es/cfe_es_task.c ****                 RegRecPtr = &CFE_ES_Global.CDSVars.Registry[RegIndex];
 4721               	.loc 1 2127 0
 4722 24a0 302F 00C6 	move.w 198(%sp),%d0
 4723 24a4 48C0      	ext.l %d0
 4724 24a6 7234      	moveq #52,%d1
 4725 24a8 4C01 0800 	muls.l %d1,%d0
 4726 24ac 0680 0000 	add.l #8180,%d0
 4726      1FF4 
 4727 24b2 2200      	move.l %d0,%d1
 4728 24b4 0681 0000 	add.l #CFE_ES_Global,%d1
 4728      0000 
 4729 24ba 2F41 00B0 	move.l %d1,176(%sp)
2128:/home/simulink/cFS_FreeRTOS_seL4/cfe/fsw/cfe-core/src/es/cfe_es_task.c **** 
2129:/home/simulink/cFS_FreeRTOS_seL4/cfe/fsw/cfe-core/src/es/cfe_es_task.c ****                 /* Check to see if the Registry entry is empty */
2130:/home/simulink/cFS_FreeRTOS_seL4/cfe/fsw/cfe-core/src/es/cfe_es_task.c ****                 if (RegRecPtr->Taken == TRUE)
 4730               	.loc 1 2130 0
 4731 24be 206F 00B0 	move.l 176(%sp),%a0
 4732 24c2 1028 0030 	move.b 48(%a0),%d0
 4733 24c6 1000      	move.b %d0,%d0
 4734 24c8 0280 0000 	and.l #255,%d0
 4734      00FF 
 4735 24ce 7201      	moveq #1,%d1
 4736 24d0 B280      	cmp.l %d0,%d1
 4737 24d2 6670      	jne .L203
2131:/home/simulink/cFS_FreeRTOS_seL4/cfe/fsw/cfe-core/src/es/cfe_es_task.c ****                 {
2132:/home/simulink/cFS_FreeRTOS_seL4/cfe/fsw/cfe-core/src/es/cfe_es_task.c ****                     /* Fill CDS Registry Dump Record with relevant information */
2133:/home/simulink/cFS_FreeRTOS_seL4/cfe/fsw/cfe-core/src/es/cfe_es_task.c ****                     DumpRecord.Size             = RegRecPtr->Size;
 4738               	.loc 1 2133 0
 4739 24d4 206F 00B0 	move.l 176(%sp),%a0
 4740 24d8 2028 002C 	move.l 44(%a0),%d0
 4741 24dc 2F40 0004 	move.l %d0,4(%sp)
2134:/home/simulink/cFS_FreeRTOS_seL4/cfe/fsw/cfe-core/src/es/cfe_es_task.c ****                     DumpRecord.Handle           = RegRecPtr->MemHandle;
 4742               	.loc 1 2134 0
 4743 24e0 206F 00B0 	move.l 176(%sp),%a0
 4744 24e4 2028 0028 	move.l 40(%a0),%d0
 4745 24e8 2E80      	move.l %d0,(%sp)
68K GAS   			page 140


2135:/home/simulink/cFS_FreeRTOS_seL4/cfe/fsw/cfe-core/src/es/cfe_es_task.c ****                     DumpRecord.Table            = RegRecPtr->Table;
 4746               	.loc 1 2135 0
 4747 24ea 206F 00B0 	move.l 176(%sp),%a0
 4748 24ee 1028 0031 	move.b 49(%a0),%d0
 4749 24f2 1F40 0008 	move.b %d0,8(%sp)
2136:/home/simulink/cFS_FreeRTOS_seL4/cfe/fsw/cfe-core/src/es/cfe_es_task.c ****                     DumpRecord.ByteAlignSpare1  = 0;
 4750               	.loc 1 2136 0
 4751 24f6 4200      	clr.b %d0
 4752 24f8 1F40 002F 	move.b %d0,47(%sp)
2137:/home/simulink/cFS_FreeRTOS_seL4/cfe/fsw/cfe-core/src/es/cfe_es_task.c ****                     
2138:/home/simulink/cFS_FreeRTOS_seL4/cfe/fsw/cfe-core/src/es/cfe_es_task.c ****                     /* strncpy will zero out any unused buffer - memset not necessary */
2139:/home/simulink/cFS_FreeRTOS_seL4/cfe/fsw/cfe-core/src/es/cfe_es_task.c ****                     strncpy(DumpRecord.Name, RegRecPtr->Name, sizeof(DumpRecord.Name));
 4753               	.loc 1 2139 0
 4754 24fc 202F 00B0 	move.l 176(%sp),%d0
 4755 2500 4878 0026 	pea 38.w
 4756               	.cfi_def_cfa_offset 212
 4757 2504 2F00      	move.l %d0,-(%sp)
 4758               	.cfi_def_cfa_offset 216
 4759 2506 200F      	move.l %sp,%d0
 4760 2508 5080      	addq.l #8,%d0
 4761 250a 0680 0000 	add.l #9,%d0
 4761      0009 
 4762 2510 2F00      	move.l %d0,-(%sp)
 4763               	.cfi_def_cfa_offset 220
 4764 2512 4EB9 0000 	jsr strncpy
 4764      0000 
 4765 2518 4FEF 000C 	lea (12,%sp),%sp
 4766               	.cfi_def_cfa_offset 208
2140:/home/simulink/cFS_FreeRTOS_seL4/cfe/fsw/cfe-core/src/es/cfe_es_task.c **** 
2141:/home/simulink/cFS_FreeRTOS_seL4/cfe/fsw/cfe-core/src/es/cfe_es_task.c ****                     /* Output Registry Dump Record to Registry Dump File */
2142:/home/simulink/cFS_FreeRTOS_seL4/cfe/fsw/cfe-core/src/es/cfe_es_task.c ****                     Status = OS_write(FileDescriptor,
 4767               	.loc 1 2142 0
 4768 251c 4878 0030 	pea 48.w
 4769               	.cfi_def_cfa_offset 212
 4770 2520 200F      	move.l %sp,%d0
 4771 2522 5880      	addq.l #4,%d0
 4772 2524 2F00      	move.l %d0,-(%sp)
 4773               	.cfi_def_cfa_offset 216
 4774 2526 2F2F 00BC 	move.l 188(%sp),-(%sp)
 4775               	.cfi_def_cfa_offset 220
 4776 252a 4EB9 0000 	jsr OS_write
 4776      0000 
 4777 2530 4FEF 000C 	lea (12,%sp),%sp
 4778               	.cfi_def_cfa_offset 208
 4779 2534 2F40 00C8 	move.l %d0,200(%sp)
2143:/home/simulink/cFS_FreeRTOS_seL4/cfe/fsw/cfe-core/src/es/cfe_es_task.c ****                                       &DumpRecord,
2144:/home/simulink/cFS_FreeRTOS_seL4/cfe/fsw/cfe-core/src/es/cfe_es_task.c ****                                       sizeof(CFE_ES_CDSRegDumpRec_t));
2145:/home/simulink/cFS_FreeRTOS_seL4/cfe/fsw/cfe-core/src/es/cfe_es_task.c ****                     
2146:/home/simulink/cFS_FreeRTOS_seL4/cfe/fsw/cfe-core/src/es/cfe_es_task.c ****                     FileSize += Status;
 4780               	.loc 1 2146 0
 4781 2538 222F 00C8 	move.l 200(%sp),%d1
 4782 253c D3AF 00C0 	add.l %d1,192(%sp)
2147:/home/simulink/cFS_FreeRTOS_seL4/cfe/fsw/cfe-core/src/es/cfe_es_task.c ****                     NumEntries++;      
 4783               	.loc 1 2147 0
 4784 2540 52AF 00BC 	addq.l #1,188(%sp)
 4785               	.L203:
2148:/home/simulink/cFS_FreeRTOS_seL4/cfe/fsw/cfe-core/src/es/cfe_es_task.c ****                 }
68K GAS   			page 141


2149:/home/simulink/cFS_FreeRTOS_seL4/cfe/fsw/cfe-core/src/es/cfe_es_task.c **** 
2150:/home/simulink/cFS_FreeRTOS_seL4/cfe/fsw/cfe-core/src/es/cfe_es_task.c ****                 /* Look at the next entry in the Registry */
2151:/home/simulink/cFS_FreeRTOS_seL4/cfe/fsw/cfe-core/src/es/cfe_es_task.c ****                 RegIndex++;
 4786               	.loc 1 2151 0
 4787 2544 302F 00C6 	move.w 198(%sp),%d0
 4788 2548 5280      	addq.l #1,%d0
 4789 254a 3000      	move.w %d0,%d0
 4790 254c 3F40 00C6 	move.w %d0,198(%sp)
 4791               	.L202:
2124:/home/simulink/cFS_FreeRTOS_seL4/cfe/fsw/cfe-core/src/es/cfe_es_task.c ****             {
 4792               	.loc 1 2124 0
 4793 2550 306F 00C6 	move.w 198(%sp),%a0
 4794 2554 B1FC 0000 	cmp.l #511,%a0
 4794      01FF 
 4795 255a 6E0A      	jgt .L204
2124:/home/simulink/cFS_FreeRTOS_seL4/cfe/fsw/cfe-core/src/es/cfe_es_task.c ****             {
 4796               	.loc 1 2124 0 is_stmt 0 discriminator 1
 4797 255c 7030      	moveq #48,%d0
 4798 255e B0AF 00C8 	cmp.l 200(%sp),%d0
 4799 2562 6700 FF3C 	jeq .L205
 4800               	.L204:
2152:/home/simulink/cFS_FreeRTOS_seL4/cfe/fsw/cfe-core/src/es/cfe_es_task.c ****             }
2153:/home/simulink/cFS_FreeRTOS_seL4/cfe/fsw/cfe-core/src/es/cfe_es_task.c **** 
2154:/home/simulink/cFS_FreeRTOS_seL4/cfe/fsw/cfe-core/src/es/cfe_es_task.c ****             if (Status == sizeof(CFE_ES_CDSRegDumpRec_t))
 4801               	.loc 1 2154 0 is_stmt 1
 4802 2566 7230      	moveq #48,%d1
 4803 2568 B2AF 00C8 	cmp.l 200(%sp),%d1
 4804 256c 663C      	jne .L206
2155:/home/simulink/cFS_FreeRTOS_seL4/cfe/fsw/cfe-core/src/es/cfe_es_task.c ****             {
2156:/home/simulink/cFS_FreeRTOS_seL4/cfe/fsw/cfe-core/src/es/cfe_es_task.c ****                 CFE_EVS_SendEvent(CFE_ES_CDS_REG_DUMP_INF_EID,
 4805               	.loc 1 2156 0
 4806 256e 2F2F 00BC 	move.l 188(%sp),-(%sp)
 4807               	.cfi_def_cfa_offset 212
 4808 2572 2F2F 00C4 	move.l 196(%sp),-(%sp)
 4809               	.cfi_def_cfa_offset 216
 4810 2576 200F      	move.l %sp,%d0
 4811 2578 0680 0000 	add.l #56,%d0
 4811      0038 
 4812 257e 2F00      	move.l %d0,-(%sp)
 4813               	.cfi_def_cfa_offset 220
 4814 2580 4879 0000 	pea .LC74
 4814      0000 
 4815               	.cfi_def_cfa_offset 224
 4816 2586 4878 0001 	pea 1.w
 4817               	.cfi_def_cfa_offset 228
 4818 258a 4878 0053 	pea 83.w
 4819               	.cfi_def_cfa_offset 232
 4820 258e 4EB9 0000 	jsr CFE_EVS_SendEvent
 4820      0000 
 4821 2594 4FEF 0018 	lea (24,%sp),%sp
 4822               	.cfi_def_cfa_offset 208
2157:/home/simulink/cFS_FreeRTOS_seL4/cfe/fsw/cfe-core/src/es/cfe_es_task.c ****                                   CFE_EVS_DEBUG,
2158:/home/simulink/cFS_FreeRTOS_seL4/cfe/fsw/cfe-core/src/es/cfe_es_task.c ****                                   "Successfully dumped CDS Registry to '%s':Size=%d,Entries=%d",
2159:/home/simulink/cFS_FreeRTOS_seL4/cfe/fsw/cfe-core/src/es/cfe_es_task.c ****                                   DumpFilename, (int)FileSize, (int)NumEntries);
2160:/home/simulink/cFS_FreeRTOS_seL4/cfe/fsw/cfe-core/src/es/cfe_es_task.c **** 
2161:/home/simulink/cFS_FreeRTOS_seL4/cfe/fsw/cfe-core/src/es/cfe_es_task.c ****                 /* Increment Successful Command Counter */
2162:/home/simulink/cFS_FreeRTOS_seL4/cfe/fsw/cfe-core/src/es/cfe_es_task.c ****                 CFE_ES_TaskData.CmdCounter++;      
68K GAS   			page 142


 4823               	.loc 1 2162 0
 4824 2598 1039 0000 	move.b CFE_ES_TaskData,%d0
 4824      0000 
 4825 259e 5280      	addq.l #1,%d0
 4826 25a0 1000      	move.b %d0,%d0
 4827 25a2 13C0 0000 	move.b %d0,CFE_ES_TaskData
 4827      0000 
 4828 25a8 6072      	jra .L208
 4829               	.L206:
2163:/home/simulink/cFS_FreeRTOS_seL4/cfe/fsw/cfe-core/src/es/cfe_es_task.c ****             }
2164:/home/simulink/cFS_FreeRTOS_seL4/cfe/fsw/cfe-core/src/es/cfe_es_task.c ****             else
2165:/home/simulink/cFS_FreeRTOS_seL4/cfe/fsw/cfe-core/src/es/cfe_es_task.c ****             {
2166:/home/simulink/cFS_FreeRTOS_seL4/cfe/fsw/cfe-core/src/es/cfe_es_task.c ****                 CFE_EVS_SendEvent(CFE_ES_CDS_DUMP_ERR_EID,
 4830               	.loc 1 2166 0
 4831 25aa 202F 00C8 	move.l 200(%sp),%d0
 4832 25ae 2F00      	move.l %d0,-(%sp)
 4833               	.cfi_def_cfa_offset 212
 4834 25b0 200F      	move.l %sp,%d0
 4835 25b2 0680 0000 	add.l #52,%d0
 4835      0034 
 4836 25b8 2F00      	move.l %d0,-(%sp)
 4837               	.cfi_def_cfa_offset 216
 4838 25ba 4879 0000 	pea .LC75
 4838      0000 
 4839               	.cfi_def_cfa_offset 220
 4840 25c0 4878 0003 	pea 3.w
 4841               	.cfi_def_cfa_offset 224
 4842 25c4 4878 0054 	pea 84.w
 4843               	.cfi_def_cfa_offset 228
 4844 25c8 4EB9 0000 	jsr CFE_EVS_SendEvent
 4844      0000 
 4845 25ce 4FEF 0014 	lea (20,%sp),%sp
 4846               	.cfi_def_cfa_offset 208
2167:/home/simulink/cFS_FreeRTOS_seL4/cfe/fsw/cfe-core/src/es/cfe_es_task.c ****                                   CFE_EVS_ERROR,
2168:/home/simulink/cFS_FreeRTOS_seL4/cfe/fsw/cfe-core/src/es/cfe_es_task.c ****                                   "Error writing CDS Registry to '%s', Status=0x%08X",
2169:/home/simulink/cFS_FreeRTOS_seL4/cfe/fsw/cfe-core/src/es/cfe_es_task.c ****                                   DumpFilename, (unsigned int)Status);
2170:/home/simulink/cFS_FreeRTOS_seL4/cfe/fsw/cfe-core/src/es/cfe_es_task.c ****                             
2171:/home/simulink/cFS_FreeRTOS_seL4/cfe/fsw/cfe-core/src/es/cfe_es_task.c ****                 /* Increment Command Error Counter */      
2172:/home/simulink/cFS_FreeRTOS_seL4/cfe/fsw/cfe-core/src/es/cfe_es_task.c ****                 CFE_ES_TaskData.ErrCounter++;      
 4847               	.loc 1 2172 0
 4848 25d2 1039 0000 	move.b CFE_ES_TaskData+1,%d0
 4848      0000 
 4849 25d8 5280      	addq.l #1,%d0
 4850 25da 1000      	move.b %d0,%d0
 4851 25dc 13C0 0000 	move.b %d0,CFE_ES_TaskData+1
 4851      0000 
 4852 25e2 6038      	jra .L208
 4853               	.L201:
2173:/home/simulink/cFS_FreeRTOS_seL4/cfe/fsw/cfe-core/src/es/cfe_es_task.c ****             }
2174:/home/simulink/cFS_FreeRTOS_seL4/cfe/fsw/cfe-core/src/es/cfe_es_task.c ****         }
2175:/home/simulink/cFS_FreeRTOS_seL4/cfe/fsw/cfe-core/src/es/cfe_es_task.c ****         else
2176:/home/simulink/cFS_FreeRTOS_seL4/cfe/fsw/cfe-core/src/es/cfe_es_task.c ****         {
2177:/home/simulink/cFS_FreeRTOS_seL4/cfe/fsw/cfe-core/src/es/cfe_es_task.c ****             CFE_EVS_SendEvent(CFE_ES_WRITE_CFE_HDR_ERR_EID,
 4854               	.loc 1 2177 0
 4855 25e4 202F 00C8 	move.l 200(%sp),%d0
 4856 25e8 2F00      	move.l %d0,-(%sp)
 4857               	.cfi_def_cfa_offset 212
68K GAS   			page 143


 4858 25ea 200F      	move.l %sp,%d0
 4859 25ec 0680 0000 	add.l #52,%d0
 4859      0034 
 4860 25f2 2F00      	move.l %d0,-(%sp)
 4861               	.cfi_def_cfa_offset 216
 4862 25f4 4879 0000 	pea .LC76
 4862      0000 
 4863               	.cfi_def_cfa_offset 220
 4864 25fa 4878 0003 	pea 3.w
 4865               	.cfi_def_cfa_offset 224
 4866 25fe 4878 0055 	pea 85.w
 4867               	.cfi_def_cfa_offset 228
 4868 2602 4EB9 0000 	jsr CFE_EVS_SendEvent
 4868      0000 
 4869 2608 4FEF 0014 	lea (20,%sp),%sp
 4870               	.cfi_def_cfa_offset 208
2178:/home/simulink/cFS_FreeRTOS_seL4/cfe/fsw/cfe-core/src/es/cfe_es_task.c ****                               CFE_EVS_ERROR,
2179:/home/simulink/cFS_FreeRTOS_seL4/cfe/fsw/cfe-core/src/es/cfe_es_task.c ****                               "Error writing cFE File Header to '%s', Status=0x%08X",
2180:/home/simulink/cFS_FreeRTOS_seL4/cfe/fsw/cfe-core/src/es/cfe_es_task.c ****                               DumpFilename, (unsigned int)Status);
2181:/home/simulink/cFS_FreeRTOS_seL4/cfe/fsw/cfe-core/src/es/cfe_es_task.c ****                             
2182:/home/simulink/cFS_FreeRTOS_seL4/cfe/fsw/cfe-core/src/es/cfe_es_task.c ****             /* Increment Command Error Counter */      
2183:/home/simulink/cFS_FreeRTOS_seL4/cfe/fsw/cfe-core/src/es/cfe_es_task.c ****             CFE_ES_TaskData.ErrCounter++;      
 4871               	.loc 1 2183 0
 4872 260c 1039 0000 	move.b CFE_ES_TaskData+1,%d0
 4872      0000 
 4873 2612 5280      	addq.l #1,%d0
 4874 2614 1000      	move.b %d0,%d0
 4875 2616 13C0 0000 	move.b %d0,CFE_ES_TaskData+1
 4875      0000 
 4876               	.L208:
2184:/home/simulink/cFS_FreeRTOS_seL4/cfe/fsw/cfe-core/src/es/cfe_es_task.c ****         }
2185:/home/simulink/cFS_FreeRTOS_seL4/cfe/fsw/cfe-core/src/es/cfe_es_task.c **** 
2186:/home/simulink/cFS_FreeRTOS_seL4/cfe/fsw/cfe-core/src/es/cfe_es_task.c ****         /* We are done outputting data to the dump file.  Close it. */
2187:/home/simulink/cFS_FreeRTOS_seL4/cfe/fsw/cfe-core/src/es/cfe_es_task.c ****         OS_close(FileDescriptor);
 4877               	.loc 1 2187 0
 4878 261c 2F2F 00B4 	move.l 180(%sp),-(%sp)
 4879               	.cfi_def_cfa_offset 212
 4880 2620 4EB9 0000 	jsr OS_close
 4880      0000 
 4881 2626 588F      	addq.l #4,%sp
 4882               	.cfi_def_cfa_offset 208
2188:/home/simulink/cFS_FreeRTOS_seL4/cfe/fsw/cfe-core/src/es/cfe_es_task.c ****     }
2189:/home/simulink/cFS_FreeRTOS_seL4/cfe/fsw/cfe-core/src/es/cfe_es_task.c ****     else
2190:/home/simulink/cFS_FreeRTOS_seL4/cfe/fsw/cfe-core/src/es/cfe_es_task.c ****     {
2191:/home/simulink/cFS_FreeRTOS_seL4/cfe/fsw/cfe-core/src/es/cfe_es_task.c ****         CFE_EVS_SendEvent(CFE_ES_CREATING_CDS_DUMP_ERR_EID,
2192:/home/simulink/cFS_FreeRTOS_seL4/cfe/fsw/cfe-core/src/es/cfe_es_task.c ****                           CFE_EVS_ERROR,
2193:/home/simulink/cFS_FreeRTOS_seL4/cfe/fsw/cfe-core/src/es/cfe_es_task.c ****                           "Error creating CDS dump file '%s', Status=0x%08X",
2194:/home/simulink/cFS_FreeRTOS_seL4/cfe/fsw/cfe-core/src/es/cfe_es_task.c ****                           DumpFilename, (unsigned int)FileDescriptor);
2195:/home/simulink/cFS_FreeRTOS_seL4/cfe/fsw/cfe-core/src/es/cfe_es_task.c ****                             
2196:/home/simulink/cFS_FreeRTOS_seL4/cfe/fsw/cfe-core/src/es/cfe_es_task.c ****         /* Increment Command Error Counter */      
2197:/home/simulink/cFS_FreeRTOS_seL4/cfe/fsw/cfe-core/src/es/cfe_es_task.c ****         CFE_ES_TaskData.ErrCounter++;      
2198:/home/simulink/cFS_FreeRTOS_seL4/cfe/fsw/cfe-core/src/es/cfe_es_task.c ****     }
2199:/home/simulink/cFS_FreeRTOS_seL4/cfe/fsw/cfe-core/src/es/cfe_es_task.c ****     
2200:/home/simulink/cFS_FreeRTOS_seL4/cfe/fsw/cfe-core/src/es/cfe_es_task.c **** } /* End of CFE_ES_DumpCDSRegCmd() */
 4883               	.loc 1 2200 0
 4884 2628 6038      	jra .L210
 4885               	.L200:
68K GAS   			page 144


2191:/home/simulink/cFS_FreeRTOS_seL4/cfe/fsw/cfe-core/src/es/cfe_es_task.c ****                           CFE_EVS_ERROR,
 4886               	.loc 1 2191 0
 4887 262a 202F 00B4 	move.l 180(%sp),%d0
 4888 262e 2F00      	move.l %d0,-(%sp)
 4889               	.cfi_def_cfa_offset 212
 4890 2630 200F      	move.l %sp,%d0
 4891 2632 0680 0000 	add.l #52,%d0
 4891      0034 
 4892 2638 2F00      	move.l %d0,-(%sp)
 4893               	.cfi_def_cfa_offset 216
 4894 263a 4879 0000 	pea .LC77
 4894      0000 
 4895               	.cfi_def_cfa_offset 220
 4896 2640 4878 0003 	pea 3.w
 4897               	.cfi_def_cfa_offset 224
 4898 2644 4878 0056 	pea 86.w
 4899               	.cfi_def_cfa_offset 228
 4900 2648 4EB9 0000 	jsr CFE_EVS_SendEvent
 4900      0000 
 4901 264e 4FEF 0014 	lea (20,%sp),%sp
 4902               	.cfi_def_cfa_offset 208
2197:/home/simulink/cFS_FreeRTOS_seL4/cfe/fsw/cfe-core/src/es/cfe_es_task.c ****     }
 4903               	.loc 1 2197 0
 4904 2652 1039 0000 	move.b CFE_ES_TaskData+1,%d0
 4904      0000 
 4905 2658 5280      	addq.l #1,%d0
 4906 265a 1000      	move.b %d0,%d0
 4907 265c 13C0 0000 	move.b %d0,CFE_ES_TaskData+1
 4907      0000 
 4908               	.L210:
 4909               	.loc 1 2200 0
 4910 2662 4E71      	nop
 4911 2664 4FEF 00CC 	lea (204,%sp),%sp
 4912 2668 4E75      	rts
 4913               	.cfi_endproc
 4914               	.LFE88:
 4915               	.sizeCFE_ES_DumpCDSRegCmd, .-CFE_ES_DumpCDSRegCmd
 4916               	.section.rodata
 4917               	.LC78:
 4918 0d3e 4669 6C65 	.string"File write,byte cnt err,file %s,request=%d,actual=%d"
 4918      2077 7269 
 4918      7465 2C62 
 4918      7974 6520 
 4918      636E 7420 
 4919               	.text
 4920               	.align2
 4921               	.globlCFE_ES_FileWriteByteCntErr
 4922               	.typeCFE_ES_FileWriteByteCntErr, @function
 4923               	CFE_ES_FileWriteByteCntErr:
 4924               	.LFB89:
2201:/home/simulink/cFS_FreeRTOS_seL4/cfe/fsw/cfe-core/src/es/cfe_es_task.c **** 
2202:/home/simulink/cFS_FreeRTOS_seL4/cfe/fsw/cfe-core/src/es/cfe_es_task.c **** /* * * * * * * * * * * * * * * * * * * * * * * * * * * * * * * * * */
2203:/home/simulink/cFS_FreeRTOS_seL4/cfe/fsw/cfe-core/src/es/cfe_es_task.c **** /*                                                                 */
2204:/home/simulink/cFS_FreeRTOS_seL4/cfe/fsw/cfe-core/src/es/cfe_es_task.c **** /* CFE_ES_FileWriteByteCntErr() -- Send event to inform ground that*/
2205:/home/simulink/cFS_FreeRTOS_seL4/cfe/fsw/cfe-core/src/es/cfe_es_task.c **** /*                                a byte count discrepancy has been*/
2206:/home/simulink/cFS_FreeRTOS_seL4/cfe/fsw/cfe-core/src/es/cfe_es_task.c **** /*                                detected during the file write   */
2207:/home/simulink/cFS_FreeRTOS_seL4/cfe/fsw/cfe-core/src/es/cfe_es_task.c **** /* * * * * * * * * * * * * * * * * * * * * * * * * * * * * * * * * */
68K GAS   			page 145


2208:/home/simulink/cFS_FreeRTOS_seL4/cfe/fsw/cfe-core/src/es/cfe_es_task.c **** void CFE_ES_FileWriteByteCntErr(const char *Filename,uint32 Requested,uint32 Actual)
2209:/home/simulink/cFS_FreeRTOS_seL4/cfe/fsw/cfe-core/src/es/cfe_es_task.c **** {
 4925               	.loc 1 2209 0
 4926               	.cfi_startproc
2210:/home/simulink/cFS_FreeRTOS_seL4/cfe/fsw/cfe-core/src/es/cfe_es_task.c **** 
2211:/home/simulink/cFS_FreeRTOS_seL4/cfe/fsw/cfe-core/src/es/cfe_es_task.c ****     CFE_EVS_SendEvent(CFE_ES_FILEWRITE_ERR_EID,CFE_EVS_ERROR,
 4927               	.loc 1 2211 0
 4928 266a 222F 000C 	move.l 12(%sp),%d1
 4929 266e 202F 0008 	move.l 8(%sp),%d0
 4930 2672 2F01      	move.l %d1,-(%sp)
 4931               	.cfi_def_cfa_offset 8
 4932 2674 2F00      	move.l %d0,-(%sp)
 4933               	.cfi_def_cfa_offset 12
 4934 2676 2F2F 000C 	move.l 12(%sp),-(%sp)
 4935               	.cfi_def_cfa_offset 16
 4936 267a 4879 0000 	pea .LC78
 4936      0000 
 4937               	.cfi_def_cfa_offset 20
 4938 2680 4878 0003 	pea 3.w
 4939               	.cfi_def_cfa_offset 24
 4940 2684 4878 004A 	pea 74.w
 4941               	.cfi_def_cfa_offset 28
 4942 2688 4EB9 0000 	jsr CFE_EVS_SendEvent
 4942      0000 
 4943 268e 4FEF 0018 	lea (24,%sp),%sp
 4944               	.cfi_def_cfa_offset 4
2212:/home/simulink/cFS_FreeRTOS_seL4/cfe/fsw/cfe-core/src/es/cfe_es_task.c ****                       "File write,byte cnt err,file %s,request=%d,actual=%d",
2213:/home/simulink/cFS_FreeRTOS_seL4/cfe/fsw/cfe-core/src/es/cfe_es_task.c ****                        Filename,(int)Requested,(int)Actual);
2214:/home/simulink/cFS_FreeRTOS_seL4/cfe/fsw/cfe-core/src/es/cfe_es_task.c **** 
2215:/home/simulink/cFS_FreeRTOS_seL4/cfe/fsw/cfe-core/src/es/cfe_es_task.c **** 
2216:/home/simulink/cFS_FreeRTOS_seL4/cfe/fsw/cfe-core/src/es/cfe_es_task.c **** }/* End of CFE_ES_FileWriteByteCntErr() */                                                
 4945               	.loc 1 2216 0
 4946 2692 4E71      	nop
 4947 2694 4E75      	rts
 4948               	.cfi_endproc
 4949               	.LFE89:
 4950               	.sizeCFE_ES_FileWriteByteCntErr, .-CFE_ES_FileWriteByteCntErr
 4951               	.Letext0:
 4952               	.file 2 "/home/simulink/cFS_FreeRTOS_seL4/osal/src/os/inc/common_types.h"
 4953               	.file 3 "/home/simulink/cFS_FreeRTOS_seL4/osal/src/os/inc/osapi-os-core.h"
 4954               	.file 4 "/home/simulink/development/rtems/5/m68k-rtems5/include/machine/_default_types.h"
 4955               	.file 5 "/home/simulink/development/rtems/5/m68k-rtems5/include/machine/_types.h"
 4956               	.file 6 "/home/simulink/development/rtems/5/m68k-rtems5/include/sys/lock.h"
 4957               	.file 7 "/home/simulink/development/rtems/5/m68k-rtems5/include/sys/_types.h"
 4958               	.file 8 "/home/simulink/development/rtems/5/lib/gcc/m68k-rtems5/7.3.0/include/stddef.h"
 4959               	.file 9 "/home/simulink/development/rtems/5/m68k-rtems5/include/sys/reent.h"
 4960               	.file 10 "/home/simulink/development/rtems/5/m68k-rtems5/include/stdlib.h"
 4961               	.file 11 "/home/simulink/development/rtems/5/m68k-rtems5/include/time.h"
 4962               	.file 12 "/home/simulink/cFS_FreeRTOS_seL4/cfe/fsw/cfe-core/src/inc/cfe_es.h"
 4963               	.file 13 "/home/simulink/cFS_FreeRTOS_seL4/cfe/fsw/cfe-core/src/inc/cfe_time.h"
 4964               	.file 14 "/home/simulink/cFS_FreeRTOS_seL4/cfe/fsw/cfe-core/src/inc/ccsds.h"
 4965               	.file 15 "/home/simulink/cFS_FreeRTOS_seL4/cfe/fsw/cfe-core/src/inc/cfe_sb.h"
 4966               	.file 16 "/home/simulink/cFS_FreeRTOS_seL4/cfe/fsw/cfe-core/src/inc/cfe_evs_msg.h"
 4967               	.file 17 "/home/simulink/cFS_FreeRTOS_seL4/cfe/fsw/cfe-core/src/inc/cfe_fs.h"
 4968               	.file 18 "/home/simulink/cFS_FreeRTOS_seL4/cfe/fsw/cfe-core/src/inc/private/cfe_es_erlog_typedef.h"
 4969               	.file 19 "/home/simulink/cFS_FreeRTOS_seL4/cfe/fsw/cfe-core/src/inc/private/cfe_es_perfdata_typedef.h"
 4970               	.file 20 "/home/simulink/cFS_FreeRTOS_seL4/cfe/fsw/cfe-core/src/inc/private/cfe_evs_log_typedef.h"
68K GAS   			page 146


 4971               	.file 21 "/home/simulink/cFS_FreeRTOS_seL4/cfe/fsw/cfe-core/src/inc/private/cfe_es_resetdata_typedef.h"
 4972               	.file 22 "/home/simulink/cFS_FreeRTOS_seL4/cfe/fsw/cfe-core/src/es/cfe_es_apps.h"
 4973               	.file 23 "/home/simulink/cFS_FreeRTOS_seL4/cfe/fsw/cfe-core/src/es/cfe_es_cds_mempool.h"
 4974               	.file 24 "/home/simulink/cFS_FreeRTOS_seL4/cfe/fsw/cfe-core/src/es/cfe_es_cds.h"
 4975               	.file 25 "/home/simulink/cFS_FreeRTOS_seL4/cfe/fsw/cfe-core/src/inc/cfe_es_msg.h"
 4976               	.file 26 "/home/simulink/cFS_FreeRTOS_seL4/cfe/fsw/cfe-core/src/es/cfe_es_perf.h"
 4977               	.file 27 "/home/simulink/cFS_FreeRTOS_seL4/cfe/fsw/cfe-core/src/es/cfe_es_global.h"
 4978               	.file 28 "/home/simulink/cFS_FreeRTOS_seL4/cfe/fsw/cfe-core/src/es/cfe_es_task.h"
 4979               	.section.debug_info,"",@progbits
 4980               	.Ldebug_info0:
 4981 0000 0000 2BE5 	.long0x2be5
 4982 0004 0004      	.word0x4
 4983 0006 0000 0000 	.long.Ldebug_abbrev0
 4984 000a 04        	.byte0x4
 4985 000b 01        	.uleb128 0x1
 4986 000c 0000 0000 	.long.LASF523
 4987 0010 0C        	.byte0xc
 4988 0011 0000 0000 	.long.LASF524
 4989 0015 0000 0000 	.long.LASF525
 4990 0019 0000 0000 	.long.Ltext0
 4991 001d 0000 2696 	.long.Letext0-.Ltext0
 4992 0021 0000 0000 	.long.Ldebug_line0
 4993 0025 02        	.uleb128 0x2
 4994 0026 0000 0000 	.long.LASF2
 4995 002a 02        	.byte0x2
 4996 002b E6        	.byte0xe6
 4997 002c 0000 0030 	.long0x30
 4998 0030 03        	.uleb128 0x3
 4999 0031 01        	.byte0x1
 5000 0032 08        	.byte0x8
 5001 0033 0000 0000 	.long.LASF0
 5002 0037 03        	.uleb128 0x3
 5003 0038 01        	.byte0x1
 5004 0039 06        	.byte0x6
 5005 003a 0000 0000 	.long.LASF1
 5006 003e 02        	.uleb128 0x2
 5007 003f 0000 0000 	.long.LASF3
 5008 0043 02        	.byte0x2
 5009 0044 E8        	.byte0xe8
 5010 0045 0000 0049 	.long0x49
 5011 0049 03        	.uleb128 0x3
 5012 004a 02        	.byte0x2
 5013 004b 05        	.byte0x5
 5014 004c 0000 0000 	.long.LASF4
 5015 0050 02        	.uleb128 0x2
 5016 0051 0000 0000 	.long.LASF5
 5017 0055 02        	.byte0x2
 5018 0056 E9        	.byte0xe9
 5019 0057 0000 005B 	.long0x5b
 5020 005b 03        	.uleb128 0x3
 5021 005c 04        	.byte0x4
 5022 005d 05        	.byte0x5
 5023 005e 0000 0000 	.long.LASF6
 5024 0062 03        	.uleb128 0x3
 5025 0063 08        	.byte0x8
 5026 0064 05        	.byte0x5
 5027 0065 0000 0000 	.long.LASF7
68K GAS   			page 147


 5028 0069 02        	.uleb128 0x2
 5029 006a 0000 0000 	.long.LASF8
 5030 006e 02        	.byte0x2
 5031 006f EB        	.byte0xeb
 5032 0070 0000 0030 	.long0x30
 5033 0074 02        	.uleb128 0x2
 5034 0075 0000 0000 	.long.LASF9
 5035 0079 02        	.byte0x2
 5036 007a EC        	.byte0xec
 5037 007b 0000 007F 	.long0x7f
 5038 007f 03        	.uleb128 0x3
 5039 0080 02        	.byte0x2
 5040 0081 07        	.byte0x7
 5041 0082 0000 0000 	.long.LASF10
 5042 0086 02        	.uleb128 0x2
 5043 0087 0000 0000 	.long.LASF11
 5044 008b 02        	.byte0x2
 5045 008c ED        	.byte0xed
 5046 008d 0000 0091 	.long0x91
 5047 0091 03        	.uleb128 0x3
 5048 0092 04        	.byte0x4
 5049 0093 07        	.byte0x7
 5050 0094 0000 0000 	.long.LASF12
 5051 0098 03        	.uleb128 0x3
 5052 0099 08        	.byte0x8
 5053 009a 07        	.byte0x7
 5054 009b 0000 0000 	.long.LASF13
 5055 009f 02        	.uleb128 0x2
 5056 00a0 0000 0000 	.long.LASF14
 5057 00a4 02        	.byte0x2
 5058 00a5 F0        	.byte0xf0
 5059 00a6 0000 0091 	.long0x91
 5060 00aa 04        	.uleb128 0x4
 5061 00ab 0000 0000 	.long.LASF15
 5062 00af 02        	.byte0x2
 5063 00b0 0131      	.word0x131
 5064 00b2 0000 0025 	.long0x25
 5065 00b6 03        	.uleb128 0x3
 5066 00b7 01        	.byte0x1
 5067 00b8 06        	.byte0x6
 5068 00b9 0000 0000 	.long.LASF16
 5069 00bd 05        	.uleb128 0x5
 5070 00be 0000 00B6 	.long0xb6
 5071 00c2 06        	.uleb128 0x6
 5072 00c3 0000 00B6 	.long0xb6
 5073 00c7 0000 00D2 	.long0xd2
 5074 00cb 07        	.uleb128 0x7
 5075 00cc 0000 0091 	.long0x91
 5076 00d0 13        	.byte0x13
 5077 00d1 00        	.byte0
 5078 00d2 08        	.uleb128 0x8
 5079 00d3 0C        	.byte0xc
 5080 00d4 03        	.byte0x3
 5081 00d5 66        	.byte0x66
 5082 00d6 0000 00FF 	.long0xff
 5083 00da 09        	.uleb128 0x9
 5084 00db 0000 0000 	.long.LASF17
68K GAS   			page 148


 5085 00df 03        	.byte0x3
 5086 00e0 68        	.byte0x68
 5087 00e1 0000 0086 	.long0x86
 5088 00e5 00        	.byte0
 5089 00e6 09        	.uleb128 0x9
 5090 00e7 0000 0000 	.long.LASF18
 5091 00eb 03        	.byte0x3
 5092 00ec 69        	.byte0x69
 5093 00ed 0000 0086 	.long0x86
 5094 00f1 04        	.byte0x4
 5095 00f2 09        	.uleb128 0x9
 5096 00f3 0000 0000 	.long.LASF19
 5097 00f7 03        	.byte0x3
 5098 00f8 6A        	.byte0x6a
 5099 00f9 0000 0086 	.long0x86
 5100 00fd 08        	.byte0x8
 5101 00fe 00        	.byte0
 5102 00ff 02        	.uleb128 0x2
 5103 0100 0000 0000 	.long.LASF20
 5104 0104 03        	.byte0x3
 5105 0105 6B        	.byte0x6b
 5106 0106 0000 00D2 	.long0xd2
 5107 010a 0A        	.uleb128 0xa
 5108 010b 04        	.byte0x4
 5109 010c 02        	.uleb128 0x2
 5110 010d 0000 0000 	.long.LASF21
 5111 0111 04        	.byte0x4
 5112 0112 67        	.byte0x67
 5113 0113 0000 0062 	.long0x62
 5114 0117 03        	.uleb128 0x3
 5115 0118 08        	.byte0x8
 5116 0119 04        	.byte0x4
 5117 011a 0000 0000 	.long.LASF22
 5118 011e 02        	.uleb128 0x2
 5119 011f 0000 0000 	.long.LASF23
 5120 0123 05        	.byte0x5
 5121 0124 10        	.byte0x10
 5122 0125 0000 010C 	.long0x10c
 5123 0129 02        	.uleb128 0x2
 5124 012a 0000 0000 	.long.LASF24
 5125 012e 05        	.byte0x5
 5126 012f 16        	.byte0x16
 5127 0130 0000 011E 	.long0x11e
 5128 0134 0B        	.uleb128 0xb
 5129 0135 04        	.byte0x4
 5130 0136 05        	.byte0x5
 5131 0137 696E 7400 	.string"int"
 5132 013b 0C        	.uleb128 0xc
 5133 013c 0000 0000 	.long.LASF28
 5134 0140 08        	.byte0x8
 5135 0141 06        	.byte0x6
 5136 0142 28        	.byte0x28
 5137 0143 0000 0160 	.long0x160
 5138 0147 09        	.uleb128 0x9
 5139 0148 0000 0000 	.long.LASF25
 5140 014c 06        	.byte0x6
 5141 014d 29        	.byte0x29
68K GAS   			page 149


 5142 014e 0000 0160 	.long0x160
 5143 0152 00        	.byte0
 5144 0153 09        	.uleb128 0x9
 5145 0154 0000 0000 	.long.LASF26
 5146 0158 06        	.byte0x6
 5147 0159 2A        	.byte0x2a
 5148 015a 0000 0160 	.long0x160
 5149 015e 04        	.byte0x4
 5150 015f 00        	.byte0
 5151 0160 03        	.uleb128 0x3
 5152 0161 04        	.byte0x4
 5153 0162 07        	.byte0x7
 5154 0163 0000 0000 	.long.LASF27
 5155 0167 0C        	.uleb128 0xc
 5156 0168 0000 0000 	.long.LASF29
 5157 016c 14        	.byte0x14
 5158 016d 06        	.byte0x6
 5159 016e 2D        	.byte0x2d
 5160 016f 0000 01A4 	.long0x1a4
 5161 0173 09        	.uleb128 0x9
 5162 0174 0000 0000 	.long.LASF30
 5163 0178 06        	.byte0x6
 5164 0179 2E        	.byte0x2e
 5165 017a 0000 013B 	.long0x13b
 5166 017e 00        	.byte0
 5167 017f 09        	.uleb128 0x9
 5168 0180 0000 0000 	.long.LASF31
 5169 0184 06        	.byte0x6
 5170 0185 2F        	.byte0x2f
 5171 0186 0000 01A9 	.long0x1a9
 5172 018a 08        	.byte0x8
 5173 018b 09        	.uleb128 0x9
 5174 018c 0000 0000 	.long.LASF32
 5175 0190 06        	.byte0x6
 5176 0191 30        	.byte0x30
 5177 0192 0000 01B4 	.long0x1b4
 5178 0196 0C        	.byte0xc
 5179 0197 09        	.uleb128 0x9
 5180 0198 0000 0000 	.long.LASF33
 5181 019c 06        	.byte0x6
 5182 019d 31        	.byte0x31
 5183 019e 0000 01BA 	.long0x1ba
 5184 01a2 10        	.byte0x10
 5185 01a3 00        	.byte0
 5186 01a4 0D        	.uleb128 0xd
 5187 01a5 0000 0000 	.long.LASF34
 5188 01a9 0E        	.uleb128 0xe
 5189 01aa 04        	.byte0x4
 5190 01ab 0000 01A4 	.long0x1a4
 5191 01af 0D        	.uleb128 0xd
 5192 01b0 0000 0000 	.long.LASF35
 5193 01b4 0E        	.uleb128 0xe
 5194 01b5 04        	.byte0x4
 5195 01b6 0000 01AF 	.long0x1af
 5196 01ba 0E        	.uleb128 0xe
 5197 01bb 04        	.byte0x4
 5198 01bc 0000 00BD 	.long0xbd
68K GAS   			page 150


 5199 01c0 0C        	.uleb128 0xc
 5200 01c1 0000 0000 	.long.LASF36
 5201 01c5 14        	.byte0x14
 5202 01c6 06        	.byte0x6
 5203 01c7 34        	.byte0x34
 5204 01c8 0000 01D9 	.long0x1d9
 5205 01cc 09        	.uleb128 0x9
 5206 01cd 0000 0000 	.long.LASF37
 5207 01d1 06        	.byte0x6
 5208 01d2 35        	.byte0x35
 5209 01d3 0000 0167 	.long0x167
 5210 01d7 00        	.byte0
 5211 01d8 00        	.byte0
 5212 01d9 0C        	.uleb128 0xc
 5213 01da 0000 0000 	.long.LASF38
 5214 01de 18        	.byte0x18
 5215 01df 06        	.byte0x6
 5216 01e0 38        	.byte0x38
 5217 01e1 0000 01FE 	.long0x1fe
 5218 01e5 09        	.uleb128 0x9
 5219 01e6 0000 0000 	.long.LASF39
 5220 01ea 06        	.byte0x6
 5221 01eb 39        	.byte0x39
 5222 01ec 0000 01C0 	.long0x1c0
 5223 01f0 00        	.byte0
 5224 01f1 09        	.uleb128 0x9
 5225 01f2 0000 0000 	.long.LASF40
 5226 01f6 06        	.byte0x6
 5227 01f7 3A        	.byte0x3a
 5228 01f8 0000 0160 	.long0x160
 5229 01fc 14        	.byte0x14
 5230 01fd 00        	.byte0
 5231 01fe 04        	.uleb128 0x4
 5232 01ff 0000 0000 	.long.LASF41
 5233 0203 06        	.byte0x6
 5234 0204 0171      	.word0x171
 5235 0206 0000 01D9 	.long0x1d9
 5236 020a 02        	.uleb128 0x2
 5237 020b 0000 0000 	.long.LASF42
 5238 020f 07        	.byte0x7
 5239 0210 91        	.byte0x91
 5240 0211 0000 005B 	.long0x5b
 5241 0215 04        	.uleb128 0x4
 5242 0216 0000 0000 	.long.LASF43
 5243 021a 08        	.byte0x8
 5244 021b 0165      	.word0x165
 5245 021d 0000 0160 	.long0x160
 5246 0221 0F        	.uleb128 0xf
 5247 0222 04        	.byte0x4
 5248 0223 07        	.byte0x7
 5249 0224 A6        	.byte0xa6
 5250 0225 0000 0240 	.long0x240
 5251 0229 10        	.uleb128 0x10
 5252 022a 0000 0000 	.long.LASF44
 5253 022e 07        	.byte0x7
 5254 022f A8        	.byte0xa8
 5255 0230 0000 0215 	.long0x215
68K GAS   			page 151


 5256 0234 10        	.uleb128 0x10
 5257 0235 0000 0000 	.long.LASF45
 5258 0239 07        	.byte0x7
 5259 023a A9        	.byte0xa9
 5260 023b 0000 0240 	.long0x240
 5261 023f 00        	.byte0
 5262 0240 06        	.uleb128 0x6
 5263 0241 0000 0030 	.long0x30
 5264 0245 0000 0250 	.long0x250
 5265 0249 07        	.uleb128 0x7
 5266 024a 0000 0091 	.long0x91
 5267 024e 03        	.byte0x3
 5268 024f 00        	.byte0
 5269 0250 08        	.uleb128 0x8
 5270 0251 08        	.byte0x8
 5271 0252 07        	.byte0x7
 5272 0253 A3        	.byte0xa3
 5273 0254 0000 0271 	.long0x271
 5274 0258 09        	.uleb128 0x9
 5275 0259 0000 0000 	.long.LASF46
 5276 025d 07        	.byte0x7
 5277 025e A5        	.byte0xa5
 5278 025f 0000 0134 	.long0x134
 5279 0263 00        	.byte0
 5280 0264 09        	.uleb128 0x9
 5281 0265 0000 0000 	.long.LASF47
 5282 0269 07        	.byte0x7
 5283 026a AA        	.byte0xaa
 5284 026b 0000 0221 	.long0x221
 5285 026f 04        	.byte0x4
 5286 0270 00        	.byte0
 5287 0271 02        	.uleb128 0x2
 5288 0272 0000 0000 	.long.LASF48
 5289 0276 07        	.byte0x7
 5290 0277 AB        	.byte0xab
 5291 0278 0000 0250 	.long0x250
 5292 027c 02        	.uleb128 0x2
 5293 027d 0000 0000 	.long.LASF49
 5294 0281 07        	.byte0x7
 5295 0282 AF        	.byte0xaf
 5296 0283 0000 01FE 	.long0x1fe
 5297 0287 02        	.uleb128 0x2
 5298 0288 0000 0000 	.long.LASF50
 5299 028c 09        	.byte0x9
 5300 028d 16        	.byte0x16
 5301 028e 0000 0091 	.long0x91
 5302 0292 0C        	.uleb128 0xc
 5303 0293 0000 0000 	.long.LASF51
 5304 0297 18        	.byte0x18
 5305 0298 09        	.byte0x9
 5306 0299 2F        	.byte0x2f
 5307 029a 0000 02E5 	.long0x2e5
 5308 029e 09        	.uleb128 0x9
 5309 029f 0000 0000 	.long.LASF52
 5310 02a3 09        	.byte0x9
 5311 02a4 31        	.byte0x31
 5312 02a5 0000 02E5 	.long0x2e5
68K GAS   			page 152


 5313 02a9 00        	.byte0
 5314 02aa 11        	.uleb128 0x11
 5315 02ab 5F6B 00   	.string"_k"
 5316 02ae 09        	.byte0x9
 5317 02af 32        	.byte0x32
 5318 02b0 0000 0134 	.long0x134
 5319 02b4 04        	.byte0x4
 5320 02b5 09        	.uleb128 0x9
 5321 02b6 0000 0000 	.long.LASF53
 5322 02ba 09        	.byte0x9
 5323 02bb 32        	.byte0x32
 5324 02bc 0000 0134 	.long0x134
 5325 02c0 08        	.byte0x8
 5326 02c1 09        	.uleb128 0x9
 5327 02c2 0000 0000 	.long.LASF54
 5328 02c6 09        	.byte0x9
 5329 02c7 32        	.byte0x32
 5330 02c8 0000 0134 	.long0x134
 5331 02cc 0C        	.byte0xc
 5332 02cd 09        	.uleb128 0x9
 5333 02ce 0000 0000 	.long.LASF55
 5334 02d2 09        	.byte0x9
 5335 02d3 32        	.byte0x32
 5336 02d4 0000 0134 	.long0x134
 5337 02d8 10        	.byte0x10
 5338 02d9 11        	.uleb128 0x11
 5339 02da 5F78 00   	.string"_x"
 5340 02dd 09        	.byte0x9
 5341 02de 33        	.byte0x33
 5342 02df 0000 02EB 	.long0x2eb
 5343 02e3 14        	.byte0x14
 5344 02e4 00        	.byte0
 5345 02e5 0E        	.uleb128 0xe
 5346 02e6 04        	.byte0x4
 5347 02e7 0000 0292 	.long0x292
 5348 02eb 06        	.uleb128 0x6
 5349 02ec 0000 0287 	.long0x287
 5350 02f0 0000 02FB 	.long0x2fb
 5351 02f4 07        	.uleb128 0x7
 5352 02f5 0000 0091 	.long0x91
 5353 02f9 00        	.byte0
 5354 02fa 00        	.byte0
 5355 02fb 0C        	.uleb128 0xc
 5356 02fc 0000 0000 	.long.LASF56
 5357 0300 24        	.byte0x24
 5358 0301 09        	.byte0x9
 5359 0302 37        	.byte0x37
 5360 0303 0000 0374 	.long0x374
 5361 0307 09        	.uleb128 0x9
 5362 0308 0000 0000 	.long.LASF57
 5363 030c 09        	.byte0x9
 5364 030d 39        	.byte0x39
 5365 030e 0000 0134 	.long0x134
 5366 0312 00        	.byte0
 5367 0313 09        	.uleb128 0x9
 5368 0314 0000 0000 	.long.LASF58
 5369 0318 09        	.byte0x9
68K GAS   			page 153


 5370 0319 3A        	.byte0x3a
 5371 031a 0000 0134 	.long0x134
 5372 031e 04        	.byte0x4
 5373 031f 09        	.uleb128 0x9
 5374 0320 0000 0000 	.long.LASF59
 5375 0324 09        	.byte0x9
 5376 0325 3B        	.byte0x3b
 5377 0326 0000 0134 	.long0x134
 5378 032a 08        	.byte0x8
 5379 032b 09        	.uleb128 0x9
 5380 032c 0000 0000 	.long.LASF60
 5381 0330 09        	.byte0x9
 5382 0331 3C        	.byte0x3c
 5383 0332 0000 0134 	.long0x134
 5384 0336 0C        	.byte0xc
 5385 0337 09        	.uleb128 0x9
 5386 0338 0000 0000 	.long.LASF61
 5387 033c 09        	.byte0x9
 5388 033d 3D        	.byte0x3d
 5389 033e 0000 0134 	.long0x134
 5390 0342 10        	.byte0x10
 5391 0343 09        	.uleb128 0x9
 5392 0344 0000 0000 	.long.LASF62
 5393 0348 09        	.byte0x9
 5394 0349 3E        	.byte0x3e
 5395 034a 0000 0134 	.long0x134
 5396 034e 14        	.byte0x14
 5397 034f 09        	.uleb128 0x9
 5398 0350 0000 0000 	.long.LASF63
 5399 0354 09        	.byte0x9
 5400 0355 3F        	.byte0x3f
 5401 0356 0000 0134 	.long0x134
 5402 035a 18        	.byte0x18
 5403 035b 09        	.uleb128 0x9
 5404 035c 0000 0000 	.long.LASF64
 5405 0360 09        	.byte0x9
 5406 0361 40        	.byte0x40
 5407 0362 0000 0134 	.long0x134
 5408 0366 1C        	.byte0x1c
 5409 0367 09        	.uleb128 0x9
 5410 0368 0000 0000 	.long.LASF65
 5411 036c 09        	.byte0x9
 5412 036d 41        	.byte0x41
 5413 036e 0000 0134 	.long0x134
 5414 0372 20        	.byte0x20
 5415 0373 00        	.byte0
 5416 0374 12        	.uleb128 0x12
 5417 0375 0000 0000 	.long.LASF66
 5418 0379 0108      	.word0x108
 5419 037b 09        	.byte0x9
 5420 037c 4A        	.byte0x4a
 5421 037d 0000 03B4 	.long0x3b4
 5422 0381 09        	.uleb128 0x9
 5423 0382 0000 0000 	.long.LASF67
 5424 0386 09        	.byte0x9
 5425 0387 4B        	.byte0x4b
 5426 0388 0000 03B4 	.long0x3b4
68K GAS   			page 154


 5427 038c 00        	.byte0
 5428 038d 09        	.uleb128 0x9
 5429 038e 0000 0000 	.long.LASF68
 5430 0392 09        	.byte0x9
 5431 0393 4C        	.byte0x4c
 5432 0394 0000 03B4 	.long0x3b4
 5433 0398 80        	.byte0x80
 5434 0399 13        	.uleb128 0x13
 5435 039a 0000 0000 	.long.LASF69
 5436 039e 09        	.byte0x9
 5437 039f 4E        	.byte0x4e
 5438 03a0 0000 0287 	.long0x287
 5439 03a4 0100      	.word0x100
 5440 03a6 13        	.uleb128 0x13
 5441 03a7 0000 0000 	.long.LASF70
 5442 03ab 09        	.byte0x9
 5443 03ac 51        	.byte0x51
 5444 03ad 0000 0287 	.long0x287
 5445 03b1 0104      	.word0x104
 5446 03b3 00        	.byte0
 5447 03b4 06        	.uleb128 0x6
 5448 03b5 0000 010A 	.long0x10a
 5449 03b9 0000 03C4 	.long0x3c4
 5450 03bd 07        	.uleb128 0x7
 5451 03be 0000 0091 	.long0x91
 5452 03c2 1F        	.byte0x1f
 5453 03c3 00        	.byte0
 5454 03c4 12        	.uleb128 0x12
 5455 03c5 0000 0000 	.long.LASF71
 5456 03c9 0190      	.word0x190
 5457 03cb 09        	.byte0x9
 5458 03cc 5D        	.byte0x5d
 5459 03cd 0000 0402 	.long0x402
 5460 03d1 09        	.uleb128 0x9
 5461 03d2 0000 0000 	.long.LASF52
 5462 03d6 09        	.byte0x9
 5463 03d7 5E        	.byte0x5e
 5464 03d8 0000 0402 	.long0x402
 5465 03dc 00        	.byte0
 5466 03dd 09        	.uleb128 0x9
 5467 03de 0000 0000 	.long.LASF72
 5468 03e2 09        	.byte0x9
 5469 03e3 5F        	.byte0x5f
 5470 03e4 0000 0134 	.long0x134
 5471 03e8 04        	.byte0x4
 5472 03e9 09        	.uleb128 0x9
 5473 03ea 0000 0000 	.long.LASF73
 5474 03ee 09        	.byte0x9
 5475 03ef 61        	.byte0x61
 5476 03f0 0000 0408 	.long0x408
 5477 03f4 08        	.byte0x8
 5478 03f5 09        	.uleb128 0x9
 5479 03f6 0000 0000 	.long.LASF66
 5480 03fa 09        	.byte0x9
 5481 03fb 62        	.byte0x62
 5482 03fc 0000 0374 	.long0x374
 5483 0400 88        	.byte0x88
68K GAS   			page 155


 5484 0401 00        	.byte0
 5485 0402 0E        	.uleb128 0xe
 5486 0403 04        	.byte0x4
 5487 0404 0000 03C4 	.long0x3c4
 5488 0408 06        	.uleb128 0x6
 5489 0409 0000 0418 	.long0x418
 5490 040d 0000 0418 	.long0x418
 5491 0411 07        	.uleb128 0x7
 5492 0412 0000 0091 	.long0x91
 5493 0416 1F        	.byte0x1f
 5494 0417 00        	.byte0
 5495 0418 0E        	.uleb128 0xe
 5496 0419 04        	.byte0x4
 5497 041a 0000 041E 	.long0x41e
 5498 041e 14        	.uleb128 0x14
 5499 041f 0C        	.uleb128 0xc
 5500 0420 0000 0000 	.long.LASF74
 5501 0424 08        	.byte0x8
 5502 0425 09        	.byte0x9
 5503 0426 75        	.byte0x75
 5504 0427 0000 0444 	.long0x444
 5505 042b 09        	.uleb128 0x9
 5506 042c 0000 0000 	.long.LASF75
 5507 0430 09        	.byte0x9
 5508 0431 76        	.byte0x76
 5509 0432 0000 0444 	.long0x444
 5510 0436 00        	.byte0
 5511 0437 09        	.uleb128 0x9
 5512 0438 0000 0000 	.long.LASF76
 5513 043c 09        	.byte0x9
 5514 043d 77        	.byte0x77
 5515 043e 0000 0134 	.long0x134
 5516 0442 04        	.byte0x4
 5517 0443 00        	.byte0
 5518 0444 0E        	.uleb128 0xe
 5519 0445 04        	.byte0x4
 5520 0446 0000 0030 	.long0x30
 5521 044a 0C        	.uleb128 0xc
 5522 044b 0000 0000 	.long.LASF77
 5523 044f 80        	.byte0x80
 5524 0450 09        	.byte0x9
 5525 0451 B5        	.byte0xb5
 5526 0452 0000 0574 	.long0x574
 5527 0456 11        	.uleb128 0x11
 5528 0457 5F70 00   	.string"_p"
 5529 045a 09        	.byte0x9
 5530 045b B6        	.byte0xb6
 5531 045c 0000 0444 	.long0x444
 5532 0460 00        	.byte0
 5533 0461 11        	.uleb128 0x11
 5534 0462 5F72 00   	.string"_r"
 5535 0465 09        	.byte0x9
 5536 0466 B7        	.byte0xb7
 5537 0467 0000 0134 	.long0x134
 5538 046b 04        	.byte0x4
 5539 046c 11        	.uleb128 0x11
 5540 046d 5F77 00   	.string"_w"
68K GAS   			page 156


 5541 0470 09        	.byte0x9
 5542 0471 B8        	.byte0xb8
 5543 0472 0000 0134 	.long0x134
 5544 0476 08        	.byte0x8
 5545 0477 09        	.uleb128 0x9
 5546 0478 0000 0000 	.long.LASF78
 5547 047c 09        	.byte0x9
 5548 047d B9        	.byte0xb9
 5549 047e 0000 0049 	.long0x49
 5550 0482 0C        	.byte0xc
 5551 0483 09        	.uleb128 0x9
 5552 0484 0000 0000 	.long.LASF79
 5553 0488 09        	.byte0x9
 5554 0489 BA        	.byte0xba
 5555 048a 0000 0049 	.long0x49
 5556 048e 0E        	.byte0xe
 5557 048f 11        	.uleb128 0x11
 5558 0490 5F62 6600 	.string"_bf"
 5559 0494 09        	.byte0x9
 5560 0495 BB        	.byte0xbb
 5561 0496 0000 041F 	.long0x41f
 5562 049a 10        	.byte0x10
 5563 049b 09        	.uleb128 0x9
 5564 049c 0000 0000 	.long.LASF80
 5565 04a0 09        	.byte0x9
 5566 04a1 BC        	.byte0xbc
 5567 04a2 0000 0134 	.long0x134
 5568 04a6 18        	.byte0x18
 5569 04a7 09        	.uleb128 0x9
 5570 04a8 0000 0000 	.long.LASF81
 5571 04ac 09        	.byte0x9
 5572 04ad C3        	.byte0xc3
 5573 04ae 0000 010A 	.long0x10a
 5574 04b2 1C        	.byte0x1c
 5575 04b3 09        	.uleb128 0x9
 5576 04b4 0000 0000 	.long.LASF82
 5577 04b8 09        	.byte0x9
 5578 04b9 C5        	.byte0xc5
 5579 04ba 0000 06AB 	.long0x6ab
 5580 04be 20        	.byte0x20
 5581 04bf 09        	.uleb128 0x9
 5582 04c0 0000 0000 	.long.LASF83
 5583 04c4 09        	.byte0x9
 5584 04c5 C7        	.byte0xc7
 5585 04c6 0000 06CF 	.long0x6cf
 5586 04ca 24        	.byte0x24
 5587 04cb 09        	.uleb128 0x9
 5588 04cc 0000 0000 	.long.LASF84
 5589 04d0 09        	.byte0x9
 5590 04d1 CA        	.byte0xca
 5591 04d2 0000 06F3 	.long0x6f3
 5592 04d6 28        	.byte0x28
 5593 04d7 09        	.uleb128 0x9
 5594 04d8 0000 0000 	.long.LASF85
 5595 04dc 09        	.byte0x9
 5596 04dd CB        	.byte0xcb
 5597 04de 0000 070D 	.long0x70d
68K GAS   			page 157


 5598 04e2 2C        	.byte0x2c
 5599 04e3 11        	.uleb128 0x11
 5600 04e4 5F75 6200 	.string"_ub"
 5601 04e8 09        	.byte0x9
 5602 04e9 CE        	.byte0xce
 5603 04ea 0000 041F 	.long0x41f
 5604 04ee 30        	.byte0x30
 5605 04ef 11        	.uleb128 0x11
 5606 04f0 5F75 7000 	.string"_up"
 5607 04f4 09        	.byte0x9
 5608 04f5 CF        	.byte0xcf
 5609 04f6 0000 0444 	.long0x444
 5610 04fa 38        	.byte0x38
 5611 04fb 11        	.uleb128 0x11
 5612 04fc 5F75 7200 	.string"_ur"
 5613 0500 09        	.byte0x9
 5614 0501 D0        	.byte0xd0
 5615 0502 0000 0134 	.long0x134
 5616 0506 3C        	.byte0x3c
 5617 0507 09        	.uleb128 0x9
 5618 0508 0000 0000 	.long.LASF86
 5619 050c 09        	.byte0x9
 5620 050d D3        	.byte0xd3
 5621 050e 0000 0713 	.long0x713
 5622 0512 40        	.byte0x40
 5623 0513 09        	.uleb128 0x9
 5624 0514 0000 0000 	.long.LASF87
 5625 0518 09        	.byte0x9
 5626 0519 D4        	.byte0xd4
 5627 051a 0000 0723 	.long0x723
 5628 051e 43        	.byte0x43
 5629 051f 11        	.uleb128 0x11
 5630 0520 5F6C 6200 	.string"_lb"
 5631 0524 09        	.byte0x9
 5632 0525 D7        	.byte0xd7
 5633 0526 0000 041F 	.long0x41f
 5634 052a 44        	.byte0x44
 5635 052b 09        	.uleb128 0x9
 5636 052c 0000 0000 	.long.LASF88
 5637 0530 09        	.byte0x9
 5638 0531 DA        	.byte0xda
 5639 0532 0000 0134 	.long0x134
 5640 0536 4C        	.byte0x4c
 5641 0537 09        	.uleb128 0x9
 5642 0538 0000 0000 	.long.LASF89
 5643 053c 09        	.byte0x9
 5644 053d DB        	.byte0xdb
 5645 053e 0000 011E 	.long0x11e
 5646 0542 50        	.byte0x50
 5647 0543 09        	.uleb128 0x9
 5648 0544 0000 0000 	.long.LASF90
 5649 0548 09        	.byte0x9
 5650 0549 DE        	.byte0xde
 5651 054a 0000 0592 	.long0x592
 5652 054e 58        	.byte0x58
 5653 054f 09        	.uleb128 0x9
 5654 0550 0000 0000 	.long.LASF91
68K GAS   			page 158


 5655 0554 09        	.byte0x9
 5656 0555 E2        	.byte0xe2
 5657 0556 0000 027C 	.long0x27c
 5658 055a 5C        	.byte0x5c
 5659 055b 09        	.uleb128 0x9
 5660 055c 0000 0000 	.long.LASF92
 5661 0560 09        	.byte0x9
 5662 0561 E4        	.byte0xe4
 5663 0562 0000 0271 	.long0x271
 5664 0566 74        	.byte0x74
 5665 0567 09        	.uleb128 0x9
 5666 0568 0000 0000 	.long.LASF93
 5667 056c 09        	.byte0x9
 5668 056d E5        	.byte0xe5
 5669 056e 0000 0134 	.long0x134
 5670 0572 7C        	.byte0x7c
 5671 0573 00        	.byte0
 5672 0574 15        	.uleb128 0x15
 5673 0575 0000 020A 	.long0x20a
 5674 0579 0000 0592 	.long0x592
 5675 057d 16        	.uleb128 0x16
 5676 057e 0000 0592 	.long0x592
 5677 0582 16        	.uleb128 0x16
 5678 0583 0000 010A 	.long0x10a
 5679 0587 16        	.uleb128 0x16
 5680 0588 0000 06A5 	.long0x6a5
 5681 058c 16        	.uleb128 0x16
 5682 058d 0000 0134 	.long0x134
 5683 0591 00        	.byte0
 5684 0592 0E        	.uleb128 0xe
 5685 0593 04        	.byte0x4
 5686 0594 0000 059D 	.long0x59d
 5687 0598 05        	.uleb128 0x5
 5688 0599 0000 0592 	.long0x592
 5689 059d 17        	.uleb128 0x17
 5690 059e 0000 0000 	.long.LASF94
 5691 05a2 0158      	.word0x158
 5692 05a4 09        	.byte0x9
 5693 05a5 0239      	.word0x239
 5694 05a7 0000 06A5 	.long0x6a5
 5695 05ab 18        	.uleb128 0x18
 5696 05ac 0000 0000 	.long.LASF95
 5697 05b0 09        	.byte0x9
 5698 05b1 023B      	.word0x23b
 5699 05b3 0000 0134 	.long0x134
 5700 05b7 00        	.byte0
 5701 05b8 18        	.uleb128 0x18
 5702 05b9 0000 0000 	.long.LASF96
 5703 05bd 09        	.byte0x9
 5704 05be 0240      	.word0x240
 5705 05c0 0000 077A 	.long0x77a
 5706 05c4 04        	.byte0x4
 5707 05c5 18        	.uleb128 0x18
 5708 05c6 0000 0000 	.long.LASF97
 5709 05ca 09        	.byte0x9
 5710 05cb 0240      	.word0x240
 5711 05cd 0000 077A 	.long0x77a
68K GAS   			page 159


 5712 05d1 08        	.byte0x8
 5713 05d2 18        	.uleb128 0x18
 5714 05d3 0000 0000 	.long.LASF98
 5715 05d7 09        	.byte0x9
 5716 05d8 0240      	.word0x240
 5717 05da 0000 077A 	.long0x77a
 5718 05de 0C        	.byte0xc
 5719 05df 18        	.uleb128 0x18
 5720 05e0 0000 0000 	.long.LASF99
 5721 05e4 09        	.byte0x9
 5722 05e5 0242      	.word0x242
 5723 05e7 0000 0134 	.long0x134
 5724 05eb 10        	.byte0x10
 5725 05ec 18        	.uleb128 0x18
 5726 05ed 0000 0000 	.long.LASF100
 5727 05f1 09        	.byte0x9
 5728 05f2 0243      	.word0x243
 5729 05f4 0000 095C 	.long0x95c
 5730 05f8 14        	.byte0x14
 5731 05f9 18        	.uleb128 0x18
 5732 05fa 0000 0000 	.long.LASF101
 5733 05fe 09        	.byte0x9
 5734 05ff 0246      	.word0x246
 5735 0601 0000 0134 	.long0x134
 5736 0605 30        	.byte0x30
 5737 0606 18        	.uleb128 0x18
 5738 0607 0000 0000 	.long.LASF102
 5739 060b 09        	.byte0x9
 5740 060c 0247      	.word0x247
 5741 060e 0000 0971 	.long0x971
 5742 0612 34        	.byte0x34
 5743 0613 18        	.uleb128 0x18
 5744 0614 0000 0000 	.long.LASF103
 5745 0618 09        	.byte0x9
 5746 0619 0249      	.word0x249
 5747 061b 0000 0134 	.long0x134
 5748 061f 38        	.byte0x38
 5749 0620 18        	.uleb128 0x18
 5750 0621 0000 0000 	.long.LASF104
 5751 0625 09        	.byte0x9
 5752 0626 024B      	.word0x24b
 5753 0628 0000 0982 	.long0x982
 5754 062c 3C        	.byte0x3c
 5755 062d 18        	.uleb128 0x18
 5756 062e 0000 0000 	.long.LASF105
 5757 0632 09        	.byte0x9
 5758 0633 024E      	.word0x24e
 5759 0635 0000 02E5 	.long0x2e5
 5760 0639 40        	.byte0x40
 5761 063a 18        	.uleb128 0x18
 5762 063b 0000 0000 	.long.LASF106
 5763 063f 09        	.byte0x9
 5764 0640 024F      	.word0x24f
 5765 0642 0000 0134 	.long0x134
 5766 0646 44        	.byte0x44
 5767 0647 18        	.uleb128 0x18
 5768 0648 0000 0000 	.long.LASF107
68K GAS   			page 160


 5769 064c 09        	.byte0x9
 5770 064d 0250      	.word0x250
 5771 064f 0000 02E5 	.long0x2e5
 5772 0653 48        	.byte0x48
 5773 0654 18        	.uleb128 0x18
 5774 0655 0000 0000 	.long.LASF108
 5775 0659 09        	.byte0x9
 5776 065a 0251      	.word0x251
 5777 065c 0000 0988 	.long0x988
 5778 0660 4C        	.byte0x4c
 5779 0661 18        	.uleb128 0x18
 5780 0662 0000 0000 	.long.LASF109
 5781 0666 09        	.byte0x9
 5782 0667 0254      	.word0x254
 5783 0669 0000 0134 	.long0x134
 5784 066d 50        	.byte0x50
 5785 066e 18        	.uleb128 0x18
 5786 066f 0000 0000 	.long.LASF110
 5787 0673 09        	.byte0x9
 5788 0674 0255      	.word0x255
 5789 0676 0000 06A5 	.long0x6a5
 5790 067a 54        	.byte0x54
 5791 067b 18        	.uleb128 0x18
 5792 067c 0000 0000 	.long.LASF111
 5793 0680 09        	.byte0x9
 5794 0681 0278      	.word0x278
 5795 0683 0000 093A 	.long0x93a
 5796 0687 58        	.byte0x58
 5797 0688 19        	.uleb128 0x19
 5798 0689 0000 0000 	.long.LASF112
 5799 068d 09        	.byte0x9
 5800 068e 0281      	.word0x281
 5801 0690 0000 0999 	.long0x999
 5802 0694 0148      	.word0x148
 5803 0696 19        	.uleb128 0x19
 5804 0697 0000 0000 	.long.LASF113
 5805 069b 09        	.byte0x9
 5806 069c 0286      	.word0x286
 5807 069e 0000 073F 	.long0x73f
 5808 06a2 014C      	.word0x14c
 5809 06a4 00        	.byte0
 5810 06a5 0E        	.uleb128 0xe
 5811 06a6 04        	.byte0x4
 5812 06a7 0000 00B6 	.long0xb6
 5813 06ab 0E        	.uleb128 0xe
 5814 06ac 04        	.byte0x4
 5815 06ad 0000 0574 	.long0x574
 5816 06b1 15        	.uleb128 0x15
 5817 06b2 0000 020A 	.long0x20a
 5818 06b6 0000 06CF 	.long0x6cf
 5819 06ba 16        	.uleb128 0x16
 5820 06bb 0000 0592 	.long0x592
 5821 06bf 16        	.uleb128 0x16
 5822 06c0 0000 010A 	.long0x10a
 5823 06c4 16        	.uleb128 0x16
 5824 06c5 0000 01BA 	.long0x1ba
 5825 06c9 16        	.uleb128 0x16
68K GAS   			page 161


 5826 06ca 0000 0134 	.long0x134
 5827 06ce 00        	.byte0
 5828 06cf 0E        	.uleb128 0xe
 5829 06d0 04        	.byte0x4
 5830 06d1 0000 06B1 	.long0x6b1
 5831 06d5 15        	.uleb128 0x15
 5832 06d6 0000 0129 	.long0x129
 5833 06da 0000 06F3 	.long0x6f3
 5834 06de 16        	.uleb128 0x16
 5835 06df 0000 0592 	.long0x592
 5836 06e3 16        	.uleb128 0x16
 5837 06e4 0000 010A 	.long0x10a
 5838 06e8 16        	.uleb128 0x16
 5839 06e9 0000 0129 	.long0x129
 5840 06ed 16        	.uleb128 0x16
 5841 06ee 0000 0134 	.long0x134
 5842 06f2 00        	.byte0
 5843 06f3 0E        	.uleb128 0xe
 5844 06f4 04        	.byte0x4
 5845 06f5 0000 06D5 	.long0x6d5
 5846 06f9 15        	.uleb128 0x15
 5847 06fa 0000 0134 	.long0x134
 5848 06fe 0000 070D 	.long0x70d
 5849 0702 16        	.uleb128 0x16
 5850 0703 0000 0592 	.long0x592
 5851 0707 16        	.uleb128 0x16
 5852 0708 0000 010A 	.long0x10a
 5853 070c 00        	.byte0
 5854 070d 0E        	.uleb128 0xe
 5855 070e 04        	.byte0x4
 5856 070f 0000 06F9 	.long0x6f9
 5857 0713 06        	.uleb128 0x6
 5858 0714 0000 0030 	.long0x30
 5859 0718 0000 0723 	.long0x723
 5860 071c 07        	.uleb128 0x7
 5861 071d 0000 0091 	.long0x91
 5862 0721 02        	.byte0x2
 5863 0722 00        	.byte0
 5864 0723 06        	.uleb128 0x6
 5865 0724 0000 0030 	.long0x30
 5866 0728 0000 0733 	.long0x733
 5867 072c 07        	.uleb128 0x7
 5868 072d 0000 0091 	.long0x91
 5869 0731 00        	.byte0
 5870 0732 00        	.byte0
 5871 0733 04        	.uleb128 0x4
 5872 0734 0000 0000 	.long.LASF114
 5873 0738 09        	.byte0x9
 5874 0739 011F      	.word0x11f
 5875 073b 0000 044A 	.long0x44a
 5876 073f 1A        	.uleb128 0x1a
 5877 0740 0000 0000 	.long.LASF115
 5878 0744 0C        	.byte0xc
 5879 0745 09        	.byte0x9
 5880 0746 0123      	.word0x123
 5881 0748 0000 0774 	.long0x774
 5882 074c 18        	.uleb128 0x18
68K GAS   			page 162


 5883 074d 0000 0000 	.long.LASF52
 5884 0751 09        	.byte0x9
 5885 0752 0125      	.word0x125
 5886 0754 0000 0774 	.long0x774
 5887 0758 00        	.byte0
 5888 0759 18        	.uleb128 0x18
 5889 075a 0000 0000 	.long.LASF116
 5890 075e 09        	.byte0x9
 5891 075f 0126      	.word0x126
 5892 0761 0000 0134 	.long0x134
 5893 0765 04        	.byte0x4
 5894 0766 18        	.uleb128 0x18
 5895 0767 0000 0000 	.long.LASF117
 5896 076b 09        	.byte0x9
 5897 076c 0127      	.word0x127
 5898 076e 0000 077A 	.long0x77a
 5899 0772 08        	.byte0x8
 5900 0773 00        	.byte0
 5901 0774 0E        	.uleb128 0xe
 5902 0775 04        	.byte0x4
 5903 0776 0000 073F 	.long0x73f
 5904 077a 0E        	.uleb128 0xe
 5905 077b 04        	.byte0x4
 5906 077c 0000 0733 	.long0x733
 5907 0780 1A        	.uleb128 0x1a
 5908 0781 0000 0000 	.long.LASF118
 5909 0785 0E        	.byte0xe
 5910 0786 09        	.byte0x9
 5911 0787 013F      	.word0x13f
 5912 0789 0000 07B5 	.long0x7b5
 5913 078d 18        	.uleb128 0x18
 5914 078e 0000 0000 	.long.LASF119
 5915 0792 09        	.byte0x9
 5916 0793 0140      	.word0x140
 5917 0795 0000 07B5 	.long0x7b5
 5918 0799 00        	.byte0
 5919 079a 18        	.uleb128 0x18
 5920 079b 0000 0000 	.long.LASF120
 5921 079f 09        	.byte0x9
 5922 07a0 0141      	.word0x141
 5923 07a2 0000 07B5 	.long0x7b5
 5924 07a6 06        	.byte0x6
 5925 07a7 18        	.uleb128 0x18
 5926 07a8 0000 0000 	.long.LASF121
 5927 07ac 09        	.byte0x9
 5928 07ad 0142      	.word0x142
 5929 07af 0000 007F 	.long0x7f
 5930 07b3 0C        	.byte0xc
 5931 07b4 00        	.byte0
 5932 07b5 06        	.uleb128 0x6
 5933 07b6 0000 007F 	.long0x7f
 5934 07ba 0000 07C5 	.long0x7c5
 5935 07be 07        	.uleb128 0x7
 5936 07bf 0000 0091 	.long0x91
 5937 07c3 02        	.byte0x2
 5938 07c4 00        	.byte0
 5939 07c5 1B        	.uleb128 0x1b
68K GAS   			page 163


 5940 07c6 CC        	.byte0xcc
 5941 07c7 09        	.byte0x9
 5942 07c8 0259      	.word0x259
 5943 07ca 0000 08C6 	.long0x8c6
 5944 07ce 18        	.uleb128 0x18
 5945 07cf 0000 0000 	.long.LASF122
 5946 07d3 09        	.byte0x9
 5947 07d4 025B      	.word0x25b
 5948 07d6 0000 0160 	.long0x160
 5949 07da 00        	.byte0
 5950 07db 18        	.uleb128 0x18
 5951 07dc 0000 0000 	.long.LASF123
 5952 07e0 09        	.byte0x9
 5953 07e1 025C      	.word0x25c
 5954 07e3 0000 06A5 	.long0x6a5
 5955 07e7 04        	.byte0x4
 5956 07e8 18        	.uleb128 0x18
 5957 07e9 0000 0000 	.long.LASF124
 5958 07ed 09        	.byte0x9
 5959 07ee 025D      	.word0x25d
 5960 07f0 0000 08C6 	.long0x8c6
 5961 07f4 08        	.byte0x8
 5962 07f5 18        	.uleb128 0x18
 5963 07f6 0000 0000 	.long.LASF125
 5964 07fa 09        	.byte0x9
 5965 07fb 025E      	.word0x25e
 5966 07fd 0000 02FB 	.long0x2fb
 5967 0801 24        	.byte0x24
 5968 0802 18        	.uleb128 0x18
 5969 0803 0000 0000 	.long.LASF126
 5970 0807 09        	.byte0x9
 5971 0808 025F      	.word0x25f
 5972 080a 0000 0134 	.long0x134
 5973 080e 48        	.byte0x48
 5974 080f 18        	.uleb128 0x18
 5975 0810 0000 0000 	.long.LASF127
 5976 0814 09        	.byte0x9
 5977 0815 0260      	.word0x260
 5978 0817 0000 0098 	.long0x98
 5979 081b 4C        	.byte0x4c
 5980 081c 18        	.uleb128 0x18
 5981 081d 0000 0000 	.long.LASF128
 5982 0821 09        	.byte0x9
 5983 0822 0261      	.word0x261
 5984 0824 0000 0780 	.long0x780
 5985 0828 54        	.byte0x54
 5986 0829 18        	.uleb128 0x18
 5987 082a 0000 0000 	.long.LASF129
 5988 082e 09        	.byte0x9
 5989 082f 0262      	.word0x262
 5990 0831 0000 0271 	.long0x271
 5991 0835 64        	.byte0x64
 5992 0836 18        	.uleb128 0x18
 5993 0837 0000 0000 	.long.LASF130
 5994 083b 09        	.byte0x9
 5995 083c 0263      	.word0x263
 5996 083e 0000 0271 	.long0x271
68K GAS   			page 164


 5997 0842 6C        	.byte0x6c
 5998 0843 18        	.uleb128 0x18
 5999 0844 0000 0000 	.long.LASF131
 6000 0848 09        	.byte0x9
 6001 0849 0264      	.word0x264
 6002 084b 0000 0271 	.long0x271
 6003 084f 74        	.byte0x74
 6004 0850 18        	.uleb128 0x18
 6005 0851 0000 0000 	.long.LASF132
 6006 0855 09        	.byte0x9
 6007 0856 0265      	.word0x265
 6008 0858 0000 08D6 	.long0x8d6
 6009 085c 7C        	.byte0x7c
 6010 085d 18        	.uleb128 0x18
 6011 085e 0000 0000 	.long.LASF133
 6012 0862 09        	.byte0x9
 6013 0863 0266      	.word0x266
 6014 0865 0000 08E6 	.long0x8e6
 6015 0869 84        	.byte0x84
 6016 086a 18        	.uleb128 0x18
 6017 086b 0000 0000 	.long.LASF134
 6018 086f 09        	.byte0x9
 6019 0870 0267      	.word0x267
 6020 0872 0000 0134 	.long0x134
 6021 0876 9C        	.byte0x9c
 6022 0877 18        	.uleb128 0x18
 6023 0878 0000 0000 	.long.LASF135
 6024 087c 09        	.byte0x9
 6025 087d 0268      	.word0x268
 6026 087f 0000 0271 	.long0x271
 6027 0883 A0        	.byte0xa0
 6028 0884 18        	.uleb128 0x18
 6029 0885 0000 0000 	.long.LASF136
 6030 0889 09        	.byte0x9
 6031 088a 0269      	.word0x269
 6032 088c 0000 0271 	.long0x271
 6033 0890 A8        	.byte0xa8
 6034 0891 18        	.uleb128 0x18
 6035 0892 0000 0000 	.long.LASF137
 6036 0896 09        	.byte0x9
 6037 0897 026A      	.word0x26a
 6038 0899 0000 0271 	.long0x271
 6039 089d B0        	.byte0xb0
 6040 089e 18        	.uleb128 0x18
 6041 089f 0000 0000 	.long.LASF138
 6042 08a3 09        	.byte0x9
 6043 08a4 026B      	.word0x26b
 6044 08a6 0000 0271 	.long0x271
 6045 08aa B8        	.byte0xb8
 6046 08ab 18        	.uleb128 0x18
 6047 08ac 0000 0000 	.long.LASF139
 6048 08b0 09        	.byte0x9
 6049 08b1 026C      	.word0x26c
 6050 08b3 0000 0271 	.long0x271
 6051 08b7 C0        	.byte0xc0
 6052 08b8 18        	.uleb128 0x18
 6053 08b9 0000 0000 	.long.LASF140
68K GAS   			page 165


 6054 08bd 09        	.byte0x9
 6055 08be 026D      	.word0x26d
 6056 08c0 0000 0134 	.long0x134
 6057 08c4 C8        	.byte0xc8
 6058 08c5 00        	.byte0
 6059 08c6 06        	.uleb128 0x6
 6060 08c7 0000 00B6 	.long0xb6
 6061 08cb 0000 08D6 	.long0x8d6
 6062 08cf 07        	.uleb128 0x7
 6063 08d0 0000 0091 	.long0x91
 6064 08d4 19        	.byte0x19
 6065 08d5 00        	.byte0
 6066 08d6 06        	.uleb128 0x6
 6067 08d7 0000 00B6 	.long0xb6
 6068 08db 0000 08E6 	.long0x8e6
 6069 08df 07        	.uleb128 0x7
 6070 08e0 0000 0091 	.long0x91
 6071 08e4 07        	.byte0x7
 6072 08e5 00        	.byte0
 6073 08e6 06        	.uleb128 0x6
 6074 08e7 0000 00B6 	.long0xb6
 6075 08eb 0000 08F6 	.long0x8f6
 6076 08ef 07        	.uleb128 0x7
 6077 08f0 0000 0091 	.long0x91
 6078 08f4 17        	.byte0x17
 6079 08f5 00        	.byte0
 6080 08f6 1B        	.uleb128 0x1b
 6081 08f7 F0        	.byte0xf0
 6082 08f8 09        	.byte0x9
 6083 08f9 0272      	.word0x272
 6084 08fb 0000 091A 	.long0x91a
 6085 08ff 18        	.uleb128 0x18
 6086 0900 0000 0000 	.long.LASF141
 6087 0904 09        	.byte0x9
 6088 0905 0275      	.word0x275
 6089 0907 0000 091A 	.long0x91a
 6090 090b 00        	.byte0
 6091 090c 18        	.uleb128 0x18
 6092 090d 0000 0000 	.long.LASF142
 6093 0911 09        	.byte0x9
 6094 0912 0276      	.word0x276
 6095 0914 0000 092A 	.long0x92a
 6096 0918 78        	.byte0x78
 6097 0919 00        	.byte0
 6098 091a 06        	.uleb128 0x6
 6099 091b 0000 0444 	.long0x444
 6100 091f 0000 092A 	.long0x92a
 6101 0923 07        	.uleb128 0x7
 6102 0924 0000 0091 	.long0x91
 6103 0928 1D        	.byte0x1d
 6104 0929 00        	.byte0
 6105 092a 06        	.uleb128 0x6
 6106 092b 0000 0160 	.long0x160
 6107 092f 0000 093A 	.long0x93a
 6108 0933 07        	.uleb128 0x7
 6109 0934 0000 0091 	.long0x91
 6110 0938 1D        	.byte0x1d
68K GAS   			page 166


 6111 0939 00        	.byte0
 6112 093a 1C        	.uleb128 0x1c
 6113 093b F0        	.byte0xf0
 6114 093c 09        	.byte0x9
 6115 093d 0257      	.word0x257
 6116 093f 0000 095C 	.long0x95c
 6117 0943 1D        	.uleb128 0x1d
 6118 0944 0000 0000 	.long.LASF94
 6119 0948 09        	.byte0x9
 6120 0949 026E      	.word0x26e
 6121 094b 0000 07C5 	.long0x7c5
 6122 094f 1D        	.uleb128 0x1d
 6123 0950 0000 0000 	.long.LASF143
 6124 0954 09        	.byte0x9
 6125 0955 0277      	.word0x277
 6126 0957 0000 08F6 	.long0x8f6
 6127 095b 00        	.byte0
 6128 095c 06        	.uleb128 0x6
 6129 095d 0000 00B6 	.long0xb6
 6130 0961 0000 096C 	.long0x96c
 6131 0965 07        	.uleb128 0x7
 6132 0966 0000 0091 	.long0x91
 6133 096a 18        	.byte0x18
 6134 096b 00        	.byte0
 6135 096c 0D        	.uleb128 0xd
 6136 096d 0000 0000 	.long.LASF144
 6137 0971 0E        	.uleb128 0xe
 6138 0972 04        	.byte0x4
 6139 0973 0000 096C 	.long0x96c
 6140 0977 1E        	.uleb128 0x1e
 6141 0978 0000 0982 	.long0x982
 6142 097c 16        	.uleb128 0x16
 6143 097d 0000 0592 	.long0x592
 6144 0981 00        	.byte0
 6145 0982 0E        	.uleb128 0xe
 6146 0983 04        	.byte0x4
 6147 0984 0000 0977 	.long0x977
 6148 0988 0E        	.uleb128 0xe
 6149 0989 04        	.byte0x4
 6150 098a 0000 02E5 	.long0x2e5
 6151 098e 1E        	.uleb128 0x1e
 6152 098f 0000 0999 	.long0x999
 6153 0993 16        	.uleb128 0x16
 6154 0994 0000 0134 	.long0x134
 6155 0998 00        	.byte0
 6156 0999 0E        	.uleb128 0xe
 6157 099a 04        	.byte0x4
 6158 099b 0000 099F 	.long0x99f
 6159 099f 0E        	.uleb128 0xe
 6160 09a0 04        	.byte0x4
 6161 09a1 0000 098E 	.long0x98e
 6162 09a5 06        	.uleb128 0x6
 6163 09a6 0000 0733 	.long0x733
 6164 09aa 0000 09B5 	.long0x9b5
 6165 09ae 07        	.uleb128 0x7
 6166 09af 0000 0091 	.long0x91
 6167 09b3 02        	.byte0x2
68K GAS   			page 167


 6168 09b4 00        	.byte0
 6169 09b5 1F        	.uleb128 0x1f
 6170 09b6 0000 0000 	.long.LASF145
 6171 09ba 09        	.byte0x9
 6172 09bb 028D      	.word0x28d
 6173 09bd 0000 09A5 	.long0x9a5
 6174 09c1 1F        	.uleb128 0x1f
 6175 09c2 0000 0000 	.long.LASF146
 6176 09c6 09        	.byte0x9
 6177 09c7 0307      	.word0x307
 6178 09c9 0000 0592 	.long0x592
 6179 09cd 1F        	.uleb128 0x1f
 6180 09ce 0000 0000 	.long.LASF147
 6181 09d2 09        	.byte0x9
 6182 09d3 0308      	.word0x308
 6183 09d5 0000 0598 	.long0x598
 6184 09d9 1F        	.uleb128 0x1f
 6185 09da 0000 0000 	.long.LASF148
 6186 09de 09        	.byte0x9
 6187 09df 031A      	.word0x31a
 6188 09e1 0000 0402 	.long0x402
 6189 09e5 20        	.uleb128 0x20
 6190 09e6 0000 0000 	.long.LASF149
 6191 09ea 0A        	.byte0xa
 6192 09eb 63        	.byte0x63
 6193 09ec 0000 06A5 	.long0x6a5
 6194 09f0 20        	.uleb128 0x20
 6195 09f1 0000 0000 	.long.LASF150
 6196 09f5 0B        	.byte0xb
 6197 09f6 9A        	.byte0x9a
 6198 09f7 0000 005B 	.long0x5b
 6199 09fb 20        	.uleb128 0x20
 6200 09fc 0000 0000 	.long.LASF151
 6201 0a00 0B        	.byte0xb
 6202 0a01 9B        	.byte0x9b
 6203 0a02 0000 0134 	.long0x134
 6204 0a06 06        	.uleb128 0x6
 6205 0a07 0000 06A5 	.long0x6a5
 6206 0a0b 0000 0A16 	.long0xa16
 6207 0a0f 07        	.uleb128 0x7
 6208 0a10 0000 0091 	.long0x91
 6209 0a14 01        	.byte0x1
 6210 0a15 00        	.byte0
 6211 0a16 20        	.uleb128 0x20
 6212 0a17 0000 0000 	.long.LASF152
 6213 0a1b 0B        	.byte0xb
 6214 0a1c 9E        	.byte0x9e
 6215 0a1d 0000 0A06 	.long0xa06
 6216 0a21 06        	.uleb128 0x6
 6217 0a22 0000 00B6 	.long0xb6
 6218 0a26 0000 0A31 	.long0xa31
 6219 0a2a 07        	.uleb128 0x7
 6220 0a2b 0000 0091 	.long0x91
 6221 0a2f 1F        	.byte0x1f
 6222 0a30 00        	.byte0
 6223 0a31 06        	.uleb128 0x6
 6224 0a32 0000 00B6 	.long0xb6
68K GAS   			page 168


 6225 0a36 0000 0A41 	.long0xa41
 6226 0a3a 07        	.uleb128 0x7
 6227 0a3b 0000 0091 	.long0x91
 6228 0a3f 3F        	.byte0x3f
 6229 0a40 00        	.byte0
 6230 0a41 04        	.uleb128 0x4
 6231 0a42 0000 0000 	.long.LASF153
 6232 0a46 0C        	.byte0xc
 6233 0a47 0103      	.word0x103
 6234 0a49 0000 009F 	.long0x9f
 6235 0a4d 1B        	.uleb128 0x1b
 6236 0a4e BC        	.byte0xbc
 6237 0a4f 0C        	.byte0xc
 6238 0a50 010C      	.word0x10c
 6239 0a52 0000 0B68 	.long0xb68
 6240 0a56 18        	.uleb128 0x18
 6241 0a57 0000 0000 	.long.LASF154
 6242 0a5b 0C        	.byte0xc
 6243 0a5c 010E      	.word0x10e
 6244 0a5e 0000 0086 	.long0x86
 6245 0a62 00        	.byte0
 6246 0a63 18        	.uleb128 0x18
 6247 0a64 0000 0000 	.long.LASF155
 6248 0a68 0C        	.byte0xc
 6249 0a69 0110      	.word0x110
 6250 0a6b 0000 0086 	.long0x86
 6251 0a6f 04        	.byte0x4
 6252 0a70 18        	.uleb128 0x18
 6253 0a71 0000 0000 	.long.LASF156
 6254 0a75 0C        	.byte0xc
 6255 0a76 0113      	.word0x113
 6256 0a78 0000 00C2 	.long0xc2
 6257 0a7c 08        	.byte0x8
 6258 0a7d 18        	.uleb128 0x18
 6259 0a7e 0000 0000 	.long.LASF157
 6260 0a82 0C        	.byte0xc
 6261 0a83 0115      	.word0x115
 6262 0a85 0000 00C2 	.long0xc2
 6263 0a89 1C        	.byte0x1c
 6264 0a8a 18        	.uleb128 0x18
 6265 0a8b 0000 0000 	.long.LASF158
 6266 0a8f 0C        	.byte0xc
 6267 0a90 0117      	.word0x117
 6268 0a92 0000 0A31 	.long0xa31
 6269 0a96 30        	.byte0x30
 6270 0a97 18        	.uleb128 0x18
 6271 0a98 0000 0000 	.long.LASF159
 6272 0a9c 0C        	.byte0xc
 6273 0a9d 011A      	.word0x11a
 6274 0a9f 0000 0086 	.long0x86
 6275 0aa3 70        	.byte0x70
 6276 0aa4 18        	.uleb128 0x18
 6277 0aa5 0000 0000 	.long.LASF160
 6278 0aa9 0C        	.byte0xc
 6279 0aaa 011C      	.word0x11c
 6280 0aac 0000 0086 	.long0x86
 6281 0ab0 74        	.byte0x74
68K GAS   			page 169


 6282 0ab1 18        	.uleb128 0x18
 6283 0ab2 0000 0000 	.long.LASF161
 6284 0ab6 0C        	.byte0xc
 6285 0ab7 011E      	.word0x11e
 6286 0ab9 0000 0086 	.long0x86
 6287 0abd 78        	.byte0x78
 6288 0abe 18        	.uleb128 0x18
 6289 0abf 0000 0000 	.long.LASF162
 6290 0ac3 0C        	.byte0xc
 6291 0ac4 0120      	.word0x120
 6292 0ac6 0000 0086 	.long0x86
 6293 0aca 7C        	.byte0x7c
 6294 0acb 18        	.uleb128 0x18
 6295 0acc 0000 0000 	.long.LASF163
 6296 0ad0 0C        	.byte0xc
 6297 0ad1 0122      	.word0x122
 6298 0ad3 0000 0086 	.long0x86
 6299 0ad7 80        	.byte0x80
 6300 0ad8 18        	.uleb128 0x18
 6301 0ad9 0000 0000 	.long.LASF164
 6302 0add 0C        	.byte0xc
 6303 0ade 0124      	.word0x124
 6304 0ae0 0000 0086 	.long0x86
 6305 0ae4 84        	.byte0x84
 6306 0ae5 18        	.uleb128 0x18
 6307 0ae6 0000 0000 	.long.LASF165
 6308 0aea 0C        	.byte0xc
 6309 0aeb 0126      	.word0x126
 6310 0aed 0000 0086 	.long0x86
 6311 0af1 88        	.byte0x88
 6312 0af2 18        	.uleb128 0x18
 6313 0af3 0000 0000 	.long.LASF166
 6314 0af7 0C        	.byte0xc
 6315 0af8 0128      	.word0x128
 6316 0afa 0000 0086 	.long0x86
 6317 0afe 8C        	.byte0x8c
 6318 0aff 18        	.uleb128 0x18
 6319 0b00 0000 0000 	.long.LASF167
 6320 0b04 0C        	.byte0xc
 6321 0b05 012A      	.word0x12a
 6322 0b07 0000 0086 	.long0x86
 6323 0b0b 90        	.byte0x90
 6324 0b0c 18        	.uleb128 0x18
 6325 0b0d 0000 0000 	.long.LASF168
 6326 0b11 0C        	.byte0xc
 6327 0b12 012C      	.word0x12c
 6328 0b14 0000 0086 	.long0x86
 6329 0b18 94        	.byte0x94
 6330 0b19 18        	.uleb128 0x18
 6331 0b1a 0000 0000 	.long.LASF169
 6332 0b1e 0C        	.byte0xc
 6333 0b1f 012E      	.word0x12e
 6334 0b21 0000 0074 	.long0x74
 6335 0b25 98        	.byte0x98
 6336 0b26 18        	.uleb128 0x18
 6337 0b27 0000 0000 	.long.LASF170
 6338 0b2b 0C        	.byte0xc
68K GAS   			page 170


 6339 0b2c 0131      	.word0x131
 6340 0b2e 0000 0074 	.long0x74
 6341 0b32 9A        	.byte0x9a
 6342 0b33 18        	.uleb128 0x18
 6343 0b34 0000 0000 	.long.LASF171
 6344 0b38 0C        	.byte0xc
 6345 0b39 0133      	.word0x133
 6346 0b3b 0000 0086 	.long0x86
 6347 0b3f 9C        	.byte0x9c
 6348 0b40 18        	.uleb128 0x18
 6349 0b41 0000 0000 	.long.LASF172
 6350 0b45 0C        	.byte0xc
 6351 0b46 0135      	.word0x135
 6352 0b48 0000 0086 	.long0x86
 6353 0b4c A0        	.byte0xa0
 6354 0b4d 18        	.uleb128 0x18
 6355 0b4e 0000 0000 	.long.LASF173
 6356 0b52 0C        	.byte0xc
 6357 0b53 0137      	.word0x137
 6358 0b55 0000 00C2 	.long0xc2
 6359 0b59 A4        	.byte0xa4
 6360 0b5a 18        	.uleb128 0x18
 6361 0b5b 0000 0000 	.long.LASF174
 6362 0b5f 0C        	.byte0xc
 6363 0b60 0139      	.word0x139
 6364 0b62 0000 0086 	.long0x86
 6365 0b66 B8        	.byte0xb8
 6366 0b67 00        	.byte0
 6367 0b68 04        	.uleb128 0x4
 6368 0b69 0000 0000 	.long.LASF175
 6369 0b6d 0C        	.byte0xc
 6370 0b6e 013C      	.word0x13c
 6371 0b70 0000 0A4D 	.long0xa4d
 6372 0b74 1B        	.uleb128 0x1b
 6373 0b75 34        	.byte0x34
 6374 0b76 0C        	.byte0xc
 6375 0b77 0141      	.word0x141
 6376 0b79 0000 0BBF 	.long0xbbf
 6377 0b7d 18        	.uleb128 0x18
 6378 0b7e 0000 0000 	.long.LASF176
 6379 0b82 0C        	.byte0xc
 6380 0b83 0143      	.word0x143
 6381 0b85 0000 0086 	.long0x86
 6382 0b89 00        	.byte0
 6383 0b8a 18        	.uleb128 0x18
 6384 0b8b 0000 0000 	.long.LASF172
 6385 0b8f 0C        	.byte0xc
 6386 0b90 0144      	.word0x144
 6387 0b92 0000 0086 	.long0x86
 6388 0b96 04        	.byte0x4
 6389 0b97 18        	.uleb128 0x18
 6390 0b98 0000 0000 	.long.LASF177
 6391 0b9c 0C        	.byte0xc
 6392 0b9d 0145      	.word0x145
 6393 0b9f 0000 0BBF 	.long0xbbf
 6394 0ba3 08        	.byte0x8
 6395 0ba4 18        	.uleb128 0x18
68K GAS   			page 171


 6396 0ba5 0000 0000 	.long.LASF154
 6397 0ba9 0C        	.byte0xc
 6398 0baa 0146      	.word0x146
 6399 0bac 0000 0086 	.long0x86
 6400 0bb0 1C        	.byte0x1c
 6401 0bb1 18        	.uleb128 0x18
 6402 0bb2 0000 0000 	.long.LASF178
 6403 0bb6 0C        	.byte0xc
 6404 0bb7 0147      	.word0x147
 6405 0bb9 0000 0BBF 	.long0xbbf
 6406 0bbd 20        	.byte0x20
 6407 0bbe 00        	.byte0
 6408 0bbf 06        	.uleb128 0x6
 6409 0bc0 0000 0069 	.long0x69
 6410 0bc4 0000 0BCF 	.long0xbcf
 6411 0bc8 07        	.uleb128 0x7
 6412 0bc9 0000 0091 	.long0x91
 6413 0bcd 13        	.byte0x13
 6414 0bce 00        	.byte0
 6415 0bcf 04        	.uleb128 0x4
 6416 0bd0 0000 0000 	.long.LASF179
 6417 0bd4 0C        	.byte0xc
 6418 0bd5 0149      	.word0x149
 6419 0bd7 0000 0B74 	.long0xb74
 6420 0bdb 1B        	.uleb128 0x1b
 6421 0bdc 0C        	.byte0xc
 6422 0bdd 0C        	.byte0xc
 6423 0bde 014E      	.word0x14e
 6424 0be0 0000 0C0C 	.long0xc0c
 6425 0be4 18        	.uleb128 0x18
 6426 0be5 0000 0000 	.long.LASF180
 6427 0be9 0C        	.byte0xc
 6428 0bea 0150      	.word0x150
 6429 0bec 0000 0086 	.long0x86
 6430 0bf0 00        	.byte0
 6431 0bf1 18        	.uleb128 0x18
 6432 0bf2 0000 0000 	.long.LASF181
 6433 0bf6 0C        	.byte0xc
 6434 0bf7 0151      	.word0x151
 6435 0bf9 0000 0086 	.long0x86
 6436 0bfd 04        	.byte0x4
 6437 0bfe 18        	.uleb128 0x18
 6438 0bff 0000 0000 	.long.LASF182
 6439 0c03 0C        	.byte0xc
 6440 0c04 0152      	.word0x152
 6441 0c06 0000 0086 	.long0x86
 6442 0c0a 08        	.byte0x8
 6443 0c0b 00        	.byte0
 6444 0c0c 04        	.uleb128 0x4
 6445 0c0d 0000 0000 	.long.LASF183
 6446 0c11 0C        	.byte0xc
 6447 0c12 0153      	.word0x153
 6448 0c14 0000 0BDB 	.long0xbdb
 6449 0c18 1B        	.uleb128 0x1b
 6450 0c19 DC        	.byte0xdc
 6451 0c1a 0C        	.byte0xc
 6452 0c1b 0155      	.word0x155
68K GAS   			page 172


 6453 0c1d 0000 0C63 	.long0xc63
 6454 0c21 18        	.uleb128 0x18
 6455 0c22 0000 0000 	.long.LASF184
 6456 0c26 0C        	.byte0xc
 6457 0c27 0157      	.word0x157
 6458 0c29 0000 0086 	.long0x86
 6459 0c2d 00        	.byte0
 6460 0c2e 18        	.uleb128 0x18
 6461 0c2f 0000 0000 	.long.LASF185
 6462 0c33 0C        	.byte0xc
 6463 0c34 0159      	.word0x159
 6464 0c36 0000 0086 	.long0x86
 6465 0c3a 04        	.byte0x4
 6466 0c3b 18        	.uleb128 0x18
 6467 0c3c 0000 0000 	.long.LASF186
 6468 0c40 0C        	.byte0xc
 6469 0c41 015B      	.word0x15b
 6470 0c43 0000 0086 	.long0x86
 6471 0c47 08        	.byte0x8
 6472 0c48 18        	.uleb128 0x18
 6473 0c49 0000 0000 	.long.LASF187
 6474 0c4d 0C        	.byte0xc
 6475 0c4e 015D      	.word0x15d
 6476 0c50 0000 0086 	.long0x86
 6477 0c54 0C        	.byte0xc
 6478 0c55 18        	.uleb128 0x18
 6479 0c56 0000 0000 	.long.LASF188
 6480 0c5a 0C        	.byte0xc
 6481 0c5b 015F      	.word0x15f
 6482 0c5d 0000 0C63 	.long0xc63
 6483 0c61 10        	.byte0x10
 6484 0c62 00        	.byte0
 6485 0c63 06        	.uleb128 0x6
 6486 0c64 0000 0C0C 	.long0xc0c
 6487 0c68 0000 0C73 	.long0xc73
 6488 0c6c 07        	.uleb128 0x7
 6489 0c6d 0000 0091 	.long0x91
 6490 0c71 10        	.byte0x10
 6491 0c72 00        	.byte0
 6492 0c73 04        	.uleb128 0x4
 6493 0c74 0000 0000 	.long.LASF189
 6494 0c78 0C        	.byte0xc
 6495 0c79 0161      	.word0x161
 6496 0c7b 0000 0C18 	.long0xc18
 6497 0c7f 04        	.uleb128 0x4
 6498 0c80 0000 0000 	.long.LASF190
 6499 0c84 0C        	.byte0xc
 6500 0c85 0166      	.word0x166
 6501 0c87 0000 009F 	.long0x9f
 6502 0c8b 1B        	.uleb128 0x1b
 6503 0c8c 30        	.byte0x30
 6504 0c8d 0C        	.byte0xc
 6505 0c8e 0168      	.word0x168
 6506 0c90 0000 0CD6 	.long0xcd6
 6507 0c94 18        	.uleb128 0x18
 6508 0c95 0000 0000 	.long.LASF191
 6509 0c99 0C        	.byte0xc
68K GAS   			page 173


 6510 0c9a 016A      	.word0x16a
 6511 0c9c 0000 0C7F 	.long0xc7f
 6512 0ca0 00        	.byte0
 6513 0ca1 18        	.uleb128 0x18
 6514 0ca2 0000 0000 	.long.LASF192
 6515 0ca6 0C        	.byte0xc
 6516 0ca7 016B      	.word0x16b
 6517 0ca9 0000 0086 	.long0x86
 6518 0cad 04        	.byte0x4
 6519 0cae 18        	.uleb128 0x18
 6520 0caf 0000 0000 	.long.LASF193
 6521 0cb3 0C        	.byte0xc
 6522 0cb4 016C      	.word0x16c
 6523 0cb6 0000 00AA 	.long0xaa
 6524 0cba 08        	.byte0x8
 6525 0cbb 18        	.uleb128 0x18
 6526 0cbc 0000 0000 	.long.LASF156
 6527 0cc0 0C        	.byte0xc
 6528 0cc1 016D      	.word0x16d
 6529 0cc3 0000 0CD6 	.long0xcd6
 6530 0cc7 09        	.byte0x9
 6531 0cc8 18        	.uleb128 0x18
 6532 0cc9 0000 0000 	.long.LASF194
 6533 0ccd 0C        	.byte0xc
 6534 0cce 016E      	.word0x16e
 6535 0cd0 0000 0069 	.long0x69
 6536 0cd4 2F        	.byte0x2f
 6537 0cd5 00        	.byte0
 6538 0cd6 06        	.uleb128 0x6
 6539 0cd7 0000 00B6 	.long0xb6
 6540 0cdb 0000 0CE6 	.long0xce6
 6541 0cdf 07        	.uleb128 0x7
 6542 0ce0 0000 0091 	.long0x91
 6543 0ce4 25        	.byte0x25
 6544 0ce5 00        	.byte0
 6545 0ce6 04        	.uleb128 0x4
 6546 0ce7 0000 0000 	.long.LASF195
 6547 0ceb 0C        	.byte0xc
 6548 0cec 016F      	.word0x16f
 6549 0cee 0000 0C8B 	.long0xc8b
 6550 0cf2 08        	.uleb128 0x8
 6551 0cf3 08        	.byte0x8
 6552 0cf4 0D        	.byte0xd
 6553 0cf5 4D        	.byte0x4d
 6554 0cf6 0000 0D13 	.long0xd13
 6555 0cfa 09        	.uleb128 0x9
 6556 0cfb 0000 0000 	.long.LASF196
 6557 0cff 0D        	.byte0xd
 6558 0d00 4F        	.byte0x4f
 6559 0d01 0000 0086 	.long0x86
 6560 0d05 00        	.byte0
 6561 0d06 09        	.uleb128 0x9
 6562 0d07 0000 0000 	.long.LASF197
 6563 0d0b 0D        	.byte0xd
 6564 0d0c 50        	.byte0x50
 6565 0d0d 0000 0086 	.long0x86
 6566 0d11 04        	.byte0x4
68K GAS   			page 174


 6567 0d12 00        	.byte0
 6568 0d13 02        	.uleb128 0x2
 6569 0d14 0000 0000 	.long.LASF198
 6570 0d18 0D        	.byte0xd
 6571 0d19 51        	.byte0x51
 6572 0d1a 0000 0CF2 	.long0xcf2
 6573 0d1e 08        	.uleb128 0x8
 6574 0d1f 20        	.byte0x20
 6575 0d20 0D        	.byte0xd
 6576 0d21 92        	.byte0x92
 6577 0d22 0000 0D6F 	.long0xd6f
 6578 0d26 09        	.uleb128 0x9
 6579 0d27 0000 0000 	.long.LASF199
 6580 0d2b 0D        	.byte0xd
 6581 0d2c 94        	.byte0x94
 6582 0d2d 0000 0086 	.long0x86
 6583 0d31 00        	.byte0
 6584 0d32 09        	.uleb128 0x9
 6585 0d33 0000 0000 	.long.LASF200
 6586 0d37 0D        	.byte0xd
 6587 0d38 95        	.byte0x95
 6588 0d39 0000 003E 	.long0x3e
 6589 0d3d 04        	.byte0x4
 6590 0d3e 09        	.uleb128 0x9
 6591 0d3f 0000 0000 	.long.LASF201
 6592 0d43 0D        	.byte0xd
 6593 0d44 96        	.byte0x96
 6594 0d45 0000 0074 	.long0x74
 6595 0d49 06        	.byte0x6
 6596 0d4a 09        	.uleb128 0x9
 6597 0d4b 0000 0000 	.long.LASF202
 6598 0d4f 0D        	.byte0xd
 6599 0d50 97        	.byte0x97
 6600 0d51 0000 0D13 	.long0xd13
 6601 0d55 08        	.byte0x8
 6602 0d56 09        	.uleb128 0x9
 6603 0d57 0000 0000 	.long.LASF203
 6604 0d5b 0D        	.byte0xd
 6605 0d5c 98        	.byte0x98
 6606 0d5d 0000 0D13 	.long0xd13
 6607 0d61 10        	.byte0x10
 6608 0d62 09        	.uleb128 0x9
 6609 0d63 0000 0000 	.long.LASF204
 6610 0d67 0D        	.byte0xd
 6611 0d68 99        	.byte0x99
 6612 0d69 0000 0D13 	.long0xd13
 6613 0d6d 18        	.byte0x18
 6614 0d6e 00        	.byte0
 6615 0d6f 02        	.uleb128 0x2
 6616 0d70 0000 0000 	.long.LASF205
 6617 0d74 0D        	.byte0xd
 6618 0d75 9B        	.byte0x9b
 6619 0d76 0000 0D1E 	.long0xd1e
 6620 0d7a 06        	.uleb128 0x6
 6621 0d7b 0000 0086 	.long0x86
 6622 0d7f 0000 0D8A 	.long0xd8a
 6623 0d83 07        	.uleb128 0x7
68K GAS   			page 175


 6624 0d84 0000 0091 	.long0x91
 6625 0d88 1F        	.byte0x1f
 6626 0d89 00        	.byte0
 6627 0d8a 08        	.uleb128 0x8
 6628 0d8b 06        	.byte0x6
 6629 0d8c 0E        	.byte0xe
 6630 0d8d 58        	.byte0x58
 6631 0d8e 0000 0DB7 	.long0xdb7
 6632 0d92 09        	.uleb128 0x9
 6633 0d93 0000 0000 	.long.LASF206
 6634 0d97 0E        	.byte0xe
 6635 0d98 5A        	.byte0x5a
 6636 0d99 0000 0DB7 	.long0xdb7
 6637 0d9d 00        	.byte0
 6638 0d9e 09        	.uleb128 0x9
 6639 0d9f 0000 0000 	.long.LASF207
 6640 0da3 0E        	.byte0xe
 6641 0da4 61        	.byte0x61
 6642 0da5 0000 0DB7 	.long0xdb7
 6643 0da9 02        	.byte0x2
 6644 0daa 09        	.uleb128 0x9
 6645 0dab 0000 0000 	.long.LASF208
 6646 0daf 0E        	.byte0xe
 6647 0db0 66        	.byte0x66
 6648 0db1 0000 0DB7 	.long0xdb7
 6649 0db5 04        	.byte0x4
 6650 0db6 00        	.byte0
 6651 0db7 06        	.uleb128 0x6
 6652 0db8 0000 0069 	.long0x69
 6653 0dbc 0000 0DC7 	.long0xdc7
 6654 0dc0 07        	.uleb128 0x7
 6655 0dc1 0000 0091 	.long0x91
 6656 0dc5 01        	.byte0x1
 6657 0dc6 00        	.byte0
 6658 0dc7 02        	.uleb128 0x2
 6659 0dc8 0000 0000 	.long.LASF209
 6660 0dcc 0E        	.byte0xe
 6661 0dcd 6A        	.byte0x6a
 6662 0dce 0000 0D8A 	.long0xd8a
 6663 0dd2 06        	.uleb128 0x6
 6664 0dd3 0000 0069 	.long0x69
 6665 0dd7 0000 0DE2 	.long0xde2
 6666 0ddb 07        	.uleb128 0x7
 6667 0ddc 0000 0091 	.long0x91
 6668 0de0 05        	.byte0x5
 6669 0de1 00        	.byte0
 6670 0de2 0F        	.uleb128 0xf
 6671 0de3 08        	.byte0x8
 6672 0de4 0F        	.byte0xf
 6673 0de5 75        	.byte0x75
 6674 0de6 0000 0E0C 	.long0xe0c
 6675 0dea 21        	.uleb128 0x21
 6676 0deb 4864 7200 	.string"Hdr"
 6677 0def 0F        	.byte0xf
 6678 0df0 76        	.byte0x76
 6679 0df1 0000 0DC7 	.long0xdc7
 6680 0df5 10        	.uleb128 0x10
68K GAS   			page 176


 6681 0df6 0000 0000 	.long.LASF210
 6682 0dfa 0F        	.byte0xf
 6683 0dfb 77        	.byte0x77
 6684 0dfc 0000 0086 	.long0x86
 6685 0e00 10        	.uleb128 0x10
 6686 0e01 0000 0000 	.long.LASF211
 6687 0e05 0F        	.byte0xf
 6688 0e06 78        	.byte0x78
 6689 0e07 0000 0DD2 	.long0xdd2
 6690 0e0b 00        	.byte0
 6691 0e0c 02        	.uleb128 0x2
 6692 0e0d 0000 0000 	.long.LASF212
 6693 0e11 0F        	.byte0xf
 6694 0e12 79        	.byte0x79
 6695 0e13 0000 0DE2 	.long0xde2
 6696 0e17 05        	.uleb128 0x5
 6697 0e18 0000 0E0C 	.long0xe0c
 6698 0e1c 02        	.uleb128 0x2
 6699 0e1d 0000 0000 	.long.LASF213
 6700 0e21 0F        	.byte0xf
 6701 0e22 98        	.byte0x98
 6702 0e23 0000 0069 	.long0x69
 6703 0e27 02        	.uleb128 0x2
 6704 0e28 0000 0000 	.long.LASF214
 6705 0e2c 0F        	.byte0xf
 6706 0e2d 9E        	.byte0x9e
 6707 0e2e 0000 0074 	.long0x74
 6708 0e32 02        	.uleb128 0x2
 6709 0e33 0000 0000 	.long.LASF215
 6710 0e37 0F        	.byte0xf
 6711 0e38 A1        	.byte0xa1
 6712 0e39 0000 0E3D 	.long0xe3d
 6713 0e3d 0E        	.uleb128 0xe
 6714 0e3e 04        	.byte0x4
 6715 0e3f 0000 0E0C 	.long0xe0c
 6716 0e43 08        	.uleb128 0x8
 6717 0e44 02        	.byte0x2
 6718 0e45 0F        	.byte0xf
 6719 0e46 B1        	.byte0xb1
 6720 0e47 0000 0E64 	.long0xe64
 6721 0e4b 09        	.uleb128 0x9
 6722 0e4c 0000 0000 	.long.LASF170
 6723 0e50 0F        	.byte0xf
 6724 0e51 B2        	.byte0xb2
 6725 0e52 0000 0069 	.long0x69
 6726 0e56 00        	.byte0
 6727 0e57 09        	.uleb128 0x9
 6728 0e58 0000 0000 	.long.LASF216
 6729 0e5c 0F        	.byte0xf
 6730 0e5d B3        	.byte0xb3
 6731 0e5e 0000 0069 	.long0x69
 6732 0e62 01        	.byte0x1
 6733 0e63 00        	.byte0
 6734 0e64 02        	.uleb128 0x2
 6735 0e65 0000 0000 	.long.LASF217
 6736 0e69 0F        	.byte0xf
 6737 0e6a B4        	.byte0xb4
68K GAS   			page 177


 6738 0e6b 0000 0E43 	.long0xe43
 6739 0e6f 20        	.uleb128 0x20
 6740 0e70 0000 0000 	.long.LASF218
 6741 0e74 0F        	.byte0xf
 6742 0e75 B6        	.byte0xb6
 6743 0e76 0000 0E64 	.long0xe64
 6744 0e7a 06        	.uleb128 0x6
 6745 0e7b 0000 0069 	.long0x69
 6746 0e7f 0000 0E8A 	.long0xe8a
 6747 0e83 07        	.uleb128 0x7
 6748 0e84 0000 0091 	.long0x91
 6749 0e88 0B        	.byte0xb
 6750 0e89 00        	.byte0
 6751 0e8a 1B        	.uleb128 0x1b
 6752 0e8b 20        	.byte0x20
 6753 0e8c 10        	.byte0x10
 6754 0e8d 047C      	.word0x47c
 6755 0e8f 0000 0ED5 	.long0xed5
 6756 0e93 18        	.uleb128 0x18
 6757 0e94 0000 0000 	.long.LASF178
 6758 0e98 10        	.byte0x10
 6759 0e99 047D      	.word0x47d
 6760 0e9b 0000 00C2 	.long0xc2
 6761 0e9f 00        	.byte0
 6762 0ea0 18        	.uleb128 0x18
 6763 0ea1 0000 0000 	.long.LASF219
 6764 0ea5 10        	.byte0x10
 6765 0ea6 047F      	.word0x47f
 6766 0ea8 0000 0074 	.long0x74
 6767 0eac 14        	.byte0x14
 6768 0ead 18        	.uleb128 0x18
 6769 0eae 0000 0000 	.long.LASF220
 6770 0eb2 10        	.byte0x10
 6771 0eb3 0481      	.word0x481
 6772 0eb5 0000 0074 	.long0x74
 6773 0eb9 16        	.byte0x16
 6774 0eba 18        	.uleb128 0x18
 6775 0ebb 0000 0000 	.long.LASF221
 6776 0ebf 10        	.byte0x10
 6777 0ec0 0483      	.word0x483
 6778 0ec2 0000 0086 	.long0x86
 6779 0ec6 18        	.byte0x18
 6780 0ec7 18        	.uleb128 0x18
 6781 0ec8 0000 0000 	.long.LASF222
 6782 0ecc 10        	.byte0x10
 6783 0ecd 0485      	.word0x485
 6784 0ecf 0000 0086 	.long0x86
 6785 0ed3 1C        	.byte0x1c
 6786 0ed4 00        	.byte0
 6787 0ed5 04        	.uleb128 0x4
 6788 0ed6 0000 0000 	.long.LASF223
 6789 0eda 10        	.byte0x10
 6790 0edb 0488      	.word0x488
 6791 0edd 0000 0E8A 	.long0xe8a
 6792 0ee1 1B        	.uleb128 0x1b
 6793 0ee2 9C        	.byte0x9c
 6794 0ee3 10        	.byte0x10
68K GAS   			page 178


 6795 0ee4 048E      	.word0x48e
 6796 0ee6 0000 0F1F 	.long0xf1f
 6797 0eea 18        	.uleb128 0x18
 6798 0eeb 0000 0000 	.long.LASF224
 6799 0eef 10        	.byte0x10
 6800 0ef0 048F      	.word0x48f
 6801 0ef2 0000 0ED5 	.long0xed5
 6802 0ef6 00        	.byte0
 6803 0ef7 18        	.uleb128 0x18
 6804 0ef8 0000 0000 	.long.LASF225
 6805 0efc 10        	.byte0x10
 6806 0efd 0490      	.word0x490
 6807 0eff 0000 0F1F 	.long0xf1f
 6808 0f03 20        	.byte0x20
 6809 0f04 18        	.uleb128 0x18
 6810 0f05 0000 0000 	.long.LASF226
 6811 0f09 10        	.byte0x10
 6812 0f0a 0492      	.word0x492
 6813 0f0c 0000 0069 	.long0x69
 6814 0f10 9A        	.byte0x9a
 6815 0f11 18        	.uleb128 0x18
 6816 0f12 0000 0000 	.long.LASF227
 6817 0f16 10        	.byte0x10
 6818 0f17 0494      	.word0x494
 6819 0f19 0000 0069 	.long0x69
 6820 0f1d 9B        	.byte0x9b
 6821 0f1e 00        	.byte0
 6822 0f1f 06        	.uleb128 0x6
 6823 0f20 0000 00B6 	.long0xb6
 6824 0f24 0000 0F2F 	.long0xf2f
 6825 0f28 07        	.uleb128 0x7
 6826 0f29 0000 0091 	.long0x91
 6827 0f2d 79        	.byte0x79
 6828 0f2e 00        	.byte0
 6829 0f2f 04        	.uleb128 0x4
 6830 0f30 0000 0000 	.long.LASF228
 6831 0f34 10        	.byte0x10
 6832 0f35 0496      	.word0x496
 6833 0f37 0000 0EE1 	.long0xee1
 6834 0f3b 1B        	.uleb128 0x1b
 6835 0f3c A8        	.byte0xa8
 6836 0f3d 10        	.byte0x10
 6837 0f3e 0498      	.word0x498
 6838 0f40 0000 0F5F 	.long0xf5f
 6839 0f44 18        	.uleb128 0x18
 6840 0f45 0000 0000 	.long.LASF229
 6841 0f49 10        	.byte0x10
 6842 0f4a 0499      	.word0x499
 6843 0f4c 0000 0E7A 	.long0xe7a
 6844 0f50 00        	.byte0
 6845 0f51 18        	.uleb128 0x18
 6846 0f52 0000 0000 	.long.LASF230
 6847 0f56 10        	.byte0x10
 6848 0f57 049A      	.word0x49a
 6849 0f59 0000 0F2F 	.long0xf2f
 6850 0f5d 0C        	.byte0xc
 6851 0f5e 00        	.byte0
68K GAS   			page 179


 6852 0f5f 04        	.uleb128 0x4
 6853 0f60 0000 0000 	.long.LASF231
 6854 0f64 10        	.byte0x10
 6855 0f65 049B      	.word0x49b
 6856 0f67 0000 0F3B 	.long0xf3b
 6857 0f6b 08        	.uleb128 0x8
 6858 0f6c 40        	.byte0x40
 6859 0f6d 11        	.byte0x11
 6860 0f6e 8B        	.byte0x8b
 6861 0f6f 0000 0FE0 	.long0xfe0
 6862 0f73 09        	.uleb128 0x9
 6863 0f74 0000 0000 	.long.LASF232
 6864 0f78 11        	.byte0x11
 6865 0f79 8D        	.byte0x8d
 6866 0f7a 0000 0086 	.long0x86
 6867 0f7e 00        	.byte0
 6868 0f7f 09        	.uleb128 0x9
 6869 0f80 0000 0000 	.long.LASF233
 6870 0f84 11        	.byte0x11
 6871 0f85 8E        	.byte0x8e
 6872 0f86 0000 0086 	.long0x86
 6873 0f8a 04        	.byte0x4
 6874 0f8b 09        	.uleb128 0x9
 6875 0f8c 0000 0000 	.long.LASF208
 6876 0f90 11        	.byte0x11
 6877 0f91 91        	.byte0x91
 6878 0f92 0000 0086 	.long0x86
 6879 0f96 08        	.byte0x8
 6880 0f97 09        	.uleb128 0x9
 6881 0f98 0000 0000 	.long.LASF221
 6882 0f9c 11        	.byte0x11
 6883 0f9d 92        	.byte0x92
 6884 0f9e 0000 0086 	.long0x86
 6885 0fa2 0C        	.byte0xc
 6886 0fa3 09        	.uleb128 0x9
 6887 0fa4 0000 0000 	.long.LASF222
 6888 0fa8 11        	.byte0x11
 6889 0fa9 93        	.byte0x93
 6890 0faa 0000 0086 	.long0x86
 6891 0fae 10        	.byte0x10
 6892 0faf 09        	.uleb128 0x9
 6893 0fb0 0000 0000 	.long.LASF234
 6894 0fb4 11        	.byte0x11
 6895 0fb5 94        	.byte0x94
 6896 0fb6 0000 0086 	.long0x86
 6897 0fba 14        	.byte0x14
 6898 0fbb 09        	.uleb128 0x9
 6899 0fbc 0000 0000 	.long.LASF235
 6900 0fc0 11        	.byte0x11
 6901 0fc1 96        	.byte0x96
 6902 0fc2 0000 0086 	.long0x86
 6903 0fc6 18        	.byte0x18
 6904 0fc7 09        	.uleb128 0x9
 6905 0fc8 0000 0000 	.long.LASF236
 6906 0fcc 11        	.byte0x11
 6907 0fcd 97        	.byte0x97
 6908 0fce 0000 0086 	.long0x86
68K GAS   			page 180


 6909 0fd2 1C        	.byte0x1c
 6910 0fd3 09        	.uleb128 0x9
 6911 0fd4 0000 0000 	.long.LASF237
 6912 0fd8 11        	.byte0x11
 6913 0fd9 99        	.byte0x99
 6914 0fda 0000 0A21 	.long0xa21
 6915 0fde 20        	.byte0x20
 6916 0fdf 00        	.byte0
 6917 0fe0 02        	.uleb128 0x2
 6918 0fe1 0000 0000 	.long.LASF238
 6919 0fe5 11        	.byte0x11
 6920 0fe6 9B        	.byte0x9b
 6921 0fe7 0000 0F6B 	.long0xf6b
 6922 0feb 08        	.uleb128 0x8
 6923 0fec 10        	.byte0x10
 6924 0fed 12        	.byte0x12
 6925 0fee 1E        	.byte0x1e
 6926 0fef 0000 1024 	.long0x1024
 6927 0ff3 09        	.uleb128 0x9
 6928 0ff4 0000 0000 	.long.LASF239
 6929 0ff8 12        	.byte0x12
 6930 0ff9 20        	.byte0x20
 6931 0ffa 0000 0086 	.long0x86
 6932 0ffe 00        	.byte0
 6933 0fff 09        	.uleb128 0x9
 6934 1000 0000 0000 	.long.LASF240
 6935 1004 12        	.byte0x12
 6936 1005 21        	.byte0x21
 6937 1006 0000 0086 	.long0x86
 6938 100a 04        	.byte0x4
 6939 100b 09        	.uleb128 0x9
 6940 100c 0000 0000 	.long.LASF241
 6941 1010 12        	.byte0x12
 6942 1011 22        	.byte0x22
 6943 1012 0000 0086 	.long0x86
 6944 1016 08        	.byte0x8
 6945 1017 09        	.uleb128 0x9
 6946 1018 0000 0000 	.long.LASF242
 6947 101c 12        	.byte0x12
 6948 101d 23        	.byte0x23
 6949 101e 0000 0086 	.long0x86
 6950 1022 0C        	.byte0xc
 6951 1023 00        	.byte0
 6952 1024 02        	.uleb128 0x2
 6953 1025 0000 0000 	.long.LASF243
 6954 1029 12        	.byte0x12
 6955 102a 25        	.byte0x25
 6956 102b 0000 0FEB 	.long0xfeb
 6957 102f 22        	.uleb128 0x22
 6958 1030 0108      	.word0x108
 6959 1032 12        	.byte0x12
 6960 1033 2A        	.byte0x2a
 6961 1034 0000 10C9 	.long0x10c9
 6962 1038 09        	.uleb128 0x9
 6963 1039 0000 0000 	.long.LASF244
 6964 103d 12        	.byte0x12
 6965 103e 2C        	.byte0x2c
68K GAS   			page 181


 6966 103f 0000 0086 	.long0x86
 6967 1043 00        	.byte0
 6968 1044 09        	.uleb128 0x9
 6969 1045 0000 0000 	.long.LASF245
 6970 1049 12        	.byte0x12
 6971 104a 2D        	.byte0x2d
 6972 104b 0000 0086 	.long0x86
 6973 104f 04        	.byte0x4
 6974 1050 09        	.uleb128 0x9
 6975 1051 0000 0000 	.long.LASF246
 6976 1055 12        	.byte0x12
 6977 1056 2E        	.byte0x2e
 6978 1057 0000 0086 	.long0x86
 6979 105b 08        	.byte0x8
 6980 105c 09        	.uleb128 0x9
 6981 105d 0000 0000 	.long.LASF247
 6982 1061 12        	.byte0x12
 6983 1062 2F        	.byte0x2f
 6984 1063 0000 0086 	.long0x86
 6985 1067 0C        	.byte0xc
 6986 1068 09        	.uleb128 0x9
 6987 1069 0000 0000 	.long.LASF248
 6988 106d 12        	.byte0x12
 6989 106e 30        	.byte0x30
 6990 106f 0000 0086 	.long0x86
 6991 1073 10        	.byte0x10
 6992 1074 09        	.uleb128 0x9
 6993 1075 0000 0000 	.long.LASF249
 6994 1079 12        	.byte0x12
 6995 107a 31        	.byte0x31
 6996 107b 0000 0086 	.long0x86
 6997 107f 14        	.byte0x14
 6998 1080 09        	.uleb128 0x9
 6999 1081 0000 0000 	.long.LASF250
 7000 1085 12        	.byte0x12
 7001 1086 32        	.byte0x32
 7002 1087 0000 1024 	.long0x1024
 7003 108b 18        	.byte0x18
 7004 108c 09        	.uleb128 0x9
 7005 108d 0000 0000 	.long.LASF251
 7006 1091 12        	.byte0x12
 7007 1092 33        	.byte0x33
 7008 1093 0000 0D13 	.long0xd13
 7009 1097 28        	.byte0x28
 7010 1098 09        	.uleb128 0x9
 7011 1099 0000 0000 	.long.LASF237
 7012 109d 12        	.byte0x12
 7013 109e 34        	.byte0x34
 7014 109f 0000 10C9 	.long0x10c9
 7015 10a3 30        	.byte0x30
 7016 10a4 09        	.uleb128 0x9
 7017 10a5 0000 0000 	.long.LASF252
 7018 10a9 12        	.byte0x12
 7019 10aa 35        	.byte0x35
 7020 10ab 0000 0086 	.long0x86
 7021 10af 80        	.byte0x80
 7022 10b0 09        	.uleb128 0x9
68K GAS   			page 182


 7023 10b1 0000 0000 	.long.LASF253
 7024 10b5 12        	.byte0x12
 7025 10b6 36        	.byte0x36
 7026 10b7 0000 0086 	.long0x86
 7027 10bb 84        	.byte0x84
 7028 10bc 09        	.uleb128 0x9
 7029 10bd 0000 0000 	.long.LASF254
 7030 10c1 12        	.byte0x12
 7031 10c2 37        	.byte0x37
 7032 10c3 0000 0D7A 	.long0xd7a
 7033 10c7 88        	.byte0x88
 7034 10c8 00        	.byte0
 7035 10c9 06        	.uleb128 0x6
 7036 10ca 0000 00B6 	.long0xb6
 7037 10ce 0000 10D9 	.long0x10d9
 7038 10d2 07        	.uleb128 0x7
 7039 10d3 0000 0091 	.long0x91
 7040 10d7 4F        	.byte0x4f
 7041 10d8 00        	.byte0
 7042 10d9 02        	.uleb128 0x2
 7043 10da 0000 0000 	.long.LASF255
 7044 10de 12        	.byte0x12
 7045 10df 38        	.byte0x38
 7046 10e0 0000 102F 	.long0x102f
 7047 10e4 08        	.uleb128 0x8
 7048 10e5 0C        	.byte0xc
 7049 10e6 13        	.byte0x13
 7050 10e7 1D        	.byte0x1d
 7051 10e8 0000 1111 	.long0x1111
 7052 10ec 09        	.uleb128 0x9
 7053 10ed 0000 0000 	.long.LASF256
 7054 10f1 13        	.byte0x13
 7055 10f2 1E        	.byte0x1e
 7056 10f3 0000 0086 	.long0x86
 7057 10f7 00        	.byte0
 7058 10f8 09        	.uleb128 0x9
 7059 10f9 0000 0000 	.long.LASF257
 7060 10fd 13        	.byte0x13
 7061 10fe 1F        	.byte0x1f
 7062 10ff 0000 0086 	.long0x86
 7063 1103 04        	.byte0x4
 7064 1104 09        	.uleb128 0x9
 7065 1105 0000 0000 	.long.LASF258
 7066 1109 13        	.byte0x13
 7067 110a 20        	.byte0x20
 7068 110b 0000 0086 	.long0x86
 7069 110f 08        	.byte0x8
 7070 1110 00        	.byte0
 7071 1111 02        	.uleb128 0x2
 7072 1112 0000 0000 	.long.LASF259
 7073 1116 13        	.byte0x13
 7074 1117 21        	.byte0x21
 7075 1118 0000 10E4 	.long0x10e4
 7076 111c 08        	.uleb128 0x8
 7077 111d 4C        	.byte0x4c
 7078 111e 13        	.byte0x13
 7079 111f 23        	.byte0x23
68K GAS   			page 183


 7080 1120 0000 11D9 	.long0x11d9
 7081 1124 09        	.uleb128 0x9
 7082 1125 0000 0000 	.long.LASF260
 7083 1129 13        	.byte0x13
 7084 112a 24        	.byte0x24
 7085 112b 0000 0069 	.long0x69
 7086 112f 00        	.byte0
 7087 1130 09        	.uleb128 0x9
 7088 1131 0000 0000 	.long.LASF261
 7089 1135 13        	.byte0x13
 7090 1136 25        	.byte0x25
 7091 1137 0000 0069 	.long0x69
 7092 113b 01        	.byte0x1
 7093 113c 09        	.uleb128 0x9
 7094 113d 0000 0000 	.long.LASF262
 7095 1141 13        	.byte0x13
 7096 1142 26        	.byte0x26
 7097 1143 0000 0DB7 	.long0xdb7
 7098 1147 02        	.byte0x2
 7099 1148 09        	.uleb128 0x9
 7100 1149 0000 0000 	.long.LASF263
 7101 114d 13        	.byte0x13
 7102 114e 27        	.byte0x27
 7103 114f 0000 0086 	.long0x86
 7104 1153 04        	.byte0x4
 7105 1154 09        	.uleb128 0x9
 7106 1155 0000 0000 	.long.LASF264
 7107 1159 13        	.byte0x13
 7108 115a 28        	.byte0x28
 7109 115b 0000 0086 	.long0x86
 7110 115f 08        	.byte0x8
 7111 1160 09        	.uleb128 0x9
 7112 1161 0000 0000 	.long.LASF265
 7113 1165 13        	.byte0x13
 7114 1166 29        	.byte0x29
 7115 1167 0000 0086 	.long0x86
 7116 116b 0C        	.byte0xc
 7117 116c 09        	.uleb128 0x9
 7118 116d 0000 0000 	.long.LASF266
 7119 1171 13        	.byte0x13
 7120 1172 2A        	.byte0x2a
 7121 1173 0000 0086 	.long0x86
 7122 1177 10        	.byte0x10
 7123 1178 09        	.uleb128 0x9
 7124 1179 0000 0000 	.long.LASF267
 7125 117d 13        	.byte0x13
 7126 117e 2B        	.byte0x2b
 7127 117f 0000 0086 	.long0x86
 7128 1183 14        	.byte0x14
 7129 1184 09        	.uleb128 0x9
 7130 1185 0000 0000 	.long.LASF268
 7131 1189 13        	.byte0x13
 7132 118a 2C        	.byte0x2c
 7133 118b 0000 0086 	.long0x86
 7134 118f 18        	.byte0x18
 7135 1190 09        	.uleb128 0x9
 7136 1191 0000 0000 	.long.LASF269
68K GAS   			page 184


 7137 1195 13        	.byte0x13
 7138 1196 2D        	.byte0x2d
 7139 1197 0000 0086 	.long0x86
 7140 119b 1C        	.byte0x1c
 7141 119c 09        	.uleb128 0x9
 7142 119d 0000 0000 	.long.LASF270
 7143 11a1 13        	.byte0x13
 7144 11a2 2E        	.byte0x2e
 7145 11a3 0000 0086 	.long0x86
 7146 11a7 20        	.byte0x20
 7147 11a8 09        	.uleb128 0x9
 7148 11a9 0000 0000 	.long.LASF271
 7149 11ad 13        	.byte0x13
 7150 11ae 2F        	.byte0x2f
 7151 11af 0000 0086 	.long0x86
 7152 11b3 24        	.byte0x24
 7153 11b4 09        	.uleb128 0x9
 7154 11b5 0000 0000 	.long.LASF272
 7155 11b9 13        	.byte0x13
 7156 11ba 30        	.byte0x30
 7157 11bb 0000 0086 	.long0x86
 7158 11bf 28        	.byte0x28
 7159 11c0 09        	.uleb128 0x9
 7160 11c1 0000 0000 	.long.LASF273
 7161 11c5 13        	.byte0x13
 7162 11c6 31        	.byte0x31
 7163 11c7 0000 11D9 	.long0x11d9
 7164 11cb 2C        	.byte0x2c
 7165 11cc 09        	.uleb128 0x9
 7166 11cd 0000 0000 	.long.LASF274
 7167 11d1 13        	.byte0x13
 7168 11d2 32        	.byte0x32
 7169 11d3 0000 11D9 	.long0x11d9
 7170 11d7 3C        	.byte0x3c
 7171 11d8 00        	.byte0
 7172 11d9 06        	.uleb128 0x6
 7173 11da 0000 0086 	.long0x86
 7174 11de 0000 11E9 	.long0x11e9
 7175 11e2 07        	.uleb128 0x7
 7176 11e3 0000 0091 	.long0x91
 7177 11e7 03        	.byte0x3
 7178 11e8 00        	.byte0
 7179 11e9 02        	.uleb128 0x2
 7180 11ea 0000 0000 	.long.LASF275
 7181 11ee 13        	.byte0x13
 7182 11ef 33        	.byte0x33
 7183 11f0 0000 111C 	.long0x111c
 7184 11f4 23        	.uleb128 0x23
 7185 11f5 0001 D50C 	.long0x1d50c
 7186 11f9 13        	.byte0x13
 7187 11fa 35        	.byte0x35
 7188 11fb 0000 1218 	.long0x1218
 7189 11ff 09        	.uleb128 0x9
 7190 1200 0000 0000 	.long.LASF276
 7191 1204 13        	.byte0x13
 7192 1205 36        	.byte0x36
 7193 1206 0000 11E9 	.long0x11e9
68K GAS   			page 185


 7194 120a 00        	.byte0
 7195 120b 09        	.uleb128 0x9
 7196 120c 0000 0000 	.long.LASF277
 7197 1210 13        	.byte0x13
 7198 1211 37        	.byte0x37
 7199 1212 0000 1218 	.long0x1218
 7200 1216 4C        	.byte0x4c
 7201 1217 00        	.byte0
 7202 1218 06        	.uleb128 0x6
 7203 1219 0000 1111 	.long0x1111
 7204 121d 0000 1229 	.long0x1229
 7205 1221 24        	.uleb128 0x24
 7206 1222 0000 0091 	.long0x91
 7207 1226 270F      	.word0x270f
 7208 1228 00        	.byte0
 7209 1229 02        	.uleb128 0x2
 7210 122a 0000 0000 	.long.LASF278
 7211 122e 13        	.byte0x13
 7212 122f 38        	.byte0x38
 7213 1230 0000 11F4 	.long0x11f4
 7214 1234 22        	.uleb128 0x22
 7215 1235 0D28      	.word0xd28
 7216 1237 14        	.byte0x14
 7217 1238 1F        	.byte0x1f
 7218 1239 0000 1286 	.long0x1286
 7219 123d 09        	.uleb128 0x9
 7220 123e 0000 0000 	.long.LASF279
 7221 1242 14        	.byte0x14
 7222 1243 20        	.byte0x20
 7223 1244 0000 0074 	.long0x74
 7224 1248 00        	.byte0
 7225 1249 09        	.uleb128 0x9
 7226 124a 0000 0000 	.long.LASF280
 7227 124e 14        	.byte0x14
 7228 124f 21        	.byte0x21
 7229 1250 0000 0074 	.long0x74
 7230 1254 02        	.byte0x2
 7231 1255 09        	.uleb128 0x9
 7232 1256 0000 0000 	.long.LASF281
 7233 125a 14        	.byte0x14
 7234 125b 22        	.byte0x22
 7235 125c 0000 0069 	.long0x69
 7236 1260 04        	.byte0x4
 7237 1261 09        	.uleb128 0x9
 7238 1262 0000 0000 	.long.LASF282
 7239 1266 14        	.byte0x14
 7240 1267 23        	.byte0x23
 7241 1268 0000 0069 	.long0x69
 7242 126c 05        	.byte0x5
 7243 126d 09        	.uleb128 0x9
 7244 126e 0000 0000 	.long.LASF283
 7245 1272 14        	.byte0x14
 7246 1273 24        	.byte0x24
 7247 1274 0000 0074 	.long0x74
 7248 1278 06        	.byte0x6
 7249 1279 09        	.uleb128 0x9
 7250 127a 0000 0000 	.long.LASF284
68K GAS   			page 186


 7251 127e 14        	.byte0x14
 7252 127f 25        	.byte0x25
 7253 1280 0000 1286 	.long0x1286
 7254 1284 08        	.byte0x8
 7255 1285 00        	.byte0
 7256 1286 06        	.uleb128 0x6
 7257 1287 0000 0F5F 	.long0xf5f
 7258 128b 0000 1296 	.long0x1296
 7259 128f 07        	.uleb128 0x7
 7260 1290 0000 0091 	.long0x91
 7261 1294 13        	.byte0x13
 7262 1295 00        	.byte0
 7263 1296 02        	.uleb128 0x2
 7264 1297 0000 0000 	.long.LASF285
 7265 129b 14        	.byte0x14
 7266 129c 27        	.byte0x27
 7267 129d 0000 1234 	.long0x1234
 7268 12a1 08        	.uleb128 0x8
 7269 12a2 18        	.byte0x18
 7270 12a3 15        	.byte0x15
 7271 12a4 23        	.byte0x23
 7272 12a5 0000 12F2 	.long0x12f2
 7273 12a9 09        	.uleb128 0x9
 7274 12aa 0000 0000 	.long.LASF245
 7275 12ae 15        	.byte0x15
 7276 12af 25        	.byte0x25
 7277 12b0 0000 0086 	.long0x86
 7278 12b4 00        	.byte0
 7279 12b5 09        	.uleb128 0x9
 7280 12b6 0000 0000 	.long.LASF246
 7281 12ba 15        	.byte0x15
 7282 12bb 26        	.byte0x26
 7283 12bc 0000 0086 	.long0x86
 7284 12c0 04        	.byte0x4
 7285 12c1 09        	.uleb128 0x9
 7286 12c2 0000 0000 	.long.LASF247
 7287 12c6 15        	.byte0x15
 7288 12c7 27        	.byte0x27
 7289 12c8 0000 0086 	.long0x86
 7290 12cc 08        	.byte0x8
 7291 12cd 09        	.uleb128 0x9
 7292 12ce 0000 0000 	.long.LASF286
 7293 12d2 15        	.byte0x15
 7294 12d3 28        	.byte0x28
 7295 12d4 0000 0086 	.long0x86
 7296 12d8 0C        	.byte0xc
 7297 12d9 09        	.uleb128 0x9
 7298 12da 0000 0000 	.long.LASF248
 7299 12de 15        	.byte0x15
 7300 12df 29        	.byte0x29
 7301 12e0 0000 0086 	.long0x86
 7302 12e4 10        	.byte0x10
 7303 12e5 09        	.uleb128 0x9
 7304 12e6 0000 0000 	.long.LASF249
 7305 12ea 15        	.byte0x15
 7306 12eb 2A        	.byte0x2a
 7307 12ec 0000 0086 	.long0x86
68K GAS   			page 187


 7308 12f0 14        	.byte0x14
 7309 12f1 00        	.byte0
 7310 12f2 02        	.uleb128 0x2
 7311 12f3 0000 0000 	.long.LASF287
 7312 12f7 15        	.byte0x15
 7313 12f8 2B        	.byte0x2b
 7314 12f9 0000 12A1 	.long0x12a1
 7315 12fd 23        	.uleb128 0x23
 7316 12fe 0002 0324 	.long0x20324
 7317 1302 15        	.byte0x15
 7318 1303 33        	.byte0x33
 7319 1304 0000 13AA 	.long0x13aa
 7320 1308 09        	.uleb128 0x9
 7321 1309 0000 0000 	.long.LASF288
 7322 130d 15        	.byte0x15
 7323 130e 38        	.byte0x38
 7324 130f 0000 13AA 	.long0x13aa
 7325 1313 00        	.byte0
 7326 1314 13        	.uleb128 0x13
 7327 1315 0000 0000 	.long.LASF289
 7328 1319 15        	.byte0x15
 7329 131a 39        	.byte0x39
 7330 131b 0000 0086 	.long0x86
 7331 131f 14A0      	.word0x14a0
 7332 1321 13        	.uleb128 0x13
 7333 1322 0000 0000 	.long.LASF290
 7334 1326 15        	.byte0x15
 7335 1327 3A        	.byte0x3a
 7336 1328 0000 0086 	.long0x86
 7337 132c 14A4      	.word0x14a4
 7338 132e 13        	.uleb128 0x13
 7339 132f 0000 0000 	.long.LASF242
 7340 1333 15        	.byte0x15
 7341 1334 3B        	.byte0x3b
 7342 1335 0000 0086 	.long0x86
 7343 1339 14A8      	.word0x14a8
 7344 133b 13        	.uleb128 0x13
 7345 133c 0000 0000 	.long.LASF291
 7346 1340 15        	.byte0x15
 7347 1341 40        	.byte0x40
 7348 1342 0000 13BA 	.long0x13ba
 7349 1346 14AC      	.word0x14ac
 7350 1348 13        	.uleb128 0x13
 7351 1349 0000 0000 	.long.LASF292
 7352 134d 15        	.byte0x15
 7353 134e 41        	.byte0x41
 7354 134f 0000 0086 	.long0x86
 7355 1353 20AC      	.word0x20ac
 7356 1355 13        	.uleb128 0x13
 7357 1356 0000 0000 	.long.LASF293
 7358 135a 15        	.byte0x15
 7359 135b 42        	.byte0x42
 7360 135c 0000 0086 	.long0x86
 7361 1360 20B0      	.word0x20b0
 7362 1362 13        	.uleb128 0x13
 7363 1363 0000 0000 	.long.LASF294
 7364 1367 15        	.byte0x15
68K GAS   			page 188


 7365 1368 43        	.byte0x43
 7366 1369 0000 0086 	.long0x86
 7367 136d 20B4      	.word0x20b4
 7368 136f 13        	.uleb128 0x13
 7369 1370 0000 0000 	.long.LASF295
 7370 1374 15        	.byte0x15
 7371 1375 48        	.byte0x48
 7372 1376 0000 1229 	.long0x1229
 7373 137a 20B8      	.word0x20b8
 7374 137c 25        	.uleb128 0x25
 7375 137d 0000 0000 	.long.LASF296
 7376 1381 15        	.byte0x15
 7377 1382 4D        	.byte0x4d
 7378 1383 0000 12F2 	.long0x12f2
 7379 1387 0001 F5C4 	.long0x1f5c4
 7380 138b 25        	.uleb128 0x25
 7381 138c 0000 0000 	.long.LASF297
 7382 1390 15        	.byte0x15
 7383 1391 53        	.byte0x53
 7384 1392 0000 0D6F 	.long0xd6f
 7385 1396 0001 F5DC 	.long0x1f5dc
 7386 139a 25        	.uleb128 0x25
 7387 139b 0000 0000 	.long.LASF298
 7388 139f 15        	.byte0x15
 7389 13a0 59        	.byte0x59
 7390 13a1 0000 1296 	.long0x1296
 7391 13a5 0001 F5FC 	.long0x1f5fc
 7392 13a9 00        	.byte0
 7393 13aa 06        	.uleb128 0x6
 7394 13ab 0000 10D9 	.long0x10d9
 7395 13af 0000 13BA 	.long0x13ba
 7396 13b3 07        	.uleb128 0x7
 7397 13b4 0000 0091 	.long0x91
 7398 13b8 13        	.byte0x13
 7399 13b9 00        	.byte0
 7400 13ba 06        	.uleb128 0x6
 7401 13bb 0000 00B6 	.long0xb6
 7402 13bf 0000 13CB 	.long0x13cb
 7403 13c3 24        	.uleb128 0x24
 7404 13c4 0000 0091 	.long0x91
 7405 13c8 0BFF      	.word0xbff
 7406 13ca 00        	.byte0
 7407 13cb 02        	.uleb128 0x2
 7408 13cc 0000 0000 	.long.LASF299
 7409 13d0 15        	.byte0x15
 7410 13d1 5C        	.byte0x5c
 7411 13d2 0000 12FD 	.long0x12fd
 7412 13d6 08        	.uleb128 0x8
 7413 13d7 0C        	.byte0xc
 7414 13d8 16        	.byte0x16
 7415 13d9 7E        	.byte0x7e
 7416 13da 0000 1403 	.long0x1403
 7417 13de 09        	.uleb128 0x9
 7418 13df 0000 0000 	.long.LASF300
 7419 13e3 16        	.byte0x16
 7420 13e4 80        	.byte0x80
 7421 13e5 0000 0086 	.long0x86
68K GAS   			page 189


 7422 13e9 00        	.byte0
 7423 13ea 09        	.uleb128 0x9
 7424 13eb 0000 0000 	.long.LASF301
 7425 13ef 16        	.byte0x16
 7426 13f0 81        	.byte0x81
 7427 13f1 0000 0086 	.long0x86
 7428 13f5 04        	.byte0x4
 7429 13f6 09        	.uleb128 0x9
 7430 13f7 0000 0000 	.long.LASF302
 7431 13fb 16        	.byte0x16
 7432 13fc 82        	.byte0x82
 7433 13fd 0000 0050 	.long0x50
 7434 1401 08        	.byte0x8
 7435 1402 00        	.byte0
 7436 1403 02        	.uleb128 0x2
 7437 1404 0000 0000 	.long.LASF303
 7438 1408 16        	.byte0x16
 7439 1409 84        	.byte0x84
 7440 140a 0000 13D6 	.long0x13d6
 7441 140e 08        	.uleb128 0x8
 7442 140f 78        	.byte0x78
 7443 1410 16        	.byte0x16
 7444 1411 8B        	.byte0x8b
 7445 1412 0000 1477 	.long0x1477
 7446 1416 09        	.uleb128 0x9
 7447 1417 0000 0000 	.long.LASF156
 7448 141b 16        	.byte0x16
 7449 141c 8D        	.byte0x8d
 7450 141d 0000 00C2 	.long0xc2
 7451 1421 00        	.byte0
 7452 1422 09        	.uleb128 0x9
 7453 1423 0000 0000 	.long.LASF157
 7454 1427 16        	.byte0x16
 7455 1428 8E        	.byte0x8e
 7456 1429 0000 00C2 	.long0xc2
 7457 142d 14        	.byte0x14
 7458 142e 09        	.uleb128 0x9
 7459 142f 0000 0000 	.long.LASF158
 7460 1433 16        	.byte0x16
 7461 1434 8F        	.byte0x8f
 7462 1435 0000 0A31 	.long0xa31
 7463 1439 28        	.byte0x28
 7464 143a 09        	.uleb128 0x9
 7465 143b 0000 0000 	.long.LASF159
 7466 143f 16        	.byte0x16
 7467 1440 91        	.byte0x91
 7468 1441 0000 0086 	.long0x86
 7469 1445 68        	.byte0x68
 7470 1446 09        	.uleb128 0x9
 7471 1447 0000 0000 	.long.LASF168
 7472 144b 16        	.byte0x16
 7473 144c 92        	.byte0x92
 7474 144d 0000 009F 	.long0x9f
 7475 1451 6C        	.byte0x6c
 7476 1452 09        	.uleb128 0x9
 7477 1453 0000 0000 	.long.LASF160
 7478 1457 16        	.byte0x16
68K GAS   			page 190


 7479 1458 93        	.byte0x93
 7480 1459 0000 0086 	.long0x86
 7481 145d 70        	.byte0x70
 7482 145e 09        	.uleb128 0x9
 7483 145f 0000 0000 	.long.LASF169
 7484 1463 16        	.byte0x16
 7485 1464 95        	.byte0x95
 7486 1465 0000 0074 	.long0x74
 7487 1469 74        	.byte0x74
 7488 146a 09        	.uleb128 0x9
 7489 146b 0000 0000 	.long.LASF170
 7490 146f 16        	.byte0x16
 7491 1470 96        	.byte0x96
 7492 1471 0000 0074 	.long0x74
 7493 1475 76        	.byte0x76
 7494 1476 00        	.byte0
 7495 1477 02        	.uleb128 0x2
 7496 1478 0000 0000 	.long.LASF304
 7497 147c 16        	.byte0x16
 7498 147d 98        	.byte0x98
 7499 147e 0000 140E 	.long0x140e
 7500 1482 08        	.uleb128 0x8
 7501 1483 1C        	.byte0x1c
 7502 1484 16        	.byte0x16
 7503 1485 9F        	.byte0x9f
 7504 1486 0000 14AF 	.long0x14af
 7505 148a 09        	.uleb128 0x9
 7506 148b 0000 0000 	.long.LASF171
 7507 148f 16        	.byte0x16
 7508 1490 A1        	.byte0xa1
 7509 1491 0000 0086 	.long0x86
 7510 1495 00        	.byte0
 7511 1496 09        	.uleb128 0x9
 7512 1497 0000 0000 	.long.LASF173
 7513 149b 16        	.byte0x16
 7514 149c A2        	.byte0xa2
 7515 149d 0000 00C2 	.long0xc2
 7516 14a1 04        	.byte0x4
 7517 14a2 09        	.uleb128 0x9
 7518 14a3 0000 0000 	.long.LASF174
 7519 14a7 16        	.byte0x16
 7520 14a8 A3        	.byte0xa3
 7521 14a9 0000 0086 	.long0x86
 7522 14ad 18        	.byte0x18
 7523 14ae 00        	.byte0
 7524 14af 02        	.uleb128 0x2
 7525 14b0 0000 0000 	.long.LASF305
 7526 14b4 16        	.byte0x16
 7527 14b5 A5        	.byte0xa5
 7528 14b6 0000 1482 	.long0x1482
 7529 14ba 08        	.uleb128 0x8
 7530 14bb A8        	.byte0xa8
 7531 14bc 16        	.byte0x16
 7532 14bd AC        	.byte0xac
 7533 14be 0000 14FF 	.long0x14ff
 7534 14c2 09        	.uleb128 0x9
 7535 14c3 0000 0000 	.long.LASF306
68K GAS   			page 191


 7536 14c7 16        	.byte0x16
 7537 14c8 AE        	.byte0xae
 7538 14c9 0000 00AA 	.long0xaa
 7539 14cd 00        	.byte0
 7540 14ce 09        	.uleb128 0x9
 7541 14cf 0000 0000 	.long.LASF155
 7542 14d3 16        	.byte0x16
 7543 14d4 AF        	.byte0xaf
 7544 14d5 0000 0086 	.long0x86
 7545 14d9 04        	.byte0x4
 7546 14da 09        	.uleb128 0x9
 7547 14db 0000 0000 	.long.LASF307
 7548 14df 16        	.byte0x16
 7549 14e0 B0        	.byte0xb0
 7550 14e1 0000 1477 	.long0x1477
 7551 14e5 08        	.byte0x8
 7552 14e6 09        	.uleb128 0x9
 7553 14e7 0000 0000 	.long.LASF308
 7554 14eb 16        	.byte0x16
 7555 14ec B1        	.byte0xb1
 7556 14ed 0000 1403 	.long0x1403
 7557 14f1 80        	.byte0x80
 7558 14f2 09        	.uleb128 0x9
 7559 14f3 0000 0000 	.long.LASF309
 7560 14f7 16        	.byte0x16
 7561 14f8 B2        	.byte0xb2
 7562 14f9 0000 14AF 	.long0x14af
 7563 14fd 8C        	.byte0x8c
 7564 14fe 00        	.byte0
 7565 14ff 02        	.uleb128 0x2
 7566 1500 0000 0000 	.long.LASF310
 7567 1504 16        	.byte0x16
 7568 1505 B4        	.byte0xb4
 7569 1506 0000 14BA 	.long0x14ba
 7570 150a 08        	.uleb128 0x8
 7571 150b 24        	.byte0x24
 7572 150c 16        	.byte0x16
 7573 150d BB        	.byte0xbb
 7574 150e 0000 154F 	.long0x154f
 7575 1512 09        	.uleb128 0x9
 7576 1513 0000 0000 	.long.LASF306
 7577 1517 16        	.byte0x16
 7578 1518 BD        	.byte0xbd
 7579 1519 0000 00AA 	.long0xaa
 7580 151d 00        	.byte0
 7581 151e 09        	.uleb128 0x9
 7582 151f 0000 0000 	.long.LASF154
 7583 1523 16        	.byte0x16
 7584 1524 BE        	.byte0xbe
 7585 1525 0000 0086 	.long0x86
 7586 1529 04        	.byte0x4
 7587 152a 09        	.uleb128 0x9
 7588 152b 0000 0000 	.long.LASF176
 7589 152f 16        	.byte0x16
 7590 1530 BF        	.byte0xbf
 7591 1531 0000 0086 	.long0x86
 7592 1535 08        	.byte0x8
68K GAS   			page 192


 7593 1536 09        	.uleb128 0x9
 7594 1537 0000 0000 	.long.LASF172
 7595 153b 16        	.byte0x16
 7596 153c C0        	.byte0xc0
 7597 153d 0000 0086 	.long0x86
 7598 1541 0C        	.byte0xc
 7599 1542 09        	.uleb128 0x9
 7600 1543 0000 0000 	.long.LASF177
 7601 1547 16        	.byte0x16
 7602 1548 C1        	.byte0xc1
 7603 1549 0000 00C2 	.long0xc2
 7604 154d 10        	.byte0x10
 7605 154e 00        	.byte0
 7606 154f 02        	.uleb128 0x2
 7607 1550 0000 0000 	.long.LASF311
 7608 1554 16        	.byte0x16
 7609 1555 C4        	.byte0xc4
 7610 1556 0000 150A 	.long0x150a
 7611 155a 08        	.uleb128 0x8
 7612 155b 15        	.byte0x15
 7613 155c 16        	.byte0x16
 7614 155d CA        	.byte0xca
 7615 155e 0000 157B 	.long0x157b
 7616 1562 09        	.uleb128 0x9
 7617 1563 0000 0000 	.long.LASF306
 7618 1567 16        	.byte0x16
 7619 1568 CC        	.byte0xcc
 7620 1569 0000 00AA 	.long0xaa
 7621 156d 00        	.byte0
 7622 156e 09        	.uleb128 0x9
 7623 156f 0000 0000 	.long.LASF312
 7624 1573 16        	.byte0x16
 7625 1574 CD        	.byte0xcd
 7626 1575 0000 00C2 	.long0xc2
 7627 1579 01        	.byte0x1
 7628 157a 00        	.byte0
 7629 157b 02        	.uleb128 0x2
 7630 157c 0000 0000 	.long.LASF313
 7631 1580 16        	.byte0x16
 7632 1581 CE        	.byte0xce
 7633 1582 0000 155A 	.long0x155a
 7634 1586 02        	.uleb128 0x2
 7635 1587 0000 0000 	.long.LASF314
 7636 158b 17        	.byte0x17
 7637 158c 38        	.byte0x38
 7638 158d 0000 0086 	.long0x86
 7639 1591 08        	.uleb128 0x8
 7640 1592 14        	.byte0x14
 7641 1593 17        	.byte0x17
 7642 1594 3A        	.byte0x3a
 7643 1595 0000 15E2 	.long0x15e2
 7644 1599 09        	.uleb128 0x9
 7645 159a 0000 0000 	.long.LASF315
 7646 159e 17        	.byte0x17
 7647 159f 3C        	.byte0x3c
 7648 15a0 0000 0074 	.long0x74
 7649 15a4 00        	.byte0
68K GAS   			page 193


 7650 15a5 09        	.uleb128 0x9
 7651 15a6 0000 0000 	.long.LASF316
 7652 15aa 17        	.byte0x17
 7653 15ab 3D        	.byte0x3d
 7654 15ac 0000 0074 	.long0x74
 7655 15b0 02        	.byte0x2
 7656 15b1 09        	.uleb128 0x9
 7657 15b2 0000 0000 	.long.LASF317
 7658 15b6 17        	.byte0x17
 7659 15b7 3E        	.byte0x3e
 7660 15b8 0000 0086 	.long0x86
 7661 15bc 04        	.byte0x4
 7662 15bd 09        	.uleb128 0x9
 7663 15be 0000 0000 	.long.LASF318
 7664 15c2 17        	.byte0x17
 7665 15c3 3F        	.byte0x3f
 7666 15c4 0000 0086 	.long0x86
 7667 15c8 08        	.byte0x8
 7668 15c9 11        	.uleb128 0x11
 7669 15ca 4352 4300 	.string"CRC"
 7670 15ce 17        	.byte0x17
 7671 15cf 40        	.byte0x40
 7672 15d0 0000 0086 	.long0x86
 7673 15d4 0C        	.byte0xc
 7674 15d5 09        	.uleb128 0x9
 7675 15d6 0000 0000 	.long.LASF279
 7676 15da 17        	.byte0x17
 7677 15db 41        	.byte0x41
 7678 15dc 0000 0086 	.long0x86
 7679 15e0 10        	.byte0x10
 7680 15e1 00        	.byte0
 7681 15e2 02        	.uleb128 0x2
 7682 15e3 0000 0000 	.long.LASF319
 7683 15e7 17        	.byte0x17
 7684 15e8 42        	.byte0x42
 7685 15e9 0000 1591 	.long0x1591
 7686 15ed 08        	.uleb128 0x8
 7687 15ee 0C        	.byte0xc
 7688 15ef 17        	.byte0x17
 7689 15f0 44        	.byte0x44
 7690 15f1 0000 161A 	.long0x161a
 7691 15f5 11        	.uleb128 0x11
 7692 15f6 546F 7000 	.string"Top"
 7693 15fa 17        	.byte0x17
 7694 15fb 46        	.byte0x46
 7695 15fc 0000 0086 	.long0x86
 7696 1600 00        	.byte0
 7697 1601 09        	.uleb128 0x9
 7698 1602 0000 0000 	.long.LASF181
 7699 1606 17        	.byte0x17
 7700 1607 47        	.byte0x47
 7701 1608 0000 0086 	.long0x86
 7702 160c 04        	.byte0x4
 7703 160d 09        	.uleb128 0x9
 7704 160e 0000 0000 	.long.LASF320
 7705 1612 17        	.byte0x17
 7706 1613 48        	.byte0x48
68K GAS   			page 194


 7707 1614 0000 0086 	.long0x86
 7708 1618 08        	.byte0x8
 7709 1619 00        	.byte0
 7710 161a 02        	.uleb128 0x2
 7711 161b 0000 0000 	.long.LASF321
 7712 161f 17        	.byte0x17
 7713 1620 49        	.byte0x49
 7714 1621 0000 15ED 	.long0x15ed
 7715 1625 08        	.uleb128 0x8
 7716 1626 EC        	.byte0xec
 7717 1627 17        	.byte0x17
 7718 1628 4D        	.byte0x4d
 7719 1629 0000 16A6 	.long0x16a6
 7720 162d 09        	.uleb128 0x9
 7721 162e 0000 0000 	.long.LASF322
 7722 1632 17        	.byte0x17
 7723 1633 4E        	.byte0x4e
 7724 1634 0000 0086 	.long0x86
 7725 1638 00        	.byte0
 7726 1639 09        	.uleb128 0x9
 7727 163a 0000 0000 	.long.LASF192
 7728 163e 17        	.byte0x17
 7729 163f 4F        	.byte0x4f
 7730 1640 0000 0086 	.long0x86
 7731 1644 04        	.byte0x4
 7732 1645 11        	.uleb128 0x11
 7733 1646 456E 6400 	.string"End"
 7734 164a 17        	.byte0x17
 7735 164b 50        	.byte0x50
 7736 164c 0000 0086 	.long0x86
 7737 1650 08        	.byte0x8
 7738 1651 09        	.uleb128 0x9
 7739 1652 0000 0000 	.long.LASF323
 7740 1656 17        	.byte0x17
 7741 1657 51        	.byte0x51
 7742 1658 0000 0086 	.long0x86
 7743 165c 0C        	.byte0xc
 7744 165d 09        	.uleb128 0x9
 7745 165e 0000 0000 	.long.LASF324
 7746 1662 17        	.byte0x17
 7747 1663 52        	.byte0x52
 7748 1664 0000 0050 	.long0x50
 7749 1668 10        	.byte0x10
 7750 1669 09        	.uleb128 0x9
 7751 166a 0000 0000 	.long.LASF325
 7752 166e 17        	.byte0x17
 7753 166f 53        	.byte0x53
 7754 1670 0000 0074 	.long0x74
 7755 1674 14        	.byte0x14
 7756 1675 09        	.uleb128 0x9
 7757 1676 0000 0000 	.long.LASF326
 7758 167a 17        	.byte0x17
 7759 167b 54        	.byte0x54
 7760 167c 0000 0074 	.long0x74
 7761 1680 16        	.byte0x16
 7762 1681 09        	.uleb128 0x9
 7763 1682 0000 0000 	.long.LASF327
68K GAS   			page 195


 7764 1686 17        	.byte0x17
 7765 1687 55        	.byte0x55
 7766 1688 0000 0086 	.long0x86
 7767 168c 18        	.byte0x18
 7768 168d 09        	.uleb128 0x9
 7769 168e 0000 0000 	.long.LASF328
 7770 1692 17        	.byte0x17
 7771 1693 56        	.byte0x56
 7772 1694 0000 0086 	.long0x86
 7773 1698 1C        	.byte0x1c
 7774 1699 09        	.uleb128 0x9
 7775 169a 0000 0000 	.long.LASF329
 7776 169e 17        	.byte0x17
 7777 169f 57        	.byte0x57
 7778 16a0 0000 16A6 	.long0x16a6
 7779 16a4 20        	.byte0x20
 7780 16a5 00        	.byte0
 7781 16a6 06        	.uleb128 0x6
 7782 16a7 0000 161A 	.long0x161a
 7783 16ab 0000 16B6 	.long0x16b6
 7784 16af 07        	.uleb128 0x7
 7785 16b0 0000 0091 	.long0x91
 7786 16b4 10        	.byte0x10
 7787 16b5 00        	.byte0
 7788 16b6 02        	.uleb128 0x2
 7789 16b7 0000 0000 	.long.LASF330
 7790 16bb 17        	.byte0x17
 7791 16bc 58        	.byte0x58
 7792 16bd 0000 1625 	.long0x1625
 7793 16c1 20        	.uleb128 0x20
 7794 16c2 0000 0000 	.long.LASF331
 7795 16c6 17        	.byte0x17
 7796 16c7 60        	.byte0x60
 7797 16c8 0000 16B6 	.long0x16b6
 7798 16cc 20        	.uleb128 0x20
 7799 16cd 0000 0000 	.long.LASF332
 7800 16d1 17        	.byte0x17
 7801 16d2 61        	.byte0x61
 7802 16d3 0000 15E2 	.long0x15e2
 7803 16d7 08        	.uleb128 0x8
 7804 16d8 34        	.byte0x34
 7805 16d9 18        	.byte0x18
 7806 16da 43        	.byte0x43
 7807 16db 0000 171C 	.long0x171c
 7808 16df 09        	.uleb128 0x9
 7809 16e0 0000 0000 	.long.LASF156
 7810 16e4 18        	.byte0x18
 7811 16e5 45        	.byte0x45
 7812 16e6 0000 0CD6 	.long0xcd6
 7813 16ea 00        	.byte0
 7814 16eb 09        	.uleb128 0x9
 7815 16ec 0000 0000 	.long.LASF333
 7816 16f0 18        	.byte0x18
 7817 16f1 46        	.byte0x46
 7818 16f2 0000 1586 	.long0x1586
 7819 16f6 28        	.byte0x28
 7820 16f7 09        	.uleb128 0x9
68K GAS   			page 196


 7821 16f8 0000 0000 	.long.LASF192
 7822 16fc 18        	.byte0x18
 7823 16fd 47        	.byte0x47
 7824 16fe 0000 0086 	.long0x86
 7825 1702 2C        	.byte0x2c
 7826 1703 09        	.uleb128 0x9
 7827 1704 0000 0000 	.long.LASF334
 7828 1708 18        	.byte0x18
 7829 1709 48        	.byte0x48
 7830 170a 0000 00AA 	.long0xaa
 7831 170e 30        	.byte0x30
 7832 170f 09        	.uleb128 0x9
 7833 1710 0000 0000 	.long.LASF193
 7834 1714 18        	.byte0x18
 7835 1715 49        	.byte0x49
 7836 1716 0000 00AA 	.long0xaa
 7837 171a 31        	.byte0x31
 7838 171b 00        	.byte0
 7839 171c 02        	.uleb128 0x2
 7840 171d 0000 0000 	.long.LASF335
 7841 1721 18        	.byte0x18
 7842 1722 4A        	.byte0x4a
 7843 1723 0000 16D7 	.long0x16d7
 7844 1727 22        	.uleb128 0x22
 7845 1728 6818      	.word0x6818
 7846 172a 18        	.byte0x18
 7847 172b 4C        	.byte0x4c
 7848 172c 0000 177A 	.long0x177a
 7849 1730 09        	.uleb128 0x9
 7850 1731 0000 0000 	.long.LASF336
 7851 1735 18        	.byte0x18
 7852 1736 4E        	.byte0x4e
 7853 1737 0000 0086 	.long0x86
 7854 173b 00        	.byte0
 7855 173c 09        	.uleb128 0x9
 7856 173d 0000 0000 	.long.LASF337
 7857 1741 18        	.byte0x18
 7858 1742 4F        	.byte0x4f
 7859 1743 0000 0086 	.long0x86
 7860 1747 04        	.byte0x4
 7861 1748 09        	.uleb128 0x9
 7862 1749 0000 0000 	.long.LASF338
 7863 174d 18        	.byte0x18
 7864 174e 50        	.byte0x50
 7865 174f 0000 0086 	.long0x86
 7866 1753 08        	.byte0x8
 7867 1754 09        	.uleb128 0x9
 7868 1755 0000 0000 	.long.LASF339
 7869 1759 18        	.byte0x18
 7870 175a 51        	.byte0x51
 7871 175b 0000 0086 	.long0x86
 7872 175f 0C        	.byte0xc
 7873 1760 09        	.uleb128 0x9
 7874 1761 0000 0000 	.long.LASF340
 7875 1765 18        	.byte0x18
 7876 1766 52        	.byte0x52
 7877 1767 0000 177A 	.long0x177a
68K GAS   			page 197


 7878 176b 10        	.byte0x10
 7879 176c 13        	.uleb128 0x13
 7880 176d 0000 0000 	.long.LASF341
 7881 1771 18        	.byte0x18
 7882 1772 53        	.byte0x53
 7883 1773 0000 08D6 	.long0x8d6
 7884 1777 6810      	.word0x6810
 7885 1779 00        	.byte0
 7886 177a 06        	.uleb128 0x6
 7887 177b 0000 171C 	.long0x171c
 7888 177f 0000 178B 	.long0x178b
 7889 1783 24        	.uleb128 0x24
 7890 1784 0000 0091 	.long0x91
 7891 1788 01FF      	.word0x1ff
 7892 178a 00        	.byte0
 7893 178b 02        	.uleb128 0x2
 7894 178c 0000 0000 	.long.LASF342
 7895 1790 18        	.byte0x18
 7896 1791 54        	.byte0x54
 7897 1792 0000 1727 	.long0x1727
 7898 1796 1B        	.uleb128 0x1b
 7899 1797 02        	.byte0x2
 7900 1798 19        	.byte0x19
 7901 1799 0495      	.word0x495
 7902 179b 0000 17AD 	.long0x17ad
 7903 179f 18        	.uleb128 0x18
 7904 17a0 0000 0000 	.long.LASF343
 7905 17a4 19        	.byte0x19
 7906 17a5 0497      	.word0x497
 7907 17a7 0000 0074 	.long0x74
 7908 17ab 00        	.byte0
 7909 17ac 00        	.byte0
 7910 17ad 04        	.uleb128 0x4
 7911 17ae 0000 0000 	.long.LASF344
 7912 17b2 19        	.byte0x19
 7913 17b3 0499      	.word0x499
 7914 17b5 0000 1796 	.long0x1796
 7915 17b9 1B        	.uleb128 0x1b
 7916 17ba 80        	.byte0x80
 7917 17bb 19        	.byte0x19
 7918 17bc 04A7      	.word0x4a7
 7919 17be 0000 17DD 	.long0x17dd
 7920 17c2 18        	.uleb128 0x18
 7921 17c3 0000 0000 	.long.LASF345
 7922 17c7 19        	.byte0x19
 7923 17c8 04A9      	.word0x4a9
 7924 17ca 0000 0A31 	.long0xa31
 7925 17ce 00        	.byte0
 7926 17cf 18        	.uleb128 0x18
 7927 17d0 0000 0000 	.long.LASF346
 7928 17d4 19        	.byte0x19
 7929 17d5 04AB      	.word0x4ab
 7930 17d7 0000 0A31 	.long0xa31
 7931 17db 40        	.byte0x40
 7932 17dc 00        	.byte0
 7933 17dd 04        	.uleb128 0x4
 7934 17de 0000 0000 	.long.LASF347
68K GAS   			page 198


 7935 17e2 19        	.byte0x19
 7936 17e3 04AD      	.word0x4ad
 7937 17e5 0000 17B9 	.long0x17b9
 7938 17e9 1B        	.uleb128 0x1b
 7939 17ea 40        	.byte0x40
 7940 17eb 19        	.byte0x19
 7941 17ec 04BB      	.word0x4bb
 7942 17ee 0000 1800 	.long0x1800
 7943 17f2 18        	.uleb128 0x18
 7944 17f3 0000 0000 	.long.LASF348
 7945 17f7 19        	.byte0x19
 7946 17f8 04BD      	.word0x4bd
 7947 17fa 0000 0A31 	.long0xa31
 7948 17fe 00        	.byte0
 7949 17ff 00        	.byte0
 7950 1800 04        	.uleb128 0x4
 7951 1801 0000 0000 	.long.LASF349
 7952 1805 19        	.byte0x19
 7953 1806 04BF      	.word0x4bf
 7954 1808 0000 17E9 	.long0x17e9
 7955 180c 1B        	.uleb128 0x1b
 7956 180d 40        	.byte0x40
 7957 180e 19        	.byte0x19
 7958 180f 04CD      	.word0x4cd
 7959 1811 0000 1823 	.long0x1823
 7960 1815 18        	.uleb128 0x18
 7961 1816 0000 0000 	.long.LASF348
 7962 181a 19        	.byte0x19
 7963 181b 04CF      	.word0x4cf
 7964 181d 0000 0A31 	.long0xa31
 7965 1821 00        	.byte0
 7966 1822 00        	.byte0
 7967 1823 04        	.uleb128 0x4
 7968 1824 0000 0000 	.long.LASF350
 7969 1828 19        	.byte0x19
 7970 1829 04D2      	.word0x4d2
 7971 182b 0000 180C 	.long0x180c
 7972 182f 1B        	.uleb128 0x1b
 7973 1830 40        	.byte0x40
 7974 1831 19        	.byte0x19
 7975 1832 04E1      	.word0x4e1
 7976 1834 0000 1846 	.long0x1846
 7977 1838 18        	.uleb128 0x18
 7978 1839 0000 0000 	.long.LASF351
 7979 183d 19        	.byte0x19
 7980 183e 04E3      	.word0x4e3
 7981 1840 0000 0A31 	.long0xa31
 7982 1844 00        	.byte0
 7983 1845 00        	.byte0
 7984 1846 04        	.uleb128 0x4
 7985 1847 0000 0000 	.long.LASF352
 7986 184b 19        	.byte0x19
 7987 184c 04E5      	.word0x4e5
 7988 184e 0000 182F 	.long0x182f
 7989 1852 1B        	.uleb128 0x1b
 7990 1853 40        	.byte0x40
 7991 1854 19        	.byte0x19
68K GAS   			page 199


 7992 1855 04F3      	.word0x4f3
 7993 1857 0000 1869 	.long0x1869
 7994 185b 18        	.uleb128 0x18
 7995 185c 0000 0000 	.long.LASF353
 7996 1860 19        	.byte0x19
 7997 1861 04F5      	.word0x4f5
 7998 1863 0000 0A31 	.long0xa31
 7999 1867 00        	.byte0
 8000 1868 00        	.byte0
 8001 1869 04        	.uleb128 0x4
 8002 186a 0000 0000 	.long.LASF354
 8003 186e 19        	.byte0x19
 8004 186f 04F7      	.word0x4f7
 8005 1871 0000 1852 	.long0x1852
 8006 1875 1B        	.uleb128 0x1b
 8007 1876 04        	.byte0x4
 8008 1877 19        	.byte0x19
 8009 1878 0505      	.word0x505
 8010 187a 0000 188C 	.long0x188c
 8011 187e 18        	.uleb128 0x18
 8012 187f 0000 0000 	.long.LASF266
 8013 1883 19        	.byte0x19
 8014 1884 0507      	.word0x507
 8015 1886 0000 0086 	.long0x86
 8016 188a 00        	.byte0
 8017 188b 00        	.byte0
 8018 188c 04        	.uleb128 0x4
 8019 188d 0000 0000 	.long.LASF355
 8020 1891 19        	.byte0x19
 8021 1892 050A      	.word0x50a
 8022 1894 0000 1875 	.long0x1875
 8023 1898 1B        	.uleb128 0x1b
 8024 1899 70        	.byte0x70
 8025 189a 19        	.byte0x19
 8026 189b 0518      	.word0x518
 8027 189d 0000 18F0 	.long0x18f0
 8028 18a1 18        	.uleb128 0x18
 8029 18a2 0000 0000 	.long.LASF356
 8030 18a6 19        	.byte0x19
 8031 18a7 051A      	.word0x51a
 8032 18a9 0000 00C2 	.long0xc2
 8033 18ad 00        	.byte0
 8034 18ae 18        	.uleb128 0x18
 8035 18af 0000 0000 	.long.LASF357
 8036 18b3 19        	.byte0x19
 8037 18b4 051B      	.word0x51b
 8038 18b6 0000 00C2 	.long0xc2
 8039 18ba 14        	.byte0x14
 8040 18bb 18        	.uleb128 0x18
 8041 18bc 0000 0000 	.long.LASF358
 8042 18c0 19        	.byte0x19
 8043 18c1 051C      	.word0x51c
 8044 18c3 0000 0A31 	.long0xa31
 8045 18c7 28        	.byte0x28
 8046 18c8 18        	.uleb128 0x18
 8047 18c9 0000 0000 	.long.LASF159
 8048 18cd 19        	.byte0x19
68K GAS   			page 200


 8049 18ce 051F      	.word0x51f
 8050 18d0 0000 0086 	.long0x86
 8051 18d4 68        	.byte0x68
 8052 18d5 18        	.uleb128 0x18
 8053 18d6 0000 0000 	.long.LASF169
 8054 18da 19        	.byte0x19
 8055 18db 0521      	.word0x521
 8056 18dd 0000 0074 	.long0x74
 8057 18e1 6C        	.byte0x6c
 8058 18e2 18        	.uleb128 0x18
 8059 18e3 0000 0000 	.long.LASF170
 8060 18e7 19        	.byte0x19
 8061 18e8 0525      	.word0x525
 8062 18ea 0000 0074 	.long0x74
 8063 18ee 6E        	.byte0x6e
 8064 18ef 00        	.byte0
 8065 18f0 04        	.uleb128 0x4
 8066 18f1 0000 0000 	.long.LASF359
 8067 18f5 19        	.byte0x19
 8068 18f6 0527      	.word0x527
 8069 18f8 0000 1898 	.long0x1898
 8070 18fc 1B        	.uleb128 0x1b
 8071 18fd 14        	.byte0x14
 8072 18fe 19        	.byte0x19
 8073 18ff 0535      	.word0x535
 8074 1901 0000 1913 	.long0x1913
 8075 1905 18        	.uleb128 0x18
 8076 1906 0000 0000 	.long.LASF356
 8077 190a 19        	.byte0x19
 8078 190b 0537      	.word0x537
 8079 190d 0000 00C2 	.long0xc2
 8080 1911 00        	.byte0
 8081 1912 00        	.byte0
 8082 1913 04        	.uleb128 0x4
 8083 1914 0000 0000 	.long.LASF360
 8084 1918 19        	.byte0x19
 8085 1919 0538      	.word0x538
 8086 191b 0000 18FC 	.long0x18fc
 8087 191f 1B        	.uleb128 0x1b
 8088 1920 54        	.byte0x54
 8089 1921 19        	.byte0x19
 8090 1922 0546      	.word0x546
 8091 1924 0000 1943 	.long0x1943
 8092 1928 18        	.uleb128 0x18
 8093 1929 0000 0000 	.long.LASF356
 8094 192d 19        	.byte0x19
 8095 192e 0548      	.word0x548
 8096 1930 0000 00C2 	.long0xc2
 8097 1934 00        	.byte0
 8098 1935 18        	.uleb128 0x18
 8099 1936 0000 0000 	.long.LASF358
 8100 193a 19        	.byte0x19
 8101 193b 0549      	.word0x549
 8102 193d 0000 0A31 	.long0xa31
 8103 1941 14        	.byte0x14
 8104 1942 00        	.byte0
 8105 1943 04        	.uleb128 0x4
68K GAS   			page 201


 8106 1944 0000 0000 	.long.LASF361
 8107 1948 19        	.byte0x19
 8108 1949 054B      	.word0x54b
 8109 194b 0000 191F 	.long0x191f
 8110 194f 1B        	.uleb128 0x1b
 8111 1950 02        	.byte0x2
 8112 1951 19        	.byte0x19
 8113 1952 0559      	.word0x559
 8114 1954 0000 1966 	.long0x1966
 8115 1958 18        	.uleb128 0x18
 8116 1959 0000 0000 	.long.LASF362
 8117 195d 19        	.byte0x19
 8118 195e 055B      	.word0x55b
 8119 1960 0000 0074 	.long0x74
 8120 1964 00        	.byte0
 8121 1965 00        	.byte0
 8122 1966 04        	.uleb128 0x4
 8123 1967 0000 0000 	.long.LASF363
 8124 196b 19        	.byte0x19
 8125 196c 055D      	.word0x55d
 8126 196e 0000 194F 	.long0x194f
 8127 1972 1B        	.uleb128 0x1b
 8128 1973 26        	.byte0x26
 8129 1974 19        	.byte0x19
 8130 1975 056B      	.word0x56b
 8131 1977 0000 1989 	.long0x1989
 8132 197b 18        	.uleb128 0x18
 8133 197c 0000 0000 	.long.LASF364
 8134 1980 19        	.byte0x19
 8135 1981 056D      	.word0x56d
 8136 1983 0000 0CD6 	.long0xcd6
 8137 1987 00        	.byte0
 8138 1988 00        	.byte0
 8139 1989 04        	.uleb128 0x4
 8140 198a 0000 0000 	.long.LASF365
 8141 198e 19        	.byte0x19
 8142 198f 056F      	.word0x56f
 8143 1991 0000 1972 	.long0x1972
 8144 1995 1B        	.uleb128 0x1b
 8145 1996 18        	.byte0x18
 8146 1997 19        	.byte0x19
 8147 1998 05C7      	.word0x5c7
 8148 199a 0000 19B9 	.long0x19b9
 8149 199e 18        	.uleb128 0x18
 8150 199f 0000 0000 	.long.LASF356
 8151 19a3 19        	.byte0x19
 8152 19a4 05C9      	.word0x5c9
 8153 19a6 0000 00C2 	.long0xc2
 8154 19aa 00        	.byte0
 8155 19ab 18        	.uleb128 0x18
 8156 19ac 0000 0000 	.long.LASF366
 8157 19b0 19        	.byte0x19
 8158 19b1 05CA      	.word0x5ca
 8159 19b3 0000 0A41 	.long0xa41
 8160 19b7 14        	.byte0x14
 8161 19b8 00        	.byte0
 8162 19b9 04        	.uleb128 0x4
68K GAS   			page 202


 8163 19ba 0000 0000 	.long.LASF367
 8164 19be 19        	.byte0x19
 8165 19bf 05CC      	.word0x5cc
 8166 19c1 0000 1995 	.long0x1995
 8167 19c5 1B        	.uleb128 0x1b
 8168 19c6 40        	.byte0x40
 8169 19c7 19        	.byte0x19
 8170 19c8 05DA      	.word0x5da
 8171 19ca 0000 19DC 	.long0x19dc
 8172 19ce 18        	.uleb128 0x18
 8173 19cf 0000 0000 	.long.LASF368
 8174 19d3 19        	.byte0x19
 8175 19d4 05DC      	.word0x5dc
 8176 19d6 0000 0A31 	.long0xa31
 8177 19da 00        	.byte0
 8178 19db 00        	.byte0
 8179 19dc 04        	.uleb128 0x4
 8180 19dd 0000 0000 	.long.LASF369
 8181 19e1 19        	.byte0x19
 8182 19e2 05DE      	.word0x5de
 8183 19e4 0000 19C5 	.long0x19c5
 8184 19e8 05        	.uleb128 0x5
 8185 19e9 0000 19DC 	.long0x19dc
 8186 19ed 1B        	.uleb128 0x1b
 8187 19ee BC        	.byte0xbc
 8188 19ef 19        	.byte0x19
 8189 19f0 05EE      	.word0x5ee
 8190 19f2 0000 1A04 	.long0x1a04
 8191 19f6 18        	.uleb128 0x18
 8192 19f7 0000 0000 	.long.LASF370
 8193 19fb 19        	.byte0x19
 8194 19fc 05F0      	.word0x5f0
 8195 19fe 0000 0B68 	.long0xb68
 8196 1a02 00        	.byte0
 8197 1a03 00        	.byte0
 8198 1a04 04        	.uleb128 0x4
 8199 1a05 0000 0000 	.long.LASF371
 8200 1a09 19        	.byte0x19
 8201 1a0a 05F2      	.word0x5f2
 8202 1a0c 0000 19ED 	.long0x19ed
 8203 1a10 1B        	.uleb128 0x1b
 8204 1a11 C8        	.byte0xc8
 8205 1a12 19        	.byte0x19
 8206 1a13 05F4      	.word0x5f4
 8207 1a15 0000 1A34 	.long0x1a34
 8208 1a19 18        	.uleb128 0x18
 8209 1a1a 0000 0000 	.long.LASF229
 8210 1a1e 19        	.byte0x19
 8211 1a1f 05F6      	.word0x5f6
 8212 1a21 0000 0E7A 	.long0xe7a
 8213 1a25 00        	.byte0
 8214 1a26 18        	.uleb128 0x18
 8215 1a27 0000 0000 	.long.LASF230
 8216 1a2b 19        	.byte0x19
 8217 1a2c 05F7      	.word0x5f7
 8218 1a2e 0000 1A04 	.long0x1a04
 8219 1a32 0C        	.byte0xc
68K GAS   			page 203


 8220 1a33 00        	.byte0
 8221 1a34 04        	.uleb128 0x4
 8222 1a35 0000 0000 	.long.LASF372
 8223 1a39 19        	.byte0x19
 8224 1a3a 05F8      	.word0x5f8
 8225 1a3c 0000 1A10 	.long0x1a10
 8226 1a40 1B        	.uleb128 0x1b
 8227 1a41 E0        	.byte0xe0
 8228 1a42 19        	.byte0x19
 8229 1a43 05FD      	.word0x5fd
 8230 1a45 0000 1A64 	.long0x1a64
 8231 1a49 18        	.uleb128 0x18
 8232 1a4a 0000 0000 	.long.LASF366
 8233 1a4e 19        	.byte0x19
 8234 1a4f 05FF      	.word0x5ff
 8235 1a51 0000 0A41 	.long0xa41
 8236 1a55 00        	.byte0
 8237 1a56 18        	.uleb128 0x18
 8238 1a57 0000 0000 	.long.LASF373
 8239 1a5b 19        	.byte0x19
 8240 1a5c 0601      	.word0x601
 8241 1a5e 0000 0C73 	.long0xc73
 8242 1a62 04        	.byte0x4
 8243 1a63 00        	.byte0
 8244 1a64 04        	.uleb128 0x4
 8245 1a65 0000 0000 	.long.LASF374
 8246 1a69 19        	.byte0x19
 8247 1a6a 0602      	.word0x602
 8248 1a6c 0000 1A40 	.long0x1a40
 8249 1a70 1B        	.uleb128 0x1b
 8250 1a71 EC        	.byte0xec
 8251 1a72 19        	.byte0x19
 8252 1a73 0604      	.word0x604
 8253 1a75 0000 1A94 	.long0x1a94
 8254 1a79 18        	.uleb128 0x18
 8255 1a7a 0000 0000 	.long.LASF229
 8256 1a7e 19        	.byte0x19
 8257 1a7f 0606      	.word0x606
 8258 1a81 0000 0E7A 	.long0xe7a
 8259 1a85 00        	.byte0
 8260 1a86 18        	.uleb128 0x18
 8261 1a87 0000 0000 	.long.LASF230
 8262 1a8b 19        	.byte0x19
 8263 1a8c 0607      	.word0x607
 8264 1a8e 0000 1A64 	.long0x1a64
 8265 1a92 0C        	.byte0xc
 8266 1a93 00        	.byte0
 8267 1a94 04        	.uleb128 0x4
 8268 1a95 0000 0000 	.long.LASF375
 8269 1a99 19        	.byte0x19
 8270 1a9a 0608      	.word0x608
 8271 1a9c 0000 1A70 	.long0x1a70
 8272 1aa0 1B        	.uleb128 0x1b
 8273 1aa1 90        	.byte0x90
 8274 1aa2 19        	.byte0x19
 8275 1aa3 060F      	.word0x60f
 8276 1aa5 0000 1C98 	.long0x1c98
68K GAS   			page 204


 8277 1aa9 18        	.uleb128 0x18
 8278 1aaa 0000 0000 	.long.LASF376
 8279 1aae 19        	.byte0x19
 8280 1aaf 0611      	.word0x611
 8281 1ab1 0000 0069 	.long0x69
 8282 1ab5 00        	.byte0
 8283 1ab6 18        	.uleb128 0x18
 8284 1ab7 0000 0000 	.long.LASF377
 8285 1abb 19        	.byte0x19
 8286 1abc 0613      	.word0x613
 8287 1abe 0000 0069 	.long0x69
 8288 1ac2 01        	.byte0x1
 8289 1ac3 18        	.uleb128 0x18
 8290 1ac4 0000 0000 	.long.LASF378
 8291 1ac8 19        	.byte0x19
 8292 1ac9 0616      	.word0x616
 8293 1acb 0000 0074 	.long0x74
 8294 1acf 02        	.byte0x2
 8295 1ad0 18        	.uleb128 0x18
 8296 1ad1 0000 0000 	.long.LASF379
 8297 1ad5 19        	.byte0x19
 8298 1ad6 0618      	.word0x618
 8299 1ad8 0000 0069 	.long0x69
 8300 1adc 04        	.byte0x4
 8301 1add 18        	.uleb128 0x18
 8302 1ade 0000 0000 	.long.LASF380
 8303 1ae2 19        	.byte0x19
 8304 1ae3 061A      	.word0x61a
 8305 1ae5 0000 0069 	.long0x69
 8306 1ae9 05        	.byte0x5
 8307 1aea 18        	.uleb128 0x18
 8308 1aeb 0000 0000 	.long.LASF381
 8309 1aef 19        	.byte0x19
 8310 1af0 061C      	.word0x61c
 8311 1af2 0000 0069 	.long0x69
 8312 1af6 06        	.byte0x6
 8313 1af7 18        	.uleb128 0x18
 8314 1af8 0000 0000 	.long.LASF382
 8315 1afc 19        	.byte0x19
 8316 1afd 061E      	.word0x61e
 8317 1aff 0000 0069 	.long0x69
 8318 1b03 07        	.byte0x7
 8319 1b04 18        	.uleb128 0x18
 8320 1b05 0000 0000 	.long.LASF383
 8321 1b09 19        	.byte0x19
 8322 1b0a 0620      	.word0x620
 8323 1b0c 0000 0069 	.long0x69
 8324 1b10 08        	.byte0x8
 8325 1b11 18        	.uleb128 0x18
 8326 1b12 0000 0000 	.long.LASF384
 8327 1b16 19        	.byte0x19
 8328 1b17 0622      	.word0x622
 8329 1b19 0000 0069 	.long0x69
 8330 1b1d 09        	.byte0x9
 8331 1b1e 18        	.uleb128 0x18
 8332 1b1f 0000 0000 	.long.LASF385
 8333 1b23 19        	.byte0x19
68K GAS   			page 205


 8334 1b24 0624      	.word0x624
 8335 1b26 0000 0069 	.long0x69
 8336 1b2a 0A        	.byte0xa
 8337 1b2b 18        	.uleb128 0x18
 8338 1b2c 0000 0000 	.long.LASF386
 8339 1b30 19        	.byte0x19
 8340 1b31 0626      	.word0x626
 8341 1b33 0000 0069 	.long0x69
 8342 1b37 0B        	.byte0xb
 8343 1b38 18        	.uleb128 0x18
 8344 1b39 0000 0000 	.long.LASF387
 8345 1b3d 19        	.byte0x19
 8346 1b3e 0629      	.word0x629
 8347 1b40 0000 0086 	.long0x86
 8348 1b44 0C        	.byte0xc
 8349 1b45 18        	.uleb128 0x18
 8350 1b46 0000 0000 	.long.LASF388
 8351 1b4a 19        	.byte0x19
 8352 1b4b 062B      	.word0x62b
 8353 1b4d 0000 0086 	.long0x86
 8354 1b51 10        	.byte0x10
 8355 1b52 18        	.uleb128 0x18
 8356 1b53 0000 0000 	.long.LASF389
 8357 1b57 19        	.byte0x19
 8358 1b58 062D      	.word0x62d
 8359 1b5a 0000 0086 	.long0x86
 8360 1b5e 14        	.byte0x14
 8361 1b5f 18        	.uleb128 0x18
 8362 1b60 0000 0000 	.long.LASF390
 8363 1b64 19        	.byte0x19
 8364 1b65 062F      	.word0x62f
 8365 1b67 0000 0086 	.long0x86
 8366 1b6b 18        	.byte0x18
 8367 1b6c 18        	.uleb128 0x18
 8368 1b6d 0000 0000 	.long.LASF289
 8369 1b71 19        	.byte0x19
 8370 1b72 0632      	.word0x632
 8371 1b74 0000 0086 	.long0x86
 8372 1b78 1C        	.byte0x1c
 8373 1b79 18        	.uleb128 0x18
 8374 1b7a 0000 0000 	.long.LASF290
 8375 1b7e 19        	.byte0x19
 8376 1b7f 0634      	.word0x634
 8377 1b81 0000 0086 	.long0x86
 8378 1b85 20        	.byte0x20
 8379 1b86 18        	.uleb128 0x18
 8380 1b87 0000 0000 	.long.LASF391
 8381 1b8b 19        	.byte0x19
 8382 1b8c 0637      	.word0x637
 8383 1b8e 0000 0086 	.long0x86
 8384 1b92 24        	.byte0x24
 8385 1b93 18        	.uleb128 0x18
 8386 1b94 0000 0000 	.long.LASF392
 8387 1b98 19        	.byte0x19
 8388 1b99 0639      	.word0x639
 8389 1b9b 0000 0086 	.long0x86
 8390 1b9f 28        	.byte0x28
68K GAS   			page 206


 8391 1ba0 18        	.uleb128 0x18
 8392 1ba1 0000 0000 	.long.LASF393
 8393 1ba5 19        	.byte0x19
 8394 1ba6 063B      	.word0x63b
 8395 1ba8 0000 0086 	.long0x86
 8396 1bac 2C        	.byte0x2c
 8397 1bad 18        	.uleb128 0x18
 8398 1bae 0000 0000 	.long.LASF394
 8399 1bb2 19        	.byte0x19
 8400 1bb3 063D      	.word0x63d
 8401 1bb5 0000 0086 	.long0x86
 8402 1bb9 30        	.byte0x30
 8403 1bba 18        	.uleb128 0x18
 8404 1bbb 0000 0000 	.long.LASF245
 8405 1bbf 19        	.byte0x19
 8406 1bc0 0640      	.word0x640
 8407 1bc2 0000 0086 	.long0x86
 8408 1bc6 34        	.byte0x34
 8409 1bc7 18        	.uleb128 0x18
 8410 1bc8 0000 0000 	.long.LASF246
 8411 1bcc 19        	.byte0x19
 8412 1bcd 0642      	.word0x642
 8413 1bcf 0000 0086 	.long0x86
 8414 1bd3 38        	.byte0x38
 8415 1bd4 18        	.uleb128 0x18
 8416 1bd5 0000 0000 	.long.LASF395
 8417 1bd9 19        	.byte0x19
 8418 1bda 0644      	.word0x644
 8419 1bdc 0000 0086 	.long0x86
 8420 1be0 3C        	.byte0x3c
 8421 1be1 18        	.uleb128 0x18
 8422 1be2 0000 0000 	.long.LASF396
 8423 1be6 19        	.byte0x19
 8424 1be7 0646      	.word0x646
 8425 1be9 0000 0086 	.long0x86
 8426 1bed 40        	.byte0x40
 8427 1bee 18        	.uleb128 0x18
 8428 1bef 0000 0000 	.long.LASF247
 8429 1bf3 19        	.byte0x19
 8430 1bf4 0648      	.word0x648
 8431 1bf6 0000 0086 	.long0x86
 8432 1bfa 44        	.byte0x44
 8433 1bfb 18        	.uleb128 0x18
 8434 1bfc 0000 0000 	.long.LASF397
 8435 1c00 19        	.byte0x19
 8436 1c01 064B      	.word0x64b
 8437 1c03 0000 0086 	.long0x86
 8438 1c07 48        	.byte0x48
 8439 1c08 18        	.uleb128 0x18
 8440 1c09 0000 0000 	.long.LASF398
 8441 1c0d 19        	.byte0x19
 8442 1c0e 064D      	.word0x64d
 8443 1c10 0000 0086 	.long0x86
 8444 1c14 4C        	.byte0x4c
 8445 1c15 18        	.uleb128 0x18
 8446 1c16 0000 0000 	.long.LASF399
 8447 1c1a 19        	.byte0x19
68K GAS   			page 207


 8448 1c1b 064F      	.word0x64f
 8449 1c1d 0000 0086 	.long0x86
 8450 1c21 50        	.byte0x50
 8451 1c22 18        	.uleb128 0x18
 8452 1c23 0000 0000 	.long.LASF400
 8453 1c27 19        	.byte0x19
 8454 1c28 0651      	.word0x651
 8455 1c2a 0000 11D9 	.long0x11d9
 8456 1c2e 54        	.byte0x54
 8457 1c2f 18        	.uleb128 0x18
 8458 1c30 0000 0000 	.long.LASF401
 8459 1c34 19        	.byte0x19
 8460 1c35 0653      	.word0x653
 8461 1c37 0000 11D9 	.long0x11d9
 8462 1c3b 64        	.byte0x64
 8463 1c3c 18        	.uleb128 0x18
 8464 1c3d 0000 0000 	.long.LASF402
 8465 1c41 19        	.byte0x19
 8466 1c42 0655      	.word0x655
 8467 1c44 0000 0086 	.long0x86
 8468 1c48 74        	.byte0x74
 8469 1c49 18        	.uleb128 0x18
 8470 1c4a 0000 0000 	.long.LASF403
 8471 1c4e 19        	.byte0x19
 8472 1c4f 0657      	.word0x657
 8473 1c51 0000 0086 	.long0x86
 8474 1c55 78        	.byte0x78
 8475 1c56 18        	.uleb128 0x18
 8476 1c57 0000 0000 	.long.LASF404
 8477 1c5b 19        	.byte0x19
 8478 1c5c 0659      	.word0x659
 8479 1c5e 0000 0086 	.long0x86
 8480 1c62 7C        	.byte0x7c
 8481 1c63 18        	.uleb128 0x18
 8482 1c64 0000 0000 	.long.LASF405
 8483 1c68 19        	.byte0x19
 8484 1c69 065B      	.word0x65b
 8485 1c6b 0000 0086 	.long0x86
 8486 1c6f 80        	.byte0x80
 8487 1c70 18        	.uleb128 0x18
 8488 1c71 0000 0000 	.long.LASF406
 8489 1c75 19        	.byte0x19
 8490 1c76 065D      	.word0x65d
 8491 1c78 0000 0086 	.long0x86
 8492 1c7c 84        	.byte0x84
 8493 1c7d 18        	.uleb128 0x18
 8494 1c7e 0000 0000 	.long.LASF407
 8495 1c82 19        	.byte0x19
 8496 1c83 065F      	.word0x65f
 8497 1c85 0000 0086 	.long0x86
 8498 1c89 88        	.byte0x88
 8499 1c8a 18        	.uleb128 0x18
 8500 1c8b 0000 0000 	.long.LASF408
 8501 1c8f 19        	.byte0x19
 8502 1c90 0661      	.word0x661
 8503 1c92 0000 0086 	.long0x86
 8504 1c96 8C        	.byte0x8c
68K GAS   			page 208


 8505 1c97 00        	.byte0
 8506 1c98 04        	.uleb128 0x4
 8507 1c99 0000 0000 	.long.LASF409
 8508 1c9d 19        	.byte0x19
 8509 1c9e 0663      	.word0x663
 8510 1ca0 0000 1AA0 	.long0x1aa0
 8511 1ca4 1B        	.uleb128 0x1b
 8512 1ca5 9C        	.byte0x9c
 8513 1ca6 19        	.byte0x19
 8514 1ca7 0665      	.word0x665
 8515 1ca9 0000 1CC8 	.long0x1cc8
 8516 1cad 18        	.uleb128 0x18
 8517 1cae 0000 0000 	.long.LASF229
 8518 1cb2 19        	.byte0x19
 8519 1cb3 0667      	.word0x667
 8520 1cb5 0000 0E7A 	.long0xe7a
 8521 1cb9 00        	.byte0
 8522 1cba 18        	.uleb128 0x18
 8523 1cbb 0000 0000 	.long.LASF230
 8524 1cbf 19        	.byte0x19
 8525 1cc0 0668      	.word0x668
 8526 1cc2 0000 1C98 	.long0x1c98
 8527 1cc6 0C        	.byte0xc
 8528 1cc7 00        	.byte0
 8529 1cc8 04        	.uleb128 0x4
 8530 1cc9 0000 0000 	.long.LASF410
 8531 1ccd 19        	.byte0x19
 8532 1cce 066A      	.word0x66a
 8533 1cd0 0000 1CA4 	.long0x1ca4
 8534 1cd4 1B        	.uleb128 0x1b
 8535 1cd5 40        	.byte0x40
 8536 1cd6 19        	.byte0x19
 8537 1cd7 066F      	.word0x66f
 8538 1cd9 0000 1CEB 	.long0x1ceb
 8539 1cdd 18        	.uleb128 0x18
 8540 1cde 0000 0000 	.long.LASF411
 8541 1ce2 19        	.byte0x19
 8542 1ce3 0671      	.word0x671
 8543 1ce5 0000 0A31 	.long0xa31
 8544 1ce9 00        	.byte0
 8545 1cea 00        	.byte0
 8546 1ceb 04        	.uleb128 0x4
 8547 1cec 0000 0000 	.long.LASF412
 8548 1cf0 19        	.byte0x19
 8549 1cf1 0673      	.word0x673
 8550 1cf3 0000 1CD4 	.long0x1cd4
 8551 1cf7 1B        	.uleb128 0x1b
 8552 1cf8 4C        	.byte0x4c
 8553 1cf9 19        	.byte0x19
 8554 1cfa 0675      	.word0x675
 8555 1cfc 0000 1D1B 	.long0x1d1b
 8556 1d00 18        	.uleb128 0x18
 8557 1d01 0000 0000 	.long.LASF229
 8558 1d05 19        	.byte0x19
 8559 1d06 0677      	.word0x677
 8560 1d08 0000 0E7A 	.long0xe7a
 8561 1d0c 00        	.byte0
68K GAS   			page 209


 8562 1d0d 18        	.uleb128 0x18
 8563 1d0e 0000 0000 	.long.LASF230
 8564 1d12 19        	.byte0x19
 8565 1d13 0678      	.word0x678
 8566 1d15 0000 1CEB 	.long0x1ceb
 8567 1d19 0C        	.byte0xc
 8568 1d1a 00        	.byte0
 8569 1d1b 04        	.uleb128 0x4
 8570 1d1c 0000 0000 	.long.LASF413
 8571 1d20 19        	.byte0x19
 8572 1d21 0679      	.word0x679
 8573 1d23 0000 1CF7 	.long0x1cf7
 8574 1d27 08        	.uleb128 0x8
 8575 1d28 4C        	.byte0x4c
 8576 1d29 1A        	.byte0x1a
 8577 1d2a 60        	.byte0x60
 8578 1d2b 0000 1D60 	.long0x1d60
 8579 1d2f 09        	.uleb128 0x9
 8580 1d30 0000 0000 	.long.LASF414
 8581 1d34 1A        	.byte0x1a
 8582 1d35 61        	.byte0x61
 8583 1d36 0000 0086 	.long0x86
 8584 1d3a 00        	.byte0
 8585 1d3b 09        	.uleb128 0x9
 8586 1d3c 0000 0000 	.long.LASF415
 8587 1d40 1A        	.byte0x1a
 8588 1d41 62        	.byte0x62
 8589 1d42 0000 0086 	.long0x86
 8590 1d46 04        	.byte0x4
 8591 1d47 09        	.uleb128 0x9
 8592 1d48 0000 0000 	.long.LASF416
 8593 1d4c 1A        	.byte0x1a
 8594 1d4d 63        	.byte0x63
 8595 1d4e 0000 0A31 	.long0xa31
 8596 1d52 08        	.byte0x8
 8597 1d53 09        	.uleb128 0x9
 8598 1d54 0000 0000 	.long.LASF417
 8599 1d58 1A        	.byte0x1a
 8600 1d59 64        	.byte0x64
 8601 1d5a 0000 0050 	.long0x50
 8602 1d5e 48        	.byte0x48
 8603 1d5f 00        	.byte0
 8604 1d60 02        	.uleb128 0x2
 8605 1d61 0000 0000 	.long.LASF418
 8606 1d65 1A        	.byte0x1a
 8607 1d66 65        	.byte0x65
 8608 1d67 0000 1D27 	.long0x1d27
 8609 1d6b 20        	.uleb128 0x20
 8610 1d6c 0000 0000 	.long.LASF419
 8611 1d70 1A        	.byte0x1a
 8612 1d71 67        	.byte0x67
 8613 1d72 0000 1D60 	.long0x1d60
 8614 1d76 08        	.uleb128 0x8
 8615 1d77 1C        	.byte0x1c
 8616 1d78 1B        	.byte0x1b
 8617 1d79 67        	.byte0x67
 8618 1d7a 0000 1DA3 	.long0x1da3
68K GAS   			page 210


 8619 1d7e 09        	.uleb128 0x9
 8620 1d7f 0000 0000 	.long.LASF306
 8621 1d83 1B        	.byte0x1b
 8622 1d84 69        	.byte0x69
 8623 1d85 0000 00AA 	.long0xaa
 8624 1d89 00        	.byte0
 8625 1d8a 09        	.uleb128 0x9
 8626 1d8b 0000 0000 	.long.LASF420
 8627 1d8f 1B        	.byte0x1b
 8628 1d90 6A        	.byte0x6a
 8629 1d91 0000 0086 	.long0x86
 8630 1d95 04        	.byte0x4
 8631 1d96 09        	.uleb128 0x9
 8632 1d97 0000 0000 	.long.LASF421
 8633 1d9b 1B        	.byte0x1b
 8634 1d9c 6B        	.byte0x6b
 8635 1d9d 0000 00C2 	.long0xc2
 8636 1da1 08        	.byte0x8
 8637 1da2 00        	.byte0
 8638 1da3 02        	.uleb128 0x2
 8639 1da4 0000 0000 	.long.LASF422
 8640 1da8 1B        	.byte0x1b
 8641 1da9 6C        	.byte0x6c
 8642 1daa 0000 1D76 	.long0x1d76
 8643 1dae 22        	.uleb128 0x22
 8644 1daf 87FC      	.word0x87fc
 8645 1db1 1B        	.byte0x1b
 8646 1db2 74        	.byte0x74
 8647 1db3 0000 1E67 	.long0x1e67
 8648 1db7 09        	.uleb128 0x9
 8649 1db8 0000 0000 	.long.LASF250
 8650 1dbc 1B        	.byte0x1b
 8651 1dbd 79        	.byte0x79
 8652 1dbe 0000 1024 	.long0x1024
 8653 1dc2 00        	.byte0
 8654 1dc3 09        	.uleb128 0x9
 8655 1dc4 0000 0000 	.long.LASF423
 8656 1dc8 1B        	.byte0x1b
 8657 1dc9 7E        	.byte0x7e
 8658 1dca 0000 0086 	.long0x86
 8659 1dce 10        	.byte0x10
 8660 1dcf 09        	.uleb128 0x9
 8661 1dd0 0000 0000 	.long.LASF424
 8662 1dd4 1B        	.byte0x1b
 8663 1dd5 83        	.byte0x83
 8664 1dd6 0000 0086 	.long0x86
 8665 1dda 14        	.byte0x14
 8666 1ddb 09        	.uleb128 0x9
 8667 1ddc 0000 0000 	.long.LASF425
 8668 1de0 1B        	.byte0x1b
 8669 1de1 84        	.byte0x84
 8670 1de2 0000 0086 	.long0x86
 8671 1de6 18        	.byte0x18
 8672 1de7 09        	.uleb128 0x9
 8673 1de8 0000 0000 	.long.LASF426
 8674 1dec 1B        	.byte0x1b
 8675 1ded 85        	.byte0x85
68K GAS   			page 211


 8676 1dee 0000 0086 	.long0x86
 8677 1df2 1C        	.byte0x1c
 8678 1df3 09        	.uleb128 0x9
 8679 1df4 0000 0000 	.long.LASF393
 8680 1df8 1B        	.byte0x1b
 8681 1df9 8A        	.byte0x8a
 8682 1dfa 0000 0086 	.long0x86
 8683 1dfe 20        	.byte0x20
 8684 1dff 09        	.uleb128 0x9
 8685 1e00 0000 0000 	.long.LASF427
 8686 1e04 1B        	.byte0x1b
 8687 1e05 8B        	.byte0x8b
 8688 1e06 0000 1E67 	.long0x1e67
 8689 1e0a 24        	.byte0x24
 8690 1e0b 13        	.uleb128 0x13
 8691 1e0c 0000 0000 	.long.LASF391
 8692 1e10 1B        	.byte0x1b
 8693 1e11 90        	.byte0x90
 8694 1e12 0000 0086 	.long0x86
 8695 1e16 0924      	.word0x924
 8696 1e18 13        	.uleb128 0x13
 8697 1e19 0000 0000 	.long.LASF392
 8698 1e1d 1B        	.byte0x1b
 8699 1e1e 91        	.byte0x91
 8700 1e1f 0000 0086 	.long0x86
 8701 1e23 0928      	.word0x928
 8702 1e25 13        	.uleb128 0x13
 8703 1e26 0000 0000 	.long.LASF428
 8704 1e2a 1B        	.byte0x1b
 8705 1e2b 92        	.byte0x92
 8706 1e2c 0000 1E77 	.long0x1e77
 8707 1e30 092C      	.word0x92c
 8708 1e32 13        	.uleb128 0x13
 8709 1e33 0000 0000 	.long.LASF394
 8710 1e37 1B        	.byte0x1b
 8711 1e38 97        	.byte0x97
 8712 1e39 0000 0086 	.long0x86
 8713 1e3d 1E2C      	.word0x1e2c
 8714 1e3f 13        	.uleb128 0x13
 8715 1e40 0000 0000 	.long.LASF429
 8716 1e44 1B        	.byte0x1b
 8717 1e45 98        	.byte0x98
 8718 1e46 0000 1E87 	.long0x1e87
 8719 1e4a 1E30      	.word0x1e30
 8720 1e4c 13        	.uleb128 0x13
 8721 1e4d 0000 0000 	.long.LASF430
 8722 1e51 1B        	.byte0x1b
 8723 1e52 9D        	.byte0x9d
 8724 1e53 0000 1E97 	.long0x1e97
 8725 1e57 1F04      	.word0x1f04
 8726 1e59 13        	.uleb128 0x13
 8727 1e5a 0000 0000 	.long.LASF431
 8728 1e5e 1B        	.byte0x1b
 8729 1e5f A2        	.byte0xa2
 8730 1e60 0000 178B 	.long0x178b
 8731 1e64 1FE4      	.word0x1fe4
 8732 1e66 00        	.byte0
68K GAS   			page 212


 8733 1e67 06        	.uleb128 0x6
 8734 1e68 0000 154F 	.long0x154f
 8735 1e6c 0000 1E77 	.long0x1e77
 8736 1e70 07        	.uleb128 0x7
 8737 1e71 0000 0091 	.long0x91
 8738 1e75 3F        	.byte0x3f
 8739 1e76 00        	.byte0
 8740 1e77 06        	.uleb128 0x6
 8741 1e78 0000 14FF 	.long0x14ff
 8742 1e7c 0000 1E87 	.long0x1e87
 8743 1e80 07        	.uleb128 0x7
 8744 1e81 0000 0091 	.long0x91
 8745 1e85 1F        	.byte0x1f
 8746 1e86 00        	.byte0
 8747 1e87 06        	.uleb128 0x6
 8748 1e88 0000 157B 	.long0x157b
 8749 1e8c 0000 1E97 	.long0x1e97
 8750 1e90 07        	.uleb128 0x7
 8751 1e91 0000 0091 	.long0x91
 8752 1e95 09        	.byte0x9
 8753 1e96 00        	.byte0
 8754 1e97 06        	.uleb128 0x6
 8755 1e98 0000 1DA3 	.long0x1da3
 8756 1e9c 0000 1EA7 	.long0x1ea7
 8757 1ea0 07        	.uleb128 0x7
 8758 1ea1 0000 0091 	.long0x91
 8759 1ea5 07        	.byte0x7
 8760 1ea6 00        	.byte0
 8761 1ea7 02        	.uleb128 0x2
 8762 1ea8 0000 0000 	.long.LASF432
 8763 1eac 1B        	.byte0x1b
 8764 1ead A4        	.byte0xa4
 8765 1eae 0000 1DAE 	.long0x1dae
 8766 1eb2 20        	.uleb128 0x20
 8767 1eb3 0000 0000 	.long.LASF433
 8768 1eb7 1B        	.byte0x1b
 8769 1eb8 A9        	.byte0xa9
 8770 1eb9 0000 1EA7 	.long0x1ea7
 8771 1ebd 20        	.uleb128 0x20
 8772 1ebe 0000 0000 	.long.LASF434
 8773 1ec2 1B        	.byte0x1b
 8774 1ec3 AE        	.byte0xae
 8775 1ec4 0000 1EC8 	.long0x1ec8
 8776 1ec8 0E        	.uleb128 0xe
 8777 1ec9 04        	.byte0x4
 8778 1eca 0000 13CB 	.long0x13cb
 8779 1ece 22        	.uleb128 0x22
 8780 1ecf 02C0      	.word0x2c0
 8781 1ed1 1C        	.byte0x1c
 8782 1ed2 69        	.byte0x69
 8783 1ed3 0000 1F6F 	.long0x1f6f
 8784 1ed7 09        	.uleb128 0x9
 8785 1ed8 0000 0000 	.long.LASF376
 8786 1edc 1C        	.byte0x1c
 8787 1edd 6E        	.byte0x6e
 8788 1ede 0000 0069 	.long0x69
 8789 1ee2 00        	.byte0
68K GAS   			page 213


 8790 1ee3 09        	.uleb128 0x9
 8791 1ee4 0000 0000 	.long.LASF377
 8792 1ee8 1C        	.byte0x1c
 8793 1ee9 6F        	.byte0x6f
 8794 1eea 0000 0069 	.long0x69
 8795 1eee 01        	.byte0x1
 8796 1eef 09        	.uleb128 0x9
 8797 1ef0 0000 0000 	.long.LASF435
 8798 1ef4 1C        	.byte0x1c
 8799 1ef5 74        	.byte0x74
 8800 1ef6 0000 1CC8 	.long0x1cc8
 8801 1efa 04        	.byte0x4
 8802 1efb 09        	.uleb128 0x9
 8803 1efc 0000 0000 	.long.LASF436
 8804 1f00 1C        	.byte0x1c
 8805 1f01 7A        	.byte0x7a
 8806 1f02 0000 1D1B 	.long0x1d1b
 8807 1f06 A0        	.byte0xa0
 8808 1f07 09        	.uleb128 0x9
 8809 1f08 0000 0000 	.long.LASF437
 8810 1f0c 1C        	.byte0x1c
 8811 1f0d 7F        	.byte0x7f
 8812 1f0e 0000 1A34 	.long0x1a34
 8813 1f12 EC        	.byte0xec
 8814 1f13 13        	.uleb128 0x13
 8815 1f14 0000 0000 	.long.LASF438
 8816 1f18 1C        	.byte0x1c
 8817 1f19 84        	.byte0x84
 8818 1f1a 0000 1A94 	.long0x1a94
 8819 1f1e 01B4      	.word0x1b4
 8820 1f20 13        	.uleb128 0x13
 8821 1f21 0000 0000 	.long.LASF439
 8822 1f25 1C        	.byte0x1c
 8823 1f26 89        	.byte0x89
 8824 1f27 0000 0E32 	.long0xe32
 8825 1f2b 02A0      	.word0x2a0
 8826 1f2d 13        	.uleb128 0x13
 8827 1f2e 0000 0000 	.long.LASF440
 8828 1f32 1C        	.byte0x1c
 8829 1f33 8A        	.byte0x8a
 8830 1f34 0000 0E1C 	.long0xe1c
 8831 1f38 02A4      	.word0x2a4
 8832 1f3a 13        	.uleb128 0x13
 8833 1f3b 0000 0000 	.long.LASF441
 8834 1f3f 1C        	.byte0x1c
 8835 1f40 8F        	.byte0x8f
 8836 1f41 0000 00C2 	.long0xc2
 8837 1f45 02A5      	.word0x2a5
 8838 1f47 13        	.uleb128 0x13
 8839 1f48 0000 0000 	.long.LASF442
 8840 1f4c 1C        	.byte0x1c
 8841 1f4d 90        	.byte0x90
 8842 1f4e 0000 0074 	.long0x74
 8843 1f52 02BA      	.word0x2ba
 8844 1f54 13        	.uleb128 0x13
 8845 1f55 0000 0000 	.long.LASF443
 8846 1f59 1C        	.byte0x1c
68K GAS   			page 214


 8847 1f5a 92        	.byte0x92
 8848 1f5b 0000 0069 	.long0x69
 8849 1f5f 02BC      	.word0x2bc
 8850 1f61 13        	.uleb128 0x13
 8851 1f62 0000 0000 	.long.LASF444
 8852 1f66 1C        	.byte0x1c
 8853 1f67 93        	.byte0x93
 8854 1f68 0000 0069 	.long0x69
 8855 1f6c 02BD      	.word0x2bd
 8856 1f6e 00        	.byte0
 8857 1f6f 02        	.uleb128 0x2
 8858 1f70 0000 0000 	.long.LASF445
 8859 1f74 1C        	.byte0x1c
 8860 1f75 95        	.byte0x95
 8861 1f76 0000 1ECE 	.long0x1ece
 8862 1f7a 20        	.uleb128 0x20
 8863 1f7b 0000 0000 	.long.LASF446
 8864 1f7f 1C        	.byte0x1c
 8865 1f80 9A        	.byte0x9a
 8866 1f81 0000 1F6F 	.long0x1f6f
 8867 1f85 26        	.uleb128 0x26
 8868 1f86 0000 1F7A 	.long0x1f7a
 8869 1f8a 01        	.byte0x1
 8870 1f8b A7        	.byte0xa7
 8871 1f8c 05        	.uleb128 0x5
 8872 1f8d 03        	.byte0x3
 8873 1f8e 0000 0000 	.longCFE_ES_TaskData
 8874 1f92 27        	.uleb128 0x27
 8875 1f93 0000 0000 	.long.LASF450
 8876 1f97 01        	.byte0x1
 8877 1f98 08A0      	.word0x8a0
 8878 1f9a 0000 0000 	.long.LFB89
 8879 1f9e 0000 002C 	.long.LFE89-.LFB89
 8880 1fa2 01        	.uleb128 0x1
 8881 1fa3 9C        	.byte0x9c
 8882 1fa4 0000 1FD6 	.long0x1fd6
 8883 1fa8 28        	.uleb128 0x28
 8884 1fa9 0000 0000 	.long.LASF447
 8885 1fad 01        	.byte0x1
 8886 1fae 08A0      	.word0x8a0
 8887 1fb0 0000 01BA 	.long0x1ba
 8888 1fb4 02        	.uleb128 0x2
 8889 1fb5 91        	.byte0x91
 8890 1fb6 00        	.sleb128 0
 8891 1fb7 28        	.uleb128 0x28
 8892 1fb8 0000 0000 	.long.LASF448
 8893 1fbc 01        	.byte0x1
 8894 1fbd 08A0      	.word0x8a0
 8895 1fbf 0000 0086 	.long0x86
 8896 1fc3 02        	.uleb128 0x2
 8897 1fc4 91        	.byte0x91
 8898 1fc5 04        	.sleb128 4
 8899 1fc6 28        	.uleb128 0x28
 8900 1fc7 0000 0000 	.long.LASF449
 8901 1fcb 01        	.byte0x1
 8902 1fcc 08A0      	.word0x8a0
 8903 1fce 0000 0086 	.long0x86
68K GAS   			page 215


 8904 1fd2 02        	.uleb128 0x2
 8905 1fd3 91        	.byte0x91
 8906 1fd4 08        	.sleb128 8
 8907 1fd5 00        	.byte0
 8908 1fd6 27        	.uleb128 0x27
 8909 1fd7 0000 0000 	.long.LASF451
 8910 1fdb 01        	.byte0x1
 8911 1fdc 082A      	.word0x82a
 8912 1fde 0000 0000 	.long.LFB88
 8913 1fe2 0000 0284 	.long.LFE88-.LFB88
 8914 1fe6 01        	.uleb128 0x1
 8915 1fe7 9C        	.byte0x9c
 8916 1fe8 0000 2095 	.long0x2095
 8917 1fec 28        	.uleb128 0x28
 8918 1fed 0000 0000 	.long.LASF452
 8919 1ff1 01        	.byte0x1
 8920 1ff2 082A      	.word0x82a
 8921 1ff4 0000 2095 	.long0x2095
 8922 1ff8 02        	.uleb128 0x2
 8923 1ff9 91        	.byte0x91
 8924 1ffa 00        	.sleb128 0
 8925 1ffb 29        	.uleb128 0x29
 8926 1ffc 0000 0000 	.long.LASF453
 8927 2000 01        	.byte0x1
 8928 2001 082C      	.word0x82c
 8929 2003 0000 0FE0 	.long0xfe0
 8930 2007 03        	.uleb128 0x3
 8931 2008 91        	.byte0x91
 8932 2009 A07F      	.sleb128 -96
 8933 200b 29        	.uleb128 0x29
 8934 200c 0000 0000 	.long.LASF454
 8935 2010 01        	.byte0x1
 8936 2011 082D      	.word0x82d
 8937 2013 0000 0050 	.long0x50
 8938 2017 02        	.uleb128 0x2
 8939 2018 91        	.byte0x91
 8940 2019 64        	.sleb128 -28
 8941 201a 29        	.uleb128 0x29
 8942 201b 0000 0000 	.long.LASF455
 8943 201f 01        	.byte0x1
 8944 2020 082E      	.word0x82e
 8945 2022 0000 0050 	.long0x50
 8946 2026 02        	.uleb128 0x2
 8947 2027 91        	.byte0x91
 8948 2028 78        	.sleb128 -8
 8949 2029 29        	.uleb128 0x29
 8950 202a 0000 0000 	.long.LASF456
 8951 202e 01        	.byte0x1
 8952 202f 082F      	.word0x82f
 8953 2031 0000 003E 	.long0x3e
 8954 2035 02        	.uleb128 0x2
 8955 2036 91        	.byte0x91
 8956 2037 76        	.sleb128 -10
 8957 2038 29        	.uleb128 0x29
 8958 2039 0000 0000 	.long.LASF457
 8959 203d 01        	.byte0x1
 8960 203e 0830      	.word0x830
68K GAS   			page 216


 8961 2040 0000 209B 	.long0x209b
 8962 2044 02        	.uleb128 0x2
 8963 2045 91        	.byte0x91
 8964 2046 68        	.sleb128 -24
 8965 2047 29        	.uleb128 0x29
 8966 2048 0000 0000 	.long.LASF368
 8967 204c 01        	.byte0x1
 8968 204d 0831      	.word0x831
 8969 204f 0000 0A31 	.long0xa31
 8970 2053 03        	.uleb128 0x3
 8971 2054 91        	.byte0x91
 8972 2055 E07E      	.sleb128 -160
 8973 2057 29        	.uleb128 0x29
 8974 2058 0000 0000 	.long.LASF458
 8975 205c 01        	.byte0x1
 8976 205d 0832      	.word0x832
 8977 205f 0000 20A1 	.long0x20a1
 8978 2063 02        	.uleb128 0x2
 8979 2064 91        	.byte0x91
 8980 2065 60        	.sleb128 -32
 8981 2066 29        	.uleb128 0x29
 8982 2067 0000 0000 	.long.LASF459
 8983 206b 01        	.byte0x1
 8984 206c 0833      	.word0x833
 8985 206e 0000 0CE6 	.long0xce6
 8986 2072 03        	.uleb128 0x3
 8987 2073 91        	.byte0x91
 8988 2074 B07E      	.sleb128 -208
 8989 2076 29        	.uleb128 0x29
 8990 2077 0000 0000 	.long.LASF460
 8991 207b 01        	.byte0x1
 8992 207c 0834      	.word0x834
 8993 207e 0000 0050 	.long0x50
 8994 2082 02        	.uleb128 0x2
 8995 2083 91        	.byte0x91
 8996 2084 70        	.sleb128 -16
 8997 2085 29        	.uleb128 0x29
 8998 2086 0000 0000 	.long.LASF461
 8999 208a 01        	.byte0x1
 9000 208b 0835      	.word0x835
 9001 208d 0000 0050 	.long0x50
 9002 2091 02        	.uleb128 0x2
 9003 2092 91        	.byte0x91
 9004 2093 6C        	.sleb128 -20
 9005 2094 00        	.byte0
 9006 2095 0E        	.uleb128 0xe
 9007 2096 04        	.byte0x4
 9008 2097 0000 0E17 	.long0xe17
 9009 209b 0E        	.uleb128 0xe
 9010 209c 04        	.byte0x4
 9011 209d 0000 19E8 	.long0x19e8
 9012 20a1 0E        	.uleb128 0xe
 9013 20a2 04        	.byte0x4
 9014 20a3 0000 171C 	.long0x171c
 9015 20a7 27        	.uleb128 0x27
 9016 20a8 0000 0000 	.long.LASF462
 9017 20ac 01        	.byte0x1
68K GAS   			page 217


 9018 20ad 07F5      	.word0x7f5
 9019 20af 0000 0000 	.long.LFB87
 9020 20b3 0000 00F4 	.long.LFE87-.LFB87
 9021 20b7 01        	.uleb128 0x1
 9022 20b8 9C        	.byte0x9c
 9023 20b9 0000 2109 	.long0x2109
 9024 20bd 2A        	.uleb128 0x2a
 9025 20be 4D73 6700 	.string"Msg"
 9026 20c2 01        	.byte0x1
 9027 20c3 07F5      	.word0x7f5
 9028 20c5 0000 0E32 	.long0xe32
 9029 20c9 02        	.uleb128 0x2
 9030 20ca 91        	.byte0x91
 9031 20cb 00        	.sleb128 0
 9032 20cc 29        	.uleb128 0x29
 9033 20cd 0000 0000 	.long.LASF463
 9034 20d1 01        	.byte0x1
 9035 20d2 07F7      	.word0x7f7
 9036 20d4 0000 0074 	.long0x74
 9037 20d8 02        	.uleb128 0x2
 9038 20d9 91        	.byte0x91
 9039 20da 7A        	.sleb128 -6
 9040 20db 2B        	.uleb128 0x2b
 9041 20dc 436D 6400 	.string"Cmd"
 9042 20e0 01        	.byte0x1
 9043 20e1 07F8      	.word0x7f8
 9044 20e3 0000 2109 	.long0x2109
 9045 20e7 02        	.uleb128 0x2
 9046 20e8 91        	.byte0x91
 9047 20e9 74        	.sleb128 -12
 9048 20ea 29        	.uleb128 0x29
 9049 20eb 0000 0000 	.long.LASF333
 9050 20ef 01        	.byte0x1
 9051 20f0 07F9      	.word0x7f9
 9052 20f2 0000 0A41 	.long0xa41
 9053 20f6 02        	.uleb128 0x2
 9054 20f7 91        	.byte0x91
 9055 20f8 70        	.sleb128 -16
 9056 20f9 29        	.uleb128 0x29
 9057 20fa 0000 0000 	.long.LASF464
 9058 20fe 01        	.byte0x1
 9059 20ff 07FA      	.word0x7fa
 9060 2101 0000 00AA 	.long0xaa
 9061 2105 02        	.uleb128 0x2
 9062 2106 91        	.byte0x91
 9063 2107 6F        	.sleb128 -17
 9064 2108 00        	.byte0
 9065 2109 0E        	.uleb128 0xe
 9066 210a 04        	.byte0x4
 9067 210b 0000 19B9 	.long0x19b9
 9068 210f 27        	.uleb128 0x27
 9069 2110 0000 0000 	.long.LASF465
 9070 2114 01        	.byte0x1
 9071 2115 07B2      	.word0x7b2
 9072 2117 0000 0000 	.long.LFB86
 9073 211b 0000 0190 	.long.LFE86-.LFB86
 9074 211f 01        	.uleb128 0x1
68K GAS   			page 218


 9075 2120 9C        	.byte0x9c
 9076 2121 0000 2171 	.long0x2171
 9077 2125 2A        	.uleb128 0x2a
 9078 2126 4D73 6700 	.string"Msg"
 9079 212a 01        	.byte0x1
 9080 212b 07B2      	.word0x7b2
 9081 212d 0000 0E32 	.long0xe32
 9082 2131 02        	.uleb128 0x2
 9083 2132 91        	.byte0x91
 9084 2133 00        	.sleb128 0
 9085 2134 29        	.uleb128 0x29
 9086 2135 0000 0000 	.long.LASF463
 9087 2139 01        	.byte0x1
 9088 213a 07B4      	.word0x7b4
 9089 213c 0000 0074 	.long0x74
 9090 2140 02        	.uleb128 0x2
 9091 2141 91        	.byte0x91
 9092 2142 7A        	.sleb128 -6
 9093 2143 29        	.uleb128 0x29
 9094 2144 0000 0000 	.long.LASF455
 9095 2148 01        	.byte0x1
 9096 2149 07B5      	.word0x7b5
 9097 214b 0000 0050 	.long0x50
 9098 214f 02        	.uleb128 0x2
 9099 2150 91        	.byte0x91
 9100 2151 70        	.sleb128 -16
 9101 2152 2B        	.uleb128 0x2b
 9102 2153 636D 6400 	.string"cmd"
 9103 2157 01        	.byte0x1
 9104 2158 07B6      	.word0x7b6
 9105 215a 0000 2171 	.long0x2171
 9106 215e 02        	.uleb128 0x2
 9107 215f 91        	.byte0x91
 9108 2160 74        	.sleb128 -12
 9109 2161 29        	.uleb128 0x29
 9110 2162 0000 0000 	.long.LASF466
 9111 2166 01        	.byte0x1
 9112 2167 07B7      	.word0x7b7
 9113 2169 0000 0CD6 	.long0xcd6
 9114 216d 02        	.uleb128 0x2
 9115 216e 91        	.byte0x91
 9116 216f 4A        	.sleb128 -54
 9117 2170 00        	.byte0
 9118 2171 0E        	.uleb128 0xe
 9119 2172 04        	.byte0x4
 9120 2173 0000 1989 	.long0x1989
 9121 2177 27        	.uleb128 0x27
 9122 2178 0000 0000 	.long.LASF467
 9123 217c 01        	.byte0x1
 9124 217d 0790      	.word0x790
 9125 217f 0000 0000 	.long.LFB85
 9126 2183 0000 0082 	.long.LFE85-.LFB85
 9127 2187 01        	.uleb128 0x1
 9128 2188 9C        	.byte0x9c
 9129 2189 0000 21BB 	.long0x21bb
 9130 218d 2A        	.uleb128 0x2a
 9131 218e 4D73 6700 	.string"Msg"
68K GAS   			page 219


 9132 2192 01        	.byte0x1
 9133 2193 0790      	.word0x790
 9134 2195 0000 0E32 	.long0xe32
 9135 2199 02        	.uleb128 0x2
 9136 219a 91        	.byte0x91
 9137 219b 00        	.sleb128 0
 9138 219c 2B        	.uleb128 0x2b
 9139 219d 636D 6400 	.string"cmd"
 9140 21a1 01        	.byte0x1
 9141 21a2 0792      	.word0x792
 9142 21a4 0000 21BB 	.long0x21bb
 9143 21a8 02        	.uleb128 0x2
 9144 21a9 91        	.byte0x91
 9145 21aa 78        	.sleb128 -8
 9146 21ab 29        	.uleb128 0x29
 9147 21ac 0000 0000 	.long.LASF463
 9148 21b0 01        	.byte0x1
 9149 21b1 0793      	.word0x793
 9150 21b3 0000 0074 	.long0x74
 9151 21b7 02        	.uleb128 0x2
 9152 21b8 91        	.byte0x91
 9153 21b9 76        	.sleb128 -10
 9154 21ba 00        	.byte0
 9155 21bb 0E        	.uleb128 0xe
 9156 21bc 04        	.byte0x4
 9157 21bd 0000 1966 	.long0x1966
 9158 21c1 27        	.uleb128 0x27
 9159 21c2 0000 0000 	.long.LASF468
 9160 21c6 01        	.byte0x1
 9161 21c7 0770      	.word0x770
 9162 21c9 0000 0000 	.long.LFB84
 9163 21cd 0000 005E 	.long.LFE84-.LFB84
 9164 21d1 01        	.uleb128 0x1
 9165 21d2 9C        	.byte0x9c
 9166 21d3 0000 21F6 	.long0x21f6
 9167 21d7 2A        	.uleb128 0x2a
 9168 21d8 4D73 6700 	.string"Msg"
 9169 21dc 01        	.byte0x1
 9170 21dd 0770      	.word0x770
 9171 21df 0000 0E32 	.long0xe32
 9172 21e3 02        	.uleb128 0x2
 9173 21e4 91        	.byte0x91
 9174 21e5 00        	.sleb128 0
 9175 21e6 29        	.uleb128 0x29
 9176 21e7 0000 0000 	.long.LASF463
 9177 21eb 01        	.byte0x1
 9178 21ec 0772      	.word0x772
 9179 21ee 0000 0074 	.long0x74
 9180 21f2 02        	.uleb128 0x2
 9181 21f3 91        	.byte0x91
 9182 21f4 7A        	.sleb128 -6
 9183 21f5 00        	.byte0
 9184 21f6 2C        	.uleb128 0x2c
 9185 21f7 0000 0000 	.long.LASF473
 9186 21fb 01        	.byte0x1
 9187 21fc 0750      	.word0x750
 9188 21fe 0000 00AA 	.long0xaa
68K GAS   			page 220


 9189 2202 0000 0000 	.long.LFB83
 9190 2206 0000 00B4 	.long.LFE83-.LFB83
 9191 220a 01        	.uleb128 0x1
 9192 220b 9C        	.byte0x9c
 9193 220c 0000 2275 	.long0x2275
 9194 2210 2A        	.uleb128 0x2a
 9195 2211 4D73 6700 	.string"Msg"
 9196 2215 01        	.byte0x1
 9197 2216 0750      	.word0x750
 9198 2218 0000 0E32 	.long0xe32
 9199 221c 02        	.uleb128 0x2
 9200 221d 91        	.byte0x91
 9201 221e 00        	.sleb128 0
 9202 221f 28        	.uleb128 0x28
 9203 2220 0000 0000 	.long.LASF463
 9204 2224 01        	.byte0x1
 9205 2225 0750      	.word0x750
 9206 2227 0000 0074 	.long0x74
 9207 222b 02        	.uleb128 0x2
 9208 222c 91        	.byte0x91
 9209 222d 70        	.sleb128 -16
 9210 222e 29        	.uleb128 0x29
 9211 222f 0000 0000 	.long.LASF469
 9212 2233 01        	.byte0x1
 9213 2234 0752      	.word0x752
 9214 2236 0000 00AA 	.long0xaa
 9215 223a 02        	.uleb128 0x2
 9216 223b 91        	.byte0x91
 9217 223c 7B        	.sleb128 -5
 9218 223d 29        	.uleb128 0x29
 9219 223e 0000 0000 	.long.LASF470
 9220 2242 01        	.byte0x1
 9221 2243 0753      	.word0x753
 9222 2245 0000 0074 	.long0x74
 9223 2249 02        	.uleb128 0x2
 9224 224a 91        	.byte0x91
 9225 224b 78        	.sleb128 -8
 9226 224c 2D        	.uleb128 0x2d
 9227 224d 0000 0000 	.long.LBB14
 9228 2251 0000 006E 	.long.LBE14-.LBB14
 9229 2255 29        	.uleb128 0x29
 9230 2256 0000 0000 	.long.LASF471
 9231 225a 01        	.byte0x1
 9232 225b 075A      	.word0x75a
 9233 225d 0000 0E27 	.long0xe27
 9234 2261 02        	.uleb128 0x2
 9235 2262 91        	.byte0x91
 9236 2263 76        	.sleb128 -10
 9237 2264 29        	.uleb128 0x29
 9238 2265 0000 0000 	.long.LASF472
 9239 2269 01        	.byte0x1
 9240 226a 075B      	.word0x75b
 9241 226c 0000 0074 	.long0x74
 9242 2270 02        	.uleb128 0x2
 9243 2271 91        	.byte0x91
 9244 2272 74        	.sleb128 -12
 9245 2273 00        	.byte0
68K GAS   			page 221


 9246 2274 00        	.byte0
 9247 2275 2C        	.uleb128 0x2c
 9248 2276 0000 0000 	.long.LASF474
 9249 227a 01        	.byte0x1
 9250 227b 070B      	.word0x70b
 9251 227d 0000 0050 	.long0x50
 9252 2281 0000 0000 	.long.LFB82
 9253 2285 0000 01C0 	.long.LFE82-.LFB82
 9254 2289 01        	.uleb128 0x1
 9255 228a 9C        	.byte0x9c
 9256 228b 0000 2316 	.long0x2316
 9257 228f 28        	.uleb128 0x28
 9258 2290 0000 0000 	.long.LASF447
 9259 2294 01        	.byte0x1
 9260 2295 070B      	.word0x70b
 9261 2297 0000 01BA 	.long0x1ba
 9262 229b 02        	.uleb128 0x2
 9263 229c 91        	.byte0x91
 9264 229d 00        	.sleb128 0
 9265 229e 2B        	.uleb128 0x2b
 9266 229f 6664 00   	.string"fd"
 9267 22a2 01        	.byte0x1
 9268 22a3 070E      	.word0x70e
 9269 22a5 0000 0050 	.long0x50
 9270 22a9 02        	.uleb128 0x2
 9271 22aa 91        	.byte0x91
 9272 22ab 70        	.sleb128 -16
 9273 22ac 29        	.uleb128 0x29
 9274 22ad 0000 0000 	.long.LASF475
 9275 22b1 01        	.byte0x1
 9276 22b2 070F      	.word0x70f
 9277 22b4 0000 0050 	.long0x50
 9278 22b8 02        	.uleb128 0x2
 9279 22b9 91        	.byte0x91
 9280 22ba 6C        	.sleb128 -20
 9281 22bb 29        	.uleb128 0x29
 9282 22bc 0000 0000 	.long.LASF476
 9283 22c0 01        	.byte0x1
 9284 22c1 070F      	.word0x70f
 9285 22c3 0000 0050 	.long0x50
 9286 22c7 02        	.uleb128 0x2
 9287 22c8 91        	.byte0x91
 9288 22c9 68        	.sleb128 -24
 9289 22ca 29        	.uleb128 0x29
 9290 22cb 0000 0000 	.long.LASF460
 9291 22cf 01        	.byte0x1
 9292 22d0 0710      	.word0x710
 9293 22d2 0000 0086 	.long0x86
 9294 22d6 02        	.uleb128 0x2
 9295 22d7 91        	.byte0x91
 9296 22d8 78        	.sleb128 -8
 9297 22d9 2B        	.uleb128 0x2b
 9298 22da 6900      	.string"i"
 9299 22dc 01        	.byte0x1
 9300 22dd 0710      	.word0x710
 9301 22df 0000 0086 	.long0x86
 9302 22e3 02        	.uleb128 0x2
68K GAS   			page 222


 9303 22e4 91        	.byte0x91
 9304 22e5 74        	.sleb128 -12
 9305 22e6 29        	.uleb128 0x29
 9306 22e7 0000 0000 	.long.LASF477
 9307 22eb 01        	.byte0x1
 9308 22ec 0710      	.word0x710
 9309 22ee 0000 0086 	.long0x86
 9310 22f2 02        	.uleb128 0x2
 9311 22f3 91        	.byte0x91
 9312 22f4 64        	.sleb128 -28
 9313 22f5 29        	.uleb128 0x29
 9314 22f6 0000 0000 	.long.LASF478
 9315 22fa 01        	.byte0x1
 9316 22fb 0711      	.word0x711
 9317 22fd 0000 0FE0 	.long0xfe0
 9318 2301 03        	.uleb128 0x3
 9319 2302 91        	.byte0x91
 9320 2303 A47F      	.sleb128 -92
 9321 2305 29        	.uleb128 0x29
 9322 2306 0000 0000 	.long.LASF479
 9323 230a 01        	.byte0x1
 9324 230b 0712      	.word0x712
 9325 230d 0000 009F 	.long0x9f
 9326 2311 03        	.uleb128 0x3
 9327 2312 91        	.byte0x91
 9328 2313 A07F      	.sleb128 -96
 9329 2315 00        	.byte0
 9330 2316 27        	.uleb128 0x27
 9331 2317 0000 0000 	.long.LASF480
 9332 231b 01        	.byte0x1
 9333 231c 06E7      	.word0x6e7
 9334 231e 0000 0000 	.long.LFB81
 9335 2322 0000 0094 	.long.LFE81-.LFB81
 9336 2326 01        	.uleb128 0x1
 9337 2327 9C        	.byte0x9c
 9338 2328 0000 2379 	.long0x2379
 9339 232c 2A        	.uleb128 0x2a
 9340 232d 4D73 6700 	.string"Msg"
 9341 2331 01        	.byte0x1
 9342 2332 06E7      	.word0x6e7
 9343 2334 0000 0E32 	.long0xe32
 9344 2338 02        	.uleb128 0x2
 9345 2339 91        	.byte0x91
 9346 233a 00        	.sleb128 0
 9347 233b 29        	.uleb128 0x29
 9348 233c 0000 0000 	.long.LASF457
 9349 2340 01        	.byte0x1
 9350 2341 06E9      	.word0x6e9
 9351 2343 0000 2379 	.long0x2379
 9352 2347 02        	.uleb128 0x2
 9353 2348 91        	.byte0x91
 9354 2349 78        	.sleb128 -8
 9355 234a 29        	.uleb128 0x29
 9356 234b 0000 0000 	.long.LASF481
 9357 234f 01        	.byte0x1
 9358 2350 06EA      	.word0x6ea
 9359 2352 0000 0050 	.long0x50
68K GAS   			page 223


 9360 2356 02        	.uleb128 0x2
 9361 2357 91        	.byte0x91
 9362 2358 70        	.sleb128 -16
 9363 2359 29        	.uleb128 0x29
 9364 235a 0000 0000 	.long.LASF463
 9365 235e 01        	.byte0x1
 9366 235f 06EB      	.word0x6eb
 9367 2361 0000 0074 	.long0x74
 9368 2365 02        	.uleb128 0x2
 9369 2366 91        	.byte0x91
 9370 2367 76        	.sleb128 -10
 9371 2368 29        	.uleb128 0x29
 9372 2369 0000 0000 	.long.LASF482
 9373 236d 01        	.byte0x1
 9374 236e 06EC      	.word0x6ec
 9375 2370 0000 0A31 	.long0xa31
 9376 2374 03        	.uleb128 0x3
 9377 2375 91        	.byte0x91
 9378 2376 B07F      	.sleb128 -80
 9379 2378 00        	.byte0
 9380 2379 0E        	.uleb128 0xe
 9381 237a 04        	.byte0x4
 9382 237b 0000 1869 	.long0x1869
 9383 237f 27        	.uleb128 0x27
 9384 2380 0000 0000 	.long.LASF483
 9385 2384 01        	.byte0x1
 9386 2385 06BD      	.word0x6bd
 9387 2387 0000 0000 	.long.LFB80
 9388 238b 0000 007A 	.long.LFE80-.LFB80
 9389 238f 01        	.uleb128 0x1
 9390 2390 9C        	.byte0x9c
 9391 2391 0000 23B4 	.long0x23b4
 9392 2395 2A        	.uleb128 0x2a
 9393 2396 4D73 6700 	.string"Msg"
 9394 239a 01        	.byte0x1
 9395 239b 06BD      	.word0x6bd
 9396 239d 0000 0E32 	.long0xe32
 9397 23a1 02        	.uleb128 0x2
 9398 23a2 91        	.byte0x91
 9399 23a3 00        	.sleb128 0
 9400 23a4 29        	.uleb128 0x29
 9401 23a5 0000 0000 	.long.LASF463
 9402 23a9 01        	.byte0x1
 9403 23aa 06BF      	.word0x6bf
 9404 23ac 0000 0074 	.long0x74
 9405 23b0 02        	.uleb128 0x2
 9406 23b1 91        	.byte0x91
 9407 23b2 7A        	.sleb128 -6
 9408 23b3 00        	.byte0
 9409 23b4 2E        	.uleb128 0x2e
 9410 23b5 0000 0000 	.long.LASF484
 9411 23b9 01        	.byte0x1
 9412 23ba 06A8      	.word0x6a8
 9413 23bc 0000 0050 	.long0x50
 9414 23c0 0000 0000 	.long.LFB79
 9415 23c4 0000 002C 	.long.LFE79-.LFB79
 9416 23c8 01        	.uleb128 0x1
68K GAS   			page 224


 9417 23c9 9C        	.byte0x9c
 9418 23ca 0000 23ED 	.long0x23ed
 9419 23ce 28        	.uleb128 0x28
 9420 23cf 0000 0000 	.long.LASF266
 9421 23d3 01        	.byte0x1
 9422 23d4 06A8      	.word0x6a8
 9423 23d6 0000 0086 	.long0x86
 9424 23da 02        	.uleb128 0x2
 9425 23db 91        	.byte0x91
 9426 23dc 00        	.sleb128 0
 9427 23dd 29        	.uleb128 0x29
 9428 23de 0000 0000 	.long.LASF455
 9429 23e2 01        	.byte0x1
 9430 23e3 06AA      	.word0x6aa
 9431 23e5 0000 0086 	.long0x86
 9432 23e9 02        	.uleb128 0x2
 9433 23ea 91        	.byte0x91
 9434 23eb 78        	.sleb128 -8
 9435 23ec 00        	.byte0
 9436 23ed 2C        	.uleb128 0x2c
 9437 23ee 0000 0000 	.long.LASF485
 9438 23f2 01        	.byte0x1
 9439 23f3 066C      	.word0x66c
 9440 23f5 0000 0050 	.long0x50
 9441 23f9 0000 0000 	.long.LFB78
 9442 23fd 0000 0158 	.long.LFE78-.LFB78
 9443 2401 01        	.uleb128 0x1
 9444 2402 9C        	.byte0x9c
 9445 2403 0000 2453 	.long0x2453
 9446 2407 28        	.uleb128 0x28
 9447 2408 0000 0000 	.long.LASF447
 9448 240c 01        	.byte0x1
 9449 240d 066C      	.word0x66c
 9450 240f 0000 01BA 	.long0x1ba
 9451 2413 02        	.uleb128 0x2
 9452 2414 91        	.byte0x91
 9453 2415 00        	.sleb128 0
 9454 2416 2B        	.uleb128 0x2b
 9455 2417 6664 00   	.string"fd"
 9456 241a 01        	.byte0x1
 9457 241b 066E      	.word0x66e
 9458 241d 0000 0050 	.long0x50
 9459 2421 02        	.uleb128 0x2
 9460 2422 91        	.byte0x91
 9461 2423 78        	.sleb128 -8
 9462 2424 29        	.uleb128 0x29
 9463 2425 0000 0000 	.long.LASF475
 9464 2429 01        	.byte0x1
 9465 242a 066F      	.word0x66f
 9466 242c 0000 0050 	.long0x50
 9467 2430 02        	.uleb128 0x2
 9468 2431 91        	.byte0x91
 9469 2432 74        	.sleb128 -12
 9470 2433 29        	.uleb128 0x29
 9471 2434 0000 0000 	.long.LASF460
 9472 2438 01        	.byte0x1
 9473 2439 0670      	.word0x670
68K GAS   			page 225


 9474 243b 0000 0086 	.long0x86
 9475 243f 02        	.uleb128 0x2
 9476 2440 91        	.byte0x91
 9477 2441 70        	.sleb128 -16
 9478 2442 29        	.uleb128 0x29
 9479 2443 0000 0000 	.long.LASF478
 9480 2447 01        	.byte0x1
 9481 2448 0671      	.word0x671
 9482 244a 0000 0FE0 	.long0xfe0
 9483 244e 03        	.uleb128 0x3
 9484 244f 91        	.byte0x91
 9485 2450 B07F      	.sleb128 -80
 9486 2452 00        	.byte0
 9487 2453 27        	.uleb128 0x27
 9488 2454 0000 0000 	.long.LASF486
 9489 2458 01        	.byte0x1
 9490 2459 0648      	.word0x648
 9491 245b 0000 0000 	.long.LFB77
 9492 245f 0000 0094 	.long.LFE77-.LFB77
 9493 2463 01        	.uleb128 0x1
 9494 2464 9C        	.byte0x9c
 9495 2465 0000 24B6 	.long0x24b6
 9496 2469 2A        	.uleb128 0x2a
 9497 246a 4D73 6700 	.string"Msg"
 9498 246e 01        	.byte0x1
 9499 246f 0648      	.word0x648
 9500 2471 0000 0E32 	.long0xe32
 9501 2475 02        	.uleb128 0x2
 9502 2476 91        	.byte0x91
 9503 2477 00        	.sleb128 0
 9504 2478 29        	.uleb128 0x29
 9505 2479 0000 0000 	.long.LASF457
 9506 247d 01        	.byte0x1
 9507 247e 064A      	.word0x64a
 9508 2480 0000 24B6 	.long0x24b6
 9509 2484 02        	.uleb128 0x2
 9510 2485 91        	.byte0x91
 9511 2486 78        	.sleb128 -8
 9512 2487 29        	.uleb128 0x29
 9513 2488 0000 0000 	.long.LASF481
 9514 248c 01        	.byte0x1
 9515 248d 064B      	.word0x64b
 9516 248f 0000 0050 	.long0x50
 9517 2493 02        	.uleb128 0x2
 9518 2494 91        	.byte0x91
 9519 2495 70        	.sleb128 -16
 9520 2496 29        	.uleb128 0x29
 9521 2497 0000 0000 	.long.LASF463
 9522 249b 01        	.byte0x1
 9523 249c 064C      	.word0x64c
 9524 249e 0000 0074 	.long0x74
 9525 24a2 02        	.uleb128 0x2
 9526 24a3 91        	.byte0x91
 9527 24a4 76        	.sleb128 -10
 9528 24a5 29        	.uleb128 0x29
 9529 24a6 0000 0000 	.long.LASF482
 9530 24aa 01        	.byte0x1
68K GAS   			page 226


 9531 24ab 064D      	.word0x64d
 9532 24ad 0000 0A31 	.long0xa31
 9533 24b1 03        	.uleb128 0x3
 9534 24b2 91        	.byte0x91
 9535 24b3 B07F      	.sleb128 -80
 9536 24b5 00        	.byte0
 9537 24b6 0E        	.uleb128 0xe
 9538 24b7 04        	.byte0x4
 9539 24b8 0000 1846 	.long0x1846
 9540 24bc 2F        	.uleb128 0x2f
 9541 24bd 0000 0000 	.long.LASF526
 9542 24c1 01        	.byte0x1
 9543 24c2 0632      	.word0x632
 9544 24c4 0000 0000 	.long.LFB76
 9545 24c8 0000 0036 	.long.LFE76-.LFB76
 9546 24cc 01        	.uleb128 0x1
 9547 24cd 9C        	.byte0x9c
 9548 24ce 27        	.uleb128 0x27
 9549 24cf 0000 0000 	.long.LASF487
 9550 24d3 01        	.byte0x1
 9551 24d4 0609      	.word0x609
 9552 24d6 0000 0000 	.long.LFB75
 9553 24da 0000 00B4 	.long.LFE75-.LFB75
 9554 24de 01        	.uleb128 0x1
 9555 24df 9C        	.byte0x9c
 9556 24e0 0000 2521 	.long0x2521
 9557 24e4 2A        	.uleb128 0x2a
 9558 24e5 4D73 6700 	.string"Msg"
 9559 24e9 01        	.byte0x1
 9560 24ea 0609      	.word0x609
 9561 24ec 0000 0E32 	.long0xe32
 9562 24f0 02        	.uleb128 0x2
 9563 24f1 91        	.byte0x91
 9564 24f2 00        	.sleb128 0
 9565 24f3 29        	.uleb128 0x29
 9566 24f4 0000 0000 	.long.LASF455
 9567 24f8 01        	.byte0x1
 9568 24f9 060B      	.word0x60b
 9569 24fb 0000 0086 	.long0x86
 9570 24ff 02        	.uleb128 0x2
 9571 2500 91        	.byte0x91
 9572 2501 78        	.sleb128 -8
 9573 2502 29        	.uleb128 0x29
 9574 2503 0000 0000 	.long.LASF457
 9575 2507 01        	.byte0x1
 9576 2508 060C      	.word0x60c
 9577 250a 0000 2521 	.long0x2521
 9578 250e 02        	.uleb128 0x2
 9579 250f 91        	.byte0x91
 9580 2510 74        	.sleb128 -12
 9581 2511 29        	.uleb128 0x29
 9582 2512 0000 0000 	.long.LASF463
 9583 2516 01        	.byte0x1
 9584 2517 060D      	.word0x60d
 9585 2519 0000 0074 	.long0x74
 9586 251d 02        	.uleb128 0x2
 9587 251e 91        	.byte0x91
68K GAS   			page 227


 9588 251f 72        	.sleb128 -14
 9589 2520 00        	.byte0
 9590 2521 0E        	.uleb128 0xe
 9591 2522 04        	.byte0x4
 9592 2523 0000 188C 	.long0x188c
 9593 2527 27        	.uleb128 0x27
 9594 2528 0000 0000 	.long.LASF488
 9595 252c 01        	.byte0x1
 9596 252d 05EA      	.word0x5ea
 9597 252f 0000 0000 	.long.LFB74
 9598 2533 0000 0054 	.long.LFE74-.LFB74
 9599 2537 01        	.uleb128 0x1
 9600 2538 9C        	.byte0x9c
 9601 2539 0000 255C 	.long0x255c
 9602 253d 2A        	.uleb128 0x2a
 9603 253e 4D73 6700 	.string"Msg"
 9604 2542 01        	.byte0x1
 9605 2543 05EA      	.word0x5ea
 9606 2545 0000 0E32 	.long0xe32
 9607 2549 02        	.uleb128 0x2
 9608 254a 91        	.byte0x91
 9609 254b 00        	.sleb128 0
 9610 254c 29        	.uleb128 0x29
 9611 254d 0000 0000 	.long.LASF463
 9612 2551 01        	.byte0x1
 9613 2552 05EC      	.word0x5ec
 9614 2554 0000 0074 	.long0x74
 9615 2558 02        	.uleb128 0x2
 9616 2559 91        	.byte0x91
 9617 255a 7A        	.sleb128 -6
 9618 255b 00        	.byte0
 9619 255c 27        	.uleb128 0x27
 9620 255d 0000 0000 	.long.LASF489
 9621 2561 01        	.byte0x1
 9622 2562 056A      	.word0x56a
 9623 2564 0000 0000 	.long.LFB73
 9624 2568 0000 02A6 	.long.LFE73-.LFB73
 9625 256c 01        	.uleb128 0x1
 9626 256d 9C        	.byte0x9c
 9627 256e 0000 2619 	.long0x2619
 9628 2572 2A        	.uleb128 0x2a
 9629 2573 4D73 6700 	.string"Msg"
 9630 2577 01        	.byte0x1
 9631 2578 056A      	.word0x56a
 9632 257a 0000 0E32 	.long0xe32
 9633 257e 02        	.uleb128 0x2
 9634 257f 91        	.byte0x91
 9635 2580 00        	.sleb128 0
 9636 2581 29        	.uleb128 0x29
 9637 2582 0000 0000 	.long.LASF463
 9638 2586 01        	.byte0x1
 9639 2587 056D      	.word0x56d
 9640 2589 0000 0074 	.long0x74
 9641 258d 02        	.uleb128 0x2
 9642 258e 91        	.byte0x91
 9643 258f 6E        	.sleb128 -18
 9644 2590 29        	.uleb128 0x29
68K GAS   			page 228


 9645 2591 0000 0000 	.long.LASF490
 9646 2595 01        	.byte0x1
 9647 2596 056E      	.word0x56e
 9648 2598 0000 0FE0 	.long0xfe0
 9649 259c 03        	.uleb128 0x3
 9650 259d 91        	.byte0x91
 9651 259e A07F      	.sleb128 -96
 9652 25a0 29        	.uleb128 0x29
 9653 25a1 0000 0000 	.long.LASF454
 9654 25a5 01        	.byte0x1
 9655 25a6 056F      	.word0x56f
 9656 25a8 0000 0050 	.long0x50
 9657 25ac 02        	.uleb128 0x2
 9658 25ad 91        	.byte0x91
 9659 25ae 64        	.sleb128 -28
 9660 25af 2B        	.uleb128 0x2b
 9661 25b0 6900      	.string"i"
 9662 25b2 01        	.byte0x1
 9663 25b3 0570      	.word0x570
 9664 25b5 0000 0086 	.long0x86
 9665 25b9 02        	.uleb128 0x2
 9666 25ba 91        	.byte0x91
 9667 25bb 78        	.sleb128 -8
 9668 25bc 29        	.uleb128 0x29
 9669 25bd 0000 0000 	.long.LASF491
 9670 25c1 01        	.byte0x1
 9671 25c2 0571      	.word0x571
 9672 25c4 0000 0086 	.long0x86
 9673 25c8 02        	.uleb128 0x2
 9674 25c9 91        	.byte0x91
 9675 25ca 74        	.sleb128 -12
 9676 25cb 29        	.uleb128 0x29
 9677 25cc 0000 0000 	.long.LASF460
 9678 25d0 01        	.byte0x1
 9679 25d1 0572      	.word0x572
 9680 25d3 0000 0086 	.long0x86
 9681 25d7 02        	.uleb128 0x2
 9682 25d8 91        	.byte0x91
 9683 25d9 70        	.sleb128 -16
 9684 25da 29        	.uleb128 0x29
 9685 25db 0000 0000 	.long.LASF492
 9686 25df 01        	.byte0x1
 9687 25e0 0573      	.word0x573
 9688 25e2 0000 0050 	.long0x50
 9689 25e6 02        	.uleb128 0x2
 9690 25e7 91        	.byte0x91
 9691 25e8 60        	.sleb128 -32
 9692 25e9 29        	.uleb128 0x29
 9693 25ea 0000 0000 	.long.LASF309
 9694 25ee 01        	.byte0x1
 9695 25ef 0574      	.word0x574
 9696 25f1 0000 0BCF 	.long0xbcf
 9697 25f5 03        	.uleb128 0x3
 9698 25f6 91        	.byte0x91
 9699 25f7 EC7E      	.sleb128 -148
 9700 25f9 29        	.uleb128 0x29
 9701 25fa 0000 0000 	.long.LASF457
68K GAS   			page 229


 9702 25fe 01        	.byte0x1
 9703 25ff 0575      	.word0x575
 9704 2601 0000 2619 	.long0x2619
 9705 2605 02        	.uleb128 0x2
 9706 2606 91        	.byte0x91
 9707 2607 68        	.sleb128 -24
 9708 2608 29        	.uleb128 0x29
 9709 2609 0000 0000 	.long.LASF493
 9710 260d 01        	.byte0x1
 9711 260e 0576      	.word0x576
 9712 2610 0000 0A31 	.long0xa31
 9713 2614 03        	.uleb128 0x3
 9714 2615 91        	.byte0x91
 9715 2616 AC7E      	.sleb128 -212
 9716 2618 00        	.byte0
 9717 2619 0E        	.uleb128 0xe
 9718 261a 04        	.byte0x4
 9719 261b 0000 1823 	.long0x1823
 9720 261f 27        	.uleb128 0x27
 9721 2620 0000 0000 	.long.LASF494
 9722 2624 01        	.byte0x1
 9723 2625 04EC      	.word0x4ec
 9724 2627 0000 0000 	.long.LFB72
 9725 262b 0000 029A 	.long.LFE72-.LFB72
 9726 262f 01        	.uleb128 0x1
 9727 2630 9C        	.byte0x9c
 9728 2631 0000 26DC 	.long0x26dc
 9729 2635 2A        	.uleb128 0x2a
 9730 2636 4D73 6700 	.string"Msg"
 9731 263a 01        	.byte0x1
 9732 263b 04EC      	.word0x4ec
 9733 263d 0000 0E32 	.long0xe32
 9734 2641 02        	.uleb128 0x2
 9735 2642 91        	.byte0x91
 9736 2643 00        	.sleb128 0
 9737 2644 29        	.uleb128 0x29
 9738 2645 0000 0000 	.long.LASF463
 9739 2649 01        	.byte0x1
 9740 264a 04EF      	.word0x4ef
 9741 264c 0000 0074 	.long0x74
 9742 2650 02        	.uleb128 0x2
 9743 2651 91        	.byte0x91
 9744 2652 6E        	.sleb128 -18
 9745 2653 29        	.uleb128 0x29
 9746 2654 0000 0000 	.long.LASF490
 9747 2658 01        	.byte0x1
 9748 2659 04F0      	.word0x4f0
 9749 265b 0000 0FE0 	.long0xfe0
 9750 265f 03        	.uleb128 0x3
 9751 2660 91        	.byte0x91
 9752 2661 A07F      	.sleb128 -96
 9753 2663 29        	.uleb128 0x29
 9754 2664 0000 0000 	.long.LASF454
 9755 2668 01        	.byte0x1
 9756 2669 04F1      	.word0x4f1
 9757 266b 0000 0050 	.long0x50
 9758 266f 02        	.uleb128 0x2
68K GAS   			page 230


 9759 2670 91        	.byte0x91
 9760 2671 64        	.sleb128 -28
 9761 2672 2B        	.uleb128 0x2b
 9762 2673 6900      	.string"i"
 9763 2675 01        	.byte0x1
 9764 2676 04F2      	.word0x4f2
 9765 2678 0000 0086 	.long0x86
 9766 267c 02        	.uleb128 0x2
 9767 267d 91        	.byte0x91
 9768 267e 78        	.sleb128 -8
 9769 267f 29        	.uleb128 0x29
 9770 2680 0000 0000 	.long.LASF491
 9771 2684 01        	.byte0x1
 9772 2685 04F3      	.word0x4f3
 9773 2687 0000 0086 	.long0x86
 9774 268b 02        	.uleb128 0x2
 9775 268c 91        	.byte0x91
 9776 268d 74        	.sleb128 -12
 9777 268e 29        	.uleb128 0x29
 9778 268f 0000 0000 	.long.LASF460
 9779 2693 01        	.byte0x1
 9780 2694 04F4      	.word0x4f4
 9781 2696 0000 0086 	.long0x86
 9782 269a 02        	.uleb128 0x2
 9783 269b 91        	.byte0x91
 9784 269c 70        	.sleb128 -16
 9785 269d 29        	.uleb128 0x29
 9786 269e 0000 0000 	.long.LASF492
 9787 26a2 01        	.byte0x1
 9788 26a3 04F5      	.word0x4f5
 9789 26a5 0000 0050 	.long0x50
 9790 26a9 02        	.uleb128 0x2
 9791 26aa 91        	.byte0x91
 9792 26ab 60        	.sleb128 -32
 9793 26ac 29        	.uleb128 0x29
 9794 26ad 0000 0000 	.long.LASF370
 9795 26b1 01        	.byte0x1
 9796 26b2 04F6      	.word0x4f6
 9797 26b4 0000 0B68 	.long0xb68
 9798 26b8 03        	.uleb128 0x3
 9799 26b9 91        	.byte0x91
 9800 26ba E47D      	.sleb128 -284
 9801 26bc 29        	.uleb128 0x29
 9802 26bd 0000 0000 	.long.LASF457
 9803 26c1 01        	.byte0x1
 9804 26c2 04F7      	.word0x4f7
 9805 26c4 0000 26DC 	.long0x26dc
 9806 26c8 02        	.uleb128 0x2
 9807 26c9 91        	.byte0x91
 9808 26ca 68        	.sleb128 -24
 9809 26cb 29        	.uleb128 0x29
 9810 26cc 0000 0000 	.long.LASF493
 9811 26d0 01        	.byte0x1
 9812 26d1 04F8      	.word0x4f8
 9813 26d3 0000 0A31 	.long0xa31
 9814 26d7 03        	.uleb128 0x3
 9815 26d8 91        	.byte0x91
68K GAS   			page 231


 9816 26d9 A47D      	.sleb128 -348
 9817 26db 00        	.byte0
 9818 26dc 0E        	.uleb128 0xe
 9819 26dd 04        	.byte0x4
 9820 26de 0000 1800 	.long0x1800
 9821 26e2 27        	.uleb128 0x27
 9822 26e3 0000 0000 	.long.LASF495
 9823 26e7 01        	.byte0x1
 9824 26e8 04AF      	.word0x4af
 9825 26ea 0000 0000 	.long.LFB71
 9826 26ee 0000 014C 	.long.LFE71-.LFB71
 9827 26f2 01        	.uleb128 0x1
 9828 26f3 9C        	.byte0x9c
 9829 26f4 0000 2759 	.long0x2759
 9830 26f8 2A        	.uleb128 0x2a
 9831 26f9 4D73 6700 	.string"Msg"
 9832 26fd 01        	.byte0x1
 9833 26fe 04AF      	.word0x4af
 9834 2700 0000 0E32 	.long0xe32
 9835 2704 02        	.uleb128 0x2
 9836 2705 91        	.byte0x91
 9837 2706 00        	.sleb128 0
 9838 2707 2B        	.uleb128 0x2b
 9839 2708 636D 6400 	.string"cmd"
 9840 270c 01        	.byte0x1
 9841 270d 04B1      	.word0x4b1
 9842 270f 0000 2759 	.long0x2759
 9843 2713 02        	.uleb128 0x2
 9844 2714 91        	.byte0x91
 9845 2715 78        	.sleb128 -8
 9846 2716 29        	.uleb128 0x29
 9847 2717 0000 0000 	.long.LASF463
 9848 271b 01        	.byte0x1
 9849 271c 04B2      	.word0x4b2
 9850 271e 0000 0074 	.long0x74
 9851 2722 02        	.uleb128 0x2
 9852 2723 91        	.byte0x91
 9853 2724 76        	.sleb128 -10
 9854 2725 29        	.uleb128 0x29
 9855 2726 0000 0000 	.long.LASF496
 9856 272a 01        	.byte0x1
 9857 272b 04B3      	.word0x4b3
 9858 272d 0000 00C2 	.long0xc2
 9859 2731 02        	.uleb128 0x2
 9860 2732 91        	.byte0x91
 9861 2733 5C        	.sleb128 -36
 9862 2734 30        	.uleb128 0x30
 9863 2735 0000 0000 	.long.Ldebug_ranges0+0x60
 9864 2739 29        	.uleb128 0x29
 9865 273a 0000 0000 	.long.LASF253
 9866 273e 01        	.byte0x1
 9867 273f 04BA      	.word0x4ba
 9868 2741 0000 0086 	.long0x86
 9869 2745 02        	.uleb128 0x2
 9870 2746 91        	.byte0x91
 9871 2747 58        	.sleb128 -40
 9872 2748 29        	.uleb128 0x29
68K GAS   			page 232


 9873 2749 0000 0000 	.long.LASF492
 9874 274d 01        	.byte0x1
 9875 274e 04BB      	.word0x4bb
 9876 2750 0000 0050 	.long0x50
 9877 2754 02        	.uleb128 0x2
 9878 2755 91        	.byte0x91
 9879 2756 70        	.sleb128 -16
 9880 2757 00        	.byte0
 9881 2758 00        	.byte0
 9882 2759 0E        	.uleb128 0xe
 9883 275a 04        	.byte0x4
 9884 275b 0000 1913 	.long0x1913
 9885 275f 27        	.uleb128 0x27
 9886 2760 0000 0000 	.long.LASF497
 9887 2764 01        	.byte0x1
 9888 2765 0474      	.word0x474
 9889 2767 0000 0000 	.long.LFB70
 9890 276b 0000 016A 	.long.LFE70-.LFB70
 9891 276f 01        	.uleb128 0x1
 9892 2770 9C        	.byte0x9c
 9893 2771 0000 27E7 	.long0x27e7
 9894 2775 2A        	.uleb128 0x2a
 9895 2776 4D73 6700 	.string"Msg"
 9896 277a 01        	.byte0x1
 9897 277b 0474      	.word0x474
 9898 277d 0000 0E32 	.long0xe32
 9899 2781 02        	.uleb128 0x2
 9900 2782 91        	.byte0x91
 9901 2783 00        	.sleb128 0
 9902 2784 2B        	.uleb128 0x2b
 9903 2785 636D 6400 	.string"cmd"
 9904 2789 01        	.byte0x1
 9905 278a 0476      	.word0x476
 9906 278c 0000 27E7 	.long0x27e7
 9907 2790 02        	.uleb128 0x2
 9908 2791 91        	.byte0x91
 9909 2792 78        	.sleb128 -8
 9910 2793 29        	.uleb128 0x29
 9911 2794 0000 0000 	.long.LASF463
 9912 2798 01        	.byte0x1
 9913 2799 0477      	.word0x477
 9914 279b 0000 0074 	.long0x74
 9915 279f 02        	.uleb128 0x2
 9916 27a0 91        	.byte0x91
 9917 27a1 76        	.sleb128 -10
 9918 27a2 29        	.uleb128 0x29
 9919 27a3 0000 0000 	.long.LASF496
 9920 27a7 01        	.byte0x1
 9921 27a8 0478      	.word0x478
 9922 27aa 0000 00C2 	.long0xc2
 9923 27ae 02        	.uleb128 0x2
 9924 27af 91        	.byte0x91
 9925 27b0 5C        	.sleb128 -36
 9926 27b1 29        	.uleb128 0x29
 9927 27b2 0000 0000 	.long.LASF498
 9928 27b6 01        	.byte0x1
 9929 27b7 0479      	.word0x479
68K GAS   			page 233


 9930 27b9 0000 0A31 	.long0xa31
 9931 27bd 03        	.uleb128 0x3
 9932 27be 91        	.byte0x91
 9933 27bf 9C7F      	.sleb128 -100
 9934 27c1 30        	.uleb128 0x30
 9935 27c2 0000 0000 	.long.Ldebug_ranges0+0x40
 9936 27c6 29        	.uleb128 0x29
 9937 27c7 0000 0000 	.long.LASF253
 9938 27cb 01        	.byte0x1
 9939 27cc 0480      	.word0x480
 9940 27ce 0000 0086 	.long0x86
 9941 27d2 03        	.uleb128 0x3
 9942 27d3 91        	.byte0x91
 9943 27d4 987F      	.sleb128 -104
 9944 27d6 29        	.uleb128 0x29
 9945 27d7 0000 0000 	.long.LASF492
 9946 27db 01        	.byte0x1
 9947 27dc 0481      	.word0x481
 9948 27de 0000 0050 	.long0x50
 9949 27e2 02        	.uleb128 0x2
 9950 27e3 91        	.byte0x91
 9951 27e4 70        	.sleb128 -16
 9952 27e5 00        	.byte0
 9953 27e6 00        	.byte0
 9954 27e7 0E        	.uleb128 0xe
 9955 27e8 04        	.byte0x4
 9956 27e9 0000 1943 	.long0x1943
 9957 27ed 27        	.uleb128 0x27
 9958 27ee 0000 0000 	.long.LASF499
 9959 27f2 01        	.byte0x1
 9960 27f3 043C      	.word0x43c
 9961 27f5 0000 0000 	.long.LFB69
 9962 27f9 0000 0128 	.long.LFE69-.LFB69
 9963 27fd 01        	.uleb128 0x1
 9964 27fe 9C        	.byte0x9c
 9965 27ff 0000 2864 	.long0x2864
 9966 2803 2A        	.uleb128 0x2a
 9967 2804 4D73 6700 	.string"Msg"
 9968 2808 01        	.byte0x1
 9969 2809 043C      	.word0x43c
 9970 280b 0000 0E32 	.long0xe32
 9971 280f 02        	.uleb128 0x2
 9972 2810 91        	.byte0x91
 9973 2811 00        	.sleb128 0
 9974 2812 2B        	.uleb128 0x2b
 9975 2813 636D 6400 	.string"cmd"
 9976 2817 01        	.byte0x1
 9977 2818 043E      	.word0x43e
 9978 281a 0000 2759 	.long0x2759
 9979 281e 02        	.uleb128 0x2
 9980 281f 91        	.byte0x91
 9981 2820 78        	.sleb128 -8
 9982 2821 29        	.uleb128 0x29
 9983 2822 0000 0000 	.long.LASF463
 9984 2826 01        	.byte0x1
 9985 2827 043F      	.word0x43f
 9986 2829 0000 0074 	.long0x74
68K GAS   			page 234


 9987 282d 02        	.uleb128 0x2
 9988 282e 91        	.byte0x91
 9989 282f 76        	.sleb128 -10
 9990 2830 29        	.uleb128 0x29
 9991 2831 0000 0000 	.long.LASF496
 9992 2835 01        	.byte0x1
 9993 2836 0440      	.word0x440
 9994 2838 0000 00C2 	.long0xc2
 9995 283c 02        	.uleb128 0x2
 9996 283d 91        	.byte0x91
 9997 283e 5C        	.sleb128 -36
 9998 283f 30        	.uleb128 0x30
 9999 2840 0000 0000 	.long.Ldebug_ranges0+0x20
 10000 2844 29        	.uleb128 0x29
 10001 2845 0000 0000 	.long.LASF253
 10002 2849 01        	.byte0x1
 10003 284a 0447      	.word0x447
 10004 284c 0000 0086 	.long0x86
 10005 2850 02        	.uleb128 0x2
 10006 2851 91        	.byte0x91
 10007 2852 58        	.sleb128 -40
 10008 2853 29        	.uleb128 0x29
 10009 2854 0000 0000 	.long.LASF492
 10010 2858 01        	.byte0x1
 10011 2859 0448      	.word0x448
 10012 285b 0000 0050 	.long0x50
 10013 285f 02        	.uleb128 0x2
 10014 2860 91        	.byte0x91
 10015 2861 70        	.sleb128 -16
 10016 2862 00        	.byte0
 10017 2863 00        	.byte0
 10018 2864 27        	.uleb128 0x27
 10019 2865 0000 0000 	.long.LASF500
 10020 2869 01        	.byte0x1
 10021 286a 03FE      	.word0x3fe
 10022 286c 0000 0000 	.long.LFB68
 10023 2870 0000 0128 	.long.LFE68-.LFB68
 10024 2874 01        	.uleb128 0x1
 10025 2875 9C        	.byte0x9c
 10026 2876 0000 28DB 	.long0x28db
 10027 287a 2A        	.uleb128 0x2a
 10028 287b 4D73 6700 	.string"Msg"
 10029 287f 01        	.byte0x1
 10030 2880 03FE      	.word0x3fe
 10031 2882 0000 0E32 	.long0xe32
 10032 2886 02        	.uleb128 0x2
 10033 2887 91        	.byte0x91
 10034 2888 00        	.sleb128 0
 10035 2889 2B        	.uleb128 0x2b
 10036 288a 636D 6400 	.string"cmd"
 10037 288e 01        	.byte0x1
 10038 288f 0400      	.word0x400
 10039 2891 0000 2759 	.long0x2759
 10040 2895 02        	.uleb128 0x2
 10041 2896 91        	.byte0x91
 10042 2897 78        	.sleb128 -8
 10043 2898 29        	.uleb128 0x29
68K GAS   			page 235


 10044 2899 0000 0000 	.long.LASF463
 10045 289d 01        	.byte0x1
 10046 289e 0401      	.word0x401
 10047 28a0 0000 0074 	.long0x74
 10048 28a4 02        	.uleb128 0x2
 10049 28a5 91        	.byte0x91
 10050 28a6 76        	.sleb128 -10
 10051 28a7 29        	.uleb128 0x29
 10052 28a8 0000 0000 	.long.LASF496
 10053 28ac 01        	.byte0x1
 10054 28ad 0402      	.word0x402
 10055 28af 0000 00C2 	.long0xc2
 10056 28b3 02        	.uleb128 0x2
 10057 28b4 91        	.byte0x91
 10058 28b5 5C        	.sleb128 -36
 10059 28b6 30        	.uleb128 0x30
 10060 28b7 0000 0000 	.long.Ldebug_ranges0+0
 10061 28bb 29        	.uleb128 0x29
 10062 28bc 0000 0000 	.long.LASF253
 10063 28c0 01        	.byte0x1
 10064 28c1 040A      	.word0x40a
 10065 28c3 0000 0086 	.long0x86
 10066 28c7 02        	.uleb128 0x2
 10067 28c8 91        	.byte0x91
 10068 28c9 58        	.sleb128 -40
 10069 28ca 29        	.uleb128 0x29
 10070 28cb 0000 0000 	.long.LASF492
 10071 28cf 01        	.byte0x1
 10072 28d0 040B      	.word0x40b
 10073 28d2 0000 0050 	.long0x50
 10074 28d6 02        	.uleb128 0x2
 10075 28d7 91        	.byte0x91
 10076 28d8 70        	.sleb128 -16
 10077 28d9 00        	.byte0
 10078 28da 00        	.byte0
 10079 28db 27        	.uleb128 0x27
 10080 28dc 0000 0000 	.long.LASF501
 10081 28e0 01        	.byte0x1
 10082 28e1 038B      	.word0x38b
 10083 28e3 0000 0000 	.long.LFB67
 10084 28e7 0000 033A 	.long.LFE67-.LFB67
 10085 28eb 01        	.uleb128 0x1
 10086 28ec 9C        	.byte0x9c
 10087 28ed 0000 299A 	.long0x299a
 10088 28f1 2A        	.uleb128 0x2a
 10089 28f2 4D73 6700 	.string"Msg"
 10090 28f6 01        	.byte0x1
 10091 28f7 038B      	.word0x38b
 10092 28f9 0000 0E32 	.long0xe32
 10093 28fd 02        	.uleb128 0x2
 10094 28fe 91        	.byte0x91
 10095 28ff 00        	.sleb128 0
 10096 2900 29        	.uleb128 0x29
 10097 2901 0000 0000 	.long.LASF463
 10098 2905 01        	.byte0x1
 10099 2906 038D      	.word0x38d
 10100 2908 0000 0074 	.long0x74
68K GAS   			page 236


 10101 290c 02        	.uleb128 0x2
 10102 290d 91        	.byte0x91
 10103 290e 7A        	.sleb128 -6
 10104 290f 2B        	.uleb128 0x2b
 10105 2910 636D 6400 	.string"cmd"
 10106 2914 01        	.byte0x1
 10107 2915 038E      	.word0x38e
 10108 2917 0000 299A 	.long0x299a
 10109 291b 02        	.uleb128 0x2
 10110 291c 91        	.byte0x91
 10111 291d 74        	.sleb128 -12
 10112 291e 29        	.uleb128 0x29
 10113 291f 0000 0000 	.long.LASF253
 10114 2923 01        	.byte0x1
 10115 2924 038F      	.word0x38f
 10116 2926 0000 0086 	.long0x86
 10117 292a 02        	.uleb128 0x2
 10118 292b 91        	.byte0x91
 10119 292c 60        	.sleb128 -32
 10120 292d 29        	.uleb128 0x29
 10121 292e 0000 0000 	.long.LASF492
 10122 2932 01        	.byte0x1
 10123 2933 0390      	.word0x390
 10124 2935 0000 0050 	.long0x50
 10125 2939 02        	.uleb128 0x2
 10126 293a 91        	.byte0x91
 10127 293b 64        	.sleb128 -28
 10128 293c 29        	.uleb128 0x29
 10129 293d 0000 0000 	.long.LASF502
 10130 2941 01        	.byte0x1
 10131 2942 0391      	.word0x391
 10132 2944 0000 0050 	.long0x50
 10133 2948 02        	.uleb128 0x2
 10134 2949 91        	.byte0x91
 10135 294a 70        	.sleb128 -16
 10136 294b 29        	.uleb128 0x29
 10137 294c 0000 0000 	.long.LASF503
 10138 2950 01        	.byte0x1
 10139 2951 0392      	.word0x392
 10140 2953 0000 0050 	.long0x50
 10141 2957 02        	.uleb128 0x2
 10142 2958 91        	.byte0x91
 10143 2959 6C        	.sleb128 -20
 10144 295a 29        	.uleb128 0x29
 10145 295b 0000 0000 	.long.LASF504
 10146 295f 01        	.byte0x1
 10147 2960 0393      	.word0x393
 10148 2962 0000 0050 	.long0x50
 10149 2966 02        	.uleb128 0x2
 10150 2967 91        	.byte0x91
 10151 2968 68        	.sleb128 -24
 10152 2969 29        	.uleb128 0x29
 10153 296a 0000 0000 	.long.LASF505
 10154 296e 01        	.byte0x1
 10155 296f 0394      	.word0x394
 10156 2971 0000 0A31 	.long0xa31
 10157 2975 03        	.uleb128 0x3
68K GAS   			page 237


 10158 2976 91        	.byte0x91
 10159 2977 A07F      	.sleb128 -96
 10160 2979 29        	.uleb128 0x29
 10161 297a 0000 0000 	.long.LASF506
 10162 297e 01        	.byte0x1
 10163 297f 0395      	.word0x395
 10164 2981 0000 00C2 	.long0xc2
 10165 2985 03        	.uleb128 0x3
 10166 2986 91        	.byte0x91
 10167 2987 8C7F      	.sleb128 -116
 10168 2989 29        	.uleb128 0x29
 10169 298a 0000 0000 	.long.LASF507
 10170 298e 01        	.byte0x1
 10171 298f 0396      	.word0x396
 10172 2991 0000 00C2 	.long0xc2
 10173 2995 03        	.uleb128 0x3
 10174 2996 91        	.byte0x91
 10175 2997 F87E      	.sleb128 -136
 10176 2999 00        	.byte0
 10177 299a 0E        	.uleb128 0xe
 10178 299b 04        	.byte0x4
 10179 299c 0000 18F0 	.long0x18f0
 10180 29a0 27        	.uleb128 0x27
 10181 29a1 0000 0000 	.long.LASF508
 10182 29a5 01        	.byte0x1
 10183 29a6 0357      	.word0x357
 10184 29a8 0000 0000 	.long.LFB66
 10185 29ac 0000 0112 	.long.LFE66-.LFB66
 10186 29b0 01        	.uleb128 0x1
 10187 29b1 9C        	.byte0x9c
 10188 29b2 0000 2A13 	.long0x2a13
 10189 29b6 2A        	.uleb128 0x2a
 10190 29b7 4D73 6700 	.string"Msg"
 10191 29bb 01        	.byte0x1
 10192 29bc 0357      	.word0x357
 10193 29be 0000 0E32 	.long0xe32
 10194 29c2 02        	.uleb128 0x2
 10195 29c3 91        	.byte0x91
 10196 29c4 00        	.sleb128 0
 10197 29c5 29        	.uleb128 0x29
 10198 29c6 0000 0000 	.long.LASF463
 10199 29ca 01        	.byte0x1
 10200 29cb 0359      	.word0x359
 10201 29cd 0000 0074 	.long0x74
 10202 29d1 02        	.uleb128 0x2
 10203 29d2 91        	.byte0x91
 10204 29d3 7A        	.sleb128 -6
 10205 29d4 29        	.uleb128 0x29
 10206 29d5 0000 0000 	.long.LASF492
 10207 29d9 01        	.byte0x1
 10208 29da 035A      	.word0x35a
 10209 29dc 0000 0050 	.long0x50
 10210 29e0 02        	.uleb128 0x2
 10211 29e1 91        	.byte0x91
 10212 29e2 70        	.sleb128 -16
 10213 29e3 2B        	.uleb128 0x2b
 10214 29e4 636D 6400 	.string"cmd"
68K GAS   			page 238


 10215 29e8 01        	.byte0x1
 10216 29e9 035B      	.word0x35b
 10217 29eb 0000 2A13 	.long0x2a13
 10218 29ef 02        	.uleb128 0x2
 10219 29f0 91        	.byte0x91
 10220 29f1 74        	.sleb128 -12
 10221 29f2 29        	.uleb128 0x29
 10222 29f3 0000 0000 	.long.LASF509
 10223 29f7 01        	.byte0x1
 10224 29f8 035C      	.word0x35c
 10225 29fa 0000 0A31 	.long0xa31
 10226 29fe 03        	.uleb128 0x3
 10227 29ff 91        	.byte0x91
 10228 2a00 B07F      	.sleb128 -80
 10229 2a02 29        	.uleb128 0x29
 10230 2a03 0000 0000 	.long.LASF505
 10231 2a07 01        	.byte0x1
 10232 2a08 035D      	.word0x35d
 10233 2a0a 0000 0A31 	.long0xa31
 10234 2a0e 03        	.uleb128 0x3
 10235 2a0f 91        	.byte0x91
 10236 2a10 F07E      	.sleb128 -144
 10237 2a12 00        	.byte0
 10238 2a13 0E        	.uleb128 0xe
 10239 2a14 04        	.byte0x4
 10240 2a15 0000 17DD 	.long0x17dd
 10241 2a19 27        	.uleb128 0x27
 10242 2a1a 0000 0000 	.long.LASF510
 10243 2a1e 01        	.byte0x1
 10244 2a1f 0332      	.word0x332
 10245 2a21 0000 0000 	.long.LFB65
 10246 2a25 0000 00AA 	.long.LFE65-.LFB65
 10247 2a29 01        	.uleb128 0x1
 10248 2a2a 9C        	.byte0x9c
 10249 2a2b 0000 2A5D 	.long0x2a5d
 10250 2a2f 2A        	.uleb128 0x2a
 10251 2a30 4D73 6700 	.string"Msg"
 10252 2a34 01        	.byte0x1
 10253 2a35 0332      	.word0x332
 10254 2a37 0000 0E32 	.long0xe32
 10255 2a3b 02        	.uleb128 0x2
 10256 2a3c 91        	.byte0x91
 10257 2a3d 00        	.sleb128 0
 10258 2a3e 2B        	.uleb128 0x2b
 10259 2a3f 636D 6400 	.string"cmd"
 10260 2a43 01        	.byte0x1
 10261 2a44 0334      	.word0x334
 10262 2a46 0000 2A5D 	.long0x2a5d
 10263 2a4a 02        	.uleb128 0x2
 10264 2a4b 91        	.byte0x91
 10265 2a4c 78        	.sleb128 -8
 10266 2a4d 29        	.uleb128 0x29
 10267 2a4e 0000 0000 	.long.LASF463
 10268 2a52 01        	.byte0x1
 10269 2a53 0335      	.word0x335
 10270 2a55 0000 0074 	.long0x74
 10271 2a59 02        	.uleb128 0x2
68K GAS   			page 239


 10272 2a5a 91        	.byte0x91
 10273 2a5b 76        	.sleb128 -10
 10274 2a5c 00        	.byte0
 10275 2a5d 0E        	.uleb128 0xe
 10276 2a5e 04        	.byte0x4
 10277 2a5f 0000 17AD 	.long0x17ad
 10278 2a63 27        	.uleb128 0x27
 10279 2a64 0000 0000 	.long.LASF511
 10280 2a68 01        	.byte0x1
 10281 2a69 0316      	.word0x316
 10282 2a6b 0000 0000 	.long.LFB64
 10283 2a6f 0000 004E 	.long.LFE64-.LFB64
 10284 2a73 01        	.uleb128 0x1
 10285 2a74 9C        	.byte0x9c
 10286 2a75 0000 2A98 	.long0x2a98
 10287 2a79 2A        	.uleb128 0x2a
 10288 2a7a 4D73 6700 	.string"Msg"
 10289 2a7e 01        	.byte0x1
 10290 2a7f 0316      	.word0x316
 10291 2a81 0000 0E32 	.long0xe32
 10292 2a85 02        	.uleb128 0x2
 10293 2a86 91        	.byte0x91
 10294 2a87 00        	.sleb128 0
 10295 2a88 29        	.uleb128 0x29
 10296 2a89 0000 0000 	.long.LASF463
 10297 2a8d 01        	.byte0x1
 10298 2a8e 0318      	.word0x318
 10299 2a90 0000 0074 	.long0x74
 10300 2a94 02        	.uleb128 0x2
 10301 2a95 91        	.byte0x91
 10302 2a96 7A        	.sleb128 -6
 10303 2a97 00        	.byte0
 10304 2a98 27        	.uleb128 0x27
 10305 2a99 0000 0000 	.long.LASF512
 10306 2a9d 01        	.byte0x1
 10307 2a9e 02EB      	.word0x2eb
 10308 2aa0 0000 0000 	.long.LFB63
 10309 2aa4 0000 0074 	.long.LFE63-.LFB63
 10310 2aa8 01        	.uleb128 0x1
 10311 2aa9 9C        	.byte0x9c
 10312 2aaa 0000 2ACD 	.long0x2acd
 10313 2aae 2A        	.uleb128 0x2a
 10314 2aaf 4D73 6700 	.string"Msg"
 10315 2ab3 01        	.byte0x1
 10316 2ab4 02EB      	.word0x2eb
 10317 2ab6 0000 0E32 	.long0xe32
 10318 2aba 02        	.uleb128 0x2
 10319 2abb 91        	.byte0x91
 10320 2abc 00        	.sleb128 0
 10321 2abd 29        	.uleb128 0x29
 10322 2abe 0000 0000 	.long.LASF463
 10323 2ac2 01        	.byte0x1
 10324 2ac3 02ED      	.word0x2ed
 10325 2ac5 0000 0074 	.long0x74
 10326 2ac9 02        	.uleb128 0x2
 10327 2aca 91        	.byte0x91
 10328 2acb 7A        	.sleb128 -6
68K GAS   			page 240


 10329 2acc 00        	.byte0
 10330 2acd 27        	.uleb128 0x27
 10331 2ace 0000 0000 	.long.LASF513
 10332 2ad2 01        	.byte0x1
 10333 2ad3 027E      	.word0x27e
 10334 2ad5 0000 0000 	.long.LFB62
 10335 2ad9 0000 02A4 	.long.LFE62-.LFB62
 10336 2add 01        	.uleb128 0x1
 10337 2ade 9C        	.byte0x9c
 10338 2adf 0000 2B20 	.long0x2b20
 10339 2ae3 2A        	.uleb128 0x2a
 10340 2ae4 4D73 6700 	.string"Msg"
 10341 2ae8 01        	.byte0x1
 10342 2ae9 027E      	.word0x27e
 10343 2aeb 0000 0E32 	.long0xe32
 10344 2aef 02        	.uleb128 0x2
 10345 2af0 91        	.byte0x91
 10346 2af1 00        	.sleb128 0
 10347 2af2 29        	.uleb128 0x29
 10348 2af3 0000 0000 	.long.LASF514
 10349 2af7 01        	.byte0x1
 10350 2af8 0280      	.word0x280
 10351 2afa 0000 00FF 	.long0xff
 10352 2afe 02        	.uleb128 0x2
 10353 2aff 91        	.byte0x91
 10354 2b00 68        	.sleb128 -24
 10355 2b01 29        	.uleb128 0x29
 10356 2b02 0000 0000 	.long.LASF515
 10357 2b06 01        	.byte0x1
 10358 2b07 0281      	.word0x281
 10359 2b09 0000 0050 	.long0x50
 10360 2b0d 02        	.uleb128 0x2
 10361 2b0e 91        	.byte0x91
 10362 2b0f 74        	.sleb128 -12
 10363 2b10 29        	.uleb128 0x29
 10364 2b11 0000 0000 	.long.LASF516
 10365 2b15 01        	.byte0x1
 10366 2b16 0282      	.word0x282
 10367 2b18 0000 0086 	.long0x86
 10368 2b1c 02        	.uleb128 0x2
 10369 2b1d 91        	.byte0x91
 10370 2b1e 78        	.sleb128 -8
 10371 2b1f 00        	.byte0
 10372 2b20 27        	.uleb128 0x27
 10373 2b21 0000 0000 	.long.LASF517
 10374 2b25 01        	.byte0x1
 10375 2b26 01E8      	.word0x1e8
 10376 2b28 0000 0000 	.long.LFB61
 10377 2b2c 0000 028E 	.long.LFE61-.LFB61
 10378 2b30 01        	.uleb128 0x1
 10379 2b31 9C        	.byte0x9c
 10380 2b32 0000 2B64 	.long0x2b64
 10381 2b36 2A        	.uleb128 0x2a
 10382 2b37 4D73 6700 	.string"Msg"
 10383 2b3b 01        	.byte0x1
 10384 2b3c 01E8      	.word0x1e8
 10385 2b3e 0000 0E32 	.long0xe32
68K GAS   			page 241


 10386 2b42 02        	.uleb128 0x2
 10387 2b43 91        	.byte0x91
 10388 2b44 00        	.sleb128 0
 10389 2b45 29        	.uleb128 0x29
 10390 2b46 0000 0000 	.long.LASF471
 10391 2b4a 01        	.byte0x1
 10392 2b4b 01EA      	.word0x1ea
 10393 2b4d 0000 0E27 	.long0xe27
 10394 2b51 02        	.uleb128 0x2
 10395 2b52 91        	.byte0x91
 10396 2b53 7A        	.sleb128 -6
 10397 2b54 29        	.uleb128 0x29
 10398 2b55 0000 0000 	.long.LASF472
 10399 2b59 01        	.byte0x1
 10400 2b5a 01EB      	.word0x1eb
 10401 2b5c 0000 0074 	.long0x74
 10402 2b60 02        	.uleb128 0x2
 10403 2b61 91        	.byte0x91
 10404 2b62 78        	.sleb128 -8
 10405 2b63 00        	.byte0
 10406 2b64 2C        	.uleb128 0x2c
 10407 2b65 0000 0000 	.long.LASF518
 10408 2b69 01        	.byte0x1
 10409 2b6a 012A      	.word0x12a
 10410 2b6c 0000 0050 	.long0x50
 10411 2b70 0000 0000 	.long.LFB60
 10412 2b74 0000 0364 	.long.LFE60-.LFB60
 10413 2b78 01        	.uleb128 0x1
 10414 2b79 9C        	.byte0x9c
 10415 2b7a 0000 2BAC 	.long0x2bac
 10416 2b7e 29        	.uleb128 0x29
 10417 2b7f 0000 0000 	.long.LASF455
 10418 2b83 01        	.byte0x1
 10419 2b84 012C      	.word0x12c
 10420 2b86 0000 0050 	.long0x50
 10421 2b8a 02        	.uleb128 0x2
 10422 2b8b 91        	.byte0x91
 10423 2b8c 78        	.sleb128 -8
 10424 2b8d 29        	.uleb128 0x29
 10425 2b8e 0000 0000 	.long.LASF519
 10426 2b92 01        	.byte0x1
 10427 2b93 012D      	.word0x12d
 10428 2b95 0000 0086 	.long0x86
 10429 2b99 02        	.uleb128 0x2
 10430 2b9a 91        	.byte0x91
 10431 2b9b 74        	.sleb128 -12
 10432 2b9c 29        	.uleb128 0x29
 10433 2b9d 0000 0000 	.long.LASF520
 10434 2ba1 01        	.byte0x1
 10435 2ba2 012E      	.word0x12e
 10436 2ba4 0000 009F 	.long0x9f
 10437 2ba8 02        	.uleb128 0x2
 10438 2ba9 91        	.byte0x91
 10439 2baa 70        	.sleb128 -16
 10440 2bab 00        	.byte0
 10441 2bac 31        	.uleb128 0x31
 10442 2bad 0000 0000 	.long.LASF527
68K GAS   			page 242


 10443 2bb1 01        	.byte0x1
 10444 2bb2 AF        	.byte0xaf
 10445 2bb3 0000 0000 	.long.LFB59
 10446 2bb7 0000 0116 	.long.LFE59-.LFB59
 10447 2bbb 01        	.uleb128 0x1
 10448 2bbc 9C        	.byte0x9c
 10449 2bbd 32        	.uleb128 0x32
 10450 2bbe 0000 0000 	.long.LASF455
 10451 2bc2 01        	.byte0x1
 10452 2bc3 B1        	.byte0xb1
 10453 2bc4 0000 0050 	.long0x50
 10454 2bc8 02        	.uleb128 0x2
 10455 2bc9 91        	.byte0x91
 10456 2bca 70        	.sleb128 -16
 10457 2bcb 32        	.uleb128 0x32
 10458 2bcc 0000 0000 	.long.LASF521
 10459 2bd0 01        	.byte0x1
 10460 2bd1 B2        	.byte0xb2
 10461 2bd2 0000 0086 	.long0x86
 10462 2bd6 02        	.uleb128 0x2
 10463 2bd7 91        	.byte0x91
 10464 2bd8 74        	.sleb128 -12
 10465 2bd9 32        	.uleb128 0x32
 10466 2bda 0000 0000 	.long.LASF522
 10467 2bde 01        	.byte0x1
 10468 2bdf B3        	.byte0xb3
 10469 2be0 0000 0086 	.long0x86
 10470 2be4 02        	.uleb128 0x2
 10471 2be5 91        	.byte0x91
 10472 2be6 78        	.sleb128 -8
 10473 2be7 00        	.byte0
 10474 2be8 00        	.byte0
 10475               	.section.debug_abbrev,"",@progbits
 10476               	.Ldebug_abbrev0:
 10477 0000 01        	.uleb128 0x1
 10478 0001 11        	.uleb128 0x11
 10479 0002 01        	.byte0x1
 10480 0003 25        	.uleb128 0x25
 10481 0004 0E        	.uleb128 0xe
 10482 0005 13        	.uleb128 0x13
 10483 0006 0B        	.uleb128 0xb
 10484 0007 03        	.uleb128 0x3
 10485 0008 0E        	.uleb128 0xe
 10486 0009 1B        	.uleb128 0x1b
 10487 000a 0E        	.uleb128 0xe
 10488 000b 11        	.uleb128 0x11
 10489 000c 01        	.uleb128 0x1
 10490 000d 12        	.uleb128 0x12
 10491 000e 06        	.uleb128 0x6
 10492 000f 10        	.uleb128 0x10
 10493 0010 17        	.uleb128 0x17
 10494 0011 00        	.byte0
 10495 0012 00        	.byte0
 10496 0013 02        	.uleb128 0x2
 10497 0014 16        	.uleb128 0x16
 10498 0015 00        	.byte0
 10499 0016 03        	.uleb128 0x3
68K GAS   			page 243


 10500 0017 0E        	.uleb128 0xe
 10501 0018 3A        	.uleb128 0x3a
 10502 0019 0B        	.uleb128 0xb
 10503 001a 3B        	.uleb128 0x3b
 10504 001b 0B        	.uleb128 0xb
 10505 001c 49        	.uleb128 0x49
 10506 001d 13        	.uleb128 0x13
 10507 001e 00        	.byte0
 10508 001f 00        	.byte0
 10509 0020 03        	.uleb128 0x3
 10510 0021 24        	.uleb128 0x24
 10511 0022 00        	.byte0
 10512 0023 0B        	.uleb128 0xb
 10513 0024 0B        	.uleb128 0xb
 10514 0025 3E        	.uleb128 0x3e
 10515 0026 0B        	.uleb128 0xb
 10516 0027 03        	.uleb128 0x3
 10517 0028 0E        	.uleb128 0xe
 10518 0029 00        	.byte0
 10519 002a 00        	.byte0
 10520 002b 04        	.uleb128 0x4
 10521 002c 16        	.uleb128 0x16
 10522 002d 00        	.byte0
 10523 002e 03        	.uleb128 0x3
 10524 002f 0E        	.uleb128 0xe
 10525 0030 3A        	.uleb128 0x3a
 10526 0031 0B        	.uleb128 0xb
 10527 0032 3B        	.uleb128 0x3b
 10528 0033 05        	.uleb128 0x5
 10529 0034 49        	.uleb128 0x49
 10530 0035 13        	.uleb128 0x13
 10531 0036 00        	.byte0
 10532 0037 00        	.byte0
 10533 0038 05        	.uleb128 0x5
 10534 0039 26        	.uleb128 0x26
 10535 003a 00        	.byte0
 10536 003b 49        	.uleb128 0x49
 10537 003c 13        	.uleb128 0x13
 10538 003d 00        	.byte0
 10539 003e 00        	.byte0
 10540 003f 06        	.uleb128 0x6
 10541 0040 01        	.uleb128 0x1
 10542 0041 01        	.byte0x1
 10543 0042 49        	.uleb128 0x49
 10544 0043 13        	.uleb128 0x13
 10545 0044 01        	.uleb128 0x1
 10546 0045 13        	.uleb128 0x13
 10547 0046 00        	.byte0
 10548 0047 00        	.byte0
 10549 0048 07        	.uleb128 0x7
 10550 0049 21        	.uleb128 0x21
 10551 004a 00        	.byte0
 10552 004b 49        	.uleb128 0x49
 10553 004c 13        	.uleb128 0x13
 10554 004d 2F        	.uleb128 0x2f
 10555 004e 0B        	.uleb128 0xb
 10556 004f 00        	.byte0
68K GAS   			page 244


 10557 0050 00        	.byte0
 10558 0051 08        	.uleb128 0x8
 10559 0052 13        	.uleb128 0x13
 10560 0053 01        	.byte0x1
 10561 0054 0B        	.uleb128 0xb
 10562 0055 0B        	.uleb128 0xb
 10563 0056 3A        	.uleb128 0x3a
 10564 0057 0B        	.uleb128 0xb
 10565 0058 3B        	.uleb128 0x3b
 10566 0059 0B        	.uleb128 0xb
 10567 005a 01        	.uleb128 0x1
 10568 005b 13        	.uleb128 0x13
 10569 005c 00        	.byte0
 10570 005d 00        	.byte0
 10571 005e 09        	.uleb128 0x9
 10572 005f 0D        	.uleb128 0xd
 10573 0060 00        	.byte0
 10574 0061 03        	.uleb128 0x3
 10575 0062 0E        	.uleb128 0xe
 10576 0063 3A        	.uleb128 0x3a
 10577 0064 0B        	.uleb128 0xb
 10578 0065 3B        	.uleb128 0x3b
 10579 0066 0B        	.uleb128 0xb
 10580 0067 49        	.uleb128 0x49
 10581 0068 13        	.uleb128 0x13
 10582 0069 38        	.uleb128 0x38
 10583 006a 0B        	.uleb128 0xb
 10584 006b 00        	.byte0
 10585 006c 00        	.byte0
 10586 006d 0A        	.uleb128 0xa
 10587 006e 0F        	.uleb128 0xf
 10588 006f 00        	.byte0
 10589 0070 0B        	.uleb128 0xb
 10590 0071 0B        	.uleb128 0xb
 10591 0072 00        	.byte0
 10592 0073 00        	.byte0
 10593 0074 0B        	.uleb128 0xb
 10594 0075 24        	.uleb128 0x24
 10595 0076 00        	.byte0
 10596 0077 0B        	.uleb128 0xb
 10597 0078 0B        	.uleb128 0xb
 10598 0079 3E        	.uleb128 0x3e
 10599 007a 0B        	.uleb128 0xb
 10600 007b 03        	.uleb128 0x3
 10601 007c 08        	.uleb128 0x8
 10602 007d 00        	.byte0
 10603 007e 00        	.byte0
 10604 007f 0C        	.uleb128 0xc
 10605 0080 13        	.uleb128 0x13
 10606 0081 01        	.byte0x1
 10607 0082 03        	.uleb128 0x3
 10608 0083 0E        	.uleb128 0xe
 10609 0084 0B        	.uleb128 0xb
 10610 0085 0B        	.uleb128 0xb
 10611 0086 3A        	.uleb128 0x3a
 10612 0087 0B        	.uleb128 0xb
 10613 0088 3B        	.uleb128 0x3b
68K GAS   			page 245


 10614 0089 0B        	.uleb128 0xb
 10615 008a 01        	.uleb128 0x1
 10616 008b 13        	.uleb128 0x13
 10617 008c 00        	.byte0
 10618 008d 00        	.byte0
 10619 008e 0D        	.uleb128 0xd
 10620 008f 13        	.uleb128 0x13
 10621 0090 00        	.byte0
 10622 0091 03        	.uleb128 0x3
 10623 0092 0E        	.uleb128 0xe
 10624 0093 3C        	.uleb128 0x3c
 10625 0094 19        	.uleb128 0x19
 10626 0095 00        	.byte0
 10627 0096 00        	.byte0
 10628 0097 0E        	.uleb128 0xe
 10629 0098 0F        	.uleb128 0xf
 10630 0099 00        	.byte0
 10631 009a 0B        	.uleb128 0xb
 10632 009b 0B        	.uleb128 0xb
 10633 009c 49        	.uleb128 0x49
 10634 009d 13        	.uleb128 0x13
 10635 009e 00        	.byte0
 10636 009f 00        	.byte0
 10637 00a0 0F        	.uleb128 0xf
 10638 00a1 17        	.uleb128 0x17
 10639 00a2 01        	.byte0x1
 10640 00a3 0B        	.uleb128 0xb
 10641 00a4 0B        	.uleb128 0xb
 10642 00a5 3A        	.uleb128 0x3a
 10643 00a6 0B        	.uleb128 0xb
 10644 00a7 3B        	.uleb128 0x3b
 10645 00a8 0B        	.uleb128 0xb
 10646 00a9 01        	.uleb128 0x1
 10647 00aa 13        	.uleb128 0x13
 10648 00ab 00        	.byte0
 10649 00ac 00        	.byte0
 10650 00ad 10        	.uleb128 0x10
 10651 00ae 0D        	.uleb128 0xd
 10652 00af 00        	.byte0
 10653 00b0 03        	.uleb128 0x3
 10654 00b1 0E        	.uleb128 0xe
 10655 00b2 3A        	.uleb128 0x3a
 10656 00b3 0B        	.uleb128 0xb
 10657 00b4 3B        	.uleb128 0x3b
 10658 00b5 0B        	.uleb128 0xb
 10659 00b6 49        	.uleb128 0x49
 10660 00b7 13        	.uleb128 0x13
 10661 00b8 00        	.byte0
 10662 00b9 00        	.byte0
 10663 00ba 11        	.uleb128 0x11
 10664 00bb 0D        	.uleb128 0xd
 10665 00bc 00        	.byte0
 10666 00bd 03        	.uleb128 0x3
 10667 00be 08        	.uleb128 0x8
 10668 00bf 3A        	.uleb128 0x3a
 10669 00c0 0B        	.uleb128 0xb
 10670 00c1 3B        	.uleb128 0x3b
68K GAS   			page 246


 10671 00c2 0B        	.uleb128 0xb
 10672 00c3 49        	.uleb128 0x49
 10673 00c4 13        	.uleb128 0x13
 10674 00c5 38        	.uleb128 0x38
 10675 00c6 0B        	.uleb128 0xb
 10676 00c7 00        	.byte0
 10677 00c8 00        	.byte0
 10678 00c9 12        	.uleb128 0x12
 10679 00ca 13        	.uleb128 0x13
 10680 00cb 01        	.byte0x1
 10681 00cc 03        	.uleb128 0x3
 10682 00cd 0E        	.uleb128 0xe
 10683 00ce 0B        	.uleb128 0xb
 10684 00cf 05        	.uleb128 0x5
 10685 00d0 3A        	.uleb128 0x3a
 10686 00d1 0B        	.uleb128 0xb
 10687 00d2 3B        	.uleb128 0x3b
 10688 00d3 0B        	.uleb128 0xb
 10689 00d4 01        	.uleb128 0x1
 10690 00d5 13        	.uleb128 0x13
 10691 00d6 00        	.byte0
 10692 00d7 00        	.byte0
 10693 00d8 13        	.uleb128 0x13
 10694 00d9 0D        	.uleb128 0xd
 10695 00da 00        	.byte0
 10696 00db 03        	.uleb128 0x3
 10697 00dc 0E        	.uleb128 0xe
 10698 00dd 3A        	.uleb128 0x3a
 10699 00de 0B        	.uleb128 0xb
 10700 00df 3B        	.uleb128 0x3b
 10701 00e0 0B        	.uleb128 0xb
 10702 00e1 49        	.uleb128 0x49
 10703 00e2 13        	.uleb128 0x13
 10704 00e3 38        	.uleb128 0x38
 10705 00e4 05        	.uleb128 0x5
 10706 00e5 00        	.byte0
 10707 00e6 00        	.byte0
 10708 00e7 14        	.uleb128 0x14
 10709 00e8 15        	.uleb128 0x15
 10710 00e9 00        	.byte0
 10711 00ea 27        	.uleb128 0x27
 10712 00eb 19        	.uleb128 0x19
 10713 00ec 00        	.byte0
 10714 00ed 00        	.byte0
 10715 00ee 15        	.uleb128 0x15
 10716 00ef 15        	.uleb128 0x15
 10717 00f0 01        	.byte0x1
 10718 00f1 27        	.uleb128 0x27
 10719 00f2 19        	.uleb128 0x19
 10720 00f3 49        	.uleb128 0x49
 10721 00f4 13        	.uleb128 0x13
 10722 00f5 01        	.uleb128 0x1
 10723 00f6 13        	.uleb128 0x13
 10724 00f7 00        	.byte0
 10725 00f8 00        	.byte0
 10726 00f9 16        	.uleb128 0x16
 10727 00fa 05        	.uleb128 0x5
68K GAS   			page 247


 10728 00fb 00        	.byte0
 10729 00fc 49        	.uleb128 0x49
 10730 00fd 13        	.uleb128 0x13
 10731 00fe 00        	.byte0
 10732 00ff 00        	.byte0
 10733 0100 17        	.uleb128 0x17
 10734 0101 13        	.uleb128 0x13
 10735 0102 01        	.byte0x1
 10736 0103 03        	.uleb128 0x3
 10737 0104 0E        	.uleb128 0xe
 10738 0105 0B        	.uleb128 0xb
 10739 0106 05        	.uleb128 0x5
 10740 0107 3A        	.uleb128 0x3a
 10741 0108 0B        	.uleb128 0xb
 10742 0109 3B        	.uleb128 0x3b
 10743 010a 05        	.uleb128 0x5
 10744 010b 01        	.uleb128 0x1
 10745 010c 13        	.uleb128 0x13
 10746 010d 00        	.byte0
 10747 010e 00        	.byte0
 10748 010f 18        	.uleb128 0x18
 10749 0110 0D        	.uleb128 0xd
 10750 0111 00        	.byte0
 10751 0112 03        	.uleb128 0x3
 10752 0113 0E        	.uleb128 0xe
 10753 0114 3A        	.uleb128 0x3a
 10754 0115 0B        	.uleb128 0xb
 10755 0116 3B        	.uleb128 0x3b
 10756 0117 05        	.uleb128 0x5
 10757 0118 49        	.uleb128 0x49
 10758 0119 13        	.uleb128 0x13
 10759 011a 38        	.uleb128 0x38
 10760 011b 0B        	.uleb128 0xb
 10761 011c 00        	.byte0
 10762 011d 00        	.byte0
 10763 011e 19        	.uleb128 0x19
 10764 011f 0D        	.uleb128 0xd
 10765 0120 00        	.byte0
 10766 0121 03        	.uleb128 0x3
 10767 0122 0E        	.uleb128 0xe
 10768 0123 3A        	.uleb128 0x3a
 10769 0124 0B        	.uleb128 0xb
 10770 0125 3B        	.uleb128 0x3b
 10771 0126 05        	.uleb128 0x5
 10772 0127 49        	.uleb128 0x49
 10773 0128 13        	.uleb128 0x13
 10774 0129 38        	.uleb128 0x38
 10775 012a 05        	.uleb128 0x5
 10776 012b 00        	.byte0
 10777 012c 00        	.byte0
 10778 012d 1A        	.uleb128 0x1a
 10779 012e 13        	.uleb128 0x13
 10780 012f 01        	.byte0x1
 10781 0130 03        	.uleb128 0x3
 10782 0131 0E        	.uleb128 0xe
 10783 0132 0B        	.uleb128 0xb
 10784 0133 0B        	.uleb128 0xb
68K GAS   			page 248


 10785 0134 3A        	.uleb128 0x3a
 10786 0135 0B        	.uleb128 0xb
 10787 0136 3B        	.uleb128 0x3b
 10788 0137 05        	.uleb128 0x5
 10789 0138 01        	.uleb128 0x1
 10790 0139 13        	.uleb128 0x13
 10791 013a 00        	.byte0
 10792 013b 00        	.byte0
 10793 013c 1B        	.uleb128 0x1b
 10794 013d 13        	.uleb128 0x13
 10795 013e 01        	.byte0x1
 10796 013f 0B        	.uleb128 0xb
 10797 0140 0B        	.uleb128 0xb
 10798 0141 3A        	.uleb128 0x3a
 10799 0142 0B        	.uleb128 0xb
 10800 0143 3B        	.uleb128 0x3b
 10801 0144 05        	.uleb128 0x5
 10802 0145 01        	.uleb128 0x1
 10803 0146 13        	.uleb128 0x13
 10804 0147 00        	.byte0
 10805 0148 00        	.byte0
 10806 0149 1C        	.uleb128 0x1c
 10807 014a 17        	.uleb128 0x17
 10808 014b 01        	.byte0x1
 10809 014c 0B        	.uleb128 0xb
 10810 014d 0B        	.uleb128 0xb
 10811 014e 3A        	.uleb128 0x3a
 10812 014f 0B        	.uleb128 0xb
 10813 0150 3B        	.uleb128 0x3b
 10814 0151 05        	.uleb128 0x5
 10815 0152 01        	.uleb128 0x1
 10816 0153 13        	.uleb128 0x13
 10817 0154 00        	.byte0
 10818 0155 00        	.byte0
 10819 0156 1D        	.uleb128 0x1d
 10820 0157 0D        	.uleb128 0xd
 10821 0158 00        	.byte0
 10822 0159 03        	.uleb128 0x3
 10823 015a 0E        	.uleb128 0xe
 10824 015b 3A        	.uleb128 0x3a
 10825 015c 0B        	.uleb128 0xb
 10826 015d 3B        	.uleb128 0x3b
 10827 015e 05        	.uleb128 0x5
 10828 015f 49        	.uleb128 0x49
 10829 0160 13        	.uleb128 0x13
 10830 0161 00        	.byte0
 10831 0162 00        	.byte0
 10832 0163 1E        	.uleb128 0x1e
 10833 0164 15        	.uleb128 0x15
 10834 0165 01        	.byte0x1
 10835 0166 27        	.uleb128 0x27
 10836 0167 19        	.uleb128 0x19
 10837 0168 01        	.uleb128 0x1
 10838 0169 13        	.uleb128 0x13
 10839 016a 00        	.byte0
 10840 016b 00        	.byte0
 10841 016c 1F        	.uleb128 0x1f
68K GAS   			page 249


 10842 016d 34        	.uleb128 0x34
 10843 016e 00        	.byte0
 10844 016f 03        	.uleb128 0x3
 10845 0170 0E        	.uleb128 0xe
 10846 0171 3A        	.uleb128 0x3a
 10847 0172 0B        	.uleb128 0xb
 10848 0173 3B        	.uleb128 0x3b
 10849 0174 05        	.uleb128 0x5
 10850 0175 49        	.uleb128 0x49
 10851 0176 13        	.uleb128 0x13
 10852 0177 3F        	.uleb128 0x3f
 10853 0178 19        	.uleb128 0x19
 10854 0179 3C        	.uleb128 0x3c
 10855 017a 19        	.uleb128 0x19
 10856 017b 00        	.byte0
 10857 017c 00        	.byte0
 10858 017d 20        	.uleb128 0x20
 10859 017e 34        	.uleb128 0x34
 10860 017f 00        	.byte0
 10861 0180 03        	.uleb128 0x3
 10862 0181 0E        	.uleb128 0xe
 10863 0182 3A        	.uleb128 0x3a
 10864 0183 0B        	.uleb128 0xb
 10865 0184 3B        	.uleb128 0x3b
 10866 0185 0B        	.uleb128 0xb
 10867 0186 49        	.uleb128 0x49
 10868 0187 13        	.uleb128 0x13
 10869 0188 3F        	.uleb128 0x3f
 10870 0189 19        	.uleb128 0x19
 10871 018a 3C        	.uleb128 0x3c
 10872 018b 19        	.uleb128 0x19
 10873 018c 00        	.byte0
 10874 018d 00        	.byte0
 10875 018e 21        	.uleb128 0x21
 10876 018f 0D        	.uleb128 0xd
 10877 0190 00        	.byte0
 10878 0191 03        	.uleb128 0x3
 10879 0192 08        	.uleb128 0x8
 10880 0193 3A        	.uleb128 0x3a
 10881 0194 0B        	.uleb128 0xb
 10882 0195 3B        	.uleb128 0x3b
 10883 0196 0B        	.uleb128 0xb
 10884 0197 49        	.uleb128 0x49
 10885 0198 13        	.uleb128 0x13
 10886 0199 00        	.byte0
 10887 019a 00        	.byte0
 10888 019b 22        	.uleb128 0x22
 10889 019c 13        	.uleb128 0x13
 10890 019d 01        	.byte0x1
 10891 019e 0B        	.uleb128 0xb
 10892 019f 05        	.uleb128 0x5
 10893 01a0 3A        	.uleb128 0x3a
 10894 01a1 0B        	.uleb128 0xb
 10895 01a2 3B        	.uleb128 0x3b
 10896 01a3 0B        	.uleb128 0xb
 10897 01a4 01        	.uleb128 0x1
 10898 01a5 13        	.uleb128 0x13
68K GAS   			page 250


 10899 01a6 00        	.byte0
 10900 01a7 00        	.byte0
 10901 01a8 23        	.uleb128 0x23
 10902 01a9 13        	.uleb128 0x13
 10903 01aa 01        	.byte0x1
 10904 01ab 0B        	.uleb128 0xb
 10905 01ac 06        	.uleb128 0x6
 10906 01ad 3A        	.uleb128 0x3a
 10907 01ae 0B        	.uleb128 0xb
 10908 01af 3B        	.uleb128 0x3b
 10909 01b0 0B        	.uleb128 0xb
 10910 01b1 01        	.uleb128 0x1
 10911 01b2 13        	.uleb128 0x13
 10912 01b3 00        	.byte0
 10913 01b4 00        	.byte0
 10914 01b5 24        	.uleb128 0x24
 10915 01b6 21        	.uleb128 0x21
 10916 01b7 00        	.byte0
 10917 01b8 49        	.uleb128 0x49
 10918 01b9 13        	.uleb128 0x13
 10919 01ba 2F        	.uleb128 0x2f
 10920 01bb 05        	.uleb128 0x5
 10921 01bc 00        	.byte0
 10922 01bd 00        	.byte0
 10923 01be 25        	.uleb128 0x25
 10924 01bf 0D        	.uleb128 0xd
 10925 01c0 00        	.byte0
 10926 01c1 03        	.uleb128 0x3
 10927 01c2 0E        	.uleb128 0xe
 10928 01c3 3A        	.uleb128 0x3a
 10929 01c4 0B        	.uleb128 0xb
 10930 01c5 3B        	.uleb128 0x3b
 10931 01c6 0B        	.uleb128 0xb
 10932 01c7 49        	.uleb128 0x49
 10933 01c8 13        	.uleb128 0x13
 10934 01c9 38        	.uleb128 0x38
 10935 01ca 06        	.uleb128 0x6
 10936 01cb 00        	.byte0
 10937 01cc 00        	.byte0
 10938 01cd 26        	.uleb128 0x26
 10939 01ce 34        	.uleb128 0x34
 10940 01cf 00        	.byte0
 10941 01d0 47        	.uleb128 0x47
 10942 01d1 13        	.uleb128 0x13
 10943 01d2 3A        	.uleb128 0x3a
 10944 01d3 0B        	.uleb128 0xb
 10945 01d4 3B        	.uleb128 0x3b
 10946 01d5 0B        	.uleb128 0xb
 10947 01d6 02        	.uleb128 0x2
 10948 01d7 18        	.uleb128 0x18
 10949 01d8 00        	.byte0
 10950 01d9 00        	.byte0
 10951 01da 27        	.uleb128 0x27
 10952 01db 2E        	.uleb128 0x2e
 10953 01dc 01        	.byte0x1
 10954 01dd 3F        	.uleb128 0x3f
 10955 01de 19        	.uleb128 0x19
68K GAS   			page 251


 10956 01df 03        	.uleb128 0x3
 10957 01e0 0E        	.uleb128 0xe
 10958 01e1 3A        	.uleb128 0x3a
 10959 01e2 0B        	.uleb128 0xb
 10960 01e3 3B        	.uleb128 0x3b
 10961 01e4 05        	.uleb128 0x5
 10962 01e5 27        	.uleb128 0x27
 10963 01e6 19        	.uleb128 0x19
 10964 01e7 11        	.uleb128 0x11
 10965 01e8 01        	.uleb128 0x1
 10966 01e9 12        	.uleb128 0x12
 10967 01ea 06        	.uleb128 0x6
 10968 01eb 40        	.uleb128 0x40
 10969 01ec 18        	.uleb128 0x18
 10970 01ed 9642      	.uleb128 0x2116
 10971 01ef 19        	.uleb128 0x19
 10972 01f0 01        	.uleb128 0x1
 10973 01f1 13        	.uleb128 0x13
 10974 01f2 00        	.byte0
 10975 01f3 00        	.byte0
 10976 01f4 28        	.uleb128 0x28
 10977 01f5 05        	.uleb128 0x5
 10978 01f6 00        	.byte0
 10979 01f7 03        	.uleb128 0x3
 10980 01f8 0E        	.uleb128 0xe
 10981 01f9 3A        	.uleb128 0x3a
 10982 01fa 0B        	.uleb128 0xb
 10983 01fb 3B        	.uleb128 0x3b
 10984 01fc 05        	.uleb128 0x5
 10985 01fd 49        	.uleb128 0x49
 10986 01fe 13        	.uleb128 0x13
 10987 01ff 02        	.uleb128 0x2
 10988 0200 18        	.uleb128 0x18
 10989 0201 00        	.byte0
 10990 0202 00        	.byte0
 10991 0203 29        	.uleb128 0x29
 10992 0204 34        	.uleb128 0x34
 10993 0205 00        	.byte0
 10994 0206 03        	.uleb128 0x3
 10995 0207 0E        	.uleb128 0xe
 10996 0208 3A        	.uleb128 0x3a
 10997 0209 0B        	.uleb128 0xb
 10998 020a 3B        	.uleb128 0x3b
 10999 020b 05        	.uleb128 0x5
 11000 020c 49        	.uleb128 0x49
 11001 020d 13        	.uleb128 0x13
 11002 020e 02        	.uleb128 0x2
 11003 020f 18        	.uleb128 0x18
 11004 0210 00        	.byte0
 11005 0211 00        	.byte0
 11006 0212 2A        	.uleb128 0x2a
 11007 0213 05        	.uleb128 0x5
 11008 0214 00        	.byte0
 11009 0215 03        	.uleb128 0x3
 11010 0216 08        	.uleb128 0x8
 11011 0217 3A        	.uleb128 0x3a
 11012 0218 0B        	.uleb128 0xb
68K GAS   			page 252


 11013 0219 3B        	.uleb128 0x3b
 11014 021a 05        	.uleb128 0x5
 11015 021b 49        	.uleb128 0x49
 11016 021c 13        	.uleb128 0x13
 11017 021d 02        	.uleb128 0x2
 11018 021e 18        	.uleb128 0x18
 11019 021f 00        	.byte0
 11020 0220 00        	.byte0
 11021 0221 2B        	.uleb128 0x2b
 11022 0222 34        	.uleb128 0x34
 11023 0223 00        	.byte0
 11024 0224 03        	.uleb128 0x3
 11025 0225 08        	.uleb128 0x8
 11026 0226 3A        	.uleb128 0x3a
 11027 0227 0B        	.uleb128 0xb
 11028 0228 3B        	.uleb128 0x3b
 11029 0229 05        	.uleb128 0x5
 11030 022a 49        	.uleb128 0x49
 11031 022b 13        	.uleb128 0x13
 11032 022c 02        	.uleb128 0x2
 11033 022d 18        	.uleb128 0x18
 11034 022e 00        	.byte0
 11035 022f 00        	.byte0
 11036 0230 2C        	.uleb128 0x2c
 11037 0231 2E        	.uleb128 0x2e
 11038 0232 01        	.byte0x1
 11039 0233 3F        	.uleb128 0x3f
 11040 0234 19        	.uleb128 0x19
 11041 0235 03        	.uleb128 0x3
 11042 0236 0E        	.uleb128 0xe
 11043 0237 3A        	.uleb128 0x3a
 11044 0238 0B        	.uleb128 0xb
 11045 0239 3B        	.uleb128 0x3b
 11046 023a 05        	.uleb128 0x5
 11047 023b 27        	.uleb128 0x27
 11048 023c 19        	.uleb128 0x19
 11049 023d 49        	.uleb128 0x49
 11050 023e 13        	.uleb128 0x13
 11051 023f 11        	.uleb128 0x11
 11052 0240 01        	.uleb128 0x1
 11053 0241 12        	.uleb128 0x12
 11054 0242 06        	.uleb128 0x6
 11055 0243 40        	.uleb128 0x40
 11056 0244 18        	.uleb128 0x18
 11057 0245 9642      	.uleb128 0x2116
 11058 0247 19        	.uleb128 0x19
 11059 0248 01        	.uleb128 0x1
 11060 0249 13        	.uleb128 0x13
 11061 024a 00        	.byte0
 11062 024b 00        	.byte0
 11063 024c 2D        	.uleb128 0x2d
 11064 024d 0B        	.uleb128 0xb
 11065 024e 01        	.byte0x1
 11066 024f 11        	.uleb128 0x11
 11067 0250 01        	.uleb128 0x1
 11068 0251 12        	.uleb128 0x12
 11069 0252 06        	.uleb128 0x6
68K GAS   			page 253


 11070 0253 00        	.byte0
 11071 0254 00        	.byte0
 11072 0255 2E        	.uleb128 0x2e
 11073 0256 2E        	.uleb128 0x2e
 11074 0257 01        	.byte0x1
 11075 0258 3F        	.uleb128 0x3f
 11076 0259 19        	.uleb128 0x19
 11077 025a 03        	.uleb128 0x3
 11078 025b 0E        	.uleb128 0xe
 11079 025c 3A        	.uleb128 0x3a
 11080 025d 0B        	.uleb128 0xb
 11081 025e 3B        	.uleb128 0x3b
 11082 025f 05        	.uleb128 0x5
 11083 0260 27        	.uleb128 0x27
 11084 0261 19        	.uleb128 0x19
 11085 0262 49        	.uleb128 0x49
 11086 0263 13        	.uleb128 0x13
 11087 0264 11        	.uleb128 0x11
 11088 0265 01        	.uleb128 0x1
 11089 0266 12        	.uleb128 0x12
 11090 0267 06        	.uleb128 0x6
 11091 0268 40        	.uleb128 0x40
 11092 0269 18        	.uleb128 0x18
 11093 026a 9742      	.uleb128 0x2117
 11094 026c 19        	.uleb128 0x19
 11095 026d 01        	.uleb128 0x1
 11096 026e 13        	.uleb128 0x13
 11097 026f 00        	.byte0
 11098 0270 00        	.byte0
 11099 0271 2F        	.uleb128 0x2f
 11100 0272 2E        	.uleb128 0x2e
 11101 0273 00        	.byte0
 11102 0274 3F        	.uleb128 0x3f
 11103 0275 19        	.uleb128 0x19
 11104 0276 03        	.uleb128 0x3
 11105 0277 0E        	.uleb128 0xe
 11106 0278 3A        	.uleb128 0x3a
 11107 0279 0B        	.uleb128 0xb
 11108 027a 3B        	.uleb128 0x3b
 11109 027b 05        	.uleb128 0x5
 11110 027c 27        	.uleb128 0x27
 11111 027d 19        	.uleb128 0x19
 11112 027e 11        	.uleb128 0x11
 11113 027f 01        	.uleb128 0x1
 11114 0280 12        	.uleb128 0x12
 11115 0281 06        	.uleb128 0x6
 11116 0282 40        	.uleb128 0x40
 11117 0283 18        	.uleb128 0x18
 11118 0284 9642      	.uleb128 0x2116
 11119 0286 19        	.uleb128 0x19
 11120 0287 00        	.byte0
 11121 0288 00        	.byte0
 11122 0289 30        	.uleb128 0x30
 11123 028a 0B        	.uleb128 0xb
 11124 028b 01        	.byte0x1
 11125 028c 55        	.uleb128 0x55
 11126 028d 17        	.uleb128 0x17
68K GAS   			page 254


 11127 028e 00        	.byte0
 11128 028f 00        	.byte0
 11129 0290 31        	.uleb128 0x31
 11130 0291 2E        	.uleb128 0x2e
 11131 0292 01        	.byte0x1
 11132 0293 3F        	.uleb128 0x3f
 11133 0294 19        	.uleb128 0x19
 11134 0295 03        	.uleb128 0x3
 11135 0296 0E        	.uleb128 0xe
 11136 0297 3A        	.uleb128 0x3a
 11137 0298 0B        	.uleb128 0xb
 11138 0299 3B        	.uleb128 0x3b
 11139 029a 0B        	.uleb128 0xb
 11140 029b 27        	.uleb128 0x27
 11141 029c 19        	.uleb128 0x19
 11142 029d 11        	.uleb128 0x11
 11143 029e 01        	.uleb128 0x1
 11144 029f 12        	.uleb128 0x12
 11145 02a0 06        	.uleb128 0x6
 11146 02a1 40        	.uleb128 0x40
 11147 02a2 18        	.uleb128 0x18
 11148 02a3 9642      	.uleb128 0x2116
 11149 02a5 19        	.uleb128 0x19
 11150 02a6 00        	.byte0
 11151 02a7 00        	.byte0
 11152 02a8 32        	.uleb128 0x32
 11153 02a9 34        	.uleb128 0x34
 11154 02aa 00        	.byte0
 11155 02ab 03        	.uleb128 0x3
 11156 02ac 0E        	.uleb128 0xe
 11157 02ad 3A        	.uleb128 0x3a
 11158 02ae 0B        	.uleb128 0xb
 11159 02af 3B        	.uleb128 0x3b
 11160 02b0 0B        	.uleb128 0xb
 11161 02b1 49        	.uleb128 0x49
 11162 02b2 13        	.uleb128 0x13
 11163 02b3 02        	.uleb128 0x2
 11164 02b4 18        	.uleb128 0x18
 11165 02b5 00        	.byte0
 11166 02b6 00        	.byte0
 11167 02b7 00        	.byte0
 11168               	.section.debug_aranges,"",@progbits
 11169 0000 0000 001C 	.long0x1c
 11170 0004 0002      	.word0x2
 11171 0006 0000 0000 	.long.Ldebug_info0
 11172 000a 04        	.byte0x4
 11173 000b 00        	.byte0
 11174 000c 0000      	.word0
 11175 000e 0000      	.word0
 11176 0010 0000 0000 	.long.Ltext0
 11177 0014 0000 2696 	.long.Letext0-.Ltext0
 11178 0018 0000 0000 	.long0
 11179 001c 0000 0000 	.long0
 11180               	.section.debug_ranges,"",@progbits
 11181               	.Ldebug_ranges0:
 11182 0000 0000 0F92 	.long.LBB2-.Ltext0
 11183 0004 0000 1018 	.long.LBE2-.Ltext0
68K GAS   			page 255


 11184 0008 0000 101A 	.long.LBB3-.Ltext0
 11185 000c 0000 104E 	.long.LBE3-.Ltext0
 11186 0010 0000 1050 	.long.LBB4-.Ltext0
 11187 0014 0000 1084 	.long.LBE4-.Ltext0
 11188 0018 0000 0000 	.long0
 11189 001c 0000 0000 	.long0
 11190 0020 0000 10BA 	.long.LBB5-.Ltext0
 11191 0024 0000 1140 	.long.LBE5-.Ltext0
 11192 0028 0000 1142 	.long.LBB6-.Ltext0
 11193 002c 0000 1176 	.long.LBE6-.Ltext0
 11194 0030 0000 1178 	.long.LBB7-.Ltext0
 11195 0034 0000 11AC 	.long.LBE7-.Ltext0
 11196 0038 0000 0000 	.long0
 11197 003c 0000 0000 	.long0
 11198 0040 0000 11E2 	.long.LBB8-.Ltext0
 11199 0044 0000 12A2 	.long.LBE8-.Ltext0
 11200 0048 0000 12A4 	.long.LBB9-.Ltext0
 11201 004c 0000 12DC 	.long.LBE9-.Ltext0
 11202 0050 0000 12DE 	.long.LBB10-.Ltext0
 11203 0054 0000 1316 	.long.LBE10-.Ltext0
 11204 0058 0000 0000 	.long0
 11205 005c 0000 0000 	.long0
 11206 0060 0000 134C 	.long.LBB11-.Ltext0
 11207 0064 0000 13F6 	.long.LBE11-.Ltext0
 11208 0068 0000 13F8 	.long.LBB12-.Ltext0
 11209 006c 0000 142C 	.long.LBE12-.Ltext0
 11210 0070 0000 142E 	.long.LBB13-.Ltext0
 11211 0074 0000 1462 	.long.LBE13-.Ltext0
 11212 0078 0000 0000 	.long0
 11213 007c 0000 0000 	.long0
 11214               	.section.debug_line,"",@progbits
 11215               	.Ldebug_line0:
 11216 0000 0000 07FC 	.section.debug_str,"MS",@progbits,1
 11216      0002 0000 
 11216      03C2 0201 
 11216      FB0E 0D00 
 11216      0101 0101 
 11217               	.LASF505:
 11218 0000 4C6F 6361 	.string"LocalFile"
 11218      6C46 696C 
 11218      6500 
 11219               	.LASF446:
 11220 000a 4346 455F 	.string"CFE_ES_TaskData"
 11220      4553 5F54 
 11220      6173 6B44 
 11220      6174 6100 
 11221               	.LASF133:
 11222 001a 5F73 6967 	.string"_signal_buf"
 11222      6E61 6C5F 
 11222      6275 6600 
 11223               	.LASF42:
 11224 0026 5F73 7369 	.string"_ssize_t"
 11224      7A65 5F74 
 11224      00
 11225               	.LASF509:
 11226 002f 4C6F 6361 	.string"LocalCmd"
 11226      6C43 6D64 
68K GAS   			page 256


 11226      00
 11227               	.LASF478:
 11228 0038 4669 6C65 	.string"FileHdr"
 11228      4864 7200 
 11229               	.LASF144:
 11230 0040 5F5F 6C6F 	.string"__locale_t"
 11230      6361 6C65 
 11230      5F74 00
 11231               	.LASF47:
 11232 004b 5F5F 7661 	.string"__value"
 11232      6C75 6500 
 11233               	.LASF145:
 11234 0053 5F5F 7366 	.string"__sf"
 11234      00
 11235               	.LASF450:
 11236 0058 4346 455F 	.string"CFE_ES_FileWriteByteCntErr"
 11236      4553 5F46 
 11236      696C 6557 
 11236      7269 7465 
 11236      4279 7465 
 11237               	.LASF238:
 11238 0073 4346 455F 	.string"CFE_FS_Header_t"
 11238      4653 5F48 
 11238      6561 6465 
 11238      725F 7400 
 11239               	.LASF209:
 11240 0083 4343 5344 	.string"CCSDS_PriHdr_t"
 11240      535F 5072 
 11240      6948 6472 
 11240      5F74 00
 11241               	.LASF82:
 11242 0092 5F72 6561 	.string"_read"
 11242      6400 
 11243               	.LASF343:
 11244 0098 5265 7374 	.string"RestartType"
 11244      6172 7454 
 11244      7970 6500 
 11245               	.LASF83:
 11246 00a4 5F77 7269 	.string"_write"
 11246      7465 00
 11247               	.LASF274:
 11248 00ab 5472 6967 	.string"TriggerMask"
 11248      6765 724D 
 11248      6173 6B00 
 11249               	.LASF206:
 11250 00b7 5374 7265 	.string"StreamId"
 11250      616D 4964 
 11250      00
 11251               	.LASF420:
 11252 00c0 436F 756E 	.string"Counter"
 11252      7465 7200 
 11253               	.LASF124:
 11254 00c8 5F61 7363 	.string"_asctime_buf"
 11254      7469 6D65 
 11254      5F62 7566 
 11254      00
 11255               	.LASF439:
68K GAS   			page 257


 11256 00d5 4D73 6750 	.string"MsgPtr"
 11256      7472 00
 11257               	.LASF109:
 11258 00dc 5F63 7674 	.string"_cvtlen"
 11258      6C65 6E00 
 11259               	.LASF479:
 11260 00e4 5265 7365 	.string"ResetDataAddr"
 11260      7444 6174 
 11260      6141 6464 
 11260      7200 
 11261               	.LASF376:
 11262 00f2 436D 6443 	.string"CmdCounter"
 11262      6F75 6E74 
 11262      6572 00
 11263               	.LASF36:
 11264 00fd 5F4D 7574 	.string"_Mutex_Control"
 11264      6578 5F43 
 11264      6F6E 7472 
 11264      6F6C 00
 11265               	.LASF313:
 11266 010c 4346 455F 	.string"CFE_ES_LibRecord_t"
 11266      4553 5F4C 
 11266      6962 5265 
 11266      636F 7264 
 11266      5F74 00
 11267               	.LASF259:
 11268 011f 4346 455F 	.string"CFE_ES_PerfDataEntry_t"
 11268      4553 5F50 
 11268      6572 6644 
 11268      6174 6145 
 11268      6E74 7279 
 11269               	.LASF148:
 11270 0136 5F67 6C6F 	.string"_global_atexit"
 11270      6261 6C5F 
 11270      6174 6578 
 11270      6974 00
 11271               	.LASF442:
 11272 0145 5069 7065 	.string"PipeDepth"
 11272      4465 7074 
 11272      6800 
 11273               	.LASF174:
 11274 014f 4E75 6D4F 	.string"NumOfChildTasks"
 11274      6643 6869 
 11274      6C64 5461 
 11274      736B 7300 
 11275               	.LASF11:
 11276 015f 7569 6E74 	.string"uint32"
 11276      3332 00
 11277               	.LASF510:
 11278 0166 4346 455F 	.string"CFE_ES_RestartCmd"
 11278      4553 5F52 
 11278      6573 7461 
 11278      7274 436D 
 11278      6400 
 11279               	.LASF493:
 11280 0178 5175 6572 	.string"QueryAllFilename"
 11280      7941 6C6C 
68K GAS   			page 258


 11280      4669 6C65 
 11280      6E61 6D65 
 11280      00
 11281               	.LASF143:
 11282 0189 5F75 6E75 	.string"_unused"
 11282      7365 6400 
 11283               	.LASF56:
 11284 0191 5F5F 746D 	.string"__tm"
 11284      00
 11285               	.LASF139:
 11286 0196 5F77 6373 	.string"_wcsrtombs_state"
 11286      7274 6F6D 
 11286      6273 5F73 
 11286      7461 7465 
 11286      00
 11287               	.LASF87:
 11288 01a7 5F6E 6275 	.string"_nbuf"
 11288      6600 
 11289               	.LASF57:
 11290 01ad 5F5F 746D 	.string"__tm_sec"
 11290      5F73 6563 
 11290      00
 11291               	.LASF35:
 11292 01b6 5F54 6872 	.string"_Thread_Control"
 11292      6561 645F 
 11292      436F 6E74 
 11292      726F 6C00 
 11293               	.LASF132:
 11294 01c6 5F6C 3634 	.string"_l64a_buf"
 11294      615F 6275 
 11294      6600 
 11295               	.LASF297:
 11296 01d0 5469 6D65 	.string"TimeResetVars"
 11296      5265 7365 
 11296      7456 6172 
 11296      7300 
 11297               	.LASF393:
 11298 01de 5265 6769 	.string"RegisteredTasks"
 11298      7374 6572 
 11298      6564 5461 
 11298      736B 7300 
 11299               	.LASF486:
 11300 01ee 4346 455F 	.string"CFE_ES_WriteSyslogCmd"
 11300      4553 5F57 
 11300      7269 7465 
 11300      5379 736C 
 11300      6F67 436D 
 11301               	.LASF385:
 11302 0204 4F53 414C 	.string"OSALRevision"
 11302      5265 7669 
 11302      7369 6F6E 
 11302      00
 11303               	.LASF96:
 11304 0211 5F73 7464 	.string"_stdin"
 11304      696E 00
 11305               	.LASF253:
 11306 0218 4170 7049 	.string"AppID"
68K GAS   			page 259


 11306      4400 
 11307               	.LASF186:
 11308 021e 4368 6563 	.string"CheckErrCtr"
 11308      6B45 7272 
 11308      4374 7200 
 11309               	.LASF294:
 11310 022a 5379 7374 	.string"SystemLogEntryNum"
 11310      656D 4C6F 
 11310      6745 6E74 
 11310      7279 4E75 
 11310      6D00 
 11311               	.LASF380:
 11312 023c 4346 454D 	.string"CFEMinorVersion"
 11312      696E 6F72 
 11312      5665 7273 
 11312      696F 6E00 
 11313               	.LASF84:
 11314 024c 5F73 6565 	.string"_seek"
 11314      6B00 
 11315               	.LASF471:
 11316 0252 4D65 7373 	.string"MessageID"
 11316      6167 6549 
 11316      4400 
 11317               	.LASF364:
 11318 025c 4364 734E 	.string"CdsName"
 11318      616D 6500 
 11319               	.LASF342:
 11320 0264 4346 455F 	.string"CFE_ES_CDSVariables_t"
 11320      4553 5F43 
 11320      4453 5661 
 11320      7269 6162 
 11320      6C65 735F 
 11321               	.LASF168:
 11322 027a 5374 6172 	.string"StartAddress"
 11322      7441 6464 
 11322      7265 7373 
 11322      00
 11323               	.LASF524:
 11324 0287 2F68 6F6D 	.string"/home/simulink/cFS_FreeRTOS_seL4/cfe/fsw/cfe-core/src/es/cfe_es_task.c"
 11324      652F 7369 
 11324      6D75 6C69 
 11324      6E6B 2F63 
 11324      4653 5F46 
 11325               	.LASF195:
 11326 02ce 4346 455F 	.string"CFE_ES_CDSRegDumpRec_t"
 11326      4553 5F43 
 11326      4453 5265 
 11326      6744 756D 
 11326      7052 6563 
 11327               	.LASF312:
 11328 02e5 4C69 624E 	.string"LibName"
 11328      616D 6500 
 11329               	.LASF120:
 11330 02ed 5F6D 756C 	.string"_mult"
 11330      7400 
 11331               	.LASF182:
 11332 02f3 4E75 6D46 	.string"NumFree"
68K GAS   			page 260


 11332      7265 6500 
 11333               	.LASF173:
 11334 02fb 4D61 696E 	.string"MainTaskName"
 11334      5461 736B 
 11334      4E61 6D65 
 11334      00
 11335               	.LASF418:
 11336 0308 4346 455F 	.string"CFE_ES_PerfLogDump_t"
 11336      4553 5F50 
 11336      6572 664C 
 11336      6F67 4475 
 11336      6D70 5F74 
 11337               	.LASF252:
 11338 031d 436F 6E74 	.string"ContextSize"
 11338      6578 7453 
 11338      697A 6500 
 11339               	.LASF485:
 11340 0329 4346 455F 	.string"CFE_ES_SysLogDump"
 11340      4553 5F53 
 11340      7973 4C6F 
 11340      6744 756D 
 11340      7000 
 11341               	.LASF299:
 11342 033b 4346 455F 	.string"CFE_ES_ResetData_t"
 11342      4553 5F52 
 11342      6573 6574 
 11342      4461 7461 
 11342      5F74 00
 11343               	.LASF483:
 11344 034e 4346 455F 	.string"CFE_ES_ClearERlogCmd"
 11344      4553 5F43 
 11344      6C65 6172 
 11344      4552 6C6F 
 11344      6743 6D64 
 11345               	.LASF162:
 11346 0363 436F 6465 	.string"CodeAddress"
 11346      4164 6472 
 11346      6573 7300 
 11347               	.LASF222:
 11348 036f 5072 6F63 	.string"ProcessorID"
 11348      6573 736F 
 11348      7249 4400 
 11349               	.LASF428:
 11350 037b 4170 7054 	.string"AppTable"
 11350      6162 6C65 
 11350      00
 11351               	.LASF263:
 11352 0384 5469 6D65 	.string"TimerTicksPerSecond"
 11352      7254 6963 
 11352      6B73 5065 
 11352      7253 6563 
 11352      6F6E 6400 
 11353               	.LASF484:
 11354 0398 4346 455F 	.string"CFE_ES_SysLogOverwrite"
 11354      4553 5F53 
 11354      7973 4C6F 
 11354      674F 7665 
68K GAS   			page 261


 11354      7277 7269 
 11355               	.LASF44:
 11356 03af 5F5F 7763 	.string"__wch"
 11356      6800 
 11357               	.LASF404:
 11358 03b5 5065 7266 	.string"PerfDataCount"
 11358      4461 7461 
 11358      436F 756E 
 11358      7400 
 11359               	.LASF388:
 11360 03c3 5379 734C 	.string"SysLogSize"
 11360      6F67 5369 
 11360      7A65 00
 11361               	.LASF317:
 11362 03ce 5369 7A65 	.string"SizeUsed"
 11362      5573 6564 
 11362      00
 11363               	.LASF79:
 11364 03d7 5F66 696C 	.string"_file"
 11364      6500 
 11365               	.LASF203:
 11366 03dd 4375 7272 	.string"CurrentSTCF"
 11366      656E 7453 
 11366      5443 4600 
 11367               	.LASF383:
 11368 03e9 4F53 414C 	.string"OSALMajorVersion"
 11368      4D61 6A6F 
 11368      7256 6572 
 11368      7369 6F6E 
 11368      00
 11369               	.LASF66:
 11370 03fa 5F6F 6E5F 	.string"_on_exit_args"
 11370      6578 6974 
 11370      5F61 7267 
 11370      7300 
 11371               	.LASF261:
 11372 0408 456E 6469 	.string"Endian"
 11372      616E 00
 11373               	.LASF394:
 11374 040f 5265 6769 	.string"RegisteredLibs"
 11374      7374 6572 
 11374      6564 4C69 
 11374      6273 00
 11375               	.LASF226:
 11376 041e 5370 6172 	.string"Spare1"
 11376      6531 00
 11377               	.LASF227:
 11378 0425 5370 6172 	.string"Spare2"
 11378      6532 00
 11379               	.LASF135:
 11380 042c 5F6D 6272 	.string"_mbrlen_state"
 11380      6C65 6E5F 
 11380      7374 6174 
 11380      6500 
 11381               	.LASF6:
 11382 043a 6C6F 6E67 	.string"long int"
 11382      2069 6E74 
68K GAS   			page 262


 11382      00
 11383               	.LASF146:
 11384 0443 5F69 6D70 	.string"_impure_ptr"
 11384      7572 655F 
 11384      7074 7200 
 11385               	.LASF106:
 11386 044f 5F72 6573 	.string"_result_k"
 11386      756C 745F 
 11386      6B00 
 11387               	.LASF307:
 11388 0459 5374 6172 	.string"StartParams"
 11388      7450 6172 
 11388      616D 7300 
 11389               	.LASF76:
 11390 0465 5F73 697A 	.string"_size"
 11390      6500 
 11391               	.LASF169:
 11392 046b 4578 6365 	.string"ExceptionAction"
 11392      7074 696F 
 11392      6E41 6374 
 11392      696F 6E00 
 11393               	.LASF236:
 11394 047b 5469 6D65 	.string"TimeSubSeconds"
 11394      5375 6253 
 11394      6563 6F6E 
 11394      6473 00
 11395               	.LASF490:
 11396 048a 4669 6C65 	.string"FileHeader"
 11396      4865 6164 
 11396      6572 00
 11397               	.LASF125:
 11398 0495 5F6C 6F63 	.string"_localtime_buf"
 11398      616C 7469 
 11398      6D65 5F62 
 11398      7566 00
 11399               	.LASF271:
 11400 04a4 496E 7661 	.string"InvalidMarkerReported"
 11400      6C69 644D 
 11400      6172 6B65 
 11400      7252 6570 
 11400      6F72 7465 
 11401               	.LASF170:
 11402 04ba 5072 696F 	.string"Priority"
 11402      7269 7479 
 11402      00
 11403               	.LASF467:
 11404 04c3 4346 455F 	.string"CFE_ES_SetMaxPRCountCmd"
 11404      4553 5F53 
 11404      6574 4D61 
 11404      7850 5243 
 11404      6F75 6E74 
 11405               	.LASF361:
 11406 04db 4346 455F 	.string"CFE_ES_AppReloadCmd_Payload_t"
 11406      4553 5F41 
 11406      7070 5265 
 11406      6C6F 6164 
 11406      436D 645F 
68K GAS   			page 263


 11407               	.LASF329:
 11408 04f9 5369 7A65 	.string"SizeDesc"
 11408      4465 7363 
 11408      00
 11409               	.LASF369:
 11410 0502 4346 455F 	.string"CFE_ES_DumpCDSRegCmd_Payload_t"
 11410      4553 5F44 
 11410      756D 7043 
 11410      4453 5265 
 11410      6743 6D64 
 11411               	.LASF61:
 11412 0521 5F5F 746D 	.string"__tm_mon"
 11412      5F6D 6F6E 
 11412      00
 11413               	.LASF272:
 11414 052a 4669 6C74 	.string"FilterTriggerMaskSize"
 11414      6572 5472 
 11414      6967 6765 
 11414      724D 6173 
 11414      6B53 697A 
 11415               	.LASF205:
 11416 0540 4346 455F 	.string"CFE_TIME_ResetVars_t"
 11416      5449 4D45 
 11416      5F52 6573 
 11416      6574 5661 
 11416      7273 5F74 
 11417               	.LASF474:
 11418 0555 4346 455F 	.string"CFE_ES_ERLogDump"
 11418      4553 5F45 
 11418      524C 6F67 
 11418      4475 6D70 
 11418      00
 11419               	.LASF441:
 11420 0566 5069 7065 	.string"PipeName"
 11420      4E61 6D65 
 11420      00
 11421               	.LASF470:
 11422 056f 4163 7475 	.string"ActualLength"
 11422      616C 4C65 
 11422      6E67 7468 
 11422      00
 11423               	.LASF492:
 11424 057c 5265 7375 	.string"Result"
 11424      6C74 00
 11425               	.LASF160:
 11426 0583 4D6F 6475 	.string"ModuleId"
 11426      6C65 4964 
 11426      00
 11427               	.LASF229:
 11428 058c 546C 6D48 	.string"TlmHeader"
 11428      6561 6465 
 11428      7200 
 11429               	.LASF332:
 11430 0596 4346 455F 	.string"CFE_ES_CDSBlockDesc"
 11430      4553 5F43 
 11430      4453 426C 
 11430      6F63 6B44 
68K GAS   			page 264


 11430      6573 6300 
 11431               	.LASF503:
 11432 05aa 4170 7045 	.string"AppEntryLen"
 11432      6E74 7279 
 11432      4C65 6E00 
 11433               	.LASF17:
 11434 05b6 6672 6565 	.string"free_bytes"
 11434      5F62 7974 
 11434      6573 00
 11435               	.LASF250:
 11436 05c1 4465 6275 	.string"DebugVars"
 11436      6756 6172 
 11436      7300 
 11437               	.LASF192:
 11438 05cb 5369 7A65 	.string"Size"
 11438      00
 11439               	.LASF122:
 11440 05d0 5F75 6E75 	.string"_unused_rand"
 11440      7365 645F 
 11440      7261 6E64 
 11440      00
 11441               	.LASF320:
 11442 05dd 4D61 7853 	.string"MaxSize"
 11442      697A 6500 
 11443               	.LASF1:
 11444 05e5 7369 676E 	.string"signed char"
 11444      6564 2063 
 11444      6861 7200 
 11445               	.LASF389:
 11446 05f1 5379 734C 	.string"SysLogEntries"
 11446      6F67 456E 
 11446      7472 6965 
 11446      7300 
 11447               	.LASF466:
 11448 05ff 4C6F 6361 	.string"LocalCdsName"
 11448      6C43 6473 
 11448      4E61 6D65 
 11448      00
 11449               	.LASF15:
 11450 060c 626F 6F6C 	.string"boolean"
 11450      6561 6E00 
 11451               	.LASF212:
 11452 0614 4346 455F 	.string"CFE_SB_Msg_t"
 11452      5342 5F4D 
 11452      7367 5F74 
 11452      00
 11453               	.LASF278:
 11454 0621 4346 455F 	.string"CFE_ES_PerfData_t"
 11454      4553 5F50 
 11454      6572 6644 
 11454      6174 615F 
 11454      7400 
 11455               	.LASF230:
 11456 0633 5061 796C 	.string"Payload"
 11456      6F61 6400 
 11457               	.LASF180:
 11458 063b 426C 6F63 	.string"BlockSize"
68K GAS   			page 265


 11458      6B53 697A 
 11458      6500 
 11459               	.LASF34:
 11460 0645 5F54 6872 	.string"_Thread_queue_Heads"
 11460      6561 645F 
 11460      7175 6575 
 11460      655F 4865 
 11460      6164 7300 
 11461               	.LASF0:
 11462 0659 756E 7369 	.string"unsigned char"
 11462      676E 6564 
 11462      2063 6861 
 11462      7200 
 11463               	.LASF171:
 11464 0667 4D61 696E 	.string"MainTaskId"
 11464      5461 736B 
 11464      4964 00
 11465               	.LASF449:
 11466 0672 4163 7475 	.string"Actual"
 11466      616C 00
 11467               	.LASF101:
 11468 0679 5F75 6E73 	.string"_unspecified_locale_info"
 11468      7065 6369 
 11468      6669 6564 
 11468      5F6C 6F63 
 11468      616C 655F 
 11469               	.LASF469:
 11470 0692 7265 7375 	.string"result"
 11470      6C74 00
 11471               	.LASF321:
 11472 0699 4346 455F 	.string"CFE_ES_CDSBlockSizeDesc_t"
 11472      4553 5F43 
 11472      4453 426C 
 11472      6F63 6B53 
 11472      697A 6544 
 11473               	.LASF94:
 11474 06b3 5F72 6565 	.string"_reent"
 11474      6E74 00
 11475               	.LASF147:
 11476 06ba 5F67 6C6F 	.string"_global_impure_ptr"
 11476      6261 6C5F 
 11476      696D 7075 
 11476      7265 5F70 
 11476      7472 00
 11477               	.LASF525:
 11478 06cd 2F68 6F6D 	.string"/home/simulink/cFS_FreeRTOS_seL4/build/cpu1/cfe/es"
 11478      652F 7369 
 11478      6D75 6C69 
 11478      6E6B 2F63 
 11478      4653 5F46 
 11479               	.LASF411:
 11480 0700 5368 656C 	.string"ShellOutput"
 11480      6C4F 7574 
 11480      7075 7400 
 11481               	.LASF408:
 11482 070c 4865 6170 	.string"HeapMaxBlockSize"
 11482      4D61 7842 
68K GAS   			page 266


 11482      6C6F 636B 
 11482      5369 7A65 
 11482      00
 11483               	.LASF166:
 11484 071d 4253 5341 	.string"BSSAddress"
 11484      6464 7265 
 11484      7373 00
 11485               	.LASF507:
 11486 0728 4C6F 6361 	.string"LocalAppName"
 11486      6C41 7070 
 11486      4E61 6D65 
 11486      00
 11487               	.LASF356:
 11488 0735 4170 706C 	.string"Application"
 11488      6963 6174 
 11488      696F 6E00 
 11489               	.LASF359:
 11490 0741 4346 455F 	.string"CFE_ES_StartAppCmd_Payload_t"
 11490      4553 5F53 
 11490      7461 7274 
 11490      4170 7043 
 11490      6D64 5F50 
 11491               	.LASF386:
 11492 075e 4F53 414C 	.string"OSALMissionRevision"
 11492      4D69 7373 
 11492      696F 6E52 
 11492      6576 6973 
 11492      696F 6E00 
 11493               	.LASF29:
 11494 0772 5F54 6872 	.string"_Thread_queue_Queue"
 11494      6561 645F 
 11494      7175 6575 
 11494      655F 5175 
 11494      6575 6500 
 11495               	.LASF16:
 11496 0786 6368 6172 	.string"char"
 11496      00
 11497               	.LASF175:
 11498 078b 4346 455F 	.string"CFE_ES_AppInfo_t"
 11498      4553 5F41 
 11498      7070 496E 
 11498      666F 5F74 
 11498      00
 11499               	.LASF423:
 11500 079c 5368 6172 	.string"SharedDataMutex"
 11500      6564 4461 
 11500      7461 4D75 
 11500      7465 7800 
 11501               	.LASF73:
 11502 07ac 5F66 6E73 	.string"_fns"
 11502      00
 11503               	.LASF458:
 11504 07b1 5265 6752 	.string"RegRecPtr"
 11504      6563 5074 
 11504      7200 
 11505               	.LASF85:
 11506 07bb 5F63 6C6F 	.string"_close"
68K GAS   			page 267


 11506      7365 00
 11507               	.LASF401:
 11508 07c2 5065 7266 	.string"PerfTriggerMask"
 11508      5472 6967 
 11508      6765 724D 
 11508      6173 6B00 
 11509               	.LASF333:
 11510 07d2 4D65 6D48 	.string"MemHandle"
 11510      616E 646C 
 11510      6500 
 11511               	.LASF387:
 11512 07dc 5379 734C 	.string"SysLogBytesUsed"
 11512      6F67 4279 
 11512      7465 7355 
 11512      7365 6400 
 11513               	.LASF14:
 11514 07ec 6370 7561 	.string"cpuaddr"
 11514      6464 7200 
 11515               	.LASF403:
 11516 07f4 5065 7266 	.string"PerfDataEnd"
 11516      4461 7461 
 11516      456E 6400 
 11517               	.LASF28:
 11518 0800 5F54 6963 	.string"_Ticket_lock_Control"
 11518      6B65 745F 
 11518      6C6F 636B 
 11518      5F43 6F6E 
 11518      7472 6F6C 
 11519               	.LASF334:
 11520 0815 5461 6B65 	.string"Taken"
 11520      6E00 
 11521               	.LASF526:
 11522 081b 4346 455F 	.string"CFE_ES_SysLogClear"
 11522      4553 5F53 
 11522      7973 4C6F 
 11522      6743 6C65 
 11522      6172 00
 11523               	.LASF196:
 11524 082e 5365 636F 	.string"Seconds"
 11524      6E64 7300 
 11525               	.LASF328:
 11526 0836 4D69 6E42 	.string"MinBlockSize"
 11526      6C6F 636B 
 11526      5369 7A65 
 11526      00
 11527               	.LASF462:
 11528 0843 4346 455F 	.string"CFE_ES_TlmPoolStatsCmd"
 11528      4553 5F54 
 11528      6C6D 506F 
 11528      6F6C 5374 
 11528      6174 7343 
 11529               	.LASF210:
 11530 085a 4477 6F72 	.string"Dword"
 11530      6400 
 11531               	.LASF283:
 11532 0860 4C6F 674F 	.string"LogOverflowCounter"
 11532      7665 7266 
68K GAS   			page 268


 11532      6C6F 7743 
 11532      6F75 6E74 
 11532      6572 00
 11533               	.LASF288:
 11534 0873 4552 4C6F 	.string"ERLog"
 11534      6700 
 11535               	.LASF190:
 11536 0879 4346 455F 	.string"CFE_ES_CDSHandle_t"
 11536      4553 5F43 
 11536      4453 4861 
 11536      6E64 6C65 
 11536      5F74 00
 11537               	.LASF438:
 11538 088c 4D65 6D53 	.string"MemStatsPacket"
 11538      7461 7473 
 11538      5061 636B 
 11538      6574 00
 11539               	.LASF32:
 11540 089b 5F6F 776E 	.string"_owner"
 11540      6572 00
 11541               	.LASF440:
 11542 08a2 436D 6450 	.string"CmdPipe"
 11542      6970 6500 
 11543               	.LASF373:
 11544 08aa 506F 6F6C 	.string"PoolStats"
 11544      5374 6174 
 11544      7300 
 11545               	.LASF457:
 11546 08b4 436D 6450 	.string"CmdPtr"
 11546      7472 00
 11547               	.LASF298:
 11548 08bb 4556 535F 	.string"EVS_Log"
 11548      4C6F 6700 
 11549               	.LASF453:
 11550 08c3 5374 6446 	.string"StdFileHeader"
 11550      696C 6548 
 11550      6561 6465 
 11550      7200 
 11551               	.LASF289:
 11552 08d1 4552 4C6F 	.string"ERLogIndex"
 11552      6749 6E64 
 11552      6578 00
 11553               	.LASF276:
 11554 08dc 4D65 7461 	.string"MetaData"
 11554      4461 7461 
 11554      00
 11555               	.LASF377:
 11556 08e5 4572 7243 	.string"ErrCounter"
 11556      6F75 6E74 
 11556      6572 00
 11557               	.LASF419:
 11558 08f0 4346 455F 	.string"CFE_ES_PerfLogDumpStatus"
 11558      4553 5F50 
 11558      6572 664C 
 11558      6F67 4475 
 11558      6D70 5374 
 11559               	.LASF303:
68K GAS   			page 269


 11560 0909 4346 455F 	.string"CFE_ES_AppState_t"
 11560      4553 5F41 
 11560      7070 5374 
 11560      6174 655F 
 11560      7400 
 11561               	.LASF337:
 11562 091b 4344 5353 	.string"CDSSize"
 11562      697A 6500 
 11563               	.LASF339:
 11564 0923 4D61 784E 	.string"MaxNumRegEntries"
 11564      756D 5265 
 11564      6745 6E74 
 11564      7269 6573 
 11564      00
 11565               	.LASF242:
 11566 0934 4C61 7374 	.string"LastAppId"
 11566      4170 7049 
 11566      6400 
 11567               	.LASF184:
 11568 093e 506F 6F6C 	.string"PoolSize"
 11568      5369 7A65 
 11568      00
 11569               	.LASF281:
 11570 0947 4C6F 6746 	.string"LogFullFlag"
 11570      756C 6C46 
 11570      6C61 6700 
 11571               	.LASF382:
 11572 0953 4346 454D 	.string"CFEMissionRevision"
 11572      6973 7369 
 11572      6F6E 5265 
 11572      7669 7369 
 11572      6F6E 00
 11573               	.LASF366:
 11574 0966 506F 6F6C 	.string"PoolHandle"
 11574      4861 6E64 
 11574      6C65 00
 11575               	.LASF152:
 11576 0971 5F74 7A6E 	.string"_tzname"
 11576      616D 6500 
 11577               	.LASF323:
 11578 0979 4375 7272 	.string"Current"
 11578      656E 7400 
 11579               	.LASF40:
 11580 0981 5F6E 6573 	.string"_nest_level"
 11580      745F 6C65 
 11580      7665 6C00 
 11581               	.LASF506:
 11582 098d 4C6F 6361 	.string"LocalEntryPt"
 11582      6C45 6E74 
 11582      7279 5074 
 11582      00
 11583               	.LASF201:
 11584 099a 436C 6F63 	.string"ClockSignal"
 11584      6B53 6967 
 11584      6E61 6C00 
 11585               	.LASF291:
 11586 09a6 5379 7374 	.string"SystemLog"
68K GAS   			page 270


 11586      656D 4C6F 
 11586      6700 
 11587               	.LASF374:
 11588 09b0 4346 455F 	.string"CFE_ES_PoolStatsTlm_Payload_t"
 11588      4553 5F50 
 11588      6F6F 6C53 
 11588      7461 7473 
 11588      546C 6D5F 
 11589               	.LASF81:
 11590 09ce 5F63 6F6F 	.string"_cookie"
 11590      6B69 6500 
 11591               	.LASF159:
 11592 09d6 5374 6163 	.string"StackSize"
 11592      6B53 697A 
 11592      6500 
 11593               	.LASF55:
 11594 09e0 5F77 6473 	.string"_wds"
 11594      00
 11595               	.LASF368:
 11596 09e5 4475 6D70 	.string"DumpFilename"
 11596      4669 6C65 
 11596      6E61 6D65 
 11596      00
 11597               	.LASF398:
 11598 09f2 5065 7266 	.string"PerfMode"
 11598      4D6F 6465 
 11598      00
 11599               	.LASF402:
 11600 09fb 5065 7266 	.string"PerfDataStart"
 11600      4461 7461 
 11600      5374 6172 
 11600      7400 
 11601               	.LASF351:
 11602 0a09 5379 734C 	.string"SysLogFileName"
 11602      6F67 4669 
 11602      6C65 4E61 
 11602      6D65 00
 11603               	.LASF520:
 11604 0a18 4366 6553 	.string"CfeSegmentAddr"
 11604      6567 6D65 
 11604      6E74 4164 
 11604      6472 00
 11605               	.LASF112:
 11606 0a27 5F73 6967 	.string"_sig_func"
 11606      5F66 756E 
 11606      6300 
 11607               	.LASF325:
 11608 0a31 4368 6563 	.string"CheckErrCntr"
 11608      6B45 7272 
 11608      436E 7472 
 11608      00
 11609               	.LASF232:
 11610 0a3e 436F 6E74 	.string"ContentType"
 11610      656E 7454 
 11610      7970 6500 
 11611               	.LASF89:
 11612 0a4a 5F6F 6666 	.string"_offset"
68K GAS   			page 271


 11612      7365 7400 
 11613               	.LASF519:
 11614 0a52 5369 7A65 	.string"SizeofCfeSegment"
 11614      6F66 4366 
 11614      6553 6567 
 11614      6D65 6E74 
 11614      00
 11615               	.LASF110:
 11616 0a63 5F63 7674 	.string"_cvtbuf"
 11616      6275 6600 
 11617               	.LASF324:
 11618 0a6b 5369 7A65 	.string"SizeIndex"
 11618      496E 6465 
 11618      7800 
 11619               	.LASF158:
 11620 0a75 4669 6C65 	.string"FileName"
 11620      4E61 6D65 
 11620      00
 11621               	.LASF25:
 11622 0a7e 5F6E 6578 	.string"_next_ticket"
 11622      745F 7469 
 11622      636B 6574 
 11622      00
 11623               	.LASF357:
 11624 0a8b 4170 7045 	.string"AppEntryPoint"
 11624      6E74 7279 
 11624      506F 696E 
 11624      7400 
 11625               	.LASF338:
 11626 0a99 4D65 6D50 	.string"MemPoolSize"
 11626      6F6F 6C53 
 11626      697A 6500 
 11627               	.LASF434:
 11628 0aa5 4346 455F 	.string"CFE_ES_ResetDataPtr"
 11628      4553 5F52 
 11628      6573 6574 
 11628      4461 7461 
 11628      5074 7200 
 11629               	.LASF194:
 11630 0ab9 4279 7465 	.string"ByteAlignSpare1"
 11630      416C 6967 
 11630      6E53 7061 
 11630      7265 3100 
 11631               	.LASF496:
 11632 0ac9 4C6F 6361 	.string"LocalApp"
 11632      6C41 7070 
 11632      00
 11633               	.LASF293:
 11634 0ad2 5379 7374 	.string"SystemLogMode"
 11634      656D 4C6F 
 11634      674D 6F64 
 11634      6500 
 11635               	.LASF315:
 11636 0ae0 4368 6563 	.string"CheckBits"
 11636      6B42 6974 
 11636      7300 
 11637               	.LASF454:
68K GAS   			page 272


 11638 0aea 4669 6C65 	.string"FileDescriptor"
 11638      4465 7363 
 11638      7269 7074 
 11638      6F72 00
 11639               	.LASF107:
 11640 0af9 5F70 3573 	.string"_p5s"
 11640      00
 11641               	.LASF12:
 11642 0afe 6C6F 6E67 	.string"long unsigned int"
 11642      2075 6E73 
 11642      6967 6E65 
 11642      6420 696E 
 11642      7400 
 11643               	.LASF257:
 11644 0b10 5469 6D65 	.string"TimerUpper32"
 11644      7255 7070 
 11644      6572 3332 
 11644      00
 11645               	.LASF372:
 11646 0b1d 4346 455F 	.string"CFE_ES_OneAppTlm_t"
 11646      4553 5F4F 
 11646      6E65 4170 
 11646      7054 6C6D 
 11646      5F74 00
 11647               	.LASF154:
 11648 0b30 4170 7049 	.string"AppId"
 11648      6400 
 11649               	.LASF77:
 11650 0b36 5F5F 7346 	.string"__sFILE"
 11650      494C 4500 
 11651               	.LASF103:
 11652 0b3e 5F5F 7364 	.string"__sdidinit"
 11652      6964 696E 
 11652      6974 00
 11653               	.LASF93:
 11654 0b49 5F66 6C61 	.string"_flags2"
 11654      6773 3200 
 11655               	.LASF249:
 11656 0b51 4D61 7850 	.string"MaxProcessorResetCount"
 11656      726F 6365 
 11656      7373 6F72 
 11656      5265 7365 
 11656      7443 6F75 
 11657               	.LASF443:
 11658 0b68 4C69 6D69 	.string"LimitHK"
 11658      7448 4B00 
 11659               	.LASF241:
 11660 0b70 5072 696E 	.string"PrintfEnabledFlag"
 11660      7466 456E 
 11660      6162 6C65 
 11660      6446 6C61 
 11660      6700 
 11661               	.LASF344:
 11662 0b82 4346 455F 	.string"CFE_ES_RestartCmd_Payload_t"
 11662      4553 5F52 
 11662      6573 7461 
 11662      7274 436D 
68K GAS   			page 273


 11662      645F 5061 
 11663               	.LASF41:
 11664 0b9e 5F4C 4F43 	.string"_LOCK_RECURSIVE_T"
 11664      4B5F 5245 
 11664      4355 5253 
 11664      4956 455F 
 11664      5400 
 11665               	.LASF280:
 11666 0bb0 4C6F 6743 	.string"LogCount"
 11666      6F75 6E74 
 11666      00
 11667               	.LASF468:
 11668 0bb9 4346 455F 	.string"CFE_ES_ResetPRCountCmd"
 11668      4553 5F52 
 11668      6573 6574 
 11668      5052 436F 
 11668      756E 7443 
 11669               	.LASF424:
 11670 0bd0 4170 7053 	.string"AppStartedCount"
 11670      7461 7274 
 11670      6564 436F 
 11670      756E 7400 
 11671               	.LASF95:
 11672 0be0 5F65 7272 	.string"_errno"
 11672      6E6F 00
 11673               	.LASF204:
 11674 0be7 4375 7272 	.string"CurrentDelay"
 11674      656E 7444 
 11674      656C 6179 
 11674      00
 11675               	.LASF185:
 11676 0bf4 4E75 6D42 	.string"NumBlocksRequested"
 11676      6C6F 636B 
 11676      7352 6571 
 11676      7565 7374 
 11676      6564 00
 11677               	.LASF19:
 11678 0c07 6C61 7267 	.string"largest_free_block"
 11678      6573 745F 
 11678      6672 6565 
 11678      5F62 6C6F 
 11678      636B 00
 11679               	.LASF396:
 11680 0c1a 4D61 7850 	.string"MaxProcessorResets"
 11680      726F 6365 
 11680      7373 6F72 
 11680      5265 7365 
 11680      7473 00
 11681               	.LASF225:
 11682 0c2d 4D65 7373 	.string"Message"
 11682      6167 6500 
 11683               	.LASF459:
 11684 0c35 4475 6D70 	.string"DumpRecord"
 11684      5265 636F 
 11684      7264 00
 11685               	.LASF51:
 11686 0c40 5F42 6967 	.string"_Bigint"
68K GAS   			page 274


 11686      696E 7400 
 11687               	.LASF379:
 11688 0c48 4346 454D 	.string"CFEMajorVersion"
 11688      616A 6F72 
 11688      5665 7273 
 11688      696F 6E00 
 11689               	.LASF53:
 11690 0c58 5F6D 6178 	.string"_maxwds"
 11690      7764 7300 
 11691               	.LASF500:
 11692 0c60 4346 455F 	.string"CFE_ES_StopAppCmd"
 11692      4553 5F53 
 11692      746F 7041 
 11692      7070 436D 
 11692      6400 
 11693               	.LASF358:
 11694 0c72 4170 7046 	.string"AppFileName"
 11694      696C 654E 
 11694      616D 6500 
 11695               	.LASF104:
 11696 0c7e 5F5F 636C 	.string"__cleanup"
 11696      6561 6E75 
 11696      7000 
 11697               	.LASF515:
 11698 0c88 7374 6174 	.string"stat"
 11698      00
 11699               	.LASF165:
 11700 0c8d 4461 7461 	.string"DataSize"
 11700      5369 7A65 
 11700      00
 11701               	.LASF409:
 11702 0c96 4346 455F 	.string"CFE_ES_HkPacket_Payload_t"
 11702      4553 5F48 
 11702      6B50 6163 
 11702      6B65 745F 
 11702      5061 796C 
 11703               	.LASF282:
 11704 0cb0 4C6F 674D 	.string"LogMode"
 11704      6F64 6500 
 11705               	.LASF488:
 11706 0cb8 4346 455F 	.string"CFE_ES_ClearSyslogCmd"
 11706      4553 5F43 
 11706      6C65 6172 
 11706      5379 736C 
 11706      6F67 436D 
 11707               	.LASF455:
 11708 0cce 5374 6174 	.string"Status"
 11708      7573 00
 11709               	.LASF200:
 11710 0cd5 4C65 6170 	.string"LeapSeconds"
 11710      5365 636F 
 11710      6E64 7300 
 11711               	.LASF224:
 11712 0ce1 5061 636B 	.string"PacketID"
 11712      6574 4944 
 11712      00
 11713               	.LASF187:
68K GAS   			page 275


 11714 0cea 4E75 6D46 	.string"NumFreeBytes"
 11714      7265 6542 
 11714      7974 6573 
 11714      00
 11715               	.LASF314:
 11716 0cf7 4346 455F 	.string"CFE_ES_CDSBlockHandle_t"
 11716      4553 5F43 
 11716      4453 426C 
 11716      6F63 6B48 
 11716      616E 646C 
 11717               	.LASF416:
 11718 0d0f 4461 7461 	.string"DataFileName"
 11718      4669 6C65 
 11718      4E61 6D65 
 11718      00
 11719               	.LASF157:
 11720 0d1c 456E 7472 	.string"EntryPoint"
 11720      7950 6F69 
 11720      6E74 00
 11721               	.LASF100:
 11722 0d27 5F65 6D65 	.string"_emergency"
 11722      7267 656E 
 11722      6379 00
 11723               	.LASF231:
 11724 0d32 4346 455F 	.string"CFE_EVS_Packet_t"
 11724      4556 535F 
 11724      5061 636B 
 11724      6574 5F74 
 11724      00
 11725               	.LASF504:
 11726 0d43 4170 704E 	.string"AppNameLen"
 11726      616D 654C 
 11726      656E 00
 11727               	.LASF445:
 11728 0d4e 4346 455F 	.string"CFE_ES_TaskData_t"
 11728      4553 5F54 
 11728      6173 6B44 
 11728      6174 615F 
 11728      7400 
 11729               	.LASF7:
 11730 0d60 6C6F 6E67 	.string"long long int"
 11730      206C 6F6E 
 11730      6720 696E 
 11730      7400 
 11731               	.LASF260:
 11732 0d6e 5665 7273 	.string"Version"
 11732      696F 6E00 
 11733               	.LASF407:
 11734 0d76 4865 6170 	.string"HeapBlocksFree"
 11734      426C 6F63 
 11734      6B73 4672 
 11734      6565 00
 11735               	.LASF116:
 11736 0d85 5F6E 696F 	.string"_niobs"
 11736      6273 00
 11737               	.LASF346:
 11738 0d8c 4F75 7470 	.string"OutputFilename"
68K GAS   			page 276


 11738      7574 4669 
 11738      6C65 6E61 
 11738      6D65 00
 11739               	.LASF290:
 11740 0d9b 4552 4C6F 	.string"ERLogEntries"
 11740      6745 6E74 
 11740      7269 6573 
 11740      00
 11741               	.LASF412:
 11742 0da8 4346 455F 	.string"CFE_ES_ShellPacket_Payload_t"
 11742      4553 5F53 
 11742      6865 6C6C 
 11742      5061 636B 
 11742      6574 5F50 
 11743               	.LASF113:
 11744 0dc5 5F5F 7367 	.string"__sglue"
 11744      6C75 6500 
 11745               	.LASF487:
 11746 0dcd 4346 455F 	.string"CFE_ES_OverWriteSyslogCmd"
 11746      4553 5F4F 
 11746      7665 7257 
 11746      7269 7465 
 11746      5379 736C 
 11747               	.LASF264:
 11748 0de7 5469 6D65 	.string"TimerLow32Rollover"
 11748      724C 6F77 
 11748      3332 526F 
 11748      6C6C 6F76 
 11748      6572 00
 11749               	.LASF142:
 11750 0dfa 5F6E 6D61 	.string"_nmalloc"
 11750      6C6C 6F63 
 11750      00
 11751               	.LASF430:
 11752 0e03 436F 756E 	.string"CounterTable"
 11752      7465 7254 
 11752      6162 6C65 
 11752      00
 11753               	.LASF126:
 11754 0e10 5F67 616D 	.string"_gamma_signgam"
 11754      6D61 5F73 
 11754      6967 6E67 
 11754      616D 00
 11755               	.LASF451:
 11756 0e1f 4346 455F 	.string"CFE_ES_DumpCDSRegCmd"
 11756      4553 5F44 
 11756      756D 7043 
 11756      4453 5265 
 11756      6743 6D64 
 11757               	.LASF172:
 11758 0e34 4578 6563 	.string"ExecutionCounter"
 11758      7574 696F 
 11758      6E43 6F75 
 11758      6E74 6572 
 11758      00
 11759               	.LASF514:
 11760 0e45 4865 6170 	.string"HeapProp"
68K GAS   			page 277


 11760      5072 6F70 
 11760      00
 11761               	.LASF349:
 11762 0e4e 4346 455F 	.string"CFE_ES_QueryAllCmd_Payload_t"
 11762      4553 5F51 
 11762      7565 7279 
 11762      416C 6C43 
 11762      6D64 5F50 
 11763               	.LASF108:
 11764 0e6b 5F66 7265 	.string"_freelist"
 11764      656C 6973 
 11764      7400 
 11765               	.LASF425:
 11766 0e75 4170 7052 	.string"AppReadyCount"
 11766      6561 6479 
 11766      436F 756E 
 11766      7400 
 11767               	.LASF117:
 11768 0e83 5F69 6F62 	.string"_iobs"
 11768      7300 
 11769               	.LASF436:
 11770 0e89 5368 656C 	.string"ShellPacket"
 11770      6C50 6163 
 11770      6B65 7400 
 11771               	.LASF115:
 11772 0e95 5F67 6C75 	.string"_glue"
 11772      6500 
 11773               	.LASF54:
 11774 0e9b 5F73 6967 	.string"_sign"
 11774      6E00 
 11775               	.LASF275:
 11776 0ea1 4346 455F 	.string"CFE_ES_PerfMetaData_t"
 11776      4553 5F50 
 11776      6572 664D 
 11776      6574 6144 
 11776      6174 615F 
 11777               	.LASF316:
 11778 0eb7 416C 6C6F 	.string"AllocatedFlag"
 11778      6361 7465 
 11778      6446 6C61 
 11778      6700 
 11779               	.LASF464:
 11780 0ec5 5661 6C69 	.string"ValidHandle"
 11780      6448 616E 
 11780      646C 6500 
 11781               	.LASF517:
 11782 0ed1 4346 455F 	.string"CFE_ES_TaskPipe"
 11782      4553 5F54 
 11782      6173 6B50 
 11782      6970 6500 
 11783               	.LASF341:
 11784 0ee1 5661 6C69 	.string"ValidityField"
 11784      6469 7479 
 11784      4669 656C 
 11784      6400 
 11785               	.LASF392:
 11786 0eef 5265 6769 	.string"RegisteredExternalApps"
68K GAS   			page 278


 11786      7374 6572 
 11786      6564 4578 
 11786      7465 726E 
 11786      616C 4170 
 11787               	.LASF495:
 11788 0f06 4346 455F 	.string"CFE_ES_QueryOneCmd"
 11788      4553 5F51 
 11788      7565 7279 
 11788      4F6E 6543 
 11788      6D64 00
 11789               	.LASF335:
 11790 0f19 4346 455F 	.string"CFE_ES_CDS_RegRec_t"
 11790      4553 5F43 
 11790      4453 5F52 
 11790      6567 5265 
 11790      635F 7400 
 11791               	.LASF447:
 11792 0f2d 4669 6C65 	.string"Filename"
 11792      6E61 6D65 
 11792      00
 11793               	.LASF284:
 11794 0f36 4C6F 6745 	.string"LogEntry"
 11794      6E74 7279 
 11794      00
 11795               	.LASF27:
 11796 0f3f 756E 7369 	.string"unsigned int"
 11796      676E 6564 
 11796      2069 6E74 
 11796      00
 11797               	.LASF150:
 11798 0f4c 5F74 696D 	.string"_timezone"
 11798      657A 6F6E 
 11798      6500 
 11799               	.LASF247:
 11800 0f56 426F 6F74 	.string"BootSource"
 11800      536F 7572 
 11800      6365 00
 11801               	.LASF140:
 11802 0f61 5F68 5F65 	.string"_h_errno"
 11802      7272 6E6F 
 11802      00
 11803               	.LASF177:
 11804 0f6a 5461 736B 	.string"TaskName"
 11804      4E61 6D65 
 11804      00
 11805               	.LASF508:
 11806 0f73 4346 455F 	.string"CFE_ES_ShellCmd"
 11806      4553 5F53 
 11806      6865 6C6C 
 11806      436D 6400 
 11807               	.LASF295:
 11808 0f83 5065 7266 	.string"Perf"
 11808      00
 11809               	.LASF287:
 11810 0f88 4346 455F 	.string"CFE_ES_ResetVariables_t"
 11810      4553 5F52 
 11810      6573 6574 
68K GAS   			page 279


 11810      5661 7269 
 11810      6162 6C65 
 11811               	.LASF400:
 11812 0fa0 5065 7266 	.string"PerfFilterMask"
 11812      4669 6C74 
 11812      6572 4D61 
 11812      736B 00
 11813               	.LASF235:
 11814 0faf 5469 6D65 	.string"TimeSeconds"
 11814      5365 636F 
 11814      6E64 7300 
 11815               	.LASF390:
 11816 0fbb 5379 734C 	.string"SysLogMode"
 11816      6F67 4D6F 
 11816      6465 00
 11817               	.LASF138:
 11818 0fc6 5F77 6372 	.string"_wcrtomb_state"
 11818      746F 6D62 
 11818      5F73 7461 
 11818      7465 00
 11819               	.LASF60:
 11820 0fd5 5F5F 746D 	.string"__tm_mday"
 11820      5F6D 6461 
 11820      7900 
 11821               	.LASF522:
 11822 0fdf 4170 7052 	.string"AppRunStatus"
 11822      756E 5374 
 11822      6174 7573 
 11822      00
 11823               	.LASF362:
 11824 0fec 4D61 7850 	.string"MaxPRCount"
 11824      5243 6F75 
 11824      6E74 00
 11825               	.LASF111:
 11826 0ff7 5F6E 6577 	.string"_new"
 11826      00
 11827               	.LASF33:
 11828 0ffc 5F6E 616D 	.string"_name"
 11828      6500 
 11829               	.LASF86:
 11830 1002 5F75 6275 	.string"_ubuf"
 11830      6600 
 11831               	.LASF216:
 11832 1008 5265 6C69 	.string"Reliability"
 11832      6162 696C 
 11832      6974 7900 
 11833               	.LASF98:
 11834 1014 5F73 7464 	.string"_stderr"
 11834      6572 7200 
 11835               	.LASF131:
 11836 101c 5F77 6374 	.string"_wctomb_state"
 11836      6F6D 625F 
 11836      7374 6174 
 11836      6500 
 11837               	.LASF92:
 11838 102a 5F6D 6273 	.string"_mbstate"
 11838      7461 7465 
68K GAS   			page 280


 11838      00
 11839               	.LASF365:
 11840 1033 4346 455F 	.string"CFE_ES_DeleteCDSCmd_Payload_t"
 11840      4553 5F44 
 11840      656C 6574 
 11840      6543 4453 
 11840      436D 645F 
 11841               	.LASF127:
 11842 1051 5F72 616E 	.string"_rand_next"
 11842      645F 6E65 
 11842      7874 00
 11843               	.LASF78:
 11844 105c 5F66 6C61 	.string"_flags"
 11844      6773 00
 11845               	.LASF155:
 11846 1063 5479 7065 	.string"Type"
 11846      00
 11847               	.LASF481:
 11848 1068 5374 6174 	.string"Stat"
 11848      00
 11849               	.LASF189:
 11850 106d 4346 455F 	.string"CFE_ES_MemPoolStats_t"
 11850      4553 5F4D 
 11850      656D 506F 
 11850      6F6C 5374 
 11850      6174 735F 
 11851               	.LASF360:
 11852 1083 4346 455F 	.string"CFE_ES_AppNameCmd_Payload_t"
 11852      4553 5F41 
 11852      7070 4E61 
 11852      6D65 436D 
 11852      645F 5061 
 11853               	.LASF426:
 11854 109f 5379 7374 	.string"SystemState"
 11854      656D 5374 
 11854      6174 6500 
 11855               	.LASF71:
 11856 10ab 5F61 7465 	.string"_atexit"
 11856      7869 7400 
 11857               	.LASF413:
 11858 10b3 4346 455F 	.string"CFE_ES_ShellPacket_t"
 11858      4553 5F53 
 11858      6865 6C6C 
 11858      5061 636B 
 11858      6574 5F74 
 11859               	.LASF197:
 11860 10c8 5375 6273 	.string"Subseconds"
 11860      6563 6F6E 
 11860      6473 00
 11861               	.LASF161:
 11862 10d3 4164 6472 	.string"AddressesAreValid"
 11862      6573 7365 
 11862      7341 7265 
 11862      5661 6C69 
 11862      6400 
 11863               	.LASF480:
 11864 10e5 4346 455F 	.string"CFE_ES_WriteERlogCmd"
68K GAS   			page 281


 11864      4553 5F57 
 11864      7269 7465 
 11864      4552 6C6F 
 11864      6743 6D64 
 11865               	.LASF46:
 11866 10fa 5F5F 636F 	.string"__count"
 11866      756E 7400 
 11867               	.LASF348:
 11868 1102 5175 6572 	.string"QueryAllFileName"
 11868      7941 6C6C 
 11868      4669 6C65 
 11868      4E61 6D65 
 11868      00
 11869               	.LASF262:
 11870 1113 5370 6172 	.string"Spare"
 11870      6500 
 11871               	.LASF371:
 11872 1119 4346 455F 	.string"CFE_ES_OneAppTlm_Payload_t"
 11872      4553 5F4F 
 11872      6E65 4170 
 11872      7054 6C6D 
 11872      5F50 6179 
 11873               	.LASF181:
 11874 1134 4E75 6D43 	.string"NumCreated"
 11874      7265 6174 
 11874      6564 00
 11875               	.LASF489:
 11876 113f 4346 455F 	.string"CFE_ES_QueryAllTasksCmd"
 11876      4553 5F51 
 11876      7565 7279 
 11876      416C 6C54 
 11876      6173 6B73 
 11877               	.LASF156:
 11878 1157 4E61 6D65 	.string"Name"
 11878      00
 11879               	.LASF475:
 11880 115c 5772 6974 	.string"WriteStat"
 11880      6553 7461 
 11880      7400 
 11881               	.LASF63:
 11882 1166 5F5F 746D 	.string"__tm_wday"
 11882      5F77 6461 
 11882      7900 
 11883               	.LASF211:
 11884 1170 4279 7465 	.string"Byte"
 11884      00
 11885               	.LASF277:
 11886 1175 4461 7461 	.string"DataBuffer"
 11886      4275 6666 
 11886      6572 00
 11887               	.LASF22:
 11888 1180 6C6F 6E67 	.string"long double"
 11888      2064 6F75 
 11888      626C 6500 
 11889               	.LASF305:
 11890 118c 4346 455F 	.string"CFE_ES_MainTaskInfo_t"
 11890      4553 5F4D 
68K GAS   			page 282


 11890      6169 6E54 
 11890      6173 6B49 
 11890      6E66 6F5F 
 11891               	.LASF64:
 11892 11a2 5F5F 746D 	.string"__tm_yday"
 11892      5F79 6461 
 11892      7900 
 11893               	.LASF311:
 11894 11ac 4346 455F 	.string"CFE_ES_TaskRecord_t"
 11894      4553 5F54 
 11894      6173 6B52 
 11894      6563 6F72 
 11894      645F 7400 
 11895               	.LASF322:
 11896 11c0 5374 6172 	.string"Start"
 11896      7400 
 11897               	.LASF38:
 11898 11c6 5F4D 7574 	.string"_Mutex_recursive_Control"
 11898      6578 5F72 
 11898      6563 7572 
 11898      7369 7665 
 11898      5F43 6F6E 
 11899               	.LASF266:
 11900 11df 4D6F 6465 	.string"Mode"
 11900      00
 11901               	.LASF31:
 11902 11e4 5F68 6561 	.string"_heads"
 11902      6473 00
 11903               	.LASF119:
 11904 11eb 5F73 6565 	.string"_seed"
 11904      6400 
 11905               	.LASF456:
 11906 11f1 5265 6749 	.string"RegIndex"
 11906      6E64 6578 
 11906      00
 11907               	.LASF37:
 11908 11fa 5F51 7565 	.string"_Queue"
 11908      7565 00
 11909               	.LASF472:
 11910 1201 436F 6D6D 	.string"CommandCode"
 11910      616E 6443 
 11910      6F64 6500 
 11911               	.LASF513:
 11912 120d 4346 455F 	.string"CFE_ES_HousekeepingCmd"
 11912      4553 5F48 
 11912      6F75 7365 
 11912      6B65 6570 
 11912      696E 6743 
 11913               	.LASF286:
 11914 1224 4553 5F43 	.string"ES_CausedReset"
 11914      6175 7365 
 11914      6452 6573 
 11914      6574 00
 11915               	.LASF24:
 11916 1233 5F66 706F 	.string"_fpos_t"
 11916      735F 7400 
 11917               	.LASF433:
68K GAS   			page 283


 11918 123b 4346 455F 	.string"CFE_ES_Global"
 11918      4553 5F47 
 11918      6C6F 6261 
 11918      6C00 
 11919               	.LASF45:
 11920 1249 5F5F 7763 	.string"__wchb"
 11920      6862 00
 11921               	.LASF444:
 11922 1250 4C69 6D69 	.string"LimitCmd"
 11922      7443 6D64 
 11922      00
 11923               	.LASF370:
 11924 1259 4170 7049 	.string"AppInfo"
 11924      6E66 6F00 
 11925               	.LASF130:
 11926 1261 5F6D 6274 	.string"_mbtowc_state"
 11926      6F77 635F 
 11926      7374 6174 
 11926      6500 
 11927               	.LASF465:
 11928 126f 4346 455F 	.string"CFE_ES_DeleteCDSCmd"
 11928      4553 5F44 
 11928      656C 6574 
 11928      6543 4453 
 11928      436D 6400 
 11929               	.LASF355:
 11930 1283 4346 455F 	.string"CFE_ES_OverWriteSysLogCmd_Payload_t"
 11930      4553 5F4F 
 11930      7665 7257 
 11930      7269 7465 
 11930      5379 734C 
 11931               	.LASF363:
 11932 12a7 4346 455F 	.string"CFE_ES_SetMaxPRCountCmd_Payload_t"
 11932      4553 5F53 
 11932      6574 4D61 
 11932      7850 5243 
 11932      6F75 6E74 
 11933               	.LASF421:
 11934 12c9 436F 756E 	.string"CounterName"
 11934      7465 724E 
 11934      616D 6500 
 11935               	.LASF13:
 11936 12d5 6C6F 6E67 	.string"long long unsigned int"
 11936      206C 6F6E 
 11936      6720 756E 
 11936      7369 676E 
 11936      6564 2069 
 11937               	.LASF308:
 11938 12ec 5374 6174 	.string"StateRecord"
 11938      6552 6563 
 11938      6F72 6400 
 11939               	.LASF417:
 11940 12f8 4461 7461 	.string"DataFileDescriptor"
 11940      4669 6C65 
 11940      4465 7363 
 11940      7269 7074 
 11940      6F72 00
68K GAS   			page 284


 11941               	.LASF463:
 11942 130b 4578 7065 	.string"ExpectedLength"
 11942      6374 6564 
 11942      4C65 6E67 
 11942      7468 00
 11943               	.LASF167:
 11944 131a 4253 5353 	.string"BSSSize"
 11944      697A 6500 
 11945               	.LASF68:
 11946 1322 5F64 736F 	.string"_dso_handle"
 11946      5F68 616E 
 11946      646C 6500 
 11947               	.LASF118:
 11948 132e 5F72 616E 	.string"_rand48"
 11948      6434 3800 
 11949               	.LASF214:
 11950 1336 4346 455F 	.string"CFE_SB_MsgId_t"
 11950      5342 5F4D 
 11950      7367 4964 
 11950      5F74 00
 11951               	.LASF97:
 11952 1345 5F73 7464 	.string"_stdout"
 11952      6F75 7400 
 11953               	.LASF265:
 11954 134d 5374 6174 	.string"State"
 11954      6500 
 11955               	.LASF88:
 11956 1353 5F62 6C6B 	.string"_blksize"
 11956      7369 7A65 
 11956      00
 11957               	.LASF191:
 11958 135c 4861 6E64 	.string"Handle"
 11958      6C65 00
 11959               	.LASF448:
 11960 1363 5265 7175 	.string"Requested"
 11960      6573 7465 
 11960      6400 
 11961               	.LASF304:
 11962 136d 4346 455F 	.string"CFE_ES_AppStartParams_t"
 11962      4553 5F41 
 11962      7070 5374 
 11962      6172 7450 
 11962      6172 616D 
 11963               	.LASF258:
 11964 1385 5469 6D65 	.string"TimerLower32"
 11964      724C 6F77 
 11964      6572 3332 
 11964      00
 11965               	.LASF75:
 11966 1392 5F62 6173 	.string"_base"
 11966      6500 
 11967               	.LASF270:
 11968 1398 4461 7461 	.string"DataCount"
 11968      436F 756E 
 11968      7400 
 11969               	.LASF123:
 11970 13a2 5F73 7472 	.string"_strtok_last"
68K GAS   			page 285


 11970      746F 6B5F 
 11970      6C61 7374 
 11970      00
 11971               	.LASF336:
 11972 13af 5265 6769 	.string"RegistryMutex"
 11972      7374 7279 
 11972      4D75 7465 
 11972      7800 
 11973               	.LASF427:
 11974 13bd 5461 736B 	.string"TaskTable"
 11974      5461 626C 
 11974      6500 
 11975               	.LASF136:
 11976 13c7 5F6D 6272 	.string"_mbrtowc_state"
 11976      746F 7763 
 11976      5F73 7461 
 11976      7465 00
 11977               	.LASF273:
 11978 13d6 4669 6C74 	.string"FilterMask"
 11978      6572 4D61 
 11978      736B 00
 11979               	.LASF245:
 11980 13e1 5265 7365 	.string"ResetType"
 11980      7454 7970 
 11980      6500 
 11981               	.LASF306:
 11982 13eb 5265 636F 	.string"RecordUsed"
 11982      7264 5573 
 11982      6564 00
 11983               	.LASF202:
 11984 13f6 4375 7272 	.string"CurrentMET"
 11984      656E 744D 
 11984      4554 00
 11985               	.LASF49:
 11986 1401 5F66 6C6F 	.string"_flock_t"
 11986      636B 5F74 
 11986      00
 11987               	.LASF188:
 11988 140a 426C 6F63 	.string"BlockStats"
 11988      6B53 7461 
 11988      7473 00
 11989               	.LASF114:
 11990 1415 5F5F 4649 	.string"__FILE"
 11990      4C45 00
 11991               	.LASF330:
 11992 141c 4346 455F 	.string"CFE_ES_CDSPool_t"
 11992      4553 5F43 
 11992      4453 506F 
 11992      6F6C 5F74 
 11992      00
 11993               	.LASF91:
 11994 142d 5F6C 6F63 	.string"_lock"
 11994      6B00 
 11995               	.LASF432:
 11996 1433 4346 455F 	.string"CFE_ES_Global_t"
 11996      4553 5F47 
 11996      6C6F 6261 
68K GAS   			page 286


 11996      6C5F 7400 
 11997               	.LASF48:
 11998 1443 5F6D 6273 	.string"_mbstate_t"
 11998      7461 7465 
 11998      5F74 00
 11999               	.LASF381:
 12000 144e 4346 4552 	.string"CFERevision"
 12000      6576 6973 
 12000      696F 6E00 
 12001               	.LASF128:
 12002 145a 5F72 3438 	.string"_r48"
 12002      00
 12003               	.LASF397:
 12004 145f 5065 7266 	.string"PerfState"
 12004      5374 6174 
 12004      6500 
 12005               	.LASF208:
 12006 1469 4C65 6E67 	.string"Length"
 12006      7468 00
 12007               	.LASF43:
 12008 1470 7769 6E74 	.string"wint_t"
 12008      5F74 00
 12009               	.LASF352:
 12010 1477 4346 455F 	.string"CFE_ES_WriteSyslogCmd_Payload_t"
 12010      4553 5F57 
 12010      7269 7465 
 12010      5379 736C 
 12010      6F67 436D 
 12011               	.LASF429:
 12012 1497 4C69 6254 	.string"LibTable"
 12012      6162 6C65 
 12012      00
 12013               	.LASF2:
 12014 14a0 6F73 616C 	.string"osalbool"
 12014      626F 6F6C 
 12014      00
 12015               	.LASF399:
 12016 14a9 5065 7266 	.string"PerfTriggerCount"
 12016      5472 6967 
 12016      6765 7243 
 12016      6F75 6E74 
 12016      00
 12017               	.LASF52:
 12018 14ba 5F6E 6578 	.string"_next"
 12018      7400 
 12019               	.LASF90:
 12020 14c0 5F64 6174 	.string"_data"
 12020      6100 
 12021               	.LASF239:
 12022 14c6 4465 6275 	.string"DebugFlag"
 12022      6746 6C61 
 12022      6700 
 12023               	.LASF246:
 12024 14d0 5265 7365 	.string"ResetSubtype"
 12024      7453 7562 
 12024      7479 7065 
 12024      00
68K GAS   			page 287


 12025               	.LASF163:
 12026 14dd 436F 6465 	.string"CodeSize"
 12026      5369 7A65 
 12026      00
 12027               	.LASF391:
 12028 14e6 5265 6769 	.string"RegisteredCoreApps"
 12028      7374 6572 
 12028      6564 436F 
 12028      7265 4170 
 12028      7073 00
 12029               	.LASF527:
 12030 14f9 4346 455F 	.string"CFE_ES_TaskMain"
 12030      4553 5F54 
 12030      6173 6B4D 
 12030      6169 6E00 
 12031               	.LASF218:
 12032 1509 4346 455F 	.string"CFE_SB_Default_Qos"
 12032      5342 5F44 
 12032      6566 6175 
 12032      6C74 5F51 
 12032      6F73 00
 12033               	.LASF497:
 12034 151c 4346 455F 	.string"CFE_ES_ReloadAppCmd"
 12034      4553 5F52 
 12034      656C 6F61 
 12034      6441 7070 
 12034      436D 6400 
 12035               	.LASF267:
 12036 1530 5472 6967 	.string"TriggerCount"
 12036      6765 7243 
 12036      6F75 6E74 
 12036      00
 12037               	.LASF302:
 12038 153d 4170 7054 	.string"AppTimer"
 12038      696D 6572 
 12038      00
 12039               	.LASF350:
 12040 1546 4346 455F 	.string"CFE_ES_QueryAllTasksCmd_Payload_t"
 12040      4553 5F51 
 12040      7565 7279 
 12040      416C 6C54 
 12040      6173 6B73 
 12041               	.LASF213:
 12042 1568 4346 455F 	.string"CFE_SB_PipeId_t"
 12042      5342 5F50 
 12042      6970 6549 
 12042      645F 7400 
 12043               	.LASF300:
 12044 1578 4170 7043 	.string"AppControlRequest"
 12044      6F6E 7472 
 12044      6F6C 5265 
 12044      7175 6573 
 12044      7400 
 12045               	.LASF199:
 12046 158a 5369 676E 	.string"Signature"
 12046      6174 7572 
 12046      6500 
68K GAS   			page 288


 12047               	.LASF292:
 12048 1594 5379 7374 	.string"SystemLogIndex"
 12048      656D 4C6F 
 12048      6749 6E64 
 12048      6578 00
 12049               	.LASF318:
 12050 15a3 4163 7475 	.string"ActualSize"
 12050      616C 5369 
 12050      7A65 00
 12051               	.LASF39:
 12052 15ae 5F4D 7574 	.string"_Mutex"
 12052      6578 00
 12053               	.LASF301:
 12054 15b5 4170 7053 	.string"AppState"
 12054      7461 7465 
 12054      00
 12055               	.LASF395:
 12056 15be 5072 6F63 	.string"ProcessorResets"
 12056      6573 736F 
 12056      7252 6573 
 12056      6574 7300 
 12057               	.LASF269:
 12058 15ce 4461 7461 	.string"DataEnd"
 12058      456E 6400 
 12059               	.LASF518:
 12060 15d6 4346 455F 	.string"CFE_ES_TaskInit"
 12060      4553 5F54 
 12060      6173 6B49 
 12060      6E69 7400 
 12061               	.LASF414:
 12062 15e6 4461 7461 	.string"DataToWrite"
 12062      546F 5772 
 12062      6974 6500 
 12063               	.LASF248:
 12064 15f2 5072 6F63 	.string"ProcessorResetCount"
 12064      6573 736F 
 12064      7252 6573 
 12064      6574 436F 
 12064      756E 7400 
 12065               	.LASF8:
 12066 1606 7569 6E74 	.string"uint8"
 12066      3800 
 12067               	.LASF310:
 12068 160c 4346 455F 	.string"CFE_ES_AppRecord_t"
 12068      4553 5F41 
 12068      7070 5265 
 12068      636F 7264 
 12068      5F74 00
 12069               	.LASF319:
 12070 161f 4346 455F 	.string"CFE_ES_CDSBlockDesc_t"
 12070      4553 5F43 
 12070      4453 426C 
 12070      6F63 6B44 
 12070      6573 635F 
 12071               	.LASF18:
 12072 1635 6672 6565 	.string"free_blocks"
 12072      5F62 6C6F 
68K GAS   			page 289


 12072      636B 7300 
 12073               	.LASF502:
 12074 1641 4669 6C65 	.string"FilenameLen"
 12074      6E61 6D65 
 12074      4C65 6E00 
 12075               	.LASF178:
 12076 164d 4170 704E 	.string"AppName"
 12076      616D 6500 
 12077               	.LASF279:
 12078 1655 4E65 7874 	.string"Next"
 12078      00
 12079               	.LASF183:
 12080 165a 4346 455F 	.string"CFE_ES_BlockStats_t"
 12080      4553 5F42 
 12080      6C6F 636B 
 12080      5374 6174 
 12080      735F 7400 
 12081               	.LASF256:
 12082 166e 4461 7461 	.string"Data"
 12082      00
 12083               	.LASF129:
 12084 1673 5F6D 626C 	.string"_mblen_state"
 12084      656E 5F73 
 12084      7461 7465 
 12084      00
 12085               	.LASF4:
 12086 1680 7368 6F72 	.string"short int"
 12086      7420 696E 
 12086      7400 
 12087               	.LASF220:
 12088 168a 4576 656E 	.string"EventType"
 12088      7454 7970 
 12088      6500 
 12089               	.LASF494:
 12090 1694 4346 455F 	.string"CFE_ES_QueryAllCmd"
 12090      4553 5F51 
 12090      7565 7279 
 12090      416C 6C43 
 12090      6D64 00
 12091               	.LASF340:
 12092 16a7 5265 6769 	.string"Registry"
 12092      7374 7279 
 12092      00
 12093               	.LASF516:
 12094 16b0 5065 7266 	.string"PerfIdx"
 12094      4964 7800 
 12095               	.LASF511:
 12096 16b8 4346 455F 	.string"CFE_ES_ResetCmd"
 12096      4553 5F52 
 12096      6573 6574 
 12096      436D 6400 
 12097               	.LASF410:
 12098 16c8 4346 455F 	.string"CFE_ES_HkPacket_t"
 12098      4553 5F48 
 12098      6B50 6163 
 12098      6B65 745F 
 12098      7400 
68K GAS   			page 290


 12099               	.LASF149:
 12100 16da 7375 626F 	.string"suboptarg"
 12100      7074 6172 
 12100      6700 
 12101               	.LASF69:
 12102 16e4 5F66 6E74 	.string"_fntypes"
 12102      7970 6573 
 12102      00
 12103               	.LASF512:
 12104 16ed 4346 455F 	.string"CFE_ES_NoopCmd"
 12104      4553 5F4E 
 12104      6F6F 7043 
 12104      6D64 00
 12105               	.LASF20:
 12106 16fc 4F53 5F68 	.string"OS_heap_prop_t"
 12106      6561 705F 
 12106      7072 6F70 
 12106      5F74 00
 12107               	.LASF62:
 12108 170b 5F5F 746D 	.string"__tm_year"
 12108      5F79 6561 
 12108      7200 
 12109               	.LASF331:
 12110 1715 4346 455F 	.string"CFE_ES_CDSMemPool"
 12110      4553 5F43 
 12110      4453 4D65 
 12110      6D50 6F6F 
 12110      6C00 
 12111               	.LASF521:
 12112 1727 5469 6D65 	.string"TimeOut"
 12112      4F75 7400 
 12113               	.LASF219:
 12114 172f 4576 656E 	.string"EventID"
 12114      7449 4400 
 12115               	.LASF353:
 12116 1737 4552 4C6F 	.string"ERLogFileName"
 12116      6746 696C 
 12116      654E 616D 
 12116      6500 
 12117               	.LASF499:
 12118 1745 4346 455F 	.string"CFE_ES_RestartAppCmd"
 12118      4553 5F52 
 12118      6573 7461 
 12118      7274 4170 
 12118      7043 6D64 
 12119               	.LASF326:
 12120 175a 5265 7175 	.string"RequestCntr"
 12120      6573 7443 
 12120      6E74 7200 
 12121               	.LASF473:
 12122 1766 4346 455F 	.string"CFE_ES_VerifyCmdLength"
 12122      4553 5F56 
 12122      6572 6966 
 12122      7943 6D64 
 12122      4C65 6E67 
 12123               	.LASF243:
 12124 177d 4346 455F 	.string"CFE_ES_DebugVariables_t"
68K GAS   			page 291


 12124      4553 5F44 
 12124      6562 7567 
 12124      5661 7269 
 12124      6162 6C65 
 12125               	.LASF378:
 12126 1795 4346 4543 	.string"CFECoreChecksum"
 12126      6F72 6543 
 12126      6865 636B 
 12126      7375 6D00 
 12127               	.LASF80:
 12128 17a5 5F6C 6266 	.string"_lbfsize"
 12128      7369 7A65 
 12128      00
 12129               	.LASF99:
 12130 17ae 5F69 6E63 	.string"_inc"
 12130      00
 12131               	.LASF72:
 12132 17b3 5F69 6E64 	.string"_ind"
 12132      00
 12133               	.LASF405:
 12134 17b8 5065 7266 	.string"PerfDataToWrite"
 12134      4461 7461 
 12134      546F 5772 
 12134      6974 6500 
 12135               	.LASF176:
 12136 17c8 5461 736B 	.string"TaskId"
 12136      4964 00
 12137               	.LASF21:
 12138 17cf 5F5F 696E 	.string"__int64_t"
 12138      7436 345F 
 12138      7400 
 12139               	.LASF268:
 12140 17d9 4461 7461 	.string"DataStart"
 12140      5374 6172 
 12140      7400 
 12141               	.LASF375:
 12142 17e3 4346 455F 	.string"CFE_ES_PoolStatsTlm_t"
 12142      4553 5F50 
 12142      6F6F 6C53 
 12142      7461 7473 
 12142      546C 6D5F 
 12143               	.LASF3:
 12144 17f9 696E 7431 	.string"int16"
 12144      3600 
 12145               	.LASF437:
 12146 17ff 4F6E 6541 	.string"OneAppPacket"
 12146      7070 5061 
 12146      636B 6574 
 12146      00
 12147               	.LASF74:
 12148 180c 5F5F 7362 	.string"__sbuf"
 12148      7566 00
 12149               	.LASF477:
 12150 1813 5265 7365 	.string"ResetAreaSize"
 12150      7441 7265 
 12150      6153 697A 
 12150      6500 
68K GAS   			page 292


 12151               	.LASF70:
 12152 1821 5F69 735F 	.string"_is_cxa"
 12152      6378 6100 
 12153               	.LASF198:
 12154 1829 4346 455F 	.string"CFE_TIME_SysTime_t"
 12154      5449 4D45 
 12154      5F53 7973 
 12154      5469 6D65 
 12154      5F74 00
 12155               	.LASF141:
 12156 183c 5F6E 6578 	.string"_nextf"
 12156      7466 00
 12157               	.LASF251:
 12158 1843 5469 6D65 	.string"TimeCode"
 12158      436F 6465 
 12158      00
 12159               	.LASF452:
 12160 184c 4D65 7373 	.string"MessagePtr"
 12160      6167 6550 
 12160      7472 00
 12161               	.LASF501:
 12162 1857 4346 455F 	.string"CFE_ES_StartAppCmd"
 12162      4553 5F53 
 12162      7461 7274 
 12162      4170 7043 
 12162      6D64 00
 12163               	.LASF255:
 12164 186a 4346 455F 	.string"CFE_ES_ERLog_t"
 12164      4553 5F45 
 12164      524C 6F67 
 12164      5F74 00
 12165               	.LASF233:
 12166 1879 5375 6254 	.string"SubType"
 12166      7970 6500 
 12167               	.LASF228:
 12168 1881 4346 455F 	.string"CFE_EVS_Packet_Payload_t"
 12168      4556 535F 
 12168      5061 636B 
 12168      6574 5F50 
 12168      6179 6C6F 
 12169               	.LASF384:
 12170 189a 4F53 414C 	.string"OSALMinorVersion"
 12170      4D69 6E6F 
 12170      7256 6572 
 12170      7369 6F6E 
 12170      00
 12171               	.LASF102:
 12172 18ab 5F6C 6F63 	.string"_locale"
 12172      616C 6500 
 12173               	.LASF50:
 12174 18b3 5F5F 554C 	.string"__ULong"
 12174      6F6E 6700 
 12175               	.LASF193:
 12176 18bb 5461 626C 	.string"Table"
 12176      6500 
 12177               	.LASF482:
 12178 18c1 4C6F 6746 	.string"LogFilename"
68K GAS   			page 293


 12178      696C 656E 
 12178      616D 6500 
 12179               	.LASF237:
 12180 18cd 4465 7363 	.string"Description"
 12180      7269 7074 
 12180      696F 6E00 
 12181               	.LASF327:
 12182 18d9 4D75 7465 	.string"MutexId"
 12182      7849 6400 
 12183               	.LASF105:
 12184 18e1 5F72 6573 	.string"_result"
 12184      756C 7400 
 12185               	.LASF153:
 12186 18e9 4346 455F 	.string"CFE_ES_MemHandle_t"
 12186      4553 5F4D 
 12186      656D 4861 
 12186      6E64 6C65 
 12186      5F74 00
 12187               	.LASF30:
 12188 18fc 5F4C 6F63 	.string"_Lock"
 12188      6B00 
 12189               	.LASF26:
 12190 1902 5F6E 6F77 	.string"_now_serving"
 12190      5F73 6572 
 12190      7669 6E67 
 12190      00
 12191               	.LASF347:
 12192 190f 4346 455F 	.string"CFE_ES_ShellCmd_Payload_t"
 12192      4553 5F53 
 12192      6865 6C6C 
 12192      436D 645F 
 12192      5061 796C 
 12193               	.LASF435:
 12194 1929 486B 5061 	.string"HkPacket"
 12194      636B 6574 
 12194      00
 12195               	.LASF23:
 12196 1932 5F6F 6666 	.string"_off_t"
 12196      5F74 00
 12197               	.LASF491:
 12198 1939 456E 7472 	.string"EntryCount"
 12198      7943 6F75 
 12198      6E74 00
 12199               	.LASF345:
 12200 1944 436D 6453 	.string"CmdString"
 12200      7472 696E 
 12200      6700 
 12201               	.LASF422:
 12202 194e 4346 455F 	.string"CFE_ES_GenCounterRecord_t"
 12202      4553 5F47 
 12202      656E 436F 
 12202      756E 7465 
 12202      7252 6563 
 12203               	.LASF121:
 12204 1968 5F61 6464 	.string"_add"
 12204      00
 12205               	.LASF523:
68K GAS   			page 294


 12206 196d 474E 5520 	.string"GNU C11 7.3.0 20180125 (RTEMS 5, RSB d2b25d131d55adcb38219f2cd8cbec2436ee78ab, Newlib 3.0.0) -malign-int -mcpu=528x -g -O0 -fomit-frame-pointer"
 12206      4331 3120 
 12206      372E 332E 
 12206      3020 3230 
 12206      3138 3031 
 12207               	.LASF10:
 12208 19fd 7368 6F72 	.string"short unsigned int"
 12208      7420 756E 
 12208      7369 676E 
 12208      6564 2069 
 12208      6E74 00
 12209               	.LASF59:
 12210 1a10 5F5F 746D 	.string"__tm_hour"
 12210      5F68 6F75 
 12210      7200 
 12211               	.LASF244:
 12212 1a1a 4C6F 6745 	.string"LogEntryType"
 12212      6E74 7279 
 12212      5479 7065 
 12212      00
 12213               	.LASF164:
 12214 1a27 4461 7461 	.string"DataAddress"
 12214      4164 6472 
 12214      6573 7300 
 12215               	.LASF367:
 12216 1a33 4346 455F 	.string"CFE_ES_TlmPoolStatsCmd_Payload_t"
 12216      4553 5F54 
 12216      6C6D 506F 
 12216      6F6C 5374 
 12216      6174 7343 
 12217               	.LASF221:
 12218 1a54 5370 6163 	.string"SpacecraftID"
 12218      6563 7261 
 12218      6674 4944 
 12218      00
 12219               	.LASF234:
 12220 1a61 4170 706C 	.string"ApplicationID"
 12220      6963 6174 
 12220      696F 6E49 
 12220      4400 
 12221               	.LASF5:
 12222 1a6f 696E 7433 	.string"int32"
 12222      3200 
 12223               	.LASF207:
 12224 1a75 5365 7175 	.string"Sequence"
 12224      656E 6365 
 12224      00
 12225               	.LASF137:
 12226 1a7e 5F6D 6273 	.string"_mbsrtowcs_state"
 12226      7274 6F77 
 12226      6373 5F73 
 12226      7461 7465 
 12226      00
 12227               	.LASF223:
 12228 1a8f 4346 455F 	.string"CFE_EVS_PacketID_t"
 12228      4556 535F 
 12228      5061 636B 
68K GAS   			page 295


 12228      6574 4944 
 12228      5F74 00
 12229               	.LASF179:
 12230 1aa2 4346 455F 	.string"CFE_ES_TaskInfo_t"
 12230      4553 5F54 
 12230      6173 6B49 
 12230      6E66 6F5F 
 12230      7400 
 12231               	.LASF460:
 12232 1ab4 4669 6C65 	.string"FileSize"
 12232      5369 7A65 
 12232      00
 12233               	.LASF67:
 12234 1abd 5F66 6E61 	.string"_fnargs"
 12234      7267 7300 
 12235               	.LASF65:
 12236 1ac5 5F5F 746D 	.string"__tm_isdst"
 12236      5F69 7364 
 12236      7374 00
 12237               	.LASF285:
 12238 1ad0 4346 455F 	.string"CFE_EVS_Log_t"
 12238      4556 535F 
 12238      4C6F 675F 
 12238      7400 
 12239               	.LASF254:
 12240 1ade 436F 6E74 	.string"Context"
 12240      6578 7400 
 12241               	.LASF240:
 12242 1ae6 5761 7463 	.string"WatchdogWriteFlag"
 12242      6864 6F67 
 12242      5772 6974 
 12242      6546 6C61 
 12242      6700 
 12243               	.LASF151:
 12244 1af8 5F64 6179 	.string"_daylight"
 12244      6C69 6768 
 12244      7400 
 12245               	.LASF415:
 12246 1b02 4368 696C 	.string"ChildID"
 12246      6449 4400 
 12247               	.LASF215:
 12248 1b0a 4346 455F 	.string"CFE_SB_MsgPtr_t"
 12248      5342 5F4D 
 12248      7367 5074 
 12248      725F 7400 
 12249               	.LASF58:
 12250 1b1a 5F5F 746D 	.string"__tm_min"
 12250      5F6D 696E 
 12250      00
 12251               	.LASF296:
 12252 1b23 5265 7365 	.string"ResetVars"
 12252      7456 6172 
 12252      7300 
 12253               	.LASF9:
 12254 1b2d 7569 6E74 	.string"uint16"
 12254      3136 00
 12255               	.LASF309:
68K GAS   			page 296


 12256 1b34 5461 736B 	.string"TaskInfo"
 12256      496E 666F 
 12256      00
 12257               	.LASF134:
 12258 1b3d 5F67 6574 	.string"_getdate_err"
 12258      6461 7465 
 12258      5F65 7272 
 12258      00
 12259               	.LASF354:
 12260 1b4a 4346 455F 	.string"CFE_ES_WriteERlogCmd_Payload_t"
 12260      4553 5F57 
 12260      7269 7465 
 12260      4552 6C6F 
 12260      6743 6D64 
 12261               	.LASF217:
 12262 1b69 4346 455F 	.string"CFE_SB_Qos_t"
 12262      5342 5F51 
 12262      6F73 5F74 
 12262      00
 12263               	.LASF406:
 12264 1b76 4865 6170 	.string"HeapBytesFree"
 12264      4279 7465 
 12264      7346 7265 
 12264      6500 
 12265               	.LASF431:
 12266 1b84 4344 5356 	.string"CDSVars"
 12266      6172 7300 
 12267               	.LASF498:
 12268 1b8c 4C6F 6361 	.string"LocalFileName"
 12268      6C46 696C 
 12268      654E 616D 
 12268      6500 
 12269               	.LASF461:
 12270 1b9a 4E75 6D45 	.string"NumEntries"
 12270      6E74 7269 
 12270      6573 00
 12271               	.LASF476:
 12272 1ba5 4273 7053 	.string"BspStat"
 12272      7461 7400 
 12273               	.ident"GCC: (GNU) 7.3.0 20180125 (RTEMS 5, RSB d2b25d131d55adcb38219f2cd8cbec2436ee78ab, Newlib 3.0.0)"
68K GAS   			page 297


DEFINED SYMBOLS
                            *ABS*:0000000000000000 cfe_es_task.c
                            *COM*:00000000000002c0 CFE_ES_TaskData
    {standard input}:16     .text:0000000000000000 CFE_ES_TaskMain
    {standard input}:183    .text:0000000000000116 CFE_ES_TaskInit
    {standard input}:580    .text:000000000000047a CFE_ES_TaskPipe
    {standard input}:943    .text:0000000000000708 CFE_ES_HousekeepingCmd
    {standard input}:1167   .text:00000000000009ac CFE_ES_NoopCmd
    {standard input}:1242   .text:0000000000000a20 CFE_ES_ResetCmd
    {standard input}:1294   .text:0000000000000a6e CFE_ES_RestartCmd
    {standard input}:1388   .text:0000000000000b18 CFE_ES_ShellCmd
    {standard input}:1536   .text:0000000000000c2a CFE_ES_StartAppCmd
    {standard input}:1901   .text:0000000000000f64 CFE_ES_StopAppCmd
    {standard input}:2064   .text:000000000000108c CFE_ES_RestartAppCmd
    {standard input}:2227   .text:00000000000011b4 CFE_ES_ReloadAppCmd
    {standard input}:2412   .text:000000000000131e CFE_ES_QueryOneCmd
    {standard input}:2595   .text:000000000000146a CFE_ES_QueryAllCmd
    {standard input}:2917   .text:0000000000001704 CFE_ES_QueryAllTasksCmd
    {standard input}:3235   .text:00000000000019aa CFE_ES_ClearSyslogCmd
    {standard input}:3418   .text:0000000000001ae8 CFE_ES_WriteSyslogCmd
    {standard input}:3290   .text:00000000000019fe CFE_ES_OverWriteSyslogCmd
    {standard input}:3707   .text:0000000000001d00 CFE_ES_ClearERlogCmd
    {standard input}:3775   .text:0000000000001d7a CFE_ES_WriteERlogCmd
    {standard input}:4180   .text:0000000000002082 CFE_ES_ResetPRCountCmd
    {standard input}:4235   .text:00000000000020e0 CFE_ES_SetMaxPRCountCmd
    {standard input}:4313   .text:0000000000002162 CFE_ES_DeleteCDSCmd
    {standard input}:4508   .text:00000000000022f2 CFE_ES_TlmPoolStatsCmd
    {standard input}:4637   .text:00000000000023e6 CFE_ES_DumpCDSRegCmd
    {standard input}:4080   .text:0000000000001fce CFE_ES_VerifyCmdLength
    {standard input}:3383   .text:0000000000001ab2 CFE_ES_SysLogClear
    {standard input}:3668   .text:0000000000001cd4 CFE_ES_SysLogOverwrite
    {standard input}:3503   .text:0000000000001b7c CFE_ES_SysLogDump
    {standard input}:4923   .text:000000000000266a CFE_ES_FileWriteByteCntErr
    {standard input}:3860   .text:0000000000001e0e CFE_ES_ERLogDump

UNDEFINED SYMBOLS
CFE_ES_PerfLogAdd
CFE_ES_WriteToSysLog
CFE_ES_WaitForStartupSync
CFE_ES_IncrementTaskCounter
CFE_SB_RcvMsg
CFE_ES_ScanAppTable
CFE_ES_ExitApp
CFE_ES_RegisterApp
CFE_ES_ResetDataPtr
CFE_EVS_Register
CFE_SB_InitMsg
CFE_SB_CreatePipe
CFE_SB_Default_Qos
CFE_SB_SubscribeEx
CFE_PSP_GetCFETextSegmentInfo
CFE_ES_CalculateCRC
CFE_EVS_SendEvent
CFE_SB_GetMsgId
CFE_SB_GetCmdCode
CFE_ES_PerfStartDataCmd
CFE_ES_PerfStopDataCmd
68K GAS   			page 298


CFE_ES_PerfSetFilterMaskCmd
CFE_ES_PerfSetTriggerMaskCmd
CFE_ES_Global
CFE_ES_PerfLogDumpStatus
OS_HeapGetInfo
CFE_SB_TimeStampMsg
CFE_SB_SendMsg
CFE_ES_ResetCFE
CFE_SB_MessageStringGet
CFE_ES_ShellOutputCommand
CFE_ES_AppCreate
CFE_ES_GetAppIDByName
CFE_ES_DeleteApp
CFE_ES_RestartApp
CFE_ES_ReloadApp
CFE_ES_GetAppInfoInternal
OS_open
OS_close
OS_remove
OS_creat
CFE_FS_InitHeader
CFE_FS_WriteHeader
CFE_PSP_MemSet
OS_write
CFE_ES_GetTaskInfo
CFE_PSP_GetResetArea
CFE_SB_GetTotalMsgLength
CFE_ES_DeleteCDS
CFE_ES_ValidateHandle
CFE_ES_GetMemPoolStats
strncpy
