68K GAS   			page 1


   1               	
   2               	.file"cfe_esmempool.c"
   3               	.text
   4               	.Ltext0:
   5               	.cfi_sections.debug_frame
   6               	.globlCFE_ES_MemPoolDefSize
   7               	.data
   8               	.align4
   9               	.typeCFE_ES_MemPoolDefSize, @object
  10               	.sizeCFE_ES_MemPoolDefSize, 68
  11               	CFE_ES_MemPoolDefSize:
  12 0000 0001 3880 	.long80000
  13 0004 0000 8000 	.long32768
  14 0008 0000 4000 	.long16384
  15 000c 0000 2000 	.long8192
  16 0010 0000 1000 	.long4096
  17 0014 0000 0800 	.long2048
  18 0018 0000 0400 	.long1024
  19 001c 0000 0200 	.long512
  20 0020 0000 0100 	.long256
  21 0024 0000 00A0 	.long160
  22 0028 0000 0080 	.long128
  23 002c 0000 0060 	.long96
  24 0030 0000 0040 	.long64
  25 0034 0000 0030 	.long48
  26 0038 0000 0020 	.long32
  27 003c 0000 0010 	.long16
  28 0040 0000 0008 	.long8
  29               	.text
  30               	.align2
  31               	.globlCFE_ES_PoolCreateNoSem
  32               	.typeCFE_ES_PoolCreateNoSem, @function
  33               	CFE_ES_PoolCreateNoSem:
  34               	.LFB59:
  35               	.file 1 "/home/simulink/cFS_FreeRTOS_seL4/cfe/fsw/cfe-core/src/es/cfe_esmempool.c"
   1:/home/simulink/cFS_FreeRTOS_seL4/cfe/fsw/cfe-core/src/es/cfe_esmempool.c **** /*
   2:/home/simulink/cFS_FreeRTOS_seL4/cfe/fsw/cfe-core/src/es/cfe_esmempool.c **** **  File:
   3:/home/simulink/cFS_FreeRTOS_seL4/cfe/fsw/cfe-core/src/es/cfe_esmempool.c **** **  cfe_esmempool.c
   4:/home/simulink/cFS_FreeRTOS_seL4/cfe/fsw/cfe-core/src/es/cfe_esmempool.c **** **
   5:/home/simulink/cFS_FreeRTOS_seL4/cfe/fsw/cfe-core/src/es/cfe_esmempool.c **** **
   6:/home/simulink/cFS_FreeRTOS_seL4/cfe/fsw/cfe-core/src/es/cfe_esmempool.c **** **
   7:/home/simulink/cFS_FreeRTOS_seL4/cfe/fsw/cfe-core/src/es/cfe_esmempool.c **** **      Copyright (c) 2004-2012, United States government as represented by the
   8:/home/simulink/cFS_FreeRTOS_seL4/cfe/fsw/cfe-core/src/es/cfe_esmempool.c **** **      administrator of the National Aeronautics Space Administration.
   9:/home/simulink/cFS_FreeRTOS_seL4/cfe/fsw/cfe-core/src/es/cfe_esmempool.c **** **      All rights reserved. This software(cFE) was created at NASA's Goddard
  10:/home/simulink/cFS_FreeRTOS_seL4/cfe/fsw/cfe-core/src/es/cfe_esmempool.c **** **      Space Flight Center pursuant to government contracts.
  11:/home/simulink/cFS_FreeRTOS_seL4/cfe/fsw/cfe-core/src/es/cfe_esmempool.c **** **
  12:/home/simulink/cFS_FreeRTOS_seL4/cfe/fsw/cfe-core/src/es/cfe_esmempool.c **** **      This is governed by the NASA Open Source Agreement and may be used,
  13:/home/simulink/cFS_FreeRTOS_seL4/cfe/fsw/cfe-core/src/es/cfe_esmempool.c **** **      distributed and modified only pursuant to the terms of that agreement.
  14:/home/simulink/cFS_FreeRTOS_seL4/cfe/fsw/cfe-core/src/es/cfe_esmempool.c **** **
  15:/home/simulink/cFS_FreeRTOS_seL4/cfe/fsw/cfe-core/src/es/cfe_esmempool.c **** **  Purpose:
  16:/home/simulink/cFS_FreeRTOS_seL4/cfe/fsw/cfe-core/src/es/cfe_esmempool.c **** **  Set of services for management of discrete sized memory pools.
  17:/home/simulink/cFS_FreeRTOS_seL4/cfe/fsw/cfe-core/src/es/cfe_esmempool.c **** **
  18:/home/simulink/cFS_FreeRTOS_seL4/cfe/fsw/cfe-core/src/es/cfe_esmempool.c **** **  References:
  19:/home/simulink/cFS_FreeRTOS_seL4/cfe/fsw/cfe-core/src/es/cfe_esmempool.c **** **     Flight Software Branch C Coding Standard Version 1.0a
  20:/home/simulink/cFS_FreeRTOS_seL4/cfe/fsw/cfe-core/src/es/cfe_esmempool.c **** **     cFE Flight Software Application Developers Guide
  21:/home/simulink/cFS_FreeRTOS_seL4/cfe/fsw/cfe-core/src/es/cfe_esmempool.c **** **
  22:/home/simulink/cFS_FreeRTOS_seL4/cfe/fsw/cfe-core/src/es/cfe_esmempool.c **** **  $Log: cfe_esmempool.c  $
68K GAS   			page 2


  23:/home/simulink/cFS_FreeRTOS_seL4/cfe/fsw/cfe-core/src/es/cfe_esmempool.c **** **  Revision 1.12 2014/07/07 10:57:32GMT-05:00 acudmore 
  24:/home/simulink/cFS_FreeRTOS_seL4/cfe/fsw/cfe-core/src/es/cfe_esmempool.c **** **  Modified CFE_ES_ValidateHandle to conditionally compile alignment check.
  25:/home/simulink/cFS_FreeRTOS_seL4/cfe/fsw/cfe-core/src/es/cfe_esmempool.c **** **  Revision 1.11 2012/01/13 11:50:17GMT-05:00 acudmore 
  26:/home/simulink/cFS_FreeRTOS_seL4/cfe/fsw/cfe-core/src/es/cfe_esmempool.c **** **  Changed license text to reflect open source
  27:/home/simulink/cFS_FreeRTOS_seL4/cfe/fsw/cfe-core/src/es/cfe_esmempool.c **** **  Revision 1.10 2011/03/18 11:41:54EDT lwalling 
  28:/home/simulink/cFS_FreeRTOS_seL4/cfe/fsw/cfe-core/src/es/cfe_esmempool.c **** **  Add memory range test to pool handle verification function
  29:/home/simulink/cFS_FreeRTOS_seL4/cfe/fsw/cfe-core/src/es/cfe_esmempool.c **** **  Revision 1.9 2010/11/23 13:22:43EST jmdagost 
  30:/home/simulink/cFS_FreeRTOS_seL4/cfe/fsw/cfe-core/src/es/cfe_esmempool.c **** **  Corrected getPoolBuf and putPoolBuf error messages.
  31:/home/simulink/cFS_FreeRTOS_seL4/cfe/fsw/cfe-core/src/es/cfe_esmempool.c **** **  Revision 1.8 2010/11/04 14:17:32EDT acudmore 
  32:/home/simulink/cFS_FreeRTOS_seL4/cfe/fsw/cfe-core/src/es/cfe_esmempool.c **** **  Added option to disable memory pool alignment check.
  33:/home/simulink/cFS_FreeRTOS_seL4/cfe/fsw/cfe-core/src/es/cfe_esmempool.c **** **  Revision 1.7 2010/10/25 15:02:12EDT jmdagost 
  34:/home/simulink/cFS_FreeRTOS_seL4/cfe/fsw/cfe-core/src/es/cfe_esmempool.c **** **  Corrected bad apostrophe in prologue.
  35:/home/simulink/cFS_FreeRTOS_seL4/cfe/fsw/cfe-core/src/es/cfe_esmempool.c **** **  Revision 1.6 2010/10/20 12:34:54EDT jmdagost 
  36:/home/simulink/cFS_FreeRTOS_seL4/cfe/fsw/cfe-core/src/es/cfe_esmempool.c **** **  Major revision to make semaphore use for memory pool creation optional.  Also added NULL pointe
  37:/home/simulink/cFS_FreeRTOS_seL4/cfe/fsw/cfe-core/src/es/cfe_esmempool.c **** **  Revision 1.5 2010/10/04 15:37:57EDT jmdagost 
  38:/home/simulink/cFS_FreeRTOS_seL4/cfe/fsw/cfe-core/src/es/cfe_esmempool.c **** **  Cleaned up copyright symbol.
  39:/home/simulink/cFS_FreeRTOS_seL4/cfe/fsw/cfe-core/src/es/cfe_esmempool.c **** **  Revision 1.4 2010/09/21 16:26:21EDT jmdagost 
  40:/home/simulink/cFS_FreeRTOS_seL4/cfe/fsw/cfe-core/src/es/cfe_esmempool.c **** **  Moved calls to CFE_ES_GetAppID() to inside error condition blocks.
  41:/home/simulink/cFS_FreeRTOS_seL4/cfe/fsw/cfe-core/src/es/cfe_esmempool.c **** **  Revision 1.3 2010/09/21 16:09:20EDT jmdagost 
  42:/home/simulink/cFS_FreeRTOS_seL4/cfe/fsw/cfe-core/src/es/cfe_esmempool.c **** **  Added cfe_es_task.h.
  43:/home/simulink/cFS_FreeRTOS_seL4/cfe/fsw/cfe-core/src/es/cfe_esmempool.c **** **  Revision 1.2 2009/07/29 15:55:42EDT aschoeni 
  44:/home/simulink/cFS_FreeRTOS_seL4/cfe/fsw/cfe-core/src/es/cfe_esmempool.c **** **  Added GetPoolBufInfo function to return size or invalidity of a buffer in a pool
  45:/home/simulink/cFS_FreeRTOS_seL4/cfe/fsw/cfe-core/src/es/cfe_esmempool.c **** **  Revision 1.1 2008/04/17 08:05:11EDT ruperera 
  46:/home/simulink/cFS_FreeRTOS_seL4/cfe/fsw/cfe-core/src/es/cfe_esmempool.c **** **  Initial revision
  47:/home/simulink/cFS_FreeRTOS_seL4/cfe/fsw/cfe-core/src/es/cfe_esmempool.c **** **  Member added to project c:/MKSDATA/MKS-REPOSITORY/MKS-CFE-PROJECT/fsw/cfe-core/src/es/project.p
  48:/home/simulink/cFS_FreeRTOS_seL4/cfe/fsw/cfe-core/src/es/cfe_esmempool.c **** **  Revision 1.30 2007/08/07 12:52:44EDT David Kobe (dlkobe) 
  49:/home/simulink/cFS_FreeRTOS_seL4/cfe/fsw/cfe-core/src/es/cfe_esmempool.c **** **  Modified CFE_ES_GetPoolBuf API's first parameter to be of type uint32**
  50:/home/simulink/cFS_FreeRTOS_seL4/cfe/fsw/cfe-core/src/es/cfe_esmempool.c **** **  Revision 1.29 2007/05/04 20:07:53EDT dlkobe 
  51:/home/simulink/cFS_FreeRTOS_seL4/cfe/fsw/cfe-core/src/es/cfe_esmempool.c **** **  Added command to telemeter memory pool statistics
  52:/home/simulink/cFS_FreeRTOS_seL4/cfe/fsw/cfe-core/src/es/cfe_esmempool.c **** **  Revision 1.28 2007/04/04 16:27:58EDT dlkobe 
  53:/home/simulink/cFS_FreeRTOS_seL4/cfe/fsw/cfe-core/src/es/cfe_esmempool.c **** **  Syntax errors
  54:/home/simulink/cFS_FreeRTOS_seL4/cfe/fsw/cfe-core/src/es/cfe_esmempool.c **** **  Revision 1.26 2007/04/04 16:06:37EDT dlkobe 
  55:/home/simulink/cFS_FreeRTOS_seL4/cfe/fsw/cfe-core/src/es/cfe_esmempool.c **** **  Made numerous changes to correct issues identified during ES code walkthrough
  56:/home/simulink/cFS_FreeRTOS_seL4/cfe/fsw/cfe-core/src/es/cfe_esmempool.c **** **  Revision 1.25 2006/11/13 10:55:33GMT-05:00 njyanchik 
  57:/home/simulink/cFS_FreeRTOS_seL4/cfe/fsw/cfe-core/src/es/cfe_esmempool.c **** **  This CP fixes the errors that were found in the LDRA testing. The list of specific errors fixed
  58:/home/simulink/cFS_FreeRTOS_seL4/cfe/fsw/cfe-core/src/es/cfe_esmempool.c **** **  in the solution to this DCR
  59:/home/simulink/cFS_FreeRTOS_seL4/cfe/fsw/cfe-core/src/es/cfe_esmempool.c **** **  Revision 1.24 2006/11/07 11:29:00GMT-05:00 dlkobe 
  60:/home/simulink/cFS_FreeRTOS_seL4/cfe/fsw/cfe-core/src/es/cfe_esmempool.c **** **  Changed CFE_ES_MIN_BLOCK_SIZE to CFE_ES_MEM_BLOCK_SIZE_01
  61:/home/simulink/cFS_FreeRTOS_seL4/cfe/fsw/cfe-core/src/es/cfe_esmempool.c **** **  Revision 1.21 2006/10/31 13:44:10GMT-05:00 dlkobe 
  62:/home/simulink/cFS_FreeRTOS_seL4/cfe/fsw/cfe-core/src/es/cfe_esmempool.c **** **  Replaced memory pool block sizes with symbols that are defined in the cfe_platform_cfg.h file
  63:/home/simulink/cFS_FreeRTOS_seL4/cfe/fsw/cfe-core/src/es/cfe_esmempool.c **** **  Revision 1.20 2006/10/31 10:35:31GMT-05:00 dlkobe 
  64:/home/simulink/cFS_FreeRTOS_seL4/cfe/fsw/cfe-core/src/es/cfe_esmempool.c **** **  Modified parameters to CFE_ES_GetBlockSize to be of correct uint32 type
  65:/home/simulink/cFS_FreeRTOS_seL4/cfe/fsw/cfe-core/src/es/cfe_esmempool.c **** **  Revision 1.19 2006/10/31 10:28:54GMT-05:00 dlkobe 
  66:/home/simulink/cFS_FreeRTOS_seL4/cfe/fsw/cfe-core/src/es/cfe_esmempool.c **** **  Added "Allocated" flag to memory block descriptor to prevent multiple deallocations
  67:/home/simulink/cFS_FreeRTOS_seL4/cfe/fsw/cfe-core/src/es/cfe_esmempool.c **** **
  68:/home/simulink/cFS_FreeRTOS_seL4/cfe/fsw/cfe-core/src/es/cfe_esmempool.c **** */
  69:/home/simulink/cFS_FreeRTOS_seL4/cfe/fsw/cfe-core/src/es/cfe_esmempool.c **** 
  70:/home/simulink/cFS_FreeRTOS_seL4/cfe/fsw/cfe-core/src/es/cfe_esmempool.c **** /*
  71:/home/simulink/cFS_FreeRTOS_seL4/cfe/fsw/cfe-core/src/es/cfe_esmempool.c **** ** Includes
  72:/home/simulink/cFS_FreeRTOS_seL4/cfe/fsw/cfe-core/src/es/cfe_esmempool.c **** */
  73:/home/simulink/cFS_FreeRTOS_seL4/cfe/fsw/cfe-core/src/es/cfe_esmempool.c **** #include "private/cfe_private.h"
  74:/home/simulink/cFS_FreeRTOS_seL4/cfe/fsw/cfe-core/src/es/cfe_esmempool.c **** #include "cfe_esmempool.h"
  75:/home/simulink/cFS_FreeRTOS_seL4/cfe/fsw/cfe-core/src/es/cfe_esmempool.c **** #include "cfe_es.h"
  76:/home/simulink/cFS_FreeRTOS_seL4/cfe/fsw/cfe-core/src/es/cfe_esmempool.c **** #include "cfe_es_task.h"
  77:/home/simulink/cFS_FreeRTOS_seL4/cfe/fsw/cfe-core/src/es/cfe_esmempool.c **** #include <stdio.h>
  78:/home/simulink/cFS_FreeRTOS_seL4/cfe/fsw/cfe-core/src/es/cfe_esmempool.c **** 
  79:/home/simulink/cFS_FreeRTOS_seL4/cfe/fsw/cfe-core/src/es/cfe_esmempool.c **** /*****************************************************************************/
68K GAS   			page 3


  80:/home/simulink/cFS_FreeRTOS_seL4/cfe/fsw/cfe-core/src/es/cfe_esmempool.c **** /*
  81:/home/simulink/cFS_FreeRTOS_seL4/cfe/fsw/cfe-core/src/es/cfe_esmempool.c **** ** Local Macro Definitions
  82:/home/simulink/cFS_FreeRTOS_seL4/cfe/fsw/cfe-core/src/es/cfe_esmempool.c **** */
  83:/home/simulink/cFS_FreeRTOS_seL4/cfe/fsw/cfe-core/src/es/cfe_esmempool.c **** #define CFE_ES_CHECK_PATTERN           0x5a5a
  84:/home/simulink/cFS_FreeRTOS_seL4/cfe/fsw/cfe-core/src/es/cfe_esmempool.c **** #define CFE_ES_MEMORY_ALLOCATED        0xaaaa
  85:/home/simulink/cFS_FreeRTOS_seL4/cfe/fsw/cfe-core/src/es/cfe_esmempool.c **** #define CFE_ES_MEMORY_DEALLOCATED      0xdddd
  86:/home/simulink/cFS_FreeRTOS_seL4/cfe/fsw/cfe-core/src/es/cfe_esmempool.c **** /*****************************************************************************/
  87:/home/simulink/cFS_FreeRTOS_seL4/cfe/fsw/cfe-core/src/es/cfe_esmempool.c **** /*
  88:/home/simulink/cFS_FreeRTOS_seL4/cfe/fsw/cfe-core/src/es/cfe_esmempool.c **** ** Type Definitions
  89:/home/simulink/cFS_FreeRTOS_seL4/cfe/fsw/cfe-core/src/es/cfe_esmempool.c **** */
  90:/home/simulink/cFS_FreeRTOS_seL4/cfe/fsw/cfe-core/src/es/cfe_esmempool.c **** 
  91:/home/simulink/cFS_FreeRTOS_seL4/cfe/fsw/cfe-core/src/es/cfe_esmempool.c **** 
  92:/home/simulink/cFS_FreeRTOS_seL4/cfe/fsw/cfe-core/src/es/cfe_esmempool.c **** uint32 CFE_ES_MemPoolDefSize[CFE_ES_MAX_MEMPOOL_BLOCK_SIZES] =
  93:/home/simulink/cFS_FreeRTOS_seL4/cfe/fsw/cfe-core/src/es/cfe_esmempool.c **** {
  94:/home/simulink/cFS_FreeRTOS_seL4/cfe/fsw/cfe-core/src/es/cfe_esmempool.c ****     CFE_ES_MAX_BLOCK_SIZE,
  95:/home/simulink/cFS_FreeRTOS_seL4/cfe/fsw/cfe-core/src/es/cfe_esmempool.c ****     CFE_ES_MEM_BLOCK_SIZE_16,
  96:/home/simulink/cFS_FreeRTOS_seL4/cfe/fsw/cfe-core/src/es/cfe_esmempool.c ****     CFE_ES_MEM_BLOCK_SIZE_15,
  97:/home/simulink/cFS_FreeRTOS_seL4/cfe/fsw/cfe-core/src/es/cfe_esmempool.c ****     CFE_ES_MEM_BLOCK_SIZE_14,
  98:/home/simulink/cFS_FreeRTOS_seL4/cfe/fsw/cfe-core/src/es/cfe_esmempool.c ****     CFE_ES_MEM_BLOCK_SIZE_13,
  99:/home/simulink/cFS_FreeRTOS_seL4/cfe/fsw/cfe-core/src/es/cfe_esmempool.c ****     CFE_ES_MEM_BLOCK_SIZE_12,
 100:/home/simulink/cFS_FreeRTOS_seL4/cfe/fsw/cfe-core/src/es/cfe_esmempool.c ****     CFE_ES_MEM_BLOCK_SIZE_11,
 101:/home/simulink/cFS_FreeRTOS_seL4/cfe/fsw/cfe-core/src/es/cfe_esmempool.c ****     CFE_ES_MEM_BLOCK_SIZE_10,
 102:/home/simulink/cFS_FreeRTOS_seL4/cfe/fsw/cfe-core/src/es/cfe_esmempool.c ****     CFE_ES_MEM_BLOCK_SIZE_09,
 103:/home/simulink/cFS_FreeRTOS_seL4/cfe/fsw/cfe-core/src/es/cfe_esmempool.c ****     CFE_ES_MEM_BLOCK_SIZE_08,
 104:/home/simulink/cFS_FreeRTOS_seL4/cfe/fsw/cfe-core/src/es/cfe_esmempool.c ****     CFE_ES_MEM_BLOCK_SIZE_07,
 105:/home/simulink/cFS_FreeRTOS_seL4/cfe/fsw/cfe-core/src/es/cfe_esmempool.c ****     CFE_ES_MEM_BLOCK_SIZE_06,
 106:/home/simulink/cFS_FreeRTOS_seL4/cfe/fsw/cfe-core/src/es/cfe_esmempool.c ****     CFE_ES_MEM_BLOCK_SIZE_05,
 107:/home/simulink/cFS_FreeRTOS_seL4/cfe/fsw/cfe-core/src/es/cfe_esmempool.c ****     CFE_ES_MEM_BLOCK_SIZE_04,
 108:/home/simulink/cFS_FreeRTOS_seL4/cfe/fsw/cfe-core/src/es/cfe_esmempool.c ****     CFE_ES_MEM_BLOCK_SIZE_03,
 109:/home/simulink/cFS_FreeRTOS_seL4/cfe/fsw/cfe-core/src/es/cfe_esmempool.c ****     CFE_ES_MEM_BLOCK_SIZE_02,
 110:/home/simulink/cFS_FreeRTOS_seL4/cfe/fsw/cfe-core/src/es/cfe_esmempool.c ****     CFE_ES_MEM_BLOCK_SIZE_01
 111:/home/simulink/cFS_FreeRTOS_seL4/cfe/fsw/cfe-core/src/es/cfe_esmempool.c **** };
 112:/home/simulink/cFS_FreeRTOS_seL4/cfe/fsw/cfe-core/src/es/cfe_esmempool.c **** 
 113:/home/simulink/cFS_FreeRTOS_seL4/cfe/fsw/cfe-core/src/es/cfe_esmempool.c **** /*****************************************************************************/
 114:/home/simulink/cFS_FreeRTOS_seL4/cfe/fsw/cfe-core/src/es/cfe_esmempool.c **** /*
 115:/home/simulink/cFS_FreeRTOS_seL4/cfe/fsw/cfe-core/src/es/cfe_esmempool.c **** ** Local Function Prototypes
 116:/home/simulink/cFS_FreeRTOS_seL4/cfe/fsw/cfe-core/src/es/cfe_esmempool.c **** */
 117:/home/simulink/cFS_FreeRTOS_seL4/cfe/fsw/cfe-core/src/es/cfe_esmempool.c **** uint32 CFE_ES_GetBlockSize(Pool_t  *PoolPtr, uint32 Size);
 118:/home/simulink/cFS_FreeRTOS_seL4/cfe/fsw/cfe-core/src/es/cfe_esmempool.c **** 
 119:/home/simulink/cFS_FreeRTOS_seL4/cfe/fsw/cfe-core/src/es/cfe_esmempool.c **** /*****************************************************************************/
 120:/home/simulink/cFS_FreeRTOS_seL4/cfe/fsw/cfe-core/src/es/cfe_esmempool.c **** /*
 121:/home/simulink/cFS_FreeRTOS_seL4/cfe/fsw/cfe-core/src/es/cfe_esmempool.c **** ** Functions
 122:/home/simulink/cFS_FreeRTOS_seL4/cfe/fsw/cfe-core/src/es/cfe_esmempool.c **** */
 123:/home/simulink/cFS_FreeRTOS_seL4/cfe/fsw/cfe-core/src/es/cfe_esmempool.c **** 
 124:/home/simulink/cFS_FreeRTOS_seL4/cfe/fsw/cfe-core/src/es/cfe_esmempool.c **** /*
 125:/home/simulink/cFS_FreeRTOS_seL4/cfe/fsw/cfe-core/src/es/cfe_esmempool.c **** ** CFE_ES_PoolCreateNoSem will initialize a pre-allocated memory pool without using a mutex.
 126:/home/simulink/cFS_FreeRTOS_seL4/cfe/fsw/cfe-core/src/es/cfe_esmempool.c **** */
 127:/home/simulink/cFS_FreeRTOS_seL4/cfe/fsw/cfe-core/src/es/cfe_esmempool.c **** int32 CFE_ES_PoolCreateNoSem(CFE_ES_MemHandle_t  *HandlePtr,
 128:/home/simulink/cFS_FreeRTOS_seL4/cfe/fsw/cfe-core/src/es/cfe_esmempool.c ****                              uint8               *MemPtr,
 129:/home/simulink/cFS_FreeRTOS_seL4/cfe/fsw/cfe-core/src/es/cfe_esmempool.c ****                              uint32               Size )
 130:/home/simulink/cFS_FreeRTOS_seL4/cfe/fsw/cfe-core/src/es/cfe_esmempool.c **** {
  36               	.loc 1 130 0
  37               	.cfi_startproc
 131:/home/simulink/cFS_FreeRTOS_seL4/cfe/fsw/cfe-core/src/es/cfe_esmempool.c ****     return CFE_ES_PoolCreateEx(HandlePtr, MemPtr, Size, CFE_ES_MAX_MEMPOOL_BLOCK_SIZES, 
  38               	.loc 1 131 0
  39 0000 42A7      	clr.l -(%sp)
  40               	.cfi_def_cfa_offset 8
68K GAS   			page 4


  41 0002 4879 0000 	pea CFE_ES_MemPoolDefSize
  41      0000 
  42               	.cfi_def_cfa_offset 12
  43 0008 4878 0011 	pea 17.w
  44               	.cfi_def_cfa_offset 16
  45 000c 2F2F 0018 	move.l 24(%sp),-(%sp)
  46               	.cfi_def_cfa_offset 20
  47 0010 2F2F 0018 	move.l 24(%sp),-(%sp)
  48               	.cfi_def_cfa_offset 24
  49 0014 2F2F 0018 	move.l 24(%sp),-(%sp)
  50               	.cfi_def_cfa_offset 28
  51 0018 4EB9 0000 	jsr CFE_ES_PoolCreateEx
  51      0000 
  52 001e 4FEF 0018 	lea (24,%sp),%sp
  53               	.cfi_def_cfa_offset 4
 132:/home/simulink/cFS_FreeRTOS_seL4/cfe/fsw/cfe-core/src/es/cfe_esmempool.c ****                                &CFE_ES_MemPoolDefSize[0],CFE_ES_NO_MUTEX);
 133:/home/simulink/cFS_FreeRTOS_seL4/cfe/fsw/cfe-core/src/es/cfe_esmempool.c **** }
  54               	.loc 1 133 0
  55 0022 4E75      	rts
  56               	.cfi_endproc
  57               	.LFE59:
  58               	.sizeCFE_ES_PoolCreateNoSem, .-CFE_ES_PoolCreateNoSem
  59               	.align2
  60               	.globlCFE_ES_PoolCreate
  61               	.typeCFE_ES_PoolCreate, @function
  62               	CFE_ES_PoolCreate:
  63               	.LFB60:
 134:/home/simulink/cFS_FreeRTOS_seL4/cfe/fsw/cfe-core/src/es/cfe_esmempool.c **** 
 135:/home/simulink/cFS_FreeRTOS_seL4/cfe/fsw/cfe-core/src/es/cfe_esmempool.c **** /*
 136:/home/simulink/cFS_FreeRTOS_seL4/cfe/fsw/cfe-core/src/es/cfe_esmempool.c **** ** CFE_ES_PoolCreate will initialize a pre-allocated memory pool while using a mutex.
 137:/home/simulink/cFS_FreeRTOS_seL4/cfe/fsw/cfe-core/src/es/cfe_esmempool.c **** */
 138:/home/simulink/cFS_FreeRTOS_seL4/cfe/fsw/cfe-core/src/es/cfe_esmempool.c **** int32 CFE_ES_PoolCreate(CFE_ES_MemHandle_t  *HandlePtr,
 139:/home/simulink/cFS_FreeRTOS_seL4/cfe/fsw/cfe-core/src/es/cfe_esmempool.c ****                         uint8               *MemPtr,
 140:/home/simulink/cFS_FreeRTOS_seL4/cfe/fsw/cfe-core/src/es/cfe_esmempool.c ****                         uint32               Size )
 141:/home/simulink/cFS_FreeRTOS_seL4/cfe/fsw/cfe-core/src/es/cfe_esmempool.c **** {
  64               	.loc 1 141 0
  65               	.cfi_startproc
 142:/home/simulink/cFS_FreeRTOS_seL4/cfe/fsw/cfe-core/src/es/cfe_esmempool.c ****     return CFE_ES_PoolCreateEx(HandlePtr, MemPtr, Size, CFE_ES_MAX_MEMPOOL_BLOCK_SIZES, 
  66               	.loc 1 142 0
  67 0024 4878 0001 	pea 1.w
  68               	.cfi_def_cfa_offset 8
  69 0028 4879 0000 	pea CFE_ES_MemPoolDefSize
  69      0000 
  70               	.cfi_def_cfa_offset 12
  71 002e 4878 0011 	pea 17.w
  72               	.cfi_def_cfa_offset 16
  73 0032 2F2F 0018 	move.l 24(%sp),-(%sp)
  74               	.cfi_def_cfa_offset 20
  75 0036 2F2F 0018 	move.l 24(%sp),-(%sp)
  76               	.cfi_def_cfa_offset 24
  77 003a 2F2F 0018 	move.l 24(%sp),-(%sp)
  78               	.cfi_def_cfa_offset 28
  79 003e 4EB9 0000 	jsr CFE_ES_PoolCreateEx
  79      0000 
  80 0044 4FEF 0018 	lea (24,%sp),%sp
  81               	.cfi_def_cfa_offset 4
 143:/home/simulink/cFS_FreeRTOS_seL4/cfe/fsw/cfe-core/src/es/cfe_esmempool.c ****                                &CFE_ES_MemPoolDefSize[0],CFE_ES_USE_MUTEX);
68K GAS   			page 5


 144:/home/simulink/cFS_FreeRTOS_seL4/cfe/fsw/cfe-core/src/es/cfe_esmempool.c **** }
  82               	.loc 1 144 0
  83 0048 4E75      	rts
  84               	.cfi_endproc
  85               	.LFE60:
  86               	.sizeCFE_ES_PoolCreate, .-CFE_ES_PoolCreate
  87               	.section.rodata
  88               	.LC0:
  89 0000 4346 455F 	.string"CFE_ES:poolCreate Pool Address(0x%08lX) is not 32-bit aligned.\n"
  89      4553 3A70 
  89      6F6F 6C43 
  89      7265 6174 
  89      6520 506F 
  90               	.LC1:
  91 0040 4346 455F 	.string"CFE_ES:poolCreate Num Block Sizes (%d) greater than max (%d)\n"
  91      4553 3A70 
  91      6F6F 6C43 
  91      7265 6174 
  91      6520 4E75 
  92               	.LC2:
  93 007e 4346 455F 	.string"CFE_ES:poolCreate Invalid Mutex Usage Option (%d), must be %d or %d\n"
  93      4553 3A70 
  93      6F6F 6C43 
  93      7265 6174 
  93      6520 496E 
  94               	.LC3:
  95 00c3 2530 386C 	.string"%08lX"
  95      5800 
  96               	.LC4:
  97 00c9 4346 455F 	.string"CFE_ES:poolCreate Pool size(%d) too small for management structure, need >=(%d)\n"
  97      4553 3A70 
  97      6F6F 6C43 
  97      7265 6174 
  97      6520 506F 
  98               	.text
  99               	.align2
 100               	.globlCFE_ES_PoolCreateEx
 101               	.typeCFE_ES_PoolCreateEx, @function
 102               	CFE_ES_PoolCreateEx:
 103               	.LFB61:
 145:/home/simulink/cFS_FreeRTOS_seL4/cfe/fsw/cfe-core/src/es/cfe_esmempool.c **** 
 146:/home/simulink/cFS_FreeRTOS_seL4/cfe/fsw/cfe-core/src/es/cfe_esmempool.c **** 
 147:/home/simulink/cFS_FreeRTOS_seL4/cfe/fsw/cfe-core/src/es/cfe_esmempool.c **** int32 CFE_ES_PoolCreateEx(CFE_ES_MemHandle_t  *HandlePtr,
 148:/home/simulink/cFS_FreeRTOS_seL4/cfe/fsw/cfe-core/src/es/cfe_esmempool.c ****                           uint8               *MemPtr,
 149:/home/simulink/cFS_FreeRTOS_seL4/cfe/fsw/cfe-core/src/es/cfe_esmempool.c ****                           uint32               Size,
 150:/home/simulink/cFS_FreeRTOS_seL4/cfe/fsw/cfe-core/src/es/cfe_esmempool.c ****                           uint32               NumBlockSizes,
 151:/home/simulink/cFS_FreeRTOS_seL4/cfe/fsw/cfe-core/src/es/cfe_esmempool.c ****                           uint32              *BlockSizes,
 152:/home/simulink/cFS_FreeRTOS_seL4/cfe/fsw/cfe-core/src/es/cfe_esmempool.c ****                           uint16               UseMutex )
 153:/home/simulink/cFS_FreeRTOS_seL4/cfe/fsw/cfe-core/src/es/cfe_esmempool.c **** {
 104               	.loc 1 153 0
 105               	.cfi_startproc
 106 004a 4FEF FFC8 	lea (-56,%sp),%sp
 107               	.cfi_def_cfa_offset 60
 108 004e 202F 0050 	move.l 80(%sp),%d0
 109 0052 3000      	move.w %d0,%d0
 110 0054 3E80      	move.w %d0,(%sp)
 154:/home/simulink/cFS_FreeRTOS_seL4/cfe/fsw/cfe-core/src/es/cfe_esmempool.c ****     char     MutexName[OS_MAX_API_NAME];
68K GAS   			page 6


 155:/home/simulink/cFS_FreeRTOS_seL4/cfe/fsw/cfe-core/src/es/cfe_esmempool.c ****     cpuaddr  MemAddr;
 156:/home/simulink/cFS_FreeRTOS_seL4/cfe/fsw/cfe-core/src/es/cfe_esmempool.c ****     uint32   i;
 157:/home/simulink/cFS_FreeRTOS_seL4/cfe/fsw/cfe-core/src/es/cfe_esmempool.c ****     uint32   j;
 158:/home/simulink/cFS_FreeRTOS_seL4/cfe/fsw/cfe-core/src/es/cfe_esmempool.c ****     uint32   k;
 159:/home/simulink/cFS_FreeRTOS_seL4/cfe/fsw/cfe-core/src/es/cfe_esmempool.c ****     uint32  *BlockSizeArrayPtr;
 160:/home/simulink/cFS_FreeRTOS_seL4/cfe/fsw/cfe-core/src/es/cfe_esmempool.c ****     uint32   BlockSizeArraySize;
 161:/home/simulink/cFS_FreeRTOS_seL4/cfe/fsw/cfe-core/src/es/cfe_esmempool.c ****     uint32   MinBlockSize;
 162:/home/simulink/cFS_FreeRTOS_seL4/cfe/fsw/cfe-core/src/es/cfe_esmempool.c **** 
 163:/home/simulink/cFS_FreeRTOS_seL4/cfe/fsw/cfe-core/src/es/cfe_esmempool.c ****    /*
 164:/home/simulink/cFS_FreeRTOS_seL4/cfe/fsw/cfe-core/src/es/cfe_esmempool.c ****    ** Local Variables
 165:/home/simulink/cFS_FreeRTOS_seL4/cfe/fsw/cfe-core/src/es/cfe_esmempool.c ****    */
 166:/home/simulink/cFS_FreeRTOS_seL4/cfe/fsw/cfe-core/src/es/cfe_esmempool.c ****    Pool_t *PoolPtr = (Pool_t *)MemPtr;
 111               	.loc 1 166 0
 112 0056 2F6F 0040 	move.l 64(%sp),28(%sp)
 112      001C 
 167:/home/simulink/cFS_FreeRTOS_seL4/cfe/fsw/cfe-core/src/es/cfe_esmempool.c ****    MemAddr         = (cpuaddr)MemPtr;
 113               	.loc 1 167 0
 114 005c 2F6F 0040 	move.l 64(%sp),24(%sp)
 114      0018 
 168:/home/simulink/cFS_FreeRTOS_seL4/cfe/fsw/cfe-core/src/es/cfe_esmempool.c ****    *HandlePtr      = MemAddr;
 115               	.loc 1 168 0
 116 0062 206F 003C 	move.l 60(%sp),%a0
 117 0066 20AF 0018 	move.l 24(%sp),(%a0)
 169:/home/simulink/cFS_FreeRTOS_seL4/cfe/fsw/cfe-core/src/es/cfe_esmempool.c **** 
 170:/home/simulink/cFS_FreeRTOS_seL4/cfe/fsw/cfe-core/src/es/cfe_esmempool.c ****    /* Force the size given to be 32 bit aligned */
 171:/home/simulink/cFS_FreeRTOS_seL4/cfe/fsw/cfe-core/src/es/cfe_esmempool.c ****    Size &= 0xFFFFFFFC;
 118               	.loc 1 171 0
 119 006a 70FC      	moveq #-4,%d0
 120 006c C1AF 0044 	and.l %d0,68(%sp)
 172:/home/simulink/cFS_FreeRTOS_seL4/cfe/fsw/cfe-core/src/es/cfe_esmempool.c **** 
 173:/home/simulink/cFS_FreeRTOS_seL4/cfe/fsw/cfe-core/src/es/cfe_esmempool.c **** #ifdef CFE_ES_MEMPOOL_ALIGNED
 174:/home/simulink/cFS_FreeRTOS_seL4/cfe/fsw/cfe-core/src/es/cfe_esmempool.c ****    /* Determine if the memory pool address is 32-bit aligned */
 175:/home/simulink/cFS_FreeRTOS_seL4/cfe/fsw/cfe-core/src/es/cfe_esmempool.c ****    if ((MemAddr & 0x00000003) != 0)
 121               	.loc 1 175 0
 122 0070 7003      	moveq #3,%d0
 123 0072 C0AF 0018 	and.l 24(%sp),%d0
 124 0076 4A80      	tst.l %d0
 125 0078 671C      	jeq .L6
 176:/home/simulink/cFS_FreeRTOS_seL4/cfe/fsw/cfe-core/src/es/cfe_esmempool.c ****    {
 177:/home/simulink/cFS_FreeRTOS_seL4/cfe/fsw/cfe-core/src/es/cfe_esmempool.c ****       CFE_ES_WriteToSysLog("CFE_ES:poolCreate Pool Address(0x%08lX) is not 32-bit aligned.\n", (uns
 126               	.loc 1 177 0
 127 007a 2F2F 0018 	move.l 24(%sp),-(%sp)
 128               	.cfi_def_cfa_offset 64
 129 007e 4879 0000 	pea .LC0
 129      0000 
 130               	.cfi_def_cfa_offset 68
 131 0084 4EB9 0000 	jsr CFE_ES_WriteToSysLog
 131      0000 
 132 008a 508F      	addq.l #8,%sp
 133               	.cfi_def_cfa_offset 60
 178:/home/simulink/cFS_FreeRTOS_seL4/cfe/fsw/cfe-core/src/es/cfe_esmempool.c ****       return(CFE_ES_BAD_ARGUMENT);
 134               	.loc 1 178 0
 135 008c 203C C400 	move.l #-1006632950,%d0
 135      000A 
 136 0092 6000 032A 	jra .L27
 137               	.L6:
 179:/home/simulink/cFS_FreeRTOS_seL4/cfe/fsw/cfe-core/src/es/cfe_esmempool.c ****    }
68K GAS   			page 7


 180:/home/simulink/cFS_FreeRTOS_seL4/cfe/fsw/cfe-core/src/es/cfe_esmempool.c **** #endif
 181:/home/simulink/cFS_FreeRTOS_seL4/cfe/fsw/cfe-core/src/es/cfe_esmempool.c ****    
 182:/home/simulink/cFS_FreeRTOS_seL4/cfe/fsw/cfe-core/src/es/cfe_esmempool.c ****    /* If too many sizes are specified, return an error */
 183:/home/simulink/cFS_FreeRTOS_seL4/cfe/fsw/cfe-core/src/es/cfe_esmempool.c ****    if (NumBlockSizes > CFE_ES_MAX_MEMPOOL_BLOCK_SIZES)
 138               	.loc 1 183 0
 139 0096 7211      	moveq #17,%d1
 140 0098 B2AF 0048 	cmp.l 72(%sp),%d1
 141 009c 6424      	jcc .L8
 184:/home/simulink/cFS_FreeRTOS_seL4/cfe/fsw/cfe-core/src/es/cfe_esmempool.c ****    {
 185:/home/simulink/cFS_FreeRTOS_seL4/cfe/fsw/cfe-core/src/es/cfe_esmempool.c ****       CFE_ES_WriteToSysLog("CFE_ES:poolCreate Num Block Sizes (%d) greater than max (%d)\n",
 142               	.loc 1 185 0
 143 009e 202F 0048 	move.l 72(%sp),%d0
 144 00a2 4878 0011 	pea 17.w
 145               	.cfi_def_cfa_offset 64
 146 00a6 2F00      	move.l %d0,-(%sp)
 147               	.cfi_def_cfa_offset 68
 148 00a8 4879 0000 	pea .LC1
 148      0000 
 149               	.cfi_def_cfa_offset 72
 150 00ae 4EB9 0000 	jsr CFE_ES_WriteToSysLog
 150      0000 
 151 00b4 4FEF 000C 	lea (12,%sp),%sp
 152               	.cfi_def_cfa_offset 60
 186:/home/simulink/cFS_FreeRTOS_seL4/cfe/fsw/cfe-core/src/es/cfe_esmempool.c ****                            (int)NumBlockSizes, CFE_ES_MAX_MEMPOOL_BLOCK_SIZES);
 187:/home/simulink/cFS_FreeRTOS_seL4/cfe/fsw/cfe-core/src/es/cfe_esmempool.c ****       return(CFE_ES_BAD_ARGUMENT);
 153               	.loc 1 187 0
 154 00b8 203C C400 	move.l #-1006632950,%d0
 154      000A 
 155 00be 6000 02FE 	jra .L27
 156               	.L8:
 188:/home/simulink/cFS_FreeRTOS_seL4/cfe/fsw/cfe-core/src/es/cfe_esmempool.c ****    }
 189:/home/simulink/cFS_FreeRTOS_seL4/cfe/fsw/cfe-core/src/es/cfe_esmempool.c **** 
 190:/home/simulink/cFS_FreeRTOS_seL4/cfe/fsw/cfe-core/src/es/cfe_esmempool.c ****    if ((UseMutex != CFE_ES_USE_MUTEX) && (UseMutex != CFE_ES_NO_MUTEX))
 157               	.loc 1 190 0
 158 00c2 4280      	clr.l %d0
 159 00c4 3017      	move.w (%sp),%d0
 160 00c6 7201      	moveq #1,%d1
 161 00c8 B280      	cmp.l %d0,%d1
 162 00ca 672A      	jeq .L9
 163               	.loc 1 190 0 is_stmt 0 discriminator 1
 164 00cc 4A57      	tst.w (%sp)
 165 00ce 6726      	jeq .L9
 191:/home/simulink/cFS_FreeRTOS_seL4/cfe/fsw/cfe-core/src/es/cfe_esmempool.c ****    {
 192:/home/simulink/cFS_FreeRTOS_seL4/cfe/fsw/cfe-core/src/es/cfe_esmempool.c ****       CFE_ES_WriteToSysLog("CFE_ES:poolCreate Invalid Mutex Usage Option (%d), must be %d or %d\n",
 166               	.loc 1 192 0 is_stmt 1
 167 00d0 4280      	clr.l %d0
 168 00d2 3017      	move.w (%sp),%d0
 169 00d4 4878 0001 	pea 1.w
 170               	.cfi_def_cfa_offset 64
 171 00d8 42A7      	clr.l -(%sp)
 172               	.cfi_def_cfa_offset 68
 173 00da 2F00      	move.l %d0,-(%sp)
 174               	.cfi_def_cfa_offset 72
 175 00dc 4879 0000 	pea .LC2
 175      0000 
 176               	.cfi_def_cfa_offset 76
 177 00e2 4EB9 0000 	jsr CFE_ES_WriteToSysLog
68K GAS   			page 8


 177      0000 
 178 00e8 4FEF 0010 	lea (16,%sp),%sp
 179               	.cfi_def_cfa_offset 60
 193:/home/simulink/cFS_FreeRTOS_seL4/cfe/fsw/cfe-core/src/es/cfe_esmempool.c ****                            UseMutex, CFE_ES_NO_MUTEX, CFE_ES_USE_MUTEX);
 194:/home/simulink/cFS_FreeRTOS_seL4/cfe/fsw/cfe-core/src/es/cfe_esmempool.c ****       return(CFE_ES_BAD_ARGUMENT);
 180               	.loc 1 194 0
 181 00ec 203C C400 	move.l #-1006632950,%d0
 181      000A 
 182 00f2 6000 02CA 	jra .L27
 183               	.L9:
 195:/home/simulink/cFS_FreeRTOS_seL4/cfe/fsw/cfe-core/src/es/cfe_esmempool.c ****    }
 196:/home/simulink/cFS_FreeRTOS_seL4/cfe/fsw/cfe-core/src/es/cfe_esmempool.c ****    
 197:/home/simulink/cFS_FreeRTOS_seL4/cfe/fsw/cfe-core/src/es/cfe_esmempool.c ****    if (UseMutex == CFE_ES_USE_MUTEX)
 184               	.loc 1 197 0
 185 00f6 4280      	clr.l %d0
 186 00f8 3017      	move.w (%sp),%d0
 187 00fa 7201      	moveq #1,%d1
 188 00fc B280      	cmp.l %d0,%d1
 189 00fe 6654      	jne .L10
 198:/home/simulink/cFS_FreeRTOS_seL4/cfe/fsw/cfe-core/src/es/cfe_esmempool.c ****    {
 199:/home/simulink/cFS_FreeRTOS_seL4/cfe/fsw/cfe-core/src/es/cfe_esmempool.c ****       /*
 200:/home/simulink/cFS_FreeRTOS_seL4/cfe/fsw/cfe-core/src/es/cfe_esmempool.c ****       ** Construct a name for the Mutex from the address
 201:/home/simulink/cFS_FreeRTOS_seL4/cfe/fsw/cfe-core/src/es/cfe_esmempool.c ****       ** This is needed only because OS_MutSemCreate requires
 202:/home/simulink/cFS_FreeRTOS_seL4/cfe/fsw/cfe-core/src/es/cfe_esmempool.c ****       ** a unique name for each semaphore created.
 203:/home/simulink/cFS_FreeRTOS_seL4/cfe/fsw/cfe-core/src/es/cfe_esmempool.c ****       */
 204:/home/simulink/cFS_FreeRTOS_seL4/cfe/fsw/cfe-core/src/es/cfe_esmempool.c ****       snprintf(MutexName, OS_MAX_API_NAME, "%08lX", (unsigned long)MemPtr);
 190               	.loc 1 204 0
 191 0100 202F 0040 	move.l 64(%sp),%d0
 192 0104 2F00      	move.l %d0,-(%sp)
 193               	.cfi_def_cfa_offset 64
 194 0106 4879 0000 	pea .LC3
 194      0000 
 195               	.cfi_def_cfa_offset 68
 196 010c 4878 0014 	pea 20.w
 197               	.cfi_def_cfa_offset 72
 198 0110 200F      	move.l %sp,%d0
 199 0112 0680 0000 	add.l #16,%d0
 199      0010 
 200 0118 2F00      	move.l %d0,-(%sp)
 201               	.cfi_def_cfa_offset 76
 202 011a 4EB9 0000 	jsr snprintf
 202      0000 
 203 0120 4FEF 0010 	lea (16,%sp),%sp
 204               	.cfi_def_cfa_offset 60
 205:/home/simulink/cFS_FreeRTOS_seL4/cfe/fsw/cfe-core/src/es/cfe_esmempool.c **** 
 206:/home/simulink/cFS_FreeRTOS_seL4/cfe/fsw/cfe-core/src/es/cfe_esmempool.c ****       /* create a semphore to protect this memory pool */
 207:/home/simulink/cFS_FreeRTOS_seL4/cfe/fsw/cfe-core/src/es/cfe_esmempool.c ****       OS_MutSemCreate(&(PoolPtr->MutexId), MutexName, 0);
 205               	.loc 1 207 0
 206 0124 202F 001C 	move.l 28(%sp),%d0
 207 0128 0680 0000 	add.l #24,%d0
 207      0018 
 208 012e 42A7      	clr.l -(%sp)
 209               	.cfi_def_cfa_offset 64
 210 0130 220F      	move.l %sp,%d1
 211 0132 5081      	addq.l #8,%d1
 212 0134 2F01      	move.l %d1,-(%sp)
 213               	.cfi_def_cfa_offset 68
68K GAS   			page 9


 214 0136 2F00      	move.l %d0,-(%sp)
 215               	.cfi_def_cfa_offset 72
 216 0138 4EB9 0000 	jsr OS_MutSemCreate
 216      0000 
 217 013e 4FEF 000C 	lea (12,%sp),%sp
 218               	.cfi_def_cfa_offset 60
 208:/home/simulink/cFS_FreeRTOS_seL4/cfe/fsw/cfe-core/src/es/cfe_esmempool.c **** 
 209:/home/simulink/cFS_FreeRTOS_seL4/cfe/fsw/cfe-core/src/es/cfe_esmempool.c ****       /* Take the semaphore to ensure the mem pool is not being used during its creation */
 210:/home/simulink/cFS_FreeRTOS_seL4/cfe/fsw/cfe-core/src/es/cfe_esmempool.c ****       OS_MutSemTake(PoolPtr->MutexId);
 219               	.loc 1 210 0
 220 0142 206F 001C 	move.l 28(%sp),%a0
 221 0146 2028 0018 	move.l 24(%a0),%d0
 222 014a 2F00      	move.l %d0,-(%sp)
 223               	.cfi_def_cfa_offset 64
 224 014c 4EB9 0000 	jsr OS_MutSemTake
 224      0000 
 225 0152 588F      	addq.l #4,%sp
 226               	.cfi_def_cfa_offset 60
 227               	.L10:
 211:/home/simulink/cFS_FreeRTOS_seL4/cfe/fsw/cfe-core/src/es/cfe_esmempool.c ****    }
 212:/home/simulink/cFS_FreeRTOS_seL4/cfe/fsw/cfe-core/src/es/cfe_esmempool.c ****    
 213:/home/simulink/cFS_FreeRTOS_seL4/cfe/fsw/cfe-core/src/es/cfe_esmempool.c ****    PoolPtr->Start        = (cpuaddr *)*HandlePtr;
 228               	.loc 1 213 0
 229 0154 206F 003C 	move.l 60(%sp),%a0
 230 0158 2010      	move.l (%a0),%d0
 231 015a 206F 001C 	move.l 28(%sp),%a0
 232 015e 2080      	move.l %d0,(%a0)
 214:/home/simulink/cFS_FreeRTOS_seL4/cfe/fsw/cfe-core/src/es/cfe_esmempool.c ****    PoolPtr->End          = MemAddr + Size;
 233               	.loc 1 214 0
 234 0160 202F 0018 	move.l 24(%sp),%d0
 235 0164 D0AF 0044 	add.l 68(%sp),%d0
 236 0168 206F 001C 	move.l 28(%sp),%a0
 237 016c 2140 0008 	move.l %d0,8(%a0)
 215:/home/simulink/cFS_FreeRTOS_seL4/cfe/fsw/cfe-core/src/es/cfe_esmempool.c ****    PoolPtr->Size         = Size;
 238               	.loc 1 215 0
 239 0170 206F 001C 	move.l 28(%sp),%a0
 240 0174 216F 0044 	move.l 68(%sp),4(%a0)
 240      0004 
 216:/home/simulink/cFS_FreeRTOS_seL4/cfe/fsw/cfe-core/src/es/cfe_esmempool.c ****    PoolPtr->Current      = (uint32 *)(MemAddr + sizeof(Pool_t));
 241               	.loc 1 216 0
 242 017a 202F 0018 	move.l 24(%sp),%d0
 243 017e 0680 0000 	add.l #304,%d0
 243      0130 
 244 0184 206F 001C 	move.l 28(%sp),%a0
 245 0188 2140 000C 	move.l %d0,12(%a0)
 217:/home/simulink/cFS_FreeRTOS_seL4/cfe/fsw/cfe-core/src/es/cfe_esmempool.c ****    PoolPtr->SizeDescPtr  = NULL;
 246               	.loc 1 217 0
 247 018c 206F 001C 	move.l 28(%sp),%a0
 248 0190 42A8 0010 	clr.l 16(%a0)
 218:/home/simulink/cFS_FreeRTOS_seL4/cfe/fsw/cfe-core/src/es/cfe_esmempool.c **** 
 219:/home/simulink/cFS_FreeRTOS_seL4/cfe/fsw/cfe-core/src/es/cfe_esmempool.c ****    PoolPtr->CheckErrCntr = 0;
 249               	.loc 1 219 0
 250 0194 206F 001C 	move.l 28(%sp),%a0
 251 0198 4240      	clr.w %d0
 252 019a 3140 0014 	move.w %d0,20(%a0)
 220:/home/simulink/cFS_FreeRTOS_seL4/cfe/fsw/cfe-core/src/es/cfe_esmempool.c ****    PoolPtr->RequestCntr  = 0;
 253               	.loc 1 220 0
68K GAS   			page 10


 254 019e 206F 001C 	move.l 28(%sp),%a0
 255 01a2 4241      	clr.w %d1
 256 01a4 3141 0016 	move.w %d1,22(%a0)
 221:/home/simulink/cFS_FreeRTOS_seL4/cfe/fsw/cfe-core/src/es/cfe_esmempool.c ****    
 222:/home/simulink/cFS_FreeRTOS_seL4/cfe/fsw/cfe-core/src/es/cfe_esmempool.c ****    PoolPtr->UseMutex     = UseMutex;
 257               	.loc 1 222 0
 258 01a8 4280      	clr.l %d0
 259 01aa 3017      	move.w (%sp),%d0
 260 01ac 206F 001C 	move.l 28(%sp),%a0
 261 01b0 2140 001C 	move.l %d0,28(%a0)
 223:/home/simulink/cFS_FreeRTOS_seL4/cfe/fsw/cfe-core/src/es/cfe_esmempool.c **** 
 224:/home/simulink/cFS_FreeRTOS_seL4/cfe/fsw/cfe-core/src/es/cfe_esmempool.c ****    for (i=0; i<CFE_ES_MAX_MEMPOOL_BLOCK_SIZES; i++)
 262               	.loc 1 224 0
 263 01b4 42AF 0034 	clr.l 52(%sp)
 264 01b8 6050      	jra .L11
 265               	.L12:
 225:/home/simulink/cFS_FreeRTOS_seL4/cfe/fsw/cfe-core/src/es/cfe_esmempool.c ****    {
 226:/home/simulink/cFS_FreeRTOS_seL4/cfe/fsw/cfe-core/src/es/cfe_esmempool.c ****       PoolPtr->SizeDesc[i].NumCreated = 0;
 266               	.loc 1 226 0 discriminator 3
 267 01ba 222F 001C 	move.l 28(%sp),%d1
 268 01be 202F 0034 	move.l 52(%sp),%d0
 269 01c2 E988      	lsl.l #4,%d0
 270 01c4 D081      	add.l %d1,%d0
 271 01c6 2040      	move.l %d0,%a0
 272 01c8 41E8 0024 	lea (36,%a0),%a0
 273 01cc 4290      	clr.l (%a0)
 227:/home/simulink/cFS_FreeRTOS_seL4/cfe/fsw/cfe-core/src/es/cfe_esmempool.c ****       PoolPtr->SizeDesc[i].NumFree = 0;
 274               	.loc 1 227 0 discriminator 3
 275 01ce 222F 001C 	move.l 28(%sp),%d1
 276 01d2 202F 0034 	move.l 52(%sp),%d0
 277 01d6 E988      	lsl.l #4,%d0
 278 01d8 D081      	add.l %d1,%d0
 279 01da 2040      	move.l %d0,%a0
 280 01dc 41E8 0028 	lea (40,%a0),%a0
 281 01e0 4290      	clr.l (%a0)
 228:/home/simulink/cFS_FreeRTOS_seL4/cfe/fsw/cfe-core/src/es/cfe_esmempool.c ****       PoolPtr->SizeDesc[i].MaxSize = 0;
 282               	.loc 1 228 0 discriminator 3
 283 01e2 222F 001C 	move.l 28(%sp),%d1
 284 01e6 202F 0034 	move.l 52(%sp),%d0
 285 01ea E988      	lsl.l #4,%d0
 286 01ec D081      	add.l %d1,%d0
 287 01ee 2040      	move.l %d0,%a0
 288 01f0 41E8 002C 	lea (44,%a0),%a0
 289 01f4 4290      	clr.l (%a0)
 229:/home/simulink/cFS_FreeRTOS_seL4/cfe/fsw/cfe-core/src/es/cfe_esmempool.c ****       PoolPtr->SizeDesc[i].Top = NULL;
 290               	.loc 1 229 0 discriminator 3
 291 01f6 206F 001C 	move.l 28(%sp),%a0
 292 01fa 202F 0034 	move.l 52(%sp),%d0
 293 01fe 5480      	addq.l #2,%d0
 294 0200 E988      	lsl.l #4,%d0
 295 0202 42B0 0800 	clr.l (%a0,%d0.l)
 224:/home/simulink/cFS_FreeRTOS_seL4/cfe/fsw/cfe-core/src/es/cfe_esmempool.c ****    {
 296               	.loc 1 224 0 discriminator 3
 297 0206 52AF 0034 	addq.l #1,52(%sp)
 298               	.L11:
 224:/home/simulink/cFS_FreeRTOS_seL4/cfe/fsw/cfe-core/src/es/cfe_esmempool.c ****    {
 299               	.loc 1 224 0 is_stmt 0 discriminator 1
68K GAS   			page 11


 300 020a 7010      	moveq #16,%d0
 301 020c B0AF 0034 	cmp.l 52(%sp),%d0
 302 0210 64A8      	jcc .L12
 230:/home/simulink/cFS_FreeRTOS_seL4/cfe/fsw/cfe-core/src/es/cfe_esmempool.c ****    }
 231:/home/simulink/cFS_FreeRTOS_seL4/cfe/fsw/cfe-core/src/es/cfe_esmempool.c **** 
 232:/home/simulink/cFS_FreeRTOS_seL4/cfe/fsw/cfe-core/src/es/cfe_esmempool.c ****    /* Use default block sizes if none or too many sizes are specified */
 233:/home/simulink/cFS_FreeRTOS_seL4/cfe/fsw/cfe-core/src/es/cfe_esmempool.c ****    if ((NumBlockSizes == 0) || (BlockSizes == NULL))
 303               	.loc 1 233 0 is_stmt 1
 304 0212 4AAF 0048 	tst.l 72(%sp)
 305 0216 6706      	jeq .L13
 306               	.loc 1 233 0 is_stmt 0 discriminator 1
 307 0218 4AAF 004C 	tst.l 76(%sp)
 308 021c 6612      	jne .L14
 309               	.L13:
 234:/home/simulink/cFS_FreeRTOS_seL4/cfe/fsw/cfe-core/src/es/cfe_esmempool.c ****    {
 235:/home/simulink/cFS_FreeRTOS_seL4/cfe/fsw/cfe-core/src/es/cfe_esmempool.c ****        BlockSizeArrayPtr = &CFE_ES_MemPoolDefSize[0];
 310               	.loc 1 235 0 is_stmt 1
 311 021e 223C 0000 	move.l #CFE_ES_MemPoolDefSize,%d1
 311      0000 
 312 0224 2F41 0028 	move.l %d1,40(%sp)
 236:/home/simulink/cFS_FreeRTOS_seL4/cfe/fsw/cfe-core/src/es/cfe_esmempool.c ****        BlockSizeArraySize = CFE_ES_MAX_MEMPOOL_BLOCK_SIZES;
 313               	.loc 1 236 0
 314 0228 7011      	moveq #17,%d0
 315 022a 2F40 0024 	move.l %d0,36(%sp)
 316 022e 600C      	jra .L15
 317               	.L14:
 237:/home/simulink/cFS_FreeRTOS_seL4/cfe/fsw/cfe-core/src/es/cfe_esmempool.c ****    }
 238:/home/simulink/cFS_FreeRTOS_seL4/cfe/fsw/cfe-core/src/es/cfe_esmempool.c ****    else
 239:/home/simulink/cFS_FreeRTOS_seL4/cfe/fsw/cfe-core/src/es/cfe_esmempool.c ****    {
 240:/home/simulink/cFS_FreeRTOS_seL4/cfe/fsw/cfe-core/src/es/cfe_esmempool.c ****        BlockSizeArrayPtr = BlockSizes;
 318               	.loc 1 240 0
 319 0230 2F6F 004C 	move.l 76(%sp),40(%sp)
 319      0028 
 241:/home/simulink/cFS_FreeRTOS_seL4/cfe/fsw/cfe-core/src/es/cfe_esmempool.c ****        BlockSizeArraySize = NumBlockSizes;
 320               	.loc 1 241 0
 321 0236 2F6F 0048 	move.l 72(%sp),36(%sp)
 321      0024 
 322               	.L15:
 242:/home/simulink/cFS_FreeRTOS_seL4/cfe/fsw/cfe-core/src/es/cfe_esmempool.c ****    }
 243:/home/simulink/cFS_FreeRTOS_seL4/cfe/fsw/cfe-core/src/es/cfe_esmempool.c ****    
 244:/home/simulink/cFS_FreeRTOS_seL4/cfe/fsw/cfe-core/src/es/cfe_esmempool.c ****    /* Use specified block sizes but make sure they are ordered largest to smallest */
 245:/home/simulink/cFS_FreeRTOS_seL4/cfe/fsw/cfe-core/src/es/cfe_esmempool.c ****    MinBlockSize = 0xffffffff;
 323               	.loc 1 245 0
 324 023c 72FF      	moveq #-1,%d1
 325 023e 2F41 0020 	move.l %d1,32(%sp)
 246:/home/simulink/cFS_FreeRTOS_seL4/cfe/fsw/cfe-core/src/es/cfe_esmempool.c ****    for (i=0; i<BlockSizeArraySize; i++)
 326               	.loc 1 246 0
 327 0242 42AF 0034 	clr.l 52(%sp)
 328 0246 6000 00E2 	jra .L16
 329               	.L23:
 247:/home/simulink/cFS_FreeRTOS_seL4/cfe/fsw/cfe-core/src/es/cfe_esmempool.c ****    {
 248:/home/simulink/cFS_FreeRTOS_seL4/cfe/fsw/cfe-core/src/es/cfe_esmempool.c ****         if ((BlockSizeArrayPtr[i] < MinBlockSize) && (BlockSizeArrayPtr[i] != 0))
 330               	.loc 1 248 0
 331 024a 202F 0034 	move.l 52(%sp),%d0
 332 024e E588      	lsl.l #2,%d0
 333 0250 206F 0028 	move.l 40(%sp),%a0
 334 0254 D1C0      	add.l %d0,%a0
68K GAS   			page 12


 335 0256 2010      	move.l (%a0),%d0
 336 0258 B0AF 0020 	cmp.l 32(%sp),%d0
 337 025c 6422      	jcc .L17
 338               	.loc 1 248 0 is_stmt 0 discriminator 1
 339 025e 202F 0034 	move.l 52(%sp),%d0
 340 0262 E588      	lsl.l #2,%d0
 341 0264 206F 0028 	move.l 40(%sp),%a0
 342 0268 D1C0      	add.l %d0,%a0
 343 026a 2010      	move.l (%a0),%d0
 344 026c 4A80      	tst.l %d0
 345 026e 6710      	jeq .L17
 249:/home/simulink/cFS_FreeRTOS_seL4/cfe/fsw/cfe-core/src/es/cfe_esmempool.c ****         {
 250:/home/simulink/cFS_FreeRTOS_seL4/cfe/fsw/cfe-core/src/es/cfe_esmempool.c ****             MinBlockSize = BlockSizeArrayPtr[i];
 346               	.loc 1 250 0 is_stmt 1
 347 0270 202F 0034 	move.l 52(%sp),%d0
 348 0274 E588      	lsl.l #2,%d0
 349 0276 206F 0028 	move.l 40(%sp),%a0
 350 027a D1C0      	add.l %d0,%a0
 351 027c 2F50 0020 	move.l (%a0),32(%sp)
 352               	.L17:
 251:/home/simulink/cFS_FreeRTOS_seL4/cfe/fsw/cfe-core/src/es/cfe_esmempool.c ****         }
 252:/home/simulink/cFS_FreeRTOS_seL4/cfe/fsw/cfe-core/src/es/cfe_esmempool.c ****         
 253:/home/simulink/cFS_FreeRTOS_seL4/cfe/fsw/cfe-core/src/es/cfe_esmempool.c ****         j = 0;
 353               	.loc 1 253 0
 354 0280 42AF 0030 	clr.l 48(%sp)
 254:/home/simulink/cFS_FreeRTOS_seL4/cfe/fsw/cfe-core/src/es/cfe_esmempool.c ****         while (j<CFE_ES_MAX_MEMPOOL_BLOCK_SIZES)
 355               	.loc 1 254 0
 356 0284 6000 0096 	jra .L18
 357               	.L22:
 255:/home/simulink/cFS_FreeRTOS_seL4/cfe/fsw/cfe-core/src/es/cfe_esmempool.c ****         {
 256:/home/simulink/cFS_FreeRTOS_seL4/cfe/fsw/cfe-core/src/es/cfe_esmempool.c ****             if (BlockSizeArrayPtr[i] > PoolPtr->SizeDesc[j].MaxSize)
 358               	.loc 1 256 0
 359 0288 202F 0034 	move.l 52(%sp),%d0
 360 028c E588      	lsl.l #2,%d0
 361 028e 206F 0028 	move.l 40(%sp),%a0
 362 0292 D1C0      	add.l %d0,%a0
 363 0294 2210      	move.l (%a0),%d1
 364 0296 206F 001C 	move.l 28(%sp),%a0
 365 029a 202F 0030 	move.l 48(%sp),%d0
 366 029e E988      	lsl.l #4,%d0
 367 02a0 D088      	add.l %a0,%d0
 368 02a2 2040      	move.l %d0,%a0
 369 02a4 41E8 002C 	lea (44,%a0),%a0
 370 02a8 2010      	move.l (%a0),%d0
 371 02aa B081      	cmp.l %d1,%d0
 372 02ac 646A      	jcc .L19
 257:/home/simulink/cFS_FreeRTOS_seL4/cfe/fsw/cfe-core/src/es/cfe_esmempool.c ****             {
 258:/home/simulink/cFS_FreeRTOS_seL4/cfe/fsw/cfe-core/src/es/cfe_esmempool.c ****                 /* Make space for new size */
 259:/home/simulink/cFS_FreeRTOS_seL4/cfe/fsw/cfe-core/src/es/cfe_esmempool.c ****                 for (k=i; k>j; k--)
 373               	.loc 1 259 0
 374 02ae 2F6F 0034 	move.l 52(%sp),44(%sp)
 374      002C 
 375 02b4 602E      	jra .L20
 376               	.L21:
 260:/home/simulink/cFS_FreeRTOS_seL4/cfe/fsw/cfe-core/src/es/cfe_esmempool.c ****                 {
 261:/home/simulink/cFS_FreeRTOS_seL4/cfe/fsw/cfe-core/src/es/cfe_esmempool.c ****                     PoolPtr->SizeDesc[k].MaxSize = PoolPtr->SizeDesc[k-1].MaxSize;
 377               	.loc 1 261 0 discriminator 3
68K GAS   			page 13


 378 02b6 202F 002C 	move.l 44(%sp),%d0
 379 02ba 5380      	subq.l #1,%d0
 380 02bc 222F 001C 	move.l 28(%sp),%d1
 381 02c0 E988      	lsl.l #4,%d0
 382 02c2 D081      	add.l %d1,%d0
 383 02c4 2040      	move.l %d0,%a0
 384 02c6 41E8 002C 	lea (44,%a0),%a0
 385 02ca 2210      	move.l (%a0),%d1
 386 02cc 206F 001C 	move.l 28(%sp),%a0
 387 02d0 202F 002C 	move.l 44(%sp),%d0
 388 02d4 E988      	lsl.l #4,%d0
 389 02d6 D088      	add.l %a0,%d0
 390 02d8 2040      	move.l %d0,%a0
 391 02da 41E8 002C 	lea (44,%a0),%a0
 392 02de 2081      	move.l %d1,(%a0)
 259:/home/simulink/cFS_FreeRTOS_seL4/cfe/fsw/cfe-core/src/es/cfe_esmempool.c ****                 {
 393               	.loc 1 259 0 discriminator 3
 394 02e0 53AF 002C 	subq.l #1,44(%sp)
 395               	.L20:
 259:/home/simulink/cFS_FreeRTOS_seL4/cfe/fsw/cfe-core/src/es/cfe_esmempool.c ****                 {
 396               	.loc 1 259 0 is_stmt 0 discriminator 1
 397 02e4 202F 0030 	move.l 48(%sp),%d0
 398 02e8 B0AF 002C 	cmp.l 44(%sp),%d0
 399 02ec 65C8      	jcs .L21
 262:/home/simulink/cFS_FreeRTOS_seL4/cfe/fsw/cfe-core/src/es/cfe_esmempool.c ****                 }
 263:/home/simulink/cFS_FreeRTOS_seL4/cfe/fsw/cfe-core/src/es/cfe_esmempool.c ****                 
 264:/home/simulink/cFS_FreeRTOS_seL4/cfe/fsw/cfe-core/src/es/cfe_esmempool.c ****                 /* Insert the size in the correct location */
 265:/home/simulink/cFS_FreeRTOS_seL4/cfe/fsw/cfe-core/src/es/cfe_esmempool.c ****                 PoolPtr->SizeDesc[j].MaxSize = BlockSizeArrayPtr[i];
 400               	.loc 1 265 0 is_stmt 1
 401 02ee 202F 0034 	move.l 52(%sp),%d0
 402 02f2 E588      	lsl.l #2,%d0
 403 02f4 206F 0028 	move.l 40(%sp),%a0
 404 02f8 D1C0      	add.l %d0,%a0
 405 02fa 2210      	move.l (%a0),%d1
 406 02fc 206F 001C 	move.l 28(%sp),%a0
 407 0300 202F 0030 	move.l 48(%sp),%d0
 408 0304 E988      	lsl.l #4,%d0
 409 0306 D088      	add.l %a0,%d0
 410 0308 2040      	move.l %d0,%a0
 411 030a 41E8 002C 	lea (44,%a0),%a0
 412 030e 2081      	move.l %d1,(%a0)
 266:/home/simulink/cFS_FreeRTOS_seL4/cfe/fsw/cfe-core/src/es/cfe_esmempool.c ****                 j = CFE_ES_MAX_MEMPOOL_BLOCK_SIZES;
 413               	.loc 1 266 0
 414 0310 7211      	moveq #17,%d1
 415 0312 2F41 0030 	move.l %d1,48(%sp)
 416 0316 6004      	jra .L18
 417               	.L19:
 267:/home/simulink/cFS_FreeRTOS_seL4/cfe/fsw/cfe-core/src/es/cfe_esmempool.c ****             }
 268:/home/simulink/cFS_FreeRTOS_seL4/cfe/fsw/cfe-core/src/es/cfe_esmempool.c ****             else
 269:/home/simulink/cFS_FreeRTOS_seL4/cfe/fsw/cfe-core/src/es/cfe_esmempool.c ****             {
 270:/home/simulink/cFS_FreeRTOS_seL4/cfe/fsw/cfe-core/src/es/cfe_esmempool.c ****                 j++;
 418               	.loc 1 270 0
 419 0318 52AF 0030 	addq.l #1,48(%sp)
 420               	.L18:
 254:/home/simulink/cFS_FreeRTOS_seL4/cfe/fsw/cfe-core/src/es/cfe_esmempool.c ****         {
 421               	.loc 1 254 0
 422 031c 7010      	moveq #16,%d0
68K GAS   			page 14


 423 031e B0AF 0030 	cmp.l 48(%sp),%d0
 424 0322 6400 FF64 	jcc .L22
 246:/home/simulink/cFS_FreeRTOS_seL4/cfe/fsw/cfe-core/src/es/cfe_esmempool.c ****    {
 425               	.loc 1 246 0 discriminator 2
 426 0326 52AF 0034 	addq.l #1,52(%sp)
 427               	.L16:
 246:/home/simulink/cFS_FreeRTOS_seL4/cfe/fsw/cfe-core/src/es/cfe_esmempool.c ****    {
 428               	.loc 1 246 0 is_stmt 0 discriminator 1
 429 032a 222F 0024 	move.l 36(%sp),%d1
 430 032e B2AF 0034 	cmp.l 52(%sp),%d1
 431 0332 6200 FF16 	jhi .L23
 271:/home/simulink/cFS_FreeRTOS_seL4/cfe/fsw/cfe-core/src/es/cfe_esmempool.c ****             }
 272:/home/simulink/cFS_FreeRTOS_seL4/cfe/fsw/cfe-core/src/es/cfe_esmempool.c ****         }
 273:/home/simulink/cFS_FreeRTOS_seL4/cfe/fsw/cfe-core/src/es/cfe_esmempool.c ****    }
 274:/home/simulink/cFS_FreeRTOS_seL4/cfe/fsw/cfe-core/src/es/cfe_esmempool.c **** 
 275:/home/simulink/cFS_FreeRTOS_seL4/cfe/fsw/cfe-core/src/es/cfe_esmempool.c ****    if (Size <= (sizeof(Pool_t) + MinBlockSize + sizeof(BD_t) ) )
 432               	.loc 1 275 0 is_stmt 1
 433 0336 202F 0020 	move.l 32(%sp),%d0
 434 033a 0680 0000 	add.l #316,%d0
 434      013C 
 435 0340 B0AF 0044 	cmp.l 68(%sp),%d0
 436 0344 655A      	jcs .L24
 276:/home/simulink/cFS_FreeRTOS_seL4/cfe/fsw/cfe-core/src/es/cfe_esmempool.c ****    {  /* must be able make Pool management structure and at least one of the smallest blocks  */
 277:/home/simulink/cFS_FreeRTOS_seL4/cfe/fsw/cfe-core/src/es/cfe_esmempool.c ****       CFE_ES_WriteToSysLog("CFE_ES:poolCreate Pool size(%d) too small for management structure, nee
 278:/home/simulink/cFS_FreeRTOS_seL4/cfe/fsw/cfe-core/src/es/cfe_esmempool.c ****                             (int)Size,
 279:/home/simulink/cFS_FreeRTOS_seL4/cfe/fsw/cfe-core/src/es/cfe_esmempool.c ****                             (int)(sizeof(Pool_t) + MinBlockSize + sizeof(BD_t)) );
 437               	.loc 1 279 0
 438 0346 202F 0020 	move.l 32(%sp),%d0
 439 034a 0680 0000 	add.l #316,%d0
 439      013C 
 277:/home/simulink/cFS_FreeRTOS_seL4/cfe/fsw/cfe-core/src/es/cfe_esmempool.c ****                             (int)Size,
 440               	.loc 1 277 0
 441 0350 2200      	move.l %d0,%d1
 442 0352 202F 0044 	move.l 68(%sp),%d0
 443 0356 2F01      	move.l %d1,-(%sp)
 444               	.cfi_def_cfa_offset 64
 445 0358 2F00      	move.l %d0,-(%sp)
 446               	.cfi_def_cfa_offset 68
 447 035a 4879 0000 	pea .LC4
 447      0000 
 448               	.cfi_def_cfa_offset 72
 449 0360 4EB9 0000 	jsr CFE_ES_WriteToSysLog
 449      0000 
 450 0366 4FEF 000C 	lea (12,%sp),%sp
 451               	.cfi_def_cfa_offset 60
 280:/home/simulink/cFS_FreeRTOS_seL4/cfe/fsw/cfe-core/src/es/cfe_esmempool.c ****                             
 281:/home/simulink/cFS_FreeRTOS_seL4/cfe/fsw/cfe-core/src/es/cfe_esmempool.c ****       if (UseMutex == CFE_ES_USE_MUTEX)
 452               	.loc 1 281 0
 453 036a 4280      	clr.l %d0
 454 036c 3017      	move.w (%sp),%d0
 455 036e 7201      	moveq #1,%d1
 456 0370 B280      	cmp.l %d0,%d1
 457 0372 6624      	jne .L25
 282:/home/simulink/cFS_FreeRTOS_seL4/cfe/fsw/cfe-core/src/es/cfe_esmempool.c ****       {
 283:/home/simulink/cFS_FreeRTOS_seL4/cfe/fsw/cfe-core/src/es/cfe_esmempool.c ****          /* Mutex is no longer needed with error in initialization.  Give it and delete it */      
 284:/home/simulink/cFS_FreeRTOS_seL4/cfe/fsw/cfe-core/src/es/cfe_esmempool.c ****          OS_MutSemGive(PoolPtr->MutexId);
 458               	.loc 1 284 0
68K GAS   			page 15


 459 0374 206F 001C 	move.l 28(%sp),%a0
 460 0378 2028 0018 	move.l 24(%a0),%d0
 461 037c 2F00      	move.l %d0,-(%sp)
 462               	.cfi_def_cfa_offset 64
 463 037e 4EB9 0000 	jsr OS_MutSemGive
 463      0000 
 464 0384 588F      	addq.l #4,%sp
 465               	.cfi_def_cfa_offset 60
 285:/home/simulink/cFS_FreeRTOS_seL4/cfe/fsw/cfe-core/src/es/cfe_esmempool.c ****          OS_MutSemDelete(PoolPtr->MutexId);
 466               	.loc 1 285 0
 467 0386 206F 001C 	move.l 28(%sp),%a0
 468 038a 2028 0018 	move.l 24(%a0),%d0
 469 038e 2F00      	move.l %d0,-(%sp)
 470               	.cfi_def_cfa_offset 64
 471 0390 4EB9 0000 	jsr OS_MutSemDelete
 471      0000 
 472 0396 588F      	addq.l #4,%sp
 473               	.cfi_def_cfa_offset 60
 474               	.L25:
 286:/home/simulink/cFS_FreeRTOS_seL4/cfe/fsw/cfe-core/src/es/cfe_esmempool.c ****       }        
 287:/home/simulink/cFS_FreeRTOS_seL4/cfe/fsw/cfe-core/src/es/cfe_esmempool.c ****       return(CFE_ES_BAD_ARGUMENT);
 475               	.loc 1 287 0
 476 0398 203C C400 	move.l #-1006632950,%d0
 476      000A 
 477 039e 601E      	jra .L27
 478               	.L24:
 288:/home/simulink/cFS_FreeRTOS_seL4/cfe/fsw/cfe-core/src/es/cfe_esmempool.c ****    }
 289:/home/simulink/cFS_FreeRTOS_seL4/cfe/fsw/cfe-core/src/es/cfe_esmempool.c **** 
 290:/home/simulink/cFS_FreeRTOS_seL4/cfe/fsw/cfe-core/src/es/cfe_esmempool.c ****    if (UseMutex == CFE_ES_USE_MUTEX)
 479               	.loc 1 290 0
 480 03a0 4280      	clr.l %d0
 481 03a2 3017      	move.w (%sp),%d0
 482 03a4 7201      	moveq #1,%d1
 483 03a6 B280      	cmp.l %d0,%d1
 484 03a8 6612      	jne .L26
 291:/home/simulink/cFS_FreeRTOS_seL4/cfe/fsw/cfe-core/src/es/cfe_esmempool.c ****    {
 292:/home/simulink/cFS_FreeRTOS_seL4/cfe/fsw/cfe-core/src/es/cfe_esmempool.c ****        OS_MutSemGive(PoolPtr->MutexId);
 485               	.loc 1 292 0
 486 03aa 206F 001C 	move.l 28(%sp),%a0
 487 03ae 2028 0018 	move.l 24(%a0),%d0
 488 03b2 2F00      	move.l %d0,-(%sp)
 489               	.cfi_def_cfa_offset 64
 490 03b4 4EB9 0000 	jsr OS_MutSemGive
 490      0000 
 491 03ba 588F      	addq.l #4,%sp
 492               	.cfi_def_cfa_offset 60
 493               	.L26:
 293:/home/simulink/cFS_FreeRTOS_seL4/cfe/fsw/cfe-core/src/es/cfe_esmempool.c ****    }
 294:/home/simulink/cFS_FreeRTOS_seL4/cfe/fsw/cfe-core/src/es/cfe_esmempool.c **** 
 295:/home/simulink/cFS_FreeRTOS_seL4/cfe/fsw/cfe-core/src/es/cfe_esmempool.c ****    return(CFE_SUCCESS);
 494               	.loc 1 295 0
 495 03bc 4280      	clr.l %d0
 496               	.L27:
 296:/home/simulink/cFS_FreeRTOS_seL4/cfe/fsw/cfe-core/src/es/cfe_esmempool.c **** }
 497               	.loc 1 296 0 discriminator 1
 498 03be 4FEF 0038 	lea (56,%sp),%sp
 499 03c2 4E75      	rts
68K GAS   			page 16


 500               	.cfi_endproc
 501               	.LFE61:
 502               	.sizeCFE_ES_PoolCreateEx, .-CFE_ES_PoolCreateEx
 503               	.section.rodata
 504               	.LC5:
 505 011a 4346 455F 	.string"CFE_ES:getPoolBuf err:Bad handle(0x%08lX) AppId=%d\n"
 505      4553 3A67 
 505      6574 506F 
 505      6F6C 4275 
 505      6620 6572 
 506               	.LC6:
 507 014e 4346 455F 	.string"CFE_ES:getPoolBuf err:size(%d) > max(%d).\n"
 507      4553 3A67 
 507      6574 506F 
 507      6F6C 4275 
 507      6620 6572 
 508               	.LC7:
 509 0179 4346 455F 	.string"CFE_ES:getPoolBuf err:Request won't fit in remaining memory\n"
 509      4553 3A67 
 509      6574 506F 
 509      6F6C 4275 
 509      6620 6572 
 510               	.text
 511               	.align2
 512               	.globlCFE_ES_GetPoolBuf
 513               	.typeCFE_ES_GetPoolBuf, @function
 514               	CFE_ES_GetPoolBuf:
 515               	.LFB62:
 297:/home/simulink/cFS_FreeRTOS_seL4/cfe/fsw/cfe-core/src/es/cfe_esmempool.c **** 
 298:/home/simulink/cFS_FreeRTOS_seL4/cfe/fsw/cfe-core/src/es/cfe_esmempool.c **** /*
 299:/home/simulink/cFS_FreeRTOS_seL4/cfe/fsw/cfe-core/src/es/cfe_esmempool.c **** ** Function:
 300:/home/simulink/cFS_FreeRTOS_seL4/cfe/fsw/cfe-core/src/es/cfe_esmempool.c **** **   CFE_ES_GetPoolBuf
 301:/home/simulink/cFS_FreeRTOS_seL4/cfe/fsw/cfe-core/src/es/cfe_esmempool.c **** **
 302:/home/simulink/cFS_FreeRTOS_seL4/cfe/fsw/cfe-core/src/es/cfe_esmempool.c **** ** Purpose:
 303:/home/simulink/cFS_FreeRTOS_seL4/cfe/fsw/cfe-core/src/es/cfe_esmempool.c **** **   CFE_ES_GetPoolBuf allocates a block from the memory pool.
 304:/home/simulink/cFS_FreeRTOS_seL4/cfe/fsw/cfe-core/src/es/cfe_esmempool.c **** */
 305:/home/simulink/cFS_FreeRTOS_seL4/cfe/fsw/cfe-core/src/es/cfe_esmempool.c **** int32 CFE_ES_GetPoolBuf(uint32             **BufPtr,
 306:/home/simulink/cFS_FreeRTOS_seL4/cfe/fsw/cfe-core/src/es/cfe_esmempool.c ****                         CFE_ES_MemHandle_t   Handle,
 307:/home/simulink/cFS_FreeRTOS_seL4/cfe/fsw/cfe-core/src/es/cfe_esmempool.c ****                         uint32               Size )
 308:/home/simulink/cFS_FreeRTOS_seL4/cfe/fsw/cfe-core/src/es/cfe_esmempool.c **** {
 516               	.loc 1 308 0
 517               	.cfi_startproc
 518 03c4 4FEF FFF0 	lea (-16,%sp),%sp
 519               	.cfi_def_cfa_offset 20
 309:/home/simulink/cFS_FreeRTOS_seL4/cfe/fsw/cfe-core/src/es/cfe_esmempool.c ****    Pool_t  * PoolPtr = (Pool_t *)Handle;
 520               	.loc 1 309 0
 521 03c8 2F6F 0018 	move.l 24(%sp),12(%sp)
 521      000C 
 310:/home/simulink/cFS_FreeRTOS_seL4/cfe/fsw/cfe-core/src/es/cfe_esmempool.c ****    uint32    Block;
 311:/home/simulink/cFS_FreeRTOS_seL4/cfe/fsw/cfe-core/src/es/cfe_esmempool.c ****    BD_t    * BdPtr;
 312:/home/simulink/cFS_FreeRTOS_seL4/cfe/fsw/cfe-core/src/es/cfe_esmempool.c ****    uint32    AppId= 0xFFFFFFFF;
 522               	.loc 1 312 0
 523 03ce 2EBC FFFF 	move.l #-1,(%sp)
 523      FFFF 
 313:/home/simulink/cFS_FreeRTOS_seL4/cfe/fsw/cfe-core/src/es/cfe_esmempool.c **** 
 314:/home/simulink/cFS_FreeRTOS_seL4/cfe/fsw/cfe-core/src/es/cfe_esmempool.c ****    if (PoolPtr != NULL)
 524               	.loc 1 314 0
68K GAS   			page 17


 525 03d4 4AAF 000C 	tst.l 12(%sp)
 526 03d8 673A      	jeq .L29
 315:/home/simulink/cFS_FreeRTOS_seL4/cfe/fsw/cfe-core/src/es/cfe_esmempool.c ****    {
 316:/home/simulink/cFS_FreeRTOS_seL4/cfe/fsw/cfe-core/src/es/cfe_esmempool.c ****       if (Handle != (CFE_ES_MemHandle_t)PoolPtr->Start)
 527               	.loc 1 316 0
 528 03da 206F 000C 	move.l 12(%sp),%a0
 529 03de 2010      	move.l (%a0),%d0
 530 03e0 B0AF 0018 	cmp.l 24(%sp),%d0
 531 03e4 675C      	jeq .L30
 317:/home/simulink/cFS_FreeRTOS_seL4/cfe/fsw/cfe-core/src/es/cfe_esmempool.c ****       {
 318:/home/simulink/cFS_FreeRTOS_seL4/cfe/fsw/cfe-core/src/es/cfe_esmempool.c ****          CFE_ES_GetAppID(&AppId);
 532               	.loc 1 318 0
 533 03e6 200F      	move.l %sp,%d0
 534 03e8 2F00      	move.l %d0,-(%sp)
 535               	.cfi_def_cfa_offset 24
 536 03ea 4EB9 0000 	jsr CFE_ES_GetAppID
 536      0000 
 537 03f0 588F      	addq.l #4,%sp
 538               	.cfi_def_cfa_offset 20
 319:/home/simulink/cFS_FreeRTOS_seL4/cfe/fsw/cfe-core/src/es/cfe_esmempool.c ****          CFE_ES_WriteToSysLog("CFE_ES:getPoolBuf err:Bad handle(0x%08lX) AppId=%d\n",(unsigned long
 539               	.loc 1 319 0
 540 03f2 2017      	move.l (%sp),%d0
 541 03f4 2F00      	move.l %d0,-(%sp)
 542               	.cfi_def_cfa_offset 24
 543 03f6 2F2F 001C 	move.l 28(%sp),-(%sp)
 544               	.cfi_def_cfa_offset 28
 545 03fa 4879 0000 	pea .LC5
 545      0000 
 546               	.cfi_def_cfa_offset 32
 547 0400 4EB9 0000 	jsr CFE_ES_WriteToSysLog
 547      0000 
 548 0406 4FEF 000C 	lea (12,%sp),%sp
 549               	.cfi_def_cfa_offset 20
 320:/home/simulink/cFS_FreeRTOS_seL4/cfe/fsw/cfe-core/src/es/cfe_esmempool.c ****          return(CFE_ES_ERR_MEM_HANDLE);
 550               	.loc 1 320 0
 551 040a 203C C400 	move.l #-1006632953,%d0
 551      0007 
 552 0410 6000 022E 	jra .L40
 553               	.L29:
 321:/home/simulink/cFS_FreeRTOS_seL4/cfe/fsw/cfe-core/src/es/cfe_esmempool.c ****       }
 322:/home/simulink/cFS_FreeRTOS_seL4/cfe/fsw/cfe-core/src/es/cfe_esmempool.c ****    }
 323:/home/simulink/cFS_FreeRTOS_seL4/cfe/fsw/cfe-core/src/es/cfe_esmempool.c ****    else
 324:/home/simulink/cFS_FreeRTOS_seL4/cfe/fsw/cfe-core/src/es/cfe_esmempool.c ****    {
 325:/home/simulink/cFS_FreeRTOS_seL4/cfe/fsw/cfe-core/src/es/cfe_esmempool.c ****       CFE_ES_GetAppID(&AppId);
 554               	.loc 1 325 0
 555 0414 200F      	move.l %sp,%d0
 556 0416 2F00      	move.l %d0,-(%sp)
 557               	.cfi_def_cfa_offset 24
 558 0418 4EB9 0000 	jsr CFE_ES_GetAppID
 558      0000 
 559 041e 588F      	addq.l #4,%sp
 560               	.cfi_def_cfa_offset 20
 326:/home/simulink/cFS_FreeRTOS_seL4/cfe/fsw/cfe-core/src/es/cfe_esmempool.c ****       CFE_ES_WriteToSysLog("CFE_ES:getPoolBuf err:Bad handle(0x%08lX) AppId=%d\n",(unsigned long)Ha
 561               	.loc 1 326 0
 562 0420 2017      	move.l (%sp),%d0
 563 0422 2F00      	move.l %d0,-(%sp)
 564               	.cfi_def_cfa_offset 24
68K GAS   			page 18


 565 0424 2F2F 001C 	move.l 28(%sp),-(%sp)
 566               	.cfi_def_cfa_offset 28
 567 0428 4879 0000 	pea .LC5
 567      0000 
 568               	.cfi_def_cfa_offset 32
 569 042e 4EB9 0000 	jsr CFE_ES_WriteToSysLog
 569      0000 
 570 0434 4FEF 000C 	lea (12,%sp),%sp
 571               	.cfi_def_cfa_offset 20
 327:/home/simulink/cFS_FreeRTOS_seL4/cfe/fsw/cfe-core/src/es/cfe_esmempool.c ****       return(CFE_ES_ERR_MEM_HANDLE);
 572               	.loc 1 327 0
 573 0438 203C C400 	move.l #-1006632953,%d0
 573      0007 
 574 043e 6000 0200 	jra .L40
 575               	.L30:
 328:/home/simulink/cFS_FreeRTOS_seL4/cfe/fsw/cfe-core/src/es/cfe_esmempool.c ****    }
 329:/home/simulink/cFS_FreeRTOS_seL4/cfe/fsw/cfe-core/src/es/cfe_esmempool.c **** 
 330:/home/simulink/cFS_FreeRTOS_seL4/cfe/fsw/cfe-core/src/es/cfe_esmempool.c **** 
 331:/home/simulink/cFS_FreeRTOS_seL4/cfe/fsw/cfe-core/src/es/cfe_esmempool.c ****    if (PoolPtr->UseMutex == CFE_ES_USE_MUTEX)
 576               	.loc 1 331 0
 577 0442 206F 000C 	move.l 12(%sp),%a0
 578 0446 2028 001C 	move.l 28(%a0),%d0
 579 044a 7201      	moveq #1,%d1
 580 044c B280      	cmp.l %d0,%d1
 581 044e 6612      	jne .L32
 332:/home/simulink/cFS_FreeRTOS_seL4/cfe/fsw/cfe-core/src/es/cfe_esmempool.c ****    {
 333:/home/simulink/cFS_FreeRTOS_seL4/cfe/fsw/cfe-core/src/es/cfe_esmempool.c ****       OS_MutSemTake(PoolPtr->MutexId);
 582               	.loc 1 333 0
 583 0450 206F 000C 	move.l 12(%sp),%a0
 584 0454 2028 0018 	move.l 24(%a0),%d0
 585 0458 2F00      	move.l %d0,-(%sp)
 586               	.cfi_def_cfa_offset 24
 587 045a 4EB9 0000 	jsr OS_MutSemTake
 587      0000 
 588 0460 588F      	addq.l #4,%sp
 589               	.cfi_def_cfa_offset 20
 590               	.L32:
 334:/home/simulink/cFS_FreeRTOS_seL4/cfe/fsw/cfe-core/src/es/cfe_esmempool.c ****    }
 335:/home/simulink/cFS_FreeRTOS_seL4/cfe/fsw/cfe-core/src/es/cfe_esmempool.c **** 
 336:/home/simulink/cFS_FreeRTOS_seL4/cfe/fsw/cfe-core/src/es/cfe_esmempool.c ****    *BufPtr = NULL;
 591               	.loc 1 336 0
 592 0462 206F 0014 	move.l 20(%sp),%a0
 593 0466 4290      	clr.l (%a0)
 337:/home/simulink/cFS_FreeRTOS_seL4/cfe/fsw/cfe-core/src/es/cfe_esmempool.c **** 
 338:/home/simulink/cFS_FreeRTOS_seL4/cfe/fsw/cfe-core/src/es/cfe_esmempool.c ****    Block = CFE_ES_GetBlockSize(PoolPtr, Size);
 594               	.loc 1 338 0
 595 0468 2F2F 001C 	move.l 28(%sp),-(%sp)
 596               	.cfi_def_cfa_offset 24
 597 046c 2F2F 0010 	move.l 16(%sp),-(%sp)
 598               	.cfi_def_cfa_offset 28
 599 0470 4EB9 0000 	jsr CFE_ES_GetBlockSize
 599      0000 
 600 0476 508F      	addq.l #8,%sp
 601               	.cfi_def_cfa_offset 20
 602 0478 2F40 0008 	move.l %d0,8(%sp)
 339:/home/simulink/cFS_FreeRTOS_seL4/cfe/fsw/cfe-core/src/es/cfe_esmempool.c ****    if (Block == 0xFFFFFFFF)
 603               	.loc 1 339 0
68K GAS   			page 19


 604 047c 70FF      	moveq #-1,%d0
 605 047e B0AF 0008 	cmp.l 8(%sp),%d0
 606 0482 664C      	jne .L33
 340:/home/simulink/cFS_FreeRTOS_seL4/cfe/fsw/cfe-core/src/es/cfe_esmempool.c ****    {
 341:/home/simulink/cFS_FreeRTOS_seL4/cfe/fsw/cfe-core/src/es/cfe_esmempool.c ****       CFE_ES_WriteToSysLog("CFE_ES:getPoolBuf err:size(%d) > max(%d).\n",(int)Size,(int)PoolPtr->Si
 607               	.loc 1 341 0
 608 0484 206F 000C 	move.l 12(%sp),%a0
 609 0488 2028 002C 	move.l 44(%a0),%d0
 610 048c 2200      	move.l %d0,%d1
 611 048e 202F 001C 	move.l 28(%sp),%d0
 612 0492 2F01      	move.l %d1,-(%sp)
 613               	.cfi_def_cfa_offset 24
 614 0494 2F00      	move.l %d0,-(%sp)
 615               	.cfi_def_cfa_offset 28
 616 0496 4879 0000 	pea .LC6
 616      0000 
 617               	.cfi_def_cfa_offset 32
 618 049c 4EB9 0000 	jsr CFE_ES_WriteToSysLog
 618      0000 
 619 04a2 4FEF 000C 	lea (12,%sp),%sp
 620               	.cfi_def_cfa_offset 20
 342:/home/simulink/cFS_FreeRTOS_seL4/cfe/fsw/cfe-core/src/es/cfe_esmempool.c ****       if (PoolPtr->UseMutex == CFE_ES_USE_MUTEX)
 621               	.loc 1 342 0
 622 04a6 206F 000C 	move.l 12(%sp),%a0
 623 04aa 2028 001C 	move.l 28(%a0),%d0
 624 04ae 7201      	moveq #1,%d1
 625 04b0 B280      	cmp.l %d0,%d1
 626 04b2 6612      	jne .L34
 343:/home/simulink/cFS_FreeRTOS_seL4/cfe/fsw/cfe-core/src/es/cfe_esmempool.c ****       {
 344:/home/simulink/cFS_FreeRTOS_seL4/cfe/fsw/cfe-core/src/es/cfe_esmempool.c ****          OS_MutSemGive(PoolPtr->MutexId);
 627               	.loc 1 344 0
 628 04b4 206F 000C 	move.l 12(%sp),%a0
 629 04b8 2028 0018 	move.l 24(%a0),%d0
 630 04bc 2F00      	move.l %d0,-(%sp)
 631               	.cfi_def_cfa_offset 24
 632 04be 4EB9 0000 	jsr OS_MutSemGive
 632      0000 
 633 04c4 588F      	addq.l #4,%sp
 634               	.cfi_def_cfa_offset 20
 635               	.L34:
 345:/home/simulink/cFS_FreeRTOS_seL4/cfe/fsw/cfe-core/src/es/cfe_esmempool.c ****       }
 346:/home/simulink/cFS_FreeRTOS_seL4/cfe/fsw/cfe-core/src/es/cfe_esmempool.c ****       return(CFE_ES_ERR_MEM_BLOCK_SIZE);
 636               	.loc 1 346 0
 637 04c6 203C C400 	move.l #-1006632952,%d0
 637      0008 
 638 04cc 6000 0172 	jra .L40
 639               	.L33:
 347:/home/simulink/cFS_FreeRTOS_seL4/cfe/fsw/cfe-core/src/es/cfe_esmempool.c ****    }
 348:/home/simulink/cFS_FreeRTOS_seL4/cfe/fsw/cfe-core/src/es/cfe_esmempool.c **** 
 349:/home/simulink/cFS_FreeRTOS_seL4/cfe/fsw/cfe-core/src/es/cfe_esmempool.c ****    /*
 350:/home/simulink/cFS_FreeRTOS_seL4/cfe/fsw/cfe-core/src/es/cfe_esmempool.c ****    ** Check if any of the requested size are available
 351:/home/simulink/cFS_FreeRTOS_seL4/cfe/fsw/cfe-core/src/es/cfe_esmempool.c ****    */
 352:/home/simulink/cFS_FreeRTOS_seL4/cfe/fsw/cfe-core/src/es/cfe_esmempool.c ****    if (PoolPtr->SizeDescPtr->Top != NULL) /* Set by GetBlockSize call */
 640               	.loc 1 352 0
 641 04d0 206F 000C 	move.l 12(%sp),%a0
 642 04d4 2068 0010 	move.l 16(%a0),%a0
 643 04d8 2010      	move.l (%a0),%d0
68K GAS   			page 20


 644 04da 4A80      	tst.l %d0
 645 04dc 676A      	jeq .L35
 353:/home/simulink/cFS_FreeRTOS_seL4/cfe/fsw/cfe-core/src/es/cfe_esmempool.c ****    {
 354:/home/simulink/cFS_FreeRTOS_seL4/cfe/fsw/cfe-core/src/es/cfe_esmempool.c ****          /*
 355:/home/simulink/cFS_FreeRTOS_seL4/cfe/fsw/cfe-core/src/es/cfe_esmempool.c ****          ** Get it off the top on the list
 356:/home/simulink/cFS_FreeRTOS_seL4/cfe/fsw/cfe-core/src/es/cfe_esmempool.c ****          */
 357:/home/simulink/cFS_FreeRTOS_seL4/cfe/fsw/cfe-core/src/es/cfe_esmempool.c ****          BdPtr = PoolPtr->SizeDescPtr->Top;
 646               	.loc 1 357 0
 647 04de 206F 000C 	move.l 12(%sp),%a0
 648 04e2 2068 0010 	move.l 16(%a0),%a0
 649 04e6 2F50 0004 	move.l (%a0),4(%sp)
 358:/home/simulink/cFS_FreeRTOS_seL4/cfe/fsw/cfe-core/src/es/cfe_esmempool.c **** 
 359:/home/simulink/cFS_FreeRTOS_seL4/cfe/fsw/cfe-core/src/es/cfe_esmempool.c ****          BdPtr->CheckBits          = CFE_ES_CHECK_PATTERN;
 650               	.loc 1 359 0
 651 04ea 206F 0004 	move.l 4(%sp),%a0
 652 04ee 30BC 5A5A 	move.w #23130,(%a0)
 360:/home/simulink/cFS_FreeRTOS_seL4/cfe/fsw/cfe-core/src/es/cfe_esmempool.c ****          BdPtr->Allocated          = CFE_ES_MEMORY_ALLOCATED; /* Flag memory block as allocated */
 653               	.loc 1 360 0
 654 04f2 206F 0004 	move.l 4(%sp),%a0
 655 04f6 303C AAAA 	move.w #-21846,%d0
 656 04fa 3140 0002 	move.w %d0,2(%a0)
 361:/home/simulink/cFS_FreeRTOS_seL4/cfe/fsw/cfe-core/src/es/cfe_esmempool.c ****          BdPtr->Size               = Block;
 657               	.loc 1 361 0
 658 04fe 206F 0004 	move.l 4(%sp),%a0
 659 0502 216F 0008 	move.l 8(%sp),4(%a0)
 659      0004 
 362:/home/simulink/cFS_FreeRTOS_seL4/cfe/fsw/cfe-core/src/es/cfe_esmempool.c ****          PoolPtr->SizeDescPtr->Top = (BD_t *)BdPtr->Next;
 660               	.loc 1 362 0
 661 0508 206F 000C 	move.l 12(%sp),%a0
 662 050c 2068 0010 	move.l 16(%a0),%a0
 663 0510 226F 0004 	move.l 4(%sp),%a1
 664 0514 2029 0008 	move.l 8(%a1),%d0
 665 0518 2080      	move.l %d0,(%a0)
 363:/home/simulink/cFS_FreeRTOS_seL4/cfe/fsw/cfe-core/src/es/cfe_esmempool.c ****          PoolPtr->SizeDescPtr->NumFree--;
 666               	.loc 1 363 0
 667 051a 206F 000C 	move.l 12(%sp),%a0
 668 051e 2068 0010 	move.l 16(%a0),%a0
 669 0522 2028 0008 	move.l 8(%a0),%d0
 670 0526 5380      	subq.l #1,%d0
 671 0528 2140 0008 	move.l %d0,8(%a0)
 364:/home/simulink/cFS_FreeRTOS_seL4/cfe/fsw/cfe-core/src/es/cfe_esmempool.c ****          BdPtr->Next               = NULL;
 672               	.loc 1 364 0
 673 052c 206F 0004 	move.l 4(%sp),%a0
 674 0530 42A8 0008 	clr.l 8(%a0)
 365:/home/simulink/cFS_FreeRTOS_seL4/cfe/fsw/cfe-core/src/es/cfe_esmempool.c ****          *BufPtr                   = (uint32 *)(BdPtr + 1);
 675               	.loc 1 365 0
 676 0534 202F 0004 	move.l 4(%sp),%d0
 677 0538 0680 0000 	add.l #12,%d0
 677      000C 
 678 053e 206F 0014 	move.l 20(%sp),%a0
 679 0542 2080      	move.l %d0,(%a0)
 680 0544 6000 00D6 	jra .L36
 681               	.L35:
 366:/home/simulink/cFS_FreeRTOS_seL4/cfe/fsw/cfe-core/src/es/cfe_esmempool.c ****     }
 367:/home/simulink/cFS_FreeRTOS_seL4/cfe/fsw/cfe-core/src/es/cfe_esmempool.c ****     else /* go make one */
 368:/home/simulink/cFS_FreeRTOS_seL4/cfe/fsw/cfe-core/src/es/cfe_esmempool.c ****     {
 369:/home/simulink/cFS_FreeRTOS_seL4/cfe/fsw/cfe-core/src/es/cfe_esmempool.c ****          BdPtr = (BD_t *)PoolPtr->Current; /* point to new memory block   */
68K GAS   			page 21


 682               	.loc 1 369 0
 683 0548 206F 000C 	move.l 12(%sp),%a0
 684 054c 2F68 000C 	move.l 12(%a0),4(%sp)
 684      0004 
 370:/home/simulink/cFS_FreeRTOS_seL4/cfe/fsw/cfe-core/src/es/cfe_esmempool.c ****          if ( ((cpuaddr)BdPtr + sizeof(BD_t) + Block ) >= PoolPtr->End ){ /* can't fit in remaing m
 685               	.loc 1 370 0
 686 0552 202F 0004 	move.l 4(%sp),%d0
 687 0556 D0AF 0008 	add.l 8(%sp),%d0
 688 055a 0680 0000 	add.l #12,%d0
 688      000C 
 689 0560 206F 000C 	move.l 12(%sp),%a0
 690 0564 2228 0008 	move.l 8(%a0),%d1
 691 0568 B280      	cmp.l %d0,%d1
 692 056a 6238      	jhi .L37
 371:/home/simulink/cFS_FreeRTOS_seL4/cfe/fsw/cfe-core/src/es/cfe_esmempool.c ****             CFE_ES_WriteToSysLog("CFE_ES:getPoolBuf err:Request won't fit in remaining memory\n");
 693               	.loc 1 371 0
 694 056c 4879 0000 	pea .LC7
 694      0000 
 695               	.cfi_def_cfa_offset 24
 696 0572 4EB9 0000 	jsr CFE_ES_WriteToSysLog
 696      0000 
 697 0578 588F      	addq.l #4,%sp
 698               	.cfi_def_cfa_offset 20
 372:/home/simulink/cFS_FreeRTOS_seL4/cfe/fsw/cfe-core/src/es/cfe_esmempool.c ****             if (PoolPtr->UseMutex == CFE_ES_USE_MUTEX)
 699               	.loc 1 372 0
 700 057a 206F 000C 	move.l 12(%sp),%a0
 701 057e 2028 001C 	move.l 28(%a0),%d0
 702 0582 7201      	moveq #1,%d1
 703 0584 B280      	cmp.l %d0,%d1
 704 0586 6612      	jne .L38
 373:/home/simulink/cFS_FreeRTOS_seL4/cfe/fsw/cfe-core/src/es/cfe_esmempool.c ****             {
 374:/home/simulink/cFS_FreeRTOS_seL4/cfe/fsw/cfe-core/src/es/cfe_esmempool.c ****                OS_MutSemGive(PoolPtr->MutexId);
 705               	.loc 1 374 0
 706 0588 206F 000C 	move.l 12(%sp),%a0
 707 058c 2028 0018 	move.l 24(%a0),%d0
 708 0590 2F00      	move.l %d0,-(%sp)
 709               	.cfi_def_cfa_offset 24
 710 0592 4EB9 0000 	jsr OS_MutSemGive
 710      0000 
 711 0598 588F      	addq.l #4,%sp
 712               	.cfi_def_cfa_offset 20
 713               	.L38:
 375:/home/simulink/cFS_FreeRTOS_seL4/cfe/fsw/cfe-core/src/es/cfe_esmempool.c ****             }
 376:/home/simulink/cFS_FreeRTOS_seL4/cfe/fsw/cfe-core/src/es/cfe_esmempool.c ****             return(CFE_ES_ERR_MEM_BLOCK_SIZE);
 714               	.loc 1 376 0
 715 059a 203C C400 	move.l #-1006632952,%d0
 715      0008 
 716 05a0 6000 009E 	jra .L40
 717               	.L37:
 377:/home/simulink/cFS_FreeRTOS_seL4/cfe/fsw/cfe-core/src/es/cfe_esmempool.c ****          }
 378:/home/simulink/cFS_FreeRTOS_seL4/cfe/fsw/cfe-core/src/es/cfe_esmempool.c **** 
 379:/home/simulink/cFS_FreeRTOS_seL4/cfe/fsw/cfe-core/src/es/cfe_esmempool.c ****          PoolPtr->SizeDescPtr->NumCreated++;
 718               	.loc 1 379 0
 719 05a4 206F 000C 	move.l 12(%sp),%a0
 720 05a8 2068 0010 	move.l 16(%a0),%a0
 721 05ac 2028 0004 	move.l 4(%a0),%d0
 722 05b0 5280      	addq.l #1,%d0
68K GAS   			page 22


 723 05b2 2140 0004 	move.l %d0,4(%a0)
 380:/home/simulink/cFS_FreeRTOS_seL4/cfe/fsw/cfe-core/src/es/cfe_esmempool.c ****          PoolPtr->RequestCntr++;
 724               	.loc 1 380 0
 725 05b6 206F 000C 	move.l 12(%sp),%a0
 726 05ba 3028 0016 	move.w 22(%a0),%d0
 727 05be 5280      	addq.l #1,%d0
 728 05c0 3000      	move.w %d0,%d0
 729 05c2 206F 000C 	move.l 12(%sp),%a0
 730 05c6 3140 0016 	move.w %d0,22(%a0)
 381:/home/simulink/cFS_FreeRTOS_seL4/cfe/fsw/cfe-core/src/es/cfe_esmempool.c **** 
 382:/home/simulink/cFS_FreeRTOS_seL4/cfe/fsw/cfe-core/src/es/cfe_esmempool.c ****          /*
 383:/home/simulink/cFS_FreeRTOS_seL4/cfe/fsw/cfe-core/src/es/cfe_esmempool.c ****          ** create the buffer descriptor at the front of it
 384:/home/simulink/cFS_FreeRTOS_seL4/cfe/fsw/cfe-core/src/es/cfe_esmempool.c ****          */
 385:/home/simulink/cFS_FreeRTOS_seL4/cfe/fsw/cfe-core/src/es/cfe_esmempool.c ****          BdPtr->CheckBits = CFE_ES_CHECK_PATTERN;
 731               	.loc 1 385 0
 732 05ca 206F 0004 	move.l 4(%sp),%a0
 733 05ce 30BC 5A5A 	move.w #23130,(%a0)
 386:/home/simulink/cFS_FreeRTOS_seL4/cfe/fsw/cfe-core/src/es/cfe_esmempool.c ****          BdPtr->Allocated = CFE_ES_MEMORY_ALLOCATED; /* Flag memory block as allocated */
 734               	.loc 1 386 0
 735 05d2 206F 0004 	move.l 4(%sp),%a0
 736 05d6 303C AAAA 	move.w #-21846,%d0
 737 05da 3140 0002 	move.w %d0,2(%a0)
 387:/home/simulink/cFS_FreeRTOS_seL4/cfe/fsw/cfe-core/src/es/cfe_esmempool.c ****          BdPtr->Size      = Block;
 738               	.loc 1 387 0
 739 05de 206F 0004 	move.l 4(%sp),%a0
 740 05e2 216F 0008 	move.l 8(%sp),4(%a0)
 740      0004 
 388:/home/simulink/cFS_FreeRTOS_seL4/cfe/fsw/cfe-core/src/es/cfe_esmempool.c ****          BdPtr->Next      = NULL;
 741               	.loc 1 388 0
 742 05e8 206F 0004 	move.l 4(%sp),%a0
 743 05ec 42A8 0008 	clr.l 8(%a0)
 389:/home/simulink/cFS_FreeRTOS_seL4/cfe/fsw/cfe-core/src/es/cfe_esmempool.c ****          *BufPtr          = (uint32 *)(BdPtr + 1);
 744               	.loc 1 389 0
 745 05f0 202F 0004 	move.l 4(%sp),%d0
 746 05f4 0680 0000 	add.l #12,%d0
 746      000C 
 747 05fa 206F 0014 	move.l 20(%sp),%a0
 748 05fe 2080      	move.l %d0,(%a0)
 390:/home/simulink/cFS_FreeRTOS_seL4/cfe/fsw/cfe-core/src/es/cfe_esmempool.c **** 
 391:/home/simulink/cFS_FreeRTOS_seL4/cfe/fsw/cfe-core/src/es/cfe_esmempool.c ****          /*
 392:/home/simulink/cFS_FreeRTOS_seL4/cfe/fsw/cfe-core/src/es/cfe_esmempool.c ****          ** adjust pool current pointer
 393:/home/simulink/cFS_FreeRTOS_seL4/cfe/fsw/cfe-core/src/es/cfe_esmempool.c ****          */
 394:/home/simulink/cFS_FreeRTOS_seL4/cfe/fsw/cfe-core/src/es/cfe_esmempool.c ****          PoolPtr->Current = (uint32 *)( (uint8 *)PoolPtr->Current
 749               	.loc 1 394 0
 750 0600 206F 000C 	move.l 12(%sp),%a0
 751 0604 2228 000C 	move.l 12(%a0),%d1
 395:/home/simulink/cFS_FreeRTOS_seL4/cfe/fsw/cfe-core/src/es/cfe_esmempool.c ****                                              + Block
 396:/home/simulink/cFS_FreeRTOS_seL4/cfe/fsw/cfe-core/src/es/cfe_esmempool.c ****                                              + sizeof(BD_t) );
 752               	.loc 1 396 0
 753 0608 202F 0008 	move.l 8(%sp),%d0
 754 060c 0680 0000 	add.l #12,%d0
 754      000C 
 394:/home/simulink/cFS_FreeRTOS_seL4/cfe/fsw/cfe-core/src/es/cfe_esmempool.c ****                                              + Block
 755               	.loc 1 394 0
 756 0612 D081      	add.l %d1,%d0
 757 0614 206F 000C 	move.l 12(%sp),%a0
 758 0618 2140 000C 	move.l %d0,12(%a0)
68K GAS   			page 23


 759               	.L36:
 397:/home/simulink/cFS_FreeRTOS_seL4/cfe/fsw/cfe-core/src/es/cfe_esmempool.c ****      }
 398:/home/simulink/cFS_FreeRTOS_seL4/cfe/fsw/cfe-core/src/es/cfe_esmempool.c **** 
 399:/home/simulink/cFS_FreeRTOS_seL4/cfe/fsw/cfe-core/src/es/cfe_esmempool.c ****      if (PoolPtr->UseMutex == CFE_ES_USE_MUTEX)
 760               	.loc 1 399 0
 761 061c 206F 000C 	move.l 12(%sp),%a0
 762 0620 2028 001C 	move.l 28(%a0),%d0
 763 0624 7201      	moveq #1,%d1
 764 0626 B280      	cmp.l %d0,%d1
 765 0628 6612      	jne .L39
 400:/home/simulink/cFS_FreeRTOS_seL4/cfe/fsw/cfe-core/src/es/cfe_esmempool.c ****      {
 401:/home/simulink/cFS_FreeRTOS_seL4/cfe/fsw/cfe-core/src/es/cfe_esmempool.c ****         OS_MutSemGive(PoolPtr->MutexId);
 766               	.loc 1 401 0
 767 062a 206F 000C 	move.l 12(%sp),%a0
 768 062e 2028 0018 	move.l 24(%a0),%d0
 769 0632 2F00      	move.l %d0,-(%sp)
 770               	.cfi_def_cfa_offset 24
 771 0634 4EB9 0000 	jsr OS_MutSemGive
 771      0000 
 772 063a 588F      	addq.l #4,%sp
 773               	.cfi_def_cfa_offset 20
 774               	.L39:
 402:/home/simulink/cFS_FreeRTOS_seL4/cfe/fsw/cfe-core/src/es/cfe_esmempool.c ****      }
 403:/home/simulink/cFS_FreeRTOS_seL4/cfe/fsw/cfe-core/src/es/cfe_esmempool.c ****      return (int32)Block;
 775               	.loc 1 403 0
 776 063c 202F 0008 	move.l 8(%sp),%d0
 777               	.L40:
 404:/home/simulink/cFS_FreeRTOS_seL4/cfe/fsw/cfe-core/src/es/cfe_esmempool.c **** }
 778               	.loc 1 404 0 discriminator 1
 779 0640 4FEF 0010 	lea (16,%sp),%sp
 780 0644 4E75      	rts
 781               	.cfi_endproc
 782               	.LFE62:
 783               	.sizeCFE_ES_GetPoolBuf, .-CFE_ES_GetPoolBuf
 784               	.align2
 785               	.globlCFE_ES_GetPoolBufInfo
 786               	.typeCFE_ES_GetPoolBufInfo, @function
 787               	CFE_ES_GetPoolBufInfo:
 788               	.LFB63:
 405:/home/simulink/cFS_FreeRTOS_seL4/cfe/fsw/cfe-core/src/es/cfe_esmempool.c **** 
 406:/home/simulink/cFS_FreeRTOS_seL4/cfe/fsw/cfe-core/src/es/cfe_esmempool.c **** /*
 407:/home/simulink/cFS_FreeRTOS_seL4/cfe/fsw/cfe-core/src/es/cfe_esmempool.c **** ** CFE_ES_GetPoolBufInfo gets the size of the specified block (if it exists).
 408:/home/simulink/cFS_FreeRTOS_seL4/cfe/fsw/cfe-core/src/es/cfe_esmempool.c **** */
 409:/home/simulink/cFS_FreeRTOS_seL4/cfe/fsw/cfe-core/src/es/cfe_esmempool.c **** int32 CFE_ES_GetPoolBufInfo(CFE_ES_MemHandle_t   Handle,
 410:/home/simulink/cFS_FreeRTOS_seL4/cfe/fsw/cfe-core/src/es/cfe_esmempool.c ****                             uint32             * BufPtr)
 411:/home/simulink/cFS_FreeRTOS_seL4/cfe/fsw/cfe-core/src/es/cfe_esmempool.c **** {
 789               	.loc 1 411 0
 790               	.cfi_startproc
 791 0646 518F      	subq.l #8,%sp
 792               	.cfi_def_cfa_offset 12
 412:/home/simulink/cFS_FreeRTOS_seL4/cfe/fsw/cfe-core/src/es/cfe_esmempool.c ****   Pool_t   *PoolPtr =  (Pool_t *)Handle;
 793               	.loc 1 412 0
 794 0648 2F6F 000C 	move.l 12(%sp),4(%sp)
 794      0004 
 413:/home/simulink/cFS_FreeRTOS_seL4/cfe/fsw/cfe-core/src/es/cfe_esmempool.c ****   BD_t     *BdPtr    = (BD_t *) ((uint8 *)BufPtr - sizeof(BD_t));
 795               	.loc 1 413 0
 796 064e 206F 0010 	move.l 16(%sp),%a0
68K GAS   			page 24


 797 0652 41E8 FFF4 	lea (-12,%a0),%a0
 798 0656 2E88      	move.l %a0,(%sp)
 414:/home/simulink/cFS_FreeRTOS_seL4/cfe/fsw/cfe-core/src/es/cfe_esmempool.c **** 
 415:/home/simulink/cFS_FreeRTOS_seL4/cfe/fsw/cfe-core/src/es/cfe_esmempool.c ****   if (PoolPtr != NULL)
 799               	.loc 1 415 0
 800 0658 4AAF 0004 	tst.l 4(%sp)
 801 065c 6726      	jeq .L42
 416:/home/simulink/cFS_FreeRTOS_seL4/cfe/fsw/cfe-core/src/es/cfe_esmempool.c ****   {
 417:/home/simulink/cFS_FreeRTOS_seL4/cfe/fsw/cfe-core/src/es/cfe_esmempool.c ****      if ( ((cpuaddr)BdPtr < Handle) || ((cpuaddr)BdPtr >= (PoolPtr->End - sizeof(BD_t))) )
 802               	.loc 1 417 0
 803 065e 2017      	move.l (%sp),%d0
 804 0660 B0AF 000C 	cmp.l 12(%sp),%d0
 805 0664 6514      	jcs .L43
 806               	.loc 1 417 0 is_stmt 0 discriminator 1
 807 0666 206F 0004 	move.l 4(%sp),%a0
 808 066a 2028 0008 	move.l 8(%a0),%d0
 809 066e 0680 FFFF 	add.l #-12,%d0
 809      FFF4 
 810 0674 2217      	move.l (%sp),%d1
 811 0676 B280      	cmp.l %d0,%d1
 812 0678 6514      	jcs .L44
 813               	.L43:
 418:/home/simulink/cFS_FreeRTOS_seL4/cfe/fsw/cfe-core/src/es/cfe_esmempool.c ****      {
 419:/home/simulink/cFS_FreeRTOS_seL4/cfe/fsw/cfe-core/src/es/cfe_esmempool.c ****          /* sanity check */
 420:/home/simulink/cFS_FreeRTOS_seL4/cfe/fsw/cfe-core/src/es/cfe_esmempool.c ****          return(CFE_ES_BUFFER_NOT_IN_POOL);
 814               	.loc 1 420 0 is_stmt 1
 815 067a 203C C400 	move.l #-1006632923,%d0
 815      0025 
 816 0680 6000 00CC 	jra .L45
 817               	.L42:
 421:/home/simulink/cFS_FreeRTOS_seL4/cfe/fsw/cfe-core/src/es/cfe_esmempool.c ****      }
 422:/home/simulink/cFS_FreeRTOS_seL4/cfe/fsw/cfe-core/src/es/cfe_esmempool.c ****   }
 423:/home/simulink/cFS_FreeRTOS_seL4/cfe/fsw/cfe-core/src/es/cfe_esmempool.c ****   else
 424:/home/simulink/cFS_FreeRTOS_seL4/cfe/fsw/cfe-core/src/es/cfe_esmempool.c ****   {
 425:/home/simulink/cFS_FreeRTOS_seL4/cfe/fsw/cfe-core/src/es/cfe_esmempool.c ****       /* bad handle */
 426:/home/simulink/cFS_FreeRTOS_seL4/cfe/fsw/cfe-core/src/es/cfe_esmempool.c ****       return(CFE_ES_ERR_MEM_HANDLE);
 818               	.loc 1 426 0
 819 0684 203C C400 	move.l #-1006632953,%d0
 819      0007 
 820 068a 6000 00C2 	jra .L45
 821               	.L44:
 427:/home/simulink/cFS_FreeRTOS_seL4/cfe/fsw/cfe-core/src/es/cfe_esmempool.c ****   }
 428:/home/simulink/cFS_FreeRTOS_seL4/cfe/fsw/cfe-core/src/es/cfe_esmempool.c ****   
 429:/home/simulink/cFS_FreeRTOS_seL4/cfe/fsw/cfe-core/src/es/cfe_esmempool.c ****   if (PoolPtr->UseMutex == CFE_ES_USE_MUTEX)
 822               	.loc 1 429 0
 823 068e 206F 0004 	move.l 4(%sp),%a0
 824 0692 2028 001C 	move.l 28(%a0),%d0
 825 0696 7201      	moveq #1,%d1
 826 0698 B280      	cmp.l %d0,%d1
 827 069a 6612      	jne .L46
 430:/home/simulink/cFS_FreeRTOS_seL4/cfe/fsw/cfe-core/src/es/cfe_esmempool.c ****   {
 431:/home/simulink/cFS_FreeRTOS_seL4/cfe/fsw/cfe-core/src/es/cfe_esmempool.c ****      OS_MutSemTake(PoolPtr->MutexId);
 828               	.loc 1 431 0
 829 069c 206F 0004 	move.l 4(%sp),%a0
 830 06a0 2028 0018 	move.l 24(%a0),%d0
 831 06a4 2F00      	move.l %d0,-(%sp)
 832               	.cfi_def_cfa_offset 16
68K GAS   			page 25


 833 06a6 4EB9 0000 	jsr OS_MutSemTake
 833      0000 
 834 06ac 588F      	addq.l #4,%sp
 835               	.cfi_def_cfa_offset 12
 836               	.L46:
 432:/home/simulink/cFS_FreeRTOS_seL4/cfe/fsw/cfe-core/src/es/cfe_esmempool.c ****   }
 433:/home/simulink/cFS_FreeRTOS_seL4/cfe/fsw/cfe-core/src/es/cfe_esmempool.c **** 
 434:/home/simulink/cFS_FreeRTOS_seL4/cfe/fsw/cfe-core/src/es/cfe_esmempool.c ****   /*
 435:/home/simulink/cFS_FreeRTOS_seL4/cfe/fsw/cfe-core/src/es/cfe_esmempool.c ****   ** Simple sanity checks for descriptor
 436:/home/simulink/cFS_FreeRTOS_seL4/cfe/fsw/cfe-core/src/es/cfe_esmempool.c ****   */
 437:/home/simulink/cFS_FreeRTOS_seL4/cfe/fsw/cfe-core/src/es/cfe_esmempool.c ****   
 438:/home/simulink/cFS_FreeRTOS_seL4/cfe/fsw/cfe-core/src/es/cfe_esmempool.c ****   /* If a block is no longer allocated, report an error */
 439:/home/simulink/cFS_FreeRTOS_seL4/cfe/fsw/cfe-core/src/es/cfe_esmempool.c ****   if (BdPtr->Allocated != CFE_ES_MEMORY_ALLOCATED)
 837               	.loc 1 439 0
 838 06ae 2057      	move.l (%sp),%a0
 839 06b0 3028 0002 	move.w 2(%a0),%d0
 840 06b4 3000      	move.w %d0,%d0
 841 06b6 0280 0000 	and.l #65535,%d0
 841      FFFF 
 842 06bc 0C80 0000 	cmp.l #43690,%d0
 842      AAAA 
 843 06c2 6728      	jeq .L47
 440:/home/simulink/cFS_FreeRTOS_seL4/cfe/fsw/cfe-core/src/es/cfe_esmempool.c ****   {
 441:/home/simulink/cFS_FreeRTOS_seL4/cfe/fsw/cfe-core/src/es/cfe_esmempool.c ****       if (PoolPtr->UseMutex == CFE_ES_USE_MUTEX)
 844               	.loc 1 441 0
 845 06c4 206F 0004 	move.l 4(%sp),%a0
 846 06c8 2028 001C 	move.l 28(%a0),%d0
 847 06cc 7201      	moveq #1,%d1
 848 06ce B280      	cmp.l %d0,%d1
 849 06d0 6612      	jne .L48
 442:/home/simulink/cFS_FreeRTOS_seL4/cfe/fsw/cfe-core/src/es/cfe_esmempool.c ****       {
 443:/home/simulink/cFS_FreeRTOS_seL4/cfe/fsw/cfe-core/src/es/cfe_esmempool.c ****          OS_MutSemGive(PoolPtr->MutexId);
 850               	.loc 1 443 0
 851 06d2 206F 0004 	move.l 4(%sp),%a0
 852 06d6 2028 0018 	move.l 24(%a0),%d0
 853 06da 2F00      	move.l %d0,-(%sp)
 854               	.cfi_def_cfa_offset 16
 855 06dc 4EB9 0000 	jsr OS_MutSemGive
 855      0000 
 856 06e2 588F      	addq.l #4,%sp
 857               	.cfi_def_cfa_offset 12
 858               	.L48:
 444:/home/simulink/cFS_FreeRTOS_seL4/cfe/fsw/cfe-core/src/es/cfe_esmempool.c ****       }
 445:/home/simulink/cFS_FreeRTOS_seL4/cfe/fsw/cfe-core/src/es/cfe_esmempool.c ****       return(CFE_ES_ERR_MEM_HANDLE);
 859               	.loc 1 445 0
 860 06e4 203C C400 	move.l #-1006632953,%d0
 860      0007 
 861 06ea 6062      	jra .L45
 862               	.L47:
 446:/home/simulink/cFS_FreeRTOS_seL4/cfe/fsw/cfe-core/src/es/cfe_esmempool.c ****   }
 447:/home/simulink/cFS_FreeRTOS_seL4/cfe/fsw/cfe-core/src/es/cfe_esmempool.c ****   
 448:/home/simulink/cFS_FreeRTOS_seL4/cfe/fsw/cfe-core/src/es/cfe_esmempool.c ****   if (BdPtr->CheckBits != CFE_ES_CHECK_PATTERN)
 863               	.loc 1 448 0
 864 06ec 2057      	move.l (%sp),%a0
 865 06ee 3010      	move.w (%a0),%d0
 866 06f0 3000      	move.w %d0,%d0
 867 06f2 0280 0000 	and.l #65535,%d0
68K GAS   			page 26


 867      FFFF 
 868 06f8 0C80 0000 	cmp.l #23130,%d0
 868      5A5A 
 869 06fe 6728      	jeq .L49
 449:/home/simulink/cFS_FreeRTOS_seL4/cfe/fsw/cfe-core/src/es/cfe_esmempool.c ****   {
 450:/home/simulink/cFS_FreeRTOS_seL4/cfe/fsw/cfe-core/src/es/cfe_esmempool.c ****       if (PoolPtr->UseMutex == CFE_ES_USE_MUTEX)
 870               	.loc 1 450 0
 871 0700 206F 0004 	move.l 4(%sp),%a0
 872 0704 2028 001C 	move.l 28(%a0),%d0
 873 0708 7201      	moveq #1,%d1
 874 070a B280      	cmp.l %d0,%d1
 875 070c 6612      	jne .L50
 451:/home/simulink/cFS_FreeRTOS_seL4/cfe/fsw/cfe-core/src/es/cfe_esmempool.c ****       {
 452:/home/simulink/cFS_FreeRTOS_seL4/cfe/fsw/cfe-core/src/es/cfe_esmempool.c ****          OS_MutSemGive(PoolPtr->MutexId);
 876               	.loc 1 452 0
 877 070e 206F 0004 	move.l 4(%sp),%a0
 878 0712 2028 0018 	move.l 24(%a0),%d0
 879 0716 2F00      	move.l %d0,-(%sp)
 880               	.cfi_def_cfa_offset 16
 881 0718 4EB9 0000 	jsr OS_MutSemGive
 881      0000 
 882 071e 588F      	addq.l #4,%sp
 883               	.cfi_def_cfa_offset 12
 884               	.L50:
 453:/home/simulink/cFS_FreeRTOS_seL4/cfe/fsw/cfe-core/src/es/cfe_esmempool.c ****       }
 454:/home/simulink/cFS_FreeRTOS_seL4/cfe/fsw/cfe-core/src/es/cfe_esmempool.c ****       return(CFE_ES_ERR_MEM_HANDLE);
 885               	.loc 1 454 0
 886 0720 203C C400 	move.l #-1006632953,%d0
 886      0007 
 887 0726 6026      	jra .L45
 888               	.L49:
 455:/home/simulink/cFS_FreeRTOS_seL4/cfe/fsw/cfe-core/src/es/cfe_esmempool.c ****   }
 456:/home/simulink/cFS_FreeRTOS_seL4/cfe/fsw/cfe-core/src/es/cfe_esmempool.c **** 
 457:/home/simulink/cFS_FreeRTOS_seL4/cfe/fsw/cfe-core/src/es/cfe_esmempool.c ****   
 458:/home/simulink/cFS_FreeRTOS_seL4/cfe/fsw/cfe-core/src/es/cfe_esmempool.c ****   if (PoolPtr->UseMutex == CFE_ES_USE_MUTEX)
 889               	.loc 1 458 0
 890 0728 206F 0004 	move.l 4(%sp),%a0
 891 072c 2028 001C 	move.l 28(%a0),%d0
 892 0730 7201      	moveq #1,%d1
 893 0732 B280      	cmp.l %d0,%d1
 894 0734 6612      	jne .L51
 459:/home/simulink/cFS_FreeRTOS_seL4/cfe/fsw/cfe-core/src/es/cfe_esmempool.c ****   {
 460:/home/simulink/cFS_FreeRTOS_seL4/cfe/fsw/cfe-core/src/es/cfe_esmempool.c ****      OS_MutSemGive(PoolPtr->MutexId);
 895               	.loc 1 460 0
 896 0736 206F 0004 	move.l 4(%sp),%a0
 897 073a 2028 0018 	move.l 24(%a0),%d0
 898 073e 2F00      	move.l %d0,-(%sp)
 899               	.cfi_def_cfa_offset 16
 900 0740 4EB9 0000 	jsr OS_MutSemGive
 900      0000 
 901 0746 588F      	addq.l #4,%sp
 902               	.cfi_def_cfa_offset 12
 903               	.L51:
 461:/home/simulink/cFS_FreeRTOS_seL4/cfe/fsw/cfe-core/src/es/cfe_esmempool.c ****   }
 462:/home/simulink/cFS_FreeRTOS_seL4/cfe/fsw/cfe-core/src/es/cfe_esmempool.c ****   return ((int32) (BdPtr->Size));
 904               	.loc 1 462 0
 905 0748 2057      	move.l (%sp),%a0
68K GAS   			page 27


 906 074a 2028 0004 	move.l 4(%a0),%d0
 907               	.L45:
 463:/home/simulink/cFS_FreeRTOS_seL4/cfe/fsw/cfe-core/src/es/cfe_esmempool.c **** }
 908               	.loc 1 463 0
 909 074e 508F      	addq.l #8,%sp
 910 0750 4E75      	rts
 911               	.cfi_endproc
 912               	.LFE63:
 913               	.sizeCFE_ES_GetPoolBufInfo, .-CFE_ES_GetPoolBufInfo
 914               	.section.rodata
 915               	.LC8:
 916 01b6 4346 455F 	.string"CFE_ES:putPoolBuf err:Invalid Memory Handle (0x%08lX) or memory block (0x%08lX).\n"
 916      4553 3A70 
 916      7574 506F 
 916      6F6C 4275 
 916      6620 6572 
 917               	.LC9:
 918 0208 4346 455F 	.string"CFE_ES:putPoolBuf err:Invalid Memory Handle (0x%08lX).\n"
 918      4553 3A70 
 918      7574 506F 
 918      6F6C 4275 
 918      6620 6572 
 919               	.LC10:
 920 0240 4346 455F 	.string"CFE_ES:putPoolBuf err:Deallocating unallocated memory block @ 0x%08lX\n"
 920      4553 3A70 
 920      7574 506F 
 920      6F6C 4275 
 920      6620 6572 
 921               	.LC11:
 922 0287 4346 455F 	.string"CFE_ES:putPoolBuf err:Invalid/Corrupted Memory descriptor @ 0x%08lX\n"
 922      4553 3A70 
 922      7574 506F 
 922      6F6C 4275 
 922      6620 6572 
 923               	.LC12:
 924 02cc 4346 455F 	.string"CFE_ES:putPoolBuf err:size(%d) > max(%d).\n"
 924      4553 3A70 
 924      7574 506F 
 924      6F6C 4275 
 924      6620 6572 
 925               	.text
 926               	.align2
 927               	.globlCFE_ES_PutPoolBuf
 928               	.typeCFE_ES_PutPoolBuf, @function
 929               	CFE_ES_PutPoolBuf:
 930               	.LFB64:
 464:/home/simulink/cFS_FreeRTOS_seL4/cfe/fsw/cfe-core/src/es/cfe_esmempool.c **** 
 465:/home/simulink/cFS_FreeRTOS_seL4/cfe/fsw/cfe-core/src/es/cfe_esmempool.c **** /*
 466:/home/simulink/cFS_FreeRTOS_seL4/cfe/fsw/cfe-core/src/es/cfe_esmempool.c **** ** CFE_ES_putPoolBuf returns a block back to the memory pool.
 467:/home/simulink/cFS_FreeRTOS_seL4/cfe/fsw/cfe-core/src/es/cfe_esmempool.c **** */
 468:/home/simulink/cFS_FreeRTOS_seL4/cfe/fsw/cfe-core/src/es/cfe_esmempool.c **** int32 CFE_ES_PutPoolBuf(CFE_ES_MemHandle_t   Handle,
 469:/home/simulink/cFS_FreeRTOS_seL4/cfe/fsw/cfe-core/src/es/cfe_esmempool.c ****                         uint32             * BufPtr)
 470:/home/simulink/cFS_FreeRTOS_seL4/cfe/fsw/cfe-core/src/es/cfe_esmempool.c **** {
 931               	.loc 1 470 0
 932               	.cfi_startproc
 933 0752 4FEF FFF0 	lea (-16,%sp),%sp
 934               	.cfi_def_cfa_offset 20
68K GAS   			page 28


 471:/home/simulink/cFS_FreeRTOS_seL4/cfe/fsw/cfe-core/src/es/cfe_esmempool.c ****   Pool_t   *PoolPtr =  (Pool_t *)Handle;
 935               	.loc 1 471 0
 936 0756 2F6F 0014 	move.l 20(%sp),12(%sp)
 936      000C 
 472:/home/simulink/cFS_FreeRTOS_seL4/cfe/fsw/cfe-core/src/es/cfe_esmempool.c ****   BD_t     *BdPtr    = (BD_t *) ((uint8 *)BufPtr - sizeof(BD_t));
 937               	.loc 1 472 0
 938 075c 206F 0018 	move.l 24(%sp),%a0
 939 0760 41E8 FFF4 	lea (-12,%a0),%a0
 940 0764 2F48 0008 	move.l %a0,8(%sp)
 473:/home/simulink/cFS_FreeRTOS_seL4/cfe/fsw/cfe-core/src/es/cfe_esmempool.c ****   uint32    Block;
 474:/home/simulink/cFS_FreeRTOS_seL4/cfe/fsw/cfe-core/src/es/cfe_esmempool.c ****   cpuaddr   BdAddr;
 475:/home/simulink/cFS_FreeRTOS_seL4/cfe/fsw/cfe-core/src/es/cfe_esmempool.c **** 
 476:/home/simulink/cFS_FreeRTOS_seL4/cfe/fsw/cfe-core/src/es/cfe_esmempool.c ****   BdAddr = (cpuaddr)BdPtr;
 941               	.loc 1 476 0
 942 0768 2F6F 0008 	move.l 8(%sp),4(%sp)
 942      0004 
 477:/home/simulink/cFS_FreeRTOS_seL4/cfe/fsw/cfe-core/src/es/cfe_esmempool.c **** 
 478:/home/simulink/cFS_FreeRTOS_seL4/cfe/fsw/cfe-core/src/es/cfe_esmempool.c ****   if (PoolPtr != NULL)
 943               	.loc 1 478 0
 944 076e 4AAF 000C 	tst.l 12(%sp)
 945 0772 6740      	jeq .L53
 479:/home/simulink/cFS_FreeRTOS_seL4/cfe/fsw/cfe-core/src/es/cfe_esmempool.c ****   {
 480:/home/simulink/cFS_FreeRTOS_seL4/cfe/fsw/cfe-core/src/es/cfe_esmempool.c ****      if ( (BdAddr < Handle) || (BdAddr >= (PoolPtr->End - sizeof(BD_t))) )
 946               	.loc 1 480 0
 947 0774 202F 0014 	move.l 20(%sp),%d0
 948 0778 B0AF 0004 	cmp.l 4(%sp),%d0
 949 077c 6214      	jhi .L54
 950               	.loc 1 480 0 is_stmt 0 discriminator 1
 951 077e 206F 000C 	move.l 12(%sp),%a0
 952 0782 2028 0008 	move.l 8(%a0),%d0
 953 0786 0680 FFFF 	add.l #-12,%d0
 953      FFF4 
 954 078c B0AF 0004 	cmp.l 4(%sp),%d0
 955 0790 623E      	jhi .L55
 956               	.L54:
 481:/home/simulink/cFS_FreeRTOS_seL4/cfe/fsw/cfe-core/src/es/cfe_esmempool.c ****      {
 482:/home/simulink/cFS_FreeRTOS_seL4/cfe/fsw/cfe-core/src/es/cfe_esmempool.c ****          /* sanity check */
 483:/home/simulink/cFS_FreeRTOS_seL4/cfe/fsw/cfe-core/src/es/cfe_esmempool.c ****          CFE_ES_WriteToSysLog("CFE_ES:putPoolBuf err:Invalid Memory Handle (0x%08lX) or memory bloc
 957               	.loc 1 483 0 is_stmt 1
 958 0792 2F2F 0004 	move.l 4(%sp),-(%sp)
 959               	.cfi_def_cfa_offset 24
 960 0796 2F2F 0018 	move.l 24(%sp),-(%sp)
 961               	.cfi_def_cfa_offset 28
 962 079a 4879 0000 	pea .LC8
 962      0000 
 963               	.cfi_def_cfa_offset 32
 964 07a0 4EB9 0000 	jsr CFE_ES_WriteToSysLog
 964      0000 
 965 07a6 4FEF 000C 	lea (12,%sp),%sp
 966               	.cfi_def_cfa_offset 20
 484:/home/simulink/cFS_FreeRTOS_seL4/cfe/fsw/cfe-core/src/es/cfe_esmempool.c ****                               (unsigned long) Handle, (unsigned long)BdAddr);
 485:/home/simulink/cFS_FreeRTOS_seL4/cfe/fsw/cfe-core/src/es/cfe_esmempool.c ****          return(CFE_ES_ERR_MEM_HANDLE);
 967               	.loc 1 485 0
 968 07aa 203C C400 	move.l #-1006632953,%d0
 968      0007 
 969 07b0 6000 01EA 	jra .L56
 970               	.L53:
68K GAS   			page 29


 486:/home/simulink/cFS_FreeRTOS_seL4/cfe/fsw/cfe-core/src/es/cfe_esmempool.c ****      }
 487:/home/simulink/cFS_FreeRTOS_seL4/cfe/fsw/cfe-core/src/es/cfe_esmempool.c ****   }
 488:/home/simulink/cFS_FreeRTOS_seL4/cfe/fsw/cfe-core/src/es/cfe_esmempool.c ****   else
 489:/home/simulink/cFS_FreeRTOS_seL4/cfe/fsw/cfe-core/src/es/cfe_esmempool.c ****   {
 490:/home/simulink/cFS_FreeRTOS_seL4/cfe/fsw/cfe-core/src/es/cfe_esmempool.c ****       /* sanity check */
 491:/home/simulink/cFS_FreeRTOS_seL4/cfe/fsw/cfe-core/src/es/cfe_esmempool.c ****       CFE_ES_WriteToSysLog("CFE_ES:putPoolBuf err:Invalid Memory Handle (0x%08lX).\n", (unsigned lo
 971               	.loc 1 491 0
 972 07b4 2F2F 0014 	move.l 20(%sp),-(%sp)
 973               	.cfi_def_cfa_offset 24
 974 07b8 4879 0000 	pea .LC9
 974      0000 
 975               	.cfi_def_cfa_offset 28
 976 07be 4EB9 0000 	jsr CFE_ES_WriteToSysLog
 976      0000 
 977 07c4 508F      	addq.l #8,%sp
 978               	.cfi_def_cfa_offset 20
 492:/home/simulink/cFS_FreeRTOS_seL4/cfe/fsw/cfe-core/src/es/cfe_esmempool.c ****       return(CFE_ES_ERR_MEM_HANDLE);
 979               	.loc 1 492 0
 980 07c6 203C C400 	move.l #-1006632953,%d0
 980      0007 
 981 07cc 6000 01CE 	jra .L56
 982               	.L55:
 493:/home/simulink/cFS_FreeRTOS_seL4/cfe/fsw/cfe-core/src/es/cfe_esmempool.c ****   }
 494:/home/simulink/cFS_FreeRTOS_seL4/cfe/fsw/cfe-core/src/es/cfe_esmempool.c **** 
 495:/home/simulink/cFS_FreeRTOS_seL4/cfe/fsw/cfe-core/src/es/cfe_esmempool.c ****   
 496:/home/simulink/cFS_FreeRTOS_seL4/cfe/fsw/cfe-core/src/es/cfe_esmempool.c ****   if (PoolPtr->UseMutex == CFE_ES_USE_MUTEX)
 983               	.loc 1 496 0
 984 07d0 206F 000C 	move.l 12(%sp),%a0
 985 07d4 2028 001C 	move.l 28(%a0),%d0
 986 07d8 7201      	moveq #1,%d1
 987 07da B280      	cmp.l %d0,%d1
 988 07dc 6612      	jne .L57
 497:/home/simulink/cFS_FreeRTOS_seL4/cfe/fsw/cfe-core/src/es/cfe_esmempool.c ****   {
 498:/home/simulink/cFS_FreeRTOS_seL4/cfe/fsw/cfe-core/src/es/cfe_esmempool.c ****      OS_MutSemTake(PoolPtr->MutexId);
 989               	.loc 1 498 0
 990 07de 206F 000C 	move.l 12(%sp),%a0
 991 07e2 2028 0018 	move.l 24(%a0),%d0
 992 07e6 2F00      	move.l %d0,-(%sp)
 993               	.cfi_def_cfa_offset 24
 994 07e8 4EB9 0000 	jsr OS_MutSemTake
 994      0000 
 995 07ee 588F      	addq.l #4,%sp
 996               	.cfi_def_cfa_offset 20
 997               	.L57:
 499:/home/simulink/cFS_FreeRTOS_seL4/cfe/fsw/cfe-core/src/es/cfe_esmempool.c ****   }
 500:/home/simulink/cFS_FreeRTOS_seL4/cfe/fsw/cfe-core/src/es/cfe_esmempool.c **** 
 501:/home/simulink/cFS_FreeRTOS_seL4/cfe/fsw/cfe-core/src/es/cfe_esmempool.c ****   /*
 502:/home/simulink/cFS_FreeRTOS_seL4/cfe/fsw/cfe-core/src/es/cfe_esmempool.c ****   ** Simple sanity checks for descriptor
 503:/home/simulink/cFS_FreeRTOS_seL4/cfe/fsw/cfe-core/src/es/cfe_esmempool.c ****   */
 504:/home/simulink/cFS_FreeRTOS_seL4/cfe/fsw/cfe-core/src/es/cfe_esmempool.c ****   
 505:/home/simulink/cFS_FreeRTOS_seL4/cfe/fsw/cfe-core/src/es/cfe_esmempool.c ****   /* Don't allow a block that has already been deallocated to be deallocated again */
 506:/home/simulink/cFS_FreeRTOS_seL4/cfe/fsw/cfe-core/src/es/cfe_esmempool.c ****   if (BdPtr->Allocated != CFE_ES_MEMORY_ALLOCATED)
 998               	.loc 1 506 0
 999 07f0 206F 0008 	move.l 8(%sp),%a0
 1000 07f4 3028 0002 	move.w 2(%a0),%d0
 1001 07f8 3000      	move.w %d0,%d0
 1002 07fa 0280 0000 	and.l #65535,%d0
68K GAS   			page 30


 1002      FFFF 
 1003 0800 0C80 0000 	cmp.l #43690,%d0
 1003      AAAA 
 1004 0806 6750      	jeq .L58
 507:/home/simulink/cFS_FreeRTOS_seL4/cfe/fsw/cfe-core/src/es/cfe_esmempool.c ****   {
 508:/home/simulink/cFS_FreeRTOS_seL4/cfe/fsw/cfe-core/src/es/cfe_esmempool.c ****       PoolPtr->CheckErrCntr++;
 1005               	.loc 1 508 0
 1006 0808 206F 000C 	move.l 12(%sp),%a0
 1007 080c 3028 0014 	move.w 20(%a0),%d0
 1008 0810 5280      	addq.l #1,%d0
 1009 0812 3000      	move.w %d0,%d0
 1010 0814 206F 000C 	move.l 12(%sp),%a0
 1011 0818 3140 0014 	move.w %d0,20(%a0)
 509:/home/simulink/cFS_FreeRTOS_seL4/cfe/fsw/cfe-core/src/es/cfe_esmempool.c ****       CFE_ES_WriteToSysLog("CFE_ES:putPoolBuf err:Deallocating unallocated memory block @ 0x%08lX\n
 1012               	.loc 1 509 0
 1013 081c 2F2F 0004 	move.l 4(%sp),-(%sp)
 1014               	.cfi_def_cfa_offset 24
 1015 0820 4879 0000 	pea .LC10
 1015      0000 
 1016               	.cfi_def_cfa_offset 28
 1017 0826 4EB9 0000 	jsr CFE_ES_WriteToSysLog
 1017      0000 
 1018 082c 508F      	addq.l #8,%sp
 1019               	.cfi_def_cfa_offset 20
 510:/home/simulink/cFS_FreeRTOS_seL4/cfe/fsw/cfe-core/src/es/cfe_esmempool.c ****       if (PoolPtr->UseMutex == CFE_ES_USE_MUTEX)
 1020               	.loc 1 510 0
 1021 082e 206F 000C 	move.l 12(%sp),%a0
 1022 0832 2028 001C 	move.l 28(%a0),%d0
 1023 0836 7201      	moveq #1,%d1
 1024 0838 B280      	cmp.l %d0,%d1
 1025 083a 6612      	jne .L59
 511:/home/simulink/cFS_FreeRTOS_seL4/cfe/fsw/cfe-core/src/es/cfe_esmempool.c ****       {
 512:/home/simulink/cFS_FreeRTOS_seL4/cfe/fsw/cfe-core/src/es/cfe_esmempool.c ****          OS_MutSemGive(PoolPtr->MutexId);
 1026               	.loc 1 512 0
 1027 083c 206F 000C 	move.l 12(%sp),%a0
 1028 0840 2028 0018 	move.l 24(%a0),%d0
 1029 0844 2F00      	move.l %d0,-(%sp)
 1030               	.cfi_def_cfa_offset 24
 1031 0846 4EB9 0000 	jsr OS_MutSemGive
 1031      0000 
 1032 084c 588F      	addq.l #4,%sp
 1033               	.cfi_def_cfa_offset 20
 1034               	.L59:
 513:/home/simulink/cFS_FreeRTOS_seL4/cfe/fsw/cfe-core/src/es/cfe_esmempool.c ****       }
 514:/home/simulink/cFS_FreeRTOS_seL4/cfe/fsw/cfe-core/src/es/cfe_esmempool.c ****       return(CFE_ES_ERR_MEM_HANDLE);
 1035               	.loc 1 514 0
 1036 084e 203C C400 	move.l #-1006632953,%d0
 1036      0007 
 1037 0854 6000 0146 	jra .L56
 1038               	.L58:
 515:/home/simulink/cFS_FreeRTOS_seL4/cfe/fsw/cfe-core/src/es/cfe_esmempool.c ****   }
 516:/home/simulink/cFS_FreeRTOS_seL4/cfe/fsw/cfe-core/src/es/cfe_esmempool.c ****   
 517:/home/simulink/cFS_FreeRTOS_seL4/cfe/fsw/cfe-core/src/es/cfe_esmempool.c ****   if (BdPtr->CheckBits != CFE_ES_CHECK_PATTERN)
 1039               	.loc 1 517 0
 1040 0858 206F 0008 	move.l 8(%sp),%a0
 1041 085c 3010      	move.w (%a0),%d0
 1042 085e 3000      	move.w %d0,%d0
68K GAS   			page 31


 1043 0860 0280 0000 	and.l #65535,%d0
 1043      FFFF 
 1044 0866 0C80 0000 	cmp.l #23130,%d0
 1044      5A5A 
 1045 086c 6750      	jeq .L60
 518:/home/simulink/cFS_FreeRTOS_seL4/cfe/fsw/cfe-core/src/es/cfe_esmempool.c ****   {
 519:/home/simulink/cFS_FreeRTOS_seL4/cfe/fsw/cfe-core/src/es/cfe_esmempool.c ****       PoolPtr->CheckErrCntr++;
 1046               	.loc 1 519 0
 1047 086e 206F 000C 	move.l 12(%sp),%a0
 1048 0872 3028 0014 	move.w 20(%a0),%d0
 1049 0876 5280      	addq.l #1,%d0
 1050 0878 3000      	move.w %d0,%d0
 1051 087a 206F 000C 	move.l 12(%sp),%a0
 1052 087e 3140 0014 	move.w %d0,20(%a0)
 520:/home/simulink/cFS_FreeRTOS_seL4/cfe/fsw/cfe-core/src/es/cfe_esmempool.c ****       CFE_ES_WriteToSysLog("CFE_ES:putPoolBuf err:Invalid/Corrupted Memory descriptor @ 0x%08lX\n",
 1053               	.loc 1 520 0
 1054 0882 2F2F 0004 	move.l 4(%sp),-(%sp)
 1055               	.cfi_def_cfa_offset 24
 1056 0886 4879 0000 	pea .LC11
 1056      0000 
 1057               	.cfi_def_cfa_offset 28
 1058 088c 4EB9 0000 	jsr CFE_ES_WriteToSysLog
 1058      0000 
 1059 0892 508F      	addq.l #8,%sp
 1060               	.cfi_def_cfa_offset 20
 521:/home/simulink/cFS_FreeRTOS_seL4/cfe/fsw/cfe-core/src/es/cfe_esmempool.c ****       if (PoolPtr->UseMutex == CFE_ES_USE_MUTEX)
 1061               	.loc 1 521 0
 1062 0894 206F 000C 	move.l 12(%sp),%a0
 1063 0898 2028 001C 	move.l 28(%a0),%d0
 1064 089c 7201      	moveq #1,%d1
 1065 089e B280      	cmp.l %d0,%d1
 1066 08a0 6612      	jne .L61
 522:/home/simulink/cFS_FreeRTOS_seL4/cfe/fsw/cfe-core/src/es/cfe_esmempool.c ****       {
 523:/home/simulink/cFS_FreeRTOS_seL4/cfe/fsw/cfe-core/src/es/cfe_esmempool.c ****          OS_MutSemGive(PoolPtr->MutexId);
 1067               	.loc 1 523 0
 1068 08a2 206F 000C 	move.l 12(%sp),%a0
 1069 08a6 2028 0018 	move.l 24(%a0),%d0
 1070 08aa 2F00      	move.l %d0,-(%sp)
 1071               	.cfi_def_cfa_offset 24
 1072 08ac 4EB9 0000 	jsr OS_MutSemGive
 1072      0000 
 1073 08b2 588F      	addq.l #4,%sp
 1074               	.cfi_def_cfa_offset 20
 1075               	.L61:
 524:/home/simulink/cFS_FreeRTOS_seL4/cfe/fsw/cfe-core/src/es/cfe_esmempool.c ****       }
 525:/home/simulink/cFS_FreeRTOS_seL4/cfe/fsw/cfe-core/src/es/cfe_esmempool.c ****       return(CFE_ES_ERR_MEM_HANDLE);
 1076               	.loc 1 525 0
 1077 08b4 203C C400 	move.l #-1006632953,%d0
 1077      0007 
 1078 08ba 6000 00E0 	jra .L56
 1079               	.L60:
 526:/home/simulink/cFS_FreeRTOS_seL4/cfe/fsw/cfe-core/src/es/cfe_esmempool.c ****   }
 527:/home/simulink/cFS_FreeRTOS_seL4/cfe/fsw/cfe-core/src/es/cfe_esmempool.c **** 
 528:/home/simulink/cFS_FreeRTOS_seL4/cfe/fsw/cfe-core/src/es/cfe_esmempool.c ****   Block = CFE_ES_GetBlockSize(PoolPtr, BdPtr->Size);
 1080               	.loc 1 528 0
 1081 08be 206F 0008 	move.l 8(%sp),%a0
 1082 08c2 2028 0004 	move.l 4(%a0),%d0
68K GAS   			page 32


 1083 08c6 2F00      	move.l %d0,-(%sp)
 1084               	.cfi_def_cfa_offset 24
 1085 08c8 2F2F 0010 	move.l 16(%sp),-(%sp)
 1086               	.cfi_def_cfa_offset 28
 1087 08cc 4EB9 0000 	jsr CFE_ES_GetBlockSize
 1087      0000 
 1088 08d2 508F      	addq.l #8,%sp
 1089               	.cfi_def_cfa_offset 20
 1090 08d4 2E80      	move.l %d0,(%sp)
 529:/home/simulink/cFS_FreeRTOS_seL4/cfe/fsw/cfe-core/src/es/cfe_esmempool.c ****   
 530:/home/simulink/cFS_FreeRTOS_seL4/cfe/fsw/cfe-core/src/es/cfe_esmempool.c ****   if (Block == 0xFFFFFFFF)
 1091               	.loc 1 530 0
 1092 08d6 70FF      	moveq #-1,%d0
 1093 08d8 B097      	cmp.l (%sp),%d0
 1094 08da 6662      	jne .L62
 531:/home/simulink/cFS_FreeRTOS_seL4/cfe/fsw/cfe-core/src/es/cfe_esmempool.c ****   {
 532:/home/simulink/cFS_FreeRTOS_seL4/cfe/fsw/cfe-core/src/es/cfe_esmempool.c ****       PoolPtr->CheckErrCntr++;
 1095               	.loc 1 532 0
 1096 08dc 206F 000C 	move.l 12(%sp),%a0
 1097 08e0 3028 0014 	move.w 20(%a0),%d0
 1098 08e4 5280      	addq.l #1,%d0
 1099 08e6 3000      	move.w %d0,%d0
 1100 08e8 206F 000C 	move.l 12(%sp),%a0
 1101 08ec 3140 0014 	move.w %d0,20(%a0)
 533:/home/simulink/cFS_FreeRTOS_seL4/cfe/fsw/cfe-core/src/es/cfe_esmempool.c ****       CFE_ES_WriteToSysLog("CFE_ES:putPoolBuf err:size(%d) > max(%d).\n",(int)BdPtr->Size,(int)Pool
 1102               	.loc 1 533 0
 1103 08f0 206F 000C 	move.l 12(%sp),%a0
 1104 08f4 2028 002C 	move.l 44(%a0),%d0
 1105 08f8 2200      	move.l %d0,%d1
 1106 08fa 206F 0008 	move.l 8(%sp),%a0
 1107 08fe 2028 0004 	move.l 4(%a0),%d0
 1108 0902 2F01      	move.l %d1,-(%sp)
 1109               	.cfi_def_cfa_offset 24
 1110 0904 2F00      	move.l %d0,-(%sp)
 1111               	.cfi_def_cfa_offset 28
 1112 0906 4879 0000 	pea .LC12
 1112      0000 
 1113               	.cfi_def_cfa_offset 32
 1114 090c 4EB9 0000 	jsr CFE_ES_WriteToSysLog
 1114      0000 
 1115 0912 4FEF 000C 	lea (12,%sp),%sp
 1116               	.cfi_def_cfa_offset 20
 534:/home/simulink/cFS_FreeRTOS_seL4/cfe/fsw/cfe-core/src/es/cfe_esmempool.c ****       if (PoolPtr->UseMutex == CFE_ES_USE_MUTEX)
 1117               	.loc 1 534 0
 1118 0916 206F 000C 	move.l 12(%sp),%a0
 1119 091a 2028 001C 	move.l 28(%a0),%d0
 1120 091e 7201      	moveq #1,%d1
 1121 0920 B280      	cmp.l %d0,%d1
 1122 0922 6612      	jne .L63
 535:/home/simulink/cFS_FreeRTOS_seL4/cfe/fsw/cfe-core/src/es/cfe_esmempool.c ****       {
 536:/home/simulink/cFS_FreeRTOS_seL4/cfe/fsw/cfe-core/src/es/cfe_esmempool.c ****          OS_MutSemGive(PoolPtr->MutexId);
 1123               	.loc 1 536 0
 1124 0924 206F 000C 	move.l 12(%sp),%a0
 1125 0928 2028 0018 	move.l 24(%a0),%d0
 1126 092c 2F00      	move.l %d0,-(%sp)
 1127               	.cfi_def_cfa_offset 24
 1128 092e 4EB9 0000 	jsr OS_MutSemGive
68K GAS   			page 33


 1128      0000 
 1129 0934 588F      	addq.l #4,%sp
 1130               	.cfi_def_cfa_offset 20
 1131               	.L63:
 537:/home/simulink/cFS_FreeRTOS_seL4/cfe/fsw/cfe-core/src/es/cfe_esmempool.c ****       }
 538:/home/simulink/cFS_FreeRTOS_seL4/cfe/fsw/cfe-core/src/es/cfe_esmempool.c ****       return(CFE_ES_ERR_MEM_HANDLE);
 1132               	.loc 1 538 0
 1133 0936 203C C400 	move.l #-1006632953,%d0
 1133      0007 
 1134 093c 605E      	jra .L56
 1135               	.L62:
 539:/home/simulink/cFS_FreeRTOS_seL4/cfe/fsw/cfe-core/src/es/cfe_esmempool.c ****   }
 540:/home/simulink/cFS_FreeRTOS_seL4/cfe/fsw/cfe-core/src/es/cfe_esmempool.c **** 
 541:/home/simulink/cFS_FreeRTOS_seL4/cfe/fsw/cfe-core/src/es/cfe_esmempool.c ****   BdPtr->Allocated = CFE_ES_MEMORY_DEALLOCATED;
 1136               	.loc 1 541 0
 1137 093e 206F 0008 	move.l 8(%sp),%a0
 1138 0942 303C DDDD 	move.w #-8739,%d0
 1139 0946 3140 0002 	move.w %d0,2(%a0)
 542:/home/simulink/cFS_FreeRTOS_seL4/cfe/fsw/cfe-core/src/es/cfe_esmempool.c ****   BdPtr->Next = (uint32 *)PoolPtr->SizeDescPtr->Top; /* Set by GetBlockSize call */
 1140               	.loc 1 542 0
 1141 094a 206F 000C 	move.l 12(%sp),%a0
 1142 094e 2068 0010 	move.l 16(%a0),%a0
 1143 0952 2010      	move.l (%a0),%d0
 1144 0954 206F 0008 	move.l 8(%sp),%a0
 1145 0958 2140 0008 	move.l %d0,8(%a0)
 543:/home/simulink/cFS_FreeRTOS_seL4/cfe/fsw/cfe-core/src/es/cfe_esmempool.c ****   PoolPtr->SizeDescPtr->Top = BdPtr;
 1146               	.loc 1 543 0
 1147 095c 206F 000C 	move.l 12(%sp),%a0
 1148 0960 2068 0010 	move.l 16(%a0),%a0
 1149 0964 20AF 0008 	move.l 8(%sp),(%a0)
 544:/home/simulink/cFS_FreeRTOS_seL4/cfe/fsw/cfe-core/src/es/cfe_esmempool.c ****   PoolPtr->SizeDescPtr->NumFree++;
 1150               	.loc 1 544 0
 1151 0968 206F 000C 	move.l 12(%sp),%a0
 1152 096c 2068 0010 	move.l 16(%a0),%a0
 1153 0970 2028 0008 	move.l 8(%a0),%d0
 1154 0974 5280      	addq.l #1,%d0
 1155 0976 2140 0008 	move.l %d0,8(%a0)
 545:/home/simulink/cFS_FreeRTOS_seL4/cfe/fsw/cfe-core/src/es/cfe_esmempool.c **** 
 546:/home/simulink/cFS_FreeRTOS_seL4/cfe/fsw/cfe-core/src/es/cfe_esmempool.c ****   if (PoolPtr->UseMutex == CFE_ES_USE_MUTEX)
 1156               	.loc 1 546 0
 1157 097a 206F 000C 	move.l 12(%sp),%a0
 1158 097e 2028 001C 	move.l 28(%a0),%d0
 1159 0982 7201      	moveq #1,%d1
 1160 0984 B280      	cmp.l %d0,%d1
 1161 0986 6612      	jne .L64
 547:/home/simulink/cFS_FreeRTOS_seL4/cfe/fsw/cfe-core/src/es/cfe_esmempool.c ****   {
 548:/home/simulink/cFS_FreeRTOS_seL4/cfe/fsw/cfe-core/src/es/cfe_esmempool.c ****      OS_MutSemGive(PoolPtr->MutexId);
 1162               	.loc 1 548 0
 1163 0988 206F 000C 	move.l 12(%sp),%a0
 1164 098c 2028 0018 	move.l 24(%a0),%d0
 1165 0990 2F00      	move.l %d0,-(%sp)
 1166               	.cfi_def_cfa_offset 24
 1167 0992 4EB9 0000 	jsr OS_MutSemGive
 1167      0000 
 1168 0998 588F      	addq.l #4,%sp
 1169               	.cfi_def_cfa_offset 20
 1170               	.L64:
68K GAS   			page 34


 549:/home/simulink/cFS_FreeRTOS_seL4/cfe/fsw/cfe-core/src/es/cfe_esmempool.c ****   }
 550:/home/simulink/cFS_FreeRTOS_seL4/cfe/fsw/cfe-core/src/es/cfe_esmempool.c ****   return (int32)Block;
 1171               	.loc 1 550 0
 1172 099a 2017      	move.l (%sp),%d0
 1173               	.L56:
 551:/home/simulink/cFS_FreeRTOS_seL4/cfe/fsw/cfe-core/src/es/cfe_esmempool.c **** }
 1174               	.loc 1 551 0
 1175 099c 4FEF 0010 	lea (16,%sp),%sp
 1176 09a0 4E75      	rts
 1177               	.cfi_endproc
 1178               	.LFE64:
 1179               	.sizeCFE_ES_PutPoolBuf, .-CFE_ES_PutPoolBuf
 1180               	.align2
 1181               	.globlCFE_ES_GetBlockSize
 1182               	.typeCFE_ES_GetBlockSize, @function
 1183               	CFE_ES_GetBlockSize:
 1184               	.LFB65:
 552:/home/simulink/cFS_FreeRTOS_seL4/cfe/fsw/cfe-core/src/es/cfe_esmempool.c **** 
 553:/home/simulink/cFS_FreeRTOS_seL4/cfe/fsw/cfe-core/src/es/cfe_esmempool.c **** /*
 554:/home/simulink/cFS_FreeRTOS_seL4/cfe/fsw/cfe-core/src/es/cfe_esmempool.c **** ** Function:
 555:/home/simulink/cFS_FreeRTOS_seL4/cfe/fsw/cfe-core/src/es/cfe_esmempool.c **** **   ES_GetBlockSize
 556:/home/simulink/cFS_FreeRTOS_seL4/cfe/fsw/cfe-core/src/es/cfe_esmempool.c **** **
 557:/home/simulink/cFS_FreeRTOS_seL4/cfe/fsw/cfe-core/src/es/cfe_esmempool.c **** ** Purpose:
 558:/home/simulink/cFS_FreeRTOS_seL4/cfe/fsw/cfe-core/src/es/cfe_esmempool.c **** **
 559:/home/simulink/cFS_FreeRTOS_seL4/cfe/fsw/cfe-core/src/es/cfe_esmempool.c **** */
 560:/home/simulink/cFS_FreeRTOS_seL4/cfe/fsw/cfe-core/src/es/cfe_esmempool.c **** uint32 CFE_ES_GetBlockSize(Pool_t  *PoolPtr, uint32 Size)
 561:/home/simulink/cFS_FreeRTOS_seL4/cfe/fsw/cfe-core/src/es/cfe_esmempool.c **** {
 1185               	.loc 1 561 0
 1186               	.cfi_startproc
 1187 09a2 598F      	subq.l #4,%sp
 1188               	.cfi_def_cfa_offset 8
 562:/home/simulink/cFS_FreeRTOS_seL4/cfe/fsw/cfe-core/src/es/cfe_esmempool.c ****   uint32 i=0;
 1189               	.loc 1 562 0
 1190 09a4 4297      	clr.l (%sp)
 563:/home/simulink/cFS_FreeRTOS_seL4/cfe/fsw/cfe-core/src/es/cfe_esmempool.c **** 
 564:/home/simulink/cFS_FreeRTOS_seL4/cfe/fsw/cfe-core/src/es/cfe_esmempool.c ****   PoolPtr->SizeDescPtr = NULL;
 1191               	.loc 1 564 0
 1192 09a6 206F 0008 	move.l 8(%sp),%a0
 1193 09aa 42A8 0010 	clr.l 16(%a0)
 565:/home/simulink/cFS_FreeRTOS_seL4/cfe/fsw/cfe-core/src/es/cfe_esmempool.c **** 
 566:/home/simulink/cFS_FreeRTOS_seL4/cfe/fsw/cfe-core/src/es/cfe_esmempool.c ****   /* If caller is requesting a size larger than the largest allowed */
 567:/home/simulink/cFS_FreeRTOS_seL4/cfe/fsw/cfe-core/src/es/cfe_esmempool.c ****   /* then return an error code */  
 568:/home/simulink/cFS_FreeRTOS_seL4/cfe/fsw/cfe-core/src/es/cfe_esmempool.c ****   if (Size > PoolPtr->SizeDesc[0].MaxSize)
 1194               	.loc 1 568 0
 1195 09ae 206F 0008 	move.l 8(%sp),%a0
 1196 09b2 2028 002C 	move.l 44(%a0),%d0
 1197 09b6 B0AF 000C 	cmp.l 12(%sp),%d0
 1198 09ba 6406      	jcc .L68
 569:/home/simulink/cFS_FreeRTOS_seL4/cfe/fsw/cfe-core/src/es/cfe_esmempool.c ****   {
 570:/home/simulink/cFS_FreeRTOS_seL4/cfe/fsw/cfe-core/src/es/cfe_esmempool.c ****         return(0xFFFFFFFF);
 1199               	.loc 1 570 0
 1200 09bc 70FF      	moveq #-1,%d0
 1201 09be 6046      	jra .L67
 1202               	.L70:
 571:/home/simulink/cFS_FreeRTOS_seL4/cfe/fsw/cfe-core/src/es/cfe_esmempool.c ****   }
 572:/home/simulink/cFS_FreeRTOS_seL4/cfe/fsw/cfe-core/src/es/cfe_esmempool.c ****   
 573:/home/simulink/cFS_FreeRTOS_seL4/cfe/fsw/cfe-core/src/es/cfe_esmempool.c ****   /* Locate the smallest size that holds the desired size */
68K GAS   			page 35


 574:/home/simulink/cFS_FreeRTOS_seL4/cfe/fsw/cfe-core/src/es/cfe_esmempool.c ****   while ((i < (CFE_ES_MAX_MEMPOOL_BLOCK_SIZES-1)) &&
 575:/home/simulink/cFS_FreeRTOS_seL4/cfe/fsw/cfe-core/src/es/cfe_esmempool.c ****          (Size <= PoolPtr->SizeDesc[i+1].MaxSize))
 576:/home/simulink/cFS_FreeRTOS_seL4/cfe/fsw/cfe-core/src/es/cfe_esmempool.c ****   {
 577:/home/simulink/cFS_FreeRTOS_seL4/cfe/fsw/cfe-core/src/es/cfe_esmempool.c ****         i++;
 1203               	.loc 1 577 0
 1204 09c0 5297      	addq.l #1,(%sp)
 1205               	.L68:
 574:/home/simulink/cFS_FreeRTOS_seL4/cfe/fsw/cfe-core/src/es/cfe_esmempool.c ****          (Size <= PoolPtr->SizeDesc[i+1].MaxSize))
 1206               	.loc 1 574 0
 1207 09c2 700F      	moveq #15,%d0
 1208 09c4 B097      	cmp.l (%sp),%d0
 1209 09c6 651A      	jcs .L69
 575:/home/simulink/cFS_FreeRTOS_seL4/cfe/fsw/cfe-core/src/es/cfe_esmempool.c ****   {
 1210               	.loc 1 575 0 discriminator 1
 1211 09c8 2017      	move.l (%sp),%d0
 1212 09ca 5280      	addq.l #1,%d0
 1213 09cc 222F 0008 	move.l 8(%sp),%d1
 1214 09d0 E988      	lsl.l #4,%d0
 1215 09d2 D081      	add.l %d1,%d0
 1216 09d4 2040      	move.l %d0,%a0
 1217 09d6 41E8 002C 	lea (44,%a0),%a0
 1218 09da 2010      	move.l (%a0),%d0
 574:/home/simulink/cFS_FreeRTOS_seL4/cfe/fsw/cfe-core/src/es/cfe_esmempool.c ****          (Size <= PoolPtr->SizeDesc[i+1].MaxSize))
 1219               	.loc 1 574 0 discriminator 1
 1220 09dc B0AF 000C 	cmp.l 12(%sp),%d0
 1221 09e0 64DE      	jcc .L70
 1222               	.L69:
 578:/home/simulink/cFS_FreeRTOS_seL4/cfe/fsw/cfe-core/src/es/cfe_esmempool.c ****   }
 579:/home/simulink/cFS_FreeRTOS_seL4/cfe/fsw/cfe-core/src/es/cfe_esmempool.c ****   
 580:/home/simulink/cFS_FreeRTOS_seL4/cfe/fsw/cfe-core/src/es/cfe_esmempool.c ****   PoolPtr->SizeDescPtr = &PoolPtr->SizeDesc[i];
 1223               	.loc 1 580 0
 1224 09e2 2017      	move.l (%sp),%d0
 1225 09e4 5480      	addq.l #2,%d0
 1226 09e6 E988      	lsl.l #4,%d0
 1227 09e8 D0AF 0008 	add.l 8(%sp),%d0
 1228 09ec 206F 0008 	move.l 8(%sp),%a0
 1229 09f0 2140 0010 	move.l %d0,16(%a0)
 581:/home/simulink/cFS_FreeRTOS_seL4/cfe/fsw/cfe-core/src/es/cfe_esmempool.c ****   return(PoolPtr->SizeDesc[i].MaxSize);
 1230               	.loc 1 581 0
 1231 09f4 222F 0008 	move.l 8(%sp),%d1
 1232 09f8 2017      	move.l (%sp),%d0
 1233 09fa E988      	lsl.l #4,%d0
 1234 09fc D081      	add.l %d1,%d0
 1235 09fe 2040      	move.l %d0,%a0
 1236 0a00 41E8 002C 	lea (44,%a0),%a0
 1237 0a04 2010      	move.l (%a0),%d0
 1238               	.L67:
 582:/home/simulink/cFS_FreeRTOS_seL4/cfe/fsw/cfe-core/src/es/cfe_esmempool.c **** }
 1239               	.loc 1 582 0
 1240 0a06 588F      	addq.l #4,%sp
 1241 0a08 4E75      	rts
 1242               	.cfi_endproc
 1243               	.LFE65:
 1244               	.sizeCFE_ES_GetBlockSize, .-CFE_ES_GetBlockSize
 1245               	.section.rodata
 1246               	.LC13:
 1247 02f7 4346 455F 	.string"CFE_ES:getMemPoolStats err:Bad handle(0x%08lX) AppId=%d\n"
68K GAS   			page 36


 1247      4553 3A67 
 1247      6574 4D65 
 1247      6D50 6F6F 
 1247      6C53 7461 
 1248               	.text
 1249               	.align2
 1250               	.globlCFE_ES_GetMemPoolStats
 1251               	.typeCFE_ES_GetMemPoolStats, @function
 1252               	CFE_ES_GetMemPoolStats:
 1253               	.LFB66:
 583:/home/simulink/cFS_FreeRTOS_seL4/cfe/fsw/cfe-core/src/es/cfe_esmempool.c **** 
 584:/home/simulink/cFS_FreeRTOS_seL4/cfe/fsw/cfe-core/src/es/cfe_esmempool.c **** 
 585:/home/simulink/cFS_FreeRTOS_seL4/cfe/fsw/cfe-core/src/es/cfe_esmempool.c **** /*
 586:/home/simulink/cFS_FreeRTOS_seL4/cfe/fsw/cfe-core/src/es/cfe_esmempool.c **** ** Function:
 587:/home/simulink/cFS_FreeRTOS_seL4/cfe/fsw/cfe-core/src/es/cfe_esmempool.c **** **   CFE_ES_GetMemPoolStats
 588:/home/simulink/cFS_FreeRTOS_seL4/cfe/fsw/cfe-core/src/es/cfe_esmempool.c **** **
 589:/home/simulink/cFS_FreeRTOS_seL4/cfe/fsw/cfe-core/src/es/cfe_esmempool.c **** ** Purpose:
 590:/home/simulink/cFS_FreeRTOS_seL4/cfe/fsw/cfe-core/src/es/cfe_esmempool.c **** **
 591:/home/simulink/cFS_FreeRTOS_seL4/cfe/fsw/cfe-core/src/es/cfe_esmempool.c **** */
 592:/home/simulink/cFS_FreeRTOS_seL4/cfe/fsw/cfe-core/src/es/cfe_esmempool.c **** int32 CFE_ES_GetMemPoolStats(CFE_ES_MemPoolStats_t *BufPtr,
 593:/home/simulink/cFS_FreeRTOS_seL4/cfe/fsw/cfe-core/src/es/cfe_esmempool.c ****                              CFE_ES_MemHandle_t  Handle)
 594:/home/simulink/cFS_FreeRTOS_seL4/cfe/fsw/cfe-core/src/es/cfe_esmempool.c **** {
 1254               	.loc 1 594 0
 1255               	.cfi_startproc
 1256 0a0a 4FEF FFF4 	lea (-12,%sp),%sp
 1257               	.cfi_def_cfa_offset 16
 1258 0a0e 2F02      	move.l %d2,-(%sp)
 1259               	.cfi_def_cfa_offset 20
 1260               	.cfi_offset 2, -20
 595:/home/simulink/cFS_FreeRTOS_seL4/cfe/fsw/cfe-core/src/es/cfe_esmempool.c ****     uint32    AppId = 0xFFFFFFFF;
 1261               	.loc 1 595 0
 1262 0a10 70FF      	moveq #-1,%d0
 1263 0a12 2F40 0004 	move.l %d0,4(%sp)
 596:/home/simulink/cFS_FreeRTOS_seL4/cfe/fsw/cfe-core/src/es/cfe_esmempool.c ****     Pool_t   *PoolPtr;
 597:/home/simulink/cFS_FreeRTOS_seL4/cfe/fsw/cfe-core/src/es/cfe_esmempool.c ****     uint32    i;
 598:/home/simulink/cFS_FreeRTOS_seL4/cfe/fsw/cfe-core/src/es/cfe_esmempool.c ****     
 599:/home/simulink/cFS_FreeRTOS_seL4/cfe/fsw/cfe-core/src/es/cfe_esmempool.c ****     PoolPtr = (Pool_t *)Handle;
 1264               	.loc 1 599 0
 1265 0a16 2F6F 0018 	move.l 24(%sp),8(%sp)
 1265      0008 
 600:/home/simulink/cFS_FreeRTOS_seL4/cfe/fsw/cfe-core/src/es/cfe_esmempool.c **** 
 601:/home/simulink/cFS_FreeRTOS_seL4/cfe/fsw/cfe-core/src/es/cfe_esmempool.c ****     if (Handle != (CFE_ES_MemHandle_t)PoolPtr->Start)
 1266               	.loc 1 601 0
 1267 0a1c 206F 0008 	move.l 8(%sp),%a0
 1268 0a20 2010      	move.l (%a0),%d0
 1269 0a22 B0AF 0018 	cmp.l 24(%sp),%d0
 1270 0a26 6732      	jeq .L72
 602:/home/simulink/cFS_FreeRTOS_seL4/cfe/fsw/cfe-core/src/es/cfe_esmempool.c ****     {
 603:/home/simulink/cFS_FreeRTOS_seL4/cfe/fsw/cfe-core/src/es/cfe_esmempool.c ****         CFE_ES_GetAppID(&AppId);
 1271               	.loc 1 603 0
 1272 0a28 200F      	move.l %sp,%d0
 1273 0a2a 5880      	addq.l #4,%d0
 1274 0a2c 2F00      	move.l %d0,-(%sp)
 1275               	.cfi_def_cfa_offset 24
 1276 0a2e 4EB9 0000 	jsr CFE_ES_GetAppID
 1276      0000 
 1277 0a34 588F      	addq.l #4,%sp
68K GAS   			page 37


 1278               	.cfi_def_cfa_offset 20
 604:/home/simulink/cFS_FreeRTOS_seL4/cfe/fsw/cfe-core/src/es/cfe_esmempool.c ****         CFE_ES_WriteToSysLog("CFE_ES:getMemPoolStats err:Bad handle(0x%08lX) AppId=%d\n", (unsigned
 1279               	.loc 1 604 0
 1280 0a36 202F 0004 	move.l 4(%sp),%d0
 1281 0a3a 2F00      	move.l %d0,-(%sp)
 1282               	.cfi_def_cfa_offset 24
 1283 0a3c 2F2F 001C 	move.l 28(%sp),-(%sp)
 1284               	.cfi_def_cfa_offset 28
 1285 0a40 4879 0000 	pea .LC13
 1285      0000 
 1286               	.cfi_def_cfa_offset 32
 1287 0a46 4EB9 0000 	jsr CFE_ES_WriteToSysLog
 1287      0000 
 1288 0a4c 4FEF 000C 	lea (12,%sp),%sp
 1289               	.cfi_def_cfa_offset 20
 605:/home/simulink/cFS_FreeRTOS_seL4/cfe/fsw/cfe-core/src/es/cfe_esmempool.c ****         return(CFE_ES_ERR_MEM_HANDLE);
 1290               	.loc 1 605 0
 1291 0a50 203C C400 	move.l #-1006632953,%d0
 1291      0007 
 1292 0a56 6000 00FA 	jra .L76
 1293               	.L72:
 606:/home/simulink/cFS_FreeRTOS_seL4/cfe/fsw/cfe-core/src/es/cfe_esmempool.c ****     }
 607:/home/simulink/cFS_FreeRTOS_seL4/cfe/fsw/cfe-core/src/es/cfe_esmempool.c **** 
 608:/home/simulink/cFS_FreeRTOS_seL4/cfe/fsw/cfe-core/src/es/cfe_esmempool.c ****     BufPtr->PoolSize = PoolPtr->Size;
 1294               	.loc 1 608 0
 1295 0a5a 206F 0008 	move.l 8(%sp),%a0
 1296 0a5e 2028 0004 	move.l 4(%a0),%d0
 1297 0a62 206F 0014 	move.l 20(%sp),%a0
 1298 0a66 2080      	move.l %d0,(%a0)
 609:/home/simulink/cFS_FreeRTOS_seL4/cfe/fsw/cfe-core/src/es/cfe_esmempool.c ****     BufPtr->NumBlocksRequested = PoolPtr->RequestCntr;
 1299               	.loc 1 609 0
 1300 0a68 206F 0008 	move.l 8(%sp),%a0
 1301 0a6c 3028 0016 	move.w 22(%a0),%d0
 1302 0a70 3000      	move.w %d0,%d0
 1303 0a72 0280 0000 	and.l #65535,%d0
 1303      FFFF 
 1304 0a78 206F 0014 	move.l 20(%sp),%a0
 1305 0a7c 2140 0004 	move.l %d0,4(%a0)
 610:/home/simulink/cFS_FreeRTOS_seL4/cfe/fsw/cfe-core/src/es/cfe_esmempool.c ****     BufPtr->CheckErrCtr = PoolPtr->CheckErrCntr;
 1306               	.loc 1 610 0
 1307 0a80 206F 0008 	move.l 8(%sp),%a0
 1308 0a84 3028 0014 	move.w 20(%a0),%d0
 1309 0a88 3000      	move.w %d0,%d0
 1310 0a8a 0280 0000 	and.l #65535,%d0
 1310      FFFF 
 1311 0a90 206F 0014 	move.l 20(%sp),%a0
 1312 0a94 2140 0008 	move.l %d0,8(%a0)
 611:/home/simulink/cFS_FreeRTOS_seL4/cfe/fsw/cfe-core/src/es/cfe_esmempool.c ****     BufPtr->NumFreeBytes = PoolPtr->End - ((cpuaddr)PoolPtr->Current);
 1313               	.loc 1 611 0
 1314 0a98 206F 0008 	move.l 8(%sp),%a0
 1315 0a9c 2228 0008 	move.l 8(%a0),%d1
 1316 0aa0 206F 0008 	move.l 8(%sp),%a0
 1317 0aa4 2028 000C 	move.l 12(%a0),%d0
 1318 0aa8 2401      	move.l %d1,%d2
 1319 0aaa 9480      	sub.l %d0,%d2
 1320 0aac 2002      	move.l %d2,%d0
 1321 0aae 206F 0014 	move.l 20(%sp),%a0
68K GAS   			page 38


 1322 0ab2 2140 000C 	move.l %d0,12(%a0)
 612:/home/simulink/cFS_FreeRTOS_seL4/cfe/fsw/cfe-core/src/es/cfe_esmempool.c ****     
 613:/home/simulink/cFS_FreeRTOS_seL4/cfe/fsw/cfe-core/src/es/cfe_esmempool.c ****     for (i=0; i<CFE_ES_MAX_MEMPOOL_BLOCK_SIZES; i++)
 1323               	.loc 1 613 0
 1324 0ab6 42AF 000C 	clr.l 12(%sp)
 1325 0aba 6000 008A 	jra .L74
 1326               	.L75:
 614:/home/simulink/cFS_FreeRTOS_seL4/cfe/fsw/cfe-core/src/es/cfe_esmempool.c ****     {
 615:/home/simulink/cFS_FreeRTOS_seL4/cfe/fsw/cfe-core/src/es/cfe_esmempool.c ****         BufPtr->BlockStats[i].BlockSize = PoolPtr->SizeDesc[i].MaxSize;
 1327               	.loc 1 615 0 discriminator 3
 1328 0abe 222F 0008 	move.l 8(%sp),%d1
 1329 0ac2 202F 000C 	move.l 12(%sp),%d0
 1330 0ac6 E988      	lsl.l #4,%d0
 1331 0ac8 D081      	add.l %d1,%d0
 1332 0aca 2040      	move.l %d0,%a0
 1333 0acc 41E8 002C 	lea (44,%a0),%a0
 1334 0ad0 2010      	move.l (%a0),%d0
 1335 0ad2 206F 0014 	move.l 20(%sp),%a0
 1336 0ad6 222F 000C 	move.l 12(%sp),%d1
 1337 0ada 740C      	moveq #12,%d2
 1338 0adc 4C02 1800 	muls.l %d2,%d1
 1339 0ae0 D288      	add.l %a0,%d1
 1340 0ae2 2041      	move.l %d1,%a0
 1341 0ae4 41E8 0010 	lea (16,%a0),%a0
 1342 0ae8 2080      	move.l %d0,(%a0)
 616:/home/simulink/cFS_FreeRTOS_seL4/cfe/fsw/cfe-core/src/es/cfe_esmempool.c ****         BufPtr->BlockStats[i].NumCreated = PoolPtr->SizeDesc[i].NumCreated;
 1343               	.loc 1 616 0 discriminator 3
 1344 0aea 222F 0008 	move.l 8(%sp),%d1
 1345 0aee 202F 000C 	move.l 12(%sp),%d0
 1346 0af2 E988      	lsl.l #4,%d0
 1347 0af4 D081      	add.l %d1,%d0
 1348 0af6 2040      	move.l %d0,%a0
 1349 0af8 41E8 0024 	lea (36,%a0),%a0
 1350 0afc 2010      	move.l (%a0),%d0
 1351 0afe 206F 0014 	move.l 20(%sp),%a0
 1352 0b02 222F 000C 	move.l 12(%sp),%d1
 1353 0b06 740C      	moveq #12,%d2
 1354 0b08 4C02 1800 	muls.l %d2,%d1
 1355 0b0c D288      	add.l %a0,%d1
 1356 0b0e 2041      	move.l %d1,%a0
 1357 0b10 41E8 0014 	lea (20,%a0),%a0
 1358 0b14 2080      	move.l %d0,(%a0)
 617:/home/simulink/cFS_FreeRTOS_seL4/cfe/fsw/cfe-core/src/es/cfe_esmempool.c ****         BufPtr->BlockStats[i].NumFree = PoolPtr->SizeDesc[i].NumFree;
 1359               	.loc 1 617 0 discriminator 3
 1360 0b16 222F 0008 	move.l 8(%sp),%d1
 1361 0b1a 202F 000C 	move.l 12(%sp),%d0
 1362 0b1e E988      	lsl.l #4,%d0
 1363 0b20 D081      	add.l %d1,%d0
 1364 0b22 2040      	move.l %d0,%a0
 1365 0b24 41E8 0028 	lea (40,%a0),%a0
 1366 0b28 2010      	move.l (%a0),%d0
 1367 0b2a 206F 0014 	move.l 20(%sp),%a0
 1368 0b2e 222F 000C 	move.l 12(%sp),%d1
 1369 0b32 740C      	moveq #12,%d2
 1370 0b34 4C02 1800 	muls.l %d2,%d1
 1371 0b38 D288      	add.l %a0,%d1
 1372 0b3a 2041      	move.l %d1,%a0
68K GAS   			page 39


 1373 0b3c 41E8 0018 	lea (24,%a0),%a0
 1374 0b40 2080      	move.l %d0,(%a0)
 613:/home/simulink/cFS_FreeRTOS_seL4/cfe/fsw/cfe-core/src/es/cfe_esmempool.c ****     {
 1375               	.loc 1 613 0 discriminator 3
 1376 0b42 52AF 000C 	addq.l #1,12(%sp)
 1377               	.L74:
 613:/home/simulink/cFS_FreeRTOS_seL4/cfe/fsw/cfe-core/src/es/cfe_esmempool.c ****     {
 1378               	.loc 1 613 0 is_stmt 0 discriminator 1
 1379 0b46 7010      	moveq #16,%d0
 1380 0b48 B0AF 000C 	cmp.l 12(%sp),%d0
 1381 0b4c 6400 FF70 	jcc .L75
 618:/home/simulink/cFS_FreeRTOS_seL4/cfe/fsw/cfe-core/src/es/cfe_esmempool.c ****     }
 619:/home/simulink/cFS_FreeRTOS_seL4/cfe/fsw/cfe-core/src/es/cfe_esmempool.c ****     
 620:/home/simulink/cFS_FreeRTOS_seL4/cfe/fsw/cfe-core/src/es/cfe_esmempool.c ****     return(CFE_SUCCESS);
 1382               	.loc 1 620 0 is_stmt 1
 1383 0b50 4280      	clr.l %d0
 1384               	.L76:
 621:/home/simulink/cFS_FreeRTOS_seL4/cfe/fsw/cfe-core/src/es/cfe_esmempool.c **** }
 1385               	.loc 1 621 0 discriminator 1
 1386 0b52 241F      	move.l (%sp)+,%d2
 1387 0b54 4FEF 000C 	lea (12,%sp),%sp
 1388 0b58 4E75      	rts
 1389               	.cfi_endproc
 1390               	.LFE66:
 1391               	.sizeCFE_ES_GetMemPoolStats, .-CFE_ES_GetMemPoolStats
 1392               	.align2
 1393               	.globlCFE_ES_ValidateHandle
 1394               	.typeCFE_ES_ValidateHandle, @function
 1395               	CFE_ES_ValidateHandle:
 1396               	.LFB67:
 622:/home/simulink/cFS_FreeRTOS_seL4/cfe/fsw/cfe-core/src/es/cfe_esmempool.c **** 
 623:/home/simulink/cFS_FreeRTOS_seL4/cfe/fsw/cfe-core/src/es/cfe_esmempool.c **** 
 624:/home/simulink/cFS_FreeRTOS_seL4/cfe/fsw/cfe-core/src/es/cfe_esmempool.c **** /*
 625:/home/simulink/cFS_FreeRTOS_seL4/cfe/fsw/cfe-core/src/es/cfe_esmempool.c **** ** Function:
 626:/home/simulink/cFS_FreeRTOS_seL4/cfe/fsw/cfe-core/src/es/cfe_esmempool.c **** **   CFE_ES_ValidateHandle
 627:/home/simulink/cFS_FreeRTOS_seL4/cfe/fsw/cfe-core/src/es/cfe_esmempool.c **** **
 628:/home/simulink/cFS_FreeRTOS_seL4/cfe/fsw/cfe-core/src/es/cfe_esmempool.c **** ** Purpose:
 629:/home/simulink/cFS_FreeRTOS_seL4/cfe/fsw/cfe-core/src/es/cfe_esmempool.c **** **   Insures that the handle passed in meets all of the requirements of a valid handle.
 630:/home/simulink/cFS_FreeRTOS_seL4/cfe/fsw/cfe-core/src/es/cfe_esmempool.c **** */
 631:/home/simulink/cFS_FreeRTOS_seL4/cfe/fsw/cfe-core/src/es/cfe_esmempool.c **** boolean CFE_ES_ValidateHandle(CFE_ES_MemHandle_t  Handle)
 632:/home/simulink/cFS_FreeRTOS_seL4/cfe/fsw/cfe-core/src/es/cfe_esmempool.c **** {
 1397               	.loc 1 632 0
 1398               	.cfi_startproc
 1399 0b5a 518F      	subq.l #8,%sp
 1400               	.cfi_def_cfa_offset 12
 633:/home/simulink/cFS_FreeRTOS_seL4/cfe/fsw/cfe-core/src/es/cfe_esmempool.c ****     boolean   HandleValid = TRUE;
 1401               	.loc 1 633 0
 1402 0b5c 7001      	moveq #1,%d0
 1403 0b5e 1F40 0007 	move.b %d0,7(%sp)
 634:/home/simulink/cFS_FreeRTOS_seL4/cfe/fsw/cfe-core/src/es/cfe_esmempool.c ****     Pool_t   *PoolPtr;
 635:/home/simulink/cFS_FreeRTOS_seL4/cfe/fsw/cfe-core/src/es/cfe_esmempool.c ****     
 636:/home/simulink/cFS_FreeRTOS_seL4/cfe/fsw/cfe-core/src/es/cfe_esmempool.c ****     PoolPtr = (Pool_t *)Handle;
 1404               	.loc 1 636 0
 1405 0b62 2EAF 000C 	move.l 12(%sp),(%sp)
 637:/home/simulink/cFS_FreeRTOS_seL4/cfe/fsw/cfe-core/src/es/cfe_esmempool.c **** 
 638:/home/simulink/cFS_FreeRTOS_seL4/cfe/fsw/cfe-core/src/es/cfe_esmempool.c ****     /* There are several tests to make sure the memory pool handle is valid */
 639:/home/simulink/cFS_FreeRTOS_seL4/cfe/fsw/cfe-core/src/es/cfe_esmempool.c ****    
68K GAS   			page 40


 640:/home/simulink/cFS_FreeRTOS_seL4/cfe/fsw/cfe-core/src/es/cfe_esmempool.c ****     if ( PoolPtr == NULL )
 1406               	.loc 1 640 0
 1407 0b66 4A97      	tst.l (%sp)
 1408 0b68 6608      	jne .L78
 641:/home/simulink/cFS_FreeRTOS_seL4/cfe/fsw/cfe-core/src/es/cfe_esmempool.c ****     /* Test #1) Handle must not be a NULL pointer */
 642:/home/simulink/cFS_FreeRTOS_seL4/cfe/fsw/cfe-core/src/es/cfe_esmempool.c ****     {
 643:/home/simulink/cFS_FreeRTOS_seL4/cfe/fsw/cfe-core/src/es/cfe_esmempool.c ****         HandleValid = FALSE;
 1409               	.loc 1 643 0
 1410 0b6a 4201      	clr.b %d1
 1411 0b6c 1F41 0007 	move.b %d1,7(%sp)
 1412 0b70 607A      	jra .L79
 1413               	.L78:
 644:/home/simulink/cFS_FreeRTOS_seL4/cfe/fsw/cfe-core/src/es/cfe_esmempool.c ****     }
 645:/home/simulink/cFS_FreeRTOS_seL4/cfe/fsw/cfe-core/src/es/cfe_esmempool.c **** #ifdef CFE_ES_MEMPOOL_ALIGNED
 646:/home/simulink/cFS_FreeRTOS_seL4/cfe/fsw/cfe-core/src/es/cfe_esmempool.c ****     /* Test #2) Handle must be an address on a 32-bit boundary */
 647:/home/simulink/cFS_FreeRTOS_seL4/cfe/fsw/cfe-core/src/es/cfe_esmempool.c ****     else if ((Handle & 0x03) != 0)
 1414               	.loc 1 647 0
 1415 0b72 7003      	moveq #3,%d0
 1416 0b74 C0AF 000C 	and.l 12(%sp),%d0
 1417 0b78 4A80      	tst.l %d0
 1418 0b7a 6708      	jeq .L80
 648:/home/simulink/cFS_FreeRTOS_seL4/cfe/fsw/cfe-core/src/es/cfe_esmempool.c ****     {
 649:/home/simulink/cFS_FreeRTOS_seL4/cfe/fsw/cfe-core/src/es/cfe_esmempool.c ****         HandleValid = FALSE;
 1419               	.loc 1 649 0
 1420 0b7c 4200      	clr.b %d0
 1421 0b7e 1F40 0007 	move.b %d0,7(%sp)
 1422 0b82 6068      	jra .L79
 1423               	.L80:
 650:/home/simulink/cFS_FreeRTOS_seL4/cfe/fsw/cfe-core/src/es/cfe_esmempool.c ****     }
 651:/home/simulink/cFS_FreeRTOS_seL4/cfe/fsw/cfe-core/src/es/cfe_esmempool.c **** #endif
 652:/home/simulink/cFS_FreeRTOS_seL4/cfe/fsw/cfe-core/src/es/cfe_esmempool.c ****     /* Test #3) Handle must be a valid memory address (allows both RAM and EEPROM) */
 653:/home/simulink/cFS_FreeRTOS_seL4/cfe/fsw/cfe-core/src/es/cfe_esmempool.c ****     else if (CFE_PSP_MemValidateRange(Handle, sizeof(Pool_t), CFE_PSP_MEM_ANY) != CFE_PSP_SUCCESS)
 1424               	.loc 1 653 0
 1425 0b84 4878 0003 	pea 3.w
 1426               	.cfi_def_cfa_offset 16
 1427 0b88 4878 0130 	pea 304.w
 1428               	.cfi_def_cfa_offset 20
 1429 0b8c 2F2F 0014 	move.l 20(%sp),-(%sp)
 1430               	.cfi_def_cfa_offset 24
 1431 0b90 4EB9 0000 	jsr CFE_PSP_MemValidateRange
 1431      0000 
 1432 0b96 4FEF 000C 	lea (12,%sp),%sp
 1433               	.cfi_def_cfa_offset 12
 1434 0b9a 4A80      	tst.l %d0
 1435 0b9c 6708      	jeq .L81
 654:/home/simulink/cFS_FreeRTOS_seL4/cfe/fsw/cfe-core/src/es/cfe_esmempool.c ****     {
 655:/home/simulink/cFS_FreeRTOS_seL4/cfe/fsw/cfe-core/src/es/cfe_esmempool.c ****         HandleValid = FALSE;
 1436               	.loc 1 655 0
 1437 0b9e 4201      	clr.b %d1
 1438 0ba0 1F41 0007 	move.b %d1,7(%sp)
 1439 0ba4 6046      	jra .L79
 1440               	.L81:
 656:/home/simulink/cFS_FreeRTOS_seL4/cfe/fsw/cfe-core/src/es/cfe_esmempool.c ****     }
 657:/home/simulink/cFS_FreeRTOS_seL4/cfe/fsw/cfe-core/src/es/cfe_esmempool.c ****     /* Test #4) First field of pool structure must be start address of Pool */
 658:/home/simulink/cFS_FreeRTOS_seL4/cfe/fsw/cfe-core/src/es/cfe_esmempool.c ****     else if (Handle != (CFE_ES_MemHandle_t)PoolPtr->Start)
 1441               	.loc 1 658 0
 1442 0ba6 2057      	move.l (%sp),%a0
68K GAS   			page 41


 1443 0ba8 2010      	move.l (%a0),%d0
 1444 0baa B0AF 000C 	cmp.l 12(%sp),%d0
 1445 0bae 6708      	jeq .L82
 659:/home/simulink/cFS_FreeRTOS_seL4/cfe/fsw/cfe-core/src/es/cfe_esmempool.c ****     {
 660:/home/simulink/cFS_FreeRTOS_seL4/cfe/fsw/cfe-core/src/es/cfe_esmempool.c ****         HandleValid = FALSE;
 1446               	.loc 1 660 0
 1447 0bb0 4200      	clr.b %d0
 1448 0bb2 1F40 0007 	move.b %d0,7(%sp)
 1449 0bb6 6034      	jra .L79
 1450               	.L82:
 661:/home/simulink/cFS_FreeRTOS_seL4/cfe/fsw/cfe-core/src/es/cfe_esmempool.c ****     }
 662:/home/simulink/cFS_FreeRTOS_seL4/cfe/fsw/cfe-core/src/es/cfe_esmempool.c ****     /* Test #5) Size of memory pool must be a multiple of 4 bytes */
 663:/home/simulink/cFS_FreeRTOS_seL4/cfe/fsw/cfe-core/src/es/cfe_esmempool.c ****     else if ((PoolPtr->Size & 0x03) != 0)
 1451               	.loc 1 663 0
 1452 0bb8 2057      	move.l (%sp),%a0
 1453 0bba 2028 0004 	move.l 4(%a0),%d0
 1454 0bbe 7203      	moveq #3,%d1
 1455 0bc0 C081      	and.l %d1,%d0
 1456 0bc2 4A80      	tst.l %d0
 1457 0bc4 6708      	jeq .L83
 664:/home/simulink/cFS_FreeRTOS_seL4/cfe/fsw/cfe-core/src/es/cfe_esmempool.c ****     {
 665:/home/simulink/cFS_FreeRTOS_seL4/cfe/fsw/cfe-core/src/es/cfe_esmempool.c ****         HandleValid = FALSE;
 1458               	.loc 1 665 0
 1459 0bc6 4200      	clr.b %d0
 1460 0bc8 1F40 0007 	move.b %d0,7(%sp)
 1461 0bcc 601E      	jra .L79
 1462               	.L83:
 666:/home/simulink/cFS_FreeRTOS_seL4/cfe/fsw/cfe-core/src/es/cfe_esmempool.c ****     }
 667:/home/simulink/cFS_FreeRTOS_seL4/cfe/fsw/cfe-core/src/es/cfe_esmempool.c ****     /* Test #6) Pool structure must have End ptr equal to Start plus Size */
 668:/home/simulink/cFS_FreeRTOS_seL4/cfe/fsw/cfe-core/src/es/cfe_esmempool.c ****     else if ((*PoolPtr->Start + PoolPtr->Size) != PoolPtr->End)
 1463               	.loc 1 668 0
 1464 0bce 2057      	move.l (%sp),%a0
 1465 0bd0 2050      	move.l (%a0),%a0
 1466 0bd2 2210      	move.l (%a0),%d1
 1467 0bd4 2057      	move.l (%sp),%a0
 1468 0bd6 2028 0004 	move.l 4(%a0),%d0
 1469 0bda D280      	add.l %d0,%d1
 1470 0bdc 2057      	move.l (%sp),%a0
 1471 0bde 2028 0008 	move.l 8(%a0),%d0
 1472 0be2 B081      	cmp.l %d1,%d0
 1473 0be4 6706      	jeq .L79
 669:/home/simulink/cFS_FreeRTOS_seL4/cfe/fsw/cfe-core/src/es/cfe_esmempool.c ****     {
 670:/home/simulink/cFS_FreeRTOS_seL4/cfe/fsw/cfe-core/src/es/cfe_esmempool.c ****         /*
 671:/home/simulink/cFS_FreeRTOS_seL4/cfe/fsw/cfe-core/src/es/cfe_esmempool.c ****         ** The test above deserves some explanation (it fooled me - LSW)
 672:/home/simulink/cFS_FreeRTOS_seL4/cfe/fsw/cfe-core/src/es/cfe_esmempool.c ****         **
 673:/home/simulink/cFS_FreeRTOS_seL4/cfe/fsw/cfe-core/src/es/cfe_esmempool.c ****         ** The first field in a Pool_t structure is "uint32 *Start;"
 674:/home/simulink/cFS_FreeRTOS_seL4/cfe/fsw/cfe-core/src/es/cfe_esmempool.c ****         ** The Start field is set to point to the beginning of the Pool structure.
 675:/home/simulink/cFS_FreeRTOS_seL4/cfe/fsw/cfe-core/src/es/cfe_esmempool.c ****         ** Therefore, the Start field actually points to itself.
 676:/home/simulink/cFS_FreeRTOS_seL4/cfe/fsw/cfe-core/src/es/cfe_esmempool.c ****         ** So, (PoolPtr->Start) is the Start address in the form of a pointer to a uint32.
 677:/home/simulink/cFS_FreeRTOS_seL4/cfe/fsw/cfe-core/src/es/cfe_esmempool.c ****         ** And, (*PoolPtr->Start) is the Start address in the form of a uint32.
 678:/home/simulink/cFS_FreeRTOS_seL4/cfe/fsw/cfe-core/src/es/cfe_esmempool.c ****         ** Thus, (*PoolPtr->Start) has same result as ((uint32) PoolPtr->Start).
 679:/home/simulink/cFS_FreeRTOS_seL4/cfe/fsw/cfe-core/src/es/cfe_esmempool.c ****         */
 680:/home/simulink/cFS_FreeRTOS_seL4/cfe/fsw/cfe-core/src/es/cfe_esmempool.c ****         HandleValid = FALSE;
 1474               	.loc 1 680 0
 1475 0be6 4201      	clr.b %d1
 1476 0be8 1F41 0007 	move.b %d1,7(%sp)
 1477               	.L79:
68K GAS   			page 42


 681:/home/simulink/cFS_FreeRTOS_seL4/cfe/fsw/cfe-core/src/es/cfe_esmempool.c ****     }
 682:/home/simulink/cFS_FreeRTOS_seL4/cfe/fsw/cfe-core/src/es/cfe_esmempool.c ****     
 683:/home/simulink/cFS_FreeRTOS_seL4/cfe/fsw/cfe-core/src/es/cfe_esmempool.c ****     return(HandleValid);
 1478               	.loc 1 683 0
 1479 0bec 102F 0007 	move.b 7(%sp),%d0
 684:/home/simulink/cFS_FreeRTOS_seL4/cfe/fsw/cfe-core/src/es/cfe_esmempool.c **** }
 1480               	.loc 1 684 0
 1481 0bf0 508F      	addq.l #8,%sp
 1482 0bf2 4E75      	rts
 1483               	.cfi_endproc
 1484               	.LFE67:
 1485               	.sizeCFE_ES_ValidateHandle, .-CFE_ES_ValidateHandle
 1486               	.Letext0:
 1487               	.file 2 "/home/simulink/cFS_FreeRTOS_seL4/osal/src/os/inc/common_types.h"
 1488               	.file 3 "/home/simulink/development/rtems/5/m68k-rtems5/include/machine/_default_types.h"
 1489               	.file 4 "/home/simulink/development/rtems/5/m68k-rtems5/include/machine/_types.h"
 1490               	.file 5 "/home/simulink/development/rtems/5/m68k-rtems5/include/sys/lock.h"
 1491               	.file 6 "/home/simulink/development/rtems/5/m68k-rtems5/include/sys/_types.h"
 1492               	.file 7 "/home/simulink/development/rtems/5/lib/gcc/m68k-rtems5/7.3.0/include/stddef.h"
 1493               	.file 8 "/home/simulink/development/rtems/5/m68k-rtems5/include/sys/reent.h"
 1494               	.file 9 "/home/simulink/development/rtems/5/m68k-rtems5/include/stdlib.h"
 1495               	.file 10 "/home/simulink/development/rtems/5/m68k-rtems5/include/time.h"
 1496               	.file 11 "/home/simulink/cFS_FreeRTOS_seL4/cfe/fsw/cfe-core/src/inc/cfe_es.h"
 1497               	.file 12 "/home/simulink/cFS_FreeRTOS_seL4/cfe/fsw/cfe-core/src/inc/ccsds.h"
 1498               	.file 13 "/home/simulink/cFS_FreeRTOS_seL4/cfe/fsw/cfe-core/src/inc/cfe_sb.h"
 1499               	.file 14 "/home/simulink/cFS_FreeRTOS_seL4/cfe/fsw/cfe-core/src/es/cfe_esmempool.h"
 1500               	.file 15 "/home/simulink/cFS_FreeRTOS_seL4/cfe/fsw/cfe-core/src/inc/cfe_es_msg.h"
 1501               	.file 16 "/home/simulink/cFS_FreeRTOS_seL4/cfe/fsw/cfe-core/src/es/cfe_es_task.h"
 1502               	.section.debug_info,"",@progbits
 1503               	.Ldebug_info0:
 1504 0000 0000 15DB 	.long0x15db
 1505 0004 0004      	.word0x4
 1506 0006 0000 0000 	.long.Ldebug_abbrev0
 1507 000a 04        	.byte0x4
 1508 000b 01        	.uleb128 0x1
 1509 000c 0000 0000 	.long.LASF298
 1510 0010 0C        	.byte0xc
 1511 0011 0000 0000 	.long.LASF299
 1512 0015 0000 0000 	.long.LASF300
 1513 0019 0000 0000 	.long.Ltext0
 1514 001d 0000 0BF4 	.long.Letext0-.Ltext0
 1515 0021 0000 0000 	.long.Ldebug_line0
 1516 0025 02        	.uleb128 0x2
 1517 0026 0000 0000 	.long.LASF3
 1518 002a 02        	.byte0x2
 1519 002b E6        	.byte0xe6
 1520 002c 0000 0030 	.long0x30
 1521 0030 03        	.uleb128 0x3
 1522 0031 01        	.byte0x1
 1523 0032 08        	.byte0x8
 1524 0033 0000 0000 	.long.LASF0
 1525 0037 03        	.uleb128 0x3
 1526 0038 01        	.byte0x1
 1527 0039 06        	.byte0x6
 1528 003a 0000 0000 	.long.LASF1
 1529 003e 03        	.uleb128 0x3
 1530 003f 02        	.byte0x2
68K GAS   			page 43


 1531 0040 05        	.byte0x5
 1532 0041 0000 0000 	.long.LASF2
 1533 0045 02        	.uleb128 0x2
 1534 0046 0000 0000 	.long.LASF4
 1535 004a 02        	.byte0x2
 1536 004b E9        	.byte0xe9
 1537 004c 0000 0050 	.long0x50
 1538 0050 03        	.uleb128 0x3
 1539 0051 04        	.byte0x4
 1540 0052 05        	.byte0x5
 1541 0053 0000 0000 	.long.LASF5
 1542 0057 03        	.uleb128 0x3
 1543 0058 08        	.byte0x8
 1544 0059 05        	.byte0x5
 1545 005a 0000 0000 	.long.LASF6
 1546 005e 02        	.uleb128 0x2
 1547 005f 0000 0000 	.long.LASF7
 1548 0063 02        	.byte0x2
 1549 0064 EB        	.byte0xeb
 1550 0065 0000 0030 	.long0x30
 1551 0069 02        	.uleb128 0x2
 1552 006a 0000 0000 	.long.LASF8
 1553 006e 02        	.byte0x2
 1554 006f EC        	.byte0xec
 1555 0070 0000 0074 	.long0x74
 1556 0074 03        	.uleb128 0x3
 1557 0075 02        	.byte0x2
 1558 0076 07        	.byte0x7
 1559 0077 0000 0000 	.long.LASF9
 1560 007b 02        	.uleb128 0x2
 1561 007c 0000 0000 	.long.LASF10
 1562 0080 02        	.byte0x2
 1563 0081 ED        	.byte0xed
 1564 0082 0000 0086 	.long0x86
 1565 0086 03        	.uleb128 0x3
 1566 0087 04        	.byte0x4
 1567 0088 07        	.byte0x7
 1568 0089 0000 0000 	.long.LASF11
 1569 008d 03        	.uleb128 0x3
 1570 008e 08        	.byte0x8
 1571 008f 07        	.byte0x7
 1572 0090 0000 0000 	.long.LASF12
 1573 0094 02        	.uleb128 0x2
 1574 0095 0000 0000 	.long.LASF13
 1575 0099 02        	.byte0x2
 1576 009a F0        	.byte0xf0
 1577 009b 0000 0086 	.long0x86
 1578 009f 04        	.uleb128 0x4
 1579 00a0 0000 0000 	.long.LASF14
 1580 00a4 02        	.byte0x2
 1581 00a5 0131      	.word0x131
 1582 00a7 0000 0025 	.long0x25
 1583 00ab 03        	.uleb128 0x3
 1584 00ac 01        	.byte0x1
 1585 00ad 06        	.byte0x6
 1586 00ae 0000 0000 	.long.LASF15
 1587 00b2 05        	.uleb128 0x5
68K GAS   			page 44


 1588 00b3 0000 00AB 	.long0xab
 1589 00b7 06        	.uleb128 0x6
 1590 00b8 0000 00AB 	.long0xab
 1591 00bc 0000 00C7 	.long0xc7
 1592 00c0 07        	.uleb128 0x7
 1593 00c1 0000 0086 	.long0x86
 1594 00c5 13        	.byte0x13
 1595 00c6 00        	.byte0
 1596 00c7 08        	.uleb128 0x8
 1597 00c8 04        	.byte0x4
 1598 00c9 02        	.uleb128 0x2
 1599 00ca 0000 0000 	.long.LASF16
 1600 00ce 03        	.byte0x3
 1601 00cf 67        	.byte0x67
 1602 00d0 0000 0057 	.long0x57
 1603 00d4 03        	.uleb128 0x3
 1604 00d5 08        	.byte0x8
 1605 00d6 04        	.byte0x4
 1606 00d7 0000 0000 	.long.LASF17
 1607 00db 02        	.uleb128 0x2
 1608 00dc 0000 0000 	.long.LASF18
 1609 00e0 04        	.byte0x4
 1610 00e1 10        	.byte0x10
 1611 00e2 0000 00C9 	.long0xc9
 1612 00e6 02        	.uleb128 0x2
 1613 00e7 0000 0000 	.long.LASF19
 1614 00eb 04        	.byte0x4
 1615 00ec 16        	.byte0x16
 1616 00ed 0000 00DB 	.long0xdb
 1617 00f1 09        	.uleb128 0x9
 1618 00f2 04        	.byte0x4
 1619 00f3 05        	.byte0x5
 1620 00f4 696E 7400 	.string"int"
 1621 00f8 0A        	.uleb128 0xa
 1622 00f9 0000 0000 	.long.LASF23
 1623 00fd 08        	.byte0x8
 1624 00fe 05        	.byte0x5
 1625 00ff 28        	.byte0x28
 1626 0100 0000 011D 	.long0x11d
 1627 0104 0B        	.uleb128 0xb
 1628 0105 0000 0000 	.long.LASF20
 1629 0109 05        	.byte0x5
 1630 010a 29        	.byte0x29
 1631 010b 0000 011D 	.long0x11d
 1632 010f 00        	.byte0
 1633 0110 0B        	.uleb128 0xb
 1634 0111 0000 0000 	.long.LASF21
 1635 0115 05        	.byte0x5
 1636 0116 2A        	.byte0x2a
 1637 0117 0000 011D 	.long0x11d
 1638 011b 04        	.byte0x4
 1639 011c 00        	.byte0
 1640 011d 03        	.uleb128 0x3
 1641 011e 04        	.byte0x4
 1642 011f 07        	.byte0x7
 1643 0120 0000 0000 	.long.LASF22
 1644 0124 0A        	.uleb128 0xa
68K GAS   			page 45


 1645 0125 0000 0000 	.long.LASF24
 1646 0129 14        	.byte0x14
 1647 012a 05        	.byte0x5
 1648 012b 2D        	.byte0x2d
 1649 012c 0000 0161 	.long0x161
 1650 0130 0B        	.uleb128 0xb
 1651 0131 0000 0000 	.long.LASF25
 1652 0135 05        	.byte0x5
 1653 0136 2E        	.byte0x2e
 1654 0137 0000 00F8 	.long0xf8
 1655 013b 00        	.byte0
 1656 013c 0B        	.uleb128 0xb
 1657 013d 0000 0000 	.long.LASF26
 1658 0141 05        	.byte0x5
 1659 0142 2F        	.byte0x2f
 1660 0143 0000 0166 	.long0x166
 1661 0147 08        	.byte0x8
 1662 0148 0B        	.uleb128 0xb
 1663 0149 0000 0000 	.long.LASF27
 1664 014d 05        	.byte0x5
 1665 014e 30        	.byte0x30
 1666 014f 0000 0171 	.long0x171
 1667 0153 0C        	.byte0xc
 1668 0154 0B        	.uleb128 0xb
 1669 0155 0000 0000 	.long.LASF28
 1670 0159 05        	.byte0x5
 1671 015a 31        	.byte0x31
 1672 015b 0000 0177 	.long0x177
 1673 015f 10        	.byte0x10
 1674 0160 00        	.byte0
 1675 0161 0C        	.uleb128 0xc
 1676 0162 0000 0000 	.long.LASF29
 1677 0166 0D        	.uleb128 0xd
 1678 0167 04        	.byte0x4
 1679 0168 0000 0161 	.long0x161
 1680 016c 0C        	.uleb128 0xc
 1681 016d 0000 0000 	.long.LASF30
 1682 0171 0D        	.uleb128 0xd
 1683 0172 04        	.byte0x4
 1684 0173 0000 016C 	.long0x16c
 1685 0177 0D        	.uleb128 0xd
 1686 0178 04        	.byte0x4
 1687 0179 0000 00B2 	.long0xb2
 1688 017d 0A        	.uleb128 0xa
 1689 017e 0000 0000 	.long.LASF31
 1690 0182 14        	.byte0x14
 1691 0183 05        	.byte0x5
 1692 0184 34        	.byte0x34
 1693 0185 0000 0196 	.long0x196
 1694 0189 0B        	.uleb128 0xb
 1695 018a 0000 0000 	.long.LASF32
 1696 018e 05        	.byte0x5
 1697 018f 35        	.byte0x35
 1698 0190 0000 0124 	.long0x124
 1699 0194 00        	.byte0
 1700 0195 00        	.byte0
 1701 0196 0A        	.uleb128 0xa
68K GAS   			page 46


 1702 0197 0000 0000 	.long.LASF33
 1703 019b 18        	.byte0x18
 1704 019c 05        	.byte0x5
 1705 019d 38        	.byte0x38
 1706 019e 0000 01BB 	.long0x1bb
 1707 01a2 0B        	.uleb128 0xb
 1708 01a3 0000 0000 	.long.LASF34
 1709 01a7 05        	.byte0x5
 1710 01a8 39        	.byte0x39
 1711 01a9 0000 017D 	.long0x17d
 1712 01ad 00        	.byte0
 1713 01ae 0B        	.uleb128 0xb
 1714 01af 0000 0000 	.long.LASF35
 1715 01b3 05        	.byte0x5
 1716 01b4 3A        	.byte0x3a
 1717 01b5 0000 011D 	.long0x11d
 1718 01b9 14        	.byte0x14
 1719 01ba 00        	.byte0
 1720 01bb 04        	.uleb128 0x4
 1721 01bc 0000 0000 	.long.LASF36
 1722 01c0 05        	.byte0x5
 1723 01c1 0171      	.word0x171
 1724 01c3 0000 0196 	.long0x196
 1725 01c7 02        	.uleb128 0x2
 1726 01c8 0000 0000 	.long.LASF37
 1727 01cc 06        	.byte0x6
 1728 01cd 91        	.byte0x91
 1729 01ce 0000 0050 	.long0x50
 1730 01d2 04        	.uleb128 0x4
 1731 01d3 0000 0000 	.long.LASF38
 1732 01d7 07        	.byte0x7
 1733 01d8 0165      	.word0x165
 1734 01da 0000 011D 	.long0x11d
 1735 01de 0E        	.uleb128 0xe
 1736 01df 04        	.byte0x4
 1737 01e0 06        	.byte0x6
 1738 01e1 A6        	.byte0xa6
 1739 01e2 0000 01FD 	.long0x1fd
 1740 01e6 0F        	.uleb128 0xf
 1741 01e7 0000 0000 	.long.LASF39
 1742 01eb 06        	.byte0x6
 1743 01ec A8        	.byte0xa8
 1744 01ed 0000 01D2 	.long0x1d2
 1745 01f1 0F        	.uleb128 0xf
 1746 01f2 0000 0000 	.long.LASF40
 1747 01f6 06        	.byte0x6
 1748 01f7 A9        	.byte0xa9
 1749 01f8 0000 01FD 	.long0x1fd
 1750 01fc 00        	.byte0
 1751 01fd 06        	.uleb128 0x6
 1752 01fe 0000 0030 	.long0x30
 1753 0202 0000 020D 	.long0x20d
 1754 0206 07        	.uleb128 0x7
 1755 0207 0000 0086 	.long0x86
 1756 020b 03        	.byte0x3
 1757 020c 00        	.byte0
 1758 020d 10        	.uleb128 0x10
68K GAS   			page 47


 1759 020e 08        	.byte0x8
 1760 020f 06        	.byte0x6
 1761 0210 A3        	.byte0xa3
 1762 0211 0000 022E 	.long0x22e
 1763 0215 0B        	.uleb128 0xb
 1764 0216 0000 0000 	.long.LASF41
 1765 021a 06        	.byte0x6
 1766 021b A5        	.byte0xa5
 1767 021c 0000 00F1 	.long0xf1
 1768 0220 00        	.byte0
 1769 0221 0B        	.uleb128 0xb
 1770 0222 0000 0000 	.long.LASF42
 1771 0226 06        	.byte0x6
 1772 0227 AA        	.byte0xaa
 1773 0228 0000 01DE 	.long0x1de
 1774 022c 04        	.byte0x4
 1775 022d 00        	.byte0
 1776 022e 02        	.uleb128 0x2
 1777 022f 0000 0000 	.long.LASF43
 1778 0233 06        	.byte0x6
 1779 0234 AB        	.byte0xab
 1780 0235 0000 020D 	.long0x20d
 1781 0239 02        	.uleb128 0x2
 1782 023a 0000 0000 	.long.LASF44
 1783 023e 06        	.byte0x6
 1784 023f AF        	.byte0xaf
 1785 0240 0000 01BB 	.long0x1bb
 1786 0244 02        	.uleb128 0x2
 1787 0245 0000 0000 	.long.LASF45
 1788 0249 08        	.byte0x8
 1789 024a 16        	.byte0x16
 1790 024b 0000 0086 	.long0x86
 1791 024f 0A        	.uleb128 0xa
 1792 0250 0000 0000 	.long.LASF46
 1793 0254 18        	.byte0x18
 1794 0255 08        	.byte0x8
 1795 0256 2F        	.byte0x2f
 1796 0257 0000 02A2 	.long0x2a2
 1797 025b 0B        	.uleb128 0xb
 1798 025c 0000 0000 	.long.LASF47
 1799 0260 08        	.byte0x8
 1800 0261 31        	.byte0x31
 1801 0262 0000 02A2 	.long0x2a2
 1802 0266 00        	.byte0
 1803 0267 11        	.uleb128 0x11
 1804 0268 5F6B 00   	.string"_k"
 1805 026b 08        	.byte0x8
 1806 026c 32        	.byte0x32
 1807 026d 0000 00F1 	.long0xf1
 1808 0271 04        	.byte0x4
 1809 0272 0B        	.uleb128 0xb
 1810 0273 0000 0000 	.long.LASF48
 1811 0277 08        	.byte0x8
 1812 0278 32        	.byte0x32
 1813 0279 0000 00F1 	.long0xf1
 1814 027d 08        	.byte0x8
 1815 027e 0B        	.uleb128 0xb
68K GAS   			page 48


 1816 027f 0000 0000 	.long.LASF49
 1817 0283 08        	.byte0x8
 1818 0284 32        	.byte0x32
 1819 0285 0000 00F1 	.long0xf1
 1820 0289 0C        	.byte0xc
 1821 028a 0B        	.uleb128 0xb
 1822 028b 0000 0000 	.long.LASF50
 1823 028f 08        	.byte0x8
 1824 0290 32        	.byte0x32
 1825 0291 0000 00F1 	.long0xf1
 1826 0295 10        	.byte0x10
 1827 0296 11        	.uleb128 0x11
 1828 0297 5F78 00   	.string"_x"
 1829 029a 08        	.byte0x8
 1830 029b 33        	.byte0x33
 1831 029c 0000 02A8 	.long0x2a8
 1832 02a0 14        	.byte0x14
 1833 02a1 00        	.byte0
 1834 02a2 0D        	.uleb128 0xd
 1835 02a3 04        	.byte0x4
 1836 02a4 0000 024F 	.long0x24f
 1837 02a8 06        	.uleb128 0x6
 1838 02a9 0000 0244 	.long0x244
 1839 02ad 0000 02B8 	.long0x2b8
 1840 02b1 07        	.uleb128 0x7
 1841 02b2 0000 0086 	.long0x86
 1842 02b6 00        	.byte0
 1843 02b7 00        	.byte0
 1844 02b8 0A        	.uleb128 0xa
 1845 02b9 0000 0000 	.long.LASF51
 1846 02bd 24        	.byte0x24
 1847 02be 08        	.byte0x8
 1848 02bf 37        	.byte0x37
 1849 02c0 0000 0331 	.long0x331
 1850 02c4 0B        	.uleb128 0xb
 1851 02c5 0000 0000 	.long.LASF52
 1852 02c9 08        	.byte0x8
 1853 02ca 39        	.byte0x39
 1854 02cb 0000 00F1 	.long0xf1
 1855 02cf 00        	.byte0
 1856 02d0 0B        	.uleb128 0xb
 1857 02d1 0000 0000 	.long.LASF53
 1858 02d5 08        	.byte0x8
 1859 02d6 3A        	.byte0x3a
 1860 02d7 0000 00F1 	.long0xf1
 1861 02db 04        	.byte0x4
 1862 02dc 0B        	.uleb128 0xb
 1863 02dd 0000 0000 	.long.LASF54
 1864 02e1 08        	.byte0x8
 1865 02e2 3B        	.byte0x3b
 1866 02e3 0000 00F1 	.long0xf1
 1867 02e7 08        	.byte0x8
 1868 02e8 0B        	.uleb128 0xb
 1869 02e9 0000 0000 	.long.LASF55
 1870 02ed 08        	.byte0x8
 1871 02ee 3C        	.byte0x3c
 1872 02ef 0000 00F1 	.long0xf1
68K GAS   			page 49


 1873 02f3 0C        	.byte0xc
 1874 02f4 0B        	.uleb128 0xb
 1875 02f5 0000 0000 	.long.LASF56
 1876 02f9 08        	.byte0x8
 1877 02fa 3D        	.byte0x3d
 1878 02fb 0000 00F1 	.long0xf1
 1879 02ff 10        	.byte0x10
 1880 0300 0B        	.uleb128 0xb
 1881 0301 0000 0000 	.long.LASF57
 1882 0305 08        	.byte0x8
 1883 0306 3E        	.byte0x3e
 1884 0307 0000 00F1 	.long0xf1
 1885 030b 14        	.byte0x14
 1886 030c 0B        	.uleb128 0xb
 1887 030d 0000 0000 	.long.LASF58
 1888 0311 08        	.byte0x8
 1889 0312 3F        	.byte0x3f
 1890 0313 0000 00F1 	.long0xf1
 1891 0317 18        	.byte0x18
 1892 0318 0B        	.uleb128 0xb
 1893 0319 0000 0000 	.long.LASF59
 1894 031d 08        	.byte0x8
 1895 031e 40        	.byte0x40
 1896 031f 0000 00F1 	.long0xf1
 1897 0323 1C        	.byte0x1c
 1898 0324 0B        	.uleb128 0xb
 1899 0325 0000 0000 	.long.LASF60
 1900 0329 08        	.byte0x8
 1901 032a 41        	.byte0x41
 1902 032b 0000 00F1 	.long0xf1
 1903 032f 20        	.byte0x20
 1904 0330 00        	.byte0
 1905 0331 12        	.uleb128 0x12
 1906 0332 0000 0000 	.long.LASF61
 1907 0336 0108      	.word0x108
 1908 0338 08        	.byte0x8
 1909 0339 4A        	.byte0x4a
 1910 033a 0000 0371 	.long0x371
 1911 033e 0B        	.uleb128 0xb
 1912 033f 0000 0000 	.long.LASF62
 1913 0343 08        	.byte0x8
 1914 0344 4B        	.byte0x4b
 1915 0345 0000 0371 	.long0x371
 1916 0349 00        	.byte0
 1917 034a 0B        	.uleb128 0xb
 1918 034b 0000 0000 	.long.LASF63
 1919 034f 08        	.byte0x8
 1920 0350 4C        	.byte0x4c
 1921 0351 0000 0371 	.long0x371
 1922 0355 80        	.byte0x80
 1923 0356 13        	.uleb128 0x13
 1924 0357 0000 0000 	.long.LASF64
 1925 035b 08        	.byte0x8
 1926 035c 4E        	.byte0x4e
 1927 035d 0000 0244 	.long0x244
 1928 0361 0100      	.word0x100
 1929 0363 13        	.uleb128 0x13
68K GAS   			page 50


 1930 0364 0000 0000 	.long.LASF65
 1931 0368 08        	.byte0x8
 1932 0369 51        	.byte0x51
 1933 036a 0000 0244 	.long0x244
 1934 036e 0104      	.word0x104
 1935 0370 00        	.byte0
 1936 0371 06        	.uleb128 0x6
 1937 0372 0000 00C7 	.long0xc7
 1938 0376 0000 0381 	.long0x381
 1939 037a 07        	.uleb128 0x7
 1940 037b 0000 0086 	.long0x86
 1941 037f 1F        	.byte0x1f
 1942 0380 00        	.byte0
 1943 0381 12        	.uleb128 0x12
 1944 0382 0000 0000 	.long.LASF66
 1945 0386 0190      	.word0x190
 1946 0388 08        	.byte0x8
 1947 0389 5D        	.byte0x5d
 1948 038a 0000 03BF 	.long0x3bf
 1949 038e 0B        	.uleb128 0xb
 1950 038f 0000 0000 	.long.LASF47
 1951 0393 08        	.byte0x8
 1952 0394 5E        	.byte0x5e
 1953 0395 0000 03BF 	.long0x3bf
 1954 0399 00        	.byte0
 1955 039a 0B        	.uleb128 0xb
 1956 039b 0000 0000 	.long.LASF67
 1957 039f 08        	.byte0x8
 1958 03a0 5F        	.byte0x5f
 1959 03a1 0000 00F1 	.long0xf1
 1960 03a5 04        	.byte0x4
 1961 03a6 0B        	.uleb128 0xb
 1962 03a7 0000 0000 	.long.LASF68
 1963 03ab 08        	.byte0x8
 1964 03ac 61        	.byte0x61
 1965 03ad 0000 03C5 	.long0x3c5
 1966 03b1 08        	.byte0x8
 1967 03b2 0B        	.uleb128 0xb
 1968 03b3 0000 0000 	.long.LASF61
 1969 03b7 08        	.byte0x8
 1970 03b8 62        	.byte0x62
 1971 03b9 0000 0331 	.long0x331
 1972 03bd 88        	.byte0x88
 1973 03be 00        	.byte0
 1974 03bf 0D        	.uleb128 0xd
 1975 03c0 04        	.byte0x4
 1976 03c1 0000 0381 	.long0x381
 1977 03c5 06        	.uleb128 0x6
 1978 03c6 0000 03D5 	.long0x3d5
 1979 03ca 0000 03D5 	.long0x3d5
 1980 03ce 07        	.uleb128 0x7
 1981 03cf 0000 0086 	.long0x86
 1982 03d3 1F        	.byte0x1f
 1983 03d4 00        	.byte0
 1984 03d5 0D        	.uleb128 0xd
 1985 03d6 04        	.byte0x4
 1986 03d7 0000 03DB 	.long0x3db
68K GAS   			page 51


 1987 03db 14        	.uleb128 0x14
 1988 03dc 0A        	.uleb128 0xa
 1989 03dd 0000 0000 	.long.LASF69
 1990 03e1 08        	.byte0x8
 1991 03e2 08        	.byte0x8
 1992 03e3 75        	.byte0x75
 1993 03e4 0000 0401 	.long0x401
 1994 03e8 0B        	.uleb128 0xb
 1995 03e9 0000 0000 	.long.LASF70
 1996 03ed 08        	.byte0x8
 1997 03ee 76        	.byte0x76
 1998 03ef 0000 0401 	.long0x401
 1999 03f3 00        	.byte0
 2000 03f4 0B        	.uleb128 0xb
 2001 03f5 0000 0000 	.long.LASF71
 2002 03f9 08        	.byte0x8
 2003 03fa 77        	.byte0x77
 2004 03fb 0000 00F1 	.long0xf1
 2005 03ff 04        	.byte0x4
 2006 0400 00        	.byte0
 2007 0401 0D        	.uleb128 0xd
 2008 0402 04        	.byte0x4
 2009 0403 0000 0030 	.long0x30
 2010 0407 0A        	.uleb128 0xa
 2011 0408 0000 0000 	.long.LASF72
 2012 040c 80        	.byte0x80
 2013 040d 08        	.byte0x8
 2014 040e B5        	.byte0xb5
 2015 040f 0000 0531 	.long0x531
 2016 0413 11        	.uleb128 0x11
 2017 0414 5F70 00   	.string"_p"
 2018 0417 08        	.byte0x8
 2019 0418 B6        	.byte0xb6
 2020 0419 0000 0401 	.long0x401
 2021 041d 00        	.byte0
 2022 041e 11        	.uleb128 0x11
 2023 041f 5F72 00   	.string"_r"
 2024 0422 08        	.byte0x8
 2025 0423 B7        	.byte0xb7
 2026 0424 0000 00F1 	.long0xf1
 2027 0428 04        	.byte0x4
 2028 0429 11        	.uleb128 0x11
 2029 042a 5F77 00   	.string"_w"
 2030 042d 08        	.byte0x8
 2031 042e B8        	.byte0xb8
 2032 042f 0000 00F1 	.long0xf1
 2033 0433 08        	.byte0x8
 2034 0434 0B        	.uleb128 0xb
 2035 0435 0000 0000 	.long.LASF73
 2036 0439 08        	.byte0x8
 2037 043a B9        	.byte0xb9
 2038 043b 0000 003E 	.long0x3e
 2039 043f 0C        	.byte0xc
 2040 0440 0B        	.uleb128 0xb
 2041 0441 0000 0000 	.long.LASF74
 2042 0445 08        	.byte0x8
 2043 0446 BA        	.byte0xba
68K GAS   			page 52


 2044 0447 0000 003E 	.long0x3e
 2045 044b 0E        	.byte0xe
 2046 044c 11        	.uleb128 0x11
 2047 044d 5F62 6600 	.string"_bf"
 2048 0451 08        	.byte0x8
 2049 0452 BB        	.byte0xbb
 2050 0453 0000 03DC 	.long0x3dc
 2051 0457 10        	.byte0x10
 2052 0458 0B        	.uleb128 0xb
 2053 0459 0000 0000 	.long.LASF75
 2054 045d 08        	.byte0x8
 2055 045e BC        	.byte0xbc
 2056 045f 0000 00F1 	.long0xf1
 2057 0463 18        	.byte0x18
 2058 0464 0B        	.uleb128 0xb
 2059 0465 0000 0000 	.long.LASF76
 2060 0469 08        	.byte0x8
 2061 046a C3        	.byte0xc3
 2062 046b 0000 00C7 	.long0xc7
 2063 046f 1C        	.byte0x1c
 2064 0470 0B        	.uleb128 0xb
 2065 0471 0000 0000 	.long.LASF77
 2066 0475 08        	.byte0x8
 2067 0476 C5        	.byte0xc5
 2068 0477 0000 0668 	.long0x668
 2069 047b 20        	.byte0x20
 2070 047c 0B        	.uleb128 0xb
 2071 047d 0000 0000 	.long.LASF78
 2072 0481 08        	.byte0x8
 2073 0482 C7        	.byte0xc7
 2074 0483 0000 068C 	.long0x68c
 2075 0487 24        	.byte0x24
 2076 0488 0B        	.uleb128 0xb
 2077 0489 0000 0000 	.long.LASF79
 2078 048d 08        	.byte0x8
 2079 048e CA        	.byte0xca
 2080 048f 0000 06B0 	.long0x6b0
 2081 0493 28        	.byte0x28
 2082 0494 0B        	.uleb128 0xb
 2083 0495 0000 0000 	.long.LASF80
 2084 0499 08        	.byte0x8
 2085 049a CB        	.byte0xcb
 2086 049b 0000 06CA 	.long0x6ca
 2087 049f 2C        	.byte0x2c
 2088 04a0 11        	.uleb128 0x11
 2089 04a1 5F75 6200 	.string"_ub"
 2090 04a5 08        	.byte0x8
 2091 04a6 CE        	.byte0xce
 2092 04a7 0000 03DC 	.long0x3dc
 2093 04ab 30        	.byte0x30
 2094 04ac 11        	.uleb128 0x11
 2095 04ad 5F75 7000 	.string"_up"
 2096 04b1 08        	.byte0x8
 2097 04b2 CF        	.byte0xcf
 2098 04b3 0000 0401 	.long0x401
 2099 04b7 38        	.byte0x38
 2100 04b8 11        	.uleb128 0x11
68K GAS   			page 53


 2101 04b9 5F75 7200 	.string"_ur"
 2102 04bd 08        	.byte0x8
 2103 04be D0        	.byte0xd0
 2104 04bf 0000 00F1 	.long0xf1
 2105 04c3 3C        	.byte0x3c
 2106 04c4 0B        	.uleb128 0xb
 2107 04c5 0000 0000 	.long.LASF81
 2108 04c9 08        	.byte0x8
 2109 04ca D3        	.byte0xd3
 2110 04cb 0000 06D0 	.long0x6d0
 2111 04cf 40        	.byte0x40
 2112 04d0 0B        	.uleb128 0xb
 2113 04d1 0000 0000 	.long.LASF82
 2114 04d5 08        	.byte0x8
 2115 04d6 D4        	.byte0xd4
 2116 04d7 0000 06E0 	.long0x6e0
 2117 04db 43        	.byte0x43
 2118 04dc 11        	.uleb128 0x11
 2119 04dd 5F6C 6200 	.string"_lb"
 2120 04e1 08        	.byte0x8
 2121 04e2 D7        	.byte0xd7
 2122 04e3 0000 03DC 	.long0x3dc
 2123 04e7 44        	.byte0x44
 2124 04e8 0B        	.uleb128 0xb
 2125 04e9 0000 0000 	.long.LASF83
 2126 04ed 08        	.byte0x8
 2127 04ee DA        	.byte0xda
 2128 04ef 0000 00F1 	.long0xf1
 2129 04f3 4C        	.byte0x4c
 2130 04f4 0B        	.uleb128 0xb
 2131 04f5 0000 0000 	.long.LASF84
 2132 04f9 08        	.byte0x8
 2133 04fa DB        	.byte0xdb
 2134 04fb 0000 00DB 	.long0xdb
 2135 04ff 50        	.byte0x50
 2136 0500 0B        	.uleb128 0xb
 2137 0501 0000 0000 	.long.LASF85
 2138 0505 08        	.byte0x8
 2139 0506 DE        	.byte0xde
 2140 0507 0000 054F 	.long0x54f
 2141 050b 58        	.byte0x58
 2142 050c 0B        	.uleb128 0xb
 2143 050d 0000 0000 	.long.LASF86
 2144 0511 08        	.byte0x8
 2145 0512 E2        	.byte0xe2
 2146 0513 0000 0239 	.long0x239
 2147 0517 5C        	.byte0x5c
 2148 0518 0B        	.uleb128 0xb
 2149 0519 0000 0000 	.long.LASF87
 2150 051d 08        	.byte0x8
 2151 051e E4        	.byte0xe4
 2152 051f 0000 022E 	.long0x22e
 2153 0523 74        	.byte0x74
 2154 0524 0B        	.uleb128 0xb
 2155 0525 0000 0000 	.long.LASF88
 2156 0529 08        	.byte0x8
 2157 052a E5        	.byte0xe5
68K GAS   			page 54


 2158 052b 0000 00F1 	.long0xf1
 2159 052f 7C        	.byte0x7c
 2160 0530 00        	.byte0
 2161 0531 15        	.uleb128 0x15
 2162 0532 0000 01C7 	.long0x1c7
 2163 0536 0000 054F 	.long0x54f
 2164 053a 16        	.uleb128 0x16
 2165 053b 0000 054F 	.long0x54f
 2166 053f 16        	.uleb128 0x16
 2167 0540 0000 00C7 	.long0xc7
 2168 0544 16        	.uleb128 0x16
 2169 0545 0000 0662 	.long0x662
 2170 0549 16        	.uleb128 0x16
 2171 054a 0000 00F1 	.long0xf1
 2172 054e 00        	.byte0
 2173 054f 0D        	.uleb128 0xd
 2174 0550 04        	.byte0x4
 2175 0551 0000 055A 	.long0x55a
 2176 0555 05        	.uleb128 0x5
 2177 0556 0000 054F 	.long0x54f
 2178 055a 17        	.uleb128 0x17
 2179 055b 0000 0000 	.long.LASF89
 2180 055f 0158      	.word0x158
 2181 0561 08        	.byte0x8
 2182 0562 0239      	.word0x239
 2183 0564 0000 0662 	.long0x662
 2184 0568 18        	.uleb128 0x18
 2185 0569 0000 0000 	.long.LASF90
 2186 056d 08        	.byte0x8
 2187 056e 023B      	.word0x23b
 2188 0570 0000 00F1 	.long0xf1
 2189 0574 00        	.byte0
 2190 0575 18        	.uleb128 0x18
 2191 0576 0000 0000 	.long.LASF91
 2192 057a 08        	.byte0x8
 2193 057b 0240      	.word0x240
 2194 057d 0000 0737 	.long0x737
 2195 0581 04        	.byte0x4
 2196 0582 18        	.uleb128 0x18
 2197 0583 0000 0000 	.long.LASF92
 2198 0587 08        	.byte0x8
 2199 0588 0240      	.word0x240
 2200 058a 0000 0737 	.long0x737
 2201 058e 08        	.byte0x8
 2202 058f 18        	.uleb128 0x18
 2203 0590 0000 0000 	.long.LASF93
 2204 0594 08        	.byte0x8
 2205 0595 0240      	.word0x240
 2206 0597 0000 0737 	.long0x737
 2207 059b 0C        	.byte0xc
 2208 059c 18        	.uleb128 0x18
 2209 059d 0000 0000 	.long.LASF94
 2210 05a1 08        	.byte0x8
 2211 05a2 0242      	.word0x242
 2212 05a4 0000 00F1 	.long0xf1
 2213 05a8 10        	.byte0x10
 2214 05a9 18        	.uleb128 0x18
68K GAS   			page 55


 2215 05aa 0000 0000 	.long.LASF95
 2216 05ae 08        	.byte0x8
 2217 05af 0243      	.word0x243
 2218 05b1 0000 0919 	.long0x919
 2219 05b5 14        	.byte0x14
 2220 05b6 18        	.uleb128 0x18
 2221 05b7 0000 0000 	.long.LASF96
 2222 05bb 08        	.byte0x8
 2223 05bc 0246      	.word0x246
 2224 05be 0000 00F1 	.long0xf1
 2225 05c2 30        	.byte0x30
 2226 05c3 18        	.uleb128 0x18
 2227 05c4 0000 0000 	.long.LASF97
 2228 05c8 08        	.byte0x8
 2229 05c9 0247      	.word0x247
 2230 05cb 0000 092E 	.long0x92e
 2231 05cf 34        	.byte0x34
 2232 05d0 18        	.uleb128 0x18
 2233 05d1 0000 0000 	.long.LASF98
 2234 05d5 08        	.byte0x8
 2235 05d6 0249      	.word0x249
 2236 05d8 0000 00F1 	.long0xf1
 2237 05dc 38        	.byte0x38
 2238 05dd 18        	.uleb128 0x18
 2239 05de 0000 0000 	.long.LASF99
 2240 05e2 08        	.byte0x8
 2241 05e3 024B      	.word0x24b
 2242 05e5 0000 093F 	.long0x93f
 2243 05e9 3C        	.byte0x3c
 2244 05ea 18        	.uleb128 0x18
 2245 05eb 0000 0000 	.long.LASF100
 2246 05ef 08        	.byte0x8
 2247 05f0 024E      	.word0x24e
 2248 05f2 0000 02A2 	.long0x2a2
 2249 05f6 40        	.byte0x40
 2250 05f7 18        	.uleb128 0x18
 2251 05f8 0000 0000 	.long.LASF101
 2252 05fc 08        	.byte0x8
 2253 05fd 024F      	.word0x24f
 2254 05ff 0000 00F1 	.long0xf1
 2255 0603 44        	.byte0x44
 2256 0604 18        	.uleb128 0x18
 2257 0605 0000 0000 	.long.LASF102
 2258 0609 08        	.byte0x8
 2259 060a 0250      	.word0x250
 2260 060c 0000 02A2 	.long0x2a2
 2261 0610 48        	.byte0x48
 2262 0611 18        	.uleb128 0x18
 2263 0612 0000 0000 	.long.LASF103
 2264 0616 08        	.byte0x8
 2265 0617 0251      	.word0x251
 2266 0619 0000 0945 	.long0x945
 2267 061d 4C        	.byte0x4c
 2268 061e 18        	.uleb128 0x18
 2269 061f 0000 0000 	.long.LASF104
 2270 0623 08        	.byte0x8
 2271 0624 0254      	.word0x254
68K GAS   			page 56


 2272 0626 0000 00F1 	.long0xf1
 2273 062a 50        	.byte0x50
 2274 062b 18        	.uleb128 0x18
 2275 062c 0000 0000 	.long.LASF105
 2276 0630 08        	.byte0x8
 2277 0631 0255      	.word0x255
 2278 0633 0000 0662 	.long0x662
 2279 0637 54        	.byte0x54
 2280 0638 18        	.uleb128 0x18
 2281 0639 0000 0000 	.long.LASF106
 2282 063d 08        	.byte0x8
 2283 063e 0278      	.word0x278
 2284 0640 0000 08F7 	.long0x8f7
 2285 0644 58        	.byte0x58
 2286 0645 19        	.uleb128 0x19
 2287 0646 0000 0000 	.long.LASF107
 2288 064a 08        	.byte0x8
 2289 064b 0281      	.word0x281
 2290 064d 0000 0956 	.long0x956
 2291 0651 0148      	.word0x148
 2292 0653 19        	.uleb128 0x19
 2293 0654 0000 0000 	.long.LASF108
 2294 0658 08        	.byte0x8
 2295 0659 0286      	.word0x286
 2296 065b 0000 06FC 	.long0x6fc
 2297 065f 014C      	.word0x14c
 2298 0661 00        	.byte0
 2299 0662 0D        	.uleb128 0xd
 2300 0663 04        	.byte0x4
 2301 0664 0000 00AB 	.long0xab
 2302 0668 0D        	.uleb128 0xd
 2303 0669 04        	.byte0x4
 2304 066a 0000 0531 	.long0x531
 2305 066e 15        	.uleb128 0x15
 2306 066f 0000 01C7 	.long0x1c7
 2307 0673 0000 068C 	.long0x68c
 2308 0677 16        	.uleb128 0x16
 2309 0678 0000 054F 	.long0x54f
 2310 067c 16        	.uleb128 0x16
 2311 067d 0000 00C7 	.long0xc7
 2312 0681 16        	.uleb128 0x16
 2313 0682 0000 0177 	.long0x177
 2314 0686 16        	.uleb128 0x16
 2315 0687 0000 00F1 	.long0xf1
 2316 068b 00        	.byte0
 2317 068c 0D        	.uleb128 0xd
 2318 068d 04        	.byte0x4
 2319 068e 0000 066E 	.long0x66e
 2320 0692 15        	.uleb128 0x15
 2321 0693 0000 00E6 	.long0xe6
 2322 0697 0000 06B0 	.long0x6b0
 2323 069b 16        	.uleb128 0x16
 2324 069c 0000 054F 	.long0x54f
 2325 06a0 16        	.uleb128 0x16
 2326 06a1 0000 00C7 	.long0xc7
 2327 06a5 16        	.uleb128 0x16
 2328 06a6 0000 00E6 	.long0xe6
68K GAS   			page 57


 2329 06aa 16        	.uleb128 0x16
 2330 06ab 0000 00F1 	.long0xf1
 2331 06af 00        	.byte0
 2332 06b0 0D        	.uleb128 0xd
 2333 06b1 04        	.byte0x4
 2334 06b2 0000 0692 	.long0x692
 2335 06b6 15        	.uleb128 0x15
 2336 06b7 0000 00F1 	.long0xf1
 2337 06bb 0000 06CA 	.long0x6ca
 2338 06bf 16        	.uleb128 0x16
 2339 06c0 0000 054F 	.long0x54f
 2340 06c4 16        	.uleb128 0x16
 2341 06c5 0000 00C7 	.long0xc7
 2342 06c9 00        	.byte0
 2343 06ca 0D        	.uleb128 0xd
 2344 06cb 04        	.byte0x4
 2345 06cc 0000 06B6 	.long0x6b6
 2346 06d0 06        	.uleb128 0x6
 2347 06d1 0000 0030 	.long0x30
 2348 06d5 0000 06E0 	.long0x6e0
 2349 06d9 07        	.uleb128 0x7
 2350 06da 0000 0086 	.long0x86
 2351 06de 02        	.byte0x2
 2352 06df 00        	.byte0
 2353 06e0 06        	.uleb128 0x6
 2354 06e1 0000 0030 	.long0x30
 2355 06e5 0000 06F0 	.long0x6f0
 2356 06e9 07        	.uleb128 0x7
 2357 06ea 0000 0086 	.long0x86
 2358 06ee 00        	.byte0
 2359 06ef 00        	.byte0
 2360 06f0 04        	.uleb128 0x4
 2361 06f1 0000 0000 	.long.LASF109
 2362 06f5 08        	.byte0x8
 2363 06f6 011F      	.word0x11f
 2364 06f8 0000 0407 	.long0x407
 2365 06fc 1A        	.uleb128 0x1a
 2366 06fd 0000 0000 	.long.LASF110
 2367 0701 0C        	.byte0xc
 2368 0702 08        	.byte0x8
 2369 0703 0123      	.word0x123
 2370 0705 0000 0731 	.long0x731
 2371 0709 18        	.uleb128 0x18
 2372 070a 0000 0000 	.long.LASF47
 2373 070e 08        	.byte0x8
 2374 070f 0125      	.word0x125
 2375 0711 0000 0731 	.long0x731
 2376 0715 00        	.byte0
 2377 0716 18        	.uleb128 0x18
 2378 0717 0000 0000 	.long.LASF111
 2379 071b 08        	.byte0x8
 2380 071c 0126      	.word0x126
 2381 071e 0000 00F1 	.long0xf1
 2382 0722 04        	.byte0x4
 2383 0723 18        	.uleb128 0x18
 2384 0724 0000 0000 	.long.LASF112
 2385 0728 08        	.byte0x8
68K GAS   			page 58


 2386 0729 0127      	.word0x127
 2387 072b 0000 0737 	.long0x737
 2388 072f 08        	.byte0x8
 2389 0730 00        	.byte0
 2390 0731 0D        	.uleb128 0xd
 2391 0732 04        	.byte0x4
 2392 0733 0000 06FC 	.long0x6fc
 2393 0737 0D        	.uleb128 0xd
 2394 0738 04        	.byte0x4
 2395 0739 0000 06F0 	.long0x6f0
 2396 073d 1A        	.uleb128 0x1a
 2397 073e 0000 0000 	.long.LASF113
 2398 0742 0E        	.byte0xe
 2399 0743 08        	.byte0x8
 2400 0744 013F      	.word0x13f
 2401 0746 0000 0772 	.long0x772
 2402 074a 18        	.uleb128 0x18
 2403 074b 0000 0000 	.long.LASF114
 2404 074f 08        	.byte0x8
 2405 0750 0140      	.word0x140
 2406 0752 0000 0772 	.long0x772
 2407 0756 00        	.byte0
 2408 0757 18        	.uleb128 0x18
 2409 0758 0000 0000 	.long.LASF115
 2410 075c 08        	.byte0x8
 2411 075d 0141      	.word0x141
 2412 075f 0000 0772 	.long0x772
 2413 0763 06        	.byte0x6
 2414 0764 18        	.uleb128 0x18
 2415 0765 0000 0000 	.long.LASF116
 2416 0769 08        	.byte0x8
 2417 076a 0142      	.word0x142
 2418 076c 0000 0074 	.long0x74
 2419 0770 0C        	.byte0xc
 2420 0771 00        	.byte0
 2421 0772 06        	.uleb128 0x6
 2422 0773 0000 0074 	.long0x74
 2423 0777 0000 0782 	.long0x782
 2424 077b 07        	.uleb128 0x7
 2425 077c 0000 0086 	.long0x86
 2426 0780 02        	.byte0x2
 2427 0781 00        	.byte0
 2428 0782 1B        	.uleb128 0x1b
 2429 0783 CC        	.byte0xcc
 2430 0784 08        	.byte0x8
 2431 0785 0259      	.word0x259
 2432 0787 0000 0883 	.long0x883
 2433 078b 18        	.uleb128 0x18
 2434 078c 0000 0000 	.long.LASF117
 2435 0790 08        	.byte0x8
 2436 0791 025B      	.word0x25b
 2437 0793 0000 011D 	.long0x11d
 2438 0797 00        	.byte0
 2439 0798 18        	.uleb128 0x18
 2440 0799 0000 0000 	.long.LASF118
 2441 079d 08        	.byte0x8
 2442 079e 025C      	.word0x25c
68K GAS   			page 59


 2443 07a0 0000 0662 	.long0x662
 2444 07a4 04        	.byte0x4
 2445 07a5 18        	.uleb128 0x18
 2446 07a6 0000 0000 	.long.LASF119
 2447 07aa 08        	.byte0x8
 2448 07ab 025D      	.word0x25d
 2449 07ad 0000 0883 	.long0x883
 2450 07b1 08        	.byte0x8
 2451 07b2 18        	.uleb128 0x18
 2452 07b3 0000 0000 	.long.LASF120
 2453 07b7 08        	.byte0x8
 2454 07b8 025E      	.word0x25e
 2455 07ba 0000 02B8 	.long0x2b8
 2456 07be 24        	.byte0x24
 2457 07bf 18        	.uleb128 0x18
 2458 07c0 0000 0000 	.long.LASF121
 2459 07c4 08        	.byte0x8
 2460 07c5 025F      	.word0x25f
 2461 07c7 0000 00F1 	.long0xf1
 2462 07cb 48        	.byte0x48
 2463 07cc 18        	.uleb128 0x18
 2464 07cd 0000 0000 	.long.LASF122
 2465 07d1 08        	.byte0x8
 2466 07d2 0260      	.word0x260
 2467 07d4 0000 008D 	.long0x8d
 2468 07d8 4C        	.byte0x4c
 2469 07d9 18        	.uleb128 0x18
 2470 07da 0000 0000 	.long.LASF123
 2471 07de 08        	.byte0x8
 2472 07df 0261      	.word0x261
 2473 07e1 0000 073D 	.long0x73d
 2474 07e5 54        	.byte0x54
 2475 07e6 18        	.uleb128 0x18
 2476 07e7 0000 0000 	.long.LASF124
 2477 07eb 08        	.byte0x8
 2478 07ec 0262      	.word0x262
 2479 07ee 0000 022E 	.long0x22e
 2480 07f2 64        	.byte0x64
 2481 07f3 18        	.uleb128 0x18
 2482 07f4 0000 0000 	.long.LASF125
 2483 07f8 08        	.byte0x8
 2484 07f9 0263      	.word0x263
 2485 07fb 0000 022E 	.long0x22e
 2486 07ff 6C        	.byte0x6c
 2487 0800 18        	.uleb128 0x18
 2488 0801 0000 0000 	.long.LASF126
 2489 0805 08        	.byte0x8
 2490 0806 0264      	.word0x264
 2491 0808 0000 022E 	.long0x22e
 2492 080c 74        	.byte0x74
 2493 080d 18        	.uleb128 0x18
 2494 080e 0000 0000 	.long.LASF127
 2495 0812 08        	.byte0x8
 2496 0813 0265      	.word0x265
 2497 0815 0000 0893 	.long0x893
 2498 0819 7C        	.byte0x7c
 2499 081a 18        	.uleb128 0x18
68K GAS   			page 60


 2500 081b 0000 0000 	.long.LASF128
 2501 081f 08        	.byte0x8
 2502 0820 0266      	.word0x266
 2503 0822 0000 08A3 	.long0x8a3
 2504 0826 84        	.byte0x84
 2505 0827 18        	.uleb128 0x18
 2506 0828 0000 0000 	.long.LASF129
 2507 082c 08        	.byte0x8
 2508 082d 0267      	.word0x267
 2509 082f 0000 00F1 	.long0xf1
 2510 0833 9C        	.byte0x9c
 2511 0834 18        	.uleb128 0x18
 2512 0835 0000 0000 	.long.LASF130
 2513 0839 08        	.byte0x8
 2514 083a 0268      	.word0x268
 2515 083c 0000 022E 	.long0x22e
 2516 0840 A0        	.byte0xa0
 2517 0841 18        	.uleb128 0x18
 2518 0842 0000 0000 	.long.LASF131
 2519 0846 08        	.byte0x8
 2520 0847 0269      	.word0x269
 2521 0849 0000 022E 	.long0x22e
 2522 084d A8        	.byte0xa8
 2523 084e 18        	.uleb128 0x18
 2524 084f 0000 0000 	.long.LASF132
 2525 0853 08        	.byte0x8
 2526 0854 026A      	.word0x26a
 2527 0856 0000 022E 	.long0x22e
 2528 085a B0        	.byte0xb0
 2529 085b 18        	.uleb128 0x18
 2530 085c 0000 0000 	.long.LASF133
 2531 0860 08        	.byte0x8
 2532 0861 026B      	.word0x26b
 2533 0863 0000 022E 	.long0x22e
 2534 0867 B8        	.byte0xb8
 2535 0868 18        	.uleb128 0x18
 2536 0869 0000 0000 	.long.LASF134
 2537 086d 08        	.byte0x8
 2538 086e 026C      	.word0x26c
 2539 0870 0000 022E 	.long0x22e
 2540 0874 C0        	.byte0xc0
 2541 0875 18        	.uleb128 0x18
 2542 0876 0000 0000 	.long.LASF135
 2543 087a 08        	.byte0x8
 2544 087b 026D      	.word0x26d
 2545 087d 0000 00F1 	.long0xf1
 2546 0881 C8        	.byte0xc8
 2547 0882 00        	.byte0
 2548 0883 06        	.uleb128 0x6
 2549 0884 0000 00AB 	.long0xab
 2550 0888 0000 0893 	.long0x893
 2551 088c 07        	.uleb128 0x7
 2552 088d 0000 0086 	.long0x86
 2553 0891 19        	.byte0x19
 2554 0892 00        	.byte0
 2555 0893 06        	.uleb128 0x6
 2556 0894 0000 00AB 	.long0xab
68K GAS   			page 61


 2557 0898 0000 08A3 	.long0x8a3
 2558 089c 07        	.uleb128 0x7
 2559 089d 0000 0086 	.long0x86
 2560 08a1 07        	.byte0x7
 2561 08a2 00        	.byte0
 2562 08a3 06        	.uleb128 0x6
 2563 08a4 0000 00AB 	.long0xab
 2564 08a8 0000 08B3 	.long0x8b3
 2565 08ac 07        	.uleb128 0x7
 2566 08ad 0000 0086 	.long0x86
 2567 08b1 17        	.byte0x17
 2568 08b2 00        	.byte0
 2569 08b3 1B        	.uleb128 0x1b
 2570 08b4 F0        	.byte0xf0
 2571 08b5 08        	.byte0x8
 2572 08b6 0272      	.word0x272
 2573 08b8 0000 08D7 	.long0x8d7
 2574 08bc 18        	.uleb128 0x18
 2575 08bd 0000 0000 	.long.LASF136
 2576 08c1 08        	.byte0x8
 2577 08c2 0275      	.word0x275
 2578 08c4 0000 08D7 	.long0x8d7
 2579 08c8 00        	.byte0
 2580 08c9 18        	.uleb128 0x18
 2581 08ca 0000 0000 	.long.LASF137
 2582 08ce 08        	.byte0x8
 2583 08cf 0276      	.word0x276
 2584 08d1 0000 08E7 	.long0x8e7
 2585 08d5 78        	.byte0x78
 2586 08d6 00        	.byte0
 2587 08d7 06        	.uleb128 0x6
 2588 08d8 0000 0401 	.long0x401
 2589 08dc 0000 08E7 	.long0x8e7
 2590 08e0 07        	.uleb128 0x7
 2591 08e1 0000 0086 	.long0x86
 2592 08e5 1D        	.byte0x1d
 2593 08e6 00        	.byte0
 2594 08e7 06        	.uleb128 0x6
 2595 08e8 0000 011D 	.long0x11d
 2596 08ec 0000 08F7 	.long0x8f7
 2597 08f0 07        	.uleb128 0x7
 2598 08f1 0000 0086 	.long0x86
 2599 08f5 1D        	.byte0x1d
 2600 08f6 00        	.byte0
 2601 08f7 1C        	.uleb128 0x1c
 2602 08f8 F0        	.byte0xf0
 2603 08f9 08        	.byte0x8
 2604 08fa 0257      	.word0x257
 2605 08fc 0000 0919 	.long0x919
 2606 0900 1D        	.uleb128 0x1d
 2607 0901 0000 0000 	.long.LASF89
 2608 0905 08        	.byte0x8
 2609 0906 026E      	.word0x26e
 2610 0908 0000 0782 	.long0x782
 2611 090c 1D        	.uleb128 0x1d
 2612 090d 0000 0000 	.long.LASF138
 2613 0911 08        	.byte0x8
68K GAS   			page 62


 2614 0912 0277      	.word0x277
 2615 0914 0000 08B3 	.long0x8b3
 2616 0918 00        	.byte0
 2617 0919 06        	.uleb128 0x6
 2618 091a 0000 00AB 	.long0xab
 2619 091e 0000 0929 	.long0x929
 2620 0922 07        	.uleb128 0x7
 2621 0923 0000 0086 	.long0x86
 2622 0927 18        	.byte0x18
 2623 0928 00        	.byte0
 2624 0929 0C        	.uleb128 0xc
 2625 092a 0000 0000 	.long.LASF139
 2626 092e 0D        	.uleb128 0xd
 2627 092f 04        	.byte0x4
 2628 0930 0000 0929 	.long0x929
 2629 0934 1E        	.uleb128 0x1e
 2630 0935 0000 093F 	.long0x93f
 2631 0939 16        	.uleb128 0x16
 2632 093a 0000 054F 	.long0x54f
 2633 093e 00        	.byte0
 2634 093f 0D        	.uleb128 0xd
 2635 0940 04        	.byte0x4
 2636 0941 0000 0934 	.long0x934
 2637 0945 0D        	.uleb128 0xd
 2638 0946 04        	.byte0x4
 2639 0947 0000 02A2 	.long0x2a2
 2640 094b 1E        	.uleb128 0x1e
 2641 094c 0000 0956 	.long0x956
 2642 0950 16        	.uleb128 0x16
 2643 0951 0000 00F1 	.long0xf1
 2644 0955 00        	.byte0
 2645 0956 0D        	.uleb128 0xd
 2646 0957 04        	.byte0x4
 2647 0958 0000 095C 	.long0x95c
 2648 095c 0D        	.uleb128 0xd
 2649 095d 04        	.byte0x4
 2650 095e 0000 094B 	.long0x94b
 2651 0962 06        	.uleb128 0x6
 2652 0963 0000 06F0 	.long0x6f0
 2653 0967 0000 0972 	.long0x972
 2654 096b 07        	.uleb128 0x7
 2655 096c 0000 0086 	.long0x86
 2656 0970 02        	.byte0x2
 2657 0971 00        	.byte0
 2658 0972 1F        	.uleb128 0x1f
 2659 0973 0000 0000 	.long.LASF140
 2660 0977 08        	.byte0x8
 2661 0978 028D      	.word0x28d
 2662 097a 0000 0962 	.long0x962
 2663 097e 1F        	.uleb128 0x1f
 2664 097f 0000 0000 	.long.LASF141
 2665 0983 08        	.byte0x8
 2666 0984 0307      	.word0x307
 2667 0986 0000 054F 	.long0x54f
 2668 098a 1F        	.uleb128 0x1f
 2669 098b 0000 0000 	.long.LASF142
 2670 098f 08        	.byte0x8
68K GAS   			page 63


 2671 0990 0308      	.word0x308
 2672 0992 0000 0555 	.long0x555
 2673 0996 1F        	.uleb128 0x1f
 2674 0997 0000 0000 	.long.LASF143
 2675 099b 08        	.byte0x8
 2676 099c 031A      	.word0x31a
 2677 099e 0000 03BF 	.long0x3bf
 2678 09a2 20        	.uleb128 0x20
 2679 09a3 0000 0000 	.long.LASF144
 2680 09a7 09        	.byte0x9
 2681 09a8 63        	.byte0x63
 2682 09a9 0000 0662 	.long0x662
 2683 09ad 20        	.uleb128 0x20
 2684 09ae 0000 0000 	.long.LASF145
 2685 09b2 0A        	.byte0xa
 2686 09b3 9A        	.byte0x9a
 2687 09b4 0000 0050 	.long0x50
 2688 09b8 20        	.uleb128 0x20
 2689 09b9 0000 0000 	.long.LASF146
 2690 09bd 0A        	.byte0xa
 2691 09be 9B        	.byte0x9b
 2692 09bf 0000 00F1 	.long0xf1
 2693 09c3 06        	.uleb128 0x6
 2694 09c4 0000 0662 	.long0x662
 2695 09c8 0000 09D3 	.long0x9d3
 2696 09cc 07        	.uleb128 0x7
 2697 09cd 0000 0086 	.long0x86
 2698 09d1 01        	.byte0x1
 2699 09d2 00        	.byte0
 2700 09d3 20        	.uleb128 0x20
 2701 09d4 0000 0000 	.long.LASF147
 2702 09d8 0A        	.byte0xa
 2703 09d9 9E        	.byte0x9e
 2704 09da 0000 09C3 	.long0x9c3
 2705 09de 06        	.uleb128 0x6
 2706 09df 0000 00AB 	.long0xab
 2707 09e3 0000 09EE 	.long0x9ee
 2708 09e7 07        	.uleb128 0x7
 2709 09e8 0000 0086 	.long0x86
 2710 09ec 3F        	.byte0x3f
 2711 09ed 00        	.byte0
 2712 09ee 04        	.uleb128 0x4
 2713 09ef 0000 0000 	.long.LASF148
 2714 09f3 0B        	.byte0xb
 2715 09f4 0103      	.word0x103
 2716 09f6 0000 0094 	.long0x94
 2717 09fa 1B        	.uleb128 0x1b
 2718 09fb BC        	.byte0xbc
 2719 09fc 0B        	.byte0xb
 2720 09fd 010C      	.word0x10c
 2721 09ff 0000 0B15 	.long0xb15
 2722 0a03 18        	.uleb128 0x18
 2723 0a04 0000 0000 	.long.LASF149
 2724 0a08 0B        	.byte0xb
 2725 0a09 010E      	.word0x10e
 2726 0a0b 0000 007B 	.long0x7b
 2727 0a0f 00        	.byte0
68K GAS   			page 64


 2728 0a10 18        	.uleb128 0x18
 2729 0a11 0000 0000 	.long.LASF150
 2730 0a15 0B        	.byte0xb
 2731 0a16 0110      	.word0x110
 2732 0a18 0000 007B 	.long0x7b
 2733 0a1c 04        	.byte0x4
 2734 0a1d 18        	.uleb128 0x18
 2735 0a1e 0000 0000 	.long.LASF151
 2736 0a22 0B        	.byte0xb
 2737 0a23 0113      	.word0x113
 2738 0a25 0000 00B7 	.long0xb7
 2739 0a29 08        	.byte0x8
 2740 0a2a 18        	.uleb128 0x18
 2741 0a2b 0000 0000 	.long.LASF152
 2742 0a2f 0B        	.byte0xb
 2743 0a30 0115      	.word0x115
 2744 0a32 0000 00B7 	.long0xb7
 2745 0a36 1C        	.byte0x1c
 2746 0a37 18        	.uleb128 0x18
 2747 0a38 0000 0000 	.long.LASF153
 2748 0a3c 0B        	.byte0xb
 2749 0a3d 0117      	.word0x117
 2750 0a3f 0000 09DE 	.long0x9de
 2751 0a43 30        	.byte0x30
 2752 0a44 18        	.uleb128 0x18
 2753 0a45 0000 0000 	.long.LASF154
 2754 0a49 0B        	.byte0xb
 2755 0a4a 011A      	.word0x11a
 2756 0a4c 0000 007B 	.long0x7b
 2757 0a50 70        	.byte0x70
 2758 0a51 18        	.uleb128 0x18
 2759 0a52 0000 0000 	.long.LASF155
 2760 0a56 0B        	.byte0xb
 2761 0a57 011C      	.word0x11c
 2762 0a59 0000 007B 	.long0x7b
 2763 0a5d 74        	.byte0x74
 2764 0a5e 18        	.uleb128 0x18
 2765 0a5f 0000 0000 	.long.LASF156
 2766 0a63 0B        	.byte0xb
 2767 0a64 011E      	.word0x11e
 2768 0a66 0000 007B 	.long0x7b
 2769 0a6a 78        	.byte0x78
 2770 0a6b 18        	.uleb128 0x18
 2771 0a6c 0000 0000 	.long.LASF157
 2772 0a70 0B        	.byte0xb
 2773 0a71 0120      	.word0x120
 2774 0a73 0000 007B 	.long0x7b
 2775 0a77 7C        	.byte0x7c
 2776 0a78 18        	.uleb128 0x18
 2777 0a79 0000 0000 	.long.LASF158
 2778 0a7d 0B        	.byte0xb
 2779 0a7e 0122      	.word0x122
 2780 0a80 0000 007B 	.long0x7b
 2781 0a84 80        	.byte0x80
 2782 0a85 18        	.uleb128 0x18
 2783 0a86 0000 0000 	.long.LASF159
 2784 0a8a 0B        	.byte0xb
68K GAS   			page 65


 2785 0a8b 0124      	.word0x124
 2786 0a8d 0000 007B 	.long0x7b
 2787 0a91 84        	.byte0x84
 2788 0a92 18        	.uleb128 0x18
 2789 0a93 0000 0000 	.long.LASF160
 2790 0a97 0B        	.byte0xb
 2791 0a98 0126      	.word0x126
 2792 0a9a 0000 007B 	.long0x7b
 2793 0a9e 88        	.byte0x88
 2794 0a9f 18        	.uleb128 0x18
 2795 0aa0 0000 0000 	.long.LASF161
 2796 0aa4 0B        	.byte0xb
 2797 0aa5 0128      	.word0x128
 2798 0aa7 0000 007B 	.long0x7b
 2799 0aab 8C        	.byte0x8c
 2800 0aac 18        	.uleb128 0x18
 2801 0aad 0000 0000 	.long.LASF162
 2802 0ab1 0B        	.byte0xb
 2803 0ab2 012A      	.word0x12a
 2804 0ab4 0000 007B 	.long0x7b
 2805 0ab8 90        	.byte0x90
 2806 0ab9 18        	.uleb128 0x18
 2807 0aba 0000 0000 	.long.LASF163
 2808 0abe 0B        	.byte0xb
 2809 0abf 012C      	.word0x12c
 2810 0ac1 0000 007B 	.long0x7b
 2811 0ac5 94        	.byte0x94
 2812 0ac6 18        	.uleb128 0x18
 2813 0ac7 0000 0000 	.long.LASF164
 2814 0acb 0B        	.byte0xb
 2815 0acc 012E      	.word0x12e
 2816 0ace 0000 0069 	.long0x69
 2817 0ad2 98        	.byte0x98
 2818 0ad3 18        	.uleb128 0x18
 2819 0ad4 0000 0000 	.long.LASF165
 2820 0ad8 0B        	.byte0xb
 2821 0ad9 0131      	.word0x131
 2822 0adb 0000 0069 	.long0x69
 2823 0adf 9A        	.byte0x9a
 2824 0ae0 18        	.uleb128 0x18
 2825 0ae1 0000 0000 	.long.LASF166
 2826 0ae5 0B        	.byte0xb
 2827 0ae6 0133      	.word0x133
 2828 0ae8 0000 007B 	.long0x7b
 2829 0aec 9C        	.byte0x9c
 2830 0aed 18        	.uleb128 0x18
 2831 0aee 0000 0000 	.long.LASF167
 2832 0af2 0B        	.byte0xb
 2833 0af3 0135      	.word0x135
 2834 0af5 0000 007B 	.long0x7b
 2835 0af9 A0        	.byte0xa0
 2836 0afa 18        	.uleb128 0x18
 2837 0afb 0000 0000 	.long.LASF168
 2838 0aff 0B        	.byte0xb
 2839 0b00 0137      	.word0x137
 2840 0b02 0000 00B7 	.long0xb7
 2841 0b06 A4        	.byte0xa4
68K GAS   			page 66


 2842 0b07 18        	.uleb128 0x18
 2843 0b08 0000 0000 	.long.LASF169
 2844 0b0c 0B        	.byte0xb
 2845 0b0d 0139      	.word0x139
 2846 0b0f 0000 007B 	.long0x7b
 2847 0b13 B8        	.byte0xb8
 2848 0b14 00        	.byte0
 2849 0b15 04        	.uleb128 0x4
 2850 0b16 0000 0000 	.long.LASF170
 2851 0b1a 0B        	.byte0xb
 2852 0b1b 013C      	.word0x13c
 2853 0b1d 0000 09FA 	.long0x9fa
 2854 0b21 1B        	.uleb128 0x1b
 2855 0b22 0C        	.byte0xc
 2856 0b23 0B        	.byte0xb
 2857 0b24 014E      	.word0x14e
 2858 0b26 0000 0B52 	.long0xb52
 2859 0b2a 18        	.uleb128 0x18
 2860 0b2b 0000 0000 	.long.LASF171
 2861 0b2f 0B        	.byte0xb
 2862 0b30 0150      	.word0x150
 2863 0b32 0000 007B 	.long0x7b
 2864 0b36 00        	.byte0
 2865 0b37 18        	.uleb128 0x18
 2866 0b38 0000 0000 	.long.LASF172
 2867 0b3c 0B        	.byte0xb
 2868 0b3d 0151      	.word0x151
 2869 0b3f 0000 007B 	.long0x7b
 2870 0b43 04        	.byte0x4
 2871 0b44 18        	.uleb128 0x18
 2872 0b45 0000 0000 	.long.LASF173
 2873 0b49 0B        	.byte0xb
 2874 0b4a 0152      	.word0x152
 2875 0b4c 0000 007B 	.long0x7b
 2876 0b50 08        	.byte0x8
 2877 0b51 00        	.byte0
 2878 0b52 04        	.uleb128 0x4
 2879 0b53 0000 0000 	.long.LASF174
 2880 0b57 0B        	.byte0xb
 2881 0b58 0153      	.word0x153
 2882 0b5a 0000 0B21 	.long0xb21
 2883 0b5e 1B        	.uleb128 0x1b
 2884 0b5f DC        	.byte0xdc
 2885 0b60 0B        	.byte0xb
 2886 0b61 0155      	.word0x155
 2887 0b63 0000 0BA9 	.long0xba9
 2888 0b67 18        	.uleb128 0x18
 2889 0b68 0000 0000 	.long.LASF175
 2890 0b6c 0B        	.byte0xb
 2891 0b6d 0157      	.word0x157
 2892 0b6f 0000 007B 	.long0x7b
 2893 0b73 00        	.byte0
 2894 0b74 18        	.uleb128 0x18
 2895 0b75 0000 0000 	.long.LASF176
 2896 0b79 0B        	.byte0xb
 2897 0b7a 0159      	.word0x159
 2898 0b7c 0000 007B 	.long0x7b
68K GAS   			page 67


 2899 0b80 04        	.byte0x4
 2900 0b81 18        	.uleb128 0x18
 2901 0b82 0000 0000 	.long.LASF177
 2902 0b86 0B        	.byte0xb
 2903 0b87 015B      	.word0x15b
 2904 0b89 0000 007B 	.long0x7b
 2905 0b8d 08        	.byte0x8
 2906 0b8e 18        	.uleb128 0x18
 2907 0b8f 0000 0000 	.long.LASF178
 2908 0b93 0B        	.byte0xb
 2909 0b94 015D      	.word0x15d
 2910 0b96 0000 007B 	.long0x7b
 2911 0b9a 0C        	.byte0xc
 2912 0b9b 18        	.uleb128 0x18
 2913 0b9c 0000 0000 	.long.LASF179
 2914 0ba0 0B        	.byte0xb
 2915 0ba1 015F      	.word0x15f
 2916 0ba3 0000 0BA9 	.long0xba9
 2917 0ba7 10        	.byte0x10
 2918 0ba8 00        	.byte0
 2919 0ba9 06        	.uleb128 0x6
 2920 0baa 0000 0B52 	.long0xb52
 2921 0bae 0000 0BB9 	.long0xbb9
 2922 0bb2 07        	.uleb128 0x7
 2923 0bb3 0000 0086 	.long0x86
 2924 0bb7 10        	.byte0x10
 2925 0bb8 00        	.byte0
 2926 0bb9 04        	.uleb128 0x4
 2927 0bba 0000 0000 	.long.LASF180
 2928 0bbe 0B        	.byte0xb
 2929 0bbf 0161      	.word0x161
 2930 0bc1 0000 0B5E 	.long0xb5e
 2931 0bc5 10        	.uleb128 0x10
 2932 0bc6 06        	.byte0x6
 2933 0bc7 0C        	.byte0xc
 2934 0bc8 58        	.byte0x58
 2935 0bc9 0000 0BF2 	.long0xbf2
 2936 0bcd 0B        	.uleb128 0xb
 2937 0bce 0000 0000 	.long.LASF181
 2938 0bd2 0C        	.byte0xc
 2939 0bd3 5A        	.byte0x5a
 2940 0bd4 0000 0BF2 	.long0xbf2
 2941 0bd8 00        	.byte0
 2942 0bd9 0B        	.uleb128 0xb
 2943 0bda 0000 0000 	.long.LASF182
 2944 0bde 0C        	.byte0xc
 2945 0bdf 61        	.byte0x61
 2946 0be0 0000 0BF2 	.long0xbf2
 2947 0be4 02        	.byte0x2
 2948 0be5 0B        	.uleb128 0xb
 2949 0be6 0000 0000 	.long.LASF183
 2950 0bea 0C        	.byte0xc
 2951 0beb 66        	.byte0x66
 2952 0bec 0000 0BF2 	.long0xbf2
 2953 0bf0 04        	.byte0x4
 2954 0bf1 00        	.byte0
 2955 0bf2 06        	.uleb128 0x6
68K GAS   			page 68


 2956 0bf3 0000 005E 	.long0x5e
 2957 0bf7 0000 0C02 	.long0xc02
 2958 0bfb 07        	.uleb128 0x7
 2959 0bfc 0000 0086 	.long0x86
 2960 0c00 01        	.byte0x1
 2961 0c01 00        	.byte0
 2962 0c02 02        	.uleb128 0x2
 2963 0c03 0000 0000 	.long.LASF184
 2964 0c07 0C        	.byte0xc
 2965 0c08 6A        	.byte0x6a
 2966 0c09 0000 0BC5 	.long0xbc5
 2967 0c0d 06        	.uleb128 0x6
 2968 0c0e 0000 005E 	.long0x5e
 2969 0c12 0000 0C1D 	.long0xc1d
 2970 0c16 07        	.uleb128 0x7
 2971 0c17 0000 0086 	.long0x86
 2972 0c1b 05        	.byte0x5
 2973 0c1c 00        	.byte0
 2974 0c1d 0E        	.uleb128 0xe
 2975 0c1e 08        	.byte0x8
 2976 0c1f 0D        	.byte0xd
 2977 0c20 75        	.byte0x75
 2978 0c21 0000 0C47 	.long0xc47
 2979 0c25 21        	.uleb128 0x21
 2980 0c26 4864 7200 	.string"Hdr"
 2981 0c2a 0D        	.byte0xd
 2982 0c2b 76        	.byte0x76
 2983 0c2c 0000 0C02 	.long0xc02
 2984 0c30 0F        	.uleb128 0xf
 2985 0c31 0000 0000 	.long.LASF185
 2986 0c35 0D        	.byte0xd
 2987 0c36 77        	.byte0x77
 2988 0c37 0000 007B 	.long0x7b
 2989 0c3b 0F        	.uleb128 0xf
 2990 0c3c 0000 0000 	.long.LASF186
 2991 0c40 0D        	.byte0xd
 2992 0c41 78        	.byte0x78
 2993 0c42 0000 0C0D 	.long0xc0d
 2994 0c46 00        	.byte0
 2995 0c47 02        	.uleb128 0x2
 2996 0c48 0000 0000 	.long.LASF187
 2997 0c4c 0D        	.byte0xd
 2998 0c4d 79        	.byte0x79
 2999 0c4e 0000 0C1D 	.long0xc1d
 3000 0c52 02        	.uleb128 0x2
 3001 0c53 0000 0000 	.long.LASF188
 3002 0c57 0D        	.byte0xd
 3003 0c58 98        	.byte0x98
 3004 0c59 0000 005E 	.long0x5e
 3005 0c5d 02        	.uleb128 0x2
 3006 0c5e 0000 0000 	.long.LASF189
 3007 0c62 0D        	.byte0xd
 3008 0c63 A1        	.byte0xa1
 3009 0c64 0000 0C68 	.long0xc68
 3010 0c68 0D        	.uleb128 0xd
 3011 0c69 04        	.byte0x4
 3012 0c6a 0000 0C47 	.long0xc47
68K GAS   			page 69


 3013 0c6e 0D        	.uleb128 0xd
 3014 0c6f 04        	.byte0x4
 3015 0c70 0000 005E 	.long0x5e
 3016 0c74 10        	.uleb128 0x10
 3017 0c75 02        	.byte0x2
 3018 0c76 0D        	.byte0xd
 3019 0c77 B1        	.byte0xb1
 3020 0c78 0000 0C95 	.long0xc95
 3021 0c7c 0B        	.uleb128 0xb
 3022 0c7d 0000 0000 	.long.LASF165
 3023 0c81 0D        	.byte0xd
 3024 0c82 B2        	.byte0xb2
 3025 0c83 0000 005E 	.long0x5e
 3026 0c87 00        	.byte0
 3027 0c88 0B        	.uleb128 0xb
 3028 0c89 0000 0000 	.long.LASF190
 3029 0c8d 0D        	.byte0xd
 3030 0c8e B3        	.byte0xb3
 3031 0c8f 0000 005E 	.long0x5e
 3032 0c93 01        	.byte0x1
 3033 0c94 00        	.byte0
 3034 0c95 02        	.uleb128 0x2
 3035 0c96 0000 0000 	.long.LASF191
 3036 0c9a 0D        	.byte0xd
 3037 0c9b B4        	.byte0xb4
 3038 0c9c 0000 0C74 	.long0xc74
 3039 0ca0 20        	.uleb128 0x20
 3040 0ca1 0000 0000 	.long.LASF192
 3041 0ca5 0D        	.byte0xd
 3042 0ca6 B6        	.byte0xb6
 3043 0ca7 0000 0C95 	.long0xc95
 3044 0cab 06        	.uleb128 0x6
 3045 0cac 0000 005E 	.long0x5e
 3046 0cb0 0000 0CBB 	.long0xcbb
 3047 0cb4 07        	.uleb128 0x7
 3048 0cb5 0000 0086 	.long0x86
 3049 0cb9 0B        	.byte0xb
 3050 0cba 00        	.byte0
 3051 0cbb 10        	.uleb128 0x10
 3052 0cbc 0C        	.byte0xc
 3053 0cbd 0E        	.byte0xe
 3054 0cbe 1E        	.byte0x1e
 3055 0cbf 0000 0CF4 	.long0xcf4
 3056 0cc3 0B        	.uleb128 0xb
 3057 0cc4 0000 0000 	.long.LASF193
 3058 0cc8 0E        	.byte0xe
 3059 0cc9 20        	.byte0x20
 3060 0cca 0000 0069 	.long0x69
 3061 0cce 00        	.byte0
 3062 0ccf 0B        	.uleb128 0xb
 3063 0cd0 0000 0000 	.long.LASF194
 3064 0cd4 0E        	.byte0xe
 3065 0cd5 21        	.byte0x21
 3066 0cd6 0000 0069 	.long0x69
 3067 0cda 02        	.byte0x2
 3068 0cdb 0B        	.uleb128 0xb
 3069 0cdc 0000 0000 	.long.LASF195
68K GAS   			page 70


 3070 0ce0 0E        	.byte0xe
 3071 0ce1 22        	.byte0x22
 3072 0ce2 0000 007B 	.long0x7b
 3073 0ce6 04        	.byte0x4
 3074 0ce7 0B        	.uleb128 0xb
 3075 0ce8 0000 0000 	.long.LASF196
 3076 0cec 0E        	.byte0xe
 3077 0ced 23        	.byte0x23
 3078 0cee 0000 0CF4 	.long0xcf4
 3079 0cf2 08        	.byte0x8
 3080 0cf3 00        	.byte0
 3081 0cf4 0D        	.uleb128 0xd
 3082 0cf5 04        	.byte0x4
 3083 0cf6 0000 007B 	.long0x7b
 3084 0cfa 02        	.uleb128 0x2
 3085 0cfb 0000 0000 	.long.LASF197
 3086 0cff 0E        	.byte0xe
 3087 0d00 24        	.byte0x24
 3088 0d01 0000 0CBB 	.long0xcbb
 3089 0d05 10        	.uleb128 0x10
 3090 0d06 10        	.byte0x10
 3091 0d07 0E        	.byte0xe
 3092 0d08 26        	.byte0x26
 3093 0d09 0000 0D3E 	.long0xd3e
 3094 0d0d 11        	.uleb128 0x11
 3095 0d0e 546F 7000 	.string"Top"
 3096 0d12 0E        	.byte0xe
 3097 0d13 28        	.byte0x28
 3098 0d14 0000 0D3E 	.long0xd3e
 3099 0d18 00        	.byte0
 3100 0d19 0B        	.uleb128 0xb
 3101 0d1a 0000 0000 	.long.LASF172
 3102 0d1e 0E        	.byte0xe
 3103 0d1f 29        	.byte0x29
 3104 0d20 0000 007B 	.long0x7b
 3105 0d24 04        	.byte0x4
 3106 0d25 0B        	.uleb128 0xb
 3107 0d26 0000 0000 	.long.LASF173
 3108 0d2a 0E        	.byte0xe
 3109 0d2b 2A        	.byte0x2a
 3110 0d2c 0000 007B 	.long0x7b
 3111 0d30 08        	.byte0x8
 3112 0d31 0B        	.uleb128 0xb
 3113 0d32 0000 0000 	.long.LASF198
 3114 0d36 0E        	.byte0xe
 3115 0d37 2B        	.byte0x2b
 3116 0d38 0000 007B 	.long0x7b
 3117 0d3c 0C        	.byte0xc
 3118 0d3d 00        	.byte0
 3119 0d3e 0D        	.uleb128 0xd
 3120 0d3f 04        	.byte0x4
 3121 0d40 0000 0CFA 	.long0xcfa
 3122 0d44 02        	.uleb128 0x2
 3123 0d45 0000 0000 	.long.LASF199
 3124 0d49 0E        	.byte0xe
 3125 0d4a 2C        	.byte0x2c
 3126 0d4b 0000 0D05 	.long0xd05
68K GAS   			page 71


 3127 0d4f 22        	.uleb128 0x22
 3128 0d50 0130      	.word0x130
 3129 0d52 0E        	.byte0xe
 3130 0d53 30        	.byte0x30
 3131 0d54 0000 0DD1 	.long0xdd1
 3132 0d58 0B        	.uleb128 0xb
 3133 0d59 0000 0000 	.long.LASF200
 3134 0d5d 0E        	.byte0xe
 3135 0d5e 31        	.byte0x31
 3136 0d5f 0000 0DD1 	.long0xdd1
 3137 0d63 00        	.byte0
 3138 0d64 0B        	.uleb128 0xb
 3139 0d65 0000 0000 	.long.LASF195
 3140 0d69 0E        	.byte0xe
 3141 0d6a 32        	.byte0x32
 3142 0d6b 0000 007B 	.long0x7b
 3143 0d6f 04        	.byte0x4
 3144 0d70 11        	.uleb128 0x11
 3145 0d71 456E 6400 	.string"End"
 3146 0d75 0E        	.byte0xe
 3147 0d76 33        	.byte0x33
 3148 0d77 0000 0094 	.long0x94
 3149 0d7b 08        	.byte0x8
 3150 0d7c 0B        	.uleb128 0xb
 3151 0d7d 0000 0000 	.long.LASF201
 3152 0d81 0E        	.byte0xe
 3153 0d82 34        	.byte0x34
 3154 0d83 0000 0CF4 	.long0xcf4
 3155 0d87 0C        	.byte0xc
 3156 0d88 0B        	.uleb128 0xb
 3157 0d89 0000 0000 	.long.LASF202
 3158 0d8d 0E        	.byte0xe
 3159 0d8e 35        	.byte0x35
 3160 0d8f 0000 0DD7 	.long0xdd7
 3161 0d93 10        	.byte0x10
 3162 0d94 0B        	.uleb128 0xb
 3163 0d95 0000 0000 	.long.LASF203
 3164 0d99 0E        	.byte0xe
 3165 0d9a 36        	.byte0x36
 3166 0d9b 0000 0069 	.long0x69
 3167 0d9f 14        	.byte0x14
 3168 0da0 0B        	.uleb128 0xb
 3169 0da1 0000 0000 	.long.LASF204
 3170 0da5 0E        	.byte0xe
 3171 0da6 37        	.byte0x37
 3172 0da7 0000 0069 	.long0x69
 3173 0dab 16        	.byte0x16
 3174 0dac 0B        	.uleb128 0xb
 3175 0dad 0000 0000 	.long.LASF205
 3176 0db1 0E        	.byte0xe
 3177 0db2 38        	.byte0x38
 3178 0db3 0000 007B 	.long0x7b
 3179 0db7 18        	.byte0x18
 3180 0db8 0B        	.uleb128 0xb
 3181 0db9 0000 0000 	.long.LASF206
 3182 0dbd 0E        	.byte0xe
 3183 0dbe 39        	.byte0x39
68K GAS   			page 72


 3184 0dbf 0000 007B 	.long0x7b
 3185 0dc3 1C        	.byte0x1c
 3186 0dc4 0B        	.uleb128 0xb
 3187 0dc5 0000 0000 	.long.LASF207
 3188 0dc9 0E        	.byte0xe
 3189 0dca 3A        	.byte0x3a
 3190 0dcb 0000 0DDD 	.long0xddd
 3191 0dcf 20        	.byte0x20
 3192 0dd0 00        	.byte0
 3193 0dd1 0D        	.uleb128 0xd
 3194 0dd2 04        	.byte0x4
 3195 0dd3 0000 0094 	.long0x94
 3196 0dd7 0D        	.uleb128 0xd
 3197 0dd8 04        	.byte0x4
 3198 0dd9 0000 0D44 	.long0xd44
 3199 0ddd 06        	.uleb128 0x6
 3200 0dde 0000 0D44 	.long0xd44
 3201 0de2 0000 0DED 	.long0xded
 3202 0de6 07        	.uleb128 0x7
 3203 0de7 0000 0086 	.long0x86
 3204 0deb 10        	.byte0x10
 3205 0dec 00        	.byte0
 3206 0ded 02        	.uleb128 0x2
 3207 0dee 0000 0000 	.long.LASF208
 3208 0df2 0E        	.byte0xe
 3209 0df3 3B        	.byte0x3b
 3210 0df4 0000 0D4F 	.long0xd4f
 3211 0df8 1B        	.uleb128 0x1b
 3212 0df9 BC        	.byte0xbc
 3213 0dfa 0F        	.byte0xf
 3214 0dfb 05EE      	.word0x5ee
 3215 0dfd 0000 0E0F 	.long0xe0f
 3216 0e01 18        	.uleb128 0x18
 3217 0e02 0000 0000 	.long.LASF209
 3218 0e06 0F        	.byte0xf
 3219 0e07 05F0      	.word0x5f0
 3220 0e09 0000 0B15 	.long0xb15
 3221 0e0d 00        	.byte0
 3222 0e0e 00        	.byte0
 3223 0e0f 04        	.uleb128 0x4
 3224 0e10 0000 0000 	.long.LASF210
 3225 0e14 0F        	.byte0xf
 3226 0e15 05F2      	.word0x5f2
 3227 0e17 0000 0DF8 	.long0xdf8
 3228 0e1b 1B        	.uleb128 0x1b
 3229 0e1c C8        	.byte0xc8
 3230 0e1d 0F        	.byte0xf
 3231 0e1e 05F4      	.word0x5f4
 3232 0e20 0000 0E3F 	.long0xe3f
 3233 0e24 18        	.uleb128 0x18
 3234 0e25 0000 0000 	.long.LASF211
 3235 0e29 0F        	.byte0xf
 3236 0e2a 05F6      	.word0x5f6
 3237 0e2c 0000 0CAB 	.long0xcab
 3238 0e30 00        	.byte0
 3239 0e31 18        	.uleb128 0x18
 3240 0e32 0000 0000 	.long.LASF212
68K GAS   			page 73


 3241 0e36 0F        	.byte0xf
 3242 0e37 05F7      	.word0x5f7
 3243 0e39 0000 0E0F 	.long0xe0f
 3244 0e3d 0C        	.byte0xc
 3245 0e3e 00        	.byte0
 3246 0e3f 04        	.uleb128 0x4
 3247 0e40 0000 0000 	.long.LASF213
 3248 0e44 0F        	.byte0xf
 3249 0e45 05F8      	.word0x5f8
 3250 0e47 0000 0E1B 	.long0xe1b
 3251 0e4b 1B        	.uleb128 0x1b
 3252 0e4c E0        	.byte0xe0
 3253 0e4d 0F        	.byte0xf
 3254 0e4e 05FD      	.word0x5fd
 3255 0e50 0000 0E6F 	.long0xe6f
 3256 0e54 18        	.uleb128 0x18
 3257 0e55 0000 0000 	.long.LASF214
 3258 0e59 0F        	.byte0xf
 3259 0e5a 05FF      	.word0x5ff
 3260 0e5c 0000 09EE 	.long0x9ee
 3261 0e60 00        	.byte0
 3262 0e61 18        	.uleb128 0x18
 3263 0e62 0000 0000 	.long.LASF215
 3264 0e66 0F        	.byte0xf
 3265 0e67 0601      	.word0x601
 3266 0e69 0000 0BB9 	.long0xbb9
 3267 0e6d 04        	.byte0x4
 3268 0e6e 00        	.byte0
 3269 0e6f 04        	.uleb128 0x4
 3270 0e70 0000 0000 	.long.LASF216
 3271 0e74 0F        	.byte0xf
 3272 0e75 0602      	.word0x602
 3273 0e77 0000 0E4B 	.long0xe4b
 3274 0e7b 1B        	.uleb128 0x1b
 3275 0e7c EC        	.byte0xec
 3276 0e7d 0F        	.byte0xf
 3277 0e7e 0604      	.word0x604
 3278 0e80 0000 0E9F 	.long0xe9f
 3279 0e84 18        	.uleb128 0x18
 3280 0e85 0000 0000 	.long.LASF211
 3281 0e89 0F        	.byte0xf
 3282 0e8a 0606      	.word0x606
 3283 0e8c 0000 0CAB 	.long0xcab
 3284 0e90 00        	.byte0
 3285 0e91 18        	.uleb128 0x18
 3286 0e92 0000 0000 	.long.LASF212
 3287 0e96 0F        	.byte0xf
 3288 0e97 0607      	.word0x607
 3289 0e99 0000 0E6F 	.long0xe6f
 3290 0e9d 0C        	.byte0xc
 3291 0e9e 00        	.byte0
 3292 0e9f 04        	.uleb128 0x4
 3293 0ea0 0000 0000 	.long.LASF217
 3294 0ea4 0F        	.byte0xf
 3295 0ea5 0608      	.word0x608
 3296 0ea7 0000 0E7B 	.long0xe7b
 3297 0eab 1B        	.uleb128 0x1b
68K GAS   			page 74


 3298 0eac 90        	.byte0x90
 3299 0ead 0F        	.byte0xf
 3300 0eae 060F      	.word0x60f
 3301 0eb0 0000 10A3 	.long0x10a3
 3302 0eb4 18        	.uleb128 0x18
 3303 0eb5 0000 0000 	.long.LASF218
 3304 0eb9 0F        	.byte0xf
 3305 0eba 0611      	.word0x611
 3306 0ebc 0000 005E 	.long0x5e
 3307 0ec0 00        	.byte0
 3308 0ec1 18        	.uleb128 0x18
 3309 0ec2 0000 0000 	.long.LASF219
 3310 0ec6 0F        	.byte0xf
 3311 0ec7 0613      	.word0x613
 3312 0ec9 0000 005E 	.long0x5e
 3313 0ecd 01        	.byte0x1
 3314 0ece 18        	.uleb128 0x18
 3315 0ecf 0000 0000 	.long.LASF220
 3316 0ed3 0F        	.byte0xf
 3317 0ed4 0616      	.word0x616
 3318 0ed6 0000 0069 	.long0x69
 3319 0eda 02        	.byte0x2
 3320 0edb 18        	.uleb128 0x18
 3321 0edc 0000 0000 	.long.LASF221
 3322 0ee0 0F        	.byte0xf
 3323 0ee1 0618      	.word0x618
 3324 0ee3 0000 005E 	.long0x5e
 3325 0ee7 04        	.byte0x4
 3326 0ee8 18        	.uleb128 0x18
 3327 0ee9 0000 0000 	.long.LASF222
 3328 0eed 0F        	.byte0xf
 3329 0eee 061A      	.word0x61a
 3330 0ef0 0000 005E 	.long0x5e
 3331 0ef4 05        	.byte0x5
 3332 0ef5 18        	.uleb128 0x18
 3333 0ef6 0000 0000 	.long.LASF223
 3334 0efa 0F        	.byte0xf
 3335 0efb 061C      	.word0x61c
 3336 0efd 0000 005E 	.long0x5e
 3337 0f01 06        	.byte0x6
 3338 0f02 18        	.uleb128 0x18
 3339 0f03 0000 0000 	.long.LASF224
 3340 0f07 0F        	.byte0xf
 3341 0f08 061E      	.word0x61e
 3342 0f0a 0000 005E 	.long0x5e
 3343 0f0e 07        	.byte0x7
 3344 0f0f 18        	.uleb128 0x18
 3345 0f10 0000 0000 	.long.LASF225
 3346 0f14 0F        	.byte0xf
 3347 0f15 0620      	.word0x620
 3348 0f17 0000 005E 	.long0x5e
 3349 0f1b 08        	.byte0x8
 3350 0f1c 18        	.uleb128 0x18
 3351 0f1d 0000 0000 	.long.LASF226
 3352 0f21 0F        	.byte0xf
 3353 0f22 0622      	.word0x622
 3354 0f24 0000 005E 	.long0x5e
68K GAS   			page 75


 3355 0f28 09        	.byte0x9
 3356 0f29 18        	.uleb128 0x18
 3357 0f2a 0000 0000 	.long.LASF227
 3358 0f2e 0F        	.byte0xf
 3359 0f2f 0624      	.word0x624
 3360 0f31 0000 005E 	.long0x5e
 3361 0f35 0A        	.byte0xa
 3362 0f36 18        	.uleb128 0x18
 3363 0f37 0000 0000 	.long.LASF228
 3364 0f3b 0F        	.byte0xf
 3365 0f3c 0626      	.word0x626
 3366 0f3e 0000 005E 	.long0x5e
 3367 0f42 0B        	.byte0xb
 3368 0f43 18        	.uleb128 0x18
 3369 0f44 0000 0000 	.long.LASF229
 3370 0f48 0F        	.byte0xf
 3371 0f49 0629      	.word0x629
 3372 0f4b 0000 007B 	.long0x7b
 3373 0f4f 0C        	.byte0xc
 3374 0f50 18        	.uleb128 0x18
 3375 0f51 0000 0000 	.long.LASF230
 3376 0f55 0F        	.byte0xf
 3377 0f56 062B      	.word0x62b
 3378 0f58 0000 007B 	.long0x7b
 3379 0f5c 10        	.byte0x10
 3380 0f5d 18        	.uleb128 0x18
 3381 0f5e 0000 0000 	.long.LASF231
 3382 0f62 0F        	.byte0xf
 3383 0f63 062D      	.word0x62d
 3384 0f65 0000 007B 	.long0x7b
 3385 0f69 14        	.byte0x14
 3386 0f6a 18        	.uleb128 0x18
 3387 0f6b 0000 0000 	.long.LASF232
 3388 0f6f 0F        	.byte0xf
 3389 0f70 062F      	.word0x62f
 3390 0f72 0000 007B 	.long0x7b
 3391 0f76 18        	.byte0x18
 3392 0f77 18        	.uleb128 0x18
 3393 0f78 0000 0000 	.long.LASF233
 3394 0f7c 0F        	.byte0xf
 3395 0f7d 0632      	.word0x632
 3396 0f7f 0000 007B 	.long0x7b
 3397 0f83 1C        	.byte0x1c
 3398 0f84 18        	.uleb128 0x18
 3399 0f85 0000 0000 	.long.LASF234
 3400 0f89 0F        	.byte0xf
 3401 0f8a 0634      	.word0x634
 3402 0f8c 0000 007B 	.long0x7b
 3403 0f90 20        	.byte0x20
 3404 0f91 18        	.uleb128 0x18
 3405 0f92 0000 0000 	.long.LASF235
 3406 0f96 0F        	.byte0xf
 3407 0f97 0637      	.word0x637
 3408 0f99 0000 007B 	.long0x7b
 3409 0f9d 24        	.byte0x24
 3410 0f9e 18        	.uleb128 0x18
 3411 0f9f 0000 0000 	.long.LASF236
68K GAS   			page 76


 3412 0fa3 0F        	.byte0xf
 3413 0fa4 0639      	.word0x639
 3414 0fa6 0000 007B 	.long0x7b
 3415 0faa 28        	.byte0x28
 3416 0fab 18        	.uleb128 0x18
 3417 0fac 0000 0000 	.long.LASF237
 3418 0fb0 0F        	.byte0xf
 3419 0fb1 063B      	.word0x63b
 3420 0fb3 0000 007B 	.long0x7b
 3421 0fb7 2C        	.byte0x2c
 3422 0fb8 18        	.uleb128 0x18
 3423 0fb9 0000 0000 	.long.LASF238
 3424 0fbd 0F        	.byte0xf
 3425 0fbe 063D      	.word0x63d
 3426 0fc0 0000 007B 	.long0x7b
 3427 0fc4 30        	.byte0x30
 3428 0fc5 18        	.uleb128 0x18
 3429 0fc6 0000 0000 	.long.LASF239
 3430 0fca 0F        	.byte0xf
 3431 0fcb 0640      	.word0x640
 3432 0fcd 0000 007B 	.long0x7b
 3433 0fd1 34        	.byte0x34
 3434 0fd2 18        	.uleb128 0x18
 3435 0fd3 0000 0000 	.long.LASF240
 3436 0fd7 0F        	.byte0xf
 3437 0fd8 0642      	.word0x642
 3438 0fda 0000 007B 	.long0x7b
 3439 0fde 38        	.byte0x38
 3440 0fdf 18        	.uleb128 0x18
 3441 0fe0 0000 0000 	.long.LASF241
 3442 0fe4 0F        	.byte0xf
 3443 0fe5 0644      	.word0x644
 3444 0fe7 0000 007B 	.long0x7b
 3445 0feb 3C        	.byte0x3c
 3446 0fec 18        	.uleb128 0x18
 3447 0fed 0000 0000 	.long.LASF242
 3448 0ff1 0F        	.byte0xf
 3449 0ff2 0646      	.word0x646
 3450 0ff4 0000 007B 	.long0x7b
 3451 0ff8 40        	.byte0x40
 3452 0ff9 18        	.uleb128 0x18
 3453 0ffa 0000 0000 	.long.LASF243
 3454 0ffe 0F        	.byte0xf
 3455 0fff 0648      	.word0x648
 3456 1001 0000 007B 	.long0x7b
 3457 1005 44        	.byte0x44
 3458 1006 18        	.uleb128 0x18
 3459 1007 0000 0000 	.long.LASF244
 3460 100b 0F        	.byte0xf
 3461 100c 064B      	.word0x64b
 3462 100e 0000 007B 	.long0x7b
 3463 1012 48        	.byte0x48
 3464 1013 18        	.uleb128 0x18
 3465 1014 0000 0000 	.long.LASF245
 3466 1018 0F        	.byte0xf
 3467 1019 064D      	.word0x64d
 3468 101b 0000 007B 	.long0x7b
68K GAS   			page 77


 3469 101f 4C        	.byte0x4c
 3470 1020 18        	.uleb128 0x18
 3471 1021 0000 0000 	.long.LASF246
 3472 1025 0F        	.byte0xf
 3473 1026 064F      	.word0x64f
 3474 1028 0000 007B 	.long0x7b
 3475 102c 50        	.byte0x50
 3476 102d 18        	.uleb128 0x18
 3477 102e 0000 0000 	.long.LASF247
 3478 1032 0F        	.byte0xf
 3479 1033 0651      	.word0x651
 3480 1035 0000 10A3 	.long0x10a3
 3481 1039 54        	.byte0x54
 3482 103a 18        	.uleb128 0x18
 3483 103b 0000 0000 	.long.LASF248
 3484 103f 0F        	.byte0xf
 3485 1040 0653      	.word0x653
 3486 1042 0000 10A3 	.long0x10a3
 3487 1046 64        	.byte0x64
 3488 1047 18        	.uleb128 0x18
 3489 1048 0000 0000 	.long.LASF249
 3490 104c 0F        	.byte0xf
 3491 104d 0655      	.word0x655
 3492 104f 0000 007B 	.long0x7b
 3493 1053 74        	.byte0x74
 3494 1054 18        	.uleb128 0x18
 3495 1055 0000 0000 	.long.LASF250
 3496 1059 0F        	.byte0xf
 3497 105a 0657      	.word0x657
 3498 105c 0000 007B 	.long0x7b
 3499 1060 78        	.byte0x78
 3500 1061 18        	.uleb128 0x18
 3501 1062 0000 0000 	.long.LASF251
 3502 1066 0F        	.byte0xf
 3503 1067 0659      	.word0x659
 3504 1069 0000 007B 	.long0x7b
 3505 106d 7C        	.byte0x7c
 3506 106e 18        	.uleb128 0x18
 3507 106f 0000 0000 	.long.LASF252
 3508 1073 0F        	.byte0xf
 3509 1074 065B      	.word0x65b
 3510 1076 0000 007B 	.long0x7b
 3511 107a 80        	.byte0x80
 3512 107b 18        	.uleb128 0x18
 3513 107c 0000 0000 	.long.LASF253
 3514 1080 0F        	.byte0xf
 3515 1081 065D      	.word0x65d
 3516 1083 0000 007B 	.long0x7b
 3517 1087 84        	.byte0x84
 3518 1088 18        	.uleb128 0x18
 3519 1089 0000 0000 	.long.LASF254
 3520 108d 0F        	.byte0xf
 3521 108e 065F      	.word0x65f
 3522 1090 0000 007B 	.long0x7b
 3523 1094 88        	.byte0x88
 3524 1095 18        	.uleb128 0x18
 3525 1096 0000 0000 	.long.LASF255
68K GAS   			page 78


 3526 109a 0F        	.byte0xf
 3527 109b 0661      	.word0x661
 3528 109d 0000 007B 	.long0x7b
 3529 10a1 8C        	.byte0x8c
 3530 10a2 00        	.byte0
 3531 10a3 06        	.uleb128 0x6
 3532 10a4 0000 007B 	.long0x7b
 3533 10a8 0000 10B3 	.long0x10b3
 3534 10ac 07        	.uleb128 0x7
 3535 10ad 0000 0086 	.long0x86
 3536 10b1 03        	.byte0x3
 3537 10b2 00        	.byte0
 3538 10b3 04        	.uleb128 0x4
 3539 10b4 0000 0000 	.long.LASF256
 3540 10b8 0F        	.byte0xf
 3541 10b9 0663      	.word0x663
 3542 10bb 0000 0EAB 	.long0xeab
 3543 10bf 1B        	.uleb128 0x1b
 3544 10c0 9C        	.byte0x9c
 3545 10c1 0F        	.byte0xf
 3546 10c2 0665      	.word0x665
 3547 10c4 0000 10E3 	.long0x10e3
 3548 10c8 18        	.uleb128 0x18
 3549 10c9 0000 0000 	.long.LASF211
 3550 10cd 0F        	.byte0xf
 3551 10ce 0667      	.word0x667
 3552 10d0 0000 0CAB 	.long0xcab
 3553 10d4 00        	.byte0
 3554 10d5 18        	.uleb128 0x18
 3555 10d6 0000 0000 	.long.LASF212
 3556 10da 0F        	.byte0xf
 3557 10db 0668      	.word0x668
 3558 10dd 0000 10B3 	.long0x10b3
 3559 10e1 0C        	.byte0xc
 3560 10e2 00        	.byte0
 3561 10e3 04        	.uleb128 0x4
 3562 10e4 0000 0000 	.long.LASF257
 3563 10e8 0F        	.byte0xf
 3564 10e9 066A      	.word0x66a
 3565 10eb 0000 10BF 	.long0x10bf
 3566 10ef 1B        	.uleb128 0x1b
 3567 10f0 40        	.byte0x40
 3568 10f1 0F        	.byte0xf
 3569 10f2 066F      	.word0x66f
 3570 10f4 0000 1106 	.long0x1106
 3571 10f8 18        	.uleb128 0x18
 3572 10f9 0000 0000 	.long.LASF258
 3573 10fd 0F        	.byte0xf
 3574 10fe 0671      	.word0x671
 3575 1100 0000 09DE 	.long0x9de
 3576 1104 00        	.byte0
 3577 1105 00        	.byte0
 3578 1106 04        	.uleb128 0x4
 3579 1107 0000 0000 	.long.LASF259
 3580 110b 0F        	.byte0xf
 3581 110c 0673      	.word0x673
 3582 110e 0000 10EF 	.long0x10ef
68K GAS   			page 79


 3583 1112 1B        	.uleb128 0x1b
 3584 1113 4C        	.byte0x4c
 3585 1114 0F        	.byte0xf
 3586 1115 0675      	.word0x675
 3587 1117 0000 1136 	.long0x1136
 3588 111b 18        	.uleb128 0x18
 3589 111c 0000 0000 	.long.LASF211
 3590 1120 0F        	.byte0xf
 3591 1121 0677      	.word0x677
 3592 1123 0000 0CAB 	.long0xcab
 3593 1127 00        	.byte0
 3594 1128 18        	.uleb128 0x18
 3595 1129 0000 0000 	.long.LASF212
 3596 112d 0F        	.byte0xf
 3597 112e 0678      	.word0x678
 3598 1130 0000 1106 	.long0x1106
 3599 1134 0C        	.byte0xc
 3600 1135 00        	.byte0
 3601 1136 04        	.uleb128 0x4
 3602 1137 0000 0000 	.long.LASF260
 3603 113b 0F        	.byte0xf
 3604 113c 0679      	.word0x679
 3605 113e 0000 1112 	.long0x1112
 3606 1142 22        	.uleb128 0x22
 3607 1143 02C0      	.word0x2c0
 3608 1145 10        	.byte0x10
 3609 1146 69        	.byte0x69
 3610 1147 0000 11E3 	.long0x11e3
 3611 114b 0B        	.uleb128 0xb
 3612 114c 0000 0000 	.long.LASF218
 3613 1150 10        	.byte0x10
 3614 1151 6E        	.byte0x6e
 3615 1152 0000 005E 	.long0x5e
 3616 1156 00        	.byte0
 3617 1157 0B        	.uleb128 0xb
 3618 1158 0000 0000 	.long.LASF219
 3619 115c 10        	.byte0x10
 3620 115d 6F        	.byte0x6f
 3621 115e 0000 005E 	.long0x5e
 3622 1162 01        	.byte0x1
 3623 1163 0B        	.uleb128 0xb
 3624 1164 0000 0000 	.long.LASF261
 3625 1168 10        	.byte0x10
 3626 1169 74        	.byte0x74
 3627 116a 0000 10E3 	.long0x10e3
 3628 116e 04        	.byte0x4
 3629 116f 0B        	.uleb128 0xb
 3630 1170 0000 0000 	.long.LASF262
 3631 1174 10        	.byte0x10
 3632 1175 7A        	.byte0x7a
 3633 1176 0000 1136 	.long0x1136
 3634 117a A0        	.byte0xa0
 3635 117b 0B        	.uleb128 0xb
 3636 117c 0000 0000 	.long.LASF263
 3637 1180 10        	.byte0x10
 3638 1181 7F        	.byte0x7f
 3639 1182 0000 0E3F 	.long0xe3f
68K GAS   			page 80


 3640 1186 EC        	.byte0xec
 3641 1187 13        	.uleb128 0x13
 3642 1188 0000 0000 	.long.LASF264
 3643 118c 10        	.byte0x10
 3644 118d 84        	.byte0x84
 3645 118e 0000 0E9F 	.long0xe9f
 3646 1192 01B4      	.word0x1b4
 3647 1194 13        	.uleb128 0x13
 3648 1195 0000 0000 	.long.LASF265
 3649 1199 10        	.byte0x10
 3650 119a 89        	.byte0x89
 3651 119b 0000 0C5D 	.long0xc5d
 3652 119f 02A0      	.word0x2a0
 3653 11a1 13        	.uleb128 0x13
 3654 11a2 0000 0000 	.long.LASF266
 3655 11a6 10        	.byte0x10
 3656 11a7 8A        	.byte0x8a
 3657 11a8 0000 0C52 	.long0xc52
 3658 11ac 02A4      	.word0x2a4
 3659 11ae 13        	.uleb128 0x13
 3660 11af 0000 0000 	.long.LASF267
 3661 11b3 10        	.byte0x10
 3662 11b4 8F        	.byte0x8f
 3663 11b5 0000 00B7 	.long0xb7
 3664 11b9 02A5      	.word0x2a5
 3665 11bb 13        	.uleb128 0x13
 3666 11bc 0000 0000 	.long.LASF268
 3667 11c0 10        	.byte0x10
 3668 11c1 90        	.byte0x90
 3669 11c2 0000 0069 	.long0x69
 3670 11c6 02BA      	.word0x2ba
 3671 11c8 13        	.uleb128 0x13
 3672 11c9 0000 0000 	.long.LASF269
 3673 11cd 10        	.byte0x10
 3674 11ce 92        	.byte0x92
 3675 11cf 0000 005E 	.long0x5e
 3676 11d3 02BC      	.word0x2bc
 3677 11d5 13        	.uleb128 0x13
 3678 11d6 0000 0000 	.long.LASF270
 3679 11da 10        	.byte0x10
 3680 11db 93        	.byte0x93
 3681 11dc 0000 005E 	.long0x5e
 3682 11e0 02BD      	.word0x2bd
 3683 11e2 00        	.byte0
 3684 11e3 02        	.uleb128 0x2
 3685 11e4 0000 0000 	.long.LASF271
 3686 11e8 10        	.byte0x10
 3687 11e9 95        	.byte0x95
 3688 11ea 0000 1142 	.long0x1142
 3689 11ee 20        	.uleb128 0x20
 3690 11ef 0000 0000 	.long.LASF272
 3691 11f3 10        	.byte0x10
 3692 11f4 9A        	.byte0x9a
 3693 11f5 0000 11E3 	.long0x11e3
 3694 11f9 06        	.uleb128 0x6
 3695 11fa 0000 007B 	.long0x7b
 3696 11fe 0000 1209 	.long0x1209
68K GAS   			page 81


 3697 1202 07        	.uleb128 0x7
 3698 1203 0000 0086 	.long0x86
 3699 1207 10        	.byte0x10
 3700 1208 00        	.byte0
 3701 1209 23        	.uleb128 0x23
 3702 120a 0000 0000 	.long.LASF273
 3703 120e 01        	.byte0x1
 3704 120f 5C        	.byte0x5c
 3705 1210 0000 11F9 	.long0x11f9
 3706 1214 05        	.uleb128 0x5
 3707 1215 03        	.byte0x3
 3708 1216 0000 0000 	.longCFE_ES_MemPoolDefSize
 3709 121a 24        	.uleb128 0x24
 3710 121b 0000 0000 	.long.LASF276
 3711 121f 01        	.byte0x1
 3712 1220 0277      	.word0x277
 3713 1222 0000 009F 	.long0x9f
 3714 1226 0000 0000 	.long.LFB67
 3715 122a 0000 009A 	.long.LFE67-.LFB67
 3716 122e 01        	.uleb128 0x1
 3717 122f 9C        	.byte0x9c
 3718 1230 0000 1262 	.long0x1262
 3719 1234 25        	.uleb128 0x25
 3720 1235 0000 0000 	.long.LASF278
 3721 1239 01        	.byte0x1
 3722 123a 0277      	.word0x277
 3723 123c 0000 09EE 	.long0x9ee
 3724 1240 02        	.uleb128 0x2
 3725 1241 91        	.byte0x91
 3726 1242 00        	.sleb128 0
 3727 1243 26        	.uleb128 0x26
 3728 1244 0000 0000 	.long.LASF274
 3729 1248 01        	.byte0x1
 3730 1249 0279      	.word0x279
 3731 124b 0000 009F 	.long0x9f
 3732 124f 02        	.uleb128 0x2
 3733 1250 91        	.byte0x91
 3734 1251 7B        	.sleb128 -5
 3735 1252 26        	.uleb128 0x26
 3736 1253 0000 0000 	.long.LASF275
 3737 1257 01        	.byte0x1
 3738 1258 027A      	.word0x27a
 3739 125a 0000 1262 	.long0x1262
 3740 125e 02        	.uleb128 0x2
 3741 125f 91        	.byte0x91
 3742 1260 74        	.sleb128 -12
 3743 1261 00        	.byte0
 3744 1262 0D        	.uleb128 0xd
 3745 1263 04        	.byte0x4
 3746 1264 0000 0DED 	.long0xded
 3747 1268 24        	.uleb128 0x24
 3748 1269 0000 0000 	.long.LASF277
 3749 126d 01        	.byte0x1
 3750 126e 0250      	.word0x250
 3751 1270 0000 0045 	.long0x45
 3752 1274 0000 0000 	.long.LFB66
 3753 1278 0000 0150 	.long.LFE66-.LFB66
68K GAS   			page 82


 3754 127c 01        	.uleb128 0x1
 3755 127d 9C        	.byte0x9c
 3756 127e 0000 12CC 	.long0x12cc
 3757 1282 25        	.uleb128 0x25
 3758 1283 0000 0000 	.long.LASF279
 3759 1287 01        	.byte0x1
 3760 1288 0250      	.word0x250
 3761 128a 0000 12CC 	.long0x12cc
 3762 128e 02        	.uleb128 0x2
 3763 128f 91        	.byte0x91
 3764 1290 00        	.sleb128 0
 3765 1291 25        	.uleb128 0x25
 3766 1292 0000 0000 	.long.LASF278
 3767 1296 01        	.byte0x1
 3768 1297 0251      	.word0x251
 3769 1299 0000 09EE 	.long0x9ee
 3770 129d 02        	.uleb128 0x2
 3771 129e 91        	.byte0x91
 3772 129f 04        	.sleb128 4
 3773 12a0 26        	.uleb128 0x26
 3774 12a1 0000 0000 	.long.LASF149
 3775 12a5 01        	.byte0x1
 3776 12a6 0253      	.word0x253
 3777 12a8 0000 007B 	.long0x7b
 3778 12ac 02        	.uleb128 0x2
 3779 12ad 91        	.byte0x91
 3780 12ae 70        	.sleb128 -16
 3781 12af 26        	.uleb128 0x26
 3782 12b0 0000 0000 	.long.LASF275
 3783 12b4 01        	.byte0x1
 3784 12b5 0254      	.word0x254
 3785 12b7 0000 1262 	.long0x1262
 3786 12bb 02        	.uleb128 0x2
 3787 12bc 91        	.byte0x91
 3788 12bd 74        	.sleb128 -12
 3789 12be 27        	.uleb128 0x27
 3790 12bf 6900      	.string"i"
 3791 12c1 01        	.byte0x1
 3792 12c2 0255      	.word0x255
 3793 12c4 0000 007B 	.long0x7b
 3794 12c8 02        	.uleb128 0x2
 3795 12c9 91        	.byte0x91
 3796 12ca 78        	.sleb128 -8
 3797 12cb 00        	.byte0
 3798 12cc 0D        	.uleb128 0xd
 3799 12cd 04        	.byte0x4
 3800 12ce 0000 0BB9 	.long0xbb9
 3801 12d2 28        	.uleb128 0x28
 3802 12d3 0000 0000 	.long.LASF280
 3803 12d7 01        	.byte0x1
 3804 12d8 0230      	.word0x230
 3805 12da 0000 007B 	.long0x7b
 3806 12de 0000 0000 	.long.LFB65
 3807 12e2 0000 0068 	.long.LFE65-.LFB65
 3808 12e6 01        	.uleb128 0x1
 3809 12e7 9C        	.byte0x9c
 3810 12e8 0000 1318 	.long0x1318
68K GAS   			page 83


 3811 12ec 25        	.uleb128 0x25
 3812 12ed 0000 0000 	.long.LASF275
 3813 12f1 01        	.byte0x1
 3814 12f2 0230      	.word0x230
 3815 12f4 0000 1262 	.long0x1262
 3816 12f8 02        	.uleb128 0x2
 3817 12f9 91        	.byte0x91
 3818 12fa 00        	.sleb128 0
 3819 12fb 25        	.uleb128 0x25
 3820 12fc 0000 0000 	.long.LASF195
 3821 1300 01        	.byte0x1
 3822 1301 0230      	.word0x230
 3823 1303 0000 007B 	.long0x7b
 3824 1307 02        	.uleb128 0x2
 3825 1308 91        	.byte0x91
 3826 1309 04        	.sleb128 4
 3827 130a 27        	.uleb128 0x27
 3828 130b 6900      	.string"i"
 3829 130d 01        	.byte0x1
 3830 130e 0232      	.word0x232
 3831 1310 0000 007B 	.long0x7b
 3832 1314 02        	.uleb128 0x2
 3833 1315 91        	.byte0x91
 3834 1316 78        	.sleb128 -8
 3835 1317 00        	.byte0
 3836 1318 24        	.uleb128 0x24
 3837 1319 0000 0000 	.long.LASF281
 3838 131d 01        	.byte0x1
 3839 131e 01D4      	.word0x1d4
 3840 1320 0000 0045 	.long0x45
 3841 1324 0000 0000 	.long.LFB64
 3842 1328 0000 0250 	.long.LFE64-.LFB64
 3843 132c 01        	.uleb128 0x1
 3844 132d 9C        	.byte0x9c
 3845 132e 0000 138D 	.long0x138d
 3846 1332 25        	.uleb128 0x25
 3847 1333 0000 0000 	.long.LASF278
 3848 1337 01        	.byte0x1
 3849 1338 01D4      	.word0x1d4
 3850 133a 0000 09EE 	.long0x9ee
 3851 133e 02        	.uleb128 0x2
 3852 133f 91        	.byte0x91
 3853 1340 00        	.sleb128 0
 3854 1341 25        	.uleb128 0x25
 3855 1342 0000 0000 	.long.LASF279
 3856 1346 01        	.byte0x1
 3857 1347 01D5      	.word0x1d5
 3858 1349 0000 0CF4 	.long0xcf4
 3859 134d 02        	.uleb128 0x2
 3860 134e 91        	.byte0x91
 3861 134f 04        	.sleb128 4
 3862 1350 26        	.uleb128 0x26
 3863 1351 0000 0000 	.long.LASF275
 3864 1355 01        	.byte0x1
 3865 1356 01D7      	.word0x1d7
 3866 1358 0000 1262 	.long0x1262
 3867 135c 02        	.uleb128 0x2
68K GAS   			page 84


 3868 135d 91        	.byte0x91
 3869 135e 78        	.sleb128 -8
 3870 135f 26        	.uleb128 0x26
 3871 1360 0000 0000 	.long.LASF282
 3872 1364 01        	.byte0x1
 3873 1365 01D8      	.word0x1d8
 3874 1367 0000 0D3E 	.long0xd3e
 3875 136b 02        	.uleb128 0x2
 3876 136c 91        	.byte0x91
 3877 136d 74        	.sleb128 -12
 3878 136e 26        	.uleb128 0x26
 3879 136f 0000 0000 	.long.LASF283
 3880 1373 01        	.byte0x1
 3881 1374 01D9      	.word0x1d9
 3882 1376 0000 007B 	.long0x7b
 3883 137a 02        	.uleb128 0x2
 3884 137b 91        	.byte0x91
 3885 137c 6C        	.sleb128 -20
 3886 137d 26        	.uleb128 0x26
 3887 137e 0000 0000 	.long.LASF284
 3888 1382 01        	.byte0x1
 3889 1383 01DA      	.word0x1da
 3890 1385 0000 0094 	.long0x94
 3891 1389 02        	.uleb128 0x2
 3892 138a 91        	.byte0x91
 3893 138b 70        	.sleb128 -16
 3894 138c 00        	.byte0
 3895 138d 24        	.uleb128 0x24
 3896 138e 0000 0000 	.long.LASF285
 3897 1392 01        	.byte0x1
 3898 1393 0199      	.word0x199
 3899 1395 0000 0045 	.long0x45
 3900 1399 0000 0000 	.long.LFB63
 3901 139d 0000 010C 	.long.LFE63-.LFB63
 3902 13a1 01        	.uleb128 0x1
 3903 13a2 9C        	.byte0x9c
 3904 13a3 0000 13E4 	.long0x13e4
 3905 13a7 25        	.uleb128 0x25
 3906 13a8 0000 0000 	.long.LASF278
 3907 13ac 01        	.byte0x1
 3908 13ad 0199      	.word0x199
 3909 13af 0000 09EE 	.long0x9ee
 3910 13b3 02        	.uleb128 0x2
 3911 13b4 91        	.byte0x91
 3912 13b5 00        	.sleb128 0
 3913 13b6 25        	.uleb128 0x25
 3914 13b7 0000 0000 	.long.LASF279
 3915 13bb 01        	.byte0x1
 3916 13bc 019A      	.word0x19a
 3917 13be 0000 0CF4 	.long0xcf4
 3918 13c2 02        	.uleb128 0x2
 3919 13c3 91        	.byte0x91
 3920 13c4 04        	.sleb128 4
 3921 13c5 26        	.uleb128 0x26
 3922 13c6 0000 0000 	.long.LASF275
 3923 13ca 01        	.byte0x1
 3924 13cb 019C      	.word0x19c
68K GAS   			page 85


 3925 13cd 0000 1262 	.long0x1262
 3926 13d1 02        	.uleb128 0x2
 3927 13d2 91        	.byte0x91
 3928 13d3 78        	.sleb128 -8
 3929 13d4 26        	.uleb128 0x26
 3930 13d5 0000 0000 	.long.LASF282
 3931 13d9 01        	.byte0x1
 3932 13da 019D      	.word0x19d
 3933 13dc 0000 0D3E 	.long0xd3e
 3934 13e0 02        	.uleb128 0x2
 3935 13e1 91        	.byte0x91
 3936 13e2 74        	.sleb128 -12
 3937 13e3 00        	.byte0
 3938 13e4 24        	.uleb128 0x24
 3939 13e5 0000 0000 	.long.LASF286
 3940 13e9 01        	.byte0x1
 3941 13ea 0131      	.word0x131
 3942 13ec 0000 0045 	.long0x45
 3943 13f0 0000 0000 	.long.LFB62
 3944 13f4 0000 0282 	.long.LFE62-.LFB62
 3945 13f8 01        	.uleb128 0x1
 3946 13f9 9C        	.byte0x9c
 3947 13fa 0000 1468 	.long0x1468
 3948 13fe 25        	.uleb128 0x25
 3949 13ff 0000 0000 	.long.LASF279
 3950 1403 01        	.byte0x1
 3951 1404 0131      	.word0x131
 3952 1406 0000 1468 	.long0x1468
 3953 140a 02        	.uleb128 0x2
 3954 140b 91        	.byte0x91
 3955 140c 00        	.sleb128 0
 3956 140d 25        	.uleb128 0x25
 3957 140e 0000 0000 	.long.LASF278
 3958 1412 01        	.byte0x1
 3959 1413 0132      	.word0x132
 3960 1415 0000 09EE 	.long0x9ee
 3961 1419 02        	.uleb128 0x2
 3962 141a 91        	.byte0x91
 3963 141b 04        	.sleb128 4
 3964 141c 25        	.uleb128 0x25
 3965 141d 0000 0000 	.long.LASF195
 3966 1421 01        	.byte0x1
 3967 1422 0133      	.word0x133
 3968 1424 0000 007B 	.long0x7b
 3969 1428 02        	.uleb128 0x2
 3970 1429 91        	.byte0x91
 3971 142a 08        	.sleb128 8
 3972 142b 26        	.uleb128 0x26
 3973 142c 0000 0000 	.long.LASF275
 3974 1430 01        	.byte0x1
 3975 1431 0135      	.word0x135
 3976 1433 0000 1262 	.long0x1262
 3977 1437 02        	.uleb128 0x2
 3978 1438 91        	.byte0x91
 3979 1439 78        	.sleb128 -8
 3980 143a 26        	.uleb128 0x26
 3981 143b 0000 0000 	.long.LASF283
68K GAS   			page 86


 3982 143f 01        	.byte0x1
 3983 1440 0136      	.word0x136
 3984 1442 0000 007B 	.long0x7b
 3985 1446 02        	.uleb128 0x2
 3986 1447 91        	.byte0x91
 3987 1448 74        	.sleb128 -12
 3988 1449 26        	.uleb128 0x26
 3989 144a 0000 0000 	.long.LASF282
 3990 144e 01        	.byte0x1
 3991 144f 0137      	.word0x137
 3992 1451 0000 0D3E 	.long0xd3e
 3993 1455 02        	.uleb128 0x2
 3994 1456 91        	.byte0x91
 3995 1457 70        	.sleb128 -16
 3996 1458 26        	.uleb128 0x26
 3997 1459 0000 0000 	.long.LASF149
 3998 145d 01        	.byte0x1
 3999 145e 0138      	.word0x138
 4000 1460 0000 007B 	.long0x7b
 4001 1464 02        	.uleb128 0x2
 4002 1465 91        	.byte0x91
 4003 1466 6C        	.sleb128 -20
 4004 1467 00        	.byte0
 4005 1468 0D        	.uleb128 0xd
 4006 1469 04        	.byte0x4
 4007 146a 0000 0CF4 	.long0xcf4
 4008 146e 29        	.uleb128 0x29
 4009 146f 0000 0000 	.long.LASF287
 4010 1473 01        	.byte0x1
 4011 1474 93        	.byte0x93
 4012 1475 0000 0045 	.long0x45
 4013 1479 0000 0000 	.long.LFB61
 4014 147d 0000 037A 	.long.LFE61-.LFB61
 4015 1481 01        	.uleb128 0x1
 4016 1482 9C        	.byte0x9c
 4017 1483 0000 1554 	.long0x1554
 4018 1487 2A        	.uleb128 0x2a
 4019 1488 0000 0000 	.long.LASF288
 4020 148c 01        	.byte0x1
 4021 148d 93        	.byte0x93
 4022 148e 0000 1554 	.long0x1554
 4023 1492 02        	.uleb128 0x2
 4024 1493 91        	.byte0x91
 4025 1494 00        	.sleb128 0
 4026 1495 2A        	.uleb128 0x2a
 4027 1496 0000 0000 	.long.LASF289
 4028 149a 01        	.byte0x1
 4029 149b 94        	.byte0x94
 4030 149c 0000 0C6E 	.long0xc6e
 4031 14a0 02        	.uleb128 0x2
 4032 14a1 91        	.byte0x91
 4033 14a2 04        	.sleb128 4
 4034 14a3 2A        	.uleb128 0x2a
 4035 14a4 0000 0000 	.long.LASF195
 4036 14a8 01        	.byte0x1
 4037 14a9 95        	.byte0x95
 4038 14aa 0000 007B 	.long0x7b
68K GAS   			page 87


 4039 14ae 02        	.uleb128 0x2
 4040 14af 91        	.byte0x91
 4041 14b0 08        	.sleb128 8
 4042 14b1 2A        	.uleb128 0x2a
 4043 14b2 0000 0000 	.long.LASF290
 4044 14b6 01        	.byte0x1
 4045 14b7 96        	.byte0x96
 4046 14b8 0000 007B 	.long0x7b
 4047 14bc 02        	.uleb128 0x2
 4048 14bd 91        	.byte0x91
 4049 14be 0C        	.sleb128 12
 4050 14bf 2A        	.uleb128 0x2a
 4051 14c0 0000 0000 	.long.LASF291
 4052 14c4 01        	.byte0x1
 4053 14c5 97        	.byte0x97
 4054 14c6 0000 0CF4 	.long0xcf4
 4055 14ca 02        	.uleb128 0x2
 4056 14cb 91        	.byte0x91
 4057 14cc 10        	.sleb128 16
 4058 14cd 2A        	.uleb128 0x2a
 4059 14ce 0000 0000 	.long.LASF206
 4060 14d2 01        	.byte0x1
 4061 14d3 98        	.byte0x98
 4062 14d4 0000 0069 	.long0x69
 4063 14d8 02        	.uleb128 0x2
 4064 14d9 91        	.byte0x91
 4065 14da 44        	.sleb128 -60
 4066 14db 2B        	.uleb128 0x2b
 4067 14dc 0000 0000 	.long.LASF292
 4068 14e0 01        	.byte0x1
 4069 14e1 9A        	.byte0x9a
 4070 14e2 0000 00B7 	.long0xb7
 4071 14e6 02        	.uleb128 0x2
 4072 14e7 91        	.byte0x91
 4073 14e8 48        	.sleb128 -56
 4074 14e9 2B        	.uleb128 0x2b
 4075 14ea 0000 0000 	.long.LASF293
 4076 14ee 01        	.byte0x1
 4077 14ef 9B        	.byte0x9b
 4078 14f0 0000 0094 	.long0x94
 4079 14f4 02        	.uleb128 0x2
 4080 14f5 91        	.byte0x91
 4081 14f6 5C        	.sleb128 -36
 4082 14f7 2C        	.uleb128 0x2c
 4083 14f8 6900      	.string"i"
 4084 14fa 01        	.byte0x1
 4085 14fb 9C        	.byte0x9c
 4086 14fc 0000 007B 	.long0x7b
 4087 1500 02        	.uleb128 0x2
 4088 1501 91        	.byte0x91
 4089 1502 78        	.sleb128 -8
 4090 1503 2C        	.uleb128 0x2c
 4091 1504 6A00      	.string"j"
 4092 1506 01        	.byte0x1
 4093 1507 9D        	.byte0x9d
 4094 1508 0000 007B 	.long0x7b
 4095 150c 02        	.uleb128 0x2
68K GAS   			page 88


 4096 150d 91        	.byte0x91
 4097 150e 74        	.sleb128 -12
 4098 150f 2C        	.uleb128 0x2c
 4099 1510 6B00      	.string"k"
 4100 1512 01        	.byte0x1
 4101 1513 9E        	.byte0x9e
 4102 1514 0000 007B 	.long0x7b
 4103 1518 02        	.uleb128 0x2
 4104 1519 91        	.byte0x91
 4105 151a 70        	.sleb128 -16
 4106 151b 2B        	.uleb128 0x2b
 4107 151c 0000 0000 	.long.LASF294
 4108 1520 01        	.byte0x1
 4109 1521 9F        	.byte0x9f
 4110 1522 0000 0CF4 	.long0xcf4
 4111 1526 02        	.uleb128 0x2
 4112 1527 91        	.byte0x91
 4113 1528 6C        	.sleb128 -20
 4114 1529 2B        	.uleb128 0x2b
 4115 152a 0000 0000 	.long.LASF295
 4116 152e 01        	.byte0x1
 4117 152f A0        	.byte0xa0
 4118 1530 0000 007B 	.long0x7b
 4119 1534 02        	.uleb128 0x2
 4120 1535 91        	.byte0x91
 4121 1536 68        	.sleb128 -24
 4122 1537 2B        	.uleb128 0x2b
 4123 1538 0000 0000 	.long.LASF296
 4124 153c 01        	.byte0x1
 4125 153d A1        	.byte0xa1
 4126 153e 0000 007B 	.long0x7b
 4127 1542 02        	.uleb128 0x2
 4128 1543 91        	.byte0x91
 4129 1544 64        	.sleb128 -28
 4130 1545 2B        	.uleb128 0x2b
 4131 1546 0000 0000 	.long.LASF275
 4132 154a 01        	.byte0x1
 4133 154b A6        	.byte0xa6
 4134 154c 0000 1262 	.long0x1262
 4135 1550 02        	.uleb128 0x2
 4136 1551 91        	.byte0x91
 4137 1552 60        	.sleb128 -32
 4138 1553 00        	.byte0
 4139 1554 0D        	.uleb128 0xd
 4140 1555 04        	.byte0x4
 4141 1556 0000 09EE 	.long0x9ee
 4142 155a 29        	.uleb128 0x29
 4143 155b 0000 0000 	.long.LASF297
 4144 155f 01        	.byte0x1
 4145 1560 8A        	.byte0x8a
 4146 1561 0000 0045 	.long0x45
 4147 1565 0000 0000 	.long.LFB60
 4148 1569 0000 0026 	.long.LFE60-.LFB60
 4149 156d 01        	.uleb128 0x1
 4150 156e 9C        	.byte0x9c
 4151 156f 0000 159E 	.long0x159e
 4152 1573 2A        	.uleb128 0x2a
68K GAS   			page 89


 4153 1574 0000 0000 	.long.LASF288
 4154 1578 01        	.byte0x1
 4155 1579 8A        	.byte0x8a
 4156 157a 0000 1554 	.long0x1554
 4157 157e 02        	.uleb128 0x2
 4158 157f 91        	.byte0x91
 4159 1580 00        	.sleb128 0
 4160 1581 2A        	.uleb128 0x2a
 4161 1582 0000 0000 	.long.LASF289
 4162 1586 01        	.byte0x1
 4163 1587 8B        	.byte0x8b
 4164 1588 0000 0C6E 	.long0xc6e
 4165 158c 02        	.uleb128 0x2
 4166 158d 91        	.byte0x91
 4167 158e 04        	.sleb128 4
 4168 158f 2A        	.uleb128 0x2a
 4169 1590 0000 0000 	.long.LASF195
 4170 1594 01        	.byte0x1
 4171 1595 8C        	.byte0x8c
 4172 1596 0000 007B 	.long0x7b
 4173 159a 02        	.uleb128 0x2
 4174 159b 91        	.byte0x91
 4175 159c 08        	.sleb128 8
 4176 159d 00        	.byte0
 4177 159e 2D        	.uleb128 0x2d
 4178 159f 0000 0000 	.long.LASF301
 4179 15a3 01        	.byte0x1
 4180 15a4 7F        	.byte0x7f
 4181 15a5 0000 0045 	.long0x45
 4182 15a9 0000 0000 	.long.LFB59
 4183 15ad 0000 0024 	.long.LFE59-.LFB59
 4184 15b1 01        	.uleb128 0x1
 4185 15b2 9C        	.byte0x9c
 4186 15b3 2A        	.uleb128 0x2a
 4187 15b4 0000 0000 	.long.LASF288
 4188 15b8 01        	.byte0x1
 4189 15b9 7F        	.byte0x7f
 4190 15ba 0000 1554 	.long0x1554
 4191 15be 02        	.uleb128 0x2
 4192 15bf 91        	.byte0x91
 4193 15c0 00        	.sleb128 0
 4194 15c1 2A        	.uleb128 0x2a
 4195 15c2 0000 0000 	.long.LASF289
 4196 15c6 01        	.byte0x1
 4197 15c7 80        	.byte0x80
 4198 15c8 0000 0C6E 	.long0xc6e
 4199 15cc 02        	.uleb128 0x2
 4200 15cd 91        	.byte0x91
 4201 15ce 04        	.sleb128 4
 4202 15cf 2A        	.uleb128 0x2a
 4203 15d0 0000 0000 	.long.LASF195
 4204 15d4 01        	.byte0x1
 4205 15d5 81        	.byte0x81
 4206 15d6 0000 007B 	.long0x7b
 4207 15da 02        	.uleb128 0x2
 4208 15db 91        	.byte0x91
 4209 15dc 08        	.sleb128 8
68K GAS   			page 90


 4210 15dd 00        	.byte0
 4211 15de 00        	.byte0
 4212               	.section.debug_abbrev,"",@progbits
 4213               	.Ldebug_abbrev0:
 4214 0000 01        	.uleb128 0x1
 4215 0001 11        	.uleb128 0x11
 4216 0002 01        	.byte0x1
 4217 0003 25        	.uleb128 0x25
 4218 0004 0E        	.uleb128 0xe
 4219 0005 13        	.uleb128 0x13
 4220 0006 0B        	.uleb128 0xb
 4221 0007 03        	.uleb128 0x3
 4222 0008 0E        	.uleb128 0xe
 4223 0009 1B        	.uleb128 0x1b
 4224 000a 0E        	.uleb128 0xe
 4225 000b 11        	.uleb128 0x11
 4226 000c 01        	.uleb128 0x1
 4227 000d 12        	.uleb128 0x12
 4228 000e 06        	.uleb128 0x6
 4229 000f 10        	.uleb128 0x10
 4230 0010 17        	.uleb128 0x17
 4231 0011 00        	.byte0
 4232 0012 00        	.byte0
 4233 0013 02        	.uleb128 0x2
 4234 0014 16        	.uleb128 0x16
 4235 0015 00        	.byte0
 4236 0016 03        	.uleb128 0x3
 4237 0017 0E        	.uleb128 0xe
 4238 0018 3A        	.uleb128 0x3a
 4239 0019 0B        	.uleb128 0xb
 4240 001a 3B        	.uleb128 0x3b
 4241 001b 0B        	.uleb128 0xb
 4242 001c 49        	.uleb128 0x49
 4243 001d 13        	.uleb128 0x13
 4244 001e 00        	.byte0
 4245 001f 00        	.byte0
 4246 0020 03        	.uleb128 0x3
 4247 0021 24        	.uleb128 0x24
 4248 0022 00        	.byte0
 4249 0023 0B        	.uleb128 0xb
 4250 0024 0B        	.uleb128 0xb
 4251 0025 3E        	.uleb128 0x3e
 4252 0026 0B        	.uleb128 0xb
 4253 0027 03        	.uleb128 0x3
 4254 0028 0E        	.uleb128 0xe
 4255 0029 00        	.byte0
 4256 002a 00        	.byte0
 4257 002b 04        	.uleb128 0x4
 4258 002c 16        	.uleb128 0x16
 4259 002d 00        	.byte0
 4260 002e 03        	.uleb128 0x3
 4261 002f 0E        	.uleb128 0xe
 4262 0030 3A        	.uleb128 0x3a
 4263 0031 0B        	.uleb128 0xb
 4264 0032 3B        	.uleb128 0x3b
 4265 0033 05        	.uleb128 0x5
 4266 0034 49        	.uleb128 0x49
68K GAS   			page 91


 4267 0035 13        	.uleb128 0x13
 4268 0036 00        	.byte0
 4269 0037 00        	.byte0
 4270 0038 05        	.uleb128 0x5
 4271 0039 26        	.uleb128 0x26
 4272 003a 00        	.byte0
 4273 003b 49        	.uleb128 0x49
 4274 003c 13        	.uleb128 0x13
 4275 003d 00        	.byte0
 4276 003e 00        	.byte0
 4277 003f 06        	.uleb128 0x6
 4278 0040 01        	.uleb128 0x1
 4279 0041 01        	.byte0x1
 4280 0042 49        	.uleb128 0x49
 4281 0043 13        	.uleb128 0x13
 4282 0044 01        	.uleb128 0x1
 4283 0045 13        	.uleb128 0x13
 4284 0046 00        	.byte0
 4285 0047 00        	.byte0
 4286 0048 07        	.uleb128 0x7
 4287 0049 21        	.uleb128 0x21
 4288 004a 00        	.byte0
 4289 004b 49        	.uleb128 0x49
 4290 004c 13        	.uleb128 0x13
 4291 004d 2F        	.uleb128 0x2f
 4292 004e 0B        	.uleb128 0xb
 4293 004f 00        	.byte0
 4294 0050 00        	.byte0
 4295 0051 08        	.uleb128 0x8
 4296 0052 0F        	.uleb128 0xf
 4297 0053 00        	.byte0
 4298 0054 0B        	.uleb128 0xb
 4299 0055 0B        	.uleb128 0xb
 4300 0056 00        	.byte0
 4301 0057 00        	.byte0
 4302 0058 09        	.uleb128 0x9
 4303 0059 24        	.uleb128 0x24
 4304 005a 00        	.byte0
 4305 005b 0B        	.uleb128 0xb
 4306 005c 0B        	.uleb128 0xb
 4307 005d 3E        	.uleb128 0x3e
 4308 005e 0B        	.uleb128 0xb
 4309 005f 03        	.uleb128 0x3
 4310 0060 08        	.uleb128 0x8
 4311 0061 00        	.byte0
 4312 0062 00        	.byte0
 4313 0063 0A        	.uleb128 0xa
 4314 0064 13        	.uleb128 0x13
 4315 0065 01        	.byte0x1
 4316 0066 03        	.uleb128 0x3
 4317 0067 0E        	.uleb128 0xe
 4318 0068 0B        	.uleb128 0xb
 4319 0069 0B        	.uleb128 0xb
 4320 006a 3A        	.uleb128 0x3a
 4321 006b 0B        	.uleb128 0xb
 4322 006c 3B        	.uleb128 0x3b
 4323 006d 0B        	.uleb128 0xb
68K GAS   			page 92


 4324 006e 01        	.uleb128 0x1
 4325 006f 13        	.uleb128 0x13
 4326 0070 00        	.byte0
 4327 0071 00        	.byte0
 4328 0072 0B        	.uleb128 0xb
 4329 0073 0D        	.uleb128 0xd
 4330 0074 00        	.byte0
 4331 0075 03        	.uleb128 0x3
 4332 0076 0E        	.uleb128 0xe
 4333 0077 3A        	.uleb128 0x3a
 4334 0078 0B        	.uleb128 0xb
 4335 0079 3B        	.uleb128 0x3b
 4336 007a 0B        	.uleb128 0xb
 4337 007b 49        	.uleb128 0x49
 4338 007c 13        	.uleb128 0x13
 4339 007d 38        	.uleb128 0x38
 4340 007e 0B        	.uleb128 0xb
 4341 007f 00        	.byte0
 4342 0080 00        	.byte0
 4343 0081 0C        	.uleb128 0xc
 4344 0082 13        	.uleb128 0x13
 4345 0083 00        	.byte0
 4346 0084 03        	.uleb128 0x3
 4347 0085 0E        	.uleb128 0xe
 4348 0086 3C        	.uleb128 0x3c
 4349 0087 19        	.uleb128 0x19
 4350 0088 00        	.byte0
 4351 0089 00        	.byte0
 4352 008a 0D        	.uleb128 0xd
 4353 008b 0F        	.uleb128 0xf
 4354 008c 00        	.byte0
 4355 008d 0B        	.uleb128 0xb
 4356 008e 0B        	.uleb128 0xb
 4357 008f 49        	.uleb128 0x49
 4358 0090 13        	.uleb128 0x13
 4359 0091 00        	.byte0
 4360 0092 00        	.byte0
 4361 0093 0E        	.uleb128 0xe
 4362 0094 17        	.uleb128 0x17
 4363 0095 01        	.byte0x1
 4364 0096 0B        	.uleb128 0xb
 4365 0097 0B        	.uleb128 0xb
 4366 0098 3A        	.uleb128 0x3a
 4367 0099 0B        	.uleb128 0xb
 4368 009a 3B        	.uleb128 0x3b
 4369 009b 0B        	.uleb128 0xb
 4370 009c 01        	.uleb128 0x1
 4371 009d 13        	.uleb128 0x13
 4372 009e 00        	.byte0
 4373 009f 00        	.byte0
 4374 00a0 0F        	.uleb128 0xf
 4375 00a1 0D        	.uleb128 0xd
 4376 00a2 00        	.byte0
 4377 00a3 03        	.uleb128 0x3
 4378 00a4 0E        	.uleb128 0xe
 4379 00a5 3A        	.uleb128 0x3a
 4380 00a6 0B        	.uleb128 0xb
68K GAS   			page 93


 4381 00a7 3B        	.uleb128 0x3b
 4382 00a8 0B        	.uleb128 0xb
 4383 00a9 49        	.uleb128 0x49
 4384 00aa 13        	.uleb128 0x13
 4385 00ab 00        	.byte0
 4386 00ac 00        	.byte0
 4387 00ad 10        	.uleb128 0x10
 4388 00ae 13        	.uleb128 0x13
 4389 00af 01        	.byte0x1
 4390 00b0 0B        	.uleb128 0xb
 4391 00b1 0B        	.uleb128 0xb
 4392 00b2 3A        	.uleb128 0x3a
 4393 00b3 0B        	.uleb128 0xb
 4394 00b4 3B        	.uleb128 0x3b
 4395 00b5 0B        	.uleb128 0xb
 4396 00b6 01        	.uleb128 0x1
 4397 00b7 13        	.uleb128 0x13
 4398 00b8 00        	.byte0
 4399 00b9 00        	.byte0
 4400 00ba 11        	.uleb128 0x11
 4401 00bb 0D        	.uleb128 0xd
 4402 00bc 00        	.byte0
 4403 00bd 03        	.uleb128 0x3
 4404 00be 08        	.uleb128 0x8
 4405 00bf 3A        	.uleb128 0x3a
 4406 00c0 0B        	.uleb128 0xb
 4407 00c1 3B        	.uleb128 0x3b
 4408 00c2 0B        	.uleb128 0xb
 4409 00c3 49        	.uleb128 0x49
 4410 00c4 13        	.uleb128 0x13
 4411 00c5 38        	.uleb128 0x38
 4412 00c6 0B        	.uleb128 0xb
 4413 00c7 00        	.byte0
 4414 00c8 00        	.byte0
 4415 00c9 12        	.uleb128 0x12
 4416 00ca 13        	.uleb128 0x13
 4417 00cb 01        	.byte0x1
 4418 00cc 03        	.uleb128 0x3
 4419 00cd 0E        	.uleb128 0xe
 4420 00ce 0B        	.uleb128 0xb
 4421 00cf 05        	.uleb128 0x5
 4422 00d0 3A        	.uleb128 0x3a
 4423 00d1 0B        	.uleb128 0xb
 4424 00d2 3B        	.uleb128 0x3b
 4425 00d3 0B        	.uleb128 0xb
 4426 00d4 01        	.uleb128 0x1
 4427 00d5 13        	.uleb128 0x13
 4428 00d6 00        	.byte0
 4429 00d7 00        	.byte0
 4430 00d8 13        	.uleb128 0x13
 4431 00d9 0D        	.uleb128 0xd
 4432 00da 00        	.byte0
 4433 00db 03        	.uleb128 0x3
 4434 00dc 0E        	.uleb128 0xe
 4435 00dd 3A        	.uleb128 0x3a
 4436 00de 0B        	.uleb128 0xb
 4437 00df 3B        	.uleb128 0x3b
68K GAS   			page 94


 4438 00e0 0B        	.uleb128 0xb
 4439 00e1 49        	.uleb128 0x49
 4440 00e2 13        	.uleb128 0x13
 4441 00e3 38        	.uleb128 0x38
 4442 00e4 05        	.uleb128 0x5
 4443 00e5 00        	.byte0
 4444 00e6 00        	.byte0
 4445 00e7 14        	.uleb128 0x14
 4446 00e8 15        	.uleb128 0x15
 4447 00e9 00        	.byte0
 4448 00ea 27        	.uleb128 0x27
 4449 00eb 19        	.uleb128 0x19
 4450 00ec 00        	.byte0
 4451 00ed 00        	.byte0
 4452 00ee 15        	.uleb128 0x15
 4453 00ef 15        	.uleb128 0x15
 4454 00f0 01        	.byte0x1
 4455 00f1 27        	.uleb128 0x27
 4456 00f2 19        	.uleb128 0x19
 4457 00f3 49        	.uleb128 0x49
 4458 00f4 13        	.uleb128 0x13
 4459 00f5 01        	.uleb128 0x1
 4460 00f6 13        	.uleb128 0x13
 4461 00f7 00        	.byte0
 4462 00f8 00        	.byte0
 4463 00f9 16        	.uleb128 0x16
 4464 00fa 05        	.uleb128 0x5
 4465 00fb 00        	.byte0
 4466 00fc 49        	.uleb128 0x49
 4467 00fd 13        	.uleb128 0x13
 4468 00fe 00        	.byte0
 4469 00ff 00        	.byte0
 4470 0100 17        	.uleb128 0x17
 4471 0101 13        	.uleb128 0x13
 4472 0102 01        	.byte0x1
 4473 0103 03        	.uleb128 0x3
 4474 0104 0E        	.uleb128 0xe
 4475 0105 0B        	.uleb128 0xb
 4476 0106 05        	.uleb128 0x5
 4477 0107 3A        	.uleb128 0x3a
 4478 0108 0B        	.uleb128 0xb
 4479 0109 3B        	.uleb128 0x3b
 4480 010a 05        	.uleb128 0x5
 4481 010b 01        	.uleb128 0x1
 4482 010c 13        	.uleb128 0x13
 4483 010d 00        	.byte0
 4484 010e 00        	.byte0
 4485 010f 18        	.uleb128 0x18
 4486 0110 0D        	.uleb128 0xd
 4487 0111 00        	.byte0
 4488 0112 03        	.uleb128 0x3
 4489 0113 0E        	.uleb128 0xe
 4490 0114 3A        	.uleb128 0x3a
 4491 0115 0B        	.uleb128 0xb
 4492 0116 3B        	.uleb128 0x3b
 4493 0117 05        	.uleb128 0x5
 4494 0118 49        	.uleb128 0x49
68K GAS   			page 95


 4495 0119 13        	.uleb128 0x13
 4496 011a 38        	.uleb128 0x38
 4497 011b 0B        	.uleb128 0xb
 4498 011c 00        	.byte0
 4499 011d 00        	.byte0
 4500 011e 19        	.uleb128 0x19
 4501 011f 0D        	.uleb128 0xd
 4502 0120 00        	.byte0
 4503 0121 03        	.uleb128 0x3
 4504 0122 0E        	.uleb128 0xe
 4505 0123 3A        	.uleb128 0x3a
 4506 0124 0B        	.uleb128 0xb
 4507 0125 3B        	.uleb128 0x3b
 4508 0126 05        	.uleb128 0x5
 4509 0127 49        	.uleb128 0x49
 4510 0128 13        	.uleb128 0x13
 4511 0129 38        	.uleb128 0x38
 4512 012a 05        	.uleb128 0x5
 4513 012b 00        	.byte0
 4514 012c 00        	.byte0
 4515 012d 1A        	.uleb128 0x1a
 4516 012e 13        	.uleb128 0x13
 4517 012f 01        	.byte0x1
 4518 0130 03        	.uleb128 0x3
 4519 0131 0E        	.uleb128 0xe
 4520 0132 0B        	.uleb128 0xb
 4521 0133 0B        	.uleb128 0xb
 4522 0134 3A        	.uleb128 0x3a
 4523 0135 0B        	.uleb128 0xb
 4524 0136 3B        	.uleb128 0x3b
 4525 0137 05        	.uleb128 0x5
 4526 0138 01        	.uleb128 0x1
 4527 0139 13        	.uleb128 0x13
 4528 013a 00        	.byte0
 4529 013b 00        	.byte0
 4530 013c 1B        	.uleb128 0x1b
 4531 013d 13        	.uleb128 0x13
 4532 013e 01        	.byte0x1
 4533 013f 0B        	.uleb128 0xb
 4534 0140 0B        	.uleb128 0xb
 4535 0141 3A        	.uleb128 0x3a
 4536 0142 0B        	.uleb128 0xb
 4537 0143 3B        	.uleb128 0x3b
 4538 0144 05        	.uleb128 0x5
 4539 0145 01        	.uleb128 0x1
 4540 0146 13        	.uleb128 0x13
 4541 0147 00        	.byte0
 4542 0148 00        	.byte0
 4543 0149 1C        	.uleb128 0x1c
 4544 014a 17        	.uleb128 0x17
 4545 014b 01        	.byte0x1
 4546 014c 0B        	.uleb128 0xb
 4547 014d 0B        	.uleb128 0xb
 4548 014e 3A        	.uleb128 0x3a
 4549 014f 0B        	.uleb128 0xb
 4550 0150 3B        	.uleb128 0x3b
 4551 0151 05        	.uleb128 0x5
68K GAS   			page 96


 4552 0152 01        	.uleb128 0x1
 4553 0153 13        	.uleb128 0x13
 4554 0154 00        	.byte0
 4555 0155 00        	.byte0
 4556 0156 1D        	.uleb128 0x1d
 4557 0157 0D        	.uleb128 0xd
 4558 0158 00        	.byte0
 4559 0159 03        	.uleb128 0x3
 4560 015a 0E        	.uleb128 0xe
 4561 015b 3A        	.uleb128 0x3a
 4562 015c 0B        	.uleb128 0xb
 4563 015d 3B        	.uleb128 0x3b
 4564 015e 05        	.uleb128 0x5
 4565 015f 49        	.uleb128 0x49
 4566 0160 13        	.uleb128 0x13
 4567 0161 00        	.byte0
 4568 0162 00        	.byte0
 4569 0163 1E        	.uleb128 0x1e
 4570 0164 15        	.uleb128 0x15
 4571 0165 01        	.byte0x1
 4572 0166 27        	.uleb128 0x27
 4573 0167 19        	.uleb128 0x19
 4574 0168 01        	.uleb128 0x1
 4575 0169 13        	.uleb128 0x13
 4576 016a 00        	.byte0
 4577 016b 00        	.byte0
 4578 016c 1F        	.uleb128 0x1f
 4579 016d 34        	.uleb128 0x34
 4580 016e 00        	.byte0
 4581 016f 03        	.uleb128 0x3
 4582 0170 0E        	.uleb128 0xe
 4583 0171 3A        	.uleb128 0x3a
 4584 0172 0B        	.uleb128 0xb
 4585 0173 3B        	.uleb128 0x3b
 4586 0174 05        	.uleb128 0x5
 4587 0175 49        	.uleb128 0x49
 4588 0176 13        	.uleb128 0x13
 4589 0177 3F        	.uleb128 0x3f
 4590 0178 19        	.uleb128 0x19
 4591 0179 3C        	.uleb128 0x3c
 4592 017a 19        	.uleb128 0x19
 4593 017b 00        	.byte0
 4594 017c 00        	.byte0
 4595 017d 20        	.uleb128 0x20
 4596 017e 34        	.uleb128 0x34
 4597 017f 00        	.byte0
 4598 0180 03        	.uleb128 0x3
 4599 0181 0E        	.uleb128 0xe
 4600 0182 3A        	.uleb128 0x3a
 4601 0183 0B        	.uleb128 0xb
 4602 0184 3B        	.uleb128 0x3b
 4603 0185 0B        	.uleb128 0xb
 4604 0186 49        	.uleb128 0x49
 4605 0187 13        	.uleb128 0x13
 4606 0188 3F        	.uleb128 0x3f
 4607 0189 19        	.uleb128 0x19
 4608 018a 3C        	.uleb128 0x3c
68K GAS   			page 97


 4609 018b 19        	.uleb128 0x19
 4610 018c 00        	.byte0
 4611 018d 00        	.byte0
 4612 018e 21        	.uleb128 0x21
 4613 018f 0D        	.uleb128 0xd
 4614 0190 00        	.byte0
 4615 0191 03        	.uleb128 0x3
 4616 0192 08        	.uleb128 0x8
 4617 0193 3A        	.uleb128 0x3a
 4618 0194 0B        	.uleb128 0xb
 4619 0195 3B        	.uleb128 0x3b
 4620 0196 0B        	.uleb128 0xb
 4621 0197 49        	.uleb128 0x49
 4622 0198 13        	.uleb128 0x13
 4623 0199 00        	.byte0
 4624 019a 00        	.byte0
 4625 019b 22        	.uleb128 0x22
 4626 019c 13        	.uleb128 0x13
 4627 019d 01        	.byte0x1
 4628 019e 0B        	.uleb128 0xb
 4629 019f 05        	.uleb128 0x5
 4630 01a0 3A        	.uleb128 0x3a
 4631 01a1 0B        	.uleb128 0xb
 4632 01a2 3B        	.uleb128 0x3b
 4633 01a3 0B        	.uleb128 0xb
 4634 01a4 01        	.uleb128 0x1
 4635 01a5 13        	.uleb128 0x13
 4636 01a6 00        	.byte0
 4637 01a7 00        	.byte0
 4638 01a8 23        	.uleb128 0x23
 4639 01a9 34        	.uleb128 0x34
 4640 01aa 00        	.byte0
 4641 01ab 03        	.uleb128 0x3
 4642 01ac 0E        	.uleb128 0xe
 4643 01ad 3A        	.uleb128 0x3a
 4644 01ae 0B        	.uleb128 0xb
 4645 01af 3B        	.uleb128 0x3b
 4646 01b0 0B        	.uleb128 0xb
 4647 01b1 49        	.uleb128 0x49
 4648 01b2 13        	.uleb128 0x13
 4649 01b3 3F        	.uleb128 0x3f
 4650 01b4 19        	.uleb128 0x19
 4651 01b5 02        	.uleb128 0x2
 4652 01b6 18        	.uleb128 0x18
 4653 01b7 00        	.byte0
 4654 01b8 00        	.byte0
 4655 01b9 24        	.uleb128 0x24
 4656 01ba 2E        	.uleb128 0x2e
 4657 01bb 01        	.byte0x1
 4658 01bc 3F        	.uleb128 0x3f
 4659 01bd 19        	.uleb128 0x19
 4660 01be 03        	.uleb128 0x3
 4661 01bf 0E        	.uleb128 0xe
 4662 01c0 3A        	.uleb128 0x3a
 4663 01c1 0B        	.uleb128 0xb
 4664 01c2 3B        	.uleb128 0x3b
 4665 01c3 05        	.uleb128 0x5
68K GAS   			page 98


 4666 01c4 27        	.uleb128 0x27
 4667 01c5 19        	.uleb128 0x19
 4668 01c6 49        	.uleb128 0x49
 4669 01c7 13        	.uleb128 0x13
 4670 01c8 11        	.uleb128 0x11
 4671 01c9 01        	.uleb128 0x1
 4672 01ca 12        	.uleb128 0x12
 4673 01cb 06        	.uleb128 0x6
 4674 01cc 40        	.uleb128 0x40
 4675 01cd 18        	.uleb128 0x18
 4676 01ce 9642      	.uleb128 0x2116
 4677 01d0 19        	.uleb128 0x19
 4678 01d1 01        	.uleb128 0x1
 4679 01d2 13        	.uleb128 0x13
 4680 01d3 00        	.byte0
 4681 01d4 00        	.byte0
 4682 01d5 25        	.uleb128 0x25
 4683 01d6 05        	.uleb128 0x5
 4684 01d7 00        	.byte0
 4685 01d8 03        	.uleb128 0x3
 4686 01d9 0E        	.uleb128 0xe
 4687 01da 3A        	.uleb128 0x3a
 4688 01db 0B        	.uleb128 0xb
 4689 01dc 3B        	.uleb128 0x3b
 4690 01dd 05        	.uleb128 0x5
 4691 01de 49        	.uleb128 0x49
 4692 01df 13        	.uleb128 0x13
 4693 01e0 02        	.uleb128 0x2
 4694 01e1 18        	.uleb128 0x18
 4695 01e2 00        	.byte0
 4696 01e3 00        	.byte0
 4697 01e4 26        	.uleb128 0x26
 4698 01e5 34        	.uleb128 0x34
 4699 01e6 00        	.byte0
 4700 01e7 03        	.uleb128 0x3
 4701 01e8 0E        	.uleb128 0xe
 4702 01e9 3A        	.uleb128 0x3a
 4703 01ea 0B        	.uleb128 0xb
 4704 01eb 3B        	.uleb128 0x3b
 4705 01ec 05        	.uleb128 0x5
 4706 01ed 49        	.uleb128 0x49
 4707 01ee 13        	.uleb128 0x13
 4708 01ef 02        	.uleb128 0x2
 4709 01f0 18        	.uleb128 0x18
 4710 01f1 00        	.byte0
 4711 01f2 00        	.byte0
 4712 01f3 27        	.uleb128 0x27
 4713 01f4 34        	.uleb128 0x34
 4714 01f5 00        	.byte0
 4715 01f6 03        	.uleb128 0x3
 4716 01f7 08        	.uleb128 0x8
 4717 01f8 3A        	.uleb128 0x3a
 4718 01f9 0B        	.uleb128 0xb
 4719 01fa 3B        	.uleb128 0x3b
 4720 01fb 05        	.uleb128 0x5
 4721 01fc 49        	.uleb128 0x49
 4722 01fd 13        	.uleb128 0x13
68K GAS   			page 99


 4723 01fe 02        	.uleb128 0x2
 4724 01ff 18        	.uleb128 0x18
 4725 0200 00        	.byte0
 4726 0201 00        	.byte0
 4727 0202 28        	.uleb128 0x28
 4728 0203 2E        	.uleb128 0x2e
 4729 0204 01        	.byte0x1
 4730 0205 3F        	.uleb128 0x3f
 4731 0206 19        	.uleb128 0x19
 4732 0207 03        	.uleb128 0x3
 4733 0208 0E        	.uleb128 0xe
 4734 0209 3A        	.uleb128 0x3a
 4735 020a 0B        	.uleb128 0xb
 4736 020b 3B        	.uleb128 0x3b
 4737 020c 05        	.uleb128 0x5
 4738 020d 27        	.uleb128 0x27
 4739 020e 19        	.uleb128 0x19
 4740 020f 49        	.uleb128 0x49
 4741 0210 13        	.uleb128 0x13
 4742 0211 11        	.uleb128 0x11
 4743 0212 01        	.uleb128 0x1
 4744 0213 12        	.uleb128 0x12
 4745 0214 06        	.uleb128 0x6
 4746 0215 40        	.uleb128 0x40
 4747 0216 18        	.uleb128 0x18
 4748 0217 9742      	.uleb128 0x2117
 4749 0219 19        	.uleb128 0x19
 4750 021a 01        	.uleb128 0x1
 4751 021b 13        	.uleb128 0x13
 4752 021c 00        	.byte0
 4753 021d 00        	.byte0
 4754 021e 29        	.uleb128 0x29
 4755 021f 2E        	.uleb128 0x2e
 4756 0220 01        	.byte0x1
 4757 0221 3F        	.uleb128 0x3f
 4758 0222 19        	.uleb128 0x19
 4759 0223 03        	.uleb128 0x3
 4760 0224 0E        	.uleb128 0xe
 4761 0225 3A        	.uleb128 0x3a
 4762 0226 0B        	.uleb128 0xb
 4763 0227 3B        	.uleb128 0x3b
 4764 0228 0B        	.uleb128 0xb
 4765 0229 27        	.uleb128 0x27
 4766 022a 19        	.uleb128 0x19
 4767 022b 49        	.uleb128 0x49
 4768 022c 13        	.uleb128 0x13
 4769 022d 11        	.uleb128 0x11
 4770 022e 01        	.uleb128 0x1
 4771 022f 12        	.uleb128 0x12
 4772 0230 06        	.uleb128 0x6
 4773 0231 40        	.uleb128 0x40
 4774 0232 18        	.uleb128 0x18
 4775 0233 9642      	.uleb128 0x2116
 4776 0235 19        	.uleb128 0x19
 4777 0236 01        	.uleb128 0x1
 4778 0237 13        	.uleb128 0x13
 4779 0238 00        	.byte0
68K GAS   			page 100


 4780 0239 00        	.byte0
 4781 023a 2A        	.uleb128 0x2a
 4782 023b 05        	.uleb128 0x5
 4783 023c 00        	.byte0
 4784 023d 03        	.uleb128 0x3
 4785 023e 0E        	.uleb128 0xe
 4786 023f 3A        	.uleb128 0x3a
 4787 0240 0B        	.uleb128 0xb
 4788 0241 3B        	.uleb128 0x3b
 4789 0242 0B        	.uleb128 0xb
 4790 0243 49        	.uleb128 0x49
 4791 0244 13        	.uleb128 0x13
 4792 0245 02        	.uleb128 0x2
 4793 0246 18        	.uleb128 0x18
 4794 0247 00        	.byte0
 4795 0248 00        	.byte0
 4796 0249 2B        	.uleb128 0x2b
 4797 024a 34        	.uleb128 0x34
 4798 024b 00        	.byte0
 4799 024c 03        	.uleb128 0x3
 4800 024d 0E        	.uleb128 0xe
 4801 024e 3A        	.uleb128 0x3a
 4802 024f 0B        	.uleb128 0xb
 4803 0250 3B        	.uleb128 0x3b
 4804 0251 0B        	.uleb128 0xb
 4805 0252 49        	.uleb128 0x49
 4806 0253 13        	.uleb128 0x13
 4807 0254 02        	.uleb128 0x2
 4808 0255 18        	.uleb128 0x18
 4809 0256 00        	.byte0
 4810 0257 00        	.byte0
 4811 0258 2C        	.uleb128 0x2c
 4812 0259 34        	.uleb128 0x34
 4813 025a 00        	.byte0
 4814 025b 03        	.uleb128 0x3
 4815 025c 08        	.uleb128 0x8
 4816 025d 3A        	.uleb128 0x3a
 4817 025e 0B        	.uleb128 0xb
 4818 025f 3B        	.uleb128 0x3b
 4819 0260 0B        	.uleb128 0xb
 4820 0261 49        	.uleb128 0x49
 4821 0262 13        	.uleb128 0x13
 4822 0263 02        	.uleb128 0x2
 4823 0264 18        	.uleb128 0x18
 4824 0265 00        	.byte0
 4825 0266 00        	.byte0
 4826 0267 2D        	.uleb128 0x2d
 4827 0268 2E        	.uleb128 0x2e
 4828 0269 01        	.byte0x1
 4829 026a 3F        	.uleb128 0x3f
 4830 026b 19        	.uleb128 0x19
 4831 026c 03        	.uleb128 0x3
 4832 026d 0E        	.uleb128 0xe
 4833 026e 3A        	.uleb128 0x3a
 4834 026f 0B        	.uleb128 0xb
 4835 0270 3B        	.uleb128 0x3b
 4836 0271 0B        	.uleb128 0xb
68K GAS   			page 101


 4837 0272 27        	.uleb128 0x27
 4838 0273 19        	.uleb128 0x19
 4839 0274 49        	.uleb128 0x49
 4840 0275 13        	.uleb128 0x13
 4841 0276 11        	.uleb128 0x11
 4842 0277 01        	.uleb128 0x1
 4843 0278 12        	.uleb128 0x12
 4844 0279 06        	.uleb128 0x6
 4845 027a 40        	.uleb128 0x40
 4846 027b 18        	.uleb128 0x18
 4847 027c 9642      	.uleb128 0x2116
 4848 027e 19        	.uleb128 0x19
 4849 027f 00        	.byte0
 4850 0280 00        	.byte0
 4851 0281 00        	.byte0
 4852               	.section.debug_aranges,"",@progbits
 4853 0000 0000 001C 	.long0x1c
 4854 0004 0002      	.word0x2
 4855 0006 0000 0000 	.long.Ldebug_info0
 4856 000a 04        	.byte0x4
 4857 000b 00        	.byte0
 4858 000c 0000      	.word0
 4859 000e 0000      	.word0
 4860 0010 0000 0000 	.long.Ltext0
 4861 0014 0000 0BF4 	.long.Letext0-.Ltext0
 4862 0018 0000 0000 	.long0
 4863 001c 0000 0000 	.long0
 4864               	.section.debug_line,"",@progbits
 4865               	.Ldebug_line0:
 4866 0000 0000 0426 	.section.debug_str,"MS",@progbits,1
 4866      0002 0000 
 4866      028C 0201 
 4866      FB0E 0D00 
 4866      0101 0101 
 4867               	.LASF301:
 4868 0000 4346 455F 	.string"CFE_ES_PoolCreateNoSem"
 4868      4553 5F50 
 4868      6F6F 6C43 
 4868      7265 6174 
 4868      654E 6F53 
 4869               	.LASF272:
 4870 0017 4346 455F 	.string"CFE_ES_TaskData"
 4870      4553 5F54 
 4870      6173 6B44 
 4870      6174 6100 
 4871               	.LASF274:
 4872 0027 4861 6E64 	.string"HandleValid"
 4872      6C65 5661 
 4872      6C69 6400 
 4873               	.LASF37:
 4874 0033 5F73 7369 	.string"_ssize_t"
 4874      7A65 5F74 
 4874      00
 4875               	.LASF139:
 4876 003c 5F5F 6C6F 	.string"__locale_t"
 4876      6361 6C65 
 4876      5F74 00
68K GAS   			page 102


 4877               	.LASF42:
 4878 0047 5F5F 7661 	.string"__value"
 4878      6C75 6500 
 4879               	.LASF140:
 4880 004f 5F5F 7366 	.string"__sf"
 4880      00
 4881               	.LASF184:
 4882 0054 4343 5344 	.string"CCSDS_PriHdr_t"
 4882      535F 5072 
 4882      6948 6472 
 4882      5F74 00
 4883               	.LASF77:
 4884 0063 5F72 6561 	.string"_read"
 4884      6400 
 4885               	.LASF78:
 4886 0069 5F77 7269 	.string"_write"
 4886      7465 00
 4887               	.LASF181:
 4888 0070 5374 7265 	.string"StreamId"
 4888      616D 4964 
 4888      00
 4889               	.LASF119:
 4890 0079 5F61 7363 	.string"_asctime_buf"
 4890      7469 6D65 
 4890      5F62 7566 
 4890      00
 4891               	.LASF265:
 4892 0086 4D73 6750 	.string"MsgPtr"
 4892      7472 00
 4893               	.LASF104:
 4894 008d 5F63 7674 	.string"_cvtlen"
 4894      6C65 6E00 
 4895               	.LASF218:
 4896 0095 436D 6443 	.string"CmdCounter"
 4896      6F75 6E74 
 4896      6572 00
 4897               	.LASF31:
 4898 00a0 5F4D 7574 	.string"_Mutex_Control"
 4898      6578 5F43 
 4898      6F6E 7472 
 4898      6F6C 00
 4899               	.LASF143:
 4900 00af 5F67 6C6F 	.string"_global_atexit"
 4900      6261 6C5F 
 4900      6174 6578 
 4900      6974 00
 4901               	.LASF169:
 4902 00be 4E75 6D4F 	.string"NumOfChildTasks"
 4902      6643 6869 
 4902      6C64 5461 
 4902      736B 7300 
 4903               	.LASF10:
 4904 00ce 7569 6E74 	.string"uint32"
 4904      3332 00
 4905               	.LASF138:
 4906 00d5 5F75 6E75 	.string"_unused"
 4906      7365 6400 
68K GAS   			page 103


 4907               	.LASF51:
 4908 00dd 5F5F 746D 	.string"__tm"
 4908      00
 4909               	.LASF134:
 4910 00e2 5F77 6373 	.string"_wcsrtombs_state"
 4910      7274 6F6D 
 4910      6273 5F73 
 4910      7461 7465 
 4910      00
 4911               	.LASF82:
 4912 00f3 5F6E 6275 	.string"_nbuf"
 4912      6600 
 4913               	.LASF52:
 4914 00f9 5F5F 746D 	.string"__tm_sec"
 4914      5F73 6563 
 4914      00
 4915               	.LASF30:
 4916 0102 5F54 6872 	.string"_Thread_Control"
 4916      6561 645F 
 4916      436F 6E74 
 4916      726F 6C00 
 4917               	.LASF127:
 4918 0112 5F6C 3634 	.string"_l64a_buf"
 4918      615F 6275 
 4918      6600 
 4919               	.LASF297:
 4920 011c 4346 455F 	.string"CFE_ES_PoolCreate"
 4920      4553 5F50 
 4920      6F6F 6C43 
 4920      7265 6174 
 4920      6500 
 4921               	.LASF287:
 4922 012e 4346 455F 	.string"CFE_ES_PoolCreateEx"
 4922      4553 5F50 
 4922      6F6F 6C43 
 4922      7265 6174 
 4922      6545 7800 
 4923               	.LASF237:
 4924 0142 5265 6769 	.string"RegisteredTasks"
 4924      7374 6572 
 4924      6564 5461 
 4924      736B 7300 
 4925               	.LASF227:
 4926 0152 4F53 414C 	.string"OSALRevision"
 4926      5265 7669 
 4926      7369 6F6E 
 4926      00
 4927               	.LASF91:
 4928 015f 5F73 7464 	.string"_stdin"
 4928      696E 00
 4929               	.LASF177:
 4930 0166 4368 6563 	.string"CheckErrCtr"
 4930      6B45 7272 
 4930      4374 7200 
 4931               	.LASF222:
 4932 0172 4346 454D 	.string"CFEMinorVersion"
 4932      696E 6F72 
68K GAS   			page 104


 4932      5665 7273 
 4932      696F 6E00 
 4933               	.LASF79:
 4934 0182 5F73 6565 	.string"_seek"
 4934      6B00 
 4935               	.LASF163:
 4936 0188 5374 6172 	.string"StartAddress"
 4936      7441 6464 
 4936      7265 7373 
 4936      00
 4937               	.LASF115:
 4938 0195 5F6D 756C 	.string"_mult"
 4938      7400 
 4939               	.LASF173:
 4940 019b 4E75 6D46 	.string"NumFree"
 4940      7265 6500 
 4941               	.LASF168:
 4942 01a3 4D61 696E 	.string"MainTaskName"
 4942      5461 736B 
 4942      4E61 6D65 
 4942      00
 4943               	.LASF273:
 4944 01b0 4346 455F 	.string"CFE_ES_MemPoolDefSize"
 4944      4553 5F4D 
 4944      656D 506F 
 4944      6F6C 4465 
 4944      6653 697A 
 4945               	.LASF157:
 4946 01c6 436F 6465 	.string"CodeAddress"
 4946      4164 6472 
 4946      6573 7300 
 4947               	.LASF39:
 4948 01d2 5F5F 7763 	.string"__wch"
 4948      6800 
 4949               	.LASF206:
 4950 01d8 5573 654D 	.string"UseMutex"
 4950      7574 6578 
 4950      00
 4951               	.LASF251:
 4952 01e1 5065 7266 	.string"PerfDataCount"
 4952      4461 7461 
 4952      436F 756E 
 4952      7400 
 4953               	.LASF230:
 4954 01ef 5379 734C 	.string"SysLogSize"
 4954      6F67 5369 
 4954      7A65 00
 4955               	.LASF74:
 4956 01fa 5F66 696C 	.string"_file"
 4956      6500 
 4957               	.LASF225:
 4958 0200 4F53 414C 	.string"OSALMajorVersion"
 4958      4D61 6A6F 
 4958      7256 6572 
 4958      7369 6F6E 
 4958      00
 4959               	.LASF61:
68K GAS   			page 105


 4960 0211 5F6F 6E5F 	.string"_on_exit_args"
 4960      6578 6974 
 4960      5F61 7267 
 4960      7300 
 4961               	.LASF238:
 4962 021f 5265 6769 	.string"RegisteredLibs"
 4962      7374 6572 
 4962      6564 4C69 
 4962      6273 00
 4963               	.LASF295:
 4964 022e 426C 6F63 	.string"BlockSizeArraySize"
 4964      6B53 697A 
 4964      6541 7272 
 4964      6179 5369 
 4964      7A65 00
 4965               	.LASF276:
 4966 0241 4346 455F 	.string"CFE_ES_ValidateHandle"
 4966      4553 5F56 
 4966      616C 6964 
 4966      6174 6548 
 4966      616E 646C 
 4967               	.LASF130:
 4968 0257 5F6D 6272 	.string"_mbrlen_state"
 4968      6C65 6E5F 
 4968      7374 6174 
 4968      6500 
 4969               	.LASF5:
 4970 0265 6C6F 6E67 	.string"long int"
 4970      2069 6E74 
 4970      00
 4971               	.LASF141:
 4972 026e 5F69 6D70 	.string"_impure_ptr"
 4972      7572 655F 
 4972      7074 7200 
 4973               	.LASF101:
 4974 027a 5F72 6573 	.string"_result_k"
 4974      756C 745F 
 4974      6B00 
 4975               	.LASF284:
 4976 0284 4264 4164 	.string"BdAddr"
 4976      6472 00
 4977               	.LASF71:
 4978 028b 5F73 697A 	.string"_size"
 4978      6500 
 4979               	.LASF164:
 4980 0291 4578 6365 	.string"ExceptionAction"
 4980      7074 696F 
 4980      6E41 6374 
 4980      696F 6E00 
 4981               	.LASF120:
 4982 02a1 5F6C 6F63 	.string"_localtime_buf"
 4982      616C 7469 
 4982      6D65 5F62 
 4982      7566 00
 4983               	.LASF285:
 4984 02b0 4346 455F 	.string"CFE_ES_GetPoolBufInfo"
 4984      4553 5F47 
68K GAS   			page 106


 4984      6574 506F 
 4984      6F6C 4275 
 4984      6649 6E66 
 4985               	.LASF165:
 4986 02c6 5072 696F 	.string"Priority"
 4986      7269 7479 
 4986      00
 4987               	.LASF207:
 4988 02cf 5369 7A65 	.string"SizeDesc"
 4988      4465 7363 
 4988      00
 4989               	.LASF56:
 4990 02d8 5F5F 746D 	.string"__tm_mon"
 4990      5F6D 6F6E 
 4990      00
 4991               	.LASF267:
 4992 02e1 5069 7065 	.string"PipeName"
 4992      4E61 6D65 
 4992      00
 4993               	.LASF155:
 4994 02ea 4D6F 6475 	.string"ModuleId"
 4994      6C65 4964 
 4994      00
 4995               	.LASF211:
 4996 02f3 546C 6D48 	.string"TlmHeader"
 4996      6561 6465 
 4996      7200 
 4997               	.LASF195:
 4998 02fd 5369 7A65 	.string"Size"
 4998      00
 4999               	.LASF117:
 5000 0302 5F75 6E75 	.string"_unused_rand"
 5000      7365 645F 
 5000      7261 6E64 
 5000      00
 5001               	.LASF198:
 5002 030f 4D61 7853 	.string"MaxSize"
 5002      697A 6500 
 5003               	.LASF1:
 5004 0317 7369 676E 	.string"signed char"
 5004      6564 2063 
 5004      6861 7200 
 5005               	.LASF231:
 5006 0323 5379 734C 	.string"SysLogEntries"
 5006      6F67 456E 
 5006      7472 6965 
 5006      7300 
 5007               	.LASF14:
 5008 0331 626F 6F6C 	.string"boolean"
 5008      6561 6E00 
 5009               	.LASF187:
 5010 0339 4346 455F 	.string"CFE_SB_Msg_t"
 5010      5342 5F4D 
 5010      7367 5F74 
 5010      00
 5011               	.LASF212:
 5012 0346 5061 796C 	.string"Payload"
68K GAS   			page 107


 5012      6F61 6400 
 5013               	.LASF171:
 5014 034e 426C 6F63 	.string"BlockSize"
 5014      6B53 697A 
 5014      6500 
 5015               	.LASF29:
 5016 0358 5F54 6872 	.string"_Thread_queue_Heads"
 5016      6561 645F 
 5016      7175 6575 
 5016      655F 4865 
 5016      6164 7300 
 5017               	.LASF0:
 5018 036c 756E 7369 	.string"unsigned char"
 5018      676E 6564 
 5018      2063 6861 
 5018      7200 
 5019               	.LASF166:
 5020 037a 4D61 696E 	.string"MainTaskId"
 5020      5461 736B 
 5020      4964 00
 5021               	.LASF289:
 5022 0385 4D65 6D50 	.string"MemPtr"
 5022      7472 00
 5023               	.LASF96:
 5024 038c 5F75 6E73 	.string"_unspecified_locale_info"
 5024      7065 6369 
 5024      6669 6564 
 5024      5F6C 6F63 
 5024      616C 655F 
 5025               	.LASF89:
 5026 03a5 5F72 6565 	.string"_reent"
 5026      6E74 00
 5027               	.LASF142:
 5028 03ac 5F67 6C6F 	.string"_global_impure_ptr"
 5028      6261 6C5F 
 5028      696D 7075 
 5028      7265 5F70 
 5028      7472 00
 5029               	.LASF300:
 5030 03bf 2F68 6F6D 	.string"/home/simulink/cFS_FreeRTOS_seL4/build/cpu1/cfe/es"
 5030      652F 7369 
 5030      6D75 6C69 
 5030      6E6B 2F63 
 5030      4653 5F46 
 5031               	.LASF258:
 5032 03f2 5368 656C 	.string"ShellOutput"
 5032      6C4F 7574 
 5032      7075 7400 
 5033               	.LASF255:
 5034 03fe 4865 6170 	.string"HeapMaxBlockSize"
 5034      4D61 7842 
 5034      6C6F 636B 
 5034      5369 7A65 
 5034      00
 5035               	.LASF161:
 5036 040f 4253 5341 	.string"BSSAddress"
 5036      6464 7265 
68K GAS   			page 108


 5036      7373 00
 5037               	.LASF228:
 5038 041a 4F53 414C 	.string"OSALMissionRevision"
 5038      4D69 7373 
 5038      696F 6E52 
 5038      6576 6973 
 5038      696F 6E00 
 5039               	.LASF24:
 5040 042e 5F54 6872 	.string"_Thread_queue_Queue"
 5040      6561 645F 
 5040      7175 6575 
 5040      655F 5175 
 5040      6575 6500 
 5041               	.LASF15:
 5042 0442 6368 6172 	.string"char"
 5042      00
 5043               	.LASF170:
 5044 0447 4346 455F 	.string"CFE_ES_AppInfo_t"
 5044      4553 5F41 
 5044      7070 496E 
 5044      666F 5F74 
 5044      00
 5045               	.LASF68:
 5046 0458 5F66 6E73 	.string"_fns"
 5046      00
 5047               	.LASF197:
 5048 045d 4244 5F74 	.string"BD_t"
 5048      00
 5049               	.LASF80:
 5050 0462 5F63 6C6F 	.string"_close"
 5050      7365 00
 5051               	.LASF248:
 5052 0469 5065 7266 	.string"PerfTriggerMask"
 5052      5472 6967 
 5052      6765 724D 
 5052      6173 6B00 
 5053               	.LASF229:
 5054 0479 5379 734C 	.string"SysLogBytesUsed"
 5054      6F67 4279 
 5054      7465 7355 
 5054      7365 6400 
 5055               	.LASF199:
 5056 0489 426C 6F63 	.string"BlockSizeDesc_t"
 5056      6B53 697A 
 5056      6544 6573 
 5056      635F 7400 
 5057               	.LASF13:
 5058 0499 6370 7561 	.string"cpuaddr"
 5058      6464 7200 
 5059               	.LASF250:
 5060 04a1 5065 7266 	.string"PerfDataEnd"
 5060      4461 7461 
 5060      456E 6400 
 5061               	.LASF23:
 5062 04ad 5F54 6963 	.string"_Ticket_lock_Control"
 5062      6B65 745F 
 5062      6C6F 636B 
68K GAS   			page 109


 5062      5F43 6F6E 
 5062      7472 6F6C 
 5063               	.LASF296:
 5064 04c2 4D69 6E42 	.string"MinBlockSize"
 5064      6C6F 636B 
 5064      5369 7A65 
 5064      00
 5065               	.LASF185:
 5066 04cf 4477 6F72 	.string"Dword"
 5066      6400 
 5067               	.LASF264:
 5068 04d5 4D65 6D53 	.string"MemStatsPacket"
 5068      7461 7473 
 5068      5061 636B 
 5068      6574 00
 5069               	.LASF27:
 5070 04e4 5F6F 776E 	.string"_owner"
 5070      6572 00
 5071               	.LASF266:
 5072 04eb 436D 6450 	.string"CmdPipe"
 5072      6970 6500 
 5073               	.LASF215:
 5074 04f3 506F 6F6C 	.string"PoolStats"
 5074      5374 6174 
 5074      7300 
 5075               	.LASF233:
 5076 04fd 4552 4C6F 	.string"ERLogIndex"
 5076      6749 6E64 
 5076      6578 00
 5077               	.LASF202:
 5078 0508 5369 7A65 	.string"SizeDescPtr"
 5078      4465 7363 
 5078      5074 7200 
 5079               	.LASF219:
 5080 0514 4572 7243 	.string"ErrCounter"
 5080      6F75 6E74 
 5080      6572 00
 5081               	.LASF175:
 5082 051f 506F 6F6C 	.string"PoolSize"
 5082      5369 7A65 
 5082      00
 5083               	.LASF224:
 5084 0528 4346 454D 	.string"CFEMissionRevision"
 5084      6973 7369 
 5084      6F6E 5265 
 5084      7669 7369 
 5084      6F6E 00
 5085               	.LASF214:
 5086 053b 506F 6F6C 	.string"PoolHandle"
 5086      4861 6E64 
 5086      6C65 00
 5087               	.LASF147:
 5088 0546 5F74 7A6E 	.string"_tzname"
 5088      616D 6500 
 5089               	.LASF201:
 5090 054e 4375 7272 	.string"Current"
 5090      656E 7400 
68K GAS   			page 110


 5091               	.LASF35:
 5092 0556 5F6E 6573 	.string"_nest_level"
 5092      745F 6C65 
 5092      7665 6C00 
 5093               	.LASF268:
 5094 0562 5069 7065 	.string"PipeDepth"
 5094      4465 7074 
 5094      6800 
 5095               	.LASF216:
 5096 056c 4346 455F 	.string"CFE_ES_PoolStatsTlm_Payload_t"
 5096      4553 5F50 
 5096      6F6F 6C53 
 5096      7461 7473 
 5096      546C 6D5F 
 5097               	.LASF76:
 5098 058a 5F63 6F6F 	.string"_cookie"
 5098      6B69 6500 
 5099               	.LASF194:
 5100 0592 416C 6C6F 	.string"Allocated"
 5100      6361 7465 
 5100      6400 
 5101               	.LASF154:
 5102 059c 5374 6163 	.string"StackSize"
 5102      6B53 697A 
 5102      6500 
 5103               	.LASF50:
 5104 05a6 5F77 6473 	.string"_wds"
 5104      00
 5105               	.LASF245:
 5106 05ab 5065 7266 	.string"PerfMode"
 5106      4D6F 6465 
 5106      00
 5107               	.LASF249:
 5108 05b4 5065 7266 	.string"PerfDataStart"
 5108      4461 7461 
 5108      5374 6172 
 5108      7400 
 5109               	.LASF107:
 5110 05c2 5F73 6967 	.string"_sig_func"
 5110      5F66 756E 
 5110      6300 
 5111               	.LASF203:
 5112 05cc 4368 6563 	.string"CheckErrCntr"
 5112      6B45 7272 
 5112      436E 7472 
 5112      00
 5113               	.LASF290:
 5114 05d9 4E75 6D42 	.string"NumBlockSizes"
 5114      6C6F 636B 
 5114      5369 7A65 
 5114      7300 
 5115               	.LASF84:
 5116 05e7 5F6F 6666 	.string"_offset"
 5116      7365 7400 
 5117               	.LASF275:
 5118 05ef 506F 6F6C 	.string"PoolPtr"
 5118      5074 7200 
68K GAS   			page 111


 5119               	.LASF105:
 5120 05f7 5F63 7674 	.string"_cvtbuf"
 5120      6275 6600 
 5121               	.LASF153:
 5122 05ff 4669 6C65 	.string"FileName"
 5122      4E61 6D65 
 5122      00
 5123               	.LASF20:
 5124 0608 5F6E 6578 	.string"_next_ticket"
 5124      745F 7469 
 5124      636B 6574 
 5124      00
 5125               	.LASF193:
 5126 0615 4368 6563 	.string"CheckBits"
 5126      6B42 6974 
 5126      7300 
 5127               	.LASF102:
 5128 061f 5F70 3573 	.string"_p5s"
 5128      00
 5129               	.LASF11:
 5130 0624 6C6F 6E67 	.string"long unsigned int"
 5130      2075 6E73 
 5130      6967 6E65 
 5130      6420 696E 
 5130      7400 
 5131               	.LASF213:
 5132 0636 4346 455F 	.string"CFE_ES_OneAppTlm_t"
 5132      4553 5F4F 
 5132      6E65 4170 
 5132      7054 6C6D 
 5132      5F74 00
 5133               	.LASF149:
 5134 0649 4170 7049 	.string"AppId"
 5134      6400 
 5135               	.LASF72:
 5136 064f 5F5F 7346 	.string"__sFILE"
 5136      494C 4500 
 5137               	.LASF98:
 5138 0657 5F5F 7364 	.string"__sdidinit"
 5138      6964 696E 
 5138      6974 00
 5139               	.LASF88:
 5140 0662 5F66 6C61 	.string"_flags2"
 5140      6773 3200 
 5141               	.LASF269:
 5142 066a 4C69 6D69 	.string"LimitHK"
 5142      7448 4B00 
 5143               	.LASF36:
 5144 0672 5F4C 4F43 	.string"_LOCK_RECURSIVE_T"
 5144      4B5F 5245 
 5144      4355 5253 
 5144      4956 455F 
 5144      5400 
 5145               	.LASF90:
 5146 0684 5F65 7272 	.string"_errno"
 5146      6E6F 00
 5147               	.LASF176:
68K GAS   			page 112


 5148 068b 4E75 6D42 	.string"NumBlocksRequested"
 5148      6C6F 636B 
 5148      7352 6571 
 5148      7565 7374 
 5148      6564 00
 5149               	.LASF128:
 5150 069e 5F73 6967 	.string"_signal_buf"
 5150      6E61 6C5F 
 5150      6275 6600 
 5151               	.LASF242:
 5152 06aa 4D61 7850 	.string"MaxProcessorResets"
 5152      726F 6365 
 5152      7373 6F72 
 5152      5265 7365 
 5152      7473 00
 5153               	.LASF46:
 5154 06bd 5F42 6967 	.string"_Bigint"
 5154      696E 7400 
 5155               	.LASF221:
 5156 06c5 4346 454D 	.string"CFEMajorVersion"
 5156      616A 6F72 
 5156      5665 7273 
 5156      696F 6E00 
 5157               	.LASF48:
 5158 06d5 5F6D 6178 	.string"_maxwds"
 5158      7764 7300 
 5159               	.LASF99:
 5160 06dd 5F5F 636C 	.string"__cleanup"
 5160      6561 6E75 
 5160      7000 
 5161               	.LASF160:
 5162 06e7 4461 7461 	.string"DataSize"
 5162      5369 7A65 
 5162      00
 5163               	.LASF256:
 5164 06f0 4346 455F 	.string"CFE_ES_HkPacket_Payload_t"
 5164      4553 5F48 
 5164      6B50 6163 
 5164      6B65 745F 
 5164      5061 796C 
 5165               	.LASF178:
 5166 070a 4E75 6D46 	.string"NumFreeBytes"
 5166      7265 6542 
 5166      7974 6573 
 5166      00
 5167               	.LASF152:
 5168 0717 456E 7472 	.string"EntryPoint"
 5168      7950 6F69 
 5168      6E74 00
 5169               	.LASF95:
 5170 0722 5F65 6D65 	.string"_emergency"
 5170      7267 656E 
 5170      6379 00
 5171               	.LASF288:
 5172 072d 4861 6E64 	.string"HandlePtr"
 5172      6C65 5074 
 5172      7200 
68K GAS   			page 113


 5173               	.LASF271:
 5174 0737 4346 455F 	.string"CFE_ES_TaskData_t"
 5174      4553 5F54 
 5174      6173 6B44 
 5174      6174 615F 
 5174      7400 
 5175               	.LASF6:
 5176 0749 6C6F 6E67 	.string"long long int"
 5176      206C 6F6E 
 5176      6720 696E 
 5176      7400 
 5177               	.LASF254:
 5178 0757 4865 6170 	.string"HeapBlocksFree"
 5178      426C 6F63 
 5178      6B73 4672 
 5178      6565 00
 5179               	.LASF111:
 5180 0766 5F6E 696F 	.string"_niobs"
 5180      6273 00
 5181               	.LASF234:
 5182 076d 4552 4C6F 	.string"ERLogEntries"
 5182      6745 6E74 
 5182      7269 6573 
 5182      00
 5183               	.LASF259:
 5184 077a 4346 455F 	.string"CFE_ES_ShellPacket_Payload_t"
 5184      4553 5F53 
 5184      6865 6C6C 
 5184      5061 636B 
 5184      6574 5F50 
 5185               	.LASF108:
 5186 0797 5F5F 7367 	.string"__sglue"
 5186      6C75 6500 
 5187               	.LASF137:
 5188 079f 5F6E 6D61 	.string"_nmalloc"
 5188      6C6C 6F63 
 5188      00
 5189               	.LASF121:
 5190 07a8 5F67 616D 	.string"_gamma_signgam"
 5190      6D61 5F73 
 5190      6967 6E67 
 5190      616D 00
 5191               	.LASF167:
 5192 07b7 4578 6563 	.string"ExecutionCounter"
 5192      7574 696F 
 5192      6E43 6F75 
 5192      6E74 6572 
 5192      00
 5193               	.LASF279:
 5194 07c8 4275 6650 	.string"BufPtr"
 5194      7472 00
 5195               	.LASF103:
 5196 07cf 5F66 7265 	.string"_freelist"
 5196      656C 6973 
 5196      7400 
 5197               	.LASF112:
 5198 07d9 5F69 6F62 	.string"_iobs"
68K GAS   			page 114


 5198      7300 
 5199               	.LASF262:
 5200 07df 5368 656C 	.string"ShellPacket"
 5200      6C50 6163 
 5200      6B65 7400 
 5201               	.LASF110:
 5202 07eb 5F67 6C75 	.string"_glue"
 5202      6500 
 5203               	.LASF49:
 5204 07f1 5F73 6967 	.string"_sign"
 5204      6E00 
 5205               	.LASF281:
 5206 07f7 4346 455F 	.string"CFE_ES_PutPoolBuf"
 5206      4553 5F50 
 5206      7574 506F 
 5206      6F6C 4275 
 5206      6600 
 5207               	.LASF236:
 5208 0809 5265 6769 	.string"RegisteredExternalApps"
 5208      7374 6572 
 5208      6564 4578 
 5208      7465 726E 
 5208      616C 4170 
 5209               	.LASF22:
 5210 0820 756E 7369 	.string"unsigned int"
 5210      676E 6564 
 5210      2069 6E74 
 5210      00
 5211               	.LASF145:
 5212 082d 5F74 696D 	.string"_timezone"
 5212      657A 6F6E 
 5212      6500 
 5213               	.LASF243:
 5214 0837 426F 6F74 	.string"BootSource"
 5214      536F 7572 
 5214      6365 00
 5215               	.LASF135:
 5216 0842 5F68 5F65 	.string"_h_errno"
 5216      7272 6E6F 
 5216      00
 5217               	.LASF283:
 5218 084b 426C 6F63 	.string"Block"
 5218      6B00 
 5219               	.LASF247:
 5220 0851 5065 7266 	.string"PerfFilterMask"
 5220      4669 6C74 
 5220      6572 4D61 
 5220      736B 00
 5221               	.LASF232:
 5222 0860 5379 734C 	.string"SysLogMode"
 5222      6F67 4D6F 
 5222      6465 00
 5223               	.LASF133:
 5224 086b 5F77 6372 	.string"_wcrtomb_state"
 5224      746F 6D62 
 5224      5F73 7461 
 5224      7465 00
68K GAS   			page 115


 5225               	.LASF55:
 5226 087a 5F5F 746D 	.string"__tm_mday"
 5226      5F6D 6461 
 5226      7900 
 5227               	.LASF106:
 5228 0884 5F6E 6577 	.string"_new"
 5228      00
 5229               	.LASF28:
 5230 0889 5F6E 616D 	.string"_name"
 5230      6500 
 5231               	.LASF81:
 5232 088f 5F75 6275 	.string"_ubuf"
 5232      6600 
 5233               	.LASF190:
 5234 0895 5265 6C69 	.string"Reliability"
 5234      6162 696C 
 5234      6974 7900 
 5235               	.LASF93:
 5236 08a1 5F73 7464 	.string"_stderr"
 5236      6572 7200 
 5237               	.LASF126:
 5238 08a9 5F77 6374 	.string"_wctomb_state"
 5238      6F6D 625F 
 5238      7374 6174 
 5238      6500 
 5239               	.LASF87:
 5240 08b7 5F6D 6273 	.string"_mbstate"
 5240      7461 7465 
 5240      00
 5241               	.LASF122:
 5242 08c0 5F72 616E 	.string"_rand_next"
 5242      645F 6E65 
 5242      7874 00
 5243               	.LASF73:
 5244 08cb 5F66 6C61 	.string"_flags"
 5244      6773 00
 5245               	.LASF150:
 5246 08d2 5479 7065 	.string"Type"
 5246      00
 5247               	.LASF180:
 5248 08d7 4346 455F 	.string"CFE_ES_MemPoolStats_t"
 5248      4553 5F4D 
 5248      656D 506F 
 5248      6F6C 5374 
 5248      6174 735F 
 5249               	.LASF66:
 5250 08ed 5F61 7465 	.string"_atexit"
 5250      7869 7400 
 5251               	.LASF260:
 5252 08f5 4346 455F 	.string"CFE_ES_ShellPacket_t"
 5252      4553 5F53 
 5252      6865 6C6C 
 5252      5061 636B 
 5252      6574 5F74 
 5253               	.LASF156:
 5254 090a 4164 6472 	.string"AddressesAreValid"
 5254      6573 7365 
68K GAS   			page 116


 5254      7341 7265 
 5254      5661 6C69 
 5254      6400 
 5255               	.LASF41:
 5256 091c 5F5F 636F 	.string"__count"
 5256      756E 7400 
 5257               	.LASF210:
 5258 0924 4346 455F 	.string"CFE_ES_OneAppTlm_Payload_t"
 5258      4553 5F4F 
 5258      6E65 4170 
 5258      7054 6C6D 
 5258      5F50 6179 
 5259               	.LASF172:
 5260 093f 4E75 6D43 	.string"NumCreated"
 5260      7265 6174 
 5260      6564 00
 5261               	.LASF151:
 5262 094a 4E61 6D65 	.string"Name"
 5262      00
 5263               	.LASF58:
 5264 094f 5F5F 746D 	.string"__tm_wday"
 5264      5F77 6461 
 5264      7900 
 5265               	.LASF186:
 5266 0959 4279 7465 	.string"Byte"
 5266      00
 5267               	.LASF17:
 5268 095e 6C6F 6E67 	.string"long double"
 5268      2064 6F75 
 5268      626C 6500 
 5269               	.LASF59:
 5270 096a 5F5F 746D 	.string"__tm_yday"
 5270      5F79 6461 
 5270      7900 
 5271               	.LASF200:
 5272 0974 5374 6172 	.string"Start"
 5272      7400 
 5273               	.LASF33:
 5274 097a 5F4D 7574 	.string"_Mutex_recursive_Control"
 5274      6578 5F72 
 5274      6563 7572 
 5274      7369 7665 
 5274      5F43 6F6E 
 5275               	.LASF26:
 5276 0993 5F68 6561 	.string"_heads"
 5276      6473 00
 5277               	.LASF114:
 5278 099a 5F73 6565 	.string"_seed"
 5278      6400 
 5279               	.LASF32:
 5280 09a0 5F51 7565 	.string"_Queue"
 5280      7565 00
 5281               	.LASF299:
 5282 09a7 2F68 6F6D 	.string"/home/simulink/cFS_FreeRTOS_seL4/cfe/fsw/cfe-core/src/es/cfe_esmempool.c"
 5282      652F 7369 
 5282      6D75 6C69 
 5282      6E6B 2F63 
68K GAS   			page 117


 5282      4653 5F46 
 5283               	.LASF19:
 5284 09f0 5F66 706F 	.string"_fpos_t"
 5284      735F 7400 
 5285               	.LASF277:
 5286 09f8 4346 455F 	.string"CFE_ES_GetMemPoolStats"
 5286      4553 5F47 
 5286      6574 4D65 
 5286      6D50 6F6F 
 5286      6C53 7461 
 5287               	.LASF40:
 5288 0a0f 5F5F 7763 	.string"__wchb"
 5288      6862 00
 5289               	.LASF270:
 5290 0a16 4C69 6D69 	.string"LimitCmd"
 5290      7443 6D64 
 5290      00
 5291               	.LASF209:
 5292 0a1f 4170 7049 	.string"AppInfo"
 5292      6E66 6F00 
 5293               	.LASF125:
 5294 0a27 5F6D 6274 	.string"_mbtowc_state"
 5294      6F77 635F 
 5294      7374 6174 
 5294      6500 
 5295               	.LASF12:
 5296 0a35 6C6F 6E67 	.string"long long unsigned int"
 5296      206C 6F6E 
 5296      6720 756E 
 5296      7369 676E 
 5296      6564 2069 
 5297               	.LASF162:
 5298 0a4c 4253 5353 	.string"BSSSize"
 5298      697A 6500 
 5299               	.LASF63:
 5300 0a54 5F64 736F 	.string"_dso_handle"
 5300      5F68 616E 
 5300      646C 6500 
 5301               	.LASF113:
 5302 0a60 5F72 616E 	.string"_rand48"
 5302      6434 3800 
 5303               	.LASF92:
 5304 0a68 5F73 7464 	.string"_stdout"
 5304      6F75 7400 
 5305               	.LASF83:
 5306 0a70 5F62 6C6B 	.string"_blksize"
 5306      7369 7A65 
 5306      00
 5307               	.LASF278:
 5308 0a79 4861 6E64 	.string"Handle"
 5308      6C65 00
 5309               	.LASF70:
 5310 0a80 5F62 6173 	.string"_base"
 5310      6500 
 5311               	.LASF118:
 5312 0a86 5F73 7472 	.string"_strtok_last"
 5312      746F 6B5F 
68K GAS   			page 118


 5312      6C61 7374 
 5312      00
 5313               	.LASF291:
 5314 0a93 426C 6F63 	.string"BlockSizes"
 5314      6B53 697A 
 5314      6573 00
 5315               	.LASF131:
 5316 0a9e 5F6D 6272 	.string"_mbrtowc_state"
 5316      746F 7763 
 5316      5F73 7461 
 5316      7465 00
 5317               	.LASF239:
 5318 0aad 5265 7365 	.string"ResetType"
 5318      7454 7970 
 5318      6500 
 5319               	.LASF44:
 5320 0ab7 5F66 6C6F 	.string"_flock_t"
 5320      636B 5F74 
 5320      00
 5321               	.LASF179:
 5322 0ac0 426C 6F63 	.string"BlockStats"
 5322      6B53 7461 
 5322      7473 00
 5323               	.LASF109:
 5324 0acb 5F5F 4649 	.string"__FILE"
 5324      4C45 00
 5325               	.LASF86:
 5326 0ad2 5F6C 6F63 	.string"_lock"
 5326      6B00 
 5327               	.LASF43:
 5328 0ad8 5F6D 6273 	.string"_mbstate_t"
 5328      7461 7465 
 5328      5F74 00
 5329               	.LASF223:
 5330 0ae3 4346 4552 	.string"CFERevision"
 5330      6576 6973 
 5330      696F 6E00 
 5331               	.LASF123:
 5332 0aef 5F72 3438 	.string"_r48"
 5332      00
 5333               	.LASF294:
 5334 0af4 426C 6F63 	.string"BlockSizeArrayPtr"
 5334      6B53 697A 
 5334      6541 7272 
 5334      6179 5074 
 5334      7200 
 5335               	.LASF244:
 5336 0b06 5065 7266 	.string"PerfState"
 5336      5374 6174 
 5336      6500 
 5337               	.LASF183:
 5338 0b10 4C65 6E67 	.string"Length"
 5338      7468 00
 5339               	.LASF38:
 5340 0b17 7769 6E74 	.string"wint_t"
 5340      5F74 00
 5341               	.LASF3:
68K GAS   			page 119


 5342 0b1e 6F73 616C 	.string"osalbool"
 5342      626F 6F6C 
 5342      00
 5343               	.LASF246:
 5344 0b27 5065 7266 	.string"PerfTriggerCount"
 5344      5472 6967 
 5344      6765 7243 
 5344      6F75 6E74 
 5344      00
 5345               	.LASF47:
 5346 0b38 5F6E 6578 	.string"_next"
 5346      7400 
 5347               	.LASF85:
 5348 0b3e 5F64 6174 	.string"_data"
 5348      6100 
 5349               	.LASF240:
 5350 0b44 5265 7365 	.string"ResetSubtype"
 5350      7453 7562 
 5350      7479 7065 
 5350      00
 5351               	.LASF158:
 5352 0b51 436F 6465 	.string"CodeSize"
 5352      5369 7A65 
 5352      00
 5353               	.LASF235:
 5354 0b5a 5265 6769 	.string"RegisteredCoreApps"
 5354      7374 6572 
 5354      6564 436F 
 5354      7265 4170 
 5354      7073 00
 5355               	.LASF192:
 5356 0b6d 4346 455F 	.string"CFE_SB_Default_Qos"
 5356      5342 5F44 
 5356      6566 6175 
 5356      6C74 5F51 
 5356      6F73 00
 5357               	.LASF188:
 5358 0b80 4346 455F 	.string"CFE_SB_PipeId_t"
 5358      5342 5F50 
 5358      6970 6549 
 5358      645F 7400 
 5359               	.LASF34:
 5360 0b90 5F4D 7574 	.string"_Mutex"
 5360      6578 00
 5361               	.LASF241:
 5362 0b97 5072 6F63 	.string"ProcessorResets"
 5362      6573 736F 
 5362      7252 6573 
 5362      6574 7300 
 5363               	.LASF7:
 5364 0ba7 7569 6E74 	.string"uint8"
 5364      3800 
 5365               	.LASF196:
 5366 0bad 4E65 7874 	.string"Next"
 5366      00
 5367               	.LASF174:
 5368 0bb2 4346 455F 	.string"CFE_ES_BlockStats_t"
68K GAS   			page 120


 5368      4553 5F42 
 5368      6C6F 636B 
 5368      5374 6174 
 5368      735F 7400 
 5369               	.LASF124:
 5370 0bc6 5F6D 626C 	.string"_mblen_state"
 5370      656E 5F73 
 5370      7461 7465 
 5370      00
 5371               	.LASF2:
 5372 0bd3 7368 6F72 	.string"short int"
 5372      7420 696E 
 5372      7400 
 5373               	.LASF208:
 5374 0bdd 506F 6F6C 	.string"Pool_t"
 5374      5F74 00
 5375               	.LASF257:
 5376 0be4 4346 455F 	.string"CFE_ES_HkPacket_t"
 5376      4553 5F48 
 5376      6B50 6163 
 5376      6B65 745F 
 5376      7400 
 5377               	.LASF144:
 5378 0bf6 7375 626F 	.string"suboptarg"
 5378      7074 6172 
 5378      6700 
 5379               	.LASF64:
 5380 0c00 5F66 6E74 	.string"_fntypes"
 5380      7970 6573 
 5380      00
 5381               	.LASF282:
 5382 0c09 4264 5074 	.string"BdPtr"
 5382      7200 
 5383               	.LASF57:
 5384 0c0f 5F5F 746D 	.string"__tm_year"
 5384      5F79 6561 
 5384      7200 
 5385               	.LASF204:
 5386 0c19 5265 7175 	.string"RequestCntr"
 5386      6573 7443 
 5386      6E74 7200 
 5387               	.LASF280:
 5388 0c25 4346 455F 	.string"CFE_ES_GetBlockSize"
 5388      4553 5F47 
 5388      6574 426C 
 5388      6F63 6B53 
 5388      697A 6500 
 5389               	.LASF220:
 5390 0c39 4346 4543 	.string"CFECoreChecksum"
 5390      6F72 6543 
 5390      6865 636B 
 5390      7375 6D00 
 5391               	.LASF75:
 5392 0c49 5F6C 6266 	.string"_lbfsize"
 5392      7369 7A65 
 5392      00
 5393               	.LASF94:
68K GAS   			page 121


 5394 0c52 5F69 6E63 	.string"_inc"
 5394      00
 5395               	.LASF67:
 5396 0c57 5F69 6E64 	.string"_ind"
 5396      00
 5397               	.LASF252:
 5398 0c5c 5065 7266 	.string"PerfDataToWrite"
 5398      4461 7461 
 5398      546F 5772 
 5398      6974 6500 
 5399               	.LASF16:
 5400 0c6c 5F5F 696E 	.string"__int64_t"
 5400      7436 345F 
 5400      7400 
 5401               	.LASF217:
 5402 0c76 4346 455F 	.string"CFE_ES_PoolStatsTlm_t"
 5402      4553 5F50 
 5402      6F6F 6C53 
 5402      7461 7473 
 5402      546C 6D5F 
 5403               	.LASF263:
 5404 0c8c 4F6E 6541 	.string"OneAppPacket"
 5404      7070 5061 
 5404      636B 6574 
 5404      00
 5405               	.LASF69:
 5406 0c99 5F5F 7362 	.string"__sbuf"
 5406      7566 00
 5407               	.LASF293:
 5408 0ca0 4D65 6D41 	.string"MemAddr"
 5408      6464 7200 
 5409               	.LASF65:
 5410 0ca8 5F69 735F 	.string"_is_cxa"
 5410      6378 6100 
 5411               	.LASF136:
 5412 0cb0 5F6E 6578 	.string"_nextf"
 5412      7466 00
 5413               	.LASF226:
 5414 0cb7 4F53 414C 	.string"OSALMinorVersion"
 5414      4D69 6E6F 
 5414      7256 6572 
 5414      7369 6F6E 
 5414      00
 5415               	.LASF97:
 5416 0cc8 5F6C 6F63 	.string"_locale"
 5416      616C 6500 
 5417               	.LASF45:
 5418 0cd0 5F5F 554C 	.string"__ULong"
 5418      6F6E 6700 
 5419               	.LASF205:
 5420 0cd8 4D75 7465 	.string"MutexId"
 5420      7849 6400 
 5421               	.LASF100:
 5422 0ce0 5F72 6573 	.string"_result"
 5422      756C 7400 
 5423               	.LASF148:
 5424 0ce8 4346 455F 	.string"CFE_ES_MemHandle_t"
68K GAS   			page 122


 5424      4553 5F4D 
 5424      656D 4861 
 5424      6E64 6C65 
 5424      5F74 00
 5425               	.LASF25:
 5426 0cfb 5F4C 6F63 	.string"_Lock"
 5426      6B00 
 5427               	.LASF21:
 5428 0d01 5F6E 6F77 	.string"_now_serving"
 5428      5F73 6572 
 5428      7669 6E67 
 5428      00
 5429               	.LASF261:
 5430 0d0e 486B 5061 	.string"HkPacket"
 5430      636B 6574 
 5430      00
 5431               	.LASF18:
 5432 0d17 5F6F 6666 	.string"_off_t"
 5432      5F74 00
 5433               	.LASF292:
 5434 0d1e 4D75 7465 	.string"MutexName"
 5434      784E 616D 
 5434      6500 
 5435               	.LASF116:
 5436 0d28 5F61 6464 	.string"_add"
 5436      00
 5437               	.LASF298:
 5438 0d2d 474E 5520 	.string"GNU C11 7.3.0 20180125 (RTEMS 5, RSB d2b25d131d55adcb38219f2cd8cbec2436ee78ab, Newlib 3.0.0) -malign-int -mcpu=528x -g -O0 -fomit-frame-pointer"
 5438      4331 3120 
 5438      372E 332E 
 5438      3020 3230 
 5438      3138 3031 
 5439               	.LASF9:
 5440 0dbd 7368 6F72 	.string"short unsigned int"
 5440      7420 756E 
 5440      7369 676E 
 5440      6564 2069 
 5440      6E74 00
 5441               	.LASF54:
 5442 0dd0 5F5F 746D 	.string"__tm_hour"
 5442      5F68 6F75 
 5442      7200 
 5443               	.LASF159:
 5444 0dda 4461 7461 	.string"DataAddress"
 5444      4164 6472 
 5444      6573 7300 
 5445               	.LASF253:
 5446 0de6 4865 6170 	.string"HeapBytesFree"
 5446      4279 7465 
 5446      7346 7265 
 5446      6500 
 5447               	.LASF4:
 5448 0df4 696E 7433 	.string"int32"
 5448      3200 
 5449               	.LASF182:
 5450 0dfa 5365 7175 	.string"Sequence"
 5450      656E 6365 
68K GAS   			page 123


 5450      00
 5451               	.LASF132:
 5452 0e03 5F6D 6273 	.string"_mbsrtowcs_state"
 5452      7274 6F77 
 5452      6373 5F73 
 5452      7461 7465 
 5452      00
 5453               	.LASF286:
 5454 0e14 4346 455F 	.string"CFE_ES_GetPoolBuf"
 5454      4553 5F47 
 5454      6574 506F 
 5454      6F6C 4275 
 5454      6600 
 5455               	.LASF62:
 5456 0e26 5F66 6E61 	.string"_fnargs"
 5456      7267 7300 
 5457               	.LASF60:
 5458 0e2e 5F5F 746D 	.string"__tm_isdst"
 5458      5F69 7364 
 5458      7374 00
 5459               	.LASF146:
 5460 0e39 5F64 6179 	.string"_daylight"
 5460      6C69 6768 
 5460      7400 
 5461               	.LASF189:
 5462 0e43 4346 455F 	.string"CFE_SB_MsgPtr_t"
 5462      5342 5F4D 
 5462      7367 5074 
 5462      725F 7400 
 5463               	.LASF53:
 5464 0e53 5F5F 746D 	.string"__tm_min"
 5464      5F6D 696E 
 5464      00
 5465               	.LASF8:
 5466 0e5c 7569 6E74 	.string"uint16"
 5466      3136 00
 5467               	.LASF129:
 5468 0e63 5F67 6574 	.string"_getdate_err"
 5468      6461 7465 
 5468      5F65 7272 
 5468      00
 5469               	.LASF191:
 5470 0e70 4346 455F 	.string"CFE_SB_Qos_t"
 5470      5342 5F51 
 5470      6F73 5F74 
 5470      00
 5471               	.ident"GCC: (GNU) 7.3.0 20180125 (RTEMS 5, RSB d2b25d131d55adcb38219f2cd8cbec2436ee78ab, Newlib 3.0.0)"
68K GAS   			page 124


DEFINED SYMBOLS
                            *ABS*:0000000000000000 cfe_esmempool.c
    {standard input}:11     .data:0000000000000000 CFE_ES_MemPoolDefSize
    {standard input}:33     .text:0000000000000000 CFE_ES_PoolCreateNoSem
    {standard input}:102    .text:000000000000004a CFE_ES_PoolCreateEx
    {standard input}:62     .text:0000000000000024 CFE_ES_PoolCreate
    {standard input}:514    .text:00000000000003c4 CFE_ES_GetPoolBuf
    {standard input}:1183   .text:00000000000009a2 CFE_ES_GetBlockSize
    {standard input}:787    .text:0000000000000646 CFE_ES_GetPoolBufInfo
    {standard input}:929    .text:0000000000000752 CFE_ES_PutPoolBuf
    {standard input}:1252   .text:0000000000000a0a CFE_ES_GetMemPoolStats
    {standard input}:1395   .text:0000000000000b5a CFE_ES_ValidateHandle

UNDEFINED SYMBOLS
CFE_ES_WriteToSysLog
snprintf
OS_MutSemCreate
OS_MutSemTake
OS_MutSemGive
OS_MutSemDelete
CFE_ES_GetAppID
CFE_PSP_MemValidateRange
