68K GAS   			page 1


   1               	
   2               	.file"cfe_es_cds_mempool.c"
   3               	.text
   4               	.Ltext0:
   5               	.cfi_sections.debug_frame
   6               	.commCFE_ES_CDSMemPool,236,4
   7               	.commCFE_ES_CDSBlockDesc,20,4
   8               	.globlCFE_ES_CDSMemPoolDefSize
   9               	.data
  10               	.align4
  11               	.typeCFE_ES_CDSMemPoolDefSize, @object
  12               	.sizeCFE_ES_CDSMemPoolDefSize, 68
  13               	CFE_ES_CDSMemPoolDefSize:
  14 0000 0001 3880 	.long80000
  15 0004 0000 8000 	.long32768
  16 0008 0000 4000 	.long16384
  17 000c 0000 2000 	.long8192
  18 0010 0000 1000 	.long4096
  19 0014 0000 0800 	.long2048
  20 0018 0000 0400 	.long1024
  21 001c 0000 0200 	.long512
  22 0020 0000 0100 	.long256
  23 0024 0000 00A0 	.long160
  24 0028 0000 0080 	.long128
  25 002c 0000 0060 	.long96
  26 0030 0000 0040 	.long64
  27 0034 0000 0030 	.long48
  28 0038 0000 0020 	.long32
  29 003c 0000 0010 	.long16
  30 0040 0000 0008 	.long8
  31               	.section.rodata
  32               	.LC0:
  33 0000 4346 455F 	.string"CFE_ES:CreateCDSPool-Pool size(%u) too small for one CDS Block, need >=%u\n"
  33      4553 3A43 
  33      7265 6174 
  33      6543 4453 
  33      506F 6F6C 
  34               	.text
  35               	.align2
  36               	.globlCFE_ES_CreateCDSPool
  37               	.typeCFE_ES_CreateCDSPool, @function
  38               	CFE_ES_CreateCDSPool:
  39               	.LFB59:
  40               	.file 1 "/home/simulink/cFS_FreeRTOS_seL4/cfe/fsw/cfe-core/src/es/cfe_es_cds_mempool.c"
   1:/home/simulink/cFS_FreeRTOS_seL4/cfe/fsw/cfe-core/src/es/cfe_es_cds_mempool.c **** /*
   2:/home/simulink/cFS_FreeRTOS_seL4/cfe/fsw/cfe-core/src/es/cfe_es_cds_mempool.c **** **  File:
   3:/home/simulink/cFS_FreeRTOS_seL4/cfe/fsw/cfe-core/src/es/cfe_es_cds_mempool.c **** **  cfe_es_cds_mempool.c
   4:/home/simulink/cFS_FreeRTOS_seL4/cfe/fsw/cfe-core/src/es/cfe_es_cds_mempool.c **** **
   5:/home/simulink/cFS_FreeRTOS_seL4/cfe/fsw/cfe-core/src/es/cfe_es_cds_mempool.c **** **
   6:/home/simulink/cFS_FreeRTOS_seL4/cfe/fsw/cfe-core/src/es/cfe_es_cds_mempool.c **** **
   7:/home/simulink/cFS_FreeRTOS_seL4/cfe/fsw/cfe-core/src/es/cfe_es_cds_mempool.c **** **      Copyright (c) 2004-2012, United States government as represented by the
   8:/home/simulink/cFS_FreeRTOS_seL4/cfe/fsw/cfe-core/src/es/cfe_es_cds_mempool.c **** **      administrator of the National Aeronautics Space Administration.
   9:/home/simulink/cFS_FreeRTOS_seL4/cfe/fsw/cfe-core/src/es/cfe_es_cds_mempool.c **** **      All rights reserved. This software(cFE) was created at NASA's Goddard
  10:/home/simulink/cFS_FreeRTOS_seL4/cfe/fsw/cfe-core/src/es/cfe_es_cds_mempool.c **** **      Space Flight Center pursuant to government contracts.
  11:/home/simulink/cFS_FreeRTOS_seL4/cfe/fsw/cfe-core/src/es/cfe_es_cds_mempool.c **** **
  12:/home/simulink/cFS_FreeRTOS_seL4/cfe/fsw/cfe-core/src/es/cfe_es_cds_mempool.c **** **      This is governed by the NASA Open Source Agreement and may be used,
  13:/home/simulink/cFS_FreeRTOS_seL4/cfe/fsw/cfe-core/src/es/cfe_es_cds_mempool.c **** **      distributed and modified only pursuant to the terms of that agreement.
68K GAS   			page 2


  14:/home/simulink/cFS_FreeRTOS_seL4/cfe/fsw/cfe-core/src/es/cfe_es_cds_mempool.c **** **
  15:/home/simulink/cFS_FreeRTOS_seL4/cfe/fsw/cfe-core/src/es/cfe_es_cds_mempool.c **** **  Purpose:
  16:/home/simulink/cFS_FreeRTOS_seL4/cfe/fsw/cfe-core/src/es/cfe_es_cds_mempool.c **** **  Set of services for management of the CDS discrete sized memory pools.
  17:/home/simulink/cFS_FreeRTOS_seL4/cfe/fsw/cfe-core/src/es/cfe_es_cds_mempool.c **** **
  18:/home/simulink/cFS_FreeRTOS_seL4/cfe/fsw/cfe-core/src/es/cfe_es_cds_mempool.c **** **  References:
  19:/home/simulink/cFS_FreeRTOS_seL4/cfe/fsw/cfe-core/src/es/cfe_es_cds_mempool.c **** **     Flight Software Branch C Coding Standard Version 1.0a
  20:/home/simulink/cFS_FreeRTOS_seL4/cfe/fsw/cfe-core/src/es/cfe_es_cds_mempool.c **** **     cFE Flight Software Application Developers Guide
  21:/home/simulink/cFS_FreeRTOS_seL4/cfe/fsw/cfe-core/src/es/cfe_es_cds_mempool.c **** **
  22:/home/simulink/cFS_FreeRTOS_seL4/cfe/fsw/cfe-core/src/es/cfe_es_cds_mempool.c **** **  $Log: cfe_es_cds_mempool.c  $
  23:/home/simulink/cFS_FreeRTOS_seL4/cfe/fsw/cfe-core/src/es/cfe_es_cds_mempool.c **** **  Revision 1.6 2012/01/13 11:50:00GMT-05:00 acudmore 
  24:/home/simulink/cFS_FreeRTOS_seL4/cfe/fsw/cfe-core/src/es/cfe_es_cds_mempool.c **** **  Changed license text to reflect open source
  25:/home/simulink/cFS_FreeRTOS_seL4/cfe/fsw/cfe-core/src/es/cfe_es_cds_mempool.c **** **  Revision 1.5 2010/10/25 15:02:11EDT jmdagost 
  26:/home/simulink/cFS_FreeRTOS_seL4/cfe/fsw/cfe-core/src/es/cfe_es_cds_mempool.c **** **  Corrected bad apostrophe in prologue.
  27:/home/simulink/cFS_FreeRTOS_seL4/cfe/fsw/cfe-core/src/es/cfe_es_cds_mempool.c **** **  Revision 1.4 2010/10/04 15:36:29EDT jmdagost 
  28:/home/simulink/cFS_FreeRTOS_seL4/cfe/fsw/cfe-core/src/es/cfe_es_cds_mempool.c **** **  Cleaned up copyright symbol.
  29:/home/simulink/cFS_FreeRTOS_seL4/cfe/fsw/cfe-core/src/es/cfe_es_cds_mempool.c **** **  Revision 1.3 2010/09/21 15:59:00EDT jmdagost 
  30:/home/simulink/cFS_FreeRTOS_seL4/cfe/fsw/cfe-core/src/es/cfe_es_cds_mempool.c **** **  Add sanity check for BinIndex in CFE_ES_RebuildCDSPool().
  31:/home/simulink/cFS_FreeRTOS_seL4/cfe/fsw/cfe-core/src/es/cfe_es_cds_mempool.c **** **  Revision 1.2 2009/06/10 09:08:52EDT acudmore 
  32:/home/simulink/cFS_FreeRTOS_seL4/cfe/fsw/cfe-core/src/es/cfe_es_cds_mempool.c **** **  Converted OS_Mem* and OS_BSP* API to CFE_PSP_* API
  33:/home/simulink/cFS_FreeRTOS_seL4/cfe/fsw/cfe-core/src/es/cfe_es_cds_mempool.c **** **  Revision 1.1 2008/04/17 08:05:04EDT ruperera 
  34:/home/simulink/cFS_FreeRTOS_seL4/cfe/fsw/cfe-core/src/es/cfe_es_cds_mempool.c **** **  Initial revision
  35:/home/simulink/cFS_FreeRTOS_seL4/cfe/fsw/cfe-core/src/es/cfe_es_cds_mempool.c **** **  Member added to project c:/MKSDATA/MKS-REPOSITORY/MKS-CFE-PROJECT/fsw/cfe-core/src/es/project.p
  36:/home/simulink/cFS_FreeRTOS_seL4/cfe/fsw/cfe-core/src/es/cfe_es_cds_mempool.c **** **  Revision 1.7 2007/04/28 14:51:01EDT David Kobe (dlkobe) 
  37:/home/simulink/cFS_FreeRTOS_seL4/cfe/fsw/cfe-core/src/es/cfe_es_cds_mempool.c **** **  Replaced OS_SUCCESS return code with CFE_SUCCESS
  38:/home/simulink/cFS_FreeRTOS_seL4/cfe/fsw/cfe-core/src/es/cfe_es_cds_mempool.c **** **  Revision 1.6 2007/04/04 16:39:48EDT dlkobe 
  39:/home/simulink/cFS_FreeRTOS_seL4/cfe/fsw/cfe-core/src/es/cfe_es_cds_mempool.c **** **  Syntax Error
  40:/home/simulink/cFS_FreeRTOS_seL4/cfe/fsw/cfe-core/src/es/cfe_es_cds_mempool.c **** **  Revision 1.5 2007/04/04 16:37:24EDT dlkobe 
  41:/home/simulink/cFS_FreeRTOS_seL4/cfe/fsw/cfe-core/src/es/cfe_es_cds_mempool.c **** **  Missing include statement
  42:/home/simulink/cFS_FreeRTOS_seL4/cfe/fsw/cfe-core/src/es/cfe_es_cds_mempool.c **** **  Revision 1.4 2007/04/04 16:32:26EDT dlkobe 
  43:/home/simulink/cFS_FreeRTOS_seL4/cfe/fsw/cfe-core/src/es/cfe_es_cds_mempool.c **** **  Syntax Error Corrections
  44:/home/simulink/cFS_FreeRTOS_seL4/cfe/fsw/cfe-core/src/es/cfe_es_cds_mempool.c **** **  Revision 1.3 2007/04/04 16:06:31EDT dlkobe 
  45:/home/simulink/cFS_FreeRTOS_seL4/cfe/fsw/cfe-core/src/es/cfe_es_cds_mempool.c **** **  Made numerous changes to correct issues identified during ES code walkthrough
  46:/home/simulink/cFS_FreeRTOS_seL4/cfe/fsw/cfe-core/src/es/cfe_es_cds_mempool.c **** **  Revision 1.2 2006/10/30 15:33:50GMT-05:00 dlkobe 
  47:/home/simulink/cFS_FreeRTOS_seL4/cfe/fsw/cfe-core/src/es/cfe_es_cds_mempool.c **** **  Corrected  warning associated with pointer casting
  48:/home/simulink/cFS_FreeRTOS_seL4/cfe/fsw/cfe-core/src/es/cfe_es_cds_mempool.c **** **  Revision 1.1 2006/10/30 11:05:06GMT-05:00 dlkobe 
  49:/home/simulink/cFS_FreeRTOS_seL4/cfe/fsw/cfe-core/src/es/cfe_es_cds_mempool.c **** **  Initial revision
  50:/home/simulink/cFS_FreeRTOS_seL4/cfe/fsw/cfe-core/src/es/cfe_es_cds_mempool.c **** **  Member added to project d:/mksdata/MKS-CFE-PROJECT/fsw/cfe-core/src/es/project.pj
  51:/home/simulink/cFS_FreeRTOS_seL4/cfe/fsw/cfe-core/src/es/cfe_es_cds_mempool.c **** **
  52:/home/simulink/cFS_FreeRTOS_seL4/cfe/fsw/cfe-core/src/es/cfe_es_cds_mempool.c **** */
  53:/home/simulink/cFS_FreeRTOS_seL4/cfe/fsw/cfe-core/src/es/cfe_es_cds_mempool.c **** 
  54:/home/simulink/cFS_FreeRTOS_seL4/cfe/fsw/cfe-core/src/es/cfe_es_cds_mempool.c **** /*
  55:/home/simulink/cFS_FreeRTOS_seL4/cfe/fsw/cfe-core/src/es/cfe_es_cds_mempool.c **** ** Includes
  56:/home/simulink/cFS_FreeRTOS_seL4/cfe/fsw/cfe-core/src/es/cfe_es_cds_mempool.c **** */
  57:/home/simulink/cFS_FreeRTOS_seL4/cfe/fsw/cfe-core/src/es/cfe_es_cds_mempool.c **** #include "private/cfe_private.h"
  58:/home/simulink/cFS_FreeRTOS_seL4/cfe/fsw/cfe-core/src/es/cfe_es_cds_mempool.c **** #include "cfe_es.h"
  59:/home/simulink/cFS_FreeRTOS_seL4/cfe/fsw/cfe-core/src/es/cfe_es_cds_mempool.c **** #include "cfe_psp.h"
  60:/home/simulink/cFS_FreeRTOS_seL4/cfe/fsw/cfe-core/src/es/cfe_es_cds_mempool.c **** #include "cfe_es_cds_mempool.h"
  61:/home/simulink/cFS_FreeRTOS_seL4/cfe/fsw/cfe-core/src/es/cfe_es_cds_mempool.c **** #include "cfe_es_global.h"
  62:/home/simulink/cFS_FreeRTOS_seL4/cfe/fsw/cfe-core/src/es/cfe_es_cds_mempool.c **** #include <stdio.h>
  63:/home/simulink/cFS_FreeRTOS_seL4/cfe/fsw/cfe-core/src/es/cfe_es_cds_mempool.c **** 
  64:/home/simulink/cFS_FreeRTOS_seL4/cfe/fsw/cfe-core/src/es/cfe_es_cds_mempool.c **** /*****************************************************************************/
  65:/home/simulink/cFS_FreeRTOS_seL4/cfe/fsw/cfe-core/src/es/cfe_es_cds_mempool.c **** /*
  66:/home/simulink/cFS_FreeRTOS_seL4/cfe/fsw/cfe-core/src/es/cfe_es_cds_mempool.c **** ** Local Macro Definitions
  67:/home/simulink/cFS_FreeRTOS_seL4/cfe/fsw/cfe-core/src/es/cfe_es_cds_mempool.c **** */
  68:/home/simulink/cFS_FreeRTOS_seL4/cfe/fsw/cfe-core/src/es/cfe_es_cds_mempool.c **** #define CFE_ES_CDS_CHECK_PATTERN   0x5a5a
  69:/home/simulink/cFS_FreeRTOS_seL4/cfe/fsw/cfe-core/src/es/cfe_es_cds_mempool.c **** #define CFE_ES_CDS_BLOCK_USED      0xaaaa
  70:/home/simulink/cFS_FreeRTOS_seL4/cfe/fsw/cfe-core/src/es/cfe_es_cds_mempool.c **** #define CFE_ES_CDS_BLOCK_UNUSED    0xdddd
68K GAS   			page 3


  71:/home/simulink/cFS_FreeRTOS_seL4/cfe/fsw/cfe-core/src/es/cfe_es_cds_mempool.c **** 
  72:/home/simulink/cFS_FreeRTOS_seL4/cfe/fsw/cfe-core/src/es/cfe_es_cds_mempool.c **** /*****************************************************************************/
  73:/home/simulink/cFS_FreeRTOS_seL4/cfe/fsw/cfe-core/src/es/cfe_es_cds_mempool.c **** /*
  74:/home/simulink/cFS_FreeRTOS_seL4/cfe/fsw/cfe-core/src/es/cfe_es_cds_mempool.c **** ** Type Definitions
  75:/home/simulink/cFS_FreeRTOS_seL4/cfe/fsw/cfe-core/src/es/cfe_es_cds_mempool.c **** */
  76:/home/simulink/cFS_FreeRTOS_seL4/cfe/fsw/cfe-core/src/es/cfe_es_cds_mempool.c **** 
  77:/home/simulink/cFS_FreeRTOS_seL4/cfe/fsw/cfe-core/src/es/cfe_es_cds_mempool.c **** /*****************************************************************************/
  78:/home/simulink/cFS_FreeRTOS_seL4/cfe/fsw/cfe-core/src/es/cfe_es_cds_mempool.c **** /*
  79:/home/simulink/cFS_FreeRTOS_seL4/cfe/fsw/cfe-core/src/es/cfe_es_cds_mempool.c **** ** File Global Data
  80:/home/simulink/cFS_FreeRTOS_seL4/cfe/fsw/cfe-core/src/es/cfe_es_cds_mempool.c **** */
  81:/home/simulink/cFS_FreeRTOS_seL4/cfe/fsw/cfe-core/src/es/cfe_es_cds_mempool.c **** 
  82:/home/simulink/cFS_FreeRTOS_seL4/cfe/fsw/cfe-core/src/es/cfe_es_cds_mempool.c **** CFE_ES_CDSPool_t      CFE_ES_CDSMemPool;
  83:/home/simulink/cFS_FreeRTOS_seL4/cfe/fsw/cfe-core/src/es/cfe_es_cds_mempool.c **** CFE_ES_CDSBlockDesc_t CFE_ES_CDSBlockDesc;
  84:/home/simulink/cFS_FreeRTOS_seL4/cfe/fsw/cfe-core/src/es/cfe_es_cds_mempool.c **** 
  85:/home/simulink/cFS_FreeRTOS_seL4/cfe/fsw/cfe-core/src/es/cfe_es_cds_mempool.c **** uint32 CFE_ES_CDSMemPoolDefSize[CFE_ES_CDS_NUM_BLOCK_SIZES] = 
  86:/home/simulink/cFS_FreeRTOS_seL4/cfe/fsw/cfe-core/src/es/cfe_es_cds_mempool.c **** {
  87:/home/simulink/cFS_FreeRTOS_seL4/cfe/fsw/cfe-core/src/es/cfe_es_cds_mempool.c ****     CFE_ES_CDS_MAX_BLOCK_SIZE,
  88:/home/simulink/cFS_FreeRTOS_seL4/cfe/fsw/cfe-core/src/es/cfe_es_cds_mempool.c ****     CFE_ES_CDS_MEM_BLOCK_SIZE_16,
  89:/home/simulink/cFS_FreeRTOS_seL4/cfe/fsw/cfe-core/src/es/cfe_es_cds_mempool.c ****     CFE_ES_CDS_MEM_BLOCK_SIZE_15,
  90:/home/simulink/cFS_FreeRTOS_seL4/cfe/fsw/cfe-core/src/es/cfe_es_cds_mempool.c ****     CFE_ES_CDS_MEM_BLOCK_SIZE_14,
  91:/home/simulink/cFS_FreeRTOS_seL4/cfe/fsw/cfe-core/src/es/cfe_es_cds_mempool.c ****     CFE_ES_CDS_MEM_BLOCK_SIZE_13,
  92:/home/simulink/cFS_FreeRTOS_seL4/cfe/fsw/cfe-core/src/es/cfe_es_cds_mempool.c ****     CFE_ES_CDS_MEM_BLOCK_SIZE_12,
  93:/home/simulink/cFS_FreeRTOS_seL4/cfe/fsw/cfe-core/src/es/cfe_es_cds_mempool.c ****     CFE_ES_CDS_MEM_BLOCK_SIZE_11,
  94:/home/simulink/cFS_FreeRTOS_seL4/cfe/fsw/cfe-core/src/es/cfe_es_cds_mempool.c ****     CFE_ES_CDS_MEM_BLOCK_SIZE_10,
  95:/home/simulink/cFS_FreeRTOS_seL4/cfe/fsw/cfe-core/src/es/cfe_es_cds_mempool.c ****     CFE_ES_CDS_MEM_BLOCK_SIZE_09,
  96:/home/simulink/cFS_FreeRTOS_seL4/cfe/fsw/cfe-core/src/es/cfe_es_cds_mempool.c ****     CFE_ES_CDS_MEM_BLOCK_SIZE_08,
  97:/home/simulink/cFS_FreeRTOS_seL4/cfe/fsw/cfe-core/src/es/cfe_es_cds_mempool.c ****     CFE_ES_CDS_MEM_BLOCK_SIZE_07,
  98:/home/simulink/cFS_FreeRTOS_seL4/cfe/fsw/cfe-core/src/es/cfe_es_cds_mempool.c ****     CFE_ES_CDS_MEM_BLOCK_SIZE_06,
  99:/home/simulink/cFS_FreeRTOS_seL4/cfe/fsw/cfe-core/src/es/cfe_es_cds_mempool.c ****     CFE_ES_CDS_MEM_BLOCK_SIZE_05,
 100:/home/simulink/cFS_FreeRTOS_seL4/cfe/fsw/cfe-core/src/es/cfe_es_cds_mempool.c ****     CFE_ES_CDS_MEM_BLOCK_SIZE_04,
 101:/home/simulink/cFS_FreeRTOS_seL4/cfe/fsw/cfe-core/src/es/cfe_es_cds_mempool.c ****     CFE_ES_CDS_MEM_BLOCK_SIZE_03,
 102:/home/simulink/cFS_FreeRTOS_seL4/cfe/fsw/cfe-core/src/es/cfe_es_cds_mempool.c ****     CFE_ES_CDS_MEM_BLOCK_SIZE_02,
 103:/home/simulink/cFS_FreeRTOS_seL4/cfe/fsw/cfe-core/src/es/cfe_es_cds_mempool.c ****     CFE_ES_CDS_MEM_BLOCK_SIZE_01
 104:/home/simulink/cFS_FreeRTOS_seL4/cfe/fsw/cfe-core/src/es/cfe_es_cds_mempool.c **** };
 105:/home/simulink/cFS_FreeRTOS_seL4/cfe/fsw/cfe-core/src/es/cfe_es_cds_mempool.c **** 
 106:/home/simulink/cFS_FreeRTOS_seL4/cfe/fsw/cfe-core/src/es/cfe_es_cds_mempool.c **** /*****************************************************************************/
 107:/home/simulink/cFS_FreeRTOS_seL4/cfe/fsw/cfe-core/src/es/cfe_es_cds_mempool.c **** /*
 108:/home/simulink/cFS_FreeRTOS_seL4/cfe/fsw/cfe-core/src/es/cfe_es_cds_mempool.c **** ** Local Function Prototypes
 109:/home/simulink/cFS_FreeRTOS_seL4/cfe/fsw/cfe-core/src/es/cfe_es_cds_mempool.c **** */
 110:/home/simulink/cFS_FreeRTOS_seL4/cfe/fsw/cfe-core/src/es/cfe_es_cds_mempool.c **** int32 CFE_ES_CDSGetBinIndex(uint32 DesiredSize);
 111:/home/simulink/cFS_FreeRTOS_seL4/cfe/fsw/cfe-core/src/es/cfe_es_cds_mempool.c **** 
 112:/home/simulink/cFS_FreeRTOS_seL4/cfe/fsw/cfe-core/src/es/cfe_es_cds_mempool.c **** /*****************************************************************************/
 113:/home/simulink/cFS_FreeRTOS_seL4/cfe/fsw/cfe-core/src/es/cfe_es_cds_mempool.c **** /*
 114:/home/simulink/cFS_FreeRTOS_seL4/cfe/fsw/cfe-core/src/es/cfe_es_cds_mempool.c **** ** Functions
 115:/home/simulink/cFS_FreeRTOS_seL4/cfe/fsw/cfe-core/src/es/cfe_es_cds_mempool.c **** */
 116:/home/simulink/cFS_FreeRTOS_seL4/cfe/fsw/cfe-core/src/es/cfe_es_cds_mempool.c **** 
 117:/home/simulink/cFS_FreeRTOS_seL4/cfe/fsw/cfe-core/src/es/cfe_es_cds_mempool.c **** /*
 118:/home/simulink/cFS_FreeRTOS_seL4/cfe/fsw/cfe-core/src/es/cfe_es_cds_mempool.c **** ** CFE_ES_CreateCDSPool will initialize a pre-allocated memory pool.
 119:/home/simulink/cFS_FreeRTOS_seL4/cfe/fsw/cfe-core/src/es/cfe_es_cds_mempool.c **** */
 120:/home/simulink/cFS_FreeRTOS_seL4/cfe/fsw/cfe-core/src/es/cfe_es_cds_mempool.c **** int32 CFE_ES_CreateCDSPool(uint32  CDSPoolSize, uint32  StartOffset)
 121:/home/simulink/cFS_FreeRTOS_seL4/cfe/fsw/cfe-core/src/es/cfe_es_cds_mempool.c **** {
  41               	.loc 1 121 0
  42               	.cfi_startproc
  43 0000 4FEF FFEC 	lea (-20,%sp),%sp
  44               	.cfi_def_cfa_offset 24
  45 0004 2F02      	move.l %d2,-(%sp)
  46               	.cfi_def_cfa_offset 28
68K GAS   			page 4


  47               	.cfi_offset 2, -28
 122:/home/simulink/cFS_FreeRTOS_seL4/cfe/fsw/cfe-core/src/es/cfe_es_cds_mempool.c ****     char MutexName[10] = {"CDS_POOL"};
  48               	.loc 1 122 0
  49 0006 41EF 0006 	lea (6,%sp),%a0
  50 000a 20BC 4344 	move.l #1128551263,(%a0)
  50      535F 
  51 0010 5888      	addq.l #4,%a0
  52 0012 20BC 504F 	move.l #1347374924,(%a0)
  52      4F4C 
  53 0018 5888      	addq.l #4,%a0
  54 001a 4250      	clr.w (%a0)
  55 001c 5488      	addq.l #2,%a0
 123:/home/simulink/cFS_FreeRTOS_seL4/cfe/fsw/cfe-core/src/es/cfe_es_cds_mempool.c ****     uint32  i = 0;
  56               	.loc 1 123 0
  57 001e 42AF 0014 	clr.l 20(%sp)
 124:/home/simulink/cFS_FreeRTOS_seL4/cfe/fsw/cfe-core/src/es/cfe_es_cds_mempool.c ****     uint32  Size = (CDSPoolSize & 0xfffffffc);
  58               	.loc 1 124 0
  59 0022 70FC      	moveq #-4,%d0
  60 0024 C0AF 001C 	and.l 28(%sp),%d0
  61 0028 2F40 0010 	move.l %d0,16(%sp)
 125:/home/simulink/cFS_FreeRTOS_seL4/cfe/fsw/cfe-core/src/es/cfe_es_cds_mempool.c **** 
 126:/home/simulink/cFS_FreeRTOS_seL4/cfe/fsw/cfe-core/src/es/cfe_es_cds_mempool.c ****     /* create a semphore to protect this memory pool */
 127:/home/simulink/cFS_FreeRTOS_seL4/cfe/fsw/cfe-core/src/es/cfe_es_cds_mempool.c ****     OS_MutSemCreate(&(CFE_ES_CDSMemPool.MutexId), MutexName, 0);
  62               	.loc 1 127 0
  63 002c 42A7      	clr.l -(%sp)
  64               	.cfi_def_cfa_offset 32
  65 002e 200F      	move.l %sp,%d0
  66 0030 0680 0000 	add.l #10,%d0
  66      000A 
  67 0036 2F00      	move.l %d0,-(%sp)
  68               	.cfi_def_cfa_offset 36
  69 0038 4879 0000 	pea CFE_ES_CDSMemPool+24
  69      0000 
  70               	.cfi_def_cfa_offset 40
  71 003e 4EB9 0000 	jsr OS_MutSemCreate
  71      0000 
  72 0044 4FEF 000C 	lea (12,%sp),%sp
  73               	.cfi_def_cfa_offset 28
 128:/home/simulink/cFS_FreeRTOS_seL4/cfe/fsw/cfe-core/src/es/cfe_es_cds_mempool.c **** 
 129:/home/simulink/cFS_FreeRTOS_seL4/cfe/fsw/cfe-core/src/es/cfe_es_cds_mempool.c ****     /* Take the semaphore to ensure the mem pool is not being used during it's creation */
 130:/home/simulink/cFS_FreeRTOS_seL4/cfe/fsw/cfe-core/src/es/cfe_es_cds_mempool.c ****     OS_MutSemTake(CFE_ES_CDSMemPool.MutexId);
  74               	.loc 1 130 0
  75 0048 2039 0000 	move.l CFE_ES_CDSMemPool+24,%d0
  75      0000 
  76 004e 2F00      	move.l %d0,-(%sp)
  77               	.cfi_def_cfa_offset 32
  78 0050 4EB9 0000 	jsr OS_MutSemTake
  78      0000 
  79 0056 588F      	addq.l #4,%sp
  80               	.cfi_def_cfa_offset 28
 131:/home/simulink/cFS_FreeRTOS_seL4/cfe/fsw/cfe-core/src/es/cfe_es_cds_mempool.c **** 
 132:/home/simulink/cFS_FreeRTOS_seL4/cfe/fsw/cfe-core/src/es/cfe_es_cds_mempool.c ****     CFE_ES_CDSMemPool.Start        = StartOffset;
  81               	.loc 1 132 0
  82 0058 41EF 0020 	lea (32,%sp),%a0
  83 005c 23D0 0000 	move.l (%a0),CFE_ES_CDSMemPool
  83      0000 
 133:/home/simulink/cFS_FreeRTOS_seL4/cfe/fsw/cfe-core/src/es/cfe_es_cds_mempool.c ****     CFE_ES_CDSMemPool.End          = StartOffset + Size;
68K GAS   			page 5


  84               	.loc 1 133 0
  85 0062 202F 0020 	move.l 32(%sp),%d0
  86 0066 D0AF 0010 	add.l 16(%sp),%d0
  87 006a 23C0 0000 	move.l %d0,CFE_ES_CDSMemPool+8
  87      0000 
 134:/home/simulink/cFS_FreeRTOS_seL4/cfe/fsw/cfe-core/src/es/cfe_es_cds_mempool.c ****     CFE_ES_CDSMemPool.Size         = Size;
  88               	.loc 1 134 0
  89 0070 41EF 0010 	lea (16,%sp),%a0
  90 0074 23D0 0000 	move.l (%a0),CFE_ES_CDSMemPool+4
  90      0000 
 135:/home/simulink/cFS_FreeRTOS_seL4/cfe/fsw/cfe-core/src/es/cfe_es_cds_mempool.c ****     CFE_ES_CDSMemPool.Current      = StartOffset;
  91               	.loc 1 135 0
  92 007a 41EF 0020 	lea (32,%sp),%a0
  93 007e 23D0 0000 	move.l (%a0),CFE_ES_CDSMemPool+12
  93      0000 
 136:/home/simulink/cFS_FreeRTOS_seL4/cfe/fsw/cfe-core/src/es/cfe_es_cds_mempool.c ****     CFE_ES_CDSMemPool.SizeIndex    = -1;
  94               	.loc 1 136 0
  95 0084 70FF      	moveq #-1,%d0
  96 0086 23C0 0000 	move.l %d0,CFE_ES_CDSMemPool+16
  96      0000 
 137:/home/simulink/cFS_FreeRTOS_seL4/cfe/fsw/cfe-core/src/es/cfe_es_cds_mempool.c **** 
 138:/home/simulink/cFS_FreeRTOS_seL4/cfe/fsw/cfe-core/src/es/cfe_es_cds_mempool.c ****     CFE_ES_CDSMemPool.CheckErrCntr = 0;
  97               	.loc 1 138 0
  98 008c 4241      	clr.w %d1
  99 008e 33C1 0000 	move.w %d1,CFE_ES_CDSMemPool+20
  99      0000 
 139:/home/simulink/cFS_FreeRTOS_seL4/cfe/fsw/cfe-core/src/es/cfe_es_cds_mempool.c ****     CFE_ES_CDSMemPool.RequestCntr  = 0;
 100               	.loc 1 139 0
 101 0094 4242      	clr.w %d2
 102 0096 33C2 0000 	move.w %d2,CFE_ES_CDSMemPool+22
 102      0000 
 140:/home/simulink/cFS_FreeRTOS_seL4/cfe/fsw/cfe-core/src/es/cfe_es_cds_mempool.c **** 
 141:/home/simulink/cFS_FreeRTOS_seL4/cfe/fsw/cfe-core/src/es/cfe_es_cds_mempool.c ****     for (i=0; i<CFE_ES_CDS_NUM_BLOCK_SIZES; i++)
 103               	.loc 1 141 0
 104 009c 42AF 0014 	clr.l 20(%sp)
 105 00a0 6050      	jra .L2
 106               	.L3:
 142:/home/simulink/cFS_FreeRTOS_seL4/cfe/fsw/cfe-core/src/es/cfe_es_cds_mempool.c ****     {
 143:/home/simulink/cFS_FreeRTOS_seL4/cfe/fsw/cfe-core/src/es/cfe_es_cds_mempool.c ****         CFE_ES_CDSMemPool.SizeDesc[i].Top = 0;
 107               	.loc 1 143 0 discriminator 3
 108 00a2 202F 0014 	move.l 20(%sp),%d0
 109 00a6 720C      	moveq #12,%d1
 110 00a8 4C01 0800 	muls.l %d1,%d0
 111 00ac 41F9 0000 	lea CFE_ES_CDSMemPool+32,%a0
 111      0000 
 112 00b2 42B0 0800 	clr.l (%a0,%d0.l)
 144:/home/simulink/cFS_FreeRTOS_seL4/cfe/fsw/cfe-core/src/es/cfe_es_cds_mempool.c ****         CFE_ES_CDSMemPool.SizeDesc[i].NumCreated = 0;
 113               	.loc 1 144 0 discriminator 3
 114 00b6 202F 0014 	move.l 20(%sp),%d0
 115 00ba 740C      	moveq #12,%d2
 116 00bc 4C02 0800 	muls.l %d2,%d0
 117 00c0 41F9 0000 	lea CFE_ES_CDSMemPool+36,%a0
 117      0000 
 118 00c6 42B0 0800 	clr.l (%a0,%d0.l)
 145:/home/simulink/cFS_FreeRTOS_seL4/cfe/fsw/cfe-core/src/es/cfe_es_cds_mempool.c ****         CFE_ES_CDSMemPool.SizeDesc[i].MaxSize = CFE_ES_CDSMemPoolDefSize[i];
 119               	.loc 1 145 0 discriminator 3
 120 00ca 202F 0014 	move.l 20(%sp),%d0
68K GAS   			page 6


 121 00ce E588      	lsl.l #2,%d0
 122 00d0 41F9 0000 	lea CFE_ES_CDSMemPoolDefSize,%a0
 122      0000 
 123 00d6 2230 0800 	move.l (%a0,%d0.l),%d1
 124 00da 202F 0014 	move.l 20(%sp),%d0
 125 00de 740C      	moveq #12,%d2
 126 00e0 4C02 0800 	muls.l %d2,%d0
 127 00e4 41F9 0000 	lea CFE_ES_CDSMemPool+40,%a0
 127      0000 
 128 00ea 2181 0800 	move.l %d1,(%a0,%d0.l)
 141:/home/simulink/cFS_FreeRTOS_seL4/cfe/fsw/cfe-core/src/es/cfe_es_cds_mempool.c ****     {
 129               	.loc 1 141 0 discriminator 3
 130 00ee 52AF 0014 	addq.l #1,20(%sp)
 131               	.L2:
 141:/home/simulink/cFS_FreeRTOS_seL4/cfe/fsw/cfe-core/src/es/cfe_es_cds_mempool.c ****     {
 132               	.loc 1 141 0 is_stmt 0 discriminator 1
 133 00f2 7010      	moveq #16,%d0
 134 00f4 B0AF 0014 	cmp.l 20(%sp),%d0
 135 00f8 64A8      	jcc .L3
 146:/home/simulink/cFS_FreeRTOS_seL4/cfe/fsw/cfe-core/src/es/cfe_es_cds_mempool.c ****     }
 147:/home/simulink/cFS_FreeRTOS_seL4/cfe/fsw/cfe-core/src/es/cfe_es_cds_mempool.c **** 
 148:/home/simulink/cFS_FreeRTOS_seL4/cfe/fsw/cfe-core/src/es/cfe_es_cds_mempool.c ****     if (CDSPoolSize < (CFE_ES_CDSMemPool.MinBlockSize + sizeof(CFE_ES_CDSBlockDesc_t)))
 136               	.loc 1 148 0 is_stmt 1
 137 00fa 2039 0000 	move.l CFE_ES_CDSMemPool+28,%d0
 137      0000 
 138 0100 0680 0000 	add.l #20,%d0
 138      0014 
 139 0106 B0AF 001C 	cmp.l 28(%sp),%d0
 140 010a 634A      	jls .L4
 149:/home/simulink/cFS_FreeRTOS_seL4/cfe/fsw/cfe-core/src/es/cfe_es_cds_mempool.c ****     {
 150:/home/simulink/cFS_FreeRTOS_seL4/cfe/fsw/cfe-core/src/es/cfe_es_cds_mempool.c ****         /* Must be able make Pool verification, block descriptor and at least one of the smallest b
 151:/home/simulink/cFS_FreeRTOS_seL4/cfe/fsw/cfe-core/src/es/cfe_es_cds_mempool.c ****         CFE_ES_WriteToSysLog("CFE_ES:CreateCDSPool-Pool size(%u) too small for one CDS Block, need 
 152:/home/simulink/cFS_FreeRTOS_seL4/cfe/fsw/cfe-core/src/es/cfe_es_cds_mempool.c ****                              (unsigned int)CDSPoolSize, (unsigned int)(CFE_ES_CDSMemPool.MinBlockSi
 141               	.loc 1 152 0
 142 010c 2039 0000 	move.l CFE_ES_CDSMemPool+28,%d0
 142      0000 
 143 0112 0680 0000 	add.l #20,%d0
 143      0014 
 151:/home/simulink/cFS_FreeRTOS_seL4/cfe/fsw/cfe-core/src/es/cfe_es_cds_mempool.c ****                              (unsigned int)CDSPoolSize, (unsigned int)(CFE_ES_CDSMemPool.MinBlockSi
 144               	.loc 1 151 0
 145 0118 2F00      	move.l %d0,-(%sp)
 146               	.cfi_def_cfa_offset 32
 147 011a 2F2F 0020 	move.l 32(%sp),-(%sp)
 148               	.cfi_def_cfa_offset 36
 149 011e 4879 0000 	pea .LC0
 149      0000 
 150               	.cfi_def_cfa_offset 40
 151 0124 4EB9 0000 	jsr CFE_ES_WriteToSysLog
 151      0000 
 152 012a 4FEF 000C 	lea (12,%sp),%sp
 153               	.cfi_def_cfa_offset 28
 153:/home/simulink/cFS_FreeRTOS_seL4/cfe/fsw/cfe-core/src/es/cfe_es_cds_mempool.c ****                         
 154:/home/simulink/cFS_FreeRTOS_seL4/cfe/fsw/cfe-core/src/es/cfe_es_cds_mempool.c ****         /* Give and delete semaphore since CDS Pool creation failed */     
 155:/home/simulink/cFS_FreeRTOS_seL4/cfe/fsw/cfe-core/src/es/cfe_es_cds_mempool.c ****         OS_MutSemGive(CFE_ES_CDSMemPool.MutexId);
 154               	.loc 1 155 0
 155 012e 2039 0000 	move.l CFE_ES_CDSMemPool+24,%d0
 155      0000 
68K GAS   			page 7


 156 0134 2F00      	move.l %d0,-(%sp)
 157               	.cfi_def_cfa_offset 32
 158 0136 4EB9 0000 	jsr OS_MutSemGive
 158      0000 
 159 013c 588F      	addq.l #4,%sp
 160               	.cfi_def_cfa_offset 28
 156:/home/simulink/cFS_FreeRTOS_seL4/cfe/fsw/cfe-core/src/es/cfe_es_cds_mempool.c ****         OS_MutSemDelete(CFE_ES_CDSMemPool.MutexId);
 161               	.loc 1 156 0
 162 013e 2039 0000 	move.l CFE_ES_CDSMemPool+24,%d0
 162      0000 
 163 0144 2F00      	move.l %d0,-(%sp)
 164               	.cfi_def_cfa_offset 32
 165 0146 4EB9 0000 	jsr OS_MutSemDelete
 165      0000 
 166 014c 588F      	addq.l #4,%sp
 167               	.cfi_def_cfa_offset 28
 157:/home/simulink/cFS_FreeRTOS_seL4/cfe/fsw/cfe-core/src/es/cfe_es_cds_mempool.c ****         return(CFE_ES_BAD_ARGUMENT);
 168               	.loc 1 157 0
 169 014e 203C C400 	move.l #-1006632950,%d0
 169      000A 
 170 0154 6012      	jra .L6
 171               	.L4:
 158:/home/simulink/cFS_FreeRTOS_seL4/cfe/fsw/cfe-core/src/es/cfe_es_cds_mempool.c ****     }
 159:/home/simulink/cFS_FreeRTOS_seL4/cfe/fsw/cfe-core/src/es/cfe_es_cds_mempool.c ****     
 160:/home/simulink/cFS_FreeRTOS_seL4/cfe/fsw/cfe-core/src/es/cfe_es_cds_mempool.c ****     OS_MutSemGive(CFE_ES_CDSMemPool.MutexId);
 172               	.loc 1 160 0
 173 0156 2039 0000 	move.l CFE_ES_CDSMemPool+24,%d0
 173      0000 
 174 015c 2F00      	move.l %d0,-(%sp)
 175               	.cfi_def_cfa_offset 32
 176 015e 4EB9 0000 	jsr OS_MutSemGive
 176      0000 
 177 0164 588F      	addq.l #4,%sp
 178               	.cfi_def_cfa_offset 28
 161:/home/simulink/cFS_FreeRTOS_seL4/cfe/fsw/cfe-core/src/es/cfe_es_cds_mempool.c **** 
 162:/home/simulink/cFS_FreeRTOS_seL4/cfe/fsw/cfe-core/src/es/cfe_es_cds_mempool.c ****     return(CFE_SUCCESS);
 179               	.loc 1 162 0
 180 0166 4280      	clr.l %d0
 181               	.L6:
 163:/home/simulink/cFS_FreeRTOS_seL4/cfe/fsw/cfe-core/src/es/cfe_es_cds_mempool.c **** }
 182               	.loc 1 163 0 discriminator 1
 183 0168 241F      	move.l (%sp)+,%d2
 184 016a 4FEF 0014 	lea (20,%sp),%sp
 185 016e 4E75      	rts
 186               	.cfi_endproc
 187               	.LFE59:
 188               	.sizeCFE_ES_CreateCDSPool, .-CFE_ES_CreateCDSPool
 189               	.section.rodata
 190               	.LC1:
 191 004b 4346 455F 	.string"CFE_ES:RebuildCDSPool-Pool size(%u) too small for one CDS Block, need >=%u\n"
 191      4553 3A52 
 191      6562 7569 
 191      6C64 4344 
 191      5350 6F6F 
 192               	.LC2:
 193 0097 4346 455F 	.string"CFE_ES:RebuildCDS-Err writing to CDS (Stat=0x%08x)\n"
 193      4553 3A52 
68K GAS   			page 8


 193      6562 7569 
 193      6C64 4344 
 193      532D 4572 
 194               	.LC3:
 195 00cb 4346 455F 	.string"CFE_ES:RebuildCDS-Invalid Block Descriptor \n"
 195      4553 3A52 
 195      6562 7569 
 195      6C64 4344 
 195      532D 496E 
 196               	.LC4:
 197 00f8 4346 455F 	.string"CFE_ES:RebuildCDS-Err reading from CDS (Stat=0x%08x)\n"
 197      4553 3A52 
 197      6562 7569 
 197      6C64 4344 
 197      532D 4572 
 198               	.text
 199               	.align2
 200               	.globlCFE_ES_RebuildCDSPool
 201               	.typeCFE_ES_RebuildCDSPool, @function
 202               	CFE_ES_RebuildCDSPool:
 203               	.LFB60:
 164:/home/simulink/cFS_FreeRTOS_seL4/cfe/fsw/cfe-core/src/es/cfe_es_cds_mempool.c **** 
 165:/home/simulink/cFS_FreeRTOS_seL4/cfe/fsw/cfe-core/src/es/cfe_es_cds_mempool.c **** 
 166:/home/simulink/cFS_FreeRTOS_seL4/cfe/fsw/cfe-core/src/es/cfe_es_cds_mempool.c **** /*
 167:/home/simulink/cFS_FreeRTOS_seL4/cfe/fsw/cfe-core/src/es/cfe_es_cds_mempool.c **** ** Function:
 168:/home/simulink/cFS_FreeRTOS_seL4/cfe/fsw/cfe-core/src/es/cfe_es_cds_mempool.c **** **   CFE_ES_RebuildCDSPool
 169:/home/simulink/cFS_FreeRTOS_seL4/cfe/fsw/cfe-core/src/es/cfe_es_cds_mempool.c **** **
 170:/home/simulink/cFS_FreeRTOS_seL4/cfe/fsw/cfe-core/src/es/cfe_es_cds_mempool.c **** ** Purpose:
 171:/home/simulink/cFS_FreeRTOS_seL4/cfe/fsw/cfe-core/src/es/cfe_es_cds_mempool.c **** **
 172:/home/simulink/cFS_FreeRTOS_seL4/cfe/fsw/cfe-core/src/es/cfe_es_cds_mempool.c **** */
 173:/home/simulink/cFS_FreeRTOS_seL4/cfe/fsw/cfe-core/src/es/cfe_es_cds_mempool.c **** int32 CFE_ES_RebuildCDSPool(uint32 CDSPoolSize, uint32 StartOffset)
 174:/home/simulink/cFS_FreeRTOS_seL4/cfe/fsw/cfe-core/src/es/cfe_es_cds_mempool.c **** {
 204               	.loc 1 174 0
 205               	.cfi_startproc
 206 0170 4FEF FFE0 	lea (-32,%sp),%sp
 207               	.cfi_def_cfa_offset 36
 208 0174 2F02      	move.l %d2,-(%sp)
 209               	.cfi_def_cfa_offset 40
 210               	.cfi_offset 2, -40
 175:/home/simulink/cFS_FreeRTOS_seL4/cfe/fsw/cfe-core/src/es/cfe_es_cds_mempool.c ****     char MutexName[10] = {"CDS_POOL"};
 211               	.loc 1 175 0
 212 0176 41EF 0006 	lea (6,%sp),%a0
 213 017a 20BC 4344 	move.l #1128551263,(%a0)
 213      535F 
 214 0180 5888      	addq.l #4,%a0
 215 0182 20BC 504F 	move.l #1347374924,(%a0)
 215      4F4C 
 216 0188 5888      	addq.l #4,%a0
 217 018a 4250      	clr.w (%a0)
 218 018c 5488      	addq.l #2,%a0
 176:/home/simulink/cFS_FreeRTOS_seL4/cfe/fsw/cfe-core/src/es/cfe_es_cds_mempool.c ****     uint32 i = 0;
 219               	.loc 1 176 0
 220 018e 42AF 0020 	clr.l 32(%sp)
 177:/home/simulink/cFS_FreeRTOS_seL4/cfe/fsw/cfe-core/src/es/cfe_es_cds_mempool.c ****     uint32 Size = (CDSPoolSize & 0xfffffffc);
 221               	.loc 1 177 0
 222 0192 70FC      	moveq #-4,%d0
 223 0194 C0AF 0028 	and.l 40(%sp),%d0
68K GAS   			page 9


 224 0198 2F40 0014 	move.l %d0,20(%sp)
 178:/home/simulink/cFS_FreeRTOS_seL4/cfe/fsw/cfe-core/src/es/cfe_es_cds_mempool.c ****     int32  Status = OS_SUCCESS;
 225               	.loc 1 178 0
 226 019c 42AF 001C 	clr.l 28(%sp)
 179:/home/simulink/cFS_FreeRTOS_seL4/cfe/fsw/cfe-core/src/es/cfe_es_cds_mempool.c ****     uint32 Offset = StartOffset;
 227               	.loc 1 179 0
 228 01a0 2F6F 002C 	move.l 44(%sp),24(%sp)
 228      0018 
 180:/home/simulink/cFS_FreeRTOS_seL4/cfe/fsw/cfe-core/src/es/cfe_es_cds_mempool.c ****     int32  BinIndex = 0;
 229               	.loc 1 180 0
 230 01a6 42AF 0010 	clr.l 16(%sp)
 181:/home/simulink/cFS_FreeRTOS_seL4/cfe/fsw/cfe-core/src/es/cfe_es_cds_mempool.c **** 
 182:/home/simulink/cFS_FreeRTOS_seL4/cfe/fsw/cfe-core/src/es/cfe_es_cds_mempool.c ****     /* create a semphore to protect this memory pool */
 183:/home/simulink/cFS_FreeRTOS_seL4/cfe/fsw/cfe-core/src/es/cfe_es_cds_mempool.c ****     OS_MutSemCreate(&(CFE_ES_CDSMemPool.MutexId), MutexName, 0);
 231               	.loc 1 183 0
 232 01aa 42A7      	clr.l -(%sp)
 233               	.cfi_def_cfa_offset 44
 234 01ac 200F      	move.l %sp,%d0
 235 01ae 0680 0000 	add.l #10,%d0
 235      000A 
 236 01b4 2F00      	move.l %d0,-(%sp)
 237               	.cfi_def_cfa_offset 48
 238 01b6 4879 0000 	pea CFE_ES_CDSMemPool+24
 238      0000 
 239               	.cfi_def_cfa_offset 52
 240 01bc 4EB9 0000 	jsr OS_MutSemCreate
 240      0000 
 241 01c2 4FEF 000C 	lea (12,%sp),%sp
 242               	.cfi_def_cfa_offset 40
 184:/home/simulink/cFS_FreeRTOS_seL4/cfe/fsw/cfe-core/src/es/cfe_es_cds_mempool.c **** 
 185:/home/simulink/cFS_FreeRTOS_seL4/cfe/fsw/cfe-core/src/es/cfe_es_cds_mempool.c ****     /* Take the semaphore to ensure the mem pool is not being used during it's creation */
 186:/home/simulink/cFS_FreeRTOS_seL4/cfe/fsw/cfe-core/src/es/cfe_es_cds_mempool.c ****     OS_MutSemTake(CFE_ES_CDSMemPool.MutexId);
 243               	.loc 1 186 0
 244 01c6 2039 0000 	move.l CFE_ES_CDSMemPool+24,%d0
 244      0000 
 245 01cc 2F00      	move.l %d0,-(%sp)
 246               	.cfi_def_cfa_offset 44
 247 01ce 4EB9 0000 	jsr OS_MutSemTake
 247      0000 
 248 01d4 588F      	addq.l #4,%sp
 249               	.cfi_def_cfa_offset 40
 187:/home/simulink/cFS_FreeRTOS_seL4/cfe/fsw/cfe-core/src/es/cfe_es_cds_mempool.c **** 
 188:/home/simulink/cFS_FreeRTOS_seL4/cfe/fsw/cfe-core/src/es/cfe_es_cds_mempool.c ****     CFE_ES_CDSMemPool.Start        = StartOffset;
 250               	.loc 1 188 0
 251 01d6 41EF 002C 	lea (44,%sp),%a0
 252 01da 23D0 0000 	move.l (%a0),CFE_ES_CDSMemPool
 252      0000 
 189:/home/simulink/cFS_FreeRTOS_seL4/cfe/fsw/cfe-core/src/es/cfe_es_cds_mempool.c ****     CFE_ES_CDSMemPool.End          = StartOffset + Size;
 253               	.loc 1 189 0
 254 01e0 202F 002C 	move.l 44(%sp),%d0
 255 01e4 D0AF 0014 	add.l 20(%sp),%d0
 256 01e8 23C0 0000 	move.l %d0,CFE_ES_CDSMemPool+8
 256      0000 
 190:/home/simulink/cFS_FreeRTOS_seL4/cfe/fsw/cfe-core/src/es/cfe_es_cds_mempool.c ****     CFE_ES_CDSMemPool.Size         = Size;
 257               	.loc 1 190 0
 258 01ee 43EF 0014 	lea (20,%sp),%a1
 259 01f2 23D1 0000 	move.l (%a1),CFE_ES_CDSMemPool+4
68K GAS   			page 10


 259      0000 
 191:/home/simulink/cFS_FreeRTOS_seL4/cfe/fsw/cfe-core/src/es/cfe_es_cds_mempool.c ****     CFE_ES_CDSMemPool.Current      = 0;
 260               	.loc 1 191 0
 261 01f8 42B9 0000 	clr.l CFE_ES_CDSMemPool+12
 261      0000 
 192:/home/simulink/cFS_FreeRTOS_seL4/cfe/fsw/cfe-core/src/es/cfe_es_cds_mempool.c ****     CFE_ES_CDSMemPool.SizeIndex    = -1;
 262               	.loc 1 192 0
 263 01fe 70FF      	moveq #-1,%d0
 264 0200 23C0 0000 	move.l %d0,CFE_ES_CDSMemPool+16
 264      0000 
 193:/home/simulink/cFS_FreeRTOS_seL4/cfe/fsw/cfe-core/src/es/cfe_es_cds_mempool.c **** 
 194:/home/simulink/cFS_FreeRTOS_seL4/cfe/fsw/cfe-core/src/es/cfe_es_cds_mempool.c ****     CFE_ES_CDSMemPool.CheckErrCntr = 0;
 265               	.loc 1 194 0
 266 0206 4241      	clr.w %d1
 267 0208 33C1 0000 	move.w %d1,CFE_ES_CDSMemPool+20
 267      0000 
 195:/home/simulink/cFS_FreeRTOS_seL4/cfe/fsw/cfe-core/src/es/cfe_es_cds_mempool.c ****     CFE_ES_CDSMemPool.RequestCntr  = 0;
 268               	.loc 1 195 0
 269 020e 4242      	clr.w %d2
 270 0210 33C2 0000 	move.w %d2,CFE_ES_CDSMemPool+22
 270      0000 
 196:/home/simulink/cFS_FreeRTOS_seL4/cfe/fsw/cfe-core/src/es/cfe_es_cds_mempool.c **** 
 197:/home/simulink/cFS_FreeRTOS_seL4/cfe/fsw/cfe-core/src/es/cfe_es_cds_mempool.c ****     for (i=0; i<CFE_ES_CDS_NUM_BLOCK_SIZES; i++)
 271               	.loc 1 197 0
 272 0216 42AF 0020 	clr.l 32(%sp)
 273 021a 6050      	jra .L8
 274               	.L9:
 198:/home/simulink/cFS_FreeRTOS_seL4/cfe/fsw/cfe-core/src/es/cfe_es_cds_mempool.c ****     {
 199:/home/simulink/cFS_FreeRTOS_seL4/cfe/fsw/cfe-core/src/es/cfe_es_cds_mempool.c ****         CFE_ES_CDSMemPool.SizeDesc[i].Top = 0;
 275               	.loc 1 199 0 discriminator 3
 276 021c 202F 0020 	move.l 32(%sp),%d0
 277 0220 720C      	moveq #12,%d1
 278 0222 4C01 0800 	muls.l %d1,%d0
 279 0226 41F9 0000 	lea CFE_ES_CDSMemPool+32,%a0
 279      0000 
 280 022c 42B0 0800 	clr.l (%a0,%d0.l)
 200:/home/simulink/cFS_FreeRTOS_seL4/cfe/fsw/cfe-core/src/es/cfe_es_cds_mempool.c ****         CFE_ES_CDSMemPool.SizeDesc[i].NumCreated = 0;
 281               	.loc 1 200 0 discriminator 3
 282 0230 202F 0020 	move.l 32(%sp),%d0
 283 0234 740C      	moveq #12,%d2
 284 0236 4C02 0800 	muls.l %d2,%d0
 285 023a 41F9 0000 	lea CFE_ES_CDSMemPool+36,%a0
 285      0000 
 286 0240 42B0 0800 	clr.l (%a0,%d0.l)
 201:/home/simulink/cFS_FreeRTOS_seL4/cfe/fsw/cfe-core/src/es/cfe_es_cds_mempool.c ****         CFE_ES_CDSMemPool.SizeDesc[i].MaxSize = CFE_ES_CDSMemPoolDefSize[i];
 287               	.loc 1 201 0 discriminator 3
 288 0244 202F 0020 	move.l 32(%sp),%d0
 289 0248 E588      	lsl.l #2,%d0
 290 024a 41F9 0000 	lea CFE_ES_CDSMemPoolDefSize,%a0
 290      0000 
 291 0250 2230 0800 	move.l (%a0,%d0.l),%d1
 292 0254 202F 0020 	move.l 32(%sp),%d0
 293 0258 740C      	moveq #12,%d2
 294 025a 4C02 0800 	muls.l %d2,%d0
 295 025e 41F9 0000 	lea CFE_ES_CDSMemPool+40,%a0
 295      0000 
 296 0264 2181 0800 	move.l %d1,(%a0,%d0.l)
68K GAS   			page 11


 197:/home/simulink/cFS_FreeRTOS_seL4/cfe/fsw/cfe-core/src/es/cfe_es_cds_mempool.c ****     {
 297               	.loc 1 197 0 discriminator 3
 298 0268 52AF 0020 	addq.l #1,32(%sp)
 299               	.L8:
 197:/home/simulink/cFS_FreeRTOS_seL4/cfe/fsw/cfe-core/src/es/cfe_es_cds_mempool.c ****     {
 300               	.loc 1 197 0 is_stmt 0 discriminator 1
 301 026c 7010      	moveq #16,%d0
 302 026e B0AF 0020 	cmp.l 32(%sp),%d0
 303 0272 64A8      	jcc .L9
 202:/home/simulink/cFS_FreeRTOS_seL4/cfe/fsw/cfe-core/src/es/cfe_es_cds_mempool.c ****     }
 203:/home/simulink/cFS_FreeRTOS_seL4/cfe/fsw/cfe-core/src/es/cfe_es_cds_mempool.c ****     
 204:/home/simulink/cFS_FreeRTOS_seL4/cfe/fsw/cfe-core/src/es/cfe_es_cds_mempool.c ****     if (CDSPoolSize < (CFE_ES_CDSMemPool.MinBlockSize + sizeof(CFE_ES_CDSBlockDesc_t)))
 304               	.loc 1 204 0 is_stmt 1
 305 0274 2039 0000 	move.l CFE_ES_CDSMemPool+28,%d0
 305      0000 
 306 027a 0680 0000 	add.l #20,%d0
 306      0014 
 307 0280 B0AF 0028 	cmp.l 40(%sp),%d0
 308 0284 6300 01A2 	jls .L12
 205:/home/simulink/cFS_FreeRTOS_seL4/cfe/fsw/cfe-core/src/es/cfe_es_cds_mempool.c ****     {
 206:/home/simulink/cFS_FreeRTOS_seL4/cfe/fsw/cfe-core/src/es/cfe_es_cds_mempool.c ****         /* Must be able make Pool verification, block descriptor and at least one of the smallest b
 207:/home/simulink/cFS_FreeRTOS_seL4/cfe/fsw/cfe-core/src/es/cfe_es_cds_mempool.c ****         CFE_ES_WriteToSysLog("CFE_ES:RebuildCDSPool-Pool size(%u) too small for one CDS Block, need
 208:/home/simulink/cFS_FreeRTOS_seL4/cfe/fsw/cfe-core/src/es/cfe_es_cds_mempool.c ****                              (unsigned int)CDSPoolSize, (unsigned int)(CFE_ES_CDSMemPool.MinBlockSi
 309               	.loc 1 208 0
 310 0288 2039 0000 	move.l CFE_ES_CDSMemPool+28,%d0
 310      0000 
 311 028e 0680 0000 	add.l #20,%d0
 311      0014 
 207:/home/simulink/cFS_FreeRTOS_seL4/cfe/fsw/cfe-core/src/es/cfe_es_cds_mempool.c ****                              (unsigned int)CDSPoolSize, (unsigned int)(CFE_ES_CDSMemPool.MinBlockSi
 312               	.loc 1 207 0
 313 0294 2F00      	move.l %d0,-(%sp)
 314               	.cfi_def_cfa_offset 44
 315 0296 2F2F 002C 	move.l 44(%sp),-(%sp)
 316               	.cfi_def_cfa_offset 48
 317 029a 4879 0000 	pea .LC1
 317      0000 
 318               	.cfi_def_cfa_offset 52
 319 02a0 4EB9 0000 	jsr CFE_ES_WriteToSysLog
 319      0000 
 320 02a6 4FEF 000C 	lea (12,%sp),%sp
 321               	.cfi_def_cfa_offset 40
 209:/home/simulink/cFS_FreeRTOS_seL4/cfe/fsw/cfe-core/src/es/cfe_es_cds_mempool.c **** 
 210:/home/simulink/cFS_FreeRTOS_seL4/cfe/fsw/cfe-core/src/es/cfe_es_cds_mempool.c ****         /* Give and delete semaphore since CDS Pool rebuild failed */     
 211:/home/simulink/cFS_FreeRTOS_seL4/cfe/fsw/cfe-core/src/es/cfe_es_cds_mempool.c ****         OS_MutSemGive(CFE_ES_CDSMemPool.MutexId);
 322               	.loc 1 211 0
 323 02aa 2039 0000 	move.l CFE_ES_CDSMemPool+24,%d0
 323      0000 
 324 02b0 2F00      	move.l %d0,-(%sp)
 325               	.cfi_def_cfa_offset 44
 326 02b2 4EB9 0000 	jsr OS_MutSemGive
 326      0000 
 327 02b8 588F      	addq.l #4,%sp
 328               	.cfi_def_cfa_offset 40
 212:/home/simulink/cFS_FreeRTOS_seL4/cfe/fsw/cfe-core/src/es/cfe_es_cds_mempool.c ****         OS_MutSemDelete(CFE_ES_CDSMemPool.MutexId);
 329               	.loc 1 212 0
 330 02ba 2039 0000 	move.l CFE_ES_CDSMemPool+24,%d0
 330      0000 
68K GAS   			page 12


 331 02c0 2F00      	move.l %d0,-(%sp)
 332               	.cfi_def_cfa_offset 44
 333 02c2 4EB9 0000 	jsr OS_MutSemDelete
 333      0000 
 334 02c8 588F      	addq.l #4,%sp
 335               	.cfi_def_cfa_offset 40
 213:/home/simulink/cFS_FreeRTOS_seL4/cfe/fsw/cfe-core/src/es/cfe_es_cds_mempool.c ****         return(CFE_ES_BAD_ARGUMENT);
 336               	.loc 1 213 0
 337 02ca 203C C400 	move.l #-1006632950,%d0
 337      000A 
 338 02d0 6000 018E 	jra .L21
 339               	.L20:
 214:/home/simulink/cFS_FreeRTOS_seL4/cfe/fsw/cfe-core/src/es/cfe_es_cds_mempool.c ****     }
 215:/home/simulink/cFS_FreeRTOS_seL4/cfe/fsw/cfe-core/src/es/cfe_es_cds_mempool.c **** 
 216:/home/simulink/cFS_FreeRTOS_seL4/cfe/fsw/cfe-core/src/es/cfe_es_cds_mempool.c ****     /* Scan the CDS memory trying to find blocks that were created but are now free */
 217:/home/simulink/cFS_FreeRTOS_seL4/cfe/fsw/cfe-core/src/es/cfe_es_cds_mempool.c ****     while ((Status == OS_SUCCESS) && 
 218:/home/simulink/cFS_FreeRTOS_seL4/cfe/fsw/cfe-core/src/es/cfe_es_cds_mempool.c ****            (Offset < (CFE_ES_CDSMemPool.End - sizeof(CFE_ES_CDSBlockDesc_t))) &&
 219:/home/simulink/cFS_FreeRTOS_seL4/cfe/fsw/cfe-core/src/es/cfe_es_cds_mempool.c ****            (CFE_ES_CDSMemPool.Current == 0))
 220:/home/simulink/cFS_FreeRTOS_seL4/cfe/fsw/cfe-core/src/es/cfe_es_cds_mempool.c ****     {
 221:/home/simulink/cFS_FreeRTOS_seL4/cfe/fsw/cfe-core/src/es/cfe_es_cds_mempool.c ****         /* Read the block descriptor for the first block in the memory pool */
 222:/home/simulink/cFS_FreeRTOS_seL4/cfe/fsw/cfe-core/src/es/cfe_es_cds_mempool.c ****         Status = CFE_PSP_ReadFromCDS(&CFE_ES_CDSBlockDesc, Offset, sizeof(CFE_ES_CDSBlockDesc_t));
 340               	.loc 1 222 0
 341 02d4 4878 0014 	pea 20.w
 342               	.cfi_def_cfa_offset 44
 343 02d8 2F2F 001C 	move.l 28(%sp),-(%sp)
 344               	.cfi_def_cfa_offset 48
 345 02dc 4879 0000 	pea CFE_ES_CDSBlockDesc
 345      0000 
 346               	.cfi_def_cfa_offset 52
 347 02e2 4EB9 0000 	jsr CFE_PSP_ReadFromCDS
 347      0000 
 348 02e8 4FEF 000C 	lea (12,%sp),%sp
 349               	.cfi_def_cfa_offset 40
 350 02ec 2F40 001C 	move.l %d0,28(%sp)
 223:/home/simulink/cFS_FreeRTOS_seL4/cfe/fsw/cfe-core/src/es/cfe_es_cds_mempool.c ****         
 224:/home/simulink/cFS_FreeRTOS_seL4/cfe/fsw/cfe-core/src/es/cfe_es_cds_mempool.c ****         if (Status == CFE_PSP_SUCCESS)
 351               	.loc 1 224 0
 352 02f0 4AAF 001C 	tst.l 28(%sp)
 353 02f4 6600 0114 	jne .L13
 225:/home/simulink/cFS_FreeRTOS_seL4/cfe/fsw/cfe-core/src/es/cfe_es_cds_mempool.c ****         {
 226:/home/simulink/cFS_FreeRTOS_seL4/cfe/fsw/cfe-core/src/es/cfe_es_cds_mempool.c ****             /* First, determine if the block is being or has been used */
 227:/home/simulink/cFS_FreeRTOS_seL4/cfe/fsw/cfe-core/src/es/cfe_es_cds_mempool.c ****             if (CFE_ES_CDSBlockDesc.CheckBits == CFE_ES_CDS_CHECK_PATTERN)
 354               	.loc 1 227 0
 355 02f8 3039 0000 	move.w CFE_ES_CDSBlockDesc,%d0
 355      0000 
 356 02fe 3000      	move.w %d0,%d0
 357 0300 0280 0000 	and.l #65535,%d0
 357      FFFF 
 358 0306 0C80 0000 	cmp.l #23130,%d0
 358      5A5A 
 359 030c 6600 00F0 	jne .L14
 228:/home/simulink/cFS_FreeRTOS_seL4/cfe/fsw/cfe-core/src/es/cfe_es_cds_mempool.c ****             {
 229:/home/simulink/cFS_FreeRTOS_seL4/cfe/fsw/cfe-core/src/es/cfe_es_cds_mempool.c ****                 /* See if the block is currently being used */
 230:/home/simulink/cFS_FreeRTOS_seL4/cfe/fsw/cfe-core/src/es/cfe_es_cds_mempool.c ****                 if (CFE_ES_CDSBlockDesc.AllocatedFlag != CFE_ES_CDS_BLOCK_USED)
 360               	.loc 1 230 0
 361 0310 3039 0000 	move.w CFE_ES_CDSBlockDesc+2,%d0
 361      0000 
68K GAS   			page 13


 362 0316 3000      	move.w %d0,%d0
 363 0318 0280 0000 	and.l #65535,%d0
 363      FFFF 
 364 031e 0C80 0000 	cmp.l #43690,%d0
 364      AAAA 
 365 0324 6700 00C2 	jeq .L15
 231:/home/simulink/cFS_FreeRTOS_seL4/cfe/fsw/cfe-core/src/es/cfe_es_cds_mempool.c ****                 {
 232:/home/simulink/cFS_FreeRTOS_seL4/cfe/fsw/cfe-core/src/es/cfe_es_cds_mempool.c ****                     /* If the block is not currently being used, */
 233:/home/simulink/cFS_FreeRTOS_seL4/cfe/fsw/cfe-core/src/es/cfe_es_cds_mempool.c ****                     /* then add it to the appropriate linked list in the memory pool */
 234:/home/simulink/cFS_FreeRTOS_seL4/cfe/fsw/cfe-core/src/es/cfe_es_cds_mempool.c ****                     BinIndex = CFE_ES_CDSGetBinIndex(CFE_ES_CDSBlockDesc.SizeUsed);
 366               	.loc 1 234 0
 367 0328 2039 0000 	move.l CFE_ES_CDSBlockDesc+4,%d0
 367      0000 
 368 032e 2F00      	move.l %d0,-(%sp)
 369               	.cfi_def_cfa_offset 44
 370 0330 4EB9 0000 	jsr CFE_ES_CDSGetBinIndex
 370      0000 
 371 0336 588F      	addq.l #4,%sp
 372               	.cfi_def_cfa_offset 40
 373 0338 2F40 0010 	move.l %d0,16(%sp)
 235:/home/simulink/cFS_FreeRTOS_seL4/cfe/fsw/cfe-core/src/es/cfe_es_cds_mempool.c ****                     
 236:/home/simulink/cFS_FreeRTOS_seL4/cfe/fsw/cfe-core/src/es/cfe_es_cds_mempool.c ****                     /* Sanity-check the block descriptor */
 237:/home/simulink/cFS_FreeRTOS_seL4/cfe/fsw/cfe-core/src/es/cfe_es_cds_mempool.c ****                     if (BinIndex >= 0)
 374               	.loc 1 237 0
 375 033c 4AAF 0010 	tst.l 16(%sp)
 376 0340 6D7E      	jlt .L16
 238:/home/simulink/cFS_FreeRTOS_seL4/cfe/fsw/cfe-core/src/es/cfe_es_cds_mempool.c ****                     {
 239:/home/simulink/cFS_FreeRTOS_seL4/cfe/fsw/cfe-core/src/es/cfe_es_cds_mempool.c ****                         CFE_ES_CDSBlockDesc.Next = CFE_ES_CDSMemPool.SizeDesc[BinIndex].Top;
 377               	.loc 1 239 0
 378 0342 202F 0010 	move.l 16(%sp),%d0
 379 0346 720C      	moveq #12,%d1
 380 0348 4C01 0800 	muls.l %d1,%d0
 381 034c 41F9 0000 	lea CFE_ES_CDSMemPool+32,%a0
 381      0000 
 382 0352 2030 0800 	move.l (%a0,%d0.l),%d0
 383 0356 23C0 0000 	move.l %d0,CFE_ES_CDSBlockDesc+16
 383      0000 
 240:/home/simulink/cFS_FreeRTOS_seL4/cfe/fsw/cfe-core/src/es/cfe_es_cds_mempool.c ****                         CFE_ES_CDSBlockDesc.AllocatedFlag = CFE_ES_CDS_BLOCK_UNUSED;
 384               	.loc 1 240 0
 385 035c 343C DDDD 	move.w #-8739,%d2
 386 0360 33C2 0000 	move.w %d2,CFE_ES_CDSBlockDesc+2
 386      0000 
 241:/home/simulink/cFS_FreeRTOS_seL4/cfe/fsw/cfe-core/src/es/cfe_es_cds_mempool.c ****                         CFE_ES_CDSMemPool.SizeDesc[BinIndex].Top = Offset;
 387               	.loc 1 241 0
 388 0366 202F 0010 	move.l 16(%sp),%d0
 389 036a 720C      	moveq #12,%d1
 390 036c 4C01 0800 	muls.l %d1,%d0
 391 0370 41F9 0000 	lea CFE_ES_CDSMemPool+32,%a0
 391      0000 
 392 0376 43EF 0018 	lea (24,%sp),%a1
 393 037a 2191 0800 	move.l (%a1),(%a0,%d0.l)
 242:/home/simulink/cFS_FreeRTOS_seL4/cfe/fsw/cfe-core/src/es/cfe_es_cds_mempool.c **** 
 243:/home/simulink/cFS_FreeRTOS_seL4/cfe/fsw/cfe-core/src/es/cfe_es_cds_mempool.c ****                         /* Store the new CDS Block Descriptor in the CDS */
 244:/home/simulink/cFS_FreeRTOS_seL4/cfe/fsw/cfe-core/src/es/cfe_es_cds_mempool.c ****                         Status = CFE_PSP_WriteToCDS(&CFE_ES_CDSBlockDesc, Offset, sizeof(CFE_ES_CDS
 394               	.loc 1 244 0
 395 037e 4878 0014 	pea 20.w
 396               	.cfi_def_cfa_offset 44
68K GAS   			page 14


 397 0382 2F2F 001C 	move.l 28(%sp),-(%sp)
 398               	.cfi_def_cfa_offset 48
 399 0386 4879 0000 	pea CFE_ES_CDSBlockDesc
 399      0000 
 400               	.cfi_def_cfa_offset 52
 401 038c 4EB9 0000 	jsr CFE_PSP_WriteToCDS
 401      0000 
 402 0392 4FEF 000C 	lea (12,%sp),%sp
 403               	.cfi_def_cfa_offset 40
 404 0396 2F40 001C 	move.l %d0,28(%sp)
 245:/home/simulink/cFS_FreeRTOS_seL4/cfe/fsw/cfe-core/src/es/cfe_es_cds_mempool.c **** 
 246:/home/simulink/cFS_FreeRTOS_seL4/cfe/fsw/cfe-core/src/es/cfe_es_cds_mempool.c ****                         if (Status != CFE_PSP_SUCCESS)
 405               	.loc 1 246 0
 406 039a 4AAF 001C 	tst.l 28(%sp)
 407 039e 6748      	jeq .L15
 247:/home/simulink/cFS_FreeRTOS_seL4/cfe/fsw/cfe-core/src/es/cfe_es_cds_mempool.c ****                         {
 248:/home/simulink/cFS_FreeRTOS_seL4/cfe/fsw/cfe-core/src/es/cfe_es_cds_mempool.c ****                             CFE_ES_WriteToSysLog("CFE_ES:RebuildCDS-Err writing to CDS (Stat=0x%08x
 408               	.loc 1 248 0
 409 03a0 202F 001C 	move.l 28(%sp),%d0
 410 03a4 2F00      	move.l %d0,-(%sp)
 411               	.cfi_def_cfa_offset 44
 412 03a6 4879 0000 	pea .LC2
 412      0000 
 413               	.cfi_def_cfa_offset 48
 414 03ac 4EB9 0000 	jsr CFE_ES_WriteToSysLog
 414      0000 
 415 03b2 508F      	addq.l #8,%sp
 416               	.cfi_def_cfa_offset 40
 249:/home/simulink/cFS_FreeRTOS_seL4/cfe/fsw/cfe-core/src/es/cfe_es_cds_mempool.c ****                             Status = CFE_ES_CDS_ACCESS_ERROR;
 417               	.loc 1 249 0
 418 03b4 203C C400 	move.l #-1006632941,%d0
 418      0013 
 419 03ba 2F40 001C 	move.l %d0,28(%sp)
 420 03be 6028      	jra .L15
 421               	.L16:
 250:/home/simulink/cFS_FreeRTOS_seL4/cfe/fsw/cfe-core/src/es/cfe_es_cds_mempool.c ****                         }
 251:/home/simulink/cFS_FreeRTOS_seL4/cfe/fsw/cfe-core/src/es/cfe_es_cds_mempool.c ****                     }
 252:/home/simulink/cFS_FreeRTOS_seL4/cfe/fsw/cfe-core/src/es/cfe_es_cds_mempool.c ****                     else
 253:/home/simulink/cFS_FreeRTOS_seL4/cfe/fsw/cfe-core/src/es/cfe_es_cds_mempool.c ****                     {
 254:/home/simulink/cFS_FreeRTOS_seL4/cfe/fsw/cfe-core/src/es/cfe_es_cds_mempool.c ****                         CFE_ES_CDSMemPool.CheckErrCntr++;
 422               	.loc 1 254 0
 423 03c0 3039 0000 	move.w CFE_ES_CDSMemPool+20,%d0
 423      0000 
 424 03c6 5280      	addq.l #1,%d0
 425 03c8 3000      	move.w %d0,%d0
 426 03ca 33C0 0000 	move.w %d0,CFE_ES_CDSMemPool+20
 426      0000 
 255:/home/simulink/cFS_FreeRTOS_seL4/cfe/fsw/cfe-core/src/es/cfe_es_cds_mempool.c ****                         CFE_ES_WriteToSysLog("CFE_ES:RebuildCDS-Invalid Block Descriptor \n");
 427               	.loc 1 255 0
 428 03d0 4879 0000 	pea .LC3
 428      0000 
 429               	.cfi_def_cfa_offset 44
 430 03d6 4EB9 0000 	jsr CFE_ES_WriteToSysLog
 430      0000 
 431 03dc 588F      	addq.l #4,%sp
 432               	.cfi_def_cfa_offset 40
 256:/home/simulink/cFS_FreeRTOS_seL4/cfe/fsw/cfe-core/src/es/cfe_es_cds_mempool.c ****                         Status = CFE_ES_CDS_ACCESS_ERROR;
68K GAS   			page 15


 433               	.loc 1 256 0
 434 03de 223C C400 	move.l #-1006632941,%d1
 434      0013 
 435 03e4 2F41 001C 	move.l %d1,28(%sp)
 436               	.L15:
 257:/home/simulink/cFS_FreeRTOS_seL4/cfe/fsw/cfe-core/src/es/cfe_es_cds_mempool.c ****                     }
 258:/home/simulink/cFS_FreeRTOS_seL4/cfe/fsw/cfe-core/src/es/cfe_es_cds_mempool.c ****                 }
 259:/home/simulink/cFS_FreeRTOS_seL4/cfe/fsw/cfe-core/src/es/cfe_es_cds_mempool.c ****                 
 260:/home/simulink/cFS_FreeRTOS_seL4/cfe/fsw/cfe-core/src/es/cfe_es_cds_mempool.c ****                 /* Skip to the next block of memory */
 261:/home/simulink/cFS_FreeRTOS_seL4/cfe/fsw/cfe-core/src/es/cfe_es_cds_mempool.c ****                 Offset = Offset + CFE_ES_CDSBlockDesc.ActualSize + sizeof(CFE_ES_CDSBlockDesc_t);
 437               	.loc 1 261 0
 438 03e8 2039 0000 	move.l CFE_ES_CDSBlockDesc+8,%d0
 438      0000 
 439 03ee D0AF 0018 	add.l 24(%sp),%d0
 440 03f2 2040      	move.l %d0,%a0
 441 03f4 41E8 0014 	lea (20,%a0),%a0
 442 03f8 2F48 0018 	move.l %a0,24(%sp)
 443 03fc 602A      	jra .L12
 444               	.L14:
 262:/home/simulink/cFS_FreeRTOS_seL4/cfe/fsw/cfe-core/src/es/cfe_es_cds_mempool.c ****             }
 263:/home/simulink/cFS_FreeRTOS_seL4/cfe/fsw/cfe-core/src/es/cfe_es_cds_mempool.c ****             else
 264:/home/simulink/cFS_FreeRTOS_seL4/cfe/fsw/cfe-core/src/es/cfe_es_cds_mempool.c ****             {
 265:/home/simulink/cFS_FreeRTOS_seL4/cfe/fsw/cfe-core/src/es/cfe_es_cds_mempool.c ****                 /* If the block has never been used, then we should save the offset as the current 
 266:/home/simulink/cFS_FreeRTOS_seL4/cfe/fsw/cfe-core/src/es/cfe_es_cds_mempool.c ****                 /* which in turn will finish the scan of the CDS memory */
 267:/home/simulink/cFS_FreeRTOS_seL4/cfe/fsw/cfe-core/src/es/cfe_es_cds_mempool.c ****                 CFE_ES_CDSMemPool.Current = Offset;
 445               	.loc 1 267 0
 446 03fe 43EF 0018 	lea (24,%sp),%a1
 447 0402 23D1 0000 	move.l (%a1),CFE_ES_CDSMemPool+12
 447      0000 
 448 0408 601E      	jra .L12
 449               	.L13:
 268:/home/simulink/cFS_FreeRTOS_seL4/cfe/fsw/cfe-core/src/es/cfe_es_cds_mempool.c ****             }
 269:/home/simulink/cFS_FreeRTOS_seL4/cfe/fsw/cfe-core/src/es/cfe_es_cds_mempool.c ****         }
 270:/home/simulink/cFS_FreeRTOS_seL4/cfe/fsw/cfe-core/src/es/cfe_es_cds_mempool.c ****         else
 271:/home/simulink/cFS_FreeRTOS_seL4/cfe/fsw/cfe-core/src/es/cfe_es_cds_mempool.c ****         {
 272:/home/simulink/cFS_FreeRTOS_seL4/cfe/fsw/cfe-core/src/es/cfe_es_cds_mempool.c ****             CFE_ES_WriteToSysLog("CFE_ES:RebuildCDS-Err reading from CDS (Stat=0x%08x)\n", (unsigne
 450               	.loc 1 272 0
 451 040a 202F 001C 	move.l 28(%sp),%d0
 452 040e 2F00      	move.l %d0,-(%sp)
 453               	.cfi_def_cfa_offset 44
 454 0410 4879 0000 	pea .LC4
 454      0000 
 455               	.cfi_def_cfa_offset 48
 456 0416 4EB9 0000 	jsr CFE_ES_WriteToSysLog
 456      0000 
 457 041c 508F      	addq.l #8,%sp
 458               	.cfi_def_cfa_offset 40
 273:/home/simulink/cFS_FreeRTOS_seL4/cfe/fsw/cfe-core/src/es/cfe_es_cds_mempool.c ****             Status = CFE_ES_CDS_ACCESS_ERROR;
 459               	.loc 1 273 0
 460 041e 203C C400 	move.l #-1006632941,%d0
 460      0013 
 461 0424 2F40 001C 	move.l %d0,28(%sp)
 462               	.L12:
 217:/home/simulink/cFS_FreeRTOS_seL4/cfe/fsw/cfe-core/src/es/cfe_es_cds_mempool.c ****            (Offset < (CFE_ES_CDSMemPool.End - sizeof(CFE_ES_CDSBlockDesc_t))) &&
 463               	.loc 1 217 0
 464 0428 4AAF 001C 	tst.l 28(%sp)
 465 042c 661E      	jne .L19
68K GAS   			page 16


 218:/home/simulink/cFS_FreeRTOS_seL4/cfe/fsw/cfe-core/src/es/cfe_es_cds_mempool.c ****            (CFE_ES_CDSMemPool.Current == 0))
 466               	.loc 1 218 0 discriminator 1
 467 042e 2039 0000 	move.l CFE_ES_CDSMemPool+8,%d0
 467      0000 
 468 0434 0680 FFFF 	add.l #-20,%d0
 468      FFEC 
 217:/home/simulink/cFS_FreeRTOS_seL4/cfe/fsw/cfe-core/src/es/cfe_es_cds_mempool.c ****            (Offset < (CFE_ES_CDSMemPool.End - sizeof(CFE_ES_CDSBlockDesc_t))) &&
 469               	.loc 1 217 0 discriminator 1
 470 043a B0AF 0018 	cmp.l 24(%sp),%d0
 471 043e 630C      	jls .L19
 219:/home/simulink/cFS_FreeRTOS_seL4/cfe/fsw/cfe-core/src/es/cfe_es_cds_mempool.c ****     {
 472               	.loc 1 219 0
 473 0440 2039 0000 	move.l CFE_ES_CDSMemPool+12,%d0
 473      0000 
 218:/home/simulink/cFS_FreeRTOS_seL4/cfe/fsw/cfe-core/src/es/cfe_es_cds_mempool.c ****            (CFE_ES_CDSMemPool.Current == 0))
 474               	.loc 1 218 0
 475 0446 4A80      	tst.l %d0
 476 0448 6700 FE8A 	jeq .L20
 477               	.L19:
 274:/home/simulink/cFS_FreeRTOS_seL4/cfe/fsw/cfe-core/src/es/cfe_es_cds_mempool.c ****         }
 275:/home/simulink/cFS_FreeRTOS_seL4/cfe/fsw/cfe-core/src/es/cfe_es_cds_mempool.c ****     }  /* end while */
 276:/home/simulink/cFS_FreeRTOS_seL4/cfe/fsw/cfe-core/src/es/cfe_es_cds_mempool.c ****     
 277:/home/simulink/cFS_FreeRTOS_seL4/cfe/fsw/cfe-core/src/es/cfe_es_cds_mempool.c ****     OS_MutSemGive(CFE_ES_CDSMemPool.MutexId);
 478               	.loc 1 277 0
 479 044c 2039 0000 	move.l CFE_ES_CDSMemPool+24,%d0
 479      0000 
 480 0452 2F00      	move.l %d0,-(%sp)
 481               	.cfi_def_cfa_offset 44
 482 0454 4EB9 0000 	jsr OS_MutSemGive
 482      0000 
 483 045a 588F      	addq.l #4,%sp
 484               	.cfi_def_cfa_offset 40
 278:/home/simulink/cFS_FreeRTOS_seL4/cfe/fsw/cfe-core/src/es/cfe_es_cds_mempool.c **** 
 279:/home/simulink/cFS_FreeRTOS_seL4/cfe/fsw/cfe-core/src/es/cfe_es_cds_mempool.c ****     return Status;
 485               	.loc 1 279 0
 486 045c 202F 001C 	move.l 28(%sp),%d0
 487               	.L21:
 280:/home/simulink/cFS_FreeRTOS_seL4/cfe/fsw/cfe-core/src/es/cfe_es_cds_mempool.c **** }
 488               	.loc 1 280 0 discriminator 1
 489 0460 241F      	move.l (%sp)+,%d2
 490 0462 4FEF 0020 	lea (32,%sp),%sp
 491 0466 4E75      	rts
 492               	.cfi_endproc
 493               	.LFE60:
 494               	.sizeCFE_ES_RebuildCDSPool, .-CFE_ES_RebuildCDSPool
 495               	.section.rodata
 496               	.LC5:
 497 012e 4346 455F 	.string"CFE_ES:GetCDSBlock-err:size(%d) > max(%d).\n"
 497      4553 3A47 
 497      6574 4344 
 497      5342 6C6F 
 497      636B 2D65 
 498               	.LC6:
 499 015a 4346 455F 	.string"CFE_ES:GetCDSBlock-Err reading from CDS (Stat=0x%08x)\n"
 499      4553 3A47 
 499      6574 4344 
 499      5342 6C6F 
68K GAS   			page 17


 499      636B 2D45 
 500               	.LC7:
 501 0191 4346 455F 	.string"CFE_ES:GetCDSBlock-err:Request for %d bytes won't fit in remaining memory\n"
 501      4553 3A47 
 501      6574 4344 
 501      5342 6C6F 
 501      636B 2D65 
 502               	.LC8:
 503 01dc 4346 455F 	.string"CFE_ES:GetCDSBlock-Err writing to CDS (Stat=0x%08x)\n"
 503      4553 3A47 
 503      6574 4344 
 503      5342 6C6F 
 503      636B 2D45 
 504               	.text
 505               	.align2
 506               	.globlCFE_ES_GetCDSBlock
 507               	.typeCFE_ES_GetCDSBlock, @function
 508               	CFE_ES_GetCDSBlock:
 509               	.LFB61:
 281:/home/simulink/cFS_FreeRTOS_seL4/cfe/fsw/cfe-core/src/es/cfe_es_cds_mempool.c **** 
 282:/home/simulink/cFS_FreeRTOS_seL4/cfe/fsw/cfe-core/src/es/cfe_es_cds_mempool.c **** 
 283:/home/simulink/cFS_FreeRTOS_seL4/cfe/fsw/cfe-core/src/es/cfe_es_cds_mempool.c **** /*
 284:/home/simulink/cFS_FreeRTOS_seL4/cfe/fsw/cfe-core/src/es/cfe_es_cds_mempool.c **** ** Function:
 285:/home/simulink/cFS_FreeRTOS_seL4/cfe/fsw/cfe-core/src/es/cfe_es_cds_mempool.c **** **   CFE_ES_GetCDSBlock
 286:/home/simulink/cFS_FreeRTOS_seL4/cfe/fsw/cfe-core/src/es/cfe_es_cds_mempool.c **** **
 287:/home/simulink/cFS_FreeRTOS_seL4/cfe/fsw/cfe-core/src/es/cfe_es_cds_mempool.c **** ** Purpose:
 288:/home/simulink/cFS_FreeRTOS_seL4/cfe/fsw/cfe-core/src/es/cfe_es_cds_mempool.c **** **   CFE_ES_GetCDSBlock allocates a block from the CDS memory pool.
 289:/home/simulink/cFS_FreeRTOS_seL4/cfe/fsw/cfe-core/src/es/cfe_es_cds_mempool.c **** */
 290:/home/simulink/cFS_FreeRTOS_seL4/cfe/fsw/cfe-core/src/es/cfe_es_cds_mempool.c **** int32 CFE_ES_GetCDSBlock(CFE_ES_CDSBlockHandle_t *BlockHandle,
 291:/home/simulink/cFS_FreeRTOS_seL4/cfe/fsw/cfe-core/src/es/cfe_es_cds_mempool.c ****                          uint32  BlockSize )
 292:/home/simulink/cFS_FreeRTOS_seL4/cfe/fsw/cfe-core/src/es/cfe_es_cds_mempool.c **** {
 510               	.loc 1 292 0
 511               	.cfi_startproc
 512 0468 518F      	subq.l #8,%sp
 513               	.cfi_def_cfa_offset 12
 514 046a 2F02      	move.l %d2,-(%sp)
 515               	.cfi_def_cfa_offset 16
 516               	.cfi_offset 2, -16
 293:/home/simulink/cFS_FreeRTOS_seL4/cfe/fsw/cfe-core/src/es/cfe_es_cds_mempool.c ****     int32                   BinIndex;
 294:/home/simulink/cFS_FreeRTOS_seL4/cfe/fsw/cfe-core/src/es/cfe_es_cds_mempool.c ****     int32                   Status;
 295:/home/simulink/cFS_FreeRTOS_seL4/cfe/fsw/cfe-core/src/es/cfe_es_cds_mempool.c **** 
 296:/home/simulink/cFS_FreeRTOS_seL4/cfe/fsw/cfe-core/src/es/cfe_es_cds_mempool.c ****     OS_MutSemTake(CFE_ES_CDSMemPool.MutexId);
 517               	.loc 1 296 0
 518 046c 2039 0000 	move.l CFE_ES_CDSMemPool+24,%d0
 518      0000 
 519 0472 2F00      	move.l %d0,-(%sp)
 520               	.cfi_def_cfa_offset 20
 521 0474 4EB9 0000 	jsr OS_MutSemTake
 521      0000 
 522 047a 588F      	addq.l #4,%sp
 523               	.cfi_def_cfa_offset 16
 297:/home/simulink/cFS_FreeRTOS_seL4/cfe/fsw/cfe-core/src/es/cfe_es_cds_mempool.c **** 
 298:/home/simulink/cFS_FreeRTOS_seL4/cfe/fsw/cfe-core/src/es/cfe_es_cds_mempool.c ****     BinIndex = CFE_ES_CDSGetBinIndex(BlockSize);
 524               	.loc 1 298 0
 525 047c 2F2F 0014 	move.l 20(%sp),-(%sp)
 526               	.cfi_def_cfa_offset 20
 527 0480 4EB9 0000 	jsr CFE_ES_CDSGetBinIndex
68K GAS   			page 18


 527      0000 
 528 0486 588F      	addq.l #4,%sp
 529               	.cfi_def_cfa_offset 16
 530 0488 2F40 0008 	move.l %d0,8(%sp)
 299:/home/simulink/cFS_FreeRTOS_seL4/cfe/fsw/cfe-core/src/es/cfe_es_cds_mempool.c ****     if (BinIndex < 0)
 531               	.loc 1 299 0
 532 048c 4AAF 0008 	tst.l 8(%sp)
 533 0490 6C36      	jge .L23
 300:/home/simulink/cFS_FreeRTOS_seL4/cfe/fsw/cfe-core/src/es/cfe_es_cds_mempool.c ****     {
 301:/home/simulink/cFS_FreeRTOS_seL4/cfe/fsw/cfe-core/src/es/cfe_es_cds_mempool.c ****         CFE_ES_WriteToSysLog("CFE_ES:GetCDSBlock-err:size(%d) > max(%d).\n", (int)BlockSize, CFE_ES
 534               	.loc 1 301 0
 535 0492 202F 0014 	move.l 20(%sp),%d0
 536 0496 2F3C 0001 	move.l #80000,-(%sp)
 536      3880 
 537               	.cfi_def_cfa_offset 20
 538 049c 2F00      	move.l %d0,-(%sp)
 539               	.cfi_def_cfa_offset 24
 540 049e 4879 0000 	pea .LC5
 540      0000 
 541               	.cfi_def_cfa_offset 28
 542 04a4 4EB9 0000 	jsr CFE_ES_WriteToSysLog
 542      0000 
 543 04aa 4FEF 000C 	lea (12,%sp),%sp
 544               	.cfi_def_cfa_offset 16
 302:/home/simulink/cFS_FreeRTOS_seL4/cfe/fsw/cfe-core/src/es/cfe_es_cds_mempool.c ****         OS_MutSemGive(CFE_ES_CDSMemPool.MutexId);
 545               	.loc 1 302 0
 546 04ae 2039 0000 	move.l CFE_ES_CDSMemPool+24,%d0
 546      0000 
 547 04b4 2F00      	move.l %d0,-(%sp)
 548               	.cfi_def_cfa_offset 20
 549 04b6 4EB9 0000 	jsr OS_MutSemGive
 549      0000 
 550 04bc 588F      	addq.l #4,%sp
 551               	.cfi_def_cfa_offset 16
 303:/home/simulink/cFS_FreeRTOS_seL4/cfe/fsw/cfe-core/src/es/cfe_es_cds_mempool.c ****         return(CFE_ES_ERR_MEM_BLOCK_SIZE);
 552               	.loc 1 303 0
 553 04be 203C C400 	move.l #-1006632952,%d0
 553      0008 
 554 04c4 6000 026A 	jra .L24
 555               	.L23:
 304:/home/simulink/cFS_FreeRTOS_seL4/cfe/fsw/cfe-core/src/es/cfe_es_cds_mempool.c ****     }
 305:/home/simulink/cFS_FreeRTOS_seL4/cfe/fsw/cfe-core/src/es/cfe_es_cds_mempool.c **** 
 306:/home/simulink/cFS_FreeRTOS_seL4/cfe/fsw/cfe-core/src/es/cfe_es_cds_mempool.c ****    /*
 307:/home/simulink/cFS_FreeRTOS_seL4/cfe/fsw/cfe-core/src/es/cfe_es_cds_mempool.c ****    ** Check if any of the requested size are available
 308:/home/simulink/cFS_FreeRTOS_seL4/cfe/fsw/cfe-core/src/es/cfe_es_cds_mempool.c ****    */
 309:/home/simulink/cFS_FreeRTOS_seL4/cfe/fsw/cfe-core/src/es/cfe_es_cds_mempool.c ****    if (CFE_ES_CDSMemPool.SizeDesc[BinIndex].Top != 0)
 556               	.loc 1 309 0
 557 04c8 202F 0008 	move.l 8(%sp),%d0
 558 04cc 720C      	moveq #12,%d1
 559 04ce 4C01 0800 	muls.l %d1,%d0
 560 04d2 41F9 0000 	lea CFE_ES_CDSMemPool+32,%a0
 560      0000 
 561 04d8 2030 0800 	move.l (%a0,%d0.l),%d0
 562 04dc 4A80      	tst.l %d0
 563 04de 6700 00E0 	jeq .L25
 310:/home/simulink/cFS_FreeRTOS_seL4/cfe/fsw/cfe-core/src/es/cfe_es_cds_mempool.c ****    {
 311:/home/simulink/cFS_FreeRTOS_seL4/cfe/fsw/cfe-core/src/es/cfe_es_cds_mempool.c ****          /*
68K GAS   			page 19


 312:/home/simulink/cFS_FreeRTOS_seL4/cfe/fsw/cfe-core/src/es/cfe_es_cds_mempool.c ****          ** Get it off the top on the list
 313:/home/simulink/cFS_FreeRTOS_seL4/cfe/fsw/cfe-core/src/es/cfe_es_cds_mempool.c ****          */
 314:/home/simulink/cFS_FreeRTOS_seL4/cfe/fsw/cfe-core/src/es/cfe_es_cds_mempool.c ****          Status = CFE_PSP_ReadFromCDS(&CFE_ES_CDSBlockDesc, 
 564               	.loc 1 314 0
 565 04e2 202F 0008 	move.l 8(%sp),%d0
 566 04e6 740C      	moveq #12,%d2
 567 04e8 4C02 0800 	muls.l %d2,%d0
 568 04ec 41F9 0000 	lea CFE_ES_CDSMemPool+32,%a0
 568      0000 
 569 04f2 2030 0800 	move.l (%a0,%d0.l),%d0
 570 04f6 4878 0014 	pea 20.w
 571               	.cfi_def_cfa_offset 20
 572 04fa 2F00      	move.l %d0,-(%sp)
 573               	.cfi_def_cfa_offset 24
 574 04fc 4879 0000 	pea CFE_ES_CDSBlockDesc
 574      0000 
 575               	.cfi_def_cfa_offset 28
 576 0502 4EB9 0000 	jsr CFE_PSP_ReadFromCDS
 576      0000 
 577 0508 4FEF 000C 	lea (12,%sp),%sp
 578               	.cfi_def_cfa_offset 16
 579 050c 2F40 0004 	move.l %d0,4(%sp)
 315:/home/simulink/cFS_FreeRTOS_seL4/cfe/fsw/cfe-core/src/es/cfe_es_cds_mempool.c ****                                     CFE_ES_CDSMemPool.SizeDesc[BinIndex].Top, 
 316:/home/simulink/cFS_FreeRTOS_seL4/cfe/fsw/cfe-core/src/es/cfe_es_cds_mempool.c ****                                     sizeof(CFE_ES_CDSBlockDesc_t));
 317:/home/simulink/cFS_FreeRTOS_seL4/cfe/fsw/cfe-core/src/es/cfe_es_cds_mempool.c ****                     
 318:/home/simulink/cFS_FreeRTOS_seL4/cfe/fsw/cfe-core/src/es/cfe_es_cds_mempool.c ****          if (Status != CFE_PSP_SUCCESS)
 580               	.loc 1 318 0
 581 0510 4AAF 0004 	tst.l 4(%sp)
 582 0514 672E      	jeq .L26
 319:/home/simulink/cFS_FreeRTOS_seL4/cfe/fsw/cfe-core/src/es/cfe_es_cds_mempool.c ****          {
 320:/home/simulink/cFS_FreeRTOS_seL4/cfe/fsw/cfe-core/src/es/cfe_es_cds_mempool.c ****             CFE_ES_WriteToSysLog("CFE_ES:GetCDSBlock-Err reading from CDS (Stat=0x%08x)\n", (unsign
 583               	.loc 1 320 0
 584 0516 202F 0004 	move.l 4(%sp),%d0
 585 051a 2F00      	move.l %d0,-(%sp)
 586               	.cfi_def_cfa_offset 20
 587 051c 4879 0000 	pea .LC6
 587      0000 
 588               	.cfi_def_cfa_offset 24
 589 0522 4EB9 0000 	jsr CFE_ES_WriteToSysLog
 589      0000 
 590 0528 508F      	addq.l #8,%sp
 591               	.cfi_def_cfa_offset 16
 321:/home/simulink/cFS_FreeRTOS_seL4/cfe/fsw/cfe-core/src/es/cfe_es_cds_mempool.c ****             OS_MutSemGive(CFE_ES_CDSMemPool.MutexId);
 592               	.loc 1 321 0
 593 052a 2039 0000 	move.l CFE_ES_CDSMemPool+24,%d0
 593      0000 
 594 0530 2F00      	move.l %d0,-(%sp)
 595               	.cfi_def_cfa_offset 20
 596 0532 4EB9 0000 	jsr OS_MutSemGive
 596      0000 
 597 0538 588F      	addq.l #4,%sp
 598               	.cfi_def_cfa_offset 16
 322:/home/simulink/cFS_FreeRTOS_seL4/cfe/fsw/cfe-core/src/es/cfe_es_cds_mempool.c ****             return(CFE_ES_CDS_ACCESS_ERROR);
 599               	.loc 1 322 0
 600 053a 203C C400 	move.l #-1006632941,%d0
 600      0013 
 601 0540 6000 01EE 	jra .L24
68K GAS   			page 20


 602               	.L26:
 323:/home/simulink/cFS_FreeRTOS_seL4/cfe/fsw/cfe-core/src/es/cfe_es_cds_mempool.c ****          }
 324:/home/simulink/cFS_FreeRTOS_seL4/cfe/fsw/cfe-core/src/es/cfe_es_cds_mempool.c ****                  
 325:/home/simulink/cFS_FreeRTOS_seL4/cfe/fsw/cfe-core/src/es/cfe_es_cds_mempool.c ****          /* The handle returned is the byte offset of the block in the CDS */
 326:/home/simulink/cFS_FreeRTOS_seL4/cfe/fsw/cfe-core/src/es/cfe_es_cds_mempool.c ****          *BlockHandle                             = CFE_ES_CDSMemPool.SizeDesc[BinIndex].Top;
 603               	.loc 1 326 0
 604 0544 202F 0008 	move.l 8(%sp),%d0
 605 0548 720C      	moveq #12,%d1
 606 054a 4C01 0800 	muls.l %d1,%d0
 607 054e 41F9 0000 	lea CFE_ES_CDSMemPool+32,%a0
 607      0000 
 608 0554 2030 0800 	move.l (%a0,%d0.l),%d0
 609 0558 206F 0010 	move.l 16(%sp),%a0
 610 055c 2080      	move.l %d0,(%a0)
 327:/home/simulink/cFS_FreeRTOS_seL4/cfe/fsw/cfe-core/src/es/cfe_es_cds_mempool.c ****          
 328:/home/simulink/cFS_FreeRTOS_seL4/cfe/fsw/cfe-core/src/es/cfe_es_cds_mempool.c ****          /* A local version of the block descriptor is initialized */
 329:/home/simulink/cFS_FreeRTOS_seL4/cfe/fsw/cfe-core/src/es/cfe_es_cds_mempool.c ****          CFE_ES_CDSBlockDesc.CheckBits            = CFE_ES_CDS_CHECK_PATTERN;
 611               	.loc 1 329 0
 612 055e 343C 5A5A 	move.w #23130,%d2
 613 0562 33C2 0000 	move.w %d2,CFE_ES_CDSBlockDesc
 613      0000 
 330:/home/simulink/cFS_FreeRTOS_seL4/cfe/fsw/cfe-core/src/es/cfe_es_cds_mempool.c ****          CFE_ES_CDSBlockDesc.AllocatedFlag        = CFE_ES_CDS_BLOCK_USED;
 614               	.loc 1 330 0
 615 0568 307C AAAA 	move.w #-21846,%a0
 616 056c 33C8 0000 	move.w %a0,CFE_ES_CDSBlockDesc+2
 616      0000 
 331:/home/simulink/cFS_FreeRTOS_seL4/cfe/fsw/cfe-core/src/es/cfe_es_cds_mempool.c ****          CFE_ES_CDSBlockDesc.SizeUsed             = BlockSize;
 617               	.loc 1 331 0
 618 0572 41EF 0014 	lea (20,%sp),%a0
 619 0576 23D0 0000 	move.l (%a0),CFE_ES_CDSBlockDesc+4
 619      0000 
 332:/home/simulink/cFS_FreeRTOS_seL4/cfe/fsw/cfe-core/src/es/cfe_es_cds_mempool.c ****          CFE_ES_CDSBlockDesc.ActualSize           = CFE_ES_CDSMemPool.SizeDesc[BinIndex].MaxSize;
 620               	.loc 1 332 0
 621 057c 202F 0008 	move.l 8(%sp),%d0
 622 0580 720C      	moveq #12,%d1
 623 0582 4C01 0800 	muls.l %d1,%d0
 624 0586 41F9 0000 	lea CFE_ES_CDSMemPool+40,%a0
 624      0000 
 625 058c 2030 0800 	move.l (%a0,%d0.l),%d0
 626 0590 23C0 0000 	move.l %d0,CFE_ES_CDSBlockDesc+8
 626      0000 
 333:/home/simulink/cFS_FreeRTOS_seL4/cfe/fsw/cfe-core/src/es/cfe_es_cds_mempool.c ****          CFE_ES_CDSMemPool.SizeDesc[BinIndex].Top = CFE_ES_CDSBlockDesc.Next;
 627               	.loc 1 333 0
 628 0596 2239 0000 	move.l CFE_ES_CDSBlockDesc+16,%d1
 628      0000 
 629 059c 202F 0008 	move.l 8(%sp),%d0
 630 05a0 740C      	moveq #12,%d2
 631 05a2 4C02 0800 	muls.l %d2,%d0
 632 05a6 41F9 0000 	lea CFE_ES_CDSMemPool+32,%a0
 632      0000 
 633 05ac 2181 0800 	move.l %d1,(%a0,%d0.l)
 334:/home/simulink/cFS_FreeRTOS_seL4/cfe/fsw/cfe-core/src/es/cfe_es_cds_mempool.c ****          CFE_ES_CDSBlockDesc.CRC                  = 0;
 634               	.loc 1 334 0
 635 05b0 42B9 0000 	clr.l CFE_ES_CDSBlockDesc+12
 635      0000 
 335:/home/simulink/cFS_FreeRTOS_seL4/cfe/fsw/cfe-core/src/es/cfe_es_cds_mempool.c ****          CFE_ES_CDSBlockDesc.Next                 = 0;
 636               	.loc 1 335 0
68K GAS   			page 21


 637 05b6 42B9 0000 	clr.l CFE_ES_CDSBlockDesc+16
 637      0000 
 638 05bc 6000 010C 	jra .L27
 639               	.L25:
 336:/home/simulink/cFS_FreeRTOS_seL4/cfe/fsw/cfe-core/src/es/cfe_es_cds_mempool.c ****     }
 337:/home/simulink/cFS_FreeRTOS_seL4/cfe/fsw/cfe-core/src/es/cfe_es_cds_mempool.c ****     else /* Create a new block */
 338:/home/simulink/cFS_FreeRTOS_seL4/cfe/fsw/cfe-core/src/es/cfe_es_cds_mempool.c ****     {
 339:/home/simulink/cFS_FreeRTOS_seL4/cfe/fsw/cfe-core/src/es/cfe_es_cds_mempool.c ****          if ( (CFE_ES_CDSMemPool.Current == 0) ||
 640               	.loc 1 339 0
 641 05c0 2039 0000 	move.l CFE_ES_CDSMemPool+12,%d0
 641      0000 
 642 05c6 4A80      	tst.l %d0
 643 05c8 672C      	jeq .L28
 340:/home/simulink/cFS_FreeRTOS_seL4/cfe/fsw/cfe-core/src/es/cfe_es_cds_mempool.c ****               (((uint32)CFE_ES_CDSMemPool.Current + 
 644               	.loc 1 340 0 discriminator 1
 645 05ca 2239 0000 	move.l CFE_ES_CDSMemPool+12,%d1
 645      0000 
 341:/home/simulink/cFS_FreeRTOS_seL4/cfe/fsw/cfe-core/src/es/cfe_es_cds_mempool.c ****                 sizeof(CFE_ES_CDSBlockDesc_t) + 
 342:/home/simulink/cFS_FreeRTOS_seL4/cfe/fsw/cfe-core/src/es/cfe_es_cds_mempool.c ****                 CFE_ES_CDSMemPool.SizeDesc[BinIndex].MaxSize ) >= CFE_ES_CDSMemPool.End) )
 646               	.loc 1 342 0 discriminator 1
 647 05d0 202F 0008 	move.l 8(%sp),%d0
 648 05d4 740C      	moveq #12,%d2
 649 05d6 4C02 0800 	muls.l %d2,%d0
 650 05da 41F9 0000 	lea CFE_ES_CDSMemPool+40,%a0
 650      0000 
 651 05e0 2030 0800 	move.l (%a0,%d0.l),%d0
 341:/home/simulink/cFS_FreeRTOS_seL4/cfe/fsw/cfe-core/src/es/cfe_es_cds_mempool.c ****                 sizeof(CFE_ES_CDSBlockDesc_t) + 
 652               	.loc 1 341 0 discriminator 1
 653 05e4 D081      	add.l %d1,%d0
 654 05e6 0680 0000 	add.l #20,%d0
 654      0014 
 655               	.loc 1 342 0 discriminator 1
 656 05ec 2239 0000 	move.l CFE_ES_CDSMemPool+8,%d1
 656      0000 
 339:/home/simulink/cFS_FreeRTOS_seL4/cfe/fsw/cfe-core/src/es/cfe_es_cds_mempool.c ****               (((uint32)CFE_ES_CDSMemPool.Current + 
 657               	.loc 1 339 0 discriminator 1
 658 05f2 B280      	cmp.l %d0,%d1
 659 05f4 622E      	jhi .L29
 660               	.L28:
 343:/home/simulink/cFS_FreeRTOS_seL4/cfe/fsw/cfe-core/src/es/cfe_es_cds_mempool.c ****          {
 344:/home/simulink/cFS_FreeRTOS_seL4/cfe/fsw/cfe-core/src/es/cfe_es_cds_mempool.c ****             CFE_ES_WriteToSysLog("CFE_ES:GetCDSBlock-err:Request for %d bytes won't fit in remainin
 661               	.loc 1 344 0
 662 05f6 202F 0014 	move.l 20(%sp),%d0
 663 05fa 2F00      	move.l %d0,-(%sp)
 664               	.cfi_def_cfa_offset 20
 665 05fc 4879 0000 	pea .LC7
 665      0000 
 666               	.cfi_def_cfa_offset 24
 667 0602 4EB9 0000 	jsr CFE_ES_WriteToSysLog
 667      0000 
 668 0608 508F      	addq.l #8,%sp
 669               	.cfi_def_cfa_offset 16
 345:/home/simulink/cFS_FreeRTOS_seL4/cfe/fsw/cfe-core/src/es/cfe_es_cds_mempool.c ****             OS_MutSemGive(CFE_ES_CDSMemPool.MutexId);
 670               	.loc 1 345 0
 671 060a 2039 0000 	move.l CFE_ES_CDSMemPool+24,%d0
 671      0000 
 672 0610 2F00      	move.l %d0,-(%sp)
68K GAS   			page 22


 673               	.cfi_def_cfa_offset 20
 674 0612 4EB9 0000 	jsr OS_MutSemGive
 674      0000 
 675 0618 588F      	addq.l #4,%sp
 676               	.cfi_def_cfa_offset 16
 346:/home/simulink/cFS_FreeRTOS_seL4/cfe/fsw/cfe-core/src/es/cfe_es_cds_mempool.c ****             return(CFE_ES_ERR_MEM_BLOCK_SIZE);
 677               	.loc 1 346 0
 678 061a 203C C400 	move.l #-1006632952,%d0
 678      0008 
 679 0620 6000 010E 	jra .L24
 680               	.L29:
 347:/home/simulink/cFS_FreeRTOS_seL4/cfe/fsw/cfe-core/src/es/cfe_es_cds_mempool.c ****          }
 348:/home/simulink/cFS_FreeRTOS_seL4/cfe/fsw/cfe-core/src/es/cfe_es_cds_mempool.c **** 
 349:/home/simulink/cFS_FreeRTOS_seL4/cfe/fsw/cfe-core/src/es/cfe_es_cds_mempool.c ****          *BlockHandle = (CFE_ES_CDSBlockHandle_t)CFE_ES_CDSMemPool.Current;
 681               	.loc 1 349 0
 682 0624 2039 0000 	move.l CFE_ES_CDSMemPool+12,%d0
 682      0000 
 683 062a 206F 0010 	move.l 16(%sp),%a0
 684 062e 2080      	move.l %d0,(%a0)
 350:/home/simulink/cFS_FreeRTOS_seL4/cfe/fsw/cfe-core/src/es/cfe_es_cds_mempool.c **** 
 351:/home/simulink/cFS_FreeRTOS_seL4/cfe/fsw/cfe-core/src/es/cfe_es_cds_mempool.c ****          CFE_ES_CDSMemPool.SizeDesc[BinIndex].NumCreated++;
 685               	.loc 1 351 0
 686 0630 202F 0008 	move.l 8(%sp),%d0
 687 0634 720C      	moveq #12,%d1
 688 0636 4C01 0800 	muls.l %d1,%d0
 689 063a 41F9 0000 	lea CFE_ES_CDSMemPool+36,%a0
 689      0000 
 690 0640 2030 0800 	move.l (%a0,%d0.l),%d0
 691 0644 2200      	move.l %d0,%d1
 692 0646 5281      	addq.l #1,%d1
 693 0648 202F 0008 	move.l 8(%sp),%d0
 694 064c 740C      	moveq #12,%d2
 695 064e 4C02 0800 	muls.l %d2,%d0
 696 0652 41F9 0000 	lea CFE_ES_CDSMemPool+36,%a0
 696      0000 
 697 0658 2181 0800 	move.l %d1,(%a0,%d0.l)
 352:/home/simulink/cFS_FreeRTOS_seL4/cfe/fsw/cfe-core/src/es/cfe_es_cds_mempool.c ****          CFE_ES_CDSMemPool.RequestCntr++;
 698               	.loc 1 352 0
 699 065c 3039 0000 	move.w CFE_ES_CDSMemPool+22,%d0
 699      0000 
 700 0662 5280      	addq.l #1,%d0
 701 0664 3000      	move.w %d0,%d0
 702 0666 33C0 0000 	move.w %d0,CFE_ES_CDSMemPool+22
 702      0000 
 353:/home/simulink/cFS_FreeRTOS_seL4/cfe/fsw/cfe-core/src/es/cfe_es_cds_mempool.c **** 
 354:/home/simulink/cFS_FreeRTOS_seL4/cfe/fsw/cfe-core/src/es/cfe_es_cds_mempool.c ****          /*
 355:/home/simulink/cFS_FreeRTOS_seL4/cfe/fsw/cfe-core/src/es/cfe_es_cds_mempool.c ****          ** Initialize the buffer descriptor that will be kept in front of the CDS Block
 356:/home/simulink/cFS_FreeRTOS_seL4/cfe/fsw/cfe-core/src/es/cfe_es_cds_mempool.c ****          */
 357:/home/simulink/cFS_FreeRTOS_seL4/cfe/fsw/cfe-core/src/es/cfe_es_cds_mempool.c ****          CFE_ES_CDSBlockDesc.CheckBits     = CFE_ES_CDS_CHECK_PATTERN;
 703               	.loc 1 357 0
 704 066c 307C 5A5A 	move.w #23130,%a0
 705 0670 33C8 0000 	move.w %a0,CFE_ES_CDSBlockDesc
 705      0000 
 358:/home/simulink/cFS_FreeRTOS_seL4/cfe/fsw/cfe-core/src/es/cfe_es_cds_mempool.c ****          CFE_ES_CDSBlockDesc.AllocatedFlag = CFE_ES_CDS_BLOCK_USED;
 706               	.loc 1 358 0
 707 0676 303C AAAA 	move.w #-21846,%d0
 708 067a 33C0 0000 	move.w %d0,CFE_ES_CDSBlockDesc+2
68K GAS   			page 23


 708      0000 
 359:/home/simulink/cFS_FreeRTOS_seL4/cfe/fsw/cfe-core/src/es/cfe_es_cds_mempool.c ****          CFE_ES_CDSBlockDesc.SizeUsed      = BlockSize;
 709               	.loc 1 359 0
 710 0680 41EF 0014 	lea (20,%sp),%a0
 711 0684 23D0 0000 	move.l (%a0),CFE_ES_CDSBlockDesc+4
 711      0000 
 360:/home/simulink/cFS_FreeRTOS_seL4/cfe/fsw/cfe-core/src/es/cfe_es_cds_mempool.c ****          CFE_ES_CDSBlockDesc.ActualSize    = CFE_ES_CDSMemPool.SizeDesc[BinIndex].MaxSize;
 712               	.loc 1 360 0
 713 068a 202F 0008 	move.l 8(%sp),%d0
 714 068e 720C      	moveq #12,%d1
 715 0690 4C01 0800 	muls.l %d1,%d0
 716 0694 41F9 0000 	lea CFE_ES_CDSMemPool+40,%a0
 716      0000 
 717 069a 2030 0800 	move.l (%a0,%d0.l),%d0
 718 069e 23C0 0000 	move.l %d0,CFE_ES_CDSBlockDesc+8
 718      0000 
 361:/home/simulink/cFS_FreeRTOS_seL4/cfe/fsw/cfe-core/src/es/cfe_es_cds_mempool.c ****          CFE_ES_CDSBlockDesc.CRC           = 0;
 719               	.loc 1 361 0
 720 06a4 42B9 0000 	clr.l CFE_ES_CDSBlockDesc+12
 720      0000 
 362:/home/simulink/cFS_FreeRTOS_seL4/cfe/fsw/cfe-core/src/es/cfe_es_cds_mempool.c ****          CFE_ES_CDSBlockDesc.Next          = 0;
 721               	.loc 1 362 0
 722 06aa 42B9 0000 	clr.l CFE_ES_CDSBlockDesc+16
 722      0000 
 363:/home/simulink/cFS_FreeRTOS_seL4/cfe/fsw/cfe-core/src/es/cfe_es_cds_mempool.c **** 
 364:/home/simulink/cFS_FreeRTOS_seL4/cfe/fsw/cfe-core/src/es/cfe_es_cds_mempool.c ****          /*
 365:/home/simulink/cFS_FreeRTOS_seL4/cfe/fsw/cfe-core/src/es/cfe_es_cds_mempool.c ****          ** Adjust pool current pointer to first unallocated byte in CDS
 366:/home/simulink/cFS_FreeRTOS_seL4/cfe/fsw/cfe-core/src/es/cfe_es_cds_mempool.c ****          */
 367:/home/simulink/cFS_FreeRTOS_seL4/cfe/fsw/cfe-core/src/es/cfe_es_cds_mempool.c ****          CFE_ES_CDSMemPool.Current = CFE_ES_CDSMemPool.Current 
 723               	.loc 1 367 0
 724 06b0 2239 0000 	move.l CFE_ES_CDSMemPool+12,%d1
 724      0000 
 368:/home/simulink/cFS_FreeRTOS_seL4/cfe/fsw/cfe-core/src/es/cfe_es_cds_mempool.c ****                                      + CFE_ES_CDSBlockDesc.ActualSize
 725               	.loc 1 368 0
 726 06b6 2039 0000 	move.l CFE_ES_CDSBlockDesc+8,%d0
 726      0000 
 727 06bc D081      	add.l %d1,%d0
 369:/home/simulink/cFS_FreeRTOS_seL4/cfe/fsw/cfe-core/src/es/cfe_es_cds_mempool.c ****                                      + sizeof(CFE_ES_CDSBlockDesc_t);
 728               	.loc 1 369 0
 729 06be 0680 0000 	add.l #20,%d0
 729      0014 
 367:/home/simulink/cFS_FreeRTOS_seL4/cfe/fsw/cfe-core/src/es/cfe_es_cds_mempool.c ****                                      + CFE_ES_CDSBlockDesc.ActualSize
 730               	.loc 1 367 0
 731 06c4 23C0 0000 	move.l %d0,CFE_ES_CDSMemPool+12
 731      0000 
 732               	.L27:
 370:/home/simulink/cFS_FreeRTOS_seL4/cfe/fsw/cfe-core/src/es/cfe_es_cds_mempool.c ****      }
 371:/home/simulink/cFS_FreeRTOS_seL4/cfe/fsw/cfe-core/src/es/cfe_es_cds_mempool.c ****      
 372:/home/simulink/cFS_FreeRTOS_seL4/cfe/fsw/cfe-core/src/es/cfe_es_cds_mempool.c ****      /* Store the new CDS Block Descriptor in the CDS */
 373:/home/simulink/cFS_FreeRTOS_seL4/cfe/fsw/cfe-core/src/es/cfe_es_cds_mempool.c ****      Status = CFE_PSP_WriteToCDS(&CFE_ES_CDSBlockDesc, *BlockHandle, sizeof(CFE_ES_CDSBlockDesc_t))
 733               	.loc 1 373 0
 734 06ca 206F 0010 	move.l 16(%sp),%a0
 735 06ce 2010      	move.l (%a0),%d0
 736 06d0 4878 0014 	pea 20.w
 737               	.cfi_def_cfa_offset 20
 738 06d4 2F00      	move.l %d0,-(%sp)
 739               	.cfi_def_cfa_offset 24
68K GAS   			page 24


 740 06d6 4879 0000 	pea CFE_ES_CDSBlockDesc
 740      0000 
 741               	.cfi_def_cfa_offset 28
 742 06dc 4EB9 0000 	jsr CFE_PSP_WriteToCDS
 742      0000 
 743 06e2 4FEF 000C 	lea (12,%sp),%sp
 744               	.cfi_def_cfa_offset 16
 745 06e6 2F40 0004 	move.l %d0,4(%sp)
 374:/home/simulink/cFS_FreeRTOS_seL4/cfe/fsw/cfe-core/src/es/cfe_es_cds_mempool.c **** 
 375:/home/simulink/cFS_FreeRTOS_seL4/cfe/fsw/cfe-core/src/es/cfe_es_cds_mempool.c ****      if (Status != CFE_PSP_SUCCESS)
 746               	.loc 1 375 0
 747 06ea 4AAF 0004 	tst.l 4(%sp)
 748 06ee 672C      	jeq .L30
 376:/home/simulink/cFS_FreeRTOS_seL4/cfe/fsw/cfe-core/src/es/cfe_es_cds_mempool.c ****      {
 377:/home/simulink/cFS_FreeRTOS_seL4/cfe/fsw/cfe-core/src/es/cfe_es_cds_mempool.c ****         CFE_ES_WriteToSysLog("CFE_ES:GetCDSBlock-Err writing to CDS (Stat=0x%08x)\n", (unsigned int
 749               	.loc 1 377 0
 750 06f0 202F 0004 	move.l 4(%sp),%d0
 751 06f4 2F00      	move.l %d0,-(%sp)
 752               	.cfi_def_cfa_offset 20
 753 06f6 4879 0000 	pea .LC8
 753      0000 
 754               	.cfi_def_cfa_offset 24
 755 06fc 4EB9 0000 	jsr CFE_ES_WriteToSysLog
 755      0000 
 756 0702 508F      	addq.l #8,%sp
 757               	.cfi_def_cfa_offset 16
 378:/home/simulink/cFS_FreeRTOS_seL4/cfe/fsw/cfe-core/src/es/cfe_es_cds_mempool.c ****         OS_MutSemGive(CFE_ES_CDSMemPool.MutexId);
 758               	.loc 1 378 0
 759 0704 2039 0000 	move.l CFE_ES_CDSMemPool+24,%d0
 759      0000 
 760 070a 2F00      	move.l %d0,-(%sp)
 761               	.cfi_def_cfa_offset 20
 762 070c 4EB9 0000 	jsr OS_MutSemGive
 762      0000 
 763 0712 588F      	addq.l #4,%sp
 764               	.cfi_def_cfa_offset 16
 379:/home/simulink/cFS_FreeRTOS_seL4/cfe/fsw/cfe-core/src/es/cfe_es_cds_mempool.c ****         return(CFE_ES_CDS_ACCESS_ERROR);
 765               	.loc 1 379 0
 766 0714 203C C400 	move.l #-1006632941,%d0
 766      0013 
 767 071a 6014      	jra .L24
 768               	.L30:
 380:/home/simulink/cFS_FreeRTOS_seL4/cfe/fsw/cfe-core/src/es/cfe_es_cds_mempool.c ****      }
 381:/home/simulink/cFS_FreeRTOS_seL4/cfe/fsw/cfe-core/src/es/cfe_es_cds_mempool.c ****      
 382:/home/simulink/cFS_FreeRTOS_seL4/cfe/fsw/cfe-core/src/es/cfe_es_cds_mempool.c ****      OS_MutSemGive(CFE_ES_CDSMemPool.MutexId);
 769               	.loc 1 382 0
 770 071c 2039 0000 	move.l CFE_ES_CDSMemPool+24,%d0
 770      0000 
 771 0722 2F00      	move.l %d0,-(%sp)
 772               	.cfi_def_cfa_offset 20
 773 0724 4EB9 0000 	jsr OS_MutSemGive
 773      0000 
 774 072a 588F      	addq.l #4,%sp
 775               	.cfi_def_cfa_offset 16
 383:/home/simulink/cFS_FreeRTOS_seL4/cfe/fsw/cfe-core/src/es/cfe_es_cds_mempool.c ****      
 384:/home/simulink/cFS_FreeRTOS_seL4/cfe/fsw/cfe-core/src/es/cfe_es_cds_mempool.c ****      return Status;
 776               	.loc 1 384 0
68K GAS   			page 25


 777 072c 202F 0004 	move.l 4(%sp),%d0
 778               	.L24:
 385:/home/simulink/cFS_FreeRTOS_seL4/cfe/fsw/cfe-core/src/es/cfe_es_cds_mempool.c **** }
 779               	.loc 1 385 0
 780 0730 241F      	move.l (%sp)+,%d2
 781 0732 508F      	addq.l #8,%sp
 782 0734 4E75      	rts
 783               	.cfi_endproc
 784               	.LFE61:
 785               	.sizeCFE_ES_GetCDSBlock, .-CFE_ES_GetCDSBlock
 786               	.section.rodata
 787               	.LC9:
 788 0211 4346 455F 	.string"CFE_ES:PutCDSBlock-Invalid Memory Handle.\n"
 788      4553 3A50 
 788      7574 4344 
 788      5342 6C6F 
 788      636B 2D49 
 789               	.LC10:
 790 023c 4346 455F 	.string"CFE_ES:PutCDSBlock-Err reading from CDS (Stat=0x%08x)\n"
 790      4553 3A50 
 790      7574 4344 
 790      5342 6C6F 
 790      636B 2D45 
 791               	.LC11:
 792 0273 4346 455F 	.string"CFE_ES:PutCDSBlock-Invalid Handle or Block Descriptor.\n"
 792      4553 3A50 
 792      7574 4344 
 792      5342 6C6F 
 792      636B 2D49 
 793               	.LC12:
 794 02ab 4346 455F 	.string"CFE_ES:PutCDSBlock-Invalid Block Descriptor\n"
 794      4553 3A50 
 794      7574 4344 
 794      5342 6C6F 
 794      636B 2D49 
 795               	.LC13:
 796 02d8 4346 455F 	.string"CFE_ES:PutCDSBlock-Err writing to CDS (Stat=0x%08x)\n"
 796      4553 3A50 
 796      7574 4344 
 796      5342 6C6F 
 796      636B 2D45 
 797               	.text
 798               	.align2
 799               	.globlCFE_ES_PutCDSBlock
 800               	.typeCFE_ES_PutCDSBlock, @function
 801               	CFE_ES_PutCDSBlock:
 802               	.LFB62:
 386:/home/simulink/cFS_FreeRTOS_seL4/cfe/fsw/cfe-core/src/es/cfe_es_cds_mempool.c **** 
 387:/home/simulink/cFS_FreeRTOS_seL4/cfe/fsw/cfe-core/src/es/cfe_es_cds_mempool.c **** /*
 388:/home/simulink/cFS_FreeRTOS_seL4/cfe/fsw/cfe-core/src/es/cfe_es_cds_mempool.c **** ** CFE_ES_PutCDSBlock returns a block back to the CDS memory pool.
 389:/home/simulink/cFS_FreeRTOS_seL4/cfe/fsw/cfe-core/src/es/cfe_es_cds_mempool.c **** */
 390:/home/simulink/cFS_FreeRTOS_seL4/cfe/fsw/cfe-core/src/es/cfe_es_cds_mempool.c **** int32 CFE_ES_PutCDSBlock(CFE_ES_CDSBlockHandle_t BlockHandle)
 391:/home/simulink/cFS_FreeRTOS_seL4/cfe/fsw/cfe-core/src/es/cfe_es_cds_mempool.c **** {
 803               	.loc 1 391 0
 804               	.cfi_startproc
 805 0736 518F      	subq.l #8,%sp
 806               	.cfi_def_cfa_offset 12
68K GAS   			page 26


 807 0738 2F02      	move.l %d2,-(%sp)
 808               	.cfi_def_cfa_offset 16
 809               	.cfi_offset 2, -16
 392:/home/simulink/cFS_FreeRTOS_seL4/cfe/fsw/cfe-core/src/es/cfe_es_cds_mempool.c ****     int32 BinIndex;
 393:/home/simulink/cFS_FreeRTOS_seL4/cfe/fsw/cfe-core/src/es/cfe_es_cds_mempool.c ****     int32 Status;
 394:/home/simulink/cFS_FreeRTOS_seL4/cfe/fsw/cfe-core/src/es/cfe_es_cds_mempool.c **** 
 395:/home/simulink/cFS_FreeRTOS_seL4/cfe/fsw/cfe-core/src/es/cfe_es_cds_mempool.c ****     /* Perform some sanity checks on the BlockHandle */
 396:/home/simulink/cFS_FreeRTOS_seL4/cfe/fsw/cfe-core/src/es/cfe_es_cds_mempool.c ****     /* First check, is the handle within an acceptable range of CDS offsets */
 397:/home/simulink/cFS_FreeRTOS_seL4/cfe/fsw/cfe-core/src/es/cfe_es_cds_mempool.c ****     if ((BlockHandle < sizeof(CFE_ES_Global.CDSVars.ValidityField)) || 
 810               	.loc 1 397 0
 811 073a 7007      	moveq #7,%d0
 812 073c B0AF 0010 	cmp.l 16(%sp),%d0
 813 0740 641E      	jcc .L32
 398:/home/simulink/cFS_FreeRTOS_seL4/cfe/fsw/cfe-core/src/es/cfe_es_cds_mempool.c ****         (BlockHandle > (CFE_ES_CDSMemPool.End - sizeof(CFE_ES_CDSBlockDesc_t) - 
 814               	.loc 1 398 0 discriminator 1
 815 0742 2239 0000 	move.l CFE_ES_CDSMemPool+8,%d1
 815      0000 
 399:/home/simulink/cFS_FreeRTOS_seL4/cfe/fsw/cfe-core/src/es/cfe_es_cds_mempool.c ****                         CFE_ES_CDSMemPool.MinBlockSize - sizeof(CFE_ES_Global.CDSVars.ValidityField
 816               	.loc 1 399 0 discriminator 1
 817 0748 2039 0000 	move.l CFE_ES_CDSMemPool+28,%d0
 817      0000 
 398:/home/simulink/cFS_FreeRTOS_seL4/cfe/fsw/cfe-core/src/es/cfe_es_cds_mempool.c ****         (BlockHandle > (CFE_ES_CDSMemPool.End - sizeof(CFE_ES_CDSBlockDesc_t) - 
 818               	.loc 1 398 0 discriminator 1
 819 074e 2401      	move.l %d1,%d2
 820 0750 9480      	sub.l %d0,%d2
 821 0752 2002      	move.l %d2,%d0
 822               	.loc 1 399 0 discriminator 1
 823 0754 0680 FFFF 	add.l #-28,%d0
 823      FFE4 
 397:/home/simulink/cFS_FreeRTOS_seL4/cfe/fsw/cfe-core/src/es/cfe_es_cds_mempool.c ****         (BlockHandle > (CFE_ES_CDSMemPool.End - sizeof(CFE_ES_CDSBlockDesc_t) - 
 824               	.loc 1 397 0 discriminator 1
 825 075a B0AF 0010 	cmp.l 16(%sp),%d0
 826 075e 6418      	jcc .L33
 827               	.L32:
 400:/home/simulink/cFS_FreeRTOS_seL4/cfe/fsw/cfe-core/src/es/cfe_es_cds_mempool.c ****     {
 401:/home/simulink/cFS_FreeRTOS_seL4/cfe/fsw/cfe-core/src/es/cfe_es_cds_mempool.c ****         CFE_ES_WriteToSysLog("CFE_ES:PutCDSBlock-Invalid Memory Handle.\n");
 828               	.loc 1 401 0
 829 0760 4879 0000 	pea .LC9
 829      0000 
 830               	.cfi_def_cfa_offset 20
 831 0766 4EB9 0000 	jsr CFE_ES_WriteToSysLog
 831      0000 
 832 076c 588F      	addq.l #4,%sp
 833               	.cfi_def_cfa_offset 16
 402:/home/simulink/cFS_FreeRTOS_seL4/cfe/fsw/cfe-core/src/es/cfe_es_cds_mempool.c ****         return(CFE_ES_ERR_MEM_HANDLE);
 834               	.loc 1 402 0
 835 076e 203C C400 	move.l #-1006632953,%d0
 835      0007 
 836 0774 6000 01A6 	jra .L34
 837               	.L33:
 403:/home/simulink/cFS_FreeRTOS_seL4/cfe/fsw/cfe-core/src/es/cfe_es_cds_mempool.c ****     }
 404:/home/simulink/cFS_FreeRTOS_seL4/cfe/fsw/cfe-core/src/es/cfe_es_cds_mempool.c **** 
 405:/home/simulink/cFS_FreeRTOS_seL4/cfe/fsw/cfe-core/src/es/cfe_es_cds_mempool.c ****     OS_MutSemTake(CFE_ES_CDSMemPool.MutexId);
 838               	.loc 1 405 0
 839 0778 2039 0000 	move.l CFE_ES_CDSMemPool+24,%d0
 839      0000 
 840 077e 2F00      	move.l %d0,-(%sp)
68K GAS   			page 27


 841               	.cfi_def_cfa_offset 20
 842 0780 4EB9 0000 	jsr OS_MutSemTake
 842      0000 
 843 0786 588F      	addq.l #4,%sp
 844               	.cfi_def_cfa_offset 16
 406:/home/simulink/cFS_FreeRTOS_seL4/cfe/fsw/cfe-core/src/es/cfe_es_cds_mempool.c **** 
 407:/home/simulink/cFS_FreeRTOS_seL4/cfe/fsw/cfe-core/src/es/cfe_es_cds_mempool.c ****     /* Read a copy of the contents of the block descriptor being freed */
 408:/home/simulink/cFS_FreeRTOS_seL4/cfe/fsw/cfe-core/src/es/cfe_es_cds_mempool.c ****     Status = CFE_PSP_ReadFromCDS(&CFE_ES_CDSBlockDesc, BlockHandle, sizeof(CFE_ES_CDSBlockDesc_t));
 845               	.loc 1 408 0
 846 0788 4878 0014 	pea 20.w
 847               	.cfi_def_cfa_offset 20
 848 078c 2F2F 0014 	move.l 20(%sp),-(%sp)
 849               	.cfi_def_cfa_offset 24
 850 0790 4879 0000 	pea CFE_ES_CDSBlockDesc
 850      0000 
 851               	.cfi_def_cfa_offset 28
 852 0796 4EB9 0000 	jsr CFE_PSP_ReadFromCDS
 852      0000 
 853 079c 4FEF 000C 	lea (12,%sp),%sp
 854               	.cfi_def_cfa_offset 16
 855 07a0 2F40 0008 	move.l %d0,8(%sp)
 409:/home/simulink/cFS_FreeRTOS_seL4/cfe/fsw/cfe-core/src/es/cfe_es_cds_mempool.c **** 
 410:/home/simulink/cFS_FreeRTOS_seL4/cfe/fsw/cfe-core/src/es/cfe_es_cds_mempool.c ****     if (Status != CFE_PSP_SUCCESS)
 856               	.loc 1 410 0
 857 07a4 4AAF 0008 	tst.l 8(%sp)
 858 07a8 672E      	jeq .L35
 411:/home/simulink/cFS_FreeRTOS_seL4/cfe/fsw/cfe-core/src/es/cfe_es_cds_mempool.c ****     {
 412:/home/simulink/cFS_FreeRTOS_seL4/cfe/fsw/cfe-core/src/es/cfe_es_cds_mempool.c ****         CFE_ES_WriteToSysLog("CFE_ES:PutCDSBlock-Err reading from CDS (Stat=0x%08x)\n", (unsigned i
 859               	.loc 1 412 0
 860 07aa 202F 0008 	move.l 8(%sp),%d0
 861 07ae 2F00      	move.l %d0,-(%sp)
 862               	.cfi_def_cfa_offset 20
 863 07b0 4879 0000 	pea .LC10
 863      0000 
 864               	.cfi_def_cfa_offset 24
 865 07b6 4EB9 0000 	jsr CFE_ES_WriteToSysLog
 865      0000 
 866 07bc 508F      	addq.l #8,%sp
 867               	.cfi_def_cfa_offset 16
 413:/home/simulink/cFS_FreeRTOS_seL4/cfe/fsw/cfe-core/src/es/cfe_es_cds_mempool.c ****         OS_MutSemGive(CFE_ES_CDSMemPool.MutexId);
 868               	.loc 1 413 0
 869 07be 2039 0000 	move.l CFE_ES_CDSMemPool+24,%d0
 869      0000 
 870 07c4 2F00      	move.l %d0,-(%sp)
 871               	.cfi_def_cfa_offset 20
 872 07c6 4EB9 0000 	jsr OS_MutSemGive
 872      0000 
 873 07cc 588F      	addq.l #4,%sp
 874               	.cfi_def_cfa_offset 16
 414:/home/simulink/cFS_FreeRTOS_seL4/cfe/fsw/cfe-core/src/es/cfe_es_cds_mempool.c ****         return(CFE_ES_CDS_ACCESS_ERROR);
 875               	.loc 1 414 0
 876 07ce 203C C400 	move.l #-1006632941,%d0
 876      0013 
 877 07d4 6000 0146 	jra .L34
 878               	.L35:
 415:/home/simulink/cFS_FreeRTOS_seL4/cfe/fsw/cfe-core/src/es/cfe_es_cds_mempool.c ****     }
 416:/home/simulink/cFS_FreeRTOS_seL4/cfe/fsw/cfe-core/src/es/cfe_es_cds_mempool.c ****      
68K GAS   			page 28


 417:/home/simulink/cFS_FreeRTOS_seL4/cfe/fsw/cfe-core/src/es/cfe_es_cds_mempool.c ****     /* Make sure the contents of the Block Descriptor look reasonable */
 418:/home/simulink/cFS_FreeRTOS_seL4/cfe/fsw/cfe-core/src/es/cfe_es_cds_mempool.c ****     if ((CFE_ES_CDSBlockDesc.CheckBits != CFE_ES_CDS_CHECK_PATTERN) ||
 879               	.loc 1 418 0
 880 07d8 3039 0000 	move.w CFE_ES_CDSBlockDesc,%d0
 880      0000 
 881 07de 3000      	move.w %d0,%d0
 882 07e0 0280 0000 	and.l #65535,%d0
 882      FFFF 
 883 07e6 0C80 0000 	cmp.l #23130,%d0
 883      5A5A 
 884 07ec 6616      	jne .L36
 419:/home/simulink/cFS_FreeRTOS_seL4/cfe/fsw/cfe-core/src/es/cfe_es_cds_mempool.c ****         (CFE_ES_CDSBlockDesc.AllocatedFlag != CFE_ES_CDS_BLOCK_USED))
 885               	.loc 1 419 0 discriminator 1
 886 07ee 3039 0000 	move.w CFE_ES_CDSBlockDesc+2,%d0
 886      0000 
 418:/home/simulink/cFS_FreeRTOS_seL4/cfe/fsw/cfe-core/src/es/cfe_es_cds_mempool.c ****         (CFE_ES_CDSBlockDesc.AllocatedFlag != CFE_ES_CDS_BLOCK_USED))
 887               	.loc 1 418 0 discriminator 1
 888 07f4 3000      	move.w %d0,%d0
 889 07f6 0280 0000 	and.l #65535,%d0
 889      FFFF 
 890 07fc 0C80 0000 	cmp.l #43690,%d0
 890      AAAA 
 891 0802 6728      	jeq .L37
 892               	.L36:
 420:/home/simulink/cFS_FreeRTOS_seL4/cfe/fsw/cfe-core/src/es/cfe_es_cds_mempool.c ****     {
 421:/home/simulink/cFS_FreeRTOS_seL4/cfe/fsw/cfe-core/src/es/cfe_es_cds_mempool.c ****         CFE_ES_WriteToSysLog("CFE_ES:PutCDSBlock-Invalid Handle or Block Descriptor.\n");
 893               	.loc 1 421 0
 894 0804 4879 0000 	pea .LC11
 894      0000 
 895               	.cfi_def_cfa_offset 20
 896 080a 4EB9 0000 	jsr CFE_ES_WriteToSysLog
 896      0000 
 897 0810 588F      	addq.l #4,%sp
 898               	.cfi_def_cfa_offset 16
 422:/home/simulink/cFS_FreeRTOS_seL4/cfe/fsw/cfe-core/src/es/cfe_es_cds_mempool.c ****         OS_MutSemGive(CFE_ES_CDSMemPool.MutexId);
 899               	.loc 1 422 0
 900 0812 2039 0000 	move.l CFE_ES_CDSMemPool+24,%d0
 900      0000 
 901 0818 2F00      	move.l %d0,-(%sp)
 902               	.cfi_def_cfa_offset 20
 903 081a 4EB9 0000 	jsr OS_MutSemGive
 903      0000 
 904 0820 588F      	addq.l #4,%sp
 905               	.cfi_def_cfa_offset 16
 423:/home/simulink/cFS_FreeRTOS_seL4/cfe/fsw/cfe-core/src/es/cfe_es_cds_mempool.c ****         return(CFE_ES_ERR_MEM_HANDLE);
 906               	.loc 1 423 0
 907 0822 203C C400 	move.l #-1006632953,%d0
 907      0007 
 908 0828 6000 00F2 	jra .L34
 909               	.L37:
 424:/home/simulink/cFS_FreeRTOS_seL4/cfe/fsw/cfe-core/src/es/cfe_es_cds_mempool.c ****     }
 425:/home/simulink/cFS_FreeRTOS_seL4/cfe/fsw/cfe-core/src/es/cfe_es_cds_mempool.c **** 
 426:/home/simulink/cFS_FreeRTOS_seL4/cfe/fsw/cfe-core/src/es/cfe_es_cds_mempool.c ****     BinIndex = CFE_ES_CDSGetBinIndex(CFE_ES_CDSBlockDesc.ActualSize);
 910               	.loc 1 426 0
 911 082c 2039 0000 	move.l CFE_ES_CDSBlockDesc+8,%d0
 911      0000 
 912 0832 2F00      	move.l %d0,-(%sp)
68K GAS   			page 29


 913               	.cfi_def_cfa_offset 20
 914 0834 4EB9 0000 	jsr CFE_ES_CDSGetBinIndex
 914      0000 
 915 083a 588F      	addq.l #4,%sp
 916               	.cfi_def_cfa_offset 16
 917 083c 2F40 0004 	move.l %d0,4(%sp)
 427:/home/simulink/cFS_FreeRTOS_seL4/cfe/fsw/cfe-core/src/es/cfe_es_cds_mempool.c **** 
 428:/home/simulink/cFS_FreeRTOS_seL4/cfe/fsw/cfe-core/src/es/cfe_es_cds_mempool.c ****     /* Final sanity check on block descriptor, is the Actual size reasonable */
 429:/home/simulink/cFS_FreeRTOS_seL4/cfe/fsw/cfe-core/src/es/cfe_es_cds_mempool.c ****     if (BinIndex < 0)
 918               	.loc 1 429 0
 919 0840 4AAF 0004 	tst.l 4(%sp)
 920 0844 6C38      	jge .L38
 430:/home/simulink/cFS_FreeRTOS_seL4/cfe/fsw/cfe-core/src/es/cfe_es_cds_mempool.c ****     {
 431:/home/simulink/cFS_FreeRTOS_seL4/cfe/fsw/cfe-core/src/es/cfe_es_cds_mempool.c ****         CFE_ES_CDSMemPool.CheckErrCntr++;
 921               	.loc 1 431 0
 922 0846 3039 0000 	move.w CFE_ES_CDSMemPool+20,%d0
 922      0000 
 923 084c 5280      	addq.l #1,%d0
 924 084e 3000      	move.w %d0,%d0
 925 0850 33C0 0000 	move.w %d0,CFE_ES_CDSMemPool+20
 925      0000 
 432:/home/simulink/cFS_FreeRTOS_seL4/cfe/fsw/cfe-core/src/es/cfe_es_cds_mempool.c ****         CFE_ES_WriteToSysLog("CFE_ES:PutCDSBlock-Invalid Block Descriptor\n");
 926               	.loc 1 432 0
 927 0856 4879 0000 	pea .LC12
 927      0000 
 928               	.cfi_def_cfa_offset 20
 929 085c 4EB9 0000 	jsr CFE_ES_WriteToSysLog
 929      0000 
 930 0862 588F      	addq.l #4,%sp
 931               	.cfi_def_cfa_offset 16
 433:/home/simulink/cFS_FreeRTOS_seL4/cfe/fsw/cfe-core/src/es/cfe_es_cds_mempool.c ****         OS_MutSemGive(CFE_ES_CDSMemPool.MutexId);
 932               	.loc 1 433 0
 933 0864 2039 0000 	move.l CFE_ES_CDSMemPool+24,%d0
 933      0000 
 934 086a 2F00      	move.l %d0,-(%sp)
 935               	.cfi_def_cfa_offset 20
 936 086c 4EB9 0000 	jsr OS_MutSemGive
 936      0000 
 937 0872 588F      	addq.l #4,%sp
 938               	.cfi_def_cfa_offset 16
 434:/home/simulink/cFS_FreeRTOS_seL4/cfe/fsw/cfe-core/src/es/cfe_es_cds_mempool.c ****         return(CFE_ES_ERR_MEM_HANDLE);
 939               	.loc 1 434 0
 940 0874 203C C400 	move.l #-1006632953,%d0
 940      0007 
 941 087a 6000 00A0 	jra .L34
 942               	.L38:
 435:/home/simulink/cFS_FreeRTOS_seL4/cfe/fsw/cfe-core/src/es/cfe_es_cds_mempool.c ****     }
 436:/home/simulink/cFS_FreeRTOS_seL4/cfe/fsw/cfe-core/src/es/cfe_es_cds_mempool.c **** 
 437:/home/simulink/cFS_FreeRTOS_seL4/cfe/fsw/cfe-core/src/es/cfe_es_cds_mempool.c ****     CFE_ES_CDSBlockDesc.Next = CFE_ES_CDSMemPool.SizeDesc[BinIndex].Top;
 943               	.loc 1 437 0
 944 087e 202F 0004 	move.l 4(%sp),%d0
 945 0882 720C      	moveq #12,%d1
 946 0884 4C01 0800 	muls.l %d1,%d0
 947 0888 41F9 0000 	lea CFE_ES_CDSMemPool+32,%a0
 947      0000 
 948 088e 2030 0800 	move.l (%a0,%d0.l),%d0
 949 0892 23C0 0000 	move.l %d0,CFE_ES_CDSBlockDesc+16
68K GAS   			page 30


 949      0000 
 438:/home/simulink/cFS_FreeRTOS_seL4/cfe/fsw/cfe-core/src/es/cfe_es_cds_mempool.c ****     CFE_ES_CDSBlockDesc.AllocatedFlag = CFE_ES_CDS_BLOCK_UNUSED;
 950               	.loc 1 438 0
 951 0898 343C DDDD 	move.w #-8739,%d2
 952 089c 33C2 0000 	move.w %d2,CFE_ES_CDSBlockDesc+2
 952      0000 
 439:/home/simulink/cFS_FreeRTOS_seL4/cfe/fsw/cfe-core/src/es/cfe_es_cds_mempool.c ****     CFE_ES_CDSMemPool.SizeDesc[BinIndex].Top = BlockHandle;
 953               	.loc 1 439 0
 954 08a2 202F 0004 	move.l 4(%sp),%d0
 955 08a6 720C      	moveq #12,%d1
 956 08a8 4C01 0800 	muls.l %d1,%d0
 957 08ac 41F9 0000 	lea CFE_ES_CDSMemPool+32,%a0
 957      0000 
 958 08b2 43EF 0010 	lea (16,%sp),%a1
 959 08b6 2191 0800 	move.l (%a1),(%a0,%d0.l)
 440:/home/simulink/cFS_FreeRTOS_seL4/cfe/fsw/cfe-core/src/es/cfe_es_cds_mempool.c **** 
 441:/home/simulink/cFS_FreeRTOS_seL4/cfe/fsw/cfe-core/src/es/cfe_es_cds_mempool.c ****     /* Store the new CDS Block Descriptor in the CDS */
 442:/home/simulink/cFS_FreeRTOS_seL4/cfe/fsw/cfe-core/src/es/cfe_es_cds_mempool.c ****     Status = CFE_PSP_WriteToCDS(&CFE_ES_CDSBlockDesc, BlockHandle, sizeof(CFE_ES_CDSBlockDesc_t));
 960               	.loc 1 442 0
 961 08ba 4878 0014 	pea 20.w
 962               	.cfi_def_cfa_offset 20
 963 08be 2F2F 0014 	move.l 20(%sp),-(%sp)
 964               	.cfi_def_cfa_offset 24
 965 08c2 4879 0000 	pea CFE_ES_CDSBlockDesc
 965      0000 
 966               	.cfi_def_cfa_offset 28
 967 08c8 4EB9 0000 	jsr CFE_PSP_WriteToCDS
 967      0000 
 968 08ce 4FEF 000C 	lea (12,%sp),%sp
 969               	.cfi_def_cfa_offset 16
 970 08d2 2F40 0008 	move.l %d0,8(%sp)
 443:/home/simulink/cFS_FreeRTOS_seL4/cfe/fsw/cfe-core/src/es/cfe_es_cds_mempool.c **** 
 444:/home/simulink/cFS_FreeRTOS_seL4/cfe/fsw/cfe-core/src/es/cfe_es_cds_mempool.c ****     if (Status != CFE_PSP_SUCCESS)
 971               	.loc 1 444 0
 972 08d6 4AAF 0008 	tst.l 8(%sp)
 973 08da 672C      	jeq .L39
 445:/home/simulink/cFS_FreeRTOS_seL4/cfe/fsw/cfe-core/src/es/cfe_es_cds_mempool.c ****     {
 446:/home/simulink/cFS_FreeRTOS_seL4/cfe/fsw/cfe-core/src/es/cfe_es_cds_mempool.c ****         CFE_ES_WriteToSysLog("CFE_ES:PutCDSBlock-Err writing to CDS (Stat=0x%08x)\n", (unsigned int
 974               	.loc 1 446 0
 975 08dc 202F 0008 	move.l 8(%sp),%d0
 976 08e0 2F00      	move.l %d0,-(%sp)
 977               	.cfi_def_cfa_offset 20
 978 08e2 4879 0000 	pea .LC13
 978      0000 
 979               	.cfi_def_cfa_offset 24
 980 08e8 4EB9 0000 	jsr CFE_ES_WriteToSysLog
 980      0000 
 981 08ee 508F      	addq.l #8,%sp
 982               	.cfi_def_cfa_offset 16
 447:/home/simulink/cFS_FreeRTOS_seL4/cfe/fsw/cfe-core/src/es/cfe_es_cds_mempool.c ****         OS_MutSemGive(CFE_ES_CDSMemPool.MutexId);
 983               	.loc 1 447 0
 984 08f0 2039 0000 	move.l CFE_ES_CDSMemPool+24,%d0
 984      0000 
 985 08f6 2F00      	move.l %d0,-(%sp)
 986               	.cfi_def_cfa_offset 20
 987 08f8 4EB9 0000 	jsr OS_MutSemGive
 987      0000 
68K GAS   			page 31


 988 08fe 588F      	addq.l #4,%sp
 989               	.cfi_def_cfa_offset 16
 448:/home/simulink/cFS_FreeRTOS_seL4/cfe/fsw/cfe-core/src/es/cfe_es_cds_mempool.c ****         return(CFE_ES_CDS_ACCESS_ERROR);
 990               	.loc 1 448 0
 991 0900 203C C400 	move.l #-1006632941,%d0
 991      0013 
 992 0906 6014      	jra .L34
 993               	.L39:
 449:/home/simulink/cFS_FreeRTOS_seL4/cfe/fsw/cfe-core/src/es/cfe_es_cds_mempool.c ****     }
 450:/home/simulink/cFS_FreeRTOS_seL4/cfe/fsw/cfe-core/src/es/cfe_es_cds_mempool.c ****      
 451:/home/simulink/cFS_FreeRTOS_seL4/cfe/fsw/cfe-core/src/es/cfe_es_cds_mempool.c ****     OS_MutSemGive(CFE_ES_CDSMemPool.MutexId);
 994               	.loc 1 451 0
 995 0908 2039 0000 	move.l CFE_ES_CDSMemPool+24,%d0
 995      0000 
 996 090e 2F00      	move.l %d0,-(%sp)
 997               	.cfi_def_cfa_offset 20
 998 0910 4EB9 0000 	jsr OS_MutSemGive
 998      0000 
 999 0916 588F      	addq.l #4,%sp
 1000               	.cfi_def_cfa_offset 16
 452:/home/simulink/cFS_FreeRTOS_seL4/cfe/fsw/cfe-core/src/es/cfe_es_cds_mempool.c **** 
 453:/home/simulink/cFS_FreeRTOS_seL4/cfe/fsw/cfe-core/src/es/cfe_es_cds_mempool.c ****     return Status;
 1001               	.loc 1 453 0
 1002 0918 202F 0008 	move.l 8(%sp),%d0
 1003               	.L34:
 454:/home/simulink/cFS_FreeRTOS_seL4/cfe/fsw/cfe-core/src/es/cfe_es_cds_mempool.c **** }
 1004               	.loc 1 454 0
 1005 091c 241F      	move.l (%sp)+,%d2
 1006 091e 508F      	addq.l #8,%sp
 1007 0920 4E75      	rts
 1008               	.cfi_endproc
 1009               	.LFE62:
 1010               	.sizeCFE_ES_PutCDSBlock, .-CFE_ES_PutCDSBlock
 1011               	.align2
 1012               	.globlCFE_ES_CDSGetBinIndex
 1013               	.typeCFE_ES_CDSGetBinIndex, @function
 1014               	CFE_ES_CDSGetBinIndex:
 1015               	.LFB63:
 455:/home/simulink/cFS_FreeRTOS_seL4/cfe/fsw/cfe-core/src/es/cfe_es_cds_mempool.c **** 
 456:/home/simulink/cFS_FreeRTOS_seL4/cfe/fsw/cfe-core/src/es/cfe_es_cds_mempool.c **** /*
 457:/home/simulink/cFS_FreeRTOS_seL4/cfe/fsw/cfe-core/src/es/cfe_es_cds_mempool.c **** ** Function:
 458:/home/simulink/cFS_FreeRTOS_seL4/cfe/fsw/cfe-core/src/es/cfe_es_cds_mempool.c **** **   CFE_ES_CDSGetBinIndex
 459:/home/simulink/cFS_FreeRTOS_seL4/cfe/fsw/cfe-core/src/es/cfe_es_cds_mempool.c **** **
 460:/home/simulink/cFS_FreeRTOS_seL4/cfe/fsw/cfe-core/src/es/cfe_es_cds_mempool.c **** ** Purpose:
 461:/home/simulink/cFS_FreeRTOS_seL4/cfe/fsw/cfe-core/src/es/cfe_es_cds_mempool.c **** **
 462:/home/simulink/cFS_FreeRTOS_seL4/cfe/fsw/cfe-core/src/es/cfe_es_cds_mempool.c **** */
 463:/home/simulink/cFS_FreeRTOS_seL4/cfe/fsw/cfe-core/src/es/cfe_es_cds_mempool.c **** int32 CFE_ES_CDSGetBinIndex(uint32 DesiredSize)
 464:/home/simulink/cFS_FreeRTOS_seL4/cfe/fsw/cfe-core/src/es/cfe_es_cds_mempool.c **** {
 1016               	.loc 1 464 0
 1017               	.cfi_startproc
 1018 0922 598F      	subq.l #4,%sp
 1019               	.cfi_def_cfa_offset 8
 465:/home/simulink/cFS_FreeRTOS_seL4/cfe/fsw/cfe-core/src/es/cfe_es_cds_mempool.c ****     int32 i=0;
 1020               	.loc 1 465 0
 1021 0924 4297      	clr.l (%sp)
 466:/home/simulink/cFS_FreeRTOS_seL4/cfe/fsw/cfe-core/src/es/cfe_es_cds_mempool.c ****     
 467:/home/simulink/cFS_FreeRTOS_seL4/cfe/fsw/cfe-core/src/es/cfe_es_cds_mempool.c ****     if (DesiredSize > CFE_ES_CDSMemPool.SizeDesc[0].MaxSize)
68K GAS   			page 32


 1022               	.loc 1 467 0
 1023 0926 2039 0000 	move.l CFE_ES_CDSMemPool+40,%d0
 1023      0000 
 1024 092c B0AF 0008 	cmp.l 8(%sp),%d0
 1025 0930 6406      	jcc .L43
 468:/home/simulink/cFS_FreeRTOS_seL4/cfe/fsw/cfe-core/src/es/cfe_es_cds_mempool.c ****     {
 469:/home/simulink/cFS_FreeRTOS_seL4/cfe/fsw/cfe-core/src/es/cfe_es_cds_mempool.c ****         return(-1);
 1026               	.loc 1 469 0
 1027 0932 70FF      	moveq #-1,%d0
 1028 0934 6024      	jra .L42
 1029               	.L45:
 470:/home/simulink/cFS_FreeRTOS_seL4/cfe/fsw/cfe-core/src/es/cfe_es_cds_mempool.c ****     }
 471:/home/simulink/cFS_FreeRTOS_seL4/cfe/fsw/cfe-core/src/es/cfe_es_cds_mempool.c ****     
 472:/home/simulink/cFS_FreeRTOS_seL4/cfe/fsw/cfe-core/src/es/cfe_es_cds_mempool.c ****     /* Look ahead to see if the next bin has a size too small */
 473:/home/simulink/cFS_FreeRTOS_seL4/cfe/fsw/cfe-core/src/es/cfe_es_cds_mempool.c ****     while ((i < (CFE_ES_CDS_NUM_BLOCK_SIZES-1)) &&
 474:/home/simulink/cFS_FreeRTOS_seL4/cfe/fsw/cfe-core/src/es/cfe_es_cds_mempool.c ****            (DesiredSize <= CFE_ES_CDSMemPool.SizeDesc[i+1].MaxSize))
 475:/home/simulink/cFS_FreeRTOS_seL4/cfe/fsw/cfe-core/src/es/cfe_es_cds_mempool.c ****     {
 476:/home/simulink/cFS_FreeRTOS_seL4/cfe/fsw/cfe-core/src/es/cfe_es_cds_mempool.c ****         i++;
 1030               	.loc 1 476 0
 1031 0936 5297      	addq.l #1,(%sp)
 1032               	.L43:
 473:/home/simulink/cFS_FreeRTOS_seL4/cfe/fsw/cfe-core/src/es/cfe_es_cds_mempool.c ****            (DesiredSize <= CFE_ES_CDSMemPool.SizeDesc[i+1].MaxSize))
 1033               	.loc 1 473 0
 1034 0938 700F      	moveq #15,%d0
 1035 093a B097      	cmp.l (%sp),%d0
 1036 093c 6D1A      	jlt .L44
 474:/home/simulink/cFS_FreeRTOS_seL4/cfe/fsw/cfe-core/src/es/cfe_es_cds_mempool.c ****     {
 1037               	.loc 1 474 0 discriminator 1
 1038 093e 2017      	move.l (%sp),%d0
 1039 0940 5280      	addq.l #1,%d0
 1040 0942 720C      	moveq #12,%d1
 1041 0944 4C01 0800 	muls.l %d1,%d0
 1042 0948 41F9 0000 	lea CFE_ES_CDSMemPool+40,%a0
 1042      0000 
 1043 094e 2030 0800 	move.l (%a0,%d0.l),%d0
 473:/home/simulink/cFS_FreeRTOS_seL4/cfe/fsw/cfe-core/src/es/cfe_es_cds_mempool.c ****            (DesiredSize <= CFE_ES_CDSMemPool.SizeDesc[i+1].MaxSize))
 1044               	.loc 1 473 0 discriminator 1
 1045 0952 B0AF 0008 	cmp.l 8(%sp),%d0
 1046 0956 64DE      	jcc .L45
 1047               	.L44:
 477:/home/simulink/cFS_FreeRTOS_seL4/cfe/fsw/cfe-core/src/es/cfe_es_cds_mempool.c ****     }
 478:/home/simulink/cFS_FreeRTOS_seL4/cfe/fsw/cfe-core/src/es/cfe_es_cds_mempool.c ****     
 479:/home/simulink/cFS_FreeRTOS_seL4/cfe/fsw/cfe-core/src/es/cfe_es_cds_mempool.c ****     return(i);
 1048               	.loc 1 479 0
 1049 0958 2017      	move.l (%sp),%d0
 1050               	.L42:
 480:/home/simulink/cFS_FreeRTOS_seL4/cfe/fsw/cfe-core/src/es/cfe_es_cds_mempool.c **** }
 1051               	.loc 1 480 0
 1052 095a 588F      	addq.l #4,%sp
 1053 095c 4E75      	rts
 1054               	.cfi_endproc
 1055               	.LFE63:
 1056               	.sizeCFE_ES_CDSGetBinIndex, .-CFE_ES_CDSGetBinIndex
 1057               	.section.rodata
 1058               	.LC14:
 1059 030d 4346 455F 	.string"CFE_ES:CDSBlkWrite-Invalid Memory Handle.\n"
 1059      4553 3A43 
68K GAS   			page 33


 1059      4453 426C 
 1059      6B57 7269 
 1059      7465 2D49 
 1060               	.LC15:
 1061 0338 4346 455F 	.string"CFE_ES:CDSBlkWrite-Invalid Handle or Block Descriptor.\n"
 1061      4553 3A43 
 1061      4453 426C 
 1061      6B57 7269 
 1061      7465 2D49 
 1062               	.LC16:
 1063 0370 4346 455F 	.string"CFE_ES:CDSBlkWrite-Invalid Block Descriptor\n"
 1063      4553 3A43 
 1063      4453 426C 
 1063      6B57 7269 
 1063      7465 2D49 
 1064               	.LC17:
 1065 039d 4346 455F 	.string"CFE_ES:CDSBlkWrite-Err writing data to CDS (Stat=0x%08x) @Offset=0x%08x\n"
 1065      4553 3A43 
 1065      4453 426C 
 1065      6B57 7269 
 1065      7465 2D45 
 1066               	.LC18:
 1067 03e6 4346 455F 	.string"CFE_ES:CDSBlkWrite-Err writing BlockDesc to CDS (Stat=0x%08x) @Offset=0x%08x\n"
 1067      4553 3A43 
 1067      4453 426C 
 1067      6B57 7269 
 1067      7465 2D45 
 1068               	.LC19:
 1069 0434 4346 455F 	.string"CFE_ES:CDSBlkWrite-Err reading from CDS (Stat=0x%08x)\n"
 1069      4553 3A43 
 1069      4453 426C 
 1069      6B57 7269 
 1069      7465 2D45 
 1070               	.text
 1071               	.align2
 1072               	.globlCFE_ES_CDSBlockWrite
 1073               	.typeCFE_ES_CDSBlockWrite, @function
 1074               	CFE_ES_CDSBlockWrite:
 1075               	.LFB64:
 481:/home/simulink/cFS_FreeRTOS_seL4/cfe/fsw/cfe-core/src/es/cfe_es_cds_mempool.c **** 
 482:/home/simulink/cFS_FreeRTOS_seL4/cfe/fsw/cfe-core/src/es/cfe_es_cds_mempool.c **** 
 483:/home/simulink/cFS_FreeRTOS_seL4/cfe/fsw/cfe-core/src/es/cfe_es_cds_mempool.c **** /*
 484:/home/simulink/cFS_FreeRTOS_seL4/cfe/fsw/cfe-core/src/es/cfe_es_cds_mempool.c **** ** Function:
 485:/home/simulink/cFS_FreeRTOS_seL4/cfe/fsw/cfe-core/src/es/cfe_es_cds_mempool.c **** **   CFE_ES_CDSBlockWrite
 486:/home/simulink/cFS_FreeRTOS_seL4/cfe/fsw/cfe-core/src/es/cfe_es_cds_mempool.c **** **
 487:/home/simulink/cFS_FreeRTOS_seL4/cfe/fsw/cfe-core/src/es/cfe_es_cds_mempool.c **** ** Purpose:
 488:/home/simulink/cFS_FreeRTOS_seL4/cfe/fsw/cfe-core/src/es/cfe_es_cds_mempool.c **** **
 489:/home/simulink/cFS_FreeRTOS_seL4/cfe/fsw/cfe-core/src/es/cfe_es_cds_mempool.c **** */
 490:/home/simulink/cFS_FreeRTOS_seL4/cfe/fsw/cfe-core/src/es/cfe_es_cds_mempool.c **** int32 CFE_ES_CDSBlockWrite(CFE_ES_CDSBlockHandle_t BlockHandle, void *DataToWrite)
 491:/home/simulink/cFS_FreeRTOS_seL4/cfe/fsw/cfe-core/src/es/cfe_es_cds_mempool.c **** {
 1076               	.loc 1 491 0
 1077               	.cfi_startproc
 1078 095e 518F      	subq.l #8,%sp
 1079               	.cfi_def_cfa_offset 12
 1080 0960 2F02      	move.l %d2,-(%sp)
 1081               	.cfi_def_cfa_offset 16
 1082               	.cfi_offset 2, -16
68K GAS   			page 34


 492:/home/simulink/cFS_FreeRTOS_seL4/cfe/fsw/cfe-core/src/es/cfe_es_cds_mempool.c ****     int32 Status = CFE_SUCCESS;
 1083               	.loc 1 492 0
 1084 0962 42AF 0008 	clr.l 8(%sp)
 493:/home/simulink/cFS_FreeRTOS_seL4/cfe/fsw/cfe-core/src/es/cfe_es_cds_mempool.c ****     int32 BinIndex = 0;
 1085               	.loc 1 493 0
 1086 0966 42AF 0004 	clr.l 4(%sp)
 494:/home/simulink/cFS_FreeRTOS_seL4/cfe/fsw/cfe-core/src/es/cfe_es_cds_mempool.c ****     
 495:/home/simulink/cFS_FreeRTOS_seL4/cfe/fsw/cfe-core/src/es/cfe_es_cds_mempool.c ****     /* Validate the handle before doing anything */
 496:/home/simulink/cFS_FreeRTOS_seL4/cfe/fsw/cfe-core/src/es/cfe_es_cds_mempool.c ****     if ((BlockHandle < sizeof(CFE_ES_Global.CDSVars.ValidityField)) || 
 1087               	.loc 1 496 0
 1088 096a 7007      	moveq #7,%d0
 1089 096c B0AF 0010 	cmp.l 16(%sp),%d0
 1090 0970 641E      	jcc .L47
 497:/home/simulink/cFS_FreeRTOS_seL4/cfe/fsw/cfe-core/src/es/cfe_es_cds_mempool.c ****         (BlockHandle > (CFE_ES_CDSMemPool.End - sizeof(CFE_ES_CDSBlockDesc_t) - 
 1091               	.loc 1 497 0 discriminator 1
 1092 0972 2239 0000 	move.l CFE_ES_CDSMemPool+8,%d1
 1092      0000 
 498:/home/simulink/cFS_FreeRTOS_seL4/cfe/fsw/cfe-core/src/es/cfe_es_cds_mempool.c ****                         CFE_ES_CDSMemPool.MinBlockSize - sizeof(CFE_ES_Global.CDSVars.ValidityField
 1093               	.loc 1 498 0 discriminator 1
 1094 0978 2039 0000 	move.l CFE_ES_CDSMemPool+28,%d0
 1094      0000 
 497:/home/simulink/cFS_FreeRTOS_seL4/cfe/fsw/cfe-core/src/es/cfe_es_cds_mempool.c ****         (BlockHandle > (CFE_ES_CDSMemPool.End - sizeof(CFE_ES_CDSBlockDesc_t) - 
 1095               	.loc 1 497 0 discriminator 1
 1096 097e 2401      	move.l %d1,%d2
 1097 0980 9480      	sub.l %d0,%d2
 1098 0982 2002      	move.l %d2,%d0
 1099               	.loc 1 498 0 discriminator 1
 1100 0984 0680 FFFF 	add.l #-28,%d0
 1100      FFE4 
 496:/home/simulink/cFS_FreeRTOS_seL4/cfe/fsw/cfe-core/src/es/cfe_es_cds_mempool.c ****         (BlockHandle > (CFE_ES_CDSMemPool.End - sizeof(CFE_ES_CDSBlockDesc_t) - 
 1101               	.loc 1 496 0 discriminator 1
 1102 098a B0AF 0010 	cmp.l 16(%sp),%d0
 1103 098e 6418      	jcc .L48
 1104               	.L47:
 499:/home/simulink/cFS_FreeRTOS_seL4/cfe/fsw/cfe-core/src/es/cfe_es_cds_mempool.c ****     {
 500:/home/simulink/cFS_FreeRTOS_seL4/cfe/fsw/cfe-core/src/es/cfe_es_cds_mempool.c ****         CFE_ES_WriteToSysLog("CFE_ES:CDSBlkWrite-Invalid Memory Handle.\n");
 1105               	.loc 1 500 0
 1106 0990 4879 0000 	pea .LC14
 1106      0000 
 1107               	.cfi_def_cfa_offset 20
 1108 0996 4EB9 0000 	jsr CFE_ES_WriteToSysLog
 1108      0000 
 1109 099c 588F      	addq.l #4,%sp
 1110               	.cfi_def_cfa_offset 16
 501:/home/simulink/cFS_FreeRTOS_seL4/cfe/fsw/cfe-core/src/es/cfe_es_cds_mempool.c ****         return(CFE_ES_ERR_MEM_HANDLE);
 1111               	.loc 1 501 0
 1112 099e 203C C400 	move.l #-1006632953,%d0
 1112      0007 
 1113 09a4 6000 01B4 	jra .L49
 1114               	.L48:
 502:/home/simulink/cFS_FreeRTOS_seL4/cfe/fsw/cfe-core/src/es/cfe_es_cds_mempool.c ****     }
 503:/home/simulink/cFS_FreeRTOS_seL4/cfe/fsw/cfe-core/src/es/cfe_es_cds_mempool.c **** 
 504:/home/simulink/cFS_FreeRTOS_seL4/cfe/fsw/cfe-core/src/es/cfe_es_cds_mempool.c ****     OS_MutSemTake(CFE_ES_CDSMemPool.MutexId);
 1115               	.loc 1 504 0
 1116 09a8 2039 0000 	move.l CFE_ES_CDSMemPool+24,%d0
 1116      0000 
 1117 09ae 2F00      	move.l %d0,-(%sp)
68K GAS   			page 35


 1118               	.cfi_def_cfa_offset 20
 1119 09b0 4EB9 0000 	jsr OS_MutSemTake
 1119      0000 
 1120 09b6 588F      	addq.l #4,%sp
 1121               	.cfi_def_cfa_offset 16
 505:/home/simulink/cFS_FreeRTOS_seL4/cfe/fsw/cfe-core/src/es/cfe_es_cds_mempool.c ****     
 506:/home/simulink/cFS_FreeRTOS_seL4/cfe/fsw/cfe-core/src/es/cfe_es_cds_mempool.c ****     /* Get a copy of the block descriptor associated with the specified handle */
 507:/home/simulink/cFS_FreeRTOS_seL4/cfe/fsw/cfe-core/src/es/cfe_es_cds_mempool.c ****     /* Read the block descriptor for the first block in the memory pool */
 508:/home/simulink/cFS_FreeRTOS_seL4/cfe/fsw/cfe-core/src/es/cfe_es_cds_mempool.c ****     Status = CFE_PSP_ReadFromCDS(&CFE_ES_CDSBlockDesc, BlockHandle, sizeof(CFE_ES_CDSBlockDesc_t));
 1122               	.loc 1 508 0
 1123 09b8 4878 0014 	pea 20.w
 1124               	.cfi_def_cfa_offset 20
 1125 09bc 2F2F 0014 	move.l 20(%sp),-(%sp)
 1126               	.cfi_def_cfa_offset 24
 1127 09c0 4879 0000 	pea CFE_ES_CDSBlockDesc
 1127      0000 
 1128               	.cfi_def_cfa_offset 28
 1129 09c6 4EB9 0000 	jsr CFE_PSP_ReadFromCDS
 1129      0000 
 1130 09cc 4FEF 000C 	lea (12,%sp),%sp
 1131               	.cfi_def_cfa_offset 16
 1132 09d0 2F40 0008 	move.l %d0,8(%sp)
 509:/home/simulink/cFS_FreeRTOS_seL4/cfe/fsw/cfe-core/src/es/cfe_es_cds_mempool.c ****     
 510:/home/simulink/cFS_FreeRTOS_seL4/cfe/fsw/cfe-core/src/es/cfe_es_cds_mempool.c ****     if (Status == CFE_PSP_SUCCESS)
 1133               	.loc 1 510 0
 1134 09d4 4AAF 0008 	tst.l 8(%sp)
 1135 09d8 6600 0158 	jne .L50
 511:/home/simulink/cFS_FreeRTOS_seL4/cfe/fsw/cfe-core/src/es/cfe_es_cds_mempool.c ****     {
 512:/home/simulink/cFS_FreeRTOS_seL4/cfe/fsw/cfe-core/src/es/cfe_es_cds_mempool.c ****         /* Validate the block to make sure it is still active and not corrupted */
 513:/home/simulink/cFS_FreeRTOS_seL4/cfe/fsw/cfe-core/src/es/cfe_es_cds_mempool.c ****         if ((CFE_ES_CDSBlockDesc.CheckBits != CFE_ES_CDS_CHECK_PATTERN) ||
 1136               	.loc 1 513 0
 1137 09dc 3039 0000 	move.w CFE_ES_CDSBlockDesc,%d0
 1137      0000 
 1138 09e2 3000      	move.w %d0,%d0
 1139 09e4 0280 0000 	and.l #65535,%d0
 1139      FFFF 
 1140 09ea 0C80 0000 	cmp.l #23130,%d0
 1140      5A5A 
 1141 09f0 6616      	jne .L51
 514:/home/simulink/cFS_FreeRTOS_seL4/cfe/fsw/cfe-core/src/es/cfe_es_cds_mempool.c ****             (CFE_ES_CDSBlockDesc.AllocatedFlag != CFE_ES_CDS_BLOCK_USED))
 1142               	.loc 1 514 0 discriminator 1
 1143 09f2 3039 0000 	move.w CFE_ES_CDSBlockDesc+2,%d0
 1143      0000 
 513:/home/simulink/cFS_FreeRTOS_seL4/cfe/fsw/cfe-core/src/es/cfe_es_cds_mempool.c ****             (CFE_ES_CDSBlockDesc.AllocatedFlag != CFE_ES_CDS_BLOCK_USED))
 1144               	.loc 1 513 0 discriminator 1
 1145 09f8 3000      	move.w %d0,%d0
 1146 09fa 0280 0000 	and.l #65535,%d0
 1146      FFFF 
 1147 0a00 0C80 0000 	cmp.l #43690,%d0
 1147      AAAA 
 1148 0a06 6728      	jeq .L52
 1149               	.L51:
 515:/home/simulink/cFS_FreeRTOS_seL4/cfe/fsw/cfe-core/src/es/cfe_es_cds_mempool.c ****         {
 516:/home/simulink/cFS_FreeRTOS_seL4/cfe/fsw/cfe-core/src/es/cfe_es_cds_mempool.c ****             CFE_ES_WriteToSysLog("CFE_ES:CDSBlkWrite-Invalid Handle or Block Descriptor.\n");
 1150               	.loc 1 516 0
 1151 0a08 4879 0000 	pea .LC15
 1151      0000 
68K GAS   			page 36


 1152               	.cfi_def_cfa_offset 20
 1153 0a0e 4EB9 0000 	jsr CFE_ES_WriteToSysLog
 1153      0000 
 1154 0a14 588F      	addq.l #4,%sp
 1155               	.cfi_def_cfa_offset 16
 517:/home/simulink/cFS_FreeRTOS_seL4/cfe/fsw/cfe-core/src/es/cfe_es_cds_mempool.c ****             OS_MutSemGive(CFE_ES_CDSMemPool.MutexId);
 1156               	.loc 1 517 0
 1157 0a16 2039 0000 	move.l CFE_ES_CDSMemPool+24,%d0
 1157      0000 
 1158 0a1c 2F00      	move.l %d0,-(%sp)
 1159               	.cfi_def_cfa_offset 20
 1160 0a1e 4EB9 0000 	jsr OS_MutSemGive
 1160      0000 
 1161 0a24 588F      	addq.l #4,%sp
 1162               	.cfi_def_cfa_offset 16
 518:/home/simulink/cFS_FreeRTOS_seL4/cfe/fsw/cfe-core/src/es/cfe_es_cds_mempool.c ****             return(CFE_ES_ERR_MEM_HANDLE);
 1163               	.loc 1 518 0
 1164 0a26 203C C400 	move.l #-1006632953,%d0
 1164      0007 
 1165 0a2c 6000 012C 	jra .L49
 1166               	.L52:
 519:/home/simulink/cFS_FreeRTOS_seL4/cfe/fsw/cfe-core/src/es/cfe_es_cds_mempool.c ****         }
 520:/home/simulink/cFS_FreeRTOS_seL4/cfe/fsw/cfe-core/src/es/cfe_es_cds_mempool.c **** 
 521:/home/simulink/cFS_FreeRTOS_seL4/cfe/fsw/cfe-core/src/es/cfe_es_cds_mempool.c ****         BinIndex = CFE_ES_CDSGetBinIndex(CFE_ES_CDSBlockDesc.ActualSize);
 1167               	.loc 1 521 0
 1168 0a30 2039 0000 	move.l CFE_ES_CDSBlockDesc+8,%d0
 1168      0000 
 1169 0a36 2F00      	move.l %d0,-(%sp)
 1170               	.cfi_def_cfa_offset 20
 1171 0a38 4EB9 0000 	jsr CFE_ES_CDSGetBinIndex
 1171      0000 
 1172 0a3e 588F      	addq.l #4,%sp
 1173               	.cfi_def_cfa_offset 16
 1174 0a40 2F40 0004 	move.l %d0,4(%sp)
 522:/home/simulink/cFS_FreeRTOS_seL4/cfe/fsw/cfe-core/src/es/cfe_es_cds_mempool.c **** 
 523:/home/simulink/cFS_FreeRTOS_seL4/cfe/fsw/cfe-core/src/es/cfe_es_cds_mempool.c ****         /* Final sanity check on block descriptor, is the Actual size reasonable */
 524:/home/simulink/cFS_FreeRTOS_seL4/cfe/fsw/cfe-core/src/es/cfe_es_cds_mempool.c ****         if (BinIndex < 0)
 1175               	.loc 1 524 0
 1176 0a44 4AAF 0004 	tst.l 4(%sp)
 1177 0a48 6C38      	jge .L53
 525:/home/simulink/cFS_FreeRTOS_seL4/cfe/fsw/cfe-core/src/es/cfe_es_cds_mempool.c ****         {
 526:/home/simulink/cFS_FreeRTOS_seL4/cfe/fsw/cfe-core/src/es/cfe_es_cds_mempool.c ****             CFE_ES_CDSMemPool.CheckErrCntr++;
 1178               	.loc 1 526 0
 1179 0a4a 3039 0000 	move.w CFE_ES_CDSMemPool+20,%d0
 1179      0000 
 1180 0a50 5280      	addq.l #1,%d0
 1181 0a52 3000      	move.w %d0,%d0
 1182 0a54 33C0 0000 	move.w %d0,CFE_ES_CDSMemPool+20
 1182      0000 
 527:/home/simulink/cFS_FreeRTOS_seL4/cfe/fsw/cfe-core/src/es/cfe_es_cds_mempool.c ****             CFE_ES_WriteToSysLog("CFE_ES:CDSBlkWrite-Invalid Block Descriptor\n");
 1183               	.loc 1 527 0
 1184 0a5a 4879 0000 	pea .LC16
 1184      0000 
 1185               	.cfi_def_cfa_offset 20
 1186 0a60 4EB9 0000 	jsr CFE_ES_WriteToSysLog
 1186      0000 
 1187 0a66 588F      	addq.l #4,%sp
68K GAS   			page 37


 1188               	.cfi_def_cfa_offset 16
 528:/home/simulink/cFS_FreeRTOS_seL4/cfe/fsw/cfe-core/src/es/cfe_es_cds_mempool.c ****             OS_MutSemGive(CFE_ES_CDSMemPool.MutexId);
 1189               	.loc 1 528 0
 1190 0a68 2039 0000 	move.l CFE_ES_CDSMemPool+24,%d0
 1190      0000 
 1191 0a6e 2F00      	move.l %d0,-(%sp)
 1192               	.cfi_def_cfa_offset 20
 1193 0a70 4EB9 0000 	jsr OS_MutSemGive
 1193      0000 
 1194 0a76 588F      	addq.l #4,%sp
 1195               	.cfi_def_cfa_offset 16
 529:/home/simulink/cFS_FreeRTOS_seL4/cfe/fsw/cfe-core/src/es/cfe_es_cds_mempool.c ****             return(CFE_ES_ERR_MEM_HANDLE);
 1196               	.loc 1 529 0
 1197 0a78 203C C400 	move.l #-1006632953,%d0
 1197      0007 
 1198 0a7e 6000 00DA 	jra .L49
 1199               	.L53:
 530:/home/simulink/cFS_FreeRTOS_seL4/cfe/fsw/cfe-core/src/es/cfe_es_cds_mempool.c ****         }
 531:/home/simulink/cFS_FreeRTOS_seL4/cfe/fsw/cfe-core/src/es/cfe_es_cds_mempool.c ****         
 532:/home/simulink/cFS_FreeRTOS_seL4/cfe/fsw/cfe-core/src/es/cfe_es_cds_mempool.c ****         /* Use the size specified when the CDS was created to compute the CRC */
 533:/home/simulink/cFS_FreeRTOS_seL4/cfe/fsw/cfe-core/src/es/cfe_es_cds_mempool.c ****         CFE_ES_CDSBlockDesc.CRC = CFE_ES_CalculateCRC(DataToWrite, CFE_ES_CDSBlockDesc.SizeUsed, 0,
 1200               	.loc 1 533 0
 1201 0a82 2039 0000 	move.l CFE_ES_CDSBlockDesc+4,%d0
 1201      0000 
 1202 0a88 4878 0002 	pea 2.w
 1203               	.cfi_def_cfa_offset 20
 1204 0a8c 42A7      	clr.l -(%sp)
 1205               	.cfi_def_cfa_offset 24
 1206 0a8e 2F00      	move.l %d0,-(%sp)
 1207               	.cfi_def_cfa_offset 28
 1208 0a90 2F2F 0020 	move.l 32(%sp),-(%sp)
 1209               	.cfi_def_cfa_offset 32
 1210 0a94 4EB9 0000 	jsr CFE_ES_CalculateCRC
 1210      0000 
 1211 0a9a 4FEF 0010 	lea (16,%sp),%sp
 1212               	.cfi_def_cfa_offset 16
 1213 0a9e 23C0 0000 	move.l %d0,CFE_ES_CDSBlockDesc+12
 1213      0000 
 534:/home/simulink/cFS_FreeRTOS_seL4/cfe/fsw/cfe-core/src/es/cfe_es_cds_mempool.c ****         
 535:/home/simulink/cFS_FreeRTOS_seL4/cfe/fsw/cfe-core/src/es/cfe_es_cds_mempool.c ****         /* Write the new block descriptor for the data coming from the Application */
 536:/home/simulink/cFS_FreeRTOS_seL4/cfe/fsw/cfe-core/src/es/cfe_es_cds_mempool.c ****         Status = CFE_PSP_WriteToCDS(&CFE_ES_CDSBlockDesc, BlockHandle, sizeof(CFE_ES_CDSBlockDesc_t
 1214               	.loc 1 536 0
 1215 0aa4 4878 0014 	pea 20.w
 1216               	.cfi_def_cfa_offset 20
 1217 0aa8 2F2F 0014 	move.l 20(%sp),-(%sp)
 1218               	.cfi_def_cfa_offset 24
 1219 0aac 4879 0000 	pea CFE_ES_CDSBlockDesc
 1219      0000 
 1220               	.cfi_def_cfa_offset 28
 1221 0ab2 4EB9 0000 	jsr CFE_PSP_WriteToCDS
 1221      0000 
 1222 0ab8 4FEF 000C 	lea (12,%sp),%sp
 1223               	.cfi_def_cfa_offset 16
 1224 0abc 2F40 0008 	move.l %d0,8(%sp)
 537:/home/simulink/cFS_FreeRTOS_seL4/cfe/fsw/cfe-core/src/es/cfe_es_cds_mempool.c ****         
 538:/home/simulink/cFS_FreeRTOS_seL4/cfe/fsw/cfe-core/src/es/cfe_es_cds_mempool.c ****         if (Status == CFE_PSP_SUCCESS)
 1225               	.loc 1 538 0
68K GAS   			page 38


 1226 0ac0 4AAF 0008 	tst.l 8(%sp)
 1227 0ac4 6650      	jne .L54
 539:/home/simulink/cFS_FreeRTOS_seL4/cfe/fsw/cfe-core/src/es/cfe_es_cds_mempool.c ****         {
 540:/home/simulink/cFS_FreeRTOS_seL4/cfe/fsw/cfe-core/src/es/cfe_es_cds_mempool.c ****             /* Write the new data coming from the Application to the CDS */
 541:/home/simulink/cFS_FreeRTOS_seL4/cfe/fsw/cfe-core/src/es/cfe_es_cds_mempool.c ****             Status = CFE_PSP_WriteToCDS(DataToWrite, (BlockHandle + sizeof(CFE_ES_CDSBlockDesc_t)),
 1228               	.loc 1 541 0
 1229 0ac6 2239 0000 	move.l CFE_ES_CDSBlockDesc+4,%d1
 1229      0000 
 1230 0acc 202F 0010 	move.l 16(%sp),%d0
 1231 0ad0 0680 0000 	add.l #20,%d0
 1231      0014 
 1232 0ad6 2F01      	move.l %d1,-(%sp)
 1233               	.cfi_def_cfa_offset 20
 1234 0ad8 2F00      	move.l %d0,-(%sp)
 1235               	.cfi_def_cfa_offset 24
 1236 0ada 2F2F 001C 	move.l 28(%sp),-(%sp)
 1237               	.cfi_def_cfa_offset 28
 1238 0ade 4EB9 0000 	jsr CFE_PSP_WriteToCDS
 1238      0000 
 1239 0ae4 4FEF 000C 	lea (12,%sp),%sp
 1240               	.cfi_def_cfa_offset 16
 1241 0ae8 2F40 0008 	move.l %d0,8(%sp)
 542:/home/simulink/cFS_FreeRTOS_seL4/cfe/fsw/cfe-core/src/es/cfe_es_cds_mempool.c ****             
 543:/home/simulink/cFS_FreeRTOS_seL4/cfe/fsw/cfe-core/src/es/cfe_es_cds_mempool.c ****             if (Status != CFE_PSP_SUCCESS)
 1242               	.loc 1 543 0
 1243 0aec 4AAF 0008 	tst.l 8(%sp)
 1244 0af0 6754      	jeq .L57
 544:/home/simulink/cFS_FreeRTOS_seL4/cfe/fsw/cfe-core/src/es/cfe_es_cds_mempool.c ****             {
 545:/home/simulink/cFS_FreeRTOS_seL4/cfe/fsw/cfe-core/src/es/cfe_es_cds_mempool.c ****                 CFE_ES_WriteToSysLog("CFE_ES:CDSBlkWrite-Err writing data to CDS (Stat=0x%08x) @Off
 546:/home/simulink/cFS_FreeRTOS_seL4/cfe/fsw/cfe-core/src/es/cfe_es_cds_mempool.c ****                                      (unsigned int)Status, (unsigned int)(BlockHandle + sizeof(CFE_
 1245               	.loc 1 546 0
 1246 0af2 202F 0010 	move.l 16(%sp),%d0
 1247 0af6 0680 0000 	add.l #20,%d0
 1247      0014 
 545:/home/simulink/cFS_FreeRTOS_seL4/cfe/fsw/cfe-core/src/es/cfe_es_cds_mempool.c ****                                      (unsigned int)Status, (unsigned int)(BlockHandle + sizeof(CFE_
 1248               	.loc 1 545 0
 1249 0afc 222F 0008 	move.l 8(%sp),%d1
 1250 0b00 2F00      	move.l %d0,-(%sp)
 1251               	.cfi_def_cfa_offset 20
 1252 0b02 2F01      	move.l %d1,-(%sp)
 1253               	.cfi_def_cfa_offset 24
 1254 0b04 4879 0000 	pea .LC17
 1254      0000 
 1255               	.cfi_def_cfa_offset 28
 1256 0b0a 4EB9 0000 	jsr CFE_ES_WriteToSysLog
 1256      0000 
 1257 0b10 4FEF 000C 	lea (12,%sp),%sp
 1258               	.cfi_def_cfa_offset 16
 1259 0b14 6030      	jra .L57
 1260               	.L54:
 547:/home/simulink/cFS_FreeRTOS_seL4/cfe/fsw/cfe-core/src/es/cfe_es_cds_mempool.c ****             }
 548:/home/simulink/cFS_FreeRTOS_seL4/cfe/fsw/cfe-core/src/es/cfe_es_cds_mempool.c ****         }
 549:/home/simulink/cFS_FreeRTOS_seL4/cfe/fsw/cfe-core/src/es/cfe_es_cds_mempool.c ****         else
 550:/home/simulink/cFS_FreeRTOS_seL4/cfe/fsw/cfe-core/src/es/cfe_es_cds_mempool.c ****         {
 551:/home/simulink/cFS_FreeRTOS_seL4/cfe/fsw/cfe-core/src/es/cfe_es_cds_mempool.c ****             CFE_ES_WriteToSysLog("CFE_ES:CDSBlkWrite-Err writing BlockDesc to CDS (Stat=0x%08x) @Of
 1261               	.loc 1 551 0
 1262 0b16 202F 0008 	move.l 8(%sp),%d0
68K GAS   			page 39


 1263 0b1a 2F2F 0010 	move.l 16(%sp),-(%sp)
 1264               	.cfi_def_cfa_offset 20
 1265 0b1e 2F00      	move.l %d0,-(%sp)
 1266               	.cfi_def_cfa_offset 24
 1267 0b20 4879 0000 	pea .LC18
 1267      0000 
 1268               	.cfi_def_cfa_offset 28
 1269 0b26 4EB9 0000 	jsr CFE_ES_WriteToSysLog
 1269      0000 
 1270 0b2c 4FEF 000C 	lea (12,%sp),%sp
 1271               	.cfi_def_cfa_offset 16
 1272 0b30 6014      	jra .L57
 1273               	.L50:
 552:/home/simulink/cFS_FreeRTOS_seL4/cfe/fsw/cfe-core/src/es/cfe_es_cds_mempool.c ****                   (unsigned int)Status, (unsigned int)BlockHandle);
 553:/home/simulink/cFS_FreeRTOS_seL4/cfe/fsw/cfe-core/src/es/cfe_es_cds_mempool.c ****         }
 554:/home/simulink/cFS_FreeRTOS_seL4/cfe/fsw/cfe-core/src/es/cfe_es_cds_mempool.c ****     }
 555:/home/simulink/cFS_FreeRTOS_seL4/cfe/fsw/cfe-core/src/es/cfe_es_cds_mempool.c ****     else
 556:/home/simulink/cFS_FreeRTOS_seL4/cfe/fsw/cfe-core/src/es/cfe_es_cds_mempool.c ****     {
 557:/home/simulink/cFS_FreeRTOS_seL4/cfe/fsw/cfe-core/src/es/cfe_es_cds_mempool.c ****         CFE_ES_WriteToSysLog("CFE_ES:CDSBlkWrite-Err reading from CDS (Stat=0x%08x)\n", (unsigned i
 1274               	.loc 1 557 0
 1275 0b32 202F 0008 	move.l 8(%sp),%d0
 1276 0b36 2F00      	move.l %d0,-(%sp)
 1277               	.cfi_def_cfa_offset 20
 1278 0b38 4879 0000 	pea .LC19
 1278      0000 
 1279               	.cfi_def_cfa_offset 24
 1280 0b3e 4EB9 0000 	jsr CFE_ES_WriteToSysLog
 1280      0000 
 1281 0b44 508F      	addq.l #8,%sp
 1282               	.cfi_def_cfa_offset 16
 1283               	.L57:
 558:/home/simulink/cFS_FreeRTOS_seL4/cfe/fsw/cfe-core/src/es/cfe_es_cds_mempool.c ****     }
 559:/home/simulink/cFS_FreeRTOS_seL4/cfe/fsw/cfe-core/src/es/cfe_es_cds_mempool.c **** 
 560:/home/simulink/cFS_FreeRTOS_seL4/cfe/fsw/cfe-core/src/es/cfe_es_cds_mempool.c ****     OS_MutSemGive(CFE_ES_CDSMemPool.MutexId);
 1284               	.loc 1 560 0
 1285 0b46 2039 0000 	move.l CFE_ES_CDSMemPool+24,%d0
 1285      0000 
 1286 0b4c 2F00      	move.l %d0,-(%sp)
 1287               	.cfi_def_cfa_offset 20
 1288 0b4e 4EB9 0000 	jsr OS_MutSemGive
 1288      0000 
 1289 0b54 588F      	addq.l #4,%sp
 1290               	.cfi_def_cfa_offset 16
 561:/home/simulink/cFS_FreeRTOS_seL4/cfe/fsw/cfe-core/src/es/cfe_es_cds_mempool.c ****     
 562:/home/simulink/cFS_FreeRTOS_seL4/cfe/fsw/cfe-core/src/es/cfe_es_cds_mempool.c ****     return Status;
 1291               	.loc 1 562 0
 1292 0b56 202F 0008 	move.l 8(%sp),%d0
 1293               	.L49:
 563:/home/simulink/cFS_FreeRTOS_seL4/cfe/fsw/cfe-core/src/es/cfe_es_cds_mempool.c **** }
 1294               	.loc 1 563 0
 1295 0b5a 241F      	move.l (%sp)+,%d2
 1296 0b5c 508F      	addq.l #8,%sp
 1297 0b5e 4E75      	rts
 1298               	.cfi_endproc
 1299               	.LFE64:
 1300               	.sizeCFE_ES_CDSBlockWrite, .-CFE_ES_CDSBlockWrite
 1301               	.section.rodata
68K GAS   			page 40


 1302               	.LC20:
 1303 046b 4346 455F 	.string"CFE_ES:CDSBlkRd-Invalid Memory Handle.\n"
 1303      4553 3A43 
 1303      4453 426C 
 1303      6B52 642D 
 1303      496E 7661 
 1304               	.LC21:
 1305 0493 4346 455F 	.string"CFE_ES:CDSBlkRd-Invalid Handle or Block Descriptor.\n"
 1305      4553 3A43 
 1305      4453 426C 
 1305      6B52 642D 
 1305      496E 7661 
 1306               	.LC22:
 1307 04c8 4346 455F 	.string"CFE_ES:CDSBlkRd-Invalid Block Descriptor\n"
 1307      4553 3A43 
 1307      4453 426C 
 1307      6B52 642D 
 1307      496E 7661 
 1308               	.LC23:
 1309 04f2 4346 455F 	.string"CFE_ES:CDSBlkRd-Err reading block from CDS (Stat=0x%08x) @Offset=0x%08x\n"
 1309      4553 3A43 
 1309      4453 426C 
 1309      6B52 642D 
 1309      4572 7220 
 1310               	.LC24:
 1311 053b 4346 455F 	.string"CFE_ES:CDSBlkRd-Err reading from CDS (Stat=0x%08x)\n"
 1311      4553 3A43 
 1311      4453 426C 
 1311      6B52 642D 
 1311      4572 7220 
 1312               	.text
 1313               	.align2
 1314               	.globlCFE_ES_CDSBlockRead
 1315               	.typeCFE_ES_CDSBlockRead, @function
 1316               	CFE_ES_CDSBlockRead:
 1317               	.LFB65:
 564:/home/simulink/cFS_FreeRTOS_seL4/cfe/fsw/cfe-core/src/es/cfe_es_cds_mempool.c **** 
 565:/home/simulink/cFS_FreeRTOS_seL4/cfe/fsw/cfe-core/src/es/cfe_es_cds_mempool.c **** 
 566:/home/simulink/cFS_FreeRTOS_seL4/cfe/fsw/cfe-core/src/es/cfe_es_cds_mempool.c **** /*
 567:/home/simulink/cFS_FreeRTOS_seL4/cfe/fsw/cfe-core/src/es/cfe_es_cds_mempool.c **** ** Function:
 568:/home/simulink/cFS_FreeRTOS_seL4/cfe/fsw/cfe-core/src/es/cfe_es_cds_mempool.c **** **   CFE_ES_CDSBlockRead
 569:/home/simulink/cFS_FreeRTOS_seL4/cfe/fsw/cfe-core/src/es/cfe_es_cds_mempool.c **** **
 570:/home/simulink/cFS_FreeRTOS_seL4/cfe/fsw/cfe-core/src/es/cfe_es_cds_mempool.c **** ** Purpose:
 571:/home/simulink/cFS_FreeRTOS_seL4/cfe/fsw/cfe-core/src/es/cfe_es_cds_mempool.c **** **
 572:/home/simulink/cFS_FreeRTOS_seL4/cfe/fsw/cfe-core/src/es/cfe_es_cds_mempool.c **** */
 573:/home/simulink/cFS_FreeRTOS_seL4/cfe/fsw/cfe-core/src/es/cfe_es_cds_mempool.c **** int32 CFE_ES_CDSBlockRead(void *DataRead, CFE_ES_CDSBlockHandle_t BlockHandle)
 574:/home/simulink/cFS_FreeRTOS_seL4/cfe/fsw/cfe-core/src/es/cfe_es_cds_mempool.c **** {
 1318               	.loc 1 574 0
 1319               	.cfi_startproc
 1320 0b60 4FEF FFF4 	lea (-12,%sp),%sp
 1321               	.cfi_def_cfa_offset 16
 1322 0b64 2F02      	move.l %d2,-(%sp)
 1323               	.cfi_def_cfa_offset 20
 1324               	.cfi_offset 2, -20
 575:/home/simulink/cFS_FreeRTOS_seL4/cfe/fsw/cfe-core/src/es/cfe_es_cds_mempool.c ****     int32  Status = CFE_SUCCESS;
 1325               	.loc 1 575 0
 1326 0b66 42AF 000C 	clr.l 12(%sp)
68K GAS   			page 41


 576:/home/simulink/cFS_FreeRTOS_seL4/cfe/fsw/cfe-core/src/es/cfe_es_cds_mempool.c ****     uint32 CrcOfCDSData;
 577:/home/simulink/cFS_FreeRTOS_seL4/cfe/fsw/cfe-core/src/es/cfe_es_cds_mempool.c ****     int32  BinIndex;
 578:/home/simulink/cFS_FreeRTOS_seL4/cfe/fsw/cfe-core/src/es/cfe_es_cds_mempool.c ****     
 579:/home/simulink/cFS_FreeRTOS_seL4/cfe/fsw/cfe-core/src/es/cfe_es_cds_mempool.c ****     /* Validate the handle before doing anything */
 580:/home/simulink/cFS_FreeRTOS_seL4/cfe/fsw/cfe-core/src/es/cfe_es_cds_mempool.c ****     if ((BlockHandle < sizeof(CFE_ES_Global.CDSVars.ValidityField)) || 
 1327               	.loc 1 580 0
 1328 0b6a 7007      	moveq #7,%d0
 1329 0b6c B0AF 0018 	cmp.l 24(%sp),%d0
 1330 0b70 641E      	jcc .L59
 581:/home/simulink/cFS_FreeRTOS_seL4/cfe/fsw/cfe-core/src/es/cfe_es_cds_mempool.c ****         (BlockHandle > (CFE_ES_CDSMemPool.End - sizeof(CFE_ES_CDSBlockDesc_t) - 
 1331               	.loc 1 581 0 discriminator 1
 1332 0b72 2239 0000 	move.l CFE_ES_CDSMemPool+8,%d1
 1332      0000 
 582:/home/simulink/cFS_FreeRTOS_seL4/cfe/fsw/cfe-core/src/es/cfe_es_cds_mempool.c ****                         CFE_ES_CDSMemPool.MinBlockSize - sizeof(CFE_ES_Global.CDSVars.ValidityField
 1333               	.loc 1 582 0 discriminator 1
 1334 0b78 2039 0000 	move.l CFE_ES_CDSMemPool+28,%d0
 1334      0000 
 581:/home/simulink/cFS_FreeRTOS_seL4/cfe/fsw/cfe-core/src/es/cfe_es_cds_mempool.c ****         (BlockHandle > (CFE_ES_CDSMemPool.End - sizeof(CFE_ES_CDSBlockDesc_t) - 
 1335               	.loc 1 581 0 discriminator 1
 1336 0b7e 2401      	move.l %d1,%d2
 1337 0b80 9480      	sub.l %d0,%d2
 1338 0b82 2002      	move.l %d2,%d0
 1339               	.loc 1 582 0 discriminator 1
 1340 0b84 0680 FFFF 	add.l #-28,%d0
 1340      FFE4 
 580:/home/simulink/cFS_FreeRTOS_seL4/cfe/fsw/cfe-core/src/es/cfe_es_cds_mempool.c ****         (BlockHandle > (CFE_ES_CDSMemPool.End - sizeof(CFE_ES_CDSBlockDesc_t) - 
 1341               	.loc 1 580 0 discriminator 1
 1342 0b8a B0AF 0018 	cmp.l 24(%sp),%d0
 1343 0b8e 6418      	jcc .L60
 1344               	.L59:
 583:/home/simulink/cFS_FreeRTOS_seL4/cfe/fsw/cfe-core/src/es/cfe_es_cds_mempool.c ****     {
 584:/home/simulink/cFS_FreeRTOS_seL4/cfe/fsw/cfe-core/src/es/cfe_es_cds_mempool.c ****         CFE_ES_WriteToSysLog("CFE_ES:CDSBlkRd-Invalid Memory Handle.\n");
 1345               	.loc 1 584 0
 1346 0b90 4879 0000 	pea .LC20
 1346      0000 
 1347               	.cfi_def_cfa_offset 24
 1348 0b96 4EB9 0000 	jsr CFE_ES_WriteToSysLog
 1348      0000 
 1349 0b9c 588F      	addq.l #4,%sp
 1350               	.cfi_def_cfa_offset 20
 585:/home/simulink/cFS_FreeRTOS_seL4/cfe/fsw/cfe-core/src/es/cfe_es_cds_mempool.c ****         return(CFE_ES_ERR_MEM_HANDLE);
 1351               	.loc 1 585 0
 1352 0b9e 203C C400 	move.l #-1006632953,%d0
 1352      0007 
 1353 0ba4 6000 018A 	jra .L61
 1354               	.L60:
 586:/home/simulink/cFS_FreeRTOS_seL4/cfe/fsw/cfe-core/src/es/cfe_es_cds_mempool.c ****     }
 587:/home/simulink/cFS_FreeRTOS_seL4/cfe/fsw/cfe-core/src/es/cfe_es_cds_mempool.c **** 
 588:/home/simulink/cFS_FreeRTOS_seL4/cfe/fsw/cfe-core/src/es/cfe_es_cds_mempool.c ****     OS_MutSemTake(CFE_ES_CDSMemPool.MutexId);
 1355               	.loc 1 588 0
 1356 0ba8 2039 0000 	move.l CFE_ES_CDSMemPool+24,%d0
 1356      0000 
 1357 0bae 2F00      	move.l %d0,-(%sp)
 1358               	.cfi_def_cfa_offset 24
 1359 0bb0 4EB9 0000 	jsr OS_MutSemTake
 1359      0000 
 1360 0bb6 588F      	addq.l #4,%sp
68K GAS   			page 42


 1361               	.cfi_def_cfa_offset 20
 589:/home/simulink/cFS_FreeRTOS_seL4/cfe/fsw/cfe-core/src/es/cfe_es_cds_mempool.c **** 
 590:/home/simulink/cFS_FreeRTOS_seL4/cfe/fsw/cfe-core/src/es/cfe_es_cds_mempool.c ****     /* Get a copy of the block descriptor associated with the specified handle */
 591:/home/simulink/cFS_FreeRTOS_seL4/cfe/fsw/cfe-core/src/es/cfe_es_cds_mempool.c ****     /* Read the block descriptor for the first block in the memory pool */
 592:/home/simulink/cFS_FreeRTOS_seL4/cfe/fsw/cfe-core/src/es/cfe_es_cds_mempool.c ****     Status = CFE_PSP_ReadFromCDS(&CFE_ES_CDSBlockDesc, BlockHandle, sizeof(CFE_ES_CDSBlockDesc_t));
 1362               	.loc 1 592 0
 1363 0bb8 4878 0014 	pea 20.w
 1364               	.cfi_def_cfa_offset 24
 1365 0bbc 2F2F 001C 	move.l 28(%sp),-(%sp)
 1366               	.cfi_def_cfa_offset 28
 1367 0bc0 4879 0000 	pea CFE_ES_CDSBlockDesc
 1367      0000 
 1368               	.cfi_def_cfa_offset 32
 1369 0bc6 4EB9 0000 	jsr CFE_PSP_ReadFromCDS
 1369      0000 
 1370 0bcc 4FEF 000C 	lea (12,%sp),%sp
 1371               	.cfi_def_cfa_offset 20
 1372 0bd0 2F40 000C 	move.l %d0,12(%sp)
 593:/home/simulink/cFS_FreeRTOS_seL4/cfe/fsw/cfe-core/src/es/cfe_es_cds_mempool.c ****     
 594:/home/simulink/cFS_FreeRTOS_seL4/cfe/fsw/cfe-core/src/es/cfe_es_cds_mempool.c ****     if (Status == CFE_PSP_SUCCESS)
 1373               	.loc 1 594 0
 1374 0bd4 4AAF 000C 	tst.l 12(%sp)
 1375 0bd8 6600 012E 	jne .L62
 595:/home/simulink/cFS_FreeRTOS_seL4/cfe/fsw/cfe-core/src/es/cfe_es_cds_mempool.c ****     {
 596:/home/simulink/cFS_FreeRTOS_seL4/cfe/fsw/cfe-core/src/es/cfe_es_cds_mempool.c ****         /* Validate the block to make sure it is still active and not corrupted */
 597:/home/simulink/cFS_FreeRTOS_seL4/cfe/fsw/cfe-core/src/es/cfe_es_cds_mempool.c ****         if ((CFE_ES_CDSBlockDesc.CheckBits != CFE_ES_CDS_CHECK_PATTERN) ||
 1376               	.loc 1 597 0
 1377 0bdc 3039 0000 	move.w CFE_ES_CDSBlockDesc,%d0
 1377      0000 
 1378 0be2 3000      	move.w %d0,%d0
 1379 0be4 0280 0000 	and.l #65535,%d0
 1379      FFFF 
 1380 0bea 0C80 0000 	cmp.l #23130,%d0
 1380      5A5A 
 1381 0bf0 6616      	jne .L63
 598:/home/simulink/cFS_FreeRTOS_seL4/cfe/fsw/cfe-core/src/es/cfe_es_cds_mempool.c ****             (CFE_ES_CDSBlockDesc.AllocatedFlag != CFE_ES_CDS_BLOCK_USED))
 1382               	.loc 1 598 0 discriminator 1
 1383 0bf2 3039 0000 	move.w CFE_ES_CDSBlockDesc+2,%d0
 1383      0000 
 597:/home/simulink/cFS_FreeRTOS_seL4/cfe/fsw/cfe-core/src/es/cfe_es_cds_mempool.c ****             (CFE_ES_CDSBlockDesc.AllocatedFlag != CFE_ES_CDS_BLOCK_USED))
 1384               	.loc 1 597 0 discriminator 1
 1385 0bf8 3000      	move.w %d0,%d0
 1386 0bfa 0280 0000 	and.l #65535,%d0
 1386      FFFF 
 1387 0c00 0C80 0000 	cmp.l #43690,%d0
 1387      AAAA 
 1388 0c06 6728      	jeq .L64
 1389               	.L63:
 599:/home/simulink/cFS_FreeRTOS_seL4/cfe/fsw/cfe-core/src/es/cfe_es_cds_mempool.c ****         {
 600:/home/simulink/cFS_FreeRTOS_seL4/cfe/fsw/cfe-core/src/es/cfe_es_cds_mempool.c ****             CFE_ES_WriteToSysLog("CFE_ES:CDSBlkRd-Invalid Handle or Block Descriptor.\n");
 1390               	.loc 1 600 0
 1391 0c08 4879 0000 	pea .LC21
 1391      0000 
 1392               	.cfi_def_cfa_offset 24
 1393 0c0e 4EB9 0000 	jsr CFE_ES_WriteToSysLog
 1393      0000 
 1394 0c14 588F      	addq.l #4,%sp
68K GAS   			page 43


 1395               	.cfi_def_cfa_offset 20
 601:/home/simulink/cFS_FreeRTOS_seL4/cfe/fsw/cfe-core/src/es/cfe_es_cds_mempool.c ****             OS_MutSemGive(CFE_ES_CDSMemPool.MutexId);
 1396               	.loc 1 601 0
 1397 0c16 2039 0000 	move.l CFE_ES_CDSMemPool+24,%d0
 1397      0000 
 1398 0c1c 2F00      	move.l %d0,-(%sp)
 1399               	.cfi_def_cfa_offset 24
 1400 0c1e 4EB9 0000 	jsr OS_MutSemGive
 1400      0000 
 1401 0c24 588F      	addq.l #4,%sp
 1402               	.cfi_def_cfa_offset 20
 602:/home/simulink/cFS_FreeRTOS_seL4/cfe/fsw/cfe-core/src/es/cfe_es_cds_mempool.c ****             return(CFE_ES_ERR_MEM_HANDLE);
 1403               	.loc 1 602 0
 1404 0c26 203C C400 	move.l #-1006632953,%d0
 1404      0007 
 1405 0c2c 6000 0102 	jra .L61
 1406               	.L64:
 603:/home/simulink/cFS_FreeRTOS_seL4/cfe/fsw/cfe-core/src/es/cfe_es_cds_mempool.c ****         }
 604:/home/simulink/cFS_FreeRTOS_seL4/cfe/fsw/cfe-core/src/es/cfe_es_cds_mempool.c **** 
 605:/home/simulink/cFS_FreeRTOS_seL4/cfe/fsw/cfe-core/src/es/cfe_es_cds_mempool.c ****         BinIndex = CFE_ES_CDSGetBinIndex(CFE_ES_CDSBlockDesc.ActualSize);
 1407               	.loc 1 605 0
 1408 0c30 2039 0000 	move.l CFE_ES_CDSBlockDesc+8,%d0
 1408      0000 
 1409 0c36 2F00      	move.l %d0,-(%sp)
 1410               	.cfi_def_cfa_offset 24
 1411 0c38 4EB9 0000 	jsr CFE_ES_CDSGetBinIndex
 1411      0000 
 1412 0c3e 588F      	addq.l #4,%sp
 1413               	.cfi_def_cfa_offset 20
 1414 0c40 2F40 0008 	move.l %d0,8(%sp)
 606:/home/simulink/cFS_FreeRTOS_seL4/cfe/fsw/cfe-core/src/es/cfe_es_cds_mempool.c **** 
 607:/home/simulink/cFS_FreeRTOS_seL4/cfe/fsw/cfe-core/src/es/cfe_es_cds_mempool.c ****         /* Final sanity check on block descriptor, is the Actual size reasonable */
 608:/home/simulink/cFS_FreeRTOS_seL4/cfe/fsw/cfe-core/src/es/cfe_es_cds_mempool.c ****         if (BinIndex < 0)
 1415               	.loc 1 608 0
 1416 0c44 4AAF 0008 	tst.l 8(%sp)
 1417 0c48 6C38      	jge .L65
 609:/home/simulink/cFS_FreeRTOS_seL4/cfe/fsw/cfe-core/src/es/cfe_es_cds_mempool.c ****         {
 610:/home/simulink/cFS_FreeRTOS_seL4/cfe/fsw/cfe-core/src/es/cfe_es_cds_mempool.c ****             CFE_ES_CDSMemPool.CheckErrCntr++;
 1418               	.loc 1 610 0
 1419 0c4a 3039 0000 	move.w CFE_ES_CDSMemPool+20,%d0
 1419      0000 
 1420 0c50 5280      	addq.l #1,%d0
 1421 0c52 3000      	move.w %d0,%d0
 1422 0c54 33C0 0000 	move.w %d0,CFE_ES_CDSMemPool+20
 1422      0000 
 611:/home/simulink/cFS_FreeRTOS_seL4/cfe/fsw/cfe-core/src/es/cfe_es_cds_mempool.c ****             CFE_ES_WriteToSysLog("CFE_ES:CDSBlkRd-Invalid Block Descriptor\n");
 1423               	.loc 1 611 0
 1424 0c5a 4879 0000 	pea .LC22
 1424      0000 
 1425               	.cfi_def_cfa_offset 24
 1426 0c60 4EB9 0000 	jsr CFE_ES_WriteToSysLog
 1426      0000 
 1427 0c66 588F      	addq.l #4,%sp
 1428               	.cfi_def_cfa_offset 20
 612:/home/simulink/cFS_FreeRTOS_seL4/cfe/fsw/cfe-core/src/es/cfe_es_cds_mempool.c ****             OS_MutSemGive(CFE_ES_CDSMemPool.MutexId);
 1429               	.loc 1 612 0
 1430 0c68 2039 0000 	move.l CFE_ES_CDSMemPool+24,%d0
68K GAS   			page 44


 1430      0000 
 1431 0c6e 2F00      	move.l %d0,-(%sp)
 1432               	.cfi_def_cfa_offset 24
 1433 0c70 4EB9 0000 	jsr OS_MutSemGive
 1433      0000 
 1434 0c76 588F      	addq.l #4,%sp
 1435               	.cfi_def_cfa_offset 20
 613:/home/simulink/cFS_FreeRTOS_seL4/cfe/fsw/cfe-core/src/es/cfe_es_cds_mempool.c ****             return(CFE_ES_ERR_MEM_HANDLE);
 1436               	.loc 1 613 0
 1437 0c78 203C C400 	move.l #-1006632953,%d0
 1437      0007 
 1438 0c7e 6000 00B0 	jra .L61
 1439               	.L65:
 614:/home/simulink/cFS_FreeRTOS_seL4/cfe/fsw/cfe-core/src/es/cfe_es_cds_mempool.c ****         }
 615:/home/simulink/cFS_FreeRTOS_seL4/cfe/fsw/cfe-core/src/es/cfe_es_cds_mempool.c ****         
 616:/home/simulink/cFS_FreeRTOS_seL4/cfe/fsw/cfe-core/src/es/cfe_es_cds_mempool.c ****         /* Read the old data block */
 617:/home/simulink/cFS_FreeRTOS_seL4/cfe/fsw/cfe-core/src/es/cfe_es_cds_mempool.c ****         Status = CFE_PSP_ReadFromCDS(DataRead, (BlockHandle + sizeof(CFE_ES_CDSBlockDesc_t)), CFE_E
 1440               	.loc 1 617 0
 1441 0c82 2239 0000 	move.l CFE_ES_CDSBlockDesc+4,%d1
 1441      0000 
 1442 0c88 202F 0018 	move.l 24(%sp),%d0
 1443 0c8c 0680 0000 	add.l #20,%d0
 1443      0014 
 1444 0c92 2F01      	move.l %d1,-(%sp)
 1445               	.cfi_def_cfa_offset 24
 1446 0c94 2F00      	move.l %d0,-(%sp)
 1447               	.cfi_def_cfa_offset 28
 1448 0c96 2F2F 001C 	move.l 28(%sp),-(%sp)
 1449               	.cfi_def_cfa_offset 32
 1450 0c9a 4EB9 0000 	jsr CFE_PSP_ReadFromCDS
 1450      0000 
 1451 0ca0 4FEF 000C 	lea (12,%sp),%sp
 1452               	.cfi_def_cfa_offset 20
 1453 0ca4 2F40 000C 	move.l %d0,12(%sp)
 618:/home/simulink/cFS_FreeRTOS_seL4/cfe/fsw/cfe-core/src/es/cfe_es_cds_mempool.c ****         
 619:/home/simulink/cFS_FreeRTOS_seL4/cfe/fsw/cfe-core/src/es/cfe_es_cds_mempool.c ****         if (Status == CFE_PSP_SUCCESS)
 1454               	.loc 1 619 0
 1455 0ca8 4AAF 000C 	tst.l 12(%sp)
 1456 0cac 663E      	jne .L66
 620:/home/simulink/cFS_FreeRTOS_seL4/cfe/fsw/cfe-core/src/es/cfe_es_cds_mempool.c ****         {
 621:/home/simulink/cFS_FreeRTOS_seL4/cfe/fsw/cfe-core/src/es/cfe_es_cds_mempool.c ****             /* Compute the CRC for the data read from the CDS and determine if the data is still va
 622:/home/simulink/cFS_FreeRTOS_seL4/cfe/fsw/cfe-core/src/es/cfe_es_cds_mempool.c ****             CrcOfCDSData = CFE_ES_CalculateCRC(DataRead, CFE_ES_CDSBlockDesc.SizeUsed, 0, CFE_ES_DE
 1457               	.loc 1 622 0
 1458 0cae 2039 0000 	move.l CFE_ES_CDSBlockDesc+4,%d0
 1458      0000 
 1459 0cb4 4878 0002 	pea 2.w
 1460               	.cfi_def_cfa_offset 24
 1461 0cb8 42A7      	clr.l -(%sp)
 1462               	.cfi_def_cfa_offset 28
 1463 0cba 2F00      	move.l %d0,-(%sp)
 1464               	.cfi_def_cfa_offset 32
 1465 0cbc 2F2F 0020 	move.l 32(%sp),-(%sp)
 1466               	.cfi_def_cfa_offset 36
 1467 0cc0 4EB9 0000 	jsr CFE_ES_CalculateCRC
 1467      0000 
 1468 0cc6 4FEF 0010 	lea (16,%sp),%sp
 1469               	.cfi_def_cfa_offset 20
68K GAS   			page 45


 1470 0cca 2F40 0004 	move.l %d0,4(%sp)
 623:/home/simulink/cFS_FreeRTOS_seL4/cfe/fsw/cfe-core/src/es/cfe_es_cds_mempool.c ****             
 624:/home/simulink/cFS_FreeRTOS_seL4/cfe/fsw/cfe-core/src/es/cfe_es_cds_mempool.c ****             /* If the CRCs do not match, report an error */
 625:/home/simulink/cFS_FreeRTOS_seL4/cfe/fsw/cfe-core/src/es/cfe_es_cds_mempool.c ****             if (CrcOfCDSData != CFE_ES_CDSBlockDesc.CRC)
 1471               	.loc 1 625 0
 1472 0cce 2039 0000 	move.l CFE_ES_CDSBlockDesc+12,%d0
 1472      0000 
 1473 0cd4 B0AF 0004 	cmp.l 4(%sp),%d0
 1474 0cd8 670C      	jeq .L67
 626:/home/simulink/cFS_FreeRTOS_seL4/cfe/fsw/cfe-core/src/es/cfe_es_cds_mempool.c ****             {
 627:/home/simulink/cFS_FreeRTOS_seL4/cfe/fsw/cfe-core/src/es/cfe_es_cds_mempool.c ****                 Status = CFE_ES_CDS_BLOCK_CRC_ERR;
 1475               	.loc 1 627 0
 1476 0cda 203C C400 	move.l #-1006632934,%d0
 1476      001A 
 1477 0ce0 2F40 000C 	move.l %d0,12(%sp)
 1478 0ce4 6036      	jra .L70
 1479               	.L67:
 628:/home/simulink/cFS_FreeRTOS_seL4/cfe/fsw/cfe-core/src/es/cfe_es_cds_mempool.c ****             }
 629:/home/simulink/cFS_FreeRTOS_seL4/cfe/fsw/cfe-core/src/es/cfe_es_cds_mempool.c ****             else
 630:/home/simulink/cFS_FreeRTOS_seL4/cfe/fsw/cfe-core/src/es/cfe_es_cds_mempool.c ****             {
 631:/home/simulink/cFS_FreeRTOS_seL4/cfe/fsw/cfe-core/src/es/cfe_es_cds_mempool.c ****                 Status = CFE_SUCCESS;
 1480               	.loc 1 631 0
 1481 0ce6 42AF 000C 	clr.l 12(%sp)
 1482 0cea 6030      	jra .L70
 1483               	.L66:
 632:/home/simulink/cFS_FreeRTOS_seL4/cfe/fsw/cfe-core/src/es/cfe_es_cds_mempool.c ****             }
 633:/home/simulink/cFS_FreeRTOS_seL4/cfe/fsw/cfe-core/src/es/cfe_es_cds_mempool.c ****         }
 634:/home/simulink/cFS_FreeRTOS_seL4/cfe/fsw/cfe-core/src/es/cfe_es_cds_mempool.c ****         else
 635:/home/simulink/cFS_FreeRTOS_seL4/cfe/fsw/cfe-core/src/es/cfe_es_cds_mempool.c ****         {
 636:/home/simulink/cFS_FreeRTOS_seL4/cfe/fsw/cfe-core/src/es/cfe_es_cds_mempool.c ****             CFE_ES_WriteToSysLog("CFE_ES:CDSBlkRd-Err reading block from CDS (Stat=0x%08x) @Offset=
 1484               	.loc 1 636 0
 1485 0cec 202F 000C 	move.l 12(%sp),%d0
 1486 0cf0 2F2F 0018 	move.l 24(%sp),-(%sp)
 1487               	.cfi_def_cfa_offset 24
 1488 0cf4 2F00      	move.l %d0,-(%sp)
 1489               	.cfi_def_cfa_offset 28
 1490 0cf6 4879 0000 	pea .LC23
 1490      0000 
 1491               	.cfi_def_cfa_offset 32
 1492 0cfc 4EB9 0000 	jsr CFE_ES_WriteToSysLog
 1492      0000 
 1493 0d02 4FEF 000C 	lea (12,%sp),%sp
 1494               	.cfi_def_cfa_offset 20
 1495 0d06 6014      	jra .L70
 1496               	.L62:
 637:/home/simulink/cFS_FreeRTOS_seL4/cfe/fsw/cfe-core/src/es/cfe_es_cds_mempool.c ****                     (unsigned int)Status, (unsigned int)BlockHandle);
 638:/home/simulink/cFS_FreeRTOS_seL4/cfe/fsw/cfe-core/src/es/cfe_es_cds_mempool.c ****         }
 639:/home/simulink/cFS_FreeRTOS_seL4/cfe/fsw/cfe-core/src/es/cfe_es_cds_mempool.c ****     }
 640:/home/simulink/cFS_FreeRTOS_seL4/cfe/fsw/cfe-core/src/es/cfe_es_cds_mempool.c ****     else
 641:/home/simulink/cFS_FreeRTOS_seL4/cfe/fsw/cfe-core/src/es/cfe_es_cds_mempool.c ****     {
 642:/home/simulink/cFS_FreeRTOS_seL4/cfe/fsw/cfe-core/src/es/cfe_es_cds_mempool.c ****         CFE_ES_WriteToSysLog("CFE_ES:CDSBlkRd-Err reading from CDS (Stat=0x%08x)\n", (unsigned int)
 1497               	.loc 1 642 0
 1498 0d08 202F 000C 	move.l 12(%sp),%d0
 1499 0d0c 2F00      	move.l %d0,-(%sp)
 1500               	.cfi_def_cfa_offset 24
 1501 0d0e 4879 0000 	pea .LC24
 1501      0000 
68K GAS   			page 46


 1502               	.cfi_def_cfa_offset 28
 1503 0d14 4EB9 0000 	jsr CFE_ES_WriteToSysLog
 1503      0000 
 1504 0d1a 508F      	addq.l #8,%sp
 1505               	.cfi_def_cfa_offset 20
 1506               	.L70:
 643:/home/simulink/cFS_FreeRTOS_seL4/cfe/fsw/cfe-core/src/es/cfe_es_cds_mempool.c ****     }
 644:/home/simulink/cFS_FreeRTOS_seL4/cfe/fsw/cfe-core/src/es/cfe_es_cds_mempool.c **** 
 645:/home/simulink/cFS_FreeRTOS_seL4/cfe/fsw/cfe-core/src/es/cfe_es_cds_mempool.c ****     OS_MutSemGive(CFE_ES_CDSMemPool.MutexId);
 1507               	.loc 1 645 0
 1508 0d1c 2039 0000 	move.l CFE_ES_CDSMemPool+24,%d0
 1508      0000 
 1509 0d22 2F00      	move.l %d0,-(%sp)
 1510               	.cfi_def_cfa_offset 24
 1511 0d24 4EB9 0000 	jsr OS_MutSemGive
 1511      0000 
 1512 0d2a 588F      	addq.l #4,%sp
 1513               	.cfi_def_cfa_offset 20
 646:/home/simulink/cFS_FreeRTOS_seL4/cfe/fsw/cfe-core/src/es/cfe_es_cds_mempool.c ****     
 647:/home/simulink/cFS_FreeRTOS_seL4/cfe/fsw/cfe-core/src/es/cfe_es_cds_mempool.c ****     return Status;
 1514               	.loc 1 647 0
 1515 0d2c 202F 000C 	move.l 12(%sp),%d0
 1516               	.L61:
 648:/home/simulink/cFS_FreeRTOS_seL4/cfe/fsw/cfe-core/src/es/cfe_es_cds_mempool.c **** }
 1517               	.loc 1 648 0
 1518 0d30 241F      	move.l (%sp)+,%d2
 1519 0d32 4FEF 000C 	lea (12,%sp),%sp
 1520 0d36 4E75      	rts
 1521               	.cfi_endproc
 1522               	.LFE65:
 1523               	.sizeCFE_ES_CDSBlockRead, .-CFE_ES_CDSBlockRead
 1524               	.align2
 1525               	.globlCFE_ES_CDSReqdMinSize
 1526               	.typeCFE_ES_CDSReqdMinSize, @function
 1527               	CFE_ES_CDSReqdMinSize:
 1528               	.LFB66:
 649:/home/simulink/cFS_FreeRTOS_seL4/cfe/fsw/cfe-core/src/es/cfe_es_cds_mempool.c **** 
 650:/home/simulink/cFS_FreeRTOS_seL4/cfe/fsw/cfe-core/src/es/cfe_es_cds_mempool.c **** /*
 651:/home/simulink/cFS_FreeRTOS_seL4/cfe/fsw/cfe-core/src/es/cfe_es_cds_mempool.c **** ** Function:
 652:/home/simulink/cFS_FreeRTOS_seL4/cfe/fsw/cfe-core/src/es/cfe_es_cds_mempool.c **** **   CFE_ES_CDSReqdMinSize
 653:/home/simulink/cFS_FreeRTOS_seL4/cfe/fsw/cfe-core/src/es/cfe_es_cds_mempool.c **** **
 654:/home/simulink/cFS_FreeRTOS_seL4/cfe/fsw/cfe-core/src/es/cfe_es_cds_mempool.c **** ** Purpose:
 655:/home/simulink/cFS_FreeRTOS_seL4/cfe/fsw/cfe-core/src/es/cfe_es_cds_mempool.c **** **
 656:/home/simulink/cFS_FreeRTOS_seL4/cfe/fsw/cfe-core/src/es/cfe_es_cds_mempool.c **** */
 657:/home/simulink/cFS_FreeRTOS_seL4/cfe/fsw/cfe-core/src/es/cfe_es_cds_mempool.c **** uint32 CFE_ES_CDSReqdMinSize(uint32 MaxNumBlocksToSupport)
 658:/home/simulink/cFS_FreeRTOS_seL4/cfe/fsw/cfe-core/src/es/cfe_es_cds_mempool.c **** {
 1529               	.loc 1 658 0
 1530               	.cfi_startproc
 1531 0d38 598F      	subq.l #4,%sp
 1532               	.cfi_def_cfa_offset 8
 659:/home/simulink/cFS_FreeRTOS_seL4/cfe/fsw/cfe-core/src/es/cfe_es_cds_mempool.c ****     uint32 i;
 660:/home/simulink/cFS_FreeRTOS_seL4/cfe/fsw/cfe-core/src/es/cfe_es_cds_mempool.c **** 
 661:/home/simulink/cFS_FreeRTOS_seL4/cfe/fsw/cfe-core/src/es/cfe_es_cds_mempool.c ****     for (i=0; i<CFE_ES_CDS_NUM_BLOCK_SIZES; i++)
 1533               	.loc 1 661 0
 1534 0d3a 4297      	clr.l (%sp)
 1535 0d3c 6028      	jra .L72
 1536               	.L74:
68K GAS   			page 47


 662:/home/simulink/cFS_FreeRTOS_seL4/cfe/fsw/cfe-core/src/es/cfe_es_cds_mempool.c ****     {
 663:/home/simulink/cFS_FreeRTOS_seL4/cfe/fsw/cfe-core/src/es/cfe_es_cds_mempool.c ****         /* Assume the last non-zero block size is the minimum block size */
 664:/home/simulink/cFS_FreeRTOS_seL4/cfe/fsw/cfe-core/src/es/cfe_es_cds_mempool.c ****         if (CFE_ES_CDSMemPoolDefSize[i] > 0)
 1537               	.loc 1 664 0
 1538 0d3e 2017      	move.l (%sp),%d0
 1539 0d40 E588      	lsl.l #2,%d0
 1540 0d42 41F9 0000 	lea CFE_ES_CDSMemPoolDefSize,%a0
 1540      0000 
 1541 0d48 2030 0800 	move.l (%a0,%d0.l),%d0
 1542 0d4c 4A80      	tst.l %d0
 1543 0d4e 6714      	jeq .L73
 665:/home/simulink/cFS_FreeRTOS_seL4/cfe/fsw/cfe-core/src/es/cfe_es_cds_mempool.c ****         {
 666:/home/simulink/cFS_FreeRTOS_seL4/cfe/fsw/cfe-core/src/es/cfe_es_cds_mempool.c ****             CFE_ES_CDSMemPool.MinBlockSize = CFE_ES_CDSMemPoolDefSize[i];
 1544               	.loc 1 666 0
 1545 0d50 2017      	move.l (%sp),%d0
 1546 0d52 E588      	lsl.l #2,%d0
 1547 0d54 41F9 0000 	lea CFE_ES_CDSMemPoolDefSize,%a0
 1547      0000 
 1548 0d5a 2030 0800 	move.l (%a0,%d0.l),%d0
 1549 0d5e 23C0 0000 	move.l %d0,CFE_ES_CDSMemPool+28
 1549      0000 
 1550               	.L73:
 661:/home/simulink/cFS_FreeRTOS_seL4/cfe/fsw/cfe-core/src/es/cfe_es_cds_mempool.c ****     {
 1551               	.loc 1 661 0 discriminator 2
 1552 0d64 5297      	addq.l #1,(%sp)
 1553               	.L72:
 661:/home/simulink/cFS_FreeRTOS_seL4/cfe/fsw/cfe-core/src/es/cfe_es_cds_mempool.c ****     {
 1554               	.loc 1 661 0 is_stmt 0 discriminator 1
 1555 0d66 7010      	moveq #16,%d0
 1556 0d68 B097      	cmp.l (%sp),%d0
 1557 0d6a 64D2      	jcc .L74
 667:/home/simulink/cFS_FreeRTOS_seL4/cfe/fsw/cfe-core/src/es/cfe_es_cds_mempool.c ****         }
 668:/home/simulink/cFS_FreeRTOS_seL4/cfe/fsw/cfe-core/src/es/cfe_es_cds_mempool.c ****     }
 669:/home/simulink/cFS_FreeRTOS_seL4/cfe/fsw/cfe-core/src/es/cfe_es_cds_mempool.c ****     
 670:/home/simulink/cFS_FreeRTOS_seL4/cfe/fsw/cfe-core/src/es/cfe_es_cds_mempool.c ****      return (MaxNumBlocksToSupport * (sizeof(CFE_ES_CDSBlockDesc_t)+CFE_ES_CDSMemPool.MinBlockSize)
 1558               	.loc 1 670 0 is_stmt 1
 1559 0d6c 2039 0000 	move.l CFE_ES_CDSMemPool+28,%d0
 1559      0000 
 1560 0d72 0680 0000 	add.l #20,%d0
 1560      0014 
 1561 0d78 41EF 0008 	lea (8,%sp),%a0
 1562 0d7c 4C10 0800 	muls.l (%a0),%d0
 671:/home/simulink/cFS_FreeRTOS_seL4/cfe/fsw/cfe-core/src/es/cfe_es_cds_mempool.c **** }
 1563               	.loc 1 671 0
 1564 0d80 588F      	addq.l #4,%sp
 1565 0d82 4E75      	rts
 1566               	.cfi_endproc
 1567               	.LFE66:
 1568               	.sizeCFE_ES_CDSReqdMinSize, .-CFE_ES_CDSReqdMinSize
 1569               	.Letext0:
 1570               	.file 2 "/home/simulink/cFS_FreeRTOS_seL4/osal/src/os/inc/common_types.h"
 1571               	.file 3 "/home/simulink/development/rtems/5/m68k-rtems5/include/machine/_default_types.h"
 1572               	.file 4 "/home/simulink/development/rtems/5/m68k-rtems5/include/machine/_types.h"
 1573               	.file 5 "/home/simulink/development/rtems/5/m68k-rtems5/include/sys/lock.h"
 1574               	.file 6 "/home/simulink/development/rtems/5/m68k-rtems5/include/sys/_types.h"
 1575               	.file 7 "/home/simulink/development/rtems/5/lib/gcc/m68k-rtems5/7.3.0/include/stddef.h"
 1576               	.file 8 "/home/simulink/development/rtems/5/m68k-rtems5/include/sys/reent.h"
68K GAS   			page 48


 1577               	.file 9 "/home/simulink/development/rtems/5/m68k-rtems5/include/stdlib.h"
 1578               	.file 10 "/home/simulink/development/rtems/5/m68k-rtems5/include/time.h"
 1579               	.file 11 "/home/simulink/cFS_FreeRTOS_seL4/cfe/fsw/cfe-core/src/inc/cfe_time.h"
 1580               	.file 12 "/home/simulink/cFS_FreeRTOS_seL4/cfe/fsw/cfe-core/src/inc/cfe_sb.h"
 1581               	.file 13 "/home/simulink/cFS_FreeRTOS_seL4/cfe/fsw/cfe-core/src/inc/cfe_evs_msg.h"
 1582               	.file 14 "/home/simulink/cFS_FreeRTOS_seL4/cfe/fsw/cfe-core/src/es/cfe_es_cds_mempool.h"
 1583               	.file 15 "/home/simulink/cFS_FreeRTOS_seL4/cfe/fsw/cfe-core/src/inc/private/cfe_es_erlog_typedef.h"
 1584               	.file 16 "/home/simulink/cFS_FreeRTOS_seL4/cfe/fsw/cfe-core/src/inc/private/cfe_es_perfdata_typedef.h"
 1585               	.file 17 "/home/simulink/cFS_FreeRTOS_seL4/cfe/fsw/cfe-core/src/inc/private/cfe_evs_log_typedef.h"
 1586               	.file 18 "/home/simulink/cFS_FreeRTOS_seL4/cfe/fsw/cfe-core/src/inc/private/cfe_es_resetdata_typedef.h"
 1587               	.file 19 "/home/simulink/cFS_FreeRTOS_seL4/cfe/fsw/cfe-core/src/es/cfe_es_apps.h"
 1588               	.file 20 "/home/simulink/cFS_FreeRTOS_seL4/cfe/fsw/cfe-core/src/es/cfe_es_cds.h"
 1589               	.file 21 "/home/simulink/cFS_FreeRTOS_seL4/cfe/fsw/cfe-core/src/es/cfe_es_perf.h"
 1590               	.file 22 "/home/simulink/cFS_FreeRTOS_seL4/cfe/fsw/cfe-core/src/es/cfe_es_global.h"
 1591               	.section.debug_info,"",@progbits
 1592               	.Ldebug_info0:
 1593 0000 0000 1825 	.long0x1825
 1594 0004 0004      	.word0x4
 1595 0006 0000 0000 	.long.Ldebug_abbrev0
 1596 000a 04        	.byte0x4
 1597 000b 01        	.uleb128 0x1
 1598 000c 0000 0000 	.long.LASF345
 1599 0010 0C        	.byte0xc
 1600 0011 0000 0000 	.long.LASF346
 1601 0015 0000 0000 	.long.LASF347
 1602 0019 0000 0000 	.long.Ltext0
 1603 001d 0000 0D84 	.long.Letext0-.Ltext0
 1604 0021 0000 0000 	.long.Ldebug_line0
 1605 0025 02        	.uleb128 0x2
 1606 0026 0000 0000 	.long.LASF2
 1607 002a 02        	.byte0x2
 1608 002b E6        	.byte0xe6
 1609 002c 0000 0030 	.long0x30
 1610 0030 03        	.uleb128 0x3
 1611 0031 01        	.byte0x1
 1612 0032 08        	.byte0x8
 1613 0033 0000 0000 	.long.LASF0
 1614 0037 03        	.uleb128 0x3
 1615 0038 01        	.byte0x1
 1616 0039 06        	.byte0x6
 1617 003a 0000 0000 	.long.LASF1
 1618 003e 02        	.uleb128 0x2
 1619 003f 0000 0000 	.long.LASF3
 1620 0043 02        	.byte0x2
 1621 0044 E8        	.byte0xe8
 1622 0045 0000 0049 	.long0x49
 1623 0049 03        	.uleb128 0x3
 1624 004a 02        	.byte0x2
 1625 004b 05        	.byte0x5
 1626 004c 0000 0000 	.long.LASF4
 1627 0050 02        	.uleb128 0x2
 1628 0051 0000 0000 	.long.LASF5
 1629 0055 02        	.byte0x2
 1630 0056 E9        	.byte0xe9
 1631 0057 0000 005B 	.long0x5b
 1632 005b 03        	.uleb128 0x3
 1633 005c 04        	.byte0x4
68K GAS   			page 49


 1634 005d 05        	.byte0x5
 1635 005e 0000 0000 	.long.LASF6
 1636 0062 03        	.uleb128 0x3
 1637 0063 08        	.byte0x8
 1638 0064 05        	.byte0x5
 1639 0065 0000 0000 	.long.LASF7
 1640 0069 02        	.uleb128 0x2
 1641 006a 0000 0000 	.long.LASF8
 1642 006e 02        	.byte0x2
 1643 006f EB        	.byte0xeb
 1644 0070 0000 0030 	.long0x30
 1645 0074 02        	.uleb128 0x2
 1646 0075 0000 0000 	.long.LASF9
 1647 0079 02        	.byte0x2
 1648 007a EC        	.byte0xec
 1649 007b 0000 007F 	.long0x7f
 1650 007f 03        	.uleb128 0x3
 1651 0080 02        	.byte0x2
 1652 0081 07        	.byte0x7
 1653 0082 0000 0000 	.long.LASF10
 1654 0086 02        	.uleb128 0x2
 1655 0087 0000 0000 	.long.LASF11
 1656 008b 02        	.byte0x2
 1657 008c ED        	.byte0xed
 1658 008d 0000 0091 	.long0x91
 1659 0091 03        	.uleb128 0x3
 1660 0092 04        	.byte0x4
 1661 0093 07        	.byte0x7
 1662 0094 0000 0000 	.long.LASF12
 1663 0098 03        	.uleb128 0x3
 1664 0099 08        	.byte0x8
 1665 009a 07        	.byte0x7
 1666 009b 0000 0000 	.long.LASF13
 1667 009f 02        	.uleb128 0x2
 1668 00a0 0000 0000 	.long.LASF14
 1669 00a4 02        	.byte0x2
 1670 00a5 F0        	.byte0xf0
 1671 00a6 0000 0091 	.long0x91
 1672 00aa 04        	.uleb128 0x4
 1673 00ab 0000 0000 	.long.LASF15
 1674 00af 02        	.byte0x2
 1675 00b0 0131      	.word0x131
 1676 00b2 0000 0025 	.long0x25
 1677 00b6 03        	.uleb128 0x3
 1678 00b7 01        	.byte0x1
 1679 00b8 06        	.byte0x6
 1680 00b9 0000 0000 	.long.LASF16
 1681 00bd 05        	.uleb128 0x5
 1682 00be 0000 00B6 	.long0xb6
 1683 00c2 06        	.uleb128 0x6
 1684 00c3 0000 00B6 	.long0xb6
 1685 00c7 0000 00D2 	.long0xd2
 1686 00cb 07        	.uleb128 0x7
 1687 00cc 0000 0091 	.long0x91
 1688 00d0 13        	.byte0x13
 1689 00d1 00        	.byte0
 1690 00d2 08        	.uleb128 0x8
68K GAS   			page 50


 1691 00d3 04        	.byte0x4
 1692 00d4 02        	.uleb128 0x2
 1693 00d5 0000 0000 	.long.LASF17
 1694 00d9 03        	.byte0x3
 1695 00da 67        	.byte0x67
 1696 00db 0000 0062 	.long0x62
 1697 00df 03        	.uleb128 0x3
 1698 00e0 08        	.byte0x8
 1699 00e1 04        	.byte0x4
 1700 00e2 0000 0000 	.long.LASF18
 1701 00e6 02        	.uleb128 0x2
 1702 00e7 0000 0000 	.long.LASF19
 1703 00eb 04        	.byte0x4
 1704 00ec 10        	.byte0x10
 1705 00ed 0000 00D4 	.long0xd4
 1706 00f1 02        	.uleb128 0x2
 1707 00f2 0000 0000 	.long.LASF20
 1708 00f6 04        	.byte0x4
 1709 00f7 16        	.byte0x16
 1710 00f8 0000 00E6 	.long0xe6
 1711 00fc 09        	.uleb128 0x9
 1712 00fd 04        	.byte0x4
 1713 00fe 05        	.byte0x5
 1714 00ff 696E 7400 	.string"int"
 1715 0103 0A        	.uleb128 0xa
 1716 0104 0000 0000 	.long.LASF24
 1717 0108 08        	.byte0x8
 1718 0109 05        	.byte0x5
 1719 010a 28        	.byte0x28
 1720 010b 0000 0128 	.long0x128
 1721 010f 0B        	.uleb128 0xb
 1722 0110 0000 0000 	.long.LASF21
 1723 0114 05        	.byte0x5
 1724 0115 29        	.byte0x29
 1725 0116 0000 0128 	.long0x128
 1726 011a 00        	.byte0
 1727 011b 0B        	.uleb128 0xb
 1728 011c 0000 0000 	.long.LASF22
 1729 0120 05        	.byte0x5
 1730 0121 2A        	.byte0x2a
 1731 0122 0000 0128 	.long0x128
 1732 0126 04        	.byte0x4
 1733 0127 00        	.byte0
 1734 0128 03        	.uleb128 0x3
 1735 0129 04        	.byte0x4
 1736 012a 07        	.byte0x7
 1737 012b 0000 0000 	.long.LASF23
 1738 012f 0A        	.uleb128 0xa
 1739 0130 0000 0000 	.long.LASF25
 1740 0134 14        	.byte0x14
 1741 0135 05        	.byte0x5
 1742 0136 2D        	.byte0x2d
 1743 0137 0000 016C 	.long0x16c
 1744 013b 0B        	.uleb128 0xb
 1745 013c 0000 0000 	.long.LASF26
 1746 0140 05        	.byte0x5
 1747 0141 2E        	.byte0x2e
68K GAS   			page 51


 1748 0142 0000 0103 	.long0x103
 1749 0146 00        	.byte0
 1750 0147 0B        	.uleb128 0xb
 1751 0148 0000 0000 	.long.LASF27
 1752 014c 05        	.byte0x5
 1753 014d 2F        	.byte0x2f
 1754 014e 0000 0171 	.long0x171
 1755 0152 08        	.byte0x8
 1756 0153 0B        	.uleb128 0xb
 1757 0154 0000 0000 	.long.LASF28
 1758 0158 05        	.byte0x5
 1759 0159 30        	.byte0x30
 1760 015a 0000 017C 	.long0x17c
 1761 015e 0C        	.byte0xc
 1762 015f 0B        	.uleb128 0xb
 1763 0160 0000 0000 	.long.LASF29
 1764 0164 05        	.byte0x5
 1765 0165 31        	.byte0x31
 1766 0166 0000 0182 	.long0x182
 1767 016a 10        	.byte0x10
 1768 016b 00        	.byte0
 1769 016c 0C        	.uleb128 0xc
 1770 016d 0000 0000 	.long.LASF30
 1771 0171 0D        	.uleb128 0xd
 1772 0172 04        	.byte0x4
 1773 0173 0000 016C 	.long0x16c
 1774 0177 0C        	.uleb128 0xc
 1775 0178 0000 0000 	.long.LASF31
 1776 017c 0D        	.uleb128 0xd
 1777 017d 04        	.byte0x4
 1778 017e 0000 0177 	.long0x177
 1779 0182 0D        	.uleb128 0xd
 1780 0183 04        	.byte0x4
 1781 0184 0000 00BD 	.long0xbd
 1782 0188 0A        	.uleb128 0xa
 1783 0189 0000 0000 	.long.LASF32
 1784 018d 14        	.byte0x14
 1785 018e 05        	.byte0x5
 1786 018f 34        	.byte0x34
 1787 0190 0000 01A1 	.long0x1a1
 1788 0194 0B        	.uleb128 0xb
 1789 0195 0000 0000 	.long.LASF33
 1790 0199 05        	.byte0x5
 1791 019a 35        	.byte0x35
 1792 019b 0000 012F 	.long0x12f
 1793 019f 00        	.byte0
 1794 01a0 00        	.byte0
 1795 01a1 0A        	.uleb128 0xa
 1796 01a2 0000 0000 	.long.LASF34
 1797 01a6 18        	.byte0x18
 1798 01a7 05        	.byte0x5
 1799 01a8 38        	.byte0x38
 1800 01a9 0000 01C6 	.long0x1c6
 1801 01ad 0B        	.uleb128 0xb
 1802 01ae 0000 0000 	.long.LASF35
 1803 01b2 05        	.byte0x5
 1804 01b3 39        	.byte0x39
68K GAS   			page 52


 1805 01b4 0000 0188 	.long0x188
 1806 01b8 00        	.byte0
 1807 01b9 0B        	.uleb128 0xb
 1808 01ba 0000 0000 	.long.LASF36
 1809 01be 05        	.byte0x5
 1810 01bf 3A        	.byte0x3a
 1811 01c0 0000 0128 	.long0x128
 1812 01c4 14        	.byte0x14
 1813 01c5 00        	.byte0
 1814 01c6 04        	.uleb128 0x4
 1815 01c7 0000 0000 	.long.LASF37
 1816 01cb 05        	.byte0x5
 1817 01cc 0171      	.word0x171
 1818 01ce 0000 01A1 	.long0x1a1
 1819 01d2 02        	.uleb128 0x2
 1820 01d3 0000 0000 	.long.LASF38
 1821 01d7 06        	.byte0x6
 1822 01d8 91        	.byte0x91
 1823 01d9 0000 005B 	.long0x5b
 1824 01dd 04        	.uleb128 0x4
 1825 01de 0000 0000 	.long.LASF39
 1826 01e2 07        	.byte0x7
 1827 01e3 0165      	.word0x165
 1828 01e5 0000 0128 	.long0x128
 1829 01e9 0E        	.uleb128 0xe
 1830 01ea 04        	.byte0x4
 1831 01eb 06        	.byte0x6
 1832 01ec A6        	.byte0xa6
 1833 01ed 0000 0208 	.long0x208
 1834 01f1 0F        	.uleb128 0xf
 1835 01f2 0000 0000 	.long.LASF40
 1836 01f6 06        	.byte0x6
 1837 01f7 A8        	.byte0xa8
 1838 01f8 0000 01DD 	.long0x1dd
 1839 01fc 0F        	.uleb128 0xf
 1840 01fd 0000 0000 	.long.LASF41
 1841 0201 06        	.byte0x6
 1842 0202 A9        	.byte0xa9
 1843 0203 0000 0208 	.long0x208
 1844 0207 00        	.byte0
 1845 0208 06        	.uleb128 0x6
 1846 0209 0000 0030 	.long0x30
 1847 020d 0000 0218 	.long0x218
 1848 0211 07        	.uleb128 0x7
 1849 0212 0000 0091 	.long0x91
 1850 0216 03        	.byte0x3
 1851 0217 00        	.byte0
 1852 0218 10        	.uleb128 0x10
 1853 0219 08        	.byte0x8
 1854 021a 06        	.byte0x6
 1855 021b A3        	.byte0xa3
 1856 021c 0000 0239 	.long0x239
 1857 0220 0B        	.uleb128 0xb
 1858 0221 0000 0000 	.long.LASF42
 1859 0225 06        	.byte0x6
 1860 0226 A5        	.byte0xa5
 1861 0227 0000 00FC 	.long0xfc
68K GAS   			page 53


 1862 022b 00        	.byte0
 1863 022c 0B        	.uleb128 0xb
 1864 022d 0000 0000 	.long.LASF43
 1865 0231 06        	.byte0x6
 1866 0232 AA        	.byte0xaa
 1867 0233 0000 01E9 	.long0x1e9
 1868 0237 04        	.byte0x4
 1869 0238 00        	.byte0
 1870 0239 02        	.uleb128 0x2
 1871 023a 0000 0000 	.long.LASF44
 1872 023e 06        	.byte0x6
 1873 023f AB        	.byte0xab
 1874 0240 0000 0218 	.long0x218
 1875 0244 02        	.uleb128 0x2
 1876 0245 0000 0000 	.long.LASF45
 1877 0249 06        	.byte0x6
 1878 024a AF        	.byte0xaf
 1879 024b 0000 01C6 	.long0x1c6
 1880 024f 02        	.uleb128 0x2
 1881 0250 0000 0000 	.long.LASF46
 1882 0254 08        	.byte0x8
 1883 0255 16        	.byte0x16
 1884 0256 0000 0091 	.long0x91
 1885 025a 0A        	.uleb128 0xa
 1886 025b 0000 0000 	.long.LASF47
 1887 025f 18        	.byte0x18
 1888 0260 08        	.byte0x8
 1889 0261 2F        	.byte0x2f
 1890 0262 0000 02AD 	.long0x2ad
 1891 0266 0B        	.uleb128 0xb
 1892 0267 0000 0000 	.long.LASF48
 1893 026b 08        	.byte0x8
 1894 026c 31        	.byte0x31
 1895 026d 0000 02AD 	.long0x2ad
 1896 0271 00        	.byte0
 1897 0272 11        	.uleb128 0x11
 1898 0273 5F6B 00   	.string"_k"
 1899 0276 08        	.byte0x8
 1900 0277 32        	.byte0x32
 1901 0278 0000 00FC 	.long0xfc
 1902 027c 04        	.byte0x4
 1903 027d 0B        	.uleb128 0xb
 1904 027e 0000 0000 	.long.LASF49
 1905 0282 08        	.byte0x8
 1906 0283 32        	.byte0x32
 1907 0284 0000 00FC 	.long0xfc
 1908 0288 08        	.byte0x8
 1909 0289 0B        	.uleb128 0xb
 1910 028a 0000 0000 	.long.LASF50
 1911 028e 08        	.byte0x8
 1912 028f 32        	.byte0x32
 1913 0290 0000 00FC 	.long0xfc
 1914 0294 0C        	.byte0xc
 1915 0295 0B        	.uleb128 0xb
 1916 0296 0000 0000 	.long.LASF51
 1917 029a 08        	.byte0x8
 1918 029b 32        	.byte0x32
68K GAS   			page 54


 1919 029c 0000 00FC 	.long0xfc
 1920 02a0 10        	.byte0x10
 1921 02a1 11        	.uleb128 0x11
 1922 02a2 5F78 00   	.string"_x"
 1923 02a5 08        	.byte0x8
 1924 02a6 33        	.byte0x33
 1925 02a7 0000 02B3 	.long0x2b3
 1926 02ab 14        	.byte0x14
 1927 02ac 00        	.byte0
 1928 02ad 0D        	.uleb128 0xd
 1929 02ae 04        	.byte0x4
 1930 02af 0000 025A 	.long0x25a
 1931 02b3 06        	.uleb128 0x6
 1932 02b4 0000 024F 	.long0x24f
 1933 02b8 0000 02C3 	.long0x2c3
 1934 02bc 07        	.uleb128 0x7
 1935 02bd 0000 0091 	.long0x91
 1936 02c1 00        	.byte0
 1937 02c2 00        	.byte0
 1938 02c3 0A        	.uleb128 0xa
 1939 02c4 0000 0000 	.long.LASF52
 1940 02c8 24        	.byte0x24
 1941 02c9 08        	.byte0x8
 1942 02ca 37        	.byte0x37
 1943 02cb 0000 033C 	.long0x33c
 1944 02cf 0B        	.uleb128 0xb
 1945 02d0 0000 0000 	.long.LASF53
 1946 02d4 08        	.byte0x8
 1947 02d5 39        	.byte0x39
 1948 02d6 0000 00FC 	.long0xfc
 1949 02da 00        	.byte0
 1950 02db 0B        	.uleb128 0xb
 1951 02dc 0000 0000 	.long.LASF54
 1952 02e0 08        	.byte0x8
 1953 02e1 3A        	.byte0x3a
 1954 02e2 0000 00FC 	.long0xfc
 1955 02e6 04        	.byte0x4
 1956 02e7 0B        	.uleb128 0xb
 1957 02e8 0000 0000 	.long.LASF55
 1958 02ec 08        	.byte0x8
 1959 02ed 3B        	.byte0x3b
 1960 02ee 0000 00FC 	.long0xfc
 1961 02f2 08        	.byte0x8
 1962 02f3 0B        	.uleb128 0xb
 1963 02f4 0000 0000 	.long.LASF56
 1964 02f8 08        	.byte0x8
 1965 02f9 3C        	.byte0x3c
 1966 02fa 0000 00FC 	.long0xfc
 1967 02fe 0C        	.byte0xc
 1968 02ff 0B        	.uleb128 0xb
 1969 0300 0000 0000 	.long.LASF57
 1970 0304 08        	.byte0x8
 1971 0305 3D        	.byte0x3d
 1972 0306 0000 00FC 	.long0xfc
 1973 030a 10        	.byte0x10
 1974 030b 0B        	.uleb128 0xb
 1975 030c 0000 0000 	.long.LASF58
68K GAS   			page 55


 1976 0310 08        	.byte0x8
 1977 0311 3E        	.byte0x3e
 1978 0312 0000 00FC 	.long0xfc
 1979 0316 14        	.byte0x14
 1980 0317 0B        	.uleb128 0xb
 1981 0318 0000 0000 	.long.LASF59
 1982 031c 08        	.byte0x8
 1983 031d 3F        	.byte0x3f
 1984 031e 0000 00FC 	.long0xfc
 1985 0322 18        	.byte0x18
 1986 0323 0B        	.uleb128 0xb
 1987 0324 0000 0000 	.long.LASF60
 1988 0328 08        	.byte0x8
 1989 0329 40        	.byte0x40
 1990 032a 0000 00FC 	.long0xfc
 1991 032e 1C        	.byte0x1c
 1992 032f 0B        	.uleb128 0xb
 1993 0330 0000 0000 	.long.LASF61
 1994 0334 08        	.byte0x8
 1995 0335 41        	.byte0x41
 1996 0336 0000 00FC 	.long0xfc
 1997 033a 20        	.byte0x20
 1998 033b 00        	.byte0
 1999 033c 12        	.uleb128 0x12
 2000 033d 0000 0000 	.long.LASF62
 2001 0341 0108      	.word0x108
 2002 0343 08        	.byte0x8
 2003 0344 4A        	.byte0x4a
 2004 0345 0000 037C 	.long0x37c
 2005 0349 0B        	.uleb128 0xb
 2006 034a 0000 0000 	.long.LASF63
 2007 034e 08        	.byte0x8
 2008 034f 4B        	.byte0x4b
 2009 0350 0000 037C 	.long0x37c
 2010 0354 00        	.byte0
 2011 0355 0B        	.uleb128 0xb
 2012 0356 0000 0000 	.long.LASF64
 2013 035a 08        	.byte0x8
 2014 035b 4C        	.byte0x4c
 2015 035c 0000 037C 	.long0x37c
 2016 0360 80        	.byte0x80
 2017 0361 13        	.uleb128 0x13
 2018 0362 0000 0000 	.long.LASF65
 2019 0366 08        	.byte0x8
 2020 0367 4E        	.byte0x4e
 2021 0368 0000 024F 	.long0x24f
 2022 036c 0100      	.word0x100
 2023 036e 13        	.uleb128 0x13
 2024 036f 0000 0000 	.long.LASF66
 2025 0373 08        	.byte0x8
 2026 0374 51        	.byte0x51
 2027 0375 0000 024F 	.long0x24f
 2028 0379 0104      	.word0x104
 2029 037b 00        	.byte0
 2030 037c 06        	.uleb128 0x6
 2031 037d 0000 00D2 	.long0xd2
 2032 0381 0000 038C 	.long0x38c
68K GAS   			page 56


 2033 0385 07        	.uleb128 0x7
 2034 0386 0000 0091 	.long0x91
 2035 038a 1F        	.byte0x1f
 2036 038b 00        	.byte0
 2037 038c 12        	.uleb128 0x12
 2038 038d 0000 0000 	.long.LASF67
 2039 0391 0190      	.word0x190
 2040 0393 08        	.byte0x8
 2041 0394 5D        	.byte0x5d
 2042 0395 0000 03CA 	.long0x3ca
 2043 0399 0B        	.uleb128 0xb
 2044 039a 0000 0000 	.long.LASF48
 2045 039e 08        	.byte0x8
 2046 039f 5E        	.byte0x5e
 2047 03a0 0000 03CA 	.long0x3ca
 2048 03a4 00        	.byte0
 2049 03a5 0B        	.uleb128 0xb
 2050 03a6 0000 0000 	.long.LASF68
 2051 03aa 08        	.byte0x8
 2052 03ab 5F        	.byte0x5f
 2053 03ac 0000 00FC 	.long0xfc
 2054 03b0 04        	.byte0x4
 2055 03b1 0B        	.uleb128 0xb
 2056 03b2 0000 0000 	.long.LASF69
 2057 03b6 08        	.byte0x8
 2058 03b7 61        	.byte0x61
 2059 03b8 0000 03D0 	.long0x3d0
 2060 03bc 08        	.byte0x8
 2061 03bd 0B        	.uleb128 0xb
 2062 03be 0000 0000 	.long.LASF62
 2063 03c2 08        	.byte0x8
 2064 03c3 62        	.byte0x62
 2065 03c4 0000 033C 	.long0x33c
 2066 03c8 88        	.byte0x88
 2067 03c9 00        	.byte0
 2068 03ca 0D        	.uleb128 0xd
 2069 03cb 04        	.byte0x4
 2070 03cc 0000 038C 	.long0x38c
 2071 03d0 06        	.uleb128 0x6
 2072 03d1 0000 03E0 	.long0x3e0
 2073 03d5 0000 03E0 	.long0x3e0
 2074 03d9 07        	.uleb128 0x7
 2075 03da 0000 0091 	.long0x91
 2076 03de 1F        	.byte0x1f
 2077 03df 00        	.byte0
 2078 03e0 0D        	.uleb128 0xd
 2079 03e1 04        	.byte0x4
 2080 03e2 0000 03E6 	.long0x3e6
 2081 03e6 14        	.uleb128 0x14
 2082 03e7 0A        	.uleb128 0xa
 2083 03e8 0000 0000 	.long.LASF70
 2084 03ec 08        	.byte0x8
 2085 03ed 08        	.byte0x8
 2086 03ee 75        	.byte0x75
 2087 03ef 0000 040C 	.long0x40c
 2088 03f3 0B        	.uleb128 0xb
 2089 03f4 0000 0000 	.long.LASF71
68K GAS   			page 57


 2090 03f8 08        	.byte0x8
 2091 03f9 76        	.byte0x76
 2092 03fa 0000 040C 	.long0x40c
 2093 03fe 00        	.byte0
 2094 03ff 0B        	.uleb128 0xb
 2095 0400 0000 0000 	.long.LASF72
 2096 0404 08        	.byte0x8
 2097 0405 77        	.byte0x77
 2098 0406 0000 00FC 	.long0xfc
 2099 040a 04        	.byte0x4
 2100 040b 00        	.byte0
 2101 040c 0D        	.uleb128 0xd
 2102 040d 04        	.byte0x4
 2103 040e 0000 0030 	.long0x30
 2104 0412 0A        	.uleb128 0xa
 2105 0413 0000 0000 	.long.LASF73
 2106 0417 80        	.byte0x80
 2107 0418 08        	.byte0x8
 2108 0419 B5        	.byte0xb5
 2109 041a 0000 053C 	.long0x53c
 2110 041e 11        	.uleb128 0x11
 2111 041f 5F70 00   	.string"_p"
 2112 0422 08        	.byte0x8
 2113 0423 B6        	.byte0xb6
 2114 0424 0000 040C 	.long0x40c
 2115 0428 00        	.byte0
 2116 0429 11        	.uleb128 0x11
 2117 042a 5F72 00   	.string"_r"
 2118 042d 08        	.byte0x8
 2119 042e B7        	.byte0xb7
 2120 042f 0000 00FC 	.long0xfc
 2121 0433 04        	.byte0x4
 2122 0434 11        	.uleb128 0x11
 2123 0435 5F77 00   	.string"_w"
 2124 0438 08        	.byte0x8
 2125 0439 B8        	.byte0xb8
 2126 043a 0000 00FC 	.long0xfc
 2127 043e 08        	.byte0x8
 2128 043f 0B        	.uleb128 0xb
 2129 0440 0000 0000 	.long.LASF74
 2130 0444 08        	.byte0x8
 2131 0445 B9        	.byte0xb9
 2132 0446 0000 0049 	.long0x49
 2133 044a 0C        	.byte0xc
 2134 044b 0B        	.uleb128 0xb
 2135 044c 0000 0000 	.long.LASF75
 2136 0450 08        	.byte0x8
 2137 0451 BA        	.byte0xba
 2138 0452 0000 0049 	.long0x49
 2139 0456 0E        	.byte0xe
 2140 0457 11        	.uleb128 0x11
 2141 0458 5F62 6600 	.string"_bf"
 2142 045c 08        	.byte0x8
 2143 045d BB        	.byte0xbb
 2144 045e 0000 03E7 	.long0x3e7
 2145 0462 10        	.byte0x10
 2146 0463 0B        	.uleb128 0xb
68K GAS   			page 58


 2147 0464 0000 0000 	.long.LASF76
 2148 0468 08        	.byte0x8
 2149 0469 BC        	.byte0xbc
 2150 046a 0000 00FC 	.long0xfc
 2151 046e 18        	.byte0x18
 2152 046f 0B        	.uleb128 0xb
 2153 0470 0000 0000 	.long.LASF77
 2154 0474 08        	.byte0x8
 2155 0475 C3        	.byte0xc3
 2156 0476 0000 00D2 	.long0xd2
 2157 047a 1C        	.byte0x1c
 2158 047b 0B        	.uleb128 0xb
 2159 047c 0000 0000 	.long.LASF78
 2160 0480 08        	.byte0x8
 2161 0481 C5        	.byte0xc5
 2162 0482 0000 0673 	.long0x673
 2163 0486 20        	.byte0x20
 2164 0487 0B        	.uleb128 0xb
 2165 0488 0000 0000 	.long.LASF79
 2166 048c 08        	.byte0x8
 2167 048d C7        	.byte0xc7
 2168 048e 0000 0697 	.long0x697
 2169 0492 24        	.byte0x24
 2170 0493 0B        	.uleb128 0xb
 2171 0494 0000 0000 	.long.LASF80
 2172 0498 08        	.byte0x8
 2173 0499 CA        	.byte0xca
 2174 049a 0000 06BB 	.long0x6bb
 2175 049e 28        	.byte0x28
 2176 049f 0B        	.uleb128 0xb
 2177 04a0 0000 0000 	.long.LASF81
 2178 04a4 08        	.byte0x8
 2179 04a5 CB        	.byte0xcb
 2180 04a6 0000 06D5 	.long0x6d5
 2181 04aa 2C        	.byte0x2c
 2182 04ab 11        	.uleb128 0x11
 2183 04ac 5F75 6200 	.string"_ub"
 2184 04b0 08        	.byte0x8
 2185 04b1 CE        	.byte0xce
 2186 04b2 0000 03E7 	.long0x3e7
 2187 04b6 30        	.byte0x30
 2188 04b7 11        	.uleb128 0x11
 2189 04b8 5F75 7000 	.string"_up"
 2190 04bc 08        	.byte0x8
 2191 04bd CF        	.byte0xcf
 2192 04be 0000 040C 	.long0x40c
 2193 04c2 38        	.byte0x38
 2194 04c3 11        	.uleb128 0x11
 2195 04c4 5F75 7200 	.string"_ur"
 2196 04c8 08        	.byte0x8
 2197 04c9 D0        	.byte0xd0
 2198 04ca 0000 00FC 	.long0xfc
 2199 04ce 3C        	.byte0x3c
 2200 04cf 0B        	.uleb128 0xb
 2201 04d0 0000 0000 	.long.LASF82
 2202 04d4 08        	.byte0x8
 2203 04d5 D3        	.byte0xd3
68K GAS   			page 59


 2204 04d6 0000 06DB 	.long0x6db
 2205 04da 40        	.byte0x40
 2206 04db 0B        	.uleb128 0xb
 2207 04dc 0000 0000 	.long.LASF83
 2208 04e0 08        	.byte0x8
 2209 04e1 D4        	.byte0xd4
 2210 04e2 0000 06EB 	.long0x6eb
 2211 04e6 43        	.byte0x43
 2212 04e7 11        	.uleb128 0x11
 2213 04e8 5F6C 6200 	.string"_lb"
 2214 04ec 08        	.byte0x8
 2215 04ed D7        	.byte0xd7
 2216 04ee 0000 03E7 	.long0x3e7
 2217 04f2 44        	.byte0x44
 2218 04f3 0B        	.uleb128 0xb
 2219 04f4 0000 0000 	.long.LASF84
 2220 04f8 08        	.byte0x8
 2221 04f9 DA        	.byte0xda
 2222 04fa 0000 00FC 	.long0xfc
 2223 04fe 4C        	.byte0x4c
 2224 04ff 0B        	.uleb128 0xb
 2225 0500 0000 0000 	.long.LASF85
 2226 0504 08        	.byte0x8
 2227 0505 DB        	.byte0xdb
 2228 0506 0000 00E6 	.long0xe6
 2229 050a 50        	.byte0x50
 2230 050b 0B        	.uleb128 0xb
 2231 050c 0000 0000 	.long.LASF86
 2232 0510 08        	.byte0x8
 2233 0511 DE        	.byte0xde
 2234 0512 0000 055A 	.long0x55a
 2235 0516 58        	.byte0x58
 2236 0517 0B        	.uleb128 0xb
 2237 0518 0000 0000 	.long.LASF87
 2238 051c 08        	.byte0x8
 2239 051d E2        	.byte0xe2
 2240 051e 0000 0244 	.long0x244
 2241 0522 5C        	.byte0x5c
 2242 0523 0B        	.uleb128 0xb
 2243 0524 0000 0000 	.long.LASF88
 2244 0528 08        	.byte0x8
 2245 0529 E4        	.byte0xe4
 2246 052a 0000 0239 	.long0x239
 2247 052e 74        	.byte0x74
 2248 052f 0B        	.uleb128 0xb
 2249 0530 0000 0000 	.long.LASF89
 2250 0534 08        	.byte0x8
 2251 0535 E5        	.byte0xe5
 2252 0536 0000 00FC 	.long0xfc
 2253 053a 7C        	.byte0x7c
 2254 053b 00        	.byte0
 2255 053c 15        	.uleb128 0x15
 2256 053d 0000 01D2 	.long0x1d2
 2257 0541 0000 055A 	.long0x55a
 2258 0545 16        	.uleb128 0x16
 2259 0546 0000 055A 	.long0x55a
 2260 054a 16        	.uleb128 0x16
68K GAS   			page 60


 2261 054b 0000 00D2 	.long0xd2
 2262 054f 16        	.uleb128 0x16
 2263 0550 0000 066D 	.long0x66d
 2264 0554 16        	.uleb128 0x16
 2265 0555 0000 00FC 	.long0xfc
 2266 0559 00        	.byte0
 2267 055a 0D        	.uleb128 0xd
 2268 055b 04        	.byte0x4
 2269 055c 0000 0565 	.long0x565
 2270 0560 05        	.uleb128 0x5
 2271 0561 0000 055A 	.long0x55a
 2272 0565 17        	.uleb128 0x17
 2273 0566 0000 0000 	.long.LASF90
 2274 056a 0158      	.word0x158
 2275 056c 08        	.byte0x8
 2276 056d 0239      	.word0x239
 2277 056f 0000 066D 	.long0x66d
 2278 0573 18        	.uleb128 0x18
 2279 0574 0000 0000 	.long.LASF91
 2280 0578 08        	.byte0x8
 2281 0579 023B      	.word0x23b
 2282 057b 0000 00FC 	.long0xfc
 2283 057f 00        	.byte0
 2284 0580 18        	.uleb128 0x18
 2285 0581 0000 0000 	.long.LASF92
 2286 0585 08        	.byte0x8
 2287 0586 0240      	.word0x240
 2288 0588 0000 0742 	.long0x742
 2289 058c 04        	.byte0x4
 2290 058d 18        	.uleb128 0x18
 2291 058e 0000 0000 	.long.LASF93
 2292 0592 08        	.byte0x8
 2293 0593 0240      	.word0x240
 2294 0595 0000 0742 	.long0x742
 2295 0599 08        	.byte0x8
 2296 059a 18        	.uleb128 0x18
 2297 059b 0000 0000 	.long.LASF94
 2298 059f 08        	.byte0x8
 2299 05a0 0240      	.word0x240
 2300 05a2 0000 0742 	.long0x742
 2301 05a6 0C        	.byte0xc
 2302 05a7 18        	.uleb128 0x18
 2303 05a8 0000 0000 	.long.LASF95
 2304 05ac 08        	.byte0x8
 2305 05ad 0242      	.word0x242
 2306 05af 0000 00FC 	.long0xfc
 2307 05b3 10        	.byte0x10
 2308 05b4 18        	.uleb128 0x18
 2309 05b5 0000 0000 	.long.LASF96
 2310 05b9 08        	.byte0x8
 2311 05ba 0243      	.word0x243
 2312 05bc 0000 0924 	.long0x924
 2313 05c0 14        	.byte0x14
 2314 05c1 18        	.uleb128 0x18
 2315 05c2 0000 0000 	.long.LASF97
 2316 05c6 08        	.byte0x8
 2317 05c7 0246      	.word0x246
68K GAS   			page 61


 2318 05c9 0000 00FC 	.long0xfc
 2319 05cd 30        	.byte0x30
 2320 05ce 18        	.uleb128 0x18
 2321 05cf 0000 0000 	.long.LASF98
 2322 05d3 08        	.byte0x8
 2323 05d4 0247      	.word0x247
 2324 05d6 0000 0939 	.long0x939
 2325 05da 34        	.byte0x34
 2326 05db 18        	.uleb128 0x18
 2327 05dc 0000 0000 	.long.LASF99
 2328 05e0 08        	.byte0x8
 2329 05e1 0249      	.word0x249
 2330 05e3 0000 00FC 	.long0xfc
 2331 05e7 38        	.byte0x38
 2332 05e8 18        	.uleb128 0x18
 2333 05e9 0000 0000 	.long.LASF100
 2334 05ed 08        	.byte0x8
 2335 05ee 024B      	.word0x24b
 2336 05f0 0000 094A 	.long0x94a
 2337 05f4 3C        	.byte0x3c
 2338 05f5 18        	.uleb128 0x18
 2339 05f6 0000 0000 	.long.LASF101
 2340 05fa 08        	.byte0x8
 2341 05fb 024E      	.word0x24e
 2342 05fd 0000 02AD 	.long0x2ad
 2343 0601 40        	.byte0x40
 2344 0602 18        	.uleb128 0x18
 2345 0603 0000 0000 	.long.LASF102
 2346 0607 08        	.byte0x8
 2347 0608 024F      	.word0x24f
 2348 060a 0000 00FC 	.long0xfc
 2349 060e 44        	.byte0x44
 2350 060f 18        	.uleb128 0x18
 2351 0610 0000 0000 	.long.LASF103
 2352 0614 08        	.byte0x8
 2353 0615 0250      	.word0x250
 2354 0617 0000 02AD 	.long0x2ad
 2355 061b 48        	.byte0x48
 2356 061c 18        	.uleb128 0x18
 2357 061d 0000 0000 	.long.LASF104
 2358 0621 08        	.byte0x8
 2359 0622 0251      	.word0x251
 2360 0624 0000 0950 	.long0x950
 2361 0628 4C        	.byte0x4c
 2362 0629 18        	.uleb128 0x18
 2363 062a 0000 0000 	.long.LASF105
 2364 062e 08        	.byte0x8
 2365 062f 0254      	.word0x254
 2366 0631 0000 00FC 	.long0xfc
 2367 0635 50        	.byte0x50
 2368 0636 18        	.uleb128 0x18
 2369 0637 0000 0000 	.long.LASF106
 2370 063b 08        	.byte0x8
 2371 063c 0255      	.word0x255
 2372 063e 0000 066D 	.long0x66d
 2373 0642 54        	.byte0x54
 2374 0643 18        	.uleb128 0x18
68K GAS   			page 62


 2375 0644 0000 0000 	.long.LASF107
 2376 0648 08        	.byte0x8
 2377 0649 0278      	.word0x278
 2378 064b 0000 0902 	.long0x902
 2379 064f 58        	.byte0x58
 2380 0650 19        	.uleb128 0x19
 2381 0651 0000 0000 	.long.LASF108
 2382 0655 08        	.byte0x8
 2383 0656 0281      	.word0x281
 2384 0658 0000 0961 	.long0x961
 2385 065c 0148      	.word0x148
 2386 065e 19        	.uleb128 0x19
 2387 065f 0000 0000 	.long.LASF109
 2388 0663 08        	.byte0x8
 2389 0664 0286      	.word0x286
 2390 0666 0000 0707 	.long0x707
 2391 066a 014C      	.word0x14c
 2392 066c 00        	.byte0
 2393 066d 0D        	.uleb128 0xd
 2394 066e 04        	.byte0x4
 2395 066f 0000 00B6 	.long0xb6
 2396 0673 0D        	.uleb128 0xd
 2397 0674 04        	.byte0x4
 2398 0675 0000 053C 	.long0x53c
 2399 0679 15        	.uleb128 0x15
 2400 067a 0000 01D2 	.long0x1d2
 2401 067e 0000 0697 	.long0x697
 2402 0682 16        	.uleb128 0x16
 2403 0683 0000 055A 	.long0x55a
 2404 0687 16        	.uleb128 0x16
 2405 0688 0000 00D2 	.long0xd2
 2406 068c 16        	.uleb128 0x16
 2407 068d 0000 0182 	.long0x182
 2408 0691 16        	.uleb128 0x16
 2409 0692 0000 00FC 	.long0xfc
 2410 0696 00        	.byte0
 2411 0697 0D        	.uleb128 0xd
 2412 0698 04        	.byte0x4
 2413 0699 0000 0679 	.long0x679
 2414 069d 15        	.uleb128 0x15
 2415 069e 0000 00F1 	.long0xf1
 2416 06a2 0000 06BB 	.long0x6bb
 2417 06a6 16        	.uleb128 0x16
 2418 06a7 0000 055A 	.long0x55a
 2419 06ab 16        	.uleb128 0x16
 2420 06ac 0000 00D2 	.long0xd2
 2421 06b0 16        	.uleb128 0x16
 2422 06b1 0000 00F1 	.long0xf1
 2423 06b5 16        	.uleb128 0x16
 2424 06b6 0000 00FC 	.long0xfc
 2425 06ba 00        	.byte0
 2426 06bb 0D        	.uleb128 0xd
 2427 06bc 04        	.byte0x4
 2428 06bd 0000 069D 	.long0x69d
 2429 06c1 15        	.uleb128 0x15
 2430 06c2 0000 00FC 	.long0xfc
 2431 06c6 0000 06D5 	.long0x6d5
68K GAS   			page 63


 2432 06ca 16        	.uleb128 0x16
 2433 06cb 0000 055A 	.long0x55a
 2434 06cf 16        	.uleb128 0x16
 2435 06d0 0000 00D2 	.long0xd2
 2436 06d4 00        	.byte0
 2437 06d5 0D        	.uleb128 0xd
 2438 06d6 04        	.byte0x4
 2439 06d7 0000 06C1 	.long0x6c1
 2440 06db 06        	.uleb128 0x6
 2441 06dc 0000 0030 	.long0x30
 2442 06e0 0000 06EB 	.long0x6eb
 2443 06e4 07        	.uleb128 0x7
 2444 06e5 0000 0091 	.long0x91
 2445 06e9 02        	.byte0x2
 2446 06ea 00        	.byte0
 2447 06eb 06        	.uleb128 0x6
 2448 06ec 0000 0030 	.long0x30
 2449 06f0 0000 06FB 	.long0x6fb
 2450 06f4 07        	.uleb128 0x7
 2451 06f5 0000 0091 	.long0x91
 2452 06f9 00        	.byte0
 2453 06fa 00        	.byte0
 2454 06fb 04        	.uleb128 0x4
 2455 06fc 0000 0000 	.long.LASF110
 2456 0700 08        	.byte0x8
 2457 0701 011F      	.word0x11f
 2458 0703 0000 0412 	.long0x412
 2459 0707 1A        	.uleb128 0x1a
 2460 0708 0000 0000 	.long.LASF111
 2461 070c 0C        	.byte0xc
 2462 070d 08        	.byte0x8
 2463 070e 0123      	.word0x123
 2464 0710 0000 073C 	.long0x73c
 2465 0714 18        	.uleb128 0x18
 2466 0715 0000 0000 	.long.LASF48
 2467 0719 08        	.byte0x8
 2468 071a 0125      	.word0x125
 2469 071c 0000 073C 	.long0x73c
 2470 0720 00        	.byte0
 2471 0721 18        	.uleb128 0x18
 2472 0722 0000 0000 	.long.LASF112
 2473 0726 08        	.byte0x8
 2474 0727 0126      	.word0x126
 2475 0729 0000 00FC 	.long0xfc
 2476 072d 04        	.byte0x4
 2477 072e 18        	.uleb128 0x18
 2478 072f 0000 0000 	.long.LASF113
 2479 0733 08        	.byte0x8
 2480 0734 0127      	.word0x127
 2481 0736 0000 0742 	.long0x742
 2482 073a 08        	.byte0x8
 2483 073b 00        	.byte0
 2484 073c 0D        	.uleb128 0xd
 2485 073d 04        	.byte0x4
 2486 073e 0000 0707 	.long0x707
 2487 0742 0D        	.uleb128 0xd
 2488 0743 04        	.byte0x4
68K GAS   			page 64


 2489 0744 0000 06FB 	.long0x6fb
 2490 0748 1A        	.uleb128 0x1a
 2491 0749 0000 0000 	.long.LASF114
 2492 074d 0E        	.byte0xe
 2493 074e 08        	.byte0x8
 2494 074f 013F      	.word0x13f
 2495 0751 0000 077D 	.long0x77d
 2496 0755 18        	.uleb128 0x18
 2497 0756 0000 0000 	.long.LASF115
 2498 075a 08        	.byte0x8
 2499 075b 0140      	.word0x140
 2500 075d 0000 077D 	.long0x77d
 2501 0761 00        	.byte0
 2502 0762 18        	.uleb128 0x18
 2503 0763 0000 0000 	.long.LASF116
 2504 0767 08        	.byte0x8
 2505 0768 0141      	.word0x141
 2506 076a 0000 077D 	.long0x77d
 2507 076e 06        	.byte0x6
 2508 076f 18        	.uleb128 0x18
 2509 0770 0000 0000 	.long.LASF117
 2510 0774 08        	.byte0x8
 2511 0775 0142      	.word0x142
 2512 0777 0000 007F 	.long0x7f
 2513 077b 0C        	.byte0xc
 2514 077c 00        	.byte0
 2515 077d 06        	.uleb128 0x6
 2516 077e 0000 007F 	.long0x7f
 2517 0782 0000 078D 	.long0x78d
 2518 0786 07        	.uleb128 0x7
 2519 0787 0000 0091 	.long0x91
 2520 078b 02        	.byte0x2
 2521 078c 00        	.byte0
 2522 078d 1B        	.uleb128 0x1b
 2523 078e CC        	.byte0xcc
 2524 078f 08        	.byte0x8
 2525 0790 0259      	.word0x259
 2526 0792 0000 088E 	.long0x88e
 2527 0796 18        	.uleb128 0x18
 2528 0797 0000 0000 	.long.LASF118
 2529 079b 08        	.byte0x8
 2530 079c 025B      	.word0x25b
 2531 079e 0000 0128 	.long0x128
 2532 07a2 00        	.byte0
 2533 07a3 18        	.uleb128 0x18
 2534 07a4 0000 0000 	.long.LASF119
 2535 07a8 08        	.byte0x8
 2536 07a9 025C      	.word0x25c
 2537 07ab 0000 066D 	.long0x66d
 2538 07af 04        	.byte0x4
 2539 07b0 18        	.uleb128 0x18
 2540 07b1 0000 0000 	.long.LASF120
 2541 07b5 08        	.byte0x8
 2542 07b6 025D      	.word0x25d
 2543 07b8 0000 088E 	.long0x88e
 2544 07bc 08        	.byte0x8
 2545 07bd 18        	.uleb128 0x18
68K GAS   			page 65


 2546 07be 0000 0000 	.long.LASF121
 2547 07c2 08        	.byte0x8
 2548 07c3 025E      	.word0x25e
 2549 07c5 0000 02C3 	.long0x2c3
 2550 07c9 24        	.byte0x24
 2551 07ca 18        	.uleb128 0x18
 2552 07cb 0000 0000 	.long.LASF122
 2553 07cf 08        	.byte0x8
 2554 07d0 025F      	.word0x25f
 2555 07d2 0000 00FC 	.long0xfc
 2556 07d6 48        	.byte0x48
 2557 07d7 18        	.uleb128 0x18
 2558 07d8 0000 0000 	.long.LASF123
 2559 07dc 08        	.byte0x8
 2560 07dd 0260      	.word0x260
 2561 07df 0000 0098 	.long0x98
 2562 07e3 4C        	.byte0x4c
 2563 07e4 18        	.uleb128 0x18
 2564 07e5 0000 0000 	.long.LASF124
 2565 07e9 08        	.byte0x8
 2566 07ea 0261      	.word0x261
 2567 07ec 0000 0748 	.long0x748
 2568 07f0 54        	.byte0x54
 2569 07f1 18        	.uleb128 0x18
 2570 07f2 0000 0000 	.long.LASF125
 2571 07f6 08        	.byte0x8
 2572 07f7 0262      	.word0x262
 2573 07f9 0000 0239 	.long0x239
 2574 07fd 64        	.byte0x64
 2575 07fe 18        	.uleb128 0x18
 2576 07ff 0000 0000 	.long.LASF126
 2577 0803 08        	.byte0x8
 2578 0804 0263      	.word0x263
 2579 0806 0000 0239 	.long0x239
 2580 080a 6C        	.byte0x6c
 2581 080b 18        	.uleb128 0x18
 2582 080c 0000 0000 	.long.LASF127
 2583 0810 08        	.byte0x8
 2584 0811 0264      	.word0x264
 2585 0813 0000 0239 	.long0x239
 2586 0817 74        	.byte0x74
 2587 0818 18        	.uleb128 0x18
 2588 0819 0000 0000 	.long.LASF128
 2589 081d 08        	.byte0x8
 2590 081e 0265      	.word0x265
 2591 0820 0000 089E 	.long0x89e
 2592 0824 7C        	.byte0x7c
 2593 0825 18        	.uleb128 0x18
 2594 0826 0000 0000 	.long.LASF129
 2595 082a 08        	.byte0x8
 2596 082b 0266      	.word0x266
 2597 082d 0000 08AE 	.long0x8ae
 2598 0831 84        	.byte0x84
 2599 0832 18        	.uleb128 0x18
 2600 0833 0000 0000 	.long.LASF130
 2601 0837 08        	.byte0x8
 2602 0838 0267      	.word0x267
68K GAS   			page 66


 2603 083a 0000 00FC 	.long0xfc
 2604 083e 9C        	.byte0x9c
 2605 083f 18        	.uleb128 0x18
 2606 0840 0000 0000 	.long.LASF131
 2607 0844 08        	.byte0x8
 2608 0845 0268      	.word0x268
 2609 0847 0000 0239 	.long0x239
 2610 084b A0        	.byte0xa0
 2611 084c 18        	.uleb128 0x18
 2612 084d 0000 0000 	.long.LASF132
 2613 0851 08        	.byte0x8
 2614 0852 0269      	.word0x269
 2615 0854 0000 0239 	.long0x239
 2616 0858 A8        	.byte0xa8
 2617 0859 18        	.uleb128 0x18
 2618 085a 0000 0000 	.long.LASF133
 2619 085e 08        	.byte0x8
 2620 085f 026A      	.word0x26a
 2621 0861 0000 0239 	.long0x239
 2622 0865 B0        	.byte0xb0
 2623 0866 18        	.uleb128 0x18
 2624 0867 0000 0000 	.long.LASF134
 2625 086b 08        	.byte0x8
 2626 086c 026B      	.word0x26b
 2627 086e 0000 0239 	.long0x239
 2628 0872 B8        	.byte0xb8
 2629 0873 18        	.uleb128 0x18
 2630 0874 0000 0000 	.long.LASF135
 2631 0878 08        	.byte0x8
 2632 0879 026C      	.word0x26c
 2633 087b 0000 0239 	.long0x239
 2634 087f C0        	.byte0xc0
 2635 0880 18        	.uleb128 0x18
 2636 0881 0000 0000 	.long.LASF136
 2637 0885 08        	.byte0x8
 2638 0886 026D      	.word0x26d
 2639 0888 0000 00FC 	.long0xfc
 2640 088c C8        	.byte0xc8
 2641 088d 00        	.byte0
 2642 088e 06        	.uleb128 0x6
 2643 088f 0000 00B6 	.long0xb6
 2644 0893 0000 089E 	.long0x89e
 2645 0897 07        	.uleb128 0x7
 2646 0898 0000 0091 	.long0x91
 2647 089c 19        	.byte0x19
 2648 089d 00        	.byte0
 2649 089e 06        	.uleb128 0x6
 2650 089f 0000 00B6 	.long0xb6
 2651 08a3 0000 08AE 	.long0x8ae
 2652 08a7 07        	.uleb128 0x7
 2653 08a8 0000 0091 	.long0x91
 2654 08ac 07        	.byte0x7
 2655 08ad 00        	.byte0
 2656 08ae 06        	.uleb128 0x6
 2657 08af 0000 00B6 	.long0xb6
 2658 08b3 0000 08BE 	.long0x8be
 2659 08b7 07        	.uleb128 0x7
68K GAS   			page 67


 2660 08b8 0000 0091 	.long0x91
 2661 08bc 17        	.byte0x17
 2662 08bd 00        	.byte0
 2663 08be 1B        	.uleb128 0x1b
 2664 08bf F0        	.byte0xf0
 2665 08c0 08        	.byte0x8
 2666 08c1 0272      	.word0x272
 2667 08c3 0000 08E2 	.long0x8e2
 2668 08c7 18        	.uleb128 0x18
 2669 08c8 0000 0000 	.long.LASF137
 2670 08cc 08        	.byte0x8
 2671 08cd 0275      	.word0x275
 2672 08cf 0000 08E2 	.long0x8e2
 2673 08d3 00        	.byte0
 2674 08d4 18        	.uleb128 0x18
 2675 08d5 0000 0000 	.long.LASF138
 2676 08d9 08        	.byte0x8
 2677 08da 0276      	.word0x276
 2678 08dc 0000 08F2 	.long0x8f2
 2679 08e0 78        	.byte0x78
 2680 08e1 00        	.byte0
 2681 08e2 06        	.uleb128 0x6
 2682 08e3 0000 040C 	.long0x40c
 2683 08e7 0000 08F2 	.long0x8f2
 2684 08eb 07        	.uleb128 0x7
 2685 08ec 0000 0091 	.long0x91
 2686 08f0 1D        	.byte0x1d
 2687 08f1 00        	.byte0
 2688 08f2 06        	.uleb128 0x6
 2689 08f3 0000 0128 	.long0x128
 2690 08f7 0000 0902 	.long0x902
 2691 08fb 07        	.uleb128 0x7
 2692 08fc 0000 0091 	.long0x91
 2693 0900 1D        	.byte0x1d
 2694 0901 00        	.byte0
 2695 0902 1C        	.uleb128 0x1c
 2696 0903 F0        	.byte0xf0
 2697 0904 08        	.byte0x8
 2698 0905 0257      	.word0x257
 2699 0907 0000 0924 	.long0x924
 2700 090b 1D        	.uleb128 0x1d
 2701 090c 0000 0000 	.long.LASF90
 2702 0910 08        	.byte0x8
 2703 0911 026E      	.word0x26e
 2704 0913 0000 078D 	.long0x78d
 2705 0917 1D        	.uleb128 0x1d
 2706 0918 0000 0000 	.long.LASF139
 2707 091c 08        	.byte0x8
 2708 091d 0277      	.word0x277
 2709 091f 0000 08BE 	.long0x8be
 2710 0923 00        	.byte0
 2711 0924 06        	.uleb128 0x6
 2712 0925 0000 00B6 	.long0xb6
 2713 0929 0000 0934 	.long0x934
 2714 092d 07        	.uleb128 0x7
 2715 092e 0000 0091 	.long0x91
 2716 0932 18        	.byte0x18
68K GAS   			page 68


 2717 0933 00        	.byte0
 2718 0934 0C        	.uleb128 0xc
 2719 0935 0000 0000 	.long.LASF140
 2720 0939 0D        	.uleb128 0xd
 2721 093a 04        	.byte0x4
 2722 093b 0000 0934 	.long0x934
 2723 093f 1E        	.uleb128 0x1e
 2724 0940 0000 094A 	.long0x94a
 2725 0944 16        	.uleb128 0x16
 2726 0945 0000 055A 	.long0x55a
 2727 0949 00        	.byte0
 2728 094a 0D        	.uleb128 0xd
 2729 094b 04        	.byte0x4
 2730 094c 0000 093F 	.long0x93f
 2731 0950 0D        	.uleb128 0xd
 2732 0951 04        	.byte0x4
 2733 0952 0000 02AD 	.long0x2ad
 2734 0956 1E        	.uleb128 0x1e
 2735 0957 0000 0961 	.long0x961
 2736 095b 16        	.uleb128 0x16
 2737 095c 0000 00FC 	.long0xfc
 2738 0960 00        	.byte0
 2739 0961 0D        	.uleb128 0xd
 2740 0962 04        	.byte0x4
 2741 0963 0000 0967 	.long0x967
 2742 0967 0D        	.uleb128 0xd
 2743 0968 04        	.byte0x4
 2744 0969 0000 0956 	.long0x956
 2745 096d 06        	.uleb128 0x6
 2746 096e 0000 06FB 	.long0x6fb
 2747 0972 0000 097D 	.long0x97d
 2748 0976 07        	.uleb128 0x7
 2749 0977 0000 0091 	.long0x91
 2750 097b 02        	.byte0x2
 2751 097c 00        	.byte0
 2752 097d 1F        	.uleb128 0x1f
 2753 097e 0000 0000 	.long.LASF141
 2754 0982 08        	.byte0x8
 2755 0983 028D      	.word0x28d
 2756 0985 0000 096D 	.long0x96d
 2757 0989 1F        	.uleb128 0x1f
 2758 098a 0000 0000 	.long.LASF142
 2759 098e 08        	.byte0x8
 2760 098f 0307      	.word0x307
 2761 0991 0000 055A 	.long0x55a
 2762 0995 1F        	.uleb128 0x1f
 2763 0996 0000 0000 	.long.LASF143
 2764 099a 08        	.byte0x8
 2765 099b 0308      	.word0x308
 2766 099d 0000 0560 	.long0x560
 2767 09a1 1F        	.uleb128 0x1f
 2768 09a2 0000 0000 	.long.LASF144
 2769 09a6 08        	.byte0x8
 2770 09a7 031A      	.word0x31a
 2771 09a9 0000 03CA 	.long0x3ca
 2772 09ad 20        	.uleb128 0x20
 2773 09ae 0000 0000 	.long.LASF145
68K GAS   			page 69


 2774 09b2 09        	.byte0x9
 2775 09b3 63        	.byte0x63
 2776 09b4 0000 066D 	.long0x66d
 2777 09b8 20        	.uleb128 0x20
 2778 09b9 0000 0000 	.long.LASF146
 2779 09bd 0A        	.byte0xa
 2780 09be 9A        	.byte0x9a
 2781 09bf 0000 005B 	.long0x5b
 2782 09c3 20        	.uleb128 0x20
 2783 09c4 0000 0000 	.long.LASF147
 2784 09c8 0A        	.byte0xa
 2785 09c9 9B        	.byte0x9b
 2786 09ca 0000 00FC 	.long0xfc
 2787 09ce 06        	.uleb128 0x6
 2788 09cf 0000 066D 	.long0x66d
 2789 09d3 0000 09DE 	.long0x9de
 2790 09d7 07        	.uleb128 0x7
 2791 09d8 0000 0091 	.long0x91
 2792 09dc 01        	.byte0x1
 2793 09dd 00        	.byte0
 2794 09de 20        	.uleb128 0x20
 2795 09df 0000 0000 	.long.LASF148
 2796 09e3 0A        	.byte0xa
 2797 09e4 9E        	.byte0x9e
 2798 09e5 0000 09CE 	.long0x9ce
 2799 09e9 06        	.uleb128 0x6
 2800 09ea 0000 00B6 	.long0xb6
 2801 09ee 0000 09F9 	.long0x9f9
 2802 09f2 07        	.uleb128 0x7
 2803 09f3 0000 0091 	.long0x91
 2804 09f7 3F        	.byte0x3f
 2805 09f8 00        	.byte0
 2806 09f9 06        	.uleb128 0x6
 2807 09fa 0000 00B6 	.long0xb6
 2808 09fe 0000 0A09 	.long0xa09
 2809 0a02 07        	.uleb128 0x7
 2810 0a03 0000 0091 	.long0x91
 2811 0a07 25        	.byte0x25
 2812 0a08 00        	.byte0
 2813 0a09 10        	.uleb128 0x10
 2814 0a0a 08        	.byte0x8
 2815 0a0b 0B        	.byte0xb
 2816 0a0c 4D        	.byte0x4d
 2817 0a0d 0000 0A2A 	.long0xa2a
 2818 0a11 0B        	.uleb128 0xb
 2819 0a12 0000 0000 	.long.LASF149
 2820 0a16 0B        	.byte0xb
 2821 0a17 4F        	.byte0x4f
 2822 0a18 0000 0086 	.long0x86
 2823 0a1c 00        	.byte0
 2824 0a1d 0B        	.uleb128 0xb
 2825 0a1e 0000 0000 	.long.LASF150
 2826 0a22 0B        	.byte0xb
 2827 0a23 50        	.byte0x50
 2828 0a24 0000 0086 	.long0x86
 2829 0a28 04        	.byte0x4
 2830 0a29 00        	.byte0
68K GAS   			page 70


 2831 0a2a 02        	.uleb128 0x2
 2832 0a2b 0000 0000 	.long.LASF151
 2833 0a2f 0B        	.byte0xb
 2834 0a30 51        	.byte0x51
 2835 0a31 0000 0A09 	.long0xa09
 2836 0a35 10        	.uleb128 0x10
 2837 0a36 20        	.byte0x20
 2838 0a37 0B        	.byte0xb
 2839 0a38 92        	.byte0x92
 2840 0a39 0000 0A86 	.long0xa86
 2841 0a3d 0B        	.uleb128 0xb
 2842 0a3e 0000 0000 	.long.LASF152
 2843 0a42 0B        	.byte0xb
 2844 0a43 94        	.byte0x94
 2845 0a44 0000 0086 	.long0x86
 2846 0a48 00        	.byte0
 2847 0a49 0B        	.uleb128 0xb
 2848 0a4a 0000 0000 	.long.LASF153
 2849 0a4e 0B        	.byte0xb
 2850 0a4f 95        	.byte0x95
 2851 0a50 0000 003E 	.long0x3e
 2852 0a54 04        	.byte0x4
 2853 0a55 0B        	.uleb128 0xb
 2854 0a56 0000 0000 	.long.LASF154
 2855 0a5a 0B        	.byte0xb
 2856 0a5b 96        	.byte0x96
 2857 0a5c 0000 0074 	.long0x74
 2858 0a60 06        	.byte0x6
 2859 0a61 0B        	.uleb128 0xb
 2860 0a62 0000 0000 	.long.LASF155
 2861 0a66 0B        	.byte0xb
 2862 0a67 97        	.byte0x97
 2863 0a68 0000 0A2A 	.long0xa2a
 2864 0a6c 08        	.byte0x8
 2865 0a6d 0B        	.uleb128 0xb
 2866 0a6e 0000 0000 	.long.LASF156
 2867 0a72 0B        	.byte0xb
 2868 0a73 98        	.byte0x98
 2869 0a74 0000 0A2A 	.long0xa2a
 2870 0a78 10        	.byte0x10
 2871 0a79 0B        	.uleb128 0xb
 2872 0a7a 0000 0000 	.long.LASF157
 2873 0a7e 0B        	.byte0xb
 2874 0a7f 99        	.byte0x99
 2875 0a80 0000 0A2A 	.long0xa2a
 2876 0a84 18        	.byte0x18
 2877 0a85 00        	.byte0
 2878 0a86 02        	.uleb128 0x2
 2879 0a87 0000 0000 	.long.LASF158
 2880 0a8b 0B        	.byte0xb
 2881 0a8c 9B        	.byte0x9b
 2882 0a8d 0000 0A35 	.long0xa35
 2883 0a91 06        	.uleb128 0x6
 2884 0a92 0000 0086 	.long0x86
 2885 0a96 0000 0AA1 	.long0xaa1
 2886 0a9a 07        	.uleb128 0x7
 2887 0a9b 0000 0091 	.long0x91
68K GAS   			page 71


 2888 0a9f 1F        	.byte0x1f
 2889 0aa0 00        	.byte0
 2890 0aa1 06        	.uleb128 0x6
 2891 0aa2 0000 0069 	.long0x69
 2892 0aa6 0000 0AB1 	.long0xab1
 2893 0aaa 07        	.uleb128 0x7
 2894 0aab 0000 0091 	.long0x91
 2895 0aaf 01        	.byte0x1
 2896 0ab0 00        	.byte0
 2897 0ab1 10        	.uleb128 0x10
 2898 0ab2 02        	.byte0x2
 2899 0ab3 0C        	.byte0xc
 2900 0ab4 B1        	.byte0xb1
 2901 0ab5 0000 0AD2 	.long0xad2
 2902 0ab9 0B        	.uleb128 0xb
 2903 0aba 0000 0000 	.long.LASF159
 2904 0abe 0C        	.byte0xc
 2905 0abf B2        	.byte0xb2
 2906 0ac0 0000 0069 	.long0x69
 2907 0ac4 00        	.byte0
 2908 0ac5 0B        	.uleb128 0xb
 2909 0ac6 0000 0000 	.long.LASF160
 2910 0aca 0C        	.byte0xc
 2911 0acb B3        	.byte0xb3
 2912 0acc 0000 0069 	.long0x69
 2913 0ad0 01        	.byte0x1
 2914 0ad1 00        	.byte0
 2915 0ad2 02        	.uleb128 0x2
 2916 0ad3 0000 0000 	.long.LASF161
 2917 0ad7 0C        	.byte0xc
 2918 0ad8 B4        	.byte0xb4
 2919 0ad9 0000 0AB1 	.long0xab1
 2920 0add 20        	.uleb128 0x20
 2921 0ade 0000 0000 	.long.LASF162
 2922 0ae2 0C        	.byte0xc
 2923 0ae3 B6        	.byte0xb6
 2924 0ae4 0000 0AD2 	.long0xad2
 2925 0ae8 06        	.uleb128 0x6
 2926 0ae9 0000 0069 	.long0x69
 2927 0aed 0000 0AF8 	.long0xaf8
 2928 0af1 07        	.uleb128 0x7
 2929 0af2 0000 0091 	.long0x91
 2930 0af6 0B        	.byte0xb
 2931 0af7 00        	.byte0
 2932 0af8 1B        	.uleb128 0x1b
 2933 0af9 20        	.byte0x20
 2934 0afa 0D        	.byte0xd
 2935 0afb 047C      	.word0x47c
 2936 0afd 0000 0B43 	.long0xb43
 2937 0b01 18        	.uleb128 0x18
 2938 0b02 0000 0000 	.long.LASF163
 2939 0b06 0D        	.byte0xd
 2940 0b07 047D      	.word0x47d
 2941 0b09 0000 00C2 	.long0xc2
 2942 0b0d 00        	.byte0
 2943 0b0e 18        	.uleb128 0x18
 2944 0b0f 0000 0000 	.long.LASF164
68K GAS   			page 72


 2945 0b13 0D        	.byte0xd
 2946 0b14 047F      	.word0x47f
 2947 0b16 0000 0074 	.long0x74
 2948 0b1a 14        	.byte0x14
 2949 0b1b 18        	.uleb128 0x18
 2950 0b1c 0000 0000 	.long.LASF165
 2951 0b20 0D        	.byte0xd
 2952 0b21 0481      	.word0x481
 2953 0b23 0000 0074 	.long0x74
 2954 0b27 16        	.byte0x16
 2955 0b28 18        	.uleb128 0x18
 2956 0b29 0000 0000 	.long.LASF166
 2957 0b2d 0D        	.byte0xd
 2958 0b2e 0483      	.word0x483
 2959 0b30 0000 0086 	.long0x86
 2960 0b34 18        	.byte0x18
 2961 0b35 18        	.uleb128 0x18
 2962 0b36 0000 0000 	.long.LASF167
 2963 0b3a 0D        	.byte0xd
 2964 0b3b 0485      	.word0x485
 2965 0b3d 0000 0086 	.long0x86
 2966 0b41 1C        	.byte0x1c
 2967 0b42 00        	.byte0
 2968 0b43 04        	.uleb128 0x4
 2969 0b44 0000 0000 	.long.LASF168
 2970 0b48 0D        	.byte0xd
 2971 0b49 0488      	.word0x488
 2972 0b4b 0000 0AF8 	.long0xaf8
 2973 0b4f 1B        	.uleb128 0x1b
 2974 0b50 9C        	.byte0x9c
 2975 0b51 0D        	.byte0xd
 2976 0b52 048E      	.word0x48e
 2977 0b54 0000 0B8D 	.long0xb8d
 2978 0b58 18        	.uleb128 0x18
 2979 0b59 0000 0000 	.long.LASF169
 2980 0b5d 0D        	.byte0xd
 2981 0b5e 048F      	.word0x48f
 2982 0b60 0000 0B43 	.long0xb43
 2983 0b64 00        	.byte0
 2984 0b65 18        	.uleb128 0x18
 2985 0b66 0000 0000 	.long.LASF170
 2986 0b6a 0D        	.byte0xd
 2987 0b6b 0490      	.word0x490
 2988 0b6d 0000 0B8D 	.long0xb8d
 2989 0b71 20        	.byte0x20
 2990 0b72 18        	.uleb128 0x18
 2991 0b73 0000 0000 	.long.LASF171
 2992 0b77 0D        	.byte0xd
 2993 0b78 0492      	.word0x492
 2994 0b7a 0000 0069 	.long0x69
 2995 0b7e 9A        	.byte0x9a
 2996 0b7f 18        	.uleb128 0x18
 2997 0b80 0000 0000 	.long.LASF172
 2998 0b84 0D        	.byte0xd
 2999 0b85 0494      	.word0x494
 3000 0b87 0000 0069 	.long0x69
 3001 0b8b 9B        	.byte0x9b
68K GAS   			page 73


 3002 0b8c 00        	.byte0
 3003 0b8d 06        	.uleb128 0x6
 3004 0b8e 0000 00B6 	.long0xb6
 3005 0b92 0000 0B9D 	.long0xb9d
 3006 0b96 07        	.uleb128 0x7
 3007 0b97 0000 0091 	.long0x91
 3008 0b9b 79        	.byte0x79
 3009 0b9c 00        	.byte0
 3010 0b9d 04        	.uleb128 0x4
 3011 0b9e 0000 0000 	.long.LASF173
 3012 0ba2 0D        	.byte0xd
 3013 0ba3 0496      	.word0x496
 3014 0ba5 0000 0B4F 	.long0xb4f
 3015 0ba9 1B        	.uleb128 0x1b
 3016 0baa A8        	.byte0xa8
 3017 0bab 0D        	.byte0xd
 3018 0bac 0498      	.word0x498
 3019 0bae 0000 0BCD 	.long0xbcd
 3020 0bb2 18        	.uleb128 0x18
 3021 0bb3 0000 0000 	.long.LASF174
 3022 0bb7 0D        	.byte0xd
 3023 0bb8 0499      	.word0x499
 3024 0bba 0000 0AE8 	.long0xae8
 3025 0bbe 00        	.byte0
 3026 0bbf 18        	.uleb128 0x18
 3027 0bc0 0000 0000 	.long.LASF175
 3028 0bc4 0D        	.byte0xd
 3029 0bc5 049A      	.word0x49a
 3030 0bc7 0000 0B9D 	.long0xb9d
 3031 0bcb 0C        	.byte0xc
 3032 0bcc 00        	.byte0
 3033 0bcd 04        	.uleb128 0x4
 3034 0bce 0000 0000 	.long.LASF176
 3035 0bd2 0D        	.byte0xd
 3036 0bd3 049B      	.word0x49b
 3037 0bd5 0000 0BA9 	.long0xba9
 3038 0bd9 02        	.uleb128 0x2
 3039 0bda 0000 0000 	.long.LASF177
 3040 0bde 0E        	.byte0xe
 3041 0bdf 38        	.byte0x38
 3042 0be0 0000 0086 	.long0x86
 3043 0be4 10        	.uleb128 0x10
 3044 0be5 14        	.byte0x14
 3045 0be6 0E        	.byte0xe
 3046 0be7 3A        	.byte0x3a
 3047 0be8 0000 0C35 	.long0xc35
 3048 0bec 0B        	.uleb128 0xb
 3049 0bed 0000 0000 	.long.LASF178
 3050 0bf1 0E        	.byte0xe
 3051 0bf2 3C        	.byte0x3c
 3052 0bf3 0000 0074 	.long0x74
 3053 0bf7 00        	.byte0
 3054 0bf8 0B        	.uleb128 0xb
 3055 0bf9 0000 0000 	.long.LASF179
 3056 0bfd 0E        	.byte0xe
 3057 0bfe 3D        	.byte0x3d
 3058 0bff 0000 0074 	.long0x74
68K GAS   			page 74


 3059 0c03 02        	.byte0x2
 3060 0c04 0B        	.uleb128 0xb
 3061 0c05 0000 0000 	.long.LASF180
 3062 0c09 0E        	.byte0xe
 3063 0c0a 3E        	.byte0x3e
 3064 0c0b 0000 0086 	.long0x86
 3065 0c0f 04        	.byte0x4
 3066 0c10 0B        	.uleb128 0xb
 3067 0c11 0000 0000 	.long.LASF181
 3068 0c15 0E        	.byte0xe
 3069 0c16 3F        	.byte0x3f
 3070 0c17 0000 0086 	.long0x86
 3071 0c1b 08        	.byte0x8
 3072 0c1c 11        	.uleb128 0x11
 3073 0c1d 4352 4300 	.string"CRC"
 3074 0c21 0E        	.byte0xe
 3075 0c22 40        	.byte0x40
 3076 0c23 0000 0086 	.long0x86
 3077 0c27 0C        	.byte0xc
 3078 0c28 0B        	.uleb128 0xb
 3079 0c29 0000 0000 	.long.LASF182
 3080 0c2d 0E        	.byte0xe
 3081 0c2e 41        	.byte0x41
 3082 0c2f 0000 0086 	.long0x86
 3083 0c33 10        	.byte0x10
 3084 0c34 00        	.byte0
 3085 0c35 02        	.uleb128 0x2
 3086 0c36 0000 0000 	.long.LASF183
 3087 0c3a 0E        	.byte0xe
 3088 0c3b 42        	.byte0x42
 3089 0c3c 0000 0BE4 	.long0xbe4
 3090 0c40 10        	.uleb128 0x10
 3091 0c41 0C        	.byte0xc
 3092 0c42 0E        	.byte0xe
 3093 0c43 44        	.byte0x44
 3094 0c44 0000 0C6D 	.long0xc6d
 3095 0c48 11        	.uleb128 0x11
 3096 0c49 546F 7000 	.string"Top"
 3097 0c4d 0E        	.byte0xe
 3098 0c4e 46        	.byte0x46
 3099 0c4f 0000 0086 	.long0x86
 3100 0c53 00        	.byte0
 3101 0c54 0B        	.uleb128 0xb
 3102 0c55 0000 0000 	.long.LASF184
 3103 0c59 0E        	.byte0xe
 3104 0c5a 47        	.byte0x47
 3105 0c5b 0000 0086 	.long0x86
 3106 0c5f 04        	.byte0x4
 3107 0c60 0B        	.uleb128 0xb
 3108 0c61 0000 0000 	.long.LASF185
 3109 0c65 0E        	.byte0xe
 3110 0c66 48        	.byte0x48
 3111 0c67 0000 0086 	.long0x86
 3112 0c6b 08        	.byte0x8
 3113 0c6c 00        	.byte0
 3114 0c6d 02        	.uleb128 0x2
 3115 0c6e 0000 0000 	.long.LASF186
68K GAS   			page 75


 3116 0c72 0E        	.byte0xe
 3117 0c73 49        	.byte0x49
 3118 0c74 0000 0C40 	.long0xc40
 3119 0c78 10        	.uleb128 0x10
 3120 0c79 EC        	.byte0xec
 3121 0c7a 0E        	.byte0xe
 3122 0c7b 4D        	.byte0x4d
 3123 0c7c 0000 0CF9 	.long0xcf9
 3124 0c80 0B        	.uleb128 0xb
 3125 0c81 0000 0000 	.long.LASF187
 3126 0c85 0E        	.byte0xe
 3127 0c86 4E        	.byte0x4e
 3128 0c87 0000 0086 	.long0x86
 3129 0c8b 00        	.byte0
 3130 0c8c 0B        	.uleb128 0xb
 3131 0c8d 0000 0000 	.long.LASF188
 3132 0c91 0E        	.byte0xe
 3133 0c92 4F        	.byte0x4f
 3134 0c93 0000 0086 	.long0x86
 3135 0c97 04        	.byte0x4
 3136 0c98 11        	.uleb128 0x11
 3137 0c99 456E 6400 	.string"End"
 3138 0c9d 0E        	.byte0xe
 3139 0c9e 50        	.byte0x50
 3140 0c9f 0000 0086 	.long0x86
 3141 0ca3 08        	.byte0x8
 3142 0ca4 0B        	.uleb128 0xb
 3143 0ca5 0000 0000 	.long.LASF189
 3144 0ca9 0E        	.byte0xe
 3145 0caa 51        	.byte0x51
 3146 0cab 0000 0086 	.long0x86
 3147 0caf 0C        	.byte0xc
 3148 0cb0 0B        	.uleb128 0xb
 3149 0cb1 0000 0000 	.long.LASF190
 3150 0cb5 0E        	.byte0xe
 3151 0cb6 52        	.byte0x52
 3152 0cb7 0000 0050 	.long0x50
 3153 0cbb 10        	.byte0x10
 3154 0cbc 0B        	.uleb128 0xb
 3155 0cbd 0000 0000 	.long.LASF191
 3156 0cc1 0E        	.byte0xe
 3157 0cc2 53        	.byte0x53
 3158 0cc3 0000 0074 	.long0x74
 3159 0cc7 14        	.byte0x14
 3160 0cc8 0B        	.uleb128 0xb
 3161 0cc9 0000 0000 	.long.LASF192
 3162 0ccd 0E        	.byte0xe
 3163 0cce 54        	.byte0x54
 3164 0ccf 0000 0074 	.long0x74
 3165 0cd3 16        	.byte0x16
 3166 0cd4 0B        	.uleb128 0xb
 3167 0cd5 0000 0000 	.long.LASF193
 3168 0cd9 0E        	.byte0xe
 3169 0cda 55        	.byte0x55
 3170 0cdb 0000 0086 	.long0x86
 3171 0cdf 18        	.byte0x18
 3172 0ce0 0B        	.uleb128 0xb
68K GAS   			page 76


 3173 0ce1 0000 0000 	.long.LASF194
 3174 0ce5 0E        	.byte0xe
 3175 0ce6 56        	.byte0x56
 3176 0ce7 0000 0086 	.long0x86
 3177 0ceb 1C        	.byte0x1c
 3178 0cec 0B        	.uleb128 0xb
 3179 0ced 0000 0000 	.long.LASF195
 3180 0cf1 0E        	.byte0xe
 3181 0cf2 57        	.byte0x57
 3182 0cf3 0000 0CF9 	.long0xcf9
 3183 0cf7 20        	.byte0x20
 3184 0cf8 00        	.byte0
 3185 0cf9 06        	.uleb128 0x6
 3186 0cfa 0000 0C6D 	.long0xc6d
 3187 0cfe 0000 0D09 	.long0xd09
 3188 0d02 07        	.uleb128 0x7
 3189 0d03 0000 0091 	.long0x91
 3190 0d07 10        	.byte0x10
 3191 0d08 00        	.byte0
 3192 0d09 02        	.uleb128 0x2
 3193 0d0a 0000 0000 	.long.LASF196
 3194 0d0e 0E        	.byte0xe
 3195 0d0f 58        	.byte0x58
 3196 0d10 0000 0C78 	.long0xc78
 3197 0d14 20        	.uleb128 0x20
 3198 0d15 0000 0000 	.long.LASF197
 3199 0d19 0E        	.byte0xe
 3200 0d1a 60        	.byte0x60
 3201 0d1b 0000 0D09 	.long0xd09
 3202 0d1f 20        	.uleb128 0x20
 3203 0d20 0000 0000 	.long.LASF198
 3204 0d24 0E        	.byte0xe
 3205 0d25 61        	.byte0x61
 3206 0d26 0000 0C35 	.long0xc35
 3207 0d2a 10        	.uleb128 0x10
 3208 0d2b 10        	.byte0x10
 3209 0d2c 0F        	.byte0xf
 3210 0d2d 1E        	.byte0x1e
 3211 0d2e 0000 0D63 	.long0xd63
 3212 0d32 0B        	.uleb128 0xb
 3213 0d33 0000 0000 	.long.LASF199
 3214 0d37 0F        	.byte0xf
 3215 0d38 20        	.byte0x20
 3216 0d39 0000 0086 	.long0x86
 3217 0d3d 00        	.byte0
 3218 0d3e 0B        	.uleb128 0xb
 3219 0d3f 0000 0000 	.long.LASF200
 3220 0d43 0F        	.byte0xf
 3221 0d44 21        	.byte0x21
 3222 0d45 0000 0086 	.long0x86
 3223 0d49 04        	.byte0x4
 3224 0d4a 0B        	.uleb128 0xb
 3225 0d4b 0000 0000 	.long.LASF201
 3226 0d4f 0F        	.byte0xf
 3227 0d50 22        	.byte0x22
 3228 0d51 0000 0086 	.long0x86
 3229 0d55 08        	.byte0x8
68K GAS   			page 77


 3230 0d56 0B        	.uleb128 0xb
 3231 0d57 0000 0000 	.long.LASF202
 3232 0d5b 0F        	.byte0xf
 3233 0d5c 23        	.byte0x23
 3234 0d5d 0000 0086 	.long0x86
 3235 0d61 0C        	.byte0xc
 3236 0d62 00        	.byte0
 3237 0d63 02        	.uleb128 0x2
 3238 0d64 0000 0000 	.long.LASF203
 3239 0d68 0F        	.byte0xf
 3240 0d69 25        	.byte0x25
 3241 0d6a 0000 0D2A 	.long0xd2a
 3242 0d6e 21        	.uleb128 0x21
 3243 0d6f 0108      	.word0x108
 3244 0d71 0F        	.byte0xf
 3245 0d72 2A        	.byte0x2a
 3246 0d73 0000 0E08 	.long0xe08
 3247 0d77 0B        	.uleb128 0xb
 3248 0d78 0000 0000 	.long.LASF204
 3249 0d7c 0F        	.byte0xf
 3250 0d7d 2C        	.byte0x2c
 3251 0d7e 0000 0086 	.long0x86
 3252 0d82 00        	.byte0
 3253 0d83 0B        	.uleb128 0xb
 3254 0d84 0000 0000 	.long.LASF205
 3255 0d88 0F        	.byte0xf
 3256 0d89 2D        	.byte0x2d
 3257 0d8a 0000 0086 	.long0x86
 3258 0d8e 04        	.byte0x4
 3259 0d8f 0B        	.uleb128 0xb
 3260 0d90 0000 0000 	.long.LASF206
 3261 0d94 0F        	.byte0xf
 3262 0d95 2E        	.byte0x2e
 3263 0d96 0000 0086 	.long0x86
 3264 0d9a 08        	.byte0x8
 3265 0d9b 0B        	.uleb128 0xb
 3266 0d9c 0000 0000 	.long.LASF207
 3267 0da0 0F        	.byte0xf
 3268 0da1 2F        	.byte0x2f
 3269 0da2 0000 0086 	.long0x86
 3270 0da6 0C        	.byte0xc
 3271 0da7 0B        	.uleb128 0xb
 3272 0da8 0000 0000 	.long.LASF208
 3273 0dac 0F        	.byte0xf
 3274 0dad 30        	.byte0x30
 3275 0dae 0000 0086 	.long0x86
 3276 0db2 10        	.byte0x10
 3277 0db3 0B        	.uleb128 0xb
 3278 0db4 0000 0000 	.long.LASF209
 3279 0db8 0F        	.byte0xf
 3280 0db9 31        	.byte0x31
 3281 0dba 0000 0086 	.long0x86
 3282 0dbe 14        	.byte0x14
 3283 0dbf 0B        	.uleb128 0xb
 3284 0dc0 0000 0000 	.long.LASF210
 3285 0dc4 0F        	.byte0xf
 3286 0dc5 32        	.byte0x32
68K GAS   			page 78


 3287 0dc6 0000 0D63 	.long0xd63
 3288 0dca 18        	.byte0x18
 3289 0dcb 0B        	.uleb128 0xb
 3290 0dcc 0000 0000 	.long.LASF211
 3291 0dd0 0F        	.byte0xf
 3292 0dd1 33        	.byte0x33
 3293 0dd2 0000 0A2A 	.long0xa2a
 3294 0dd6 28        	.byte0x28
 3295 0dd7 0B        	.uleb128 0xb
 3296 0dd8 0000 0000 	.long.LASF212
 3297 0ddc 0F        	.byte0xf
 3298 0ddd 34        	.byte0x34
 3299 0dde 0000 0E08 	.long0xe08
 3300 0de2 30        	.byte0x30
 3301 0de3 0B        	.uleb128 0xb
 3302 0de4 0000 0000 	.long.LASF213
 3303 0de8 0F        	.byte0xf
 3304 0de9 35        	.byte0x35
 3305 0dea 0000 0086 	.long0x86
 3306 0dee 80        	.byte0x80
 3307 0def 0B        	.uleb128 0xb
 3308 0df0 0000 0000 	.long.LASF214
 3309 0df4 0F        	.byte0xf
 3310 0df5 36        	.byte0x36
 3311 0df6 0000 0086 	.long0x86
 3312 0dfa 84        	.byte0x84
 3313 0dfb 0B        	.uleb128 0xb
 3314 0dfc 0000 0000 	.long.LASF215
 3315 0e00 0F        	.byte0xf
 3316 0e01 37        	.byte0x37
 3317 0e02 0000 0A91 	.long0xa91
 3318 0e06 88        	.byte0x88
 3319 0e07 00        	.byte0
 3320 0e08 06        	.uleb128 0x6
 3321 0e09 0000 00B6 	.long0xb6
 3322 0e0d 0000 0E18 	.long0xe18
 3323 0e11 07        	.uleb128 0x7
 3324 0e12 0000 0091 	.long0x91
 3325 0e16 4F        	.byte0x4f
 3326 0e17 00        	.byte0
 3327 0e18 02        	.uleb128 0x2
 3328 0e19 0000 0000 	.long.LASF216
 3329 0e1d 0F        	.byte0xf
 3330 0e1e 38        	.byte0x38
 3331 0e1f 0000 0D6E 	.long0xd6e
 3332 0e23 10        	.uleb128 0x10
 3333 0e24 0C        	.byte0xc
 3334 0e25 10        	.byte0x10
 3335 0e26 1D        	.byte0x1d
 3336 0e27 0000 0E50 	.long0xe50
 3337 0e2b 0B        	.uleb128 0xb
 3338 0e2c 0000 0000 	.long.LASF217
 3339 0e30 10        	.byte0x10
 3340 0e31 1E        	.byte0x1e
 3341 0e32 0000 0086 	.long0x86
 3342 0e36 00        	.byte0
 3343 0e37 0B        	.uleb128 0xb
68K GAS   			page 79


 3344 0e38 0000 0000 	.long.LASF218
 3345 0e3c 10        	.byte0x10
 3346 0e3d 1F        	.byte0x1f
 3347 0e3e 0000 0086 	.long0x86
 3348 0e42 04        	.byte0x4
 3349 0e43 0B        	.uleb128 0xb
 3350 0e44 0000 0000 	.long.LASF219
 3351 0e48 10        	.byte0x10
 3352 0e49 20        	.byte0x20
 3353 0e4a 0000 0086 	.long0x86
 3354 0e4e 08        	.byte0x8
 3355 0e4f 00        	.byte0
 3356 0e50 02        	.uleb128 0x2
 3357 0e51 0000 0000 	.long.LASF220
 3358 0e55 10        	.byte0x10
 3359 0e56 21        	.byte0x21
 3360 0e57 0000 0E23 	.long0xe23
 3361 0e5b 10        	.uleb128 0x10
 3362 0e5c 4C        	.byte0x4c
 3363 0e5d 10        	.byte0x10
 3364 0e5e 23        	.byte0x23
 3365 0e5f 0000 0F18 	.long0xf18
 3366 0e63 0B        	.uleb128 0xb
 3367 0e64 0000 0000 	.long.LASF221
 3368 0e68 10        	.byte0x10
 3369 0e69 24        	.byte0x24
 3370 0e6a 0000 0069 	.long0x69
 3371 0e6e 00        	.byte0
 3372 0e6f 0B        	.uleb128 0xb
 3373 0e70 0000 0000 	.long.LASF222
 3374 0e74 10        	.byte0x10
 3375 0e75 25        	.byte0x25
 3376 0e76 0000 0069 	.long0x69
 3377 0e7a 01        	.byte0x1
 3378 0e7b 0B        	.uleb128 0xb
 3379 0e7c 0000 0000 	.long.LASF223
 3380 0e80 10        	.byte0x10
 3381 0e81 26        	.byte0x26
 3382 0e82 0000 0AA1 	.long0xaa1
 3383 0e86 02        	.byte0x2
 3384 0e87 0B        	.uleb128 0xb
 3385 0e88 0000 0000 	.long.LASF224
 3386 0e8c 10        	.byte0x10
 3387 0e8d 27        	.byte0x27
 3388 0e8e 0000 0086 	.long0x86
 3389 0e92 04        	.byte0x4
 3390 0e93 0B        	.uleb128 0xb
 3391 0e94 0000 0000 	.long.LASF225
 3392 0e98 10        	.byte0x10
 3393 0e99 28        	.byte0x28
 3394 0e9a 0000 0086 	.long0x86
 3395 0e9e 08        	.byte0x8
 3396 0e9f 0B        	.uleb128 0xb
 3397 0ea0 0000 0000 	.long.LASF226
 3398 0ea4 10        	.byte0x10
 3399 0ea5 29        	.byte0x29
 3400 0ea6 0000 0086 	.long0x86
68K GAS   			page 80


 3401 0eaa 0C        	.byte0xc
 3402 0eab 0B        	.uleb128 0xb
 3403 0eac 0000 0000 	.long.LASF227
 3404 0eb0 10        	.byte0x10
 3405 0eb1 2A        	.byte0x2a
 3406 0eb2 0000 0086 	.long0x86
 3407 0eb6 10        	.byte0x10
 3408 0eb7 0B        	.uleb128 0xb
 3409 0eb8 0000 0000 	.long.LASF228
 3410 0ebc 10        	.byte0x10
 3411 0ebd 2B        	.byte0x2b
 3412 0ebe 0000 0086 	.long0x86
 3413 0ec2 14        	.byte0x14
 3414 0ec3 0B        	.uleb128 0xb
 3415 0ec4 0000 0000 	.long.LASF229
 3416 0ec8 10        	.byte0x10
 3417 0ec9 2C        	.byte0x2c
 3418 0eca 0000 0086 	.long0x86
 3419 0ece 18        	.byte0x18
 3420 0ecf 0B        	.uleb128 0xb
 3421 0ed0 0000 0000 	.long.LASF230
 3422 0ed4 10        	.byte0x10
 3423 0ed5 2D        	.byte0x2d
 3424 0ed6 0000 0086 	.long0x86
 3425 0eda 1C        	.byte0x1c
 3426 0edb 0B        	.uleb128 0xb
 3427 0edc 0000 0000 	.long.LASF231
 3428 0ee0 10        	.byte0x10
 3429 0ee1 2E        	.byte0x2e
 3430 0ee2 0000 0086 	.long0x86
 3431 0ee6 20        	.byte0x20
 3432 0ee7 0B        	.uleb128 0xb
 3433 0ee8 0000 0000 	.long.LASF232
 3434 0eec 10        	.byte0x10
 3435 0eed 2F        	.byte0x2f
 3436 0eee 0000 0086 	.long0x86
 3437 0ef2 24        	.byte0x24
 3438 0ef3 0B        	.uleb128 0xb
 3439 0ef4 0000 0000 	.long.LASF233
 3440 0ef8 10        	.byte0x10
 3441 0ef9 30        	.byte0x30
 3442 0efa 0000 0086 	.long0x86
 3443 0efe 28        	.byte0x28
 3444 0eff 0B        	.uleb128 0xb
 3445 0f00 0000 0000 	.long.LASF234
 3446 0f04 10        	.byte0x10
 3447 0f05 31        	.byte0x31
 3448 0f06 0000 0F18 	.long0xf18
 3449 0f0a 2C        	.byte0x2c
 3450 0f0b 0B        	.uleb128 0xb
 3451 0f0c 0000 0000 	.long.LASF235
 3452 0f10 10        	.byte0x10
 3453 0f11 32        	.byte0x32
 3454 0f12 0000 0F18 	.long0xf18
 3455 0f16 3C        	.byte0x3c
 3456 0f17 00        	.byte0
 3457 0f18 06        	.uleb128 0x6
68K GAS   			page 81


 3458 0f19 0000 0086 	.long0x86
 3459 0f1d 0000 0F28 	.long0xf28
 3460 0f21 07        	.uleb128 0x7
 3461 0f22 0000 0091 	.long0x91
 3462 0f26 03        	.byte0x3
 3463 0f27 00        	.byte0
 3464 0f28 02        	.uleb128 0x2
 3465 0f29 0000 0000 	.long.LASF236
 3466 0f2d 10        	.byte0x10
 3467 0f2e 33        	.byte0x33
 3468 0f2f 0000 0E5B 	.long0xe5b
 3469 0f33 22        	.uleb128 0x22
 3470 0f34 0001 D50C 	.long0x1d50c
 3471 0f38 10        	.byte0x10
 3472 0f39 35        	.byte0x35
 3473 0f3a 0000 0F57 	.long0xf57
 3474 0f3e 0B        	.uleb128 0xb
 3475 0f3f 0000 0000 	.long.LASF237
 3476 0f43 10        	.byte0x10
 3477 0f44 36        	.byte0x36
 3478 0f45 0000 0F28 	.long0xf28
 3479 0f49 00        	.byte0
 3480 0f4a 0B        	.uleb128 0xb
 3481 0f4b 0000 0000 	.long.LASF238
 3482 0f4f 10        	.byte0x10
 3483 0f50 37        	.byte0x37
 3484 0f51 0000 0F57 	.long0xf57
 3485 0f55 4C        	.byte0x4c
 3486 0f56 00        	.byte0
 3487 0f57 06        	.uleb128 0x6
 3488 0f58 0000 0E50 	.long0xe50
 3489 0f5c 0000 0F68 	.long0xf68
 3490 0f60 23        	.uleb128 0x23
 3491 0f61 0000 0091 	.long0x91
 3492 0f65 270F      	.word0x270f
 3493 0f67 00        	.byte0
 3494 0f68 02        	.uleb128 0x2
 3495 0f69 0000 0000 	.long.LASF239
 3496 0f6d 10        	.byte0x10
 3497 0f6e 38        	.byte0x38
 3498 0f6f 0000 0F33 	.long0xf33
 3499 0f73 21        	.uleb128 0x21
 3500 0f74 0D28      	.word0xd28
 3501 0f76 11        	.byte0x11
 3502 0f77 1F        	.byte0x1f
 3503 0f78 0000 0FC5 	.long0xfc5
 3504 0f7c 0B        	.uleb128 0xb
 3505 0f7d 0000 0000 	.long.LASF182
 3506 0f81 11        	.byte0x11
 3507 0f82 20        	.byte0x20
 3508 0f83 0000 0074 	.long0x74
 3509 0f87 00        	.byte0
 3510 0f88 0B        	.uleb128 0xb
 3511 0f89 0000 0000 	.long.LASF240
 3512 0f8d 11        	.byte0x11
 3513 0f8e 21        	.byte0x21
 3514 0f8f 0000 0074 	.long0x74
68K GAS   			page 82


 3515 0f93 02        	.byte0x2
 3516 0f94 0B        	.uleb128 0xb
 3517 0f95 0000 0000 	.long.LASF241
 3518 0f99 11        	.byte0x11
 3519 0f9a 22        	.byte0x22
 3520 0f9b 0000 0069 	.long0x69
 3521 0f9f 04        	.byte0x4
 3522 0fa0 0B        	.uleb128 0xb
 3523 0fa1 0000 0000 	.long.LASF242
 3524 0fa5 11        	.byte0x11
 3525 0fa6 23        	.byte0x23
 3526 0fa7 0000 0069 	.long0x69
 3527 0fab 05        	.byte0x5
 3528 0fac 0B        	.uleb128 0xb
 3529 0fad 0000 0000 	.long.LASF243
 3530 0fb1 11        	.byte0x11
 3531 0fb2 24        	.byte0x24
 3532 0fb3 0000 0074 	.long0x74
 3533 0fb7 06        	.byte0x6
 3534 0fb8 0B        	.uleb128 0xb
 3535 0fb9 0000 0000 	.long.LASF244
 3536 0fbd 11        	.byte0x11
 3537 0fbe 25        	.byte0x25
 3538 0fbf 0000 0FC5 	.long0xfc5
 3539 0fc3 08        	.byte0x8
 3540 0fc4 00        	.byte0
 3541 0fc5 06        	.uleb128 0x6
 3542 0fc6 0000 0BCD 	.long0xbcd
 3543 0fca 0000 0FD5 	.long0xfd5
 3544 0fce 07        	.uleb128 0x7
 3545 0fcf 0000 0091 	.long0x91
 3546 0fd3 13        	.byte0x13
 3547 0fd4 00        	.byte0
 3548 0fd5 02        	.uleb128 0x2
 3549 0fd6 0000 0000 	.long.LASF245
 3550 0fda 11        	.byte0x11
 3551 0fdb 27        	.byte0x27
 3552 0fdc 0000 0F73 	.long0xf73
 3553 0fe0 10        	.uleb128 0x10
 3554 0fe1 18        	.byte0x18
 3555 0fe2 12        	.byte0x12
 3556 0fe3 23        	.byte0x23
 3557 0fe4 0000 1031 	.long0x1031
 3558 0fe8 0B        	.uleb128 0xb
 3559 0fe9 0000 0000 	.long.LASF205
 3560 0fed 12        	.byte0x12
 3561 0fee 25        	.byte0x25
 3562 0fef 0000 0086 	.long0x86
 3563 0ff3 00        	.byte0
 3564 0ff4 0B        	.uleb128 0xb
 3565 0ff5 0000 0000 	.long.LASF206
 3566 0ff9 12        	.byte0x12
 3567 0ffa 26        	.byte0x26
 3568 0ffb 0000 0086 	.long0x86
 3569 0fff 04        	.byte0x4
 3570 1000 0B        	.uleb128 0xb
 3571 1001 0000 0000 	.long.LASF207
68K GAS   			page 83


 3572 1005 12        	.byte0x12
 3573 1006 27        	.byte0x27
 3574 1007 0000 0086 	.long0x86
 3575 100b 08        	.byte0x8
 3576 100c 0B        	.uleb128 0xb
 3577 100d 0000 0000 	.long.LASF246
 3578 1011 12        	.byte0x12
 3579 1012 28        	.byte0x28
 3580 1013 0000 0086 	.long0x86
 3581 1017 0C        	.byte0xc
 3582 1018 0B        	.uleb128 0xb
 3583 1019 0000 0000 	.long.LASF208
 3584 101d 12        	.byte0x12
 3585 101e 29        	.byte0x29
 3586 101f 0000 0086 	.long0x86
 3587 1023 10        	.byte0x10
 3588 1024 0B        	.uleb128 0xb
 3589 1025 0000 0000 	.long.LASF209
 3590 1029 12        	.byte0x12
 3591 102a 2A        	.byte0x2a
 3592 102b 0000 0086 	.long0x86
 3593 102f 14        	.byte0x14
 3594 1030 00        	.byte0
 3595 1031 02        	.uleb128 0x2
 3596 1032 0000 0000 	.long.LASF247
 3597 1036 12        	.byte0x12
 3598 1037 2B        	.byte0x2b
 3599 1038 0000 0FE0 	.long0xfe0
 3600 103c 22        	.uleb128 0x22
 3601 103d 0002 0324 	.long0x20324
 3602 1041 12        	.byte0x12
 3603 1042 33        	.byte0x33
 3604 1043 0000 10E9 	.long0x10e9
 3605 1047 0B        	.uleb128 0xb
 3606 1048 0000 0000 	.long.LASF248
 3607 104c 12        	.byte0x12
 3608 104d 38        	.byte0x38
 3609 104e 0000 10E9 	.long0x10e9
 3610 1052 00        	.byte0
 3611 1053 13        	.uleb128 0x13
 3612 1054 0000 0000 	.long.LASF249
 3613 1058 12        	.byte0x12
 3614 1059 39        	.byte0x39
 3615 105a 0000 0086 	.long0x86
 3616 105e 14A0      	.word0x14a0
 3617 1060 13        	.uleb128 0x13
 3618 1061 0000 0000 	.long.LASF250
 3619 1065 12        	.byte0x12
 3620 1066 3A        	.byte0x3a
 3621 1067 0000 0086 	.long0x86
 3622 106b 14A4      	.word0x14a4
 3623 106d 13        	.uleb128 0x13
 3624 106e 0000 0000 	.long.LASF202
 3625 1072 12        	.byte0x12
 3626 1073 3B        	.byte0x3b
 3627 1074 0000 0086 	.long0x86
 3628 1078 14A8      	.word0x14a8
68K GAS   			page 84


 3629 107a 13        	.uleb128 0x13
 3630 107b 0000 0000 	.long.LASF251
 3631 107f 12        	.byte0x12
 3632 1080 40        	.byte0x40
 3633 1081 0000 10F9 	.long0x10f9
 3634 1085 14AC      	.word0x14ac
 3635 1087 13        	.uleb128 0x13
 3636 1088 0000 0000 	.long.LASF252
 3637 108c 12        	.byte0x12
 3638 108d 41        	.byte0x41
 3639 108e 0000 0086 	.long0x86
 3640 1092 20AC      	.word0x20ac
 3641 1094 13        	.uleb128 0x13
 3642 1095 0000 0000 	.long.LASF253
 3643 1099 12        	.byte0x12
 3644 109a 42        	.byte0x42
 3645 109b 0000 0086 	.long0x86
 3646 109f 20B0      	.word0x20b0
 3647 10a1 13        	.uleb128 0x13
 3648 10a2 0000 0000 	.long.LASF254
 3649 10a6 12        	.byte0x12
 3650 10a7 43        	.byte0x43
 3651 10a8 0000 0086 	.long0x86
 3652 10ac 20B4      	.word0x20b4
 3653 10ae 13        	.uleb128 0x13
 3654 10af 0000 0000 	.long.LASF255
 3655 10b3 12        	.byte0x12
 3656 10b4 48        	.byte0x48
 3657 10b5 0000 0F68 	.long0xf68
 3658 10b9 20B8      	.word0x20b8
 3659 10bb 24        	.uleb128 0x24
 3660 10bc 0000 0000 	.long.LASF256
 3661 10c0 12        	.byte0x12
 3662 10c1 4D        	.byte0x4d
 3663 10c2 0000 1031 	.long0x1031
 3664 10c6 0001 F5C4 	.long0x1f5c4
 3665 10ca 24        	.uleb128 0x24
 3666 10cb 0000 0000 	.long.LASF257
 3667 10cf 12        	.byte0x12
 3668 10d0 53        	.byte0x53
 3669 10d1 0000 0A86 	.long0xa86
 3670 10d5 0001 F5DC 	.long0x1f5dc
 3671 10d9 24        	.uleb128 0x24
 3672 10da 0000 0000 	.long.LASF258
 3673 10de 12        	.byte0x12
 3674 10df 59        	.byte0x59
 3675 10e0 0000 0FD5 	.long0xfd5
 3676 10e4 0001 F5FC 	.long0x1f5fc
 3677 10e8 00        	.byte0
 3678 10e9 06        	.uleb128 0x6
 3679 10ea 0000 0E18 	.long0xe18
 3680 10ee 0000 10F9 	.long0x10f9
 3681 10f2 07        	.uleb128 0x7
 3682 10f3 0000 0091 	.long0x91
 3683 10f7 13        	.byte0x13
 3684 10f8 00        	.byte0
 3685 10f9 06        	.uleb128 0x6
68K GAS   			page 85


 3686 10fa 0000 00B6 	.long0xb6
 3687 10fe 0000 110A 	.long0x110a
 3688 1102 23        	.uleb128 0x23
 3689 1103 0000 0091 	.long0x91
 3690 1107 0BFF      	.word0xbff
 3691 1109 00        	.byte0
 3692 110a 02        	.uleb128 0x2
 3693 110b 0000 0000 	.long.LASF259
 3694 110f 12        	.byte0x12
 3695 1110 5C        	.byte0x5c
 3696 1111 0000 103C 	.long0x103c
 3697 1115 10        	.uleb128 0x10
 3698 1116 0C        	.byte0xc
 3699 1117 13        	.byte0x13
 3700 1118 7E        	.byte0x7e
 3701 1119 0000 1142 	.long0x1142
 3702 111d 0B        	.uleb128 0xb
 3703 111e 0000 0000 	.long.LASF260
 3704 1122 13        	.byte0x13
 3705 1123 80        	.byte0x80
 3706 1124 0000 0086 	.long0x86
 3707 1128 00        	.byte0
 3708 1129 0B        	.uleb128 0xb
 3709 112a 0000 0000 	.long.LASF261
 3710 112e 13        	.byte0x13
 3711 112f 81        	.byte0x81
 3712 1130 0000 0086 	.long0x86
 3713 1134 04        	.byte0x4
 3714 1135 0B        	.uleb128 0xb
 3715 1136 0000 0000 	.long.LASF262
 3716 113a 13        	.byte0x13
 3717 113b 82        	.byte0x82
 3718 113c 0000 0050 	.long0x50
 3719 1140 08        	.byte0x8
 3720 1141 00        	.byte0
 3721 1142 02        	.uleb128 0x2
 3722 1143 0000 0000 	.long.LASF263
 3723 1147 13        	.byte0x13
 3724 1148 84        	.byte0x84
 3725 1149 0000 1115 	.long0x1115
 3726 114d 10        	.uleb128 0x10
 3727 114e 78        	.byte0x78
 3728 114f 13        	.byte0x13
 3729 1150 8B        	.byte0x8b
 3730 1151 0000 11B6 	.long0x11b6
 3731 1155 0B        	.uleb128 0xb
 3732 1156 0000 0000 	.long.LASF264
 3733 115a 13        	.byte0x13
 3734 115b 8D        	.byte0x8d
 3735 115c 0000 00C2 	.long0xc2
 3736 1160 00        	.byte0
 3737 1161 0B        	.uleb128 0xb
 3738 1162 0000 0000 	.long.LASF265
 3739 1166 13        	.byte0x13
 3740 1167 8E        	.byte0x8e
 3741 1168 0000 00C2 	.long0xc2
 3742 116c 14        	.byte0x14
68K GAS   			page 86


 3743 116d 0B        	.uleb128 0xb
 3744 116e 0000 0000 	.long.LASF266
 3745 1172 13        	.byte0x13
 3746 1173 8F        	.byte0x8f
 3747 1174 0000 09E9 	.long0x9e9
 3748 1178 28        	.byte0x28
 3749 1179 0B        	.uleb128 0xb
 3750 117a 0000 0000 	.long.LASF267
 3751 117e 13        	.byte0x13
 3752 117f 91        	.byte0x91
 3753 1180 0000 0086 	.long0x86
 3754 1184 68        	.byte0x68
 3755 1185 0B        	.uleb128 0xb
 3756 1186 0000 0000 	.long.LASF268
 3757 118a 13        	.byte0x13
 3758 118b 92        	.byte0x92
 3759 118c 0000 009F 	.long0x9f
 3760 1190 6C        	.byte0x6c
 3761 1191 0B        	.uleb128 0xb
 3762 1192 0000 0000 	.long.LASF269
 3763 1196 13        	.byte0x13
 3764 1197 93        	.byte0x93
 3765 1198 0000 0086 	.long0x86
 3766 119c 70        	.byte0x70
 3767 119d 0B        	.uleb128 0xb
 3768 119e 0000 0000 	.long.LASF270
 3769 11a2 13        	.byte0x13
 3770 11a3 95        	.byte0x95
 3771 11a4 0000 0074 	.long0x74
 3772 11a8 74        	.byte0x74
 3773 11a9 0B        	.uleb128 0xb
 3774 11aa 0000 0000 	.long.LASF159
 3775 11ae 13        	.byte0x13
 3776 11af 96        	.byte0x96
 3777 11b0 0000 0074 	.long0x74
 3778 11b4 76        	.byte0x76
 3779 11b5 00        	.byte0
 3780 11b6 02        	.uleb128 0x2
 3781 11b7 0000 0000 	.long.LASF271
 3782 11bb 13        	.byte0x13
 3783 11bc 98        	.byte0x98
 3784 11bd 0000 114D 	.long0x114d
 3785 11c1 10        	.uleb128 0x10
 3786 11c2 1C        	.byte0x1c
 3787 11c3 13        	.byte0x13
 3788 11c4 9F        	.byte0x9f
 3789 11c5 0000 11EE 	.long0x11ee
 3790 11c9 0B        	.uleb128 0xb
 3791 11ca 0000 0000 	.long.LASF272
 3792 11ce 13        	.byte0x13
 3793 11cf A1        	.byte0xa1
 3794 11d0 0000 0086 	.long0x86
 3795 11d4 00        	.byte0
 3796 11d5 0B        	.uleb128 0xb
 3797 11d6 0000 0000 	.long.LASF273
 3798 11da 13        	.byte0x13
 3799 11db A2        	.byte0xa2
68K GAS   			page 87


 3800 11dc 0000 00C2 	.long0xc2
 3801 11e0 04        	.byte0x4
 3802 11e1 0B        	.uleb128 0xb
 3803 11e2 0000 0000 	.long.LASF274
 3804 11e6 13        	.byte0x13
 3805 11e7 A3        	.byte0xa3
 3806 11e8 0000 0086 	.long0x86
 3807 11ec 18        	.byte0x18
 3808 11ed 00        	.byte0
 3809 11ee 02        	.uleb128 0x2
 3810 11ef 0000 0000 	.long.LASF275
 3811 11f3 13        	.byte0x13
 3812 11f4 A5        	.byte0xa5
 3813 11f5 0000 11C1 	.long0x11c1
 3814 11f9 10        	.uleb128 0x10
 3815 11fa A8        	.byte0xa8
 3816 11fb 13        	.byte0x13
 3817 11fc AC        	.byte0xac
 3818 11fd 0000 123E 	.long0x123e
 3819 1201 0B        	.uleb128 0xb
 3820 1202 0000 0000 	.long.LASF276
 3821 1206 13        	.byte0x13
 3822 1207 AE        	.byte0xae
 3823 1208 0000 00AA 	.long0xaa
 3824 120c 00        	.byte0
 3825 120d 0B        	.uleb128 0xb
 3826 120e 0000 0000 	.long.LASF277
 3827 1212 13        	.byte0x13
 3828 1213 AF        	.byte0xaf
 3829 1214 0000 0086 	.long0x86
 3830 1218 04        	.byte0x4
 3831 1219 0B        	.uleb128 0xb
 3832 121a 0000 0000 	.long.LASF278
 3833 121e 13        	.byte0x13
 3834 121f B0        	.byte0xb0
 3835 1220 0000 11B6 	.long0x11b6
 3836 1224 08        	.byte0x8
 3837 1225 0B        	.uleb128 0xb
 3838 1226 0000 0000 	.long.LASF279
 3839 122a 13        	.byte0x13
 3840 122b B1        	.byte0xb1
 3841 122c 0000 1142 	.long0x1142
 3842 1230 80        	.byte0x80
 3843 1231 0B        	.uleb128 0xb
 3844 1232 0000 0000 	.long.LASF280
 3845 1236 13        	.byte0x13
 3846 1237 B2        	.byte0xb2
 3847 1238 0000 11EE 	.long0x11ee
 3848 123c 8C        	.byte0x8c
 3849 123d 00        	.byte0
 3850 123e 02        	.uleb128 0x2
 3851 123f 0000 0000 	.long.LASF281
 3852 1243 13        	.byte0x13
 3853 1244 B4        	.byte0xb4
 3854 1245 0000 11F9 	.long0x11f9
 3855 1249 10        	.uleb128 0x10
 3856 124a 24        	.byte0x24
68K GAS   			page 88


 3857 124b 13        	.byte0x13
 3858 124c BB        	.byte0xbb
 3859 124d 0000 128E 	.long0x128e
 3860 1251 0B        	.uleb128 0xb
 3861 1252 0000 0000 	.long.LASF276
 3862 1256 13        	.byte0x13
 3863 1257 BD        	.byte0xbd
 3864 1258 0000 00AA 	.long0xaa
 3865 125c 00        	.byte0
 3866 125d 0B        	.uleb128 0xb
 3867 125e 0000 0000 	.long.LASF282
 3868 1262 13        	.byte0x13
 3869 1263 BE        	.byte0xbe
 3870 1264 0000 0086 	.long0x86
 3871 1268 04        	.byte0x4
 3872 1269 0B        	.uleb128 0xb
 3873 126a 0000 0000 	.long.LASF283
 3874 126e 13        	.byte0x13
 3875 126f BF        	.byte0xbf
 3876 1270 0000 0086 	.long0x86
 3877 1274 08        	.byte0x8
 3878 1275 0B        	.uleb128 0xb
 3879 1276 0000 0000 	.long.LASF284
 3880 127a 13        	.byte0x13
 3881 127b C0        	.byte0xc0
 3882 127c 0000 0086 	.long0x86
 3883 1280 0C        	.byte0xc
 3884 1281 0B        	.uleb128 0xb
 3885 1282 0000 0000 	.long.LASF285
 3886 1286 13        	.byte0x13
 3887 1287 C1        	.byte0xc1
 3888 1288 0000 00C2 	.long0xc2
 3889 128c 10        	.byte0x10
 3890 128d 00        	.byte0
 3891 128e 02        	.uleb128 0x2
 3892 128f 0000 0000 	.long.LASF286
 3893 1293 13        	.byte0x13
 3894 1294 C4        	.byte0xc4
 3895 1295 0000 1249 	.long0x1249
 3896 1299 10        	.uleb128 0x10
 3897 129a 15        	.byte0x15
 3898 129b 13        	.byte0x13
 3899 129c CA        	.byte0xca
 3900 129d 0000 12BA 	.long0x12ba
 3901 12a1 0B        	.uleb128 0xb
 3902 12a2 0000 0000 	.long.LASF276
 3903 12a6 13        	.byte0x13
 3904 12a7 CC        	.byte0xcc
 3905 12a8 0000 00AA 	.long0xaa
 3906 12ac 00        	.byte0
 3907 12ad 0B        	.uleb128 0xb
 3908 12ae 0000 0000 	.long.LASF287
 3909 12b2 13        	.byte0x13
 3910 12b3 CD        	.byte0xcd
 3911 12b4 0000 00C2 	.long0xc2
 3912 12b8 01        	.byte0x1
 3913 12b9 00        	.byte0
68K GAS   			page 89


 3914 12ba 02        	.uleb128 0x2
 3915 12bb 0000 0000 	.long.LASF288
 3916 12bf 13        	.byte0x13
 3917 12c0 CE        	.byte0xce
 3918 12c1 0000 1299 	.long0x1299
 3919 12c5 10        	.uleb128 0x10
 3920 12c6 34        	.byte0x34
 3921 12c7 14        	.byte0x14
 3922 12c8 43        	.byte0x43
 3923 12c9 0000 130A 	.long0x130a
 3924 12cd 0B        	.uleb128 0xb
 3925 12ce 0000 0000 	.long.LASF264
 3926 12d2 14        	.byte0x14
 3927 12d3 45        	.byte0x45
 3928 12d4 0000 09F9 	.long0x9f9
 3929 12d8 00        	.byte0
 3930 12d9 0B        	.uleb128 0xb
 3931 12da 0000 0000 	.long.LASF289
 3932 12de 14        	.byte0x14
 3933 12df 46        	.byte0x46
 3934 12e0 0000 0BD9 	.long0xbd9
 3935 12e4 28        	.byte0x28
 3936 12e5 0B        	.uleb128 0xb
 3937 12e6 0000 0000 	.long.LASF188
 3938 12ea 14        	.byte0x14
 3939 12eb 47        	.byte0x47
 3940 12ec 0000 0086 	.long0x86
 3941 12f0 2C        	.byte0x2c
 3942 12f1 0B        	.uleb128 0xb
 3943 12f2 0000 0000 	.long.LASF290
 3944 12f6 14        	.byte0x14
 3945 12f7 48        	.byte0x48
 3946 12f8 0000 00AA 	.long0xaa
 3947 12fc 30        	.byte0x30
 3948 12fd 0B        	.uleb128 0xb
 3949 12fe 0000 0000 	.long.LASF291
 3950 1302 14        	.byte0x14
 3951 1303 49        	.byte0x49
 3952 1304 0000 00AA 	.long0xaa
 3953 1308 31        	.byte0x31
 3954 1309 00        	.byte0
 3955 130a 02        	.uleb128 0x2
 3956 130b 0000 0000 	.long.LASF292
 3957 130f 14        	.byte0x14
 3958 1310 4A        	.byte0x4a
 3959 1311 0000 12C5 	.long0x12c5
 3960 1315 21        	.uleb128 0x21
 3961 1316 6818      	.word0x6818
 3962 1318 14        	.byte0x14
 3963 1319 4C        	.byte0x4c
 3964 131a 0000 1368 	.long0x1368
 3965 131e 0B        	.uleb128 0xb
 3966 131f 0000 0000 	.long.LASF293
 3967 1323 14        	.byte0x14
 3968 1324 4E        	.byte0x4e
 3969 1325 0000 0086 	.long0x86
 3970 1329 00        	.byte0
68K GAS   			page 90


 3971 132a 0B        	.uleb128 0xb
 3972 132b 0000 0000 	.long.LASF294
 3973 132f 14        	.byte0x14
 3974 1330 4F        	.byte0x4f
 3975 1331 0000 0086 	.long0x86
 3976 1335 04        	.byte0x4
 3977 1336 0B        	.uleb128 0xb
 3978 1337 0000 0000 	.long.LASF295
 3979 133b 14        	.byte0x14
 3980 133c 50        	.byte0x50
 3981 133d 0000 0086 	.long0x86
 3982 1341 08        	.byte0x8
 3983 1342 0B        	.uleb128 0xb
 3984 1343 0000 0000 	.long.LASF296
 3985 1347 14        	.byte0x14
 3986 1348 51        	.byte0x51
 3987 1349 0000 0086 	.long0x86
 3988 134d 0C        	.byte0xc
 3989 134e 0B        	.uleb128 0xb
 3990 134f 0000 0000 	.long.LASF297
 3991 1353 14        	.byte0x14
 3992 1354 52        	.byte0x52
 3993 1355 0000 1368 	.long0x1368
 3994 1359 10        	.byte0x10
 3995 135a 13        	.uleb128 0x13
 3996 135b 0000 0000 	.long.LASF298
 3997 135f 14        	.byte0x14
 3998 1360 53        	.byte0x53
 3999 1361 0000 089E 	.long0x89e
 4000 1365 6810      	.word0x6810
 4001 1367 00        	.byte0
 4002 1368 06        	.uleb128 0x6
 4003 1369 0000 130A 	.long0x130a
 4004 136d 0000 1379 	.long0x1379
 4005 1371 23        	.uleb128 0x23
 4006 1372 0000 0091 	.long0x91
 4007 1376 01FF      	.word0x1ff
 4008 1378 00        	.byte0
 4009 1379 02        	.uleb128 0x2
 4010 137a 0000 0000 	.long.LASF299
 4011 137e 14        	.byte0x14
 4012 137f 54        	.byte0x54
 4013 1380 0000 1315 	.long0x1315
 4014 1384 10        	.uleb128 0x10
 4015 1385 4C        	.byte0x4c
 4016 1386 15        	.byte0x15
 4017 1387 60        	.byte0x60
 4018 1388 0000 13BD 	.long0x13bd
 4019 138c 0B        	.uleb128 0xb
 4020 138d 0000 0000 	.long.LASF300
 4021 1391 15        	.byte0x15
 4022 1392 61        	.byte0x61
 4023 1393 0000 0086 	.long0x86
 4024 1397 00        	.byte0
 4025 1398 0B        	.uleb128 0xb
 4026 1399 0000 0000 	.long.LASF301
 4027 139d 15        	.byte0x15
68K GAS   			page 91


 4028 139e 62        	.byte0x62
 4029 139f 0000 0086 	.long0x86
 4030 13a3 04        	.byte0x4
 4031 13a4 0B        	.uleb128 0xb
 4032 13a5 0000 0000 	.long.LASF302
 4033 13a9 15        	.byte0x15
 4034 13aa 63        	.byte0x63
 4035 13ab 0000 09E9 	.long0x9e9
 4036 13af 08        	.byte0x8
 4037 13b0 0B        	.uleb128 0xb
 4038 13b1 0000 0000 	.long.LASF303
 4039 13b5 15        	.byte0x15
 4040 13b6 64        	.byte0x64
 4041 13b7 0000 0050 	.long0x50
 4042 13bb 48        	.byte0x48
 4043 13bc 00        	.byte0
 4044 13bd 02        	.uleb128 0x2
 4045 13be 0000 0000 	.long.LASF304
 4046 13c2 15        	.byte0x15
 4047 13c3 65        	.byte0x65
 4048 13c4 0000 1384 	.long0x1384
 4049 13c8 20        	.uleb128 0x20
 4050 13c9 0000 0000 	.long.LASF305
 4051 13cd 15        	.byte0x15
 4052 13ce 67        	.byte0x67
 4053 13cf 0000 13BD 	.long0x13bd
 4054 13d3 10        	.uleb128 0x10
 4055 13d4 1C        	.byte0x1c
 4056 13d5 16        	.byte0x16
 4057 13d6 67        	.byte0x67
 4058 13d7 0000 1400 	.long0x1400
 4059 13db 0B        	.uleb128 0xb
 4060 13dc 0000 0000 	.long.LASF276
 4061 13e0 16        	.byte0x16
 4062 13e1 69        	.byte0x69
 4063 13e2 0000 00AA 	.long0xaa
 4064 13e6 00        	.byte0
 4065 13e7 0B        	.uleb128 0xb
 4066 13e8 0000 0000 	.long.LASF306
 4067 13ec 16        	.byte0x16
 4068 13ed 6A        	.byte0x6a
 4069 13ee 0000 0086 	.long0x86
 4070 13f2 04        	.byte0x4
 4071 13f3 0B        	.uleb128 0xb
 4072 13f4 0000 0000 	.long.LASF307
 4073 13f8 16        	.byte0x16
 4074 13f9 6B        	.byte0x6b
 4075 13fa 0000 00C2 	.long0xc2
 4076 13fe 08        	.byte0x8
 4077 13ff 00        	.byte0
 4078 1400 02        	.uleb128 0x2
 4079 1401 0000 0000 	.long.LASF308
 4080 1405 16        	.byte0x16
 4081 1406 6C        	.byte0x6c
 4082 1407 0000 13D3 	.long0x13d3
 4083 140b 21        	.uleb128 0x21
 4084 140c 87FC      	.word0x87fc
68K GAS   			page 92


 4085 140e 16        	.byte0x16
 4086 140f 74        	.byte0x74
 4087 1410 0000 14C4 	.long0x14c4
 4088 1414 0B        	.uleb128 0xb
 4089 1415 0000 0000 	.long.LASF210
 4090 1419 16        	.byte0x16
 4091 141a 79        	.byte0x79
 4092 141b 0000 0D63 	.long0xd63
 4093 141f 00        	.byte0
 4094 1420 0B        	.uleb128 0xb
 4095 1421 0000 0000 	.long.LASF309
 4096 1425 16        	.byte0x16
 4097 1426 7E        	.byte0x7e
 4098 1427 0000 0086 	.long0x86
 4099 142b 10        	.byte0x10
 4100 142c 0B        	.uleb128 0xb
 4101 142d 0000 0000 	.long.LASF310
 4102 1431 16        	.byte0x16
 4103 1432 83        	.byte0x83
 4104 1433 0000 0086 	.long0x86
 4105 1437 14        	.byte0x14
 4106 1438 0B        	.uleb128 0xb
 4107 1439 0000 0000 	.long.LASF311
 4108 143d 16        	.byte0x16
 4109 143e 84        	.byte0x84
 4110 143f 0000 0086 	.long0x86
 4111 1443 18        	.byte0x18
 4112 1444 0B        	.uleb128 0xb
 4113 1445 0000 0000 	.long.LASF312
 4114 1449 16        	.byte0x16
 4115 144a 85        	.byte0x85
 4116 144b 0000 0086 	.long0x86
 4117 144f 1C        	.byte0x1c
 4118 1450 0B        	.uleb128 0xb
 4119 1451 0000 0000 	.long.LASF313
 4120 1455 16        	.byte0x16
 4121 1456 8A        	.byte0x8a
 4122 1457 0000 0086 	.long0x86
 4123 145b 20        	.byte0x20
 4124 145c 0B        	.uleb128 0xb
 4125 145d 0000 0000 	.long.LASF314
 4126 1461 16        	.byte0x16
 4127 1462 8B        	.byte0x8b
 4128 1463 0000 14C4 	.long0x14c4
 4129 1467 24        	.byte0x24
 4130 1468 13        	.uleb128 0x13
 4131 1469 0000 0000 	.long.LASF315
 4132 146d 16        	.byte0x16
 4133 146e 90        	.byte0x90
 4134 146f 0000 0086 	.long0x86
 4135 1473 0924      	.word0x924
 4136 1475 13        	.uleb128 0x13
 4137 1476 0000 0000 	.long.LASF316
 4138 147a 16        	.byte0x16
 4139 147b 91        	.byte0x91
 4140 147c 0000 0086 	.long0x86
 4141 1480 0928      	.word0x928
68K GAS   			page 93


 4142 1482 13        	.uleb128 0x13
 4143 1483 0000 0000 	.long.LASF317
 4144 1487 16        	.byte0x16
 4145 1488 92        	.byte0x92
 4146 1489 0000 14D4 	.long0x14d4
 4147 148d 092C      	.word0x92c
 4148 148f 13        	.uleb128 0x13
 4149 1490 0000 0000 	.long.LASF318
 4150 1494 16        	.byte0x16
 4151 1495 97        	.byte0x97
 4152 1496 0000 0086 	.long0x86
 4153 149a 1E2C      	.word0x1e2c
 4154 149c 13        	.uleb128 0x13
 4155 149d 0000 0000 	.long.LASF319
 4156 14a1 16        	.byte0x16
 4157 14a2 98        	.byte0x98
 4158 14a3 0000 14E4 	.long0x14e4
 4159 14a7 1E30      	.word0x1e30
 4160 14a9 13        	.uleb128 0x13
 4161 14aa 0000 0000 	.long.LASF320
 4162 14ae 16        	.byte0x16
 4163 14af 9D        	.byte0x9d
 4164 14b0 0000 14F4 	.long0x14f4
 4165 14b4 1F04      	.word0x1f04
 4166 14b6 13        	.uleb128 0x13
 4167 14b7 0000 0000 	.long.LASF321
 4168 14bb 16        	.byte0x16
 4169 14bc A2        	.byte0xa2
 4170 14bd 0000 1379 	.long0x1379
 4171 14c1 1FE4      	.word0x1fe4
 4172 14c3 00        	.byte0
 4173 14c4 06        	.uleb128 0x6
 4174 14c5 0000 128E 	.long0x128e
 4175 14c9 0000 14D4 	.long0x14d4
 4176 14cd 07        	.uleb128 0x7
 4177 14ce 0000 0091 	.long0x91
 4178 14d2 3F        	.byte0x3f
 4179 14d3 00        	.byte0
 4180 14d4 06        	.uleb128 0x6
 4181 14d5 0000 123E 	.long0x123e
 4182 14d9 0000 14E4 	.long0x14e4
 4183 14dd 07        	.uleb128 0x7
 4184 14de 0000 0091 	.long0x91
 4185 14e2 1F        	.byte0x1f
 4186 14e3 00        	.byte0
 4187 14e4 06        	.uleb128 0x6
 4188 14e5 0000 12BA 	.long0x12ba
 4189 14e9 0000 14F4 	.long0x14f4
 4190 14ed 07        	.uleb128 0x7
 4191 14ee 0000 0091 	.long0x91
 4192 14f2 09        	.byte0x9
 4193 14f3 00        	.byte0
 4194 14f4 06        	.uleb128 0x6
 4195 14f5 0000 1400 	.long0x1400
 4196 14f9 0000 1504 	.long0x1504
 4197 14fd 07        	.uleb128 0x7
 4198 14fe 0000 0091 	.long0x91
68K GAS   			page 94


 4199 1502 07        	.byte0x7
 4200 1503 00        	.byte0
 4201 1504 02        	.uleb128 0x2
 4202 1505 0000 0000 	.long.LASF322
 4203 1509 16        	.byte0x16
 4204 150a A4        	.byte0xa4
 4205 150b 0000 140B 	.long0x140b
 4206 150f 20        	.uleb128 0x20
 4207 1510 0000 0000 	.long.LASF323
 4208 1514 16        	.byte0x16
 4209 1515 A9        	.byte0xa9
 4210 1516 0000 1504 	.long0x1504
 4211 151a 20        	.uleb128 0x20
 4212 151b 0000 0000 	.long.LASF324
 4213 151f 16        	.byte0x16
 4214 1520 AE        	.byte0xae
 4215 1521 0000 1525 	.long0x1525
 4216 1525 0D        	.uleb128 0xd
 4217 1526 04        	.byte0x4
 4218 1527 0000 110A 	.long0x110a
 4219 152b 25        	.uleb128 0x25
 4220 152c 0000 0D14 	.long0xd14
 4221 1530 01        	.byte0x1
 4222 1531 52        	.byte0x52
 4223 1532 05        	.uleb128 0x5
 4224 1533 03        	.byte0x3
 4225 1534 0000 0000 	.longCFE_ES_CDSMemPool
 4226 1538 25        	.uleb128 0x25
 4227 1539 0000 0D1F 	.long0xd1f
 4228 153d 01        	.byte0x1
 4229 153e 53        	.byte0x53
 4230 153f 05        	.uleb128 0x5
 4231 1540 03        	.byte0x3
 4232 1541 0000 0000 	.longCFE_ES_CDSBlockDesc
 4233 1545 06        	.uleb128 0x6
 4234 1546 0000 0086 	.long0x86
 4235 154a 0000 1555 	.long0x1555
 4236 154e 07        	.uleb128 0x7
 4237 154f 0000 0091 	.long0x91
 4238 1553 10        	.byte0x10
 4239 1554 00        	.byte0
 4240 1555 26        	.uleb128 0x26
 4241 1556 0000 0000 	.long.LASF325
 4242 155a 01        	.byte0x1
 4243 155b 55        	.byte0x55
 4244 155c 0000 1545 	.long0x1545
 4245 1560 05        	.uleb128 0x5
 4246 1561 03        	.byte0x3
 4247 1562 0000 0000 	.longCFE_ES_CDSMemPoolDefSize
 4248 1566 27        	.uleb128 0x27
 4249 1567 0000 0000 	.long.LASF326
 4250 156b 01        	.byte0x1
 4251 156c 0291      	.word0x291
 4252 156e 0000 0086 	.long0x86
 4253 1572 0000 0000 	.long.LFB66
 4254 1576 0000 004C 	.long.LFE66-.LFB66
 4255 157a 01        	.uleb128 0x1
68K GAS   			page 95


 4256 157b 9C        	.byte0x9c
 4257 157c 0000 159D 	.long0x159d
 4258 1580 28        	.uleb128 0x28
 4259 1581 0000 0000 	.long.LASF328
 4260 1585 01        	.byte0x1
 4261 1586 0291      	.word0x291
 4262 1588 0000 0086 	.long0x86
 4263 158c 02        	.uleb128 0x2
 4264 158d 91        	.byte0x91
 4265 158e 00        	.sleb128 0
 4266 158f 29        	.uleb128 0x29
 4267 1590 6900      	.string"i"
 4268 1592 01        	.byte0x1
 4269 1593 0293      	.word0x293
 4270 1595 0000 0086 	.long0x86
 4271 1599 02        	.uleb128 0x2
 4272 159a 91        	.byte0x91
 4273 159b 78        	.sleb128 -8
 4274 159c 00        	.byte0
 4275 159d 2A        	.uleb128 0x2a
 4276 159e 0000 0000 	.long.LASF327
 4277 15a2 01        	.byte0x1
 4278 15a3 023D      	.word0x23d
 4279 15a5 0000 0050 	.long0x50
 4280 15a9 0000 0000 	.long.LFB65
 4281 15ad 0000 01D8 	.long.LFE65-.LFB65
 4282 15b1 01        	.uleb128 0x1
 4283 15b2 9C        	.byte0x9c
 4284 15b3 0000 1603 	.long0x1603
 4285 15b7 28        	.uleb128 0x28
 4286 15b8 0000 0000 	.long.LASF329
 4287 15bc 01        	.byte0x1
 4288 15bd 023D      	.word0x23d
 4289 15bf 0000 00D2 	.long0xd2
 4290 15c3 02        	.uleb128 0x2
 4291 15c4 91        	.byte0x91
 4292 15c5 00        	.sleb128 0
 4293 15c6 28        	.uleb128 0x28
 4294 15c7 0000 0000 	.long.LASF330
 4295 15cb 01        	.byte0x1
 4296 15cc 023D      	.word0x23d
 4297 15ce 0000 0BD9 	.long0xbd9
 4298 15d2 02        	.uleb128 0x2
 4299 15d3 91        	.byte0x91
 4300 15d4 04        	.sleb128 4
 4301 15d5 2B        	.uleb128 0x2b
 4302 15d6 0000 0000 	.long.LASF331
 4303 15da 01        	.byte0x1
 4304 15db 023F      	.word0x23f
 4305 15dd 0000 0050 	.long0x50
 4306 15e1 02        	.uleb128 0x2
 4307 15e2 91        	.byte0x91
 4308 15e3 78        	.sleb128 -8
 4309 15e4 2B        	.uleb128 0x2b
 4310 15e5 0000 0000 	.long.LASF332
 4311 15e9 01        	.byte0x1
 4312 15ea 0240      	.word0x240
68K GAS   			page 96


 4313 15ec 0000 0086 	.long0x86
 4314 15f0 02        	.uleb128 0x2
 4315 15f1 91        	.byte0x91
 4316 15f2 70        	.sleb128 -16
 4317 15f3 2B        	.uleb128 0x2b
 4318 15f4 0000 0000 	.long.LASF333
 4319 15f8 01        	.byte0x1
 4320 15f9 0241      	.word0x241
 4321 15fb 0000 0050 	.long0x50
 4322 15ff 02        	.uleb128 0x2
 4323 1600 91        	.byte0x91
 4324 1601 74        	.sleb128 -12
 4325 1602 00        	.byte0
 4326 1603 2A        	.uleb128 0x2a
 4327 1604 0000 0000 	.long.LASF334
 4328 1608 01        	.byte0x1
 4329 1609 01EA      	.word0x1ea
 4330 160b 0000 0050 	.long0x50
 4331 160f 0000 0000 	.long.LFB64
 4332 1613 0000 0202 	.long.LFE64-.LFB64
 4333 1617 01        	.uleb128 0x1
 4334 1618 9C        	.byte0x9c
 4335 1619 0000 165A 	.long0x165a
 4336 161d 28        	.uleb128 0x28
 4337 161e 0000 0000 	.long.LASF330
 4338 1622 01        	.byte0x1
 4339 1623 01EA      	.word0x1ea
 4340 1625 0000 0BD9 	.long0xbd9
 4341 1629 02        	.uleb128 0x2
 4342 162a 91        	.byte0x91
 4343 162b 00        	.sleb128 0
 4344 162c 28        	.uleb128 0x28
 4345 162d 0000 0000 	.long.LASF300
 4346 1631 01        	.byte0x1
 4347 1632 01EA      	.word0x1ea
 4348 1634 0000 00D2 	.long0xd2
 4349 1638 02        	.uleb128 0x2
 4350 1639 91        	.byte0x91
 4351 163a 04        	.sleb128 4
 4352 163b 2B        	.uleb128 0x2b
 4353 163c 0000 0000 	.long.LASF331
 4354 1640 01        	.byte0x1
 4355 1641 01EC      	.word0x1ec
 4356 1643 0000 0050 	.long0x50
 4357 1647 02        	.uleb128 0x2
 4358 1648 91        	.byte0x91
 4359 1649 78        	.sleb128 -8
 4360 164a 2B        	.uleb128 0x2b
 4361 164b 0000 0000 	.long.LASF333
 4362 164f 01        	.byte0x1
 4363 1650 01ED      	.word0x1ed
 4364 1652 0000 0050 	.long0x50
 4365 1656 02        	.uleb128 0x2
 4366 1657 91        	.byte0x91
 4367 1658 74        	.sleb128 -12
 4368 1659 00        	.byte0
 4369 165a 27        	.uleb128 0x27
68K GAS   			page 97


 4370 165b 0000 0000 	.long.LASF335
 4371 165f 01        	.byte0x1
 4372 1660 01CF      	.word0x1cf
 4373 1662 0000 0050 	.long0x50
 4374 1666 0000 0000 	.long.LFB63
 4375 166a 0000 003C 	.long.LFE63-.LFB63
 4376 166e 01        	.uleb128 0x1
 4377 166f 9C        	.byte0x9c
 4378 1670 0000 1691 	.long0x1691
 4379 1674 28        	.uleb128 0x28
 4380 1675 0000 0000 	.long.LASF336
 4381 1679 01        	.byte0x1
 4382 167a 01CF      	.word0x1cf
 4383 167c 0000 0086 	.long0x86
 4384 1680 02        	.uleb128 0x2
 4385 1681 91        	.byte0x91
 4386 1682 00        	.sleb128 0
 4387 1683 29        	.uleb128 0x29
 4388 1684 6900      	.string"i"
 4389 1686 01        	.byte0x1
 4390 1687 01D1      	.word0x1d1
 4391 1689 0000 0050 	.long0x50
 4392 168d 02        	.uleb128 0x2
 4393 168e 91        	.byte0x91
 4394 168f 78        	.sleb128 -8
 4395 1690 00        	.byte0
 4396 1691 2A        	.uleb128 0x2a
 4397 1692 0000 0000 	.long.LASF337
 4398 1696 01        	.byte0x1
 4399 1697 0186      	.word0x186
 4400 1699 0000 0050 	.long0x50
 4401 169d 0000 0000 	.long.LFB62
 4402 16a1 0000 01EC 	.long.LFE62-.LFB62
 4403 16a5 01        	.uleb128 0x1
 4404 16a6 9C        	.byte0x9c
 4405 16a7 0000 16D9 	.long0x16d9
 4406 16ab 28        	.uleb128 0x28
 4407 16ac 0000 0000 	.long.LASF330
 4408 16b0 01        	.byte0x1
 4409 16b1 0186      	.word0x186
 4410 16b3 0000 0BD9 	.long0xbd9
 4411 16b7 02        	.uleb128 0x2
 4412 16b8 91        	.byte0x91
 4413 16b9 00        	.sleb128 0
 4414 16ba 2B        	.uleb128 0x2b
 4415 16bb 0000 0000 	.long.LASF333
 4416 16bf 01        	.byte0x1
 4417 16c0 0188      	.word0x188
 4418 16c2 0000 0050 	.long0x50
 4419 16c6 02        	.uleb128 0x2
 4420 16c7 91        	.byte0x91
 4421 16c8 74        	.sleb128 -12
 4422 16c9 2B        	.uleb128 0x2b
 4423 16ca 0000 0000 	.long.LASF331
 4424 16ce 01        	.byte0x1
 4425 16cf 0189      	.word0x189
 4426 16d1 0000 0050 	.long0x50
68K GAS   			page 98


 4427 16d5 02        	.uleb128 0x2
 4428 16d6 91        	.byte0x91
 4429 16d7 78        	.sleb128 -8
 4430 16d8 00        	.byte0
 4431 16d9 2A        	.uleb128 0x2a
 4432 16da 0000 0000 	.long.LASF338
 4433 16de 01        	.byte0x1
 4434 16df 0122      	.word0x122
 4435 16e1 0000 0050 	.long0x50
 4436 16e5 0000 0000 	.long.LFB61
 4437 16e9 0000 02CE 	.long.LFE61-.LFB61
 4438 16ed 01        	.uleb128 0x1
 4439 16ee 9C        	.byte0x9c
 4440 16ef 0000 1730 	.long0x1730
 4441 16f3 28        	.uleb128 0x28
 4442 16f4 0000 0000 	.long.LASF330
 4443 16f8 01        	.byte0x1
 4444 16f9 0122      	.word0x122
 4445 16fb 0000 1730 	.long0x1730
 4446 16ff 02        	.uleb128 0x2
 4447 1700 91        	.byte0x91
 4448 1701 00        	.sleb128 0
 4449 1702 28        	.uleb128 0x28
 4450 1703 0000 0000 	.long.LASF339
 4451 1707 01        	.byte0x1
 4452 1708 0123      	.word0x123
 4453 170a 0000 0086 	.long0x86
 4454 170e 02        	.uleb128 0x2
 4455 170f 91        	.byte0x91
 4456 1710 04        	.sleb128 4
 4457 1711 2B        	.uleb128 0x2b
 4458 1712 0000 0000 	.long.LASF333
 4459 1716 01        	.byte0x1
 4460 1717 0125      	.word0x125
 4461 1719 0000 0050 	.long0x50
 4462 171d 02        	.uleb128 0x2
 4463 171e 91        	.byte0x91
 4464 171f 78        	.sleb128 -8
 4465 1720 2B        	.uleb128 0x2b
 4466 1721 0000 0000 	.long.LASF331
 4467 1725 01        	.byte0x1
 4468 1726 0126      	.word0x126
 4469 1728 0000 0050 	.long0x50
 4470 172c 02        	.uleb128 0x2
 4471 172d 91        	.byte0x91
 4472 172e 74        	.sleb128 -12
 4473 172f 00        	.byte0
 4474 1730 0D        	.uleb128 0xd
 4475 1731 04        	.byte0x4
 4476 1732 0000 0BD9 	.long0xbd9
 4477 1736 2C        	.uleb128 0x2c
 4478 1737 0000 0000 	.long.LASF340
 4479 173b 01        	.byte0x1
 4480 173c AD        	.byte0xad
 4481 173d 0000 0050 	.long0x50
 4482 1741 0000 0000 	.long.LFB60
 4483 1745 0000 02F8 	.long.LFE60-.LFB60
68K GAS   			page 99


 4484 1749 01        	.uleb128 0x1
 4485 174a 9C        	.byte0x9c
 4486 174b 0000 17BE 	.long0x17be
 4487 174f 2D        	.uleb128 0x2d
 4488 1750 0000 0000 	.long.LASF341
 4489 1754 01        	.byte0x1
 4490 1755 AD        	.byte0xad
 4491 1756 0000 0086 	.long0x86
 4492 175a 02        	.uleb128 0x2
 4493 175b 91        	.byte0x91
 4494 175c 00        	.sleb128 0
 4495 175d 2D        	.uleb128 0x2d
 4496 175e 0000 0000 	.long.LASF342
 4497 1762 01        	.byte0x1
 4498 1763 AD        	.byte0xad
 4499 1764 0000 0086 	.long0x86
 4500 1768 02        	.uleb128 0x2
 4501 1769 91        	.byte0x91
 4502 176a 04        	.sleb128 4
 4503 176b 2E        	.uleb128 0x2e
 4504 176c 0000 0000 	.long.LASF343
 4505 1770 01        	.byte0x1
 4506 1771 AF        	.byte0xaf
 4507 1772 0000 17BE 	.long0x17be
 4508 1776 02        	.uleb128 0x2
 4509 1777 91        	.byte0x91
 4510 1778 5E        	.sleb128 -34
 4511 1779 2F        	.uleb128 0x2f
 4512 177a 6900      	.string"i"
 4513 177c 01        	.byte0x1
 4514 177d B0        	.byte0xb0
 4515 177e 0000 0086 	.long0x86
 4516 1782 02        	.uleb128 0x2
 4517 1783 91        	.byte0x91
 4518 1784 78        	.sleb128 -8
 4519 1785 2E        	.uleb128 0x2e
 4520 1786 0000 0000 	.long.LASF188
 4521 178a 01        	.byte0x1
 4522 178b B1        	.byte0xb1
 4523 178c 0000 0086 	.long0x86
 4524 1790 02        	.uleb128 0x2
 4525 1791 91        	.byte0x91
 4526 1792 6C        	.sleb128 -20
 4527 1793 2E        	.uleb128 0x2e
 4528 1794 0000 0000 	.long.LASF331
 4529 1798 01        	.byte0x1
 4530 1799 B2        	.byte0xb2
 4531 179a 0000 0050 	.long0x50
 4532 179e 02        	.uleb128 0x2
 4533 179f 91        	.byte0x91
 4534 17a0 74        	.sleb128 -12
 4535 17a1 2E        	.uleb128 0x2e
 4536 17a2 0000 0000 	.long.LASF344
 4537 17a6 01        	.byte0x1
 4538 17a7 B3        	.byte0xb3
 4539 17a8 0000 0086 	.long0x86
 4540 17ac 02        	.uleb128 0x2
68K GAS   			page 100


 4541 17ad 91        	.byte0x91
 4542 17ae 70        	.sleb128 -16
 4543 17af 2E        	.uleb128 0x2e
 4544 17b0 0000 0000 	.long.LASF333
 4545 17b4 01        	.byte0x1
 4546 17b5 B4        	.byte0xb4
 4547 17b6 0000 0050 	.long0x50
 4548 17ba 02        	.uleb128 0x2
 4549 17bb 91        	.byte0x91
 4550 17bc 68        	.sleb128 -24
 4551 17bd 00        	.byte0
 4552 17be 06        	.uleb128 0x6
 4553 17bf 0000 00B6 	.long0xb6
 4554 17c3 0000 17CE 	.long0x17ce
 4555 17c7 07        	.uleb128 0x7
 4556 17c8 0000 0091 	.long0x91
 4557 17cc 09        	.byte0x9
 4558 17cd 00        	.byte0
 4559 17ce 30        	.uleb128 0x30
 4560 17cf 0000 0000 	.long.LASF348
 4561 17d3 01        	.byte0x1
 4562 17d4 78        	.byte0x78
 4563 17d5 0000 0050 	.long0x50
 4564 17d9 0000 0000 	.long.LFB59
 4565 17dd 0000 0170 	.long.LFE59-.LFB59
 4566 17e1 01        	.uleb128 0x1
 4567 17e2 9C        	.byte0x9c
 4568 17e3 2D        	.uleb128 0x2d
 4569 17e4 0000 0000 	.long.LASF341
 4570 17e8 01        	.byte0x1
 4571 17e9 78        	.byte0x78
 4572 17ea 0000 0086 	.long0x86
 4573 17ee 02        	.uleb128 0x2
 4574 17ef 91        	.byte0x91
 4575 17f0 00        	.sleb128 0
 4576 17f1 2D        	.uleb128 0x2d
 4577 17f2 0000 0000 	.long.LASF342
 4578 17f6 01        	.byte0x1
 4579 17f7 78        	.byte0x78
 4580 17f8 0000 0086 	.long0x86
 4581 17fc 02        	.uleb128 0x2
 4582 17fd 91        	.byte0x91
 4583 17fe 04        	.sleb128 4
 4584 17ff 2E        	.uleb128 0x2e
 4585 1800 0000 0000 	.long.LASF343
 4586 1804 01        	.byte0x1
 4587 1805 7A        	.byte0x7a
 4588 1806 0000 17BE 	.long0x17be
 4589 180a 02        	.uleb128 0x2
 4590 180b 91        	.byte0x91
 4591 180c 6A        	.sleb128 -22
 4592 180d 2F        	.uleb128 0x2f
 4593 180e 6900      	.string"i"
 4594 1810 01        	.byte0x1
 4595 1811 7B        	.byte0x7b
 4596 1812 0000 0086 	.long0x86
 4597 1816 02        	.uleb128 0x2
68K GAS   			page 101


 4598 1817 91        	.byte0x91
 4599 1818 78        	.sleb128 -8
 4600 1819 2E        	.uleb128 0x2e
 4601 181a 0000 0000 	.long.LASF188
 4602 181e 01        	.byte0x1
 4603 181f 7C        	.byte0x7c
 4604 1820 0000 0086 	.long0x86
 4605 1824 02        	.uleb128 0x2
 4606 1825 91        	.byte0x91
 4607 1826 74        	.sleb128 -12
 4608 1827 00        	.byte0
 4609 1828 00        	.byte0
 4610               	.section.debug_abbrev,"",@progbits
 4611               	.Ldebug_abbrev0:
 4612 0000 01        	.uleb128 0x1
 4613 0001 11        	.uleb128 0x11
 4614 0002 01        	.byte0x1
 4615 0003 25        	.uleb128 0x25
 4616 0004 0E        	.uleb128 0xe
 4617 0005 13        	.uleb128 0x13
 4618 0006 0B        	.uleb128 0xb
 4619 0007 03        	.uleb128 0x3
 4620 0008 0E        	.uleb128 0xe
 4621 0009 1B        	.uleb128 0x1b
 4622 000a 0E        	.uleb128 0xe
 4623 000b 11        	.uleb128 0x11
 4624 000c 01        	.uleb128 0x1
 4625 000d 12        	.uleb128 0x12
 4626 000e 06        	.uleb128 0x6
 4627 000f 10        	.uleb128 0x10
 4628 0010 17        	.uleb128 0x17
 4629 0011 00        	.byte0
 4630 0012 00        	.byte0
 4631 0013 02        	.uleb128 0x2
 4632 0014 16        	.uleb128 0x16
 4633 0015 00        	.byte0
 4634 0016 03        	.uleb128 0x3
 4635 0017 0E        	.uleb128 0xe
 4636 0018 3A        	.uleb128 0x3a
 4637 0019 0B        	.uleb128 0xb
 4638 001a 3B        	.uleb128 0x3b
 4639 001b 0B        	.uleb128 0xb
 4640 001c 49        	.uleb128 0x49
 4641 001d 13        	.uleb128 0x13
 4642 001e 00        	.byte0
 4643 001f 00        	.byte0
 4644 0020 03        	.uleb128 0x3
 4645 0021 24        	.uleb128 0x24
 4646 0022 00        	.byte0
 4647 0023 0B        	.uleb128 0xb
 4648 0024 0B        	.uleb128 0xb
 4649 0025 3E        	.uleb128 0x3e
 4650 0026 0B        	.uleb128 0xb
 4651 0027 03        	.uleb128 0x3
 4652 0028 0E        	.uleb128 0xe
 4653 0029 00        	.byte0
 4654 002a 00        	.byte0
68K GAS   			page 102


 4655 002b 04        	.uleb128 0x4
 4656 002c 16        	.uleb128 0x16
 4657 002d 00        	.byte0
 4658 002e 03        	.uleb128 0x3
 4659 002f 0E        	.uleb128 0xe
 4660 0030 3A        	.uleb128 0x3a
 4661 0031 0B        	.uleb128 0xb
 4662 0032 3B        	.uleb128 0x3b
 4663 0033 05        	.uleb128 0x5
 4664 0034 49        	.uleb128 0x49
 4665 0035 13        	.uleb128 0x13
 4666 0036 00        	.byte0
 4667 0037 00        	.byte0
 4668 0038 05        	.uleb128 0x5
 4669 0039 26        	.uleb128 0x26
 4670 003a 00        	.byte0
 4671 003b 49        	.uleb128 0x49
 4672 003c 13        	.uleb128 0x13
 4673 003d 00        	.byte0
 4674 003e 00        	.byte0
 4675 003f 06        	.uleb128 0x6
 4676 0040 01        	.uleb128 0x1
 4677 0041 01        	.byte0x1
 4678 0042 49        	.uleb128 0x49
 4679 0043 13        	.uleb128 0x13
 4680 0044 01        	.uleb128 0x1
 4681 0045 13        	.uleb128 0x13
 4682 0046 00        	.byte0
 4683 0047 00        	.byte0
 4684 0048 07        	.uleb128 0x7
 4685 0049 21        	.uleb128 0x21
 4686 004a 00        	.byte0
 4687 004b 49        	.uleb128 0x49
 4688 004c 13        	.uleb128 0x13
 4689 004d 2F        	.uleb128 0x2f
 4690 004e 0B        	.uleb128 0xb
 4691 004f 00        	.byte0
 4692 0050 00        	.byte0
 4693 0051 08        	.uleb128 0x8
 4694 0052 0F        	.uleb128 0xf
 4695 0053 00        	.byte0
 4696 0054 0B        	.uleb128 0xb
 4697 0055 0B        	.uleb128 0xb
 4698 0056 00        	.byte0
 4699 0057 00        	.byte0
 4700 0058 09        	.uleb128 0x9
 4701 0059 24        	.uleb128 0x24
 4702 005a 00        	.byte0
 4703 005b 0B        	.uleb128 0xb
 4704 005c 0B        	.uleb128 0xb
 4705 005d 3E        	.uleb128 0x3e
 4706 005e 0B        	.uleb128 0xb
 4707 005f 03        	.uleb128 0x3
 4708 0060 08        	.uleb128 0x8
 4709 0061 00        	.byte0
 4710 0062 00        	.byte0
 4711 0063 0A        	.uleb128 0xa
68K GAS   			page 103


 4712 0064 13        	.uleb128 0x13
 4713 0065 01        	.byte0x1
 4714 0066 03        	.uleb128 0x3
 4715 0067 0E        	.uleb128 0xe
 4716 0068 0B        	.uleb128 0xb
 4717 0069 0B        	.uleb128 0xb
 4718 006a 3A        	.uleb128 0x3a
 4719 006b 0B        	.uleb128 0xb
 4720 006c 3B        	.uleb128 0x3b
 4721 006d 0B        	.uleb128 0xb
 4722 006e 01        	.uleb128 0x1
 4723 006f 13        	.uleb128 0x13
 4724 0070 00        	.byte0
 4725 0071 00        	.byte0
 4726 0072 0B        	.uleb128 0xb
 4727 0073 0D        	.uleb128 0xd
 4728 0074 00        	.byte0
 4729 0075 03        	.uleb128 0x3
 4730 0076 0E        	.uleb128 0xe
 4731 0077 3A        	.uleb128 0x3a
 4732 0078 0B        	.uleb128 0xb
 4733 0079 3B        	.uleb128 0x3b
 4734 007a 0B        	.uleb128 0xb
 4735 007b 49        	.uleb128 0x49
 4736 007c 13        	.uleb128 0x13
 4737 007d 38        	.uleb128 0x38
 4738 007e 0B        	.uleb128 0xb
 4739 007f 00        	.byte0
 4740 0080 00        	.byte0
 4741 0081 0C        	.uleb128 0xc
 4742 0082 13        	.uleb128 0x13
 4743 0083 00        	.byte0
 4744 0084 03        	.uleb128 0x3
 4745 0085 0E        	.uleb128 0xe
 4746 0086 3C        	.uleb128 0x3c
 4747 0087 19        	.uleb128 0x19
 4748 0088 00        	.byte0
 4749 0089 00        	.byte0
 4750 008a 0D        	.uleb128 0xd
 4751 008b 0F        	.uleb128 0xf
 4752 008c 00        	.byte0
 4753 008d 0B        	.uleb128 0xb
 4754 008e 0B        	.uleb128 0xb
 4755 008f 49        	.uleb128 0x49
 4756 0090 13        	.uleb128 0x13
 4757 0091 00        	.byte0
 4758 0092 00        	.byte0
 4759 0093 0E        	.uleb128 0xe
 4760 0094 17        	.uleb128 0x17
 4761 0095 01        	.byte0x1
 4762 0096 0B        	.uleb128 0xb
 4763 0097 0B        	.uleb128 0xb
 4764 0098 3A        	.uleb128 0x3a
 4765 0099 0B        	.uleb128 0xb
 4766 009a 3B        	.uleb128 0x3b
 4767 009b 0B        	.uleb128 0xb
 4768 009c 01        	.uleb128 0x1
68K GAS   			page 104


 4769 009d 13        	.uleb128 0x13
 4770 009e 00        	.byte0
 4771 009f 00        	.byte0
 4772 00a0 0F        	.uleb128 0xf
 4773 00a1 0D        	.uleb128 0xd
 4774 00a2 00        	.byte0
 4775 00a3 03        	.uleb128 0x3
 4776 00a4 0E        	.uleb128 0xe
 4777 00a5 3A        	.uleb128 0x3a
 4778 00a6 0B        	.uleb128 0xb
 4779 00a7 3B        	.uleb128 0x3b
 4780 00a8 0B        	.uleb128 0xb
 4781 00a9 49        	.uleb128 0x49
 4782 00aa 13        	.uleb128 0x13
 4783 00ab 00        	.byte0
 4784 00ac 00        	.byte0
 4785 00ad 10        	.uleb128 0x10
 4786 00ae 13        	.uleb128 0x13
 4787 00af 01        	.byte0x1
 4788 00b0 0B        	.uleb128 0xb
 4789 00b1 0B        	.uleb128 0xb
 4790 00b2 3A        	.uleb128 0x3a
 4791 00b3 0B        	.uleb128 0xb
 4792 00b4 3B        	.uleb128 0x3b
 4793 00b5 0B        	.uleb128 0xb
 4794 00b6 01        	.uleb128 0x1
 4795 00b7 13        	.uleb128 0x13
 4796 00b8 00        	.byte0
 4797 00b9 00        	.byte0
 4798 00ba 11        	.uleb128 0x11
 4799 00bb 0D        	.uleb128 0xd
 4800 00bc 00        	.byte0
 4801 00bd 03        	.uleb128 0x3
 4802 00be 08        	.uleb128 0x8
 4803 00bf 3A        	.uleb128 0x3a
 4804 00c0 0B        	.uleb128 0xb
 4805 00c1 3B        	.uleb128 0x3b
 4806 00c2 0B        	.uleb128 0xb
 4807 00c3 49        	.uleb128 0x49
 4808 00c4 13        	.uleb128 0x13
 4809 00c5 38        	.uleb128 0x38
 4810 00c6 0B        	.uleb128 0xb
 4811 00c7 00        	.byte0
 4812 00c8 00        	.byte0
 4813 00c9 12        	.uleb128 0x12
 4814 00ca 13        	.uleb128 0x13
 4815 00cb 01        	.byte0x1
 4816 00cc 03        	.uleb128 0x3
 4817 00cd 0E        	.uleb128 0xe
 4818 00ce 0B        	.uleb128 0xb
 4819 00cf 05        	.uleb128 0x5
 4820 00d0 3A        	.uleb128 0x3a
 4821 00d1 0B        	.uleb128 0xb
 4822 00d2 3B        	.uleb128 0x3b
 4823 00d3 0B        	.uleb128 0xb
 4824 00d4 01        	.uleb128 0x1
 4825 00d5 13        	.uleb128 0x13
68K GAS   			page 105


 4826 00d6 00        	.byte0
 4827 00d7 00        	.byte0
 4828 00d8 13        	.uleb128 0x13
 4829 00d9 0D        	.uleb128 0xd
 4830 00da 00        	.byte0
 4831 00db 03        	.uleb128 0x3
 4832 00dc 0E        	.uleb128 0xe
 4833 00dd 3A        	.uleb128 0x3a
 4834 00de 0B        	.uleb128 0xb
 4835 00df 3B        	.uleb128 0x3b
 4836 00e0 0B        	.uleb128 0xb
 4837 00e1 49        	.uleb128 0x49
 4838 00e2 13        	.uleb128 0x13
 4839 00e3 38        	.uleb128 0x38
 4840 00e4 05        	.uleb128 0x5
 4841 00e5 00        	.byte0
 4842 00e6 00        	.byte0
 4843 00e7 14        	.uleb128 0x14
 4844 00e8 15        	.uleb128 0x15
 4845 00e9 00        	.byte0
 4846 00ea 27        	.uleb128 0x27
 4847 00eb 19        	.uleb128 0x19
 4848 00ec 00        	.byte0
 4849 00ed 00        	.byte0
 4850 00ee 15        	.uleb128 0x15
 4851 00ef 15        	.uleb128 0x15
 4852 00f0 01        	.byte0x1
 4853 00f1 27        	.uleb128 0x27
 4854 00f2 19        	.uleb128 0x19
 4855 00f3 49        	.uleb128 0x49
 4856 00f4 13        	.uleb128 0x13
 4857 00f5 01        	.uleb128 0x1
 4858 00f6 13        	.uleb128 0x13
 4859 00f7 00        	.byte0
 4860 00f8 00        	.byte0
 4861 00f9 16        	.uleb128 0x16
 4862 00fa 05        	.uleb128 0x5
 4863 00fb 00        	.byte0
 4864 00fc 49        	.uleb128 0x49
 4865 00fd 13        	.uleb128 0x13
 4866 00fe 00        	.byte0
 4867 00ff 00        	.byte0
 4868 0100 17        	.uleb128 0x17
 4869 0101 13        	.uleb128 0x13
 4870 0102 01        	.byte0x1
 4871 0103 03        	.uleb128 0x3
 4872 0104 0E        	.uleb128 0xe
 4873 0105 0B        	.uleb128 0xb
 4874 0106 05        	.uleb128 0x5
 4875 0107 3A        	.uleb128 0x3a
 4876 0108 0B        	.uleb128 0xb
 4877 0109 3B        	.uleb128 0x3b
 4878 010a 05        	.uleb128 0x5
 4879 010b 01        	.uleb128 0x1
 4880 010c 13        	.uleb128 0x13
 4881 010d 00        	.byte0
 4882 010e 00        	.byte0
68K GAS   			page 106


 4883 010f 18        	.uleb128 0x18
 4884 0110 0D        	.uleb128 0xd
 4885 0111 00        	.byte0
 4886 0112 03        	.uleb128 0x3
 4887 0113 0E        	.uleb128 0xe
 4888 0114 3A        	.uleb128 0x3a
 4889 0115 0B        	.uleb128 0xb
 4890 0116 3B        	.uleb128 0x3b
 4891 0117 05        	.uleb128 0x5
 4892 0118 49        	.uleb128 0x49
 4893 0119 13        	.uleb128 0x13
 4894 011a 38        	.uleb128 0x38
 4895 011b 0B        	.uleb128 0xb
 4896 011c 00        	.byte0
 4897 011d 00        	.byte0
 4898 011e 19        	.uleb128 0x19
 4899 011f 0D        	.uleb128 0xd
 4900 0120 00        	.byte0
 4901 0121 03        	.uleb128 0x3
 4902 0122 0E        	.uleb128 0xe
 4903 0123 3A        	.uleb128 0x3a
 4904 0124 0B        	.uleb128 0xb
 4905 0125 3B        	.uleb128 0x3b
 4906 0126 05        	.uleb128 0x5
 4907 0127 49        	.uleb128 0x49
 4908 0128 13        	.uleb128 0x13
 4909 0129 38        	.uleb128 0x38
 4910 012a 05        	.uleb128 0x5
 4911 012b 00        	.byte0
 4912 012c 00        	.byte0
 4913 012d 1A        	.uleb128 0x1a
 4914 012e 13        	.uleb128 0x13
 4915 012f 01        	.byte0x1
 4916 0130 03        	.uleb128 0x3
 4917 0131 0E        	.uleb128 0xe
 4918 0132 0B        	.uleb128 0xb
 4919 0133 0B        	.uleb128 0xb
 4920 0134 3A        	.uleb128 0x3a
 4921 0135 0B        	.uleb128 0xb
 4922 0136 3B        	.uleb128 0x3b
 4923 0137 05        	.uleb128 0x5
 4924 0138 01        	.uleb128 0x1
 4925 0139 13        	.uleb128 0x13
 4926 013a 00        	.byte0
 4927 013b 00        	.byte0
 4928 013c 1B        	.uleb128 0x1b
 4929 013d 13        	.uleb128 0x13
 4930 013e 01        	.byte0x1
 4931 013f 0B        	.uleb128 0xb
 4932 0140 0B        	.uleb128 0xb
 4933 0141 3A        	.uleb128 0x3a
 4934 0142 0B        	.uleb128 0xb
 4935 0143 3B        	.uleb128 0x3b
 4936 0144 05        	.uleb128 0x5
 4937 0145 01        	.uleb128 0x1
 4938 0146 13        	.uleb128 0x13
 4939 0147 00        	.byte0
68K GAS   			page 107


 4940 0148 00        	.byte0
 4941 0149 1C        	.uleb128 0x1c
 4942 014a 17        	.uleb128 0x17
 4943 014b 01        	.byte0x1
 4944 014c 0B        	.uleb128 0xb
 4945 014d 0B        	.uleb128 0xb
 4946 014e 3A        	.uleb128 0x3a
 4947 014f 0B        	.uleb128 0xb
 4948 0150 3B        	.uleb128 0x3b
 4949 0151 05        	.uleb128 0x5
 4950 0152 01        	.uleb128 0x1
 4951 0153 13        	.uleb128 0x13
 4952 0154 00        	.byte0
 4953 0155 00        	.byte0
 4954 0156 1D        	.uleb128 0x1d
 4955 0157 0D        	.uleb128 0xd
 4956 0158 00        	.byte0
 4957 0159 03        	.uleb128 0x3
 4958 015a 0E        	.uleb128 0xe
 4959 015b 3A        	.uleb128 0x3a
 4960 015c 0B        	.uleb128 0xb
 4961 015d 3B        	.uleb128 0x3b
 4962 015e 05        	.uleb128 0x5
 4963 015f 49        	.uleb128 0x49
 4964 0160 13        	.uleb128 0x13
 4965 0161 00        	.byte0
 4966 0162 00        	.byte0
 4967 0163 1E        	.uleb128 0x1e
 4968 0164 15        	.uleb128 0x15
 4969 0165 01        	.byte0x1
 4970 0166 27        	.uleb128 0x27
 4971 0167 19        	.uleb128 0x19
 4972 0168 01        	.uleb128 0x1
 4973 0169 13        	.uleb128 0x13
 4974 016a 00        	.byte0
 4975 016b 00        	.byte0
 4976 016c 1F        	.uleb128 0x1f
 4977 016d 34        	.uleb128 0x34
 4978 016e 00        	.byte0
 4979 016f 03        	.uleb128 0x3
 4980 0170 0E        	.uleb128 0xe
 4981 0171 3A        	.uleb128 0x3a
 4982 0172 0B        	.uleb128 0xb
 4983 0173 3B        	.uleb128 0x3b
 4984 0174 05        	.uleb128 0x5
 4985 0175 49        	.uleb128 0x49
 4986 0176 13        	.uleb128 0x13
 4987 0177 3F        	.uleb128 0x3f
 4988 0178 19        	.uleb128 0x19
 4989 0179 3C        	.uleb128 0x3c
 4990 017a 19        	.uleb128 0x19
 4991 017b 00        	.byte0
 4992 017c 00        	.byte0
 4993 017d 20        	.uleb128 0x20
 4994 017e 34        	.uleb128 0x34
 4995 017f 00        	.byte0
 4996 0180 03        	.uleb128 0x3
68K GAS   			page 108


 4997 0181 0E        	.uleb128 0xe
 4998 0182 3A        	.uleb128 0x3a
 4999 0183 0B        	.uleb128 0xb
 5000 0184 3B        	.uleb128 0x3b
 5001 0185 0B        	.uleb128 0xb
 5002 0186 49        	.uleb128 0x49
 5003 0187 13        	.uleb128 0x13
 5004 0188 3F        	.uleb128 0x3f
 5005 0189 19        	.uleb128 0x19
 5006 018a 3C        	.uleb128 0x3c
 5007 018b 19        	.uleb128 0x19
 5008 018c 00        	.byte0
 5009 018d 00        	.byte0
 5010 018e 21        	.uleb128 0x21
 5011 018f 13        	.uleb128 0x13
 5012 0190 01        	.byte0x1
 5013 0191 0B        	.uleb128 0xb
 5014 0192 05        	.uleb128 0x5
 5015 0193 3A        	.uleb128 0x3a
 5016 0194 0B        	.uleb128 0xb
 5017 0195 3B        	.uleb128 0x3b
 5018 0196 0B        	.uleb128 0xb
 5019 0197 01        	.uleb128 0x1
 5020 0198 13        	.uleb128 0x13
 5021 0199 00        	.byte0
 5022 019a 00        	.byte0
 5023 019b 22        	.uleb128 0x22
 5024 019c 13        	.uleb128 0x13
 5025 019d 01        	.byte0x1
 5026 019e 0B        	.uleb128 0xb
 5027 019f 06        	.uleb128 0x6
 5028 01a0 3A        	.uleb128 0x3a
 5029 01a1 0B        	.uleb128 0xb
 5030 01a2 3B        	.uleb128 0x3b
 5031 01a3 0B        	.uleb128 0xb
 5032 01a4 01        	.uleb128 0x1
 5033 01a5 13        	.uleb128 0x13
 5034 01a6 00        	.byte0
 5035 01a7 00        	.byte0
 5036 01a8 23        	.uleb128 0x23
 5037 01a9 21        	.uleb128 0x21
 5038 01aa 00        	.byte0
 5039 01ab 49        	.uleb128 0x49
 5040 01ac 13        	.uleb128 0x13
 5041 01ad 2F        	.uleb128 0x2f
 5042 01ae 05        	.uleb128 0x5
 5043 01af 00        	.byte0
 5044 01b0 00        	.byte0
 5045 01b1 24        	.uleb128 0x24
 5046 01b2 0D        	.uleb128 0xd
 5047 01b3 00        	.byte0
 5048 01b4 03        	.uleb128 0x3
 5049 01b5 0E        	.uleb128 0xe
 5050 01b6 3A        	.uleb128 0x3a
 5051 01b7 0B        	.uleb128 0xb
 5052 01b8 3B        	.uleb128 0x3b
 5053 01b9 0B        	.uleb128 0xb
68K GAS   			page 109


 5054 01ba 49        	.uleb128 0x49
 5055 01bb 13        	.uleb128 0x13
 5056 01bc 38        	.uleb128 0x38
 5057 01bd 06        	.uleb128 0x6
 5058 01be 00        	.byte0
 5059 01bf 00        	.byte0
 5060 01c0 25        	.uleb128 0x25
 5061 01c1 34        	.uleb128 0x34
 5062 01c2 00        	.byte0
 5063 01c3 47        	.uleb128 0x47
 5064 01c4 13        	.uleb128 0x13
 5065 01c5 3A        	.uleb128 0x3a
 5066 01c6 0B        	.uleb128 0xb
 5067 01c7 3B        	.uleb128 0x3b
 5068 01c8 0B        	.uleb128 0xb
 5069 01c9 02        	.uleb128 0x2
 5070 01ca 18        	.uleb128 0x18
 5071 01cb 00        	.byte0
 5072 01cc 00        	.byte0
 5073 01cd 26        	.uleb128 0x26
 5074 01ce 34        	.uleb128 0x34
 5075 01cf 00        	.byte0
 5076 01d0 03        	.uleb128 0x3
 5077 01d1 0E        	.uleb128 0xe
 5078 01d2 3A        	.uleb128 0x3a
 5079 01d3 0B        	.uleb128 0xb
 5080 01d4 3B        	.uleb128 0x3b
 5081 01d5 0B        	.uleb128 0xb
 5082 01d6 49        	.uleb128 0x49
 5083 01d7 13        	.uleb128 0x13
 5084 01d8 3F        	.uleb128 0x3f
 5085 01d9 19        	.uleb128 0x19
 5086 01da 02        	.uleb128 0x2
 5087 01db 18        	.uleb128 0x18
 5088 01dc 00        	.byte0
 5089 01dd 00        	.byte0
 5090 01de 27        	.uleb128 0x27
 5091 01df 2E        	.uleb128 0x2e
 5092 01e0 01        	.byte0x1
 5093 01e1 3F        	.uleb128 0x3f
 5094 01e2 19        	.uleb128 0x19
 5095 01e3 03        	.uleb128 0x3
 5096 01e4 0E        	.uleb128 0xe
 5097 01e5 3A        	.uleb128 0x3a
 5098 01e6 0B        	.uleb128 0xb
 5099 01e7 3B        	.uleb128 0x3b
 5100 01e8 05        	.uleb128 0x5
 5101 01e9 27        	.uleb128 0x27
 5102 01ea 19        	.uleb128 0x19
 5103 01eb 49        	.uleb128 0x49
 5104 01ec 13        	.uleb128 0x13
 5105 01ed 11        	.uleb128 0x11
 5106 01ee 01        	.uleb128 0x1
 5107 01ef 12        	.uleb128 0x12
 5108 01f0 06        	.uleb128 0x6
 5109 01f1 40        	.uleb128 0x40
 5110 01f2 18        	.uleb128 0x18
68K GAS   			page 110


 5111 01f3 9742      	.uleb128 0x2117
 5112 01f5 19        	.uleb128 0x19
 5113 01f6 01        	.uleb128 0x1
 5114 01f7 13        	.uleb128 0x13
 5115 01f8 00        	.byte0
 5116 01f9 00        	.byte0
 5117 01fa 28        	.uleb128 0x28
 5118 01fb 05        	.uleb128 0x5
 5119 01fc 00        	.byte0
 5120 01fd 03        	.uleb128 0x3
 5121 01fe 0E        	.uleb128 0xe
 5122 01ff 3A        	.uleb128 0x3a
 5123 0200 0B        	.uleb128 0xb
 5124 0201 3B        	.uleb128 0x3b
 5125 0202 05        	.uleb128 0x5
 5126 0203 49        	.uleb128 0x49
 5127 0204 13        	.uleb128 0x13
 5128 0205 02        	.uleb128 0x2
 5129 0206 18        	.uleb128 0x18
 5130 0207 00        	.byte0
 5131 0208 00        	.byte0
 5132 0209 29        	.uleb128 0x29
 5133 020a 34        	.uleb128 0x34
 5134 020b 00        	.byte0
 5135 020c 03        	.uleb128 0x3
 5136 020d 08        	.uleb128 0x8
 5137 020e 3A        	.uleb128 0x3a
 5138 020f 0B        	.uleb128 0xb
 5139 0210 3B        	.uleb128 0x3b
 5140 0211 05        	.uleb128 0x5
 5141 0212 49        	.uleb128 0x49
 5142 0213 13        	.uleb128 0x13
 5143 0214 02        	.uleb128 0x2
 5144 0215 18        	.uleb128 0x18
 5145 0216 00        	.byte0
 5146 0217 00        	.byte0
 5147 0218 2A        	.uleb128 0x2a
 5148 0219 2E        	.uleb128 0x2e
 5149 021a 01        	.byte0x1
 5150 021b 3F        	.uleb128 0x3f
 5151 021c 19        	.uleb128 0x19
 5152 021d 03        	.uleb128 0x3
 5153 021e 0E        	.uleb128 0xe
 5154 021f 3A        	.uleb128 0x3a
 5155 0220 0B        	.uleb128 0xb
 5156 0221 3B        	.uleb128 0x3b
 5157 0222 05        	.uleb128 0x5
 5158 0223 27        	.uleb128 0x27
 5159 0224 19        	.uleb128 0x19
 5160 0225 49        	.uleb128 0x49
 5161 0226 13        	.uleb128 0x13
 5162 0227 11        	.uleb128 0x11
 5163 0228 01        	.uleb128 0x1
 5164 0229 12        	.uleb128 0x12
 5165 022a 06        	.uleb128 0x6
 5166 022b 40        	.uleb128 0x40
 5167 022c 18        	.uleb128 0x18
68K GAS   			page 111


 5168 022d 9642      	.uleb128 0x2116
 5169 022f 19        	.uleb128 0x19
 5170 0230 01        	.uleb128 0x1
 5171 0231 13        	.uleb128 0x13
 5172 0232 00        	.byte0
 5173 0233 00        	.byte0
 5174 0234 2B        	.uleb128 0x2b
 5175 0235 34        	.uleb128 0x34
 5176 0236 00        	.byte0
 5177 0237 03        	.uleb128 0x3
 5178 0238 0E        	.uleb128 0xe
 5179 0239 3A        	.uleb128 0x3a
 5180 023a 0B        	.uleb128 0xb
 5181 023b 3B        	.uleb128 0x3b
 5182 023c 05        	.uleb128 0x5
 5183 023d 49        	.uleb128 0x49
 5184 023e 13        	.uleb128 0x13
 5185 023f 02        	.uleb128 0x2
 5186 0240 18        	.uleb128 0x18
 5187 0241 00        	.byte0
 5188 0242 00        	.byte0
 5189 0243 2C        	.uleb128 0x2c
 5190 0244 2E        	.uleb128 0x2e
 5191 0245 01        	.byte0x1
 5192 0246 3F        	.uleb128 0x3f
 5193 0247 19        	.uleb128 0x19
 5194 0248 03        	.uleb128 0x3
 5195 0249 0E        	.uleb128 0xe
 5196 024a 3A        	.uleb128 0x3a
 5197 024b 0B        	.uleb128 0xb
 5198 024c 3B        	.uleb128 0x3b
 5199 024d 0B        	.uleb128 0xb
 5200 024e 27        	.uleb128 0x27
 5201 024f 19        	.uleb128 0x19
 5202 0250 49        	.uleb128 0x49
 5203 0251 13        	.uleb128 0x13
 5204 0252 11        	.uleb128 0x11
 5205 0253 01        	.uleb128 0x1
 5206 0254 12        	.uleb128 0x12
 5207 0255 06        	.uleb128 0x6
 5208 0256 40        	.uleb128 0x40
 5209 0257 18        	.uleb128 0x18
 5210 0258 9642      	.uleb128 0x2116
 5211 025a 19        	.uleb128 0x19
 5212 025b 01        	.uleb128 0x1
 5213 025c 13        	.uleb128 0x13
 5214 025d 00        	.byte0
 5215 025e 00        	.byte0
 5216 025f 2D        	.uleb128 0x2d
 5217 0260 05        	.uleb128 0x5
 5218 0261 00        	.byte0
 5219 0262 03        	.uleb128 0x3
 5220 0263 0E        	.uleb128 0xe
 5221 0264 3A        	.uleb128 0x3a
 5222 0265 0B        	.uleb128 0xb
 5223 0266 3B        	.uleb128 0x3b
 5224 0267 0B        	.uleb128 0xb
68K GAS   			page 112


 5225 0268 49        	.uleb128 0x49
 5226 0269 13        	.uleb128 0x13
 5227 026a 02        	.uleb128 0x2
 5228 026b 18        	.uleb128 0x18
 5229 026c 00        	.byte0
 5230 026d 00        	.byte0
 5231 026e 2E        	.uleb128 0x2e
 5232 026f 34        	.uleb128 0x34
 5233 0270 00        	.byte0
 5234 0271 03        	.uleb128 0x3
 5235 0272 0E        	.uleb128 0xe
 5236 0273 3A        	.uleb128 0x3a
 5237 0274 0B        	.uleb128 0xb
 5238 0275 3B        	.uleb128 0x3b
 5239 0276 0B        	.uleb128 0xb
 5240 0277 49        	.uleb128 0x49
 5241 0278 13        	.uleb128 0x13
 5242 0279 02        	.uleb128 0x2
 5243 027a 18        	.uleb128 0x18
 5244 027b 00        	.byte0
 5245 027c 00        	.byte0
 5246 027d 2F        	.uleb128 0x2f
 5247 027e 34        	.uleb128 0x34
 5248 027f 00        	.byte0
 5249 0280 03        	.uleb128 0x3
 5250 0281 08        	.uleb128 0x8
 5251 0282 3A        	.uleb128 0x3a
 5252 0283 0B        	.uleb128 0xb
 5253 0284 3B        	.uleb128 0x3b
 5254 0285 0B        	.uleb128 0xb
 5255 0286 49        	.uleb128 0x49
 5256 0287 13        	.uleb128 0x13
 5257 0288 02        	.uleb128 0x2
 5258 0289 18        	.uleb128 0x18
 5259 028a 00        	.byte0
 5260 028b 00        	.byte0
 5261 028c 30        	.uleb128 0x30
 5262 028d 2E        	.uleb128 0x2e
 5263 028e 01        	.byte0x1
 5264 028f 3F        	.uleb128 0x3f
 5265 0290 19        	.uleb128 0x19
 5266 0291 03        	.uleb128 0x3
 5267 0292 0E        	.uleb128 0xe
 5268 0293 3A        	.uleb128 0x3a
 5269 0294 0B        	.uleb128 0xb
 5270 0295 3B        	.uleb128 0x3b
 5271 0296 0B        	.uleb128 0xb
 5272 0297 27        	.uleb128 0x27
 5273 0298 19        	.uleb128 0x19
 5274 0299 49        	.uleb128 0x49
 5275 029a 13        	.uleb128 0x13
 5276 029b 11        	.uleb128 0x11
 5277 029c 01        	.uleb128 0x1
 5278 029d 12        	.uleb128 0x12
 5279 029e 06        	.uleb128 0x6
 5280 029f 40        	.uleb128 0x40
 5281 02a0 18        	.uleb128 0x18
68K GAS   			page 113


 5282 02a1 9642      	.uleb128 0x2116
 5283 02a3 19        	.uleb128 0x19
 5284 02a4 00        	.byte0
 5285 02a5 00        	.byte0
 5286 02a6 00        	.byte0
 5287               	.section.debug_aranges,"",@progbits
 5288 0000 0000 001C 	.long0x1c
 5289 0004 0002      	.word0x2
 5290 0006 0000 0000 	.long.Ldebug_info0
 5291 000a 04        	.byte0x4
 5292 000b 00        	.byte0
 5293 000c 0000      	.word0
 5294 000e 0000      	.word0
 5295 0010 0000 0000 	.long.Ltext0
 5296 0014 0000 0D84 	.long.Letext0-.Ltext0
 5297 0018 0000 0000 	.long0
 5298 001c 0000 0000 	.long0
 5299               	.section.debug_line,"",@progbits
 5300               	.Ldebug_line0:
 5301 0000 0000 0561 	.section.debug_str,"MS",@progbits,1
 5301      0002 0000 
 5301      0372 0201 
 5301      FB0E 0D00 
 5301      0101 0101 
 5302               	.LASF38:
 5303 0000 5F73 7369 	.string"_ssize_t"
 5303      7A65 5F74 
 5303      00
 5304               	.LASF140:
 5305 0009 5F5F 6C6F 	.string"__locale_t"
 5305      6361 6C65 
 5305      5F74 00
 5306               	.LASF43:
 5307 0014 5F5F 7661 	.string"__value"
 5307      6C75 6500 
 5308               	.LASF141:
 5309 001c 5F5F 7366 	.string"__sf"
 5309      00
 5310               	.LASF78:
 5311 0021 5F72 6561 	.string"_read"
 5311      6400 
 5312               	.LASF308:
 5313 0027 4346 455F 	.string"CFE_ES_GenCounterRecord_t"
 5313      4553 5F47 
 5313      656E 436F 
 5313      756E 7465 
 5313      7252 6563 
 5314               	.LASF79:
 5315 0041 5F77 7269 	.string"_write"
 5315      7465 00
 5316               	.LASF179:
 5317 0048 416C 6C6F 	.string"AllocatedFlag"
 5317      6361 7465 
 5317      6446 6C61 
 5317      6700 
 5318               	.LASF120:
 5319 0056 5F61 7363 	.string"_asctime_buf"
68K GAS   			page 114


 5319      7469 6D65 
 5319      5F62 7566 
 5319      00
 5320               	.LASF105:
 5321 0063 5F63 7674 	.string"_cvtlen"
 5321      6C65 6E00 
 5322               	.LASF32:
 5323 006b 5F4D 7574 	.string"_Mutex_Control"
 5323      6578 5F43 
 5323      6F6E 7472 
 5323      6F6C 00
 5324               	.LASF288:
 5325 007a 4346 455F 	.string"CFE_ES_LibRecord_t"
 5325      4553 5F4C 
 5325      6962 5265 
 5325      636F 7264 
 5325      5F74 00
 5326               	.LASF220:
 5327 008d 4346 455F 	.string"CFE_ES_PerfDataEntry_t"
 5327      4553 5F50 
 5327      6572 6644 
 5327      6174 6145 
 5327      6E74 7279 
 5328               	.LASF144:
 5329 00a4 5F67 6C6F 	.string"_global_atexit"
 5329      6261 6C5F 
 5329      6174 6578 
 5329      6974 00
 5330               	.LASF346:
 5331 00b3 2F68 6F6D 	.string"/home/simulink/cFS_FreeRTOS_seL4/cfe/fsw/cfe-core/src/es/cfe_es_cds_mempool.c"
 5331      652F 7369 
 5331      6D75 6C69 
 5331      6E6B 2F63 
 5331      4653 5F46 
 5332               	.LASF274:
 5333 0101 4E75 6D4F 	.string"NumOfChildTasks"
 5333      6643 6869 
 5333      6C64 5461 
 5333      736B 7300 
 5334               	.LASF11:
 5335 0111 7569 6E74 	.string"uint32"
 5335      3332 00
 5336               	.LASF139:
 5337 0118 5F75 6E75 	.string"_unused"
 5337      7365 6400 
 5338               	.LASF52:
 5339 0120 5F5F 746D 	.string"__tm"
 5339      00
 5340               	.LASF135:
 5341 0125 5F77 6373 	.string"_wcsrtombs_state"
 5341      7274 6F6D 
 5341      6273 5F73 
 5341      7461 7465 
 5341      00
 5342               	.LASF83:
 5343 0136 5F6E 6275 	.string"_nbuf"
 5343      6600 
68K GAS   			page 115


 5344               	.LASF53:
 5345 013c 5F5F 746D 	.string"__tm_sec"
 5345      5F73 6563 
 5345      00
 5346               	.LASF31:
 5347 0145 5F54 6872 	.string"_Thread_Control"
 5347      6561 645F 
 5347      436F 6E74 
 5347      726F 6C00 
 5348               	.LASF128:
 5349 0155 5F6C 3634 	.string"_l64a_buf"
 5349      615F 6275 
 5349      6600 
 5350               	.LASF257:
 5351 015f 5469 6D65 	.string"TimeResetVars"
 5351      5265 7365 
 5351      7456 6172 
 5351      7300 
 5352               	.LASF313:
 5353 016d 5265 6769 	.string"RegisteredTasks"
 5353      7374 6572 
 5353      6564 5461 
 5353      736B 7300 
 5354               	.LASF342:
 5355 017d 5374 6172 	.string"StartOffset"
 5355      744F 6666 
 5355      7365 7400 
 5356               	.LASF92:
 5357 0189 5F73 7464 	.string"_stdin"
 5357      696E 00
 5358               	.LASF214:
 5359 0190 4170 7049 	.string"AppID"
 5359      4400 
 5360               	.LASF238:
 5361 0196 4461 7461 	.string"DataBuffer"
 5361      4275 6666 
 5361      6572 00
 5362               	.LASF254:
 5363 01a1 5379 7374 	.string"SystemLogEntryNum"
 5363      656D 4C6F 
 5363      6745 6E74 
 5363      7279 4E75 
 5363      6D00 
 5364               	.LASF80:
 5365 01b3 5F73 6565 	.string"_seek"
 5365      6B00 
 5366               	.LASF299:
 5367 01b9 4346 455F 	.string"CFE_ES_CDSVariables_t"
 5367      4553 5F43 
 5367      4453 5661 
 5367      7269 6162 
 5367      6C65 735F 
 5368               	.LASF268:
 5369 01cf 5374 6172 	.string"StartAddress"
 5369      7441 6464 
 5369      7265 7373 
 5369      00
68K GAS   			page 116


 5370               	.LASF203:
 5371 01dc 4346 455F 	.string"CFE_ES_DebugVariables_t"
 5371      4553 5F44 
 5371      6562 7567 
 5371      5661 7269 
 5371      6162 6C65 
 5372               	.LASF116:
 5373 01f4 5F6D 756C 	.string"_mult"
 5373      7400 
 5374               	.LASF273:
 5375 01fa 4D61 696E 	.string"MainTaskName"
 5375      5461 736B 
 5375      4E61 6D65 
 5375      00
 5376               	.LASF304:
 5377 0207 4346 455F 	.string"CFE_ES_PerfLogDump_t"
 5377      4553 5F50 
 5377      6572 664C 
 5377      6F67 4475 
 5377      6D70 5F74 
 5378               	.LASF213:
 5379 021c 436F 6E74 	.string"ContextSize"
 5379      6578 7453 
 5379      697A 6500 
 5380               	.LASF259:
 5381 0228 4346 455F 	.string"CFE_ES_ResetData_t"
 5381      4553 5F52 
 5381      6573 6574 
 5381      4461 7461 
 5381      5F74 00
 5382               	.LASF337:
 5383 023b 4346 455F 	.string"CFE_ES_PutCDSBlock"
 5383      4553 5F50 
 5383      7574 4344 
 5383      5342 6C6F 
 5383      636B 00
 5384               	.LASF167:
 5385 024e 5072 6F63 	.string"ProcessorID"
 5385      6573 736F 
 5385      7249 4400 
 5386               	.LASF317:
 5387 025a 4170 7054 	.string"AppTable"
 5387      6162 6C65 
 5387      00
 5388               	.LASF224:
 5389 0263 5469 6D65 	.string"TimerTicksPerSecond"
 5389      7254 6963 
 5389      6B73 5065 
 5389      7253 6563 
 5389      6F6E 6400 
 5390               	.LASF40:
 5391 0277 5F5F 7763 	.string"__wch"
 5391      6800 
 5392               	.LASF328:
 5393 027d 4D61 784E 	.string"MaxNumBlocksToSupport"
 5393      756D 426C 
 5393      6F63 6B73 
68K GAS   			page 117


 5393      546F 5375 
 5393      7070 6F72 
 5394               	.LASF180:
 5395 0293 5369 7A65 	.string"SizeUsed"
 5395      5573 6564 
 5395      00
 5396               	.LASF75:
 5397 029c 5F66 696C 	.string"_file"
 5397      6500 
 5398               	.LASF156:
 5399 02a2 4375 7272 	.string"CurrentSTCF"
 5399      656E 7453 
 5399      5443 4600 
 5400               	.LASF62:
 5401 02ae 5F6F 6E5F 	.string"_on_exit_args"
 5401      6578 6974 
 5401      5F61 7267 
 5401      7300 
 5402               	.LASF222:
 5403 02bc 456E 6469 	.string"Endian"
 5403      616E 00
 5404               	.LASF334:
 5405 02c3 4346 455F 	.string"CFE_ES_CDSBlockWrite"
 5405      4553 5F43 
 5405      4453 426C 
 5405      6F63 6B57 
 5405      7269 7465 
 5406               	.LASF318:
 5407 02d8 5265 6769 	.string"RegisteredLibs"
 5407      7374 6572 
 5407      6564 4C69 
 5407      6273 00
 5408               	.LASF171:
 5409 02e7 5370 6172 	.string"Spare1"
 5409      6531 00
 5410               	.LASF172:
 5411 02ee 5370 6172 	.string"Spare2"
 5411      6532 00
 5412               	.LASF131:
 5413 02f5 5F6D 6272 	.string"_mbrlen_state"
 5413      6C65 6E5F 
 5413      7374 6174 
 5413      6500 
 5414               	.LASF6:
 5415 0303 6C6F 6E67 	.string"long int"
 5415      2069 6E74 
 5415      00
 5416               	.LASF142:
 5417 030c 5F69 6D70 	.string"_impure_ptr"
 5417      7572 655F 
 5417      7074 7200 
 5418               	.LASF102:
 5419 0318 5F72 6573 	.string"_result_k"
 5419      756C 745F 
 5419      6B00 
 5420               	.LASF278:
 5421 0322 5374 6172 	.string"StartParams"
68K GAS   			page 118


 5421      7450 6172 
 5421      616D 7300 
 5422               	.LASF72:
 5423 032e 5F73 697A 	.string"_size"
 5423      6500 
 5424               	.LASF270:
 5425 0334 4578 6365 	.string"ExceptionAction"
 5425      7074 696F 
 5425      6E41 6374 
 5425      696F 6E00 
 5426               	.LASF121:
 5427 0344 5F6C 6F63 	.string"_localtime_buf"
 5427      616C 7469 
 5427      6D65 5F62 
 5427      7566 00
 5428               	.LASF232:
 5429 0353 496E 7661 	.string"InvalidMarkerReported"
 5429      6C69 644D 
 5429      6172 6B65 
 5429      7252 6570 
 5429      6F72 7465 
 5430               	.LASF159:
 5431 0369 5072 696F 	.string"Priority"
 5431      7269 7479 
 5431      00
 5432               	.LASF195:
 5433 0372 5369 7A65 	.string"SizeDesc"
 5433      4465 7363 
 5433      00
 5434               	.LASF57:
 5435 037b 5F5F 746D 	.string"__tm_mon"
 5435      5F6D 6F6E 
 5435      00
 5436               	.LASF233:
 5437 0384 4669 6C74 	.string"FilterTriggerMaskSize"
 5437      6572 5472 
 5437      6967 6765 
 5437      724D 6173 
 5437      6B53 697A 
 5438               	.LASF158:
 5439 039a 4346 455F 	.string"CFE_TIME_ResetVars_t"
 5439      5449 4D45 
 5439      5F52 6573 
 5439      6574 5661 
 5439      7273 5F74 
 5440               	.LASF269:
 5441 03af 4D6F 6475 	.string"ModuleId"
 5441      6C65 4964 
 5441      00
 5442               	.LASF174:
 5443 03b8 546C 6D48 	.string"TlmHeader"
 5443      6561 6465 
 5443      7200 
 5444               	.LASF198:
 5445 03c2 4346 455F 	.string"CFE_ES_CDSBlockDesc"
 5445      4553 5F43 
 5445      4453 426C 
68K GAS   			page 119


 5445      6F63 6B44 
 5445      6573 6300 
 5446               	.LASF210:
 5447 03d6 4465 6275 	.string"DebugVars"
 5447      6756 6172 
 5447      7300 
 5448               	.LASF188:
 5449 03e0 5369 7A65 	.string"Size"
 5449      00
 5450               	.LASF118:
 5451 03e5 5F75 6E75 	.string"_unused_rand"
 5451      7365 645F 
 5451      7261 6E64 
 5451      00
 5452               	.LASF185:
 5453 03f2 4D61 7853 	.string"MaxSize"
 5453      697A 6500 
 5454               	.LASF1:
 5455 03fa 7369 676E 	.string"signed char"
 5455      6564 2063 
 5455      6861 7200 
 5456               	.LASF341:
 5457 0406 4344 5350 	.string"CDSPoolSize"
 5457      6F6F 6C53 
 5457      697A 6500 
 5458               	.LASF15:
 5459 0412 626F 6F6C 	.string"boolean"
 5459      6561 6E00 
 5460               	.LASF239:
 5461 041a 4346 455F 	.string"CFE_ES_PerfData_t"
 5461      4553 5F50 
 5461      6572 6644 
 5461      6174 615F 
 5461      7400 
 5462               	.LASF175:
 5463 042c 5061 796C 	.string"Payload"
 5463      6F61 6400 
 5464               	.LASF339:
 5465 0434 426C 6F63 	.string"BlockSize"
 5465      6B53 697A 
 5465      6500 
 5466               	.LASF30:
 5467 043e 5F54 6872 	.string"_Thread_queue_Heads"
 5467      6561 645F 
 5467      7175 6575 
 5467      655F 4865 
 5467      6164 7300 
 5468               	.LASF336:
 5469 0452 4465 7369 	.string"DesiredSize"
 5469      7265 6453 
 5469      697A 6500 
 5470               	.LASF0:
 5471 045e 756E 7369 	.string"unsigned char"
 5471      676E 6564 
 5471      2063 6861 
 5471      7200 
 5472               	.LASF272:
68K GAS   			page 120


 5473 046c 4D61 696E 	.string"MainTaskId"
 5473      5461 736B 
 5473      4964 00
 5474               	.LASF348:
 5475 0477 4346 455F 	.string"CFE_ES_CreateCDSPool"
 5475      4553 5F43 
 5475      7265 6174 
 5475      6543 4453 
 5475      506F 6F6C 
 5476               	.LASF97:
 5477 048c 5F75 6E73 	.string"_unspecified_locale_info"
 5477      7065 6369 
 5477      6669 6564 
 5477      5F6C 6F63 
 5477      616C 655F 
 5478               	.LASF186:
 5479 04a5 4346 455F 	.string"CFE_ES_CDSBlockSizeDesc_t"
 5479      4553 5F43 
 5479      4453 426C 
 5479      6F63 6B53 
 5479      697A 6544 
 5480               	.LASF90:
 5481 04bf 5F72 6565 	.string"_reent"
 5481      6E74 00
 5482               	.LASF143:
 5483 04c6 5F67 6C6F 	.string"_global_impure_ptr"
 5483      6261 6C5F 
 5483      696D 7075 
 5483      7265 5F70 
 5483      7472 00
 5484               	.LASF347:
 5485 04d9 2F68 6F6D 	.string"/home/simulink/cFS_FreeRTOS_seL4/build/cpu1/cfe/es"
 5485      652F 7369 
 5485      6D75 6C69 
 5485      6E6B 2F63 
 5485      4653 5F46 
 5486               	.LASF201:
 5487 050c 5072 696E 	.string"PrintfEnabledFlag"
 5487      7466 456E 
 5487      6162 6C65 
 5487      6446 6C61 
 5487      6700 
 5488               	.LASF306:
 5489 051e 436F 756E 	.string"Counter"
 5489      7465 7200 
 5490               	.LASF25:
 5491 0526 5F54 6872 	.string"_Thread_queue_Queue"
 5491      6561 645F 
 5491      7175 6575 
 5491      655F 5175 
 5491      6575 6500 
 5492               	.LASF16:
 5493 053a 6368 6172 	.string"char"
 5493      00
 5494               	.LASF309:
 5495 053f 5368 6172 	.string"SharedDataMutex"
 5495      6564 4461 
68K GAS   			page 121


 5495      7461 4D75 
 5495      7465 7800 
 5496               	.LASF69:
 5497 054f 5F66 6E73 	.string"_fns"
 5497      00
 5498               	.LASF81:
 5499 0554 5F63 6C6F 	.string"_close"
 5499      7365 00
 5500               	.LASF289:
 5501 055b 4D65 6D48 	.string"MemHandle"
 5501      616E 646C 
 5501      6500 
 5502               	.LASF14:
 5503 0565 6370 7561 	.string"cpuaddr"
 5503      6464 7200 
 5504               	.LASF24:
 5505 056d 5F54 6963 	.string"_Ticket_lock_Control"
 5505      6B65 745F 
 5505      6C6F 636B 
 5505      5F43 6F6E 
 5505      7472 6F6C 
 5506               	.LASF290:
 5507 0582 5461 6B65 	.string"Taken"
 5507      6E00 
 5508               	.LASF332:
 5509 0588 4372 634F 	.string"CrcOfCDSData"
 5509      6643 4453 
 5509      4461 7461 
 5509      00
 5510               	.LASF149:
 5511 0595 5365 636F 	.string"Seconds"
 5511      6E64 7300 
 5512               	.LASF194:
 5513 059d 4D69 6E42 	.string"MinBlockSize"
 5513      6C6F 636B 
 5513      5369 7A65 
 5513      00
 5514               	.LASF243:
 5515 05aa 4C6F 674F 	.string"LogOverflowCounter"
 5515      7665 7266 
 5515      6C6F 7743 
 5515      6F75 6E74 
 5515      6572 00
 5516               	.LASF248:
 5517 05bd 4552 4C6F 	.string"ERLog"
 5517      6700 
 5518               	.LASF28:
 5519 05c3 5F6F 776E 	.string"_owner"
 5519      6572 00
 5520               	.LASF258:
 5521 05ca 4556 535F 	.string"EVS_Log"
 5521      4C6F 6700 
 5522               	.LASF249:
 5523 05d2 4552 4C6F 	.string"ERLogIndex"
 5523      6749 6E64 
 5523      6578 00
 5524               	.LASF325:
68K GAS   			page 122


 5525 05dd 4346 455F 	.string"CFE_ES_CDSMemPoolDefSize"
 5525      4553 5F43 
 5525      4453 4D65 
 5525      6D50 6F6F 
 5525      6C44 6566 
 5526               	.LASF237:
 5527 05f6 4D65 7461 	.string"MetaData"
 5527      4461 7461 
 5527      00
 5528               	.LASF340:
 5529 05ff 4346 455F 	.string"CFE_ES_RebuildCDSPool"
 5529      4553 5F52 
 5529      6562 7569 
 5529      6C64 4344 
 5529      5350 6F6F 
 5530               	.LASF305:
 5531 0615 4346 455F 	.string"CFE_ES_PerfLogDumpStatus"
 5531      4553 5F50 
 5531      6572 664C 
 5531      6F67 4475 
 5531      6D70 5374 
 5532               	.LASF329:
 5533 062e 4461 7461 	.string"DataRead"
 5533      5265 6164 
 5533      00
 5534               	.LASF263:
 5535 0637 4346 455F 	.string"CFE_ES_AppState_t"
 5535      4553 5F41 
 5535      7070 5374 
 5535      6174 655F 
 5535      7400 
 5536               	.LASF294:
 5537 0649 4344 5353 	.string"CDSSize"
 5537      697A 6500 
 5538               	.LASF296:
 5539 0651 4D61 784E 	.string"MaxNumRegEntries"
 5539      756D 5265 
 5539      6745 6E74 
 5539      7269 6573 
 5539      00
 5540               	.LASF202:
 5541 0662 4C61 7374 	.string"LastAppId"
 5541      4170 7049 
 5541      6400 
 5542               	.LASF241:
 5543 066c 4C6F 6746 	.string"LogFullFlag"
 5543      756C 6C46 
 5543      6C61 6700 
 5544               	.LASF148:
 5545 0678 5F74 7A6E 	.string"_tzname"
 5545      616D 6500 
 5546               	.LASF189:
 5547 0680 4375 7272 	.string"Current"
 5547      656E 7400 
 5548               	.LASF36:
 5549 0688 5F6E 6573 	.string"_nest_level"
 5549      745F 6C65 
68K GAS   			page 123


 5549      7665 6C00 
 5550               	.LASF154:
 5551 0694 436C 6F63 	.string"ClockSignal"
 5551      6B53 6967 
 5551      6E61 6C00 
 5552               	.LASF251:
 5553 06a0 5379 7374 	.string"SystemLog"
 5553      656D 4C6F 
 5553      6700 
 5554               	.LASF77:
 5555 06aa 5F63 6F6F 	.string"_cookie"
 5555      6B69 6500 
 5556               	.LASF267:
 5557 06b2 5374 6163 	.string"StackSize"
 5557      6B53 697A 
 5557      6500 
 5558               	.LASF51:
 5559 06bc 5F77 6473 	.string"_wds"
 5559      00
 5560               	.LASF108:
 5561 06c1 5F73 6967 	.string"_sig_func"
 5561      5F66 756E 
 5561      6300 
 5562               	.LASF191:
 5563 06cb 4368 6563 	.string"CheckErrCntr"
 5563      6B45 7272 
 5563      436E 7472 
 5563      00
 5564               	.LASF85:
 5565 06d8 5F6F 6666 	.string"_offset"
 5565      7365 7400 
 5566               	.LASF106:
 5567 06e0 5F63 7674 	.string"_cvtbuf"
 5567      6275 6600 
 5568               	.LASF190:
 5569 06e8 5369 7A65 	.string"SizeIndex"
 5569      496E 6465 
 5569      7800 
 5570               	.LASF266:
 5571 06f2 4669 6C65 	.string"FileName"
 5571      4E61 6D65 
 5571      00
 5572               	.LASF21:
 5573 06fb 5F6E 6578 	.string"_next_ticket"
 5573      745F 7469 
 5573      636B 6574 
 5573      00
 5574               	.LASF295:
 5575 0708 4D65 6D50 	.string"MemPoolSize"
 5575      6F6F 6C53 
 5575      697A 6500 
 5576               	.LASF324:
 5577 0714 4346 455F 	.string"CFE_ES_ResetDataPtr"
 5577      4553 5F52 
 5577      6573 6574 
 5577      4461 7461 
 5577      5074 7200 
68K GAS   			page 124


 5578               	.LASF253:
 5579 0728 5379 7374 	.string"SystemLogMode"
 5579      656D 4C6F 
 5579      674D 6F64 
 5579      6500 
 5580               	.LASF178:
 5581 0736 4368 6563 	.string"CheckBits"
 5581      6B42 6974 
 5581      7300 
 5582               	.LASF103:
 5583 0740 5F70 3573 	.string"_p5s"
 5583      00
 5584               	.LASF12:
 5585 0745 6C6F 6E67 	.string"long unsigned int"
 5585      2075 6E73 
 5585      6967 6E65 
 5585      6420 696E 
 5585      7400 
 5586               	.LASF218:
 5587 0757 5469 6D65 	.string"TimerUpper32"
 5587      7255 7070 
 5587      6572 3332 
 5587      00
 5588               	.LASF282:
 5589 0764 4170 7049 	.string"AppId"
 5589      6400 
 5590               	.LASF73:
 5591 076a 5F5F 7346 	.string"__sFILE"
 5591      494C 4500 
 5592               	.LASF99:
 5593 0772 5F5F 7364 	.string"__sdidinit"
 5593      6964 696E 
 5593      6974 00
 5594               	.LASF89:
 5595 077d 5F66 6C61 	.string"_flags2"
 5595      6773 3200 
 5596               	.LASF209:
 5597 0785 4D61 7850 	.string"MaxProcessorResetCount"
 5597      726F 6365 
 5597      7373 6F72 
 5597      5265 7365 
 5597      7443 6F75 
 5598               	.LASF330:
 5599 079c 426C 6F63 	.string"BlockHandle"
 5599      6B48 616E 
 5599      646C 6500 
 5600               	.LASF37:
 5601 07a8 5F4C 4F43 	.string"_LOCK_RECURSIVE_T"
 5601      4B5F 5245 
 5601      4355 5253 
 5601      4956 455F 
 5601      5400 
 5602               	.LASF240:
 5603 07ba 4C6F 6743 	.string"LogCount"
 5603      6F75 6E74 
 5603      00
 5604               	.LASF310:
68K GAS   			page 125


 5605 07c3 4170 7053 	.string"AppStartedCount"
 5605      7461 7274 
 5605      6564 436F 
 5605      756E 7400 
 5606               	.LASF91:
 5607 07d3 5F65 7272 	.string"_errno"
 5607      6E6F 00
 5608               	.LASF157:
 5609 07da 4375 7272 	.string"CurrentDelay"
 5609      656E 7444 
 5609      656C 6179 
 5609      00
 5610               	.LASF129:
 5611 07e7 5F73 6967 	.string"_signal_buf"
 5611      6E61 6C5F 
 5611      6275 6600 
 5612               	.LASF170:
 5613 07f3 4D65 7373 	.string"Message"
 5613      6167 6500 
 5614               	.LASF47:
 5615 07fb 5F42 6967 	.string"_Bigint"
 5615      696E 7400 
 5616               	.LASF49:
 5617 0803 5F6D 6178 	.string"_maxwds"
 5617      7764 7300 
 5618               	.LASF100:
 5619 080b 5F5F 636C 	.string"__cleanup"
 5619      6561 6E75 
 5619      7000 
 5620               	.LASF242:
 5621 0815 4C6F 674D 	.string"LogMode"
 5621      6F64 6500 
 5622               	.LASF331:
 5623 081d 5374 6174 	.string"Status"
 5623      7573 00
 5624               	.LASF153:
 5625 0824 4C65 6170 	.string"LeapSeconds"
 5625      5365 636F 
 5625      6E64 7300 
 5626               	.LASF169:
 5627 0830 5061 636B 	.string"PacketID"
 5627      6574 4944 
 5627      00
 5628               	.LASF177:
 5629 0839 4346 455F 	.string"CFE_ES_CDSBlockHandle_t"
 5629      4553 5F43 
 5629      4453 426C 
 5629      6F63 6B48 
 5629      616E 646C 
 5630               	.LASF302:
 5631 0851 4461 7461 	.string"DataFileName"
 5631      4669 6C65 
 5631      4E61 6D65 
 5631      00
 5632               	.LASF265:
 5633 085e 456E 7472 	.string"EntryPoint"
 5633      7950 6F69 
68K GAS   			page 126


 5633      6E74 00
 5634               	.LASF96:
 5635 0869 5F65 6D65 	.string"_emergency"
 5635      7267 656E 
 5635      6379 00
 5636               	.LASF176:
 5637 0874 4346 455F 	.string"CFE_EVS_Packet_t"
 5637      4556 535F 
 5637      5061 636B 
 5637      6574 5F74 
 5637      00
 5638               	.LASF326:
 5639 0885 4346 455F 	.string"CFE_ES_CDSReqdMinSize"
 5639      4553 5F43 
 5639      4453 5265 
 5639      7164 4D69 
 5639      6E53 697A 
 5640               	.LASF7:
 5641 089b 6C6F 6E67 	.string"long long int"
 5641      206C 6F6E 
 5641      6720 696E 
 5641      7400 
 5642               	.LASF221:
 5643 08a9 5665 7273 	.string"Version"
 5643      696F 6E00 
 5644               	.LASF112:
 5645 08b1 5F6E 696F 	.string"_niobs"
 5645      6273 00
 5646               	.LASF250:
 5647 08b8 4552 4C6F 	.string"ERLogEntries"
 5647      6745 6E74 
 5647      7269 6573 
 5647      00
 5648               	.LASF109:
 5649 08c5 5F5F 7367 	.string"__sglue"
 5649      6C75 6500 
 5650               	.LASF225:
 5651 08cd 5469 6D65 	.string"TimerLow32Rollover"
 5651      724C 6F77 
 5651      3332 526F 
 5651      6C6C 6F76 
 5651      6572 00
 5652               	.LASF138:
 5653 08e0 5F6E 6D61 	.string"_nmalloc"
 5653      6C6C 6F63 
 5653      00
 5654               	.LASF320:
 5655 08e9 436F 756E 	.string"CounterTable"
 5655      7465 7254 
 5655      6162 6C65 
 5655      00
 5656               	.LASF122:
 5657 08f6 5F67 616D 	.string"_gamma_signgam"
 5657      6D61 5F73 
 5657      6967 6E67 
 5657      616D 00
 5658               	.LASF284:
68K GAS   			page 127


 5659 0905 4578 6563 	.string"ExecutionCounter"
 5659      7574 696F 
 5659      6E43 6F75 
 5659      6E74 6572 
 5659      00
 5660               	.LASF104:
 5661 0916 5F66 7265 	.string"_freelist"
 5661      656C 6973 
 5661      7400 
 5662               	.LASF311:
 5663 0920 4170 7052 	.string"AppReadyCount"
 5663      6561 6479 
 5663      436F 756E 
 5663      7400 
 5664               	.LASF113:
 5665 092e 5F69 6F62 	.string"_iobs"
 5665      7300 
 5666               	.LASF338:
 5667 0934 4346 455F 	.string"CFE_ES_GetCDSBlock"
 5667      4553 5F47 
 5667      6574 4344 
 5667      5342 6C6F 
 5667      636B 00
 5668               	.LASF111:
 5669 0947 5F67 6C75 	.string"_glue"
 5669      6500 
 5670               	.LASF50:
 5671 094d 5F73 6967 	.string"_sign"
 5671      6E00 
 5672               	.LASF236:
 5673 0953 4346 455F 	.string"CFE_ES_PerfMetaData_t"
 5673      4553 5F50 
 5673      6572 664D 
 5673      6574 6144 
 5673      6174 615F 
 5674               	.LASF298:
 5675 0969 5661 6C69 	.string"ValidityField"
 5675      6469 7479 
 5675      4669 656C 
 5675      6400 
 5676               	.LASF316:
 5677 0977 5265 6769 	.string"RegisteredExternalApps"
 5677      7374 6572 
 5677      6564 4578 
 5677      7465 726E 
 5677      616C 4170 
 5678               	.LASF292:
 5679 098e 4346 455F 	.string"CFE_ES_CDS_RegRec_t"
 5679      4553 5F43 
 5679      4453 5F52 
 5679      6567 5265 
 5679      635F 7400 
 5680               	.LASF244:
 5681 09a2 4C6F 6745 	.string"LogEntry"
 5681      6E74 7279 
 5681      00
 5682               	.LASF23:
68K GAS   			page 128


 5683 09ab 756E 7369 	.string"unsigned int"
 5683      676E 6564 
 5683      2069 6E74 
 5683      00
 5684               	.LASF146:
 5685 09b8 5F74 696D 	.string"_timezone"
 5685      657A 6F6E 
 5685      6500 
 5686               	.LASF207:
 5687 09c2 426F 6F74 	.string"BootSource"
 5687      536F 7572 
 5687      6365 00
 5688               	.LASF136:
 5689 09cd 5F68 5F65 	.string"_h_errno"
 5689      7272 6E6F 
 5689      00
 5690               	.LASF285:
 5691 09d6 5461 736B 	.string"TaskName"
 5691      4E61 6D65 
 5691      00
 5692               	.LASF327:
 5693 09df 4346 455F 	.string"CFE_ES_CDSBlockRead"
 5693      4553 5F43 
 5693      4453 426C 
 5693      6F63 6B52 
 5693      6561 6400 
 5694               	.LASF255:
 5695 09f3 5065 7266 	.string"Perf"
 5695      00
 5696               	.LASF247:
 5697 09f8 4346 455F 	.string"CFE_ES_ResetVariables_t"
 5697      4553 5F52 
 5697      6573 6574 
 5697      5661 7269 
 5697      6162 6C65 
 5698               	.LASF134:
 5699 0a10 5F77 6372 	.string"_wcrtomb_state"
 5699      746F 6D62 
 5699      5F73 7461 
 5699      7465 00
 5700               	.LASF56:
 5701 0a1f 5F5F 746D 	.string"__tm_mday"
 5701      5F6D 6461 
 5701      7900 
 5702               	.LASF107:
 5703 0a29 5F6E 6577 	.string"_new"
 5703      00
 5704               	.LASF29:
 5705 0a2e 5F6E 616D 	.string"_name"
 5705      6500 
 5706               	.LASF82:
 5707 0a34 5F75 6275 	.string"_ubuf"
 5707      6600 
 5708               	.LASF160:
 5709 0a3a 5265 6C69 	.string"Reliability"
 5709      6162 696C 
 5709      6974 7900 
68K GAS   			page 129


 5710               	.LASF94:
 5711 0a46 5F73 7464 	.string"_stderr"
 5711      6572 7200 
 5712               	.LASF127:
 5713 0a4e 5F77 6374 	.string"_wctomb_state"
 5713      6F6D 625F 
 5713      7374 6174 
 5713      6500 
 5714               	.LASF88:
 5715 0a5c 5F6D 6273 	.string"_mbstate"
 5715      7461 7465 
 5715      00
 5716               	.LASF123:
 5717 0a65 5F72 616E 	.string"_rand_next"
 5717      645F 6E65 
 5717      7874 00
 5718               	.LASF74:
 5719 0a70 5F66 6C61 	.string"_flags"
 5719      6773 00
 5720               	.LASF277:
 5721 0a77 5479 7065 	.string"Type"
 5721      00
 5722               	.LASF312:
 5723 0a7c 5379 7374 	.string"SystemState"
 5723      656D 5374 
 5723      6174 6500 
 5724               	.LASF67:
 5725 0a88 5F61 7465 	.string"_atexit"
 5725      7869 7400 
 5726               	.LASF335:
 5727 0a90 4346 455F 	.string"CFE_ES_CDSGetBinIndex"
 5727      4553 5F43 
 5727      4453 4765 
 5727      7442 696E 
 5727      496E 6465 
 5728               	.LASF150:
 5729 0aa6 5375 6273 	.string"Subseconds"
 5729      6563 6F6E 
 5729      6473 00
 5730               	.LASF42:
 5731 0ab1 5F5F 636F 	.string"__count"
 5731      756E 7400 
 5732               	.LASF223:
 5733 0ab9 5370 6172 	.string"Spare"
 5733      6500 
 5734               	.LASF184:
 5735 0abf 4E75 6D43 	.string"NumCreated"
 5735      7265 6174 
 5735      6564 00
 5736               	.LASF264:
 5737 0aca 4E61 6D65 	.string"Name"
 5737      00
 5738               	.LASF59:
 5739 0acf 5F5F 746D 	.string"__tm_wday"
 5739      5F77 6461 
 5739      7900 
 5740               	.LASF18:
68K GAS   			page 130


 5741 0ad9 6C6F 6E67 	.string"long double"
 5741      2064 6F75 
 5741      626C 6500 
 5742               	.LASF275:
 5743 0ae5 4346 455F 	.string"CFE_ES_MainTaskInfo_t"
 5743      4553 5F4D 
 5743      6169 6E54 
 5743      6173 6B49 
 5743      6E66 6F5F 
 5744               	.LASF60:
 5745 0afb 5F5F 746D 	.string"__tm_yday"
 5745      5F79 6461 
 5745      7900 
 5746               	.LASF286:
 5747 0b05 4346 455F 	.string"CFE_ES_TaskRecord_t"
 5747      4553 5F54 
 5747      6173 6B52 
 5747      6563 6F72 
 5747      645F 7400 
 5748               	.LASF187:
 5749 0b19 5374 6172 	.string"Start"
 5749      7400 
 5750               	.LASF34:
 5751 0b1f 5F4D 7574 	.string"_Mutex_recursive_Control"
 5751      6578 5F72 
 5751      6563 7572 
 5751      7369 7665 
 5751      5F43 6F6E 
 5752               	.LASF227:
 5753 0b38 4D6F 6465 	.string"Mode"
 5753      00
 5754               	.LASF27:
 5755 0b3d 5F68 6561 	.string"_heads"
 5755      6473 00
 5756               	.LASF115:
 5757 0b44 5F73 6565 	.string"_seed"
 5757      6400 
 5758               	.LASF33:
 5759 0b4a 5F51 7565 	.string"_Queue"
 5759      7565 00
 5760               	.LASF344:
 5761 0b51 4F66 6673 	.string"Offset"
 5761      6574 00
 5762               	.LASF246:
 5763 0b58 4553 5F43 	.string"ES_CausedReset"
 5763      6175 7365 
 5763      6452 6573 
 5763      6574 00
 5764               	.LASF20:
 5765 0b67 5F66 706F 	.string"_fpos_t"
 5765      735F 7400 
 5766               	.LASF323:
 5767 0b6f 4346 455F 	.string"CFE_ES_Global"
 5767      4553 5F47 
 5767      6C6F 6261 
 5767      6C00 
 5768               	.LASF41:
68K GAS   			page 131


 5769 0b7d 5F5F 7763 	.string"__wchb"
 5769      6862 00
 5770               	.LASF126:
 5771 0b84 5F6D 6274 	.string"_mbtowc_state"
 5771      6F77 635F 
 5771      7374 6174 
 5771      6500 
 5772               	.LASF307:
 5773 0b92 436F 756E 	.string"CounterName"
 5773      7465 724E 
 5773      616D 6500 
 5774               	.LASF13:
 5775 0b9e 6C6F 6E67 	.string"long long unsigned int"
 5775      206C 6F6E 
 5775      6720 756E 
 5775      7369 676E 
 5775      6564 2069 
 5776               	.LASF279:
 5777 0bb5 5374 6174 	.string"StateRecord"
 5777      6552 6563 
 5777      6F72 6400 
 5778               	.LASF303:
 5779 0bc1 4461 7461 	.string"DataFileDescriptor"
 5779      4669 6C65 
 5779      4465 7363 
 5779      7269 7074 
 5779      6F72 00
 5780               	.LASF64:
 5781 0bd4 5F64 736F 	.string"_dso_handle"
 5781      5F68 616E 
 5781      646C 6500 
 5782               	.LASF114:
 5783 0be0 5F72 616E 	.string"_rand48"
 5783      6434 3800 
 5784               	.LASF93:
 5785 0be8 5F73 7464 	.string"_stdout"
 5785      6F75 7400 
 5786               	.LASF226:
 5787 0bf0 5374 6174 	.string"State"
 5787      6500 
 5788               	.LASF84:
 5789 0bf6 5F62 6C6B 	.string"_blksize"
 5789      7369 7A65 
 5789      00
 5790               	.LASF271:
 5791 0bff 4346 455F 	.string"CFE_ES_AppStartParams_t"
 5791      4553 5F41 
 5791      7070 5374 
 5791      6172 7450 
 5791      6172 616D 
 5792               	.LASF219:
 5793 0c17 5469 6D65 	.string"TimerLower32"
 5793      724C 6F77 
 5793      6572 3332 
 5793      00
 5794               	.LASF71:
 5795 0c24 5F62 6173 	.string"_base"
68K GAS   			page 132


 5795      6500 
 5796               	.LASF231:
 5797 0c2a 4461 7461 	.string"DataCount"
 5797      436F 756E 
 5797      7400 
 5798               	.LASF119:
 5799 0c34 5F73 7472 	.string"_strtok_last"
 5799      746F 6B5F 
 5799      6C61 7374 
 5799      00
 5800               	.LASF293:
 5801 0c41 5265 6769 	.string"RegistryMutex"
 5801      7374 7279 
 5801      4D75 7465 
 5801      7800 
 5802               	.LASF314:
 5803 0c4f 5461 736B 	.string"TaskTable"
 5803      5461 626C 
 5803      6500 
 5804               	.LASF132:
 5805 0c59 5F6D 6272 	.string"_mbrtowc_state"
 5805      746F 7763 
 5805      5F73 7461 
 5805      7465 00
 5806               	.LASF234:
 5807 0c68 4669 6C74 	.string"FilterMask"
 5807      6572 4D61 
 5807      736B 00
 5808               	.LASF205:
 5809 0c73 5265 7365 	.string"ResetType"
 5809      7454 7970 
 5809      6500 
 5810               	.LASF276:
 5811 0c7d 5265 636F 	.string"RecordUsed"
 5811      7264 5573 
 5811      6564 00
 5812               	.LASF155:
 5813 0c88 4375 7272 	.string"CurrentMET"
 5813      656E 744D 
 5813      4554 00
 5814               	.LASF45:
 5815 0c93 5F66 6C6F 	.string"_flock_t"
 5815      636B 5F74 
 5815      00
 5816               	.LASF110:
 5817 0c9c 5F5F 4649 	.string"__FILE"
 5817      4C45 00
 5818               	.LASF196:
 5819 0ca3 4346 455F 	.string"CFE_ES_CDSPool_t"
 5819      4553 5F43 
 5819      4453 506F 
 5819      6F6C 5F74 
 5819      00
 5820               	.LASF87:
 5821 0cb4 5F6C 6F63 	.string"_lock"
 5821      6B00 
 5822               	.LASF322:
68K GAS   			page 133


 5823 0cba 4346 455F 	.string"CFE_ES_Global_t"
 5823      4553 5F47 
 5823      6C6F 6261 
 5823      6C5F 7400 
 5824               	.LASF44:
 5825 0cca 5F6D 6273 	.string"_mbstate_t"
 5825      7461 7465 
 5825      5F74 00
 5826               	.LASF124:
 5827 0cd5 5F72 3438 	.string"_r48"
 5827      00
 5828               	.LASF39:
 5829 0cda 7769 6E74 	.string"wint_t"
 5829      5F74 00
 5830               	.LASF333:
 5831 0ce1 4269 6E49 	.string"BinIndex"
 5831      6E64 6578 
 5831      00
 5832               	.LASF2:
 5833 0cea 6F73 616C 	.string"osalbool"
 5833      626F 6F6C 
 5833      00
 5834               	.LASF48:
 5835 0cf3 5F6E 6578 	.string"_next"
 5835      7400 
 5836               	.LASF235:
 5837 0cf9 5472 6967 	.string"TriggerMask"
 5837      6765 724D 
 5837      6173 6B00 
 5838               	.LASF86:
 5839 0d05 5F64 6174 	.string"_data"
 5839      6100 
 5840               	.LASF199:
 5841 0d0b 4465 6275 	.string"DebugFlag"
 5841      6746 6C61 
 5841      6700 
 5842               	.LASF206:
 5843 0d15 5265 7365 	.string"ResetSubtype"
 5843      7453 7562 
 5843      7479 7065 
 5843      00
 5844               	.LASF315:
 5845 0d22 5265 6769 	.string"RegisteredCoreApps"
 5845      7374 6572 
 5845      6564 436F 
 5845      7265 4170 
 5845      7073 00
 5846               	.LASF162:
 5847 0d35 4346 455F 	.string"CFE_SB_Default_Qos"
 5847      5342 5F44 
 5847      6566 6175 
 5847      6C74 5F51 
 5847      6F73 00
 5848               	.LASF228:
 5849 0d48 5472 6967 	.string"TriggerCount"
 5849      6765 7243 
 5849      6F75 6E74 
68K GAS   			page 134


 5849      00
 5850               	.LASF262:
 5851 0d55 4170 7054 	.string"AppTimer"
 5851      696D 6572 
 5851      00
 5852               	.LASF319:
 5853 0d5e 4C69 6254 	.string"LibTable"
 5853      6162 6C65 
 5853      00
 5854               	.LASF260:
 5855 0d67 4170 7043 	.string"AppControlRequest"
 5855      6F6E 7472 
 5855      6F6C 5265 
 5855      7175 6573 
 5855      7400 
 5856               	.LASF152:
 5857 0d79 5369 676E 	.string"Signature"
 5857      6174 7572 
 5857      6500 
 5858               	.LASF252:
 5859 0d83 5379 7374 	.string"SystemLogIndex"
 5859      656D 4C6F 
 5859      6749 6E64 
 5859      6578 00
 5860               	.LASF181:
 5861 0d92 4163 7475 	.string"ActualSize"
 5861      616C 5369 
 5861      7A65 00
 5862               	.LASF35:
 5863 0d9d 5F4D 7574 	.string"_Mutex"
 5863      6578 00
 5864               	.LASF261:
 5865 0da4 4170 7053 	.string"AppState"
 5865      7461 7465 
 5865      00
 5866               	.LASF230:
 5867 0dad 4461 7461 	.string"DataEnd"
 5867      456E 6400 
 5868               	.LASF300:
 5869 0db5 4461 7461 	.string"DataToWrite"
 5869      546F 5772 
 5869      6974 6500 
 5870               	.LASF208:
 5871 0dc1 5072 6F63 	.string"ProcessorResetCount"
 5871      6573 736F 
 5871      7252 6573 
 5871      6574 436F 
 5871      756E 7400 
 5872               	.LASF8:
 5873 0dd5 7569 6E74 	.string"uint8"
 5873      3800 
 5874               	.LASF281:
 5875 0ddb 4346 455F 	.string"CFE_ES_AppRecord_t"
 5875      4553 5F41 
 5875      7070 5265 
 5875      636F 7264 
 5875      5F74 00
68K GAS   			page 135


 5876               	.LASF183:
 5877 0dee 4346 455F 	.string"CFE_ES_CDSBlockDesc_t"
 5877      4553 5F43 
 5877      4453 426C 
 5877      6F63 6B44 
 5877      6573 635F 
 5878               	.LASF163:
 5879 0e04 4170 704E 	.string"AppName"
 5879      616D 6500 
 5880               	.LASF182:
 5881 0e0c 4E65 7874 	.string"Next"
 5881      00
 5882               	.LASF217:
 5883 0e11 4461 7461 	.string"Data"
 5883      00
 5884               	.LASF125:
 5885 0e16 5F6D 626C 	.string"_mblen_state"
 5885      656E 5F73 
 5885      7461 7465 
 5885      00
 5886               	.LASF4:
 5887 0e23 7368 6F72 	.string"short int"
 5887      7420 696E 
 5887      7400 
 5888               	.LASF165:
 5889 0e2d 4576 656E 	.string"EventType"
 5889      7454 7970 
 5889      6500 
 5890               	.LASF297:
 5891 0e37 5265 6769 	.string"Registry"
 5891      7374 7279 
 5891      00
 5892               	.LASF145:
 5893 0e40 7375 626F 	.string"suboptarg"
 5893      7074 6172 
 5893      6700 
 5894               	.LASF65:
 5895 0e4a 5F66 6E74 	.string"_fntypes"
 5895      7970 6573 
 5895      00
 5896               	.LASF58:
 5897 0e53 5F5F 746D 	.string"__tm_year"
 5897      5F79 6561 
 5897      7200 
 5898               	.LASF197:
 5899 0e5d 4346 455F 	.string"CFE_ES_CDSMemPool"
 5899      4553 5F43 
 5899      4453 4D65 
 5899      6D50 6F6F 
 5899      6C00 
 5900               	.LASF164:
 5901 0e6f 4576 656E 	.string"EventID"
 5901      7449 4400 
 5902               	.LASF192:
 5903 0e77 5265 7175 	.string"RequestCntr"
 5903      6573 7443 
 5903      6E74 7200 
68K GAS   			page 136


 5904               	.LASF76:
 5905 0e83 5F6C 6266 	.string"_lbfsize"
 5905      7369 7A65 
 5905      00
 5906               	.LASF95:
 5907 0e8c 5F69 6E63 	.string"_inc"
 5907      00
 5908               	.LASF68:
 5909 0e91 5F69 6E64 	.string"_ind"
 5909      00
 5910               	.LASF283:
 5911 0e96 5461 736B 	.string"TaskId"
 5911      4964 00
 5912               	.LASF17:
 5913 0e9d 5F5F 696E 	.string"__int64_t"
 5913      7436 345F 
 5913      7400 
 5914               	.LASF229:
 5915 0ea7 4461 7461 	.string"DataStart"
 5915      5374 6172 
 5915      7400 
 5916               	.LASF3:
 5917 0eb1 696E 7431 	.string"int16"
 5917      3600 
 5918               	.LASF70:
 5919 0eb7 5F5F 7362 	.string"__sbuf"
 5919      7566 00
 5920               	.LASF66:
 5921 0ebe 5F69 735F 	.string"_is_cxa"
 5921      6378 6100 
 5922               	.LASF151:
 5923 0ec6 4346 455F 	.string"CFE_TIME_SysTime_t"
 5923      5449 4D45 
 5923      5F53 7973 
 5923      5469 6D65 
 5923      5F74 00
 5924               	.LASF137:
 5925 0ed9 5F6E 6578 	.string"_nextf"
 5925      7466 00
 5926               	.LASF211:
 5927 0ee0 5469 6D65 	.string"TimeCode"
 5927      436F 6465 
 5927      00
 5928               	.LASF216:
 5929 0ee9 4346 455F 	.string"CFE_ES_ERLog_t"
 5929      4553 5F45 
 5929      524C 6F67 
 5929      5F74 00
 5930               	.LASF287:
 5931 0ef8 4C69 624E 	.string"LibName"
 5931      616D 6500 
 5932               	.LASF173:
 5933 0f00 4346 455F 	.string"CFE_EVS_Packet_Payload_t"
 5933      4556 535F 
 5933      5061 636B 
 5933      6574 5F50 
 5933      6179 6C6F 
68K GAS   			page 137


 5934               	.LASF98:
 5935 0f19 5F6C 6F63 	.string"_locale"
 5935      616C 6500 
 5936               	.LASF46:
 5937 0f21 5F5F 554C 	.string"__ULong"
 5937      6F6E 6700 
 5938               	.LASF291:
 5939 0f29 5461 626C 	.string"Table"
 5939      6500 
 5940               	.LASF212:
 5941 0f2f 4465 7363 	.string"Description"
 5941      7269 7074 
 5941      696F 6E00 
 5942               	.LASF193:
 5943 0f3b 4D75 7465 	.string"MutexId"
 5943      7849 6400 
 5944               	.LASF101:
 5945 0f43 5F72 6573 	.string"_result"
 5945      756C 7400 
 5946               	.LASF26:
 5947 0f4b 5F4C 6F63 	.string"_Lock"
 5947      6B00 
 5948               	.LASF22:
 5949 0f51 5F6E 6F77 	.string"_now_serving"
 5949      5F73 6572 
 5949      7669 6E67 
 5949      00
 5950               	.LASF19:
 5951 0f5e 5F6F 6666 	.string"_off_t"
 5951      5F74 00
 5952               	.LASF343:
 5953 0f65 4D75 7465 	.string"MutexName"
 5953      784E 616D 
 5953      6500 
 5954               	.LASF117:
 5955 0f6f 5F61 6464 	.string"_add"
 5955      00
 5956               	.LASF345:
 5957 0f74 474E 5520 	.string"GNU C11 7.3.0 20180125 (RTEMS 5, RSB d2b25d131d55adcb38219f2cd8cbec2436ee78ab, Newlib 3.0.0) -malign-int -mcpu=528x -g -O0 -fomit-frame-pointer"
 5957      4331 3120 
 5957      372E 332E 
 5957      3020 3230 
 5957      3138 3031 
 5958               	.LASF10:
 5959 1004 7368 6F72 	.string"short unsigned int"
 5959      7420 756E 
 5959      7369 676E 
 5959      6564 2069 
 5959      6E74 00
 5960               	.LASF55:
 5961 1017 5F5F 746D 	.string"__tm_hour"
 5961      5F68 6F75 
 5961      7200 
 5962               	.LASF204:
 5963 1021 4C6F 6745 	.string"LogEntryType"
 5963      6E74 7279 
 5963      5479 7065 
68K GAS   			page 138


 5963      00
 5964               	.LASF166:
 5965 102e 5370 6163 	.string"SpacecraftID"
 5965      6563 7261 
 5965      6674 4944 
 5965      00
 5966               	.LASF5:
 5967 103b 696E 7433 	.string"int32"
 5967      3200 
 5968               	.LASF133:
 5969 1041 5F6D 6273 	.string"_mbsrtowcs_state"
 5969      7274 6F77 
 5969      6373 5F73 
 5969      7461 7465 
 5969      00
 5970               	.LASF168:
 5971 1052 4346 455F 	.string"CFE_EVS_PacketID_t"
 5971      4556 535F 
 5971      5061 636B 
 5971      6574 4944 
 5971      5F74 00
 5972               	.LASF63:
 5973 1065 5F66 6E61 	.string"_fnargs"
 5973      7267 7300 
 5974               	.LASF61:
 5975 106d 5F5F 746D 	.string"__tm_isdst"
 5975      5F69 7364 
 5975      7374 00
 5976               	.LASF245:
 5977 1078 4346 455F 	.string"CFE_EVS_Log_t"
 5977      4556 535F 
 5977      4C6F 675F 
 5977      7400 
 5978               	.LASF215:
 5979 1086 436F 6E74 	.string"Context"
 5979      6578 7400 
 5980               	.LASF200:
 5981 108e 5761 7463 	.string"WatchdogWriteFlag"
 5981      6864 6F67 
 5981      5772 6974 
 5981      6546 6C61 
 5981      6700 
 5982               	.LASF147:
 5983 10a0 5F64 6179 	.string"_daylight"
 5983      6C69 6768 
 5983      7400 
 5984               	.LASF301:
 5985 10aa 4368 696C 	.string"ChildID"
 5985      6449 4400 
 5986               	.LASF54:
 5987 10b2 5F5F 746D 	.string"__tm_min"
 5987      5F6D 696E 
 5987      00
 5988               	.LASF256:
 5989 10bb 5265 7365 	.string"ResetVars"
 5989      7456 6172 
 5989      7300 
68K GAS   			page 139


 5990               	.LASF9:
 5991 10c5 7569 6E74 	.string"uint16"
 5991      3136 00
 5992               	.LASF280:
 5993 10cc 5461 736B 	.string"TaskInfo"
 5993      496E 666F 
 5993      00
 5994               	.LASF130:
 5995 10d5 5F67 6574 	.string"_getdate_err"
 5995      6461 7465 
 5995      5F65 7272 
 5995      00
 5996               	.LASF161:
 5997 10e2 4346 455F 	.string"CFE_SB_Qos_t"
 5997      5342 5F51 
 5997      6F73 5F74 
 5997      00
 5998               	.LASF321:
 5999 10ef 4344 5356 	.string"CDSVars"
 5999      6172 7300 
 6000               	.ident"GCC: (GNU) 7.3.0 20180125 (RTEMS 5, RSB d2b25d131d55adcb38219f2cd8cbec2436ee78ab, Newlib 3.0.0)"
68K GAS   			page 140


DEFINED SYMBOLS
                            *ABS*:0000000000000000 cfe_es_cds_mempool.c
                            *COM*:00000000000000ec CFE_ES_CDSMemPool
                            *COM*:0000000000000014 CFE_ES_CDSBlockDesc
    {standard input}:13     .data:0000000000000000 CFE_ES_CDSMemPoolDefSize
    {standard input}:38     .text:0000000000000000 CFE_ES_CreateCDSPool
    {standard input}:202    .text:0000000000000170 CFE_ES_RebuildCDSPool
    {standard input}:1014   .text:0000000000000922 CFE_ES_CDSGetBinIndex
    {standard input}:508    .text:0000000000000468 CFE_ES_GetCDSBlock
    {standard input}:801    .text:0000000000000736 CFE_ES_PutCDSBlock
    {standard input}:1074   .text:000000000000095e CFE_ES_CDSBlockWrite
    {standard input}:1316   .text:0000000000000b60 CFE_ES_CDSBlockRead
    {standard input}:1527   .text:0000000000000d38 CFE_ES_CDSReqdMinSize

UNDEFINED SYMBOLS
OS_MutSemCreate
OS_MutSemTake
CFE_ES_WriteToSysLog
OS_MutSemGive
OS_MutSemDelete
CFE_PSP_ReadFromCDS
CFE_PSP_WriteToCDS
CFE_ES_CalculateCRC
