68K GAS   			page 1


   1               	
   2               	.file"cfe_es_shell.c"
   3               	.text
   4               	.Ltext0:
   5               	.cfi_sections.debug_frame
   6               	.section.rodata
   7               	.LC0:
   8 0000 2F72 616D 	.string"/ram/ShellCmd.out"
   8      2F53 6865 
   8      6C6C 436D 
   8      642E 6F75 
   8      7400 
   9               	.LC1:
  10 0012 4553 5F00 	.string"ES_"
  11               	.LC2:
  12 0016 4553 5F4C 	.string"ES_ListApps"
  12      6973 7441 
  12      7070 7300 
  13               	.LC3:
  14 0022 4553 5F4C 	.string"ES_ListTasks"
  14      6973 7454 
  14      6173 6B73 
  14      00
  15               	.LC4:
  16 002f 4553 5F4C 	.string"ES_ListResources"
  16      6973 7452 
  16      6573 6F75 
  16      7263 6573 
  16      00
  17               	.LC5:
  18 0040 5468 6572 	.string"There is no ES Shell command that matches %s \n"
  18      6520 6973 
  18      206E 6F20 
  18      4553 2053 
  18      6865 6C6C 
  19               	.LC6:
  20 006f 4F53 5F6C 	.string"OS_lseek call failed from CFE_ES_ShellOutputCmd 1\n"
  20      7365 656B 
  20      2063 616C 
  20      6C20 6661 
  20      696C 6564 
  21               	.LC7:
  22 00a2 2000      	.string" "
  23               	.LC8:
  24 00a4 4F53 5F6C 	.string"OS_lseek call failed from CFE_ES_ShellOutputCmd 2\n"
  24      7365 656B 
  24      2063 616C 
  24      6C20 6661 
  24      696C 6564 
  25               	.LC9:
  26 00d7 4F53 5F53 	.string"OS_ShellOutputToFile call failed from CFE_ES_ShellOutputCommand\n"
  26      6865 6C6C 
  26      4F75 7470 
  26      7574 546F 
  26      4669 6C65 
  27               	.text
  28               	.align2
68K GAS   			page 2


  29               	.globlCFE_ES_ShellOutputCommand
  30               	.typeCFE_ES_ShellOutputCommand, @function
  31               	CFE_ES_ShellOutputCommand:
  32               	.LFB59:
  33               	.file 1 "/home/simulink/cFS_FreeRTOS_seL4/cfe/fsw/cfe-core/src/es/cfe_es_shell.c"
   1:/home/simulink/cFS_FreeRTOS_seL4/cfe/fsw/cfe-core/src/es/cfe_es_shell.c **** /* File:
   2:/home/simulink/cFS_FreeRTOS_seL4/cfe/fsw/cfe-core/src/es/cfe_es_shell.c **** ** cfe_es_shell.c
   3:/home/simulink/cFS_FreeRTOS_seL4/cfe/fsw/cfe-core/src/es/cfe_es_shell.c **** ** $Id:
   4:/home/simulink/cFS_FreeRTOS_seL4/cfe/fsw/cfe-core/src/es/cfe_es_shell.c **** **
   5:/home/simulink/cFS_FreeRTOS_seL4/cfe/fsw/cfe-core/src/es/cfe_es_shell.c **** **
   6:/home/simulink/cFS_FreeRTOS_seL4/cfe/fsw/cfe-core/src/es/cfe_es_shell.c **** **      Copyright (c) 2004-2012, United States government as represented by the
   7:/home/simulink/cFS_FreeRTOS_seL4/cfe/fsw/cfe-core/src/es/cfe_es_shell.c **** **      administrator of the National Aeronautics Space Administration.
   8:/home/simulink/cFS_FreeRTOS_seL4/cfe/fsw/cfe-core/src/es/cfe_es_shell.c **** **      All rights reserved. This software(cFE) was created at NASA's Goddard
   9:/home/simulink/cFS_FreeRTOS_seL4/cfe/fsw/cfe-core/src/es/cfe_es_shell.c **** **      Space Flight Center pursuant to government contracts.
  10:/home/simulink/cFS_FreeRTOS_seL4/cfe/fsw/cfe-core/src/es/cfe_es_shell.c **** **
  11:/home/simulink/cFS_FreeRTOS_seL4/cfe/fsw/cfe-core/src/es/cfe_es_shell.c **** **      This is governed by the NASA Open Source Agreement and may be used,
  12:/home/simulink/cFS_FreeRTOS_seL4/cfe/fsw/cfe-core/src/es/cfe_es_shell.c **** **      distributed and modified only pursuant to the terms of that agreement.
  13:/home/simulink/cFS_FreeRTOS_seL4/cfe/fsw/cfe-core/src/es/cfe_es_shell.c **** **
  14:/home/simulink/cFS_FreeRTOS_seL4/cfe/fsw/cfe-core/src/es/cfe_es_shell.c **** **  Purpose:
  15:/home/simulink/cFS_FreeRTOS_seL4/cfe/fsw/cfe-core/src/es/cfe_es_shell.c **** **  cFE Executive Services (ES) Shell Commanding System
  16:/home/simulink/cFS_FreeRTOS_seL4/cfe/fsw/cfe-core/src/es/cfe_es_shell.c **** **
  17:/home/simulink/cFS_FreeRTOS_seL4/cfe/fsw/cfe-core/src/es/cfe_es_shell.c **** **  References:
  18:/home/simulink/cFS_FreeRTOS_seL4/cfe/fsw/cfe-core/src/es/cfe_es_shell.c **** **     Flight Software Branch C Coding Standard Version 1.0a
  19:/home/simulink/cFS_FreeRTOS_seL4/cfe/fsw/cfe-core/src/es/cfe_es_shell.c **** **     cFE Flight Software Application Developers Guide
  20:/home/simulink/cFS_FreeRTOS_seL4/cfe/fsw/cfe-core/src/es/cfe_es_shell.c **** **
  21:/home/simulink/cFS_FreeRTOS_seL4/cfe/fsw/cfe-core/src/es/cfe_es_shell.c **** **  $Log: cfe_es_shell.c  $
  22:/home/simulink/cFS_FreeRTOS_seL4/cfe/fsw/cfe-core/src/es/cfe_es_shell.c **** **  Revision 1.10 2014/08/22 15:50:03GMT-05:00 lwalling 
  23:/home/simulink/cFS_FreeRTOS_seL4/cfe/fsw/cfe-core/src/es/cfe_es_shell.c **** **  Changed signed loop counters to unsigned
  24:/home/simulink/cFS_FreeRTOS_seL4/cfe/fsw/cfe-core/src/es/cfe_es_shell.c **** **  Revision 1.9 2014/04/23 16:29:04EDT acudmore 
  25:/home/simulink/cFS_FreeRTOS_seL4/cfe/fsw/cfe-core/src/es/cfe_es_shell.c **** **  Fixed Return code processing to allow CFE_ES_ListTasks to work correctly
  26:/home/simulink/cFS_FreeRTOS_seL4/cfe/fsw/cfe-core/src/es/cfe_es_shell.c **** **  Revision 1.8 2012/01/13 11:50:04GMT-05:00 acudmore 
  27:/home/simulink/cFS_FreeRTOS_seL4/cfe/fsw/cfe-core/src/es/cfe_es_shell.c **** **  Changed license text to reflect open source
  28:/home/simulink/cFS_FreeRTOS_seL4/cfe/fsw/cfe-core/src/es/cfe_es_shell.c **** **  Revision 1.7 2012/01/10 13:36:13EST lwalling 
  29:/home/simulink/cFS_FreeRTOS_seL4/cfe/fsw/cfe-core/src/es/cfe_es_shell.c **** **  Add output filename to shell command packet structure
  30:/home/simulink/cFS_FreeRTOS_seL4/cfe/fsw/cfe-core/src/es/cfe_es_shell.c **** **  Revision 1.6 2012/01/06 16:43:35EST lwalling 
  31:/home/simulink/cFS_FreeRTOS_seL4/cfe/fsw/cfe-core/src/es/cfe_es_shell.c **** **  Use CFE_ES_DEFAULT_SHELL_FILENAME for shell command output filename
  32:/home/simulink/cFS_FreeRTOS_seL4/cfe/fsw/cfe-core/src/es/cfe_es_shell.c **** **  Revision 1.5 2010/11/04 14:05:40EDT acudmore 
  33:/home/simulink/cFS_FreeRTOS_seL4/cfe/fsw/cfe-core/src/es/cfe_es_shell.c **** **  Added ram disk mount path configuration option.
  34:/home/simulink/cFS_FreeRTOS_seL4/cfe/fsw/cfe-core/src/es/cfe_es_shell.c **** **  Revision 1.4 2010/10/26 16:27:42EDT jmdagost 
  35:/home/simulink/cFS_FreeRTOS_seL4/cfe/fsw/cfe-core/src/es/cfe_es_shell.c **** **  Replaced unnecessary CFE_MAX_SHELL_CMD_SIZE with CFE_MAX_SHELL_CMD
  36:/home/simulink/cFS_FreeRTOS_seL4/cfe/fsw/cfe-core/src/es/cfe_es_shell.c **** **  Revision 1.3 2010/10/04 16:24:32EDT jmdagost 
  37:/home/simulink/cFS_FreeRTOS_seL4/cfe/fsw/cfe-core/src/es/cfe_es_shell.c **** **  Cleaned up copyright symbol.
  38:/home/simulink/cFS_FreeRTOS_seL4/cfe/fsw/cfe-core/src/es/cfe_es_shell.c **** **  Revision 1.2 2009/06/10 09:09:00EDT acudmore 
  39:/home/simulink/cFS_FreeRTOS_seL4/cfe/fsw/cfe-core/src/es/cfe_es_shell.c **** **  Converted OS_Mem* and OS_BSP* API to CFE_PSP_* API
  40:/home/simulink/cFS_FreeRTOS_seL4/cfe/fsw/cfe-core/src/es/cfe_es_shell.c **** **  Revision 1.1 2008/04/17 08:05:08EDT ruperera 
  41:/home/simulink/cFS_FreeRTOS_seL4/cfe/fsw/cfe-core/src/es/cfe_es_shell.c **** **  Initial revision
  42:/home/simulink/cFS_FreeRTOS_seL4/cfe/fsw/cfe-core/src/es/cfe_es_shell.c **** **  Member added to project c:/MKSDATA/MKS-REPOSITORY/MKS-CFE-PROJECT/fsw/cfe-core/src/es/project.p
  43:/home/simulink/cFS_FreeRTOS_seL4/cfe/fsw/cfe-core/src/es/cfe_es_shell.c **** **  Revision 1.28 2007/09/25 13:08:29EDT apcudmore 
  44:/home/simulink/cFS_FreeRTOS_seL4/cfe/fsw/cfe-core/src/es/cfe_es_shell.c **** **  Fixed Compile error with extra Paren.
  45:/home/simulink/cFS_FreeRTOS_seL4/cfe/fsw/cfe-core/src/es/cfe_es_shell.c **** **  Revision 1.27 2007/09/25 12:47:31EDT apcudmore 
  46:/home/simulink/cFS_FreeRTOS_seL4/cfe/fsw/cfe-core/src/es/cfe_es_shell.c **** **  Updated the way shell functions handle return code from OS_write
  47:/home/simulink/cFS_FreeRTOS_seL4/cfe/fsw/cfe-core/src/es/cfe_es_shell.c **** **  Revision 1.26 2007/09/20 10:52:59EDT apcudmore 
  48:/home/simulink/cFS_FreeRTOS_seL4/cfe/fsw/cfe-core/src/es/cfe_es_shell.c **** **  Added Query All Tasks command, file definition, events, error codes etc.
  49:/home/simulink/cFS_FreeRTOS_seL4/cfe/fsw/cfe-core/src/es/cfe_es_shell.c **** **  Revision 1.25 2007/08/21 11:00:21EDT njyanchik 
  50:/home/simulink/cFS_FreeRTOS_seL4/cfe/fsw/cfe-core/src/es/cfe_es_shell.c **** **  I added a delay in the telemetry sending of the output so the pipe doesn't get flooded on large
  51:/home/simulink/cFS_FreeRTOS_seL4/cfe/fsw/cfe-core/src/es/cfe_es_shell.c **** **  messages, I also fixed the file descriptor implementation on vxworks (it was not updated with 
  52:/home/simulink/cFS_FreeRTOS_seL4/cfe/fsw/cfe-core/src/es/cfe_es_shell.c **** **  previous file system updates), so that the shell is now reading and writing the correct files.
68K GAS   			page 3


  53:/home/simulink/cFS_FreeRTOS_seL4/cfe/fsw/cfe-core/src/es/cfe_es_shell.c **** **  Revision 1.24 2007/07/02 13:24:13EDT njyanchik 
  54:/home/simulink/cFS_FreeRTOS_seL4/cfe/fsw/cfe-core/src/es/cfe_es_shell.c **** **  cfe_es_shell.c and the three platform config files were changed
  55:/home/simulink/cFS_FreeRTOS_seL4/cfe/fsw/cfe-core/src/es/cfe_es_shell.c **** **  Revision 1.23 2007/05/16 11:13:21EDT njyanchik 
  56:/home/simulink/cFS_FreeRTOS_seL4/cfe/fsw/cfe-core/src/es/cfe_es_shell.c **** **  I found another error that if an if failed, we would seg fault. It has now been fixed.
  57:/home/simulink/cFS_FreeRTOS_seL4/cfe/fsw/cfe-core/src/es/cfe_es_shell.c **** **  Revision 1.22 2007/05/15 11:16:06EDT apcudmore 
  58:/home/simulink/cFS_FreeRTOS_seL4/cfe/fsw/cfe-core/src/es/cfe_es_shell.c **** **  Added modification log tags.
  59:/home/simulink/cFS_FreeRTOS_seL4/cfe/fsw/cfe-core/src/es/cfe_es_shell.c **** */
  60:/home/simulink/cFS_FreeRTOS_seL4/cfe/fsw/cfe-core/src/es/cfe_es_shell.c **** 
  61:/home/simulink/cFS_FreeRTOS_seL4/cfe/fsw/cfe-core/src/es/cfe_es_shell.c **** /*
  62:/home/simulink/cFS_FreeRTOS_seL4/cfe/fsw/cfe-core/src/es/cfe_es_shell.c ****  ** Includes
  63:/home/simulink/cFS_FreeRTOS_seL4/cfe/fsw/cfe-core/src/es/cfe_es_shell.c ****  */
  64:/home/simulink/cFS_FreeRTOS_seL4/cfe/fsw/cfe-core/src/es/cfe_es_shell.c **** #include "private/cfe_private.h"
  65:/home/simulink/cFS_FreeRTOS_seL4/cfe/fsw/cfe-core/src/es/cfe_es_shell.c **** #include "cfe_es_global.h"
  66:/home/simulink/cFS_FreeRTOS_seL4/cfe/fsw/cfe-core/src/es/cfe_es_shell.c **** #include "cfe_es_apps.h"
  67:/home/simulink/cFS_FreeRTOS_seL4/cfe/fsw/cfe-core/src/es/cfe_es_shell.c **** #include "cfe_es_shell.h"
  68:/home/simulink/cFS_FreeRTOS_seL4/cfe/fsw/cfe-core/src/es/cfe_es_shell.c **** #include "cfe_es_task.h"
  69:/home/simulink/cFS_FreeRTOS_seL4/cfe/fsw/cfe-core/src/es/cfe_es_shell.c **** #include "cfe_psp.h"
  70:/home/simulink/cFS_FreeRTOS_seL4/cfe/fsw/cfe-core/src/es/cfe_es_shell.c **** 
  71:/home/simulink/cFS_FreeRTOS_seL4/cfe/fsw/cfe-core/src/es/cfe_es_shell.c **** 
  72:/home/simulink/cFS_FreeRTOS_seL4/cfe/fsw/cfe-core/src/es/cfe_es_shell.c **** #include <string.h>
  73:/home/simulink/cFS_FreeRTOS_seL4/cfe/fsw/cfe-core/src/es/cfe_es_shell.c **** 
  74:/home/simulink/cFS_FreeRTOS_seL4/cfe/fsw/cfe-core/src/es/cfe_es_shell.c **** #define  CFE_ES_CHECKSIZE 3
  75:/home/simulink/cFS_FreeRTOS_seL4/cfe/fsw/cfe-core/src/es/cfe_es_shell.c **** /* * * * * * * * * * * * * * * * * * * * * * * * * * * * * * * * * * * * */
  76:/home/simulink/cFS_FreeRTOS_seL4/cfe/fsw/cfe-core/src/es/cfe_es_shell.c **** /* CFE_ES_ShellOutputCommand() -- Pass thru string to O/S shell or to ES */
  77:/home/simulink/cFS_FreeRTOS_seL4/cfe/fsw/cfe-core/src/es/cfe_es_shell.c **** /*                                                                       */
  78:/home/simulink/cFS_FreeRTOS_seL4/cfe/fsw/cfe-core/src/es/cfe_es_shell.c **** /* * * * * * * * * * * * * * * * * * * * * * * * * * * * * * * * * * * * */
  79:/home/simulink/cFS_FreeRTOS_seL4/cfe/fsw/cfe-core/src/es/cfe_es_shell.c **** int32 CFE_ES_ShellOutputCommand(const char * CmdString, const char *Filename)
  80:/home/simulink/cFS_FreeRTOS_seL4/cfe/fsw/cfe-core/src/es/cfe_es_shell.c **** {
  34               	.loc 1 80 0
  35               	.cfi_startproc
  36 0000 4FEF FF64 	lea (-156,%sp),%sp
  37               	.cfi_def_cfa_offset 160
  81:/home/simulink/cFS_FreeRTOS_seL4/cfe/fsw/cfe-core/src/es/cfe_es_shell.c ****     int32 Result;
  82:/home/simulink/cFS_FreeRTOS_seL4/cfe/fsw/cfe-core/src/es/cfe_es_shell.c ****     int32 ReturnCode = CFE_SUCCESS;
  38               	.loc 1 82 0
  39 0004 42AF 0094 	clr.l 148(%sp)
  83:/home/simulink/cFS_FreeRTOS_seL4/cfe/fsw/cfe-core/src/es/cfe_es_shell.c ****     int32 fd;
  84:/home/simulink/cFS_FreeRTOS_seL4/cfe/fsw/cfe-core/src/es/cfe_es_shell.c ****     int32 FileSize;
  85:/home/simulink/cFS_FreeRTOS_seL4/cfe/fsw/cfe-core/src/es/cfe_es_shell.c ****     int32 CurrFilePtr;
  86:/home/simulink/cFS_FreeRTOS_seL4/cfe/fsw/cfe-core/src/es/cfe_es_shell.c ****     uint32 i;
  87:/home/simulink/cFS_FreeRTOS_seL4/cfe/fsw/cfe-core/src/es/cfe_es_shell.c ****     
  88:/home/simulink/cFS_FreeRTOS_seL4/cfe/fsw/cfe-core/src/es/cfe_es_shell.c ****     /* the extra 1 added for the \0 char */
  89:/home/simulink/cFS_FreeRTOS_seL4/cfe/fsw/cfe-core/src/es/cfe_es_shell.c ****     char CheckCmd [CFE_ES_CHECKSIZE + 1];
  90:/home/simulink/cFS_FreeRTOS_seL4/cfe/fsw/cfe-core/src/es/cfe_es_shell.c ****     char Cmd [CFE_ES_MAX_SHELL_CMD];
  91:/home/simulink/cFS_FreeRTOS_seL4/cfe/fsw/cfe-core/src/es/cfe_es_shell.c ****     char OutputFilename [OS_MAX_PATH_LEN];
  92:/home/simulink/cFS_FreeRTOS_seL4/cfe/fsw/cfe-core/src/es/cfe_es_shell.c **** 
  93:/home/simulink/cFS_FreeRTOS_seL4/cfe/fsw/cfe-core/src/es/cfe_es_shell.c ****     /* Use default filename if not provided */
  94:/home/simulink/cFS_FreeRTOS_seL4/cfe/fsw/cfe-core/src/es/cfe_es_shell.c ****     if (Filename[0] == '\0')
  40               	.loc 1 94 0
  41 0008 206F 00A4 	move.l 164(%sp),%a0
  42 000c 1010      	move.b (%a0),%d0
  43 000e 4A00      	tst.b %d0
  44 0010 6626      	jne .L2
  95:/home/simulink/cFS_FreeRTOS_seL4/cfe/fsw/cfe-core/src/es/cfe_es_shell.c ****     {   
  96:/home/simulink/cFS_FreeRTOS_seL4/cfe/fsw/cfe-core/src/es/cfe_es_shell.c ****         (void) CFE_SB_MessageStringGet(OutputFilename, CFE_ES_DEFAULT_SHELL_FILENAME, NULL, 
  45               	.loc 1 96 0
  46 0012 4878 0012 	pea 18.w
68K GAS   			page 4


  47               	.cfi_def_cfa_offset 164
  48 0016 4878 0040 	pea 64.w
  49               	.cfi_def_cfa_offset 168
  50 001a 42A7      	clr.l -(%sp)
  51               	.cfi_def_cfa_offset 172
  52 001c 4879 0000 	pea .LC0
  52      0000 
  53               	.cfi_def_cfa_offset 176
  54 0022 200F      	move.l %sp,%d0
  55 0024 0680 0000 	add.l #16,%d0
  55      0010 
  56 002a 2F00      	move.l %d0,-(%sp)
  57               	.cfi_def_cfa_offset 180
  58 002c 4EB9 0000 	jsr CFE_SB_MessageStringGet
  58      0000 
  59 0032 4FEF 0014 	lea (20,%sp),%sp
  60               	.cfi_def_cfa_offset 160
  61 0036 602C      	jra .L3
  62               	.L2:
  97:/home/simulink/cFS_FreeRTOS_seL4/cfe/fsw/cfe-core/src/es/cfe_es_shell.c ****                                        sizeof(OutputFilename), sizeof(CFE_ES_DEFAULT_SHELL_FILENAME
  98:/home/simulink/cFS_FreeRTOS_seL4/cfe/fsw/cfe-core/src/es/cfe_es_shell.c ****     }
  99:/home/simulink/cFS_FreeRTOS_seL4/cfe/fsw/cfe-core/src/es/cfe_es_shell.c ****     else
 100:/home/simulink/cFS_FreeRTOS_seL4/cfe/fsw/cfe-core/src/es/cfe_es_shell.c ****     { 
 101:/home/simulink/cFS_FreeRTOS_seL4/cfe/fsw/cfe-core/src/es/cfe_es_shell.c ****         (void) CFE_SB_MessageStringGet(OutputFilename, Filename, NULL, sizeof(OutputFilename), strl
  63               	.loc 1 101 0
  64 0038 2F2F 00A4 	move.l 164(%sp),-(%sp)
  65               	.cfi_def_cfa_offset 164
  66 003c 4EB9 0000 	jsr strlen
  66      0000 
  67 0042 588F      	addq.l #4,%sp
  68               	.cfi_def_cfa_offset 160
  69 0044 2F00      	move.l %d0,-(%sp)
  70               	.cfi_def_cfa_offset 164
  71 0046 4878 0040 	pea 64.w
  72               	.cfi_def_cfa_offset 168
  73 004a 42A7      	clr.l -(%sp)
  74               	.cfi_def_cfa_offset 172
  75 004c 2F2F 00B0 	move.l 176(%sp),-(%sp)
  76               	.cfi_def_cfa_offset 176
  77 0050 200F      	move.l %sp,%d0
  78 0052 0680 0000 	add.l #16,%d0
  78      0010 
  79 0058 2F00      	move.l %d0,-(%sp)
  80               	.cfi_def_cfa_offset 180
  81 005a 4EB9 0000 	jsr CFE_SB_MessageStringGet
  81      0000 
  82 0060 4FEF 0014 	lea (20,%sp),%sp
  83               	.cfi_def_cfa_offset 160
  84               	.L3:
 102:/home/simulink/cFS_FreeRTOS_seL4/cfe/fsw/cfe-core/src/es/cfe_es_shell.c ****     }
 103:/home/simulink/cFS_FreeRTOS_seL4/cfe/fsw/cfe-core/src/es/cfe_es_shell.c **** 
 104:/home/simulink/cFS_FreeRTOS_seL4/cfe/fsw/cfe-core/src/es/cfe_es_shell.c ****     /* Make sure string is null terminated */
 105:/home/simulink/cFS_FreeRTOS_seL4/cfe/fsw/cfe-core/src/es/cfe_es_shell.c ****     OutputFilename[OS_MAX_PATH_LEN - 1] = '\0';
  85               	.loc 1 105 0
  86 0064 4200      	clr.b %d0
  87 0066 1F40 003F 	move.b %d0,63(%sp)
 106:/home/simulink/cFS_FreeRTOS_seL4/cfe/fsw/cfe-core/src/es/cfe_es_shell.c **** 
68K GAS   			page 5


 107:/home/simulink/cFS_FreeRTOS_seL4/cfe/fsw/cfe-core/src/es/cfe_es_shell.c ****     /* Remove previous version of output file */
 108:/home/simulink/cFS_FreeRTOS_seL4/cfe/fsw/cfe-core/src/es/cfe_es_shell.c ****     OS_remove(OutputFilename); 
  88               	.loc 1 108 0
  89 006a 200F      	move.l %sp,%d0
  90 006c 2F00      	move.l %d0,-(%sp)
  91               	.cfi_def_cfa_offset 164
  92 006e 4EB9 0000 	jsr OS_remove
  92      0000 
  93 0074 588F      	addq.l #4,%sp
  94               	.cfi_def_cfa_offset 160
 109:/home/simulink/cFS_FreeRTOS_seL4/cfe/fsw/cfe-core/src/es/cfe_es_shell.c **** 
 110:/home/simulink/cFS_FreeRTOS_seL4/cfe/fsw/cfe-core/src/es/cfe_es_shell.c ****     fd = OS_creat(OutputFilename, OS_READ_WRITE);
  95               	.loc 1 110 0
  96 0076 4878 0002 	pea 2.w
  97               	.cfi_def_cfa_offset 164
  98 007a 200F      	move.l %sp,%d0
  99 007c 5880      	addq.l #4,%d0
 100 007e 2F00      	move.l %d0,-(%sp)
 101               	.cfi_def_cfa_offset 168
 102 0080 4EB9 0000 	jsr OS_creat
 102      0000 
 103 0086 508F      	addq.l #8,%sp
 104               	.cfi_def_cfa_offset 160
 105 0088 2F40 0088 	move.l %d0,136(%sp)
 111:/home/simulink/cFS_FreeRTOS_seL4/cfe/fsw/cfe-core/src/es/cfe_es_shell.c **** 
 112:/home/simulink/cFS_FreeRTOS_seL4/cfe/fsw/cfe-core/src/es/cfe_es_shell.c ****     if (fd < OS_FS_SUCCESS)
 106               	.loc 1 112 0
 107 008c 4AAF 0088 	tst.l 136(%sp)
 108 0090 6C0A      	jge .L4
 113:/home/simulink/cFS_FreeRTOS_seL4/cfe/fsw/cfe-core/src/es/cfe_es_shell.c ****     {
 114:/home/simulink/cFS_FreeRTOS_seL4/cfe/fsw/cfe-core/src/es/cfe_es_shell.c ****         Result = OS_FS_ERROR;
 109               	.loc 1 114 0
 110 0092 72FF      	moveq #-1,%d1
 111 0094 2F41 0098 	move.l %d1,152(%sp)
 112 0098 6000 0346 	jra .L5
 113               	.L4:
 115:/home/simulink/cFS_FreeRTOS_seL4/cfe/fsw/cfe-core/src/es/cfe_es_shell.c ****     }
 116:/home/simulink/cFS_FreeRTOS_seL4/cfe/fsw/cfe-core/src/es/cfe_es_shell.c **** 
 117:/home/simulink/cFS_FreeRTOS_seL4/cfe/fsw/cfe-core/src/es/cfe_es_shell.c ****     else
 118:/home/simulink/cFS_FreeRTOS_seL4/cfe/fsw/cfe-core/src/es/cfe_es_shell.c ****     {
 119:/home/simulink/cFS_FreeRTOS_seL4/cfe/fsw/cfe-core/src/es/cfe_es_shell.c ****         (void) CFE_SB_MessageStringGet(CheckCmd, CmdString, NULL, sizeof(CheckCmd), sizeof(CmdStrin
 114               	.loc 1 119 0
 115 009c 4878 0004 	pea 4.w
 116               	.cfi_def_cfa_offset 164
 117 00a0 4878 0004 	pea 4.w
 118               	.cfi_def_cfa_offset 168
 119 00a4 42A7      	clr.l -(%sp)
 120               	.cfi_def_cfa_offset 172
 121 00a6 2F2F 00AC 	move.l 172(%sp),-(%sp)
 122               	.cfi_def_cfa_offset 176
 123 00aa 200F      	move.l %sp,%d0
 124 00ac 0680 0000 	add.l #144,%d0
 124      0090 
 125 00b2 2F00      	move.l %d0,-(%sp)
 126               	.cfi_def_cfa_offset 180
 127 00b4 4EB9 0000 	jsr CFE_SB_MessageStringGet
 127      0000 
68K GAS   			page 6


 128 00ba 4FEF 0014 	lea (20,%sp),%sp
 129               	.cfi_def_cfa_offset 160
 120:/home/simulink/cFS_FreeRTOS_seL4/cfe/fsw/cfe-core/src/es/cfe_es_shell.c ****     
 121:/home/simulink/cFS_FreeRTOS_seL4/cfe/fsw/cfe-core/src/es/cfe_es_shell.c ****         CheckCmd[CFE_ES_CHECKSIZE]  = '\0';
 130               	.loc 1 121 0
 131 00be 4200      	clr.b %d0
 132 00c0 1F40 0083 	move.b %d0,131(%sp)
 122:/home/simulink/cFS_FreeRTOS_seL4/cfe/fsw/cfe-core/src/es/cfe_es_shell.c ****         
 123:/home/simulink/cFS_FreeRTOS_seL4/cfe/fsw/cfe-core/src/es/cfe_es_shell.c ****         (void) CFE_SB_MessageStringGet(Cmd, CmdString, NULL, sizeof(Cmd), sizeof(CmdString));
 133               	.loc 1 123 0
 134 00c4 4878 0004 	pea 4.w
 135               	.cfi_def_cfa_offset 164
 136 00c8 4878 0040 	pea 64.w
 137               	.cfi_def_cfa_offset 168
 138 00cc 42A7      	clr.l -(%sp)
 139               	.cfi_def_cfa_offset 172
 140 00ce 2F2F 00AC 	move.l 172(%sp),-(%sp)
 141               	.cfi_def_cfa_offset 176
 142 00d2 200F      	move.l %sp,%d0
 143 00d4 0680 0000 	add.l #80,%d0
 143      0050 
 144 00da 2F00      	move.l %d0,-(%sp)
 145               	.cfi_def_cfa_offset 180
 146 00dc 4EB9 0000 	jsr CFE_SB_MessageStringGet
 146      0000 
 147 00e2 4FEF 0014 	lea (20,%sp),%sp
 148               	.cfi_def_cfa_offset 160
 124:/home/simulink/cFS_FreeRTOS_seL4/cfe/fsw/cfe-core/src/es/cfe_es_shell.c ****     
 125:/home/simulink/cFS_FreeRTOS_seL4/cfe/fsw/cfe-core/src/es/cfe_es_shell.c ****         /* We need to check if this command is directed at ES, or at the 
 126:/home/simulink/cFS_FreeRTOS_seL4/cfe/fsw/cfe-core/src/es/cfe_es_shell.c ****         operating system */
 127:/home/simulink/cFS_FreeRTOS_seL4/cfe/fsw/cfe-core/src/es/cfe_es_shell.c ****     
 128:/home/simulink/cFS_FreeRTOS_seL4/cfe/fsw/cfe-core/src/es/cfe_es_shell.c ****         if (strncmp(CheckCmd,"ES_",CFE_ES_CHECKSIZE) == 0)
 149               	.loc 1 128 0
 150 00e6 4878 0003 	pea 3.w
 151               	.cfi_def_cfa_offset 164
 152 00ea 4879 0000 	pea .LC1
 152      0000 
 153               	.cfi_def_cfa_offset 168
 154 00f0 200F      	move.l %sp,%d0
 155 00f2 0680 0000 	add.l #136,%d0
 155      0088 
 156 00f8 2F00      	move.l %d0,-(%sp)
 157               	.cfi_def_cfa_offset 172
 158 00fa 4EB9 0000 	jsr strncmp
 158      0000 
 159 0100 4FEF 000C 	lea (12,%sp),%sp
 160               	.cfi_def_cfa_offset 160
 161 0104 4A80      	tst.l %d0
 162 0106 6600 00C4 	jne .L6
 129:/home/simulink/cFS_FreeRTOS_seL4/cfe/fsw/cfe-core/src/es/cfe_es_shell.c ****         {
 130:/home/simulink/cFS_FreeRTOS_seL4/cfe/fsw/cfe-core/src/es/cfe_es_shell.c ****             /* This list can be expanded to include other ES functionality */
 131:/home/simulink/cFS_FreeRTOS_seL4/cfe/fsw/cfe-core/src/es/cfe_es_shell.c ****             if ( strncmp(Cmd,CFE_ES_LIST_APPS_CMD,strlen(CFE_ES_LIST_APPS_CMD) )== 0)
 163               	.loc 1 131 0
 164 010a 4878 000B 	pea 11.w
 165               	.cfi_def_cfa_offset 164
 166 010e 4879 0000 	pea .LC2
 166      0000 
68K GAS   			page 7


 167               	.cfi_def_cfa_offset 168
 168 0114 200F      	move.l %sp,%d0
 169 0116 0680 0000 	add.l #72,%d0
 169      0048 
 170 011c 2F00      	move.l %d0,-(%sp)
 171               	.cfi_def_cfa_offset 172
 172 011e 4EB9 0000 	jsr strncmp
 172      0000 
 173 0124 4FEF 000C 	lea (12,%sp),%sp
 174               	.cfi_def_cfa_offset 160
 175 0128 4A80      	tst.l %d0
 176 012a 6614      	jne .L7
 132:/home/simulink/cFS_FreeRTOS_seL4/cfe/fsw/cfe-core/src/es/cfe_es_shell.c ****             {
 133:/home/simulink/cFS_FreeRTOS_seL4/cfe/fsw/cfe-core/src/es/cfe_es_shell.c ****                 Result = CFE_ES_ListApplications(fd);
 177               	.loc 1 133 0
 178 012c 2F2F 0088 	move.l 136(%sp),-(%sp)
 179               	.cfi_def_cfa_offset 164
 180 0130 4EB9 0000 	jsr CFE_ES_ListApplications
 180      0000 
 181 0136 588F      	addq.l #4,%sp
 182               	.cfi_def_cfa_offset 160
 183 0138 2F40 0098 	move.l %d0,152(%sp)
 184 013c 6000 00A8 	jra .L11
 185               	.L7:
 134:/home/simulink/cFS_FreeRTOS_seL4/cfe/fsw/cfe-core/src/es/cfe_es_shell.c ****             }
 135:/home/simulink/cFS_FreeRTOS_seL4/cfe/fsw/cfe-core/src/es/cfe_es_shell.c ****             else if ( strncmp(Cmd,CFE_ES_LIST_TASKS_CMD,strlen(CFE_ES_LIST_TASKS_CMD) )== 0)
 186               	.loc 1 135 0
 187 0140 4878 000C 	pea 12.w
 188               	.cfi_def_cfa_offset 164
 189 0144 4879 0000 	pea .LC3
 189      0000 
 190               	.cfi_def_cfa_offset 168
 191 014a 200F      	move.l %sp,%d0
 192 014c 0680 0000 	add.l #72,%d0
 192      0048 
 193 0152 2F00      	move.l %d0,-(%sp)
 194               	.cfi_def_cfa_offset 172
 195 0154 4EB9 0000 	jsr strncmp
 195      0000 
 196 015a 4FEF 000C 	lea (12,%sp),%sp
 197               	.cfi_def_cfa_offset 160
 198 015e 4A80      	tst.l %d0
 199 0160 6612      	jne .L9
 136:/home/simulink/cFS_FreeRTOS_seL4/cfe/fsw/cfe-core/src/es/cfe_es_shell.c ****             {
 137:/home/simulink/cFS_FreeRTOS_seL4/cfe/fsw/cfe-core/src/es/cfe_es_shell.c ****                 Result = CFE_ES_ListTasks(fd);
 200               	.loc 1 137 0
 201 0162 2F2F 0088 	move.l 136(%sp),-(%sp)
 202               	.cfi_def_cfa_offset 164
 203 0166 4EB9 0000 	jsr CFE_ES_ListTasks
 203      0000 
 204 016c 588F      	addq.l #4,%sp
 205               	.cfi_def_cfa_offset 160
 206 016e 2F40 0098 	move.l %d0,152(%sp)
 207 0172 6072      	jra .L11
 208               	.L9:
 138:/home/simulink/cFS_FreeRTOS_seL4/cfe/fsw/cfe-core/src/es/cfe_es_shell.c ****             }
 139:/home/simulink/cFS_FreeRTOS_seL4/cfe/fsw/cfe-core/src/es/cfe_es_shell.c ****             else if ( strncmp(Cmd,CFE_ES_LIST_RESOURCES_CMD,strlen(CFE_ES_LIST_RESOURCES_CMD) )== 0
68K GAS   			page 8


 209               	.loc 1 139 0
 210 0174 4878 0010 	pea 16.w
 211               	.cfi_def_cfa_offset 164
 212 0178 4879 0000 	pea .LC4
 212      0000 
 213               	.cfi_def_cfa_offset 168
 214 017e 200F      	move.l %sp,%d0
 215 0180 0680 0000 	add.l #72,%d0
 215      0048 
 216 0186 2F00      	move.l %d0,-(%sp)
 217               	.cfi_def_cfa_offset 172
 218 0188 4EB9 0000 	jsr strncmp
 218      0000 
 219 018e 4FEF 000C 	lea (12,%sp),%sp
 220               	.cfi_def_cfa_offset 160
 221 0192 4A80      	tst.l %d0
 222 0194 6612      	jne .L10
 140:/home/simulink/cFS_FreeRTOS_seL4/cfe/fsw/cfe-core/src/es/cfe_es_shell.c ****             {
 141:/home/simulink/cFS_FreeRTOS_seL4/cfe/fsw/cfe-core/src/es/cfe_es_shell.c ****                 Result = CFE_ES_ListResources(fd);
 223               	.loc 1 141 0
 224 0196 2F2F 0088 	move.l 136(%sp),-(%sp)
 225               	.cfi_def_cfa_offset 164
 226 019a 4EB9 0000 	jsr CFE_ES_ListResources
 226      0000 
 227 01a0 588F      	addq.l #4,%sp
 228               	.cfi_def_cfa_offset 160
 229 01a2 2F40 0098 	move.l %d0,152(%sp)
 230 01a6 603E      	jra .L11
 231               	.L10:
 142:/home/simulink/cFS_FreeRTOS_seL4/cfe/fsw/cfe-core/src/es/cfe_es_shell.c ****             }
 143:/home/simulink/cFS_FreeRTOS_seL4/cfe/fsw/cfe-core/src/es/cfe_es_shell.c **** 
 144:/home/simulink/cFS_FreeRTOS_seL4/cfe/fsw/cfe-core/src/es/cfe_es_shell.c ****             /* default if there is not an ES command that matches */
 145:/home/simulink/cFS_FreeRTOS_seL4/cfe/fsw/cfe-core/src/es/cfe_es_shell.c ****             else
 146:/home/simulink/cFS_FreeRTOS_seL4/cfe/fsw/cfe-core/src/es/cfe_es_shell.c ****             {
 147:/home/simulink/cFS_FreeRTOS_seL4/cfe/fsw/cfe-core/src/es/cfe_es_shell.c ****                 Result = CFE_ES_ERR_SHELL_CMD;
 232               	.loc 1 147 0
 233 01a8 223C C400 	move.l #-1006632948,%d1
 233      000C 
 234 01ae 2F41 0098 	move.l %d1,152(%sp)
 148:/home/simulink/cFS_FreeRTOS_seL4/cfe/fsw/cfe-core/src/es/cfe_es_shell.c ****                 CFE_ES_WriteToSysLog("There is no ES Shell command that matches %s \n",Cmd);
 235               	.loc 1 148 0
 236 01b2 200F      	move.l %sp,%d0
 237 01b4 0680 0000 	add.l #64,%d0
 237      0040 
 238 01ba 2F00      	move.l %d0,-(%sp)
 239               	.cfi_def_cfa_offset 164
 240 01bc 4879 0000 	pea .LC5
 240      0000 
 241               	.cfi_def_cfa_offset 168
 242 01c2 4EB9 0000 	jsr CFE_ES_WriteToSysLog
 242      0000 
 243 01c8 508F      	addq.l #8,%sp
 244               	.cfi_def_cfa_offset 160
 245 01ca 601A      	jra .L11
 246               	.L6:
 149:/home/simulink/cFS_FreeRTOS_seL4/cfe/fsw/cfe-core/src/es/cfe_es_shell.c ****             }            
 150:/home/simulink/cFS_FreeRTOS_seL4/cfe/fsw/cfe-core/src/es/cfe_es_shell.c **** 
68K GAS   			page 9


 151:/home/simulink/cFS_FreeRTOS_seL4/cfe/fsw/cfe-core/src/es/cfe_es_shell.c ****         }
 152:/home/simulink/cFS_FreeRTOS_seL4/cfe/fsw/cfe-core/src/es/cfe_es_shell.c ****         /* if the command is not directed at ES, pass it through to the 
 153:/home/simulink/cFS_FreeRTOS_seL4/cfe/fsw/cfe-core/src/es/cfe_es_shell.c ****         * underlying OS */
 154:/home/simulink/cFS_FreeRTOS_seL4/cfe/fsw/cfe-core/src/es/cfe_es_shell.c ****         else
 155:/home/simulink/cFS_FreeRTOS_seL4/cfe/fsw/cfe-core/src/es/cfe_es_shell.c ****         {
 156:/home/simulink/cFS_FreeRTOS_seL4/cfe/fsw/cfe-core/src/es/cfe_es_shell.c ****             Result = OS_ShellOutputToFile(Cmd,fd);
 247               	.loc 1 156 0
 248 01cc 2F2F 0088 	move.l 136(%sp),-(%sp)
 249               	.cfi_def_cfa_offset 164
 250 01d0 200F      	move.l %sp,%d0
 251 01d2 0680 0000 	add.l #68,%d0
 251      0044 
 252 01d8 2F00      	move.l %d0,-(%sp)
 253               	.cfi_def_cfa_offset 168
 254 01da 4EB9 0000 	jsr OS_ShellOutputToFile
 254      0000 
 255 01e0 508F      	addq.l #8,%sp
 256               	.cfi_def_cfa_offset 160
 257 01e2 2F40 0098 	move.l %d0,152(%sp)
 258               	.L11:
 157:/home/simulink/cFS_FreeRTOS_seL4/cfe/fsw/cfe-core/src/es/cfe_es_shell.c ****         }
 158:/home/simulink/cFS_FreeRTOS_seL4/cfe/fsw/cfe-core/src/es/cfe_es_shell.c **** 
 159:/home/simulink/cFS_FreeRTOS_seL4/cfe/fsw/cfe-core/src/es/cfe_es_shell.c ****         /* seek to the end of the file to get it's size */
 160:/home/simulink/cFS_FreeRTOS_seL4/cfe/fsw/cfe-core/src/es/cfe_es_shell.c ****         FileSize = OS_lseek(fd,0,OS_SEEK_END);
 259               	.loc 1 160 0
 260 01e6 4878 0002 	pea 2.w
 261               	.cfi_def_cfa_offset 164
 262 01ea 42A7      	clr.l -(%sp)
 263               	.cfi_def_cfa_offset 168
 264 01ec 2F2F 0090 	move.l 144(%sp),-(%sp)
 265               	.cfi_def_cfa_offset 172
 266 01f0 4EB9 0000 	jsr OS_lseek
 266      0000 
 267 01f6 4FEF 000C 	lea (12,%sp),%sp
 268               	.cfi_def_cfa_offset 160
 269 01fa 2F40 0084 	move.l %d0,132(%sp)
 161:/home/simulink/cFS_FreeRTOS_seL4/cfe/fsw/cfe-core/src/es/cfe_es_shell.c **** 
 162:/home/simulink/cFS_FreeRTOS_seL4/cfe/fsw/cfe-core/src/es/cfe_es_shell.c ****         if (FileSize == OS_FS_ERROR)
 270               	.loc 1 162 0
 271 01fe 70FF      	moveq #-1,%d0
 272 0200 B0AF 0084 	cmp.l 132(%sp),%d0
 273 0204 6624      	jne .L12
 163:/home/simulink/cFS_FreeRTOS_seL4/cfe/fsw/cfe-core/src/es/cfe_es_shell.c ****         {
 164:/home/simulink/cFS_FreeRTOS_seL4/cfe/fsw/cfe-core/src/es/cfe_es_shell.c ****             OS_close(fd);
 274               	.loc 1 164 0
 275 0206 2F2F 0088 	move.l 136(%sp),-(%sp)
 276               	.cfi_def_cfa_offset 164
 277 020a 4EB9 0000 	jsr OS_close
 277      0000 
 278 0210 588F      	addq.l #4,%sp
 279               	.cfi_def_cfa_offset 160
 165:/home/simulink/cFS_FreeRTOS_seL4/cfe/fsw/cfe-core/src/es/cfe_es_shell.c ****             CFE_ES_WriteToSysLog("OS_lseek call failed from CFE_ES_ShellOutputCmd 1\n");
 280               	.loc 1 165 0
 281 0212 4879 0000 	pea .LC6
 281      0000 
 282               	.cfi_def_cfa_offset 164
 283 0218 4EB9 0000 	jsr CFE_ES_WriteToSysLog
68K GAS   			page 10


 283      0000 
 284 021e 588F      	addq.l #4,%sp
 285               	.cfi_def_cfa_offset 160
 166:/home/simulink/cFS_FreeRTOS_seL4/cfe/fsw/cfe-core/src/es/cfe_es_shell.c ****             Result =  OS_FS_ERROR;
 286               	.loc 1 166 0
 287 0220 72FF      	moveq #-1,%d1
 288 0222 2F41 0098 	move.l %d1,152(%sp)
 289 0226 6000 01B8 	jra .L5
 290               	.L12:
 167:/home/simulink/cFS_FreeRTOS_seL4/cfe/fsw/cfe-core/src/es/cfe_es_shell.c ****         }
 168:/home/simulink/cFS_FreeRTOS_seL4/cfe/fsw/cfe-core/src/es/cfe_es_shell.c **** 
 169:/home/simulink/cFS_FreeRTOS_seL4/cfe/fsw/cfe-core/src/es/cfe_es_shell.c **** 
 170:/home/simulink/cFS_FreeRTOS_seL4/cfe/fsw/cfe-core/src/es/cfe_es_shell.c **** 
 171:/home/simulink/cFS_FreeRTOS_seL4/cfe/fsw/cfe-core/src/es/cfe_es_shell.c ****         /* We want to add 3 characters at the end of the telemetry,'\n','$','\0'.
 172:/home/simulink/cFS_FreeRTOS_seL4/cfe/fsw/cfe-core/src/es/cfe_es_shell.c ****          * To do this we need to make sure there are at least 3 empty characters at
 173:/home/simulink/cFS_FreeRTOS_seL4/cfe/fsw/cfe-core/src/es/cfe_es_shell.c ****          * the end of the last CFE_ES_MAX_SHELL_PKT so we don't over write any data. If 
 174:/home/simulink/cFS_FreeRTOS_seL4/cfe/fsw/cfe-core/src/es/cfe_es_shell.c ****          * the current file has only 0,1, or 2 free spaces at the end, we want to 
 175:/home/simulink/cFS_FreeRTOS_seL4/cfe/fsw/cfe-core/src/es/cfe_es_shell.c ****          * make the file longer to start a new tlm packet of size CFE_ES_MAX_SHELL_PKT.
 176:/home/simulink/cFS_FreeRTOS_seL4/cfe/fsw/cfe-core/src/es/cfe_es_shell.c ****          * This way we will get a 'blank' packet with the correct 3 characters at the end.
 177:/home/simulink/cFS_FreeRTOS_seL4/cfe/fsw/cfe-core/src/es/cfe_es_shell.c ****          */
 178:/home/simulink/cFS_FreeRTOS_seL4/cfe/fsw/cfe-core/src/es/cfe_es_shell.c **** 
 179:/home/simulink/cFS_FreeRTOS_seL4/cfe/fsw/cfe-core/src/es/cfe_es_shell.c ****         else
 180:/home/simulink/cFS_FreeRTOS_seL4/cfe/fsw/cfe-core/src/es/cfe_es_shell.c ****         {
 181:/home/simulink/cFS_FreeRTOS_seL4/cfe/fsw/cfe-core/src/es/cfe_es_shell.c ****             /* if we are within 2 bytes of the end of the packet*/
 182:/home/simulink/cFS_FreeRTOS_seL4/cfe/fsw/cfe-core/src/es/cfe_es_shell.c ****             if ( FileSize % CFE_ES_MAX_SHELL_PKT > (CFE_ES_MAX_SHELL_PKT - 3))
 291               	.loc 1 182 0
 292 022a 202F 0084 	move.l 132(%sp),%d0
 293 022e 0280 8000 	and.l #-2147483585,%d0
 293      003F 
 294 0234 4A80      	tst.l %d0
 295 0236 6C08      	jge .L13
 296 0238 5380      	subq.l #1,%d0
 297 023a 72C0      	moveq #-64,%d1
 298 023c 8081      	or.l %d1,%d0
 299 023e 5280      	addq.l #1,%d0
 300               	.L13:
 301 0240 723D      	moveq #61,%d1
 302 0242 B280      	cmp.l %d0,%d1
 303 0244 6C46      	jge .L14
 183:/home/simulink/cFS_FreeRTOS_seL4/cfe/fsw/cfe-core/src/es/cfe_es_shell.c ****             {
 184:/home/simulink/cFS_FreeRTOS_seL4/cfe/fsw/cfe-core/src/es/cfe_es_shell.c ****                 /* add enough bytes to start a new packet */
 185:/home/simulink/cFS_FreeRTOS_seL4/cfe/fsw/cfe-core/src/es/cfe_es_shell.c ****                 for (i = 0; i < CFE_ES_MAX_SHELL_PKT - (FileSize % CFE_ES_MAX_SHELL_PKT) + 1 ; i++)
 304               	.loc 1 185 0
 305 0246 42AF 008C 	clr.l 140(%sp)
 306 024a 601C      	jra .L15
 307               	.L17:
 186:/home/simulink/cFS_FreeRTOS_seL4/cfe/fsw/cfe-core/src/es/cfe_es_shell.c ****                 {
 187:/home/simulink/cFS_FreeRTOS_seL4/cfe/fsw/cfe-core/src/es/cfe_es_shell.c ****                     OS_write(fd," ",1);
 308               	.loc 1 187 0 discriminator 3
 309 024c 4878 0001 	pea 1.w
 310               	.cfi_def_cfa_offset 164
 311 0250 4879 0000 	pea .LC7
 311      0000 
 312               	.cfi_def_cfa_offset 168
 313 0256 2F2F 0090 	move.l 144(%sp),-(%sp)
 314               	.cfi_def_cfa_offset 172
 315 025a 4EB9 0000 	jsr OS_write
68K GAS   			page 11


 315      0000 
 316 0260 4FEF 000C 	lea (12,%sp),%sp
 317               	.cfi_def_cfa_offset 160
 185:/home/simulink/cFS_FreeRTOS_seL4/cfe/fsw/cfe-core/src/es/cfe_es_shell.c ****                 {
 318               	.loc 1 185 0 discriminator 3
 319 0264 52AF 008C 	addq.l #1,140(%sp)
 320               	.L15:
 185:/home/simulink/cFS_FreeRTOS_seL4/cfe/fsw/cfe-core/src/es/cfe_es_shell.c ****                 {
 321               	.loc 1 185 0 is_stmt 0 discriminator 1
 322 0268 202F 0084 	move.l 132(%sp),%d0
 323 026c 0280 8000 	and.l #-2147483585,%d0
 323      003F 
 324 0272 4A80      	tst.l %d0
 325 0274 6C08      	jge .L16
 326 0276 5380      	subq.l #1,%d0
 327 0278 72C0      	moveq #-64,%d1
 328 027a 8081      	or.l %d1,%d0
 329 027c 5280      	addq.l #1,%d0
 330               	.L16:
 331 027e 7241      	moveq #65,%d1
 332 0280 9280      	sub.l %d0,%d1
 333 0282 2001      	move.l %d1,%d0
 334 0284 B0AF 008C 	cmp.l 140(%sp),%d0
 335 0288 62C2      	jhi .L17
 336 028a 6024      	jra .L18
 337               	.L14:
 188:/home/simulink/cFS_FreeRTOS_seL4/cfe/fsw/cfe-core/src/es/cfe_es_shell.c ****                 }
 189:/home/simulink/cFS_FreeRTOS_seL4/cfe/fsw/cfe-core/src/es/cfe_es_shell.c ****             }
 190:/home/simulink/cFS_FreeRTOS_seL4/cfe/fsw/cfe-core/src/es/cfe_es_shell.c ****             else
 191:/home/simulink/cFS_FreeRTOS_seL4/cfe/fsw/cfe-core/src/es/cfe_es_shell.c ****             {
 192:/home/simulink/cFS_FreeRTOS_seL4/cfe/fsw/cfe-core/src/es/cfe_es_shell.c ****                 /* we are exactly at the end */
 193:/home/simulink/cFS_FreeRTOS_seL4/cfe/fsw/cfe-core/src/es/cfe_es_shell.c ****                 if( FileSize % CFE_ES_MAX_SHELL_PKT == 0)
 338               	.loc 1 193 0 is_stmt 1
 339 028c 202F 0084 	move.l 132(%sp),%d0
 340 0290 723F      	moveq #63,%d1
 341 0292 C081      	and.l %d1,%d0
 342 0294 4A80      	tst.l %d0
 343 0296 6618      	jne .L18
 194:/home/simulink/cFS_FreeRTOS_seL4/cfe/fsw/cfe-core/src/es/cfe_es_shell.c ****                 {
 195:/home/simulink/cFS_FreeRTOS_seL4/cfe/fsw/cfe-core/src/es/cfe_es_shell.c ****                     OS_write(fd," ",1);
 344               	.loc 1 195 0
 345 0298 4878 0001 	pea 1.w
 346               	.cfi_def_cfa_offset 164
 347 029c 4879 0000 	pea .LC7
 347      0000 
 348               	.cfi_def_cfa_offset 168
 349 02a2 2F2F 0090 	move.l 144(%sp),-(%sp)
 350               	.cfi_def_cfa_offset 172
 351 02a6 4EB9 0000 	jsr OS_write
 351      0000 
 352 02ac 4FEF 000C 	lea (12,%sp),%sp
 353               	.cfi_def_cfa_offset 160
 354               	.L18:
 196:/home/simulink/cFS_FreeRTOS_seL4/cfe/fsw/cfe-core/src/es/cfe_es_shell.c ****                 }
 197:/home/simulink/cFS_FreeRTOS_seL4/cfe/fsw/cfe-core/src/es/cfe_es_shell.c ****             }
 198:/home/simulink/cFS_FreeRTOS_seL4/cfe/fsw/cfe-core/src/es/cfe_es_shell.c **** 
 199:/home/simulink/cFS_FreeRTOS_seL4/cfe/fsw/cfe-core/src/es/cfe_es_shell.c ****             /* seek to the end of the file again to get it's new size */
68K GAS   			page 12


 200:/home/simulink/cFS_FreeRTOS_seL4/cfe/fsw/cfe-core/src/es/cfe_es_shell.c ****             FileSize = OS_lseek(fd,0,OS_SEEK_END);
 355               	.loc 1 200 0
 356 02b0 4878 0002 	pea 2.w
 357               	.cfi_def_cfa_offset 164
 358 02b4 42A7      	clr.l -(%sp)
 359               	.cfi_def_cfa_offset 168
 360 02b6 2F2F 0090 	move.l 144(%sp),-(%sp)
 361               	.cfi_def_cfa_offset 172
 362 02ba 4EB9 0000 	jsr OS_lseek
 362      0000 
 363 02c0 4FEF 000C 	lea (12,%sp),%sp
 364               	.cfi_def_cfa_offset 160
 365 02c4 2F40 0084 	move.l %d0,132(%sp)
 201:/home/simulink/cFS_FreeRTOS_seL4/cfe/fsw/cfe-core/src/es/cfe_es_shell.c **** 
 202:/home/simulink/cFS_FreeRTOS_seL4/cfe/fsw/cfe-core/src/es/cfe_es_shell.c ****             if (FileSize == OS_FS_ERROR)
 366               	.loc 1 202 0
 367 02c8 70FF      	moveq #-1,%d0
 368 02ca B0AF 0084 	cmp.l 132(%sp),%d0
 369 02ce 6624      	jne .L19
 203:/home/simulink/cFS_FreeRTOS_seL4/cfe/fsw/cfe-core/src/es/cfe_es_shell.c ****             {
 204:/home/simulink/cFS_FreeRTOS_seL4/cfe/fsw/cfe-core/src/es/cfe_es_shell.c ****                 OS_close(fd);
 370               	.loc 1 204 0
 371 02d0 2F2F 0088 	move.l 136(%sp),-(%sp)
 372               	.cfi_def_cfa_offset 164
 373 02d4 4EB9 0000 	jsr OS_close
 373      0000 
 374 02da 588F      	addq.l #4,%sp
 375               	.cfi_def_cfa_offset 160
 205:/home/simulink/cFS_FreeRTOS_seL4/cfe/fsw/cfe-core/src/es/cfe_es_shell.c ****                 CFE_ES_WriteToSysLog("OS_lseek call failed from CFE_ES_ShellOutputCmd 2\n");
 376               	.loc 1 205 0
 377 02dc 4879 0000 	pea .LC8
 377      0000 
 378               	.cfi_def_cfa_offset 164
 379 02e2 4EB9 0000 	jsr CFE_ES_WriteToSysLog
 379      0000 
 380 02e8 588F      	addq.l #4,%sp
 381               	.cfi_def_cfa_offset 160
 206:/home/simulink/cFS_FreeRTOS_seL4/cfe/fsw/cfe-core/src/es/cfe_es_shell.c ****                 Result =  OS_FS_ERROR;
 382               	.loc 1 206 0
 383 02ea 72FF      	moveq #-1,%d1
 384 02ec 2F41 0098 	move.l %d1,152(%sp)
 385 02f0 6000 00EE 	jra .L5
 386               	.L19:
 207:/home/simulink/cFS_FreeRTOS_seL4/cfe/fsw/cfe-core/src/es/cfe_es_shell.c ****             }
 208:/home/simulink/cFS_FreeRTOS_seL4/cfe/fsw/cfe-core/src/es/cfe_es_shell.c **** 
 209:/home/simulink/cFS_FreeRTOS_seL4/cfe/fsw/cfe-core/src/es/cfe_es_shell.c **** 
 210:/home/simulink/cFS_FreeRTOS_seL4/cfe/fsw/cfe-core/src/es/cfe_es_shell.c ****             else
 211:/home/simulink/cFS_FreeRTOS_seL4/cfe/fsw/cfe-core/src/es/cfe_es_shell.c ****             {
 212:/home/simulink/cFS_FreeRTOS_seL4/cfe/fsw/cfe-core/src/es/cfe_es_shell.c ****                 /* set the file back to the beginning */
 213:/home/simulink/cFS_FreeRTOS_seL4/cfe/fsw/cfe-core/src/es/cfe_es_shell.c ****                 OS_lseek(fd,0,OS_SEEK_SET);
 387               	.loc 1 213 0
 388 02f4 42A7      	clr.l -(%sp)
 389               	.cfi_def_cfa_offset 164
 390 02f6 42A7      	clr.l -(%sp)
 391               	.cfi_def_cfa_offset 168
 392 02f8 2F2F 0090 	move.l 144(%sp),-(%sp)
 393               	.cfi_def_cfa_offset 172
68K GAS   			page 13


 394 02fc 4EB9 0000 	jsr OS_lseek
 394      0000 
 395 0302 4FEF 000C 	lea (12,%sp),%sp
 396               	.cfi_def_cfa_offset 160
 214:/home/simulink/cFS_FreeRTOS_seL4/cfe/fsw/cfe-core/src/es/cfe_es_shell.c **** 
 215:/home/simulink/cFS_FreeRTOS_seL4/cfe/fsw/cfe-core/src/es/cfe_es_shell.c **** 
 216:/home/simulink/cFS_FreeRTOS_seL4/cfe/fsw/cfe-core/src/es/cfe_es_shell.c ****                 /* start processing the chunks. We want to have one packet left so we are sure this
 217:/home/simulink/cFS_FreeRTOS_seL4/cfe/fsw/cfe-core/src/es/cfe_es_shell.c ****                 * won't run over */
 218:/home/simulink/cFS_FreeRTOS_seL4/cfe/fsw/cfe-core/src/es/cfe_es_shell.c ****         
 219:/home/simulink/cFS_FreeRTOS_seL4/cfe/fsw/cfe-core/src/es/cfe_es_shell.c ****                 for (CurrFilePtr=0; CurrFilePtr < (FileSize - CFE_ES_MAX_SHELL_PKT); CurrFilePtr +=
 397               	.loc 1 219 0
 398 0306 42AF 0090 	clr.l 144(%sp)
 399 030a 6046      	jra .L20
 400               	.L21:
 220:/home/simulink/cFS_FreeRTOS_seL4/cfe/fsw/cfe-core/src/es/cfe_es_shell.c ****                 {
 221:/home/simulink/cFS_FreeRTOS_seL4/cfe/fsw/cfe-core/src/es/cfe_es_shell.c ****                     OS_read(fd, CFE_ES_TaskData.ShellPacket.Payload.ShellOutput, CFE_ES_MAX_SHELL_P
 401               	.loc 1 221 0 discriminator 3
 402 030c 4878 0040 	pea 64.w
 403               	.cfi_def_cfa_offset 164
 404 0310 4879 0000 	pea CFE_ES_TaskData+172
 404      0000 
 405               	.cfi_def_cfa_offset 168
 406 0316 2F2F 0090 	move.l 144(%sp),-(%sp)
 407               	.cfi_def_cfa_offset 172
 408 031a 4EB9 0000 	jsr OS_read
 408      0000 
 409 0320 4FEF 000C 	lea (12,%sp),%sp
 410               	.cfi_def_cfa_offset 160
 222:/home/simulink/cFS_FreeRTOS_seL4/cfe/fsw/cfe-core/src/es/cfe_es_shell.c **** 
 223:/home/simulink/cFS_FreeRTOS_seL4/cfe/fsw/cfe-core/src/es/cfe_es_shell.c ****                     /* Send the packet */
 224:/home/simulink/cFS_FreeRTOS_seL4/cfe/fsw/cfe-core/src/es/cfe_es_shell.c ****                     CFE_SB_TimeStampMsg((CFE_SB_Msg_t *) &CFE_ES_TaskData.ShellPacket);
 411               	.loc 1 224 0 discriminator 3
 412 0324 4879 0000 	pea CFE_ES_TaskData+160
 412      0000 
 413               	.cfi_def_cfa_offset 164
 414 032a 4EB9 0000 	jsr CFE_SB_TimeStampMsg
 414      0000 
 415 0330 588F      	addq.l #4,%sp
 416               	.cfi_def_cfa_offset 160
 225:/home/simulink/cFS_FreeRTOS_seL4/cfe/fsw/cfe-core/src/es/cfe_es_shell.c ****                     CFE_SB_SendMsg((CFE_SB_Msg_t *) &CFE_ES_TaskData.ShellPacket);
 417               	.loc 1 225 0 discriminator 3
 418 0332 4879 0000 	pea CFE_ES_TaskData+160
 418      0000 
 419               	.cfi_def_cfa_offset 164
 420 0338 4EB9 0000 	jsr CFE_SB_SendMsg
 420      0000 
 421 033e 588F      	addq.l #4,%sp
 422               	.cfi_def_cfa_offset 160
 226:/home/simulink/cFS_FreeRTOS_seL4/cfe/fsw/cfe-core/src/es/cfe_es_shell.c ****                     /* delay to not flood the pipe on large messages */
 227:/home/simulink/cFS_FreeRTOS_seL4/cfe/fsw/cfe-core/src/es/cfe_es_shell.c ****                     OS_TaskDelay(200);
 423               	.loc 1 227 0 discriminator 3
 424 0340 4878 00C8 	pea 200.w
 425               	.cfi_def_cfa_offset 164
 426 0344 4EB9 0000 	jsr OS_TaskDelay
 426      0000 
 427 034a 588F      	addq.l #4,%sp
 428               	.cfi_def_cfa_offset 160
68K GAS   			page 14


 219:/home/simulink/cFS_FreeRTOS_seL4/cfe/fsw/cfe-core/src/es/cfe_es_shell.c ****                 {
 429               	.loc 1 219 0 discriminator 3
 430 034c 7040      	moveq #64,%d0
 431 034e D1AF 0090 	add.l %d0,144(%sp)
 432               	.L20:
 219:/home/simulink/cFS_FreeRTOS_seL4/cfe/fsw/cfe-core/src/es/cfe_es_shell.c ****                 {
 433               	.loc 1 219 0 is_stmt 0 discriminator 1
 434 0352 202F 0084 	move.l 132(%sp),%d0
 435 0356 0680 FFFF 	add.l #-64,%d0
 435      FFC0 
 436 035c B0AF 0090 	cmp.l 144(%sp),%d0
 437 0360 6EAA      	jgt .L21
 228:/home/simulink/cFS_FreeRTOS_seL4/cfe/fsw/cfe-core/src/es/cfe_es_shell.c ****                 }
 229:/home/simulink/cFS_FreeRTOS_seL4/cfe/fsw/cfe-core/src/es/cfe_es_shell.c **** 
 230:/home/simulink/cFS_FreeRTOS_seL4/cfe/fsw/cfe-core/src/es/cfe_es_shell.c ****                 /* finish off the last portion of the file */
 231:/home/simulink/cFS_FreeRTOS_seL4/cfe/fsw/cfe-core/src/es/cfe_es_shell.c ****                 /* over write the last packet with spaces, then it will get filled
 232:/home/simulink/cFS_FreeRTOS_seL4/cfe/fsw/cfe-core/src/es/cfe_es_shell.c ****                * in with the correct info below. This assures that the last non full
 233:/home/simulink/cFS_FreeRTOS_seL4/cfe/fsw/cfe-core/src/es/cfe_es_shell.c ****                * part of the packet will be spaces */
 234:/home/simulink/cFS_FreeRTOS_seL4/cfe/fsw/cfe-core/src/es/cfe_es_shell.c ****                 for (i =0; i < CFE_ES_MAX_SHELL_PKT; i++)
 438               	.loc 1 234 0 is_stmt 1
 439 0362 42AF 008C 	clr.l 140(%sp)
 440 0366 6012      	jra .L22
 441               	.L23:
 235:/home/simulink/cFS_FreeRTOS_seL4/cfe/fsw/cfe-core/src/es/cfe_es_shell.c ****                 {
 236:/home/simulink/cFS_FreeRTOS_seL4/cfe/fsw/cfe-core/src/es/cfe_es_shell.c ****                     CFE_ES_TaskData.ShellPacket.Payload.ShellOutput[i] = ' ';
 442               	.loc 1 236 0 discriminator 3
 443 0368 206F 008C 	move.l 140(%sp),%a0
 444 036c D1FC 0000 	add.l #CFE_ES_TaskData+172,%a0
 444      0000 
 445 0372 10BC 0020 	move.b #32,(%a0)
 234:/home/simulink/cFS_FreeRTOS_seL4/cfe/fsw/cfe-core/src/es/cfe_es_shell.c ****                 {
 446               	.loc 1 234 0 discriminator 3
 447 0376 52AF 008C 	addq.l #1,140(%sp)
 448               	.L22:
 234:/home/simulink/cFS_FreeRTOS_seL4/cfe/fsw/cfe-core/src/es/cfe_es_shell.c ****                 {
 449               	.loc 1 234 0 is_stmt 0 discriminator 1
 450 037a 723F      	moveq #63,%d1
 451 037c B2AF 008C 	cmp.l 140(%sp),%d1
 452 0380 64E6      	jcc .L23
 237:/home/simulink/cFS_FreeRTOS_seL4/cfe/fsw/cfe-core/src/es/cfe_es_shell.c ****                 }
 238:/home/simulink/cFS_FreeRTOS_seL4/cfe/fsw/cfe-core/src/es/cfe_es_shell.c ****   
 239:/home/simulink/cFS_FreeRTOS_seL4/cfe/fsw/cfe-core/src/es/cfe_es_shell.c ****                 OS_read(fd, CFE_ES_TaskData.ShellPacket.Payload.ShellOutput, ( FileSize - CurrFileP
 453               	.loc 1 239 0 is_stmt 1
 454 0382 202F 0084 	move.l 132(%sp),%d0
 455 0386 90AF 0090 	sub.l 144(%sp),%d0
 456 038a 2F00      	move.l %d0,-(%sp)
 457               	.cfi_def_cfa_offset 164
 458 038c 4879 0000 	pea CFE_ES_TaskData+172
 458      0000 
 459               	.cfi_def_cfa_offset 168
 460 0392 2F2F 0090 	move.l 144(%sp),-(%sp)
 461               	.cfi_def_cfa_offset 172
 462 0396 4EB9 0000 	jsr OS_read
 462      0000 
 463 039c 4FEF 000C 	lea (12,%sp),%sp
 464               	.cfi_def_cfa_offset 160
 240:/home/simulink/cFS_FreeRTOS_seL4/cfe/fsw/cfe-core/src/es/cfe_es_shell.c **** 
68K GAS   			page 15


 241:/home/simulink/cFS_FreeRTOS_seL4/cfe/fsw/cfe-core/src/es/cfe_es_shell.c ****                 /* From our check above, we are assured that there are at least 3 free
 242:/home/simulink/cFS_FreeRTOS_seL4/cfe/fsw/cfe-core/src/es/cfe_es_shell.c ****                  * characters to write our data into at the end of this last packet 
 243:/home/simulink/cFS_FreeRTOS_seL4/cfe/fsw/cfe-core/src/es/cfe_es_shell.c ****                  * 
 244:/home/simulink/cFS_FreeRTOS_seL4/cfe/fsw/cfe-core/src/es/cfe_es_shell.c ****                  * The \n assures we are on a new line, the $ gives us our prompt, and the 
 245:/home/simulink/cFS_FreeRTOS_seL4/cfe/fsw/cfe-core/src/es/cfe_es_shell.c ****                  * \0 assures we are null terminalted.
 246:/home/simulink/cFS_FreeRTOS_seL4/cfe/fsw/cfe-core/src/es/cfe_es_shell.c ****                  */
 247:/home/simulink/cFS_FreeRTOS_seL4/cfe/fsw/cfe-core/src/es/cfe_es_shell.c **** 
 248:/home/simulink/cFS_FreeRTOS_seL4/cfe/fsw/cfe-core/src/es/cfe_es_shell.c ****         
 249:/home/simulink/cFS_FreeRTOS_seL4/cfe/fsw/cfe-core/src/es/cfe_es_shell.c ****                 CFE_ES_TaskData.ShellPacket.Payload.ShellOutput[ CFE_ES_MAX_SHELL_PKT - 3] = '\n';
 465               	.loc 1 249 0
 466 03a0 700A      	moveq #10,%d0
 467 03a2 13C0 0000 	move.b %d0,CFE_ES_TaskData+233
 467      0000 
 250:/home/simulink/cFS_FreeRTOS_seL4/cfe/fsw/cfe-core/src/es/cfe_es_shell.c ****                 CFE_ES_TaskData.ShellPacket.Payload.ShellOutput[ CFE_ES_MAX_SHELL_PKT - 2] = '$';
 468               	.loc 1 250 0
 469 03a8 7224      	moveq #36,%d1
 470 03aa 13C1 0000 	move.b %d1,CFE_ES_TaskData+234
 470      0000 
 251:/home/simulink/cFS_FreeRTOS_seL4/cfe/fsw/cfe-core/src/es/cfe_es_shell.c ****                 CFE_ES_TaskData.ShellPacket.Payload.ShellOutput[ CFE_ES_MAX_SHELL_PKT - 1] = '\0';
 471               	.loc 1 251 0
 472 03b0 4200      	clr.b %d0
 473 03b2 13C0 0000 	move.b %d0,CFE_ES_TaskData+235
 473      0000 
 252:/home/simulink/cFS_FreeRTOS_seL4/cfe/fsw/cfe-core/src/es/cfe_es_shell.c **** 
 253:/home/simulink/cFS_FreeRTOS_seL4/cfe/fsw/cfe-core/src/es/cfe_es_shell.c ****                 /* Send the last packet */
 254:/home/simulink/cFS_FreeRTOS_seL4/cfe/fsw/cfe-core/src/es/cfe_es_shell.c ****                 CFE_SB_TimeStampMsg((CFE_SB_Msg_t *) &CFE_ES_TaskData.ShellPacket);
 474               	.loc 1 254 0
 475 03b8 4879 0000 	pea CFE_ES_TaskData+160
 475      0000 
 476               	.cfi_def_cfa_offset 164
 477 03be 4EB9 0000 	jsr CFE_SB_TimeStampMsg
 477      0000 
 478 03c4 588F      	addq.l #4,%sp
 479               	.cfi_def_cfa_offset 160
 255:/home/simulink/cFS_FreeRTOS_seL4/cfe/fsw/cfe-core/src/es/cfe_es_shell.c ****                 CFE_SB_SendMsg((CFE_SB_Msg_t *) &CFE_ES_TaskData.ShellPacket);
 480               	.loc 1 255 0
 481 03c6 4879 0000 	pea CFE_ES_TaskData+160
 481      0000 
 482               	.cfi_def_cfa_offset 164
 483 03cc 4EB9 0000 	jsr CFE_SB_SendMsg
 483      0000 
 484 03d2 588F      	addq.l #4,%sp
 485               	.cfi_def_cfa_offset 160
 256:/home/simulink/cFS_FreeRTOS_seL4/cfe/fsw/cfe-core/src/es/cfe_es_shell.c ****    
 257:/home/simulink/cFS_FreeRTOS_seL4/cfe/fsw/cfe-core/src/es/cfe_es_shell.c ****                 /* Close the file descriptor */
 258:/home/simulink/cFS_FreeRTOS_seL4/cfe/fsw/cfe-core/src/es/cfe_es_shell.c ****                 OS_close(fd);
 486               	.loc 1 258 0
 487 03d4 2F2F 0088 	move.l 136(%sp),-(%sp)
 488               	.cfi_def_cfa_offset 164
 489 03d8 4EB9 0000 	jsr OS_close
 489      0000 
 490 03de 588F      	addq.l #4,%sp
 491               	.cfi_def_cfa_offset 160
 492               	.L5:
 259:/home/simulink/cFS_FreeRTOS_seL4/cfe/fsw/cfe-core/src/es/cfe_es_shell.c ****             } /* if FilseSize == OS_FS_ERROR */
 260:/home/simulink/cFS_FreeRTOS_seL4/cfe/fsw/cfe-core/src/es/cfe_es_shell.c ****         } /* if FileSeize == OS_FS_ERROR */
 261:/home/simulink/cFS_FreeRTOS_seL4/cfe/fsw/cfe-core/src/es/cfe_es_shell.c ****     }/* if fd < OS_FS_SUCCESS */
68K GAS   			page 16


 262:/home/simulink/cFS_FreeRTOS_seL4/cfe/fsw/cfe-core/src/es/cfe_es_shell.c **** 
 263:/home/simulink/cFS_FreeRTOS_seL4/cfe/fsw/cfe-core/src/es/cfe_es_shell.c **** 
 264:/home/simulink/cFS_FreeRTOS_seL4/cfe/fsw/cfe-core/src/es/cfe_es_shell.c ****     /* cppcheck-suppress duplicateExpression */
 265:/home/simulink/cFS_FreeRTOS_seL4/cfe/fsw/cfe-core/src/es/cfe_es_shell.c ****     if (Result != OS_SUCCESS && Result != CFE_SUCCESS )
 493               	.loc 1 265 0
 494 03e0 4AAF 0098 	tst.l 152(%sp)
 495 03e4 6720      	jeq .L24
 496               	.loc 1 265 0 is_stmt 0 discriminator 1
 497 03e6 4AAF 0098 	tst.l 152(%sp)
 498 03ea 671A      	jeq .L24
 266:/home/simulink/cFS_FreeRTOS_seL4/cfe/fsw/cfe-core/src/es/cfe_es_shell.c ****     {
 267:/home/simulink/cFS_FreeRTOS_seL4/cfe/fsw/cfe-core/src/es/cfe_es_shell.c ****         ReturnCode = CFE_ES_ERR_SHELL_CMD;
 499               	.loc 1 267 0 is_stmt 1
 500 03ec 223C C400 	move.l #-1006632948,%d1
 500      000C 
 501 03f2 2F41 0094 	move.l %d1,148(%sp)
 268:/home/simulink/cFS_FreeRTOS_seL4/cfe/fsw/cfe-core/src/es/cfe_es_shell.c ****         CFE_ES_WriteToSysLog("OS_ShellOutputToFile call failed from CFE_ES_ShellOutputCommand\n");
 502               	.loc 1 268 0
 503 03f6 4879 0000 	pea .LC9
 503      0000 
 504               	.cfi_def_cfa_offset 164
 505 03fc 4EB9 0000 	jsr CFE_ES_WriteToSysLog
 505      0000 
 506 0402 588F      	addq.l #4,%sp
 507               	.cfi_def_cfa_offset 160
 508 0404 6004      	jra .L25
 509               	.L24:
 269:/home/simulink/cFS_FreeRTOS_seL4/cfe/fsw/cfe-core/src/es/cfe_es_shell.c ****     }
 270:/home/simulink/cFS_FreeRTOS_seL4/cfe/fsw/cfe-core/src/es/cfe_es_shell.c ****     else
 271:/home/simulink/cFS_FreeRTOS_seL4/cfe/fsw/cfe-core/src/es/cfe_es_shell.c ****     {
 272:/home/simulink/cFS_FreeRTOS_seL4/cfe/fsw/cfe-core/src/es/cfe_es_shell.c ****         ReturnCode = CFE_SUCCESS;
 510               	.loc 1 272 0
 511 0406 42AF 0094 	clr.l 148(%sp)
 512               	.L25:
 273:/home/simulink/cFS_FreeRTOS_seL4/cfe/fsw/cfe-core/src/es/cfe_es_shell.c ****     }
 274:/home/simulink/cFS_FreeRTOS_seL4/cfe/fsw/cfe-core/src/es/cfe_es_shell.c ****     
 275:/home/simulink/cFS_FreeRTOS_seL4/cfe/fsw/cfe-core/src/es/cfe_es_shell.c ****     return ReturnCode;
 513               	.loc 1 275 0
 514 040a 202F 0094 	move.l 148(%sp),%d0
 276:/home/simulink/cFS_FreeRTOS_seL4/cfe/fsw/cfe-core/src/es/cfe_es_shell.c **** }  
 515               	.loc 1 276 0
 516 040e 4FEF 009C 	lea (156,%sp),%sp
 517 0412 4E75      	rts
 518               	.cfi_endproc
 519               	.LFE59:
 520               	.sizeCFE_ES_ShellOutputCommand, .-CFE_ES_ShellOutputCommand
 521               	.align2
 522               	.globlCFE_ES_ListApplications
 523               	.typeCFE_ES_ListApplications, @function
 524               	CFE_ES_ListApplications:
 525               	.LFB60:
 277:/home/simulink/cFS_FreeRTOS_seL4/cfe/fsw/cfe-core/src/es/cfe_es_shell.c ****     
 278:/home/simulink/cFS_FreeRTOS_seL4/cfe/fsw/cfe-core/src/es/cfe_es_shell.c ****     
 279:/home/simulink/cFS_FreeRTOS_seL4/cfe/fsw/cfe-core/src/es/cfe_es_shell.c **** /* * * * * * * * * * * * * * * * * * * * * * * * * * * * * * * * * */
 280:/home/simulink/cFS_FreeRTOS_seL4/cfe/fsw/cfe-core/src/es/cfe_es_shell.c **** /*                                                                 */
 281:/home/simulink/cFS_FreeRTOS_seL4/cfe/fsw/cfe-core/src/es/cfe_es_shell.c **** /* CFE_ES_ListApplications() -- List All ES Applications,put in fd */
 282:/home/simulink/cFS_FreeRTOS_seL4/cfe/fsw/cfe-core/src/es/cfe_es_shell.c **** /*                                                                 */
68K GAS   			page 17


 283:/home/simulink/cFS_FreeRTOS_seL4/cfe/fsw/cfe-core/src/es/cfe_es_shell.c **** /* * * * * * * * * * * * * * * * * * * * * * * * * * * * * * * * * */
 284:/home/simulink/cFS_FreeRTOS_seL4/cfe/fsw/cfe-core/src/es/cfe_es_shell.c **** int32 CFE_ES_ListApplications(int32 fd)
 285:/home/simulink/cFS_FreeRTOS_seL4/cfe/fsw/cfe-core/src/es/cfe_es_shell.c **** {
 526               	.loc 1 285 0
 527               	.cfi_startproc
 528 0414 4FEF FFE0 	lea (-32,%sp),%sp
 529               	.cfi_def_cfa_offset 36
 286:/home/simulink/cFS_FreeRTOS_seL4/cfe/fsw/cfe-core/src/es/cfe_es_shell.c ****     uint32 i;
 287:/home/simulink/cFS_FreeRTOS_seL4/cfe/fsw/cfe-core/src/es/cfe_es_shell.c ****     char Line [OS_MAX_API_NAME +2];
 288:/home/simulink/cFS_FreeRTOS_seL4/cfe/fsw/cfe-core/src/es/cfe_es_shell.c ****     int32 Result = CFE_SUCCESS;
 530               	.loc 1 288 0
 531 0418 42AF 0018 	clr.l 24(%sp)
 289:/home/simulink/cFS_FreeRTOS_seL4/cfe/fsw/cfe-core/src/es/cfe_es_shell.c ****     
 290:/home/simulink/cFS_FreeRTOS_seL4/cfe/fsw/cfe-core/src/es/cfe_es_shell.c ****     /* Make sure we start at the beginning of the file */
 291:/home/simulink/cFS_FreeRTOS_seL4/cfe/fsw/cfe-core/src/es/cfe_es_shell.c ****     OS_lseek(fd,0, OS_SEEK_SET);
 532               	.loc 1 291 0
 533 041c 42A7      	clr.l -(%sp)
 534               	.cfi_def_cfa_offset 40
 535 041e 42A7      	clr.l -(%sp)
 536               	.cfi_def_cfa_offset 44
 537 0420 2F2F 002C 	move.l 44(%sp),-(%sp)
 538               	.cfi_def_cfa_offset 48
 539 0424 4EB9 0000 	jsr OS_lseek
 539      0000 
 540 042a 4FEF 000C 	lea (12,%sp),%sp
 541               	.cfi_def_cfa_offset 36
 292:/home/simulink/cFS_FreeRTOS_seL4/cfe/fsw/cfe-core/src/es/cfe_es_shell.c ****     
 293:/home/simulink/cFS_FreeRTOS_seL4/cfe/fsw/cfe-core/src/es/cfe_es_shell.c ****     for ( i = 0; i < CFE_ES_MAX_APPLICATIONS; i++ )
 542               	.loc 1 293 0
 543 042e 42AF 001C 	clr.l 28(%sp)
 544 0432 6000 00C0 	jra .L28
 545               	.L30:
 294:/home/simulink/cFS_FreeRTOS_seL4/cfe/fsw/cfe-core/src/es/cfe_es_shell.c ****     {
 295:/home/simulink/cFS_FreeRTOS_seL4/cfe/fsw/cfe-core/src/es/cfe_es_shell.c ****         if ( (CFE_ES_Global.AppTable[i].RecordUsed == TRUE) && (Result == CFE_SUCCESS) )
 546               	.loc 1 295 0
 547 0436 202F 001C 	move.l 28(%sp),%d0
 548 043a 223C 0000 	move.l #168,%d1
 548      00A8 
 549 0440 4C01 0800 	muls.l %d1,%d0
 550 0444 41F9 0000 	lea CFE_ES_Global+2348,%a0
 550      0000 
 551 044a 1030 0800 	move.b (%a0,%d0.l),%d0
 552 044e 1000      	move.b %d0,%d0
 553 0450 0280 0000 	and.l #255,%d0
 553      00FF 
 554 0456 7201      	moveq #1,%d1
 555 0458 B280      	cmp.l %d0,%d1
 556 045a 6600 0094 	jne .L29
 557               	.loc 1 295 0 is_stmt 0 discriminator 1
 558 045e 4AAF 0018 	tst.l 24(%sp)
 559 0462 6600 008C 	jne .L29
 296:/home/simulink/cFS_FreeRTOS_seL4/cfe/fsw/cfe-core/src/es/cfe_es_shell.c ****         {
 297:/home/simulink/cFS_FreeRTOS_seL4/cfe/fsw/cfe-core/src/es/cfe_es_shell.c ****             /* We found an in use app. Write it to the file */
 298:/home/simulink/cFS_FreeRTOS_seL4/cfe/fsw/cfe-core/src/es/cfe_es_shell.c ****             strcpy(Line, (char*) CFE_ES_Global.AppTable[i].StartParams.Name);
 560               	.loc 1 298 0 is_stmt 1
 561 0466 202F 001C 	move.l 28(%sp),%d0
 562 046a 223C 0000 	move.l #168,%d1
68K GAS   			page 18


 562      00A8 
 563 0470 4C01 0800 	muls.l %d1,%d0
 564 0474 0680 0000 	add.l #2356,%d0
 564      0934 
 565 047a 0680 0000 	add.l #CFE_ES_Global,%d0
 565      0000 
 566 0480 2F00      	move.l %d0,-(%sp)
 567               	.cfi_def_cfa_offset 40
 568 0482 200F      	move.l %sp,%d0
 569 0484 5C80      	addq.l #6,%d0
 570 0486 2F00      	move.l %d0,-(%sp)
 571               	.cfi_def_cfa_offset 44
 572 0488 4EB9 0000 	jsr strcpy
 572      0000 
 573 048e 508F      	addq.l #8,%sp
 574               	.cfi_def_cfa_offset 36
 299:/home/simulink/cFS_FreeRTOS_seL4/cfe/fsw/cfe-core/src/es/cfe_es_shell.c ****             strcat(Line,"\n");             
 575               	.loc 1 299 0
 576 0490 200F      	move.l %sp,%d0
 577 0492 5480      	addq.l #2,%d0
 578 0494 2F00      	move.l %d0,-(%sp)
 579               	.cfi_def_cfa_offset 40
 580 0496 4EB9 0000 	jsr strlen
 580      0000 
 581 049c 588F      	addq.l #4,%sp
 582               	.cfi_def_cfa_offset 36
 583 049e 2200      	move.l %d0,%d1
 584 04a0 200F      	move.l %sp,%d0
 585 04a2 5480      	addq.l #2,%d0
 586 04a4 2040      	move.l %d0,%a0
 587 04a6 D1C1      	add.l %d1,%a0
 588 04a8 30BC 0A00 	move.w #2560,(%a0)
 300:/home/simulink/cFS_FreeRTOS_seL4/cfe/fsw/cfe-core/src/es/cfe_es_shell.c ****             Result = OS_write(fd, Line, strlen(Line));
 589               	.loc 1 300 0
 590 04ac 200F      	move.l %sp,%d0
 591 04ae 5480      	addq.l #2,%d0
 592 04b0 2F00      	move.l %d0,-(%sp)
 593               	.cfi_def_cfa_offset 40
 594 04b2 4EB9 0000 	jsr strlen
 594      0000 
 595 04b8 588F      	addq.l #4,%sp
 596               	.cfi_def_cfa_offset 36
 597 04ba 2F00      	move.l %d0,-(%sp)
 598               	.cfi_def_cfa_offset 40
 599 04bc 200F      	move.l %sp,%d0
 600 04be 5C80      	addq.l #6,%d0
 601 04c0 2F00      	move.l %d0,-(%sp)
 602               	.cfi_def_cfa_offset 44
 603 04c2 2F2F 002C 	move.l 44(%sp),-(%sp)
 604               	.cfi_def_cfa_offset 48
 605 04c6 4EB9 0000 	jsr OS_write
 605      0000 
 606 04cc 4FEF 000C 	lea (12,%sp),%sp
 607               	.cfi_def_cfa_offset 36
 608 04d0 2F40 0018 	move.l %d0,24(%sp)
 301:/home/simulink/cFS_FreeRTOS_seL4/cfe/fsw/cfe-core/src/es/cfe_es_shell.c ****             
 302:/home/simulink/cFS_FreeRTOS_seL4/cfe/fsw/cfe-core/src/es/cfe_es_shell.c ****             if (Result == strlen(Line))
68K GAS   			page 19


 609               	.loc 1 302 0
 610 04d4 200F      	move.l %sp,%d0
 611 04d6 5480      	addq.l #2,%d0
 612 04d8 2F00      	move.l %d0,-(%sp)
 613               	.cfi_def_cfa_offset 40
 614 04da 4EB9 0000 	jsr strlen
 614      0000 
 615 04e0 588F      	addq.l #4,%sp
 616               	.cfi_def_cfa_offset 36
 617 04e2 2200      	move.l %d0,%d1
 618 04e4 202F 0018 	move.l 24(%sp),%d0
 619 04e8 B081      	cmp.l %d1,%d0
 620 04ea 6604      	jne .L29
 303:/home/simulink/cFS_FreeRTOS_seL4/cfe/fsw/cfe-core/src/es/cfe_es_shell.c ****             {
 304:/home/simulink/cFS_FreeRTOS_seL4/cfe/fsw/cfe-core/src/es/cfe_es_shell.c ****                 Result = CFE_SUCCESS;
 621               	.loc 1 304 0
 622 04ec 42AF 0018 	clr.l 24(%sp)
 623               	.L29:
 293:/home/simulink/cFS_FreeRTOS_seL4/cfe/fsw/cfe-core/src/es/cfe_es_shell.c ****     {
 624               	.loc 1 293 0 discriminator 2
 625 04f0 52AF 001C 	addq.l #1,28(%sp)
 626               	.L28:
 293:/home/simulink/cFS_FreeRTOS_seL4/cfe/fsw/cfe-core/src/es/cfe_es_shell.c ****     {
 627               	.loc 1 293 0 is_stmt 0 discriminator 1
 628 04f4 701F      	moveq #31,%d0
 629 04f6 B0AF 001C 	cmp.l 28(%sp),%d0
 630 04fa 6400 FF3A 	jcc .L30
 305:/home/simulink/cFS_FreeRTOS_seL4/cfe/fsw/cfe-core/src/es/cfe_es_shell.c ****             }
 306:/home/simulink/cFS_FreeRTOS_seL4/cfe/fsw/cfe-core/src/es/cfe_es_shell.c ****             /* if not success, returns whatever OS_write failire was */
 307:/home/simulink/cFS_FreeRTOS_seL4/cfe/fsw/cfe-core/src/es/cfe_es_shell.c ****             
 308:/home/simulink/cFS_FreeRTOS_seL4/cfe/fsw/cfe-core/src/es/cfe_es_shell.c ****         }
 309:/home/simulink/cFS_FreeRTOS_seL4/cfe/fsw/cfe-core/src/es/cfe_es_shell.c ****     } /* end for */
 310:/home/simulink/cFS_FreeRTOS_seL4/cfe/fsw/cfe-core/src/es/cfe_es_shell.c **** 
 311:/home/simulink/cFS_FreeRTOS_seL4/cfe/fsw/cfe-core/src/es/cfe_es_shell.c ****     return Result;
 631               	.loc 1 311 0 is_stmt 1
 632 04fe 202F 0018 	move.l 24(%sp),%d0
 312:/home/simulink/cFS_FreeRTOS_seL4/cfe/fsw/cfe-core/src/es/cfe_es_shell.c **** } /* end ES_ListApplications */
 633               	.loc 1 312 0
 634 0502 4FEF 0020 	lea (32,%sp),%sp
 635 0506 4E75      	rts
 636               	.cfi_endproc
 637               	.LFE60:
 638               	.sizeCFE_ES_ListApplications, .-CFE_ES_ListApplications
 639               	.section.rodata
 640               	.LC10:
 641 0118 5461 736B 	.string"Task ID: %08d, Task Name: %20s, Prnt App ID: %08d, Prnt App Name: %20s\n"
 641      2049 443A 
 641      2025 3038 
 641      642C 2054 
 641      6173 6B20 
 642               	.text
 643               	.align2
 644               	.globlCFE_ES_ListTasks
 645               	.typeCFE_ES_ListTasks, @function
 646               	CFE_ES_ListTasks:
 647               	.LFB61:
 313:/home/simulink/cFS_FreeRTOS_seL4/cfe/fsw/cfe-core/src/es/cfe_es_shell.c **** 
68K GAS   			page 20


 314:/home/simulink/cFS_FreeRTOS_seL4/cfe/fsw/cfe-core/src/es/cfe_es_shell.c **** /* * * * * * * * * * * * * * * * * * * * * * * * * * * * * * * * * */
 315:/home/simulink/cFS_FreeRTOS_seL4/cfe/fsw/cfe-core/src/es/cfe_es_shell.c **** /*                                                                 */
 316:/home/simulink/cFS_FreeRTOS_seL4/cfe/fsw/cfe-core/src/es/cfe_es_shell.c **** /* CFE_ES_ListTasks() -- List All ES Tasks,put in fd               */
 317:/home/simulink/cFS_FreeRTOS_seL4/cfe/fsw/cfe-core/src/es/cfe_es_shell.c **** /*                                                                 */
 318:/home/simulink/cFS_FreeRTOS_seL4/cfe/fsw/cfe-core/src/es/cfe_es_shell.c **** /* * * * * * * * * * * * * * * * * * * * * * * * * * * * * * * * * */
 319:/home/simulink/cFS_FreeRTOS_seL4/cfe/fsw/cfe-core/src/es/cfe_es_shell.c **** int32 CFE_ES_ListTasks(int32 fd)
 320:/home/simulink/cFS_FreeRTOS_seL4/cfe/fsw/cfe-core/src/es/cfe_es_shell.c **** {
 648               	.loc 1 320 0
 649               	.cfi_startproc
 650 0508 4FEF FF44 	lea (-188,%sp),%sp
 651               	.cfi_def_cfa_offset 192
 321:/home/simulink/cFS_FreeRTOS_seL4/cfe/fsw/cfe-core/src/es/cfe_es_shell.c ****     uint32                i;
 322:/home/simulink/cFS_FreeRTOS_seL4/cfe/fsw/cfe-core/src/es/cfe_es_shell.c ****     char                 Line [128];
 323:/home/simulink/cFS_FreeRTOS_seL4/cfe/fsw/cfe-core/src/es/cfe_es_shell.c ****     int32                Result = CFE_SUCCESS;
 652               	.loc 1 323 0
 653 050c 42AF 00B4 	clr.l 180(%sp)
 324:/home/simulink/cFS_FreeRTOS_seL4/cfe/fsw/cfe-core/src/es/cfe_es_shell.c ****     CFE_ES_TaskInfo_t    TaskInfo;
 325:/home/simulink/cFS_FreeRTOS_seL4/cfe/fsw/cfe-core/src/es/cfe_es_shell.c ****     
 326:/home/simulink/cFS_FreeRTOS_seL4/cfe/fsw/cfe-core/src/es/cfe_es_shell.c ****     /* Make sure we start at the beginning of the file */
 327:/home/simulink/cFS_FreeRTOS_seL4/cfe/fsw/cfe-core/src/es/cfe_es_shell.c ****     Result = OS_lseek(fd, 0, OS_SEEK_SET);
 654               	.loc 1 327 0
 655 0510 42A7      	clr.l -(%sp)
 656               	.cfi_def_cfa_offset 196
 657 0512 42A7      	clr.l -(%sp)
 658               	.cfi_def_cfa_offset 200
 659 0514 2F2F 00C8 	move.l 200(%sp),-(%sp)
 660               	.cfi_def_cfa_offset 204
 661 0518 4EB9 0000 	jsr OS_lseek
 661      0000 
 662 051e 4FEF 000C 	lea (12,%sp),%sp
 663               	.cfi_def_cfa_offset 192
 664 0522 2F40 00B4 	move.l %d0,180(%sp)
 328:/home/simulink/cFS_FreeRTOS_seL4/cfe/fsw/cfe-core/src/es/cfe_es_shell.c ****     if ( Result == 0 ) 
 665               	.loc 1 328 0
 666 0526 4AAF 00B4 	tst.l 180(%sp)
 667 052a 6600 0190 	jne .L33
 329:/home/simulink/cFS_FreeRTOS_seL4/cfe/fsw/cfe-core/src/es/cfe_es_shell.c ****     {
 330:/home/simulink/cFS_FreeRTOS_seL4/cfe/fsw/cfe-core/src/es/cfe_es_shell.c ****        sprintf(Line,"---- ES Task List ----\n");
 668               	.loc 1 330 0
 669 052e 200F      	move.l %sp,%d0
 670 0530 0680 0000 	add.l #52,%d0
 670      0034 
 671 0536 2040      	move.l %d0,%a0
 672 0538 20BC 2D2D 	move.l #757935405,(%a0)
 672      2D2D 
 673 053e 5888      	addq.l #4,%a0
 674 0540 20BC 2045 	move.l #541414176,(%a0)
 674      5320 
 675 0546 5888      	addq.l #4,%a0
 676 0548 20BC 5461 	move.l #1415672683,(%a0)
 676      736B 
 677 054e 5888      	addq.l #4,%a0
 678 0550 20BC 204C 	move.l #541878643,(%a0)
 678      6973 
 679 0556 5888      	addq.l #4,%a0
 680 0558 20BC 7420 	move.l #1948265773,(%a0)
 680      2D2D 
68K GAS   			page 21


 681 055e 5888      	addq.l #4,%a0
 682 0560 20BC 2D2D 	move.l #757926400,(%a0)
 682      0A00 
 683 0566 5888      	addq.l #4,%a0
 331:/home/simulink/cFS_FreeRTOS_seL4/cfe/fsw/cfe-core/src/es/cfe_es_shell.c ****        Result = OS_write(fd, Line, strlen(Line));
 684               	.loc 1 331 0
 685 0568 200F      	move.l %sp,%d0
 686 056a 0680 0000 	add.l #52,%d0
 686      0034 
 687 0570 2F00      	move.l %d0,-(%sp)
 688               	.cfi_def_cfa_offset 196
 689 0572 4EB9 0000 	jsr strlen
 689      0000 
 690 0578 588F      	addq.l #4,%sp
 691               	.cfi_def_cfa_offset 192
 692 057a 2F00      	move.l %d0,-(%sp)
 693               	.cfi_def_cfa_offset 196
 694 057c 200F      	move.l %sp,%d0
 695 057e 0680 0000 	add.l #56,%d0
 695      0038 
 696 0584 2F00      	move.l %d0,-(%sp)
 697               	.cfi_def_cfa_offset 200
 698 0586 2F2F 00C8 	move.l 200(%sp),-(%sp)
 699               	.cfi_def_cfa_offset 204
 700 058a 4EB9 0000 	jsr OS_write
 700      0000 
 701 0590 4FEF 000C 	lea (12,%sp),%sp
 702               	.cfi_def_cfa_offset 192
 703 0594 2F40 00B4 	move.l %d0,180(%sp)
 332:/home/simulink/cFS_FreeRTOS_seL4/cfe/fsw/cfe-core/src/es/cfe_es_shell.c ****        if (Result == strlen(Line))
 704               	.loc 1 332 0
 705 0598 200F      	move.l %sp,%d0
 706 059a 0680 0000 	add.l #52,%d0
 706      0034 
 707 05a0 2F00      	move.l %d0,-(%sp)
 708               	.cfi_def_cfa_offset 196
 709 05a2 4EB9 0000 	jsr strlen
 709      0000 
 710 05a8 588F      	addq.l #4,%sp
 711               	.cfi_def_cfa_offset 192
 712 05aa 2200      	move.l %d0,%d1
 713 05ac 202F 00B4 	move.l 180(%sp),%d0
 714 05b0 B081      	cmp.l %d1,%d0
 715 05b2 6600 0108 	jne .L33
 333:/home/simulink/cFS_FreeRTOS_seL4/cfe/fsw/cfe-core/src/es/cfe_es_shell.c ****        {
 334:/home/simulink/cFS_FreeRTOS_seL4/cfe/fsw/cfe-core/src/es/cfe_es_shell.c ****           Result = CFE_SUCCESS;
 716               	.loc 1 334 0
 717 05b6 42AF 00B4 	clr.l 180(%sp)
 335:/home/simulink/cFS_FreeRTOS_seL4/cfe/fsw/cfe-core/src/es/cfe_es_shell.c ****           for ( i = 0; i < OS_MAX_TASKS; i++ )
 718               	.loc 1 335 0
 719 05ba 42AF 00B8 	clr.l 184(%sp)
 720 05be 6000 00F2 	jra .L34
 721               	.L36:
 336:/home/simulink/cFS_FreeRTOS_seL4/cfe/fsw/cfe-core/src/es/cfe_es_shell.c ****           {
 337:/home/simulink/cFS_FreeRTOS_seL4/cfe/fsw/cfe-core/src/es/cfe_es_shell.c ****              if ((CFE_ES_Global.TaskTable[i].RecordUsed == TRUE) && (Result == CFE_SUCCESS))
 722               	.loc 1 337 0
 723 05c2 202F 00B8 	move.l 184(%sp),%d0
68K GAS   			page 22


 724 05c6 5280      	addq.l #1,%d0
 725 05c8 7224      	moveq #36,%d1
 726 05ca 4C01 0800 	muls.l %d1,%d0
 727 05ce 41F9 0000 	lea CFE_ES_Global,%a0
 727      0000 
 728 05d4 1030 0800 	move.b (%a0,%d0.l),%d0
 729 05d8 1000      	move.b %d0,%d0
 730 05da 0280 0000 	and.l #255,%d0
 730      00FF 
 731 05e0 7201      	moveq #1,%d1
 732 05e2 B280      	cmp.l %d0,%d1
 733 05e4 6600 00C8 	jne .L35
 734               	.loc 1 337 0 is_stmt 0 discriminator 1
 735 05e8 4AAF 00B4 	tst.l 180(%sp)
 736 05ec 6600 00C0 	jne .L35
 338:/home/simulink/cFS_FreeRTOS_seL4/cfe/fsw/cfe-core/src/es/cfe_es_shell.c ****              {      
 339:/home/simulink/cFS_FreeRTOS_seL4/cfe/fsw/cfe-core/src/es/cfe_es_shell.c ****                 /* 
 340:/home/simulink/cFS_FreeRTOS_seL4/cfe/fsw/cfe-core/src/es/cfe_es_shell.c ****                 ** zero out the local entry 
 341:/home/simulink/cFS_FreeRTOS_seL4/cfe/fsw/cfe-core/src/es/cfe_es_shell.c ****                 */
 342:/home/simulink/cFS_FreeRTOS_seL4/cfe/fsw/cfe-core/src/es/cfe_es_shell.c ****                 CFE_PSP_MemSet(&TaskInfo,0,sizeof(CFE_ES_TaskInfo_t));
 737               	.loc 1 342 0 is_stmt 1
 738 05f0 4878 0034 	pea 52.w
 739               	.cfi_def_cfa_offset 196
 740 05f4 42A7      	clr.l -(%sp)
 741               	.cfi_def_cfa_offset 200
 742 05f6 200F      	move.l %sp,%d0
 743 05f8 5080      	addq.l #8,%d0
 744 05fa 2F00      	move.l %d0,-(%sp)
 745               	.cfi_def_cfa_offset 204
 746 05fc 4EB9 0000 	jsr CFE_PSP_MemSet
 746      0000 
 747 0602 4FEF 000C 	lea (12,%sp),%sp
 748               	.cfi_def_cfa_offset 192
 343:/home/simulink/cFS_FreeRTOS_seL4/cfe/fsw/cfe-core/src/es/cfe_es_shell.c **** 
 344:/home/simulink/cFS_FreeRTOS_seL4/cfe/fsw/cfe-core/src/es/cfe_es_shell.c ****                 /*
 345:/home/simulink/cFS_FreeRTOS_seL4/cfe/fsw/cfe-core/src/es/cfe_es_shell.c ****                 ** Populate the AppInfo entry 
 346:/home/simulink/cFS_FreeRTOS_seL4/cfe/fsw/cfe-core/src/es/cfe_es_shell.c ****                 */
 347:/home/simulink/cFS_FreeRTOS_seL4/cfe/fsw/cfe-core/src/es/cfe_es_shell.c ****                 Result = CFE_ES_GetTaskInfo(&TaskInfo,i);
 749               	.loc 1 347 0
 750 0606 2F2F 00B8 	move.l 184(%sp),-(%sp)
 751               	.cfi_def_cfa_offset 196
 752 060a 200F      	move.l %sp,%d0
 753 060c 5880      	addq.l #4,%d0
 754 060e 2F00      	move.l %d0,-(%sp)
 755               	.cfi_def_cfa_offset 200
 756 0610 4EB9 0000 	jsr CFE_ES_GetTaskInfo
 756      0000 
 757 0616 508F      	addq.l #8,%sp
 758               	.cfi_def_cfa_offset 192
 759 0618 2F40 00B4 	move.l %d0,180(%sp)
 348:/home/simulink/cFS_FreeRTOS_seL4/cfe/fsw/cfe-core/src/es/cfe_es_shell.c **** 
 349:/home/simulink/cFS_FreeRTOS_seL4/cfe/fsw/cfe-core/src/es/cfe_es_shell.c ****                 if ( Result == CFE_SUCCESS )
 760               	.loc 1 349 0
 761 061c 4AAF 00B4 	tst.l 180(%sp)
 762 0620 6600 008C 	jne .L35
 350:/home/simulink/cFS_FreeRTOS_seL4/cfe/fsw/cfe-core/src/es/cfe_es_shell.c ****                 {
 351:/home/simulink/cFS_FreeRTOS_seL4/cfe/fsw/cfe-core/src/es/cfe_es_shell.c ****                    sprintf(Line,"Task ID: %08d, Task Name: %20s, Prnt App ID: %08d, Prnt App Name: 
68K GAS   			page 23


 352:/home/simulink/cFS_FreeRTOS_seL4/cfe/fsw/cfe-core/src/es/cfe_es_shell.c ****                          (int) TaskInfo.TaskId, TaskInfo.TaskName, 
 353:/home/simulink/cFS_FreeRTOS_seL4/cfe/fsw/cfe-core/src/es/cfe_es_shell.c ****                          (int)TaskInfo.AppId, TaskInfo.AppName);
 763               	.loc 1 353 0
 764 0624 202F 001C 	move.l 28(%sp),%d0
 351:/home/simulink/cFS_FreeRTOS_seL4/cfe/fsw/cfe-core/src/es/cfe_es_shell.c ****                          (int) TaskInfo.TaskId, TaskInfo.TaskName, 
 765               	.loc 1 351 0
 766 0628 2040      	move.l %d0,%a0
 352:/home/simulink/cFS_FreeRTOS_seL4/cfe/fsw/cfe-core/src/es/cfe_es_shell.c ****                          (int)TaskInfo.AppId, TaskInfo.AppName);
 767               	.loc 1 352 0
 768 062a 2017      	move.l (%sp),%d0
 351:/home/simulink/cFS_FreeRTOS_seL4/cfe/fsw/cfe-core/src/es/cfe_es_shell.c ****                          (int) TaskInfo.TaskId, TaskInfo.TaskName, 
 769               	.loc 1 351 0
 770 062c 2200      	move.l %d0,%d1
 771 062e 200F      	move.l %sp,%d0
 772 0630 0680 0000 	add.l #32,%d0
 772      0020 
 773 0636 2F00      	move.l %d0,-(%sp)
 774               	.cfi_def_cfa_offset 196
 775 0638 2F08      	move.l %a0,-(%sp)
 776               	.cfi_def_cfa_offset 200
 777 063a 200F      	move.l %sp,%d0
 778 063c 5080      	addq.l #8,%d0
 779 063e 5080      	addq.l #8,%d0
 780 0640 2F00      	move.l %d0,-(%sp)
 781               	.cfi_def_cfa_offset 204
 782 0642 2F01      	move.l %d1,-(%sp)
 783               	.cfi_def_cfa_offset 208
 784 0644 4879 0000 	pea .LC10
 784      0000 
 785               	.cfi_def_cfa_offset 212
 786 064a 200F      	move.l %sp,%d0
 787 064c 0680 0000 	add.l #72,%d0
 787      0048 
 788 0652 2F00      	move.l %d0,-(%sp)
 789               	.cfi_def_cfa_offset 216
 790 0654 4EB9 0000 	jsr sprintf
 790      0000 
 791 065a 4FEF 0018 	lea (24,%sp),%sp
 792               	.cfi_def_cfa_offset 192
 354:/home/simulink/cFS_FreeRTOS_seL4/cfe/fsw/cfe-core/src/es/cfe_es_shell.c ****                    Result = OS_write(fd, Line, strlen(Line));
 793               	.loc 1 354 0
 794 065e 200F      	move.l %sp,%d0
 795 0660 0680 0000 	add.l #52,%d0
 795      0034 
 796 0666 2F00      	move.l %d0,-(%sp)
 797               	.cfi_def_cfa_offset 196
 798 0668 4EB9 0000 	jsr strlen
 798      0000 
 799 066e 588F      	addq.l #4,%sp
 800               	.cfi_def_cfa_offset 192
 801 0670 2F00      	move.l %d0,-(%sp)
 802               	.cfi_def_cfa_offset 196
 803 0672 200F      	move.l %sp,%d0
 804 0674 0680 0000 	add.l #56,%d0
 804      0038 
 805 067a 2F00      	move.l %d0,-(%sp)
 806               	.cfi_def_cfa_offset 200
68K GAS   			page 24


 807 067c 2F2F 00C8 	move.l 200(%sp),-(%sp)
 808               	.cfi_def_cfa_offset 204
 809 0680 4EB9 0000 	jsr OS_write
 809      0000 
 810 0686 4FEF 000C 	lea (12,%sp),%sp
 811               	.cfi_def_cfa_offset 192
 812 068a 2F40 00B4 	move.l %d0,180(%sp)
 355:/home/simulink/cFS_FreeRTOS_seL4/cfe/fsw/cfe-core/src/es/cfe_es_shell.c ****             
 356:/home/simulink/cFS_FreeRTOS_seL4/cfe/fsw/cfe-core/src/es/cfe_es_shell.c ****                    if (Result == strlen(Line))
 813               	.loc 1 356 0
 814 068e 200F      	move.l %sp,%d0
 815 0690 0680 0000 	add.l #52,%d0
 815      0034 
 816 0696 2F00      	move.l %d0,-(%sp)
 817               	.cfi_def_cfa_offset 196
 818 0698 4EB9 0000 	jsr strlen
 818      0000 
 819 069e 588F      	addq.l #4,%sp
 820               	.cfi_def_cfa_offset 192
 821 06a0 2200      	move.l %d0,%d1
 822 06a2 202F 00B4 	move.l 180(%sp),%d0
 823 06a6 B081      	cmp.l %d1,%d0
 824 06a8 6604      	jne .L35
 357:/home/simulink/cFS_FreeRTOS_seL4/cfe/fsw/cfe-core/src/es/cfe_es_shell.c ****                    {
 358:/home/simulink/cFS_FreeRTOS_seL4/cfe/fsw/cfe-core/src/es/cfe_es_shell.c ****                       Result = CFE_SUCCESS;
 825               	.loc 1 358 0
 826 06aa 42AF 00B4 	clr.l 180(%sp)
 827               	.L35:
 335:/home/simulink/cFS_FreeRTOS_seL4/cfe/fsw/cfe-core/src/es/cfe_es_shell.c ****           {
 828               	.loc 1 335 0 discriminator 2
 829 06ae 52AF 00B8 	addq.l #1,184(%sp)
 830               	.L34:
 335:/home/simulink/cFS_FreeRTOS_seL4/cfe/fsw/cfe-core/src/es/cfe_es_shell.c ****           {
 831               	.loc 1 335 0 is_stmt 0 discriminator 1
 832 06b2 703F      	moveq #63,%d0
 833 06b4 B0AF 00B8 	cmp.l 184(%sp),%d0
 834 06b8 6400 FF08 	jcc .L36
 835               	.L33:
 359:/home/simulink/cFS_FreeRTOS_seL4/cfe/fsw/cfe-core/src/es/cfe_es_shell.c ****                    }
 360:/home/simulink/cFS_FreeRTOS_seL4/cfe/fsw/cfe-core/src/es/cfe_es_shell.c ****                    /* if not success, returns whatever OS_write failire was */
 361:/home/simulink/cFS_FreeRTOS_seL4/cfe/fsw/cfe-core/src/es/cfe_es_shell.c ****                 }
 362:/home/simulink/cFS_FreeRTOS_seL4/cfe/fsw/cfe-core/src/es/cfe_es_shell.c ****              }
 363:/home/simulink/cFS_FreeRTOS_seL4/cfe/fsw/cfe-core/src/es/cfe_es_shell.c ****           } /* end for */
 364:/home/simulink/cFS_FreeRTOS_seL4/cfe/fsw/cfe-core/src/es/cfe_es_shell.c ****        } /* End if OS_write */
 365:/home/simulink/cFS_FreeRTOS_seL4/cfe/fsw/cfe-core/src/es/cfe_es_shell.c ****     } /* End if OS_lseek */ 
 366:/home/simulink/cFS_FreeRTOS_seL4/cfe/fsw/cfe-core/src/es/cfe_es_shell.c ****     return Result;
 836               	.loc 1 366 0 is_stmt 1
 837 06bc 202F 00B4 	move.l 180(%sp),%d0
 367:/home/simulink/cFS_FreeRTOS_seL4/cfe/fsw/cfe-core/src/es/cfe_es_shell.c **** } /* end ES_ListTasks */
 838               	.loc 1 367 0
 839 06c0 4FEF 00BC 	lea (188,%sp),%sp
 840 06c4 4E75      	rts
 841               	.cfi_endproc
 842               	.LFE61:
 843               	.sizeCFE_ES_ListTasks, .-CFE_ES_ListTasks
 844               	.section.rodata
 845               	.LC11:
68K GAS   			page 25


 846 0160 4E75 6D62 	.string"Number of Tasks: %d\n"
 846      6572 206F 
 846      6620 5461 
 846      736B 733A 
 846      2025 640A 
 847               	.LC12:
 848 0175 4E75 6D62 	.string"Number of Queues: %d\n"
 848      6572 206F 
 848      6620 5175 
 848      6575 6573 
 848      3A20 2564 
 849               	.LC13:
 850 018b 4E75 6D62 	.string"Number of Binary Semaphores: %d\n"
 850      6572 206F 
 850      6620 4269 
 850      6E61 7279 
 850      2053 656D 
 851               	.LC14:
 852 01ac 4E75 6D62 	.string"Number of Counting Semaphores: %d\n"
 852      6572 206F 
 852      6620 436F 
 852      756E 7469 
 852      6E67 2053 
 853               	.LC15:
 854 01cf 4E75 6D62 	.string"Number of Mutexes: %d\n"
 854      6572 206F 
 854      6620 4D75 
 854      7465 7865 
 854      733A 2025 
 855               	.LC16:
 856 01e6 4E75 6D62 	.string"Number of Open Files: %d\n"
 856      6572 206F 
 856      6620 4F70 
 856      656E 2046 
 856      696C 6573 
 857               	.text
 858               	.align2
 859               	.globlCFE_ES_ListResources
 860               	.typeCFE_ES_ListResources, @function
 861               	CFE_ES_ListResources:
 862               	.LFB62:
 368:/home/simulink/cFS_FreeRTOS_seL4/cfe/fsw/cfe-core/src/es/cfe_es_shell.c **** 
 369:/home/simulink/cFS_FreeRTOS_seL4/cfe/fsw/cfe-core/src/es/cfe_es_shell.c **** 
 370:/home/simulink/cFS_FreeRTOS_seL4/cfe/fsw/cfe-core/src/es/cfe_es_shell.c **** #if defined(OSAL_OPAQUE_OBJECT_IDS)
 371:/home/simulink/cFS_FreeRTOS_seL4/cfe/fsw/cfe-core/src/es/cfe_es_shell.c **** /* * * * * * * * * * * * * * * * * * * * * * * * * * * * * * * * * */
 372:/home/simulink/cFS_FreeRTOS_seL4/cfe/fsw/cfe-core/src/es/cfe_es_shell.c **** /*                                                                 */
 373:/home/simulink/cFS_FreeRTOS_seL4/cfe/fsw/cfe-core/src/es/cfe_es_shell.c **** /* CFE_ES_ShellCountObjectCallback() -- Helper function            */
 374:/home/simulink/cFS_FreeRTOS_seL4/cfe/fsw/cfe-core/src/es/cfe_es_shell.c **** /*  (used by CFE_ES_ListResources() below)                         */
 375:/home/simulink/cFS_FreeRTOS_seL4/cfe/fsw/cfe-core/src/es/cfe_es_shell.c **** /*                                                                 */
 376:/home/simulink/cFS_FreeRTOS_seL4/cfe/fsw/cfe-core/src/es/cfe_es_shell.c **** /* * * * * * * * * * * * * * * * * * * * * * * * * * * * * * * * * */
 377:/home/simulink/cFS_FreeRTOS_seL4/cfe/fsw/cfe-core/src/es/cfe_es_shell.c **** static void CFE_ES_ShellCountObjectCallback(uint32 object_id, void *arg)
 378:/home/simulink/cFS_FreeRTOS_seL4/cfe/fsw/cfe-core/src/es/cfe_es_shell.c **** {
 379:/home/simulink/cFS_FreeRTOS_seL4/cfe/fsw/cfe-core/src/es/cfe_es_shell.c ****     uint32                 *CountState;
 380:/home/simulink/cFS_FreeRTOS_seL4/cfe/fsw/cfe-core/src/es/cfe_es_shell.c ****     uint32                 idtype;
 381:/home/simulink/cFS_FreeRTOS_seL4/cfe/fsw/cfe-core/src/es/cfe_es_shell.c **** 
 382:/home/simulink/cFS_FreeRTOS_seL4/cfe/fsw/cfe-core/src/es/cfe_es_shell.c ****     CountState = (uint32 *)arg;
 383:/home/simulink/cFS_FreeRTOS_seL4/cfe/fsw/cfe-core/src/es/cfe_es_shell.c ****     idtype = OS_IdentifyObject(object_id);
68K GAS   			page 26


 384:/home/simulink/cFS_FreeRTOS_seL4/cfe/fsw/cfe-core/src/es/cfe_es_shell.c ****     if (idtype < OS_OBJECT_TYPE_USER)
 385:/home/simulink/cFS_FreeRTOS_seL4/cfe/fsw/cfe-core/src/es/cfe_es_shell.c ****     {
 386:/home/simulink/cFS_FreeRTOS_seL4/cfe/fsw/cfe-core/src/es/cfe_es_shell.c ****         ++CountState[idtype];
 387:/home/simulink/cFS_FreeRTOS_seL4/cfe/fsw/cfe-core/src/es/cfe_es_shell.c ****     }
 388:/home/simulink/cFS_FreeRTOS_seL4/cfe/fsw/cfe-core/src/es/cfe_es_shell.c **** }
 389:/home/simulink/cFS_FreeRTOS_seL4/cfe/fsw/cfe-core/src/es/cfe_es_shell.c **** #endif
 390:/home/simulink/cFS_FreeRTOS_seL4/cfe/fsw/cfe-core/src/es/cfe_es_shell.c **** 
 391:/home/simulink/cFS_FreeRTOS_seL4/cfe/fsw/cfe-core/src/es/cfe_es_shell.c **** 
 392:/home/simulink/cFS_FreeRTOS_seL4/cfe/fsw/cfe-core/src/es/cfe_es_shell.c **** /* * * * * * * * * * * * * * * * * * * * * * * * * * * * * * * * * */
 393:/home/simulink/cFS_FreeRTOS_seL4/cfe/fsw/cfe-core/src/es/cfe_es_shell.c **** /*                                                                 */
 394:/home/simulink/cFS_FreeRTOS_seL4/cfe/fsw/cfe-core/src/es/cfe_es_shell.c **** /* CFE_ES_ListResources() -- List All OS Resources, put in fd      */
 395:/home/simulink/cFS_FreeRTOS_seL4/cfe/fsw/cfe-core/src/es/cfe_es_shell.c **** /*                                                                 */
 396:/home/simulink/cFS_FreeRTOS_seL4/cfe/fsw/cfe-core/src/es/cfe_es_shell.c **** /* * * * * * * * * * * * * * * * * * * * * * * * * * * * * * * * * */
 397:/home/simulink/cFS_FreeRTOS_seL4/cfe/fsw/cfe-core/src/es/cfe_es_shell.c **** int32 CFE_ES_ListResources(int32 fd)
 398:/home/simulink/cFS_FreeRTOS_seL4/cfe/fsw/cfe-core/src/es/cfe_es_shell.c **** {
 863               	.loc 1 398 0
 864               	.cfi_startproc
 865 06c6 4FEF FEE4 	lea (-284,%sp),%sp
 866               	.cfi_def_cfa_offset 288
 399:/home/simulink/cFS_FreeRTOS_seL4/cfe/fsw/cfe-core/src/es/cfe_es_shell.c ****    int32 Result = CFE_SUCCESS;
 867               	.loc 1 399 0
 868 06ca 42AF 0118 	clr.l 280(%sp)
 400:/home/simulink/cFS_FreeRTOS_seL4/cfe/fsw/cfe-core/src/es/cfe_es_shell.c ****    int32 NumSemaphores = 0;
 869               	.loc 1 400 0
 870 06ce 42AF 0114 	clr.l 276(%sp)
 401:/home/simulink/cFS_FreeRTOS_seL4/cfe/fsw/cfe-core/src/es/cfe_es_shell.c ****    int32 NumCountSems =0;
 871               	.loc 1 401 0
 872 06d2 42AF 0110 	clr.l 272(%sp)
 402:/home/simulink/cFS_FreeRTOS_seL4/cfe/fsw/cfe-core/src/es/cfe_es_shell.c ****    int32 NumMutexes = 0;
 873               	.loc 1 402 0
 874 06d6 42AF 010C 	clr.l 268(%sp)
 403:/home/simulink/cFS_FreeRTOS_seL4/cfe/fsw/cfe-core/src/es/cfe_es_shell.c ****    int32 NumQueues = 0;
 875               	.loc 1 403 0
 876 06da 42AF 0108 	clr.l 264(%sp)
 404:/home/simulink/cFS_FreeRTOS_seL4/cfe/fsw/cfe-core/src/es/cfe_es_shell.c ****    int32 NumTasks = 0;
 877               	.loc 1 404 0
 878 06de 42AF 0104 	clr.l 260(%sp)
 405:/home/simulink/cFS_FreeRTOS_seL4/cfe/fsw/cfe-core/src/es/cfe_es_shell.c ****    int32 NumFiles = 0;
 879               	.loc 1 405 0
 880 06e2 42AF 0100 	clr.l 256(%sp)
 881               	.LBB2:
 406:/home/simulink/cFS_FreeRTOS_seL4/cfe/fsw/cfe-core/src/es/cfe_es_shell.c ****    char Line[35];
 407:/home/simulink/cFS_FreeRTOS_seL4/cfe/fsw/cfe-core/src/es/cfe_es_shell.c **** 
 408:/home/simulink/cFS_FreeRTOS_seL4/cfe/fsw/cfe-core/src/es/cfe_es_shell.c **** #if defined(OSAL_OPAQUE_OBJECT_IDS)
 409:/home/simulink/cFS_FreeRTOS_seL4/cfe/fsw/cfe-core/src/es/cfe_es_shell.c ****    {
 410:/home/simulink/cFS_FreeRTOS_seL4/cfe/fsw/cfe-core/src/es/cfe_es_shell.c ****       /*
 411:/home/simulink/cFS_FreeRTOS_seL4/cfe/fsw/cfe-core/src/es/cfe_es_shell.c ****        * The new "ForEachObject" OSAL call makes this process easier.
 412:/home/simulink/cFS_FreeRTOS_seL4/cfe/fsw/cfe-core/src/es/cfe_es_shell.c ****        */
 413:/home/simulink/cFS_FreeRTOS_seL4/cfe/fsw/cfe-core/src/es/cfe_es_shell.c ****       uint32 CountState[OS_OBJECT_TYPE_USER];
 414:/home/simulink/cFS_FreeRTOS_seL4/cfe/fsw/cfe-core/src/es/cfe_es_shell.c **** 
 415:/home/simulink/cFS_FreeRTOS_seL4/cfe/fsw/cfe-core/src/es/cfe_es_shell.c ****       memset(&CountState,0,sizeof(CountState));
 416:/home/simulink/cFS_FreeRTOS_seL4/cfe/fsw/cfe-core/src/es/cfe_es_shell.c ****       OS_ForEachObject (0, CFE_ES_ShellCountObjectCallback, CountState);
 417:/home/simulink/cFS_FreeRTOS_seL4/cfe/fsw/cfe-core/src/es/cfe_es_shell.c **** 
 418:/home/simulink/cFS_FreeRTOS_seL4/cfe/fsw/cfe-core/src/es/cfe_es_shell.c ****       NumSemaphores = CountState[OS_OBJECT_TYPE_OS_BINSEM];
 419:/home/simulink/cFS_FreeRTOS_seL4/cfe/fsw/cfe-core/src/es/cfe_es_shell.c ****       NumCountSems = CountState[OS_OBJECT_TYPE_OS_COUNTSEM];
 420:/home/simulink/cFS_FreeRTOS_seL4/cfe/fsw/cfe-core/src/es/cfe_es_shell.c ****       NumMutexes = CountState[OS_OBJECT_TYPE_OS_MUTEX];
 421:/home/simulink/cFS_FreeRTOS_seL4/cfe/fsw/cfe-core/src/es/cfe_es_shell.c ****       NumQueues = CountState[OS_OBJECT_TYPE_OS_QUEUE];
68K GAS   			page 27


 422:/home/simulink/cFS_FreeRTOS_seL4/cfe/fsw/cfe-core/src/es/cfe_es_shell.c ****       NumTasks = CountState[OS_OBJECT_TYPE_OS_TASK];
 423:/home/simulink/cFS_FreeRTOS_seL4/cfe/fsw/cfe-core/src/es/cfe_es_shell.c ****       NumFiles = CountState[OS_OBJECT_TYPE_OS_STREAM];
 424:/home/simulink/cFS_FreeRTOS_seL4/cfe/fsw/cfe-core/src/es/cfe_es_shell.c ****    }
 425:/home/simulink/cFS_FreeRTOS_seL4/cfe/fsw/cfe-core/src/es/cfe_es_shell.c **** #else
 426:/home/simulink/cFS_FreeRTOS_seL4/cfe/fsw/cfe-core/src/es/cfe_es_shell.c ****    {
 427:/home/simulink/cFS_FreeRTOS_seL4/cfe/fsw/cfe-core/src/es/cfe_es_shell.c ****       OS_task_prop_t          TaskProp;
 428:/home/simulink/cFS_FreeRTOS_seL4/cfe/fsw/cfe-core/src/es/cfe_es_shell.c ****       OS_queue_prop_t         QueueProp;
 429:/home/simulink/cFS_FreeRTOS_seL4/cfe/fsw/cfe-core/src/es/cfe_es_shell.c ****       OS_bin_sem_prop_t       SemProp;
 430:/home/simulink/cFS_FreeRTOS_seL4/cfe/fsw/cfe-core/src/es/cfe_es_shell.c ****       OS_count_sem_prop_t     CountSemProp;
 431:/home/simulink/cFS_FreeRTOS_seL4/cfe/fsw/cfe-core/src/es/cfe_es_shell.c ****       OS_mut_sem_prop_t       MutProp;
 432:/home/simulink/cFS_FreeRTOS_seL4/cfe/fsw/cfe-core/src/es/cfe_es_shell.c ****       OS_FDTableEntry         FileProp;
 433:/home/simulink/cFS_FreeRTOS_seL4/cfe/fsw/cfe-core/src/es/cfe_es_shell.c **** 
 434:/home/simulink/cFS_FreeRTOS_seL4/cfe/fsw/cfe-core/src/es/cfe_es_shell.c ****       uint32 i;
 435:/home/simulink/cFS_FreeRTOS_seL4/cfe/fsw/cfe-core/src/es/cfe_es_shell.c **** 
 436:/home/simulink/cFS_FreeRTOS_seL4/cfe/fsw/cfe-core/src/es/cfe_es_shell.c **** 
 437:/home/simulink/cFS_FreeRTOS_seL4/cfe/fsw/cfe-core/src/es/cfe_es_shell.c ****       for ( i= 0; i < OS_MAX_TASKS; i++)
 882               	.loc 1 437 0
 883 06e6 42AF 00FC 	clr.l 252(%sp)
 884 06ea 601C      	jra .L39
 885               	.L41:
 438:/home/simulink/cFS_FreeRTOS_seL4/cfe/fsw/cfe-core/src/es/cfe_es_shell.c ****       {
 439:/home/simulink/cFS_FreeRTOS_seL4/cfe/fsw/cfe-core/src/es/cfe_es_shell.c ****          if (OS_TaskGetInfo(i, &TaskProp) == OS_SUCCESS)
 886               	.loc 1 439 0
 887 06ec 200F      	move.l %sp,%d0
 888 06ee 2F00      	move.l %d0,-(%sp)
 889               	.cfi_def_cfa_offset 292
 890 06f0 2F2F 0100 	move.l 256(%sp),-(%sp)
 891               	.cfi_def_cfa_offset 296
 892 06f4 4EB9 0000 	jsr OS_TaskGetInfo
 892      0000 
 893 06fa 508F      	addq.l #8,%sp
 894               	.cfi_def_cfa_offset 288
 895 06fc 4A80      	tst.l %d0
 896 06fe 6604      	jne .L40
 440:/home/simulink/cFS_FreeRTOS_seL4/cfe/fsw/cfe-core/src/es/cfe_es_shell.c ****          {
 441:/home/simulink/cFS_FreeRTOS_seL4/cfe/fsw/cfe-core/src/es/cfe_es_shell.c ****             NumTasks++;
 897               	.loc 1 441 0
 898 0700 52AF 0104 	addq.l #1,260(%sp)
 899               	.L40:
 437:/home/simulink/cFS_FreeRTOS_seL4/cfe/fsw/cfe-core/src/es/cfe_es_shell.c ****       {
 900               	.loc 1 437 0 discriminator 2
 901 0704 52AF 00FC 	addq.l #1,252(%sp)
 902               	.L39:
 437:/home/simulink/cFS_FreeRTOS_seL4/cfe/fsw/cfe-core/src/es/cfe_es_shell.c ****       {
 903               	.loc 1 437 0 is_stmt 0 discriminator 1
 904 0708 703F      	moveq #63,%d0
 905 070a B0AF 00FC 	cmp.l 252(%sp),%d0
 906 070e 64DC      	jcc .L41
 442:/home/simulink/cFS_FreeRTOS_seL4/cfe/fsw/cfe-core/src/es/cfe_es_shell.c ****          }
 443:/home/simulink/cFS_FreeRTOS_seL4/cfe/fsw/cfe-core/src/es/cfe_es_shell.c ****       }
 444:/home/simulink/cFS_FreeRTOS_seL4/cfe/fsw/cfe-core/src/es/cfe_es_shell.c **** 
 445:/home/simulink/cFS_FreeRTOS_seL4/cfe/fsw/cfe-core/src/es/cfe_es_shell.c ****       for ( i= 0; i < OS_MAX_QUEUES; i++)
 907               	.loc 1 445 0 is_stmt 1
 908 0710 42AF 00FC 	clr.l 252(%sp)
 909 0714 6022      	jra .L42
 910               	.L44:
 446:/home/simulink/cFS_FreeRTOS_seL4/cfe/fsw/cfe-core/src/es/cfe_es_shell.c ****       {
68K GAS   			page 28


 447:/home/simulink/cFS_FreeRTOS_seL4/cfe/fsw/cfe-core/src/es/cfe_es_shell.c ****          if (OS_QueueGetInfo(i, &QueueProp) == OS_SUCCESS)
 911               	.loc 1 447 0
 912 0716 200F      	move.l %sp,%d0
 913 0718 0680 0000 	add.l #192,%d0
 913      00C0 
 914 071e 2F00      	move.l %d0,-(%sp)
 915               	.cfi_def_cfa_offset 292
 916 0720 2F2F 0100 	move.l 256(%sp),-(%sp)
 917               	.cfi_def_cfa_offset 296
 918 0724 4EB9 0000 	jsr OS_QueueGetInfo
 918      0000 
 919 072a 508F      	addq.l #8,%sp
 920               	.cfi_def_cfa_offset 288
 921 072c 4A80      	tst.l %d0
 922 072e 6604      	jne .L43
 448:/home/simulink/cFS_FreeRTOS_seL4/cfe/fsw/cfe-core/src/es/cfe_es_shell.c ****          {
 449:/home/simulink/cFS_FreeRTOS_seL4/cfe/fsw/cfe-core/src/es/cfe_es_shell.c ****             NumQueues++;
 923               	.loc 1 449 0
 924 0730 52AF 0108 	addq.l #1,264(%sp)
 925               	.L43:
 445:/home/simulink/cFS_FreeRTOS_seL4/cfe/fsw/cfe-core/src/es/cfe_es_shell.c ****       {
 926               	.loc 1 445 0 discriminator 2
 927 0734 52AF 00FC 	addq.l #1,252(%sp)
 928               	.L42:
 445:/home/simulink/cFS_FreeRTOS_seL4/cfe/fsw/cfe-core/src/es/cfe_es_shell.c ****       {
 929               	.loc 1 445 0 is_stmt 0 discriminator 1
 930 0738 703F      	moveq #63,%d0
 931 073a B0AF 00FC 	cmp.l 252(%sp),%d0
 932 073e 64D6      	jcc .L44
 450:/home/simulink/cFS_FreeRTOS_seL4/cfe/fsw/cfe-core/src/es/cfe_es_shell.c ****          }
 451:/home/simulink/cFS_FreeRTOS_seL4/cfe/fsw/cfe-core/src/es/cfe_es_shell.c ****       }
 452:/home/simulink/cFS_FreeRTOS_seL4/cfe/fsw/cfe-core/src/es/cfe_es_shell.c **** 
 453:/home/simulink/cFS_FreeRTOS_seL4/cfe/fsw/cfe-core/src/es/cfe_es_shell.c **** 
 454:/home/simulink/cFS_FreeRTOS_seL4/cfe/fsw/cfe-core/src/es/cfe_es_shell.c ****       for ( i= 0; i < OS_MAX_COUNT_SEMAPHORES; i++)
 933               	.loc 1 454 0 is_stmt 1
 934 0740 42AF 00FC 	clr.l 252(%sp)
 935 0744 6022      	jra .L45
 936               	.L47:
 455:/home/simulink/cFS_FreeRTOS_seL4/cfe/fsw/cfe-core/src/es/cfe_es_shell.c ****       {
 456:/home/simulink/cFS_FreeRTOS_seL4/cfe/fsw/cfe-core/src/es/cfe_es_shell.c ****          if (OS_CountSemGetInfo(i, &CountSemProp) == OS_SUCCESS)
 937               	.loc 1 456 0
 938 0746 200F      	move.l %sp,%d0
 939 0748 0680 0000 	add.l #136,%d0
 939      0088 
 940 074e 2F00      	move.l %d0,-(%sp)
 941               	.cfi_def_cfa_offset 292
 942 0750 2F2F 0100 	move.l 256(%sp),-(%sp)
 943               	.cfi_def_cfa_offset 296
 944 0754 4EB9 0000 	jsr OS_CountSemGetInfo
 944      0000 
 945 075a 508F      	addq.l #8,%sp
 946               	.cfi_def_cfa_offset 288
 947 075c 4A80      	tst.l %d0
 948 075e 6604      	jne .L46
 457:/home/simulink/cFS_FreeRTOS_seL4/cfe/fsw/cfe-core/src/es/cfe_es_shell.c ****          {
 458:/home/simulink/cFS_FreeRTOS_seL4/cfe/fsw/cfe-core/src/es/cfe_es_shell.c ****             NumCountSems++;
 949               	.loc 1 458 0
68K GAS   			page 29


 950 0760 52AF 0110 	addq.l #1,272(%sp)
 951               	.L46:
 454:/home/simulink/cFS_FreeRTOS_seL4/cfe/fsw/cfe-core/src/es/cfe_es_shell.c ****       {
 952               	.loc 1 454 0 discriminator 2
 953 0764 52AF 00FC 	addq.l #1,252(%sp)
 954               	.L45:
 454:/home/simulink/cFS_FreeRTOS_seL4/cfe/fsw/cfe-core/src/es/cfe_es_shell.c ****       {
 955               	.loc 1 454 0 is_stmt 0 discriminator 1
 956 0768 7013      	moveq #19,%d0
 957 076a B0AF 00FC 	cmp.l 252(%sp),%d0
 958 076e 64D6      	jcc .L47
 459:/home/simulink/cFS_FreeRTOS_seL4/cfe/fsw/cfe-core/src/es/cfe_es_shell.c ****          }
 460:/home/simulink/cFS_FreeRTOS_seL4/cfe/fsw/cfe-core/src/es/cfe_es_shell.c ****       }
 461:/home/simulink/cFS_FreeRTOS_seL4/cfe/fsw/cfe-core/src/es/cfe_es_shell.c ****       for ( i= 0; i < OS_MAX_BIN_SEMAPHORES; i++)
 959               	.loc 1 461 0 is_stmt 1
 960 0770 42AF 00FC 	clr.l 252(%sp)
 961 0774 6022      	jra .L48
 962               	.L50:
 462:/home/simulink/cFS_FreeRTOS_seL4/cfe/fsw/cfe-core/src/es/cfe_es_shell.c ****       {
 463:/home/simulink/cFS_FreeRTOS_seL4/cfe/fsw/cfe-core/src/es/cfe_es_shell.c ****          if (OS_BinSemGetInfo(i, &SemProp) == OS_SUCCESS)
 963               	.loc 1 463 0
 964 0776 200F      	move.l %sp,%d0
 965 0778 0680 0000 	add.l #164,%d0
 965      00A4 
 966 077e 2F00      	move.l %d0,-(%sp)
 967               	.cfi_def_cfa_offset 292
 968 0780 2F2F 0100 	move.l 256(%sp),-(%sp)
 969               	.cfi_def_cfa_offset 296
 970 0784 4EB9 0000 	jsr OS_BinSemGetInfo
 970      0000 
 971 078a 508F      	addq.l #8,%sp
 972               	.cfi_def_cfa_offset 288
 973 078c 4A80      	tst.l %d0
 974 078e 6604      	jne .L49
 464:/home/simulink/cFS_FreeRTOS_seL4/cfe/fsw/cfe-core/src/es/cfe_es_shell.c ****          {
 465:/home/simulink/cFS_FreeRTOS_seL4/cfe/fsw/cfe-core/src/es/cfe_es_shell.c ****             NumSemaphores++;
 975               	.loc 1 465 0
 976 0790 52AF 0114 	addq.l #1,276(%sp)
 977               	.L49:
 461:/home/simulink/cFS_FreeRTOS_seL4/cfe/fsw/cfe-core/src/es/cfe_es_shell.c ****       {
 978               	.loc 1 461 0 discriminator 2
 979 0794 52AF 00FC 	addq.l #1,252(%sp)
 980               	.L48:
 461:/home/simulink/cFS_FreeRTOS_seL4/cfe/fsw/cfe-core/src/es/cfe_es_shell.c ****       {
 981               	.loc 1 461 0 is_stmt 0 discriminator 1
 982 0798 7013      	moveq #19,%d0
 983 079a B0AF 00FC 	cmp.l 252(%sp),%d0
 984 079e 64D6      	jcc .L50
 466:/home/simulink/cFS_FreeRTOS_seL4/cfe/fsw/cfe-core/src/es/cfe_es_shell.c ****          }
 467:/home/simulink/cFS_FreeRTOS_seL4/cfe/fsw/cfe-core/src/es/cfe_es_shell.c ****       }
 468:/home/simulink/cFS_FreeRTOS_seL4/cfe/fsw/cfe-core/src/es/cfe_es_shell.c **** 
 469:/home/simulink/cFS_FreeRTOS_seL4/cfe/fsw/cfe-core/src/es/cfe_es_shell.c **** 
 470:/home/simulink/cFS_FreeRTOS_seL4/cfe/fsw/cfe-core/src/es/cfe_es_shell.c ****       for ( i= 0; i < OS_MAX_MUTEXES; i++)
 985               	.loc 1 470 0 is_stmt 1
 986 07a0 42AF 00FC 	clr.l 252(%sp)
 987 07a4 6022      	jra .L51
 988               	.L53:
68K GAS   			page 30


 471:/home/simulink/cFS_FreeRTOS_seL4/cfe/fsw/cfe-core/src/es/cfe_es_shell.c ****       {
 472:/home/simulink/cFS_FreeRTOS_seL4/cfe/fsw/cfe-core/src/es/cfe_es_shell.c ****          if (OS_MutSemGetInfo(i, &MutProp) == OS_SUCCESS)
 989               	.loc 1 472 0
 990 07a6 200F      	move.l %sp,%d0
 991 07a8 0680 0000 	add.l #112,%d0
 991      0070 
 992 07ae 2F00      	move.l %d0,-(%sp)
 993               	.cfi_def_cfa_offset 292
 994 07b0 2F2F 0100 	move.l 256(%sp),-(%sp)
 995               	.cfi_def_cfa_offset 296
 996 07b4 4EB9 0000 	jsr OS_MutSemGetInfo
 996      0000 
 997 07ba 508F      	addq.l #8,%sp
 998               	.cfi_def_cfa_offset 288
 999 07bc 4A80      	tst.l %d0
 1000 07be 6604      	jne .L52
 473:/home/simulink/cFS_FreeRTOS_seL4/cfe/fsw/cfe-core/src/es/cfe_es_shell.c ****          {
 474:/home/simulink/cFS_FreeRTOS_seL4/cfe/fsw/cfe-core/src/es/cfe_es_shell.c ****             NumMutexes++;
 1001               	.loc 1 474 0
 1002 07c0 52AF 010C 	addq.l #1,268(%sp)
 1003               	.L52:
 470:/home/simulink/cFS_FreeRTOS_seL4/cfe/fsw/cfe-core/src/es/cfe_es_shell.c ****       {
 1004               	.loc 1 470 0 discriminator 2
 1005 07c4 52AF 00FC 	addq.l #1,252(%sp)
 1006               	.L51:
 470:/home/simulink/cFS_FreeRTOS_seL4/cfe/fsw/cfe-core/src/es/cfe_es_shell.c ****       {
 1007               	.loc 1 470 0 is_stmt 0 discriminator 1
 1008 07c8 7013      	moveq #19,%d0
 1009 07ca B0AF 00FC 	cmp.l 252(%sp),%d0
 1010 07ce 64D6      	jcc .L53
 475:/home/simulink/cFS_FreeRTOS_seL4/cfe/fsw/cfe-core/src/es/cfe_es_shell.c ****          }
 476:/home/simulink/cFS_FreeRTOS_seL4/cfe/fsw/cfe-core/src/es/cfe_es_shell.c ****       }
 477:/home/simulink/cFS_FreeRTOS_seL4/cfe/fsw/cfe-core/src/es/cfe_es_shell.c **** 
 478:/home/simulink/cFS_FreeRTOS_seL4/cfe/fsw/cfe-core/src/es/cfe_es_shell.c ****       for ( i= 0; i < OS_MAX_NUM_OPEN_FILES; i++)
 1011               	.loc 1 478 0 is_stmt 1
 1012 07d0 42AF 00FC 	clr.l 252(%sp)
 1013 07d4 6024      	jra .L54
 1014               	.L56:
 479:/home/simulink/cFS_FreeRTOS_seL4/cfe/fsw/cfe-core/src/es/cfe_es_shell.c ****       {
 480:/home/simulink/cFS_FreeRTOS_seL4/cfe/fsw/cfe-core/src/es/cfe_es_shell.c ****          if (OS_FDGetInfo(i, &FileProp) == OS_FS_SUCCESS)
 1015               	.loc 1 480 0
 1016 07d6 222F 00FC 	move.l 252(%sp),%d1
 1017 07da 200F      	move.l %sp,%d0
 1018 07dc 0680 0000 	add.l #36,%d0
 1018      0024 
 1019 07e2 2F00      	move.l %d0,-(%sp)
 1020               	.cfi_def_cfa_offset 292
 1021 07e4 2F01      	move.l %d1,-(%sp)
 1022               	.cfi_def_cfa_offset 296
 1023 07e6 4EB9 0000 	jsr OS_FDGetInfo
 1023      0000 
 1024 07ec 508F      	addq.l #8,%sp
 1025               	.cfi_def_cfa_offset 288
 1026 07ee 4A80      	tst.l %d0
 1027 07f0 6604      	jne .L55
 481:/home/simulink/cFS_FreeRTOS_seL4/cfe/fsw/cfe-core/src/es/cfe_es_shell.c ****          {
 482:/home/simulink/cFS_FreeRTOS_seL4/cfe/fsw/cfe-core/src/es/cfe_es_shell.c ****             NumFiles++;
68K GAS   			page 31


 1028               	.loc 1 482 0
 1029 07f2 52AF 0100 	addq.l #1,256(%sp)
 1030               	.L55:
 478:/home/simulink/cFS_FreeRTOS_seL4/cfe/fsw/cfe-core/src/es/cfe_es_shell.c ****       {
 1031               	.loc 1 478 0 discriminator 2
 1032 07f6 52AF 00FC 	addq.l #1,252(%sp)
 1033               	.L54:
 478:/home/simulink/cFS_FreeRTOS_seL4/cfe/fsw/cfe-core/src/es/cfe_es_shell.c ****       {
 1034               	.loc 1 478 0 is_stmt 0 discriminator 1
 1035 07fa 7031      	moveq #49,%d0
 1036 07fc B0AF 00FC 	cmp.l 252(%sp),%d0
 1037 0800 64D4      	jcc .L56
 1038               	.LBE2:
 483:/home/simulink/cFS_FreeRTOS_seL4/cfe/fsw/cfe-core/src/es/cfe_es_shell.c ****          }
 484:/home/simulink/cFS_FreeRTOS_seL4/cfe/fsw/cfe-core/src/es/cfe_es_shell.c ****       }
 485:/home/simulink/cFS_FreeRTOS_seL4/cfe/fsw/cfe-core/src/es/cfe_es_shell.c ****    }
 486:/home/simulink/cFS_FreeRTOS_seL4/cfe/fsw/cfe-core/src/es/cfe_es_shell.c **** #endif
 487:/home/simulink/cFS_FreeRTOS_seL4/cfe/fsw/cfe-core/src/es/cfe_es_shell.c **** 
 488:/home/simulink/cFS_FreeRTOS_seL4/cfe/fsw/cfe-core/src/es/cfe_es_shell.c ****     sprintf(Line,"OS Resources in Use:\n");
 1039               	.loc 1 488 0 is_stmt 1
 1040 0802 200F      	move.l %sp,%d0
 1041 0804 0680 0000 	add.l #217,%d0
 1041      00D9 
 1042 080a 2040      	move.l %d0,%a0
 1043 080c 20BC 4F53 	move.l #1330847826,(%a0)
 1043      2052 
 1044 0812 5888      	addq.l #4,%a0
 1045 0814 20BC 6573 	move.l #1702063989,(%a0)
 1045      6F75 
 1046 081a 5888      	addq.l #4,%a0
 1047 081c 20BC 7263 	move.l #1919116659,(%a0)
 1047      6573 
 1048 0822 5888      	addq.l #4,%a0
 1049 0824 20BC 2069 	move.l #543780384,(%a0)
 1049      6E20 
 1050 082a 5888      	addq.l #4,%a0
 1051 082c 20BC 5573 	move.l #1433625914,(%a0)
 1051      653A 
 1052 0832 5888      	addq.l #4,%a0
 1053 0834 30BC 0A00 	move.w #2560,(%a0)
 1054 0838 5488      	addq.l #2,%a0
 489:/home/simulink/cFS_FreeRTOS_seL4/cfe/fsw/cfe-core/src/es/cfe_es_shell.c ****     Result = OS_write(fd, Line, strlen(Line));
 1055               	.loc 1 489 0
 1056 083a 200F      	move.l %sp,%d0
 1057 083c 0680 0000 	add.l #217,%d0
 1057      00D9 
 1058 0842 2F00      	move.l %d0,-(%sp)
 1059               	.cfi_def_cfa_offset 292
 1060 0844 4EB9 0000 	jsr strlen
 1060      0000 
 1061 084a 588F      	addq.l #4,%sp
 1062               	.cfi_def_cfa_offset 288
 1063 084c 2F00      	move.l %d0,-(%sp)
 1064               	.cfi_def_cfa_offset 292
 1065 084e 200F      	move.l %sp,%d0
 1066 0850 0680 0000 	add.l #221,%d0
 1066      00DD 
68K GAS   			page 32


 1067 0856 2F00      	move.l %d0,-(%sp)
 1068               	.cfi_def_cfa_offset 296
 1069 0858 2F2F 0128 	move.l 296(%sp),-(%sp)
 1070               	.cfi_def_cfa_offset 300
 1071 085c 4EB9 0000 	jsr OS_write
 1071      0000 
 1072 0862 4FEF 000C 	lea (12,%sp),%sp
 1073               	.cfi_def_cfa_offset 288
 1074 0866 2F40 0118 	move.l %d0,280(%sp)
 490:/home/simulink/cFS_FreeRTOS_seL4/cfe/fsw/cfe-core/src/es/cfe_es_shell.c ****     
 491:/home/simulink/cFS_FreeRTOS_seL4/cfe/fsw/cfe-core/src/es/cfe_es_shell.c ****     if( Result == strlen(Line))
 1075               	.loc 1 491 0
 1076 086a 200F      	move.l %sp,%d0
 1077 086c 0680 0000 	add.l #217,%d0
 1077      00D9 
 1078 0872 2F00      	move.l %d0,-(%sp)
 1079               	.cfi_def_cfa_offset 292
 1080 0874 4EB9 0000 	jsr strlen
 1080      0000 
 1081 087a 588F      	addq.l #4,%sp
 1082               	.cfi_def_cfa_offset 288
 1083 087c 2200      	move.l %d0,%d1
 1084 087e 202F 0118 	move.l 280(%sp),%d0
 1085 0882 B081      	cmp.l %d1,%d0
 1086 0884 6600 028A 	jne .L57
 492:/home/simulink/cFS_FreeRTOS_seL4/cfe/fsw/cfe-core/src/es/cfe_es_shell.c ****     {   
 493:/home/simulink/cFS_FreeRTOS_seL4/cfe/fsw/cfe-core/src/es/cfe_es_shell.c ****         sprintf(Line,"Number of Tasks: %d\n", (int) NumTasks);
 1087               	.loc 1 493 0
 1088 0888 2F2F 0104 	move.l 260(%sp),-(%sp)
 1089               	.cfi_def_cfa_offset 292
 1090 088c 4879 0000 	pea .LC11
 1090      0000 
 1091               	.cfi_def_cfa_offset 296
 1092 0892 200F      	move.l %sp,%d0
 1093 0894 0680 0000 	add.l #225,%d0
 1093      00E1 
 1094 089a 2F00      	move.l %d0,-(%sp)
 1095               	.cfi_def_cfa_offset 300
 1096 089c 4EB9 0000 	jsr sprintf
 1096      0000 
 1097 08a2 4FEF 000C 	lea (12,%sp),%sp
 1098               	.cfi_def_cfa_offset 288
 494:/home/simulink/cFS_FreeRTOS_seL4/cfe/fsw/cfe-core/src/es/cfe_es_shell.c ****         Result = OS_write(fd, Line, strlen(Line));
 1099               	.loc 1 494 0
 1100 08a6 200F      	move.l %sp,%d0
 1101 08a8 0680 0000 	add.l #217,%d0
 1101      00D9 
 1102 08ae 2F00      	move.l %d0,-(%sp)
 1103               	.cfi_def_cfa_offset 292
 1104 08b0 4EB9 0000 	jsr strlen
 1104      0000 
 1105 08b6 588F      	addq.l #4,%sp
 1106               	.cfi_def_cfa_offset 288
 1107 08b8 2F00      	move.l %d0,-(%sp)
 1108               	.cfi_def_cfa_offset 292
 1109 08ba 200F      	move.l %sp,%d0
 1110 08bc 0680 0000 	add.l #221,%d0
68K GAS   			page 33


 1110      00DD 
 1111 08c2 2F00      	move.l %d0,-(%sp)
 1112               	.cfi_def_cfa_offset 296
 1113 08c4 2F2F 0128 	move.l 296(%sp),-(%sp)
 1114               	.cfi_def_cfa_offset 300
 1115 08c8 4EB9 0000 	jsr OS_write
 1115      0000 
 1116 08ce 4FEF 000C 	lea (12,%sp),%sp
 1117               	.cfi_def_cfa_offset 288
 1118 08d2 2F40 0118 	move.l %d0,280(%sp)
 495:/home/simulink/cFS_FreeRTOS_seL4/cfe/fsw/cfe-core/src/es/cfe_es_shell.c **** 
 496:/home/simulink/cFS_FreeRTOS_seL4/cfe/fsw/cfe-core/src/es/cfe_es_shell.c ****         if (Result == strlen(Line))
 1119               	.loc 1 496 0
 1120 08d6 200F      	move.l %sp,%d0
 1121 08d8 0680 0000 	add.l #217,%d0
 1121      00D9 
 1122 08de 2F00      	move.l %d0,-(%sp)
 1123               	.cfi_def_cfa_offset 292
 1124 08e0 4EB9 0000 	jsr strlen
 1124      0000 
 1125 08e6 588F      	addq.l #4,%sp
 1126               	.cfi_def_cfa_offset 288
 1127 08e8 2200      	move.l %d0,%d1
 1128 08ea 202F 0118 	move.l 280(%sp),%d0
 1129 08ee B081      	cmp.l %d1,%d0
 1130 08f0 6600 021E 	jne .L57
 497:/home/simulink/cFS_FreeRTOS_seL4/cfe/fsw/cfe-core/src/es/cfe_es_shell.c ****         {
 498:/home/simulink/cFS_FreeRTOS_seL4/cfe/fsw/cfe-core/src/es/cfe_es_shell.c ****             sprintf(Line,"Number of Queues: %d\n", (int) NumQueues);
 1131               	.loc 1 498 0
 1132 08f4 2F2F 0108 	move.l 264(%sp),-(%sp)
 1133               	.cfi_def_cfa_offset 292
 1134 08f8 4879 0000 	pea .LC12
 1134      0000 
 1135               	.cfi_def_cfa_offset 296
 1136 08fe 200F      	move.l %sp,%d0
 1137 0900 0680 0000 	add.l #225,%d0
 1137      00E1 
 1138 0906 2F00      	move.l %d0,-(%sp)
 1139               	.cfi_def_cfa_offset 300
 1140 0908 4EB9 0000 	jsr sprintf
 1140      0000 
 1141 090e 4FEF 000C 	lea (12,%sp),%sp
 1142               	.cfi_def_cfa_offset 288
 499:/home/simulink/cFS_FreeRTOS_seL4/cfe/fsw/cfe-core/src/es/cfe_es_shell.c ****             Result = OS_write(fd, Line, strlen(Line));
 1143               	.loc 1 499 0
 1144 0912 200F      	move.l %sp,%d0
 1145 0914 0680 0000 	add.l #217,%d0
 1145      00D9 
 1146 091a 2F00      	move.l %d0,-(%sp)
 1147               	.cfi_def_cfa_offset 292
 1148 091c 4EB9 0000 	jsr strlen
 1148      0000 
 1149 0922 588F      	addq.l #4,%sp
 1150               	.cfi_def_cfa_offset 288
 1151 0924 2F00      	move.l %d0,-(%sp)
 1152               	.cfi_def_cfa_offset 292
 1153 0926 200F      	move.l %sp,%d0
68K GAS   			page 34


 1154 0928 0680 0000 	add.l #221,%d0
 1154      00DD 
 1155 092e 2F00      	move.l %d0,-(%sp)
 1156               	.cfi_def_cfa_offset 296
 1157 0930 2F2F 0128 	move.l 296(%sp),-(%sp)
 1158               	.cfi_def_cfa_offset 300
 1159 0934 4EB9 0000 	jsr OS_write
 1159      0000 
 1160 093a 4FEF 000C 	lea (12,%sp),%sp
 1161               	.cfi_def_cfa_offset 288
 1162 093e 2F40 0118 	move.l %d0,280(%sp)
 500:/home/simulink/cFS_FreeRTOS_seL4/cfe/fsw/cfe-core/src/es/cfe_es_shell.c ****             
 501:/home/simulink/cFS_FreeRTOS_seL4/cfe/fsw/cfe-core/src/es/cfe_es_shell.c ****             if (Result == strlen(Line))
 1163               	.loc 1 501 0
 1164 0942 200F      	move.l %sp,%d0
 1165 0944 0680 0000 	add.l #217,%d0
 1165      00D9 
 1166 094a 2F00      	move.l %d0,-(%sp)
 1167               	.cfi_def_cfa_offset 292
 1168 094c 4EB9 0000 	jsr strlen
 1168      0000 
 1169 0952 588F      	addq.l #4,%sp
 1170               	.cfi_def_cfa_offset 288
 1171 0954 2200      	move.l %d0,%d1
 1172 0956 202F 0118 	move.l 280(%sp),%d0
 1173 095a B081      	cmp.l %d1,%d0
 1174 095c 6600 01B2 	jne .L57
 502:/home/simulink/cFS_FreeRTOS_seL4/cfe/fsw/cfe-core/src/es/cfe_es_shell.c ****             {
 503:/home/simulink/cFS_FreeRTOS_seL4/cfe/fsw/cfe-core/src/es/cfe_es_shell.c ****                 sprintf(Line,"Number of Binary Semaphores: %d\n",(int) NumSemaphores);
 1175               	.loc 1 503 0
 1176 0960 2F2F 0114 	move.l 276(%sp),-(%sp)
 1177               	.cfi_def_cfa_offset 292
 1178 0964 4879 0000 	pea .LC13
 1178      0000 
 1179               	.cfi_def_cfa_offset 296
 1180 096a 200F      	move.l %sp,%d0
 1181 096c 0680 0000 	add.l #225,%d0
 1181      00E1 
 1182 0972 2F00      	move.l %d0,-(%sp)
 1183               	.cfi_def_cfa_offset 300
 1184 0974 4EB9 0000 	jsr sprintf
 1184      0000 
 1185 097a 4FEF 000C 	lea (12,%sp),%sp
 1186               	.cfi_def_cfa_offset 288
 504:/home/simulink/cFS_FreeRTOS_seL4/cfe/fsw/cfe-core/src/es/cfe_es_shell.c ****                 Result = OS_write(fd, Line, strlen(Line));
 1187               	.loc 1 504 0
 1188 097e 200F      	move.l %sp,%d0
 1189 0980 0680 0000 	add.l #217,%d0
 1189      00D9 
 1190 0986 2F00      	move.l %d0,-(%sp)
 1191               	.cfi_def_cfa_offset 292
 1192 0988 4EB9 0000 	jsr strlen
 1192      0000 
 1193 098e 588F      	addq.l #4,%sp
 1194               	.cfi_def_cfa_offset 288
 1195 0990 2F00      	move.l %d0,-(%sp)
 1196               	.cfi_def_cfa_offset 292
68K GAS   			page 35


 1197 0992 200F      	move.l %sp,%d0
 1198 0994 0680 0000 	add.l #221,%d0
 1198      00DD 
 1199 099a 2F00      	move.l %d0,-(%sp)
 1200               	.cfi_def_cfa_offset 296
 1201 099c 2F2F 0128 	move.l 296(%sp),-(%sp)
 1202               	.cfi_def_cfa_offset 300
 1203 09a0 4EB9 0000 	jsr OS_write
 1203      0000 
 1204 09a6 4FEF 000C 	lea (12,%sp),%sp
 1205               	.cfi_def_cfa_offset 288
 1206 09aa 2F40 0118 	move.l %d0,280(%sp)
 505:/home/simulink/cFS_FreeRTOS_seL4/cfe/fsw/cfe-core/src/es/cfe_es_shell.c ****                 if (Result == strlen(Line))
 1207               	.loc 1 505 0
 1208 09ae 200F      	move.l %sp,%d0
 1209 09b0 0680 0000 	add.l #217,%d0
 1209      00D9 
 1210 09b6 2F00      	move.l %d0,-(%sp)
 1211               	.cfi_def_cfa_offset 292
 1212 09b8 4EB9 0000 	jsr strlen
 1212      0000 
 1213 09be 588F      	addq.l #4,%sp
 1214               	.cfi_def_cfa_offset 288
 1215 09c0 2200      	move.l %d0,%d1
 1216 09c2 202F 0118 	move.l 280(%sp),%d0
 1217 09c6 B081      	cmp.l %d1,%d0
 1218 09c8 6600 0146 	jne .L57
 506:/home/simulink/cFS_FreeRTOS_seL4/cfe/fsw/cfe-core/src/es/cfe_es_shell.c ****                 {
 507:/home/simulink/cFS_FreeRTOS_seL4/cfe/fsw/cfe-core/src/es/cfe_es_shell.c ****                 
 508:/home/simulink/cFS_FreeRTOS_seL4/cfe/fsw/cfe-core/src/es/cfe_es_shell.c ****                    
 509:/home/simulink/cFS_FreeRTOS_seL4/cfe/fsw/cfe-core/src/es/cfe_es_shell.c ****                     sprintf(Line,"Number of Counting Semaphores: %d\n",(int) NumCountSems);
 1219               	.loc 1 509 0
 1220 09cc 2F2F 0110 	move.l 272(%sp),-(%sp)
 1221               	.cfi_def_cfa_offset 292
 1222 09d0 4879 0000 	pea .LC14
 1222      0000 
 1223               	.cfi_def_cfa_offset 296
 1224 09d6 200F      	move.l %sp,%d0
 1225 09d8 0680 0000 	add.l #225,%d0
 1225      00E1 
 1226 09de 2F00      	move.l %d0,-(%sp)
 1227               	.cfi_def_cfa_offset 300
 1228 09e0 4EB9 0000 	jsr sprintf
 1228      0000 
 1229 09e6 4FEF 000C 	lea (12,%sp),%sp
 1230               	.cfi_def_cfa_offset 288
 510:/home/simulink/cFS_FreeRTOS_seL4/cfe/fsw/cfe-core/src/es/cfe_es_shell.c ****                     Result = OS_write(fd, Line, strlen(Line));
 1231               	.loc 1 510 0
 1232 09ea 200F      	move.l %sp,%d0
 1233 09ec 0680 0000 	add.l #217,%d0
 1233      00D9 
 1234 09f2 2F00      	move.l %d0,-(%sp)
 1235               	.cfi_def_cfa_offset 292
 1236 09f4 4EB9 0000 	jsr strlen
 1236      0000 
 1237 09fa 588F      	addq.l #4,%sp
 1238               	.cfi_def_cfa_offset 288
68K GAS   			page 36


 1239 09fc 2F00      	move.l %d0,-(%sp)
 1240               	.cfi_def_cfa_offset 292
 1241 09fe 200F      	move.l %sp,%d0
 1242 0a00 0680 0000 	add.l #221,%d0
 1242      00DD 
 1243 0a06 2F00      	move.l %d0,-(%sp)
 1244               	.cfi_def_cfa_offset 296
 1245 0a08 2F2F 0128 	move.l 296(%sp),-(%sp)
 1246               	.cfi_def_cfa_offset 300
 1247 0a0c 4EB9 0000 	jsr OS_write
 1247      0000 
 1248 0a12 4FEF 000C 	lea (12,%sp),%sp
 1249               	.cfi_def_cfa_offset 288
 1250 0a16 2F40 0118 	move.l %d0,280(%sp)
 511:/home/simulink/cFS_FreeRTOS_seL4/cfe/fsw/cfe-core/src/es/cfe_es_shell.c ****                  
 512:/home/simulink/cFS_FreeRTOS_seL4/cfe/fsw/cfe-core/src/es/cfe_es_shell.c ****                     if (Result == strlen(Line))
 1251               	.loc 1 512 0
 1252 0a1a 200F      	move.l %sp,%d0
 1253 0a1c 0680 0000 	add.l #217,%d0
 1253      00D9 
 1254 0a22 2F00      	move.l %d0,-(%sp)
 1255               	.cfi_def_cfa_offset 292
 1256 0a24 4EB9 0000 	jsr strlen
 1256      0000 
 1257 0a2a 588F      	addq.l #4,%sp
 1258               	.cfi_def_cfa_offset 288
 1259 0a2c 2200      	move.l %d0,%d1
 1260 0a2e 202F 0118 	move.l 280(%sp),%d0
 1261 0a32 B081      	cmp.l %d1,%d0
 1262 0a34 6600 00DA 	jne .L57
 513:/home/simulink/cFS_FreeRTOS_seL4/cfe/fsw/cfe-core/src/es/cfe_es_shell.c ****                     {
 514:/home/simulink/cFS_FreeRTOS_seL4/cfe/fsw/cfe-core/src/es/cfe_es_shell.c ****                         sprintf(Line,"Number of Mutexes: %d\n", (int) NumMutexes);
 1263               	.loc 1 514 0
 1264 0a38 2F2F 010C 	move.l 268(%sp),-(%sp)
 1265               	.cfi_def_cfa_offset 292
 1266 0a3c 4879 0000 	pea .LC15
 1266      0000 
 1267               	.cfi_def_cfa_offset 296
 1268 0a42 200F      	move.l %sp,%d0
 1269 0a44 0680 0000 	add.l #225,%d0
 1269      00E1 
 1270 0a4a 2F00      	move.l %d0,-(%sp)
 1271               	.cfi_def_cfa_offset 300
 1272 0a4c 4EB9 0000 	jsr sprintf
 1272      0000 
 1273 0a52 4FEF 000C 	lea (12,%sp),%sp
 1274               	.cfi_def_cfa_offset 288
 515:/home/simulink/cFS_FreeRTOS_seL4/cfe/fsw/cfe-core/src/es/cfe_es_shell.c ****                         Result = OS_write(fd, Line, strlen(Line));
 1275               	.loc 1 515 0
 1276 0a56 200F      	move.l %sp,%d0
 1277 0a58 0680 0000 	add.l #217,%d0
 1277      00D9 
 1278 0a5e 2F00      	move.l %d0,-(%sp)
 1279               	.cfi_def_cfa_offset 292
 1280 0a60 4EB9 0000 	jsr strlen
 1280      0000 
 1281 0a66 588F      	addq.l #4,%sp
68K GAS   			page 37


 1282               	.cfi_def_cfa_offset 288
 1283 0a68 2F00      	move.l %d0,-(%sp)
 1284               	.cfi_def_cfa_offset 292
 1285 0a6a 200F      	move.l %sp,%d0
 1286 0a6c 0680 0000 	add.l #221,%d0
 1286      00DD 
 1287 0a72 2F00      	move.l %d0,-(%sp)
 1288               	.cfi_def_cfa_offset 296
 1289 0a74 2F2F 0128 	move.l 296(%sp),-(%sp)
 1290               	.cfi_def_cfa_offset 300
 1291 0a78 4EB9 0000 	jsr OS_write
 1291      0000 
 1292 0a7e 4FEF 000C 	lea (12,%sp),%sp
 1293               	.cfi_def_cfa_offset 288
 1294 0a82 2F40 0118 	move.l %d0,280(%sp)
 516:/home/simulink/cFS_FreeRTOS_seL4/cfe/fsw/cfe-core/src/es/cfe_es_shell.c ****                         if (Result == strlen(Line))
 1295               	.loc 1 516 0
 1296 0a86 200F      	move.l %sp,%d0
 1297 0a88 0680 0000 	add.l #217,%d0
 1297      00D9 
 1298 0a8e 2F00      	move.l %d0,-(%sp)
 1299               	.cfi_def_cfa_offset 292
 1300 0a90 4EB9 0000 	jsr strlen
 1300      0000 
 1301 0a96 588F      	addq.l #4,%sp
 1302               	.cfi_def_cfa_offset 288
 1303 0a98 2200      	move.l %d0,%d1
 1304 0a9a 202F 0118 	move.l 280(%sp),%d0
 1305 0a9e B081      	cmp.l %d1,%d0
 1306 0aa0 666E      	jne .L57
 517:/home/simulink/cFS_FreeRTOS_seL4/cfe/fsw/cfe-core/src/es/cfe_es_shell.c ****                         {
 518:/home/simulink/cFS_FreeRTOS_seL4/cfe/fsw/cfe-core/src/es/cfe_es_shell.c ****                             sprintf(Line,"Number of Open Files: %d\n",(int) NumFiles);
 1307               	.loc 1 518 0
 1308 0aa2 2F2F 0100 	move.l 256(%sp),-(%sp)
 1309               	.cfi_def_cfa_offset 292
 1310 0aa6 4879 0000 	pea .LC16
 1310      0000 
 1311               	.cfi_def_cfa_offset 296
 1312 0aac 200F      	move.l %sp,%d0
 1313 0aae 0680 0000 	add.l #225,%d0
 1313      00E1 
 1314 0ab4 2F00      	move.l %d0,-(%sp)
 1315               	.cfi_def_cfa_offset 300
 1316 0ab6 4EB9 0000 	jsr sprintf
 1316      0000 
 1317 0abc 4FEF 000C 	lea (12,%sp),%sp
 1318               	.cfi_def_cfa_offset 288
 519:/home/simulink/cFS_FreeRTOS_seL4/cfe/fsw/cfe-core/src/es/cfe_es_shell.c ****                             Result = OS_write(fd, Line, strlen(Line));
 1319               	.loc 1 519 0
 1320 0ac0 200F      	move.l %sp,%d0
 1321 0ac2 0680 0000 	add.l #217,%d0
 1321      00D9 
 1322 0ac8 2F00      	move.l %d0,-(%sp)
 1323               	.cfi_def_cfa_offset 292
 1324 0aca 4EB9 0000 	jsr strlen
 1324      0000 
 1325 0ad0 588F      	addq.l #4,%sp
68K GAS   			page 38


 1326               	.cfi_def_cfa_offset 288
 1327 0ad2 2F00      	move.l %d0,-(%sp)
 1328               	.cfi_def_cfa_offset 292
 1329 0ad4 200F      	move.l %sp,%d0
 1330 0ad6 0680 0000 	add.l #221,%d0
 1330      00DD 
 1331 0adc 2F00      	move.l %d0,-(%sp)
 1332               	.cfi_def_cfa_offset 296
 1333 0ade 2F2F 0128 	move.l 296(%sp),-(%sp)
 1334               	.cfi_def_cfa_offset 300
 1335 0ae2 4EB9 0000 	jsr OS_write
 1335      0000 
 1336 0ae8 4FEF 000C 	lea (12,%sp),%sp
 1337               	.cfi_def_cfa_offset 288
 1338 0aec 2F40 0118 	move.l %d0,280(%sp)
 520:/home/simulink/cFS_FreeRTOS_seL4/cfe/fsw/cfe-core/src/es/cfe_es_shell.c ****                             if ( Result == strlen(Line))
 1339               	.loc 1 520 0
 1340 0af0 200F      	move.l %sp,%d0
 1341 0af2 0680 0000 	add.l #217,%d0
 1341      00D9 
 1342 0af8 2F00      	move.l %d0,-(%sp)
 1343               	.cfi_def_cfa_offset 292
 1344 0afa 4EB9 0000 	jsr strlen
 1344      0000 
 1345 0b00 588F      	addq.l #4,%sp
 1346               	.cfi_def_cfa_offset 288
 1347 0b02 2200      	move.l %d0,%d1
 1348 0b04 202F 0118 	move.l 280(%sp),%d0
 1349 0b08 B081      	cmp.l %d1,%d0
 1350 0b0a 6604      	jne .L57
 521:/home/simulink/cFS_FreeRTOS_seL4/cfe/fsw/cfe-core/src/es/cfe_es_shell.c ****                             {
 522:/home/simulink/cFS_FreeRTOS_seL4/cfe/fsw/cfe-core/src/es/cfe_es_shell.c ****                                Result = CFE_SUCCESS;
 1351               	.loc 1 522 0
 1352 0b0c 42AF 0118 	clr.l 280(%sp)
 1353               	.L57:
 523:/home/simulink/cFS_FreeRTOS_seL4/cfe/fsw/cfe-core/src/es/cfe_es_shell.c ****                             }
 524:/home/simulink/cFS_FreeRTOS_seL4/cfe/fsw/cfe-core/src/es/cfe_es_shell.c ****                         }
 525:/home/simulink/cFS_FreeRTOS_seL4/cfe/fsw/cfe-core/src/es/cfe_es_shell.c ****                     }
 526:/home/simulink/cFS_FreeRTOS_seL4/cfe/fsw/cfe-core/src/es/cfe_es_shell.c ****                 }   
 527:/home/simulink/cFS_FreeRTOS_seL4/cfe/fsw/cfe-core/src/es/cfe_es_shell.c ****             }
 528:/home/simulink/cFS_FreeRTOS_seL4/cfe/fsw/cfe-core/src/es/cfe_es_shell.c ****         }
 529:/home/simulink/cFS_FreeRTOS_seL4/cfe/fsw/cfe-core/src/es/cfe_es_shell.c ****     }
 530:/home/simulink/cFS_FreeRTOS_seL4/cfe/fsw/cfe-core/src/es/cfe_es_shell.c ****             
 531:/home/simulink/cFS_FreeRTOS_seL4/cfe/fsw/cfe-core/src/es/cfe_es_shell.c ****     /* 
 532:/home/simulink/cFS_FreeRTOS_seL4/cfe/fsw/cfe-core/src/es/cfe_es_shell.c ****     ** If any of the writes failed, return the OS_write 
 533:/home/simulink/cFS_FreeRTOS_seL4/cfe/fsw/cfe-core/src/es/cfe_es_shell.c ****     **  failure 
 534:/home/simulink/cFS_FreeRTOS_seL4/cfe/fsw/cfe-core/src/es/cfe_es_shell.c ****     */
 535:/home/simulink/cFS_FreeRTOS_seL4/cfe/fsw/cfe-core/src/es/cfe_es_shell.c ****     return Result;
 1354               	.loc 1 535 0
 1355 0b10 202F 0118 	move.l 280(%sp),%d0
 536:/home/simulink/cFS_FreeRTOS_seL4/cfe/fsw/cfe-core/src/es/cfe_es_shell.c **** }
 1356               	.loc 1 536 0
 1357 0b14 4FEF 011C 	lea (284,%sp),%sp
 1358 0b18 4E75      	rts
 1359               	.cfi_endproc
 1360               	.LFE62:
 1361               	.sizeCFE_ES_ListResources, .-CFE_ES_ListResources
68K GAS   			page 39


 1362               	.Letext0:
 1363               	.file 2 "/home/simulink/cFS_FreeRTOS_seL4/osal/src/os/inc/common_types.h"
 1364               	.file 3 "/home/simulink/cFS_FreeRTOS_seL4/osal/src/os/inc/osapi-os-core.h"
 1365               	.file 4 "/home/simulink/development/rtems/5/m68k-rtems5/include/machine/_default_types.h"
 1366               	.file 5 "/home/simulink/development/rtems/5/m68k-rtems5/include/machine/_types.h"
 1367               	.file 6 "/home/simulink/development/rtems/5/m68k-rtems5/include/sys/lock.h"
 1368               	.file 7 "/home/simulink/development/rtems/5/m68k-rtems5/include/sys/_types.h"
 1369               	.file 8 "/home/simulink/development/rtems/5/lib/gcc/m68k-rtems5/7.3.0/include/stddef.h"
 1370               	.file 9 "/home/simulink/development/rtems/5/m68k-rtems5/include/sys/reent.h"
 1371               	.file 10 "/home/simulink/development/rtems/5/m68k-rtems5/include/stdlib.h"
 1372               	.file 11 "/home/simulink/development/rtems/5/m68k-rtems5/include/time.h"
 1373               	.file 12 "/home/simulink/cFS_FreeRTOS_seL4/osal/src/os/inc/osapi-os-filesys.h"
 1374               	.file 13 "/home/simulink/cFS_FreeRTOS_seL4/cfe/fsw/cfe-core/src/inc/cfe_es.h"
 1375               	.file 14 "/home/simulink/cFS_FreeRTOS_seL4/cfe/fsw/cfe-core/src/inc/cfe_time.h"
 1376               	.file 15 "/home/simulink/cFS_FreeRTOS_seL4/cfe/fsw/cfe-core/src/inc/ccsds.h"
 1377               	.file 16 "/home/simulink/cFS_FreeRTOS_seL4/cfe/fsw/cfe-core/src/inc/cfe_sb.h"
 1378               	.file 17 "/home/simulink/cFS_FreeRTOS_seL4/cfe/fsw/cfe-core/src/inc/cfe_evs_msg.h"
 1379               	.file 18 "/home/simulink/cFS_FreeRTOS_seL4/cfe/fsw/cfe-core/src/inc/private/cfe_es_erlog_typedef.h"
 1380               	.file 19 "/home/simulink/cFS_FreeRTOS_seL4/cfe/fsw/cfe-core/src/inc/private/cfe_es_perfdata_typedef.h"
 1381               	.file 20 "/home/simulink/cFS_FreeRTOS_seL4/cfe/fsw/cfe-core/src/inc/private/cfe_evs_log_typedef.h"
 1382               	.file 21 "/home/simulink/cFS_FreeRTOS_seL4/cfe/fsw/cfe-core/src/inc/private/cfe_es_resetdata_typedef.h"
 1383               	.file 22 "/home/simulink/cFS_FreeRTOS_seL4/cfe/fsw/cfe-core/src/es/cfe_es_apps.h"
 1384               	.file 23 "/home/simulink/cFS_FreeRTOS_seL4/cfe/fsw/cfe-core/src/es/cfe_es_cds_mempool.h"
 1385               	.file 24 "/home/simulink/cFS_FreeRTOS_seL4/cfe/fsw/cfe-core/src/es/cfe_es_cds.h"
 1386               	.file 25 "/home/simulink/cFS_FreeRTOS_seL4/cfe/fsw/cfe-core/src/inc/cfe_es_msg.h"
 1387               	.file 26 "/home/simulink/cFS_FreeRTOS_seL4/cfe/fsw/cfe-core/src/es/cfe_es_perf.h"
 1388               	.file 27 "/home/simulink/cFS_FreeRTOS_seL4/cfe/fsw/cfe-core/src/es/cfe_es_global.h"
 1389               	.file 28 "/home/simulink/cFS_FreeRTOS_seL4/cfe/fsw/cfe-core/src/es/cfe_es_task.h"
 1390               	.section.debug_info,"",@progbits
 1391               	.Ldebug_info0:
 1392 0000 0000 200D 	.long0x200d
 1393 0004 0004      	.word0x4
 1394 0006 0000 0000 	.long.Ldebug_abbrev0
 1395 000a 04        	.byte0x4
 1396 000b 01        	.uleb128 0x1
 1397 000c 0000 0000 	.long.LASF447
 1398 0010 0C        	.byte0xc
 1399 0011 0000 0000 	.long.LASF448
 1400 0015 0000 0000 	.long.LASF449
 1401 0019 0000 0000 	.long.Ltext0
 1402 001d 0000 0B1A 	.long.Letext0-.Ltext0
 1403 0021 0000 0000 	.long.Ldebug_line0
 1404 0025 02        	.uleb128 0x2
 1405 0026 0000 0000 	.long.LASF2
 1406 002a 02        	.byte0x2
 1407 002b E6        	.byte0xe6
 1408 002c 0000 0030 	.long0x30
 1409 0030 03        	.uleb128 0x3
 1410 0031 01        	.byte0x1
 1411 0032 08        	.byte0x8
 1412 0033 0000 0000 	.long.LASF0
 1413 0037 03        	.uleb128 0x3
 1414 0038 01        	.byte0x1
 1415 0039 06        	.byte0x6
 1416 003a 0000 0000 	.long.LASF1
 1417 003e 02        	.uleb128 0x2
 1418 003f 0000 0000 	.long.LASF3
68K GAS   			page 40


 1419 0043 02        	.byte0x2
 1420 0044 E8        	.byte0xe8
 1421 0045 0000 0049 	.long0x49
 1422 0049 03        	.uleb128 0x3
 1423 004a 02        	.byte0x2
 1424 004b 05        	.byte0x5
 1425 004c 0000 0000 	.long.LASF4
 1426 0050 02        	.uleb128 0x2
 1427 0051 0000 0000 	.long.LASF5
 1428 0055 02        	.byte0x2
 1429 0056 E9        	.byte0xe9
 1430 0057 0000 005B 	.long0x5b
 1431 005b 03        	.uleb128 0x3
 1432 005c 04        	.byte0x4
 1433 005d 05        	.byte0x5
 1434 005e 0000 0000 	.long.LASF6
 1435 0062 03        	.uleb128 0x3
 1436 0063 08        	.byte0x8
 1437 0064 05        	.byte0x5
 1438 0065 0000 0000 	.long.LASF7
 1439 0069 02        	.uleb128 0x2
 1440 006a 0000 0000 	.long.LASF8
 1441 006e 02        	.byte0x2
 1442 006f EB        	.byte0xeb
 1443 0070 0000 0030 	.long0x30
 1444 0074 02        	.uleb128 0x2
 1445 0075 0000 0000 	.long.LASF9
 1446 0079 02        	.byte0x2
 1447 007a EC        	.byte0xec
 1448 007b 0000 007F 	.long0x7f
 1449 007f 03        	.uleb128 0x3
 1450 0080 02        	.byte0x2
 1451 0081 07        	.byte0x7
 1452 0082 0000 0000 	.long.LASF10
 1453 0086 02        	.uleb128 0x2
 1454 0087 0000 0000 	.long.LASF11
 1455 008b 02        	.byte0x2
 1456 008c ED        	.byte0xed
 1457 008d 0000 0091 	.long0x91
 1458 0091 03        	.uleb128 0x3
 1459 0092 04        	.byte0x4
 1460 0093 07        	.byte0x7
 1461 0094 0000 0000 	.long.LASF12
 1462 0098 03        	.uleb128 0x3
 1463 0099 08        	.byte0x8
 1464 009a 07        	.byte0x7
 1465 009b 0000 0000 	.long.LASF13
 1466 009f 02        	.uleb128 0x2
 1467 00a0 0000 0000 	.long.LASF14
 1468 00a4 02        	.byte0x2
 1469 00a5 F0        	.byte0xf0
 1470 00a6 0000 0091 	.long0x91
 1471 00aa 04        	.uleb128 0x4
 1472 00ab 0000 0000 	.long.LASF15
 1473 00af 02        	.byte0x2
 1474 00b0 0131      	.word0x131
 1475 00b2 0000 0025 	.long0x25
68K GAS   			page 41


 1476 00b6 03        	.uleb128 0x3
 1477 00b7 01        	.byte0x1
 1478 00b8 06        	.byte0x6
 1479 00b9 0000 0000 	.long.LASF16
 1480 00bd 05        	.uleb128 0x5
 1481 00be 0000 00B6 	.long0xb6
 1482 00c2 06        	.uleb128 0x6
 1483 00c3 24        	.byte0x24
 1484 00c4 03        	.byte0x3
 1485 00c5 35        	.byte0x35
 1486 00c6 0000 0107 	.long0x107
 1487 00ca 07        	.uleb128 0x7
 1488 00cb 0000 0000 	.long.LASF17
 1489 00cf 03        	.byte0x3
 1490 00d0 37        	.byte0x37
 1491 00d1 0000 0107 	.long0x107
 1492 00d5 00        	.byte0
 1493 00d6 07        	.uleb128 0x7
 1494 00d7 0000 0000 	.long.LASF18
 1495 00db 03        	.byte0x3
 1496 00dc 38        	.byte0x38
 1497 00dd 0000 0086 	.long0x86
 1498 00e1 14        	.byte0x14
 1499 00e2 07        	.uleb128 0x7
 1500 00e3 0000 0000 	.long.LASF19
 1501 00e7 03        	.byte0x3
 1502 00e8 39        	.byte0x39
 1503 00e9 0000 0086 	.long0x86
 1504 00ed 18        	.byte0x18
 1505 00ee 07        	.uleb128 0x7
 1506 00ef 0000 0000 	.long.LASF20
 1507 00f3 03        	.byte0x3
 1508 00f4 3A        	.byte0x3a
 1509 00f5 0000 0086 	.long0x86
 1510 00f9 1C        	.byte0x1c
 1511 00fa 07        	.uleb128 0x7
 1512 00fb 0000 0000 	.long.LASF21
 1513 00ff 03        	.byte0x3
 1514 0100 3B        	.byte0x3b
 1515 0101 0000 0086 	.long0x86
 1516 0105 20        	.byte0x20
 1517 0106 00        	.byte0
 1518 0107 08        	.uleb128 0x8
 1519 0108 0000 00B6 	.long0xb6
 1520 010c 0000 0117 	.long0x117
 1521 0110 09        	.uleb128 0x9
 1522 0111 0000 0091 	.long0x91
 1523 0115 13        	.byte0x13
 1524 0116 00        	.byte0
 1525 0117 02        	.uleb128 0x2
 1526 0118 0000 0000 	.long.LASF22
 1527 011c 03        	.byte0x3
 1528 011d 3C        	.byte0x3c
 1529 011e 0000 00C2 	.long0xc2
 1530 0122 06        	.uleb128 0x6
 1531 0123 18        	.byte0x18
 1532 0124 03        	.byte0x3
68K GAS   			page 42


 1533 0125 3F        	.byte0x3f
 1534 0126 0000 0143 	.long0x143
 1535 012a 07        	.uleb128 0x7
 1536 012b 0000 0000 	.long.LASF17
 1537 012f 03        	.byte0x3
 1538 0130 41        	.byte0x41
 1539 0131 0000 0107 	.long0x107
 1540 0135 00        	.byte0
 1541 0136 07        	.uleb128 0x7
 1542 0137 0000 0000 	.long.LASF18
 1543 013b 03        	.byte0x3
 1544 013c 42        	.byte0x42
 1545 013d 0000 0086 	.long0x86
 1546 0141 14        	.byte0x14
 1547 0142 00        	.byte0
 1548 0143 02        	.uleb128 0x2
 1549 0144 0000 0000 	.long.LASF23
 1550 0148 03        	.byte0x3
 1551 0149 43        	.byte0x43
 1552 014a 0000 0122 	.long0x122
 1553 014e 06        	.uleb128 0x6
 1554 014f 1C        	.byte0x1c
 1555 0150 03        	.byte0x3
 1556 0151 46        	.byte0x46
 1557 0152 0000 017B 	.long0x17b
 1558 0156 07        	.uleb128 0x7
 1559 0157 0000 0000 	.long.LASF17
 1560 015b 03        	.byte0x3
 1561 015c 48        	.byte0x48
 1562 015d 0000 0107 	.long0x107
 1563 0161 00        	.byte0
 1564 0162 07        	.uleb128 0x7
 1565 0163 0000 0000 	.long.LASF18
 1566 0167 03        	.byte0x3
 1567 0168 49        	.byte0x49
 1568 0169 0000 0086 	.long0x86
 1569 016d 14        	.byte0x14
 1570 016e 07        	.uleb128 0x7
 1571 016f 0000 0000 	.long.LASF24
 1572 0173 03        	.byte0x3
 1573 0174 4A        	.byte0x4a
 1574 0175 0000 0050 	.long0x50
 1575 0179 18        	.byte0x18
 1576 017a 00        	.byte0
 1577 017b 02        	.uleb128 0x2
 1578 017c 0000 0000 	.long.LASF25
 1579 0180 03        	.byte0x3
 1580 0181 4B        	.byte0x4b
 1581 0182 0000 014E 	.long0x14e
 1582 0186 06        	.uleb128 0x6
 1583 0187 1C        	.byte0x1c
 1584 0188 03        	.byte0x3
 1585 0189 4E        	.byte0x4e
 1586 018a 0000 01B3 	.long0x1b3
 1587 018e 07        	.uleb128 0x7
 1588 018f 0000 0000 	.long.LASF17
 1589 0193 03        	.byte0x3
68K GAS   			page 43


 1590 0194 50        	.byte0x50
 1591 0195 0000 0107 	.long0x107
 1592 0199 00        	.byte0
 1593 019a 07        	.uleb128 0x7
 1594 019b 0000 0000 	.long.LASF18
 1595 019f 03        	.byte0x3
 1596 01a0 51        	.byte0x51
 1597 01a1 0000 0086 	.long0x86
 1598 01a5 14        	.byte0x14
 1599 01a6 07        	.uleb128 0x7
 1600 01a7 0000 0000 	.long.LASF24
 1601 01ab 03        	.byte0x3
 1602 01ac 52        	.byte0x52
 1603 01ad 0000 0050 	.long0x50
 1604 01b1 18        	.byte0x18
 1605 01b2 00        	.byte0
 1606 01b3 02        	.uleb128 0x2
 1607 01b4 0000 0000 	.long.LASF26
 1608 01b8 03        	.byte0x3
 1609 01b9 53        	.byte0x53
 1610 01ba 0000 0186 	.long0x186
 1611 01be 06        	.uleb128 0x6
 1612 01bf 18        	.byte0x18
 1613 01c0 03        	.byte0x3
 1614 01c1 56        	.byte0x56
 1615 01c2 0000 01DF 	.long0x1df
 1616 01c6 07        	.uleb128 0x7
 1617 01c7 0000 0000 	.long.LASF17
 1618 01cb 03        	.byte0x3
 1619 01cc 58        	.byte0x58
 1620 01cd 0000 0107 	.long0x107
 1621 01d1 00        	.byte0
 1622 01d2 07        	.uleb128 0x7
 1623 01d3 0000 0000 	.long.LASF18
 1624 01d7 03        	.byte0x3
 1625 01d8 59        	.byte0x59
 1626 01d9 0000 0086 	.long0x86
 1627 01dd 14        	.byte0x14
 1628 01de 00        	.byte0
 1629 01df 02        	.uleb128 0x2
 1630 01e0 0000 0000 	.long.LASF27
 1631 01e4 03        	.byte0x3
 1632 01e5 5A        	.byte0x5a
 1633 01e6 0000 01BE 	.long0x1be
 1634 01ea 08        	.uleb128 0x8
 1635 01eb 0000 00B6 	.long0xb6
 1636 01ef 0000 01FA 	.long0x1fa
 1637 01f3 09        	.uleb128 0x9
 1638 01f4 0000 0091 	.long0x91
 1639 01f8 22        	.byte0x22
 1640 01f9 00        	.byte0
 1641 01fa 0A        	.uleb128 0xa
 1642 01fb 04        	.byte0x4
 1643 01fc 02        	.uleb128 0x2
 1644 01fd 0000 0000 	.long.LASF28
 1645 0201 04        	.byte0x4
 1646 0202 67        	.byte0x67
68K GAS   			page 44


 1647 0203 0000 0062 	.long0x62
 1648 0207 03        	.uleb128 0x3
 1649 0208 08        	.byte0x8
 1650 0209 04        	.byte0x4
 1651 020a 0000 0000 	.long.LASF29
 1652 020e 02        	.uleb128 0x2
 1653 020f 0000 0000 	.long.LASF30
 1654 0213 05        	.byte0x5
 1655 0214 10        	.byte0x10
 1656 0215 0000 01FC 	.long0x1fc
 1657 0219 02        	.uleb128 0x2
 1658 021a 0000 0000 	.long.LASF31
 1659 021e 05        	.byte0x5
 1660 021f 16        	.byte0x16
 1661 0220 0000 020E 	.long0x20e
 1662 0224 0B        	.uleb128 0xb
 1663 0225 04        	.byte0x4
 1664 0226 05        	.byte0x5
 1665 0227 696E 7400 	.string"int"
 1666 022b 0C        	.uleb128 0xc
 1667 022c 0000 0000 	.long.LASF35
 1668 0230 08        	.byte0x8
 1669 0231 06        	.byte0x6
 1670 0232 28        	.byte0x28
 1671 0233 0000 0250 	.long0x250
 1672 0237 07        	.uleb128 0x7
 1673 0238 0000 0000 	.long.LASF32
 1674 023c 06        	.byte0x6
 1675 023d 29        	.byte0x29
 1676 023e 0000 0250 	.long0x250
 1677 0242 00        	.byte0
 1678 0243 07        	.uleb128 0x7
 1679 0244 0000 0000 	.long.LASF33
 1680 0248 06        	.byte0x6
 1681 0249 2A        	.byte0x2a
 1682 024a 0000 0250 	.long0x250
 1683 024e 04        	.byte0x4
 1684 024f 00        	.byte0
 1685 0250 03        	.uleb128 0x3
 1686 0251 04        	.byte0x4
 1687 0252 07        	.byte0x7
 1688 0253 0000 0000 	.long.LASF34
 1689 0257 0C        	.uleb128 0xc
 1690 0258 0000 0000 	.long.LASF36
 1691 025c 14        	.byte0x14
 1692 025d 06        	.byte0x6
 1693 025e 2D        	.byte0x2d
 1694 025f 0000 0294 	.long0x294
 1695 0263 07        	.uleb128 0x7
 1696 0264 0000 0000 	.long.LASF37
 1697 0268 06        	.byte0x6
 1698 0269 2E        	.byte0x2e
 1699 026a 0000 022B 	.long0x22b
 1700 026e 00        	.byte0
 1701 026f 07        	.uleb128 0x7
 1702 0270 0000 0000 	.long.LASF38
 1703 0274 06        	.byte0x6
68K GAS   			page 45


 1704 0275 2F        	.byte0x2f
 1705 0276 0000 0299 	.long0x299
 1706 027a 08        	.byte0x8
 1707 027b 07        	.uleb128 0x7
 1708 027c 0000 0000 	.long.LASF39
 1709 0280 06        	.byte0x6
 1710 0281 30        	.byte0x30
 1711 0282 0000 02A4 	.long0x2a4
 1712 0286 0C        	.byte0xc
 1713 0287 07        	.uleb128 0x7
 1714 0288 0000 0000 	.long.LASF40
 1715 028c 06        	.byte0x6
 1716 028d 31        	.byte0x31
 1717 028e 0000 02AA 	.long0x2aa
 1718 0292 10        	.byte0x10
 1719 0293 00        	.byte0
 1720 0294 0D        	.uleb128 0xd
 1721 0295 0000 0000 	.long.LASF41
 1722 0299 0E        	.uleb128 0xe
 1723 029a 04        	.byte0x4
 1724 029b 0000 0294 	.long0x294
 1725 029f 0D        	.uleb128 0xd
 1726 02a0 0000 0000 	.long.LASF42
 1727 02a4 0E        	.uleb128 0xe
 1728 02a5 04        	.byte0x4
 1729 02a6 0000 029F 	.long0x29f
 1730 02aa 0E        	.uleb128 0xe
 1731 02ab 04        	.byte0x4
 1732 02ac 0000 00BD 	.long0xbd
 1733 02b0 0C        	.uleb128 0xc
 1734 02b1 0000 0000 	.long.LASF43
 1735 02b5 14        	.byte0x14
 1736 02b6 06        	.byte0x6
 1737 02b7 34        	.byte0x34
 1738 02b8 0000 02C9 	.long0x2c9
 1739 02bc 07        	.uleb128 0x7
 1740 02bd 0000 0000 	.long.LASF44
 1741 02c1 06        	.byte0x6
 1742 02c2 35        	.byte0x35
 1743 02c3 0000 0257 	.long0x257
 1744 02c7 00        	.byte0
 1745 02c8 00        	.byte0
 1746 02c9 0C        	.uleb128 0xc
 1747 02ca 0000 0000 	.long.LASF45
 1748 02ce 18        	.byte0x18
 1749 02cf 06        	.byte0x6
 1750 02d0 38        	.byte0x38
 1751 02d1 0000 02EE 	.long0x2ee
 1752 02d5 07        	.uleb128 0x7
 1753 02d6 0000 0000 	.long.LASF46
 1754 02da 06        	.byte0x6
 1755 02db 39        	.byte0x39
 1756 02dc 0000 02B0 	.long0x2b0
 1757 02e0 00        	.byte0
 1758 02e1 07        	.uleb128 0x7
 1759 02e2 0000 0000 	.long.LASF47
 1760 02e6 06        	.byte0x6
68K GAS   			page 46


 1761 02e7 3A        	.byte0x3a
 1762 02e8 0000 0250 	.long0x250
 1763 02ec 14        	.byte0x14
 1764 02ed 00        	.byte0
 1765 02ee 04        	.uleb128 0x4
 1766 02ef 0000 0000 	.long.LASF48
 1767 02f3 06        	.byte0x6
 1768 02f4 0171      	.word0x171
 1769 02f6 0000 02C9 	.long0x2c9
 1770 02fa 02        	.uleb128 0x2
 1771 02fb 0000 0000 	.long.LASF49
 1772 02ff 07        	.byte0x7
 1773 0300 91        	.byte0x91
 1774 0301 0000 005B 	.long0x5b
 1775 0305 04        	.uleb128 0x4
 1776 0306 0000 0000 	.long.LASF50
 1777 030a 08        	.byte0x8
 1778 030b 0165      	.word0x165
 1779 030d 0000 0250 	.long0x250
 1780 0311 0F        	.uleb128 0xf
 1781 0312 04        	.byte0x4
 1782 0313 07        	.byte0x7
 1783 0314 A6        	.byte0xa6
 1784 0315 0000 0330 	.long0x330
 1785 0319 10        	.uleb128 0x10
 1786 031a 0000 0000 	.long.LASF51
 1787 031e 07        	.byte0x7
 1788 031f A8        	.byte0xa8
 1789 0320 0000 0305 	.long0x305
 1790 0324 10        	.uleb128 0x10
 1791 0325 0000 0000 	.long.LASF52
 1792 0329 07        	.byte0x7
 1793 032a A9        	.byte0xa9
 1794 032b 0000 0330 	.long0x330
 1795 032f 00        	.byte0
 1796 0330 08        	.uleb128 0x8
 1797 0331 0000 0030 	.long0x30
 1798 0335 0000 0340 	.long0x340
 1799 0339 09        	.uleb128 0x9
 1800 033a 0000 0091 	.long0x91
 1801 033e 03        	.byte0x3
 1802 033f 00        	.byte0
 1803 0340 06        	.uleb128 0x6
 1804 0341 08        	.byte0x8
 1805 0342 07        	.byte0x7
 1806 0343 A3        	.byte0xa3
 1807 0344 0000 0361 	.long0x361
 1808 0348 07        	.uleb128 0x7
 1809 0349 0000 0000 	.long.LASF53
 1810 034d 07        	.byte0x7
 1811 034e A5        	.byte0xa5
 1812 034f 0000 0224 	.long0x224
 1813 0353 00        	.byte0
 1814 0354 07        	.uleb128 0x7
 1815 0355 0000 0000 	.long.LASF54
 1816 0359 07        	.byte0x7
 1817 035a AA        	.byte0xaa
68K GAS   			page 47


 1818 035b 0000 0311 	.long0x311
 1819 035f 04        	.byte0x4
 1820 0360 00        	.byte0
 1821 0361 02        	.uleb128 0x2
 1822 0362 0000 0000 	.long.LASF55
 1823 0366 07        	.byte0x7
 1824 0367 AB        	.byte0xab
 1825 0368 0000 0340 	.long0x340
 1826 036c 02        	.uleb128 0x2
 1827 036d 0000 0000 	.long.LASF56
 1828 0371 07        	.byte0x7
 1829 0372 AF        	.byte0xaf
 1830 0373 0000 02EE 	.long0x2ee
 1831 0377 02        	.uleb128 0x2
 1832 0378 0000 0000 	.long.LASF57
 1833 037c 09        	.byte0x9
 1834 037d 16        	.byte0x16
 1835 037e 0000 0091 	.long0x91
 1836 0382 0C        	.uleb128 0xc
 1837 0383 0000 0000 	.long.LASF58
 1838 0387 18        	.byte0x18
 1839 0388 09        	.byte0x9
 1840 0389 2F        	.byte0x2f
 1841 038a 0000 03D5 	.long0x3d5
 1842 038e 07        	.uleb128 0x7
 1843 038f 0000 0000 	.long.LASF59
 1844 0393 09        	.byte0x9
 1845 0394 31        	.byte0x31
 1846 0395 0000 03D5 	.long0x3d5
 1847 0399 00        	.byte0
 1848 039a 11        	.uleb128 0x11
 1849 039b 5F6B 00   	.string"_k"
 1850 039e 09        	.byte0x9
 1851 039f 32        	.byte0x32
 1852 03a0 0000 0224 	.long0x224
 1853 03a4 04        	.byte0x4
 1854 03a5 07        	.uleb128 0x7
 1855 03a6 0000 0000 	.long.LASF60
 1856 03aa 09        	.byte0x9
 1857 03ab 32        	.byte0x32
 1858 03ac 0000 0224 	.long0x224
 1859 03b0 08        	.byte0x8
 1860 03b1 07        	.uleb128 0x7
 1861 03b2 0000 0000 	.long.LASF61
 1862 03b6 09        	.byte0x9
 1863 03b7 32        	.byte0x32
 1864 03b8 0000 0224 	.long0x224
 1865 03bc 0C        	.byte0xc
 1866 03bd 07        	.uleb128 0x7
 1867 03be 0000 0000 	.long.LASF62
 1868 03c2 09        	.byte0x9
 1869 03c3 32        	.byte0x32
 1870 03c4 0000 0224 	.long0x224
 1871 03c8 10        	.byte0x10
 1872 03c9 11        	.uleb128 0x11
 1873 03ca 5F78 00   	.string"_x"
 1874 03cd 09        	.byte0x9
68K GAS   			page 48


 1875 03ce 33        	.byte0x33
 1876 03cf 0000 03DB 	.long0x3db
 1877 03d3 14        	.byte0x14
 1878 03d4 00        	.byte0
 1879 03d5 0E        	.uleb128 0xe
 1880 03d6 04        	.byte0x4
 1881 03d7 0000 0382 	.long0x382
 1882 03db 08        	.uleb128 0x8
 1883 03dc 0000 0377 	.long0x377
 1884 03e0 0000 03EB 	.long0x3eb
 1885 03e4 09        	.uleb128 0x9
 1886 03e5 0000 0091 	.long0x91
 1887 03e9 00        	.byte0
 1888 03ea 00        	.byte0
 1889 03eb 0C        	.uleb128 0xc
 1890 03ec 0000 0000 	.long.LASF63
 1891 03f0 24        	.byte0x24
 1892 03f1 09        	.byte0x9
 1893 03f2 37        	.byte0x37
 1894 03f3 0000 0464 	.long0x464
 1895 03f7 07        	.uleb128 0x7
 1896 03f8 0000 0000 	.long.LASF64
 1897 03fc 09        	.byte0x9
 1898 03fd 39        	.byte0x39
 1899 03fe 0000 0224 	.long0x224
 1900 0402 00        	.byte0
 1901 0403 07        	.uleb128 0x7
 1902 0404 0000 0000 	.long.LASF65
 1903 0408 09        	.byte0x9
 1904 0409 3A        	.byte0x3a
 1905 040a 0000 0224 	.long0x224
 1906 040e 04        	.byte0x4
 1907 040f 07        	.uleb128 0x7
 1908 0410 0000 0000 	.long.LASF66
 1909 0414 09        	.byte0x9
 1910 0415 3B        	.byte0x3b
 1911 0416 0000 0224 	.long0x224
 1912 041a 08        	.byte0x8
 1913 041b 07        	.uleb128 0x7
 1914 041c 0000 0000 	.long.LASF67
 1915 0420 09        	.byte0x9
 1916 0421 3C        	.byte0x3c
 1917 0422 0000 0224 	.long0x224
 1918 0426 0C        	.byte0xc
 1919 0427 07        	.uleb128 0x7
 1920 0428 0000 0000 	.long.LASF68
 1921 042c 09        	.byte0x9
 1922 042d 3D        	.byte0x3d
 1923 042e 0000 0224 	.long0x224
 1924 0432 10        	.byte0x10
 1925 0433 07        	.uleb128 0x7
 1926 0434 0000 0000 	.long.LASF69
 1927 0438 09        	.byte0x9
 1928 0439 3E        	.byte0x3e
 1929 043a 0000 0224 	.long0x224
 1930 043e 14        	.byte0x14
 1931 043f 07        	.uleb128 0x7
68K GAS   			page 49


 1932 0440 0000 0000 	.long.LASF70
 1933 0444 09        	.byte0x9
 1934 0445 3F        	.byte0x3f
 1935 0446 0000 0224 	.long0x224
 1936 044a 18        	.byte0x18
 1937 044b 07        	.uleb128 0x7
 1938 044c 0000 0000 	.long.LASF71
 1939 0450 09        	.byte0x9
 1940 0451 40        	.byte0x40
 1941 0452 0000 0224 	.long0x224
 1942 0456 1C        	.byte0x1c
 1943 0457 07        	.uleb128 0x7
 1944 0458 0000 0000 	.long.LASF72
 1945 045c 09        	.byte0x9
 1946 045d 41        	.byte0x41
 1947 045e 0000 0224 	.long0x224
 1948 0462 20        	.byte0x20
 1949 0463 00        	.byte0
 1950 0464 12        	.uleb128 0x12
 1951 0465 0000 0000 	.long.LASF73
 1952 0469 0108      	.word0x108
 1953 046b 09        	.byte0x9
 1954 046c 4A        	.byte0x4a
 1955 046d 0000 04A4 	.long0x4a4
 1956 0471 07        	.uleb128 0x7
 1957 0472 0000 0000 	.long.LASF74
 1958 0476 09        	.byte0x9
 1959 0477 4B        	.byte0x4b
 1960 0478 0000 04A4 	.long0x4a4
 1961 047c 00        	.byte0
 1962 047d 07        	.uleb128 0x7
 1963 047e 0000 0000 	.long.LASF75
 1964 0482 09        	.byte0x9
 1965 0483 4C        	.byte0x4c
 1966 0484 0000 04A4 	.long0x4a4
 1967 0488 80        	.byte0x80
 1968 0489 13        	.uleb128 0x13
 1969 048a 0000 0000 	.long.LASF76
 1970 048e 09        	.byte0x9
 1971 048f 4E        	.byte0x4e
 1972 0490 0000 0377 	.long0x377
 1973 0494 0100      	.word0x100
 1974 0496 13        	.uleb128 0x13
 1975 0497 0000 0000 	.long.LASF77
 1976 049b 09        	.byte0x9
 1977 049c 51        	.byte0x51
 1978 049d 0000 0377 	.long0x377
 1979 04a1 0104      	.word0x104
 1980 04a3 00        	.byte0
 1981 04a4 08        	.uleb128 0x8
 1982 04a5 0000 01FA 	.long0x1fa
 1983 04a9 0000 04B4 	.long0x4b4
 1984 04ad 09        	.uleb128 0x9
 1985 04ae 0000 0091 	.long0x91
 1986 04b2 1F        	.byte0x1f
 1987 04b3 00        	.byte0
 1988 04b4 12        	.uleb128 0x12
68K GAS   			page 50


 1989 04b5 0000 0000 	.long.LASF78
 1990 04b9 0190      	.word0x190
 1991 04bb 09        	.byte0x9
 1992 04bc 5D        	.byte0x5d
 1993 04bd 0000 04F2 	.long0x4f2
 1994 04c1 07        	.uleb128 0x7
 1995 04c2 0000 0000 	.long.LASF59
 1996 04c6 09        	.byte0x9
 1997 04c7 5E        	.byte0x5e
 1998 04c8 0000 04F2 	.long0x4f2
 1999 04cc 00        	.byte0
 2000 04cd 07        	.uleb128 0x7
 2001 04ce 0000 0000 	.long.LASF79
 2002 04d2 09        	.byte0x9
 2003 04d3 5F        	.byte0x5f
 2004 04d4 0000 0224 	.long0x224
 2005 04d8 04        	.byte0x4
 2006 04d9 07        	.uleb128 0x7
 2007 04da 0000 0000 	.long.LASF80
 2008 04de 09        	.byte0x9
 2009 04df 61        	.byte0x61
 2010 04e0 0000 04F8 	.long0x4f8
 2011 04e4 08        	.byte0x8
 2012 04e5 07        	.uleb128 0x7
 2013 04e6 0000 0000 	.long.LASF73
 2014 04ea 09        	.byte0x9
 2015 04eb 62        	.byte0x62
 2016 04ec 0000 0464 	.long0x464
 2017 04f0 88        	.byte0x88
 2018 04f1 00        	.byte0
 2019 04f2 0E        	.uleb128 0xe
 2020 04f3 04        	.byte0x4
 2021 04f4 0000 04B4 	.long0x4b4
 2022 04f8 08        	.uleb128 0x8
 2023 04f9 0000 0508 	.long0x508
 2024 04fd 0000 0508 	.long0x508
 2025 0501 09        	.uleb128 0x9
 2026 0502 0000 0091 	.long0x91
 2027 0506 1F        	.byte0x1f
 2028 0507 00        	.byte0
 2029 0508 0E        	.uleb128 0xe
 2030 0509 04        	.byte0x4
 2031 050a 0000 050E 	.long0x50e
 2032 050e 14        	.uleb128 0x14
 2033 050f 0C        	.uleb128 0xc
 2034 0510 0000 0000 	.long.LASF81
 2035 0514 08        	.byte0x8
 2036 0515 09        	.byte0x9
 2037 0516 75        	.byte0x75
 2038 0517 0000 0534 	.long0x534
 2039 051b 07        	.uleb128 0x7
 2040 051c 0000 0000 	.long.LASF82
 2041 0520 09        	.byte0x9
 2042 0521 76        	.byte0x76
 2043 0522 0000 0534 	.long0x534
 2044 0526 00        	.byte0
 2045 0527 07        	.uleb128 0x7
68K GAS   			page 51


 2046 0528 0000 0000 	.long.LASF83
 2047 052c 09        	.byte0x9
 2048 052d 77        	.byte0x77
 2049 052e 0000 0224 	.long0x224
 2050 0532 04        	.byte0x4
 2051 0533 00        	.byte0
 2052 0534 0E        	.uleb128 0xe
 2053 0535 04        	.byte0x4
 2054 0536 0000 0030 	.long0x30
 2055 053a 0C        	.uleb128 0xc
 2056 053b 0000 0000 	.long.LASF84
 2057 053f 80        	.byte0x80
 2058 0540 09        	.byte0x9
 2059 0541 B5        	.byte0xb5
 2060 0542 0000 0664 	.long0x664
 2061 0546 11        	.uleb128 0x11
 2062 0547 5F70 00   	.string"_p"
 2063 054a 09        	.byte0x9
 2064 054b B6        	.byte0xb6
 2065 054c 0000 0534 	.long0x534
 2066 0550 00        	.byte0
 2067 0551 11        	.uleb128 0x11
 2068 0552 5F72 00   	.string"_r"
 2069 0555 09        	.byte0x9
 2070 0556 B7        	.byte0xb7
 2071 0557 0000 0224 	.long0x224
 2072 055b 04        	.byte0x4
 2073 055c 11        	.uleb128 0x11
 2074 055d 5F77 00   	.string"_w"
 2075 0560 09        	.byte0x9
 2076 0561 B8        	.byte0xb8
 2077 0562 0000 0224 	.long0x224
 2078 0566 08        	.byte0x8
 2079 0567 07        	.uleb128 0x7
 2080 0568 0000 0000 	.long.LASF85
 2081 056c 09        	.byte0x9
 2082 056d B9        	.byte0xb9
 2083 056e 0000 0049 	.long0x49
 2084 0572 0C        	.byte0xc
 2085 0573 07        	.uleb128 0x7
 2086 0574 0000 0000 	.long.LASF86
 2087 0578 09        	.byte0x9
 2088 0579 BA        	.byte0xba
 2089 057a 0000 0049 	.long0x49
 2090 057e 0E        	.byte0xe
 2091 057f 11        	.uleb128 0x11
 2092 0580 5F62 6600 	.string"_bf"
 2093 0584 09        	.byte0x9
 2094 0585 BB        	.byte0xbb
 2095 0586 0000 050F 	.long0x50f
 2096 058a 10        	.byte0x10
 2097 058b 07        	.uleb128 0x7
 2098 058c 0000 0000 	.long.LASF87
 2099 0590 09        	.byte0x9
 2100 0591 BC        	.byte0xbc
 2101 0592 0000 0224 	.long0x224
 2102 0596 18        	.byte0x18
68K GAS   			page 52


 2103 0597 07        	.uleb128 0x7
 2104 0598 0000 0000 	.long.LASF88
 2105 059c 09        	.byte0x9
 2106 059d C3        	.byte0xc3
 2107 059e 0000 01FA 	.long0x1fa
 2108 05a2 1C        	.byte0x1c
 2109 05a3 07        	.uleb128 0x7
 2110 05a4 0000 0000 	.long.LASF89
 2111 05a8 09        	.byte0x9
 2112 05a9 C5        	.byte0xc5
 2113 05aa 0000 079B 	.long0x79b
 2114 05ae 20        	.byte0x20
 2115 05af 07        	.uleb128 0x7
 2116 05b0 0000 0000 	.long.LASF90
 2117 05b4 09        	.byte0x9
 2118 05b5 C7        	.byte0xc7
 2119 05b6 0000 07BF 	.long0x7bf
 2120 05ba 24        	.byte0x24
 2121 05bb 07        	.uleb128 0x7
 2122 05bc 0000 0000 	.long.LASF91
 2123 05c0 09        	.byte0x9
 2124 05c1 CA        	.byte0xca
 2125 05c2 0000 07E3 	.long0x7e3
 2126 05c6 28        	.byte0x28
 2127 05c7 07        	.uleb128 0x7
 2128 05c8 0000 0000 	.long.LASF92
 2129 05cc 09        	.byte0x9
 2130 05cd CB        	.byte0xcb
 2131 05ce 0000 07FD 	.long0x7fd
 2132 05d2 2C        	.byte0x2c
 2133 05d3 11        	.uleb128 0x11
 2134 05d4 5F75 6200 	.string"_ub"
 2135 05d8 09        	.byte0x9
 2136 05d9 CE        	.byte0xce
 2137 05da 0000 050F 	.long0x50f
 2138 05de 30        	.byte0x30
 2139 05df 11        	.uleb128 0x11
 2140 05e0 5F75 7000 	.string"_up"
 2141 05e4 09        	.byte0x9
 2142 05e5 CF        	.byte0xcf
 2143 05e6 0000 0534 	.long0x534
 2144 05ea 38        	.byte0x38
 2145 05eb 11        	.uleb128 0x11
 2146 05ec 5F75 7200 	.string"_ur"
 2147 05f0 09        	.byte0x9
 2148 05f1 D0        	.byte0xd0
 2149 05f2 0000 0224 	.long0x224
 2150 05f6 3C        	.byte0x3c
 2151 05f7 07        	.uleb128 0x7
 2152 05f8 0000 0000 	.long.LASF93
 2153 05fc 09        	.byte0x9
 2154 05fd D3        	.byte0xd3
 2155 05fe 0000 0803 	.long0x803
 2156 0602 40        	.byte0x40
 2157 0603 07        	.uleb128 0x7
 2158 0604 0000 0000 	.long.LASF94
 2159 0608 09        	.byte0x9
68K GAS   			page 53


 2160 0609 D4        	.byte0xd4
 2161 060a 0000 0813 	.long0x813
 2162 060e 43        	.byte0x43
 2163 060f 11        	.uleb128 0x11
 2164 0610 5F6C 6200 	.string"_lb"
 2165 0614 09        	.byte0x9
 2166 0615 D7        	.byte0xd7
 2167 0616 0000 050F 	.long0x50f
 2168 061a 44        	.byte0x44
 2169 061b 07        	.uleb128 0x7
 2170 061c 0000 0000 	.long.LASF95
 2171 0620 09        	.byte0x9
 2172 0621 DA        	.byte0xda
 2173 0622 0000 0224 	.long0x224
 2174 0626 4C        	.byte0x4c
 2175 0627 07        	.uleb128 0x7
 2176 0628 0000 0000 	.long.LASF96
 2177 062c 09        	.byte0x9
 2178 062d DB        	.byte0xdb
 2179 062e 0000 020E 	.long0x20e
 2180 0632 50        	.byte0x50
 2181 0633 07        	.uleb128 0x7
 2182 0634 0000 0000 	.long.LASF97
 2183 0638 09        	.byte0x9
 2184 0639 DE        	.byte0xde
 2185 063a 0000 0682 	.long0x682
 2186 063e 58        	.byte0x58
 2187 063f 07        	.uleb128 0x7
 2188 0640 0000 0000 	.long.LASF98
 2189 0644 09        	.byte0x9
 2190 0645 E2        	.byte0xe2
 2191 0646 0000 036C 	.long0x36c
 2192 064a 5C        	.byte0x5c
 2193 064b 07        	.uleb128 0x7
 2194 064c 0000 0000 	.long.LASF99
 2195 0650 09        	.byte0x9
 2196 0651 E4        	.byte0xe4
 2197 0652 0000 0361 	.long0x361
 2198 0656 74        	.byte0x74
 2199 0657 07        	.uleb128 0x7
 2200 0658 0000 0000 	.long.LASF100
 2201 065c 09        	.byte0x9
 2202 065d E5        	.byte0xe5
 2203 065e 0000 0224 	.long0x224
 2204 0662 7C        	.byte0x7c
 2205 0663 00        	.byte0
 2206 0664 15        	.uleb128 0x15
 2207 0665 0000 02FA 	.long0x2fa
 2208 0669 0000 0682 	.long0x682
 2209 066d 16        	.uleb128 0x16
 2210 066e 0000 0682 	.long0x682
 2211 0672 16        	.uleb128 0x16
 2212 0673 0000 01FA 	.long0x1fa
 2213 0677 16        	.uleb128 0x16
 2214 0678 0000 0795 	.long0x795
 2215 067c 16        	.uleb128 0x16
 2216 067d 0000 0224 	.long0x224
68K GAS   			page 54


 2217 0681 00        	.byte0
 2218 0682 0E        	.uleb128 0xe
 2219 0683 04        	.byte0x4
 2220 0684 0000 068D 	.long0x68d
 2221 0688 05        	.uleb128 0x5
 2222 0689 0000 0682 	.long0x682
 2223 068d 17        	.uleb128 0x17
 2224 068e 0000 0000 	.long.LASF101
 2225 0692 0158      	.word0x158
 2226 0694 09        	.byte0x9
 2227 0695 0239      	.word0x239
 2228 0697 0000 0795 	.long0x795
 2229 069b 18        	.uleb128 0x18
 2230 069c 0000 0000 	.long.LASF102
 2231 06a0 09        	.byte0x9
 2232 06a1 023B      	.word0x23b
 2233 06a3 0000 0224 	.long0x224
 2234 06a7 00        	.byte0
 2235 06a8 18        	.uleb128 0x18
 2236 06a9 0000 0000 	.long.LASF103
 2237 06ad 09        	.byte0x9
 2238 06ae 0240      	.word0x240
 2239 06b0 0000 086A 	.long0x86a
 2240 06b4 04        	.byte0x4
 2241 06b5 18        	.uleb128 0x18
 2242 06b6 0000 0000 	.long.LASF104
 2243 06ba 09        	.byte0x9
 2244 06bb 0240      	.word0x240
 2245 06bd 0000 086A 	.long0x86a
 2246 06c1 08        	.byte0x8
 2247 06c2 18        	.uleb128 0x18
 2248 06c3 0000 0000 	.long.LASF105
 2249 06c7 09        	.byte0x9
 2250 06c8 0240      	.word0x240
 2251 06ca 0000 086A 	.long0x86a
 2252 06ce 0C        	.byte0xc
 2253 06cf 18        	.uleb128 0x18
 2254 06d0 0000 0000 	.long.LASF106
 2255 06d4 09        	.byte0x9
 2256 06d5 0242      	.word0x242
 2257 06d7 0000 0224 	.long0x224
 2258 06db 10        	.byte0x10
 2259 06dc 18        	.uleb128 0x18
 2260 06dd 0000 0000 	.long.LASF107
 2261 06e1 09        	.byte0x9
 2262 06e2 0243      	.word0x243
 2263 06e4 0000 0A4C 	.long0xa4c
 2264 06e8 14        	.byte0x14
 2265 06e9 18        	.uleb128 0x18
 2266 06ea 0000 0000 	.long.LASF108
 2267 06ee 09        	.byte0x9
 2268 06ef 0246      	.word0x246
 2269 06f1 0000 0224 	.long0x224
 2270 06f5 30        	.byte0x30
 2271 06f6 18        	.uleb128 0x18
 2272 06f7 0000 0000 	.long.LASF109
 2273 06fb 09        	.byte0x9
68K GAS   			page 55


 2274 06fc 0247      	.word0x247
 2275 06fe 0000 0A61 	.long0xa61
 2276 0702 34        	.byte0x34
 2277 0703 18        	.uleb128 0x18
 2278 0704 0000 0000 	.long.LASF110
 2279 0708 09        	.byte0x9
 2280 0709 0249      	.word0x249
 2281 070b 0000 0224 	.long0x224
 2282 070f 38        	.byte0x38
 2283 0710 18        	.uleb128 0x18
 2284 0711 0000 0000 	.long.LASF111
 2285 0715 09        	.byte0x9
 2286 0716 024B      	.word0x24b
 2287 0718 0000 0A72 	.long0xa72
 2288 071c 3C        	.byte0x3c
 2289 071d 18        	.uleb128 0x18
 2290 071e 0000 0000 	.long.LASF112
 2291 0722 09        	.byte0x9
 2292 0723 024E      	.word0x24e
 2293 0725 0000 03D5 	.long0x3d5
 2294 0729 40        	.byte0x40
 2295 072a 18        	.uleb128 0x18
 2296 072b 0000 0000 	.long.LASF113
 2297 072f 09        	.byte0x9
 2298 0730 024F      	.word0x24f
 2299 0732 0000 0224 	.long0x224
 2300 0736 44        	.byte0x44
 2301 0737 18        	.uleb128 0x18
 2302 0738 0000 0000 	.long.LASF114
 2303 073c 09        	.byte0x9
 2304 073d 0250      	.word0x250
 2305 073f 0000 03D5 	.long0x3d5
 2306 0743 48        	.byte0x48
 2307 0744 18        	.uleb128 0x18
 2308 0745 0000 0000 	.long.LASF115
 2309 0749 09        	.byte0x9
 2310 074a 0251      	.word0x251
 2311 074c 0000 0A78 	.long0xa78
 2312 0750 4C        	.byte0x4c
 2313 0751 18        	.uleb128 0x18
 2314 0752 0000 0000 	.long.LASF116
 2315 0756 09        	.byte0x9
 2316 0757 0254      	.word0x254
 2317 0759 0000 0224 	.long0x224
 2318 075d 50        	.byte0x50
 2319 075e 18        	.uleb128 0x18
 2320 075f 0000 0000 	.long.LASF117
 2321 0763 09        	.byte0x9
 2322 0764 0255      	.word0x255
 2323 0766 0000 0795 	.long0x795
 2324 076a 54        	.byte0x54
 2325 076b 18        	.uleb128 0x18
 2326 076c 0000 0000 	.long.LASF118
 2327 0770 09        	.byte0x9
 2328 0771 0278      	.word0x278
 2329 0773 0000 0A2A 	.long0xa2a
 2330 0777 58        	.byte0x58
68K GAS   			page 56


 2331 0778 19        	.uleb128 0x19
 2332 0779 0000 0000 	.long.LASF119
 2333 077d 09        	.byte0x9
 2334 077e 0281      	.word0x281
 2335 0780 0000 0A89 	.long0xa89
 2336 0784 0148      	.word0x148
 2337 0786 19        	.uleb128 0x19
 2338 0787 0000 0000 	.long.LASF120
 2339 078b 09        	.byte0x9
 2340 078c 0286      	.word0x286
 2341 078e 0000 082F 	.long0x82f
 2342 0792 014C      	.word0x14c
 2343 0794 00        	.byte0
 2344 0795 0E        	.uleb128 0xe
 2345 0796 04        	.byte0x4
 2346 0797 0000 00B6 	.long0xb6
 2347 079b 0E        	.uleb128 0xe
 2348 079c 04        	.byte0x4
 2349 079d 0000 0664 	.long0x664
 2350 07a1 15        	.uleb128 0x15
 2351 07a2 0000 02FA 	.long0x2fa
 2352 07a6 0000 07BF 	.long0x7bf
 2353 07aa 16        	.uleb128 0x16
 2354 07ab 0000 0682 	.long0x682
 2355 07af 16        	.uleb128 0x16
 2356 07b0 0000 01FA 	.long0x1fa
 2357 07b4 16        	.uleb128 0x16
 2358 07b5 0000 02AA 	.long0x2aa
 2359 07b9 16        	.uleb128 0x16
 2360 07ba 0000 0224 	.long0x224
 2361 07be 00        	.byte0
 2362 07bf 0E        	.uleb128 0xe
 2363 07c0 04        	.byte0x4
 2364 07c1 0000 07A1 	.long0x7a1
 2365 07c5 15        	.uleb128 0x15
 2366 07c6 0000 0219 	.long0x219
 2367 07ca 0000 07E3 	.long0x7e3
 2368 07ce 16        	.uleb128 0x16
 2369 07cf 0000 0682 	.long0x682
 2370 07d3 16        	.uleb128 0x16
 2371 07d4 0000 01FA 	.long0x1fa
 2372 07d8 16        	.uleb128 0x16
 2373 07d9 0000 0219 	.long0x219
 2374 07dd 16        	.uleb128 0x16
 2375 07de 0000 0224 	.long0x224
 2376 07e2 00        	.byte0
 2377 07e3 0E        	.uleb128 0xe
 2378 07e4 04        	.byte0x4
 2379 07e5 0000 07C5 	.long0x7c5
 2380 07e9 15        	.uleb128 0x15
 2381 07ea 0000 0224 	.long0x224
 2382 07ee 0000 07FD 	.long0x7fd
 2383 07f2 16        	.uleb128 0x16
 2384 07f3 0000 0682 	.long0x682
 2385 07f7 16        	.uleb128 0x16
 2386 07f8 0000 01FA 	.long0x1fa
 2387 07fc 00        	.byte0
68K GAS   			page 57


 2388 07fd 0E        	.uleb128 0xe
 2389 07fe 04        	.byte0x4
 2390 07ff 0000 07E9 	.long0x7e9
 2391 0803 08        	.uleb128 0x8
 2392 0804 0000 0030 	.long0x30
 2393 0808 0000 0813 	.long0x813
 2394 080c 09        	.uleb128 0x9
 2395 080d 0000 0091 	.long0x91
 2396 0811 02        	.byte0x2
 2397 0812 00        	.byte0
 2398 0813 08        	.uleb128 0x8
 2399 0814 0000 0030 	.long0x30
 2400 0818 0000 0823 	.long0x823
 2401 081c 09        	.uleb128 0x9
 2402 081d 0000 0091 	.long0x91
 2403 0821 00        	.byte0
 2404 0822 00        	.byte0
 2405 0823 04        	.uleb128 0x4
 2406 0824 0000 0000 	.long.LASF121
 2407 0828 09        	.byte0x9
 2408 0829 011F      	.word0x11f
 2409 082b 0000 053A 	.long0x53a
 2410 082f 1A        	.uleb128 0x1a
 2411 0830 0000 0000 	.long.LASF122
 2412 0834 0C        	.byte0xc
 2413 0835 09        	.byte0x9
 2414 0836 0123      	.word0x123
 2415 0838 0000 0864 	.long0x864
 2416 083c 18        	.uleb128 0x18
 2417 083d 0000 0000 	.long.LASF59
 2418 0841 09        	.byte0x9
 2419 0842 0125      	.word0x125
 2420 0844 0000 0864 	.long0x864
 2421 0848 00        	.byte0
 2422 0849 18        	.uleb128 0x18
 2423 084a 0000 0000 	.long.LASF123
 2424 084e 09        	.byte0x9
 2425 084f 0126      	.word0x126
 2426 0851 0000 0224 	.long0x224
 2427 0855 04        	.byte0x4
 2428 0856 18        	.uleb128 0x18
 2429 0857 0000 0000 	.long.LASF124
 2430 085b 09        	.byte0x9
 2431 085c 0127      	.word0x127
 2432 085e 0000 086A 	.long0x86a
 2433 0862 08        	.byte0x8
 2434 0863 00        	.byte0
 2435 0864 0E        	.uleb128 0xe
 2436 0865 04        	.byte0x4
 2437 0866 0000 082F 	.long0x82f
 2438 086a 0E        	.uleb128 0xe
 2439 086b 04        	.byte0x4
 2440 086c 0000 0823 	.long0x823
 2441 0870 1A        	.uleb128 0x1a
 2442 0871 0000 0000 	.long.LASF125
 2443 0875 0E        	.byte0xe
 2444 0876 09        	.byte0x9
68K GAS   			page 58


 2445 0877 013F      	.word0x13f
 2446 0879 0000 08A5 	.long0x8a5
 2447 087d 18        	.uleb128 0x18
 2448 087e 0000 0000 	.long.LASF126
 2449 0882 09        	.byte0x9
 2450 0883 0140      	.word0x140
 2451 0885 0000 08A5 	.long0x8a5
 2452 0889 00        	.byte0
 2453 088a 18        	.uleb128 0x18
 2454 088b 0000 0000 	.long.LASF127
 2455 088f 09        	.byte0x9
 2456 0890 0141      	.word0x141
 2457 0892 0000 08A5 	.long0x8a5
 2458 0896 06        	.byte0x6
 2459 0897 18        	.uleb128 0x18
 2460 0898 0000 0000 	.long.LASF128
 2461 089c 09        	.byte0x9
 2462 089d 0142      	.word0x142
 2463 089f 0000 007F 	.long0x7f
 2464 08a3 0C        	.byte0xc
 2465 08a4 00        	.byte0
 2466 08a5 08        	.uleb128 0x8
 2467 08a6 0000 007F 	.long0x7f
 2468 08aa 0000 08B5 	.long0x8b5
 2469 08ae 09        	.uleb128 0x9
 2470 08af 0000 0091 	.long0x91
 2471 08b3 02        	.byte0x2
 2472 08b4 00        	.byte0
 2473 08b5 1B        	.uleb128 0x1b
 2474 08b6 CC        	.byte0xcc
 2475 08b7 09        	.byte0x9
 2476 08b8 0259      	.word0x259
 2477 08ba 0000 09B6 	.long0x9b6
 2478 08be 18        	.uleb128 0x18
 2479 08bf 0000 0000 	.long.LASF129
 2480 08c3 09        	.byte0x9
 2481 08c4 025B      	.word0x25b
 2482 08c6 0000 0250 	.long0x250
 2483 08ca 00        	.byte0
 2484 08cb 18        	.uleb128 0x18
 2485 08cc 0000 0000 	.long.LASF130
 2486 08d0 09        	.byte0x9
 2487 08d1 025C      	.word0x25c
 2488 08d3 0000 0795 	.long0x795
 2489 08d7 04        	.byte0x4
 2490 08d8 18        	.uleb128 0x18
 2491 08d9 0000 0000 	.long.LASF131
 2492 08dd 09        	.byte0x9
 2493 08de 025D      	.word0x25d
 2494 08e0 0000 09B6 	.long0x9b6
 2495 08e4 08        	.byte0x8
 2496 08e5 18        	.uleb128 0x18
 2497 08e6 0000 0000 	.long.LASF132
 2498 08ea 09        	.byte0x9
 2499 08eb 025E      	.word0x25e
 2500 08ed 0000 03EB 	.long0x3eb
 2501 08f1 24        	.byte0x24
68K GAS   			page 59


 2502 08f2 18        	.uleb128 0x18
 2503 08f3 0000 0000 	.long.LASF133
 2504 08f7 09        	.byte0x9
 2505 08f8 025F      	.word0x25f
 2506 08fa 0000 0224 	.long0x224
 2507 08fe 48        	.byte0x48
 2508 08ff 18        	.uleb128 0x18
 2509 0900 0000 0000 	.long.LASF134
 2510 0904 09        	.byte0x9
 2511 0905 0260      	.word0x260
 2512 0907 0000 0098 	.long0x98
 2513 090b 4C        	.byte0x4c
 2514 090c 18        	.uleb128 0x18
 2515 090d 0000 0000 	.long.LASF135
 2516 0911 09        	.byte0x9
 2517 0912 0261      	.word0x261
 2518 0914 0000 0870 	.long0x870
 2519 0918 54        	.byte0x54
 2520 0919 18        	.uleb128 0x18
 2521 091a 0000 0000 	.long.LASF136
 2522 091e 09        	.byte0x9
 2523 091f 0262      	.word0x262
 2524 0921 0000 0361 	.long0x361
 2525 0925 64        	.byte0x64
 2526 0926 18        	.uleb128 0x18
 2527 0927 0000 0000 	.long.LASF137
 2528 092b 09        	.byte0x9
 2529 092c 0263      	.word0x263
 2530 092e 0000 0361 	.long0x361
 2531 0932 6C        	.byte0x6c
 2532 0933 18        	.uleb128 0x18
 2533 0934 0000 0000 	.long.LASF138
 2534 0938 09        	.byte0x9
 2535 0939 0264      	.word0x264
 2536 093b 0000 0361 	.long0x361
 2537 093f 74        	.byte0x74
 2538 0940 18        	.uleb128 0x18
 2539 0941 0000 0000 	.long.LASF139
 2540 0945 09        	.byte0x9
 2541 0946 0265      	.word0x265
 2542 0948 0000 09C6 	.long0x9c6
 2543 094c 7C        	.byte0x7c
 2544 094d 18        	.uleb128 0x18
 2545 094e 0000 0000 	.long.LASF140
 2546 0952 09        	.byte0x9
 2547 0953 0266      	.word0x266
 2548 0955 0000 09D6 	.long0x9d6
 2549 0959 84        	.byte0x84
 2550 095a 18        	.uleb128 0x18
 2551 095b 0000 0000 	.long.LASF141
 2552 095f 09        	.byte0x9
 2553 0960 0267      	.word0x267
 2554 0962 0000 0224 	.long0x224
 2555 0966 9C        	.byte0x9c
 2556 0967 18        	.uleb128 0x18
 2557 0968 0000 0000 	.long.LASF142
 2558 096c 09        	.byte0x9
68K GAS   			page 60


 2559 096d 0268      	.word0x268
 2560 096f 0000 0361 	.long0x361
 2561 0973 A0        	.byte0xa0
 2562 0974 18        	.uleb128 0x18
 2563 0975 0000 0000 	.long.LASF143
 2564 0979 09        	.byte0x9
 2565 097a 0269      	.word0x269
 2566 097c 0000 0361 	.long0x361
 2567 0980 A8        	.byte0xa8
 2568 0981 18        	.uleb128 0x18
 2569 0982 0000 0000 	.long.LASF144
 2570 0986 09        	.byte0x9
 2571 0987 026A      	.word0x26a
 2572 0989 0000 0361 	.long0x361
 2573 098d B0        	.byte0xb0
 2574 098e 18        	.uleb128 0x18
 2575 098f 0000 0000 	.long.LASF145
 2576 0993 09        	.byte0x9
 2577 0994 026B      	.word0x26b
 2578 0996 0000 0361 	.long0x361
 2579 099a B8        	.byte0xb8
 2580 099b 18        	.uleb128 0x18
 2581 099c 0000 0000 	.long.LASF146
 2582 09a0 09        	.byte0x9
 2583 09a1 026C      	.word0x26c
 2584 09a3 0000 0361 	.long0x361
 2585 09a7 C0        	.byte0xc0
 2586 09a8 18        	.uleb128 0x18
 2587 09a9 0000 0000 	.long.LASF147
 2588 09ad 09        	.byte0x9
 2589 09ae 026D      	.word0x26d
 2590 09b0 0000 0224 	.long0x224
 2591 09b4 C8        	.byte0xc8
 2592 09b5 00        	.byte0
 2593 09b6 08        	.uleb128 0x8
 2594 09b7 0000 00B6 	.long0xb6
 2595 09bb 0000 09C6 	.long0x9c6
 2596 09bf 09        	.uleb128 0x9
 2597 09c0 0000 0091 	.long0x91
 2598 09c4 19        	.byte0x19
 2599 09c5 00        	.byte0
 2600 09c6 08        	.uleb128 0x8
 2601 09c7 0000 00B6 	.long0xb6
 2602 09cb 0000 09D6 	.long0x9d6
 2603 09cf 09        	.uleb128 0x9
 2604 09d0 0000 0091 	.long0x91
 2605 09d4 07        	.byte0x7
 2606 09d5 00        	.byte0
 2607 09d6 08        	.uleb128 0x8
 2608 09d7 0000 00B6 	.long0xb6
 2609 09db 0000 09E6 	.long0x9e6
 2610 09df 09        	.uleb128 0x9
 2611 09e0 0000 0091 	.long0x91
 2612 09e4 17        	.byte0x17
 2613 09e5 00        	.byte0
 2614 09e6 1B        	.uleb128 0x1b
 2615 09e7 F0        	.byte0xf0
68K GAS   			page 61


 2616 09e8 09        	.byte0x9
 2617 09e9 0272      	.word0x272
 2618 09eb 0000 0A0A 	.long0xa0a
 2619 09ef 18        	.uleb128 0x18
 2620 09f0 0000 0000 	.long.LASF148
 2621 09f4 09        	.byte0x9
 2622 09f5 0275      	.word0x275
 2623 09f7 0000 0A0A 	.long0xa0a
 2624 09fb 00        	.byte0
 2625 09fc 18        	.uleb128 0x18
 2626 09fd 0000 0000 	.long.LASF149
 2627 0a01 09        	.byte0x9
 2628 0a02 0276      	.word0x276
 2629 0a04 0000 0A1A 	.long0xa1a
 2630 0a08 78        	.byte0x78
 2631 0a09 00        	.byte0
 2632 0a0a 08        	.uleb128 0x8
 2633 0a0b 0000 0534 	.long0x534
 2634 0a0f 0000 0A1A 	.long0xa1a
 2635 0a13 09        	.uleb128 0x9
 2636 0a14 0000 0091 	.long0x91
 2637 0a18 1D        	.byte0x1d
 2638 0a19 00        	.byte0
 2639 0a1a 08        	.uleb128 0x8
 2640 0a1b 0000 0250 	.long0x250
 2641 0a1f 0000 0A2A 	.long0xa2a
 2642 0a23 09        	.uleb128 0x9
 2643 0a24 0000 0091 	.long0x91
 2644 0a28 1D        	.byte0x1d
 2645 0a29 00        	.byte0
 2646 0a2a 1C        	.uleb128 0x1c
 2647 0a2b F0        	.byte0xf0
 2648 0a2c 09        	.byte0x9
 2649 0a2d 0257      	.word0x257
 2650 0a2f 0000 0A4C 	.long0xa4c
 2651 0a33 1D        	.uleb128 0x1d
 2652 0a34 0000 0000 	.long.LASF101
 2653 0a38 09        	.byte0x9
 2654 0a39 026E      	.word0x26e
 2655 0a3b 0000 08B5 	.long0x8b5
 2656 0a3f 1D        	.uleb128 0x1d
 2657 0a40 0000 0000 	.long.LASF150
 2658 0a44 09        	.byte0x9
 2659 0a45 0277      	.word0x277
 2660 0a47 0000 09E6 	.long0x9e6
 2661 0a4b 00        	.byte0
 2662 0a4c 08        	.uleb128 0x8
 2663 0a4d 0000 00B6 	.long0xb6
 2664 0a51 0000 0A5C 	.long0xa5c
 2665 0a55 09        	.uleb128 0x9
 2666 0a56 0000 0091 	.long0x91
 2667 0a5a 18        	.byte0x18
 2668 0a5b 00        	.byte0
 2669 0a5c 0D        	.uleb128 0xd
 2670 0a5d 0000 0000 	.long.LASF151
 2671 0a61 0E        	.uleb128 0xe
 2672 0a62 04        	.byte0x4
68K GAS   			page 62


 2673 0a63 0000 0A5C 	.long0xa5c
 2674 0a67 1E        	.uleb128 0x1e
 2675 0a68 0000 0A72 	.long0xa72
 2676 0a6c 16        	.uleb128 0x16
 2677 0a6d 0000 0682 	.long0x682
 2678 0a71 00        	.byte0
 2679 0a72 0E        	.uleb128 0xe
 2680 0a73 04        	.byte0x4
 2681 0a74 0000 0A67 	.long0xa67
 2682 0a78 0E        	.uleb128 0xe
 2683 0a79 04        	.byte0x4
 2684 0a7a 0000 03D5 	.long0x3d5
 2685 0a7e 1E        	.uleb128 0x1e
 2686 0a7f 0000 0A89 	.long0xa89
 2687 0a83 16        	.uleb128 0x16
 2688 0a84 0000 0224 	.long0x224
 2689 0a88 00        	.byte0
 2690 0a89 0E        	.uleb128 0xe
 2691 0a8a 04        	.byte0x4
 2692 0a8b 0000 0A8F 	.long0xa8f
 2693 0a8f 0E        	.uleb128 0xe
 2694 0a90 04        	.byte0x4
 2695 0a91 0000 0A7E 	.long0xa7e
 2696 0a95 08        	.uleb128 0x8
 2697 0a96 0000 0823 	.long0x823
 2698 0a9a 0000 0AA5 	.long0xaa5
 2699 0a9e 09        	.uleb128 0x9
 2700 0a9f 0000 0091 	.long0x91
 2701 0aa3 02        	.byte0x2
 2702 0aa4 00        	.byte0
 2703 0aa5 1F        	.uleb128 0x1f
 2704 0aa6 0000 0000 	.long.LASF152
 2705 0aaa 09        	.byte0x9
 2706 0aab 028D      	.word0x28d
 2707 0aad 0000 0A95 	.long0xa95
 2708 0ab1 1F        	.uleb128 0x1f
 2709 0ab2 0000 0000 	.long.LASF153
 2710 0ab6 09        	.byte0x9
 2711 0ab7 0307      	.word0x307
 2712 0ab9 0000 0682 	.long0x682
 2713 0abd 1F        	.uleb128 0x1f
 2714 0abe 0000 0000 	.long.LASF154
 2715 0ac2 09        	.byte0x9
 2716 0ac3 0308      	.word0x308
 2717 0ac5 0000 0688 	.long0x688
 2718 0ac9 1F        	.uleb128 0x1f
 2719 0aca 0000 0000 	.long.LASF155
 2720 0ace 09        	.byte0x9
 2721 0acf 031A      	.word0x31a
 2722 0ad1 0000 04F2 	.long0x4f2
 2723 0ad5 20        	.uleb128 0x20
 2724 0ad6 0000 0000 	.long.LASF156
 2725 0ada 0A        	.byte0xa
 2726 0adb 63        	.byte0x63
 2727 0adc 0000 0795 	.long0x795
 2728 0ae0 20        	.uleb128 0x20
 2729 0ae1 0000 0000 	.long.LASF157
68K GAS   			page 63


 2730 0ae5 0B        	.byte0xb
 2731 0ae6 9A        	.byte0x9a
 2732 0ae7 0000 005B 	.long0x5b
 2733 0aeb 20        	.uleb128 0x20
 2734 0aec 0000 0000 	.long.LASF158
 2735 0af0 0B        	.byte0xb
 2736 0af1 9B        	.byte0x9b
 2737 0af2 0000 0224 	.long0x224
 2738 0af6 08        	.uleb128 0x8
 2739 0af7 0000 0795 	.long0x795
 2740 0afb 0000 0B06 	.long0xb06
 2741 0aff 09        	.uleb128 0x9
 2742 0b00 0000 0091 	.long0x91
 2743 0b04 01        	.byte0x1
 2744 0b05 00        	.byte0
 2745 0b06 20        	.uleb128 0x20
 2746 0b07 0000 0000 	.long.LASF159
 2747 0b0b 0B        	.byte0xb
 2748 0b0c 9E        	.byte0x9e
 2749 0b0d 0000 0AF6 	.long0xaf6
 2750 0b11 08        	.uleb128 0x8
 2751 0b12 0000 00B6 	.long0xb6
 2752 0b16 0000 0B21 	.long0xb21
 2753 0b1a 09        	.uleb128 0x9
 2754 0b1b 0000 0091 	.long0x91
 2755 0b1f 3F        	.byte0x3f
 2756 0b20 00        	.byte0
 2757 0b21 06        	.uleb128 0x6
 2758 0b22 4C        	.byte0x4c
 2759 0b23 0C        	.byte0xc
 2760 0b24 DA        	.byte0xda
 2761 0b25 0000 0B5A 	.long0xb5a
 2762 0b29 07        	.uleb128 0x7
 2763 0b2a 0000 0000 	.long.LASF160
 2764 0b2e 0C        	.byte0xc
 2765 0b2f DC        	.byte0xdc
 2766 0b30 0000 0050 	.long0x50
 2767 0b34 00        	.byte0
 2768 0b35 07        	.uleb128 0x7
 2769 0b36 0000 0000 	.long.LASF161
 2770 0b3a 0C        	.byte0xc
 2771 0b3b DD        	.byte0xdd
 2772 0b3c 0000 0B11 	.long0xb11
 2773 0b40 04        	.byte0x4
 2774 0b41 07        	.uleb128 0x7
 2775 0b42 0000 0000 	.long.LASF162
 2776 0b46 0C        	.byte0xc
 2777 0b47 DE        	.byte0xde
 2778 0b48 0000 0086 	.long0x86
 2779 0b4c 44        	.byte0x44
 2780 0b4d 07        	.uleb128 0x7
 2781 0b4e 0000 0000 	.long.LASF163
 2782 0b52 0C        	.byte0xc
 2783 0b53 DF        	.byte0xdf
 2784 0b54 0000 0069 	.long0x69
 2785 0b58 48        	.byte0x48
 2786 0b59 00        	.byte0
68K GAS   			page 64


 2787 0b5a 02        	.uleb128 0x2
 2788 0b5b 0000 0000 	.long.LASF164
 2789 0b5f 0C        	.byte0xc
 2790 0b60 E0        	.byte0xe0
 2791 0b61 0000 0B21 	.long0xb21
 2792 0b65 04        	.uleb128 0x4
 2793 0b66 0000 0000 	.long.LASF165
 2794 0b6a 0D        	.byte0xd
 2795 0b6b 0103      	.word0x103
 2796 0b6d 0000 009F 	.long0x9f
 2797 0b71 1B        	.uleb128 0x1b
 2798 0b72 BC        	.byte0xbc
 2799 0b73 0D        	.byte0xd
 2800 0b74 010C      	.word0x10c
 2801 0b76 0000 0C8C 	.long0xc8c
 2802 0b7a 18        	.uleb128 0x18
 2803 0b7b 0000 0000 	.long.LASF166
 2804 0b7f 0D        	.byte0xd
 2805 0b80 010E      	.word0x10e
 2806 0b82 0000 0086 	.long0x86
 2807 0b86 00        	.byte0
 2808 0b87 18        	.uleb128 0x18
 2809 0b88 0000 0000 	.long.LASF167
 2810 0b8c 0D        	.byte0xd
 2811 0b8d 0110      	.word0x110
 2812 0b8f 0000 0086 	.long0x86
 2813 0b93 04        	.byte0x4
 2814 0b94 18        	.uleb128 0x18
 2815 0b95 0000 0000 	.long.LASF168
 2816 0b99 0D        	.byte0xd
 2817 0b9a 0113      	.word0x113
 2818 0b9c 0000 0107 	.long0x107
 2819 0ba0 08        	.byte0x8
 2820 0ba1 18        	.uleb128 0x18
 2821 0ba2 0000 0000 	.long.LASF169
 2822 0ba6 0D        	.byte0xd
 2823 0ba7 0115      	.word0x115
 2824 0ba9 0000 0107 	.long0x107
 2825 0bad 1C        	.byte0x1c
 2826 0bae 18        	.uleb128 0x18
 2827 0baf 0000 0000 	.long.LASF170
 2828 0bb3 0D        	.byte0xd
 2829 0bb4 0117      	.word0x117
 2830 0bb6 0000 0B11 	.long0xb11
 2831 0bba 30        	.byte0x30
 2832 0bbb 18        	.uleb128 0x18
 2833 0bbc 0000 0000 	.long.LASF171
 2834 0bc0 0D        	.byte0xd
 2835 0bc1 011A      	.word0x11a
 2836 0bc3 0000 0086 	.long0x86
 2837 0bc7 70        	.byte0x70
 2838 0bc8 18        	.uleb128 0x18
 2839 0bc9 0000 0000 	.long.LASF172
 2840 0bcd 0D        	.byte0xd
 2841 0bce 011C      	.word0x11c
 2842 0bd0 0000 0086 	.long0x86
 2843 0bd4 74        	.byte0x74
68K GAS   			page 65


 2844 0bd5 18        	.uleb128 0x18
 2845 0bd6 0000 0000 	.long.LASF173
 2846 0bda 0D        	.byte0xd
 2847 0bdb 011E      	.word0x11e
 2848 0bdd 0000 0086 	.long0x86
 2849 0be1 78        	.byte0x78
 2850 0be2 18        	.uleb128 0x18
 2851 0be3 0000 0000 	.long.LASF174
 2852 0be7 0D        	.byte0xd
 2853 0be8 0120      	.word0x120
 2854 0bea 0000 0086 	.long0x86
 2855 0bee 7C        	.byte0x7c
 2856 0bef 18        	.uleb128 0x18
 2857 0bf0 0000 0000 	.long.LASF175
 2858 0bf4 0D        	.byte0xd
 2859 0bf5 0122      	.word0x122
 2860 0bf7 0000 0086 	.long0x86
 2861 0bfb 80        	.byte0x80
 2862 0bfc 18        	.uleb128 0x18
 2863 0bfd 0000 0000 	.long.LASF176
 2864 0c01 0D        	.byte0xd
 2865 0c02 0124      	.word0x124
 2866 0c04 0000 0086 	.long0x86
 2867 0c08 84        	.byte0x84
 2868 0c09 18        	.uleb128 0x18
 2869 0c0a 0000 0000 	.long.LASF177
 2870 0c0e 0D        	.byte0xd
 2871 0c0f 0126      	.word0x126
 2872 0c11 0000 0086 	.long0x86
 2873 0c15 88        	.byte0x88
 2874 0c16 18        	.uleb128 0x18
 2875 0c17 0000 0000 	.long.LASF178
 2876 0c1b 0D        	.byte0xd
 2877 0c1c 0128      	.word0x128
 2878 0c1e 0000 0086 	.long0x86
 2879 0c22 8C        	.byte0x8c
 2880 0c23 18        	.uleb128 0x18
 2881 0c24 0000 0000 	.long.LASF179
 2882 0c28 0D        	.byte0xd
 2883 0c29 012A      	.word0x12a
 2884 0c2b 0000 0086 	.long0x86
 2885 0c2f 90        	.byte0x90
 2886 0c30 18        	.uleb128 0x18
 2887 0c31 0000 0000 	.long.LASF180
 2888 0c35 0D        	.byte0xd
 2889 0c36 012C      	.word0x12c
 2890 0c38 0000 0086 	.long0x86
 2891 0c3c 94        	.byte0x94
 2892 0c3d 18        	.uleb128 0x18
 2893 0c3e 0000 0000 	.long.LASF181
 2894 0c42 0D        	.byte0xd
 2895 0c43 012E      	.word0x12e
 2896 0c45 0000 0074 	.long0x74
 2897 0c49 98        	.byte0x98
 2898 0c4a 18        	.uleb128 0x18
 2899 0c4b 0000 0000 	.long.LASF182
 2900 0c4f 0D        	.byte0xd
68K GAS   			page 66


 2901 0c50 0131      	.word0x131
 2902 0c52 0000 0074 	.long0x74
 2903 0c56 9A        	.byte0x9a
 2904 0c57 18        	.uleb128 0x18
 2905 0c58 0000 0000 	.long.LASF183
 2906 0c5c 0D        	.byte0xd
 2907 0c5d 0133      	.word0x133
 2908 0c5f 0000 0086 	.long0x86
 2909 0c63 9C        	.byte0x9c
 2910 0c64 18        	.uleb128 0x18
 2911 0c65 0000 0000 	.long.LASF184
 2912 0c69 0D        	.byte0xd
 2913 0c6a 0135      	.word0x135
 2914 0c6c 0000 0086 	.long0x86
 2915 0c70 A0        	.byte0xa0
 2916 0c71 18        	.uleb128 0x18
 2917 0c72 0000 0000 	.long.LASF185
 2918 0c76 0D        	.byte0xd
 2919 0c77 0137      	.word0x137
 2920 0c79 0000 0107 	.long0x107
 2921 0c7d A4        	.byte0xa4
 2922 0c7e 18        	.uleb128 0x18
 2923 0c7f 0000 0000 	.long.LASF186
 2924 0c83 0D        	.byte0xd
 2925 0c84 0139      	.word0x139
 2926 0c86 0000 0086 	.long0x86
 2927 0c8a B8        	.byte0xb8
 2928 0c8b 00        	.byte0
 2929 0c8c 04        	.uleb128 0x4
 2930 0c8d 0000 0000 	.long.LASF187
 2931 0c91 0D        	.byte0xd
 2932 0c92 013C      	.word0x13c
 2933 0c94 0000 0B71 	.long0xb71
 2934 0c98 1B        	.uleb128 0x1b
 2935 0c99 34        	.byte0x34
 2936 0c9a 0D        	.byte0xd
 2937 0c9b 0141      	.word0x141
 2938 0c9d 0000 0CE3 	.long0xce3
 2939 0ca1 18        	.uleb128 0x18
 2940 0ca2 0000 0000 	.long.LASF188
 2941 0ca6 0D        	.byte0xd
 2942 0ca7 0143      	.word0x143
 2943 0ca9 0000 0086 	.long0x86
 2944 0cad 00        	.byte0
 2945 0cae 18        	.uleb128 0x18
 2946 0caf 0000 0000 	.long.LASF184
 2947 0cb3 0D        	.byte0xd
 2948 0cb4 0144      	.word0x144
 2949 0cb6 0000 0086 	.long0x86
 2950 0cba 04        	.byte0x4
 2951 0cbb 18        	.uleb128 0x18
 2952 0cbc 0000 0000 	.long.LASF189
 2953 0cc0 0D        	.byte0xd
 2954 0cc1 0145      	.word0x145
 2955 0cc3 0000 0CE3 	.long0xce3
 2956 0cc7 08        	.byte0x8
 2957 0cc8 18        	.uleb128 0x18
68K GAS   			page 67


 2958 0cc9 0000 0000 	.long.LASF166
 2959 0ccd 0D        	.byte0xd
 2960 0cce 0146      	.word0x146
 2961 0cd0 0000 0086 	.long0x86
 2962 0cd4 1C        	.byte0x1c
 2963 0cd5 18        	.uleb128 0x18
 2964 0cd6 0000 0000 	.long.LASF190
 2965 0cda 0D        	.byte0xd
 2966 0cdb 0147      	.word0x147
 2967 0cdd 0000 0CE3 	.long0xce3
 2968 0ce1 20        	.byte0x20
 2969 0ce2 00        	.byte0
 2970 0ce3 08        	.uleb128 0x8
 2971 0ce4 0000 0069 	.long0x69
 2972 0ce8 0000 0CF3 	.long0xcf3
 2973 0cec 09        	.uleb128 0x9
 2974 0ced 0000 0091 	.long0x91
 2975 0cf1 13        	.byte0x13
 2976 0cf2 00        	.byte0
 2977 0cf3 04        	.uleb128 0x4
 2978 0cf4 0000 0000 	.long.LASF191
 2979 0cf8 0D        	.byte0xd
 2980 0cf9 0149      	.word0x149
 2981 0cfb 0000 0C98 	.long0xc98
 2982 0cff 1B        	.uleb128 0x1b
 2983 0d00 0C        	.byte0xc
 2984 0d01 0D        	.byte0xd
 2985 0d02 014E      	.word0x14e
 2986 0d04 0000 0D30 	.long0xd30
 2987 0d08 18        	.uleb128 0x18
 2988 0d09 0000 0000 	.long.LASF192
 2989 0d0d 0D        	.byte0xd
 2990 0d0e 0150      	.word0x150
 2991 0d10 0000 0086 	.long0x86
 2992 0d14 00        	.byte0
 2993 0d15 18        	.uleb128 0x18
 2994 0d16 0000 0000 	.long.LASF193
 2995 0d1a 0D        	.byte0xd
 2996 0d1b 0151      	.word0x151
 2997 0d1d 0000 0086 	.long0x86
 2998 0d21 04        	.byte0x4
 2999 0d22 18        	.uleb128 0x18
 3000 0d23 0000 0000 	.long.LASF194
 3001 0d27 0D        	.byte0xd
 3002 0d28 0152      	.word0x152
 3003 0d2a 0000 0086 	.long0x86
 3004 0d2e 08        	.byte0x8
 3005 0d2f 00        	.byte0
 3006 0d30 04        	.uleb128 0x4
 3007 0d31 0000 0000 	.long.LASF195
 3008 0d35 0D        	.byte0xd
 3009 0d36 0153      	.word0x153
 3010 0d38 0000 0CFF 	.long0xcff
 3011 0d3c 1B        	.uleb128 0x1b
 3012 0d3d DC        	.byte0xdc
 3013 0d3e 0D        	.byte0xd
 3014 0d3f 0155      	.word0x155
68K GAS   			page 68


 3015 0d41 0000 0D87 	.long0xd87
 3016 0d45 18        	.uleb128 0x18
 3017 0d46 0000 0000 	.long.LASF196
 3018 0d4a 0D        	.byte0xd
 3019 0d4b 0157      	.word0x157
 3020 0d4d 0000 0086 	.long0x86
 3021 0d51 00        	.byte0
 3022 0d52 18        	.uleb128 0x18
 3023 0d53 0000 0000 	.long.LASF197
 3024 0d57 0D        	.byte0xd
 3025 0d58 0159      	.word0x159
 3026 0d5a 0000 0086 	.long0x86
 3027 0d5e 04        	.byte0x4
 3028 0d5f 18        	.uleb128 0x18
 3029 0d60 0000 0000 	.long.LASF198
 3030 0d64 0D        	.byte0xd
 3031 0d65 015B      	.word0x15b
 3032 0d67 0000 0086 	.long0x86
 3033 0d6b 08        	.byte0x8
 3034 0d6c 18        	.uleb128 0x18
 3035 0d6d 0000 0000 	.long.LASF199
 3036 0d71 0D        	.byte0xd
 3037 0d72 015D      	.word0x15d
 3038 0d74 0000 0086 	.long0x86
 3039 0d78 0C        	.byte0xc
 3040 0d79 18        	.uleb128 0x18
 3041 0d7a 0000 0000 	.long.LASF200
 3042 0d7e 0D        	.byte0xd
 3043 0d7f 015F      	.word0x15f
 3044 0d81 0000 0D87 	.long0xd87
 3045 0d85 10        	.byte0x10
 3046 0d86 00        	.byte0
 3047 0d87 08        	.uleb128 0x8
 3048 0d88 0000 0D30 	.long0xd30
 3049 0d8c 0000 0D97 	.long0xd97
 3050 0d90 09        	.uleb128 0x9
 3051 0d91 0000 0091 	.long0x91
 3052 0d95 10        	.byte0x10
 3053 0d96 00        	.byte0
 3054 0d97 04        	.uleb128 0x4
 3055 0d98 0000 0000 	.long.LASF201
 3056 0d9c 0D        	.byte0xd
 3057 0d9d 0161      	.word0x161
 3058 0d9f 0000 0D3C 	.long0xd3c
 3059 0da3 08        	.uleb128 0x8
 3060 0da4 0000 00B6 	.long0xb6
 3061 0da8 0000 0DB3 	.long0xdb3
 3062 0dac 09        	.uleb128 0x9
 3063 0dad 0000 0091 	.long0x91
 3064 0db1 25        	.byte0x25
 3065 0db2 00        	.byte0
 3066 0db3 06        	.uleb128 0x6
 3067 0db4 08        	.byte0x8
 3068 0db5 0E        	.byte0xe
 3069 0db6 4D        	.byte0x4d
 3070 0db7 0000 0DD4 	.long0xdd4
 3071 0dbb 07        	.uleb128 0x7
68K GAS   			page 69


 3072 0dbc 0000 0000 	.long.LASF202
 3073 0dc0 0E        	.byte0xe
 3074 0dc1 4F        	.byte0x4f
 3075 0dc2 0000 0086 	.long0x86
 3076 0dc6 00        	.byte0
 3077 0dc7 07        	.uleb128 0x7
 3078 0dc8 0000 0000 	.long.LASF203
 3079 0dcc 0E        	.byte0xe
 3080 0dcd 50        	.byte0x50
 3081 0dce 0000 0086 	.long0x86
 3082 0dd2 04        	.byte0x4
 3083 0dd3 00        	.byte0
 3084 0dd4 02        	.uleb128 0x2
 3085 0dd5 0000 0000 	.long.LASF204
 3086 0dd9 0E        	.byte0xe
 3087 0dda 51        	.byte0x51
 3088 0ddb 0000 0DB3 	.long0xdb3
 3089 0ddf 06        	.uleb128 0x6
 3090 0de0 20        	.byte0x20
 3091 0de1 0E        	.byte0xe
 3092 0de2 92        	.byte0x92
 3093 0de3 0000 0E30 	.long0xe30
 3094 0de7 07        	.uleb128 0x7
 3095 0de8 0000 0000 	.long.LASF205
 3096 0dec 0E        	.byte0xe
 3097 0ded 94        	.byte0x94
 3098 0dee 0000 0086 	.long0x86
 3099 0df2 00        	.byte0
 3100 0df3 07        	.uleb128 0x7
 3101 0df4 0000 0000 	.long.LASF206
 3102 0df8 0E        	.byte0xe
 3103 0df9 95        	.byte0x95
 3104 0dfa 0000 003E 	.long0x3e
 3105 0dfe 04        	.byte0x4
 3106 0dff 07        	.uleb128 0x7
 3107 0e00 0000 0000 	.long.LASF207
 3108 0e04 0E        	.byte0xe
 3109 0e05 96        	.byte0x96
 3110 0e06 0000 0074 	.long0x74
 3111 0e0a 06        	.byte0x6
 3112 0e0b 07        	.uleb128 0x7
 3113 0e0c 0000 0000 	.long.LASF208
 3114 0e10 0E        	.byte0xe
 3115 0e11 97        	.byte0x97
 3116 0e12 0000 0DD4 	.long0xdd4
 3117 0e16 08        	.byte0x8
 3118 0e17 07        	.uleb128 0x7
 3119 0e18 0000 0000 	.long.LASF209
 3120 0e1c 0E        	.byte0xe
 3121 0e1d 98        	.byte0x98
 3122 0e1e 0000 0DD4 	.long0xdd4
 3123 0e22 10        	.byte0x10
 3124 0e23 07        	.uleb128 0x7
 3125 0e24 0000 0000 	.long.LASF210
 3126 0e28 0E        	.byte0xe
 3127 0e29 99        	.byte0x99
 3128 0e2a 0000 0DD4 	.long0xdd4
68K GAS   			page 70


 3129 0e2e 18        	.byte0x18
 3130 0e2f 00        	.byte0
 3131 0e30 02        	.uleb128 0x2
 3132 0e31 0000 0000 	.long.LASF211
 3133 0e35 0E        	.byte0xe
 3134 0e36 9B        	.byte0x9b
 3135 0e37 0000 0DDF 	.long0xddf
 3136 0e3b 08        	.uleb128 0x8
 3137 0e3c 0000 0086 	.long0x86
 3138 0e40 0000 0E4B 	.long0xe4b
 3139 0e44 09        	.uleb128 0x9
 3140 0e45 0000 0091 	.long0x91
 3141 0e49 1F        	.byte0x1f
 3142 0e4a 00        	.byte0
 3143 0e4b 06        	.uleb128 0x6
 3144 0e4c 06        	.byte0x6
 3145 0e4d 0F        	.byte0xf
 3146 0e4e 58        	.byte0x58
 3147 0e4f 0000 0E78 	.long0xe78
 3148 0e53 07        	.uleb128 0x7
 3149 0e54 0000 0000 	.long.LASF212
 3150 0e58 0F        	.byte0xf
 3151 0e59 5A        	.byte0x5a
 3152 0e5a 0000 0E78 	.long0xe78
 3153 0e5e 00        	.byte0
 3154 0e5f 07        	.uleb128 0x7
 3155 0e60 0000 0000 	.long.LASF213
 3156 0e64 0F        	.byte0xf
 3157 0e65 61        	.byte0x61
 3158 0e66 0000 0E78 	.long0xe78
 3159 0e6a 02        	.byte0x2
 3160 0e6b 07        	.uleb128 0x7
 3161 0e6c 0000 0000 	.long.LASF214
 3162 0e70 0F        	.byte0xf
 3163 0e71 66        	.byte0x66
 3164 0e72 0000 0E78 	.long0xe78
 3165 0e76 04        	.byte0x4
 3166 0e77 00        	.byte0
 3167 0e78 08        	.uleb128 0x8
 3168 0e79 0000 0069 	.long0x69
 3169 0e7d 0000 0E88 	.long0xe88
 3170 0e81 09        	.uleb128 0x9
 3171 0e82 0000 0091 	.long0x91
 3172 0e86 01        	.byte0x1
 3173 0e87 00        	.byte0
 3174 0e88 02        	.uleb128 0x2
 3175 0e89 0000 0000 	.long.LASF215
 3176 0e8d 0F        	.byte0xf
 3177 0e8e 6A        	.byte0x6a
 3178 0e8f 0000 0E4B 	.long0xe4b
 3179 0e93 08        	.uleb128 0x8
 3180 0e94 0000 0069 	.long0x69
 3181 0e98 0000 0EA3 	.long0xea3
 3182 0e9c 09        	.uleb128 0x9
 3183 0e9d 0000 0091 	.long0x91
 3184 0ea1 05        	.byte0x5
 3185 0ea2 00        	.byte0
68K GAS   			page 71


 3186 0ea3 0F        	.uleb128 0xf
 3187 0ea4 08        	.byte0x8
 3188 0ea5 10        	.byte0x10
 3189 0ea6 75        	.byte0x75
 3190 0ea7 0000 0ECD 	.long0xecd
 3191 0eab 21        	.uleb128 0x21
 3192 0eac 4864 7200 	.string"Hdr"
 3193 0eb0 10        	.byte0x10
 3194 0eb1 76        	.byte0x76
 3195 0eb2 0000 0E88 	.long0xe88
 3196 0eb6 10        	.uleb128 0x10
 3197 0eb7 0000 0000 	.long.LASF216
 3198 0ebb 10        	.byte0x10
 3199 0ebc 77        	.byte0x77
 3200 0ebd 0000 0086 	.long0x86
 3201 0ec1 10        	.uleb128 0x10
 3202 0ec2 0000 0000 	.long.LASF217
 3203 0ec6 10        	.byte0x10
 3204 0ec7 78        	.byte0x78
 3205 0ec8 0000 0E93 	.long0xe93
 3206 0ecc 00        	.byte0
 3207 0ecd 02        	.uleb128 0x2
 3208 0ece 0000 0000 	.long.LASF218
 3209 0ed2 10        	.byte0x10
 3210 0ed3 79        	.byte0x79
 3211 0ed4 0000 0EA3 	.long0xea3
 3212 0ed8 02        	.uleb128 0x2
 3213 0ed9 0000 0000 	.long.LASF219
 3214 0edd 10        	.byte0x10
 3215 0ede 98        	.byte0x98
 3216 0edf 0000 0069 	.long0x69
 3217 0ee3 02        	.uleb128 0x2
 3218 0ee4 0000 0000 	.long.LASF220
 3219 0ee8 10        	.byte0x10
 3220 0ee9 A1        	.byte0xa1
 3221 0eea 0000 0EEE 	.long0xeee
 3222 0eee 0E        	.uleb128 0xe
 3223 0eef 04        	.byte0x4
 3224 0ef0 0000 0ECD 	.long0xecd
 3225 0ef4 06        	.uleb128 0x6
 3226 0ef5 02        	.byte0x2
 3227 0ef6 10        	.byte0x10
 3228 0ef7 B1        	.byte0xb1
 3229 0ef8 0000 0F15 	.long0xf15
 3230 0efc 07        	.uleb128 0x7
 3231 0efd 0000 0000 	.long.LASF182
 3232 0f01 10        	.byte0x10
 3233 0f02 B2        	.byte0xb2
 3234 0f03 0000 0069 	.long0x69
 3235 0f07 00        	.byte0
 3236 0f08 07        	.uleb128 0x7
 3237 0f09 0000 0000 	.long.LASF221
 3238 0f0d 10        	.byte0x10
 3239 0f0e B3        	.byte0xb3
 3240 0f0f 0000 0069 	.long0x69
 3241 0f13 01        	.byte0x1
 3242 0f14 00        	.byte0
68K GAS   			page 72


 3243 0f15 02        	.uleb128 0x2
 3244 0f16 0000 0000 	.long.LASF222
 3245 0f1a 10        	.byte0x10
 3246 0f1b B4        	.byte0xb4
 3247 0f1c 0000 0EF4 	.long0xef4
 3248 0f20 20        	.uleb128 0x20
 3249 0f21 0000 0000 	.long.LASF223
 3250 0f25 10        	.byte0x10
 3251 0f26 B6        	.byte0xb6
 3252 0f27 0000 0F15 	.long0xf15
 3253 0f2b 08        	.uleb128 0x8
 3254 0f2c 0000 0069 	.long0x69
 3255 0f30 0000 0F3B 	.long0xf3b
 3256 0f34 09        	.uleb128 0x9
 3257 0f35 0000 0091 	.long0x91
 3258 0f39 0B        	.byte0xb
 3259 0f3a 00        	.byte0
 3260 0f3b 1B        	.uleb128 0x1b
 3261 0f3c 20        	.byte0x20
 3262 0f3d 11        	.byte0x11
 3263 0f3e 047C      	.word0x47c
 3264 0f40 0000 0F86 	.long0xf86
 3265 0f44 18        	.uleb128 0x18
 3266 0f45 0000 0000 	.long.LASF190
 3267 0f49 11        	.byte0x11
 3268 0f4a 047D      	.word0x47d
 3269 0f4c 0000 0107 	.long0x107
 3270 0f50 00        	.byte0
 3271 0f51 18        	.uleb128 0x18
 3272 0f52 0000 0000 	.long.LASF224
 3273 0f56 11        	.byte0x11
 3274 0f57 047F      	.word0x47f
 3275 0f59 0000 0074 	.long0x74
 3276 0f5d 14        	.byte0x14
 3277 0f5e 18        	.uleb128 0x18
 3278 0f5f 0000 0000 	.long.LASF225
 3279 0f63 11        	.byte0x11
 3280 0f64 0481      	.word0x481
 3281 0f66 0000 0074 	.long0x74
 3282 0f6a 16        	.byte0x16
 3283 0f6b 18        	.uleb128 0x18
 3284 0f6c 0000 0000 	.long.LASF226
 3285 0f70 11        	.byte0x11
 3286 0f71 0483      	.word0x483
 3287 0f73 0000 0086 	.long0x86
 3288 0f77 18        	.byte0x18
 3289 0f78 18        	.uleb128 0x18
 3290 0f79 0000 0000 	.long.LASF227
 3291 0f7d 11        	.byte0x11
 3292 0f7e 0485      	.word0x485
 3293 0f80 0000 0086 	.long0x86
 3294 0f84 1C        	.byte0x1c
 3295 0f85 00        	.byte0
 3296 0f86 04        	.uleb128 0x4
 3297 0f87 0000 0000 	.long.LASF228
 3298 0f8b 11        	.byte0x11
 3299 0f8c 0488      	.word0x488
68K GAS   			page 73


 3300 0f8e 0000 0F3B 	.long0xf3b
 3301 0f92 1B        	.uleb128 0x1b
 3302 0f93 9C        	.byte0x9c
 3303 0f94 11        	.byte0x11
 3304 0f95 048E      	.word0x48e
 3305 0f97 0000 0FD0 	.long0xfd0
 3306 0f9b 18        	.uleb128 0x18
 3307 0f9c 0000 0000 	.long.LASF229
 3308 0fa0 11        	.byte0x11
 3309 0fa1 048F      	.word0x48f
 3310 0fa3 0000 0F86 	.long0xf86
 3311 0fa7 00        	.byte0
 3312 0fa8 18        	.uleb128 0x18
 3313 0fa9 0000 0000 	.long.LASF230
 3314 0fad 11        	.byte0x11
 3315 0fae 0490      	.word0x490
 3316 0fb0 0000 0FD0 	.long0xfd0
 3317 0fb4 20        	.byte0x20
 3318 0fb5 18        	.uleb128 0x18
 3319 0fb6 0000 0000 	.long.LASF231
 3320 0fba 11        	.byte0x11
 3321 0fbb 0492      	.word0x492
 3322 0fbd 0000 0069 	.long0x69
 3323 0fc1 9A        	.byte0x9a
 3324 0fc2 18        	.uleb128 0x18
 3325 0fc3 0000 0000 	.long.LASF232
 3326 0fc7 11        	.byte0x11
 3327 0fc8 0494      	.word0x494
 3328 0fca 0000 0069 	.long0x69
 3329 0fce 9B        	.byte0x9b
 3330 0fcf 00        	.byte0
 3331 0fd0 08        	.uleb128 0x8
 3332 0fd1 0000 00B6 	.long0xb6
 3333 0fd5 0000 0FE0 	.long0xfe0
 3334 0fd9 09        	.uleb128 0x9
 3335 0fda 0000 0091 	.long0x91
 3336 0fde 79        	.byte0x79
 3337 0fdf 00        	.byte0
 3338 0fe0 04        	.uleb128 0x4
 3339 0fe1 0000 0000 	.long.LASF233
 3340 0fe5 11        	.byte0x11
 3341 0fe6 0496      	.word0x496
 3342 0fe8 0000 0F92 	.long0xf92
 3343 0fec 1B        	.uleb128 0x1b
 3344 0fed A8        	.byte0xa8
 3345 0fee 11        	.byte0x11
 3346 0fef 0498      	.word0x498
 3347 0ff1 0000 1010 	.long0x1010
 3348 0ff5 18        	.uleb128 0x18
 3349 0ff6 0000 0000 	.long.LASF234
 3350 0ffa 11        	.byte0x11
 3351 0ffb 0499      	.word0x499
 3352 0ffd 0000 0F2B 	.long0xf2b
 3353 1001 00        	.byte0
 3354 1002 18        	.uleb128 0x18
 3355 1003 0000 0000 	.long.LASF235
 3356 1007 11        	.byte0x11
68K GAS   			page 74


 3357 1008 049A      	.word0x49a
 3358 100a 0000 0FE0 	.long0xfe0
 3359 100e 0C        	.byte0xc
 3360 100f 00        	.byte0
 3361 1010 04        	.uleb128 0x4
 3362 1011 0000 0000 	.long.LASF236
 3363 1015 11        	.byte0x11
 3364 1016 049B      	.word0x49b
 3365 1018 0000 0FEC 	.long0xfec
 3366 101c 06        	.uleb128 0x6
 3367 101d 10        	.byte0x10
 3368 101e 12        	.byte0x12
 3369 101f 1E        	.byte0x1e
 3370 1020 0000 1055 	.long0x1055
 3371 1024 07        	.uleb128 0x7
 3372 1025 0000 0000 	.long.LASF237
 3373 1029 12        	.byte0x12
 3374 102a 20        	.byte0x20
 3375 102b 0000 0086 	.long0x86
 3376 102f 00        	.byte0
 3377 1030 07        	.uleb128 0x7
 3378 1031 0000 0000 	.long.LASF238
 3379 1035 12        	.byte0x12
 3380 1036 21        	.byte0x21
 3381 1037 0000 0086 	.long0x86
 3382 103b 04        	.byte0x4
 3383 103c 07        	.uleb128 0x7
 3384 103d 0000 0000 	.long.LASF239
 3385 1041 12        	.byte0x12
 3386 1042 22        	.byte0x22
 3387 1043 0000 0086 	.long0x86
 3388 1047 08        	.byte0x8
 3389 1048 07        	.uleb128 0x7
 3390 1049 0000 0000 	.long.LASF240
 3391 104d 12        	.byte0x12
 3392 104e 23        	.byte0x23
 3393 104f 0000 0086 	.long0x86
 3394 1053 0C        	.byte0xc
 3395 1054 00        	.byte0
 3396 1055 02        	.uleb128 0x2
 3397 1056 0000 0000 	.long.LASF241
 3398 105a 12        	.byte0x12
 3399 105b 25        	.byte0x25
 3400 105c 0000 101C 	.long0x101c
 3401 1060 22        	.uleb128 0x22
 3402 1061 0108      	.word0x108
 3403 1063 12        	.byte0x12
 3404 1064 2A        	.byte0x2a
 3405 1065 0000 10FA 	.long0x10fa
 3406 1069 07        	.uleb128 0x7
 3407 106a 0000 0000 	.long.LASF242
 3408 106e 12        	.byte0x12
 3409 106f 2C        	.byte0x2c
 3410 1070 0000 0086 	.long0x86
 3411 1074 00        	.byte0
 3412 1075 07        	.uleb128 0x7
 3413 1076 0000 0000 	.long.LASF243
68K GAS   			page 75


 3414 107a 12        	.byte0x12
 3415 107b 2D        	.byte0x2d
 3416 107c 0000 0086 	.long0x86
 3417 1080 04        	.byte0x4
 3418 1081 07        	.uleb128 0x7
 3419 1082 0000 0000 	.long.LASF244
 3420 1086 12        	.byte0x12
 3421 1087 2E        	.byte0x2e
 3422 1088 0000 0086 	.long0x86
 3423 108c 08        	.byte0x8
 3424 108d 07        	.uleb128 0x7
 3425 108e 0000 0000 	.long.LASF245
 3426 1092 12        	.byte0x12
 3427 1093 2F        	.byte0x2f
 3428 1094 0000 0086 	.long0x86
 3429 1098 0C        	.byte0xc
 3430 1099 07        	.uleb128 0x7
 3431 109a 0000 0000 	.long.LASF246
 3432 109e 12        	.byte0x12
 3433 109f 30        	.byte0x30
 3434 10a0 0000 0086 	.long0x86
 3435 10a4 10        	.byte0x10
 3436 10a5 07        	.uleb128 0x7
 3437 10a6 0000 0000 	.long.LASF247
 3438 10aa 12        	.byte0x12
 3439 10ab 31        	.byte0x31
 3440 10ac 0000 0086 	.long0x86
 3441 10b0 14        	.byte0x14
 3442 10b1 07        	.uleb128 0x7
 3443 10b2 0000 0000 	.long.LASF248
 3444 10b6 12        	.byte0x12
 3445 10b7 32        	.byte0x32
 3446 10b8 0000 1055 	.long0x1055
 3447 10bc 18        	.byte0x18
 3448 10bd 07        	.uleb128 0x7
 3449 10be 0000 0000 	.long.LASF249
 3450 10c2 12        	.byte0x12
 3451 10c3 33        	.byte0x33
 3452 10c4 0000 0DD4 	.long0xdd4
 3453 10c8 28        	.byte0x28
 3454 10c9 07        	.uleb128 0x7
 3455 10ca 0000 0000 	.long.LASF250
 3456 10ce 12        	.byte0x12
 3457 10cf 34        	.byte0x34
 3458 10d0 0000 10FA 	.long0x10fa
 3459 10d4 30        	.byte0x30
 3460 10d5 07        	.uleb128 0x7
 3461 10d6 0000 0000 	.long.LASF251
 3462 10da 12        	.byte0x12
 3463 10db 35        	.byte0x35
 3464 10dc 0000 0086 	.long0x86
 3465 10e0 80        	.byte0x80
 3466 10e1 07        	.uleb128 0x7
 3467 10e2 0000 0000 	.long.LASF252
 3468 10e6 12        	.byte0x12
 3469 10e7 36        	.byte0x36
 3470 10e8 0000 0086 	.long0x86
68K GAS   			page 76


 3471 10ec 84        	.byte0x84
 3472 10ed 07        	.uleb128 0x7
 3473 10ee 0000 0000 	.long.LASF253
 3474 10f2 12        	.byte0x12
 3475 10f3 37        	.byte0x37
 3476 10f4 0000 0E3B 	.long0xe3b
 3477 10f8 88        	.byte0x88
 3478 10f9 00        	.byte0
 3479 10fa 08        	.uleb128 0x8
 3480 10fb 0000 00B6 	.long0xb6
 3481 10ff 0000 110A 	.long0x110a
 3482 1103 09        	.uleb128 0x9
 3483 1104 0000 0091 	.long0x91
 3484 1108 4F        	.byte0x4f
 3485 1109 00        	.byte0
 3486 110a 02        	.uleb128 0x2
 3487 110b 0000 0000 	.long.LASF254
 3488 110f 12        	.byte0x12
 3489 1110 38        	.byte0x38
 3490 1111 0000 1060 	.long0x1060
 3491 1115 06        	.uleb128 0x6
 3492 1116 0C        	.byte0xc
 3493 1117 13        	.byte0x13
 3494 1118 1D        	.byte0x1d
 3495 1119 0000 1142 	.long0x1142
 3496 111d 07        	.uleb128 0x7
 3497 111e 0000 0000 	.long.LASF255
 3498 1122 13        	.byte0x13
 3499 1123 1E        	.byte0x1e
 3500 1124 0000 0086 	.long0x86
 3501 1128 00        	.byte0
 3502 1129 07        	.uleb128 0x7
 3503 112a 0000 0000 	.long.LASF256
 3504 112e 13        	.byte0x13
 3505 112f 1F        	.byte0x1f
 3506 1130 0000 0086 	.long0x86
 3507 1134 04        	.byte0x4
 3508 1135 07        	.uleb128 0x7
 3509 1136 0000 0000 	.long.LASF257
 3510 113a 13        	.byte0x13
 3511 113b 20        	.byte0x20
 3512 113c 0000 0086 	.long0x86
 3513 1140 08        	.byte0x8
 3514 1141 00        	.byte0
 3515 1142 02        	.uleb128 0x2
 3516 1143 0000 0000 	.long.LASF258
 3517 1147 13        	.byte0x13
 3518 1148 21        	.byte0x21
 3519 1149 0000 1115 	.long0x1115
 3520 114d 06        	.uleb128 0x6
 3521 114e 4C        	.byte0x4c
 3522 114f 13        	.byte0x13
 3523 1150 23        	.byte0x23
 3524 1151 0000 120A 	.long0x120a
 3525 1155 07        	.uleb128 0x7
 3526 1156 0000 0000 	.long.LASF259
 3527 115a 13        	.byte0x13
68K GAS   			page 77


 3528 115b 24        	.byte0x24
 3529 115c 0000 0069 	.long0x69
 3530 1160 00        	.byte0
 3531 1161 07        	.uleb128 0x7
 3532 1162 0000 0000 	.long.LASF260
 3533 1166 13        	.byte0x13
 3534 1167 25        	.byte0x25
 3535 1168 0000 0069 	.long0x69
 3536 116c 01        	.byte0x1
 3537 116d 07        	.uleb128 0x7
 3538 116e 0000 0000 	.long.LASF261
 3539 1172 13        	.byte0x13
 3540 1173 26        	.byte0x26
 3541 1174 0000 0E78 	.long0xe78
 3542 1178 02        	.byte0x2
 3543 1179 07        	.uleb128 0x7
 3544 117a 0000 0000 	.long.LASF262
 3545 117e 13        	.byte0x13
 3546 117f 27        	.byte0x27
 3547 1180 0000 0086 	.long0x86
 3548 1184 04        	.byte0x4
 3549 1185 07        	.uleb128 0x7
 3550 1186 0000 0000 	.long.LASF263
 3551 118a 13        	.byte0x13
 3552 118b 28        	.byte0x28
 3553 118c 0000 0086 	.long0x86
 3554 1190 08        	.byte0x8
 3555 1191 07        	.uleb128 0x7
 3556 1192 0000 0000 	.long.LASF264
 3557 1196 13        	.byte0x13
 3558 1197 29        	.byte0x29
 3559 1198 0000 0086 	.long0x86
 3560 119c 0C        	.byte0xc
 3561 119d 07        	.uleb128 0x7
 3562 119e 0000 0000 	.long.LASF265
 3563 11a2 13        	.byte0x13
 3564 11a3 2A        	.byte0x2a
 3565 11a4 0000 0086 	.long0x86
 3566 11a8 10        	.byte0x10
 3567 11a9 07        	.uleb128 0x7
 3568 11aa 0000 0000 	.long.LASF266
 3569 11ae 13        	.byte0x13
 3570 11af 2B        	.byte0x2b
 3571 11b0 0000 0086 	.long0x86
 3572 11b4 14        	.byte0x14
 3573 11b5 07        	.uleb128 0x7
 3574 11b6 0000 0000 	.long.LASF267
 3575 11ba 13        	.byte0x13
 3576 11bb 2C        	.byte0x2c
 3577 11bc 0000 0086 	.long0x86
 3578 11c0 18        	.byte0x18
 3579 11c1 07        	.uleb128 0x7
 3580 11c2 0000 0000 	.long.LASF268
 3581 11c6 13        	.byte0x13
 3582 11c7 2D        	.byte0x2d
 3583 11c8 0000 0086 	.long0x86
 3584 11cc 1C        	.byte0x1c
68K GAS   			page 78


 3585 11cd 07        	.uleb128 0x7
 3586 11ce 0000 0000 	.long.LASF269
 3587 11d2 13        	.byte0x13
 3588 11d3 2E        	.byte0x2e
 3589 11d4 0000 0086 	.long0x86
 3590 11d8 20        	.byte0x20
 3591 11d9 07        	.uleb128 0x7
 3592 11da 0000 0000 	.long.LASF270
 3593 11de 13        	.byte0x13
 3594 11df 2F        	.byte0x2f
 3595 11e0 0000 0086 	.long0x86
 3596 11e4 24        	.byte0x24
 3597 11e5 07        	.uleb128 0x7
 3598 11e6 0000 0000 	.long.LASF271
 3599 11ea 13        	.byte0x13
 3600 11eb 30        	.byte0x30
 3601 11ec 0000 0086 	.long0x86
 3602 11f0 28        	.byte0x28
 3603 11f1 07        	.uleb128 0x7
 3604 11f2 0000 0000 	.long.LASF272
 3605 11f6 13        	.byte0x13
 3606 11f7 31        	.byte0x31
 3607 11f8 0000 120A 	.long0x120a
 3608 11fc 2C        	.byte0x2c
 3609 11fd 07        	.uleb128 0x7
 3610 11fe 0000 0000 	.long.LASF273
 3611 1202 13        	.byte0x13
 3612 1203 32        	.byte0x32
 3613 1204 0000 120A 	.long0x120a
 3614 1208 3C        	.byte0x3c
 3615 1209 00        	.byte0
 3616 120a 08        	.uleb128 0x8
 3617 120b 0000 0086 	.long0x86
 3618 120f 0000 121A 	.long0x121a
 3619 1213 09        	.uleb128 0x9
 3620 1214 0000 0091 	.long0x91
 3621 1218 03        	.byte0x3
 3622 1219 00        	.byte0
 3623 121a 02        	.uleb128 0x2
 3624 121b 0000 0000 	.long.LASF274
 3625 121f 13        	.byte0x13
 3626 1220 33        	.byte0x33
 3627 1221 0000 114D 	.long0x114d
 3628 1225 23        	.uleb128 0x23
 3629 1226 0001 D50C 	.long0x1d50c
 3630 122a 13        	.byte0x13
 3631 122b 35        	.byte0x35
 3632 122c 0000 1249 	.long0x1249
 3633 1230 07        	.uleb128 0x7
 3634 1231 0000 0000 	.long.LASF275
 3635 1235 13        	.byte0x13
 3636 1236 36        	.byte0x36
 3637 1237 0000 121A 	.long0x121a
 3638 123b 00        	.byte0
 3639 123c 07        	.uleb128 0x7
 3640 123d 0000 0000 	.long.LASF276
 3641 1241 13        	.byte0x13
68K GAS   			page 79


 3642 1242 37        	.byte0x37
 3643 1243 0000 1249 	.long0x1249
 3644 1247 4C        	.byte0x4c
 3645 1248 00        	.byte0
 3646 1249 08        	.uleb128 0x8
 3647 124a 0000 1142 	.long0x1142
 3648 124e 0000 125A 	.long0x125a
 3649 1252 24        	.uleb128 0x24
 3650 1253 0000 0091 	.long0x91
 3651 1257 270F      	.word0x270f
 3652 1259 00        	.byte0
 3653 125a 02        	.uleb128 0x2
 3654 125b 0000 0000 	.long.LASF277
 3655 125f 13        	.byte0x13
 3656 1260 38        	.byte0x38
 3657 1261 0000 1225 	.long0x1225
 3658 1265 22        	.uleb128 0x22
 3659 1266 0D28      	.word0xd28
 3660 1268 14        	.byte0x14
 3661 1269 1F        	.byte0x1f
 3662 126a 0000 12B7 	.long0x12b7
 3663 126e 07        	.uleb128 0x7
 3664 126f 0000 0000 	.long.LASF278
 3665 1273 14        	.byte0x14
 3666 1274 20        	.byte0x20
 3667 1275 0000 0074 	.long0x74
 3668 1279 00        	.byte0
 3669 127a 07        	.uleb128 0x7
 3670 127b 0000 0000 	.long.LASF279
 3671 127f 14        	.byte0x14
 3672 1280 21        	.byte0x21
 3673 1281 0000 0074 	.long0x74
 3674 1285 02        	.byte0x2
 3675 1286 07        	.uleb128 0x7
 3676 1287 0000 0000 	.long.LASF280
 3677 128b 14        	.byte0x14
 3678 128c 22        	.byte0x22
 3679 128d 0000 0069 	.long0x69
 3680 1291 04        	.byte0x4
 3681 1292 07        	.uleb128 0x7
 3682 1293 0000 0000 	.long.LASF281
 3683 1297 14        	.byte0x14
 3684 1298 23        	.byte0x23
 3685 1299 0000 0069 	.long0x69
 3686 129d 05        	.byte0x5
 3687 129e 07        	.uleb128 0x7
 3688 129f 0000 0000 	.long.LASF282
 3689 12a3 14        	.byte0x14
 3690 12a4 24        	.byte0x24
 3691 12a5 0000 0074 	.long0x74
 3692 12a9 06        	.byte0x6
 3693 12aa 07        	.uleb128 0x7
 3694 12ab 0000 0000 	.long.LASF283
 3695 12af 14        	.byte0x14
 3696 12b0 25        	.byte0x25
 3697 12b1 0000 12B7 	.long0x12b7
 3698 12b5 08        	.byte0x8
68K GAS   			page 80


 3699 12b6 00        	.byte0
 3700 12b7 08        	.uleb128 0x8
 3701 12b8 0000 1010 	.long0x1010
 3702 12bc 0000 12C7 	.long0x12c7
 3703 12c0 09        	.uleb128 0x9
 3704 12c1 0000 0091 	.long0x91
 3705 12c5 13        	.byte0x13
 3706 12c6 00        	.byte0
 3707 12c7 02        	.uleb128 0x2
 3708 12c8 0000 0000 	.long.LASF284
 3709 12cc 14        	.byte0x14
 3710 12cd 27        	.byte0x27
 3711 12ce 0000 1265 	.long0x1265
 3712 12d2 06        	.uleb128 0x6
 3713 12d3 18        	.byte0x18
 3714 12d4 15        	.byte0x15
 3715 12d5 23        	.byte0x23
 3716 12d6 0000 1323 	.long0x1323
 3717 12da 07        	.uleb128 0x7
 3718 12db 0000 0000 	.long.LASF243
 3719 12df 15        	.byte0x15
 3720 12e0 25        	.byte0x25
 3721 12e1 0000 0086 	.long0x86
 3722 12e5 00        	.byte0
 3723 12e6 07        	.uleb128 0x7
 3724 12e7 0000 0000 	.long.LASF244
 3725 12eb 15        	.byte0x15
 3726 12ec 26        	.byte0x26
 3727 12ed 0000 0086 	.long0x86
 3728 12f1 04        	.byte0x4
 3729 12f2 07        	.uleb128 0x7
 3730 12f3 0000 0000 	.long.LASF245
 3731 12f7 15        	.byte0x15
 3732 12f8 27        	.byte0x27
 3733 12f9 0000 0086 	.long0x86
 3734 12fd 08        	.byte0x8
 3735 12fe 07        	.uleb128 0x7
 3736 12ff 0000 0000 	.long.LASF285
 3737 1303 15        	.byte0x15
 3738 1304 28        	.byte0x28
 3739 1305 0000 0086 	.long0x86
 3740 1309 0C        	.byte0xc
 3741 130a 07        	.uleb128 0x7
 3742 130b 0000 0000 	.long.LASF246
 3743 130f 15        	.byte0x15
 3744 1310 29        	.byte0x29
 3745 1311 0000 0086 	.long0x86
 3746 1315 10        	.byte0x10
 3747 1316 07        	.uleb128 0x7
 3748 1317 0000 0000 	.long.LASF247
 3749 131b 15        	.byte0x15
 3750 131c 2A        	.byte0x2a
 3751 131d 0000 0086 	.long0x86
 3752 1321 14        	.byte0x14
 3753 1322 00        	.byte0
 3754 1323 02        	.uleb128 0x2
 3755 1324 0000 0000 	.long.LASF286
68K GAS   			page 81


 3756 1328 15        	.byte0x15
 3757 1329 2B        	.byte0x2b
 3758 132a 0000 12D2 	.long0x12d2
 3759 132e 23        	.uleb128 0x23
 3760 132f 0002 0324 	.long0x20324
 3761 1333 15        	.byte0x15
 3762 1334 33        	.byte0x33
 3763 1335 0000 13DB 	.long0x13db
 3764 1339 07        	.uleb128 0x7
 3765 133a 0000 0000 	.long.LASF287
 3766 133e 15        	.byte0x15
 3767 133f 38        	.byte0x38
 3768 1340 0000 13DB 	.long0x13db
 3769 1344 00        	.byte0
 3770 1345 13        	.uleb128 0x13
 3771 1346 0000 0000 	.long.LASF288
 3772 134a 15        	.byte0x15
 3773 134b 39        	.byte0x39
 3774 134c 0000 0086 	.long0x86
 3775 1350 14A0      	.word0x14a0
 3776 1352 13        	.uleb128 0x13
 3777 1353 0000 0000 	.long.LASF289
 3778 1357 15        	.byte0x15
 3779 1358 3A        	.byte0x3a
 3780 1359 0000 0086 	.long0x86
 3781 135d 14A4      	.word0x14a4
 3782 135f 13        	.uleb128 0x13
 3783 1360 0000 0000 	.long.LASF240
 3784 1364 15        	.byte0x15
 3785 1365 3B        	.byte0x3b
 3786 1366 0000 0086 	.long0x86
 3787 136a 14A8      	.word0x14a8
 3788 136c 13        	.uleb128 0x13
 3789 136d 0000 0000 	.long.LASF290
 3790 1371 15        	.byte0x15
 3791 1372 40        	.byte0x40
 3792 1373 0000 13EB 	.long0x13eb
 3793 1377 14AC      	.word0x14ac
 3794 1379 13        	.uleb128 0x13
 3795 137a 0000 0000 	.long.LASF291
 3796 137e 15        	.byte0x15
 3797 137f 41        	.byte0x41
 3798 1380 0000 0086 	.long0x86
 3799 1384 20AC      	.word0x20ac
 3800 1386 13        	.uleb128 0x13
 3801 1387 0000 0000 	.long.LASF292
 3802 138b 15        	.byte0x15
 3803 138c 42        	.byte0x42
 3804 138d 0000 0086 	.long0x86
 3805 1391 20B0      	.word0x20b0
 3806 1393 13        	.uleb128 0x13
 3807 1394 0000 0000 	.long.LASF293
 3808 1398 15        	.byte0x15
 3809 1399 43        	.byte0x43
 3810 139a 0000 0086 	.long0x86
 3811 139e 20B4      	.word0x20b4
 3812 13a0 13        	.uleb128 0x13
68K GAS   			page 82


 3813 13a1 0000 0000 	.long.LASF294
 3814 13a5 15        	.byte0x15
 3815 13a6 48        	.byte0x48
 3816 13a7 0000 125A 	.long0x125a
 3817 13ab 20B8      	.word0x20b8
 3818 13ad 25        	.uleb128 0x25
 3819 13ae 0000 0000 	.long.LASF295
 3820 13b2 15        	.byte0x15
 3821 13b3 4D        	.byte0x4d
 3822 13b4 0000 1323 	.long0x1323
 3823 13b8 0001 F5C4 	.long0x1f5c4
 3824 13bc 25        	.uleb128 0x25
 3825 13bd 0000 0000 	.long.LASF296
 3826 13c1 15        	.byte0x15
 3827 13c2 53        	.byte0x53
 3828 13c3 0000 0E30 	.long0xe30
 3829 13c7 0001 F5DC 	.long0x1f5dc
 3830 13cb 25        	.uleb128 0x25
 3831 13cc 0000 0000 	.long.LASF297
 3832 13d0 15        	.byte0x15
 3833 13d1 59        	.byte0x59
 3834 13d2 0000 12C7 	.long0x12c7
 3835 13d6 0001 F5FC 	.long0x1f5fc
 3836 13da 00        	.byte0
 3837 13db 08        	.uleb128 0x8
 3838 13dc 0000 110A 	.long0x110a
 3839 13e0 0000 13EB 	.long0x13eb
 3840 13e4 09        	.uleb128 0x9
 3841 13e5 0000 0091 	.long0x91
 3842 13e9 13        	.byte0x13
 3843 13ea 00        	.byte0
 3844 13eb 08        	.uleb128 0x8
 3845 13ec 0000 00B6 	.long0xb6
 3846 13f0 0000 13FC 	.long0x13fc
 3847 13f4 24        	.uleb128 0x24
 3848 13f5 0000 0091 	.long0x91
 3849 13f9 0BFF      	.word0xbff
 3850 13fb 00        	.byte0
 3851 13fc 02        	.uleb128 0x2
 3852 13fd 0000 0000 	.long.LASF298
 3853 1401 15        	.byte0x15
 3854 1402 5C        	.byte0x5c
 3855 1403 0000 132E 	.long0x132e
 3856 1407 06        	.uleb128 0x6
 3857 1408 0C        	.byte0xc
 3858 1409 16        	.byte0x16
 3859 140a 7E        	.byte0x7e
 3860 140b 0000 1434 	.long0x1434
 3861 140f 07        	.uleb128 0x7
 3862 1410 0000 0000 	.long.LASF299
 3863 1414 16        	.byte0x16
 3864 1415 80        	.byte0x80
 3865 1416 0000 0086 	.long0x86
 3866 141a 00        	.byte0
 3867 141b 07        	.uleb128 0x7
 3868 141c 0000 0000 	.long.LASF300
 3869 1420 16        	.byte0x16
68K GAS   			page 83


 3870 1421 81        	.byte0x81
 3871 1422 0000 0086 	.long0x86
 3872 1426 04        	.byte0x4
 3873 1427 07        	.uleb128 0x7
 3874 1428 0000 0000 	.long.LASF301
 3875 142c 16        	.byte0x16
 3876 142d 82        	.byte0x82
 3877 142e 0000 0050 	.long0x50
 3878 1432 08        	.byte0x8
 3879 1433 00        	.byte0
 3880 1434 02        	.uleb128 0x2
 3881 1435 0000 0000 	.long.LASF302
 3882 1439 16        	.byte0x16
 3883 143a 84        	.byte0x84
 3884 143b 0000 1407 	.long0x1407
 3885 143f 06        	.uleb128 0x6
 3886 1440 78        	.byte0x78
 3887 1441 16        	.byte0x16
 3888 1442 8B        	.byte0x8b
 3889 1443 0000 14A8 	.long0x14a8
 3890 1447 07        	.uleb128 0x7
 3891 1448 0000 0000 	.long.LASF168
 3892 144c 16        	.byte0x16
 3893 144d 8D        	.byte0x8d
 3894 144e 0000 0107 	.long0x107
 3895 1452 00        	.byte0
 3896 1453 07        	.uleb128 0x7
 3897 1454 0000 0000 	.long.LASF169
 3898 1458 16        	.byte0x16
 3899 1459 8E        	.byte0x8e
 3900 145a 0000 0107 	.long0x107
 3901 145e 14        	.byte0x14
 3902 145f 07        	.uleb128 0x7
 3903 1460 0000 0000 	.long.LASF170
 3904 1464 16        	.byte0x16
 3905 1465 8F        	.byte0x8f
 3906 1466 0000 0B11 	.long0xb11
 3907 146a 28        	.byte0x28
 3908 146b 07        	.uleb128 0x7
 3909 146c 0000 0000 	.long.LASF171
 3910 1470 16        	.byte0x16
 3911 1471 91        	.byte0x91
 3912 1472 0000 0086 	.long0x86
 3913 1476 68        	.byte0x68
 3914 1477 07        	.uleb128 0x7
 3915 1478 0000 0000 	.long.LASF180
 3916 147c 16        	.byte0x16
 3917 147d 92        	.byte0x92
 3918 147e 0000 009F 	.long0x9f
 3919 1482 6C        	.byte0x6c
 3920 1483 07        	.uleb128 0x7
 3921 1484 0000 0000 	.long.LASF172
 3922 1488 16        	.byte0x16
 3923 1489 93        	.byte0x93
 3924 148a 0000 0086 	.long0x86
 3925 148e 70        	.byte0x70
 3926 148f 07        	.uleb128 0x7
68K GAS   			page 84


 3927 1490 0000 0000 	.long.LASF181
 3928 1494 16        	.byte0x16
 3929 1495 95        	.byte0x95
 3930 1496 0000 0074 	.long0x74
 3931 149a 74        	.byte0x74
 3932 149b 07        	.uleb128 0x7
 3933 149c 0000 0000 	.long.LASF182
 3934 14a0 16        	.byte0x16
 3935 14a1 96        	.byte0x96
 3936 14a2 0000 0074 	.long0x74
 3937 14a6 76        	.byte0x76
 3938 14a7 00        	.byte0
 3939 14a8 02        	.uleb128 0x2
 3940 14a9 0000 0000 	.long.LASF303
 3941 14ad 16        	.byte0x16
 3942 14ae 98        	.byte0x98
 3943 14af 0000 143F 	.long0x143f
 3944 14b3 06        	.uleb128 0x6
 3945 14b4 1C        	.byte0x1c
 3946 14b5 16        	.byte0x16
 3947 14b6 9F        	.byte0x9f
 3948 14b7 0000 14E0 	.long0x14e0
 3949 14bb 07        	.uleb128 0x7
 3950 14bc 0000 0000 	.long.LASF183
 3951 14c0 16        	.byte0x16
 3952 14c1 A1        	.byte0xa1
 3953 14c2 0000 0086 	.long0x86
 3954 14c6 00        	.byte0
 3955 14c7 07        	.uleb128 0x7
 3956 14c8 0000 0000 	.long.LASF185
 3957 14cc 16        	.byte0x16
 3958 14cd A2        	.byte0xa2
 3959 14ce 0000 0107 	.long0x107
 3960 14d2 04        	.byte0x4
 3961 14d3 07        	.uleb128 0x7
 3962 14d4 0000 0000 	.long.LASF186
 3963 14d8 16        	.byte0x16
 3964 14d9 A3        	.byte0xa3
 3965 14da 0000 0086 	.long0x86
 3966 14de 18        	.byte0x18
 3967 14df 00        	.byte0
 3968 14e0 02        	.uleb128 0x2
 3969 14e1 0000 0000 	.long.LASF304
 3970 14e5 16        	.byte0x16
 3971 14e6 A5        	.byte0xa5
 3972 14e7 0000 14B3 	.long0x14b3
 3973 14eb 06        	.uleb128 0x6
 3974 14ec A8        	.byte0xa8
 3975 14ed 16        	.byte0x16
 3976 14ee AC        	.byte0xac
 3977 14ef 0000 1530 	.long0x1530
 3978 14f3 07        	.uleb128 0x7
 3979 14f4 0000 0000 	.long.LASF305
 3980 14f8 16        	.byte0x16
 3981 14f9 AE        	.byte0xae
 3982 14fa 0000 00AA 	.long0xaa
 3983 14fe 00        	.byte0
68K GAS   			page 85


 3984 14ff 07        	.uleb128 0x7
 3985 1500 0000 0000 	.long.LASF167
 3986 1504 16        	.byte0x16
 3987 1505 AF        	.byte0xaf
 3988 1506 0000 0086 	.long0x86
 3989 150a 04        	.byte0x4
 3990 150b 07        	.uleb128 0x7
 3991 150c 0000 0000 	.long.LASF306
 3992 1510 16        	.byte0x16
 3993 1511 B0        	.byte0xb0
 3994 1512 0000 14A8 	.long0x14a8
 3995 1516 08        	.byte0x8
 3996 1517 07        	.uleb128 0x7
 3997 1518 0000 0000 	.long.LASF307
 3998 151c 16        	.byte0x16
 3999 151d B1        	.byte0xb1
 4000 151e 0000 1434 	.long0x1434
 4001 1522 80        	.byte0x80
 4002 1523 07        	.uleb128 0x7
 4003 1524 0000 0000 	.long.LASF308
 4004 1528 16        	.byte0x16
 4005 1529 B2        	.byte0xb2
 4006 152a 0000 14E0 	.long0x14e0
 4007 152e 8C        	.byte0x8c
 4008 152f 00        	.byte0
 4009 1530 02        	.uleb128 0x2
 4010 1531 0000 0000 	.long.LASF309
 4011 1535 16        	.byte0x16
 4012 1536 B4        	.byte0xb4
 4013 1537 0000 14EB 	.long0x14eb
 4014 153b 06        	.uleb128 0x6
 4015 153c 24        	.byte0x24
 4016 153d 16        	.byte0x16
 4017 153e BB        	.byte0xbb
 4018 153f 0000 1580 	.long0x1580
 4019 1543 07        	.uleb128 0x7
 4020 1544 0000 0000 	.long.LASF305
 4021 1548 16        	.byte0x16
 4022 1549 BD        	.byte0xbd
 4023 154a 0000 00AA 	.long0xaa
 4024 154e 00        	.byte0
 4025 154f 07        	.uleb128 0x7
 4026 1550 0000 0000 	.long.LASF166
 4027 1554 16        	.byte0x16
 4028 1555 BE        	.byte0xbe
 4029 1556 0000 0086 	.long0x86
 4030 155a 04        	.byte0x4
 4031 155b 07        	.uleb128 0x7
 4032 155c 0000 0000 	.long.LASF188
 4033 1560 16        	.byte0x16
 4034 1561 BF        	.byte0xbf
 4035 1562 0000 0086 	.long0x86
 4036 1566 08        	.byte0x8
 4037 1567 07        	.uleb128 0x7
 4038 1568 0000 0000 	.long.LASF184
 4039 156c 16        	.byte0x16
 4040 156d C0        	.byte0xc0
68K GAS   			page 86


 4041 156e 0000 0086 	.long0x86
 4042 1572 0C        	.byte0xc
 4043 1573 07        	.uleb128 0x7
 4044 1574 0000 0000 	.long.LASF189
 4045 1578 16        	.byte0x16
 4046 1579 C1        	.byte0xc1
 4047 157a 0000 0107 	.long0x107
 4048 157e 10        	.byte0x10
 4049 157f 00        	.byte0
 4050 1580 02        	.uleb128 0x2
 4051 1581 0000 0000 	.long.LASF310
 4052 1585 16        	.byte0x16
 4053 1586 C4        	.byte0xc4
 4054 1587 0000 153B 	.long0x153b
 4055 158b 06        	.uleb128 0x6
 4056 158c 15        	.byte0x15
 4057 158d 16        	.byte0x16
 4058 158e CA        	.byte0xca
 4059 158f 0000 15AC 	.long0x15ac
 4060 1593 07        	.uleb128 0x7
 4061 1594 0000 0000 	.long.LASF305
 4062 1598 16        	.byte0x16
 4063 1599 CC        	.byte0xcc
 4064 159a 0000 00AA 	.long0xaa
 4065 159e 00        	.byte0
 4066 159f 07        	.uleb128 0x7
 4067 15a0 0000 0000 	.long.LASF311
 4068 15a4 16        	.byte0x16
 4069 15a5 CD        	.byte0xcd
 4070 15a6 0000 0107 	.long0x107
 4071 15aa 01        	.byte0x1
 4072 15ab 00        	.byte0
 4073 15ac 02        	.uleb128 0x2
 4074 15ad 0000 0000 	.long.LASF312
 4075 15b1 16        	.byte0x16
 4076 15b2 CE        	.byte0xce
 4077 15b3 0000 158B 	.long0x158b
 4078 15b7 02        	.uleb128 0x2
 4079 15b8 0000 0000 	.long.LASF313
 4080 15bc 17        	.byte0x17
 4081 15bd 38        	.byte0x38
 4082 15be 0000 0086 	.long0x86
 4083 15c2 06        	.uleb128 0x6
 4084 15c3 14        	.byte0x14
 4085 15c4 17        	.byte0x17
 4086 15c5 3A        	.byte0x3a
 4087 15c6 0000 1613 	.long0x1613
 4088 15ca 07        	.uleb128 0x7
 4089 15cb 0000 0000 	.long.LASF314
 4090 15cf 17        	.byte0x17
 4091 15d0 3C        	.byte0x3c
 4092 15d1 0000 0074 	.long0x74
 4093 15d5 00        	.byte0
 4094 15d6 07        	.uleb128 0x7
 4095 15d7 0000 0000 	.long.LASF315
 4096 15db 17        	.byte0x17
 4097 15dc 3D        	.byte0x3d
68K GAS   			page 87


 4098 15dd 0000 0074 	.long0x74
 4099 15e1 02        	.byte0x2
 4100 15e2 07        	.uleb128 0x7
 4101 15e3 0000 0000 	.long.LASF316
 4102 15e7 17        	.byte0x17
 4103 15e8 3E        	.byte0x3e
 4104 15e9 0000 0086 	.long0x86
 4105 15ed 04        	.byte0x4
 4106 15ee 07        	.uleb128 0x7
 4107 15ef 0000 0000 	.long.LASF317
 4108 15f3 17        	.byte0x17
 4109 15f4 3F        	.byte0x3f
 4110 15f5 0000 0086 	.long0x86
 4111 15f9 08        	.byte0x8
 4112 15fa 11        	.uleb128 0x11
 4113 15fb 4352 4300 	.string"CRC"
 4114 15ff 17        	.byte0x17
 4115 1600 40        	.byte0x40
 4116 1601 0000 0086 	.long0x86
 4117 1605 0C        	.byte0xc
 4118 1606 07        	.uleb128 0x7
 4119 1607 0000 0000 	.long.LASF278
 4120 160b 17        	.byte0x17
 4121 160c 41        	.byte0x41
 4122 160d 0000 0086 	.long0x86
 4123 1611 10        	.byte0x10
 4124 1612 00        	.byte0
 4125 1613 02        	.uleb128 0x2
 4126 1614 0000 0000 	.long.LASF318
 4127 1618 17        	.byte0x17
 4128 1619 42        	.byte0x42
 4129 161a 0000 15C2 	.long0x15c2
 4130 161e 06        	.uleb128 0x6
 4131 161f 0C        	.byte0xc
 4132 1620 17        	.byte0x17
 4133 1621 44        	.byte0x44
 4134 1622 0000 164B 	.long0x164b
 4135 1626 11        	.uleb128 0x11
 4136 1627 546F 7000 	.string"Top"
 4137 162b 17        	.byte0x17
 4138 162c 46        	.byte0x46
 4139 162d 0000 0086 	.long0x86
 4140 1631 00        	.byte0
 4141 1632 07        	.uleb128 0x7
 4142 1633 0000 0000 	.long.LASF193
 4143 1637 17        	.byte0x17
 4144 1638 47        	.byte0x47
 4145 1639 0000 0086 	.long0x86
 4146 163d 04        	.byte0x4
 4147 163e 07        	.uleb128 0x7
 4148 163f 0000 0000 	.long.LASF319
 4149 1643 17        	.byte0x17
 4150 1644 48        	.byte0x48
 4151 1645 0000 0086 	.long0x86
 4152 1649 08        	.byte0x8
 4153 164a 00        	.byte0
 4154 164b 02        	.uleb128 0x2
68K GAS   			page 88


 4155 164c 0000 0000 	.long.LASF320
 4156 1650 17        	.byte0x17
 4157 1651 49        	.byte0x49
 4158 1652 0000 161E 	.long0x161e
 4159 1656 06        	.uleb128 0x6
 4160 1657 EC        	.byte0xec
 4161 1658 17        	.byte0x17
 4162 1659 4D        	.byte0x4d
 4163 165a 0000 16D7 	.long0x16d7
 4164 165e 07        	.uleb128 0x7
 4165 165f 0000 0000 	.long.LASF321
 4166 1663 17        	.byte0x17
 4167 1664 4E        	.byte0x4e
 4168 1665 0000 0086 	.long0x86
 4169 1669 00        	.byte0
 4170 166a 07        	.uleb128 0x7
 4171 166b 0000 0000 	.long.LASF322
 4172 166f 17        	.byte0x17
 4173 1670 4F        	.byte0x4f
 4174 1671 0000 0086 	.long0x86
 4175 1675 04        	.byte0x4
 4176 1676 11        	.uleb128 0x11
 4177 1677 456E 6400 	.string"End"
 4178 167b 17        	.byte0x17
 4179 167c 50        	.byte0x50
 4180 167d 0000 0086 	.long0x86
 4181 1681 08        	.byte0x8
 4182 1682 07        	.uleb128 0x7
 4183 1683 0000 0000 	.long.LASF323
 4184 1687 17        	.byte0x17
 4185 1688 51        	.byte0x51
 4186 1689 0000 0086 	.long0x86
 4187 168d 0C        	.byte0xc
 4188 168e 07        	.uleb128 0x7
 4189 168f 0000 0000 	.long.LASF324
 4190 1693 17        	.byte0x17
 4191 1694 52        	.byte0x52
 4192 1695 0000 0050 	.long0x50
 4193 1699 10        	.byte0x10
 4194 169a 07        	.uleb128 0x7
 4195 169b 0000 0000 	.long.LASF325
 4196 169f 17        	.byte0x17
 4197 16a0 53        	.byte0x53
 4198 16a1 0000 0074 	.long0x74
 4199 16a5 14        	.byte0x14
 4200 16a6 07        	.uleb128 0x7
 4201 16a7 0000 0000 	.long.LASF326
 4202 16ab 17        	.byte0x17
 4203 16ac 54        	.byte0x54
 4204 16ad 0000 0074 	.long0x74
 4205 16b1 16        	.byte0x16
 4206 16b2 07        	.uleb128 0x7
 4207 16b3 0000 0000 	.long.LASF327
 4208 16b7 17        	.byte0x17
 4209 16b8 55        	.byte0x55
 4210 16b9 0000 0086 	.long0x86
 4211 16bd 18        	.byte0x18
68K GAS   			page 89


 4212 16be 07        	.uleb128 0x7
 4213 16bf 0000 0000 	.long.LASF328
 4214 16c3 17        	.byte0x17
 4215 16c4 56        	.byte0x56
 4216 16c5 0000 0086 	.long0x86
 4217 16c9 1C        	.byte0x1c
 4218 16ca 07        	.uleb128 0x7
 4219 16cb 0000 0000 	.long.LASF329
 4220 16cf 17        	.byte0x17
 4221 16d0 57        	.byte0x57
 4222 16d1 0000 16D7 	.long0x16d7
 4223 16d5 20        	.byte0x20
 4224 16d6 00        	.byte0
 4225 16d7 08        	.uleb128 0x8
 4226 16d8 0000 164B 	.long0x164b
 4227 16dc 0000 16E7 	.long0x16e7
 4228 16e0 09        	.uleb128 0x9
 4229 16e1 0000 0091 	.long0x91
 4230 16e5 10        	.byte0x10
 4231 16e6 00        	.byte0
 4232 16e7 02        	.uleb128 0x2
 4233 16e8 0000 0000 	.long.LASF330
 4234 16ec 17        	.byte0x17
 4235 16ed 58        	.byte0x58
 4236 16ee 0000 1656 	.long0x1656
 4237 16f2 20        	.uleb128 0x20
 4238 16f3 0000 0000 	.long.LASF331
 4239 16f7 17        	.byte0x17
 4240 16f8 60        	.byte0x60
 4241 16f9 0000 16E7 	.long0x16e7
 4242 16fd 20        	.uleb128 0x20
 4243 16fe 0000 0000 	.long.LASF332
 4244 1702 17        	.byte0x17
 4245 1703 61        	.byte0x61
 4246 1704 0000 1613 	.long0x1613
 4247 1708 06        	.uleb128 0x6
 4248 1709 34        	.byte0x34
 4249 170a 18        	.byte0x18
 4250 170b 43        	.byte0x43
 4251 170c 0000 174D 	.long0x174d
 4252 1710 07        	.uleb128 0x7
 4253 1711 0000 0000 	.long.LASF168
 4254 1715 18        	.byte0x18
 4255 1716 45        	.byte0x45
 4256 1717 0000 0DA3 	.long0xda3
 4257 171b 00        	.byte0
 4258 171c 07        	.uleb128 0x7
 4259 171d 0000 0000 	.long.LASF333
 4260 1721 18        	.byte0x18
 4261 1722 46        	.byte0x46
 4262 1723 0000 15B7 	.long0x15b7
 4263 1727 28        	.byte0x28
 4264 1728 07        	.uleb128 0x7
 4265 1729 0000 0000 	.long.LASF322
 4266 172d 18        	.byte0x18
 4267 172e 47        	.byte0x47
 4268 172f 0000 0086 	.long0x86
68K GAS   			page 90


 4269 1733 2C        	.byte0x2c
 4270 1734 07        	.uleb128 0x7
 4271 1735 0000 0000 	.long.LASF334
 4272 1739 18        	.byte0x18
 4273 173a 48        	.byte0x48
 4274 173b 0000 00AA 	.long0xaa
 4275 173f 30        	.byte0x30
 4276 1740 07        	.uleb128 0x7
 4277 1741 0000 0000 	.long.LASF335
 4278 1745 18        	.byte0x18
 4279 1746 49        	.byte0x49
 4280 1747 0000 00AA 	.long0xaa
 4281 174b 31        	.byte0x31
 4282 174c 00        	.byte0
 4283 174d 02        	.uleb128 0x2
 4284 174e 0000 0000 	.long.LASF336
 4285 1752 18        	.byte0x18
 4286 1753 4A        	.byte0x4a
 4287 1754 0000 1708 	.long0x1708
 4288 1758 22        	.uleb128 0x22
 4289 1759 6818      	.word0x6818
 4290 175b 18        	.byte0x18
 4291 175c 4C        	.byte0x4c
 4292 175d 0000 17AB 	.long0x17ab
 4293 1761 07        	.uleb128 0x7
 4294 1762 0000 0000 	.long.LASF337
 4295 1766 18        	.byte0x18
 4296 1767 4E        	.byte0x4e
 4297 1768 0000 0086 	.long0x86
 4298 176c 00        	.byte0
 4299 176d 07        	.uleb128 0x7
 4300 176e 0000 0000 	.long.LASF338
 4301 1772 18        	.byte0x18
 4302 1773 4F        	.byte0x4f
 4303 1774 0000 0086 	.long0x86
 4304 1778 04        	.byte0x4
 4305 1779 07        	.uleb128 0x7
 4306 177a 0000 0000 	.long.LASF339
 4307 177e 18        	.byte0x18
 4308 177f 50        	.byte0x50
 4309 1780 0000 0086 	.long0x86
 4310 1784 08        	.byte0x8
 4311 1785 07        	.uleb128 0x7
 4312 1786 0000 0000 	.long.LASF340
 4313 178a 18        	.byte0x18
 4314 178b 51        	.byte0x51
 4315 178c 0000 0086 	.long0x86
 4316 1790 0C        	.byte0xc
 4317 1791 07        	.uleb128 0x7
 4318 1792 0000 0000 	.long.LASF341
 4319 1796 18        	.byte0x18
 4320 1797 52        	.byte0x52
 4321 1798 0000 17AB 	.long0x17ab
 4322 179c 10        	.byte0x10
 4323 179d 13        	.uleb128 0x13
 4324 179e 0000 0000 	.long.LASF342
 4325 17a2 18        	.byte0x18
68K GAS   			page 91


 4326 17a3 53        	.byte0x53
 4327 17a4 0000 09C6 	.long0x9c6
 4328 17a8 6810      	.word0x6810
 4329 17aa 00        	.byte0
 4330 17ab 08        	.uleb128 0x8
 4331 17ac 0000 174D 	.long0x174d
 4332 17b0 0000 17BC 	.long0x17bc
 4333 17b4 24        	.uleb128 0x24
 4334 17b5 0000 0091 	.long0x91
 4335 17b9 01FF      	.word0x1ff
 4336 17bb 00        	.byte0
 4337 17bc 02        	.uleb128 0x2
 4338 17bd 0000 0000 	.long.LASF343
 4339 17c1 18        	.byte0x18
 4340 17c2 54        	.byte0x54
 4341 17c3 0000 1758 	.long0x1758
 4342 17c7 1B        	.uleb128 0x1b
 4343 17c8 BC        	.byte0xbc
 4344 17c9 19        	.byte0x19
 4345 17ca 05EE      	.word0x5ee
 4346 17cc 0000 17DE 	.long0x17de
 4347 17d0 18        	.uleb128 0x18
 4348 17d1 0000 0000 	.long.LASF344
 4349 17d5 19        	.byte0x19
 4350 17d6 05F0      	.word0x5f0
 4351 17d8 0000 0C8C 	.long0xc8c
 4352 17dc 00        	.byte0
 4353 17dd 00        	.byte0
 4354 17de 04        	.uleb128 0x4
 4355 17df 0000 0000 	.long.LASF345
 4356 17e3 19        	.byte0x19
 4357 17e4 05F2      	.word0x5f2
 4358 17e6 0000 17C7 	.long0x17c7
 4359 17ea 1B        	.uleb128 0x1b
 4360 17eb C8        	.byte0xc8
 4361 17ec 19        	.byte0x19
 4362 17ed 05F4      	.word0x5f4
 4363 17ef 0000 180E 	.long0x180e
 4364 17f3 18        	.uleb128 0x18
 4365 17f4 0000 0000 	.long.LASF234
 4366 17f8 19        	.byte0x19
 4367 17f9 05F6      	.word0x5f6
 4368 17fb 0000 0F2B 	.long0xf2b
 4369 17ff 00        	.byte0
 4370 1800 18        	.uleb128 0x18
 4371 1801 0000 0000 	.long.LASF235
 4372 1805 19        	.byte0x19
 4373 1806 05F7      	.word0x5f7
 4374 1808 0000 17DE 	.long0x17de
 4375 180c 0C        	.byte0xc
 4376 180d 00        	.byte0
 4377 180e 04        	.uleb128 0x4
 4378 180f 0000 0000 	.long.LASF346
 4379 1813 19        	.byte0x19
 4380 1814 05F8      	.word0x5f8
 4381 1816 0000 17EA 	.long0x17ea
 4382 181a 1B        	.uleb128 0x1b
68K GAS   			page 92


 4383 181b E0        	.byte0xe0
 4384 181c 19        	.byte0x19
 4385 181d 05FD      	.word0x5fd
 4386 181f 0000 183E 	.long0x183e
 4387 1823 18        	.uleb128 0x18
 4388 1824 0000 0000 	.long.LASF347
 4389 1828 19        	.byte0x19
 4390 1829 05FF      	.word0x5ff
 4391 182b 0000 0B65 	.long0xb65
 4392 182f 00        	.byte0
 4393 1830 18        	.uleb128 0x18
 4394 1831 0000 0000 	.long.LASF348
 4395 1835 19        	.byte0x19
 4396 1836 0601      	.word0x601
 4397 1838 0000 0D97 	.long0xd97
 4398 183c 04        	.byte0x4
 4399 183d 00        	.byte0
 4400 183e 04        	.uleb128 0x4
 4401 183f 0000 0000 	.long.LASF349
 4402 1843 19        	.byte0x19
 4403 1844 0602      	.word0x602
 4404 1846 0000 181A 	.long0x181a
 4405 184a 1B        	.uleb128 0x1b
 4406 184b EC        	.byte0xec
 4407 184c 19        	.byte0x19
 4408 184d 0604      	.word0x604
 4409 184f 0000 186E 	.long0x186e
 4410 1853 18        	.uleb128 0x18
 4411 1854 0000 0000 	.long.LASF234
 4412 1858 19        	.byte0x19
 4413 1859 0606      	.word0x606
 4414 185b 0000 0F2B 	.long0xf2b
 4415 185f 00        	.byte0
 4416 1860 18        	.uleb128 0x18
 4417 1861 0000 0000 	.long.LASF235
 4418 1865 19        	.byte0x19
 4419 1866 0607      	.word0x607
 4420 1868 0000 183E 	.long0x183e
 4421 186c 0C        	.byte0xc
 4422 186d 00        	.byte0
 4423 186e 04        	.uleb128 0x4
 4424 186f 0000 0000 	.long.LASF350
 4425 1873 19        	.byte0x19
 4426 1874 0608      	.word0x608
 4427 1876 0000 184A 	.long0x184a
 4428 187a 1B        	.uleb128 0x1b
 4429 187b 90        	.byte0x90
 4430 187c 19        	.byte0x19
 4431 187d 060F      	.word0x60f
 4432 187f 0000 1A72 	.long0x1a72
 4433 1883 18        	.uleb128 0x18
 4434 1884 0000 0000 	.long.LASF351
 4435 1888 19        	.byte0x19
 4436 1889 0611      	.word0x611
 4437 188b 0000 0069 	.long0x69
 4438 188f 00        	.byte0
 4439 1890 18        	.uleb128 0x18
68K GAS   			page 93


 4440 1891 0000 0000 	.long.LASF352
 4441 1895 19        	.byte0x19
 4442 1896 0613      	.word0x613
 4443 1898 0000 0069 	.long0x69
 4444 189c 01        	.byte0x1
 4445 189d 18        	.uleb128 0x18
 4446 189e 0000 0000 	.long.LASF353
 4447 18a2 19        	.byte0x19
 4448 18a3 0616      	.word0x616
 4449 18a5 0000 0074 	.long0x74
 4450 18a9 02        	.byte0x2
 4451 18aa 18        	.uleb128 0x18
 4452 18ab 0000 0000 	.long.LASF354
 4453 18af 19        	.byte0x19
 4454 18b0 0618      	.word0x618
 4455 18b2 0000 0069 	.long0x69
 4456 18b6 04        	.byte0x4
 4457 18b7 18        	.uleb128 0x18
 4458 18b8 0000 0000 	.long.LASF355
 4459 18bc 19        	.byte0x19
 4460 18bd 061A      	.word0x61a
 4461 18bf 0000 0069 	.long0x69
 4462 18c3 05        	.byte0x5
 4463 18c4 18        	.uleb128 0x18
 4464 18c5 0000 0000 	.long.LASF356
 4465 18c9 19        	.byte0x19
 4466 18ca 061C      	.word0x61c
 4467 18cc 0000 0069 	.long0x69
 4468 18d0 06        	.byte0x6
 4469 18d1 18        	.uleb128 0x18
 4470 18d2 0000 0000 	.long.LASF357
 4471 18d6 19        	.byte0x19
 4472 18d7 061E      	.word0x61e
 4473 18d9 0000 0069 	.long0x69
 4474 18dd 07        	.byte0x7
 4475 18de 18        	.uleb128 0x18
 4476 18df 0000 0000 	.long.LASF358
 4477 18e3 19        	.byte0x19
 4478 18e4 0620      	.word0x620
 4479 18e6 0000 0069 	.long0x69
 4480 18ea 08        	.byte0x8
 4481 18eb 18        	.uleb128 0x18
 4482 18ec 0000 0000 	.long.LASF359
 4483 18f0 19        	.byte0x19
 4484 18f1 0622      	.word0x622
 4485 18f3 0000 0069 	.long0x69
 4486 18f7 09        	.byte0x9
 4487 18f8 18        	.uleb128 0x18
 4488 18f9 0000 0000 	.long.LASF360
 4489 18fd 19        	.byte0x19
 4490 18fe 0624      	.word0x624
 4491 1900 0000 0069 	.long0x69
 4492 1904 0A        	.byte0xa
 4493 1905 18        	.uleb128 0x18
 4494 1906 0000 0000 	.long.LASF361
 4495 190a 19        	.byte0x19
 4496 190b 0626      	.word0x626
68K GAS   			page 94


 4497 190d 0000 0069 	.long0x69
 4498 1911 0B        	.byte0xb
 4499 1912 18        	.uleb128 0x18
 4500 1913 0000 0000 	.long.LASF362
 4501 1917 19        	.byte0x19
 4502 1918 0629      	.word0x629
 4503 191a 0000 0086 	.long0x86
 4504 191e 0C        	.byte0xc
 4505 191f 18        	.uleb128 0x18
 4506 1920 0000 0000 	.long.LASF363
 4507 1924 19        	.byte0x19
 4508 1925 062B      	.word0x62b
 4509 1927 0000 0086 	.long0x86
 4510 192b 10        	.byte0x10
 4511 192c 18        	.uleb128 0x18
 4512 192d 0000 0000 	.long.LASF364
 4513 1931 19        	.byte0x19
 4514 1932 062D      	.word0x62d
 4515 1934 0000 0086 	.long0x86
 4516 1938 14        	.byte0x14
 4517 1939 18        	.uleb128 0x18
 4518 193a 0000 0000 	.long.LASF365
 4519 193e 19        	.byte0x19
 4520 193f 062F      	.word0x62f
 4521 1941 0000 0086 	.long0x86
 4522 1945 18        	.byte0x18
 4523 1946 18        	.uleb128 0x18
 4524 1947 0000 0000 	.long.LASF288
 4525 194b 19        	.byte0x19
 4526 194c 0632      	.word0x632
 4527 194e 0000 0086 	.long0x86
 4528 1952 1C        	.byte0x1c
 4529 1953 18        	.uleb128 0x18
 4530 1954 0000 0000 	.long.LASF289
 4531 1958 19        	.byte0x19
 4532 1959 0634      	.word0x634
 4533 195b 0000 0086 	.long0x86
 4534 195f 20        	.byte0x20
 4535 1960 18        	.uleb128 0x18
 4536 1961 0000 0000 	.long.LASF366
 4537 1965 19        	.byte0x19
 4538 1966 0637      	.word0x637
 4539 1968 0000 0086 	.long0x86
 4540 196c 24        	.byte0x24
 4541 196d 18        	.uleb128 0x18
 4542 196e 0000 0000 	.long.LASF367
 4543 1972 19        	.byte0x19
 4544 1973 0639      	.word0x639
 4545 1975 0000 0086 	.long0x86
 4546 1979 28        	.byte0x28
 4547 197a 18        	.uleb128 0x18
 4548 197b 0000 0000 	.long.LASF368
 4549 197f 19        	.byte0x19
 4550 1980 063B      	.word0x63b
 4551 1982 0000 0086 	.long0x86
 4552 1986 2C        	.byte0x2c
 4553 1987 18        	.uleb128 0x18
68K GAS   			page 95


 4554 1988 0000 0000 	.long.LASF369
 4555 198c 19        	.byte0x19
 4556 198d 063D      	.word0x63d
 4557 198f 0000 0086 	.long0x86
 4558 1993 30        	.byte0x30
 4559 1994 18        	.uleb128 0x18
 4560 1995 0000 0000 	.long.LASF243
 4561 1999 19        	.byte0x19
 4562 199a 0640      	.word0x640
 4563 199c 0000 0086 	.long0x86
 4564 19a0 34        	.byte0x34
 4565 19a1 18        	.uleb128 0x18
 4566 19a2 0000 0000 	.long.LASF244
 4567 19a6 19        	.byte0x19
 4568 19a7 0642      	.word0x642
 4569 19a9 0000 0086 	.long0x86
 4570 19ad 38        	.byte0x38
 4571 19ae 18        	.uleb128 0x18
 4572 19af 0000 0000 	.long.LASF370
 4573 19b3 19        	.byte0x19
 4574 19b4 0644      	.word0x644
 4575 19b6 0000 0086 	.long0x86
 4576 19ba 3C        	.byte0x3c
 4577 19bb 18        	.uleb128 0x18
 4578 19bc 0000 0000 	.long.LASF371
 4579 19c0 19        	.byte0x19
 4580 19c1 0646      	.word0x646
 4581 19c3 0000 0086 	.long0x86
 4582 19c7 40        	.byte0x40
 4583 19c8 18        	.uleb128 0x18
 4584 19c9 0000 0000 	.long.LASF245
 4585 19cd 19        	.byte0x19
 4586 19ce 0648      	.word0x648
 4587 19d0 0000 0086 	.long0x86
 4588 19d4 44        	.byte0x44
 4589 19d5 18        	.uleb128 0x18
 4590 19d6 0000 0000 	.long.LASF372
 4591 19da 19        	.byte0x19
 4592 19db 064B      	.word0x64b
 4593 19dd 0000 0086 	.long0x86
 4594 19e1 48        	.byte0x48
 4595 19e2 18        	.uleb128 0x18
 4596 19e3 0000 0000 	.long.LASF373
 4597 19e7 19        	.byte0x19
 4598 19e8 064D      	.word0x64d
 4599 19ea 0000 0086 	.long0x86
 4600 19ee 4C        	.byte0x4c
 4601 19ef 18        	.uleb128 0x18
 4602 19f0 0000 0000 	.long.LASF374
 4603 19f4 19        	.byte0x19
 4604 19f5 064F      	.word0x64f
 4605 19f7 0000 0086 	.long0x86
 4606 19fb 50        	.byte0x50
 4607 19fc 18        	.uleb128 0x18
 4608 19fd 0000 0000 	.long.LASF375
 4609 1a01 19        	.byte0x19
 4610 1a02 0651      	.word0x651
68K GAS   			page 96


 4611 1a04 0000 120A 	.long0x120a
 4612 1a08 54        	.byte0x54
 4613 1a09 18        	.uleb128 0x18
 4614 1a0a 0000 0000 	.long.LASF376
 4615 1a0e 19        	.byte0x19
 4616 1a0f 0653      	.word0x653
 4617 1a11 0000 120A 	.long0x120a
 4618 1a15 64        	.byte0x64
 4619 1a16 18        	.uleb128 0x18
 4620 1a17 0000 0000 	.long.LASF377
 4621 1a1b 19        	.byte0x19
 4622 1a1c 0655      	.word0x655
 4623 1a1e 0000 0086 	.long0x86
 4624 1a22 74        	.byte0x74
 4625 1a23 18        	.uleb128 0x18
 4626 1a24 0000 0000 	.long.LASF378
 4627 1a28 19        	.byte0x19
 4628 1a29 0657      	.word0x657
 4629 1a2b 0000 0086 	.long0x86
 4630 1a2f 78        	.byte0x78
 4631 1a30 18        	.uleb128 0x18
 4632 1a31 0000 0000 	.long.LASF379
 4633 1a35 19        	.byte0x19
 4634 1a36 0659      	.word0x659
 4635 1a38 0000 0086 	.long0x86
 4636 1a3c 7C        	.byte0x7c
 4637 1a3d 18        	.uleb128 0x18
 4638 1a3e 0000 0000 	.long.LASF380
 4639 1a42 19        	.byte0x19
 4640 1a43 065B      	.word0x65b
 4641 1a45 0000 0086 	.long0x86
 4642 1a49 80        	.byte0x80
 4643 1a4a 18        	.uleb128 0x18
 4644 1a4b 0000 0000 	.long.LASF381
 4645 1a4f 19        	.byte0x19
 4646 1a50 065D      	.word0x65d
 4647 1a52 0000 0086 	.long0x86
 4648 1a56 84        	.byte0x84
 4649 1a57 18        	.uleb128 0x18
 4650 1a58 0000 0000 	.long.LASF382
 4651 1a5c 19        	.byte0x19
 4652 1a5d 065F      	.word0x65f
 4653 1a5f 0000 0086 	.long0x86
 4654 1a63 88        	.byte0x88
 4655 1a64 18        	.uleb128 0x18
 4656 1a65 0000 0000 	.long.LASF383
 4657 1a69 19        	.byte0x19
 4658 1a6a 0661      	.word0x661
 4659 1a6c 0000 0086 	.long0x86
 4660 1a70 8C        	.byte0x8c
 4661 1a71 00        	.byte0
 4662 1a72 04        	.uleb128 0x4
 4663 1a73 0000 0000 	.long.LASF384
 4664 1a77 19        	.byte0x19
 4665 1a78 0663      	.word0x663
 4666 1a7a 0000 187A 	.long0x187a
 4667 1a7e 1B        	.uleb128 0x1b
68K GAS   			page 97


 4668 1a7f 9C        	.byte0x9c
 4669 1a80 19        	.byte0x19
 4670 1a81 0665      	.word0x665
 4671 1a83 0000 1AA2 	.long0x1aa2
 4672 1a87 18        	.uleb128 0x18
 4673 1a88 0000 0000 	.long.LASF234
 4674 1a8c 19        	.byte0x19
 4675 1a8d 0667      	.word0x667
 4676 1a8f 0000 0F2B 	.long0xf2b
 4677 1a93 00        	.byte0
 4678 1a94 18        	.uleb128 0x18
 4679 1a95 0000 0000 	.long.LASF235
 4680 1a99 19        	.byte0x19
 4681 1a9a 0668      	.word0x668
 4682 1a9c 0000 1A72 	.long0x1a72
 4683 1aa0 0C        	.byte0xc
 4684 1aa1 00        	.byte0
 4685 1aa2 04        	.uleb128 0x4
 4686 1aa3 0000 0000 	.long.LASF385
 4687 1aa7 19        	.byte0x19
 4688 1aa8 066A      	.word0x66a
 4689 1aaa 0000 1A7E 	.long0x1a7e
 4690 1aae 1B        	.uleb128 0x1b
 4691 1aaf 40        	.byte0x40
 4692 1ab0 19        	.byte0x19
 4693 1ab1 066F      	.word0x66f
 4694 1ab3 0000 1AC5 	.long0x1ac5
 4695 1ab7 18        	.uleb128 0x18
 4696 1ab8 0000 0000 	.long.LASF386
 4697 1abc 19        	.byte0x19
 4698 1abd 0671      	.word0x671
 4699 1abf 0000 0B11 	.long0xb11
 4700 1ac3 00        	.byte0
 4701 1ac4 00        	.byte0
 4702 1ac5 04        	.uleb128 0x4
 4703 1ac6 0000 0000 	.long.LASF387
 4704 1aca 19        	.byte0x19
 4705 1acb 0673      	.word0x673
 4706 1acd 0000 1AAE 	.long0x1aae
 4707 1ad1 1B        	.uleb128 0x1b
 4708 1ad2 4C        	.byte0x4c
 4709 1ad3 19        	.byte0x19
 4710 1ad4 0675      	.word0x675
 4711 1ad6 0000 1AF5 	.long0x1af5
 4712 1ada 18        	.uleb128 0x18
 4713 1adb 0000 0000 	.long.LASF234
 4714 1adf 19        	.byte0x19
 4715 1ae0 0677      	.word0x677
 4716 1ae2 0000 0F2B 	.long0xf2b
 4717 1ae6 00        	.byte0
 4718 1ae7 18        	.uleb128 0x18
 4719 1ae8 0000 0000 	.long.LASF235
 4720 1aec 19        	.byte0x19
 4721 1aed 0678      	.word0x678
 4722 1aef 0000 1AC5 	.long0x1ac5
 4723 1af3 0C        	.byte0xc
 4724 1af4 00        	.byte0
68K GAS   			page 98


 4725 1af5 04        	.uleb128 0x4
 4726 1af6 0000 0000 	.long.LASF388
 4727 1afa 19        	.byte0x19
 4728 1afb 0679      	.word0x679
 4729 1afd 0000 1AD1 	.long0x1ad1
 4730 1b01 06        	.uleb128 0x6
 4731 1b02 4C        	.byte0x4c
 4732 1b03 1A        	.byte0x1a
 4733 1b04 60        	.byte0x60
 4734 1b05 0000 1B3A 	.long0x1b3a
 4735 1b09 07        	.uleb128 0x7
 4736 1b0a 0000 0000 	.long.LASF389
 4737 1b0e 1A        	.byte0x1a
 4738 1b0f 61        	.byte0x61
 4739 1b10 0000 0086 	.long0x86
 4740 1b14 00        	.byte0
 4741 1b15 07        	.uleb128 0x7
 4742 1b16 0000 0000 	.long.LASF390
 4743 1b1a 1A        	.byte0x1a
 4744 1b1b 62        	.byte0x62
 4745 1b1c 0000 0086 	.long0x86
 4746 1b20 04        	.byte0x4
 4747 1b21 07        	.uleb128 0x7
 4748 1b22 0000 0000 	.long.LASF391
 4749 1b26 1A        	.byte0x1a
 4750 1b27 63        	.byte0x63
 4751 1b28 0000 0B11 	.long0xb11
 4752 1b2c 08        	.byte0x8
 4753 1b2d 07        	.uleb128 0x7
 4754 1b2e 0000 0000 	.long.LASF392
 4755 1b32 1A        	.byte0x1a
 4756 1b33 64        	.byte0x64
 4757 1b34 0000 0050 	.long0x50
 4758 1b38 48        	.byte0x48
 4759 1b39 00        	.byte0
 4760 1b3a 02        	.uleb128 0x2
 4761 1b3b 0000 0000 	.long.LASF393
 4762 1b3f 1A        	.byte0x1a
 4763 1b40 65        	.byte0x65
 4764 1b41 0000 1B01 	.long0x1b01
 4765 1b45 20        	.uleb128 0x20
 4766 1b46 0000 0000 	.long.LASF394
 4767 1b4a 1A        	.byte0x1a
 4768 1b4b 67        	.byte0x67
 4769 1b4c 0000 1B3A 	.long0x1b3a
 4770 1b50 06        	.uleb128 0x6
 4771 1b51 1C        	.byte0x1c
 4772 1b52 1B        	.byte0x1b
 4773 1b53 67        	.byte0x67
 4774 1b54 0000 1B7D 	.long0x1b7d
 4775 1b58 07        	.uleb128 0x7
 4776 1b59 0000 0000 	.long.LASF305
 4777 1b5d 1B        	.byte0x1b
 4778 1b5e 69        	.byte0x69
 4779 1b5f 0000 00AA 	.long0xaa
 4780 1b63 00        	.byte0
 4781 1b64 07        	.uleb128 0x7
68K GAS   			page 99


 4782 1b65 0000 0000 	.long.LASF395
 4783 1b69 1B        	.byte0x1b
 4784 1b6a 6A        	.byte0x6a
 4785 1b6b 0000 0086 	.long0x86
 4786 1b6f 04        	.byte0x4
 4787 1b70 07        	.uleb128 0x7
 4788 1b71 0000 0000 	.long.LASF396
 4789 1b75 1B        	.byte0x1b
 4790 1b76 6B        	.byte0x6b
 4791 1b77 0000 0107 	.long0x107
 4792 1b7b 08        	.byte0x8
 4793 1b7c 00        	.byte0
 4794 1b7d 02        	.uleb128 0x2
 4795 1b7e 0000 0000 	.long.LASF397
 4796 1b82 1B        	.byte0x1b
 4797 1b83 6C        	.byte0x6c
 4798 1b84 0000 1B50 	.long0x1b50
 4799 1b88 22        	.uleb128 0x22
 4800 1b89 87FC      	.word0x87fc
 4801 1b8b 1B        	.byte0x1b
 4802 1b8c 74        	.byte0x74
 4803 1b8d 0000 1C41 	.long0x1c41
 4804 1b91 07        	.uleb128 0x7
 4805 1b92 0000 0000 	.long.LASF248
 4806 1b96 1B        	.byte0x1b
 4807 1b97 79        	.byte0x79
 4808 1b98 0000 1055 	.long0x1055
 4809 1b9c 00        	.byte0
 4810 1b9d 07        	.uleb128 0x7
 4811 1b9e 0000 0000 	.long.LASF398
 4812 1ba2 1B        	.byte0x1b
 4813 1ba3 7E        	.byte0x7e
 4814 1ba4 0000 0086 	.long0x86
 4815 1ba8 10        	.byte0x10
 4816 1ba9 07        	.uleb128 0x7
 4817 1baa 0000 0000 	.long.LASF399
 4818 1bae 1B        	.byte0x1b
 4819 1baf 83        	.byte0x83
 4820 1bb0 0000 0086 	.long0x86
 4821 1bb4 14        	.byte0x14
 4822 1bb5 07        	.uleb128 0x7
 4823 1bb6 0000 0000 	.long.LASF400
 4824 1bba 1B        	.byte0x1b
 4825 1bbb 84        	.byte0x84
 4826 1bbc 0000 0086 	.long0x86
 4827 1bc0 18        	.byte0x18
 4828 1bc1 07        	.uleb128 0x7
 4829 1bc2 0000 0000 	.long.LASF401
 4830 1bc6 1B        	.byte0x1b
 4831 1bc7 85        	.byte0x85
 4832 1bc8 0000 0086 	.long0x86
 4833 1bcc 1C        	.byte0x1c
 4834 1bcd 07        	.uleb128 0x7
 4835 1bce 0000 0000 	.long.LASF368
 4836 1bd2 1B        	.byte0x1b
 4837 1bd3 8A        	.byte0x8a
 4838 1bd4 0000 0086 	.long0x86
68K GAS   			page 100


 4839 1bd8 20        	.byte0x20
 4840 1bd9 07        	.uleb128 0x7
 4841 1bda 0000 0000 	.long.LASF402
 4842 1bde 1B        	.byte0x1b
 4843 1bdf 8B        	.byte0x8b
 4844 1be0 0000 1C41 	.long0x1c41
 4845 1be4 24        	.byte0x24
 4846 1be5 13        	.uleb128 0x13
 4847 1be6 0000 0000 	.long.LASF366
 4848 1bea 1B        	.byte0x1b
 4849 1beb 90        	.byte0x90
 4850 1bec 0000 0086 	.long0x86
 4851 1bf0 0924      	.word0x924
 4852 1bf2 13        	.uleb128 0x13
 4853 1bf3 0000 0000 	.long.LASF367
 4854 1bf7 1B        	.byte0x1b
 4855 1bf8 91        	.byte0x91
 4856 1bf9 0000 0086 	.long0x86
 4857 1bfd 0928      	.word0x928
 4858 1bff 13        	.uleb128 0x13
 4859 1c00 0000 0000 	.long.LASF403
 4860 1c04 1B        	.byte0x1b
 4861 1c05 92        	.byte0x92
 4862 1c06 0000 1C51 	.long0x1c51
 4863 1c0a 092C      	.word0x92c
 4864 1c0c 13        	.uleb128 0x13
 4865 1c0d 0000 0000 	.long.LASF369
 4866 1c11 1B        	.byte0x1b
 4867 1c12 97        	.byte0x97
 4868 1c13 0000 0086 	.long0x86
 4869 1c17 1E2C      	.word0x1e2c
 4870 1c19 13        	.uleb128 0x13
 4871 1c1a 0000 0000 	.long.LASF404
 4872 1c1e 1B        	.byte0x1b
 4873 1c1f 98        	.byte0x98
 4874 1c20 0000 1C61 	.long0x1c61
 4875 1c24 1E30      	.word0x1e30
 4876 1c26 13        	.uleb128 0x13
 4877 1c27 0000 0000 	.long.LASF405
 4878 1c2b 1B        	.byte0x1b
 4879 1c2c 9D        	.byte0x9d
 4880 1c2d 0000 1C71 	.long0x1c71
 4881 1c31 1F04      	.word0x1f04
 4882 1c33 13        	.uleb128 0x13
 4883 1c34 0000 0000 	.long.LASF406
 4884 1c38 1B        	.byte0x1b
 4885 1c39 A2        	.byte0xa2
 4886 1c3a 0000 17BC 	.long0x17bc
 4887 1c3e 1FE4      	.word0x1fe4
 4888 1c40 00        	.byte0
 4889 1c41 08        	.uleb128 0x8
 4890 1c42 0000 1580 	.long0x1580
 4891 1c46 0000 1C51 	.long0x1c51
 4892 1c4a 09        	.uleb128 0x9
 4893 1c4b 0000 0091 	.long0x91
 4894 1c4f 3F        	.byte0x3f
 4895 1c50 00        	.byte0
68K GAS   			page 101


 4896 1c51 08        	.uleb128 0x8
 4897 1c52 0000 1530 	.long0x1530
 4898 1c56 0000 1C61 	.long0x1c61
 4899 1c5a 09        	.uleb128 0x9
 4900 1c5b 0000 0091 	.long0x91
 4901 1c5f 1F        	.byte0x1f
 4902 1c60 00        	.byte0
 4903 1c61 08        	.uleb128 0x8
 4904 1c62 0000 15AC 	.long0x15ac
 4905 1c66 0000 1C71 	.long0x1c71
 4906 1c6a 09        	.uleb128 0x9
 4907 1c6b 0000 0091 	.long0x91
 4908 1c6f 09        	.byte0x9
 4909 1c70 00        	.byte0
 4910 1c71 08        	.uleb128 0x8
 4911 1c72 0000 1B7D 	.long0x1b7d
 4912 1c76 0000 1C81 	.long0x1c81
 4913 1c7a 09        	.uleb128 0x9
 4914 1c7b 0000 0091 	.long0x91
 4915 1c7f 07        	.byte0x7
 4916 1c80 00        	.byte0
 4917 1c81 02        	.uleb128 0x2
 4918 1c82 0000 0000 	.long.LASF407
 4919 1c86 1B        	.byte0x1b
 4920 1c87 A4        	.byte0xa4
 4921 1c88 0000 1B88 	.long0x1b88
 4922 1c8c 20        	.uleb128 0x20
 4923 1c8d 0000 0000 	.long.LASF408
 4924 1c91 1B        	.byte0x1b
 4925 1c92 A9        	.byte0xa9
 4926 1c93 0000 1C81 	.long0x1c81
 4927 1c97 20        	.uleb128 0x20
 4928 1c98 0000 0000 	.long.LASF409
 4929 1c9c 1B        	.byte0x1b
 4930 1c9d AE        	.byte0xae
 4931 1c9e 0000 1CA2 	.long0x1ca2
 4932 1ca2 0E        	.uleb128 0xe
 4933 1ca3 04        	.byte0x4
 4934 1ca4 0000 13FC 	.long0x13fc
 4935 1ca8 22        	.uleb128 0x22
 4936 1ca9 02C0      	.word0x2c0
 4937 1cab 1C        	.byte0x1c
 4938 1cac 69        	.byte0x69
 4939 1cad 0000 1D49 	.long0x1d49
 4940 1cb1 07        	.uleb128 0x7
 4941 1cb2 0000 0000 	.long.LASF351
 4942 1cb6 1C        	.byte0x1c
 4943 1cb7 6E        	.byte0x6e
 4944 1cb8 0000 0069 	.long0x69
 4945 1cbc 00        	.byte0
 4946 1cbd 07        	.uleb128 0x7
 4947 1cbe 0000 0000 	.long.LASF352
 4948 1cc2 1C        	.byte0x1c
 4949 1cc3 6F        	.byte0x6f
 4950 1cc4 0000 0069 	.long0x69
 4951 1cc8 01        	.byte0x1
 4952 1cc9 07        	.uleb128 0x7
68K GAS   			page 102


 4953 1cca 0000 0000 	.long.LASF410
 4954 1cce 1C        	.byte0x1c
 4955 1ccf 74        	.byte0x74
 4956 1cd0 0000 1AA2 	.long0x1aa2
 4957 1cd4 04        	.byte0x4
 4958 1cd5 07        	.uleb128 0x7
 4959 1cd6 0000 0000 	.long.LASF411
 4960 1cda 1C        	.byte0x1c
 4961 1cdb 7A        	.byte0x7a
 4962 1cdc 0000 1AF5 	.long0x1af5
 4963 1ce0 A0        	.byte0xa0
 4964 1ce1 07        	.uleb128 0x7
 4965 1ce2 0000 0000 	.long.LASF412
 4966 1ce6 1C        	.byte0x1c
 4967 1ce7 7F        	.byte0x7f
 4968 1ce8 0000 180E 	.long0x180e
 4969 1cec EC        	.byte0xec
 4970 1ced 13        	.uleb128 0x13
 4971 1cee 0000 0000 	.long.LASF413
 4972 1cf2 1C        	.byte0x1c
 4973 1cf3 84        	.byte0x84
 4974 1cf4 0000 186E 	.long0x186e
 4975 1cf8 01B4      	.word0x1b4
 4976 1cfa 13        	.uleb128 0x13
 4977 1cfb 0000 0000 	.long.LASF414
 4978 1cff 1C        	.byte0x1c
 4979 1d00 89        	.byte0x89
 4980 1d01 0000 0EE3 	.long0xee3
 4981 1d05 02A0      	.word0x2a0
 4982 1d07 13        	.uleb128 0x13
 4983 1d08 0000 0000 	.long.LASF415
 4984 1d0c 1C        	.byte0x1c
 4985 1d0d 8A        	.byte0x8a
 4986 1d0e 0000 0ED8 	.long0xed8
 4987 1d12 02A4      	.word0x2a4
 4988 1d14 13        	.uleb128 0x13
 4989 1d15 0000 0000 	.long.LASF416
 4990 1d19 1C        	.byte0x1c
 4991 1d1a 8F        	.byte0x8f
 4992 1d1b 0000 0107 	.long0x107
 4993 1d1f 02A5      	.word0x2a5
 4994 1d21 13        	.uleb128 0x13
 4995 1d22 0000 0000 	.long.LASF417
 4996 1d26 1C        	.byte0x1c
 4997 1d27 90        	.byte0x90
 4998 1d28 0000 0074 	.long0x74
 4999 1d2c 02BA      	.word0x2ba
 5000 1d2e 13        	.uleb128 0x13
 5001 1d2f 0000 0000 	.long.LASF418
 5002 1d33 1C        	.byte0x1c
 5003 1d34 92        	.byte0x92
 5004 1d35 0000 0069 	.long0x69
 5005 1d39 02BC      	.word0x2bc
 5006 1d3b 13        	.uleb128 0x13
 5007 1d3c 0000 0000 	.long.LASF419
 5008 1d40 1C        	.byte0x1c
 5009 1d41 93        	.byte0x93
68K GAS   			page 103


 5010 1d42 0000 0069 	.long0x69
 5011 1d46 02BD      	.word0x2bd
 5012 1d48 00        	.byte0
 5013 1d49 02        	.uleb128 0x2
 5014 1d4a 0000 0000 	.long.LASF420
 5015 1d4e 1C        	.byte0x1c
 5016 1d4f 95        	.byte0x95
 5017 1d50 0000 1CA8 	.long0x1ca8
 5018 1d54 20        	.uleb128 0x20
 5019 1d55 0000 0000 	.long.LASF421
 5020 1d59 1C        	.byte0x1c
 5021 1d5a 9A        	.byte0x9a
 5022 1d5b 0000 1D49 	.long0x1d49
 5023 1d5f 26        	.uleb128 0x26
 5024 1d60 0000 0000 	.long.LASF436
 5025 1d64 01        	.byte0x1
 5026 1d65 018D      	.word0x18d
 5027 1d67 0000 0050 	.long0x50
 5028 1d6b 0000 0000 	.long.LFB62
 5029 1d6f 0000 0454 	.long.LFE62-.LFB62
 5030 1d73 01        	.uleb128 0x1
 5031 1d74 9C        	.byte0x9c
 5032 1d75 0000 1E78 	.long0x1e78
 5033 1d79 27        	.uleb128 0x27
 5034 1d7a 6664 00   	.string"fd"
 5035 1d7d 01        	.byte0x1
 5036 1d7e 018D      	.word0x18d
 5037 1d80 0000 0050 	.long0x50
 5038 1d84 02        	.uleb128 0x2
 5039 1d85 91        	.byte0x91
 5040 1d86 00        	.sleb128 0
 5041 1d87 28        	.uleb128 0x28
 5042 1d88 0000 0000 	.long.LASF422
 5043 1d8c 01        	.byte0x1
 5044 1d8d 018F      	.word0x18f
 5045 1d8f 0000 0050 	.long0x50
 5046 1d93 02        	.uleb128 0x2
 5047 1d94 91        	.byte0x91
 5048 1d95 78        	.sleb128 -8
 5049 1d96 28        	.uleb128 0x28
 5050 1d97 0000 0000 	.long.LASF423
 5051 1d9b 01        	.byte0x1
 5052 1d9c 0190      	.word0x190
 5053 1d9e 0000 0050 	.long0x50
 5054 1da2 02        	.uleb128 0x2
 5055 1da3 91        	.byte0x91
 5056 1da4 74        	.sleb128 -12
 5057 1da5 28        	.uleb128 0x28
 5058 1da6 0000 0000 	.long.LASF424
 5059 1daa 01        	.byte0x1
 5060 1dab 0191      	.word0x191
 5061 1dad 0000 0050 	.long0x50
 5062 1db1 02        	.uleb128 0x2
 5063 1db2 91        	.byte0x91
 5064 1db3 70        	.sleb128 -16
 5065 1db4 28        	.uleb128 0x28
 5066 1db5 0000 0000 	.long.LASF425
68K GAS   			page 104


 5067 1db9 01        	.byte0x1
 5068 1dba 0192      	.word0x192
 5069 1dbc 0000 0050 	.long0x50
 5070 1dc0 02        	.uleb128 0x2
 5071 1dc1 91        	.byte0x91
 5072 1dc2 6C        	.sleb128 -20
 5073 1dc3 28        	.uleb128 0x28
 5074 1dc4 0000 0000 	.long.LASF426
 5075 1dc8 01        	.byte0x1
 5076 1dc9 0193      	.word0x193
 5077 1dcb 0000 0050 	.long0x50
 5078 1dcf 02        	.uleb128 0x2
 5079 1dd0 91        	.byte0x91
 5080 1dd1 68        	.sleb128 -24
 5081 1dd2 28        	.uleb128 0x28
 5082 1dd3 0000 0000 	.long.LASF427
 5083 1dd7 01        	.byte0x1
 5084 1dd8 0194      	.word0x194
 5085 1dda 0000 0050 	.long0x50
 5086 1dde 02        	.uleb128 0x2
 5087 1ddf 91        	.byte0x91
 5088 1de0 64        	.sleb128 -28
 5089 1de1 28        	.uleb128 0x28
 5090 1de2 0000 0000 	.long.LASF428
 5091 1de6 01        	.byte0x1
 5092 1de7 0195      	.word0x195
 5093 1de9 0000 0050 	.long0x50
 5094 1ded 02        	.uleb128 0x2
 5095 1dee 91        	.byte0x91
 5096 1def 60        	.sleb128 -32
 5097 1df0 28        	.uleb128 0x28
 5098 1df1 0000 0000 	.long.LASF429
 5099 1df5 01        	.byte0x1
 5100 1df6 0196      	.word0x196
 5101 1df8 0000 01EA 	.long0x1ea
 5102 1dfc 03        	.uleb128 0x3
 5103 1dfd 91        	.byte0x91
 5104 1dfe B97F      	.sleb128 -71
 5105 1e00 29        	.uleb128 0x29
 5106 1e01 0000 0000 	.long.LBB2
 5107 1e05 0000 011C 	.long.LBE2-.LBB2
 5108 1e09 28        	.uleb128 0x28
 5109 1e0a 0000 0000 	.long.LASF430
 5110 1e0e 01        	.byte0x1
 5111 1e0f 01AB      	.word0x1ab
 5112 1e11 0000 0117 	.long0x117
 5113 1e15 03        	.uleb128 0x3
 5114 1e16 91        	.byte0x91
 5115 1e17 E07D      	.sleb128 -288
 5116 1e19 28        	.uleb128 0x28
 5117 1e1a 0000 0000 	.long.LASF431
 5118 1e1e 01        	.byte0x1
 5119 1e1f 01AC      	.word0x1ac
 5120 1e21 0000 0143 	.long0x143
 5121 1e25 03        	.uleb128 0x3
 5122 1e26 91        	.byte0x91
 5123 1e27 A07F      	.sleb128 -96
68K GAS   			page 105


 5124 1e29 28        	.uleb128 0x28
 5125 1e2a 0000 0000 	.long.LASF432
 5126 1e2e 01        	.byte0x1
 5127 1e2f 01AD      	.word0x1ad
 5128 1e31 0000 017B 	.long0x17b
 5129 1e35 03        	.uleb128 0x3
 5130 1e36 91        	.byte0x91
 5131 1e37 847F      	.sleb128 -124
 5132 1e39 28        	.uleb128 0x28
 5133 1e3a 0000 0000 	.long.LASF433
 5134 1e3e 01        	.byte0x1
 5135 1e3f 01AE      	.word0x1ae
 5136 1e41 0000 01B3 	.long0x1b3
 5137 1e45 03        	.uleb128 0x3
 5138 1e46 91        	.byte0x91
 5139 1e47 E87E      	.sleb128 -152
 5140 1e49 28        	.uleb128 0x28
 5141 1e4a 0000 0000 	.long.LASF434
 5142 1e4e 01        	.byte0x1
 5143 1e4f 01AF      	.word0x1af
 5144 1e51 0000 01DF 	.long0x1df
 5145 1e55 03        	.uleb128 0x3
 5146 1e56 91        	.byte0x91
 5147 1e57 D07E      	.sleb128 -176
 5148 1e59 28        	.uleb128 0x28
 5149 1e5a 0000 0000 	.long.LASF435
 5150 1e5e 01        	.byte0x1
 5151 1e5f 01B0      	.word0x1b0
 5152 1e61 0000 0B5A 	.long0xb5a
 5153 1e65 03        	.uleb128 0x3
 5154 1e66 91        	.byte0x91
 5155 1e67 847E      	.sleb128 -252
 5156 1e69 2A        	.uleb128 0x2a
 5157 1e6a 6900      	.string"i"
 5158 1e6c 01        	.byte0x1
 5159 1e6d 01B2      	.word0x1b2
 5160 1e6f 0000 0086 	.long0x86
 5161 1e73 02        	.uleb128 0x2
 5162 1e74 91        	.byte0x91
 5163 1e75 5C        	.sleb128 -36
 5164 1e76 00        	.byte0
 5165 1e77 00        	.byte0
 5166 1e78 26        	.uleb128 0x26
 5167 1e79 0000 0000 	.long.LASF437
 5168 1e7d 01        	.byte0x1
 5169 1e7e 013F      	.word0x13f
 5170 1e80 0000 0050 	.long0x50
 5171 1e84 0000 0000 	.long.LFB61
 5172 1e88 0000 01BE 	.long.LFE61-.LFB61
 5173 1e8c 01        	.uleb128 0x1
 5174 1e8d 9C        	.byte0x9c
 5175 1e8e 0000 1EDD 	.long0x1edd
 5176 1e92 27        	.uleb128 0x27
 5177 1e93 6664 00   	.string"fd"
 5178 1e96 01        	.byte0x1
 5179 1e97 013F      	.word0x13f
 5180 1e99 0000 0050 	.long0x50
68K GAS   			page 106


 5181 1e9d 02        	.uleb128 0x2
 5182 1e9e 91        	.byte0x91
 5183 1e9f 00        	.sleb128 0
 5184 1ea0 2A        	.uleb128 0x2a
 5185 1ea1 6900      	.string"i"
 5186 1ea3 01        	.byte0x1
 5187 1ea4 0141      	.word0x141
 5188 1ea6 0000 0086 	.long0x86
 5189 1eaa 02        	.uleb128 0x2
 5190 1eab 91        	.byte0x91
 5191 1eac 78        	.sleb128 -8
 5192 1ead 28        	.uleb128 0x28
 5193 1eae 0000 0000 	.long.LASF429
 5194 1eb2 01        	.byte0x1
 5195 1eb3 0142      	.word0x142
 5196 1eb5 0000 1EDD 	.long0x1edd
 5197 1eb9 03        	.uleb128 0x3
 5198 1eba 91        	.byte0x91
 5199 1ebb F47E      	.sleb128 -140
 5200 1ebd 28        	.uleb128 0x28
 5201 1ebe 0000 0000 	.long.LASF422
 5202 1ec2 01        	.byte0x1
 5203 1ec3 0143      	.word0x143
 5204 1ec5 0000 0050 	.long0x50
 5205 1ec9 02        	.uleb128 0x2
 5206 1eca 91        	.byte0x91
 5207 1ecb 74        	.sleb128 -12
 5208 1ecc 28        	.uleb128 0x28
 5209 1ecd 0000 0000 	.long.LASF308
 5210 1ed1 01        	.byte0x1
 5211 1ed2 0144      	.word0x144
 5212 1ed4 0000 0CF3 	.long0xcf3
 5213 1ed8 03        	.uleb128 0x3
 5214 1ed9 91        	.byte0x91
 5215 1eda C07E      	.sleb128 -192
 5216 1edc 00        	.byte0
 5217 1edd 08        	.uleb128 0x8
 5218 1ede 0000 00B6 	.long0xb6
 5219 1ee2 0000 1EED 	.long0x1eed
 5220 1ee6 09        	.uleb128 0x9
 5221 1ee7 0000 0091 	.long0x91
 5222 1eeb 7F        	.byte0x7f
 5223 1eec 00        	.byte0
 5224 1eed 26        	.uleb128 0x26
 5225 1eee 0000 0000 	.long.LASF438
 5226 1ef2 01        	.byte0x1
 5227 1ef3 011C      	.word0x11c
 5228 1ef5 0000 0050 	.long0x50
 5229 1ef9 0000 0000 	.long.LFB60
 5230 1efd 0000 00F4 	.long.LFE60-.LFB60
 5231 1f01 01        	.uleb128 0x1
 5232 1f02 9C        	.byte0x9c
 5233 1f03 0000 1F41 	.long0x1f41
 5234 1f07 27        	.uleb128 0x27
 5235 1f08 6664 00   	.string"fd"
 5236 1f0b 01        	.byte0x1
 5237 1f0c 011C      	.word0x11c
68K GAS   			page 107


 5238 1f0e 0000 0050 	.long0x50
 5239 1f12 02        	.uleb128 0x2
 5240 1f13 91        	.byte0x91
 5241 1f14 00        	.sleb128 0
 5242 1f15 2A        	.uleb128 0x2a
 5243 1f16 6900      	.string"i"
 5244 1f18 01        	.byte0x1
 5245 1f19 011E      	.word0x11e
 5246 1f1b 0000 0086 	.long0x86
 5247 1f1f 02        	.uleb128 0x2
 5248 1f20 91        	.byte0x91
 5249 1f21 78        	.sleb128 -8
 5250 1f22 28        	.uleb128 0x28
 5251 1f23 0000 0000 	.long.LASF429
 5252 1f27 01        	.byte0x1
 5253 1f28 011F      	.word0x11f
 5254 1f2a 0000 1F41 	.long0x1f41
 5255 1f2e 02        	.uleb128 0x2
 5256 1f2f 91        	.byte0x91
 5257 1f30 5E        	.sleb128 -34
 5258 1f31 28        	.uleb128 0x28
 5259 1f32 0000 0000 	.long.LASF422
 5260 1f36 01        	.byte0x1
 5261 1f37 0120      	.word0x120
 5262 1f39 0000 0050 	.long0x50
 5263 1f3d 02        	.uleb128 0x2
 5264 1f3e 91        	.byte0x91
 5265 1f3f 74        	.sleb128 -12
 5266 1f40 00        	.byte0
 5267 1f41 08        	.uleb128 0x8
 5268 1f42 0000 00B6 	.long0xb6
 5269 1f46 0000 1F51 	.long0x1f51
 5270 1f4a 09        	.uleb128 0x9
 5271 1f4b 0000 0091 	.long0x91
 5272 1f4f 15        	.byte0x15
 5273 1f50 00        	.byte0
 5274 1f51 2B        	.uleb128 0x2b
 5275 1f52 0000 0000 	.long.LASF439
 5276 1f56 01        	.byte0x1
 5277 1f57 4F        	.byte0x4f
 5278 1f58 0000 0050 	.long0x50
 5279 1f5c 0000 0000 	.long.LFB59
 5280 1f60 0000 0414 	.long.LFE59-.LFB59
 5281 1f64 01        	.uleb128 0x1
 5282 1f65 9C        	.byte0x9c
 5283 1f66 0000 2004 	.long0x2004
 5284 1f6a 2C        	.uleb128 0x2c
 5285 1f6b 0000 0000 	.long.LASF440
 5286 1f6f 01        	.byte0x1
 5287 1f70 4F        	.byte0x4f
 5288 1f71 0000 02AA 	.long0x2aa
 5289 1f75 02        	.uleb128 0x2
 5290 1f76 91        	.byte0x91
 5291 1f77 00        	.sleb128 0
 5292 1f78 2C        	.uleb128 0x2c
 5293 1f79 0000 0000 	.long.LASF441
 5294 1f7d 01        	.byte0x1
68K GAS   			page 108


 5295 1f7e 4F        	.byte0x4f
 5296 1f7f 0000 02AA 	.long0x2aa
 5297 1f83 02        	.uleb128 0x2
 5298 1f84 91        	.byte0x91
 5299 1f85 04        	.sleb128 4
 5300 1f86 2D        	.uleb128 0x2d
 5301 1f87 0000 0000 	.long.LASF422
 5302 1f8b 01        	.byte0x1
 5303 1f8c 51        	.byte0x51
 5304 1f8d 0000 0050 	.long0x50
 5305 1f91 02        	.uleb128 0x2
 5306 1f92 91        	.byte0x91
 5307 1f93 78        	.sleb128 -8
 5308 1f94 2D        	.uleb128 0x2d
 5309 1f95 0000 0000 	.long.LASF442
 5310 1f99 01        	.byte0x1
 5311 1f9a 52        	.byte0x52
 5312 1f9b 0000 0050 	.long0x50
 5313 1f9f 02        	.uleb128 0x2
 5314 1fa0 91        	.byte0x91
 5315 1fa1 74        	.sleb128 -12
 5316 1fa2 2E        	.uleb128 0x2e
 5317 1fa3 6664 00   	.string"fd"
 5318 1fa6 01        	.byte0x1
 5319 1fa7 53        	.byte0x53
 5320 1fa8 0000 0050 	.long0x50
 5321 1fac 02        	.uleb128 0x2
 5322 1fad 91        	.byte0x91
 5323 1fae 68        	.sleb128 -24
 5324 1faf 2D        	.uleb128 0x2d
 5325 1fb0 0000 0000 	.long.LASF443
 5326 1fb4 01        	.byte0x1
 5327 1fb5 54        	.byte0x54
 5328 1fb6 0000 0050 	.long0x50
 5329 1fba 02        	.uleb128 0x2
 5330 1fbb 91        	.byte0x91
 5331 1fbc 64        	.sleb128 -28
 5332 1fbd 2D        	.uleb128 0x2d
 5333 1fbe 0000 0000 	.long.LASF444
 5334 1fc2 01        	.byte0x1
 5335 1fc3 55        	.byte0x55
 5336 1fc4 0000 0050 	.long0x50
 5337 1fc8 02        	.uleb128 0x2
 5338 1fc9 91        	.byte0x91
 5339 1fca 70        	.sleb128 -16
 5340 1fcb 2E        	.uleb128 0x2e
 5341 1fcc 6900      	.string"i"
 5342 1fce 01        	.byte0x1
 5343 1fcf 56        	.byte0x56
 5344 1fd0 0000 0086 	.long0x86
 5345 1fd4 02        	.uleb128 0x2
 5346 1fd5 91        	.byte0x91
 5347 1fd6 6C        	.sleb128 -20
 5348 1fd7 2D        	.uleb128 0x2d
 5349 1fd8 0000 0000 	.long.LASF445
 5350 1fdc 01        	.byte0x1
 5351 1fdd 59        	.byte0x59
68K GAS   			page 109


 5352 1fde 0000 2004 	.long0x2004
 5353 1fe2 02        	.uleb128 0x2
 5354 1fe3 91        	.byte0x91
 5355 1fe4 60        	.sleb128 -32
 5356 1fe5 2E        	.uleb128 0x2e
 5357 1fe6 436D 6400 	.string"Cmd"
 5358 1fea 01        	.byte0x1
 5359 1feb 5A        	.byte0x5a
 5360 1fec 0000 0B11 	.long0xb11
 5361 1ff0 03        	.uleb128 0x3
 5362 1ff1 91        	.byte0x91
 5363 1ff2 A07F      	.sleb128 -96
 5364 1ff4 2D        	.uleb128 0x2d
 5365 1ff5 0000 0000 	.long.LASF446
 5366 1ff9 01        	.byte0x1
 5367 1ffa 5B        	.byte0x5b
 5368 1ffb 0000 0B11 	.long0xb11
 5369 1fff 03        	.uleb128 0x3
 5370 2000 91        	.byte0x91
 5371 2001 E07E      	.sleb128 -160
 5372 2003 00        	.byte0
 5373 2004 2F        	.uleb128 0x2f
 5374 2005 0000 00B6 	.long0xb6
 5375 2009 09        	.uleb128 0x9
 5376 200a 0000 0091 	.long0x91
 5377 200e 03        	.byte0x3
 5378 200f 00        	.byte0
 5379 2010 00        	.byte0
 5380               	.section.debug_abbrev,"",@progbits
 5381               	.Ldebug_abbrev0:
 5382 0000 01        	.uleb128 0x1
 5383 0001 11        	.uleb128 0x11
 5384 0002 01        	.byte0x1
 5385 0003 25        	.uleb128 0x25
 5386 0004 0E        	.uleb128 0xe
 5387 0005 13        	.uleb128 0x13
 5388 0006 0B        	.uleb128 0xb
 5389 0007 03        	.uleb128 0x3
 5390 0008 0E        	.uleb128 0xe
 5391 0009 1B        	.uleb128 0x1b
 5392 000a 0E        	.uleb128 0xe
 5393 000b 11        	.uleb128 0x11
 5394 000c 01        	.uleb128 0x1
 5395 000d 12        	.uleb128 0x12
 5396 000e 06        	.uleb128 0x6
 5397 000f 10        	.uleb128 0x10
 5398 0010 17        	.uleb128 0x17
 5399 0011 00        	.byte0
 5400 0012 00        	.byte0
 5401 0013 02        	.uleb128 0x2
 5402 0014 16        	.uleb128 0x16
 5403 0015 00        	.byte0
 5404 0016 03        	.uleb128 0x3
 5405 0017 0E        	.uleb128 0xe
 5406 0018 3A        	.uleb128 0x3a
 5407 0019 0B        	.uleb128 0xb
 5408 001a 3B        	.uleb128 0x3b
68K GAS   			page 110


 5409 001b 0B        	.uleb128 0xb
 5410 001c 49        	.uleb128 0x49
 5411 001d 13        	.uleb128 0x13
 5412 001e 00        	.byte0
 5413 001f 00        	.byte0
 5414 0020 03        	.uleb128 0x3
 5415 0021 24        	.uleb128 0x24
 5416 0022 00        	.byte0
 5417 0023 0B        	.uleb128 0xb
 5418 0024 0B        	.uleb128 0xb
 5419 0025 3E        	.uleb128 0x3e
 5420 0026 0B        	.uleb128 0xb
 5421 0027 03        	.uleb128 0x3
 5422 0028 0E        	.uleb128 0xe
 5423 0029 00        	.byte0
 5424 002a 00        	.byte0
 5425 002b 04        	.uleb128 0x4
 5426 002c 16        	.uleb128 0x16
 5427 002d 00        	.byte0
 5428 002e 03        	.uleb128 0x3
 5429 002f 0E        	.uleb128 0xe
 5430 0030 3A        	.uleb128 0x3a
 5431 0031 0B        	.uleb128 0xb
 5432 0032 3B        	.uleb128 0x3b
 5433 0033 05        	.uleb128 0x5
 5434 0034 49        	.uleb128 0x49
 5435 0035 13        	.uleb128 0x13
 5436 0036 00        	.byte0
 5437 0037 00        	.byte0
 5438 0038 05        	.uleb128 0x5
 5439 0039 26        	.uleb128 0x26
 5440 003a 00        	.byte0
 5441 003b 49        	.uleb128 0x49
 5442 003c 13        	.uleb128 0x13
 5443 003d 00        	.byte0
 5444 003e 00        	.byte0
 5445 003f 06        	.uleb128 0x6
 5446 0040 13        	.uleb128 0x13
 5447 0041 01        	.byte0x1
 5448 0042 0B        	.uleb128 0xb
 5449 0043 0B        	.uleb128 0xb
 5450 0044 3A        	.uleb128 0x3a
 5451 0045 0B        	.uleb128 0xb
 5452 0046 3B        	.uleb128 0x3b
 5453 0047 0B        	.uleb128 0xb
 5454 0048 01        	.uleb128 0x1
 5455 0049 13        	.uleb128 0x13
 5456 004a 00        	.byte0
 5457 004b 00        	.byte0
 5458 004c 07        	.uleb128 0x7
 5459 004d 0D        	.uleb128 0xd
 5460 004e 00        	.byte0
 5461 004f 03        	.uleb128 0x3
 5462 0050 0E        	.uleb128 0xe
 5463 0051 3A        	.uleb128 0x3a
 5464 0052 0B        	.uleb128 0xb
 5465 0053 3B        	.uleb128 0x3b
68K GAS   			page 111


 5466 0054 0B        	.uleb128 0xb
 5467 0055 49        	.uleb128 0x49
 5468 0056 13        	.uleb128 0x13
 5469 0057 38        	.uleb128 0x38
 5470 0058 0B        	.uleb128 0xb
 5471 0059 00        	.byte0
 5472 005a 00        	.byte0
 5473 005b 08        	.uleb128 0x8
 5474 005c 01        	.uleb128 0x1
 5475 005d 01        	.byte0x1
 5476 005e 49        	.uleb128 0x49
 5477 005f 13        	.uleb128 0x13
 5478 0060 01        	.uleb128 0x1
 5479 0061 13        	.uleb128 0x13
 5480 0062 00        	.byte0
 5481 0063 00        	.byte0
 5482 0064 09        	.uleb128 0x9
 5483 0065 21        	.uleb128 0x21
 5484 0066 00        	.byte0
 5485 0067 49        	.uleb128 0x49
 5486 0068 13        	.uleb128 0x13
 5487 0069 2F        	.uleb128 0x2f
 5488 006a 0B        	.uleb128 0xb
 5489 006b 00        	.byte0
 5490 006c 00        	.byte0
 5491 006d 0A        	.uleb128 0xa
 5492 006e 0F        	.uleb128 0xf
 5493 006f 00        	.byte0
 5494 0070 0B        	.uleb128 0xb
 5495 0071 0B        	.uleb128 0xb
 5496 0072 00        	.byte0
 5497 0073 00        	.byte0
 5498 0074 0B        	.uleb128 0xb
 5499 0075 24        	.uleb128 0x24
 5500 0076 00        	.byte0
 5501 0077 0B        	.uleb128 0xb
 5502 0078 0B        	.uleb128 0xb
 5503 0079 3E        	.uleb128 0x3e
 5504 007a 0B        	.uleb128 0xb
 5505 007b 03        	.uleb128 0x3
 5506 007c 08        	.uleb128 0x8
 5507 007d 00        	.byte0
 5508 007e 00        	.byte0
 5509 007f 0C        	.uleb128 0xc
 5510 0080 13        	.uleb128 0x13
 5511 0081 01        	.byte0x1
 5512 0082 03        	.uleb128 0x3
 5513 0083 0E        	.uleb128 0xe
 5514 0084 0B        	.uleb128 0xb
 5515 0085 0B        	.uleb128 0xb
 5516 0086 3A        	.uleb128 0x3a
 5517 0087 0B        	.uleb128 0xb
 5518 0088 3B        	.uleb128 0x3b
 5519 0089 0B        	.uleb128 0xb
 5520 008a 01        	.uleb128 0x1
 5521 008b 13        	.uleb128 0x13
 5522 008c 00        	.byte0
68K GAS   			page 112


 5523 008d 00        	.byte0
 5524 008e 0D        	.uleb128 0xd
 5525 008f 13        	.uleb128 0x13
 5526 0090 00        	.byte0
 5527 0091 03        	.uleb128 0x3
 5528 0092 0E        	.uleb128 0xe
 5529 0093 3C        	.uleb128 0x3c
 5530 0094 19        	.uleb128 0x19
 5531 0095 00        	.byte0
 5532 0096 00        	.byte0
 5533 0097 0E        	.uleb128 0xe
 5534 0098 0F        	.uleb128 0xf
 5535 0099 00        	.byte0
 5536 009a 0B        	.uleb128 0xb
 5537 009b 0B        	.uleb128 0xb
 5538 009c 49        	.uleb128 0x49
 5539 009d 13        	.uleb128 0x13
 5540 009e 00        	.byte0
 5541 009f 00        	.byte0
 5542 00a0 0F        	.uleb128 0xf
 5543 00a1 17        	.uleb128 0x17
 5544 00a2 01        	.byte0x1
 5545 00a3 0B        	.uleb128 0xb
 5546 00a4 0B        	.uleb128 0xb
 5547 00a5 3A        	.uleb128 0x3a
 5548 00a6 0B        	.uleb128 0xb
 5549 00a7 3B        	.uleb128 0x3b
 5550 00a8 0B        	.uleb128 0xb
 5551 00a9 01        	.uleb128 0x1
 5552 00aa 13        	.uleb128 0x13
 5553 00ab 00        	.byte0
 5554 00ac 00        	.byte0
 5555 00ad 10        	.uleb128 0x10
 5556 00ae 0D        	.uleb128 0xd
 5557 00af 00        	.byte0
 5558 00b0 03        	.uleb128 0x3
 5559 00b1 0E        	.uleb128 0xe
 5560 00b2 3A        	.uleb128 0x3a
 5561 00b3 0B        	.uleb128 0xb
 5562 00b4 3B        	.uleb128 0x3b
 5563 00b5 0B        	.uleb128 0xb
 5564 00b6 49        	.uleb128 0x49
 5565 00b7 13        	.uleb128 0x13
 5566 00b8 00        	.byte0
 5567 00b9 00        	.byte0
 5568 00ba 11        	.uleb128 0x11
 5569 00bb 0D        	.uleb128 0xd
 5570 00bc 00        	.byte0
 5571 00bd 03        	.uleb128 0x3
 5572 00be 08        	.uleb128 0x8
 5573 00bf 3A        	.uleb128 0x3a
 5574 00c0 0B        	.uleb128 0xb
 5575 00c1 3B        	.uleb128 0x3b
 5576 00c2 0B        	.uleb128 0xb
 5577 00c3 49        	.uleb128 0x49
 5578 00c4 13        	.uleb128 0x13
 5579 00c5 38        	.uleb128 0x38
68K GAS   			page 113


 5580 00c6 0B        	.uleb128 0xb
 5581 00c7 00        	.byte0
 5582 00c8 00        	.byte0
 5583 00c9 12        	.uleb128 0x12
 5584 00ca 13        	.uleb128 0x13
 5585 00cb 01        	.byte0x1
 5586 00cc 03        	.uleb128 0x3
 5587 00cd 0E        	.uleb128 0xe
 5588 00ce 0B        	.uleb128 0xb
 5589 00cf 05        	.uleb128 0x5
 5590 00d0 3A        	.uleb128 0x3a
 5591 00d1 0B        	.uleb128 0xb
 5592 00d2 3B        	.uleb128 0x3b
 5593 00d3 0B        	.uleb128 0xb
 5594 00d4 01        	.uleb128 0x1
 5595 00d5 13        	.uleb128 0x13
 5596 00d6 00        	.byte0
 5597 00d7 00        	.byte0
 5598 00d8 13        	.uleb128 0x13
 5599 00d9 0D        	.uleb128 0xd
 5600 00da 00        	.byte0
 5601 00db 03        	.uleb128 0x3
 5602 00dc 0E        	.uleb128 0xe
 5603 00dd 3A        	.uleb128 0x3a
 5604 00de 0B        	.uleb128 0xb
 5605 00df 3B        	.uleb128 0x3b
 5606 00e0 0B        	.uleb128 0xb
 5607 00e1 49        	.uleb128 0x49
 5608 00e2 13        	.uleb128 0x13
 5609 00e3 38        	.uleb128 0x38
 5610 00e4 05        	.uleb128 0x5
 5611 00e5 00        	.byte0
 5612 00e6 00        	.byte0
 5613 00e7 14        	.uleb128 0x14
 5614 00e8 15        	.uleb128 0x15
 5615 00e9 00        	.byte0
 5616 00ea 27        	.uleb128 0x27
 5617 00eb 19        	.uleb128 0x19
 5618 00ec 00        	.byte0
 5619 00ed 00        	.byte0
 5620 00ee 15        	.uleb128 0x15
 5621 00ef 15        	.uleb128 0x15
 5622 00f0 01        	.byte0x1
 5623 00f1 27        	.uleb128 0x27
 5624 00f2 19        	.uleb128 0x19
 5625 00f3 49        	.uleb128 0x49
 5626 00f4 13        	.uleb128 0x13
 5627 00f5 01        	.uleb128 0x1
 5628 00f6 13        	.uleb128 0x13
 5629 00f7 00        	.byte0
 5630 00f8 00        	.byte0
 5631 00f9 16        	.uleb128 0x16
 5632 00fa 05        	.uleb128 0x5
 5633 00fb 00        	.byte0
 5634 00fc 49        	.uleb128 0x49
 5635 00fd 13        	.uleb128 0x13
 5636 00fe 00        	.byte0
68K GAS   			page 114


 5637 00ff 00        	.byte0
 5638 0100 17        	.uleb128 0x17
 5639 0101 13        	.uleb128 0x13
 5640 0102 01        	.byte0x1
 5641 0103 03        	.uleb128 0x3
 5642 0104 0E        	.uleb128 0xe
 5643 0105 0B        	.uleb128 0xb
 5644 0106 05        	.uleb128 0x5
 5645 0107 3A        	.uleb128 0x3a
 5646 0108 0B        	.uleb128 0xb
 5647 0109 3B        	.uleb128 0x3b
 5648 010a 05        	.uleb128 0x5
 5649 010b 01        	.uleb128 0x1
 5650 010c 13        	.uleb128 0x13
 5651 010d 00        	.byte0
 5652 010e 00        	.byte0
 5653 010f 18        	.uleb128 0x18
 5654 0110 0D        	.uleb128 0xd
 5655 0111 00        	.byte0
 5656 0112 03        	.uleb128 0x3
 5657 0113 0E        	.uleb128 0xe
 5658 0114 3A        	.uleb128 0x3a
 5659 0115 0B        	.uleb128 0xb
 5660 0116 3B        	.uleb128 0x3b
 5661 0117 05        	.uleb128 0x5
 5662 0118 49        	.uleb128 0x49
 5663 0119 13        	.uleb128 0x13
 5664 011a 38        	.uleb128 0x38
 5665 011b 0B        	.uleb128 0xb
 5666 011c 00        	.byte0
 5667 011d 00        	.byte0
 5668 011e 19        	.uleb128 0x19
 5669 011f 0D        	.uleb128 0xd
 5670 0120 00        	.byte0
 5671 0121 03        	.uleb128 0x3
 5672 0122 0E        	.uleb128 0xe
 5673 0123 3A        	.uleb128 0x3a
 5674 0124 0B        	.uleb128 0xb
 5675 0125 3B        	.uleb128 0x3b
 5676 0126 05        	.uleb128 0x5
 5677 0127 49        	.uleb128 0x49
 5678 0128 13        	.uleb128 0x13
 5679 0129 38        	.uleb128 0x38
 5680 012a 05        	.uleb128 0x5
 5681 012b 00        	.byte0
 5682 012c 00        	.byte0
 5683 012d 1A        	.uleb128 0x1a
 5684 012e 13        	.uleb128 0x13
 5685 012f 01        	.byte0x1
 5686 0130 03        	.uleb128 0x3
 5687 0131 0E        	.uleb128 0xe
 5688 0132 0B        	.uleb128 0xb
 5689 0133 0B        	.uleb128 0xb
 5690 0134 3A        	.uleb128 0x3a
 5691 0135 0B        	.uleb128 0xb
 5692 0136 3B        	.uleb128 0x3b
 5693 0137 05        	.uleb128 0x5
68K GAS   			page 115


 5694 0138 01        	.uleb128 0x1
 5695 0139 13        	.uleb128 0x13
 5696 013a 00        	.byte0
 5697 013b 00        	.byte0
 5698 013c 1B        	.uleb128 0x1b
 5699 013d 13        	.uleb128 0x13
 5700 013e 01        	.byte0x1
 5701 013f 0B        	.uleb128 0xb
 5702 0140 0B        	.uleb128 0xb
 5703 0141 3A        	.uleb128 0x3a
 5704 0142 0B        	.uleb128 0xb
 5705 0143 3B        	.uleb128 0x3b
 5706 0144 05        	.uleb128 0x5
 5707 0145 01        	.uleb128 0x1
 5708 0146 13        	.uleb128 0x13
 5709 0147 00        	.byte0
 5710 0148 00        	.byte0
 5711 0149 1C        	.uleb128 0x1c
 5712 014a 17        	.uleb128 0x17
 5713 014b 01        	.byte0x1
 5714 014c 0B        	.uleb128 0xb
 5715 014d 0B        	.uleb128 0xb
 5716 014e 3A        	.uleb128 0x3a
 5717 014f 0B        	.uleb128 0xb
 5718 0150 3B        	.uleb128 0x3b
 5719 0151 05        	.uleb128 0x5
 5720 0152 01        	.uleb128 0x1
 5721 0153 13        	.uleb128 0x13
 5722 0154 00        	.byte0
 5723 0155 00        	.byte0
 5724 0156 1D        	.uleb128 0x1d
 5725 0157 0D        	.uleb128 0xd
 5726 0158 00        	.byte0
 5727 0159 03        	.uleb128 0x3
 5728 015a 0E        	.uleb128 0xe
 5729 015b 3A        	.uleb128 0x3a
 5730 015c 0B        	.uleb128 0xb
 5731 015d 3B        	.uleb128 0x3b
 5732 015e 05        	.uleb128 0x5
 5733 015f 49        	.uleb128 0x49
 5734 0160 13        	.uleb128 0x13
 5735 0161 00        	.byte0
 5736 0162 00        	.byte0
 5737 0163 1E        	.uleb128 0x1e
 5738 0164 15        	.uleb128 0x15
 5739 0165 01        	.byte0x1
 5740 0166 27        	.uleb128 0x27
 5741 0167 19        	.uleb128 0x19
 5742 0168 01        	.uleb128 0x1
 5743 0169 13        	.uleb128 0x13
 5744 016a 00        	.byte0
 5745 016b 00        	.byte0
 5746 016c 1F        	.uleb128 0x1f
 5747 016d 34        	.uleb128 0x34
 5748 016e 00        	.byte0
 5749 016f 03        	.uleb128 0x3
 5750 0170 0E        	.uleb128 0xe
68K GAS   			page 116


 5751 0171 3A        	.uleb128 0x3a
 5752 0172 0B        	.uleb128 0xb
 5753 0173 3B        	.uleb128 0x3b
 5754 0174 05        	.uleb128 0x5
 5755 0175 49        	.uleb128 0x49
 5756 0176 13        	.uleb128 0x13
 5757 0177 3F        	.uleb128 0x3f
 5758 0178 19        	.uleb128 0x19
 5759 0179 3C        	.uleb128 0x3c
 5760 017a 19        	.uleb128 0x19
 5761 017b 00        	.byte0
 5762 017c 00        	.byte0
 5763 017d 20        	.uleb128 0x20
 5764 017e 34        	.uleb128 0x34
 5765 017f 00        	.byte0
 5766 0180 03        	.uleb128 0x3
 5767 0181 0E        	.uleb128 0xe
 5768 0182 3A        	.uleb128 0x3a
 5769 0183 0B        	.uleb128 0xb
 5770 0184 3B        	.uleb128 0x3b
 5771 0185 0B        	.uleb128 0xb
 5772 0186 49        	.uleb128 0x49
 5773 0187 13        	.uleb128 0x13
 5774 0188 3F        	.uleb128 0x3f
 5775 0189 19        	.uleb128 0x19
 5776 018a 3C        	.uleb128 0x3c
 5777 018b 19        	.uleb128 0x19
 5778 018c 00        	.byte0
 5779 018d 00        	.byte0
 5780 018e 21        	.uleb128 0x21
 5781 018f 0D        	.uleb128 0xd
 5782 0190 00        	.byte0
 5783 0191 03        	.uleb128 0x3
 5784 0192 08        	.uleb128 0x8
 5785 0193 3A        	.uleb128 0x3a
 5786 0194 0B        	.uleb128 0xb
 5787 0195 3B        	.uleb128 0x3b
 5788 0196 0B        	.uleb128 0xb
 5789 0197 49        	.uleb128 0x49
 5790 0198 13        	.uleb128 0x13
 5791 0199 00        	.byte0
 5792 019a 00        	.byte0
 5793 019b 22        	.uleb128 0x22
 5794 019c 13        	.uleb128 0x13
 5795 019d 01        	.byte0x1
 5796 019e 0B        	.uleb128 0xb
 5797 019f 05        	.uleb128 0x5
 5798 01a0 3A        	.uleb128 0x3a
 5799 01a1 0B        	.uleb128 0xb
 5800 01a2 3B        	.uleb128 0x3b
 5801 01a3 0B        	.uleb128 0xb
 5802 01a4 01        	.uleb128 0x1
 5803 01a5 13        	.uleb128 0x13
 5804 01a6 00        	.byte0
 5805 01a7 00        	.byte0
 5806 01a8 23        	.uleb128 0x23
 5807 01a9 13        	.uleb128 0x13
68K GAS   			page 117


 5808 01aa 01        	.byte0x1
 5809 01ab 0B        	.uleb128 0xb
 5810 01ac 06        	.uleb128 0x6
 5811 01ad 3A        	.uleb128 0x3a
 5812 01ae 0B        	.uleb128 0xb
 5813 01af 3B        	.uleb128 0x3b
 5814 01b0 0B        	.uleb128 0xb
 5815 01b1 01        	.uleb128 0x1
 5816 01b2 13        	.uleb128 0x13
 5817 01b3 00        	.byte0
 5818 01b4 00        	.byte0
 5819 01b5 24        	.uleb128 0x24
 5820 01b6 21        	.uleb128 0x21
 5821 01b7 00        	.byte0
 5822 01b8 49        	.uleb128 0x49
 5823 01b9 13        	.uleb128 0x13
 5824 01ba 2F        	.uleb128 0x2f
 5825 01bb 05        	.uleb128 0x5
 5826 01bc 00        	.byte0
 5827 01bd 00        	.byte0
 5828 01be 25        	.uleb128 0x25
 5829 01bf 0D        	.uleb128 0xd
 5830 01c0 00        	.byte0
 5831 01c1 03        	.uleb128 0x3
 5832 01c2 0E        	.uleb128 0xe
 5833 01c3 3A        	.uleb128 0x3a
 5834 01c4 0B        	.uleb128 0xb
 5835 01c5 3B        	.uleb128 0x3b
 5836 01c6 0B        	.uleb128 0xb
 5837 01c7 49        	.uleb128 0x49
 5838 01c8 13        	.uleb128 0x13
 5839 01c9 38        	.uleb128 0x38
 5840 01ca 06        	.uleb128 0x6
 5841 01cb 00        	.byte0
 5842 01cc 00        	.byte0
 5843 01cd 26        	.uleb128 0x26
 5844 01ce 2E        	.uleb128 0x2e
 5845 01cf 01        	.byte0x1
 5846 01d0 3F        	.uleb128 0x3f
 5847 01d1 19        	.uleb128 0x19
 5848 01d2 03        	.uleb128 0x3
 5849 01d3 0E        	.uleb128 0xe
 5850 01d4 3A        	.uleb128 0x3a
 5851 01d5 0B        	.uleb128 0xb
 5852 01d6 3B        	.uleb128 0x3b
 5853 01d7 05        	.uleb128 0x5
 5854 01d8 27        	.uleb128 0x27
 5855 01d9 19        	.uleb128 0x19
 5856 01da 49        	.uleb128 0x49
 5857 01db 13        	.uleb128 0x13
 5858 01dc 11        	.uleb128 0x11
 5859 01dd 01        	.uleb128 0x1
 5860 01de 12        	.uleb128 0x12
 5861 01df 06        	.uleb128 0x6
 5862 01e0 40        	.uleb128 0x40
 5863 01e1 18        	.uleb128 0x18
 5864 01e2 9642      	.uleb128 0x2116
68K GAS   			page 118


 5865 01e4 19        	.uleb128 0x19
 5866 01e5 01        	.uleb128 0x1
 5867 01e6 13        	.uleb128 0x13
 5868 01e7 00        	.byte0
 5869 01e8 00        	.byte0
 5870 01e9 27        	.uleb128 0x27
 5871 01ea 05        	.uleb128 0x5
 5872 01eb 00        	.byte0
 5873 01ec 03        	.uleb128 0x3
 5874 01ed 08        	.uleb128 0x8
 5875 01ee 3A        	.uleb128 0x3a
 5876 01ef 0B        	.uleb128 0xb
 5877 01f0 3B        	.uleb128 0x3b
 5878 01f1 05        	.uleb128 0x5
 5879 01f2 49        	.uleb128 0x49
 5880 01f3 13        	.uleb128 0x13
 5881 01f4 02        	.uleb128 0x2
 5882 01f5 18        	.uleb128 0x18
 5883 01f6 00        	.byte0
 5884 01f7 00        	.byte0
 5885 01f8 28        	.uleb128 0x28
 5886 01f9 34        	.uleb128 0x34
 5887 01fa 00        	.byte0
 5888 01fb 03        	.uleb128 0x3
 5889 01fc 0E        	.uleb128 0xe
 5890 01fd 3A        	.uleb128 0x3a
 5891 01fe 0B        	.uleb128 0xb
 5892 01ff 3B        	.uleb128 0x3b
 5893 0200 05        	.uleb128 0x5
 5894 0201 49        	.uleb128 0x49
 5895 0202 13        	.uleb128 0x13
 5896 0203 02        	.uleb128 0x2
 5897 0204 18        	.uleb128 0x18
 5898 0205 00        	.byte0
 5899 0206 00        	.byte0
 5900 0207 29        	.uleb128 0x29
 5901 0208 0B        	.uleb128 0xb
 5902 0209 01        	.byte0x1
 5903 020a 11        	.uleb128 0x11
 5904 020b 01        	.uleb128 0x1
 5905 020c 12        	.uleb128 0x12
 5906 020d 06        	.uleb128 0x6
 5907 020e 00        	.byte0
 5908 020f 00        	.byte0
 5909 0210 2A        	.uleb128 0x2a
 5910 0211 34        	.uleb128 0x34
 5911 0212 00        	.byte0
 5912 0213 03        	.uleb128 0x3
 5913 0214 08        	.uleb128 0x8
 5914 0215 3A        	.uleb128 0x3a
 5915 0216 0B        	.uleb128 0xb
 5916 0217 3B        	.uleb128 0x3b
 5917 0218 05        	.uleb128 0x5
 5918 0219 49        	.uleb128 0x49
 5919 021a 13        	.uleb128 0x13
 5920 021b 02        	.uleb128 0x2
 5921 021c 18        	.uleb128 0x18
68K GAS   			page 119


 5922 021d 00        	.byte0
 5923 021e 00        	.byte0
 5924 021f 2B        	.uleb128 0x2b
 5925 0220 2E        	.uleb128 0x2e
 5926 0221 01        	.byte0x1
 5927 0222 3F        	.uleb128 0x3f
 5928 0223 19        	.uleb128 0x19
 5929 0224 03        	.uleb128 0x3
 5930 0225 0E        	.uleb128 0xe
 5931 0226 3A        	.uleb128 0x3a
 5932 0227 0B        	.uleb128 0xb
 5933 0228 3B        	.uleb128 0x3b
 5934 0229 0B        	.uleb128 0xb
 5935 022a 27        	.uleb128 0x27
 5936 022b 19        	.uleb128 0x19
 5937 022c 49        	.uleb128 0x49
 5938 022d 13        	.uleb128 0x13
 5939 022e 11        	.uleb128 0x11
 5940 022f 01        	.uleb128 0x1
 5941 0230 12        	.uleb128 0x12
 5942 0231 06        	.uleb128 0x6
 5943 0232 40        	.uleb128 0x40
 5944 0233 18        	.uleb128 0x18
 5945 0234 9642      	.uleb128 0x2116
 5946 0236 19        	.uleb128 0x19
 5947 0237 01        	.uleb128 0x1
 5948 0238 13        	.uleb128 0x13
 5949 0239 00        	.byte0
 5950 023a 00        	.byte0
 5951 023b 2C        	.uleb128 0x2c
 5952 023c 05        	.uleb128 0x5
 5953 023d 00        	.byte0
 5954 023e 03        	.uleb128 0x3
 5955 023f 0E        	.uleb128 0xe
 5956 0240 3A        	.uleb128 0x3a
 5957 0241 0B        	.uleb128 0xb
 5958 0242 3B        	.uleb128 0x3b
 5959 0243 0B        	.uleb128 0xb
 5960 0244 49        	.uleb128 0x49
 5961 0245 13        	.uleb128 0x13
 5962 0246 02        	.uleb128 0x2
 5963 0247 18        	.uleb128 0x18
 5964 0248 00        	.byte0
 5965 0249 00        	.byte0
 5966 024a 2D        	.uleb128 0x2d
 5967 024b 34        	.uleb128 0x34
 5968 024c 00        	.byte0
 5969 024d 03        	.uleb128 0x3
 5970 024e 0E        	.uleb128 0xe
 5971 024f 3A        	.uleb128 0x3a
 5972 0250 0B        	.uleb128 0xb
 5973 0251 3B        	.uleb128 0x3b
 5974 0252 0B        	.uleb128 0xb
 5975 0253 49        	.uleb128 0x49
 5976 0254 13        	.uleb128 0x13
 5977 0255 02        	.uleb128 0x2
 5978 0256 18        	.uleb128 0x18
68K GAS   			page 120


 5979 0257 00        	.byte0
 5980 0258 00        	.byte0
 5981 0259 2E        	.uleb128 0x2e
 5982 025a 34        	.uleb128 0x34
 5983 025b 00        	.byte0
 5984 025c 03        	.uleb128 0x3
 5985 025d 08        	.uleb128 0x8
 5986 025e 3A        	.uleb128 0x3a
 5987 025f 0B        	.uleb128 0xb
 5988 0260 3B        	.uleb128 0x3b
 5989 0261 0B        	.uleb128 0xb
 5990 0262 49        	.uleb128 0x49
 5991 0263 13        	.uleb128 0x13
 5992 0264 02        	.uleb128 0x2
 5993 0265 18        	.uleb128 0x18
 5994 0266 00        	.byte0
 5995 0267 00        	.byte0
 5996 0268 2F        	.uleb128 0x2f
 5997 0269 01        	.uleb128 0x1
 5998 026a 01        	.byte0x1
 5999 026b 49        	.uleb128 0x49
 6000 026c 13        	.uleb128 0x13
 6001 026d 00        	.byte0
 6002 026e 00        	.byte0
 6003 026f 00        	.byte0
 6004               	.section.debug_aranges,"",@progbits
 6005 0000 0000 001C 	.long0x1c
 6006 0004 0002      	.word0x2
 6007 0006 0000 0000 	.long.Ldebug_info0
 6008 000a 04        	.byte0x4
 6009 000b 00        	.byte0
 6010 000c 0000      	.word0
 6011 000e 0000      	.word0
 6012 0010 0000 0000 	.long.Ltext0
 6013 0014 0000 0B1A 	.long.Letext0-.Ltext0
 6014 0018 0000 0000 	.long0
 6015 001c 0000 0000 	.long0
 6016               	.section.debug_line,"",@progbits
 6017               	.Ldebug_line0:
 6018 0000 0000 055B 	.section.debug_str,"MS",@progbits,1
 6018      0002 0000 
 6018      03CD 0201 
 6018      FB0E 0D00 
 6018      0101 0101 
 6019               	.LASF421:
 6020 0000 4346 455F 	.string"CFE_ES_TaskData"
 6020      4553 5F54 
 6020      6173 6B44 
 6020      6174 6100 
 6021               	.LASF49:
 6022 0010 5F73 7369 	.string"_ssize_t"
 6022      7A65 5F74 
 6022      00
 6023               	.LASF151:
 6024 0019 5F5F 6C6F 	.string"__locale_t"
 6024      6361 6C65 
 6024      5F74 00
68K GAS   			page 121


 6025               	.LASF54:
 6026 0024 5F5F 7661 	.string"__value"
 6026      6C75 6500 
 6027               	.LASF152:
 6028 002c 5F5F 7366 	.string"__sf"
 6028      00
 6029               	.LASF215:
 6030 0031 4343 5344 	.string"CCSDS_PriHdr_t"
 6030      535F 5072 
 6030      6948 6472 
 6030      5F74 00
 6031               	.LASF89:
 6032 0040 5F72 6561 	.string"_read"
 6032      6400 
 6033               	.LASF397:
 6034 0046 4346 455F 	.string"CFE_ES_GenCounterRecord_t"
 6034      4553 5F47 
 6034      656E 436F 
 6034      756E 7465 
 6034      7252 6563 
 6035               	.LASF90:
 6036 0060 5F77 7269 	.string"_write"
 6036      7465 00
 6037               	.LASF273:
 6038 0067 5472 6967 	.string"TriggerMask"
 6038      6765 724D 
 6038      6173 6B00 
 6039               	.LASF212:
 6040 0073 5374 7265 	.string"StreamId"
 6040      616D 4964 
 6040      00
 6041               	.LASF131:
 6042 007c 5F61 7363 	.string"_asctime_buf"
 6042      7469 6D65 
 6042      5F62 7566 
 6042      00
 6043               	.LASF414:
 6044 0089 4D73 6750 	.string"MsgPtr"
 6044      7472 00
 6045               	.LASF116:
 6046 0090 5F63 7674 	.string"_cvtlen"
 6046      6C65 6E00 
 6047               	.LASF351:
 6048 0098 436D 6443 	.string"CmdCounter"
 6048      6F75 6E74 
 6048      6572 00
 6049               	.LASF43:
 6050 00a3 5F4D 7574 	.string"_Mutex_Control"
 6050      6578 5F43 
 6050      6F6E 7472 
 6050      6F6C 00
 6051               	.LASF312:
 6052 00b2 4346 455F 	.string"CFE_ES_LibRecord_t"
 6052      4553 5F4C 
 6052      6962 5265 
 6052      636F 7264 
 6052      5F74 00
68K GAS   			page 122


 6053               	.LASF258:
 6054 00c5 4346 455F 	.string"CFE_ES_PerfDataEntry_t"
 6054      4553 5F50 
 6054      6572 6644 
 6054      6174 6145 
 6054      6E74 7279 
 6055               	.LASF155:
 6056 00dc 5F67 6C6F 	.string"_global_atexit"
 6056      6261 6C5F 
 6056      6174 6578 
 6056      6974 00
 6057               	.LASF417:
 6058 00eb 5069 7065 	.string"PipeDepth"
 6058      4465 7074 
 6058      6800 
 6059               	.LASF186:
 6060 00f5 4E75 6D4F 	.string"NumOfChildTasks"
 6060      6643 6869 
 6060      6C64 5461 
 6060      736B 7300 
 6061               	.LASF11:
 6062 0105 7569 6E74 	.string"uint32"
 6062      3332 00
 6063               	.LASF150:
 6064 010c 5F75 6E75 	.string"_unused"
 6064      7365 6400 
 6065               	.LASF63:
 6066 0114 5F5F 746D 	.string"__tm"
 6066      00
 6067               	.LASF146:
 6068 0119 5F77 6373 	.string"_wcsrtombs_state"
 6068      7274 6F6D 
 6068      6273 5F73 
 6068      7461 7465 
 6068      00
 6069               	.LASF94:
 6070 012a 5F6E 6275 	.string"_nbuf"
 6070      6600 
 6071               	.LASF64:
 6072 0130 5F5F 746D 	.string"__tm_sec"
 6072      5F73 6563 
 6072      00
 6073               	.LASF42:
 6074 0139 5F54 6872 	.string"_Thread_Control"
 6074      6561 645F 
 6074      436F 6E74 
 6074      726F 6C00 
 6075               	.LASF139:
 6076 0149 5F6C 3634 	.string"_l64a_buf"
 6076      615F 6275 
 6076      6600 
 6077               	.LASF296:
 6078 0153 5469 6D65 	.string"TimeResetVars"
 6078      5265 7365 
 6078      7456 6172 
 6078      7300 
 6079               	.LASF368:
68K GAS   			page 123


 6080 0161 5265 6769 	.string"RegisteredTasks"
 6080      7374 6572 
 6080      6564 5461 
 6080      736B 7300 
 6081               	.LASF360:
 6082 0171 4F53 414C 	.string"OSALRevision"
 6082      5265 7669 
 6082      7369 6F6E 
 6082      00
 6083               	.LASF438:
 6084 017e 4346 455F 	.string"CFE_ES_ListApplications"
 6084      4553 5F4C 
 6084      6973 7441 
 6084      7070 6C69 
 6084      6361 7469 
 6085               	.LASF103:
 6086 0196 5F73 7464 	.string"_stdin"
 6086      696E 00
 6087               	.LASF252:
 6088 019d 4170 7049 	.string"AppID"
 6088      4400 
 6089               	.LASF198:
 6090 01a3 4368 6563 	.string"CheckErrCtr"
 6090      6B45 7272 
 6090      4374 7200 
 6091               	.LASF293:
 6092 01af 5379 7374 	.string"SystemLogEntryNum"
 6092      656D 4C6F 
 6092      6745 6E74 
 6092      7279 4E75 
 6092      6D00 
 6093               	.LASF355:
 6094 01c1 4346 454D 	.string"CFEMinorVersion"
 6094      696E 6F72 
 6094      5665 7273 
 6094      696F 6E00 
 6095               	.LASF91:
 6096 01d1 5F73 6565 	.string"_seek"
 6096      6B00 
 6097               	.LASF430:
 6098 01d7 5461 736B 	.string"TaskProp"
 6098      5072 6F70 
 6098      00
 6099               	.LASF343:
 6100 01e0 4346 455F 	.string"CFE_ES_CDSVariables_t"
 6100      4553 5F43 
 6100      4453 5661 
 6100      7269 6162 
 6100      6C65 735F 
 6101               	.LASF180:
 6102 01f6 5374 6172 	.string"StartAddress"
 6102      7441 6464 
 6102      7265 7373 
 6102      00
 6103               	.LASF241:
 6104 0203 4346 455F 	.string"CFE_ES_DebugVariables_t"
 6104      4553 5F44 
68K GAS   			page 124


 6104      6562 7567 
 6104      5661 7269 
 6104      6162 6C65 
 6105               	.LASF160:
 6106 021b 4F53 6664 	.string"OSfd"
 6106      00
 6107               	.LASF127:
 6108 0220 5F6D 756C 	.string"_mult"
 6108      7400 
 6109               	.LASF194:
 6110 0226 4E75 6D46 	.string"NumFree"
 6110      7265 6500 
 6111               	.LASF185:
 6112 022e 4D61 696E 	.string"MainTaskName"
 6112      5461 736B 
 6112      4E61 6D65 
 6112      00
 6113               	.LASF393:
 6114 023b 4346 455F 	.string"CFE_ES_PerfLogDump_t"
 6114      4553 5F50 
 6114      6572 664C 
 6114      6F67 4475 
 6114      6D70 5F74 
 6115               	.LASF251:
 6116 0250 436F 6E74 	.string"ContextSize"
 6116      6578 7453 
 6116      697A 6500 
 6117               	.LASF298:
 6118 025c 4346 455F 	.string"CFE_ES_ResetData_t"
 6118      4553 5F52 
 6118      6573 6574 
 6118      4461 7461 
 6118      5F74 00
 6119               	.LASF174:
 6120 026f 436F 6465 	.string"CodeAddress"
 6120      4164 6472 
 6120      6573 7300 
 6121               	.LASF227:
 6122 027b 5072 6F63 	.string"ProcessorID"
 6122      6573 736F 
 6122      7249 4400 
 6123               	.LASF403:
 6124 0287 4170 7054 	.string"AppTable"
 6124      6162 6C65 
 6124      00
 6125               	.LASF262:
 6126 0290 5469 6D65 	.string"TimerTicksPerSecond"
 6126      7254 6963 
 6126      6B73 5065 
 6126      7253 6563 
 6126      6F6E 6400 
 6127               	.LASF51:
 6128 02a4 5F5F 7763 	.string"__wch"
 6128      6800 
 6129               	.LASF379:
 6130 02aa 5065 7266 	.string"PerfDataCount"
 6130      4461 7461 
68K GAS   			page 125


 6130      436F 756E 
 6130      7400 
 6131               	.LASF363:
 6132 02b8 5379 734C 	.string"SysLogSize"
 6132      6F67 5369 
 6132      7A65 00
 6133               	.LASF316:
 6134 02c3 5369 7A65 	.string"SizeUsed"
 6134      5573 6564 
 6134      00
 6135               	.LASF86:
 6136 02cc 5F66 696C 	.string"_file"
 6136      6500 
 6137               	.LASF209:
 6138 02d2 4375 7272 	.string"CurrentSTCF"
 6138      656E 7453 
 6138      5443 4600 
 6139               	.LASF358:
 6140 02de 4F53 414C 	.string"OSALMajorVersion"
 6140      4D61 6A6F 
 6140      7256 6572 
 6140      7369 6F6E 
 6140      00
 6141               	.LASF73:
 6142 02ef 5F6F 6E5F 	.string"_on_exit_args"
 6142      6578 6974 
 6142      5F61 7267 
 6142      7300 
 6143               	.LASF425:
 6144 02fd 4E75 6D4D 	.string"NumMutexes"
 6144      7574 6578 
 6144      6573 00
 6145               	.LASF260:
 6146 0308 456E 6469 	.string"Endian"
 6146      616E 00
 6147               	.LASF369:
 6148 030f 5265 6769 	.string"RegisteredLibs"
 6148      7374 6572 
 6148      6564 4C69 
 6148      6273 00
 6149               	.LASF231:
 6150 031e 5370 6172 	.string"Spare1"
 6150      6531 00
 6151               	.LASF232:
 6152 0325 5370 6172 	.string"Spare2"
 6152      6532 00
 6153               	.LASF426:
 6154 032c 4E75 6D51 	.string"NumQueues"
 6154      7565 7565 
 6154      7300 
 6155               	.LASF427:
 6156 0336 4E75 6D54 	.string"NumTasks"
 6156      6173 6B73 
 6156      00
 6157               	.LASF142:
 6158 033f 5F6D 6272 	.string"_mbrlen_state"
 6158      6C65 6E5F 
68K GAS   			page 126


 6158      7374 6174 
 6158      6500 
 6159               	.LASF6:
 6160 034d 6C6F 6E67 	.string"long int"
 6160      2069 6E74 
 6160      00
 6161               	.LASF153:
 6162 0356 5F69 6D70 	.string"_impure_ptr"
 6162      7572 655F 
 6162      7074 7200 
 6163               	.LASF442:
 6164 0362 5265 7475 	.string"ReturnCode"
 6164      726E 436F 
 6164      6465 00
 6165               	.LASF113:
 6166 036d 5F72 6573 	.string"_result_k"
 6166      756C 745F 
 6166      6B00 
 6167               	.LASF306:
 6168 0377 5374 6172 	.string"StartParams"
 6168      7450 6172 
 6168      616D 7300 
 6169               	.LASF83:
 6170 0383 5F73 697A 	.string"_size"
 6170      6500 
 6171               	.LASF181:
 6172 0389 4578 6365 	.string"ExceptionAction"
 6172      7074 696F 
 6172      6E41 6374 
 6172      696F 6E00 
 6173               	.LASF132:
 6174 0399 5F6C 6F63 	.string"_localtime_buf"
 6174      616C 7469 
 6174      6D65 5F62 
 6174      7566 00
 6175               	.LASF270:
 6176 03a8 496E 7661 	.string"InvalidMarkerReported"
 6176      6C69 644D 
 6176      6172 6B65 
 6176      7252 6570 
 6176      6F72 7465 
 6177               	.LASF182:
 6178 03be 5072 696F 	.string"Priority"
 6178      7269 7479 
 6178      00
 6179               	.LASF329:
 6180 03c7 5369 7A65 	.string"SizeDesc"
 6180      4465 7363 
 6180      00
 6181               	.LASF68:
 6182 03d0 5F5F 746D 	.string"__tm_mon"
 6182      5F6D 6F6E 
 6182      00
 6183               	.LASF271:
 6184 03d9 4669 6C74 	.string"FilterTriggerMaskSize"
 6184      6572 5472 
 6184      6967 6765 
68K GAS   			page 127


 6184      724D 6173 
 6184      6B53 697A 
 6185               	.LASF211:
 6186 03ef 4346 455F 	.string"CFE_TIME_ResetVars_t"
 6186      5449 4D45 
 6186      5F52 6573 
 6186      6574 5661 
 6186      7273 5F74 
 6187               	.LASF416:
 6188 0404 5069 7065 	.string"PipeName"
 6188      4E61 6D65 
 6188      00
 6189               	.LASF422:
 6190 040d 5265 7375 	.string"Result"
 6190      6C74 00
 6191               	.LASF172:
 6192 0414 4D6F 6475 	.string"ModuleId"
 6192      6C65 4964 
 6192      00
 6193               	.LASF234:
 6194 041d 546C 6D48 	.string"TlmHeader"
 6194      6561 6465 
 6194      7200 
 6195               	.LASF332:
 6196 0427 4346 455F 	.string"CFE_ES_CDSBlockDesc"
 6196      4553 5F43 
 6196      4453 426C 
 6196      6F63 6B44 
 6196      6573 6300 
 6197               	.LASF248:
 6198 043b 4465 6275 	.string"DebugVars"
 6198      6756 6172 
 6198      7300 
 6199               	.LASF322:
 6200 0445 5369 7A65 	.string"Size"
 6200      00
 6201               	.LASF129:
 6202 044a 5F75 6E75 	.string"_unused_rand"
 6202      7365 645F 
 6202      7261 6E64 
 6202      00
 6203               	.LASF319:
 6204 0457 4D61 7853 	.string"MaxSize"
 6204      697A 6500 
 6205               	.LASF1:
 6206 045f 7369 676E 	.string"signed char"
 6206      6564 2063 
 6206      6861 7200 
 6207               	.LASF364:
 6208 046b 5379 734C 	.string"SysLogEntries"
 6208      6F67 456E 
 6208      7472 6965 
 6208      7300 
 6209               	.LASF431:
 6210 0479 5175 6575 	.string"QueueProp"
 6210      6550 726F 
 6210      7000 
68K GAS   			page 128


 6211               	.LASF15:
 6212 0483 626F 6F6C 	.string"boolean"
 6212      6561 6E00 
 6213               	.LASF218:
 6214 048b 4346 455F 	.string"CFE_SB_Msg_t"
 6214      5342 5F4D 
 6214      7367 5F74 
 6214      00
 6215               	.LASF277:
 6216 0498 4346 455F 	.string"CFE_ES_PerfData_t"
 6216      4553 5F50 
 6216      6572 6644 
 6216      6174 615F 
 6216      7400 
 6217               	.LASF235:
 6218 04aa 5061 796C 	.string"Payload"
 6218      6F61 6400 
 6219               	.LASF192:
 6220 04b2 426C 6F63 	.string"BlockSize"
 6220      6B53 697A 
 6220      6500 
 6221               	.LASF41:
 6222 04bc 5F54 6872 	.string"_Thread_queue_Heads"
 6222      6561 645F 
 6222      7175 6575 
 6222      655F 4865 
 6222      6164 7300 
 6223               	.LASF0:
 6224 04d0 756E 7369 	.string"unsigned char"
 6224      676E 6564 
 6224      2063 6861 
 6224      7200 
 6225               	.LASF183:
 6226 04de 4D61 696E 	.string"MainTaskId"
 6226      5461 736B 
 6226      4964 00
 6227               	.LASF108:
 6228 04e9 5F75 6E73 	.string"_unspecified_locale_info"
 6228      7065 6369 
 6228      6669 6564 
 6228      5F6C 6F63 
 6228      616C 655F 
 6229               	.LASF320:
 6230 0502 4346 455F 	.string"CFE_ES_CDSBlockSizeDesc_t"
 6230      4553 5F43 
 6230      4453 426C 
 6230      6F63 6B53 
 6230      697A 6544 
 6231               	.LASF101:
 6232 051c 5F72 6565 	.string"_reent"
 6232      6E74 00
 6233               	.LASF154:
 6234 0523 5F67 6C6F 	.string"_global_impure_ptr"
 6234      6261 6C5F 
 6234      696D 7075 
 6234      7265 5F70 
 6234      7472 00
68K GAS   			page 129


 6235               	.LASF449:
 6236 0536 2F68 6F6D 	.string"/home/simulink/cFS_FreeRTOS_seL4/build/cpu1/cfe/es"
 6236      652F 7369 
 6236      6D75 6C69 
 6236      6E6B 2F63 
 6236      4653 5F46 
 6237               	.LASF386:
 6238 0569 5368 656C 	.string"ShellOutput"
 6238      6C4F 7574 
 6238      7075 7400 
 6239               	.LASF383:
 6240 0575 4865 6170 	.string"HeapMaxBlockSize"
 6240      4D61 7842 
 6240      6C6F 636B 
 6240      5369 7A65 
 6240      00
 6241               	.LASF178:
 6242 0586 4253 5341 	.string"BSSAddress"
 6242      6464 7265 
 6242      7373 00
 6243               	.LASF395:
 6244 0591 436F 756E 	.string"Counter"
 6244      7465 7200 
 6245               	.LASF432:
 6246 0599 5365 6D50 	.string"SemProp"
 6246      726F 7000 
 6247               	.LASF24:
 6248 05a1 7661 6C75 	.string"value"
 6248      6500 
 6249               	.LASF36:
 6250 05a7 5F54 6872 	.string"_Thread_queue_Queue"
 6250      6561 645F 
 6250      7175 6575 
 6250      655F 5175 
 6250      6575 6500 
 6251               	.LASF16:
 6252 05bb 6368 6172 	.string"char"
 6252      00
 6253               	.LASF187:
 6254 05c0 4346 455F 	.string"CFE_ES_AppInfo_t"
 6254      4553 5F41 
 6254      7070 496E 
 6254      666F 5F74 
 6254      00
 6255               	.LASF398:
 6256 05d1 5368 6172 	.string"SharedDataMutex"
 6256      6564 4461 
 6256      7461 4D75 
 6256      7465 7800 
 6257               	.LASF80:
 6258 05e1 5F66 6E73 	.string"_fns"
 6258      00
 6259               	.LASF92:
 6260 05e6 5F63 6C6F 	.string"_close"
 6260      7365 00
 6261               	.LASF376:
 6262 05ed 5065 7266 	.string"PerfTriggerMask"
68K GAS   			page 130


 6262      5472 6967 
 6262      6765 724D 
 6262      6173 6B00 
 6263               	.LASF333:
 6264 05fd 4D65 6D48 	.string"MemHandle"
 6264      616E 646C 
 6264      6500 
 6265               	.LASF362:
 6266 0607 5379 734C 	.string"SysLogBytesUsed"
 6266      6F67 4279 
 6266      7465 7355 
 6266      7365 6400 
 6267               	.LASF14:
 6268 0617 6370 7561 	.string"cpuaddr"
 6268      6464 7200 
 6269               	.LASF378:
 6270 061f 5065 7266 	.string"PerfDataEnd"
 6270      4461 7461 
 6270      456E 6400 
 6271               	.LASF35:
 6272 062b 5F54 6963 	.string"_Ticket_lock_Control"
 6272      6B65 745F 
 6272      6C6F 636B 
 6272      5F43 6F6E 
 6272      7472 6F6C 
 6273               	.LASF334:
 6274 0640 5461 6B65 	.string"Taken"
 6274      6E00 
 6275               	.LASF202:
 6276 0646 5365 636F 	.string"Seconds"
 6276      6E64 7300 
 6277               	.LASF328:
 6278 064e 4D69 6E42 	.string"MinBlockSize"
 6278      6C6F 636B 
 6278      5369 7A65 
 6278      00
 6279               	.LASF216:
 6280 065b 4477 6F72 	.string"Dword"
 6280      6400 
 6281               	.LASF282:
 6282 0661 4C6F 674F 	.string"LogOverflowCounter"
 6282      7665 7266 
 6282      6C6F 7743 
 6282      6F75 6E74 
 6282      6572 00
 6283               	.LASF287:
 6284 0674 4552 4C6F 	.string"ERLog"
 6284      6700 
 6285               	.LASF413:
 6286 067a 4D65 6D53 	.string"MemStatsPacket"
 6286      7461 7473 
 6286      5061 636B 
 6286      6574 00
 6287               	.LASF39:
 6288 0689 5F6F 776E 	.string"_owner"
 6288      6572 00
 6289               	.LASF415:
68K GAS   			page 131


 6290 0690 436D 6450 	.string"CmdPipe"
 6290      6970 6500 
 6291               	.LASF348:
 6292 0698 506F 6F6C 	.string"PoolStats"
 6292      5374 6174 
 6292      7300 
 6293               	.LASF297:
 6294 06a2 4556 535F 	.string"EVS_Log"
 6294      4C6F 6700 
 6295               	.LASF288:
 6296 06aa 4552 4C6F 	.string"ERLogIndex"
 6296      6749 6E64 
 6296      6578 00
 6297               	.LASF275:
 6298 06b5 4D65 7461 	.string"MetaData"
 6298      4461 7461 
 6298      00
 6299               	.LASF352:
 6300 06be 4572 7243 	.string"ErrCounter"
 6300      6F75 6E74 
 6300      6572 00
 6301               	.LASF394:
 6302 06c9 4346 455F 	.string"CFE_ES_PerfLogDumpStatus"
 6302      4553 5F50 
 6302      6572 664C 
 6302      6F67 4475 
 6302      6D70 5374 
 6303               	.LASF434:
 6304 06e2 4D75 7450 	.string"MutProp"
 6304      726F 7000 
 6305               	.LASF302:
 6306 06ea 4346 455F 	.string"CFE_ES_AppState_t"
 6306      4553 5F41 
 6306      7070 5374 
 6306      6174 655F 
 6306      7400 
 6307               	.LASF338:
 6308 06fc 4344 5353 	.string"CDSSize"
 6308      697A 6500 
 6309               	.LASF340:
 6310 0704 4D61 784E 	.string"MaxNumRegEntries"
 6310      756D 5265 
 6310      6745 6E74 
 6310      7269 6573 
 6310      00
 6311               	.LASF240:
 6312 0715 4C61 7374 	.string"LastAppId"
 6312      4170 7049 
 6312      6400 
 6313               	.LASF196:
 6314 071f 506F 6F6C 	.string"PoolSize"
 6314      5369 7A65 
 6314      00
 6315               	.LASF280:
 6316 0728 4C6F 6746 	.string"LogFullFlag"
 6316      756C 6C46 
 6316      6C61 6700 
68K GAS   			page 132


 6317               	.LASF357:
 6318 0734 4346 454D 	.string"CFEMissionRevision"
 6318      6973 7369 
 6318      6F6E 5265 
 6318      7669 7369 
 6318      6F6E 00
 6319               	.LASF347:
 6320 0747 506F 6F6C 	.string"PoolHandle"
 6320      4861 6E64 
 6320      6C65 00
 6321               	.LASF159:
 6322 0752 5F74 7A6E 	.string"_tzname"
 6322      616D 6500 
 6323               	.LASF323:
 6324 075a 4375 7272 	.string"Current"
 6324      656E 7400 
 6325               	.LASF47:
 6326 0762 5F6E 6573 	.string"_nest_level"
 6326      745F 6C65 
 6326      7665 6C00 
 6327               	.LASF429:
 6328 076e 4C69 6E65 	.string"Line"
 6328      00
 6329               	.LASF207:
 6330 0773 436C 6F63 	.string"ClockSignal"
 6330      6B53 6967 
 6330      6E61 6C00 
 6331               	.LASF290:
 6332 077f 5379 7374 	.string"SystemLog"
 6332      656D 4C6F 
 6332      6700 
 6333               	.LASF349:
 6334 0789 4346 455F 	.string"CFE_ES_PoolStatsTlm_Payload_t"
 6334      4553 5F50 
 6334      6F6F 6C53 
 6334      7461 7473 
 6334      546C 6D5F 
 6335               	.LASF88:
 6336 07a7 5F63 6F6F 	.string"_cookie"
 6336      6B69 6500 
 6337               	.LASF171:
 6338 07af 5374 6163 	.string"StackSize"
 6338      6B53 697A 
 6338      6500 
 6339               	.LASF62:
 6340 07b9 5F77 6473 	.string"_wds"
 6340      00
 6341               	.LASF373:
 6342 07be 5065 7266 	.string"PerfMode"
 6342      4D6F 6465 
 6342      00
 6343               	.LASF377:
 6344 07c7 5065 7266 	.string"PerfDataStart"
 6344      4461 7461 
 6344      5374 6172 
 6344      7400 
 6345               	.LASF119:
68K GAS   			page 133


 6346 07d5 5F73 6967 	.string"_sig_func"
 6346      5F66 756E 
 6346      6300 
 6347               	.LASF325:
 6348 07df 4368 6563 	.string"CheckErrCntr"
 6348      6B45 7272 
 6348      436E 7472 
 6348      00
 6349               	.LASF96:
 6350 07ec 5F6F 6666 	.string"_offset"
 6350      7365 7400 
 6351               	.LASF117:
 6352 07f4 5F63 7674 	.string"_cvtbuf"
 6352      6275 6600 
 6353               	.LASF445:
 6354 07fc 4368 6563 	.string"CheckCmd"
 6354      6B43 6D64 
 6354      00
 6355               	.LASF274:
 6356 0805 4346 455F 	.string"CFE_ES_PerfMetaData_t"
 6356      4553 5F50 
 6356      6572 664D 
 6356      6574 6144 
 6356      6174 615F 
 6357               	.LASF324:
 6358 081b 5369 7A65 	.string"SizeIndex"
 6358      496E 6465 
 6358      7800 
 6359               	.LASF170:
 6360 0825 4669 6C65 	.string"FileName"
 6360      4E61 6D65 
 6360      00
 6361               	.LASF32:
 6362 082e 5F6E 6578 	.string"_next_ticket"
 6362      745F 7469 
 6362      636B 6574 
 6362      00
 6363               	.LASF339:
 6364 083b 4D65 6D50 	.string"MemPoolSize"
 6364      6F6F 6C53 
 6364      697A 6500 
 6365               	.LASF448:
 6366 0847 2F68 6F6D 	.string"/home/simulink/cFS_FreeRTOS_seL4/cfe/fsw/cfe-core/src/es/cfe_es_shell.c"
 6366      652F 7369 
 6366      6D75 6C69 
 6366      6E6B 2F63 
 6366      4653 5F46 
 6367               	.LASF409:
 6368 088f 4346 455F 	.string"CFE_ES_ResetDataPtr"
 6368      4553 5F52 
 6368      6573 6574 
 6368      4461 7461 
 6368      5074 7200 
 6369               	.LASF292:
 6370 08a3 5379 7374 	.string"SystemLogMode"
 6370      656D 4C6F 
 6370      674D 6F64 
68K GAS   			page 134


 6370      6500 
 6371               	.LASF314:
 6372 08b1 4368 6563 	.string"CheckBits"
 6372      6B42 6974 
 6372      7300 
 6373               	.LASF114:
 6374 08bb 5F70 3573 	.string"_p5s"
 6374      00
 6375               	.LASF12:
 6376 08c0 6C6F 6E67 	.string"long unsigned int"
 6376      2075 6E73 
 6376      6967 6E65 
 6376      6420 696E 
 6376      7400 
 6377               	.LASF22:
 6378 08d2 4F53 5F74 	.string"OS_task_prop_t"
 6378      6173 6B5F 
 6378      7072 6F70 
 6378      5F74 00
 6379               	.LASF256:
 6380 08e1 5469 6D65 	.string"TimerUpper32"
 6380      7255 7070 
 6380      6572 3332 
 6380      00
 6381               	.LASF346:
 6382 08ee 4346 455F 	.string"CFE_ES_OneAppTlm_t"
 6382      4553 5F4F 
 6382      6E65 4170 
 6382      7054 6C6D 
 6382      5F74 00
 6383               	.LASF166:
 6384 0901 4170 7049 	.string"AppId"
 6384      6400 
 6385               	.LASF84:
 6386 0907 5F5F 7346 	.string"__sFILE"
 6386      494C 4500 
 6387               	.LASF110:
 6388 090f 5F5F 7364 	.string"__sdidinit"
 6388      6964 696E 
 6388      6974 00
 6389               	.LASF100:
 6390 091a 5F66 6C61 	.string"_flags2"
 6390      6773 3200 
 6391               	.LASF247:
 6392 0922 4D61 7850 	.string"MaxProcessorResetCount"
 6392      726F 6365 
 6392      7373 6F72 
 6392      5265 7365 
 6392      7443 6F75 
 6393               	.LASF418:
 6394 0939 4C69 6D69 	.string"LimitHK"
 6394      7448 4B00 
 6395               	.LASF239:
 6396 0941 5072 696E 	.string"PrintfEnabledFlag"
 6396      7466 456E 
 6396      6162 6C65 
 6396      6446 6C61 
68K GAS   			page 135


 6396      6700 
 6397               	.LASF48:
 6398 0953 5F4C 4F43 	.string"_LOCK_RECURSIVE_T"
 6398      4B5F 5245 
 6398      4355 5253 
 6398      4956 455F 
 6398      5400 
 6399               	.LASF279:
 6400 0965 4C6F 6743 	.string"LogCount"
 6400      6F75 6E74 
 6400      00
 6401               	.LASF399:
 6402 096e 4170 7053 	.string"AppStartedCount"
 6402      7461 7274 
 6402      6564 436F 
 6402      756E 7400 
 6403               	.LASF102:
 6404 097e 5F65 7272 	.string"_errno"
 6404      6E6F 00
 6405               	.LASF210:
 6406 0985 4375 7272 	.string"CurrentDelay"
 6406      656E 7444 
 6406      656C 6179 
 6406      00
 6407               	.LASF197:
 6408 0992 4E75 6D42 	.string"NumBlocksRequested"
 6408      6C6F 636B 
 6408      7352 6571 
 6408      7565 7374 
 6408      6564 00
 6409               	.LASF140:
 6410 09a5 5F73 6967 	.string"_signal_buf"
 6410      6E61 6C5F 
 6410      6275 6600 
 6411               	.LASF371:
 6412 09b1 4D61 7850 	.string"MaxProcessorResets"
 6412      726F 6365 
 6412      7373 6F72 
 6412      5265 7365 
 6412      7473 00
 6413               	.LASF230:
 6414 09c4 4D65 7373 	.string"Message"
 6414      6167 6500 
 6415               	.LASF58:
 6416 09cc 5F42 6967 	.string"_Bigint"
 6416      696E 7400 
 6417               	.LASF354:
 6418 09d4 4346 454D 	.string"CFEMajorVersion"
 6418      616A 6F72 
 6418      5665 7273 
 6418      696F 6E00 
 6419               	.LASF60:
 6420 09e4 5F6D 6178 	.string"_maxwds"
 6420      7764 7300 
 6421               	.LASF111:
 6422 09ec 5F5F 636C 	.string"__cleanup"
 6422      6561 6E75 
68K GAS   			page 136


 6422      7000 
 6423               	.LASF177:
 6424 09f6 4461 7461 	.string"DataSize"
 6424      5369 7A65 
 6424      00
 6425               	.LASF384:
 6426 09ff 4346 455F 	.string"CFE_ES_HkPacket_Payload_t"
 6426      4553 5F48 
 6426      6B50 6163 
 6426      6B65 745F 
 6426      5061 796C 
 6427               	.LASF281:
 6428 0a19 4C6F 674D 	.string"LogMode"
 6428      6F64 6500 
 6429               	.LASF206:
 6430 0a21 4C65 6170 	.string"LeapSeconds"
 6430      5365 636F 
 6430      6E64 7300 
 6431               	.LASF229:
 6432 0a2d 5061 636B 	.string"PacketID"
 6432      6574 4944 
 6432      00
 6433               	.LASF199:
 6434 0a36 4E75 6D46 	.string"NumFreeBytes"
 6434      7265 6542 
 6434      7974 6573 
 6434      00
 6435               	.LASF313:
 6436 0a43 4346 455F 	.string"CFE_ES_CDSBlockHandle_t"
 6436      4553 5F43 
 6436      4453 426C 
 6436      6F63 6B48 
 6436      616E 646C 
 6437               	.LASF391:
 6438 0a5b 4461 7461 	.string"DataFileName"
 6438      4669 6C65 
 6438      4E61 6D65 
 6438      00
 6439               	.LASF169:
 6440 0a68 456E 7472 	.string"EntryPoint"
 6440      7950 6F69 
 6440      6E74 00
 6441               	.LASF107:
 6442 0a73 5F65 6D65 	.string"_emergency"
 6442      7267 656E 
 6442      6379 00
 6443               	.LASF236:
 6444 0a7e 4346 455F 	.string"CFE_EVS_Packet_t"
 6444      4556 535F 
 6444      5061 636B 
 6444      6574 5F74 
 6444      00
 6445               	.LASF420:
 6446 0a8f 4346 455F 	.string"CFE_ES_TaskData_t"
 6446      4553 5F54 
 6446      6173 6B44 
 6446      6174 615F 
68K GAS   			page 137


 6446      7400 
 6447               	.LASF7:
 6448 0aa1 6C6F 6E67 	.string"long long int"
 6448      206C 6F6E 
 6448      6720 696E 
 6448      7400 
 6449               	.LASF259:
 6450 0aaf 5665 7273 	.string"Version"
 6450      696F 6E00 
 6451               	.LASF382:
 6452 0ab7 4865 6170 	.string"HeapBlocksFree"
 6452      426C 6F63 
 6452      6B73 4672 
 6452      6565 00
 6453               	.LASF123:
 6454 0ac6 5F6E 696F 	.string"_niobs"
 6454      6273 00
 6455               	.LASF446:
 6456 0acd 4F75 7470 	.string"OutputFilename"
 6456      7574 4669 
 6456      6C65 6E61 
 6456      6D65 00
 6457               	.LASF289:
 6458 0adc 4552 4C6F 	.string"ERLogEntries"
 6458      6745 6E74 
 6458      7269 6573 
 6458      00
 6459               	.LASF387:
 6460 0ae9 4346 455F 	.string"CFE_ES_ShellPacket_Payload_t"
 6460      4553 5F53 
 6460      6865 6C6C 
 6460      5061 636B 
 6460      6574 5F50 
 6461               	.LASF120:
 6462 0b06 5F5F 7367 	.string"__sglue"
 6462      6C75 6500 
 6463               	.LASF263:
 6464 0b0e 5469 6D65 	.string"TimerLow32Rollover"
 6464      724C 6F77 
 6464      3332 526F 
 6464      6C6C 6F76 
 6464      6572 00
 6465               	.LASF149:
 6466 0b21 5F6E 6D61 	.string"_nmalloc"
 6466      6C6C 6F63 
 6466      00
 6467               	.LASF405:
 6468 0b2a 436F 756E 	.string"CounterTable"
 6468      7465 7254 
 6468      6162 6C65 
 6468      00
 6469               	.LASF133:
 6470 0b37 5F67 616D 	.string"_gamma_signgam"
 6470      6D61 5F73 
 6470      6967 6E67 
 6470      616D 00
 6471               	.LASF424:
68K GAS   			page 138


 6472 0b46 4E75 6D43 	.string"NumCountSems"
 6472      6F75 6E74 
 6472      5365 6D73 
 6472      00
 6473               	.LASF184:
 6474 0b53 4578 6563 	.string"ExecutionCounter"
 6474      7574 696F 
 6474      6E43 6F75 
 6474      6E74 6572 
 6474      00
 6475               	.LASF115:
 6476 0b64 5F66 7265 	.string"_freelist"
 6476      656C 6973 
 6476      7400 
 6477               	.LASF400:
 6478 0b6e 4170 7052 	.string"AppReadyCount"
 6478      6561 6479 
 6478      436F 756E 
 6478      7400 
 6479               	.LASF124:
 6480 0b7c 5F69 6F62 	.string"_iobs"
 6480      7300 
 6481               	.LASF411:
 6482 0b82 5368 656C 	.string"ShellPacket"
 6482      6C50 6163 
 6482      6B65 7400 
 6483               	.LASF122:
 6484 0b8e 5F67 6C75 	.string"_glue"
 6484      6500 
 6485               	.LASF61:
 6486 0b94 5F73 6967 	.string"_sign"
 6486      6E00 
 6487               	.LASF21:
 6488 0b9a 4F53 7461 	.string"OStask_id"
 6488      736B 5F69 
 6488      6400 
 6489               	.LASF315:
 6490 0ba4 416C 6C6F 	.string"AllocatedFlag"
 6490      6361 7465 
 6490      6446 6C61 
 6490      6700 
 6491               	.LASF162:
 6492 0bb2 5573 6572 	.string"User"
 6492      00
 6493               	.LASF342:
 6494 0bb7 5661 6C69 	.string"ValidityField"
 6494      6469 7479 
 6494      4669 656C 
 6494      6400 
 6495               	.LASF367:
 6496 0bc5 5265 6769 	.string"RegisteredExternalApps"
 6496      7374 6572 
 6496      6564 4578 
 6496      7465 726E 
 6496      616C 4170 
 6497               	.LASF336:
 6498 0bdc 4346 455F 	.string"CFE_ES_CDS_RegRec_t"
68K GAS   			page 139


 6498      4553 5F43 
 6498      4453 5F52 
 6498      6567 5265 
 6498      635F 7400 
 6499               	.LASF25:
 6500 0bf0 4F53 5F62 	.string"OS_bin_sem_prop_t"
 6500      696E 5F73 
 6500      656D 5F70 
 6500      726F 705F 
 6500      7400 
 6501               	.LASF441:
 6502 0c02 4669 6C65 	.string"Filename"
 6502      6E61 6D65 
 6502      00
 6503               	.LASF283:
 6504 0c0b 4C6F 6745 	.string"LogEntry"
 6504      6E74 7279 
 6504      00
 6505               	.LASF34:
 6506 0c14 756E 7369 	.string"unsigned int"
 6506      676E 6564 
 6506      2069 6E74 
 6506      00
 6507               	.LASF157:
 6508 0c21 5F74 696D 	.string"_timezone"
 6508      657A 6F6E 
 6508      6500 
 6509               	.LASF245:
 6510 0c2b 426F 6F74 	.string"BootSource"
 6510      536F 7572 
 6510      6365 00
 6511               	.LASF147:
 6512 0c36 5F68 5F65 	.string"_h_errno"
 6512      7272 6E6F 
 6512      00
 6513               	.LASF189:
 6514 0c3f 5461 736B 	.string"TaskName"
 6514      4E61 6D65 
 6514      00
 6515               	.LASF294:
 6516 0c48 5065 7266 	.string"Perf"
 6516      00
 6517               	.LASF286:
 6518 0c4d 4346 455F 	.string"CFE_ES_ResetVariables_t"
 6518      4553 5F52 
 6518      6573 6574 
 6518      5661 7269 
 6518      6162 6C65 
 6519               	.LASF375:
 6520 0c65 5065 7266 	.string"PerfFilterMask"
 6520      4669 6C74 
 6520      6572 4D61 
 6520      736B 00
 6521               	.LASF365:
 6522 0c74 5379 734C 	.string"SysLogMode"
 6522      6F67 4D6F 
 6522      6465 00
68K GAS   			page 140


 6523               	.LASF145:
 6524 0c7f 5F77 6372 	.string"_wcrtomb_state"
 6524      746F 6D62 
 6524      5F73 7461 
 6524      7465 00
 6525               	.LASF67:
 6526 0c8e 5F5F 746D 	.string"__tm_mday"
 6526      5F6D 6461 
 6526      7900 
 6527               	.LASF19:
 6528 0c98 7374 6163 	.string"stack_size"
 6528      6B5F 7369 
 6528      7A65 00
 6529               	.LASF118:
 6530 0ca3 5F6E 6577 	.string"_new"
 6530      00
 6531               	.LASF40:
 6532 0ca8 5F6E 616D 	.string"_name"
 6532      6500 
 6533               	.LASF93:
 6534 0cae 5F75 6275 	.string"_ubuf"
 6534      6600 
 6535               	.LASF221:
 6536 0cb4 5265 6C69 	.string"Reliability"
 6536      6162 696C 
 6536      6974 7900 
 6537               	.LASF105:
 6538 0cc0 5F73 7464 	.string"_stderr"
 6538      6572 7200 
 6539               	.LASF138:
 6540 0cc8 5F77 6374 	.string"_wctomb_state"
 6540      6F6D 625F 
 6540      7374 6174 
 6540      6500 
 6541               	.LASF99:
 6542 0cd6 5F6D 6273 	.string"_mbstate"
 6542      7461 7465 
 6542      00
 6543               	.LASF134:
 6544 0cdf 5F72 616E 	.string"_rand_next"
 6544      645F 6E65 
 6544      7874 00
 6545               	.LASF85:
 6546 0cea 5F66 6C61 	.string"_flags"
 6546      6773 00
 6547               	.LASF388:
 6548 0cf1 4346 455F 	.string"CFE_ES_ShellPacket_t"
 6548      4553 5F53 
 6548      6865 6C6C 
 6548      5061 636B 
 6548      6574 5F74 
 6549               	.LASF167:
 6550 0d06 5479 7065 	.string"Type"
 6550      00
 6551               	.LASF201:
 6552 0d0b 4346 455F 	.string"CFE_ES_MemPoolStats_t"
 6552      4553 5F4D 
68K GAS   			page 141


 6552      656D 506F 
 6552      6F6C 5374 
 6552      6174 735F 
 6553               	.LASF401:
 6554 0d21 5379 7374 	.string"SystemState"
 6554      656D 5374 
 6554      6174 6500 
 6555               	.LASF78:
 6556 0d2d 5F61 7465 	.string"_atexit"
 6556      7869 7400 
 6557               	.LASF26:
 6558 0d35 4F53 5F63 	.string"OS_count_sem_prop_t"
 6558      6F75 6E74 
 6558      5F73 656D 
 6558      5F70 726F 
 6558      705F 7400 
 6559               	.LASF203:
 6560 0d49 5375 6273 	.string"Subseconds"
 6560      6563 6F6E 
 6560      6473 00
 6561               	.LASF173:
 6562 0d54 4164 6472 	.string"AddressesAreValid"
 6562      6573 7365 
 6562      7341 7265 
 6562      5661 6C69 
 6562      6400 
 6563               	.LASF53:
 6564 0d66 5F5F 636F 	.string"__count"
 6564      756E 7400 
 6565               	.LASF439:
 6566 0d6e 4346 455F 	.string"CFE_ES_ShellOutputCommand"
 6566      4553 5F53 
 6566      6865 6C6C 
 6566      4F75 7470 
 6566      7574 436F 
 6567               	.LASF261:
 6568 0d88 5370 6172 	.string"Spare"
 6568      6500 
 6569               	.LASF345:
 6570 0d8e 4346 455F 	.string"CFE_ES_OneAppTlm_Payload_t"
 6570      4553 5F4F 
 6570      6E65 4170 
 6570      7054 6C6D 
 6570      5F50 6179 
 6571               	.LASF193:
 6572 0da9 4E75 6D43 	.string"NumCreated"
 6572      7265 6174 
 6572      6564 00
 6573               	.LASF168:
 6574 0db4 4E61 6D65 	.string"Name"
 6574      00
 6575               	.LASF70:
 6576 0db9 5F5F 746D 	.string"__tm_wday"
 6576      5F77 6461 
 6576      7900 
 6577               	.LASF423:
 6578 0dc3 4E75 6D53 	.string"NumSemaphores"
68K GAS   			page 142


 6578      656D 6170 
 6578      686F 7265 
 6578      7300 
 6579               	.LASF217:
 6580 0dd1 4279 7465 	.string"Byte"
 6580      00
 6581               	.LASF276:
 6582 0dd6 4461 7461 	.string"DataBuffer"
 6582      4275 6666 
 6582      6572 00
 6583               	.LASF29:
 6584 0de1 6C6F 6E67 	.string"long double"
 6584      2064 6F75 
 6584      626C 6500 
 6585               	.LASF304:
 6586 0ded 4346 455F 	.string"CFE_ES_MainTaskInfo_t"
 6586      4553 5F4D 
 6586      6169 6E54 
 6586      6173 6B49 
 6586      6E66 6F5F 
 6587               	.LASF71:
 6588 0e03 5F5F 746D 	.string"__tm_yday"
 6588      5F79 6461 
 6588      7900 
 6589               	.LASF310:
 6590 0e0d 4346 455F 	.string"CFE_ES_TaskRecord_t"
 6590      4553 5F54 
 6590      6173 6B52 
 6590      6563 6F72 
 6590      645F 7400 
 6591               	.LASF321:
 6592 0e21 5374 6172 	.string"Start"
 6592      7400 
 6593               	.LASF27:
 6594 0e27 4F53 5F6D 	.string"OS_mut_sem_prop_t"
 6594      7574 5F73 
 6594      656D 5F70 
 6594      726F 705F 
 6594      7400 
 6595               	.LASF45:
 6596 0e39 5F4D 7574 	.string"_Mutex_recursive_Control"
 6596      6578 5F72 
 6596      6563 7572 
 6596      7369 7665 
 6596      5F43 6F6E 
 6597               	.LASF265:
 6598 0e52 4D6F 6465 	.string"Mode"
 6598      00
 6599               	.LASF38:
 6600 0e57 5F68 6561 	.string"_heads"
 6600      6473 00
 6601               	.LASF126:
 6602 0e5e 5F73 6565 	.string"_seed"
 6602      6400 
 6603               	.LASF44:
 6604 0e64 5F51 7565 	.string"_Queue"
 6604      7565 00
68K GAS   			page 143


 6605               	.LASF285:
 6606 0e6b 4553 5F43 	.string"ES_CausedReset"
 6606      6175 7365 
 6606      6452 6573 
 6606      6574 00
 6607               	.LASF31:
 6608 0e7a 5F66 706F 	.string"_fpos_t"
 6608      735F 7400 
 6609               	.LASF408:
 6610 0e82 4346 455F 	.string"CFE_ES_Global"
 6610      4553 5F47 
 6610      6C6F 6261 
 6610      6C00 
 6611               	.LASF52:
 6612 0e90 5F5F 7763 	.string"__wchb"
 6612      6862 00
 6613               	.LASF419:
 6614 0e97 4C69 6D69 	.string"LimitCmd"
 6614      7443 6D64 
 6614      00
 6615               	.LASF344:
 6616 0ea0 4170 7049 	.string"AppInfo"
 6616      6E66 6F00 
 6617               	.LASF137:
 6618 0ea8 5F6D 6274 	.string"_mbtowc_state"
 6618      6F77 635F 
 6618      7374 6174 
 6618      6500 
 6619               	.LASF396:
 6620 0eb6 436F 756E 	.string"CounterName"
 6620      7465 724E 
 6620      616D 6500 
 6621               	.LASF13:
 6622 0ec2 6C6F 6E67 	.string"long long unsigned int"
 6622      206C 6F6E 
 6622      6720 756E 
 6622      7369 676E 
 6622      6564 2069 
 6623               	.LASF444:
 6624 0ed9 4375 7272 	.string"CurrFilePtr"
 6624      4669 6C65 
 6624      5074 7200 
 6625               	.LASF307:
 6626 0ee5 5374 6174 	.string"StateRecord"
 6626      6552 6563 
 6626      6F72 6400 
 6627               	.LASF392:
 6628 0ef1 4461 7461 	.string"DataFileDescriptor"
 6628      4669 6C65 
 6628      4465 7363 
 6628      7269 7074 
 6628      6F72 00
 6629               	.LASF179:
 6630 0f04 4253 5353 	.string"BSSSize"
 6630      697A 6500 
 6631               	.LASF75:
 6632 0f0c 5F64 736F 	.string"_dso_handle"
68K GAS   			page 144


 6632      5F68 616E 
 6632      646C 6500 
 6633               	.LASF125:
 6634 0f18 5F72 616E 	.string"_rand48"
 6634      6434 3800 
 6635               	.LASF104:
 6636 0f20 5F73 7464 	.string"_stdout"
 6636      6F75 7400 
 6637               	.LASF264:
 6638 0f28 5374 6174 	.string"State"
 6638      6500 
 6639               	.LASF95:
 6640 0f2e 5F62 6C6B 	.string"_blksize"
 6640      7369 7A65 
 6640      00
 6641               	.LASF303:
 6642 0f37 4346 455F 	.string"CFE_ES_AppStartParams_t"
 6642      4553 5F41 
 6642      7070 5374 
 6642      6172 7450 
 6642      6172 616D 
 6643               	.LASF257:
 6644 0f4f 5469 6D65 	.string"TimerLower32"
 6644      724C 6F77 
 6644      6572 3332 
 6644      00
 6645               	.LASF82:
 6646 0f5c 5F62 6173 	.string"_base"
 6646      6500 
 6647               	.LASF269:
 6648 0f62 4461 7461 	.string"DataCount"
 6648      436F 756E 
 6648      7400 
 6649               	.LASF130:
 6650 0f6c 5F73 7472 	.string"_strtok_last"
 6650      746F 6B5F 
 6650      6C61 7374 
 6650      00
 6651               	.LASF337:
 6652 0f79 5265 6769 	.string"RegistryMutex"
 6652      7374 7279 
 6652      4D75 7465 
 6652      7800 
 6653               	.LASF402:
 6654 0f87 5461 736B 	.string"TaskTable"
 6654      5461 626C 
 6654      6500 
 6655               	.LASF143:
 6656 0f91 5F6D 6272 	.string"_mbrtowc_state"
 6656      746F 7763 
 6656      5F73 7461 
 6656      7465 00
 6657               	.LASF272:
 6658 0fa0 4669 6C74 	.string"FilterMask"
 6658      6572 4D61 
 6658      736B 00
 6659               	.LASF243:
68K GAS   			page 145


 6660 0fab 5265 7365 	.string"ResetType"
 6660      7454 7970 
 6660      6500 
 6661               	.LASF305:
 6662 0fb5 5265 636F 	.string"RecordUsed"
 6662      7264 5573 
 6662      6564 00
 6663               	.LASF208:
 6664 0fc0 4375 7272 	.string"CurrentMET"
 6664      656E 744D 
 6664      4554 00
 6665               	.LASF56:
 6666 0fcb 5F66 6C6F 	.string"_flock_t"
 6666      636B 5F74 
 6666      00
 6667               	.LASF200:
 6668 0fd4 426C 6F63 	.string"BlockStats"
 6668      6B53 7461 
 6668      7473 00
 6669               	.LASF121:
 6670 0fdf 5F5F 4649 	.string"__FILE"
 6670      4C45 00
 6671               	.LASF330:
 6672 0fe6 4346 455F 	.string"CFE_ES_CDSPool_t"
 6672      4553 5F43 
 6672      4453 506F 
 6672      6F6C 5F74 
 6672      00
 6673               	.LASF98:
 6674 0ff7 5F6C 6F63 	.string"_lock"
 6674      6B00 
 6675               	.LASF428:
 6676 0ffd 4E75 6D46 	.string"NumFiles"
 6676      696C 6573 
 6676      00
 6677               	.LASF407:
 6678 1006 4346 455F 	.string"CFE_ES_Global_t"
 6678      4553 5F47 
 6678      6C6F 6261 
 6678      6C5F 7400 
 6679               	.LASF55:
 6680 1016 5F6D 6273 	.string"_mbstate_t"
 6680      7461 7465 
 6680      5F74 00
 6681               	.LASF356:
 6682 1021 4346 4552 	.string"CFERevision"
 6682      6576 6973 
 6682      696F 6E00 
 6683               	.LASF135:
 6684 102d 5F72 3438 	.string"_r48"
 6684      00
 6685               	.LASF372:
 6686 1032 5065 7266 	.string"PerfState"
 6686      5374 6174 
 6686      6500 
 6687               	.LASF214:
 6688 103c 4C65 6E67 	.string"Length"
68K GAS   			page 146


 6688      7468 00
 6689               	.LASF50:
 6690 1043 7769 6E74 	.string"wint_t"
 6690      5F74 00
 6691               	.LASF2:
 6692 104a 6F73 616C 	.string"osalbool"
 6692      626F 6F6C 
 6692      00
 6693               	.LASF374:
 6694 1053 5065 7266 	.string"PerfTriggerCount"
 6694      5472 6967 
 6694      6765 7243 
 6694      6F75 6E74 
 6694      00
 6695               	.LASF59:
 6696 1064 5F6E 6578 	.string"_next"
 6696      7400 
 6697               	.LASF97:
 6698 106a 5F64 6174 	.string"_data"
 6698      6100 
 6699               	.LASF237:
 6700 1070 4465 6275 	.string"DebugFlag"
 6700      6746 6C61 
 6700      6700 
 6701               	.LASF244:
 6702 107a 5265 7365 	.string"ResetSubtype"
 6702      7453 7562 
 6702      7479 7065 
 6702      00
 6703               	.LASF175:
 6704 1087 436F 6465 	.string"CodeSize"
 6704      5369 7A65 
 6704      00
 6705               	.LASF366:
 6706 1090 5265 6769 	.string"RegisteredCoreApps"
 6706      7374 6572 
 6706      6564 436F 
 6706      7265 4170 
 6706      7073 00
 6707               	.LASF223:
 6708 10a3 4346 455F 	.string"CFE_SB_Default_Qos"
 6708      5342 5F44 
 6708      6566 6175 
 6708      6C74 5F51 
 6708      6F73 00
 6709               	.LASF266:
 6710 10b6 5472 6967 	.string"TriggerCount"
 6710      6765 7243 
 6710      6F75 6E74 
 6710      00
 6711               	.LASF301:
 6712 10c3 4170 7054 	.string"AppTimer"
 6712      696D 6572 
 6712      00
 6713               	.LASF404:
 6714 10cc 4C69 6254 	.string"LibTable"
 6714      6162 6C65 
68K GAS   			page 147


 6714      00
 6715               	.LASF437:
 6716 10d5 4346 455F 	.string"CFE_ES_ListTasks"
 6716      4553 5F4C 
 6716      6973 7454 
 6716      6173 6B73 
 6716      00
 6717               	.LASF219:
 6718 10e6 4346 455F 	.string"CFE_SB_PipeId_t"
 6718      5342 5F50 
 6718      6970 6549 
 6718      645F 7400 
 6719               	.LASF299:
 6720 10f6 4170 7043 	.string"AppControlRequest"
 6720      6F6E 7472 
 6720      6F6C 5265 
 6720      7175 6573 
 6720      7400 
 6721               	.LASF205:
 6722 1108 5369 676E 	.string"Signature"
 6722      6174 7572 
 6722      6500 
 6723               	.LASF163:
 6724 1112 4973 5661 	.string"IsValid"
 6724      6C69 6400 
 6725               	.LASF291:
 6726 111a 5379 7374 	.string"SystemLogIndex"
 6726      656D 4C6F 
 6726      6749 6E64 
 6726      6578 00
 6727               	.LASF317:
 6728 1129 4163 7475 	.string"ActualSize"
 6728      616C 5369 
 6728      7A65 00
 6729               	.LASF46:
 6730 1134 5F4D 7574 	.string"_Mutex"
 6730      6578 00
 6731               	.LASF300:
 6732 113b 4170 7053 	.string"AppState"
 6732      7461 7465 
 6732      00
 6733               	.LASF370:
 6734 1144 5072 6F63 	.string"ProcessorResets"
 6734      6573 736F 
 6734      7252 6573 
 6734      6574 7300 
 6735               	.LASF268:
 6736 1154 4461 7461 	.string"DataEnd"
 6736      456E 6400 
 6737               	.LASF389:
 6738 115c 4461 7461 	.string"DataToWrite"
 6738      546F 5772 
 6738      6974 6500 
 6739               	.LASF246:
 6740 1168 5072 6F63 	.string"ProcessorResetCount"
 6740      6573 736F 
 6740      7252 6573 
68K GAS   			page 148


 6740      6574 436F 
 6740      756E 7400 
 6741               	.LASF17:
 6742 117c 6E61 6D65 	.string"name"
 6742      00
 6743               	.LASF361:
 6744 1181 4F53 414C 	.string"OSALMissionRevision"
 6744      4D69 7373 
 6744      696F 6E52 
 6744      6576 6973 
 6744      696F 6E00 
 6745               	.LASF8:
 6746 1195 7569 6E74 	.string"uint8"
 6746      3800 
 6747               	.LASF309:
 6748 119b 4346 455F 	.string"CFE_ES_AppRecord_t"
 6748      4553 5F41 
 6748      7070 5265 
 6748      636F 7264 
 6748      5F74 00
 6749               	.LASF318:
 6750 11ae 4346 455F 	.string"CFE_ES_CDSBlockDesc_t"
 6750      4553 5F43 
 6750      4453 426C 
 6750      6F63 6B44 
 6750      6573 635F 
 6751               	.LASF190:
 6752 11c4 4170 704E 	.string"AppName"
 6752      616D 6500 
 6753               	.LASF278:
 6754 11cc 4E65 7874 	.string"Next"
 6754      00
 6755               	.LASF195:
 6756 11d1 4346 455F 	.string"CFE_ES_BlockStats_t"
 6756      4553 5F42 
 6756      6C6F 636B 
 6756      5374 6174 
 6756      735F 7400 
 6757               	.LASF255:
 6758 11e5 4461 7461 	.string"Data"
 6758      00
 6759               	.LASF136:
 6760 11ea 5F6D 626C 	.string"_mblen_state"
 6760      656E 5F73 
 6760      7461 7465 
 6760      00
 6761               	.LASF4:
 6762 11f7 7368 6F72 	.string"short int"
 6762      7420 696E 
 6762      7400 
 6763               	.LASF225:
 6764 1201 4576 656E 	.string"EventType"
 6764      7454 7970 
 6764      6500 
 6765               	.LASF341:
 6766 120b 5265 6769 	.string"Registry"
 6766      7374 7279 
68K GAS   			page 149


 6766      00
 6767               	.LASF20:
 6768 1214 7072 696F 	.string"priority"
 6768      7269 7479 
 6768      00
 6769               	.LASF385:
 6770 121d 4346 455F 	.string"CFE_ES_HkPacket_t"
 6770      4553 5F48 
 6770      6B50 6163 
 6770      6B65 745F 
 6770      7400 
 6771               	.LASF156:
 6772 122f 7375 626F 	.string"suboptarg"
 6772      7074 6172 
 6772      6700 
 6773               	.LASF76:
 6774 1239 5F66 6E74 	.string"_fntypes"
 6774      7970 6573 
 6774      00
 6775               	.LASF69:
 6776 1242 5F5F 746D 	.string"__tm_year"
 6776      5F79 6561 
 6776      7200 
 6777               	.LASF331:
 6778 124c 4346 455F 	.string"CFE_ES_CDSMemPool"
 6778      4553 5F43 
 6778      4453 4D65 
 6778      6D50 6F6F 
 6778      6C00 
 6779               	.LASF224:
 6780 125e 4576 656E 	.string"EventID"
 6780      7449 4400 
 6781               	.LASF326:
 6782 1266 5265 7175 	.string"RequestCntr"
 6782      6573 7443 
 6782      6E74 7200 
 6783               	.LASF433:
 6784 1272 436F 756E 	.string"CountSemProp"
 6784      7453 656D 
 6784      5072 6F70 
 6784      00
 6785               	.LASF353:
 6786 127f 4346 4543 	.string"CFECoreChecksum"
 6786      6F72 6543 
 6786      6865 636B 
 6786      7375 6D00 
 6787               	.LASF87:
 6788 128f 5F6C 6266 	.string"_lbfsize"
 6788      7369 7A65 
 6788      00
 6789               	.LASF106:
 6790 1298 5F69 6E63 	.string"_inc"
 6790      00
 6791               	.LASF79:
 6792 129d 5F69 6E64 	.string"_ind"
 6792      00
 6793               	.LASF380:
68K GAS   			page 150


 6794 12a2 5065 7266 	.string"PerfDataToWrite"
 6794      4461 7461 
 6794      546F 5772 
 6794      6974 6500 
 6795               	.LASF188:
 6796 12b2 5461 736B 	.string"TaskId"
 6796      4964 00
 6797               	.LASF28:
 6798 12b9 5F5F 696E 	.string"__int64_t"
 6798      7436 345F 
 6798      7400 
 6799               	.LASF267:
 6800 12c3 4461 7461 	.string"DataStart"
 6800      5374 6172 
 6800      7400 
 6801               	.LASF350:
 6802 12cd 4346 455F 	.string"CFE_ES_PoolStatsTlm_t"
 6802      4553 5F50 
 6802      6F6F 6C53 
 6802      7461 7473 
 6802      546C 6D5F 
 6803               	.LASF3:
 6804 12e3 696E 7431 	.string"int16"
 6804      3600 
 6805               	.LASF412:
 6806 12e9 4F6E 6541 	.string"OneAppPacket"
 6806      7070 5061 
 6806      636B 6574 
 6806      00
 6807               	.LASF161:
 6808 12f6 5061 7468 	.string"Path"
 6808      00
 6809               	.LASF81:
 6810 12fb 5F5F 7362 	.string"__sbuf"
 6810      7566 00
 6811               	.LASF77:
 6812 1302 5F69 735F 	.string"_is_cxa"
 6812      6378 6100 
 6813               	.LASF204:
 6814 130a 4346 455F 	.string"CFE_TIME_SysTime_t"
 6814      5449 4D45 
 6814      5F53 7973 
 6814      5469 6D65 
 6814      5F74 00
 6815               	.LASF148:
 6816 131d 5F6E 6578 	.string"_nextf"
 6816      7466 00
 6817               	.LASF249:
 6818 1324 5469 6D65 	.string"TimeCode"
 6818      436F 6465 
 6818      00
 6819               	.LASF23:
 6820 132d 4F53 5F71 	.string"OS_queue_prop_t"
 6820      7565 7565 
 6820      5F70 726F 
 6820      705F 7400 
 6821               	.LASF254:
68K GAS   			page 151


 6822 133d 4346 455F 	.string"CFE_ES_ERLog_t"
 6822      4553 5F45 
 6822      524C 6F67 
 6822      5F74 00
 6823               	.LASF311:
 6824 134c 4C69 624E 	.string"LibName"
 6824      616D 6500 
 6825               	.LASF233:
 6826 1354 4346 455F 	.string"CFE_EVS_Packet_Payload_t"
 6826      4556 535F 
 6826      5061 636B 
 6826      6574 5F50 
 6826      6179 6C6F 
 6827               	.LASF359:
 6828 136d 4F53 414C 	.string"OSALMinorVersion"
 6828      4D69 6E6F 
 6828      7256 6572 
 6828      7369 6F6E 
 6828      00
 6829               	.LASF109:
 6830 137e 5F6C 6F63 	.string"_locale"
 6830      616C 6500 
 6831               	.LASF57:
 6832 1386 5F5F 554C 	.string"__ULong"
 6832      6F6E 6700 
 6833               	.LASF335:
 6834 138e 5461 626C 	.string"Table"
 6834      6500 
 6835               	.LASF435:
 6836 1394 4669 6C65 	.string"FileProp"
 6836      5072 6F70 
 6836      00
 6837               	.LASF250:
 6838 139d 4465 7363 	.string"Description"
 6838      7269 7074 
 6838      696F 6E00 
 6839               	.LASF164:
 6840 13a9 4F53 5F46 	.string"OS_FDTableEntry"
 6840      4454 6162 
 6840      6C65 456E 
 6840      7472 7900 
 6841               	.LASF327:
 6842 13b9 4D75 7465 	.string"MutexId"
 6842      7849 6400 
 6843               	.LASF112:
 6844 13c1 5F72 6573 	.string"_result"
 6844      756C 7400 
 6845               	.LASF165:
 6846 13c9 4346 455F 	.string"CFE_ES_MemHandle_t"
 6846      4553 5F4D 
 6846      656D 4861 
 6846      6E64 6C65 
 6846      5F74 00
 6847               	.LASF18:
 6848 13dc 6372 6561 	.string"creator"
 6848      746F 7200 
 6849               	.LASF33:
68K GAS   			page 152


 6850 13e4 5F6E 6F77 	.string"_now_serving"
 6850      5F73 6572 
 6850      7669 6E67 
 6850      00
 6851               	.LASF410:
 6852 13f1 486B 5061 	.string"HkPacket"
 6852      636B 6574 
 6852      00
 6853               	.LASF30:
 6854 13fa 5F6F 6666 	.string"_off_t"
 6854      5F74 00
 6855               	.LASF440:
 6856 1401 436D 6453 	.string"CmdString"
 6856      7472 696E 
 6856      6700 
 6857               	.LASF128:
 6858 140b 5F61 6464 	.string"_add"
 6858      00
 6859               	.LASF447:
 6860 1410 474E 5520 	.string"GNU C11 7.3.0 20180125 (RTEMS 5, RSB d2b25d131d55adcb38219f2cd8cbec2436ee78ab, Newlib 3.0.0) -malign-int -mcpu=528x -g -O0 -fomit-frame-pointer"
 6860      4331 3120 
 6860      372E 332E 
 6860      3020 3230 
 6860      3138 3031 
 6861               	.LASF10:
 6862 14a0 7368 6F72 	.string"short unsigned int"
 6862      7420 756E 
 6862      7369 676E 
 6862      6564 2069 
 6862      6E74 00
 6863               	.LASF66:
 6864 14b3 5F5F 746D 	.string"__tm_hour"
 6864      5F68 6F75 
 6864      7200 
 6865               	.LASF242:
 6866 14bd 4C6F 6745 	.string"LogEntryType"
 6866      6E74 7279 
 6866      5479 7065 
 6866      00
 6867               	.LASF176:
 6868 14ca 4461 7461 	.string"DataAddress"
 6868      4164 6472 
 6868      6573 7300 
 6869               	.LASF226:
 6870 14d6 5370 6163 	.string"SpacecraftID"
 6870      6563 7261 
 6870      6674 4944 
 6870      00
 6871               	.LASF5:
 6872 14e3 696E 7433 	.string"int32"
 6872      3200 
 6873               	.LASF213:
 6874 14e9 5365 7175 	.string"Sequence"
 6874      656E 6365 
 6874      00
 6875               	.LASF144:
 6876 14f2 5F6D 6273 	.string"_mbsrtowcs_state"
68K GAS   			page 153


 6876      7274 6F77 
 6876      6373 5F73 
 6876      7461 7465 
 6876      00
 6877               	.LASF37:
 6878 1503 5F4C 6F63 	.string"_Lock"
 6878      6B00 
 6879               	.LASF228:
 6880 1509 4346 455F 	.string"CFE_EVS_PacketID_t"
 6880      4556 535F 
 6880      5061 636B 
 6880      6574 4944 
 6880      5F74 00
 6881               	.LASF191:
 6882 151c 4346 455F 	.string"CFE_ES_TaskInfo_t"
 6882      4553 5F54 
 6882      6173 6B49 
 6882      6E66 6F5F 
 6882      7400 
 6883               	.LASF443:
 6884 152e 4669 6C65 	.string"FileSize"
 6884      5369 7A65 
 6884      00
 6885               	.LASF74:
 6886 1537 5F66 6E61 	.string"_fnargs"
 6886      7267 7300 
 6887               	.LASF72:
 6888 153f 5F5F 746D 	.string"__tm_isdst"
 6888      5F69 7364 
 6888      7374 00
 6889               	.LASF284:
 6890 154a 4346 455F 	.string"CFE_EVS_Log_t"
 6890      4556 535F 
 6890      4C6F 675F 
 6890      7400 
 6891               	.LASF253:
 6892 1558 436F 6E74 	.string"Context"
 6892      6578 7400 
 6893               	.LASF238:
 6894 1560 5761 7463 	.string"WatchdogWriteFlag"
 6894      6864 6F67 
 6894      5772 6974 
 6894      6546 6C61 
 6894      6700 
 6895               	.LASF158:
 6896 1572 5F64 6179 	.string"_daylight"
 6896      6C69 6768 
 6896      7400 
 6897               	.LASF390:
 6898 157c 4368 696C 	.string"ChildID"
 6898      6449 4400 
 6899               	.LASF220:
 6900 1584 4346 455F 	.string"CFE_SB_MsgPtr_t"
 6900      5342 5F4D 
 6900      7367 5074 
 6900      725F 7400 
 6901               	.LASF65:
68K GAS   			page 154


 6902 1594 5F5F 746D 	.string"__tm_min"
 6902      5F6D 696E 
 6902      00
 6903               	.LASF295:
 6904 159d 5265 7365 	.string"ResetVars"
 6904      7456 6172 
 6904      7300 
 6905               	.LASF9:
 6906 15a7 7569 6E74 	.string"uint16"
 6906      3136 00
 6907               	.LASF308:
 6908 15ae 5461 736B 	.string"TaskInfo"
 6908      496E 666F 
 6908      00
 6909               	.LASF141:
 6910 15b7 5F67 6574 	.string"_getdate_err"
 6910      6461 7465 
 6910      5F65 7272 
 6910      00
 6911               	.LASF222:
 6912 15c4 4346 455F 	.string"CFE_SB_Qos_t"
 6912      5342 5F51 
 6912      6F73 5F74 
 6912      00
 6913               	.LASF381:
 6914 15d1 4865 6170 	.string"HeapBytesFree"
 6914      4279 7465 
 6914      7346 7265 
 6914      6500 
 6915               	.LASF436:
 6916 15df 4346 455F 	.string"CFE_ES_ListResources"
 6916      4553 5F4C 
 6916      6973 7452 
 6916      6573 6F75 
 6916      7263 6573 
 6917               	.LASF406:
 6918 15f4 4344 5356 	.string"CDSVars"
 6918      6172 7300 
 6919               	.ident"GCC: (GNU) 7.3.0 20180125 (RTEMS 5, RSB d2b25d131d55adcb38219f2cd8cbec2436ee78ab, Newlib 3.0.0)"
68K GAS   			page 155


DEFINED SYMBOLS
                            *ABS*:0000000000000000 cfe_es_shell.c
    {standard input}:31     .text:0000000000000000 CFE_ES_ShellOutputCommand
    {standard input}:524    .text:0000000000000414 CFE_ES_ListApplications
    {standard input}:646    .text:0000000000000508 CFE_ES_ListTasks
    {standard input}:861    .text:00000000000006c6 CFE_ES_ListResources

UNDEFINED SYMBOLS
CFE_SB_MessageStringGet
strlen
OS_remove
OS_creat
strncmp
CFE_ES_WriteToSysLog
OS_ShellOutputToFile
OS_lseek
OS_close
OS_write
CFE_ES_TaskData
OS_read
CFE_SB_TimeStampMsg
CFE_SB_SendMsg
OS_TaskDelay
CFE_ES_Global
strcpy
CFE_PSP_MemSet
CFE_ES_GetTaskInfo
sprintf
OS_TaskGetInfo
OS_QueueGetInfo
OS_CountSemGetInfo
OS_BinSemGetInfo
OS_MutSemGetInfo
OS_FDGetInfo
