68K GAS   			page 1


   1               	
   2               	.file"cfe_sb_priv.c"
   3               	.text
   4               	.Ltext0:
   5               	.cfi_sections.debug_frame
   6               	.align2
   7               	.typeOS_ConvertToArrayIndex, @function
   8               	OS_ConvertToArrayIndex:
   9               	.LFB58:
  10               	.file 1 "/home/simulink/cFS_FreeRTOS_seL4/cfe/fsw/cfe-core/src/inc/cfe_es.h"
   1:/home/simulink/cFS_FreeRTOS_seL4/cfe/fsw/cfe-core/src/inc/cfe_es.h **** /*
   2:/home/simulink/cFS_FreeRTOS_seL4/cfe/fsw/cfe-core/src/inc/cfe_es.h **** **
   3:/home/simulink/cFS_FreeRTOS_seL4/cfe/fsw/cfe-core/src/inc/cfe_es.h **** **  File: 
   4:/home/simulink/cFS_FreeRTOS_seL4/cfe/fsw/cfe-core/src/inc/cfe_es.h **** **  cfe_es.h
   5:/home/simulink/cFS_FreeRTOS_seL4/cfe/fsw/cfe-core/src/inc/cfe_es.h **** **  $Id: cfe_es.h 1.14 2014/08/19 13:32:01GMT-05:00 sstrege Exp  $
   6:/home/simulink/cFS_FreeRTOS_seL4/cfe/fsw/cfe-core/src/inc/cfe_es.h **** **
   7:/home/simulink/cFS_FreeRTOS_seL4/cfe/fsw/cfe-core/src/inc/cfe_es.h **** **
   8:/home/simulink/cFS_FreeRTOS_seL4/cfe/fsw/cfe-core/src/inc/cfe_es.h **** **      Copyright (c) 2004-2006, United States government as represented by the 
   9:/home/simulink/cFS_FreeRTOS_seL4/cfe/fsw/cfe-core/src/inc/cfe_es.h **** **      administrator of the National Aeronautics Space Administration.  
  10:/home/simulink/cFS_FreeRTOS_seL4/cfe/fsw/cfe-core/src/inc/cfe_es.h **** **      All rights reserved. This software(cFE) was created at NASA's Goddard 
  11:/home/simulink/cFS_FreeRTOS_seL4/cfe/fsw/cfe-core/src/inc/cfe_es.h **** **      Space Flight Center pursuant to government contracts.
  12:/home/simulink/cFS_FreeRTOS_seL4/cfe/fsw/cfe-core/src/inc/cfe_es.h **** **
  13:/home/simulink/cFS_FreeRTOS_seL4/cfe/fsw/cfe-core/src/inc/cfe_es.h **** **      This is governed by the NASA Open Source Agreement and may be used,
  14:/home/simulink/cFS_FreeRTOS_seL4/cfe/fsw/cfe-core/src/inc/cfe_es.h **** **      distributed and modified only pursuant to the terms of that agreement. 
  15:/home/simulink/cFS_FreeRTOS_seL4/cfe/fsw/cfe-core/src/inc/cfe_es.h **** **
  16:/home/simulink/cFS_FreeRTOS_seL4/cfe/fsw/cfe-core/src/inc/cfe_es.h **** **
  17:/home/simulink/cFS_FreeRTOS_seL4/cfe/fsw/cfe-core/src/inc/cfe_es.h **** **  Purpose:
  18:/home/simulink/cFS_FreeRTOS_seL4/cfe/fsw/cfe-core/src/inc/cfe_es.h **** **	Unit specification for Executive Services library functions and macros.
  19:/home/simulink/cFS_FreeRTOS_seL4/cfe/fsw/cfe-core/src/inc/cfe_es.h **** **
  20:/home/simulink/cFS_FreeRTOS_seL4/cfe/fsw/cfe-core/src/inc/cfe_es.h **** **  References:
  21:/home/simulink/cFS_FreeRTOS_seL4/cfe/fsw/cfe-core/src/inc/cfe_es.h **** **     Flight Software Branch C Coding Standard Version 1.0a
  22:/home/simulink/cFS_FreeRTOS_seL4/cfe/fsw/cfe-core/src/inc/cfe_es.h **** **     cFE Flight Software Application Developers Guide
  23:/home/simulink/cFS_FreeRTOS_seL4/cfe/fsw/cfe-core/src/inc/cfe_es.h **** **
  24:/home/simulink/cFS_FreeRTOS_seL4/cfe/fsw/cfe-core/src/inc/cfe_es.h **** **	Notes:
  25:/home/simulink/cFS_FreeRTOS_seL4/cfe/fsw/cfe-core/src/inc/cfe_es.h **** **
  26:/home/simulink/cFS_FreeRTOS_seL4/cfe/fsw/cfe-core/src/inc/cfe_es.h **** **  $Date: 2014/08/19 13:32:01GMT-05:00 $
  27:/home/simulink/cFS_FreeRTOS_seL4/cfe/fsw/cfe-core/src/inc/cfe_es.h **** **  $Revision: 1.14 $
  28:/home/simulink/cFS_FreeRTOS_seL4/cfe/fsw/cfe-core/src/inc/cfe_es.h **** **  $Log: cfe_es.h  $
  29:/home/simulink/cFS_FreeRTOS_seL4/cfe/fsw/cfe-core/src/inc/cfe_es.h **** **  Revision 1.14 2014/08/19 13:32:01GMT-05:00 sstrege 
  30:/home/simulink/cFS_FreeRTOS_seL4/cfe/fsw/cfe-core/src/inc/cfe_es.h **** **  Fixed doxygen warnings
  31:/home/simulink/cFS_FreeRTOS_seL4/cfe/fsw/cfe-core/src/inc/cfe_es.h **** **  Revision 1.13 2011/07/15 14:28:34EDT lwalling 
  32:/home/simulink/cFS_FreeRTOS_seL4/cfe/fsw/cfe-core/src/inc/cfe_es.h **** **  Removed const qualifier from CounterName argument to CFE_ES_RegisterGenCounter()
  33:/home/simulink/cFS_FreeRTOS_seL4/cfe/fsw/cfe-core/src/inc/cfe_es.h **** **  Revision 1.12 2010/11/05 15:54:27EDT aschoeni 
  34:/home/simulink/cFS_FreeRTOS_seL4/cfe/fsw/cfe-core/src/inc/cfe_es.h **** **  Added Generic Counter API to ES
  35:/home/simulink/cFS_FreeRTOS_seL4/cfe/fsw/cfe-core/src/inc/cfe_es.h **** **  Revision 1.11 2010/11/01 16:03:10EDT jmdagost 
  36:/home/simulink/cFS_FreeRTOS_seL4/cfe/fsw/cfe-core/src/inc/cfe_es.h **** **  Removed cfe.h from include list and added cfe_mission_cfg.h
  37:/home/simulink/cFS_FreeRTOS_seL4/cfe/fsw/cfe-core/src/inc/cfe_es.h **** **  Revision 1.10 2010/10/20 12:35:43EDT jmdagost 
  38:/home/simulink/cFS_FreeRTOS_seL4/cfe/fsw/cfe-core/src/inc/cfe_es.h **** **  Major revision to make semaphore use in memory pool creation optional.
  39:/home/simulink/cFS_FreeRTOS_seL4/cfe/fsw/cfe-core/src/inc/cfe_es.h **** **  Revision 1.9 2009/07/29 15:54:46EDT aschoeni 
  40:/home/simulink/cFS_FreeRTOS_seL4/cfe/fsw/cfe-core/src/inc/cfe_es.h **** **  Added GetPoolBufInfo function to return size or invalidity of a buffer in a pool
  41:/home/simulink/cFS_FreeRTOS_seL4/cfe/fsw/cfe-core/src/inc/cfe_es.h **** **  Revision 1.8 2008/12/08 16:10:54EST dkobe 
  42:/home/simulink/cFS_FreeRTOS_seL4/cfe/fsw/cfe-core/src/inc/cfe_es.h **** **  Correcting errors generated during detailed design document generation
  43:/home/simulink/cFS_FreeRTOS_seL4/cfe/fsw/cfe-core/src/inc/cfe_es.h **** **  Revision 1.7 2008/12/08 12:07:09EST dkobe 
  44:/home/simulink/cFS_FreeRTOS_seL4/cfe/fsw/cfe-core/src/inc/cfe_es.h **** **  Updates to correct doxygen errors
  45:/home/simulink/cFS_FreeRTOS_seL4/cfe/fsw/cfe-core/src/inc/cfe_es.h **** **  Revision 1.6 2008/07/31 15:41:31EDT apcudmore 
  46:/home/simulink/cFS_FreeRTOS_seL4/cfe/fsw/cfe-core/src/inc/cfe_es.h **** **  Added execution counter API:
  47:/home/simulink/cFS_FreeRTOS_seL4/cfe/fsw/cfe-core/src/inc/cfe_es.h **** **    -- Added execution counter to ES internal task data
68K GAS   			page 2


  48:/home/simulink/cFS_FreeRTOS_seL4/cfe/fsw/cfe-core/src/inc/cfe_es.h **** **    -- Added code to increment counter in RunLoop
  49:/home/simulink/cFS_FreeRTOS_seL4/cfe/fsw/cfe-core/src/inc/cfe_es.h **** **    -- Added code to report counter in GetInfo APIs
  50:/home/simulink/cFS_FreeRTOS_seL4/cfe/fsw/cfe-core/src/inc/cfe_es.h **** **    -- Added API to increment counter for child tasks
  51:/home/simulink/cFS_FreeRTOS_seL4/cfe/fsw/cfe-core/src/inc/cfe_es.h **** **    -- Added code to cFE Core apps to increment counters.
  52:/home/simulink/cFS_FreeRTOS_seL4/cfe/fsw/cfe-core/src/inc/cfe_es.h **** **  Revision 1.5 2008/07/30 14:53:57EDT apcudmore 
  53:/home/simulink/cFS_FreeRTOS_seL4/cfe/fsw/cfe-core/src/inc/cfe_es.h **** **  Added CFE_ES_WaitForStartupSync API
  54:/home/simulink/cFS_FreeRTOS_seL4/cfe/fsw/cfe-core/src/inc/cfe_es.h **** **  Revision 1.4 2008/07/08 12:35:28EDT apcudmore 
  55:/home/simulink/cFS_FreeRTOS_seL4/cfe/fsw/cfe-core/src/inc/cfe_es.h **** **  Added an "AddressesAreValid" flag to the ES App Info structure.
  56:/home/simulink/cFS_FreeRTOS_seL4/cfe/fsw/cfe-core/src/inc/cfe_es.h **** **  Revision 1.3 2008/06/26 15:41:51EDT apcudmore 
  57:/home/simulink/cFS_FreeRTOS_seL4/cfe/fsw/cfe-core/src/inc/cfe_es.h **** **  Added public CFE_ES_GetAppInfo API.
  58:/home/simulink/cFS_FreeRTOS_seL4/cfe/fsw/cfe-core/src/inc/cfe_es.h **** **  Moved the old API to CFE_ES_GetAppInfoInternal
  59:/home/simulink/cFS_FreeRTOS_seL4/cfe/fsw/cfe-core/src/inc/cfe_es.h **** **  -- May merge these two in the near future.
  60:/home/simulink/cFS_FreeRTOS_seL4/cfe/fsw/cfe-core/src/inc/cfe_es.h **** **  Revision 1.2 2008/06/20 15:40:27EDT apcudmore 
  61:/home/simulink/cFS_FreeRTOS_seL4/cfe/fsw/cfe-core/src/inc/cfe_es.h **** **  Added support for OSAL based module loader
  62:/home/simulink/cFS_FreeRTOS_seL4/cfe/fsw/cfe-core/src/inc/cfe_es.h **** **   - Removed calls and references to the BSP based module loader
  63:/home/simulink/cFS_FreeRTOS_seL4/cfe/fsw/cfe-core/src/inc/cfe_es.h **** **  Revision 1.1 2008/04/17 08:05:19EDT ruperera 
  64:/home/simulink/cFS_FreeRTOS_seL4/cfe/fsw/cfe-core/src/inc/cfe_es.h **** **  Initial revision
  65:/home/simulink/cFS_FreeRTOS_seL4/cfe/fsw/cfe-core/src/inc/cfe_es.h **** **  Member added to project c:/MKSDATA/MKS-REPOSITORY/MKS-CFE-PROJECT/fsw/cfe-core/src/inc/project.
  66:/home/simulink/cFS_FreeRTOS_seL4/cfe/fsw/cfe-core/src/inc/cfe_es.h **** **  Revision 1.58 2007/09/27 15:54:56EDT David Kobe (dlkobe) 
  67:/home/simulink/cFS_FreeRTOS_seL4/cfe/fsw/cfe-core/src/inc/cfe_es.h **** **  Added doxygen comments for commands and telemetry
  68:/home/simulink/cFS_FreeRTOS_seL4/cfe/fsw/cfe-core/src/inc/cfe_es.h **** **  Revision 1.57 2007/09/25 10:24:05EDT apcudmore 
  69:/home/simulink/cFS_FreeRTOS_seL4/cfe/fsw/cfe-core/src/inc/cfe_es.h **** **  Implement Application Restart on Exception:
  70:/home/simulink/cFS_FreeRTOS_seL4/cfe/fsw/cfe-core/src/inc/cfe_es.h **** **  - Added logic to Exception Handler
  71:/home/simulink/cFS_FreeRTOS_seL4/cfe/fsw/cfe-core/src/inc/cfe_es.h **** **  - Changed Exception Hook to pass host task ID
  72:/home/simulink/cFS_FreeRTOS_seL4/cfe/fsw/cfe-core/src/inc/cfe_es.h **** **  - Added App Reset ER Log entry type
  73:/home/simulink/cFS_FreeRTOS_seL4/cfe/fsw/cfe-core/src/inc/cfe_es.h **** **  Revision 1.56 2007/09/21 15:40:15EDT David Kobe (dlkobe) 
  74:/home/simulink/cFS_FreeRTOS_seL4/cfe/fsw/cfe-core/src/inc/cfe_es.h **** **  Modified pointer type definitions to eliminate Linux gcc compile warnings
  75:/home/simulink/cFS_FreeRTOS_seL4/cfe/fsw/cfe-core/src/inc/cfe_es.h **** **  Revision 1.55 2007/09/20 10:52:57EDT apcudmore 
  76:/home/simulink/cFS_FreeRTOS_seL4/cfe/fsw/cfe-core/src/inc/cfe_es.h **** **  Added Query All Tasks command, file definition, events, error codes etc.
  77:/home/simulink/cFS_FreeRTOS_seL4/cfe/fsw/cfe-core/src/inc/cfe_es.h **** **  Revision 1.54 2007/09/12 16:06:09EDT David Kobe (dlkobe) 
  78:/home/simulink/cFS_FreeRTOS_seL4/cfe/fsw/cfe-core/src/inc/cfe_es.h **** **  Moved the definitions of CFE_ES_CRC_xx to the cfe_mission_cfg.h file and deleted TBL Services
  79:/home/simulink/cFS_FreeRTOS_seL4/cfe/fsw/cfe-core/src/inc/cfe_es.h **** **  CRC #define statement.
  80:/home/simulink/cFS_FreeRTOS_seL4/cfe/fsw/cfe-core/src/inc/cfe_es.h **** **  Revision 1.53 2007/08/31 14:11:05EDT apcudmore 
  81:/home/simulink/cFS_FreeRTOS_seL4/cfe/fsw/cfe-core/src/inc/cfe_es.h **** **  Updated reset subtypes ( trunk )
  82:/home/simulink/cFS_FreeRTOS_seL4/cfe/fsw/cfe-core/src/inc/cfe_es.h **** **  Revision 1.52 2007/08/07 12:52:40EDT dlkobe 
  83:/home/simulink/cFS_FreeRTOS_seL4/cfe/fsw/cfe-core/src/inc/cfe_es.h **** **  Modified CFE_ES_GetPoolBuf API's first parameter to be of type uint32**
  84:/home/simulink/cFS_FreeRTOS_seL4/cfe/fsw/cfe-core/src/inc/cfe_es.h **** **  Revision 1.51 2007/05/25 16:24:48EDT dlkobe 
  85:/home/simulink/cFS_FreeRTOS_seL4/cfe/fsw/cfe-core/src/inc/cfe_es.h **** **  Continued updating doxygen comments
  86:/home/simulink/cFS_FreeRTOS_seL4/cfe/fsw/cfe-core/src/inc/cfe_es.h **** **  Revision 1.50 2007/05/23 11:21:23EDT dlkobe 
  87:/home/simulink/cFS_FreeRTOS_seL4/cfe/fsw/cfe-core/src/inc/cfe_es.h **** **  Added doxygen formatting
  88:/home/simulink/cFS_FreeRTOS_seL4/cfe/fsw/cfe-core/src/inc/cfe_es.h **** **  Revision 1.49 2007/05/22 14:56:49EDT apcudmore 
  89:/home/simulink/cFS_FreeRTOS_seL4/cfe/fsw/cfe-core/src/inc/cfe_es.h **** **  cFE Non-Volatile Disk/Startup File changes:
  90:/home/simulink/cFS_FreeRTOS_seL4/cfe/fsw/cfe-core/src/inc/cfe_es.h **** **    - cFE startup now passes in startup file path/name
  91:/home/simulink/cFS_FreeRTOS_seL4/cfe/fsw/cfe-core/src/inc/cfe_es.h **** **    - cFE startup code does not init non-volatile disk ( BSP does )
  92:/home/simulink/cFS_FreeRTOS_seL4/cfe/fsw/cfe-core/src/inc/cfe_es.h **** **    - BSPs now can map cFE paths without making the OS_initfs/OS_mount calls
  93:/home/simulink/cFS_FreeRTOS_seL4/cfe/fsw/cfe-core/src/inc/cfe_es.h **** **    - MCP750 vxWorks6.2 BSP inits/mounts CF disk
  94:/home/simulink/cFS_FreeRTOS_seL4/cfe/fsw/cfe-core/src/inc/cfe_es.h **** **    - Desktop ports pass in the same startup file path/name as before
  95:/home/simulink/cFS_FreeRTOS_seL4/cfe/fsw/cfe-core/src/inc/cfe_es.h **** **  Revision 1.48 2007/05/14 15:43:45EDT apcudmore 
  96:/home/simulink/cFS_FreeRTOS_seL4/cfe/fsw/cfe-core/src/inc/cfe_es.h **** **  Cleaned up events and disabled debug code for application restart.
  97:/home/simulink/cFS_FreeRTOS_seL4/cfe/fsw/cfe-core/src/inc/cfe_es.h **** **  Revision 1.47 2007/05/09 12:42:13EDT dlkobe 
  98:/home/simulink/cFS_FreeRTOS_seL4/cfe/fsw/cfe-core/src/inc/cfe_es.h **** **  Added structure for Dump CDS Registry Record format
  99:/home/simulink/cFS_FreeRTOS_seL4/cfe/fsw/cfe-core/src/inc/cfe_es.h **** **  Revision 1.46 2007/05/04 20:07:51EDT dlkobe 
 100:/home/simulink/cFS_FreeRTOS_seL4/cfe/fsw/cfe-core/src/inc/cfe_es.h **** **  Added command to telemeter memory pool statistics
 101:/home/simulink/cFS_FreeRTOS_seL4/cfe/fsw/cfe-core/src/inc/cfe_es.h **** **  Revision 1.45 2007/04/12 10:37:18EDT apcudmore 
 102:/home/simulink/cFS_FreeRTOS_seL4/cfe/fsw/cfe-core/src/inc/cfe_es.h **** **  Added support for ES task to call CFE_ES_ExitApp on initialization and runtime failure.
 103:/home/simulink/cFS_FreeRTOS_seL4/cfe/fsw/cfe-core/src/inc/cfe_es.h **** **  Revision 1.44 2007/04/10 11:39:19EDT rjmcgraw 
 104:/home/simulink/cFS_FreeRTOS_seL4/cfe/fsw/cfe-core/src/inc/cfe_es.h **** **  Added function prototype CFE_ES_PerfLogAdd
68K GAS   			page 3


 105:/home/simulink/cFS_FreeRTOS_seL4/cfe/fsw/cfe-core/src/inc/cfe_es.h **** **  Revision 1.43 2007/04/10 11:29:10EDT rjmcgraw 
 106:/home/simulink/cFS_FreeRTOS_seL4/cfe/fsw/cfe-core/src/inc/cfe_es.h **** **  Changed perf entry and exit routines to macros
 107:/home/simulink/cFS_FreeRTOS_seL4/cfe/fsw/cfe-core/src/inc/cfe_es.h **** **  Revision 1.42 2007/04/09 15:12:03EDT dlkobe 
 108:/home/simulink/cFS_FreeRTOS_seL4/cfe/fsw/cfe-core/src/inc/cfe_es.h **** **  Modified 'Name' parameter to be a const pointer
 109:/home/simulink/cFS_FreeRTOS_seL4/cfe/fsw/cfe-core/src/inc/cfe_es.h **** **  Revision 1.41 2007/04/05 16:16:03EDT apcudmore 
 110:/home/simulink/cFS_FreeRTOS_seL4/cfe/fsw/cfe-core/src/inc/cfe_es.h **** **  Added CFE_ES_DeleteChildTask and CFE_ES_ExitChildTask along with headers,
 111:/home/simulink/cFS_FreeRTOS_seL4/cfe/fsw/cfe-core/src/inc/cfe_es.h **** **  and associated Error codes.
 112:/home/simulink/cFS_FreeRTOS_seL4/cfe/fsw/cfe-core/src/inc/cfe_es.h **** **  Revision 1.39 2007/04/03 16:49:24EDT apcudmore 
 113:/home/simulink/cFS_FreeRTOS_seL4/cfe/fsw/cfe-core/src/inc/cfe_es.h **** **  Moved all command code defines, command , and telemetry definitions to cfe_es_msg.h
 114:/home/simulink/cFS_FreeRTOS_seL4/cfe/fsw/cfe-core/src/inc/cfe_es.h **** **  Revision 1.38 2007/04/02 10:57:45EDT rjmcgraw 
 115:/home/simulink/cFS_FreeRTOS_seL4/cfe/fsw/cfe-core/src/inc/cfe_es.h **** **  Moved BIT macros from perf.h to cfe_es.h
 116:/home/simulink/cFS_FreeRTOS_seL4/cfe/fsw/cfe-core/src/inc/cfe_es.h **** **  Revision 1.37 2007/03/29 15:49:08EST rjmcgraw 
 117:/home/simulink/cFS_FreeRTOS_seL4/cfe/fsw/cfe-core/src/inc/cfe_es.h **** **  Changed name of performance cmd codes
 118:/home/simulink/cFS_FreeRTOS_seL4/cfe/fsw/cfe-core/src/inc/cfe_es.h **** **  Revision 1.36 2007/03/29 15:22:34EST rjmcgraw 
 119:/home/simulink/cFS_FreeRTOS_seL4/cfe/fsw/cfe-core/src/inc/cfe_es.h **** **  Changed #define names for Logic Analyzer Cmd Codes
 120:/home/simulink/cFS_FreeRTOS_seL4/cfe/fsw/cfe-core/src/inc/cfe_es.h **** **
 121:/home/simulink/cFS_FreeRTOS_seL4/cfe/fsw/cfe-core/src/inc/cfe_es.h **** */
 122:/home/simulink/cFS_FreeRTOS_seL4/cfe/fsw/cfe-core/src/inc/cfe_es.h **** 
 123:/home/simulink/cFS_FreeRTOS_seL4/cfe/fsw/cfe-core/src/inc/cfe_es.h **** #ifndef _cfe_es_
 124:/home/simulink/cFS_FreeRTOS_seL4/cfe/fsw/cfe-core/src/inc/cfe_es.h **** #define _cfe_es_
 125:/home/simulink/cFS_FreeRTOS_seL4/cfe/fsw/cfe-core/src/inc/cfe_es.h **** 
 126:/home/simulink/cFS_FreeRTOS_seL4/cfe/fsw/cfe-core/src/inc/cfe_es.h **** /*
 127:/home/simulink/cFS_FreeRTOS_seL4/cfe/fsw/cfe-core/src/inc/cfe_es.h **** ** Includes 
 128:/home/simulink/cFS_FreeRTOS_seL4/cfe/fsw/cfe-core/src/inc/cfe_es.h **** */
 129:/home/simulink/cFS_FreeRTOS_seL4/cfe/fsw/cfe-core/src/inc/cfe_es.h **** #include "cfe_mission_cfg.h"
 130:/home/simulink/cFS_FreeRTOS_seL4/cfe/fsw/cfe-core/src/inc/cfe_es.h **** #include "cfe_es_perfids.h"
 131:/home/simulink/cFS_FreeRTOS_seL4/cfe/fsw/cfe-core/src/inc/cfe_es.h **** 
 132:/home/simulink/cFS_FreeRTOS_seL4/cfe/fsw/cfe-core/src/inc/cfe_es.h **** /*****************************************************************************/
 133:/home/simulink/cFS_FreeRTOS_seL4/cfe/fsw/cfe-core/src/inc/cfe_es.h **** 
 134:/home/simulink/cFS_FreeRTOS_seL4/cfe/fsw/cfe-core/src/inc/cfe_es.h **** /*
 135:/home/simulink/cFS_FreeRTOS_seL4/cfe/fsw/cfe-core/src/inc/cfe_es.h **** ** Macro Definitions
 136:/home/simulink/cFS_FreeRTOS_seL4/cfe/fsw/cfe-core/src/inc/cfe_es.h **** */
 137:/home/simulink/cFS_FreeRTOS_seL4/cfe/fsw/cfe-core/src/inc/cfe_es.h **** 
 138:/home/simulink/cFS_FreeRTOS_seL4/cfe/fsw/cfe-core/src/inc/cfe_es.h **** /* 
 139:/home/simulink/cFS_FreeRTOS_seL4/cfe/fsw/cfe-core/src/inc/cfe_es.h **** ** The OS_PRINTF macro may be defined by OSAL to enable
 140:/home/simulink/cFS_FreeRTOS_seL4/cfe/fsw/cfe-core/src/inc/cfe_es.h **** ** printf-style argument checking.  If using a version of OSAL
 141:/home/simulink/cFS_FreeRTOS_seL4/cfe/fsw/cfe-core/src/inc/cfe_es.h **** ** that does not define this then define it as a no-op.
 142:/home/simulink/cFS_FreeRTOS_seL4/cfe/fsw/cfe-core/src/inc/cfe_es.h **** */
 143:/home/simulink/cFS_FreeRTOS_seL4/cfe/fsw/cfe-core/src/inc/cfe_es.h **** #ifndef OS_PRINTF
 144:/home/simulink/cFS_FreeRTOS_seL4/cfe/fsw/cfe-core/src/inc/cfe_es.h **** #define OS_PRINTF(m,n)
 145:/home/simulink/cFS_FreeRTOS_seL4/cfe/fsw/cfe-core/src/inc/cfe_es.h **** #endif
 146:/home/simulink/cFS_FreeRTOS_seL4/cfe/fsw/cfe-core/src/inc/cfe_es.h **** 
 147:/home/simulink/cFS_FreeRTOS_seL4/cfe/fsw/cfe-core/src/inc/cfe_es.h **** #define CFE_ES_DBIT(x) (1L << (x))                                    /* Places a one at bit positi
 148:/home/simulink/cFS_FreeRTOS_seL4/cfe/fsw/cfe-core/src/inc/cfe_es.h **** #define CFE_ES_DTEST(i,x) (((i) & CFE_ES_DBIT(x)) != 0)               /* TRUE iff bit x of i is set
 149:/home/simulink/cFS_FreeRTOS_seL4/cfe/fsw/cfe-core/src/inc/cfe_es.h **** #define CFE_ES_TEST_LONG_MASK(m,s)  (CFE_ES_DTEST(m[(s)/32],(s)%32))  /* Test a bit within an array
 150:/home/simulink/cFS_FreeRTOS_seL4/cfe/fsw/cfe-core/src/inc/cfe_es.h **** #define CFE_ES_MAX_MEMPOOL_BLOCK_SIZES     17    /**< Max number of size divisions allowed in a mem
 151:/home/simulink/cFS_FreeRTOS_seL4/cfe/fsw/cfe-core/src/inc/cfe_es.h **** 
 152:/home/simulink/cFS_FreeRTOS_seL4/cfe/fsw/cfe-core/src/inc/cfe_es.h **** /*
 153:/home/simulink/cFS_FreeRTOS_seL4/cfe/fsw/cfe-core/src/inc/cfe_es.h **** ** Note about reset type and subtypes:
 154:/home/simulink/cFS_FreeRTOS_seL4/cfe/fsw/cfe-core/src/inc/cfe_es.h **** **
 155:/home/simulink/cFS_FreeRTOS_seL4/cfe/fsw/cfe-core/src/inc/cfe_es.h **** ** These values come from the PSP so the actual definition of these enumerations
 156:/home/simulink/cFS_FreeRTOS_seL4/cfe/fsw/cfe-core/src/inc/cfe_es.h **** ** was moved to the PSP header file <cfe_psp.h>.
 157:/home/simulink/cFS_FreeRTOS_seL4/cfe/fsw/cfe-core/src/inc/cfe_es.h **** **
 158:/home/simulink/cFS_FreeRTOS_seL4/cfe/fsw/cfe-core/src/inc/cfe_es.h **** ** In the future the Electronic Data sheets (EDS) for PSP/ES
 159:/home/simulink/cFS_FreeRTOS_seL4/cfe/fsw/cfe-core/src/inc/cfe_es.h **** ** will define the exact values to use in telemetry messages.
 160:/home/simulink/cFS_FreeRTOS_seL4/cfe/fsw/cfe-core/src/inc/cfe_es.h **** */
 161:/home/simulink/cFS_FreeRTOS_seL4/cfe/fsw/cfe-core/src/inc/cfe_es.h **** 
68K GAS   			page 4


 162:/home/simulink/cFS_FreeRTOS_seL4/cfe/fsw/cfe-core/src/inc/cfe_es.h **** /*
 163:/home/simulink/cFS_FreeRTOS_seL4/cfe/fsw/cfe-core/src/inc/cfe_es.h **** **  Reset types
 164:/home/simulink/cFS_FreeRTOS_seL4/cfe/fsw/cfe-core/src/inc/cfe_es.h **** */
 165:/home/simulink/cFS_FreeRTOS_seL4/cfe/fsw/cfe-core/src/inc/cfe_es.h **** /** \name Reset Type extensions */
 166:/home/simulink/cFS_FreeRTOS_seL4/cfe/fsw/cfe-core/src/inc/cfe_es.h **** /** \{ */
 167:/home/simulink/cFS_FreeRTOS_seL4/cfe/fsw/cfe-core/src/inc/cfe_es.h **** #define CFE_ES_APP_RESTART       CFE_PSP_RST_TYPE_MAX       /**< Application only was reset (extend
 168:/home/simulink/cFS_FreeRTOS_seL4/cfe/fsw/cfe-core/src/inc/cfe_es.h **** /** \} */
 169:/home/simulink/cFS_FreeRTOS_seL4/cfe/fsw/cfe-core/src/inc/cfe_es.h **** 
 170:/home/simulink/cFS_FreeRTOS_seL4/cfe/fsw/cfe-core/src/inc/cfe_es.h **** 
 171:/home/simulink/cFS_FreeRTOS_seL4/cfe/fsw/cfe-core/src/inc/cfe_es.h **** /** \name Critical Data Store Macros */
 172:/home/simulink/cFS_FreeRTOS_seL4/cfe/fsw/cfe-core/src/inc/cfe_es.h **** /** \{ */
 173:/home/simulink/cFS_FreeRTOS_seL4/cfe/fsw/cfe-core/src/inc/cfe_es.h **** /** Maximum length allowed for CDS name. <BR>
 174:/home/simulink/cFS_FreeRTOS_seL4/cfe/fsw/cfe-core/src/inc/cfe_es.h **** ** NOTE: "+2" is for NULL Character and "." (i.e. - "AppName.CDSName") */
 175:/home/simulink/cFS_FreeRTOS_seL4/cfe/fsw/cfe-core/src/inc/cfe_es.h **** #define CFE_ES_CDS_MAX_FULL_NAME_LEN (CFE_ES_CDS_MAX_NAME_LENGTH + OS_MAX_API_NAME + 2)
 176:/home/simulink/cFS_FreeRTOS_seL4/cfe/fsw/cfe-core/src/inc/cfe_es.h **** 
 177:/home/simulink/cFS_FreeRTOS_seL4/cfe/fsw/cfe-core/src/inc/cfe_es.h **** #define CFE_ES_CDS_BAD_HANDLE  (CFE_ES_CDSHandle_t) 0xFFFF
 178:/home/simulink/cFS_FreeRTOS_seL4/cfe/fsw/cfe-core/src/inc/cfe_es.h **** /** \} */
 179:/home/simulink/cFS_FreeRTOS_seL4/cfe/fsw/cfe-core/src/inc/cfe_es.h **** 
 180:/home/simulink/cFS_FreeRTOS_seL4/cfe/fsw/cfe-core/src/inc/cfe_es.h **** /*
 181:/home/simulink/cFS_FreeRTOS_seL4/cfe/fsw/cfe-core/src/inc/cfe_es.h **** ** ES Run Status and Exit Status defines
 182:/home/simulink/cFS_FreeRTOS_seL4/cfe/fsw/cfe-core/src/inc/cfe_es.h **** */
 183:/home/simulink/cFS_FreeRTOS_seL4/cfe/fsw/cfe-core/src/inc/cfe_es.h **** /** \name Run Status and Exit Status identifiers */
 184:/home/simulink/cFS_FreeRTOS_seL4/cfe/fsw/cfe-core/src/inc/cfe_es.h **** /** \{ */
 185:/home/simulink/cFS_FreeRTOS_seL4/cfe/fsw/cfe-core/src/inc/cfe_es.h **** #define CFE_ES_RUNSTATUS_APP_RUN                  1   /**< \brief Indicates that the Application sh
 186:/home/simulink/cFS_FreeRTOS_seL4/cfe/fsw/cfe-core/src/inc/cfe_es.h **** #define CFE_ES_RUNSTATUS_APP_EXIT                 2  /**< \brief Indicates that the Application wan
 187:/home/simulink/cFS_FreeRTOS_seL4/cfe/fsw/cfe-core/src/inc/cfe_es.h **** #define CFE_ES_RUNSTATUS_APP_ERROR                3  /**< \brief Indicates that the Application is 
 188:/home/simulink/cFS_FreeRTOS_seL4/cfe/fsw/cfe-core/src/inc/cfe_es.h **** #define CFE_ES_RUNSTATUS_SYS_EXCEPTION            4  /**< \brief The cFE App caused an exception */
 189:/home/simulink/cFS_FreeRTOS_seL4/cfe/fsw/cfe-core/src/inc/cfe_es.h **** #define CFE_ES_RUNSTATUS_SYS_RESTART              5  /**< \brief The system is requesting a restart
 190:/home/simulink/cFS_FreeRTOS_seL4/cfe/fsw/cfe-core/src/inc/cfe_es.h **** #define CFE_ES_RUNSTATUS_SYS_RELOAD               6  /**< \brief The system is requesting a reload 
 191:/home/simulink/cFS_FreeRTOS_seL4/cfe/fsw/cfe-core/src/inc/cfe_es.h **** #define CFE_ES_RUNSTATUS_SYS_DELETE               7  /**< \brief The system is requesting that the 
 192:/home/simulink/cFS_FreeRTOS_seL4/cfe/fsw/cfe-core/src/inc/cfe_es.h **** #define CFE_ES_RUNSTATUS_CORE_APP_INIT_ERROR      8 /**< \brief Indicates that the Core Application
 193:/home/simulink/cFS_FreeRTOS_seL4/cfe/fsw/cfe-core/src/inc/cfe_es.h **** #define CFE_ES_RUNSTATUS_CORE_APP_RUNTIME_ERROR   9 /**< \brief Indicates that the Core Application
 194:/home/simulink/cFS_FreeRTOS_seL4/cfe/fsw/cfe-core/src/inc/cfe_es.h **** /** \} */
 195:/home/simulink/cFS_FreeRTOS_seL4/cfe/fsw/cfe-core/src/inc/cfe_es.h **** 
 196:/home/simulink/cFS_FreeRTOS_seL4/cfe/fsw/cfe-core/src/inc/cfe_es.h **** #define CFE_ES_APP_KILL_TIMEOUT         5 /**< \brief Number of cycles that ES will wait before kil
 197:/home/simulink/cFS_FreeRTOS_seL4/cfe/fsw/cfe-core/src/inc/cfe_es.h **** 
 198:/home/simulink/cFS_FreeRTOS_seL4/cfe/fsw/cfe-core/src/inc/cfe_es.h **** #define CFE_ES_NO_MUTEX                 0 /**< \brief Indicates that the memory pool selection will
 199:/home/simulink/cFS_FreeRTOS_seL4/cfe/fsw/cfe-core/src/inc/cfe_es.h **** #define CFE_ES_USE_MUTEX                1 /**< \brief Indicates that the memory pool selection will
 200:/home/simulink/cFS_FreeRTOS_seL4/cfe/fsw/cfe-core/src/inc/cfe_es.h **** 
 201:/home/simulink/cFS_FreeRTOS_seL4/cfe/fsw/cfe-core/src/inc/cfe_es.h **** /*
 202:/home/simulink/cFS_FreeRTOS_seL4/cfe/fsw/cfe-core/src/inc/cfe_es.h **** ** System Log Defines
 203:/home/simulink/cFS_FreeRTOS_seL4/cfe/fsw/cfe-core/src/inc/cfe_es.h **** */
 204:/home/simulink/cFS_FreeRTOS_seL4/cfe/fsw/cfe-core/src/inc/cfe_es.h **** /* "+1" is for the space between the timestamp and the message in the system log */
 205:/home/simulink/cFS_FreeRTOS_seL4/cfe/fsw/cfe-core/src/inc/cfe_es.h **** #define CFE_ES_MAX_SYSLOG_MSG_SIZE (CFE_EVS_MAX_MESSAGE_LENGTH + CFE_TIME_PRINTED_STRING_SIZE + 1)
 206:/home/simulink/cFS_FreeRTOS_seL4/cfe/fsw/cfe-core/src/inc/cfe_es.h **** 
 207:/home/simulink/cFS_FreeRTOS_seL4/cfe/fsw/cfe-core/src/inc/cfe_es.h **** 
 208:/home/simulink/cFS_FreeRTOS_seL4/cfe/fsw/cfe-core/src/inc/cfe_es.h **** /*
 209:/home/simulink/cFS_FreeRTOS_seL4/cfe/fsw/cfe-core/src/inc/cfe_es.h ****  * To preserve source-code compatibility with existing code,
 210:/home/simulink/cFS_FreeRTOS_seL4/cfe/fsw/cfe-core/src/inc/cfe_es.h ****  * this allows the old enum names to still work.  This should
 211:/home/simulink/cFS_FreeRTOS_seL4/cfe/fsw/cfe-core/src/inc/cfe_es.h ****  * be turned off after the new names are established.
 212:/home/simulink/cFS_FreeRTOS_seL4/cfe/fsw/cfe-core/src/inc/cfe_es.h ****  *  (sed -i -e 's/<old-name>/<new-name>/g' should take care of it)
 213:/home/simulink/cFS_FreeRTOS_seL4/cfe/fsw/cfe-core/src/inc/cfe_es.h ****  *
 214:/home/simulink/cFS_FreeRTOS_seL4/cfe/fsw/cfe-core/src/inc/cfe_es.h ****  * Note about why this is a good idea to do --
 215:/home/simulink/cFS_FreeRTOS_seL4/cfe/fsw/cfe-core/src/inc/cfe_es.h ****  * In the list below there are two values with similar names:
 216:/home/simulink/cFS_FreeRTOS_seL4/cfe/fsw/cfe-core/src/inc/cfe_es.h ****  *   CFE_ES_EXCEPTION, CFE_ES_SYS_EXCEPTION
 217:/home/simulink/cFS_FreeRTOS_seL4/cfe/fsw/cfe-core/src/inc/cfe_es.h ****  *
 218:/home/simulink/cFS_FreeRTOS_seL4/cfe/fsw/cfe-core/src/inc/cfe_es.h ****  * But these map to different values for two different purposes,
68K GAS   			page 5


 219:/home/simulink/cFS_FreeRTOS_seL4/cfe/fsw/cfe-core/src/inc/cfe_es.h ****  * one is a app status and the other is a reset subtype.  Using the
 220:/home/simulink/cFS_FreeRTOS_seL4/cfe/fsw/cfe-core/src/inc/cfe_es.h ****  * new names makes it much clearer as to which is which, will
 221:/home/simulink/cFS_FreeRTOS_seL4/cfe/fsw/cfe-core/src/inc/cfe_es.h ****  * greatly reduce the chance of getting them mixed up, and make it
 222:/home/simulink/cFS_FreeRTOS_seL4/cfe/fsw/cfe-core/src/inc/cfe_es.h ****  * much more obvious to a code reviewer if the ARE mixed up somewhere.
 223:/home/simulink/cFS_FreeRTOS_seL4/cfe/fsw/cfe-core/src/inc/cfe_es.h ****  */
 224:/home/simulink/cFS_FreeRTOS_seL4/cfe/fsw/cfe-core/src/inc/cfe_es.h **** #ifndef CFE_ES_ENABLE_NEW_ENUM_NAMES
 225:/home/simulink/cFS_FreeRTOS_seL4/cfe/fsw/cfe-core/src/inc/cfe_es.h **** 
 226:/home/simulink/cFS_FreeRTOS_seL4/cfe/fsw/cfe-core/src/inc/cfe_es.h **** #define CFE_ES_PROCESSOR_RESET            CFE_PSP_RST_TYPE_PROCESSOR
 227:/home/simulink/cFS_FreeRTOS_seL4/cfe/fsw/cfe-core/src/inc/cfe_es.h **** #define CFE_ES_POWERON_RESET              CFE_PSP_RST_TYPE_POWERON
 228:/home/simulink/cFS_FreeRTOS_seL4/cfe/fsw/cfe-core/src/inc/cfe_es.h **** 
 229:/home/simulink/cFS_FreeRTOS_seL4/cfe/fsw/cfe-core/src/inc/cfe_es.h **** #define CFE_ES_POWER_CYCLE                CFE_PSP_RST_SUBTYPE_POWER_CYCLE
 230:/home/simulink/cFS_FreeRTOS_seL4/cfe/fsw/cfe-core/src/inc/cfe_es.h **** #define CFE_ES_PUSH_BUTTON                CFE_PSP_RST_SUBTYPE_PUSH_BUTTON
 231:/home/simulink/cFS_FreeRTOS_seL4/cfe/fsw/cfe-core/src/inc/cfe_es.h **** #define CFE_ES_HW_SPECIAL_COMMAND         CFE_PSP_RST_SUBTYPE_HW_SPECIAL_COMMAND
 232:/home/simulink/cFS_FreeRTOS_seL4/cfe/fsw/cfe-core/src/inc/cfe_es.h **** #define CFE_ES_HW_WATCHDOG                CFE_PSP_RST_SUBTYPE_HW_WATCHDOG
 233:/home/simulink/cFS_FreeRTOS_seL4/cfe/fsw/cfe-core/src/inc/cfe_es.h **** #define CFE_ES_RESET_COMMAND              CFE_PSP_RST_SUBTYPE_RESET_COMMAND
 234:/home/simulink/cFS_FreeRTOS_seL4/cfe/fsw/cfe-core/src/inc/cfe_es.h **** #define CFE_ES_EXCEPTION                  CFE_PSP_RST_SUBTYPE_EXCEPTION
 235:/home/simulink/cFS_FreeRTOS_seL4/cfe/fsw/cfe-core/src/inc/cfe_es.h **** #define CFE_ES_UNDEFINED_RESET            CFE_PSP_RST_SUBTYPE_UNDEFINED_RESET
 236:/home/simulink/cFS_FreeRTOS_seL4/cfe/fsw/cfe-core/src/inc/cfe_es.h **** #define CFE_ES_HWDEBUG_RESET              CFE_PSP_RST_SUBTYPE_HWDEBUG_RESET
 237:/home/simulink/cFS_FreeRTOS_seL4/cfe/fsw/cfe-core/src/inc/cfe_es.h **** #define CFE_ES_BANKSWITCH_RESET           CFE_PSP_RST_SUBTYPE_BANKSWITCH_RESET
 238:/home/simulink/cFS_FreeRTOS_seL4/cfe/fsw/cfe-core/src/inc/cfe_es.h **** 
 239:/home/simulink/cFS_FreeRTOS_seL4/cfe/fsw/cfe-core/src/inc/cfe_es.h **** #define CFE_ES_APP_RUN                    CFE_ES_RUNSTATUS_APP_RUN
 240:/home/simulink/cFS_FreeRTOS_seL4/cfe/fsw/cfe-core/src/inc/cfe_es.h **** #define CFE_ES_APP_EXIT                   CFE_ES_RUNSTATUS_APP_EXIT
 241:/home/simulink/cFS_FreeRTOS_seL4/cfe/fsw/cfe-core/src/inc/cfe_es.h **** #define CFE_ES_APP_ERROR                  CFE_ES_RUNSTATUS_APP_ERROR
 242:/home/simulink/cFS_FreeRTOS_seL4/cfe/fsw/cfe-core/src/inc/cfe_es.h **** #define CFE_ES_SYS_EXCEPTION              CFE_ES_RUNSTATUS_SYS_EXCEPTION
 243:/home/simulink/cFS_FreeRTOS_seL4/cfe/fsw/cfe-core/src/inc/cfe_es.h **** #define CFE_ES_SYS_RESTART                CFE_ES_RUNSTATUS_SYS_RESTART
 244:/home/simulink/cFS_FreeRTOS_seL4/cfe/fsw/cfe-core/src/inc/cfe_es.h **** #define CFE_ES_SYS_RELOAD                 CFE_ES_RUNSTATUS_SYS_RELOAD
 245:/home/simulink/cFS_FreeRTOS_seL4/cfe/fsw/cfe-core/src/inc/cfe_es.h **** #define CFE_ES_SYS_DELETE                 CFE_ES_RUNSTATUS_SYS_DELETE
 246:/home/simulink/cFS_FreeRTOS_seL4/cfe/fsw/cfe-core/src/inc/cfe_es.h **** #define CFE_ES_CORE_APP_INIT_ERROR        CFE_ES_RUNSTATUS_CORE_APP_INIT_ERROR
 247:/home/simulink/cFS_FreeRTOS_seL4/cfe/fsw/cfe-core/src/inc/cfe_es.h **** #define CFE_ES_CORE_APP_RUNTIME_ERROR     CFE_ES_RUNSTATUS_CORE_APP_RUNTIME_ERROR
 248:/home/simulink/cFS_FreeRTOS_seL4/cfe/fsw/cfe-core/src/inc/cfe_es.h **** 
 249:/home/simulink/cFS_FreeRTOS_seL4/cfe/fsw/cfe-core/src/inc/cfe_es.h **** #endif
 250:/home/simulink/cFS_FreeRTOS_seL4/cfe/fsw/cfe-core/src/inc/cfe_es.h **** 
 251:/home/simulink/cFS_FreeRTOS_seL4/cfe/fsw/cfe-core/src/inc/cfe_es.h **** /*****************************************************************************/
 252:/home/simulink/cFS_FreeRTOS_seL4/cfe/fsw/cfe-core/src/inc/cfe_es.h **** /*
 253:/home/simulink/cFS_FreeRTOS_seL4/cfe/fsw/cfe-core/src/inc/cfe_es.h **** ** Type Definitions
 254:/home/simulink/cFS_FreeRTOS_seL4/cfe/fsw/cfe-core/src/inc/cfe_es.h **** */
 255:/home/simulink/cFS_FreeRTOS_seL4/cfe/fsw/cfe-core/src/inc/cfe_es.h **** 
 256:/home/simulink/cFS_FreeRTOS_seL4/cfe/fsw/cfe-core/src/inc/cfe_es.h **** /*
 257:/home/simulink/cFS_FreeRTOS_seL4/cfe/fsw/cfe-core/src/inc/cfe_es.h **** ** Memory Handle type
 258:/home/simulink/cFS_FreeRTOS_seL4/cfe/fsw/cfe-core/src/inc/cfe_es.h **** */
 259:/home/simulink/cFS_FreeRTOS_seL4/cfe/fsw/cfe-core/src/inc/cfe_es.h **** typedef cpuaddr CFE_ES_MemHandle_t;  /**< \brief Data type used to hold Handles of Memory Pools cre
 260:/home/simulink/cFS_FreeRTOS_seL4/cfe/fsw/cfe-core/src/inc/cfe_es.h **** 
 261:/home/simulink/cFS_FreeRTOS_seL4/cfe/fsw/cfe-core/src/inc/cfe_es.h **** /*
 262:/home/simulink/cFS_FreeRTOS_seL4/cfe/fsw/cfe-core/src/inc/cfe_es.h **** ** 
 263:/home/simulink/cFS_FreeRTOS_seL4/cfe/fsw/cfe-core/src/inc/cfe_es.h **** ** CFE_ES_AppInfo_t is a structure that is used to provide
 264:/home/simulink/cFS_FreeRTOS_seL4/cfe/fsw/cfe-core/src/inc/cfe_es.h **** ** information about an app. It is primarily used for the QueryOne and
 265:/home/simulink/cFS_FreeRTOS_seL4/cfe/fsw/cfe-core/src/inc/cfe_es.h **** ** QueryAll Commands.
 266:/home/simulink/cFS_FreeRTOS_seL4/cfe/fsw/cfe-core/src/inc/cfe_es.h **** **
 267:/home/simulink/cFS_FreeRTOS_seL4/cfe/fsw/cfe-core/src/inc/cfe_es.h **** */
 268:/home/simulink/cFS_FreeRTOS_seL4/cfe/fsw/cfe-core/src/inc/cfe_es.h **** typedef struct
 269:/home/simulink/cFS_FreeRTOS_seL4/cfe/fsw/cfe-core/src/inc/cfe_es.h **** {
 270:/home/simulink/cFS_FreeRTOS_seL4/cfe/fsw/cfe-core/src/inc/cfe_es.h ****    uint32   AppId;                          /**< \cfetlmmnemonic \ES_APP_ID
 271:/home/simulink/cFS_FreeRTOS_seL4/cfe/fsw/cfe-core/src/inc/cfe_es.h ****                                                  \brief Application ID for this Application */
 272:/home/simulink/cFS_FreeRTOS_seL4/cfe/fsw/cfe-core/src/inc/cfe_es.h ****    uint32   Type;                           /**< \cfetlmmnemonic \ES_APPTYPE
 273:/home/simulink/cFS_FreeRTOS_seL4/cfe/fsw/cfe-core/src/inc/cfe_es.h ****                                                  \brief The type of App: CORE or EXTERNAL */
 274:/home/simulink/cFS_FreeRTOS_seL4/cfe/fsw/cfe-core/src/inc/cfe_es.h **** 
 275:/home/simulink/cFS_FreeRTOS_seL4/cfe/fsw/cfe-core/src/inc/cfe_es.h ****    char     Name[OS_MAX_API_NAME];          /**< \cfetlmmnemonic \ES_APPNAME
68K GAS   			page 6


 276:/home/simulink/cFS_FreeRTOS_seL4/cfe/fsw/cfe-core/src/inc/cfe_es.h ****                                                  \brief The Registered Name of the Application */
 277:/home/simulink/cFS_FreeRTOS_seL4/cfe/fsw/cfe-core/src/inc/cfe_es.h ****    char     EntryPoint[OS_MAX_API_NAME];    /**< \cfetlmmnemonic \ES_APPENTRYPT
 278:/home/simulink/cFS_FreeRTOS_seL4/cfe/fsw/cfe-core/src/inc/cfe_es.h ****                                                  \brief The Entry Point label for the Application *
 279:/home/simulink/cFS_FreeRTOS_seL4/cfe/fsw/cfe-core/src/inc/cfe_es.h ****    char     FileName[OS_MAX_PATH_LEN];      /**< \cfetlmmnemonic \ES_APPFILENAME
 280:/home/simulink/cFS_FreeRTOS_seL4/cfe/fsw/cfe-core/src/inc/cfe_es.h ****                                                  \brief The Filename of the file containing the App
 281:/home/simulink/cFS_FreeRTOS_seL4/cfe/fsw/cfe-core/src/inc/cfe_es.h **** 
 282:/home/simulink/cFS_FreeRTOS_seL4/cfe/fsw/cfe-core/src/inc/cfe_es.h ****    uint32   StackSize;                      /**< \cfetlmmnemonic \ES_STACKSIZE
 283:/home/simulink/cFS_FreeRTOS_seL4/cfe/fsw/cfe-core/src/inc/cfe_es.h ****                                                  \brief The Stack Size of the Application */
 284:/home/simulink/cFS_FreeRTOS_seL4/cfe/fsw/cfe-core/src/inc/cfe_es.h ****    uint32   ModuleId;                       /**< \cfetlmmnemonic \ES_MODULEID
 285:/home/simulink/cFS_FreeRTOS_seL4/cfe/fsw/cfe-core/src/inc/cfe_es.h ****                                                  \brief The ID of the Loadable Module for the Appli
 286:/home/simulink/cFS_FreeRTOS_seL4/cfe/fsw/cfe-core/src/inc/cfe_es.h ****    uint32   AddressesAreValid;              /**< \cfetlmmnemonic \ES_ADDRVALID
 287:/home/simulink/cFS_FreeRTOS_seL4/cfe/fsw/cfe-core/src/inc/cfe_es.h ****                                                  \brief Indicates that the Code, Data, and BSS addr
 288:/home/simulink/cFS_FreeRTOS_seL4/cfe/fsw/cfe-core/src/inc/cfe_es.h ****    uint32   CodeAddress;                    /**< \cfetlmmnemonic \ES_CODEADDR
 289:/home/simulink/cFS_FreeRTOS_seL4/cfe/fsw/cfe-core/src/inc/cfe_es.h ****                                                  \brief The Address of the Application Code Segment
 290:/home/simulink/cFS_FreeRTOS_seL4/cfe/fsw/cfe-core/src/inc/cfe_es.h ****    uint32   CodeSize;                       /**< \cfetlmmnemonic \ES_CODESIZE
 291:/home/simulink/cFS_FreeRTOS_seL4/cfe/fsw/cfe-core/src/inc/cfe_es.h ****                                                  \brief The Code Size of the Application */
 292:/home/simulink/cFS_FreeRTOS_seL4/cfe/fsw/cfe-core/src/inc/cfe_es.h ****    uint32   DataAddress;                    /**< \cfetlmmnemonic \ES_DATAADDR
 293:/home/simulink/cFS_FreeRTOS_seL4/cfe/fsw/cfe-core/src/inc/cfe_es.h ****                                                  \brief The Address of the Application Data Segment
 294:/home/simulink/cFS_FreeRTOS_seL4/cfe/fsw/cfe-core/src/inc/cfe_es.h ****    uint32   DataSize;                       /**< \cfetlmmnemonic \ES_DATASIZE
 295:/home/simulink/cFS_FreeRTOS_seL4/cfe/fsw/cfe-core/src/inc/cfe_es.h ****                                                  \brief The Data Size of the Application */
 296:/home/simulink/cFS_FreeRTOS_seL4/cfe/fsw/cfe-core/src/inc/cfe_es.h ****    uint32   BSSAddress;                     /**< \cfetlmmnemonic \ES_BSSADDR
 297:/home/simulink/cFS_FreeRTOS_seL4/cfe/fsw/cfe-core/src/inc/cfe_es.h ****                                                  \brief The Address of the Application BSS Segment*
 298:/home/simulink/cFS_FreeRTOS_seL4/cfe/fsw/cfe-core/src/inc/cfe_es.h ****    uint32   BSSSize;                        /**< \cfetlmmnemonic \ES_BSSSIZE
 299:/home/simulink/cFS_FreeRTOS_seL4/cfe/fsw/cfe-core/src/inc/cfe_es.h ****                                                   \brief The BSS Size of the Application */
 300:/home/simulink/cFS_FreeRTOS_seL4/cfe/fsw/cfe-core/src/inc/cfe_es.h ****    uint32   StartAddress;                   /**< \cfetlmmnemonic \ES_STARTADDR
 301:/home/simulink/cFS_FreeRTOS_seL4/cfe/fsw/cfe-core/src/inc/cfe_es.h ****                                                  \brief The Start Address of the Application */
 302:/home/simulink/cFS_FreeRTOS_seL4/cfe/fsw/cfe-core/src/inc/cfe_es.h ****    uint16   ExceptionAction;                /**< \cfetlmmnemonic \ES_EXCEPTNACTN
 303:/home/simulink/cFS_FreeRTOS_seL4/cfe/fsw/cfe-core/src/inc/cfe_es.h ****                                                  \brief What should occur if Application has an exc
 304:/home/simulink/cFS_FreeRTOS_seL4/cfe/fsw/cfe-core/src/inc/cfe_es.h ****                                                  (Restart Application OR Restart Processor) */
 305:/home/simulink/cFS_FreeRTOS_seL4/cfe/fsw/cfe-core/src/inc/cfe_es.h ****    uint16   Priority;                       /**< \cfetlmmnemonic \ES_PRIORITY
 306:/home/simulink/cFS_FreeRTOS_seL4/cfe/fsw/cfe-core/src/inc/cfe_es.h ****                                                  \brief The Priority of the Application */
 307:/home/simulink/cFS_FreeRTOS_seL4/cfe/fsw/cfe-core/src/inc/cfe_es.h ****    uint32   MainTaskId;                     /**< \cfetlmmnemonic \ES_MAINTASKID
 308:/home/simulink/cFS_FreeRTOS_seL4/cfe/fsw/cfe-core/src/inc/cfe_es.h ****                                                  \brief The Application's Main Task ID */
 309:/home/simulink/cFS_FreeRTOS_seL4/cfe/fsw/cfe-core/src/inc/cfe_es.h ****    uint32   ExecutionCounter;               /**< \cfetlmmnemonic \ES_MAINTASKEXECNT
 310:/home/simulink/cFS_FreeRTOS_seL4/cfe/fsw/cfe-core/src/inc/cfe_es.h ****                                                  \brief The Application's Main Task Execution Count
 311:/home/simulink/cFS_FreeRTOS_seL4/cfe/fsw/cfe-core/src/inc/cfe_es.h ****    char     MainTaskName[OS_MAX_API_NAME];  /**< \cfetlmmnemonic \ES_MAINTASKNAME
 312:/home/simulink/cFS_FreeRTOS_seL4/cfe/fsw/cfe-core/src/inc/cfe_es.h ****                                                  \brief The Application's Main Task ID */
 313:/home/simulink/cFS_FreeRTOS_seL4/cfe/fsw/cfe-core/src/inc/cfe_es.h ****    uint32   NumOfChildTasks;                /**< \cfetlmmnemonic \ES_CHILDTASKS
 314:/home/simulink/cFS_FreeRTOS_seL4/cfe/fsw/cfe-core/src/inc/cfe_es.h ****                                                  \brief Number of Child tasks for an App */
 315:/home/simulink/cFS_FreeRTOS_seL4/cfe/fsw/cfe-core/src/inc/cfe_es.h **** 
 316:/home/simulink/cFS_FreeRTOS_seL4/cfe/fsw/cfe-core/src/inc/cfe_es.h **** } CFE_ES_AppInfo_t;
 317:/home/simulink/cFS_FreeRTOS_seL4/cfe/fsw/cfe-core/src/inc/cfe_es.h **** 
 318:/home/simulink/cFS_FreeRTOS_seL4/cfe/fsw/cfe-core/src/inc/cfe_es.h **** /*
 319:/home/simulink/cFS_FreeRTOS_seL4/cfe/fsw/cfe-core/src/inc/cfe_es.h **** ** Task Info Type
 320:/home/simulink/cFS_FreeRTOS_seL4/cfe/fsw/cfe-core/src/inc/cfe_es.h **** */
 321:/home/simulink/cFS_FreeRTOS_seL4/cfe/fsw/cfe-core/src/inc/cfe_es.h **** typedef struct
 322:/home/simulink/cFS_FreeRTOS_seL4/cfe/fsw/cfe-core/src/inc/cfe_es.h **** {
 323:/home/simulink/cFS_FreeRTOS_seL4/cfe/fsw/cfe-core/src/inc/cfe_es.h ****    uint32   TaskId;                    /**< \brief Task Id */
 324:/home/simulink/cFS_FreeRTOS_seL4/cfe/fsw/cfe-core/src/inc/cfe_es.h ****    uint32   ExecutionCounter;          /**K \brief Task Execution Counter */
 325:/home/simulink/cFS_FreeRTOS_seL4/cfe/fsw/cfe-core/src/inc/cfe_es.h ****    uint8    TaskName[OS_MAX_API_NAME]; /**< \brief Task Name */
 326:/home/simulink/cFS_FreeRTOS_seL4/cfe/fsw/cfe-core/src/inc/cfe_es.h ****    uint32   AppId;                     /**< \brief Parent Application ID */
 327:/home/simulink/cFS_FreeRTOS_seL4/cfe/fsw/cfe-core/src/inc/cfe_es.h ****    uint8    AppName[OS_MAX_API_NAME];  /**< \brief Parent Application Name */
 328:/home/simulink/cFS_FreeRTOS_seL4/cfe/fsw/cfe-core/src/inc/cfe_es.h **** 
 329:/home/simulink/cFS_FreeRTOS_seL4/cfe/fsw/cfe-core/src/inc/cfe_es.h **** } CFE_ES_TaskInfo_t;
 330:/home/simulink/cFS_FreeRTOS_seL4/cfe/fsw/cfe-core/src/inc/cfe_es.h **** 
 331:/home/simulink/cFS_FreeRTOS_seL4/cfe/fsw/cfe-core/src/inc/cfe_es.h **** /*
 332:/home/simulink/cFS_FreeRTOS_seL4/cfe/fsw/cfe-core/src/inc/cfe_es.h **** ** Memory Pool Statistics data type
68K GAS   			page 7


 333:/home/simulink/cFS_FreeRTOS_seL4/cfe/fsw/cfe-core/src/inc/cfe_es.h **** */
 334:/home/simulink/cFS_FreeRTOS_seL4/cfe/fsw/cfe-core/src/inc/cfe_es.h **** typedef struct
 335:/home/simulink/cFS_FreeRTOS_seL4/cfe/fsw/cfe-core/src/inc/cfe_es.h **** {
 336:/home/simulink/cFS_FreeRTOS_seL4/cfe/fsw/cfe-core/src/inc/cfe_es.h ****     uint32  BlockSize;               /**< \brief Number of bytes in each of these blocks */
 337:/home/simulink/cFS_FreeRTOS_seL4/cfe/fsw/cfe-core/src/inc/cfe_es.h ****     uint32  NumCreated;              /**< \brief Number of Memory Blocks of this size created */
 338:/home/simulink/cFS_FreeRTOS_seL4/cfe/fsw/cfe-core/src/inc/cfe_es.h ****     uint32  NumFree;                 /**< \brief Number of Memory Blocks of this size that are free
 339:/home/simulink/cFS_FreeRTOS_seL4/cfe/fsw/cfe-core/src/inc/cfe_es.h **** } CFE_ES_BlockStats_t;
 340:/home/simulink/cFS_FreeRTOS_seL4/cfe/fsw/cfe-core/src/inc/cfe_es.h **** 
 341:/home/simulink/cFS_FreeRTOS_seL4/cfe/fsw/cfe-core/src/inc/cfe_es.h **** typedef struct
 342:/home/simulink/cFS_FreeRTOS_seL4/cfe/fsw/cfe-core/src/inc/cfe_es.h **** {
 343:/home/simulink/cFS_FreeRTOS_seL4/cfe/fsw/cfe-core/src/inc/cfe_es.h ****     uint32                PoolSize;                /**< \cfetlmmnemonic \ES_POOLSIZE
 344:/home/simulink/cFS_FreeRTOS_seL4/cfe/fsw/cfe-core/src/inc/cfe_es.h ****                                                         \brief  Size of Memory Pool (in bytes) */
 345:/home/simulink/cFS_FreeRTOS_seL4/cfe/fsw/cfe-core/src/inc/cfe_es.h ****     uint32                NumBlocksRequested;      /**< \cfetlmmnemonic \ES_BLKSREQ
 346:/home/simulink/cFS_FreeRTOS_seL4/cfe/fsw/cfe-core/src/inc/cfe_es.h ****                                                         \brief Number of times a memory block has b
 347:/home/simulink/cFS_FreeRTOS_seL4/cfe/fsw/cfe-core/src/inc/cfe_es.h ****     uint32                CheckErrCtr;             /**< \cfetlmmnemonic \ES_BLKERRCTR
 348:/home/simulink/cFS_FreeRTOS_seL4/cfe/fsw/cfe-core/src/inc/cfe_es.h ****                                                         \brief Number of errors detected when freei
 349:/home/simulink/cFS_FreeRTOS_seL4/cfe/fsw/cfe-core/src/inc/cfe_es.h ****     uint32                NumFreeBytes;            /**< \cfetlmmnemonic \ES_FREEBYTES
 350:/home/simulink/cFS_FreeRTOS_seL4/cfe/fsw/cfe-core/src/inc/cfe_es.h ****                                                         \brief Number of bytes never allocated to a
 351:/home/simulink/cFS_FreeRTOS_seL4/cfe/fsw/cfe-core/src/inc/cfe_es.h ****     CFE_ES_BlockStats_t   BlockStats[CFE_ES_MAX_MEMPOOL_BLOCK_SIZES]; /**< \cfetlmmnemonic \ES_BLKS
 352:/home/simulink/cFS_FreeRTOS_seL4/cfe/fsw/cfe-core/src/inc/cfe_es.h ****                                                                            \brief Contains stats on
 353:/home/simulink/cFS_FreeRTOS_seL4/cfe/fsw/cfe-core/src/inc/cfe_es.h **** } CFE_ES_MemPoolStats_t;
 354:/home/simulink/cFS_FreeRTOS_seL4/cfe/fsw/cfe-core/src/inc/cfe_es.h **** 
 355:/home/simulink/cFS_FreeRTOS_seL4/cfe/fsw/cfe-core/src/inc/cfe_es.h **** /*
 356:/home/simulink/cFS_FreeRTOS_seL4/cfe/fsw/cfe-core/src/inc/cfe_es.h **** ** CDS Handle type
 357:/home/simulink/cFS_FreeRTOS_seL4/cfe/fsw/cfe-core/src/inc/cfe_es.h **** */
 358:/home/simulink/cFS_FreeRTOS_seL4/cfe/fsw/cfe-core/src/inc/cfe_es.h **** typedef cpuaddr CFE_ES_CDSHandle_t;    /**< \brief Data type used to hold Handles of Critical Data 
 359:/home/simulink/cFS_FreeRTOS_seL4/cfe/fsw/cfe-core/src/inc/cfe_es.h **** 
 360:/home/simulink/cFS_FreeRTOS_seL4/cfe/fsw/cfe-core/src/inc/cfe_es.h **** typedef struct
 361:/home/simulink/cFS_FreeRTOS_seL4/cfe/fsw/cfe-core/src/inc/cfe_es.h **** {
 362:/home/simulink/cFS_FreeRTOS_seL4/cfe/fsw/cfe-core/src/inc/cfe_es.h ****     CFE_ES_CDSHandle_t    Handle;          /**< \brief Handle of CDS */
 363:/home/simulink/cFS_FreeRTOS_seL4/cfe/fsw/cfe-core/src/inc/cfe_es.h ****     uint32                Size;            /**< \brief Size, in bytes, of the CDS memory block */
 364:/home/simulink/cFS_FreeRTOS_seL4/cfe/fsw/cfe-core/src/inc/cfe_es.h ****     boolean               Table;           /**< \brief Flag that indicates whether CDS contains a C
 365:/home/simulink/cFS_FreeRTOS_seL4/cfe/fsw/cfe-core/src/inc/cfe_es.h ****     char                  Name[CFE_ES_CDS_MAX_FULL_NAME_LEN]; /**< \brief Processor Unique Name of 
 366:/home/simulink/cFS_FreeRTOS_seL4/cfe/fsw/cfe-core/src/inc/cfe_es.h ****     uint8                 ByteAlignSpare1; /**< \brief Spare byte to insure structure size is multi
 367:/home/simulink/cFS_FreeRTOS_seL4/cfe/fsw/cfe-core/src/inc/cfe_es.h **** } CFE_ES_CDSRegDumpRec_t;
 368:/home/simulink/cFS_FreeRTOS_seL4/cfe/fsw/cfe-core/src/inc/cfe_es.h **** 
 369:/home/simulink/cFS_FreeRTOS_seL4/cfe/fsw/cfe-core/src/inc/cfe_es.h **** /*
 370:/home/simulink/cFS_FreeRTOS_seL4/cfe/fsw/cfe-core/src/inc/cfe_es.h **** ** Child Task Main Function Prototype
 371:/home/simulink/cFS_FreeRTOS_seL4/cfe/fsw/cfe-core/src/inc/cfe_es.h **** */
 372:/home/simulink/cFS_FreeRTOS_seL4/cfe/fsw/cfe-core/src/inc/cfe_es.h **** typedef void (*CFE_ES_ChildTaskMainFuncPtr_t)(void); /**< \brief Required Prototype of Child Task M
 373:/home/simulink/cFS_FreeRTOS_seL4/cfe/fsw/cfe-core/src/inc/cfe_es.h **** typedef int32 (*CFE_ES_LibraryEntryFuncPtr_t)(void); /**< \brief Required Prototype of Library Init
 374:/home/simulink/cFS_FreeRTOS_seL4/cfe/fsw/cfe-core/src/inc/cfe_es.h **** 
 375:/home/simulink/cFS_FreeRTOS_seL4/cfe/fsw/cfe-core/src/inc/cfe_es.h **** typedef enum
 376:/home/simulink/cFS_FreeRTOS_seL4/cfe/fsw/cfe-core/src/inc/cfe_es.h **** {
 377:/home/simulink/cFS_FreeRTOS_seL4/cfe/fsw/cfe-core/src/inc/cfe_es.h ****     CFE_ES_STATICENTRYTYPE_INVALID      = 0,
 378:/home/simulink/cFS_FreeRTOS_seL4/cfe/fsw/cfe-core/src/inc/cfe_es.h ****     CFE_ES_STATICENTRYTYPE_FIRST_VALID  = 2000,
 379:/home/simulink/cFS_FreeRTOS_seL4/cfe/fsw/cfe-core/src/inc/cfe_es.h ****     CFE_ES_STATICENTRYTYPE_APPLICATION,
 380:/home/simulink/cFS_FreeRTOS_seL4/cfe/fsw/cfe-core/src/inc/cfe_es.h ****     CFE_ES_STATICENTRYTYPE_LIBRARY,
 381:/home/simulink/cFS_FreeRTOS_seL4/cfe/fsw/cfe-core/src/inc/cfe_es.h ****     CFE_ES_STATICENTRYTYPE_MAX
 382:/home/simulink/cFS_FreeRTOS_seL4/cfe/fsw/cfe-core/src/inc/cfe_es.h **** } CFE_ES_StaticEntryType_t;
 383:/home/simulink/cFS_FreeRTOS_seL4/cfe/fsw/cfe-core/src/inc/cfe_es.h **** 
 384:/home/simulink/cFS_FreeRTOS_seL4/cfe/fsw/cfe-core/src/inc/cfe_es.h **** /*
 385:/home/simulink/cFS_FreeRTOS_seL4/cfe/fsw/cfe-core/src/inc/cfe_es.h **** ** API Structure for statically linked CFS Applications
 386:/home/simulink/cFS_FreeRTOS_seL4/cfe/fsw/cfe-core/src/inc/cfe_es.h **** */
 387:/home/simulink/cFS_FreeRTOS_seL4/cfe/fsw/cfe-core/src/inc/cfe_es.h **** typedef const struct
 388:/home/simulink/cFS_FreeRTOS_seL4/cfe/fsw/cfe-core/src/inc/cfe_es.h **** {
 389:/home/simulink/cFS_FreeRTOS_seL4/cfe/fsw/cfe-core/src/inc/cfe_es.h ****     CFE_ES_StaticEntryType_t EntryType;
68K GAS   			page 8


 390:/home/simulink/cFS_FreeRTOS_seL4/cfe/fsw/cfe-core/src/inc/cfe_es.h ****     union
 391:/home/simulink/cFS_FreeRTOS_seL4/cfe/fsw/cfe-core/src/inc/cfe_es.h ****     {
 392:/home/simulink/cFS_FreeRTOS_seL4/cfe/fsw/cfe-core/src/inc/cfe_es.h ****         CFE_ES_ChildTaskMainFuncPtr_t AppEntryFunc;     /**< \brief Entry point for Application */
 393:/home/simulink/cFS_FreeRTOS_seL4/cfe/fsw/cfe-core/src/inc/cfe_es.h ****         CFE_ES_LibraryEntryFuncPtr_t LibInitFunc;       /**< \brief Initialization function for Lib
 394:/home/simulink/cFS_FreeRTOS_seL4/cfe/fsw/cfe-core/src/inc/cfe_es.h ****         cpuaddr EntryFuncAddr;
 395:/home/simulink/cFS_FreeRTOS_seL4/cfe/fsw/cfe-core/src/inc/cfe_es.h ****     } Ptrs;
 396:/home/simulink/cFS_FreeRTOS_seL4/cfe/fsw/cfe-core/src/inc/cfe_es.h ****     uint32  Priority;
 397:/home/simulink/cFS_FreeRTOS_seL4/cfe/fsw/cfe-core/src/inc/cfe_es.h ****     uint32  StackSize;
 398:/home/simulink/cFS_FreeRTOS_seL4/cfe/fsw/cfe-core/src/inc/cfe_es.h **** } CFE_ES_AppStaticModuleApi_t;
 399:/home/simulink/cFS_FreeRTOS_seL4/cfe/fsw/cfe-core/src/inc/cfe_es.h **** 
 400:/home/simulink/cFS_FreeRTOS_seL4/cfe/fsw/cfe-core/src/inc/cfe_es.h **** #ifdef CFS_STATIC_MODULE
 401:/home/simulink/cFS_FreeRTOS_seL4/cfe/fsw/cfe-core/src/inc/cfe_es.h **** 
 402:/home/simulink/cFS_FreeRTOS_seL4/cfe/fsw/cfe-core/src/inc/cfe_es.h **** #define CFS_MODULE_DECLARE_APP(name,pri,stack)              \
 403:/home/simulink/cFS_FreeRTOS_seL4/cfe/fsw/cfe-core/src/inc/cfe_es.h ****     void name##_Main(void);                                 \
 404:/home/simulink/cFS_FreeRTOS_seL4/cfe/fsw/cfe-core/src/inc/cfe_es.h ****     CFE_ES_AppStaticModuleApi_t CFS_##name##_API =          \
 405:/home/simulink/cFS_FreeRTOS_seL4/cfe/fsw/cfe-core/src/inc/cfe_es.h ****     {                                                       \
 406:/home/simulink/cFS_FreeRTOS_seL4/cfe/fsw/cfe-core/src/inc/cfe_es.h ****         .EntryType = CFE_ES_STATICENTRYTYPE_APPLICATION,    \
 407:/home/simulink/cFS_FreeRTOS_seL4/cfe/fsw/cfe-core/src/inc/cfe_es.h ****         .Ptrs.AppEntryFunc = name##_Main,                   \
 408:/home/simulink/cFS_FreeRTOS_seL4/cfe/fsw/cfe-core/src/inc/cfe_es.h ****         .Priority = pri,                                    \
 409:/home/simulink/cFS_FreeRTOS_seL4/cfe/fsw/cfe-core/src/inc/cfe_es.h ****         .StackSize = stack,                                 \
 410:/home/simulink/cFS_FreeRTOS_seL4/cfe/fsw/cfe-core/src/inc/cfe_es.h ****     }
 411:/home/simulink/cFS_FreeRTOS_seL4/cfe/fsw/cfe-core/src/inc/cfe_es.h **** 
 412:/home/simulink/cFS_FreeRTOS_seL4/cfe/fsw/cfe-core/src/inc/cfe_es.h **** #define CFS_MODULE_DECLARE_LIB(name)                        \
 413:/home/simulink/cFS_FreeRTOS_seL4/cfe/fsw/cfe-core/src/inc/cfe_es.h ****     int32 name##_Init(void);                                \
 414:/home/simulink/cFS_FreeRTOS_seL4/cfe/fsw/cfe-core/src/inc/cfe_es.h ****     CFE_ES_AppStaticModuleApi_t CFS_##name##_API =          \
 415:/home/simulink/cFS_FreeRTOS_seL4/cfe/fsw/cfe-core/src/inc/cfe_es.h ****     {                                                       \
 416:/home/simulink/cFS_FreeRTOS_seL4/cfe/fsw/cfe-core/src/inc/cfe_es.h ****         .EntryType = CFE_ES_STATICENTRYTYPE_LIBRARY,        \
 417:/home/simulink/cFS_FreeRTOS_seL4/cfe/fsw/cfe-core/src/inc/cfe_es.h ****         .Ptrs.LibInitFunc = name##_Init,                    \
 418:/home/simulink/cFS_FreeRTOS_seL4/cfe/fsw/cfe-core/src/inc/cfe_es.h ****     }
 419:/home/simulink/cFS_FreeRTOS_seL4/cfe/fsw/cfe-core/src/inc/cfe_es.h **** #else
 420:/home/simulink/cFS_FreeRTOS_seL4/cfe/fsw/cfe-core/src/inc/cfe_es.h **** #define CFS_MODULE_DECLARE_APP(name,pri,stack)
 421:/home/simulink/cFS_FreeRTOS_seL4/cfe/fsw/cfe-core/src/inc/cfe_es.h **** #define CFS_MODULE_DECLARE_LIB(name)
 422:/home/simulink/cFS_FreeRTOS_seL4/cfe/fsw/cfe-core/src/inc/cfe_es.h **** #endif
 423:/home/simulink/cFS_FreeRTOS_seL4/cfe/fsw/cfe-core/src/inc/cfe_es.h **** 
 424:/home/simulink/cFS_FreeRTOS_seL4/cfe/fsw/cfe-core/src/inc/cfe_es.h **** 
 425:/home/simulink/cFS_FreeRTOS_seL4/cfe/fsw/cfe-core/src/inc/cfe_es.h **** /*****************************************************************************/
 426:/home/simulink/cFS_FreeRTOS_seL4/cfe/fsw/cfe-core/src/inc/cfe_es.h **** /*
 427:/home/simulink/cFS_FreeRTOS_seL4/cfe/fsw/cfe-core/src/inc/cfe_es.h **** ** Exported Functions
 428:/home/simulink/cFS_FreeRTOS_seL4/cfe/fsw/cfe-core/src/inc/cfe_es.h **** */
 429:/home/simulink/cFS_FreeRTOS_seL4/cfe/fsw/cfe-core/src/inc/cfe_es.h **** 
 430:/home/simulink/cFS_FreeRTOS_seL4/cfe/fsw/cfe-core/src/inc/cfe_es.h **** /*****************************************************************************/
 431:/home/simulink/cFS_FreeRTOS_seL4/cfe/fsw/cfe-core/src/inc/cfe_es.h **** 
 432:/home/simulink/cFS_FreeRTOS_seL4/cfe/fsw/cfe-core/src/inc/cfe_es.h **** #if !defined(OSAL_OPAQUE_OBJECT_IDS)
 433:/home/simulink/cFS_FreeRTOS_seL4/cfe/fsw/cfe-core/src/inc/cfe_es.h **** /*
 434:/home/simulink/cFS_FreeRTOS_seL4/cfe/fsw/cfe-core/src/inc/cfe_es.h **** ** \brief Compatibility wrapper for older versions of OSAL
 435:/home/simulink/cFS_FreeRTOS_seL4/cfe/fsw/cfe-core/src/inc/cfe_es.h **** **
 436:/home/simulink/cFS_FreeRTOS_seL4/cfe/fsw/cfe-core/src/inc/cfe_es.h **** ** \par Description
 437:/home/simulink/cFS_FreeRTOS_seL4/cfe/fsw/cfe-core/src/inc/cfe_es.h **** **   In future versions of OSAL the task/object ID values might not be zero based
 438:/home/simulink/cFS_FreeRTOS_seL4/cfe/fsw/cfe-core/src/inc/cfe_es.h **** **   If that is the case then the OSAL must also define a function to convert back
 439:/home/simulink/cFS_FreeRTOS_seL4/cfe/fsw/cfe-core/src/inc/cfe_es.h **** **   to zero-based numbers such that the value can be used as an array index.
 440:/home/simulink/cFS_FreeRTOS_seL4/cfe/fsw/cfe-core/src/inc/cfe_es.h **** **
 441:/home/simulink/cFS_FreeRTOS_seL4/cfe/fsw/cfe-core/src/inc/cfe_es.h **** **   When using an existing/older version of OSAL, this inline function is defined
 442:/home/simulink/cFS_FreeRTOS_seL4/cfe/fsw/cfe-core/src/inc/cfe_es.h **** **   to mimic this call for backward compatibility.  It just passes through the same
 443:/home/simulink/cFS_FreeRTOS_seL4/cfe/fsw/cfe-core/src/inc/cfe_es.h **** **   value without modification.
 444:/home/simulink/cFS_FreeRTOS_seL4/cfe/fsw/cfe-core/src/inc/cfe_es.h **** **
 445:/home/simulink/cFS_FreeRTOS_seL4/cfe/fsw/cfe-core/src/inc/cfe_es.h **** ** \param[in]  ObjectId     The object ID from OSAL
 446:/home/simulink/cFS_FreeRTOS_seL4/cfe/fsw/cfe-core/src/inc/cfe_es.h **** ** \param[out] ArrayIndex   A zero-based value suitable for use as an array index
68K GAS   			page 9


 447:/home/simulink/cFS_FreeRTOS_seL4/cfe/fsw/cfe-core/src/inc/cfe_es.h **** ** \returns    OS_SUCCESS (a real version might return an error code).
 448:/home/simulink/cFS_FreeRTOS_seL4/cfe/fsw/cfe-core/src/inc/cfe_es.h **** */
 449:/home/simulink/cFS_FreeRTOS_seL4/cfe/fsw/cfe-core/src/inc/cfe_es.h **** static inline int32 OS_ConvertToArrayIndex(uint32 ObjectId, uint32 *ArrayIndex)
 450:/home/simulink/cFS_FreeRTOS_seL4/cfe/fsw/cfe-core/src/inc/cfe_es.h **** {
  11               	.loc 1 450 0
  12               	.cfi_startproc
 451:/home/simulink/cFS_FreeRTOS_seL4/cfe/fsw/cfe-core/src/inc/cfe_es.h ****    *ArrayIndex = ObjectId;
  13               	.loc 1 451 0
  14 0000 206F 0008 	move.l 8(%sp),%a0
  15 0004 20AF 0004 	move.l 4(%sp),(%a0)
 452:/home/simulink/cFS_FreeRTOS_seL4/cfe/fsw/cfe-core/src/inc/cfe_es.h ****    return OS_SUCCESS;
  16               	.loc 1 452 0
  17 0008 4280      	clr.l %d0
 453:/home/simulink/cFS_FreeRTOS_seL4/cfe/fsw/cfe-core/src/inc/cfe_es.h **** }
  18               	.loc 1 453 0
  19 000a 4E75      	rts
  20               	.cfi_endproc
  21               	.LFE58:
  22               	.sizeOS_ConvertToArrayIndex, .-OS_ConvertToArrayIndex
  23               	.align2
  24               	.globlCFE_SB_CleanUpApp
  25               	.typeCFE_SB_CleanUpApp, @function
  26               	CFE_SB_CleanUpApp:
  27               	.LFB59:
  28               	.file 2 "/home/simulink/cFS_FreeRTOS_seL4/cfe/fsw/cfe-core/src/sb/cfe_sb_priv.c"
   1:/home/simulink/cFS_FreeRTOS_seL4/cfe/fsw/cfe-core/src/sb/cfe_sb_priv.c **** /******************************************************************************
   2:/home/simulink/cFS_FreeRTOS_seL4/cfe/fsw/cfe-core/src/sb/cfe_sb_priv.c **** ** File: cfe_sb_priv.c
   3:/home/simulink/cFS_FreeRTOS_seL4/cfe/fsw/cfe-core/src/sb/cfe_sb_priv.c **** **
   4:/home/simulink/cFS_FreeRTOS_seL4/cfe/fsw/cfe-core/src/sb/cfe_sb_priv.c **** **      Copyright (c) 2004-2012, United States government as represented by the
   5:/home/simulink/cFS_FreeRTOS_seL4/cfe/fsw/cfe-core/src/sb/cfe_sb_priv.c **** **      administrator of the National Aeronautics Space Administration.
   6:/home/simulink/cFS_FreeRTOS_seL4/cfe/fsw/cfe-core/src/sb/cfe_sb_priv.c **** **      All rights reserved. This software(cFE) was created at NASA's Goddard
   7:/home/simulink/cFS_FreeRTOS_seL4/cfe/fsw/cfe-core/src/sb/cfe_sb_priv.c **** **      Space Flight Center pursuant to government contracts.
   8:/home/simulink/cFS_FreeRTOS_seL4/cfe/fsw/cfe-core/src/sb/cfe_sb_priv.c **** **
   9:/home/simulink/cFS_FreeRTOS_seL4/cfe/fsw/cfe-core/src/sb/cfe_sb_priv.c **** **      This is governed by the NASA Open Source Agreement and may be used,
  10:/home/simulink/cFS_FreeRTOS_seL4/cfe/fsw/cfe-core/src/sb/cfe_sb_priv.c **** **      distributed and modified only pursuant to the terms of that agreement.
  11:/home/simulink/cFS_FreeRTOS_seL4/cfe/fsw/cfe-core/src/sb/cfe_sb_priv.c **** **
  12:/home/simulink/cFS_FreeRTOS_seL4/cfe/fsw/cfe-core/src/sb/cfe_sb_priv.c **** **
  13:/home/simulink/cFS_FreeRTOS_seL4/cfe/fsw/cfe-core/src/sb/cfe_sb_priv.c **** **
  14:/home/simulink/cFS_FreeRTOS_seL4/cfe/fsw/cfe-core/src/sb/cfe_sb_priv.c **** ** Purpose:
  15:/home/simulink/cFS_FreeRTOS_seL4/cfe/fsw/cfe-core/src/sb/cfe_sb_priv.c **** **   This header file contains prototypes for private functions and type
  16:/home/simulink/cFS_FreeRTOS_seL4/cfe/fsw/cfe-core/src/sb/cfe_sb_priv.c **** **   definitions for cFE internal use.
  17:/home/simulink/cFS_FreeRTOS_seL4/cfe/fsw/cfe-core/src/sb/cfe_sb_priv.c **** **
  18:/home/simulink/cFS_FreeRTOS_seL4/cfe/fsw/cfe-core/src/sb/cfe_sb_priv.c **** ** Author:   R.McGraw/SSI
  19:/home/simulink/cFS_FreeRTOS_seL4/cfe/fsw/cfe-core/src/sb/cfe_sb_priv.c **** **
  20:/home/simulink/cFS_FreeRTOS_seL4/cfe/fsw/cfe-core/src/sb/cfe_sb_priv.c **** ** Notes:
  21:/home/simulink/cFS_FreeRTOS_seL4/cfe/fsw/cfe-core/src/sb/cfe_sb_priv.c **** **
  22:/home/simulink/cFS_FreeRTOS_seL4/cfe/fsw/cfe-core/src/sb/cfe_sb_priv.c **** ** $Log: cfe_sb_priv.c  $
  23:/home/simulink/cFS_FreeRTOS_seL4/cfe/fsw/cfe-core/src/sb/cfe_sb_priv.c **** ** Revision 1.18 2014/06/17 12:42:34GMT-05:00 rmcgraw 
  24:/home/simulink/cFS_FreeRTOS_seL4/cfe/fsw/cfe-core/src/sb/cfe_sb_priv.c **** ** DCR18686:1 Initialized all AppId and CallerID's with 0xFFFFFFFF
  25:/home/simulink/cFS_FreeRTOS_seL4/cfe/fsw/cfe-core/src/sb/cfe_sb_priv.c **** ** Revision 1.17 2012/02/29 17:21:50EST lwalling
  26:/home/simulink/cFS_FreeRTOS_seL4/cfe/fsw/cfe-core/src/sb/cfe_sb_priv.c **** ** Check result of call to CFE_SB_GetAppTskName()
  27:/home/simulink/cFS_FreeRTOS_seL4/cfe/fsw/cfe-core/src/sb/cfe_sb_priv.c **** ** Revision 1.16 2012/01/13 12:15:13EST acudmore
  28:/home/simulink/cFS_FreeRTOS_seL4/cfe/fsw/cfe-core/src/sb/cfe_sb_priv.c **** ** Changed license text to reflect open source
  29:/home/simulink/cFS_FreeRTOS_seL4/cfe/fsw/cfe-core/src/sb/cfe_sb_priv.c **** ** Revision 1.15 2011/12/07 19:19:00EST aschoeni
  30:/home/simulink/cFS_FreeRTOS_seL4/cfe/fsw/cfe-core/src/sb/cfe_sb_priv.c **** ** Removed returns for TIME and SB for cleaning up apps
  31:/home/simulink/cFS_FreeRTOS_seL4/cfe/fsw/cfe-core/src/sb/cfe_sb_priv.c **** ** Revision 1.14 2011/09/08 12:17:12EDT aschoeni
  32:/home/simulink/cFS_FreeRTOS_seL4/cfe/fsw/cfe-core/src/sb/cfe_sb_priv.c **** ** Added newline to syslog calls on mutex failures
68K GAS   			page 10


  33:/home/simulink/cFS_FreeRTOS_seL4/cfe/fsw/cfe-core/src/sb/cfe_sb_priv.c **** ** Revision 1.13 2010/11/03 15:08:24EDT jmdagost
  34:/home/simulink/cFS_FreeRTOS_seL4/cfe/fsw/cfe-core/src/sb/cfe_sb_priv.c **** ** Added cfe.h include file.
  35:/home/simulink/cFS_FreeRTOS_seL4/cfe/fsw/cfe-core/src/sb/cfe_sb_priv.c **** ** Revision 1.12 2009/07/24 18:24:48EDT aschoeni
  36:/home/simulink/cFS_FreeRTOS_seL4/cfe/fsw/cfe-core/src/sb/cfe_sb_priv.c **** ** Added Zero Copy Mode
  37:/home/simulink/cFS_FreeRTOS_seL4/cfe/fsw/cfe-core/src/sb/cfe_sb_priv.c **** ** Revision 1.11 2009/07/20 14:10:14EDT aschoeni
  38:/home/simulink/cFS_FreeRTOS_seL4/cfe/fsw/cfe-core/src/sb/cfe_sb_priv.c **** ** Made GetAppTskName reentrant
  39:/home/simulink/cFS_FreeRTOS_seL4/cfe/fsw/cfe-core/src/sb/cfe_sb_priv.c **** ** Revision 1.10 2009/07/17 17:58:22EDT aschoeni
  40:/home/simulink/cFS_FreeRTOS_seL4/cfe/fsw/cfe-core/src/sb/cfe_sb_priv.c **** ** Updated MsgMap (and associated variables) from a uint16 to an CFE_SB_MsgId_t
  41:/home/simulink/cFS_FreeRTOS_seL4/cfe/fsw/cfe-core/src/sb/cfe_sb_priv.c **** ** Revision 1.9 2009/06/26 17:02:05EDT aschoeni
  42:/home/simulink/cFS_FreeRTOS_seL4/cfe/fsw/cfe-core/src/sb/cfe_sb_priv.c **** ** Updated SB to use __func__ instead of __FILE__ for lock and unlock errors
  43:/home/simulink/cFS_FreeRTOS_seL4/cfe/fsw/cfe-core/src/sb/cfe_sb_priv.c **** ** Revision 1.8 2009/05/08 11:28:07EDT rmcgraw
  44:/home/simulink/cFS_FreeRTOS_seL4/cfe/fsw/cfe-core/src/sb/cfe_sb_priv.c **** ** DCR7631:1 Removed commented out utility to print routing info
  45:/home/simulink/cFS_FreeRTOS_seL4/cfe/fsw/cfe-core/src/sb/cfe_sb_priv.c **** ** Revision 1.7 2009/05/06 09:34:09EDT rmcgraw
  46:/home/simulink/cFS_FreeRTOS_seL4/cfe/fsw/cfe-core/src/sb/cfe_sb_priv.c **** ** DCR5801:12 Removed unused function GetRoutingPtr
  47:/home/simulink/cFS_FreeRTOS_seL4/cfe/fsw/cfe-core/src/sb/cfe_sb_priv.c **** ** Revision 1.6 2009/04/06 10:21:09EDT rmcgraw
  48:/home/simulink/cFS_FreeRTOS_seL4/cfe/fsw/cfe-core/src/sb/cfe_sb_priv.c **** ** DCR5801:2 Fixed problem with list, unsubscribing to all, then subscribing again
  49:/home/simulink/cFS_FreeRTOS_seL4/cfe/fsw/cfe-core/src/sb/cfe_sb_priv.c **** ** Revision 1.5 2009/03/31 09:25:22EDT rmcgraw
  50:/home/simulink/cFS_FreeRTOS_seL4/cfe/fsw/cfe-core/src/sb/cfe_sb_priv.c **** ** DCR5801:2 Fixed problem with removing a node in linked list
  51:/home/simulink/cFS_FreeRTOS_seL4/cfe/fsw/cfe-core/src/sb/cfe_sb_priv.c **** ** Revision 1.4 2009/02/06 11:29:05EST rmcgraw
  52:/home/simulink/cFS_FreeRTOS_seL4/cfe/fsw/cfe-core/src/sb/cfe_sb_priv.c **** ** DCR5801:2 General Cleanup
  53:/home/simulink/cFS_FreeRTOS_seL4/cfe/fsw/cfe-core/src/sb/cfe_sb_priv.c **** ** Revision 1.3 2009/02/03 11:06:59EST rmcgraw
  54:/home/simulink/cFS_FreeRTOS_seL4/cfe/fsw/cfe-core/src/sb/cfe_sb_priv.c **** ** DCR5801:2 Changed destination descriptors from array based to linked list
  55:/home/simulink/cFS_FreeRTOS_seL4/cfe/fsw/cfe-core/src/sb/cfe_sb_priv.c **** ** Revision 1.2 2009/01/30 10:36:37EST rmcgraw
  56:/home/simulink/cFS_FreeRTOS_seL4/cfe/fsw/cfe-core/src/sb/cfe_sb_priv.c **** ** DCR5801:1 Removed function CFE_SB_GetNumberOfSubscribers
  57:/home/simulink/cFS_FreeRTOS_seL4/cfe/fsw/cfe-core/src/sb/cfe_sb_priv.c **** ** Revision 1.1 2008/04/17 08:05:31EDT ruperera
  58:/home/simulink/cFS_FreeRTOS_seL4/cfe/fsw/cfe-core/src/sb/cfe_sb_priv.c **** ** Initial revision
  59:/home/simulink/cFS_FreeRTOS_seL4/cfe/fsw/cfe-core/src/sb/cfe_sb_priv.c **** ** Member added to cfe project on tlserver3
  60:/home/simulink/cFS_FreeRTOS_seL4/cfe/fsw/cfe-core/src/sb/cfe_sb_priv.c **** ** Revision 1.40 2007/09/13 09:39:58EDT rjmcgraw
  61:/home/simulink/cFS_FreeRTOS_seL4/cfe/fsw/cfe-core/src/sb/cfe_sb_priv.c **** ** DCR4861 New function def for CFE_SB_RequestToSendEvent
  62:/home/simulink/cFS_FreeRTOS_seL4/cfe/fsw/cfe-core/src/sb/cfe_sb_priv.c **** ** Revision 1.39 2007/07/12 16:59:38EDT rjmcgraw
  63:/home/simulink/cFS_FreeRTOS_seL4/cfe/fsw/cfe-core/src/sb/cfe_sb_priv.c **** ** DCR4680:1 Removed SB event log related items
  64:/home/simulink/cFS_FreeRTOS_seL4/cfe/fsw/cfe-core/src/sb/cfe_sb_priv.c **** ** Revision 1.38 2007/05/21 14:34:40EDT rjmcgraw
  65:/home/simulink/cFS_FreeRTOS_seL4/cfe/fsw/cfe-core/src/sb/cfe_sb_priv.c **** ** Fixed compiler warnings in CFE_SB_GetAppTskName
  66:/home/simulink/cFS_FreeRTOS_seL4/cfe/fsw/cfe-core/src/sb/cfe_sb_priv.c **** ** Revision 1.37 2007/03/28 14:22:02EST rjmcgraw
  67:/home/simulink/cFS_FreeRTOS_seL4/cfe/fsw/cfe-core/src/sb/cfe_sb_priv.c **** ** DCR2654:displaying app.tsk name in events
  68:/home/simulink/cFS_FreeRTOS_seL4/cfe/fsw/cfe-core/src/sb/cfe_sb_priv.c **** ** Revision 1.36 2007/03/19 14:38:03EST rjmcgraw
  69:/home/simulink/cFS_FreeRTOS_seL4/cfe/fsw/cfe-core/src/sb/cfe_sb_priv.c **** ** Removed duplicate pipename check, it exists in OS_QueueCreate
  70:/home/simulink/cFS_FreeRTOS_seL4/cfe/fsw/cfe-core/src/sb/cfe_sb_priv.c **** ** Revision 1.35 2007/03/16 15:29:29EST rjmcgraw
  71:/home/simulink/cFS_FreeRTOS_seL4/cfe/fsw/cfe-core/src/sb/cfe_sb_priv.c **** ** Added code for duplicate pipe name check
  72:/home/simulink/cFS_FreeRTOS_seL4/cfe/fsw/cfe-core/src/sb/cfe_sb_priv.c **** ** Revision 1.34 2007/03/16 10:06:18EST rjmcgraw
  73:/home/simulink/cFS_FreeRTOS_seL4/cfe/fsw/cfe-core/src/sb/cfe_sb_priv.c **** ** Changed DeletePipe call to DeletePipeWithAppId in cleanup function
  74:/home/simulink/cFS_FreeRTOS_seL4/cfe/fsw/cfe-core/src/sb/cfe_sb_priv.c **** ** Revision 1.33 2007/03/13 14:10:19EST rjmcgraw
  75:/home/simulink/cFS_FreeRTOS_seL4/cfe/fsw/cfe-core/src/sb/cfe_sb_priv.c **** ** Added CFE_SB_CleanUpApp
  76:/home/simulink/cFS_FreeRTOS_seL4/cfe/fsw/cfe-core/src/sb/cfe_sb_priv.c **** ** Revision 1.32 2006/10/16 14:30:56EDT rjmcgraw
  77:/home/simulink/cFS_FreeRTOS_seL4/cfe/fsw/cfe-core/src/sb/cfe_sb_priv.c **** ** Minor changes to comply with MISRA standard
  78:/home/simulink/cFS_FreeRTOS_seL4/cfe/fsw/cfe-core/src/sb/cfe_sb_priv.c **** ** Revision 1.31 2006/09/01 11:09:51EDT kkaudra
  79:/home/simulink/cFS_FreeRTOS_seL4/cfe/fsw/cfe-core/src/sb/cfe_sb_priv.c **** ** IV&V:Removed cfe_evs.h,cfe_fs.h,cfe_sbp.h
  80:/home/simulink/cFS_FreeRTOS_seL4/cfe/fsw/cfe-core/src/sb/cfe_sb_priv.c **** **
  81:/home/simulink/cFS_FreeRTOS_seL4/cfe/fsw/cfe-core/src/sb/cfe_sb_priv.c **** ******************************************************************************/
  82:/home/simulink/cFS_FreeRTOS_seL4/cfe/fsw/cfe-core/src/sb/cfe_sb_priv.c **** 
  83:/home/simulink/cFS_FreeRTOS_seL4/cfe/fsw/cfe-core/src/sb/cfe_sb_priv.c **** /*
  84:/home/simulink/cFS_FreeRTOS_seL4/cfe/fsw/cfe-core/src/sb/cfe_sb_priv.c **** ** Include Files
  85:/home/simulink/cFS_FreeRTOS_seL4/cfe/fsw/cfe-core/src/sb/cfe_sb_priv.c **** */
  86:/home/simulink/cFS_FreeRTOS_seL4/cfe/fsw/cfe-core/src/sb/cfe_sb_priv.c **** 
  87:/home/simulink/cFS_FreeRTOS_seL4/cfe/fsw/cfe-core/src/sb/cfe_sb_priv.c **** #include "common_types.h"
  88:/home/simulink/cFS_FreeRTOS_seL4/cfe/fsw/cfe-core/src/sb/cfe_sb_priv.c **** #include "osapi.h"
  89:/home/simulink/cFS_FreeRTOS_seL4/cfe/fsw/cfe-core/src/sb/cfe_sb_priv.c **** #include "private/cfe_private.h"
68K GAS   			page 11


  90:/home/simulink/cFS_FreeRTOS_seL4/cfe/fsw/cfe-core/src/sb/cfe_sb_priv.c **** #include "cfe_sb_priv.h"
  91:/home/simulink/cFS_FreeRTOS_seL4/cfe/fsw/cfe-core/src/sb/cfe_sb_priv.c **** #include "cfe_sb.h"
  92:/home/simulink/cFS_FreeRTOS_seL4/cfe/fsw/cfe-core/src/sb/cfe_sb_priv.c **** #include "ccsds.h"
  93:/home/simulink/cFS_FreeRTOS_seL4/cfe/fsw/cfe-core/src/sb/cfe_sb_priv.c **** #include "cfe_error.h"
  94:/home/simulink/cFS_FreeRTOS_seL4/cfe/fsw/cfe-core/src/sb/cfe_sb_priv.c **** #include "cfe_es.h"
  95:/home/simulink/cFS_FreeRTOS_seL4/cfe/fsw/cfe-core/src/sb/cfe_sb_priv.c **** #include <string.h>
  96:/home/simulink/cFS_FreeRTOS_seL4/cfe/fsw/cfe-core/src/sb/cfe_sb_priv.c **** 
  97:/home/simulink/cFS_FreeRTOS_seL4/cfe/fsw/cfe-core/src/sb/cfe_sb_priv.c **** 
  98:/home/simulink/cFS_FreeRTOS_seL4/cfe/fsw/cfe-core/src/sb/cfe_sb_priv.c **** /******************************************************************************
  99:/home/simulink/cFS_FreeRTOS_seL4/cfe/fsw/cfe-core/src/sb/cfe_sb_priv.c **** **  Function:  CFE_SB_CleanUpApp()
 100:/home/simulink/cFS_FreeRTOS_seL4/cfe/fsw/cfe-core/src/sb/cfe_sb_priv.c **** **
 101:/home/simulink/cFS_FreeRTOS_seL4/cfe/fsw/cfe-core/src/sb/cfe_sb_priv.c **** **  Purpose:
 102:/home/simulink/cFS_FreeRTOS_seL4/cfe/fsw/cfe-core/src/sb/cfe_sb_priv.c **** **
 103:/home/simulink/cFS_FreeRTOS_seL4/cfe/fsw/cfe-core/src/sb/cfe_sb_priv.c **** **  Arguments:
 104:/home/simulink/cFS_FreeRTOS_seL4/cfe/fsw/cfe-core/src/sb/cfe_sb_priv.c **** **
 105:/home/simulink/cFS_FreeRTOS_seL4/cfe/fsw/cfe-core/src/sb/cfe_sb_priv.c **** **  Return:
 106:/home/simulink/cFS_FreeRTOS_seL4/cfe/fsw/cfe-core/src/sb/cfe_sb_priv.c **** **    None
 107:/home/simulink/cFS_FreeRTOS_seL4/cfe/fsw/cfe-core/src/sb/cfe_sb_priv.c **** */
 108:/home/simulink/cFS_FreeRTOS_seL4/cfe/fsw/cfe-core/src/sb/cfe_sb_priv.c **** int32 CFE_SB_CleanUpApp(uint32 AppId){
  29               	.loc 2 108 0
  30               	.cfi_startproc
  31 000c 598F      	subq.l #4,%sp
  32               	.cfi_def_cfa_offset 8
 109:/home/simulink/cFS_FreeRTOS_seL4/cfe/fsw/cfe-core/src/sb/cfe_sb_priv.c **** 
 110:/home/simulink/cFS_FreeRTOS_seL4/cfe/fsw/cfe-core/src/sb/cfe_sb_priv.c ****   uint32 i;
 111:/home/simulink/cFS_FreeRTOS_seL4/cfe/fsw/cfe-core/src/sb/cfe_sb_priv.c **** 
 112:/home/simulink/cFS_FreeRTOS_seL4/cfe/fsw/cfe-core/src/sb/cfe_sb_priv.c ****   /* loop through the pipe table looking for pipes owned by AppId */
 113:/home/simulink/cFS_FreeRTOS_seL4/cfe/fsw/cfe-core/src/sb/cfe_sb_priv.c ****   for(i=0;i<CFE_SB_MAX_PIPES;i++){
  33               	.loc 2 113 0
  34 000e 4297      	clr.l (%sp)
  35 0010 6062      	jra .L4
  36               	.L6:
 114:/home/simulink/cFS_FreeRTOS_seL4/cfe/fsw/cfe-core/src/sb/cfe_sb_priv.c ****     if((CFE_SB.PipeTbl[i].InUse == CFE_SB_IN_USE)&&
  37               	.loc 2 114 0
  38 0012 2017      	move.l (%sp),%d0
  39 0014 7244      	moveq #68,%d1
  40 0016 4C01 0800 	muls.l %d1,%d0
  41 001a 41F9 0000 	lea CFE_SB+148,%a0
  41      0000 
  42 0020 1030 0800 	move.b (%a0,%d0.l),%d0
  43 0024 1000      	move.b %d0,%d0
  44 0026 0280 0000 	and.l #255,%d0
  44      00FF 
  45 002c 7201      	moveq #1,%d1
  46 002e B280      	cmp.l %d0,%d1
  47 0030 6640      	jne .L5
 115:/home/simulink/cFS_FreeRTOS_seL4/cfe/fsw/cfe-core/src/sb/cfe_sb_priv.c ****        (CFE_SB.PipeTbl[i].AppId == AppId))
  48               	.loc 2 115 0 discriminator 1
  49 0032 2017      	move.l (%sp),%d0
  50 0034 7244      	moveq #68,%d1
  51 0036 4C01 0800 	muls.l %d1,%d0
  52 003a 41F9 0000 	lea CFE_SB+192,%a0
  52      0000 
  53 0040 2030 0800 	move.l (%a0,%d0.l),%d0
 114:/home/simulink/cFS_FreeRTOS_seL4/cfe/fsw/cfe-core/src/sb/cfe_sb_priv.c ****     if((CFE_SB.PipeTbl[i].InUse == CFE_SB_IN_USE)&&
  54               	.loc 2 114 0 discriminator 1
  55 0044 B0AF 0008 	cmp.l 8(%sp),%d0
68K GAS   			page 12


  56 0048 6628      	jne .L5
 116:/home/simulink/cFS_FreeRTOS_seL4/cfe/fsw/cfe-core/src/sb/cfe_sb_priv.c ****     {
 117:/home/simulink/cFS_FreeRTOS_seL4/cfe/fsw/cfe-core/src/sb/cfe_sb_priv.c ****       CFE_SB_DeletePipeWithAppId(CFE_SB.PipeTbl[i].PipeId,AppId);
  57               	.loc 2 117 0
  58 004a 2017      	move.l (%sp),%d0
  59 004c 7244      	moveq #68,%d1
  60 004e 4C01 0800 	muls.l %d1,%d0
  61 0052 41F9 0000 	lea CFE_SB+149,%a0
  61      0000 
  62 0058 1030 0800 	move.b (%a0,%d0.l),%d0
  63 005c 1000      	move.b %d0,%d0
  64 005e 0280 0000 	and.l #255,%d0
  64      00FF 
  65 0064 2F2F 0008 	move.l 8(%sp),-(%sp)
  66               	.cfi_def_cfa_offset 12
  67 0068 2F00      	move.l %d0,-(%sp)
  68               	.cfi_def_cfa_offset 16
  69 006a 4EB9 0000 	jsr CFE_SB_DeletePipeWithAppId
  69      0000 
  70 0070 508F      	addq.l #8,%sp
  71               	.cfi_def_cfa_offset 8
  72               	.L5:
 113:/home/simulink/cFS_FreeRTOS_seL4/cfe/fsw/cfe-core/src/sb/cfe_sb_priv.c ****     if((CFE_SB.PipeTbl[i].InUse == CFE_SB_IN_USE)&&
  73               	.loc 2 113 0 discriminator 2
  74 0072 5297      	addq.l #1,(%sp)
  75               	.L4:
 113:/home/simulink/cFS_FreeRTOS_seL4/cfe/fsw/cfe-core/src/sb/cfe_sb_priv.c ****     if((CFE_SB.PipeTbl[i].InUse == CFE_SB_IN_USE)&&
  76               	.loc 2 113 0 is_stmt 0 discriminator 1
  77 0074 703F      	moveq #63,%d0
  78 0076 B097      	cmp.l (%sp),%d0
  79 0078 6498      	jcc .L6
 118:/home/simulink/cFS_FreeRTOS_seL4/cfe/fsw/cfe-core/src/sb/cfe_sb_priv.c ****     }/* end if */
 119:/home/simulink/cFS_FreeRTOS_seL4/cfe/fsw/cfe-core/src/sb/cfe_sb_priv.c ****   }/* end for */
 120:/home/simulink/cFS_FreeRTOS_seL4/cfe/fsw/cfe-core/src/sb/cfe_sb_priv.c **** 
 121:/home/simulink/cFS_FreeRTOS_seL4/cfe/fsw/cfe-core/src/sb/cfe_sb_priv.c ****   /* Release any zero copy buffers */
 122:/home/simulink/cFS_FreeRTOS_seL4/cfe/fsw/cfe-core/src/sb/cfe_sb_priv.c ****   CFE_SB_ZeroCopyReleaseAppId(AppId);
  80               	.loc 2 122 0 is_stmt 1
  81 007a 2F2F 0008 	move.l 8(%sp),-(%sp)
  82               	.cfi_def_cfa_offset 12
  83 007e 4EB9 0000 	jsr CFE_SB_ZeroCopyReleaseAppId
  83      0000 
  84 0084 588F      	addq.l #4,%sp
  85               	.cfi_def_cfa_offset 8
 123:/home/simulink/cFS_FreeRTOS_seL4/cfe/fsw/cfe-core/src/sb/cfe_sb_priv.c **** 
 124:/home/simulink/cFS_FreeRTOS_seL4/cfe/fsw/cfe-core/src/sb/cfe_sb_priv.c ****   return CFE_SUCCESS;
  86               	.loc 2 124 0
  87 0086 4280      	clr.l %d0
 125:/home/simulink/cFS_FreeRTOS_seL4/cfe/fsw/cfe-core/src/sb/cfe_sb_priv.c **** 
 126:/home/simulink/cFS_FreeRTOS_seL4/cfe/fsw/cfe-core/src/sb/cfe_sb_priv.c **** }/* end CFE_SB_CleanUpApp */
  88               	.loc 2 126 0
  89 0088 588F      	addq.l #4,%sp
  90 008a 4E75      	rts
  91               	.cfi_endproc
  92               	.LFE59:
  93               	.sizeCFE_SB_CleanUpApp, .-CFE_SB_CleanUpApp
  94               	.align2
  95               	.globlCFE_SB_GetAvailPipeIdx
68K GAS   			page 13


  96               	.typeCFE_SB_GetAvailPipeIdx, @function
  97               	CFE_SB_GetAvailPipeIdx:
  98               	.LFB60:
 127:/home/simulink/cFS_FreeRTOS_seL4/cfe/fsw/cfe-core/src/sb/cfe_sb_priv.c **** 
 128:/home/simulink/cFS_FreeRTOS_seL4/cfe/fsw/cfe-core/src/sb/cfe_sb_priv.c **** 
 129:/home/simulink/cFS_FreeRTOS_seL4/cfe/fsw/cfe-core/src/sb/cfe_sb_priv.c **** /******************************************************************************
 130:/home/simulink/cFS_FreeRTOS_seL4/cfe/fsw/cfe-core/src/sb/cfe_sb_priv.c **** **  Function:  CFE_SB_GetAvailPipeIdx()
 131:/home/simulink/cFS_FreeRTOS_seL4/cfe/fsw/cfe-core/src/sb/cfe_sb_priv.c **** **
 132:/home/simulink/cFS_FreeRTOS_seL4/cfe/fsw/cfe-core/src/sb/cfe_sb_priv.c **** **  Purpose:
 133:/home/simulink/cFS_FreeRTOS_seL4/cfe/fsw/cfe-core/src/sb/cfe_sb_priv.c **** **    SB internal function to get the next available Pipe descriptor. Typically
 134:/home/simulink/cFS_FreeRTOS_seL4/cfe/fsw/cfe-core/src/sb/cfe_sb_priv.c **** **    called when a pipe is being created.
 135:/home/simulink/cFS_FreeRTOS_seL4/cfe/fsw/cfe-core/src/sb/cfe_sb_priv.c **** **
 136:/home/simulink/cFS_FreeRTOS_seL4/cfe/fsw/cfe-core/src/sb/cfe_sb_priv.c **** **  Arguments:
 137:/home/simulink/cFS_FreeRTOS_seL4/cfe/fsw/cfe-core/src/sb/cfe_sb_priv.c **** **    None
 138:/home/simulink/cFS_FreeRTOS_seL4/cfe/fsw/cfe-core/src/sb/cfe_sb_priv.c **** **
 139:/home/simulink/cFS_FreeRTOS_seL4/cfe/fsw/cfe-core/src/sb/cfe_sb_priv.c **** **  Return:
 140:/home/simulink/cFS_FreeRTOS_seL4/cfe/fsw/cfe-core/src/sb/cfe_sb_priv.c **** **    Returns the index of an empty pipe descriptor (which is also the PipeId)
 141:/home/simulink/cFS_FreeRTOS_seL4/cfe/fsw/cfe-core/src/sb/cfe_sb_priv.c **** **    or CFE_SB_INVALID_PIPE if there are no pipe descriptors available.
 142:/home/simulink/cFS_FreeRTOS_seL4/cfe/fsw/cfe-core/src/sb/cfe_sb_priv.c **** */
 143:/home/simulink/cFS_FreeRTOS_seL4/cfe/fsw/cfe-core/src/sb/cfe_sb_priv.c **** CFE_SB_PipeId_t CFE_SB_GetAvailPipeIdx(void){
  99               	.loc 2 143 0
 100               	.cfi_startproc
 101 008c 598F      	subq.l #4,%sp
 102               	.cfi_def_cfa_offset 8
 144:/home/simulink/cFS_FreeRTOS_seL4/cfe/fsw/cfe-core/src/sb/cfe_sb_priv.c **** 
 145:/home/simulink/cFS_FreeRTOS_seL4/cfe/fsw/cfe-core/src/sb/cfe_sb_priv.c ****     uint8 i;
 146:/home/simulink/cFS_FreeRTOS_seL4/cfe/fsw/cfe-core/src/sb/cfe_sb_priv.c **** 
 147:/home/simulink/cFS_FreeRTOS_seL4/cfe/fsw/cfe-core/src/sb/cfe_sb_priv.c ****     /* search for next available pipe entry */
 148:/home/simulink/cFS_FreeRTOS_seL4/cfe/fsw/cfe-core/src/sb/cfe_sb_priv.c ****     for(i=0;i<CFE_SB_MAX_PIPES;i++){
 103               	.loc 2 148 0
 104 008e 4200      	clr.b %d0
 105 0090 1F40 0003 	move.b %d0,3(%sp)
 106 0094 602A      	jra .L9
 107               	.L12:
 149:/home/simulink/cFS_FreeRTOS_seL4/cfe/fsw/cfe-core/src/sb/cfe_sb_priv.c **** 
 150:/home/simulink/cFS_FreeRTOS_seL4/cfe/fsw/cfe-core/src/sb/cfe_sb_priv.c ****         if(CFE_SB.PipeTbl[i].InUse == CFE_SB_NOT_IN_USE){
 108               	.loc 2 150 0
 109 0096 4280      	clr.l %d0
 110 0098 102F 0003 	move.b 3(%sp),%d0
 111 009c 7244      	moveq #68,%d1
 112 009e 4C01 0800 	muls.l %d1,%d0
 113 00a2 41F9 0000 	lea CFE_SB+148,%a0
 113      0000 
 114 00a8 1030 0800 	move.b (%a0,%d0.l),%d0
 115 00ac 4A00      	tst.b %d0
 116 00ae 6606      	jne .L10
 151:/home/simulink/cFS_FreeRTOS_seL4/cfe/fsw/cfe-core/src/sb/cfe_sb_priv.c ****             return i;
 117               	.loc 2 151 0
 118 00b0 102F 0003 	move.b 3(%sp),%d0
 119 00b4 6018      	jra .L11
 120               	.L10:
 148:/home/simulink/cFS_FreeRTOS_seL4/cfe/fsw/cfe-core/src/sb/cfe_sb_priv.c **** 
 121               	.loc 2 148 0 discriminator 2
 122 00b6 102F 0003 	move.b 3(%sp),%d0
 123 00ba 5280      	addq.l #1,%d0
 124 00bc 1F40 0003 	move.b %d0,3(%sp)
 125               	.L9:
68K GAS   			page 14


 148:/home/simulink/cFS_FreeRTOS_seL4/cfe/fsw/cfe-core/src/sb/cfe_sb_priv.c **** 
 126               	.loc 2 148 0 is_stmt 0 discriminator 1
 127 00c0 4280      	clr.l %d0
 128 00c2 102F 0003 	move.b 3(%sp),%d0
 129 00c6 723F      	moveq #63,%d1
 130 00c8 B280      	cmp.l %d0,%d1
 131 00ca 64CA      	jcc .L12
 152:/home/simulink/cFS_FreeRTOS_seL4/cfe/fsw/cfe-core/src/sb/cfe_sb_priv.c ****         }/* end if */
 153:/home/simulink/cFS_FreeRTOS_seL4/cfe/fsw/cfe-core/src/sb/cfe_sb_priv.c **** 
 154:/home/simulink/cFS_FreeRTOS_seL4/cfe/fsw/cfe-core/src/sb/cfe_sb_priv.c ****     }/* end for */
 155:/home/simulink/cFS_FreeRTOS_seL4/cfe/fsw/cfe-core/src/sb/cfe_sb_priv.c **** 
 156:/home/simulink/cFS_FreeRTOS_seL4/cfe/fsw/cfe-core/src/sb/cfe_sb_priv.c ****     return CFE_SB_INVALID_PIPE;
 132               	.loc 2 156 0 is_stmt 1
 133 00cc 50C0      	st %d0
 134               	.L11:
 157:/home/simulink/cFS_FreeRTOS_seL4/cfe/fsw/cfe-core/src/sb/cfe_sb_priv.c **** 
 158:/home/simulink/cFS_FreeRTOS_seL4/cfe/fsw/cfe-core/src/sb/cfe_sb_priv.c **** }/* end CFE_SB_GetAvailPipeIdx */
 135               	.loc 2 158 0
 136 00ce 588F      	addq.l #4,%sp
 137 00d0 4E75      	rts
 138               	.cfi_endproc
 139               	.LFE60:
 140               	.sizeCFE_SB_GetAvailPipeIdx, .-CFE_SB_GetAvailPipeIdx
 141               	.align2
 142               	.globlCFE_SB_GetAvailRoutingIdx
 143               	.typeCFE_SB_GetAvailRoutingIdx, @function
 144               	CFE_SB_GetAvailRoutingIdx:
 145               	.LFB61:
 159:/home/simulink/cFS_FreeRTOS_seL4/cfe/fsw/cfe-core/src/sb/cfe_sb_priv.c **** 
 160:/home/simulink/cFS_FreeRTOS_seL4/cfe/fsw/cfe-core/src/sb/cfe_sb_priv.c **** 
 161:/home/simulink/cFS_FreeRTOS_seL4/cfe/fsw/cfe-core/src/sb/cfe_sb_priv.c **** /******************************************************************************
 162:/home/simulink/cFS_FreeRTOS_seL4/cfe/fsw/cfe-core/src/sb/cfe_sb_priv.c **** **  Function:  CFE_SB_GetAvailRoutingIdx()
 163:/home/simulink/cFS_FreeRTOS_seL4/cfe/fsw/cfe-core/src/sb/cfe_sb_priv.c **** **
 164:/home/simulink/cFS_FreeRTOS_seL4/cfe/fsw/cfe-core/src/sb/cfe_sb_priv.c **** **  Purpose:
 165:/home/simulink/cFS_FreeRTOS_seL4/cfe/fsw/cfe-core/src/sb/cfe_sb_priv.c **** **    SB internal function to get the next available Routing Table element
 166:/home/simulink/cFS_FreeRTOS_seL4/cfe/fsw/cfe-core/src/sb/cfe_sb_priv.c **** **    (CFE_SB_RouteEntry_t). Typically called when an application subscribes
 167:/home/simulink/cFS_FreeRTOS_seL4/cfe/fsw/cfe-core/src/sb/cfe_sb_priv.c **** **    to a message.
 168:/home/simulink/cFS_FreeRTOS_seL4/cfe/fsw/cfe-core/src/sb/cfe_sb_priv.c **** **
 169:/home/simulink/cFS_FreeRTOS_seL4/cfe/fsw/cfe-core/src/sb/cfe_sb_priv.c **** **  Arguments:
 170:/home/simulink/cFS_FreeRTOS_seL4/cfe/fsw/cfe-core/src/sb/cfe_sb_priv.c **** **    None
 171:/home/simulink/cFS_FreeRTOS_seL4/cfe/fsw/cfe-core/src/sb/cfe_sb_priv.c **** **
 172:/home/simulink/cFS_FreeRTOS_seL4/cfe/fsw/cfe-core/src/sb/cfe_sb_priv.c **** **  Return:
 173:/home/simulink/cFS_FreeRTOS_seL4/cfe/fsw/cfe-core/src/sb/cfe_sb_priv.c **** **    Returns the index of an empty Routing Table element or
 174:/home/simulink/cFS_FreeRTOS_seL4/cfe/fsw/cfe-core/src/sb/cfe_sb_priv.c **** **    CFE_SB_NO_ROUTING_IDX if there are no more elements available.
 175:/home/simulink/cFS_FreeRTOS_seL4/cfe/fsw/cfe-core/src/sb/cfe_sb_priv.c **** */
 176:/home/simulink/cFS_FreeRTOS_seL4/cfe/fsw/cfe-core/src/sb/cfe_sb_priv.c **** uint16 CFE_SB_GetAvailRoutingIdx(void){
 146               	.loc 2 176 0
 147               	.cfi_startproc
 148 00d2 598F      	subq.l #4,%sp
 149               	.cfi_def_cfa_offset 8
 177:/home/simulink/cFS_FreeRTOS_seL4/cfe/fsw/cfe-core/src/sb/cfe_sb_priv.c **** 
 178:/home/simulink/cFS_FreeRTOS_seL4/cfe/fsw/cfe-core/src/sb/cfe_sb_priv.c ****     uint16 i;
 179:/home/simulink/cFS_FreeRTOS_seL4/cfe/fsw/cfe-core/src/sb/cfe_sb_priv.c **** 
 180:/home/simulink/cFS_FreeRTOS_seL4/cfe/fsw/cfe-core/src/sb/cfe_sb_priv.c ****     /* search for next available routing table entry */
 181:/home/simulink/cFS_FreeRTOS_seL4/cfe/fsw/cfe-core/src/sb/cfe_sb_priv.c ****     for(i=0;i<CFE_SB_MAX_MSG_IDS;i++){
 150               	.loc 2 181 0
 151 00d4 4240      	clr.w %d0
68K GAS   			page 15


 152 00d6 3F40 0002 	move.w %d0,2(%sp)
 153 00da 6036      	jra .L14
 154               	.L17:
 182:/home/simulink/cFS_FreeRTOS_seL4/cfe/fsw/cfe-core/src/sb/cfe_sb_priv.c **** 
 183:/home/simulink/cFS_FreeRTOS_seL4/cfe/fsw/cfe-core/src/sb/cfe_sb_priv.c ****         if(CFE_SB.RoutingTbl[i].MsgId == CFE_SB_INVALID_MSG_ID){
 155               	.loc 2 183 0
 156 00dc 4280      	clr.l %d0
 157 00de 302F 0002 	move.w 2(%sp),%d0
 158 00e2 720C      	moveq #12,%d1
 159 00e4 4C01 0800 	muls.l %d1,%d0
 160 00e8 41F9 0000 	lea CFE_SB+545808,%a0
 160      0000 
 161 00ee 3030 0800 	move.w (%a0,%d0.l),%d0
 162 00f2 3000      	move.w %d0,%d0
 163 00f4 0280 0000 	and.l #65535,%d0
 163      FFFF 
 164 00fa 0C80 0000 	cmp.l #65535,%d0
 164      FFFF 
 165 0100 6606      	jne .L15
 184:/home/simulink/cFS_FreeRTOS_seL4/cfe/fsw/cfe-core/src/sb/cfe_sb_priv.c ****             return i;
 166               	.loc 2 184 0
 167 0102 302F 0002 	move.w 2(%sp),%d0
 168 0106 601A      	jra .L16
 169               	.L15:
 181:/home/simulink/cFS_FreeRTOS_seL4/cfe/fsw/cfe-core/src/sb/cfe_sb_priv.c **** 
 170               	.loc 2 181 0 discriminator 2
 171 0108 302F 0002 	move.w 2(%sp),%d0
 172 010c 5280      	addq.l #1,%d0
 173 010e 3F40 0002 	move.w %d0,2(%sp)
 174               	.L14:
 181:/home/simulink/cFS_FreeRTOS_seL4/cfe/fsw/cfe-core/src/sb/cfe_sb_priv.c **** 
 175               	.loc 2 181 0 is_stmt 0 discriminator 1
 176 0112 4280      	clr.l %d0
 177 0114 302F 0002 	move.w 2(%sp),%d0
 178 0118 0C80 0000 	cmp.l #255,%d0
 178      00FF 
 179 011e 63BC      	jls .L17
 185:/home/simulink/cFS_FreeRTOS_seL4/cfe/fsw/cfe-core/src/sb/cfe_sb_priv.c ****         }/* end if */
 186:/home/simulink/cFS_FreeRTOS_seL4/cfe/fsw/cfe-core/src/sb/cfe_sb_priv.c **** 
 187:/home/simulink/cFS_FreeRTOS_seL4/cfe/fsw/cfe-core/src/sb/cfe_sb_priv.c ****     }/* end for */
 188:/home/simulink/cFS_FreeRTOS_seL4/cfe/fsw/cfe-core/src/sb/cfe_sb_priv.c **** 
 189:/home/simulink/cFS_FreeRTOS_seL4/cfe/fsw/cfe-core/src/sb/cfe_sb_priv.c ****     /* error event indicating no more entries available */
 190:/home/simulink/cFS_FreeRTOS_seL4/cfe/fsw/cfe-core/src/sb/cfe_sb_priv.c ****     return CFE_SB_NO_ROUTING_IDX;
 180               	.loc 2 190 0 is_stmt 1
 181 0120 70FF      	moveq #-1,%d0
 182               	.L16:
 191:/home/simulink/cFS_FreeRTOS_seL4/cfe/fsw/cfe-core/src/sb/cfe_sb_priv.c **** 
 192:/home/simulink/cFS_FreeRTOS_seL4/cfe/fsw/cfe-core/src/sb/cfe_sb_priv.c **** }/* end CFE_SB_GetAvailRoutingIdx */
 183               	.loc 2 192 0
 184 0122 588F      	addq.l #4,%sp
 185 0124 4E75      	rts
 186               	.cfi_endproc
 187               	.LFE61:
 188               	.sizeCFE_SB_GetAvailRoutingIdx, .-CFE_SB_GetAvailRoutingIdx
 189               	.align2
 190               	.globlCFE_SB_GetPipeIdx
 191               	.typeCFE_SB_GetPipeIdx, @function
68K GAS   			page 16


 192               	CFE_SB_GetPipeIdx:
 193               	.LFB62:
 193:/home/simulink/cFS_FreeRTOS_seL4/cfe/fsw/cfe-core/src/sb/cfe_sb_priv.c **** 
 194:/home/simulink/cFS_FreeRTOS_seL4/cfe/fsw/cfe-core/src/sb/cfe_sb_priv.c **** 
 195:/home/simulink/cFS_FreeRTOS_seL4/cfe/fsw/cfe-core/src/sb/cfe_sb_priv.c **** /******************************************************************************
 196:/home/simulink/cFS_FreeRTOS_seL4/cfe/fsw/cfe-core/src/sb/cfe_sb_priv.c **** **  Function:  CFE_SB_GetPipeIdx()
 197:/home/simulink/cFS_FreeRTOS_seL4/cfe/fsw/cfe-core/src/sb/cfe_sb_priv.c **** **
 198:/home/simulink/cFS_FreeRTOS_seL4/cfe/fsw/cfe-core/src/sb/cfe_sb_priv.c **** **  Purpose:
 199:/home/simulink/cFS_FreeRTOS_seL4/cfe/fsw/cfe-core/src/sb/cfe_sb_priv.c **** **    SB internal function to get the pipe table index for the given pipe id.
 200:/home/simulink/cFS_FreeRTOS_seL4/cfe/fsw/cfe-core/src/sb/cfe_sb_priv.c **** **
 201:/home/simulink/cFS_FreeRTOS_seL4/cfe/fsw/cfe-core/src/sb/cfe_sb_priv.c **** **  Arguments:
 202:/home/simulink/cFS_FreeRTOS_seL4/cfe/fsw/cfe-core/src/sb/cfe_sb_priv.c **** **    PipeId
 203:/home/simulink/cFS_FreeRTOS_seL4/cfe/fsw/cfe-core/src/sb/cfe_sb_priv.c **** **
 204:/home/simulink/cFS_FreeRTOS_seL4/cfe/fsw/cfe-core/src/sb/cfe_sb_priv.c **** **  Return:
 205:/home/simulink/cFS_FreeRTOS_seL4/cfe/fsw/cfe-core/src/sb/cfe_sb_priv.c **** **    Returns the pipe table index of the given pipe id or CFE_SB_INVALID_PIPE if
 206:/home/simulink/cFS_FreeRTOS_seL4/cfe/fsw/cfe-core/src/sb/cfe_sb_priv.c **** *     there was not an entry for the given pipe id.
 207:/home/simulink/cFS_FreeRTOS_seL4/cfe/fsw/cfe-core/src/sb/cfe_sb_priv.c **** */
 208:/home/simulink/cFS_FreeRTOS_seL4/cfe/fsw/cfe-core/src/sb/cfe_sb_priv.c **** uint8 CFE_SB_GetPipeIdx(CFE_SB_PipeId_t PipeId){
 194               	.loc 2 208 0
 195               	.cfi_startproc
 196 0126 518F      	subq.l #8,%sp
 197               	.cfi_def_cfa_offset 12
 198 0128 202F 000C 	move.l 12(%sp),%d0
 199 012c 1000      	move.b %d0,%d0
 200 012e 1E80      	move.b %d0,(%sp)
 209:/home/simulink/cFS_FreeRTOS_seL4/cfe/fsw/cfe-core/src/sb/cfe_sb_priv.c **** 
 210:/home/simulink/cFS_FreeRTOS_seL4/cfe/fsw/cfe-core/src/sb/cfe_sb_priv.c ****     uint8  i;
 211:/home/simulink/cFS_FreeRTOS_seL4/cfe/fsw/cfe-core/src/sb/cfe_sb_priv.c **** 
 212:/home/simulink/cFS_FreeRTOS_seL4/cfe/fsw/cfe-core/src/sb/cfe_sb_priv.c ****     /* search the pipe table for the for the given pipe id */
 213:/home/simulink/cFS_FreeRTOS_seL4/cfe/fsw/cfe-core/src/sb/cfe_sb_priv.c ****     for(i=0;i<CFE_SB_MAX_PIPES;i++){
 201               	.loc 2 213 0
 202 0130 4200      	clr.b %d0
 203 0132 1F40 0007 	move.b %d0,7(%sp)
 204 0136 605A      	jra .L19
 205               	.L22:
 214:/home/simulink/cFS_FreeRTOS_seL4/cfe/fsw/cfe-core/src/sb/cfe_sb_priv.c **** 
 215:/home/simulink/cFS_FreeRTOS_seL4/cfe/fsw/cfe-core/src/sb/cfe_sb_priv.c ****         if((CFE_SB.PipeTbl[i].PipeId == PipeId)&&(CFE_SB.PipeTbl[i].InUse == 1)){
 206               	.loc 2 215 0
 207 0138 4280      	clr.l %d0
 208 013a 102F 0007 	move.b 7(%sp),%d0
 209 013e 7244      	moveq #68,%d1
 210 0140 4C01 0800 	muls.l %d1,%d0
 211 0144 41F9 0000 	lea CFE_SB+149,%a0
 211      0000 
 212 014a 1030 0800 	move.b (%a0,%d0.l),%d0
 213 014e 4281      	clr.l %d1
 214 0150 1217      	move.b (%sp),%d1
 215 0152 1000      	move.b %d0,%d0
 216 0154 0280 0000 	and.l #255,%d0
 216      00FF 
 217 015a B081      	cmp.l %d1,%d0
 218 015c 662A      	jne .L20
 219               	.loc 2 215 0 is_stmt 0 discriminator 1
 220 015e 4280      	clr.l %d0
 221 0160 102F 0007 	move.b 7(%sp),%d0
 222 0164 7244      	moveq #68,%d1
 223 0166 4C01 0800 	muls.l %d1,%d0
68K GAS   			page 17


 224 016a 41F9 0000 	lea CFE_SB+148,%a0
 224      0000 
 225 0170 1030 0800 	move.b (%a0,%d0.l),%d0
 226 0174 1000      	move.b %d0,%d0
 227 0176 0280 0000 	and.l #255,%d0
 227      00FF 
 228 017c 7201      	moveq #1,%d1
 229 017e B280      	cmp.l %d0,%d1
 230 0180 6606      	jne .L20
 216:/home/simulink/cFS_FreeRTOS_seL4/cfe/fsw/cfe-core/src/sb/cfe_sb_priv.c ****             return i;
 231               	.loc 2 216 0 is_stmt 1
 232 0182 102F 0007 	move.b 7(%sp),%d0
 233 0186 6018      	jra .L21
 234               	.L20:
 213:/home/simulink/cFS_FreeRTOS_seL4/cfe/fsw/cfe-core/src/sb/cfe_sb_priv.c **** 
 235               	.loc 2 213 0 discriminator 2
 236 0188 102F 0007 	move.b 7(%sp),%d0
 237 018c 5280      	addq.l #1,%d0
 238 018e 1F40 0007 	move.b %d0,7(%sp)
 239               	.L19:
 213:/home/simulink/cFS_FreeRTOS_seL4/cfe/fsw/cfe-core/src/sb/cfe_sb_priv.c **** 
 240               	.loc 2 213 0 is_stmt 0 discriminator 1
 241 0192 4280      	clr.l %d0
 242 0194 102F 0007 	move.b 7(%sp),%d0
 243 0198 723F      	moveq #63,%d1
 244 019a B280      	cmp.l %d0,%d1
 245 019c 649A      	jcc .L22
 217:/home/simulink/cFS_FreeRTOS_seL4/cfe/fsw/cfe-core/src/sb/cfe_sb_priv.c ****         }/* end if */
 218:/home/simulink/cFS_FreeRTOS_seL4/cfe/fsw/cfe-core/src/sb/cfe_sb_priv.c **** 
 219:/home/simulink/cFS_FreeRTOS_seL4/cfe/fsw/cfe-core/src/sb/cfe_sb_priv.c ****     }/* end for */
 220:/home/simulink/cFS_FreeRTOS_seL4/cfe/fsw/cfe-core/src/sb/cfe_sb_priv.c **** 
 221:/home/simulink/cFS_FreeRTOS_seL4/cfe/fsw/cfe-core/src/sb/cfe_sb_priv.c ****     return CFE_SB_INVALID_PIPE;
 246               	.loc 2 221 0 is_stmt 1
 247 019e 50C0      	st %d0
 248               	.L21:
 222:/home/simulink/cFS_FreeRTOS_seL4/cfe/fsw/cfe-core/src/sb/cfe_sb_priv.c **** 
 223:/home/simulink/cFS_FreeRTOS_seL4/cfe/fsw/cfe-core/src/sb/cfe_sb_priv.c **** }/* end CFE_SB_GetPipeIdx */
 249               	.loc 2 223 0
 250 01a0 508F      	addq.l #8,%sp
 251 01a2 4E75      	rts
 252               	.cfi_endproc
 253               	.LFE62:
 254               	.sizeCFE_SB_GetPipeIdx, .-CFE_SB_GetPipeIdx
 255               	.section.rodata
 256               	.LC0:
 257 0000 5342 2053 	.string"SB SharedData Mutex Take Err Stat=0x%x,App=%d,Func=%s,Line=%d\n"
 257      6861 7265 
 257      6444 6174 
 257      6120 4D75 
 257      7465 7820 
 258               	.text
 259               	.align2
 260               	.globlCFE_SB_LockSharedData
 261               	.typeCFE_SB_LockSharedData, @function
 262               	CFE_SB_LockSharedData:
 263               	.LFB63:
 224:/home/simulink/cFS_FreeRTOS_seL4/cfe/fsw/cfe-core/src/sb/cfe_sb_priv.c **** 
68K GAS   			page 18


 225:/home/simulink/cFS_FreeRTOS_seL4/cfe/fsw/cfe-core/src/sb/cfe_sb_priv.c **** 
 226:/home/simulink/cFS_FreeRTOS_seL4/cfe/fsw/cfe-core/src/sb/cfe_sb_priv.c **** /******************************************************************************
 227:/home/simulink/cFS_FreeRTOS_seL4/cfe/fsw/cfe-core/src/sb/cfe_sb_priv.c **** **  Function:  CFE_SB_LockSharedData()
 228:/home/simulink/cFS_FreeRTOS_seL4/cfe/fsw/cfe-core/src/sb/cfe_sb_priv.c **** **
 229:/home/simulink/cFS_FreeRTOS_seL4/cfe/fsw/cfe-core/src/sb/cfe_sb_priv.c **** **  Purpose:
 230:/home/simulink/cFS_FreeRTOS_seL4/cfe/fsw/cfe-core/src/sb/cfe_sb_priv.c **** **    SB internal function to handle a semaphore take failure for the Shared
 231:/home/simulink/cFS_FreeRTOS_seL4/cfe/fsw/cfe-core/src/sb/cfe_sb_priv.c **** **    Data Mutex
 232:/home/simulink/cFS_FreeRTOS_seL4/cfe/fsw/cfe-core/src/sb/cfe_sb_priv.c **** **
 233:/home/simulink/cFS_FreeRTOS_seL4/cfe/fsw/cfe-core/src/sb/cfe_sb_priv.c **** **  Arguments:
 234:/home/simulink/cFS_FreeRTOS_seL4/cfe/fsw/cfe-core/src/sb/cfe_sb_priv.c **** **    FuncName   - the function name containing the code that generated the error.
 235:/home/simulink/cFS_FreeRTOS_seL4/cfe/fsw/cfe-core/src/sb/cfe_sb_priv.c **** **    LineNumber - the line number in the file of the code that generated the error.
 236:/home/simulink/cFS_FreeRTOS_seL4/cfe/fsw/cfe-core/src/sb/cfe_sb_priv.c **** **
 237:/home/simulink/cFS_FreeRTOS_seL4/cfe/fsw/cfe-core/src/sb/cfe_sb_priv.c **** **  Return:
 238:/home/simulink/cFS_FreeRTOS_seL4/cfe/fsw/cfe-core/src/sb/cfe_sb_priv.c **** **    None
 239:/home/simulink/cFS_FreeRTOS_seL4/cfe/fsw/cfe-core/src/sb/cfe_sb_priv.c **** */
 240:/home/simulink/cFS_FreeRTOS_seL4/cfe/fsw/cfe-core/src/sb/cfe_sb_priv.c **** void CFE_SB_LockSharedData(const char *FuncName, int32 LineNumber){
 264               	.loc 2 240 0
 265               	.cfi_startproc
 266 01a4 518F      	subq.l #8,%sp
 267               	.cfi_def_cfa_offset 12
 241:/home/simulink/cFS_FreeRTOS_seL4/cfe/fsw/cfe-core/src/sb/cfe_sb_priv.c **** 
 242:/home/simulink/cFS_FreeRTOS_seL4/cfe/fsw/cfe-core/src/sb/cfe_sb_priv.c ****     int32   Status;
 243:/home/simulink/cFS_FreeRTOS_seL4/cfe/fsw/cfe-core/src/sb/cfe_sb_priv.c ****     uint32  AppId = 0xFFFFFFFF;
 268               	.loc 2 243 0
 269 01a6 2EBC FFFF 	move.l #-1,(%sp)
 269      FFFF 
 244:/home/simulink/cFS_FreeRTOS_seL4/cfe/fsw/cfe-core/src/sb/cfe_sb_priv.c **** 
 245:/home/simulink/cFS_FreeRTOS_seL4/cfe/fsw/cfe-core/src/sb/cfe_sb_priv.c ****     Status = OS_MutSemTake(CFE_SB.SharedDataMutexId);
 270               	.loc 2 245 0
 271 01ac 2039 0000 	move.l CFE_SB,%d0
 271      0000 
 272 01b2 2F00      	move.l %d0,-(%sp)
 273               	.cfi_def_cfa_offset 16
 274 01b4 4EB9 0000 	jsr OS_MutSemTake
 274      0000 
 275 01ba 588F      	addq.l #4,%sp
 276               	.cfi_def_cfa_offset 12
 277 01bc 2F40 0004 	move.l %d0,4(%sp)
 246:/home/simulink/cFS_FreeRTOS_seL4/cfe/fsw/cfe-core/src/sb/cfe_sb_priv.c ****     if (Status != OS_SUCCESS) {
 278               	.loc 2 246 0
 279 01c0 4AAF 0004 	tst.l 4(%sp)
 280 01c4 6732      	jeq .L26
 247:/home/simulink/cFS_FreeRTOS_seL4/cfe/fsw/cfe-core/src/sb/cfe_sb_priv.c **** 
 248:/home/simulink/cFS_FreeRTOS_seL4/cfe/fsw/cfe-core/src/sb/cfe_sb_priv.c ****         CFE_ES_GetAppID(&AppId);
 281               	.loc 2 248 0
 282 01c6 200F      	move.l %sp,%d0
 283 01c8 2F00      	move.l %d0,-(%sp)
 284               	.cfi_def_cfa_offset 16
 285 01ca 4EB9 0000 	jsr CFE_ES_GetAppID
 285      0000 
 286 01d0 588F      	addq.l #4,%sp
 287               	.cfi_def_cfa_offset 12
 249:/home/simulink/cFS_FreeRTOS_seL4/cfe/fsw/cfe-core/src/sb/cfe_sb_priv.c **** 
 250:/home/simulink/cFS_FreeRTOS_seL4/cfe/fsw/cfe-core/src/sb/cfe_sb_priv.c ****         CFE_ES_WriteToSysLog("SB SharedData Mutex Take Err Stat=0x%x,App=%d,Func=%s,Line=%d\n",
 288               	.loc 2 250 0
 289 01d2 2017      	move.l (%sp),%d0
 290 01d4 2200      	move.l %d0,%d1
68K GAS   			page 19


 291 01d6 202F 0004 	move.l 4(%sp),%d0
 292 01da 2F2F 0010 	move.l 16(%sp),-(%sp)
 293               	.cfi_def_cfa_offset 16
 294 01de 2F2F 0010 	move.l 16(%sp),-(%sp)
 295               	.cfi_def_cfa_offset 20
 296 01e2 2F01      	move.l %d1,-(%sp)
 297               	.cfi_def_cfa_offset 24
 298 01e4 2F00      	move.l %d0,-(%sp)
 299               	.cfi_def_cfa_offset 28
 300 01e6 4879 0000 	pea .LC0
 300      0000 
 301               	.cfi_def_cfa_offset 32
 302 01ec 4EB9 0000 	jsr CFE_ES_WriteToSysLog
 302      0000 
 303 01f2 4FEF 0014 	lea (20,%sp),%sp
 304               	.cfi_def_cfa_offset 12
 251:/home/simulink/cFS_FreeRTOS_seL4/cfe/fsw/cfe-core/src/sb/cfe_sb_priv.c ****                 (unsigned int)Status,(int)AppId,FuncName,(int)LineNumber);
 252:/home/simulink/cFS_FreeRTOS_seL4/cfe/fsw/cfe-core/src/sb/cfe_sb_priv.c **** 
 253:/home/simulink/cFS_FreeRTOS_seL4/cfe/fsw/cfe-core/src/sb/cfe_sb_priv.c ****     }/* end if */
 254:/home/simulink/cFS_FreeRTOS_seL4/cfe/fsw/cfe-core/src/sb/cfe_sb_priv.c **** 
 255:/home/simulink/cFS_FreeRTOS_seL4/cfe/fsw/cfe-core/src/sb/cfe_sb_priv.c ****     return;
 305               	.loc 2 255 0
 306 01f6 4E71      	nop
 307               	.L26:
 308 01f8 4E71      	nop
 256:/home/simulink/cFS_FreeRTOS_seL4/cfe/fsw/cfe-core/src/sb/cfe_sb_priv.c **** 
 257:/home/simulink/cFS_FreeRTOS_seL4/cfe/fsw/cfe-core/src/sb/cfe_sb_priv.c **** }/* end CFE_SB_LockSharedData */
 309               	.loc 2 257 0
 310 01fa 508F      	addq.l #8,%sp
 311 01fc 4E75      	rts
 312               	.cfi_endproc
 313               	.LFE63:
 314               	.sizeCFE_SB_LockSharedData, .-CFE_SB_LockSharedData
 315               	.section.rodata
 316               	.LC1:
 317 003f 5342 2053 	.string"SB SharedData Mutex Give Err Stat=0x%x,App=%d,Func=%s,Line=%d\n"
 317      6861 7265 
 317      6444 6174 
 317      6120 4D75 
 317      7465 7820 
 318               	.text
 319               	.align2
 320               	.globlCFE_SB_UnlockSharedData
 321               	.typeCFE_SB_UnlockSharedData, @function
 322               	CFE_SB_UnlockSharedData:
 323               	.LFB64:
 258:/home/simulink/cFS_FreeRTOS_seL4/cfe/fsw/cfe-core/src/sb/cfe_sb_priv.c **** 
 259:/home/simulink/cFS_FreeRTOS_seL4/cfe/fsw/cfe-core/src/sb/cfe_sb_priv.c **** 
 260:/home/simulink/cFS_FreeRTOS_seL4/cfe/fsw/cfe-core/src/sb/cfe_sb_priv.c **** 
 261:/home/simulink/cFS_FreeRTOS_seL4/cfe/fsw/cfe-core/src/sb/cfe_sb_priv.c **** /******************************************************************************
 262:/home/simulink/cFS_FreeRTOS_seL4/cfe/fsw/cfe-core/src/sb/cfe_sb_priv.c **** **  Function:  CFE_SB_UnlockSharedData()
 263:/home/simulink/cFS_FreeRTOS_seL4/cfe/fsw/cfe-core/src/sb/cfe_sb_priv.c **** **
 264:/home/simulink/cFS_FreeRTOS_seL4/cfe/fsw/cfe-core/src/sb/cfe_sb_priv.c **** **  Purpose:
 265:/home/simulink/cFS_FreeRTOS_seL4/cfe/fsw/cfe-core/src/sb/cfe_sb_priv.c **** **    SB internal function to handle a semaphore give failure  for the Shared
 266:/home/simulink/cFS_FreeRTOS_seL4/cfe/fsw/cfe-core/src/sb/cfe_sb_priv.c **** **    Data Mutex
 267:/home/simulink/cFS_FreeRTOS_seL4/cfe/fsw/cfe-core/src/sb/cfe_sb_priv.c **** **
 268:/home/simulink/cFS_FreeRTOS_seL4/cfe/fsw/cfe-core/src/sb/cfe_sb_priv.c **** **  Arguments:
68K GAS   			page 20


 269:/home/simulink/cFS_FreeRTOS_seL4/cfe/fsw/cfe-core/src/sb/cfe_sb_priv.c **** **    FuncName   - the function name containing the code that generated the error.
 270:/home/simulink/cFS_FreeRTOS_seL4/cfe/fsw/cfe-core/src/sb/cfe_sb_priv.c **** **    LineNumber - the line number in the file of the code that generated the error.
 271:/home/simulink/cFS_FreeRTOS_seL4/cfe/fsw/cfe-core/src/sb/cfe_sb_priv.c **** **
 272:/home/simulink/cFS_FreeRTOS_seL4/cfe/fsw/cfe-core/src/sb/cfe_sb_priv.c **** **  Return:
 273:/home/simulink/cFS_FreeRTOS_seL4/cfe/fsw/cfe-core/src/sb/cfe_sb_priv.c **** **    None
 274:/home/simulink/cFS_FreeRTOS_seL4/cfe/fsw/cfe-core/src/sb/cfe_sb_priv.c **** */
 275:/home/simulink/cFS_FreeRTOS_seL4/cfe/fsw/cfe-core/src/sb/cfe_sb_priv.c **** void CFE_SB_UnlockSharedData(const char *FuncName, int32 LineNumber){
 324               	.loc 2 275 0
 325               	.cfi_startproc
 326 01fe 518F      	subq.l #8,%sp
 327               	.cfi_def_cfa_offset 12
 276:/home/simulink/cFS_FreeRTOS_seL4/cfe/fsw/cfe-core/src/sb/cfe_sb_priv.c **** 
 277:/home/simulink/cFS_FreeRTOS_seL4/cfe/fsw/cfe-core/src/sb/cfe_sb_priv.c ****    int32   Status;
 278:/home/simulink/cFS_FreeRTOS_seL4/cfe/fsw/cfe-core/src/sb/cfe_sb_priv.c ****    uint32  AppId = 0xFFFFFFFF;
 328               	.loc 2 278 0
 329 0200 2EBC FFFF 	move.l #-1,(%sp)
 329      FFFF 
 279:/home/simulink/cFS_FreeRTOS_seL4/cfe/fsw/cfe-core/src/sb/cfe_sb_priv.c **** 
 280:/home/simulink/cFS_FreeRTOS_seL4/cfe/fsw/cfe-core/src/sb/cfe_sb_priv.c ****     Status = OS_MutSemGive(CFE_SB.SharedDataMutexId);
 330               	.loc 2 280 0
 331 0206 2039 0000 	move.l CFE_SB,%d0
 331      0000 
 332 020c 2F00      	move.l %d0,-(%sp)
 333               	.cfi_def_cfa_offset 16
 334 020e 4EB9 0000 	jsr OS_MutSemGive
 334      0000 
 335 0214 588F      	addq.l #4,%sp
 336               	.cfi_def_cfa_offset 12
 337 0216 2F40 0004 	move.l %d0,4(%sp)
 281:/home/simulink/cFS_FreeRTOS_seL4/cfe/fsw/cfe-core/src/sb/cfe_sb_priv.c ****     if (Status != OS_SUCCESS) {
 338               	.loc 2 281 0
 339 021a 4AAF 0004 	tst.l 4(%sp)
 340 021e 6732      	jeq .L30
 282:/home/simulink/cFS_FreeRTOS_seL4/cfe/fsw/cfe-core/src/sb/cfe_sb_priv.c **** 
 283:/home/simulink/cFS_FreeRTOS_seL4/cfe/fsw/cfe-core/src/sb/cfe_sb_priv.c ****         CFE_ES_GetAppID(&AppId);
 341               	.loc 2 283 0
 342 0220 200F      	move.l %sp,%d0
 343 0222 2F00      	move.l %d0,-(%sp)
 344               	.cfi_def_cfa_offset 16
 345 0224 4EB9 0000 	jsr CFE_ES_GetAppID
 345      0000 
 346 022a 588F      	addq.l #4,%sp
 347               	.cfi_def_cfa_offset 12
 284:/home/simulink/cFS_FreeRTOS_seL4/cfe/fsw/cfe-core/src/sb/cfe_sb_priv.c **** 
 285:/home/simulink/cFS_FreeRTOS_seL4/cfe/fsw/cfe-core/src/sb/cfe_sb_priv.c ****         CFE_ES_WriteToSysLog("SB SharedData Mutex Give Err Stat=0x%x,App=%d,Func=%s,Line=%d\n",
 348               	.loc 2 285 0
 349 022c 2017      	move.l (%sp),%d0
 350 022e 2200      	move.l %d0,%d1
 351 0230 202F 0004 	move.l 4(%sp),%d0
 352 0234 2F2F 0010 	move.l 16(%sp),-(%sp)
 353               	.cfi_def_cfa_offset 16
 354 0238 2F2F 0010 	move.l 16(%sp),-(%sp)
 355               	.cfi_def_cfa_offset 20
 356 023c 2F01      	move.l %d1,-(%sp)
 357               	.cfi_def_cfa_offset 24
 358 023e 2F00      	move.l %d0,-(%sp)
 359               	.cfi_def_cfa_offset 28
68K GAS   			page 21


 360 0240 4879 0000 	pea .LC1
 360      0000 
 361               	.cfi_def_cfa_offset 32
 362 0246 4EB9 0000 	jsr CFE_ES_WriteToSysLog
 362      0000 
 363 024c 4FEF 0014 	lea (20,%sp),%sp
 364               	.cfi_def_cfa_offset 12
 286:/home/simulink/cFS_FreeRTOS_seL4/cfe/fsw/cfe-core/src/sb/cfe_sb_priv.c ****                 (unsigned int)Status,(int)AppId,FuncName,(int)LineNumber);
 287:/home/simulink/cFS_FreeRTOS_seL4/cfe/fsw/cfe-core/src/sb/cfe_sb_priv.c **** 
 288:/home/simulink/cFS_FreeRTOS_seL4/cfe/fsw/cfe-core/src/sb/cfe_sb_priv.c ****     }/* end if */
 289:/home/simulink/cFS_FreeRTOS_seL4/cfe/fsw/cfe-core/src/sb/cfe_sb_priv.c **** 
 290:/home/simulink/cFS_FreeRTOS_seL4/cfe/fsw/cfe-core/src/sb/cfe_sb_priv.c ****     return;
 365               	.loc 2 290 0
 366 0250 4E71      	nop
 367               	.L30:
 368 0252 4E71      	nop
 291:/home/simulink/cFS_FreeRTOS_seL4/cfe/fsw/cfe-core/src/sb/cfe_sb_priv.c **** 
 292:/home/simulink/cFS_FreeRTOS_seL4/cfe/fsw/cfe-core/src/sb/cfe_sb_priv.c **** }/* end CFE_SB_UnlockSharedData */
 369               	.loc 2 292 0
 370 0254 508F      	addq.l #8,%sp
 371 0256 4E75      	rts
 372               	.cfi_endproc
 373               	.LFE64:
 374               	.sizeCFE_SB_UnlockSharedData, .-CFE_SB_UnlockSharedData
 375               	.align2
 376               	.globlCFE_SB_GetPipePtr
 377               	.typeCFE_SB_GetPipePtr, @function
 378               	CFE_SB_GetPipePtr:
 379               	.LFB65:
 293:/home/simulink/cFS_FreeRTOS_seL4/cfe/fsw/cfe-core/src/sb/cfe_sb_priv.c **** 
 294:/home/simulink/cFS_FreeRTOS_seL4/cfe/fsw/cfe-core/src/sb/cfe_sb_priv.c **** 
 295:/home/simulink/cFS_FreeRTOS_seL4/cfe/fsw/cfe-core/src/sb/cfe_sb_priv.c **** /******************************************************************************
 296:/home/simulink/cFS_FreeRTOS_seL4/cfe/fsw/cfe-core/src/sb/cfe_sb_priv.c **** **  Function:  CFE_SB_GetPipePtr()
 297:/home/simulink/cFS_FreeRTOS_seL4/cfe/fsw/cfe-core/src/sb/cfe_sb_priv.c **** **
 298:/home/simulink/cFS_FreeRTOS_seL4/cfe/fsw/cfe-core/src/sb/cfe_sb_priv.c **** **  Purpose:
 299:/home/simulink/cFS_FreeRTOS_seL4/cfe/fsw/cfe-core/src/sb/cfe_sb_priv.c **** **    SB internal function to get a pointer to the pipe descriptor associated
 300:/home/simulink/cFS_FreeRTOS_seL4/cfe/fsw/cfe-core/src/sb/cfe_sb_priv.c **** **    with the given pipe id.
 301:/home/simulink/cFS_FreeRTOS_seL4/cfe/fsw/cfe-core/src/sb/cfe_sb_priv.c **** **
 302:/home/simulink/cFS_FreeRTOS_seL4/cfe/fsw/cfe-core/src/sb/cfe_sb_priv.c **** **  Arguments:
 303:/home/simulink/cFS_FreeRTOS_seL4/cfe/fsw/cfe-core/src/sb/cfe_sb_priv.c **** **    PipeId
 304:/home/simulink/cFS_FreeRTOS_seL4/cfe/fsw/cfe-core/src/sb/cfe_sb_priv.c **** **
 305:/home/simulink/cFS_FreeRTOS_seL4/cfe/fsw/cfe-core/src/sb/cfe_sb_priv.c **** **  Return:
 306:/home/simulink/cFS_FreeRTOS_seL4/cfe/fsw/cfe-core/src/sb/cfe_sb_priv.c **** **    Pointer to the descriptor for the pipe.  If the pipe ID is not valid,
 307:/home/simulink/cFS_FreeRTOS_seL4/cfe/fsw/cfe-core/src/sb/cfe_sb_priv.c **** **    a NULL pointer is returned.
 308:/home/simulink/cFS_FreeRTOS_seL4/cfe/fsw/cfe-core/src/sb/cfe_sb_priv.c **** */
 309:/home/simulink/cFS_FreeRTOS_seL4/cfe/fsw/cfe-core/src/sb/cfe_sb_priv.c **** 
 310:/home/simulink/cFS_FreeRTOS_seL4/cfe/fsw/cfe-core/src/sb/cfe_sb_priv.c **** CFE_SB_PipeD_t *CFE_SB_GetPipePtr(CFE_SB_PipeId_t PipeId) {
 380               	.loc 2 310 0
 381               	.cfi_startproc
 382 0258 598F      	subq.l #4,%sp
 383               	.cfi_def_cfa_offset 8
 384 025a 202F 0008 	move.l 8(%sp),%d0
 385 025e 1000      	move.b %d0,%d0
 386 0260 1E80      	move.b %d0,(%sp)
 311:/home/simulink/cFS_FreeRTOS_seL4/cfe/fsw/cfe-core/src/sb/cfe_sb_priv.c **** 
 312:/home/simulink/cFS_FreeRTOS_seL4/cfe/fsw/cfe-core/src/sb/cfe_sb_priv.c ****    /*
 313:/home/simulink/cFS_FreeRTOS_seL4/cfe/fsw/cfe-core/src/sb/cfe_sb_priv.c ****    ** Verify that the pipeId is in the valid range and being used.
68K GAS   			page 22


 314:/home/simulink/cFS_FreeRTOS_seL4/cfe/fsw/cfe-core/src/sb/cfe_sb_priv.c ****    ** If so, return the pointer to the pipe descriptor.
 315:/home/simulink/cFS_FreeRTOS_seL4/cfe/fsw/cfe-core/src/sb/cfe_sb_priv.c ****    */
 316:/home/simulink/cFS_FreeRTOS_seL4/cfe/fsw/cfe-core/src/sb/cfe_sb_priv.c **** 
 317:/home/simulink/cFS_FreeRTOS_seL4/cfe/fsw/cfe-core/src/sb/cfe_sb_priv.c ****     if(CFE_SB_ValidatePipeId(PipeId) != CFE_SUCCESS){
 387               	.loc 2 317 0
 388 0262 4280      	clr.l %d0
 389 0264 1017      	move.b (%sp),%d0
 390 0266 2F00      	move.l %d0,-(%sp)
 391               	.cfi_def_cfa_offset 12
 392 0268 4EB9 0000 	jsr CFE_SB_ValidatePipeId
 392      0000 
 393 026e 588F      	addq.l #4,%sp
 394               	.cfi_def_cfa_offset 8
 395 0270 4A80      	tst.l %d0
 396 0272 6704      	jeq .L32
 318:/home/simulink/cFS_FreeRTOS_seL4/cfe/fsw/cfe-core/src/sb/cfe_sb_priv.c ****         return NULL;
 397               	.loc 2 318 0
 398 0274 4280      	clr.l %d0
 399 0276 6016      	jra .L33
 400               	.L32:
 319:/home/simulink/cFS_FreeRTOS_seL4/cfe/fsw/cfe-core/src/sb/cfe_sb_priv.c ****     }else{
 320:/home/simulink/cFS_FreeRTOS_seL4/cfe/fsw/cfe-core/src/sb/cfe_sb_priv.c ****         return &CFE_SB.PipeTbl[PipeId];
 401               	.loc 2 320 0
 402 0278 4280      	clr.l %d0
 403 027a 1017      	move.b (%sp),%d0
 404 027c 7244      	moveq #68,%d1
 405 027e 4C01 0800 	muls.l %d1,%d0
 406 0282 0680 0000 	add.l #148,%d0
 406      0094 
 407 0288 0680 0000 	add.l #CFE_SB,%d0
 407      0000 
 408               	.L33:
 321:/home/simulink/cFS_FreeRTOS_seL4/cfe/fsw/cfe-core/src/sb/cfe_sb_priv.c ****     }/* end if */
 322:/home/simulink/cFS_FreeRTOS_seL4/cfe/fsw/cfe-core/src/sb/cfe_sb_priv.c **** 
 323:/home/simulink/cFS_FreeRTOS_seL4/cfe/fsw/cfe-core/src/sb/cfe_sb_priv.c **** }/* end CFE_SB_GetPipePtr */
 409               	.loc 2 323 0
 410 028e 588F      	addq.l #4,%sp
 411 0290 4E75      	rts
 412               	.cfi_endproc
 413               	.LFE65:
 414               	.sizeCFE_SB_GetPipePtr, .-CFE_SB_GetPipePtr
 415               	.align2
 416               	.globlCFE_SB_GetDestPtr
 417               	.typeCFE_SB_GetDestPtr, @function
 418               	CFE_SB_GetDestPtr:
 419               	.LFB66:
 324:/home/simulink/cFS_FreeRTOS_seL4/cfe/fsw/cfe-core/src/sb/cfe_sb_priv.c **** 
 325:/home/simulink/cFS_FreeRTOS_seL4/cfe/fsw/cfe-core/src/sb/cfe_sb_priv.c **** 
 326:/home/simulink/cFS_FreeRTOS_seL4/cfe/fsw/cfe-core/src/sb/cfe_sb_priv.c **** 
 327:/home/simulink/cFS_FreeRTOS_seL4/cfe/fsw/cfe-core/src/sb/cfe_sb_priv.c **** /******************************************************************************
 328:/home/simulink/cFS_FreeRTOS_seL4/cfe/fsw/cfe-core/src/sb/cfe_sb_priv.c **** **  Function:  CFE_SB_GetDestPtr()
 329:/home/simulink/cFS_FreeRTOS_seL4/cfe/fsw/cfe-core/src/sb/cfe_sb_priv.c **** **
 330:/home/simulink/cFS_FreeRTOS_seL4/cfe/fsw/cfe-core/src/sb/cfe_sb_priv.c **** **  Purpose:
 331:/home/simulink/cFS_FreeRTOS_seL4/cfe/fsw/cfe-core/src/sb/cfe_sb_priv.c **** **    SB internal function to get a pointer to the destination descriptor
 332:/home/simulink/cFS_FreeRTOS_seL4/cfe/fsw/cfe-core/src/sb/cfe_sb_priv.c **** **    associated with the given message id/pipe id combination.
 333:/home/simulink/cFS_FreeRTOS_seL4/cfe/fsw/cfe-core/src/sb/cfe_sb_priv.c **** **
 334:/home/simulink/cFS_FreeRTOS_seL4/cfe/fsw/cfe-core/src/sb/cfe_sb_priv.c **** **  Arguments:
68K GAS   			page 23


 335:/home/simulink/cFS_FreeRTOS_seL4/cfe/fsw/cfe-core/src/sb/cfe_sb_priv.c **** **    MsgId  : ID of the message
 336:/home/simulink/cFS_FreeRTOS_seL4/cfe/fsw/cfe-core/src/sb/cfe_sb_priv.c **** **    PipeId : Pipe ID for the destination.
 337:/home/simulink/cFS_FreeRTOS_seL4/cfe/fsw/cfe-core/src/sb/cfe_sb_priv.c **** **
 338:/home/simulink/cFS_FreeRTOS_seL4/cfe/fsw/cfe-core/src/sb/cfe_sb_priv.c **** **  Return:
 339:/home/simulink/cFS_FreeRTOS_seL4/cfe/fsw/cfe-core/src/sb/cfe_sb_priv.c **** **    Pointer to the destination descriptor that corresponds to the msg/pipe
 340:/home/simulink/cFS_FreeRTOS_seL4/cfe/fsw/cfe-core/src/sb/cfe_sb_priv.c **** **    combination. If the destination does not exist, return NULL.
 341:/home/simulink/cFS_FreeRTOS_seL4/cfe/fsw/cfe-core/src/sb/cfe_sb_priv.c **** */
 342:/home/simulink/cFS_FreeRTOS_seL4/cfe/fsw/cfe-core/src/sb/cfe_sb_priv.c **** CFE_SB_DestinationD_t  *CFE_SB_GetDestPtr(CFE_SB_MsgId_t MsgId,
 343:/home/simulink/cFS_FreeRTOS_seL4/cfe/fsw/cfe-core/src/sb/cfe_sb_priv.c ****                                           CFE_SB_PipeId_t PipeId){
 420               	.loc 2 343 0
 421               	.cfi_startproc
 422 0292 4FEF FFF0 	lea (-16,%sp),%sp
 423               	.cfi_def_cfa_offset 20
 424 0296 222F 0014 	move.l 20(%sp),%d1
 425 029a 202F 0018 	move.l 24(%sp),%d0
 426 029e 3201      	move.w %d1,%d1
 427 02a0 3F41 0004 	move.w %d1,4(%sp)
 428 02a4 1000      	move.b %d0,%d0
 429 02a6 1E80      	move.b %d0,(%sp)
 344:/home/simulink/cFS_FreeRTOS_seL4/cfe/fsw/cfe-core/src/sb/cfe_sb_priv.c **** 
 345:/home/simulink/cFS_FreeRTOS_seL4/cfe/fsw/cfe-core/src/sb/cfe_sb_priv.c ****     uint16                  Idx;
 346:/home/simulink/cFS_FreeRTOS_seL4/cfe/fsw/cfe-core/src/sb/cfe_sb_priv.c ****     CFE_SB_DestinationD_t   *DestPtr;
 347:/home/simulink/cFS_FreeRTOS_seL4/cfe/fsw/cfe-core/src/sb/cfe_sb_priv.c **** 
 348:/home/simulink/cFS_FreeRTOS_seL4/cfe/fsw/cfe-core/src/sb/cfe_sb_priv.c ****     Idx = CFE_SB_GetRoutingTblIdx(MsgId);
 430               	.loc 2 348 0
 431 02a8 4280      	clr.l %d0
 432 02aa 302F 0004 	move.w 4(%sp),%d0
 433 02ae 2F00      	move.l %d0,-(%sp)
 434               	.cfi_def_cfa_offset 24
 435 02b0 4EB9 0000 	jsr CFE_SB_GetRoutingTblIdx
 435      0000 
 436 02b6 588F      	addq.l #4,%sp
 437               	.cfi_def_cfa_offset 20
 438 02b8 3F40 000A 	move.w %d0,10(%sp)
 349:/home/simulink/cFS_FreeRTOS_seL4/cfe/fsw/cfe-core/src/sb/cfe_sb_priv.c **** 
 350:/home/simulink/cFS_FreeRTOS_seL4/cfe/fsw/cfe-core/src/sb/cfe_sb_priv.c ****     if(Idx==CFE_SB_AVAILABLE){
 439               	.loc 2 350 0
 440 02bc 4280      	clr.l %d0
 441 02be 302F 000A 	move.w 10(%sp),%d0
 442 02c2 0C80 0000 	cmp.l #65535,%d0
 442      FFFF 
 443 02c8 6604      	jne .L35
 351:/home/simulink/cFS_FreeRTOS_seL4/cfe/fsw/cfe-core/src/sb/cfe_sb_priv.c ****         return NULL;
 444               	.loc 2 351 0
 445 02ca 4280      	clr.l %d0
 446 02cc 604A      	jra .L36
 447               	.L35:
 352:/home/simulink/cFS_FreeRTOS_seL4/cfe/fsw/cfe-core/src/sb/cfe_sb_priv.c ****     }/* end if */
 353:/home/simulink/cFS_FreeRTOS_seL4/cfe/fsw/cfe-core/src/sb/cfe_sb_priv.c **** 
 354:/home/simulink/cFS_FreeRTOS_seL4/cfe/fsw/cfe-core/src/sb/cfe_sb_priv.c ****     DestPtr = CFE_SB.RoutingTbl[Idx].ListHeadPtr;
 448               	.loc 2 354 0
 449 02ce 4280      	clr.l %d0
 450 02d0 302F 000A 	move.w 10(%sp),%d0
 451 02d4 720C      	moveq #12,%d1
 452 02d6 4C01 0800 	muls.l %d1,%d0
 453 02da 41F9 0000 	lea CFE_SB+545816,%a0
 453      0000 
68K GAS   			page 24


 454 02e0 43F0 0800 	lea (%a0,%d0.l),%a1
 455 02e4 2F51 000C 	move.l (%a1),12(%sp)
 355:/home/simulink/cFS_FreeRTOS_seL4/cfe/fsw/cfe-core/src/sb/cfe_sb_priv.c **** 
 356:/home/simulink/cFS_FreeRTOS_seL4/cfe/fsw/cfe-core/src/sb/cfe_sb_priv.c ****     while(DestPtr != NULL){
 456               	.loc 2 356 0
 457 02e8 6026      	jra .L37
 458               	.L39:
 357:/home/simulink/cFS_FreeRTOS_seL4/cfe/fsw/cfe-core/src/sb/cfe_sb_priv.c **** 
 358:/home/simulink/cFS_FreeRTOS_seL4/cfe/fsw/cfe-core/src/sb/cfe_sb_priv.c ****         if(DestPtr -> PipeId == PipeId){
 459               	.loc 2 358 0
 460 02ea 206F 000C 	move.l 12(%sp),%a0
 461 02ee 1010      	move.b (%a0),%d0
 462 02f0 4281      	clr.l %d1
 463 02f2 1217      	move.b (%sp),%d1
 464 02f4 1000      	move.b %d0,%d0
 465 02f6 0280 0000 	and.l #255,%d0
 465      00FF 
 466 02fc B081      	cmp.l %d1,%d0
 467 02fe 6606      	jne .L38
 359:/home/simulink/cFS_FreeRTOS_seL4/cfe/fsw/cfe-core/src/sb/cfe_sb_priv.c ****             return DestPtr;
 468               	.loc 2 359 0
 469 0300 202F 000C 	move.l 12(%sp),%d0
 470 0304 6012      	jra .L36
 471               	.L38:
 360:/home/simulink/cFS_FreeRTOS_seL4/cfe/fsw/cfe-core/src/sb/cfe_sb_priv.c ****         }/* end if */
 361:/home/simulink/cFS_FreeRTOS_seL4/cfe/fsw/cfe-core/src/sb/cfe_sb_priv.c **** 
 362:/home/simulink/cFS_FreeRTOS_seL4/cfe/fsw/cfe-core/src/sb/cfe_sb_priv.c ****         DestPtr = DestPtr->Next;
 472               	.loc 2 362 0
 473 0306 206F 000C 	move.l 12(%sp),%a0
 474 030a 2F68 0010 	move.l 16(%a0),12(%sp)
 474      000C 
 475               	.L37:
 356:/home/simulink/cFS_FreeRTOS_seL4/cfe/fsw/cfe-core/src/sb/cfe_sb_priv.c **** 
 476               	.loc 2 356 0
 477 0310 4AAF 000C 	tst.l 12(%sp)
 478 0314 66D4      	jne .L39
 363:/home/simulink/cFS_FreeRTOS_seL4/cfe/fsw/cfe-core/src/sb/cfe_sb_priv.c **** 
 364:/home/simulink/cFS_FreeRTOS_seL4/cfe/fsw/cfe-core/src/sb/cfe_sb_priv.c ****     }/* end while */
 365:/home/simulink/cFS_FreeRTOS_seL4/cfe/fsw/cfe-core/src/sb/cfe_sb_priv.c **** 
 366:/home/simulink/cFS_FreeRTOS_seL4/cfe/fsw/cfe-core/src/sb/cfe_sb_priv.c ****     return NULL;
 479               	.loc 2 366 0
 480 0316 4280      	clr.l %d0
 481               	.L36:
 367:/home/simulink/cFS_FreeRTOS_seL4/cfe/fsw/cfe-core/src/sb/cfe_sb_priv.c **** 
 368:/home/simulink/cFS_FreeRTOS_seL4/cfe/fsw/cfe-core/src/sb/cfe_sb_priv.c **** }/* end CFE_SB_GetDestPtr */
 482               	.loc 2 368 0
 483 0318 4FEF 0010 	lea (16,%sp),%sp
 484 031c 4E75      	rts
 485               	.cfi_endproc
 486               	.LFE66:
 487               	.sizeCFE_SB_GetDestPtr, .-CFE_SB_GetDestPtr
 488               	.align2
 489               	.globlCFE_SB_GetRoutingTblIdx
 490               	.typeCFE_SB_GetRoutingTblIdx, @function
 491               	CFE_SB_GetRoutingTblIdx:
 492               	.LFB67:
 369:/home/simulink/cFS_FreeRTOS_seL4/cfe/fsw/cfe-core/src/sb/cfe_sb_priv.c **** 
68K GAS   			page 25


 370:/home/simulink/cFS_FreeRTOS_seL4/cfe/fsw/cfe-core/src/sb/cfe_sb_priv.c **** 
 371:/home/simulink/cFS_FreeRTOS_seL4/cfe/fsw/cfe-core/src/sb/cfe_sb_priv.c **** 
 372:/home/simulink/cFS_FreeRTOS_seL4/cfe/fsw/cfe-core/src/sb/cfe_sb_priv.c **** /******************************************************************************
 373:/home/simulink/cFS_FreeRTOS_seL4/cfe/fsw/cfe-core/src/sb/cfe_sb_priv.c **** **  Function:  CFE_SB_GetRoutingTblIdx()
 374:/home/simulink/cFS_FreeRTOS_seL4/cfe/fsw/cfe-core/src/sb/cfe_sb_priv.c **** **
 375:/home/simulink/cFS_FreeRTOS_seL4/cfe/fsw/cfe-core/src/sb/cfe_sb_priv.c **** **  Purpose:
 376:/home/simulink/cFS_FreeRTOS_seL4/cfe/fsw/cfe-core/src/sb/cfe_sb_priv.c **** **    SB internal function to get the index of the routing table element
 377:/home/simulink/cFS_FreeRTOS_seL4/cfe/fsw/cfe-core/src/sb/cfe_sb_priv.c **** **    associated with the given message id.
 378:/home/simulink/cFS_FreeRTOS_seL4/cfe/fsw/cfe-core/src/sb/cfe_sb_priv.c **** **
 379:/home/simulink/cFS_FreeRTOS_seL4/cfe/fsw/cfe-core/src/sb/cfe_sb_priv.c **** **  Arguments:
 380:/home/simulink/cFS_FreeRTOS_seL4/cfe/fsw/cfe-core/src/sb/cfe_sb_priv.c **** **    MsgId  : ID of the message
 381:/home/simulink/cFS_FreeRTOS_seL4/cfe/fsw/cfe-core/src/sb/cfe_sb_priv.c **** **    PipeId : Pipe ID for the destination.
 382:/home/simulink/cFS_FreeRTOS_seL4/cfe/fsw/cfe-core/src/sb/cfe_sb_priv.c **** **
 383:/home/simulink/cFS_FreeRTOS_seL4/cfe/fsw/cfe-core/src/sb/cfe_sb_priv.c **** **  Return:
 384:/home/simulink/cFS_FreeRTOS_seL4/cfe/fsw/cfe-core/src/sb/cfe_sb_priv.c **** **    Will return the index of the routing table element for the given message ID
 385:/home/simulink/cFS_FreeRTOS_seL4/cfe/fsw/cfe-core/src/sb/cfe_sb_priv.c **** **    or 0xFFFF if message does not exist.
 386:/home/simulink/cFS_FreeRTOS_seL4/cfe/fsw/cfe-core/src/sb/cfe_sb_priv.c **** */
 387:/home/simulink/cFS_FreeRTOS_seL4/cfe/fsw/cfe-core/src/sb/cfe_sb_priv.c **** CFE_SB_MsgId_t CFE_SB_GetRoutingTblIdx(CFE_SB_MsgId_t MsgId){
 493               	.loc 2 387 0
 494               	.cfi_startproc
 495 031e 598F      	subq.l #4,%sp
 496               	.cfi_def_cfa_offset 8
 497 0320 202F 0008 	move.l 8(%sp),%d0
 498 0324 3000      	move.w %d0,%d0
 499 0326 3E80      	move.w %d0,(%sp)
 388:/home/simulink/cFS_FreeRTOS_seL4/cfe/fsw/cfe-core/src/sb/cfe_sb_priv.c **** 
 389:/home/simulink/cFS_FreeRTOS_seL4/cfe/fsw/cfe-core/src/sb/cfe_sb_priv.c **** #ifdef MESSAGE_FORMAT_IS_CCSDS
 390:/home/simulink/cFS_FreeRTOS_seL4/cfe/fsw/cfe-core/src/sb/cfe_sb_priv.c **** 
 391:/home/simulink/cFS_FreeRTOS_seL4/cfe/fsw/cfe-core/src/sb/cfe_sb_priv.c ****     /* mask out the ccsds version number to   */
 392:/home/simulink/cFS_FreeRTOS_seL4/cfe/fsw/cfe-core/src/sb/cfe_sb_priv.c ****     /* ensure we don't read beyond end of array */
 393:/home/simulink/cFS_FreeRTOS_seL4/cfe/fsw/cfe-core/src/sb/cfe_sb_priv.c ****     MsgId &= 0x1FFF;
 500               	.loc 2 393 0
 501 0328 3017      	move.w (%sp),%d0
 502 032a 0280 0000 	and.l #8191,%d0
 502      1FFF 
 503 0330 3E80      	move.w %d0,(%sp)
 394:/home/simulink/cFS_FreeRTOS_seL4/cfe/fsw/cfe-core/src/sb/cfe_sb_priv.c **** 
 395:/home/simulink/cFS_FreeRTOS_seL4/cfe/fsw/cfe-core/src/sb/cfe_sb_priv.c ****     return CFE_SB.MsgMap[MsgId];
 504               	.loc 2 395 0
 505 0332 4280      	clr.l %d0
 506 0334 3017      	move.w (%sp),%d0
 507 0336 0680 0004 	add.l #264712,%d0
 507      0A08 
 508 033c D080      	add.l %d0,%d0
 509 033e 41F9 0000 	lea CFE_SB,%a0
 509      0000 
 510 0344 3030 0800 	move.w (%a0,%d0.l),%d0
 396:/home/simulink/cFS_FreeRTOS_seL4/cfe/fsw/cfe-core/src/sb/cfe_sb_priv.c **** #else
 397:/home/simulink/cFS_FreeRTOS_seL4/cfe/fsw/cfe-core/src/sb/cfe_sb_priv.c ****     return 0;
 398:/home/simulink/cFS_FreeRTOS_seL4/cfe/fsw/cfe-core/src/sb/cfe_sb_priv.c **** #endif
 399:/home/simulink/cFS_FreeRTOS_seL4/cfe/fsw/cfe-core/src/sb/cfe_sb_priv.c **** 
 400:/home/simulink/cFS_FreeRTOS_seL4/cfe/fsw/cfe-core/src/sb/cfe_sb_priv.c **** }/* end CFE_SB_GetRoutingTblIdx */
 511               	.loc 2 400 0
 512 0348 588F      	addq.l #4,%sp
 513 034a 4E75      	rts
 514               	.cfi_endproc
 515               	.LFE67:
68K GAS   			page 26


 516               	.sizeCFE_SB_GetRoutingTblIdx, .-CFE_SB_GetRoutingTblIdx
 517               	.align2
 518               	.globlCFE_SB_SetRoutingTblIdx
 519               	.typeCFE_SB_SetRoutingTblIdx, @function
 520               	CFE_SB_SetRoutingTblIdx:
 521               	.LFB68:
 401:/home/simulink/cFS_FreeRTOS_seL4/cfe/fsw/cfe-core/src/sb/cfe_sb_priv.c **** 
 402:/home/simulink/cFS_FreeRTOS_seL4/cfe/fsw/cfe-core/src/sb/cfe_sb_priv.c **** 
 403:/home/simulink/cFS_FreeRTOS_seL4/cfe/fsw/cfe-core/src/sb/cfe_sb_priv.c **** 
 404:/home/simulink/cFS_FreeRTOS_seL4/cfe/fsw/cfe-core/src/sb/cfe_sb_priv.c **** /******************************************************************************
 405:/home/simulink/cFS_FreeRTOS_seL4/cfe/fsw/cfe-core/src/sb/cfe_sb_priv.c **** **  Function:  CFE_SB_SetRoutingTblIdx()
 406:/home/simulink/cFS_FreeRTOS_seL4/cfe/fsw/cfe-core/src/sb/cfe_sb_priv.c **** **
 407:/home/simulink/cFS_FreeRTOS_seL4/cfe/fsw/cfe-core/src/sb/cfe_sb_priv.c **** **  Purpose:
 408:/home/simulink/cFS_FreeRTOS_seL4/cfe/fsw/cfe-core/src/sb/cfe_sb_priv.c **** **    SB internal function to set a value in the message map. The "Value" is
 409:/home/simulink/cFS_FreeRTOS_seL4/cfe/fsw/cfe-core/src/sb/cfe_sb_priv.c **** **    the routing table index of the given message ID. The message map is used
 410:/home/simulink/cFS_FreeRTOS_seL4/cfe/fsw/cfe-core/src/sb/cfe_sb_priv.c **** **    for quick routing table index lookups of a given message ID. The cost of
 411:/home/simulink/cFS_FreeRTOS_seL4/cfe/fsw/cfe-core/src/sb/cfe_sb_priv.c **** **    this quick lookup is 8K bytes of memory(for CCSDS).
 412:/home/simulink/cFS_FreeRTOS_seL4/cfe/fsw/cfe-core/src/sb/cfe_sb_priv.c **** **
 413:/home/simulink/cFS_FreeRTOS_seL4/cfe/fsw/cfe-core/src/sb/cfe_sb_priv.c **** **  Arguments:
 414:/home/simulink/cFS_FreeRTOS_seL4/cfe/fsw/cfe-core/src/sb/cfe_sb_priv.c **** **    MsgId  : ID of the message
 415:/home/simulink/cFS_FreeRTOS_seL4/cfe/fsw/cfe-core/src/sb/cfe_sb_priv.c **** **    Value  : value to set.
 416:/home/simulink/cFS_FreeRTOS_seL4/cfe/fsw/cfe-core/src/sb/cfe_sb_priv.c **** **
 417:/home/simulink/cFS_FreeRTOS_seL4/cfe/fsw/cfe-core/src/sb/cfe_sb_priv.c **** **  Return:
 418:/home/simulink/cFS_FreeRTOS_seL4/cfe/fsw/cfe-core/src/sb/cfe_sb_priv.c **** **    Will return CFE_SUCCESS or CFE_INVALID_MSGID if MsgId is invalid
 419:/home/simulink/cFS_FreeRTOS_seL4/cfe/fsw/cfe-core/src/sb/cfe_sb_priv.c **** */
 420:/home/simulink/cFS_FreeRTOS_seL4/cfe/fsw/cfe-core/src/sb/cfe_sb_priv.c **** int32 CFE_SB_SetRoutingTblIdx(CFE_SB_MsgId_t MsgId, CFE_SB_MsgId_t Value){
 522               	.loc 2 420 0
 523               	.cfi_startproc
 524 034c 518F      	subq.l #8,%sp
 525               	.cfi_def_cfa_offset 12
 526 034e 222F 000C 	move.l 12(%sp),%d1
 527 0352 202F 0010 	move.l 16(%sp),%d0
 528 0356 3201      	move.w %d1,%d1
 529 0358 3F41 0004 	move.w %d1,4(%sp)
 530 035c 3000      	move.w %d0,%d0
 531 035e 3E80      	move.w %d0,(%sp)
 421:/home/simulink/cFS_FreeRTOS_seL4/cfe/fsw/cfe-core/src/sb/cfe_sb_priv.c **** 
 422:/home/simulink/cFS_FreeRTOS_seL4/cfe/fsw/cfe-core/src/sb/cfe_sb_priv.c **** #ifdef MESSAGE_FORMAT_IS_CCSDS
 423:/home/simulink/cFS_FreeRTOS_seL4/cfe/fsw/cfe-core/src/sb/cfe_sb_priv.c **** 
 424:/home/simulink/cFS_FreeRTOS_seL4/cfe/fsw/cfe-core/src/sb/cfe_sb_priv.c ****     /* mask out the ccsds version number to   */
 425:/home/simulink/cFS_FreeRTOS_seL4/cfe/fsw/cfe-core/src/sb/cfe_sb_priv.c ****     /* ensure we don't write beyond end of array */
 426:/home/simulink/cFS_FreeRTOS_seL4/cfe/fsw/cfe-core/src/sb/cfe_sb_priv.c ****     MsgId &= 0x1FFF;
 532               	.loc 2 426 0
 533 0360 302F 0004 	move.w 4(%sp),%d0
 534 0364 0280 0000 	and.l #8191,%d0
 534      1FFF 
 535 036a 3F40 0004 	move.w %d0,4(%sp)
 427:/home/simulink/cFS_FreeRTOS_seL4/cfe/fsw/cfe-core/src/sb/cfe_sb_priv.c **** 
 428:/home/simulink/cFS_FreeRTOS_seL4/cfe/fsw/cfe-core/src/sb/cfe_sb_priv.c ****     CFE_SB.MsgMap[MsgId] = Value;
 536               	.loc 2 428 0
 537 036e 4280      	clr.l %d0
 538 0370 302F 0004 	move.w 4(%sp),%d0
 539 0374 0680 0004 	add.l #264712,%d0
 539      0A08 
 540 037a D080      	add.l %d0,%d0
 541 037c 41F9 0000 	lea CFE_SB,%a0
 541      0000 
68K GAS   			page 27


 542 0382 3197 0800 	move.w (%sp),(%a0,%d0.l)
 429:/home/simulink/cFS_FreeRTOS_seL4/cfe/fsw/cfe-core/src/sb/cfe_sb_priv.c **** 
 430:/home/simulink/cFS_FreeRTOS_seL4/cfe/fsw/cfe-core/src/sb/cfe_sb_priv.c **** #endif
 431:/home/simulink/cFS_FreeRTOS_seL4/cfe/fsw/cfe-core/src/sb/cfe_sb_priv.c **** 
 432:/home/simulink/cFS_FreeRTOS_seL4/cfe/fsw/cfe-core/src/sb/cfe_sb_priv.c ****     return CFE_SUCCESS;
 543               	.loc 2 432 0
 544 0386 4280      	clr.l %d0
 433:/home/simulink/cFS_FreeRTOS_seL4/cfe/fsw/cfe-core/src/sb/cfe_sb_priv.c **** 
 434:/home/simulink/cFS_FreeRTOS_seL4/cfe/fsw/cfe-core/src/sb/cfe_sb_priv.c **** }/* end CFE_SB_SetRoutingTblIdx */
 545               	.loc 2 434 0
 546 0388 508F      	addq.l #8,%sp
 547 038a 4E75      	rts
 548               	.cfi_endproc
 549               	.LFE68:
 550               	.sizeCFE_SB_SetRoutingTblIdx, .-CFE_SB_SetRoutingTblIdx
 551               	.align2
 552               	.globlCFE_SB_GetPipeName
 553               	.typeCFE_SB_GetPipeName, @function
 554               	CFE_SB_GetPipeName:
 555               	.LFB69:
 435:/home/simulink/cFS_FreeRTOS_seL4/cfe/fsw/cfe-core/src/sb/cfe_sb_priv.c **** 
 436:/home/simulink/cFS_FreeRTOS_seL4/cfe/fsw/cfe-core/src/sb/cfe_sb_priv.c **** 
 437:/home/simulink/cFS_FreeRTOS_seL4/cfe/fsw/cfe-core/src/sb/cfe_sb_priv.c **** /******************************************************************************
 438:/home/simulink/cFS_FreeRTOS_seL4/cfe/fsw/cfe-core/src/sb/cfe_sb_priv.c **** **  Function:  CFE_SB_GetPipeName()
 439:/home/simulink/cFS_FreeRTOS_seL4/cfe/fsw/cfe-core/src/sb/cfe_sb_priv.c **** **
 440:/home/simulink/cFS_FreeRTOS_seL4/cfe/fsw/cfe-core/src/sb/cfe_sb_priv.c **** **  Purpose:
 441:/home/simulink/cFS_FreeRTOS_seL4/cfe/fsw/cfe-core/src/sb/cfe_sb_priv.c **** **    SB internal function to get the string of the pipe name of the given
 442:/home/simulink/cFS_FreeRTOS_seL4/cfe/fsw/cfe-core/src/sb/cfe_sb_priv.c **** **    Pipe ID.
 443:/home/simulink/cFS_FreeRTOS_seL4/cfe/fsw/cfe-core/src/sb/cfe_sb_priv.c **** **
 444:/home/simulink/cFS_FreeRTOS_seL4/cfe/fsw/cfe-core/src/sb/cfe_sb_priv.c **** **  Arguments:
 445:/home/simulink/cFS_FreeRTOS_seL4/cfe/fsw/cfe-core/src/sb/cfe_sb_priv.c **** **    MsgId  : ID of the message
 446:/home/simulink/cFS_FreeRTOS_seL4/cfe/fsw/cfe-core/src/sb/cfe_sb_priv.c **** **
 447:/home/simulink/cFS_FreeRTOS_seL4/cfe/fsw/cfe-core/src/sb/cfe_sb_priv.c **** **  Return:
 448:/home/simulink/cFS_FreeRTOS_seL4/cfe/fsw/cfe-core/src/sb/cfe_sb_priv.c **** **    Will return a pointer to the PipeName array in the pipe table if the the pipeid
 449:/home/simulink/cFS_FreeRTOS_seL4/cfe/fsw/cfe-core/src/sb/cfe_sb_priv.c **** **    is in range. Otherwise this function returns a pointer to the
 450:/home/simulink/cFS_FreeRTOS_seL4/cfe/fsw/cfe-core/src/sb/cfe_sb_priv.c **** **    PipeName4ErrCase[0], which is initialized with a null terminator.
 451:/home/simulink/cFS_FreeRTOS_seL4/cfe/fsw/cfe-core/src/sb/cfe_sb_priv.c **** **
 452:/home/simulink/cFS_FreeRTOS_seL4/cfe/fsw/cfe-core/src/sb/cfe_sb_priv.c **** */
 453:/home/simulink/cFS_FreeRTOS_seL4/cfe/fsw/cfe-core/src/sb/cfe_sb_priv.c **** char *CFE_SB_GetPipeName(CFE_SB_PipeId_t PipeId){
 556               	.loc 2 453 0
 557               	.cfi_startproc
 558 038c 598F      	subq.l #4,%sp
 559               	.cfi_def_cfa_offset 8
 560 038e 202F 0008 	move.l 8(%sp),%d0
 561 0392 1000      	move.b %d0,%d0
 562 0394 1E80      	move.b %d0,(%sp)
 454:/home/simulink/cFS_FreeRTOS_seL4/cfe/fsw/cfe-core/src/sb/cfe_sb_priv.c **** 
 455:/home/simulink/cFS_FreeRTOS_seL4/cfe/fsw/cfe-core/src/sb/cfe_sb_priv.c ****     static char PipeName4ErrCase[1] = {'\0'};
 456:/home/simulink/cFS_FreeRTOS_seL4/cfe/fsw/cfe-core/src/sb/cfe_sb_priv.c **** 
 457:/home/simulink/cFS_FreeRTOS_seL4/cfe/fsw/cfe-core/src/sb/cfe_sb_priv.c ****     if(PipeId >= CFE_SB_MAX_PIPES){
 563               	.loc 2 457 0
 564 0396 4280      	clr.l %d0
 565 0398 1017      	move.b (%sp),%d0
 566 039a 723F      	moveq #63,%d1
 567 039c B280      	cmp.l %d0,%d1
 568 039e 6408      	jcc .L45
 458:/home/simulink/cFS_FreeRTOS_seL4/cfe/fsw/cfe-core/src/sb/cfe_sb_priv.c ****         return &PipeName4ErrCase[0];
68K GAS   			page 28


 569               	.loc 2 458 0
 570 03a0 203C 0000 	move.l #PipeName4ErrCase.5646,%d0
 570      0000 
 571 03a6 6018      	jra .L46
 572               	.L45:
 459:/home/simulink/cFS_FreeRTOS_seL4/cfe/fsw/cfe-core/src/sb/cfe_sb_priv.c ****     }else{
 460:/home/simulink/cFS_FreeRTOS_seL4/cfe/fsw/cfe-core/src/sb/cfe_sb_priv.c ****         return &CFE_SB.PipeTbl[PipeId].PipeName[0];
 573               	.loc 2 460 0
 574 03a8 4280      	clr.l %d0
 575 03aa 1017      	move.b (%sp),%d0
 576 03ac 7244      	moveq #68,%d1
 577 03ae 4C01 0800 	muls.l %d1,%d0
 578 03b2 0680 0000 	add.l #148,%d0
 578      0094 
 579 03b8 0680 0000 	add.l #CFE_SB,%d0
 579      0000 
 580 03be 5480      	addq.l #2,%d0
 581               	.L46:
 461:/home/simulink/cFS_FreeRTOS_seL4/cfe/fsw/cfe-core/src/sb/cfe_sb_priv.c ****     }/* end if */
 462:/home/simulink/cFS_FreeRTOS_seL4/cfe/fsw/cfe-core/src/sb/cfe_sb_priv.c **** 
 463:/home/simulink/cFS_FreeRTOS_seL4/cfe/fsw/cfe-core/src/sb/cfe_sb_priv.c **** }/* end CFE_SB_GetPipeName */
 582               	.loc 2 463 0
 583 03c0 588F      	addq.l #4,%sp
 584 03c2 4E75      	rts
 585               	.cfi_endproc
 586               	.LFE69:
 587               	.sizeCFE_SB_GetPipeName, .-CFE_SB_GetPipeName
 588               	.align2
 589               	.globlCFE_SB_DuplicateSubscribeCheck
 590               	.typeCFE_SB_DuplicateSubscribeCheck, @function
 591               	CFE_SB_DuplicateSubscribeCheck:
 592               	.LFB70:
 464:/home/simulink/cFS_FreeRTOS_seL4/cfe/fsw/cfe-core/src/sb/cfe_sb_priv.c **** 
 465:/home/simulink/cFS_FreeRTOS_seL4/cfe/fsw/cfe-core/src/sb/cfe_sb_priv.c **** 
 466:/home/simulink/cFS_FreeRTOS_seL4/cfe/fsw/cfe-core/src/sb/cfe_sb_priv.c **** 
 467:/home/simulink/cFS_FreeRTOS_seL4/cfe/fsw/cfe-core/src/sb/cfe_sb_priv.c **** /******************************************************************************
 468:/home/simulink/cFS_FreeRTOS_seL4/cfe/fsw/cfe-core/src/sb/cfe_sb_priv.c **** **  Function:  CFE_SB_DuplicateSubscribeCheck()
 469:/home/simulink/cFS_FreeRTOS_seL4/cfe/fsw/cfe-core/src/sb/cfe_sb_priv.c **** **
 470:/home/simulink/cFS_FreeRTOS_seL4/cfe/fsw/cfe-core/src/sb/cfe_sb_priv.c **** **  Purpose:
 471:/home/simulink/cFS_FreeRTOS_seL4/cfe/fsw/cfe-core/src/sb/cfe_sb_priv.c **** **    SB internal function to check for a duplicate subscription.
 472:/home/simulink/cFS_FreeRTOS_seL4/cfe/fsw/cfe-core/src/sb/cfe_sb_priv.c **** **
 473:/home/simulink/cFS_FreeRTOS_seL4/cfe/fsw/cfe-core/src/sb/cfe_sb_priv.c **** **  Arguments:
 474:/home/simulink/cFS_FreeRTOS_seL4/cfe/fsw/cfe-core/src/sb/cfe_sb_priv.c **** **    MsgId  : ID of the message
 475:/home/simulink/cFS_FreeRTOS_seL4/cfe/fsw/cfe-core/src/sb/cfe_sb_priv.c **** **    PipeId : ID of the pipe
 476:/home/simulink/cFS_FreeRTOS_seL4/cfe/fsw/cfe-core/src/sb/cfe_sb_priv.c **** **
 477:/home/simulink/cFS_FreeRTOS_seL4/cfe/fsw/cfe-core/src/sb/cfe_sb_priv.c **** **  Return:
 478:/home/simulink/cFS_FreeRTOS_seL4/cfe/fsw/cfe-core/src/sb/cfe_sb_priv.c **** **    Will return CFE_SB_DUPLICATE if the given MsgId/PipeId subscription
 479:/home/simulink/cFS_FreeRTOS_seL4/cfe/fsw/cfe-core/src/sb/cfe_sb_priv.c **** **    exists in SB routing tables, otherwise will return CFE_SB_NO_DUPLICATE.
 480:/home/simulink/cFS_FreeRTOS_seL4/cfe/fsw/cfe-core/src/sb/cfe_sb_priv.c **** */
 481:/home/simulink/cFS_FreeRTOS_seL4/cfe/fsw/cfe-core/src/sb/cfe_sb_priv.c **** int32 CFE_SB_DuplicateSubscribeCheck(CFE_SB_MsgId_t MsgId,
 482:/home/simulink/cFS_FreeRTOS_seL4/cfe/fsw/cfe-core/src/sb/cfe_sb_priv.c ****                                        CFE_SB_PipeId_t PipeId){
 593               	.loc 2 482 0
 594               	.cfi_startproc
 595 03c4 4FEF FFF0 	lea (-16,%sp),%sp
 596               	.cfi_def_cfa_offset 20
 597 03c8 222F 0014 	move.l 20(%sp),%d1
 598 03cc 202F 0018 	move.l 24(%sp),%d0
68K GAS   			page 29


 599 03d0 3201      	move.w %d1,%d1
 600 03d2 3F41 0004 	move.w %d1,4(%sp)
 601 03d6 1000      	move.b %d0,%d0
 602 03d8 1E80      	move.b %d0,(%sp)
 483:/home/simulink/cFS_FreeRTOS_seL4/cfe/fsw/cfe-core/src/sb/cfe_sb_priv.c **** 
 484:/home/simulink/cFS_FreeRTOS_seL4/cfe/fsw/cfe-core/src/sb/cfe_sb_priv.c ****     uint16                  Idx;
 485:/home/simulink/cFS_FreeRTOS_seL4/cfe/fsw/cfe-core/src/sb/cfe_sb_priv.c ****     CFE_SB_DestinationD_t   *DestPtr;
 486:/home/simulink/cFS_FreeRTOS_seL4/cfe/fsw/cfe-core/src/sb/cfe_sb_priv.c **** 
 487:/home/simulink/cFS_FreeRTOS_seL4/cfe/fsw/cfe-core/src/sb/cfe_sb_priv.c ****     Idx = CFE_SB_GetRoutingTblIdx(MsgId);
 603               	.loc 2 487 0
 604 03da 4280      	clr.l %d0
 605 03dc 302F 0004 	move.w 4(%sp),%d0
 606 03e0 2F00      	move.l %d0,-(%sp)
 607               	.cfi_def_cfa_offset 24
 608 03e2 4EB9 0000 	jsr CFE_SB_GetRoutingTblIdx
 608      0000 
 609 03e8 588F      	addq.l #4,%sp
 610               	.cfi_def_cfa_offset 20
 611 03ea 3F40 000A 	move.w %d0,10(%sp)
 488:/home/simulink/cFS_FreeRTOS_seL4/cfe/fsw/cfe-core/src/sb/cfe_sb_priv.c **** 
 489:/home/simulink/cFS_FreeRTOS_seL4/cfe/fsw/cfe-core/src/sb/cfe_sb_priv.c ****     if(Idx==CFE_SB_AVAILABLE){
 612               	.loc 2 489 0
 613 03ee 4280      	clr.l %d0
 614 03f0 302F 000A 	move.w 10(%sp),%d0
 615 03f4 0C80 0000 	cmp.l #65535,%d0
 615      FFFF 
 616 03fa 6604      	jne .L48
 490:/home/simulink/cFS_FreeRTOS_seL4/cfe/fsw/cfe-core/src/sb/cfe_sb_priv.c ****         return CFE_SB_NO_DUPLICATE;
 617               	.loc 2 490 0
 618 03fc 4280      	clr.l %d0
 619 03fe 6048      	jra .L49
 620               	.L48:
 491:/home/simulink/cFS_FreeRTOS_seL4/cfe/fsw/cfe-core/src/sb/cfe_sb_priv.c ****     }/* end if */
 492:/home/simulink/cFS_FreeRTOS_seL4/cfe/fsw/cfe-core/src/sb/cfe_sb_priv.c **** 
 493:/home/simulink/cFS_FreeRTOS_seL4/cfe/fsw/cfe-core/src/sb/cfe_sb_priv.c ****     DestPtr = CFE_SB.RoutingTbl[Idx].ListHeadPtr;
 621               	.loc 2 493 0
 622 0400 4280      	clr.l %d0
 623 0402 302F 000A 	move.w 10(%sp),%d0
 624 0406 720C      	moveq #12,%d1
 625 0408 4C01 0800 	muls.l %d1,%d0
 626 040c 41F9 0000 	lea CFE_SB+545816,%a0
 626      0000 
 627 0412 43F0 0800 	lea (%a0,%d0.l),%a1
 628 0416 2F51 000C 	move.l (%a1),12(%sp)
 494:/home/simulink/cFS_FreeRTOS_seL4/cfe/fsw/cfe-core/src/sb/cfe_sb_priv.c **** 
 495:/home/simulink/cFS_FreeRTOS_seL4/cfe/fsw/cfe-core/src/sb/cfe_sb_priv.c ****     while(DestPtr != NULL){
 629               	.loc 2 495 0
 630 041a 6024      	jra .L50
 631               	.L52:
 496:/home/simulink/cFS_FreeRTOS_seL4/cfe/fsw/cfe-core/src/sb/cfe_sb_priv.c **** 
 497:/home/simulink/cFS_FreeRTOS_seL4/cfe/fsw/cfe-core/src/sb/cfe_sb_priv.c ****         if(DestPtr -> PipeId == PipeId){
 632               	.loc 2 497 0
 633 041c 206F 000C 	move.l 12(%sp),%a0
 634 0420 1010      	move.b (%a0),%d0
 635 0422 4281      	clr.l %d1
 636 0424 1217      	move.b (%sp),%d1
 637 0426 1000      	move.b %d0,%d0
68K GAS   			page 30


 638 0428 0280 0000 	and.l #255,%d0
 638      00FF 
 639 042e B081      	cmp.l %d1,%d0
 640 0430 6604      	jne .L51
 498:/home/simulink/cFS_FreeRTOS_seL4/cfe/fsw/cfe-core/src/sb/cfe_sb_priv.c ****             return CFE_SB_DUPLICATE;
 641               	.loc 2 498 0
 642 0432 7001      	moveq #1,%d0
 643 0434 6012      	jra .L49
 644               	.L51:
 499:/home/simulink/cFS_FreeRTOS_seL4/cfe/fsw/cfe-core/src/sb/cfe_sb_priv.c ****         }/* end if */
 500:/home/simulink/cFS_FreeRTOS_seL4/cfe/fsw/cfe-core/src/sb/cfe_sb_priv.c **** 
 501:/home/simulink/cFS_FreeRTOS_seL4/cfe/fsw/cfe-core/src/sb/cfe_sb_priv.c ****         DestPtr = DestPtr->Next;
 645               	.loc 2 501 0
 646 0436 206F 000C 	move.l 12(%sp),%a0
 647 043a 2F68 0010 	move.l 16(%a0),12(%sp)
 647      000C 
 648               	.L50:
 495:/home/simulink/cFS_FreeRTOS_seL4/cfe/fsw/cfe-core/src/sb/cfe_sb_priv.c **** 
 649               	.loc 2 495 0
 650 0440 4AAF 000C 	tst.l 12(%sp)
 651 0444 66D6      	jne .L52
 502:/home/simulink/cFS_FreeRTOS_seL4/cfe/fsw/cfe-core/src/sb/cfe_sb_priv.c **** 
 503:/home/simulink/cFS_FreeRTOS_seL4/cfe/fsw/cfe-core/src/sb/cfe_sb_priv.c ****     }/* end while */
 504:/home/simulink/cFS_FreeRTOS_seL4/cfe/fsw/cfe-core/src/sb/cfe_sb_priv.c **** 
 505:/home/simulink/cFS_FreeRTOS_seL4/cfe/fsw/cfe-core/src/sb/cfe_sb_priv.c ****     return CFE_SB_NO_DUPLICATE;
 652               	.loc 2 505 0
 653 0446 4280      	clr.l %d0
 654               	.L49:
 506:/home/simulink/cFS_FreeRTOS_seL4/cfe/fsw/cfe-core/src/sb/cfe_sb_priv.c **** 
 507:/home/simulink/cFS_FreeRTOS_seL4/cfe/fsw/cfe-core/src/sb/cfe_sb_priv.c **** }/* end CFE_SB_DuplicateSubscribeCheck */
 655               	.loc 2 507 0
 656 0448 4FEF 0010 	lea (16,%sp),%sp
 657 044c 4E75      	rts
 658               	.cfi_endproc
 659               	.LFE70:
 660               	.sizeCFE_SB_DuplicateSubscribeCheck, .-CFE_SB_DuplicateSubscribeCheck
 661               	.align2
 662               	.globlCFE_SB_SetMsgSeqCnt
 663               	.typeCFE_SB_SetMsgSeqCnt, @function
 664               	CFE_SB_SetMsgSeqCnt:
 665               	.LFB71:
 508:/home/simulink/cFS_FreeRTOS_seL4/cfe/fsw/cfe-core/src/sb/cfe_sb_priv.c **** 
 509:/home/simulink/cFS_FreeRTOS_seL4/cfe/fsw/cfe-core/src/sb/cfe_sb_priv.c **** 
 510:/home/simulink/cFS_FreeRTOS_seL4/cfe/fsw/cfe-core/src/sb/cfe_sb_priv.c **** 
 511:/home/simulink/cFS_FreeRTOS_seL4/cfe/fsw/cfe-core/src/sb/cfe_sb_priv.c **** /******************************************************************************
 512:/home/simulink/cFS_FreeRTOS_seL4/cfe/fsw/cfe-core/src/sb/cfe_sb_priv.c **** **  Function:  CFE_SB_SetMsgSeqCnt()
 513:/home/simulink/cFS_FreeRTOS_seL4/cfe/fsw/cfe-core/src/sb/cfe_sb_priv.c **** **
 514:/home/simulink/cFS_FreeRTOS_seL4/cfe/fsw/cfe-core/src/sb/cfe_sb_priv.c **** **  Purpose:
 515:/home/simulink/cFS_FreeRTOS_seL4/cfe/fsw/cfe-core/src/sb/cfe_sb_priv.c **** **    SB internal function to set the sequence count of a message to a
 516:/home/simulink/cFS_FreeRTOS_seL4/cfe/fsw/cfe-core/src/sb/cfe_sb_priv.c **** **    particular value.
 517:/home/simulink/cFS_FreeRTOS_seL4/cfe/fsw/cfe-core/src/sb/cfe_sb_priv.c **** **
 518:/home/simulink/cFS_FreeRTOS_seL4/cfe/fsw/cfe-core/src/sb/cfe_sb_priv.c **** **  Arguments:
 519:/home/simulink/cFS_FreeRTOS_seL4/cfe/fsw/cfe-core/src/sb/cfe_sb_priv.c **** **    MsgPtr  : pointer to the message
 520:/home/simulink/cFS_FreeRTOS_seL4/cfe/fsw/cfe-core/src/sb/cfe_sb_priv.c **** **    Count   : sets the sequence count to this value
 521:/home/simulink/cFS_FreeRTOS_seL4/cfe/fsw/cfe-core/src/sb/cfe_sb_priv.c **** **
 522:/home/simulink/cFS_FreeRTOS_seL4/cfe/fsw/cfe-core/src/sb/cfe_sb_priv.c **** **  Return:
 523:/home/simulink/cFS_FreeRTOS_seL4/cfe/fsw/cfe-core/src/sb/cfe_sb_priv.c **** **    None
68K GAS   			page 31


 524:/home/simulink/cFS_FreeRTOS_seL4/cfe/fsw/cfe-core/src/sb/cfe_sb_priv.c **** */
 525:/home/simulink/cFS_FreeRTOS_seL4/cfe/fsw/cfe-core/src/sb/cfe_sb_priv.c **** void CFE_SB_SetMsgSeqCnt(CFE_SB_MsgPtr_t MsgPtr,uint32 Count){
 666               	.loc 2 525 0
 667               	.cfi_startproc
 668 044e 2F02      	move.l %d2,-(%sp)
 669               	.cfi_def_cfa_offset 8
 670               	.cfi_offset 2, -8
 526:/home/simulink/cFS_FreeRTOS_seL4/cfe/fsw/cfe-core/src/sb/cfe_sb_priv.c **** 
 527:/home/simulink/cFS_FreeRTOS_seL4/cfe/fsw/cfe-core/src/sb/cfe_sb_priv.c **** #ifdef MESSAGE_FORMAT_IS_CCSDS
 528:/home/simulink/cFS_FreeRTOS_seL4/cfe/fsw/cfe-core/src/sb/cfe_sb_priv.c ****     CCSDS_WR_SEQ(MsgPtr->Hdr,Count);
 671               	.loc 2 528 0
 672 0450 206F 0008 	move.l 8(%sp),%a0
 673 0454 1028 0002 	move.b 2(%a0),%d0
 674 0458 72C0      	moveq #-64,%d1
 675 045a C081      	and.l %d1,%d0
 676 045c 1200      	move.b %d0,%d1
 677 045e 202F 000C 	move.l 12(%sp),%d0
 678 0462 E088      	lsr.l #8,%d0
 679 0464 1000      	move.b %d0,%d0
 680 0466 743F      	moveq #63,%d2
 681 0468 C082      	and.l %d2,%d0
 682 046a 1000      	move.b %d0,%d0
 683 046c 8081      	or.l %d1,%d0
 684 046e 1000      	move.b %d0,%d0
 685 0470 206F 0008 	move.l 8(%sp),%a0
 686 0474 1140 0002 	move.b %d0,2(%a0)
 687 0478 202F 000C 	move.l 12(%sp),%d0
 688 047c 1000      	move.b %d0,%d0
 689 047e 206F 0008 	move.l 8(%sp),%a0
 690 0482 1140 0003 	move.b %d0,3(%a0)
 529:/home/simulink/cFS_FreeRTOS_seL4/cfe/fsw/cfe-core/src/sb/cfe_sb_priv.c **** #endif
 530:/home/simulink/cFS_FreeRTOS_seL4/cfe/fsw/cfe-core/src/sb/cfe_sb_priv.c **** 
 531:/home/simulink/cFS_FreeRTOS_seL4/cfe/fsw/cfe-core/src/sb/cfe_sb_priv.c **** }/* end CFE_SB_SetMsgSeqCnt */
 691               	.loc 2 531 0
 692 0486 4E71      	nop
 693 0488 241F      	move.l (%sp)+,%d2
 694 048a 4E75      	rts
 695               	.cfi_endproc
 696               	.LFE71:
 697               	.sizeCFE_SB_SetMsgSeqCnt, .-CFE_SB_SetMsgSeqCnt
 698               	.align2
 699               	.globlCFE_SB_ValidateMsgId
 700               	.typeCFE_SB_ValidateMsgId, @function
 701               	CFE_SB_ValidateMsgId:
 702               	.LFB72:
 532:/home/simulink/cFS_FreeRTOS_seL4/cfe/fsw/cfe-core/src/sb/cfe_sb_priv.c **** 
 533:/home/simulink/cFS_FreeRTOS_seL4/cfe/fsw/cfe-core/src/sb/cfe_sb_priv.c **** 
 534:/home/simulink/cFS_FreeRTOS_seL4/cfe/fsw/cfe-core/src/sb/cfe_sb_priv.c **** /******************************************************************************
 535:/home/simulink/cFS_FreeRTOS_seL4/cfe/fsw/cfe-core/src/sb/cfe_sb_priv.c **** **  Function:  CFE_SB_ValidateMsgId()
 536:/home/simulink/cFS_FreeRTOS_seL4/cfe/fsw/cfe-core/src/sb/cfe_sb_priv.c **** **
 537:/home/simulink/cFS_FreeRTOS_seL4/cfe/fsw/cfe-core/src/sb/cfe_sb_priv.c **** **  Purpose:
 538:/home/simulink/cFS_FreeRTOS_seL4/cfe/fsw/cfe-core/src/sb/cfe_sb_priv.c **** **    SB internal function to validate a given MsgId.
 539:/home/simulink/cFS_FreeRTOS_seL4/cfe/fsw/cfe-core/src/sb/cfe_sb_priv.c **** **
 540:/home/simulink/cFS_FreeRTOS_seL4/cfe/fsw/cfe-core/src/sb/cfe_sb_priv.c **** **  Arguments:
 541:/home/simulink/cFS_FreeRTOS_seL4/cfe/fsw/cfe-core/src/sb/cfe_sb_priv.c **** **
 542:/home/simulink/cFS_FreeRTOS_seL4/cfe/fsw/cfe-core/src/sb/cfe_sb_priv.c **** **  Return:
 543:/home/simulink/cFS_FreeRTOS_seL4/cfe/fsw/cfe-core/src/sb/cfe_sb_priv.c **** **    None
68K GAS   			page 32


 544:/home/simulink/cFS_FreeRTOS_seL4/cfe/fsw/cfe-core/src/sb/cfe_sb_priv.c **** */
 545:/home/simulink/cFS_FreeRTOS_seL4/cfe/fsw/cfe-core/src/sb/cfe_sb_priv.c **** int32 CFE_SB_ValidateMsgId(CFE_SB_MsgId_t MsgId){
 703               	.loc 2 545 0
 704               	.cfi_startproc
 705 048c 598F      	subq.l #4,%sp
 706               	.cfi_def_cfa_offset 8
 707 048e 202F 0008 	move.l 8(%sp),%d0
 708 0492 3000      	move.w %d0,%d0
 709 0494 3E80      	move.w %d0,(%sp)
 546:/home/simulink/cFS_FreeRTOS_seL4/cfe/fsw/cfe-core/src/sb/cfe_sb_priv.c **** 
 547:/home/simulink/cFS_FreeRTOS_seL4/cfe/fsw/cfe-core/src/sb/cfe_sb_priv.c ****     /* ensure the ccsds version number in MsgId is 0 */
 548:/home/simulink/cFS_FreeRTOS_seL4/cfe/fsw/cfe-core/src/sb/cfe_sb_priv.c ****     /* cppcheck-suppress redundantCondition */
 549:/home/simulink/cFS_FreeRTOS_seL4/cfe/fsw/cfe-core/src/sb/cfe_sb_priv.c ****     if((MsgId > CFE_SB_HIGHEST_VALID_MSGID)||
 710               	.loc 2 549 0
 711 0496 4280      	clr.l %d0
 712 0498 3017      	move.w (%sp),%d0
 713 049a 0C80 0000 	cmp.l #8191,%d0
 713      1FFF 
 714 04a0 620C      	jhi .L55
 715               	.loc 2 549 0 is_stmt 0 discriminator 1
 716 04a2 4280      	clr.l %d0
 717 04a4 3017      	move.w (%sp),%d0
 718 04a6 0C80 0000 	cmp.l #65535,%d0
 718      FFFF 
 719 04ac 6604      	jne .L56
 720               	.L55:
 550:/home/simulink/cFS_FreeRTOS_seL4/cfe/fsw/cfe-core/src/sb/cfe_sb_priv.c ****        (MsgId == CFE_SB_INVALID_MSG_ID))
 551:/home/simulink/cFS_FreeRTOS_seL4/cfe/fsw/cfe-core/src/sb/cfe_sb_priv.c ****     {
 552:/home/simulink/cFS_FreeRTOS_seL4/cfe/fsw/cfe-core/src/sb/cfe_sb_priv.c ****         return CFE_SB_FAILED;
 721               	.loc 2 552 0 is_stmt 1
 722 04ae 7001      	moveq #1,%d0
 723 04b0 6002      	jra .L57
 724               	.L56:
 553:/home/simulink/cFS_FreeRTOS_seL4/cfe/fsw/cfe-core/src/sb/cfe_sb_priv.c ****     }else{
 554:/home/simulink/cFS_FreeRTOS_seL4/cfe/fsw/cfe-core/src/sb/cfe_sb_priv.c ****         return CFE_SUCCESS;
 725               	.loc 2 554 0
 726 04b2 4280      	clr.l %d0
 727               	.L57:
 555:/home/simulink/cFS_FreeRTOS_seL4/cfe/fsw/cfe-core/src/sb/cfe_sb_priv.c ****     }/* end if */
 556:/home/simulink/cFS_FreeRTOS_seL4/cfe/fsw/cfe-core/src/sb/cfe_sb_priv.c **** 
 557:/home/simulink/cFS_FreeRTOS_seL4/cfe/fsw/cfe-core/src/sb/cfe_sb_priv.c **** }/* end CFE_SB_ValidateMsgId */
 728               	.loc 2 557 0
 729 04b4 588F      	addq.l #4,%sp
 730 04b6 4E75      	rts
 731               	.cfi_endproc
 732               	.LFE72:
 733               	.sizeCFE_SB_ValidateMsgId, .-CFE_SB_ValidateMsgId
 734               	.align2
 735               	.globlCFE_SB_ValidatePipeId
 736               	.typeCFE_SB_ValidatePipeId, @function
 737               	CFE_SB_ValidatePipeId:
 738               	.LFB73:
 558:/home/simulink/cFS_FreeRTOS_seL4/cfe/fsw/cfe-core/src/sb/cfe_sb_priv.c **** 
 559:/home/simulink/cFS_FreeRTOS_seL4/cfe/fsw/cfe-core/src/sb/cfe_sb_priv.c **** 
 560:/home/simulink/cFS_FreeRTOS_seL4/cfe/fsw/cfe-core/src/sb/cfe_sb_priv.c **** /******************************************************************************
 561:/home/simulink/cFS_FreeRTOS_seL4/cfe/fsw/cfe-core/src/sb/cfe_sb_priv.c **** **  Function:  CFE_SB_ValidatePipeId()
 562:/home/simulink/cFS_FreeRTOS_seL4/cfe/fsw/cfe-core/src/sb/cfe_sb_priv.c **** **
68K GAS   			page 33


 563:/home/simulink/cFS_FreeRTOS_seL4/cfe/fsw/cfe-core/src/sb/cfe_sb_priv.c **** **  Purpose:
 564:/home/simulink/cFS_FreeRTOS_seL4/cfe/fsw/cfe-core/src/sb/cfe_sb_priv.c **** **    This function checks that the pipe id does not have an index larger than the
 565:/home/simulink/cFS_FreeRTOS_seL4/cfe/fsw/cfe-core/src/sb/cfe_sb_priv.c **** **    array and that the pipe is in use.
 566:/home/simulink/cFS_FreeRTOS_seL4/cfe/fsw/cfe-core/src/sb/cfe_sb_priv.c **** **
 567:/home/simulink/cFS_FreeRTOS_seL4/cfe/fsw/cfe-core/src/sb/cfe_sb_priv.c **** **  Arguments:
 568:/home/simulink/cFS_FreeRTOS_seL4/cfe/fsw/cfe-core/src/sb/cfe_sb_priv.c **** **
 569:/home/simulink/cFS_FreeRTOS_seL4/cfe/fsw/cfe-core/src/sb/cfe_sb_priv.c **** **  Return:
 570:/home/simulink/cFS_FreeRTOS_seL4/cfe/fsw/cfe-core/src/sb/cfe_sb_priv.c **** **    None
 571:/home/simulink/cFS_FreeRTOS_seL4/cfe/fsw/cfe-core/src/sb/cfe_sb_priv.c **** */
 572:/home/simulink/cFS_FreeRTOS_seL4/cfe/fsw/cfe-core/src/sb/cfe_sb_priv.c **** int32 CFE_SB_ValidatePipeId(CFE_SB_PipeId_t PipeId){
 739               	.loc 2 572 0
 740               	.cfi_startproc
 741 04b8 598F      	subq.l #4,%sp
 742               	.cfi_def_cfa_offset 8
 743 04ba 202F 0008 	move.l 8(%sp),%d0
 744 04be 1000      	move.b %d0,%d0
 745 04c0 1E80      	move.b %d0,(%sp)
 573:/home/simulink/cFS_FreeRTOS_seL4/cfe/fsw/cfe-core/src/sb/cfe_sb_priv.c **** 
 574:/home/simulink/cFS_FreeRTOS_seL4/cfe/fsw/cfe-core/src/sb/cfe_sb_priv.c ****     if((PipeId >= CFE_SB_MAX_PIPES)||
 746               	.loc 2 574 0
 747 04c2 4280      	clr.l %d0
 748 04c4 1017      	move.b (%sp),%d0
 749 04c6 723F      	moveq #63,%d1
 750 04c8 B280      	cmp.l %d0,%d1
 751 04ca 6518      	jcs .L59
 575:/home/simulink/cFS_FreeRTOS_seL4/cfe/fsw/cfe-core/src/sb/cfe_sb_priv.c ****        (CFE_SB.PipeTbl[PipeId].InUse == CFE_SB_NOT_IN_USE))
 752               	.loc 2 575 0 discriminator 1
 753 04cc 4280      	clr.l %d0
 754 04ce 1017      	move.b (%sp),%d0
 755 04d0 7244      	moveq #68,%d1
 756 04d2 4C01 0800 	muls.l %d1,%d0
 757 04d6 41F9 0000 	lea CFE_SB+148,%a0
 757      0000 
 758 04dc 1030 0800 	move.b (%a0,%d0.l),%d0
 574:/home/simulink/cFS_FreeRTOS_seL4/cfe/fsw/cfe-core/src/sb/cfe_sb_priv.c ****        (CFE_SB.PipeTbl[PipeId].InUse == CFE_SB_NOT_IN_USE))
 759               	.loc 2 574 0 discriminator 1
 760 04e0 4A00      	tst.b %d0
 761 04e2 6604      	jne .L60
 762               	.L59:
 576:/home/simulink/cFS_FreeRTOS_seL4/cfe/fsw/cfe-core/src/sb/cfe_sb_priv.c ****     {
 577:/home/simulink/cFS_FreeRTOS_seL4/cfe/fsw/cfe-core/src/sb/cfe_sb_priv.c ****         return CFE_SB_FAILED;
 763               	.loc 2 577 0
 764 04e4 7001      	moveq #1,%d0
 765 04e6 6002      	jra .L61
 766               	.L60:
 578:/home/simulink/cFS_FreeRTOS_seL4/cfe/fsw/cfe-core/src/sb/cfe_sb_priv.c ****     }else{
 579:/home/simulink/cFS_FreeRTOS_seL4/cfe/fsw/cfe-core/src/sb/cfe_sb_priv.c ****         return CFE_SUCCESS;
 767               	.loc 2 579 0
 768 04e8 4280      	clr.l %d0
 769               	.L61:
 580:/home/simulink/cFS_FreeRTOS_seL4/cfe/fsw/cfe-core/src/sb/cfe_sb_priv.c ****     }/* end if */
 581:/home/simulink/cFS_FreeRTOS_seL4/cfe/fsw/cfe-core/src/sb/cfe_sb_priv.c **** 
 582:/home/simulink/cFS_FreeRTOS_seL4/cfe/fsw/cfe-core/src/sb/cfe_sb_priv.c **** }/* end CFE_SB_ValidatePipeId */
 770               	.loc 2 582 0
 771 04ea 588F      	addq.l #4,%sp
 772 04ec 4E75      	rts
 773               	.cfi_endproc
68K GAS   			page 34


 774               	.LFE73:
 775               	.sizeCFE_SB_ValidatePipeId, .-CFE_SB_ValidatePipeId
 776               	.section.rodata
 777               	.LC2:
 778 007e 556E 6B6E 	.string"Unknown"
 778      6F77 6E00 
 779               	.LC3:
 780 0086 2573 2E25 	.string"%s.%s"
 780      7300 
 781               	.text
 782               	.align2
 783               	.globlCFE_SB_GetAppTskName
 784               	.typeCFE_SB_GetAppTskName, @function
 785               	CFE_SB_GetAppTskName:
 786               	.LFB74:
 583:/home/simulink/cFS_FreeRTOS_seL4/cfe/fsw/cfe-core/src/sb/cfe_sb_priv.c **** 
 584:/home/simulink/cFS_FreeRTOS_seL4/cfe/fsw/cfe-core/src/sb/cfe_sb_priv.c **** 
 585:/home/simulink/cFS_FreeRTOS_seL4/cfe/fsw/cfe-core/src/sb/cfe_sb_priv.c **** /******************************************************************************
 586:/home/simulink/cFS_FreeRTOS_seL4/cfe/fsw/cfe-core/src/sb/cfe_sb_priv.c **** **  Function:  CFE_SB_GetAppTskName()
 587:/home/simulink/cFS_FreeRTOS_seL4/cfe/fsw/cfe-core/src/sb/cfe_sb_priv.c **** **
 588:/home/simulink/cFS_FreeRTOS_seL4/cfe/fsw/cfe-core/src/sb/cfe_sb_priv.c **** **  Purpose:
 589:/home/simulink/cFS_FreeRTOS_seL4/cfe/fsw/cfe-core/src/sb/cfe_sb_priv.c **** **    This function returns a pointer to the app.tsk name string
 590:/home/simulink/cFS_FreeRTOS_seL4/cfe/fsw/cfe-core/src/sb/cfe_sb_priv.c **** **
 591:/home/simulink/cFS_FreeRTOS_seL4/cfe/fsw/cfe-core/src/sb/cfe_sb_priv.c **** **  Arguments:
 592:/home/simulink/cFS_FreeRTOS_seL4/cfe/fsw/cfe-core/src/sb/cfe_sb_priv.c **** **    TaskId - the task id of the app.task name desired
 593:/home/simulink/cFS_FreeRTOS_seL4/cfe/fsw/cfe-core/src/sb/cfe_sb_priv.c **** **    FullName - string buffer to store name
 594:/home/simulink/cFS_FreeRTOS_seL4/cfe/fsw/cfe-core/src/sb/cfe_sb_priv.c **** **
 595:/home/simulink/cFS_FreeRTOS_seL4/cfe/fsw/cfe-core/src/sb/cfe_sb_priv.c **** **  Return:
 596:/home/simulink/cFS_FreeRTOS_seL4/cfe/fsw/cfe-core/src/sb/cfe_sb_priv.c **** **    Pointer to App.Tsk Name
 597:/home/simulink/cFS_FreeRTOS_seL4/cfe/fsw/cfe-core/src/sb/cfe_sb_priv.c **** **
 598:/home/simulink/cFS_FreeRTOS_seL4/cfe/fsw/cfe-core/src/sb/cfe_sb_priv.c **** **  Note: With taskId, Parent App name and Child Task name can be queried from ES
 599:/home/simulink/cFS_FreeRTOS_seL4/cfe/fsw/cfe-core/src/sb/cfe_sb_priv.c **** **
 600:/home/simulink/cFS_FreeRTOS_seL4/cfe/fsw/cfe-core/src/sb/cfe_sb_priv.c **** */
 601:/home/simulink/cFS_FreeRTOS_seL4/cfe/fsw/cfe-core/src/sb/cfe_sb_priv.c **** char *CFE_SB_GetAppTskName(uint32 TaskId,char *FullName){
 787               	.loc 2 601 0
 788               	.cfi_startproc
 789 04ee 4FEF FFA0 	lea (-96,%sp),%sp
 790               	.cfi_def_cfa_offset 100
 602:/home/simulink/cFS_FreeRTOS_seL4/cfe/fsw/cfe-core/src/sb/cfe_sb_priv.c **** 
 603:/home/simulink/cFS_FreeRTOS_seL4/cfe/fsw/cfe-core/src/sb/cfe_sb_priv.c ****     CFE_ES_TaskInfo_t  TaskInfo;
 604:/home/simulink/cFS_FreeRTOS_seL4/cfe/fsw/cfe-core/src/sb/cfe_sb_priv.c ****     CFE_ES_TaskInfo_t  *ptr = &TaskInfo;
 791               	.loc 2 604 0
 792 04f2 41EF 0060 	lea (96,%sp),%a0
 793 04f6 41E8 FFC8 	lea (-56,%a0),%a0
 794 04fa 2F48 005C 	move.l %a0,92(%sp)
 605:/home/simulink/cFS_FreeRTOS_seL4/cfe/fsw/cfe-core/src/sb/cfe_sb_priv.c ****     char               AppName[OS_MAX_API_NAME];
 606:/home/simulink/cFS_FreeRTOS_seL4/cfe/fsw/cfe-core/src/sb/cfe_sb_priv.c ****     char               TskName[OS_MAX_API_NAME];
 607:/home/simulink/cFS_FreeRTOS_seL4/cfe/fsw/cfe-core/src/sb/cfe_sb_priv.c **** 
 608:/home/simulink/cFS_FreeRTOS_seL4/cfe/fsw/cfe-core/src/sb/cfe_sb_priv.c ****     if(CFE_ES_GetTaskInfo(ptr, TaskId) != CFE_SUCCESS){
 795               	.loc 2 608 0
 796 04fe 2F2F 0064 	move.l 100(%sp),-(%sp)
 797               	.cfi_def_cfa_offset 104
 798 0502 2F2F 0060 	move.l 96(%sp),-(%sp)
 799               	.cfi_def_cfa_offset 108
 800 0506 4EB9 0000 	jsr CFE_ES_GetTaskInfo
 800      0000 
 801 050c 508F      	addq.l #8,%sp
68K GAS   			page 35


 802               	.cfi_def_cfa_offset 100
 803 050e 4A80      	tst.l %d0
 804 0510 6726      	jeq .L63
 609:/home/simulink/cFS_FreeRTOS_seL4/cfe/fsw/cfe-core/src/sb/cfe_sb_priv.c **** 
 610:/home/simulink/cFS_FreeRTOS_seL4/cfe/fsw/cfe-core/src/sb/cfe_sb_priv.c ****       /* unlikely, but possible if TaskId is bogus */
 611:/home/simulink/cFS_FreeRTOS_seL4/cfe/fsw/cfe-core/src/sb/cfe_sb_priv.c ****       strncpy(FullName,"Unknown",OS_MAX_API_NAME-1);
 805               	.loc 2 611 0
 806 0512 4878 0013 	pea 19.w
 807               	.cfi_def_cfa_offset 104
 808 0516 4879 0000 	pea .LC2
 808      0000 
 809               	.cfi_def_cfa_offset 108
 810 051c 2F2F 0070 	move.l 112(%sp),-(%sp)
 811               	.cfi_def_cfa_offset 112
 812 0520 4EB9 0000 	jsr strncpy
 812      0000 
 813 0526 4FEF 000C 	lea (12,%sp),%sp
 814               	.cfi_def_cfa_offset 100
 612:/home/simulink/cFS_FreeRTOS_seL4/cfe/fsw/cfe-core/src/sb/cfe_sb_priv.c ****       FullName[OS_MAX_API_NAME-1] = '\0';
 815               	.loc 2 612 0
 816 052a 206F 0068 	move.l 104(%sp),%a0
 817 052e 41E8 0013 	lea (19,%a0),%a0
 818 0532 4210      	clr.b (%a0)
 819 0534 6000 00C0 	jra .L64
 820               	.L63:
 613:/home/simulink/cFS_FreeRTOS_seL4/cfe/fsw/cfe-core/src/sb/cfe_sb_priv.c **** 
 614:/home/simulink/cFS_FreeRTOS_seL4/cfe/fsw/cfe-core/src/sb/cfe_sb_priv.c ****     }else if(strncmp((char *)ptr->AppName,(char *)ptr->TaskName,OS_MAX_API_NAME-1) == 0){
 821               	.loc 2 614 0
 822 0538 222F 005C 	move.l 92(%sp),%d1
 823 053c 5081      	addq.l #8,%d1
 824 053e 202F 005C 	move.l 92(%sp),%d0
 825 0542 0680 0000 	add.l #32,%d0
 825      0020 
 826 0548 4878 0013 	pea 19.w
 827               	.cfi_def_cfa_offset 104
 828 054c 2F01      	move.l %d1,-(%sp)
 829               	.cfi_def_cfa_offset 108
 830 054e 2F00      	move.l %d0,-(%sp)
 831               	.cfi_def_cfa_offset 112
 832 0550 4EB9 0000 	jsr strncmp
 832      0000 
 833 0556 4FEF 000C 	lea (12,%sp),%sp
 834               	.cfi_def_cfa_offset 100
 835 055a 4A80      	tst.l %d0
 836 055c 662A      	jne .L65
 615:/home/simulink/cFS_FreeRTOS_seL4/cfe/fsw/cfe-core/src/sb/cfe_sb_priv.c **** 
 616:/home/simulink/cFS_FreeRTOS_seL4/cfe/fsw/cfe-core/src/sb/cfe_sb_priv.c ****       /* if app name and task name are the same */
 617:/home/simulink/cFS_FreeRTOS_seL4/cfe/fsw/cfe-core/src/sb/cfe_sb_priv.c ****       strncpy(FullName,(char *)ptr->AppName,OS_MAX_API_NAME-1);
 837               	.loc 2 617 0
 838 055e 202F 005C 	move.l 92(%sp),%d0
 839 0562 0680 0000 	add.l #32,%d0
 839      0020 
 840 0568 4878 0013 	pea 19.w
 841               	.cfi_def_cfa_offset 104
 842 056c 2F00      	move.l %d0,-(%sp)
 843               	.cfi_def_cfa_offset 108
 844 056e 2F2F 0070 	move.l 112(%sp),-(%sp)
68K GAS   			page 36


 845               	.cfi_def_cfa_offset 112
 846 0572 4EB9 0000 	jsr strncpy
 846      0000 
 847 0578 4FEF 000C 	lea (12,%sp),%sp
 848               	.cfi_def_cfa_offset 100
 618:/home/simulink/cFS_FreeRTOS_seL4/cfe/fsw/cfe-core/src/sb/cfe_sb_priv.c ****       FullName[OS_MAX_API_NAME-1] = '\0';
 849               	.loc 2 618 0
 850 057c 206F 0068 	move.l 104(%sp),%a0
 851 0580 41E8 0013 	lea (19,%a0),%a0
 852 0584 4210      	clr.b (%a0)
 853 0586 606E      	jra .L64
 854               	.L65:
 619:/home/simulink/cFS_FreeRTOS_seL4/cfe/fsw/cfe-core/src/sb/cfe_sb_priv.c **** 
 620:/home/simulink/cFS_FreeRTOS_seL4/cfe/fsw/cfe-core/src/sb/cfe_sb_priv.c ****     }else{
 621:/home/simulink/cFS_FreeRTOS_seL4/cfe/fsw/cfe-core/src/sb/cfe_sb_priv.c **** 
 622:/home/simulink/cFS_FreeRTOS_seL4/cfe/fsw/cfe-core/src/sb/cfe_sb_priv.c ****       /* AppName and TskName buffers and strncpy are needed to limit string sizes */
 623:/home/simulink/cFS_FreeRTOS_seL4/cfe/fsw/cfe-core/src/sb/cfe_sb_priv.c ****       strncpy(AppName,(char *)ptr->AppName,OS_MAX_API_NAME-1);
 855               	.loc 2 623 0
 856 0588 202F 005C 	move.l 92(%sp),%d0
 857 058c 0680 0000 	add.l #32,%d0
 857      0020 
 858 0592 4878 0013 	pea 19.w
 859               	.cfi_def_cfa_offset 104
 860 0596 2F00      	move.l %d0,-(%sp)
 861               	.cfi_def_cfa_offset 108
 862 0598 200F      	move.l %sp,%d0
 863 059a 0680 0000 	add.l #28,%d0
 863      001C 
 864 05a0 2F00      	move.l %d0,-(%sp)
 865               	.cfi_def_cfa_offset 112
 866 05a2 4EB9 0000 	jsr strncpy
 866      0000 
 867 05a8 4FEF 000C 	lea (12,%sp),%sp
 868               	.cfi_def_cfa_offset 100
 624:/home/simulink/cFS_FreeRTOS_seL4/cfe/fsw/cfe-core/src/sb/cfe_sb_priv.c ****       AppName[OS_MAX_API_NAME-1] = '\0';
 869               	.loc 2 624 0
 870 05ac 4200      	clr.b %d0
 871 05ae 1F40 0027 	move.b %d0,39(%sp)
 625:/home/simulink/cFS_FreeRTOS_seL4/cfe/fsw/cfe-core/src/sb/cfe_sb_priv.c ****       strncpy(TskName,(char *)ptr->TaskName,OS_MAX_API_NAME-1);
 872               	.loc 2 625 0
 873 05b2 202F 005C 	move.l 92(%sp),%d0
 874 05b6 5080      	addq.l #8,%d0
 875 05b8 4878 0013 	pea 19.w
 876               	.cfi_def_cfa_offset 104
 877 05bc 2F00      	move.l %d0,-(%sp)
 878               	.cfi_def_cfa_offset 108
 879 05be 200F      	move.l %sp,%d0
 880 05c0 5080      	addq.l #8,%d0
 881 05c2 2F00      	move.l %d0,-(%sp)
 882               	.cfi_def_cfa_offset 112
 883 05c4 4EB9 0000 	jsr strncpy
 883      0000 
 884 05ca 4FEF 000C 	lea (12,%sp),%sp
 885               	.cfi_def_cfa_offset 100
 626:/home/simulink/cFS_FreeRTOS_seL4/cfe/fsw/cfe-core/src/sb/cfe_sb_priv.c ****       TskName[OS_MAX_API_NAME-1] = '\0';
 886               	.loc 2 626 0
 887 05ce 4200      	clr.b %d0
68K GAS   			page 37


 888 05d0 1F40 0013 	move.b %d0,19(%sp)
 627:/home/simulink/cFS_FreeRTOS_seL4/cfe/fsw/cfe-core/src/sb/cfe_sb_priv.c **** 
 628:/home/simulink/cFS_FreeRTOS_seL4/cfe/fsw/cfe-core/src/sb/cfe_sb_priv.c ****       sprintf(FullName,"%s.%s",AppName,TskName);
 889               	.loc 2 628 0
 890 05d4 200F      	move.l %sp,%d0
 891 05d6 2F00      	move.l %d0,-(%sp)
 892               	.cfi_def_cfa_offset 104
 893 05d8 200F      	move.l %sp,%d0
 894 05da 0680 0000 	add.l #24,%d0
 894      0018 
 895 05e0 2F00      	move.l %d0,-(%sp)
 896               	.cfi_def_cfa_offset 108
 897 05e2 4879 0000 	pea .LC3
 897      0000 
 898               	.cfi_def_cfa_offset 112
 899 05e8 2F2F 0074 	move.l 116(%sp),-(%sp)
 900               	.cfi_def_cfa_offset 116
 901 05ec 4EB9 0000 	jsr sprintf
 901      0000 
 902 05f2 4FEF 0010 	lea (16,%sp),%sp
 903               	.cfi_def_cfa_offset 100
 904               	.L64:
 629:/home/simulink/cFS_FreeRTOS_seL4/cfe/fsw/cfe-core/src/sb/cfe_sb_priv.c **** 
 630:/home/simulink/cFS_FreeRTOS_seL4/cfe/fsw/cfe-core/src/sb/cfe_sb_priv.c ****     }/* end if */
 631:/home/simulink/cFS_FreeRTOS_seL4/cfe/fsw/cfe-core/src/sb/cfe_sb_priv.c **** 
 632:/home/simulink/cFS_FreeRTOS_seL4/cfe/fsw/cfe-core/src/sb/cfe_sb_priv.c ****     return FullName;
 905               	.loc 2 632 0
 906 05f6 202F 0068 	move.l 104(%sp),%d0
 633:/home/simulink/cFS_FreeRTOS_seL4/cfe/fsw/cfe-core/src/sb/cfe_sb_priv.c **** 
 634:/home/simulink/cFS_FreeRTOS_seL4/cfe/fsw/cfe-core/src/sb/cfe_sb_priv.c **** }/* end CFE_SB_GetAppTskName */
 907               	.loc 2 634 0
 908 05fa 4FEF 0060 	lea (96,%sp),%sp
 909 05fe 4E75      	rts
 910               	.cfi_endproc
 911               	.LFE74:
 912               	.sizeCFE_SB_GetAppTskName, .-CFE_SB_GetAppTskName
 913               	.align2
 914               	.globlCFE_SB_GetPktType
 915               	.typeCFE_SB_GetPktType, @function
 916               	CFE_SB_GetPktType:
 917               	.LFB75:
 635:/home/simulink/cFS_FreeRTOS_seL4/cfe/fsw/cfe-core/src/sb/cfe_sb_priv.c **** 
 636:/home/simulink/cFS_FreeRTOS_seL4/cfe/fsw/cfe-core/src/sb/cfe_sb_priv.c **** 
 637:/home/simulink/cFS_FreeRTOS_seL4/cfe/fsw/cfe-core/src/sb/cfe_sb_priv.c **** /******************************************************************************
 638:/home/simulink/cFS_FreeRTOS_seL4/cfe/fsw/cfe-core/src/sb/cfe_sb_priv.c **** **  Function:  CFE_SB_GetPktType()
 639:/home/simulink/cFS_FreeRTOS_seL4/cfe/fsw/cfe-core/src/sb/cfe_sb_priv.c **** **
 640:/home/simulink/cFS_FreeRTOS_seL4/cfe/fsw/cfe-core/src/sb/cfe_sb_priv.c **** **  Purpose:
 641:/home/simulink/cFS_FreeRTOS_seL4/cfe/fsw/cfe-core/src/sb/cfe_sb_priv.c **** **    For CCSDS packets, this function returns the state of the cmd/tlm bit(12).
 642:/home/simulink/cFS_FreeRTOS_seL4/cfe/fsw/cfe-core/src/sb/cfe_sb_priv.c **** **    For cmd pkts, the state is 1. For tlm pkts, the state is 0.
 643:/home/simulink/cFS_FreeRTOS_seL4/cfe/fsw/cfe-core/src/sb/cfe_sb_priv.c **** **
 644:/home/simulink/cFS_FreeRTOS_seL4/cfe/fsw/cfe-core/src/sb/cfe_sb_priv.c **** **  Arguments:
 645:/home/simulink/cFS_FreeRTOS_seL4/cfe/fsw/cfe-core/src/sb/cfe_sb_priv.c **** **
 646:/home/simulink/cFS_FreeRTOS_seL4/cfe/fsw/cfe-core/src/sb/cfe_sb_priv.c **** **  Return:
 647:/home/simulink/cFS_FreeRTOS_seL4/cfe/fsw/cfe-core/src/sb/cfe_sb_priv.c **** **    None
 648:/home/simulink/cFS_FreeRTOS_seL4/cfe/fsw/cfe-core/src/sb/cfe_sb_priv.c **** */
 649:/home/simulink/cFS_FreeRTOS_seL4/cfe/fsw/cfe-core/src/sb/cfe_sb_priv.c **** int32 CFE_SB_GetPktType(CFE_SB_MsgId_t MsgId){
 918               	.loc 2 649 0
68K GAS   			page 38


 919               	.cfi_startproc
 920 0600 598F      	subq.l #4,%sp
 921               	.cfi_def_cfa_offset 8
 922 0602 202F 0008 	move.l 8(%sp),%d0
 923 0606 3000      	move.w %d0,%d0
 924 0608 3E80      	move.w %d0,(%sp)
 650:/home/simulink/cFS_FreeRTOS_seL4/cfe/fsw/cfe-core/src/sb/cfe_sb_priv.c **** 
 651:/home/simulink/cFS_FreeRTOS_seL4/cfe/fsw/cfe-core/src/sb/cfe_sb_priv.c **** #ifdef MESSAGE_FORMAT_IS_CCSDS
 652:/home/simulink/cFS_FreeRTOS_seL4/cfe/fsw/cfe-core/src/sb/cfe_sb_priv.c **** 
 653:/home/simulink/cFS_FreeRTOS_seL4/cfe/fsw/cfe-core/src/sb/cfe_sb_priv.c ****         return CFE_TST(MsgId,12);
 925               	.loc 2 653 0
 926 060a 4280      	clr.l %d0
 927 060c 3017      	move.w (%sp),%d0
 928 060e 0280 0000 	and.l #4096,%d0
 928      1000 
 929 0614 4A80      	tst.l %d0
 930 0616 56C0      	sne %d0
 931 0618 4480      	neg.l %d0
 932 061a 1000      	move.b %d0,%d0
 933 061c 1000      	move.b %d0,%d0
 934 061e 0280 0000 	and.l #255,%d0
 934      00FF 
 654:/home/simulink/cFS_FreeRTOS_seL4/cfe/fsw/cfe-core/src/sb/cfe_sb_priv.c **** 
 655:/home/simulink/cFS_FreeRTOS_seL4/cfe/fsw/cfe-core/src/sb/cfe_sb_priv.c **** #endif
 656:/home/simulink/cFS_FreeRTOS_seL4/cfe/fsw/cfe-core/src/sb/cfe_sb_priv.c **** 
 657:/home/simulink/cFS_FreeRTOS_seL4/cfe/fsw/cfe-core/src/sb/cfe_sb_priv.c **** }/* end CFE_SB_GetPktType */
 935               	.loc 2 657 0
 936 0624 588F      	addq.l #4,%sp
 937 0626 4E75      	rts
 938               	.cfi_endproc
 939               	.LFE75:
 940               	.sizeCFE_SB_GetPktType, .-CFE_SB_GetPktType
 941               	.align2
 942               	.globlCFE_SB_RequestToSendEvent
 943               	.typeCFE_SB_RequestToSendEvent, @function
 944               	CFE_SB_RequestToSendEvent:
 945               	.LFB76:
 658:/home/simulink/cFS_FreeRTOS_seL4/cfe/fsw/cfe-core/src/sb/cfe_sb_priv.c **** 
 659:/home/simulink/cFS_FreeRTOS_seL4/cfe/fsw/cfe-core/src/sb/cfe_sb_priv.c **** 
 660:/home/simulink/cFS_FreeRTOS_seL4/cfe/fsw/cfe-core/src/sb/cfe_sb_priv.c **** /******************************************************************************
 661:/home/simulink/cFS_FreeRTOS_seL4/cfe/fsw/cfe-core/src/sb/cfe_sb_priv.c **** **  Function:  CFE_SB_RequestToSendEvent()
 662:/home/simulink/cFS_FreeRTOS_seL4/cfe/fsw/cfe-core/src/sb/cfe_sb_priv.c **** **
 663:/home/simulink/cFS_FreeRTOS_seL4/cfe/fsw/cfe-core/src/sb/cfe_sb_priv.c **** **  Purpose:
 664:/home/simulink/cFS_FreeRTOS_seL4/cfe/fsw/cfe-core/src/sb/cfe_sb_priv.c **** **    This function will test the given bit for the given task. If the bit is set
 665:/home/simulink/cFS_FreeRTOS_seL4/cfe/fsw/cfe-core/src/sb/cfe_sb_priv.c **** **    this function will return CFE_SB_DENIED. If bit is not set, this function set
 666:/home/simulink/cFS_FreeRTOS_seL4/cfe/fsw/cfe-core/src/sb/cfe_sb_priv.c **** **    the bit and return CFE_SB_GRANTED. This will prevent recursive events from
 667:/home/simulink/cFS_FreeRTOS_seL4/cfe/fsw/cfe-core/src/sb/cfe_sb_priv.c **** **    occurring.
 668:/home/simulink/cFS_FreeRTOS_seL4/cfe/fsw/cfe-core/src/sb/cfe_sb_priv.c **** **
 669:/home/simulink/cFS_FreeRTOS_seL4/cfe/fsw/cfe-core/src/sb/cfe_sb_priv.c **** **  Arguments:
 670:/home/simulink/cFS_FreeRTOS_seL4/cfe/fsw/cfe-core/src/sb/cfe_sb_priv.c **** **
 671:/home/simulink/cFS_FreeRTOS_seL4/cfe/fsw/cfe-core/src/sb/cfe_sb_priv.c **** **  Return:
 672:/home/simulink/cFS_FreeRTOS_seL4/cfe/fsw/cfe-core/src/sb/cfe_sb_priv.c **** **    If the bit is set this function will return CFE_SB_DENIED.
 673:/home/simulink/cFS_FreeRTOS_seL4/cfe/fsw/cfe-core/src/sb/cfe_sb_priv.c **** **    If bit is not set, this function set the bit and return CFE_SB_GRANTED.
 674:/home/simulink/cFS_FreeRTOS_seL4/cfe/fsw/cfe-core/src/sb/cfe_sb_priv.c **** */
 675:/home/simulink/cFS_FreeRTOS_seL4/cfe/fsw/cfe-core/src/sb/cfe_sb_priv.c **** uint32 CFE_SB_RequestToSendEvent(uint32 TaskId, uint32 Bit){
 946               	.loc 2 675 0
 947               	.cfi_startproc
68K GAS   			page 39


 948 0628 2F02      	move.l %d2,-(%sp)
 949               	.cfi_def_cfa_offset 8
 950               	.cfi_offset 2, -8
 676:/home/simulink/cFS_FreeRTOS_seL4/cfe/fsw/cfe-core/src/sb/cfe_sb_priv.c **** 
 677:/home/simulink/cFS_FreeRTOS_seL4/cfe/fsw/cfe-core/src/sb/cfe_sb_priv.c ****     OS_ConvertToArrayIndex(TaskId, &TaskId);
 951               	.loc 2 677 0
 952 062a 202F 0008 	move.l 8(%sp),%d0
 953 062e 220F      	move.l %sp,%d1
 954 0630 5081      	addq.l #8,%d1
 955 0632 2F01      	move.l %d1,-(%sp)
 956               	.cfi_def_cfa_offset 12
 957 0634 2F00      	move.l %d0,-(%sp)
 958               	.cfi_def_cfa_offset 16
 959 0636 4EBA F9C8 	jsr OS_ConvertToArrayIndex
 960 063a 508F      	addq.l #8,%sp
 961               	.cfi_def_cfa_offset 8
 678:/home/simulink/cFS_FreeRTOS_seL4/cfe/fsw/cfe-core/src/sb/cfe_sb_priv.c **** 
 679:/home/simulink/cFS_FreeRTOS_seL4/cfe/fsw/cfe-core/src/sb/cfe_sb_priv.c ****     /* if bit is set... */
 680:/home/simulink/cFS_FreeRTOS_seL4/cfe/fsw/cfe-core/src/sb/cfe_sb_priv.c ****     if(CFE_TST(CFE_SB.StopRecurseFlags[TaskId],Bit)==TRUE)
 962               	.loc 2 680 0
 963 063c 202F 0008 	move.l 8(%sp),%d0
 964 0640 5880      	addq.l #4,%d0
 965 0642 E588      	lsl.l #2,%d0
 966 0644 41F9 0000 	lea CFE_SB,%a0
 966      0000 
 967 064a 2230 0800 	move.l (%a0,%d0.l),%d1
 968 064e 7001      	moveq #1,%d0
 969 0650 242F 000C 	move.l 12(%sp),%d2
 970 0654 E5A8      	lsl.l %d2,%d0
 971 0656 C081      	and.l %d1,%d0
 972 0658 4A80      	tst.l %d0
 973 065a 6704      	jeq .L70
 681:/home/simulink/cFS_FreeRTOS_seL4/cfe/fsw/cfe-core/src/sb/cfe_sb_priv.c ****     {
 682:/home/simulink/cFS_FreeRTOS_seL4/cfe/fsw/cfe-core/src/sb/cfe_sb_priv.c **** 
 683:/home/simulink/cFS_FreeRTOS_seL4/cfe/fsw/cfe-core/src/sb/cfe_sb_priv.c ****       return CFE_SB_DENIED;
 974               	.loc 2 683 0
 975 065c 4280      	clr.l %d0
 976 065e 6032      	jra .L71
 977               	.L70:
 684:/home/simulink/cFS_FreeRTOS_seL4/cfe/fsw/cfe-core/src/sb/cfe_sb_priv.c **** 
 685:/home/simulink/cFS_FreeRTOS_seL4/cfe/fsw/cfe-core/src/sb/cfe_sb_priv.c ****     }else{
 686:/home/simulink/cFS_FreeRTOS_seL4/cfe/fsw/cfe-core/src/sb/cfe_sb_priv.c **** 
 687:/home/simulink/cFS_FreeRTOS_seL4/cfe/fsw/cfe-core/src/sb/cfe_sb_priv.c ****       CFE_SET(CFE_SB.StopRecurseFlags[TaskId],Bit);
 978               	.loc 2 687 0
 979 0660 202F 0008 	move.l 8(%sp),%d0
 980 0664 5880      	addq.l #4,%d0
 981 0666 E588      	lsl.l #2,%d0
 982 0668 41F9 0000 	lea CFE_SB,%a0
 982      0000 
 983 066e 2430 0800 	move.l (%a0,%d0.l),%d2
 984 0672 7001      	moveq #1,%d0
 985 0674 222F 000C 	move.l 12(%sp),%d1
 986 0678 E3A8      	lsl.l %d1,%d0
 987 067a 2200      	move.l %d0,%d1
 988 067c 202F 0008 	move.l 8(%sp),%d0
 989 0680 8282      	or.l %d2,%d1
 990 0682 5880      	addq.l #4,%d0
68K GAS   			page 40


 991 0684 E588      	lsl.l #2,%d0
 992 0686 41F9 0000 	lea CFE_SB,%a0
 992      0000 
 993 068c 2181 0800 	move.l %d1,(%a0,%d0.l)
 688:/home/simulink/cFS_FreeRTOS_seL4/cfe/fsw/cfe-core/src/sb/cfe_sb_priv.c ****       return CFE_SB_GRANTED;
 994               	.loc 2 688 0
 995 0690 7001      	moveq #1,%d0
 996               	.L71:
 689:/home/simulink/cFS_FreeRTOS_seL4/cfe/fsw/cfe-core/src/sb/cfe_sb_priv.c **** 
 690:/home/simulink/cFS_FreeRTOS_seL4/cfe/fsw/cfe-core/src/sb/cfe_sb_priv.c ****     }/* end if */
 691:/home/simulink/cFS_FreeRTOS_seL4/cfe/fsw/cfe-core/src/sb/cfe_sb_priv.c **** 
 692:/home/simulink/cFS_FreeRTOS_seL4/cfe/fsw/cfe-core/src/sb/cfe_sb_priv.c **** }/* end CFE_SB_RequestToSendEvent */
 997               	.loc 2 692 0
 998 0692 241F      	move.l (%sp)+,%d2
 999 0694 4E75      	rts
 1000               	.cfi_endproc
 1001               	.LFE76:
 1002               	.sizeCFE_SB_RequestToSendEvent, .-CFE_SB_RequestToSendEvent
 1003               	.align2
 1004               	.globlCFE_SB_FinishSendEvent
 1005               	.typeCFE_SB_FinishSendEvent, @function
 1006               	CFE_SB_FinishSendEvent:
 1007               	.LFB77:
 693:/home/simulink/cFS_FreeRTOS_seL4/cfe/fsw/cfe-core/src/sb/cfe_sb_priv.c **** 
 694:/home/simulink/cFS_FreeRTOS_seL4/cfe/fsw/cfe-core/src/sb/cfe_sb_priv.c **** /******************************************************************************
 695:/home/simulink/cFS_FreeRTOS_seL4/cfe/fsw/cfe-core/src/sb/cfe_sb_priv.c **** **  Function:  CFE_SB_FinishSendEvent()
 696:/home/simulink/cFS_FreeRTOS_seL4/cfe/fsw/cfe-core/src/sb/cfe_sb_priv.c **** **
 697:/home/simulink/cFS_FreeRTOS_seL4/cfe/fsw/cfe-core/src/sb/cfe_sb_priv.c **** **  Purpose:
 698:/home/simulink/cFS_FreeRTOS_seL4/cfe/fsw/cfe-core/src/sb/cfe_sb_priv.c **** **    This function will clear the given bit for the given task. Called after
 699:/home/simulink/cFS_FreeRTOS_seL4/cfe/fsw/cfe-core/src/sb/cfe_sb_priv.c **** **    a successful CFE_SB_RequestToSendEvent()
 700:/home/simulink/cFS_FreeRTOS_seL4/cfe/fsw/cfe-core/src/sb/cfe_sb_priv.c **** **
 701:/home/simulink/cFS_FreeRTOS_seL4/cfe/fsw/cfe-core/src/sb/cfe_sb_priv.c **** **  Arguments:
 702:/home/simulink/cFS_FreeRTOS_seL4/cfe/fsw/cfe-core/src/sb/cfe_sb_priv.c **** **
 703:/home/simulink/cFS_FreeRTOS_seL4/cfe/fsw/cfe-core/src/sb/cfe_sb_priv.c **** **  Return:
 704:/home/simulink/cFS_FreeRTOS_seL4/cfe/fsw/cfe-core/src/sb/cfe_sb_priv.c **** **    If the bit is set this function will return CFE_SB_DENIED.
 705:/home/simulink/cFS_FreeRTOS_seL4/cfe/fsw/cfe-core/src/sb/cfe_sb_priv.c **** **    If bit is not set, this function set the bit and return CFE_SB_GRANTED.
 706:/home/simulink/cFS_FreeRTOS_seL4/cfe/fsw/cfe-core/src/sb/cfe_sb_priv.c **** */
 707:/home/simulink/cFS_FreeRTOS_seL4/cfe/fsw/cfe-core/src/sb/cfe_sb_priv.c **** void CFE_SB_FinishSendEvent(uint32 TaskId, uint32 Bit){
 1008               	.loc 2 707 0
 1009               	.cfi_startproc
 1010 0696 2F02      	move.l %d2,-(%sp)
 1011               	.cfi_def_cfa_offset 8
 1012               	.cfi_offset 2, -8
 708:/home/simulink/cFS_FreeRTOS_seL4/cfe/fsw/cfe-core/src/sb/cfe_sb_priv.c **** 
 709:/home/simulink/cFS_FreeRTOS_seL4/cfe/fsw/cfe-core/src/sb/cfe_sb_priv.c ****     OS_ConvertToArrayIndex(TaskId, &TaskId);
 1013               	.loc 2 709 0
 1014 0698 202F 0008 	move.l 8(%sp),%d0
 1015 069c 220F      	move.l %sp,%d1
 1016 069e 5081      	addq.l #8,%d1
 1017 06a0 2F01      	move.l %d1,-(%sp)
 1018               	.cfi_def_cfa_offset 12
 1019 06a2 2F00      	move.l %d0,-(%sp)
 1020               	.cfi_def_cfa_offset 16
 1021 06a4 4EBA F95A 	jsr OS_ConvertToArrayIndex
 1022 06a8 508F      	addq.l #8,%sp
 1023               	.cfi_def_cfa_offset 8
 710:/home/simulink/cFS_FreeRTOS_seL4/cfe/fsw/cfe-core/src/sb/cfe_sb_priv.c **** 
68K GAS   			page 41


 711:/home/simulink/cFS_FreeRTOS_seL4/cfe/fsw/cfe-core/src/sb/cfe_sb_priv.c ****     /* clear the bit so the task may send this event again */
 712:/home/simulink/cFS_FreeRTOS_seL4/cfe/fsw/cfe-core/src/sb/cfe_sb_priv.c ****     CFE_CLR(CFE_SB.StopRecurseFlags[TaskId],Bit);
 1024               	.loc 2 712 0
 1025 06aa 202F 0008 	move.l 8(%sp),%d0
 1026 06ae 5880      	addq.l #4,%d0
 1027 06b0 E588      	lsl.l #2,%d0
 1028 06b2 41F9 0000 	lea CFE_SB,%a0
 1028      0000 
 1029 06b8 2430 0800 	move.l (%a0,%d0.l),%d2
 1030 06bc 7001      	moveq #1,%d0
 1031 06be 222F 000C 	move.l 12(%sp),%d1
 1032 06c2 E3A8      	lsl.l %d1,%d0
 1033 06c4 4680      	not.l %d0
 1034 06c6 2200      	move.l %d0,%d1
 1035 06c8 202F 0008 	move.l 8(%sp),%d0
 1036 06cc C282      	and.l %d2,%d1
 1037 06ce 5880      	addq.l #4,%d0
 1038 06d0 E588      	lsl.l #2,%d0
 1039 06d2 41F9 0000 	lea CFE_SB,%a0
 1039      0000 
 1040 06d8 2181 0800 	move.l %d1,(%a0,%d0.l)
 713:/home/simulink/cFS_FreeRTOS_seL4/cfe/fsw/cfe-core/src/sb/cfe_sb_priv.c **** }/* end CFE_SB_RequestToSendEvent */
 1041               	.loc 2 713 0
 1042 06dc 4E71      	nop
 1043 06de 241F      	move.l (%sp)+,%d2
 1044 06e0 4E75      	rts
 1045               	.cfi_endproc
 1046               	.LFE77:
 1047               	.sizeCFE_SB_FinishSendEvent, .-CFE_SB_FinishSendEvent
 1048               	.align2
 1049               	.globlCFE_SB_AddDest
 1050               	.typeCFE_SB_AddDest, @function
 1051               	CFE_SB_AddDest:
 1052               	.LFB78:
 714:/home/simulink/cFS_FreeRTOS_seL4/cfe/fsw/cfe-core/src/sb/cfe_sb_priv.c **** 
 715:/home/simulink/cFS_FreeRTOS_seL4/cfe/fsw/cfe-core/src/sb/cfe_sb_priv.c **** 
 716:/home/simulink/cFS_FreeRTOS_seL4/cfe/fsw/cfe-core/src/sb/cfe_sb_priv.c **** 
 717:/home/simulink/cFS_FreeRTOS_seL4/cfe/fsw/cfe-core/src/sb/cfe_sb_priv.c **** /******************************************************************************
 718:/home/simulink/cFS_FreeRTOS_seL4/cfe/fsw/cfe-core/src/sb/cfe_sb_priv.c **** **  Function:  CFE_SB_AddDest()
 719:/home/simulink/cFS_FreeRTOS_seL4/cfe/fsw/cfe-core/src/sb/cfe_sb_priv.c **** **
 720:/home/simulink/cFS_FreeRTOS_seL4/cfe/fsw/cfe-core/src/sb/cfe_sb_priv.c **** **  Purpose:
 721:/home/simulink/cFS_FreeRTOS_seL4/cfe/fsw/cfe-core/src/sb/cfe_sb_priv.c **** **      This function will add the given node to the head of the list.
 722:/home/simulink/cFS_FreeRTOS_seL4/cfe/fsw/cfe-core/src/sb/cfe_sb_priv.c **** **
 723:/home/simulink/cFS_FreeRTOS_seL4/cfe/fsw/cfe-core/src/sb/cfe_sb_priv.c **** **  Arguments:
 724:/home/simulink/cFS_FreeRTOS_seL4/cfe/fsw/cfe-core/src/sb/cfe_sb_priv.c **** **      RtgTblIdx - Routing table index
 725:/home/simulink/cFS_FreeRTOS_seL4/cfe/fsw/cfe-core/src/sb/cfe_sb_priv.c **** **      Dest - Pointer to the destination block to add to the list
 726:/home/simulink/cFS_FreeRTOS_seL4/cfe/fsw/cfe-core/src/sb/cfe_sb_priv.c **** **
 727:/home/simulink/cFS_FreeRTOS_seL4/cfe/fsw/cfe-core/src/sb/cfe_sb_priv.c **** **  Return:
 728:/home/simulink/cFS_FreeRTOS_seL4/cfe/fsw/cfe-core/src/sb/cfe_sb_priv.c **** **
 729:/home/simulink/cFS_FreeRTOS_seL4/cfe/fsw/cfe-core/src/sb/cfe_sb_priv.c **** */
 730:/home/simulink/cFS_FreeRTOS_seL4/cfe/fsw/cfe-core/src/sb/cfe_sb_priv.c **** int32 CFE_SB_AddDest(uint16 RtgTblIdx, CFE_SB_DestinationD_t *NewNode){
 1053               	.loc 2 730 0
 1054               	.cfi_startproc
 1055 06e2 518F      	subq.l #8,%sp
 1056               	.cfi_def_cfa_offset 12
 1057 06e4 202F 000C 	move.l 12(%sp),%d0
 1058 06e8 3000      	move.w %d0,%d0
68K GAS   			page 42


 1059 06ea 3E80      	move.w %d0,(%sp)
 731:/home/simulink/cFS_FreeRTOS_seL4/cfe/fsw/cfe-core/src/sb/cfe_sb_priv.c **** 
 732:/home/simulink/cFS_FreeRTOS_seL4/cfe/fsw/cfe-core/src/sb/cfe_sb_priv.c ****     CFE_SB_DestinationD_t *WBS;/* Will Be Second (WBS) node */
 733:/home/simulink/cFS_FreeRTOS_seL4/cfe/fsw/cfe-core/src/sb/cfe_sb_priv.c **** 
 734:/home/simulink/cFS_FreeRTOS_seL4/cfe/fsw/cfe-core/src/sb/cfe_sb_priv.c ****     /* if first node in list */
 735:/home/simulink/cFS_FreeRTOS_seL4/cfe/fsw/cfe-core/src/sb/cfe_sb_priv.c ****     if(CFE_SB.RoutingTbl[RtgTblIdx].ListHeadPtr == NULL){
 1060               	.loc 2 735 0
 1061 06ec 4280      	clr.l %d0
 1062 06ee 3017      	move.w (%sp),%d0
 1063 06f0 720C      	moveq #12,%d1
 1064 06f2 4C01 0800 	muls.l %d1,%d0
 1065 06f6 41F9 0000 	lea CFE_SB+545816,%a0
 1065      0000 
 1066 06fc 2030 0800 	move.l (%a0,%d0.l),%d0
 1067 0700 4A80      	tst.l %d0
 1068 0702 662A      	jne .L74
 736:/home/simulink/cFS_FreeRTOS_seL4/cfe/fsw/cfe-core/src/sb/cfe_sb_priv.c **** 
 737:/home/simulink/cFS_FreeRTOS_seL4/cfe/fsw/cfe-core/src/sb/cfe_sb_priv.c ****         /* initialize the new node */
 738:/home/simulink/cFS_FreeRTOS_seL4/cfe/fsw/cfe-core/src/sb/cfe_sb_priv.c ****         NewNode->Next = NULL;
 1069               	.loc 2 738 0
 1070 0704 206F 0010 	move.l 16(%sp),%a0
 1071 0708 42A8 0010 	clr.l 16(%a0)
 739:/home/simulink/cFS_FreeRTOS_seL4/cfe/fsw/cfe-core/src/sb/cfe_sb_priv.c ****         NewNode->Prev = NULL;
 1072               	.loc 2 739 0
 1073 070c 206F 0010 	move.l 16(%sp),%a0
 1074 0710 42A8 000C 	clr.l 12(%a0)
 740:/home/simulink/cFS_FreeRTOS_seL4/cfe/fsw/cfe-core/src/sb/cfe_sb_priv.c **** 
 741:/home/simulink/cFS_FreeRTOS_seL4/cfe/fsw/cfe-core/src/sb/cfe_sb_priv.c ****         /* insert the new node */
 742:/home/simulink/cFS_FreeRTOS_seL4/cfe/fsw/cfe-core/src/sb/cfe_sb_priv.c ****         CFE_SB.RoutingTbl[RtgTblIdx].ListHeadPtr = NewNode;
 1075               	.loc 2 742 0
 1076 0714 4280      	clr.l %d0
 1077 0716 3017      	move.w (%sp),%d0
 1078 0718 720C      	moveq #12,%d1
 1079 071a 4C01 0800 	muls.l %d1,%d0
 1080 071e 41F9 0000 	lea CFE_SB+545816,%a0
 1080      0000 
 1081 0724 43EF 0010 	lea (16,%sp),%a1
 1082 0728 2191 0800 	move.l (%a1),(%a0,%d0.l)
 1083 072c 604C      	jra .L75
 1084               	.L74:
 743:/home/simulink/cFS_FreeRTOS_seL4/cfe/fsw/cfe-core/src/sb/cfe_sb_priv.c **** 
 744:/home/simulink/cFS_FreeRTOS_seL4/cfe/fsw/cfe-core/src/sb/cfe_sb_priv.c ****     }else{
 745:/home/simulink/cFS_FreeRTOS_seL4/cfe/fsw/cfe-core/src/sb/cfe_sb_priv.c **** 
 746:/home/simulink/cFS_FreeRTOS_seL4/cfe/fsw/cfe-core/src/sb/cfe_sb_priv.c ****         WBS = CFE_SB.RoutingTbl[RtgTblIdx].ListHeadPtr;
 1085               	.loc 2 746 0
 1086 072e 4280      	clr.l %d0
 1087 0730 3017      	move.w (%sp),%d0
 1088 0732 720C      	moveq #12,%d1
 1089 0734 4C01 0800 	muls.l %d1,%d0
 1090 0738 41F9 0000 	lea CFE_SB+545816,%a0
 1090      0000 
 1091 073e 43F0 0800 	lea (%a0,%d0.l),%a1
 1092 0742 2F51 0004 	move.l (%a1),4(%sp)
 747:/home/simulink/cFS_FreeRTOS_seL4/cfe/fsw/cfe-core/src/sb/cfe_sb_priv.c **** 
 748:/home/simulink/cFS_FreeRTOS_seL4/cfe/fsw/cfe-core/src/sb/cfe_sb_priv.c ****         /* initialize the new node */
 749:/home/simulink/cFS_FreeRTOS_seL4/cfe/fsw/cfe-core/src/sb/cfe_sb_priv.c ****         NewNode->Next = WBS;
 1093               	.loc 2 749 0
68K GAS   			page 43


 1094 0746 206F 0010 	move.l 16(%sp),%a0
 1095 074a 216F 0004 	move.l 4(%sp),16(%a0)
 1095      0010 
 750:/home/simulink/cFS_FreeRTOS_seL4/cfe/fsw/cfe-core/src/sb/cfe_sb_priv.c ****         NewNode->Prev = NULL;
 1096               	.loc 2 750 0
 1097 0750 206F 0010 	move.l 16(%sp),%a0
 1098 0754 42A8 000C 	clr.l 12(%a0)
 751:/home/simulink/cFS_FreeRTOS_seL4/cfe/fsw/cfe-core/src/sb/cfe_sb_priv.c **** 
 752:/home/simulink/cFS_FreeRTOS_seL4/cfe/fsw/cfe-core/src/sb/cfe_sb_priv.c ****         /* insert the new node */
 753:/home/simulink/cFS_FreeRTOS_seL4/cfe/fsw/cfe-core/src/sb/cfe_sb_priv.c ****         WBS -> Prev = NewNode;
 1099               	.loc 2 753 0
 1100 0758 206F 0004 	move.l 4(%sp),%a0
 1101 075c 216F 0010 	move.l 16(%sp),12(%a0)
 1101      000C 
 754:/home/simulink/cFS_FreeRTOS_seL4/cfe/fsw/cfe-core/src/sb/cfe_sb_priv.c ****         CFE_SB.RoutingTbl[RtgTblIdx].ListHeadPtr = NewNode;
 1102               	.loc 2 754 0
 1103 0762 4280      	clr.l %d0
 1104 0764 3017      	move.w (%sp),%d0
 1105 0766 720C      	moveq #12,%d1
 1106 0768 4C01 0800 	muls.l %d1,%d0
 1107 076c 41F9 0000 	lea CFE_SB+545816,%a0
 1107      0000 
 1108 0772 43EF 0010 	lea (16,%sp),%a1
 1109 0776 2191 0800 	move.l (%a1),(%a0,%d0.l)
 1110               	.L75:
 755:/home/simulink/cFS_FreeRTOS_seL4/cfe/fsw/cfe-core/src/sb/cfe_sb_priv.c **** 
 756:/home/simulink/cFS_FreeRTOS_seL4/cfe/fsw/cfe-core/src/sb/cfe_sb_priv.c ****     }/* end if */
 757:/home/simulink/cFS_FreeRTOS_seL4/cfe/fsw/cfe-core/src/sb/cfe_sb_priv.c **** 
 758:/home/simulink/cFS_FreeRTOS_seL4/cfe/fsw/cfe-core/src/sb/cfe_sb_priv.c ****     return CFE_SUCCESS;
 1111               	.loc 2 758 0
 1112 077a 4280      	clr.l %d0
 759:/home/simulink/cFS_FreeRTOS_seL4/cfe/fsw/cfe-core/src/sb/cfe_sb_priv.c **** 
 760:/home/simulink/cFS_FreeRTOS_seL4/cfe/fsw/cfe-core/src/sb/cfe_sb_priv.c **** }/* CFE_SB_AddDest */
 1113               	.loc 2 760 0
 1114 077c 508F      	addq.l #8,%sp
 1115 077e 4E75      	rts
 1116               	.cfi_endproc
 1117               	.LFE78:
 1118               	.sizeCFE_SB_AddDest, .-CFE_SB_AddDest
 1119               	.align2
 1120               	.globlCFE_SB_RemoveDest
 1121               	.typeCFE_SB_RemoveDest, @function
 1122               	CFE_SB_RemoveDest:
 1123               	.LFB79:
 761:/home/simulink/cFS_FreeRTOS_seL4/cfe/fsw/cfe-core/src/sb/cfe_sb_priv.c **** 
 762:/home/simulink/cFS_FreeRTOS_seL4/cfe/fsw/cfe-core/src/sb/cfe_sb_priv.c **** 
 763:/home/simulink/cFS_FreeRTOS_seL4/cfe/fsw/cfe-core/src/sb/cfe_sb_priv.c **** 
 764:/home/simulink/cFS_FreeRTOS_seL4/cfe/fsw/cfe-core/src/sb/cfe_sb_priv.c **** /******************************************************************************
 765:/home/simulink/cFS_FreeRTOS_seL4/cfe/fsw/cfe-core/src/sb/cfe_sb_priv.c **** **  Function:  CFE_SB_RemoveDest()
 766:/home/simulink/cFS_FreeRTOS_seL4/cfe/fsw/cfe-core/src/sb/cfe_sb_priv.c **** **
 767:/home/simulink/cFS_FreeRTOS_seL4/cfe/fsw/cfe-core/src/sb/cfe_sb_priv.c **** **  Purpose:
 768:/home/simulink/cFS_FreeRTOS_seL4/cfe/fsw/cfe-core/src/sb/cfe_sb_priv.c **** **      This function will remove the given node from the list.
 769:/home/simulink/cFS_FreeRTOS_seL4/cfe/fsw/cfe-core/src/sb/cfe_sb_priv.c **** **      This function assumes there is at least one node in the list.
 770:/home/simulink/cFS_FreeRTOS_seL4/cfe/fsw/cfe-core/src/sb/cfe_sb_priv.c **** **
 771:/home/simulink/cFS_FreeRTOS_seL4/cfe/fsw/cfe-core/src/sb/cfe_sb_priv.c **** **  Arguments:
 772:/home/simulink/cFS_FreeRTOS_seL4/cfe/fsw/cfe-core/src/sb/cfe_sb_priv.c **** **      RtgTblIdx - Routing table index
 773:/home/simulink/cFS_FreeRTOS_seL4/cfe/fsw/cfe-core/src/sb/cfe_sb_priv.c **** **      Dest - Pointer to the destination block to remove from the list
68K GAS   			page 44


 774:/home/simulink/cFS_FreeRTOS_seL4/cfe/fsw/cfe-core/src/sb/cfe_sb_priv.c **** **
 775:/home/simulink/cFS_FreeRTOS_seL4/cfe/fsw/cfe-core/src/sb/cfe_sb_priv.c **** **  Return:
 776:/home/simulink/cFS_FreeRTOS_seL4/cfe/fsw/cfe-core/src/sb/cfe_sb_priv.c **** **
 777:/home/simulink/cFS_FreeRTOS_seL4/cfe/fsw/cfe-core/src/sb/cfe_sb_priv.c **** */
 778:/home/simulink/cFS_FreeRTOS_seL4/cfe/fsw/cfe-core/src/sb/cfe_sb_priv.c **** int32 CFE_SB_RemoveDest(uint16 RtgTblIdx, CFE_SB_DestinationD_t *NodeToRemove){
 1124               	.loc 2 778 0
 1125               	.cfi_startproc
 1126 0780 4FEF FFF4 	lea (-12,%sp),%sp
 1127               	.cfi_def_cfa_offset 16
 1128 0784 202F 0010 	move.l 16(%sp),%d0
 1129 0788 3000      	move.w %d0,%d0
 1130 078a 3E80      	move.w %d0,(%sp)
 779:/home/simulink/cFS_FreeRTOS_seL4/cfe/fsw/cfe-core/src/sb/cfe_sb_priv.c **** 
 780:/home/simulink/cFS_FreeRTOS_seL4/cfe/fsw/cfe-core/src/sb/cfe_sb_priv.c ****     CFE_SB_DestinationD_t *PrevNode;
 781:/home/simulink/cFS_FreeRTOS_seL4/cfe/fsw/cfe-core/src/sb/cfe_sb_priv.c ****     CFE_SB_DestinationD_t *NextNode;
 782:/home/simulink/cFS_FreeRTOS_seL4/cfe/fsw/cfe-core/src/sb/cfe_sb_priv.c **** 
 783:/home/simulink/cFS_FreeRTOS_seL4/cfe/fsw/cfe-core/src/sb/cfe_sb_priv.c ****     /* if this is the only node in the list */
 784:/home/simulink/cFS_FreeRTOS_seL4/cfe/fsw/cfe-core/src/sb/cfe_sb_priv.c ****     if((NodeToRemove->Prev == NULL) && (NodeToRemove->Next == NULL)){
 1131               	.loc 2 784 0
 1132 078c 206F 0014 	move.l 20(%sp),%a0
 1133 0790 2028 000C 	move.l 12(%a0),%d0
 1134 0794 4A80      	tst.l %d0
 1135 0796 6624      	jne .L78
 1136               	.loc 2 784 0 is_stmt 0 discriminator 1
 1137 0798 206F 0014 	move.l 20(%sp),%a0
 1138 079c 2028 0010 	move.l 16(%a0),%d0
 1139 07a0 4A80      	tst.l %d0
 1140 07a2 6618      	jne .L78
 785:/home/simulink/cFS_FreeRTOS_seL4/cfe/fsw/cfe-core/src/sb/cfe_sb_priv.c **** 
 786:/home/simulink/cFS_FreeRTOS_seL4/cfe/fsw/cfe-core/src/sb/cfe_sb_priv.c ****         CFE_SB.RoutingTbl[RtgTblIdx].ListHeadPtr = NULL;
 1141               	.loc 2 786 0 is_stmt 1
 1142 07a4 4280      	clr.l %d0
 1143 07a6 3017      	move.w (%sp),%d0
 1144 07a8 720C      	moveq #12,%d1
 1145 07aa 4C01 0800 	muls.l %d1,%d0
 1146 07ae 41F9 0000 	lea CFE_SB+545816,%a0
 1146      0000 
 1147 07b4 42B0 0800 	clr.l (%a0,%d0.l)
 1148 07b8 6000 0082 	jra .L79
 1149               	.L78:
 787:/home/simulink/cFS_FreeRTOS_seL4/cfe/fsw/cfe-core/src/sb/cfe_sb_priv.c **** 
 788:/home/simulink/cFS_FreeRTOS_seL4/cfe/fsw/cfe-core/src/sb/cfe_sb_priv.c ****     /* if first node in the list and list has more than one */
 789:/home/simulink/cFS_FreeRTOS_seL4/cfe/fsw/cfe-core/src/sb/cfe_sb_priv.c ****     }else if(NodeToRemove->Prev == NULL){
 1150               	.loc 2 789 0
 1151 07bc 206F 0014 	move.l 20(%sp),%a0
 1152 07c0 2028 000C 	move.l 12(%a0),%d0
 1153 07c4 4A80      	tst.l %d0
 1154 07c6 662C      	jne .L80
 790:/home/simulink/cFS_FreeRTOS_seL4/cfe/fsw/cfe-core/src/sb/cfe_sb_priv.c **** 
 791:/home/simulink/cFS_FreeRTOS_seL4/cfe/fsw/cfe-core/src/sb/cfe_sb_priv.c ****         NextNode = NodeToRemove->Next;
 1155               	.loc 2 791 0
 1156 07c8 206F 0014 	move.l 20(%sp),%a0
 1157 07cc 2F68 0010 	move.l 16(%a0),4(%sp)
 1157      0004 
 792:/home/simulink/cFS_FreeRTOS_seL4/cfe/fsw/cfe-core/src/sb/cfe_sb_priv.c **** 
 793:/home/simulink/cFS_FreeRTOS_seL4/cfe/fsw/cfe-core/src/sb/cfe_sb_priv.c ****         NextNode -> Prev = NULL;
 1158               	.loc 2 793 0
68K GAS   			page 45


 1159 07d2 206F 0004 	move.l 4(%sp),%a0
 1160 07d6 42A8 000C 	clr.l 12(%a0)
 794:/home/simulink/cFS_FreeRTOS_seL4/cfe/fsw/cfe-core/src/sb/cfe_sb_priv.c **** 
 795:/home/simulink/cFS_FreeRTOS_seL4/cfe/fsw/cfe-core/src/sb/cfe_sb_priv.c ****         CFE_SB.RoutingTbl[RtgTblIdx].ListHeadPtr = NextNode;
 1161               	.loc 2 795 0
 1162 07da 4280      	clr.l %d0
 1163 07dc 3017      	move.w (%sp),%d0
 1164 07de 720C      	moveq #12,%d1
 1165 07e0 4C01 0800 	muls.l %d1,%d0
 1166 07e4 41F9 0000 	lea CFE_SB+545816,%a0
 1166      0000 
 1167 07ea 43EF 0004 	lea (4,%sp),%a1
 1168 07ee 2191 0800 	move.l (%a1),(%a0,%d0.l)
 1169 07f2 6048      	jra .L79
 1170               	.L80:
 796:/home/simulink/cFS_FreeRTOS_seL4/cfe/fsw/cfe-core/src/sb/cfe_sb_priv.c **** 
 797:/home/simulink/cFS_FreeRTOS_seL4/cfe/fsw/cfe-core/src/sb/cfe_sb_priv.c ****     /* if last node in the list and list has more than one */
 798:/home/simulink/cFS_FreeRTOS_seL4/cfe/fsw/cfe-core/src/sb/cfe_sb_priv.c ****     }else if(NodeToRemove->Next == NULL){
 1171               	.loc 2 798 0
 1172 07f4 206F 0014 	move.l 20(%sp),%a0
 1173 07f8 2028 0010 	move.l 16(%a0),%d0
 1174 07fc 4A80      	tst.l %d0
 1175 07fe 6614      	jne .L81
 799:/home/simulink/cFS_FreeRTOS_seL4/cfe/fsw/cfe-core/src/sb/cfe_sb_priv.c **** 
 800:/home/simulink/cFS_FreeRTOS_seL4/cfe/fsw/cfe-core/src/sb/cfe_sb_priv.c ****         PrevNode = NodeToRemove->Prev;
 1176               	.loc 2 800 0
 1177 0800 206F 0014 	move.l 20(%sp),%a0
 1178 0804 2F68 000C 	move.l 12(%a0),8(%sp)
 1178      0008 
 801:/home/simulink/cFS_FreeRTOS_seL4/cfe/fsw/cfe-core/src/sb/cfe_sb_priv.c **** 
 802:/home/simulink/cFS_FreeRTOS_seL4/cfe/fsw/cfe-core/src/sb/cfe_sb_priv.c ****         PrevNode -> Next = NULL;
 1179               	.loc 2 802 0
 1180 080a 206F 0008 	move.l 8(%sp),%a0
 1181 080e 42A8 0010 	clr.l 16(%a0)
 1182 0812 6028      	jra .L79
 1183               	.L81:
 803:/home/simulink/cFS_FreeRTOS_seL4/cfe/fsw/cfe-core/src/sb/cfe_sb_priv.c **** 
 804:/home/simulink/cFS_FreeRTOS_seL4/cfe/fsw/cfe-core/src/sb/cfe_sb_priv.c ****     /* NodeToRemove has node(s) before and node(s) after */
 805:/home/simulink/cFS_FreeRTOS_seL4/cfe/fsw/cfe-core/src/sb/cfe_sb_priv.c ****     }else{
 806:/home/simulink/cFS_FreeRTOS_seL4/cfe/fsw/cfe-core/src/sb/cfe_sb_priv.c **** 
 807:/home/simulink/cFS_FreeRTOS_seL4/cfe/fsw/cfe-core/src/sb/cfe_sb_priv.c ****         PrevNode = NodeToRemove->Prev;
 1184               	.loc 2 807 0
 1185 0814 206F 0014 	move.l 20(%sp),%a0
 1186 0818 2F68 000C 	move.l 12(%a0),8(%sp)
 1186      0008 
 808:/home/simulink/cFS_FreeRTOS_seL4/cfe/fsw/cfe-core/src/sb/cfe_sb_priv.c ****         NextNode = NodeToRemove->Next;
 1187               	.loc 2 808 0
 1188 081e 206F 0014 	move.l 20(%sp),%a0
 1189 0822 2F68 0010 	move.l 16(%a0),4(%sp)
 1189      0004 
 809:/home/simulink/cFS_FreeRTOS_seL4/cfe/fsw/cfe-core/src/sb/cfe_sb_priv.c **** 
 810:/home/simulink/cFS_FreeRTOS_seL4/cfe/fsw/cfe-core/src/sb/cfe_sb_priv.c ****         PrevNode -> Next = NextNode;
 1190               	.loc 2 810 0
 1191 0828 206F 0008 	move.l 8(%sp),%a0
 1192 082c 216F 0004 	move.l 4(%sp),16(%a0)
 1192      0010 
 811:/home/simulink/cFS_FreeRTOS_seL4/cfe/fsw/cfe-core/src/sb/cfe_sb_priv.c ****         NextNode -> Prev = PrevNode;
68K GAS   			page 46


 1193               	.loc 2 811 0
 1194 0832 206F 0004 	move.l 4(%sp),%a0
 1195 0836 216F 0008 	move.l 8(%sp),12(%a0)
 1195      000C 
 1196               	.L79:
 812:/home/simulink/cFS_FreeRTOS_seL4/cfe/fsw/cfe-core/src/sb/cfe_sb_priv.c **** 
 813:/home/simulink/cFS_FreeRTOS_seL4/cfe/fsw/cfe-core/src/sb/cfe_sb_priv.c ****     }/* end if */
 814:/home/simulink/cFS_FreeRTOS_seL4/cfe/fsw/cfe-core/src/sb/cfe_sb_priv.c **** 
 815:/home/simulink/cFS_FreeRTOS_seL4/cfe/fsw/cfe-core/src/sb/cfe_sb_priv.c **** 
 816:/home/simulink/cFS_FreeRTOS_seL4/cfe/fsw/cfe-core/src/sb/cfe_sb_priv.c ****     /* initialize the node before returning it to the heap */
 817:/home/simulink/cFS_FreeRTOS_seL4/cfe/fsw/cfe-core/src/sb/cfe_sb_priv.c ****     NodeToRemove -> Next = NULL;
 1197               	.loc 2 817 0
 1198 083c 206F 0014 	move.l 20(%sp),%a0
 1199 0840 42A8 0010 	clr.l 16(%a0)
 818:/home/simulink/cFS_FreeRTOS_seL4/cfe/fsw/cfe-core/src/sb/cfe_sb_priv.c ****     NodeToRemove -> Prev = NULL;
 1200               	.loc 2 818 0
 1201 0844 206F 0014 	move.l 20(%sp),%a0
 1202 0848 42A8 000C 	clr.l 12(%a0)
 819:/home/simulink/cFS_FreeRTOS_seL4/cfe/fsw/cfe-core/src/sb/cfe_sb_priv.c **** 
 820:/home/simulink/cFS_FreeRTOS_seL4/cfe/fsw/cfe-core/src/sb/cfe_sb_priv.c ****     return CFE_SUCCESS;
 1203               	.loc 2 820 0
 1204 084c 4280      	clr.l %d0
 821:/home/simulink/cFS_FreeRTOS_seL4/cfe/fsw/cfe-core/src/sb/cfe_sb_priv.c **** 
 822:/home/simulink/cFS_FreeRTOS_seL4/cfe/fsw/cfe-core/src/sb/cfe_sb_priv.c **** }/* CFE_SB_RemoveDest */
 1205               	.loc 2 822 0
 1206 084e 4FEF 000C 	lea (12,%sp),%sp
 1207 0852 4E75      	rts
 1208               	.cfi_endproc
 1209               	.LFE79:
 1210               	.sizeCFE_SB_RemoveDest, .-CFE_SB_RemoveDest
 1211               	.align2
 1212               	.globlCFE_SB_ZeroCopyReleaseAppId
 1213               	.typeCFE_SB_ZeroCopyReleaseAppId, @function
 1214               	CFE_SB_ZeroCopyReleaseAppId:
 1215               	.LFB80:
 823:/home/simulink/cFS_FreeRTOS_seL4/cfe/fsw/cfe-core/src/sb/cfe_sb_priv.c **** 
 824:/home/simulink/cFS_FreeRTOS_seL4/cfe/fsw/cfe-core/src/sb/cfe_sb_priv.c **** 
 825:/home/simulink/cFS_FreeRTOS_seL4/cfe/fsw/cfe-core/src/sb/cfe_sb_priv.c **** /******************************************************************************
 826:/home/simulink/cFS_FreeRTOS_seL4/cfe/fsw/cfe-core/src/sb/cfe_sb_priv.c **** ** Name:    CFE_SB_ZeroCopyReleaseAppId
 827:/home/simulink/cFS_FreeRTOS_seL4/cfe/fsw/cfe-core/src/sb/cfe_sb_priv.c **** **
 828:/home/simulink/cFS_FreeRTOS_seL4/cfe/fsw/cfe-core/src/sb/cfe_sb_priv.c **** ** Purpose: API used for releasing all pointers to a buffers (for zero copy mode
 829:/home/simulink/cFS_FreeRTOS_seL4/cfe/fsw/cfe-core/src/sb/cfe_sb_priv.c **** **          only) for a specific Application. This function is used for cleaning
 830:/home/simulink/cFS_FreeRTOS_seL4/cfe/fsw/cfe-core/src/sb/cfe_sb_priv.c **** **          up when an application crashes.
 831:/home/simulink/cFS_FreeRTOS_seL4/cfe/fsw/cfe-core/src/sb/cfe_sb_priv.c **** **
 832:/home/simulink/cFS_FreeRTOS_seL4/cfe/fsw/cfe-core/src/sb/cfe_sb_priv.c **** ** Assumptions, External Events, and Notes:
 833:/home/simulink/cFS_FreeRTOS_seL4/cfe/fsw/cfe-core/src/sb/cfe_sb_priv.c **** **          None
 834:/home/simulink/cFS_FreeRTOS_seL4/cfe/fsw/cfe-core/src/sb/cfe_sb_priv.c **** **
 835:/home/simulink/cFS_FreeRTOS_seL4/cfe/fsw/cfe-core/src/sb/cfe_sb_priv.c **** ** Date Written:
 836:/home/simulink/cFS_FreeRTOS_seL4/cfe/fsw/cfe-core/src/sb/cfe_sb_priv.c **** **          07/23/2009
 837:/home/simulink/cFS_FreeRTOS_seL4/cfe/fsw/cfe-core/src/sb/cfe_sb_priv.c **** **
 838:/home/simulink/cFS_FreeRTOS_seL4/cfe/fsw/cfe-core/src/sb/cfe_sb_priv.c **** ** Input Arguments:
 839:/home/simulink/cFS_FreeRTOS_seL4/cfe/fsw/cfe-core/src/sb/cfe_sb_priv.c **** **          AppId
 840:/home/simulink/cFS_FreeRTOS_seL4/cfe/fsw/cfe-core/src/sb/cfe_sb_priv.c **** **
 841:/home/simulink/cFS_FreeRTOS_seL4/cfe/fsw/cfe-core/src/sb/cfe_sb_priv.c **** ** Output Arguments:
 842:/home/simulink/cFS_FreeRTOS_seL4/cfe/fsw/cfe-core/src/sb/cfe_sb_priv.c **** **          None
 843:/home/simulink/cFS_FreeRTOS_seL4/cfe/fsw/cfe-core/src/sb/cfe_sb_priv.c **** **
 844:/home/simulink/cFS_FreeRTOS_seL4/cfe/fsw/cfe-core/src/sb/cfe_sb_priv.c **** ** Return Values:
68K GAS   			page 47


 845:/home/simulink/cFS_FreeRTOS_seL4/cfe/fsw/cfe-core/src/sb/cfe_sb_priv.c **** **          Status
 846:/home/simulink/cFS_FreeRTOS_seL4/cfe/fsw/cfe-core/src/sb/cfe_sb_priv.c **** **
 847:/home/simulink/cFS_FreeRTOS_seL4/cfe/fsw/cfe-core/src/sb/cfe_sb_priv.c **** ******************************************************************************/
 848:/home/simulink/cFS_FreeRTOS_seL4/cfe/fsw/cfe-core/src/sb/cfe_sb_priv.c **** int32 CFE_SB_ZeroCopyReleaseAppId(uint32         AppId)
 849:/home/simulink/cFS_FreeRTOS_seL4/cfe/fsw/cfe-core/src/sb/cfe_sb_priv.c **** {
 1216               	.loc 2 849 0
 1217               	.cfi_startproc
 1218 0854 518F      	subq.l #8,%sp
 1219               	.cfi_def_cfa_offset 12
 850:/home/simulink/cFS_FreeRTOS_seL4/cfe/fsw/cfe-core/src/sb/cfe_sb_priv.c ****     CFE_SB_ZeroCopyD_t *prev = NULL;
 1220               	.loc 2 850 0
 1221 0856 4297      	clr.l (%sp)
 851:/home/simulink/cFS_FreeRTOS_seL4/cfe/fsw/cfe-core/src/sb/cfe_sb_priv.c ****     CFE_SB_ZeroCopyD_t *zcd = (CFE_SB_ZeroCopyD_t *) (CFE_SB.ZeroCopyTail);
 1222               	.loc 2 851 0
 1223 0858 41F9 0000 	lea CFE_SB+144,%a0
 1223      0000 
 1224 085e 2F50 0004 	move.l (%a0),4(%sp)
 852:/home/simulink/cFS_FreeRTOS_seL4/cfe/fsw/cfe-core/src/sb/cfe_sb_priv.c **** 
 853:/home/simulink/cFS_FreeRTOS_seL4/cfe/fsw/cfe-core/src/sb/cfe_sb_priv.c ****     while(zcd != NULL){
 1225               	.loc 2 853 0
 1226 0862 6030      	jra .L84
 1227               	.L86:
 854:/home/simulink/cFS_FreeRTOS_seL4/cfe/fsw/cfe-core/src/sb/cfe_sb_priv.c ****         prev = (CFE_SB_ZeroCopyD_t *) (zcd->Prev);
 1228               	.loc 2 854 0
 1229 0864 206F 0004 	move.l 4(%sp),%a0
 1230 0868 2EA8 0010 	move.l 16(%a0),(%sp)
 855:/home/simulink/cFS_FreeRTOS_seL4/cfe/fsw/cfe-core/src/sb/cfe_sb_priv.c ****         if(zcd->AppID == AppId){
 1231               	.loc 2 855 0
 1232 086c 206F 0004 	move.l 4(%sp),%a0
 1233 0870 2010      	move.l (%a0),%d0
 1234 0872 B0AF 000C 	cmp.l 12(%sp),%d0
 1235 0876 6618      	jne .L85
 856:/home/simulink/cFS_FreeRTOS_seL4/cfe/fsw/cfe-core/src/sb/cfe_sb_priv.c ****             CFE_SB_ZeroCopyReleasePtr((CFE_SB_Msg_t *) zcd->Buffer, (CFE_SB_ZeroCopyHandle_t) zcd);
 1236               	.loc 2 856 0
 1237 0878 222F 0004 	move.l 4(%sp),%d1
 1238 087c 206F 0004 	move.l 4(%sp),%a0
 1239 0880 2028 0008 	move.l 8(%a0),%d0
 1240 0884 2F01      	move.l %d1,-(%sp)
 1241               	.cfi_def_cfa_offset 16
 1242 0886 2F00      	move.l %d0,-(%sp)
 1243               	.cfi_def_cfa_offset 20
 1244 0888 4EB9 0000 	jsr CFE_SB_ZeroCopyReleasePtr
 1244      0000 
 1245 088e 508F      	addq.l #8,%sp
 1246               	.cfi_def_cfa_offset 12
 1247               	.L85:
 857:/home/simulink/cFS_FreeRTOS_seL4/cfe/fsw/cfe-core/src/sb/cfe_sb_priv.c ****         }
 858:/home/simulink/cFS_FreeRTOS_seL4/cfe/fsw/cfe-core/src/sb/cfe_sb_priv.c ****         zcd = prev;
 1248               	.loc 2 858 0
 1249 0890 2F57 0004 	move.l (%sp),4(%sp)
 1250               	.L84:
 853:/home/simulink/cFS_FreeRTOS_seL4/cfe/fsw/cfe-core/src/sb/cfe_sb_priv.c ****         prev = (CFE_SB_ZeroCopyD_t *) (zcd->Prev);
 1251               	.loc 2 853 0
 1252 0894 4AAF 0004 	tst.l 4(%sp)
 1253 0898 66CA      	jne .L86
 859:/home/simulink/cFS_FreeRTOS_seL4/cfe/fsw/cfe-core/src/sb/cfe_sb_priv.c ****     }
 860:/home/simulink/cFS_FreeRTOS_seL4/cfe/fsw/cfe-core/src/sb/cfe_sb_priv.c **** 
68K GAS   			page 48


 861:/home/simulink/cFS_FreeRTOS_seL4/cfe/fsw/cfe-core/src/sb/cfe_sb_priv.c ****     return CFE_SUCCESS;
 1254               	.loc 2 861 0
 1255 089a 4280      	clr.l %d0
 862:/home/simulink/cFS_FreeRTOS_seL4/cfe/fsw/cfe-core/src/sb/cfe_sb_priv.c **** 
 863:/home/simulink/cFS_FreeRTOS_seL4/cfe/fsw/cfe-core/src/sb/cfe_sb_priv.c **** }/* end CFE_SB_ZeroCopyReleasePtr */
 1256               	.loc 2 863 0
 1257 089c 508F      	addq.l #8,%sp
 1258 089e 4E75      	rts
 1259               	.cfi_endproc
 1260               	.LFE80:
 1261               	.sizeCFE_SB_ZeroCopyReleaseAppId, .-CFE_SB_ZeroCopyReleaseAppId
 1262               	.localPipeName4ErrCase.5646
 1263               	.commPipeName4ErrCase.5646,1,1
 1264               	.Letext0:
 1265               	.file 3 "/home/simulink/cFS_FreeRTOS_seL4/osal/src/os/inc/common_types.h"
 1266               	.file 4 "/home/simulink/development/rtems/5/m68k-rtems5/include/machine/_default_types.h"
 1267               	.file 5 "/home/simulink/development/rtems/5/m68k-rtems5/include/machine/_types.h"
 1268               	.file 6 "/home/simulink/development/rtems/5/m68k-rtems5/include/sys/lock.h"
 1269               	.file 7 "/home/simulink/development/rtems/5/m68k-rtems5/include/sys/_types.h"
 1270               	.file 8 "/home/simulink/development/rtems/5/lib/gcc/m68k-rtems5/7.3.0/include/stddef.h"
 1271               	.file 9 "/home/simulink/development/rtems/5/m68k-rtems5/include/sys/reent.h"
 1272               	.file 10 "/home/simulink/development/rtems/5/m68k-rtems5/include/stdlib.h"
 1273               	.file 11 "/home/simulink/development/rtems/5/m68k-rtems5/include/time.h"
 1274               	.file 12 "/home/simulink/cFS_FreeRTOS_seL4/cfe/fsw/cfe-core/src/inc/ccsds.h"
 1275               	.file 13 "/home/simulink/cFS_FreeRTOS_seL4/cfe/fsw/cfe-core/src/inc/cfe_sb.h"
 1276               	.file 14 "/home/simulink/cFS_FreeRTOS_seL4/cfe/fsw/cfe-core/src/inc/cfe_evs.h"
 1277               	.file 15 "/home/simulink/cFS_FreeRTOS_seL4/cfe/fsw/cfe-core/src/inc/cfe_sb_msg.h"
 1278               	.file 16 "/home/simulink/cFS_FreeRTOS_seL4/cfe/fsw/cfe-core/src/sb/cfe_sb_priv.h"
 1279               	.section.debug_info,"",@progbits
 1280               	.Ldebug_info0:
 1281 0000 0000 1928 	.long0x1928
 1282 0004 0004      	.word0x4
 1283 0006 0000 0000 	.long.Ldebug_abbrev0
 1284 000a 04        	.byte0x4
 1285 000b 01        	.uleb128 0x1
 1286 000c 0000 0000 	.long.LASF317
 1287 0010 0C        	.byte0xc
 1288 0011 0000 0000 	.long.LASF318
 1289 0015 0000 0000 	.long.LASF319
 1290 0019 0000 0000 	.long.Ltext0
 1291 001d 0000 08A0 	.long.Letext0-.Ltext0
 1292 0021 0000 0000 	.long.Ldebug_line0
 1293 0025 02        	.uleb128 0x2
 1294 0026 01        	.byte0x1
 1295 0027 08        	.byte0x8
 1296 0028 0000 0000 	.long.LASF0
 1297 002c 02        	.uleb128 0x2
 1298 002d 01        	.byte0x1
 1299 002e 06        	.byte0x6
 1300 002f 0000 0000 	.long.LASF1
 1301 0033 02        	.uleb128 0x2
 1302 0034 02        	.byte0x2
 1303 0035 05        	.byte0x5
 1304 0036 0000 0000 	.long.LASF2
 1305 003a 03        	.uleb128 0x3
 1306 003b 0000 0000 	.long.LASF5
 1307 003f 03        	.byte0x3
68K GAS   			page 49


 1308 0040 E9        	.byte0xe9
 1309 0041 0000 0045 	.long0x45
 1310 0045 02        	.uleb128 0x2
 1311 0046 04        	.byte0x4
 1312 0047 05        	.byte0x5
 1313 0048 0000 0000 	.long.LASF3
 1314 004c 02        	.uleb128 0x2
 1315 004d 08        	.byte0x8
 1316 004e 05        	.byte0x5
 1317 004f 0000 0000 	.long.LASF4
 1318 0053 03        	.uleb128 0x3
 1319 0054 0000 0000 	.long.LASF6
 1320 0058 03        	.byte0x3
 1321 0059 EB        	.byte0xeb
 1322 005a 0000 0025 	.long0x25
 1323 005e 03        	.uleb128 0x3
 1324 005f 0000 0000 	.long.LASF7
 1325 0063 03        	.byte0x3
 1326 0064 EC        	.byte0xec
 1327 0065 0000 0069 	.long0x69
 1328 0069 02        	.uleb128 0x2
 1329 006a 02        	.byte0x2
 1330 006b 07        	.byte0x7
 1331 006c 0000 0000 	.long.LASF8
 1332 0070 03        	.uleb128 0x3
 1333 0071 0000 0000 	.long.LASF9
 1334 0075 03        	.byte0x3
 1335 0076 ED        	.byte0xed
 1336 0077 0000 007B 	.long0x7b
 1337 007b 02        	.uleb128 0x2
 1338 007c 04        	.byte0x4
 1339 007d 07        	.byte0x7
 1340 007e 0000 0000 	.long.LASF10
 1341 0082 02        	.uleb128 0x2
 1342 0083 08        	.byte0x8
 1343 0084 07        	.byte0x7
 1344 0085 0000 0000 	.long.LASF11
 1345 0089 03        	.uleb128 0x3
 1346 008a 0000 0000 	.long.LASF12
 1347 008e 03        	.byte0x3
 1348 008f F0        	.byte0xf0
 1349 0090 0000 007B 	.long0x7b
 1350 0094 04        	.uleb128 0x4
 1351 0095 0000 00A4 	.long0xa4
 1352 0099 0000 00A4 	.long0xa4
 1353 009d 05        	.uleb128 0x5
 1354 009e 0000 007B 	.long0x7b
 1355 00a2 00        	.byte0
 1356 00a3 00        	.byte0
 1357 00a4 02        	.uleb128 0x2
 1358 00a5 01        	.byte0x1
 1359 00a6 06        	.byte0x6
 1360 00a7 0000 0000 	.long.LASF13
 1361 00ab 06        	.uleb128 0x6
 1362 00ac 0000 00A4 	.long0xa4
 1363 00b0 04        	.uleb128 0x4
 1364 00b1 0000 00A4 	.long0xa4
68K GAS   			page 50


 1365 00b5 0000 00C0 	.long0xc0
 1366 00b9 05        	.uleb128 0x5
 1367 00ba 0000 007B 	.long0x7b
 1368 00be 13        	.byte0x13
 1369 00bf 00        	.byte0
 1370 00c0 07        	.uleb128 0x7
 1371 00c1 04        	.byte0x4
 1372 00c2 03        	.uleb128 0x3
 1373 00c3 0000 0000 	.long.LASF14
 1374 00c7 04        	.byte0x4
 1375 00c8 67        	.byte0x67
 1376 00c9 0000 004C 	.long0x4c
 1377 00cd 02        	.uleb128 0x2
 1378 00ce 08        	.byte0x8
 1379 00cf 04        	.byte0x4
 1380 00d0 0000 0000 	.long.LASF15
 1381 00d4 03        	.uleb128 0x3
 1382 00d5 0000 0000 	.long.LASF16
 1383 00d9 05        	.byte0x5
 1384 00da 10        	.byte0x10
 1385 00db 0000 00C2 	.long0xc2
 1386 00df 03        	.uleb128 0x3
 1387 00e0 0000 0000 	.long.LASF17
 1388 00e4 05        	.byte0x5
 1389 00e5 16        	.byte0x16
 1390 00e6 0000 00D4 	.long0xd4
 1391 00ea 08        	.uleb128 0x8
 1392 00eb 04        	.byte0x4
 1393 00ec 05        	.byte0x5
 1394 00ed 696E 7400 	.string"int"
 1395 00f1 09        	.uleb128 0x9
 1396 00f2 0000 0000 	.long.LASF21
 1397 00f6 08        	.byte0x8
 1398 00f7 06        	.byte0x6
 1399 00f8 28        	.byte0x28
 1400 00f9 0000 0116 	.long0x116
 1401 00fd 0A        	.uleb128 0xa
 1402 00fe 0000 0000 	.long.LASF18
 1403 0102 06        	.byte0x6
 1404 0103 29        	.byte0x29
 1405 0104 0000 0116 	.long0x116
 1406 0108 00        	.byte0
 1407 0109 0A        	.uleb128 0xa
 1408 010a 0000 0000 	.long.LASF19
 1409 010e 06        	.byte0x6
 1410 010f 2A        	.byte0x2a
 1411 0110 0000 0116 	.long0x116
 1412 0114 04        	.byte0x4
 1413 0115 00        	.byte0
 1414 0116 02        	.uleb128 0x2
 1415 0117 04        	.byte0x4
 1416 0118 07        	.byte0x7
 1417 0119 0000 0000 	.long.LASF20
 1418 011d 09        	.uleb128 0x9
 1419 011e 0000 0000 	.long.LASF22
 1420 0122 14        	.byte0x14
 1421 0123 06        	.byte0x6
68K GAS   			page 51


 1422 0124 2D        	.byte0x2d
 1423 0125 0000 015A 	.long0x15a
 1424 0129 0A        	.uleb128 0xa
 1425 012a 0000 0000 	.long.LASF23
 1426 012e 06        	.byte0x6
 1427 012f 2E        	.byte0x2e
 1428 0130 0000 00F1 	.long0xf1
 1429 0134 00        	.byte0
 1430 0135 0A        	.uleb128 0xa
 1431 0136 0000 0000 	.long.LASF24
 1432 013a 06        	.byte0x6
 1433 013b 2F        	.byte0x2f
 1434 013c 0000 015F 	.long0x15f
 1435 0140 08        	.byte0x8
 1436 0141 0A        	.uleb128 0xa
 1437 0142 0000 0000 	.long.LASF25
 1438 0146 06        	.byte0x6
 1439 0147 30        	.byte0x30
 1440 0148 0000 016A 	.long0x16a
 1441 014c 0C        	.byte0xc
 1442 014d 0A        	.uleb128 0xa
 1443 014e 0000 0000 	.long.LASF26
 1444 0152 06        	.byte0x6
 1445 0153 31        	.byte0x31
 1446 0154 0000 0170 	.long0x170
 1447 0158 10        	.byte0x10
 1448 0159 00        	.byte0
 1449 015a 0B        	.uleb128 0xb
 1450 015b 0000 0000 	.long.LASF27
 1451 015f 0C        	.uleb128 0xc
 1452 0160 04        	.byte0x4
 1453 0161 0000 015A 	.long0x15a
 1454 0165 0B        	.uleb128 0xb
 1455 0166 0000 0000 	.long.LASF28
 1456 016a 0C        	.uleb128 0xc
 1457 016b 04        	.byte0x4
 1458 016c 0000 0165 	.long0x165
 1459 0170 0C        	.uleb128 0xc
 1460 0171 04        	.byte0x4
 1461 0172 0000 00AB 	.long0xab
 1462 0176 09        	.uleb128 0x9
 1463 0177 0000 0000 	.long.LASF29
 1464 017b 14        	.byte0x14
 1465 017c 06        	.byte0x6
 1466 017d 34        	.byte0x34
 1467 017e 0000 018F 	.long0x18f
 1468 0182 0A        	.uleb128 0xa
 1469 0183 0000 0000 	.long.LASF30
 1470 0187 06        	.byte0x6
 1471 0188 35        	.byte0x35
 1472 0189 0000 011D 	.long0x11d
 1473 018d 00        	.byte0
 1474 018e 00        	.byte0
 1475 018f 09        	.uleb128 0x9
 1476 0190 0000 0000 	.long.LASF31
 1477 0194 18        	.byte0x18
 1478 0195 06        	.byte0x6
68K GAS   			page 52


 1479 0196 38        	.byte0x38
 1480 0197 0000 01B4 	.long0x1b4
 1481 019b 0A        	.uleb128 0xa
 1482 019c 0000 0000 	.long.LASF32
 1483 01a0 06        	.byte0x6
 1484 01a1 39        	.byte0x39
 1485 01a2 0000 0176 	.long0x176
 1486 01a6 00        	.byte0
 1487 01a7 0A        	.uleb128 0xa
 1488 01a8 0000 0000 	.long.LASF33
 1489 01ac 06        	.byte0x6
 1490 01ad 3A        	.byte0x3a
 1491 01ae 0000 0116 	.long0x116
 1492 01b2 14        	.byte0x14
 1493 01b3 00        	.byte0
 1494 01b4 0D        	.uleb128 0xd
 1495 01b5 0000 0000 	.long.LASF34
 1496 01b9 06        	.byte0x6
 1497 01ba 0171      	.word0x171
 1498 01bc 0000 018F 	.long0x18f
 1499 01c0 03        	.uleb128 0x3
 1500 01c1 0000 0000 	.long.LASF35
 1501 01c5 07        	.byte0x7
 1502 01c6 91        	.byte0x91
 1503 01c7 0000 0045 	.long0x45
 1504 01cb 0D        	.uleb128 0xd
 1505 01cc 0000 0000 	.long.LASF36
 1506 01d0 08        	.byte0x8
 1507 01d1 0165      	.word0x165
 1508 01d3 0000 0116 	.long0x116
 1509 01d7 0E        	.uleb128 0xe
 1510 01d8 04        	.byte0x4
 1511 01d9 07        	.byte0x7
 1512 01da A6        	.byte0xa6
 1513 01db 0000 01F6 	.long0x1f6
 1514 01df 0F        	.uleb128 0xf
 1515 01e0 0000 0000 	.long.LASF37
 1516 01e4 07        	.byte0x7
 1517 01e5 A8        	.byte0xa8
 1518 01e6 0000 01CB 	.long0x1cb
 1519 01ea 0F        	.uleb128 0xf
 1520 01eb 0000 0000 	.long.LASF38
 1521 01ef 07        	.byte0x7
 1522 01f0 A9        	.byte0xa9
 1523 01f1 0000 01F6 	.long0x1f6
 1524 01f5 00        	.byte0
 1525 01f6 04        	.uleb128 0x4
 1526 01f7 0000 0025 	.long0x25
 1527 01fb 0000 0206 	.long0x206
 1528 01ff 05        	.uleb128 0x5
 1529 0200 0000 007B 	.long0x7b
 1530 0204 03        	.byte0x3
 1531 0205 00        	.byte0
 1532 0206 10        	.uleb128 0x10
 1533 0207 08        	.byte0x8
 1534 0208 07        	.byte0x7
 1535 0209 A3        	.byte0xa3
68K GAS   			page 53


 1536 020a 0000 0227 	.long0x227
 1537 020e 0A        	.uleb128 0xa
 1538 020f 0000 0000 	.long.LASF39
 1539 0213 07        	.byte0x7
 1540 0214 A5        	.byte0xa5
 1541 0215 0000 00EA 	.long0xea
 1542 0219 00        	.byte0
 1543 021a 0A        	.uleb128 0xa
 1544 021b 0000 0000 	.long.LASF40
 1545 021f 07        	.byte0x7
 1546 0220 AA        	.byte0xaa
 1547 0221 0000 01D7 	.long0x1d7
 1548 0225 04        	.byte0x4
 1549 0226 00        	.byte0
 1550 0227 03        	.uleb128 0x3
 1551 0228 0000 0000 	.long.LASF41
 1552 022c 07        	.byte0x7
 1553 022d AB        	.byte0xab
 1554 022e 0000 0206 	.long0x206
 1555 0232 03        	.uleb128 0x3
 1556 0233 0000 0000 	.long.LASF42
 1557 0237 07        	.byte0x7
 1558 0238 AF        	.byte0xaf
 1559 0239 0000 01B4 	.long0x1b4
 1560 023d 03        	.uleb128 0x3
 1561 023e 0000 0000 	.long.LASF43
 1562 0242 09        	.byte0x9
 1563 0243 16        	.byte0x16
 1564 0244 0000 007B 	.long0x7b
 1565 0248 09        	.uleb128 0x9
 1566 0249 0000 0000 	.long.LASF44
 1567 024d 18        	.byte0x18
 1568 024e 09        	.byte0x9
 1569 024f 2F        	.byte0x2f
 1570 0250 0000 029B 	.long0x29b
 1571 0254 0A        	.uleb128 0xa
 1572 0255 0000 0000 	.long.LASF45
 1573 0259 09        	.byte0x9
 1574 025a 31        	.byte0x31
 1575 025b 0000 029B 	.long0x29b
 1576 025f 00        	.byte0
 1577 0260 11        	.uleb128 0x11
 1578 0261 5F6B 00   	.string"_k"
 1579 0264 09        	.byte0x9
 1580 0265 32        	.byte0x32
 1581 0266 0000 00EA 	.long0xea
 1582 026a 04        	.byte0x4
 1583 026b 0A        	.uleb128 0xa
 1584 026c 0000 0000 	.long.LASF46
 1585 0270 09        	.byte0x9
 1586 0271 32        	.byte0x32
 1587 0272 0000 00EA 	.long0xea
 1588 0276 08        	.byte0x8
 1589 0277 0A        	.uleb128 0xa
 1590 0278 0000 0000 	.long.LASF47
 1591 027c 09        	.byte0x9
 1592 027d 32        	.byte0x32
68K GAS   			page 54


 1593 027e 0000 00EA 	.long0xea
 1594 0282 0C        	.byte0xc
 1595 0283 0A        	.uleb128 0xa
 1596 0284 0000 0000 	.long.LASF48
 1597 0288 09        	.byte0x9
 1598 0289 32        	.byte0x32
 1599 028a 0000 00EA 	.long0xea
 1600 028e 10        	.byte0x10
 1601 028f 11        	.uleb128 0x11
 1602 0290 5F78 00   	.string"_x"
 1603 0293 09        	.byte0x9
 1604 0294 33        	.byte0x33
 1605 0295 0000 02A1 	.long0x2a1
 1606 0299 14        	.byte0x14
 1607 029a 00        	.byte0
 1608 029b 0C        	.uleb128 0xc
 1609 029c 04        	.byte0x4
 1610 029d 0000 0248 	.long0x248
 1611 02a1 04        	.uleb128 0x4
 1612 02a2 0000 023D 	.long0x23d
 1613 02a6 0000 02B1 	.long0x2b1
 1614 02aa 05        	.uleb128 0x5
 1615 02ab 0000 007B 	.long0x7b
 1616 02af 00        	.byte0
 1617 02b0 00        	.byte0
 1618 02b1 09        	.uleb128 0x9
 1619 02b2 0000 0000 	.long.LASF49
 1620 02b6 24        	.byte0x24
 1621 02b7 09        	.byte0x9
 1622 02b8 37        	.byte0x37
 1623 02b9 0000 032A 	.long0x32a
 1624 02bd 0A        	.uleb128 0xa
 1625 02be 0000 0000 	.long.LASF50
 1626 02c2 09        	.byte0x9
 1627 02c3 39        	.byte0x39
 1628 02c4 0000 00EA 	.long0xea
 1629 02c8 00        	.byte0
 1630 02c9 0A        	.uleb128 0xa
 1631 02ca 0000 0000 	.long.LASF51
 1632 02ce 09        	.byte0x9
 1633 02cf 3A        	.byte0x3a
 1634 02d0 0000 00EA 	.long0xea
 1635 02d4 04        	.byte0x4
 1636 02d5 0A        	.uleb128 0xa
 1637 02d6 0000 0000 	.long.LASF52
 1638 02da 09        	.byte0x9
 1639 02db 3B        	.byte0x3b
 1640 02dc 0000 00EA 	.long0xea
 1641 02e0 08        	.byte0x8
 1642 02e1 0A        	.uleb128 0xa
 1643 02e2 0000 0000 	.long.LASF53
 1644 02e6 09        	.byte0x9
 1645 02e7 3C        	.byte0x3c
 1646 02e8 0000 00EA 	.long0xea
 1647 02ec 0C        	.byte0xc
 1648 02ed 0A        	.uleb128 0xa
 1649 02ee 0000 0000 	.long.LASF54
68K GAS   			page 55


 1650 02f2 09        	.byte0x9
 1651 02f3 3D        	.byte0x3d
 1652 02f4 0000 00EA 	.long0xea
 1653 02f8 10        	.byte0x10
 1654 02f9 0A        	.uleb128 0xa
 1655 02fa 0000 0000 	.long.LASF55
 1656 02fe 09        	.byte0x9
 1657 02ff 3E        	.byte0x3e
 1658 0300 0000 00EA 	.long0xea
 1659 0304 14        	.byte0x14
 1660 0305 0A        	.uleb128 0xa
 1661 0306 0000 0000 	.long.LASF56
 1662 030a 09        	.byte0x9
 1663 030b 3F        	.byte0x3f
 1664 030c 0000 00EA 	.long0xea
 1665 0310 18        	.byte0x18
 1666 0311 0A        	.uleb128 0xa
 1667 0312 0000 0000 	.long.LASF57
 1668 0316 09        	.byte0x9
 1669 0317 40        	.byte0x40
 1670 0318 0000 00EA 	.long0xea
 1671 031c 1C        	.byte0x1c
 1672 031d 0A        	.uleb128 0xa
 1673 031e 0000 0000 	.long.LASF58
 1674 0322 09        	.byte0x9
 1675 0323 41        	.byte0x41
 1676 0324 0000 00EA 	.long0xea
 1677 0328 20        	.byte0x20
 1678 0329 00        	.byte0
 1679 032a 12        	.uleb128 0x12
 1680 032b 0000 0000 	.long.LASF59
 1681 032f 0108      	.word0x108
 1682 0331 09        	.byte0x9
 1683 0332 4A        	.byte0x4a
 1684 0333 0000 036A 	.long0x36a
 1685 0337 0A        	.uleb128 0xa
 1686 0338 0000 0000 	.long.LASF60
 1687 033c 09        	.byte0x9
 1688 033d 4B        	.byte0x4b
 1689 033e 0000 036A 	.long0x36a
 1690 0342 00        	.byte0
 1691 0343 0A        	.uleb128 0xa
 1692 0344 0000 0000 	.long.LASF61
 1693 0348 09        	.byte0x9
 1694 0349 4C        	.byte0x4c
 1695 034a 0000 036A 	.long0x36a
 1696 034e 80        	.byte0x80
 1697 034f 13        	.uleb128 0x13
 1698 0350 0000 0000 	.long.LASF62
 1699 0354 09        	.byte0x9
 1700 0355 4E        	.byte0x4e
 1701 0356 0000 023D 	.long0x23d
 1702 035a 0100      	.word0x100
 1703 035c 13        	.uleb128 0x13
 1704 035d 0000 0000 	.long.LASF63
 1705 0361 09        	.byte0x9
 1706 0362 51        	.byte0x51
68K GAS   			page 56


 1707 0363 0000 023D 	.long0x23d
 1708 0367 0104      	.word0x104
 1709 0369 00        	.byte0
 1710 036a 04        	.uleb128 0x4
 1711 036b 0000 00C0 	.long0xc0
 1712 036f 0000 037A 	.long0x37a
 1713 0373 05        	.uleb128 0x5
 1714 0374 0000 007B 	.long0x7b
 1715 0378 1F        	.byte0x1f
 1716 0379 00        	.byte0
 1717 037a 12        	.uleb128 0x12
 1718 037b 0000 0000 	.long.LASF64
 1719 037f 0190      	.word0x190
 1720 0381 09        	.byte0x9
 1721 0382 5D        	.byte0x5d
 1722 0383 0000 03B8 	.long0x3b8
 1723 0387 0A        	.uleb128 0xa
 1724 0388 0000 0000 	.long.LASF45
 1725 038c 09        	.byte0x9
 1726 038d 5E        	.byte0x5e
 1727 038e 0000 03B8 	.long0x3b8
 1728 0392 00        	.byte0
 1729 0393 0A        	.uleb128 0xa
 1730 0394 0000 0000 	.long.LASF65
 1731 0398 09        	.byte0x9
 1732 0399 5F        	.byte0x5f
 1733 039a 0000 00EA 	.long0xea
 1734 039e 04        	.byte0x4
 1735 039f 0A        	.uleb128 0xa
 1736 03a0 0000 0000 	.long.LASF66
 1737 03a4 09        	.byte0x9
 1738 03a5 61        	.byte0x61
 1739 03a6 0000 03BE 	.long0x3be
 1740 03aa 08        	.byte0x8
 1741 03ab 0A        	.uleb128 0xa
 1742 03ac 0000 0000 	.long.LASF59
 1743 03b0 09        	.byte0x9
 1744 03b1 62        	.byte0x62
 1745 03b2 0000 032A 	.long0x32a
 1746 03b6 88        	.byte0x88
 1747 03b7 00        	.byte0
 1748 03b8 0C        	.uleb128 0xc
 1749 03b9 04        	.byte0x4
 1750 03ba 0000 037A 	.long0x37a
 1751 03be 04        	.uleb128 0x4
 1752 03bf 0000 03CE 	.long0x3ce
 1753 03c3 0000 03CE 	.long0x3ce
 1754 03c7 05        	.uleb128 0x5
 1755 03c8 0000 007B 	.long0x7b
 1756 03cc 1F        	.byte0x1f
 1757 03cd 00        	.byte0
 1758 03ce 0C        	.uleb128 0xc
 1759 03cf 04        	.byte0x4
 1760 03d0 0000 03D4 	.long0x3d4
 1761 03d4 14        	.uleb128 0x14
 1762 03d5 09        	.uleb128 0x9
 1763 03d6 0000 0000 	.long.LASF67
68K GAS   			page 57


 1764 03da 08        	.byte0x8
 1765 03db 09        	.byte0x9
 1766 03dc 75        	.byte0x75
 1767 03dd 0000 03FA 	.long0x3fa
 1768 03e1 0A        	.uleb128 0xa
 1769 03e2 0000 0000 	.long.LASF68
 1770 03e6 09        	.byte0x9
 1771 03e7 76        	.byte0x76
 1772 03e8 0000 03FA 	.long0x3fa
 1773 03ec 00        	.byte0
 1774 03ed 0A        	.uleb128 0xa
 1775 03ee 0000 0000 	.long.LASF69
 1776 03f2 09        	.byte0x9
 1777 03f3 77        	.byte0x77
 1778 03f4 0000 00EA 	.long0xea
 1779 03f8 04        	.byte0x4
 1780 03f9 00        	.byte0
 1781 03fa 0C        	.uleb128 0xc
 1782 03fb 04        	.byte0x4
 1783 03fc 0000 0025 	.long0x25
 1784 0400 09        	.uleb128 0x9
 1785 0401 0000 0000 	.long.LASF70
 1786 0405 80        	.byte0x80
 1787 0406 09        	.byte0x9
 1788 0407 B5        	.byte0xb5
 1789 0408 0000 052A 	.long0x52a
 1790 040c 11        	.uleb128 0x11
 1791 040d 5F70 00   	.string"_p"
 1792 0410 09        	.byte0x9
 1793 0411 B6        	.byte0xb6
 1794 0412 0000 03FA 	.long0x3fa
 1795 0416 00        	.byte0
 1796 0417 11        	.uleb128 0x11
 1797 0418 5F72 00   	.string"_r"
 1798 041b 09        	.byte0x9
 1799 041c B7        	.byte0xb7
 1800 041d 0000 00EA 	.long0xea
 1801 0421 04        	.byte0x4
 1802 0422 11        	.uleb128 0x11
 1803 0423 5F77 00   	.string"_w"
 1804 0426 09        	.byte0x9
 1805 0427 B8        	.byte0xb8
 1806 0428 0000 00EA 	.long0xea
 1807 042c 08        	.byte0x8
 1808 042d 0A        	.uleb128 0xa
 1809 042e 0000 0000 	.long.LASF71
 1810 0432 09        	.byte0x9
 1811 0433 B9        	.byte0xb9
 1812 0434 0000 0033 	.long0x33
 1813 0438 0C        	.byte0xc
 1814 0439 0A        	.uleb128 0xa
 1815 043a 0000 0000 	.long.LASF72
 1816 043e 09        	.byte0x9
 1817 043f BA        	.byte0xba
 1818 0440 0000 0033 	.long0x33
 1819 0444 0E        	.byte0xe
 1820 0445 11        	.uleb128 0x11
68K GAS   			page 58


 1821 0446 5F62 6600 	.string"_bf"
 1822 044a 09        	.byte0x9
 1823 044b BB        	.byte0xbb
 1824 044c 0000 03D5 	.long0x3d5
 1825 0450 10        	.byte0x10
 1826 0451 0A        	.uleb128 0xa
 1827 0452 0000 0000 	.long.LASF73
 1828 0456 09        	.byte0x9
 1829 0457 BC        	.byte0xbc
 1830 0458 0000 00EA 	.long0xea
 1831 045c 18        	.byte0x18
 1832 045d 0A        	.uleb128 0xa
 1833 045e 0000 0000 	.long.LASF74
 1834 0462 09        	.byte0x9
 1835 0463 C3        	.byte0xc3
 1836 0464 0000 00C0 	.long0xc0
 1837 0468 1C        	.byte0x1c
 1838 0469 0A        	.uleb128 0xa
 1839 046a 0000 0000 	.long.LASF75
 1840 046e 09        	.byte0x9
 1841 046f C5        	.byte0xc5
 1842 0470 0000 0661 	.long0x661
 1843 0474 20        	.byte0x20
 1844 0475 0A        	.uleb128 0xa
 1845 0476 0000 0000 	.long.LASF76
 1846 047a 09        	.byte0x9
 1847 047b C7        	.byte0xc7
 1848 047c 0000 0685 	.long0x685
 1849 0480 24        	.byte0x24
 1850 0481 0A        	.uleb128 0xa
 1851 0482 0000 0000 	.long.LASF77
 1852 0486 09        	.byte0x9
 1853 0487 CA        	.byte0xca
 1854 0488 0000 06A9 	.long0x6a9
 1855 048c 28        	.byte0x28
 1856 048d 0A        	.uleb128 0xa
 1857 048e 0000 0000 	.long.LASF78
 1858 0492 09        	.byte0x9
 1859 0493 CB        	.byte0xcb
 1860 0494 0000 06C3 	.long0x6c3
 1861 0498 2C        	.byte0x2c
 1862 0499 11        	.uleb128 0x11
 1863 049a 5F75 6200 	.string"_ub"
 1864 049e 09        	.byte0x9
 1865 049f CE        	.byte0xce
 1866 04a0 0000 03D5 	.long0x3d5
 1867 04a4 30        	.byte0x30
 1868 04a5 11        	.uleb128 0x11
 1869 04a6 5F75 7000 	.string"_up"
 1870 04aa 09        	.byte0x9
 1871 04ab CF        	.byte0xcf
 1872 04ac 0000 03FA 	.long0x3fa
 1873 04b0 38        	.byte0x38
 1874 04b1 11        	.uleb128 0x11
 1875 04b2 5F75 7200 	.string"_ur"
 1876 04b6 09        	.byte0x9
 1877 04b7 D0        	.byte0xd0
68K GAS   			page 59


 1878 04b8 0000 00EA 	.long0xea
 1879 04bc 3C        	.byte0x3c
 1880 04bd 0A        	.uleb128 0xa
 1881 04be 0000 0000 	.long.LASF79
 1882 04c2 09        	.byte0x9
 1883 04c3 D3        	.byte0xd3
 1884 04c4 0000 06C9 	.long0x6c9
 1885 04c8 40        	.byte0x40
 1886 04c9 0A        	.uleb128 0xa
 1887 04ca 0000 0000 	.long.LASF80
 1888 04ce 09        	.byte0x9
 1889 04cf D4        	.byte0xd4
 1890 04d0 0000 06D9 	.long0x6d9
 1891 04d4 43        	.byte0x43
 1892 04d5 11        	.uleb128 0x11
 1893 04d6 5F6C 6200 	.string"_lb"
 1894 04da 09        	.byte0x9
 1895 04db D7        	.byte0xd7
 1896 04dc 0000 03D5 	.long0x3d5
 1897 04e0 44        	.byte0x44
 1898 04e1 0A        	.uleb128 0xa
 1899 04e2 0000 0000 	.long.LASF81
 1900 04e6 09        	.byte0x9
 1901 04e7 DA        	.byte0xda
 1902 04e8 0000 00EA 	.long0xea
 1903 04ec 4C        	.byte0x4c
 1904 04ed 0A        	.uleb128 0xa
 1905 04ee 0000 0000 	.long.LASF82
 1906 04f2 09        	.byte0x9
 1907 04f3 DB        	.byte0xdb
 1908 04f4 0000 00D4 	.long0xd4
 1909 04f8 50        	.byte0x50
 1910 04f9 0A        	.uleb128 0xa
 1911 04fa 0000 0000 	.long.LASF83
 1912 04fe 09        	.byte0x9
 1913 04ff DE        	.byte0xde
 1914 0500 0000 0548 	.long0x548
 1915 0504 58        	.byte0x58
 1916 0505 0A        	.uleb128 0xa
 1917 0506 0000 0000 	.long.LASF84
 1918 050a 09        	.byte0x9
 1919 050b E2        	.byte0xe2
 1920 050c 0000 0232 	.long0x232
 1921 0510 5C        	.byte0x5c
 1922 0511 0A        	.uleb128 0xa
 1923 0512 0000 0000 	.long.LASF85
 1924 0516 09        	.byte0x9
 1925 0517 E4        	.byte0xe4
 1926 0518 0000 0227 	.long0x227
 1927 051c 74        	.byte0x74
 1928 051d 0A        	.uleb128 0xa
 1929 051e 0000 0000 	.long.LASF86
 1930 0522 09        	.byte0x9
 1931 0523 E5        	.byte0xe5
 1932 0524 0000 00EA 	.long0xea
 1933 0528 7C        	.byte0x7c
 1934 0529 00        	.byte0
68K GAS   			page 60


 1935 052a 15        	.uleb128 0x15
 1936 052b 0000 01C0 	.long0x1c0
 1937 052f 0000 0548 	.long0x548
 1938 0533 16        	.uleb128 0x16
 1939 0534 0000 0548 	.long0x548
 1940 0538 16        	.uleb128 0x16
 1941 0539 0000 00C0 	.long0xc0
 1942 053d 16        	.uleb128 0x16
 1943 053e 0000 065B 	.long0x65b
 1944 0542 16        	.uleb128 0x16
 1945 0543 0000 00EA 	.long0xea
 1946 0547 00        	.byte0
 1947 0548 0C        	.uleb128 0xc
 1948 0549 04        	.byte0x4
 1949 054a 0000 0553 	.long0x553
 1950 054e 06        	.uleb128 0x6
 1951 054f 0000 0548 	.long0x548
 1952 0553 17        	.uleb128 0x17
 1953 0554 0000 0000 	.long.LASF87
 1954 0558 0158      	.word0x158
 1955 055a 09        	.byte0x9
 1956 055b 0239      	.word0x239
 1957 055d 0000 065B 	.long0x65b
 1958 0561 18        	.uleb128 0x18
 1959 0562 0000 0000 	.long.LASF88
 1960 0566 09        	.byte0x9
 1961 0567 023B      	.word0x23b
 1962 0569 0000 00EA 	.long0xea
 1963 056d 00        	.byte0
 1964 056e 18        	.uleb128 0x18
 1965 056f 0000 0000 	.long.LASF89
 1966 0573 09        	.byte0x9
 1967 0574 0240      	.word0x240
 1968 0576 0000 0730 	.long0x730
 1969 057a 04        	.byte0x4
 1970 057b 18        	.uleb128 0x18
 1971 057c 0000 0000 	.long.LASF90
 1972 0580 09        	.byte0x9
 1973 0581 0240      	.word0x240
 1974 0583 0000 0730 	.long0x730
 1975 0587 08        	.byte0x8
 1976 0588 18        	.uleb128 0x18
 1977 0589 0000 0000 	.long.LASF91
 1978 058d 09        	.byte0x9
 1979 058e 0240      	.word0x240
 1980 0590 0000 0730 	.long0x730
 1981 0594 0C        	.byte0xc
 1982 0595 18        	.uleb128 0x18
 1983 0596 0000 0000 	.long.LASF92
 1984 059a 09        	.byte0x9
 1985 059b 0242      	.word0x242
 1986 059d 0000 00EA 	.long0xea
 1987 05a1 10        	.byte0x10
 1988 05a2 18        	.uleb128 0x18
 1989 05a3 0000 0000 	.long.LASF93
 1990 05a7 09        	.byte0x9
 1991 05a8 0243      	.word0x243
68K GAS   			page 61


 1992 05aa 0000 0912 	.long0x912
 1993 05ae 14        	.byte0x14
 1994 05af 18        	.uleb128 0x18
 1995 05b0 0000 0000 	.long.LASF94
 1996 05b4 09        	.byte0x9
 1997 05b5 0246      	.word0x246
 1998 05b7 0000 00EA 	.long0xea
 1999 05bb 30        	.byte0x30
 2000 05bc 18        	.uleb128 0x18
 2001 05bd 0000 0000 	.long.LASF95
 2002 05c1 09        	.byte0x9
 2003 05c2 0247      	.word0x247
 2004 05c4 0000 0927 	.long0x927
 2005 05c8 34        	.byte0x34
 2006 05c9 18        	.uleb128 0x18
 2007 05ca 0000 0000 	.long.LASF96
 2008 05ce 09        	.byte0x9
 2009 05cf 0249      	.word0x249
 2010 05d1 0000 00EA 	.long0xea
 2011 05d5 38        	.byte0x38
 2012 05d6 18        	.uleb128 0x18
 2013 05d7 0000 0000 	.long.LASF97
 2014 05db 09        	.byte0x9
 2015 05dc 024B      	.word0x24b
 2016 05de 0000 0938 	.long0x938
 2017 05e2 3C        	.byte0x3c
 2018 05e3 18        	.uleb128 0x18
 2019 05e4 0000 0000 	.long.LASF98
 2020 05e8 09        	.byte0x9
 2021 05e9 024E      	.word0x24e
 2022 05eb 0000 029B 	.long0x29b
 2023 05ef 40        	.byte0x40
 2024 05f0 18        	.uleb128 0x18
 2025 05f1 0000 0000 	.long.LASF99
 2026 05f5 09        	.byte0x9
 2027 05f6 024F      	.word0x24f
 2028 05f8 0000 00EA 	.long0xea
 2029 05fc 44        	.byte0x44
 2030 05fd 18        	.uleb128 0x18
 2031 05fe 0000 0000 	.long.LASF100
 2032 0602 09        	.byte0x9
 2033 0603 0250      	.word0x250
 2034 0605 0000 029B 	.long0x29b
 2035 0609 48        	.byte0x48
 2036 060a 18        	.uleb128 0x18
 2037 060b 0000 0000 	.long.LASF101
 2038 060f 09        	.byte0x9
 2039 0610 0251      	.word0x251
 2040 0612 0000 093E 	.long0x93e
 2041 0616 4C        	.byte0x4c
 2042 0617 18        	.uleb128 0x18
 2043 0618 0000 0000 	.long.LASF102
 2044 061c 09        	.byte0x9
 2045 061d 0254      	.word0x254
 2046 061f 0000 00EA 	.long0xea
 2047 0623 50        	.byte0x50
 2048 0624 18        	.uleb128 0x18
68K GAS   			page 62


 2049 0625 0000 0000 	.long.LASF103
 2050 0629 09        	.byte0x9
 2051 062a 0255      	.word0x255
 2052 062c 0000 065B 	.long0x65b
 2053 0630 54        	.byte0x54
 2054 0631 18        	.uleb128 0x18
 2055 0632 0000 0000 	.long.LASF104
 2056 0636 09        	.byte0x9
 2057 0637 0278      	.word0x278
 2058 0639 0000 08F0 	.long0x8f0
 2059 063d 58        	.byte0x58
 2060 063e 19        	.uleb128 0x19
 2061 063f 0000 0000 	.long.LASF105
 2062 0643 09        	.byte0x9
 2063 0644 0281      	.word0x281
 2064 0646 0000 094F 	.long0x94f
 2065 064a 0148      	.word0x148
 2066 064c 19        	.uleb128 0x19
 2067 064d 0000 0000 	.long.LASF106
 2068 0651 09        	.byte0x9
 2069 0652 0286      	.word0x286
 2070 0654 0000 06F5 	.long0x6f5
 2071 0658 014C      	.word0x14c
 2072 065a 00        	.byte0
 2073 065b 0C        	.uleb128 0xc
 2074 065c 04        	.byte0x4
 2075 065d 0000 00A4 	.long0xa4
 2076 0661 0C        	.uleb128 0xc
 2077 0662 04        	.byte0x4
 2078 0663 0000 052A 	.long0x52a
 2079 0667 15        	.uleb128 0x15
 2080 0668 0000 01C0 	.long0x1c0
 2081 066c 0000 0685 	.long0x685
 2082 0670 16        	.uleb128 0x16
 2083 0671 0000 0548 	.long0x548
 2084 0675 16        	.uleb128 0x16
 2085 0676 0000 00C0 	.long0xc0
 2086 067a 16        	.uleb128 0x16
 2087 067b 0000 0170 	.long0x170
 2088 067f 16        	.uleb128 0x16
 2089 0680 0000 00EA 	.long0xea
 2090 0684 00        	.byte0
 2091 0685 0C        	.uleb128 0xc
 2092 0686 04        	.byte0x4
 2093 0687 0000 0667 	.long0x667
 2094 068b 15        	.uleb128 0x15
 2095 068c 0000 00DF 	.long0xdf
 2096 0690 0000 06A9 	.long0x6a9
 2097 0694 16        	.uleb128 0x16
 2098 0695 0000 0548 	.long0x548
 2099 0699 16        	.uleb128 0x16
 2100 069a 0000 00C0 	.long0xc0
 2101 069e 16        	.uleb128 0x16
 2102 069f 0000 00DF 	.long0xdf
 2103 06a3 16        	.uleb128 0x16
 2104 06a4 0000 00EA 	.long0xea
 2105 06a8 00        	.byte0
68K GAS   			page 63


 2106 06a9 0C        	.uleb128 0xc
 2107 06aa 04        	.byte0x4
 2108 06ab 0000 068B 	.long0x68b
 2109 06af 15        	.uleb128 0x15
 2110 06b0 0000 00EA 	.long0xea
 2111 06b4 0000 06C3 	.long0x6c3
 2112 06b8 16        	.uleb128 0x16
 2113 06b9 0000 0548 	.long0x548
 2114 06bd 16        	.uleb128 0x16
 2115 06be 0000 00C0 	.long0xc0
 2116 06c2 00        	.byte0
 2117 06c3 0C        	.uleb128 0xc
 2118 06c4 04        	.byte0x4
 2119 06c5 0000 06AF 	.long0x6af
 2120 06c9 04        	.uleb128 0x4
 2121 06ca 0000 0025 	.long0x25
 2122 06ce 0000 06D9 	.long0x6d9
 2123 06d2 05        	.uleb128 0x5
 2124 06d3 0000 007B 	.long0x7b
 2125 06d7 02        	.byte0x2
 2126 06d8 00        	.byte0
 2127 06d9 04        	.uleb128 0x4
 2128 06da 0000 0025 	.long0x25
 2129 06de 0000 06E9 	.long0x6e9
 2130 06e2 05        	.uleb128 0x5
 2131 06e3 0000 007B 	.long0x7b
 2132 06e7 00        	.byte0
 2133 06e8 00        	.byte0
 2134 06e9 0D        	.uleb128 0xd
 2135 06ea 0000 0000 	.long.LASF107
 2136 06ee 09        	.byte0x9
 2137 06ef 011F      	.word0x11f
 2138 06f1 0000 0400 	.long0x400
 2139 06f5 1A        	.uleb128 0x1a
 2140 06f6 0000 0000 	.long.LASF108
 2141 06fa 0C        	.byte0xc
 2142 06fb 09        	.byte0x9
 2143 06fc 0123      	.word0x123
 2144 06fe 0000 072A 	.long0x72a
 2145 0702 18        	.uleb128 0x18
 2146 0703 0000 0000 	.long.LASF45
 2147 0707 09        	.byte0x9
 2148 0708 0125      	.word0x125
 2149 070a 0000 072A 	.long0x72a
 2150 070e 00        	.byte0
 2151 070f 18        	.uleb128 0x18
 2152 0710 0000 0000 	.long.LASF109
 2153 0714 09        	.byte0x9
 2154 0715 0126      	.word0x126
 2155 0717 0000 00EA 	.long0xea
 2156 071b 04        	.byte0x4
 2157 071c 18        	.uleb128 0x18
 2158 071d 0000 0000 	.long.LASF110
 2159 0721 09        	.byte0x9
 2160 0722 0127      	.word0x127
 2161 0724 0000 0730 	.long0x730
 2162 0728 08        	.byte0x8
68K GAS   			page 64


 2163 0729 00        	.byte0
 2164 072a 0C        	.uleb128 0xc
 2165 072b 04        	.byte0x4
 2166 072c 0000 06F5 	.long0x6f5
 2167 0730 0C        	.uleb128 0xc
 2168 0731 04        	.byte0x4
 2169 0732 0000 06E9 	.long0x6e9
 2170 0736 1A        	.uleb128 0x1a
 2171 0737 0000 0000 	.long.LASF111
 2172 073b 0E        	.byte0xe
 2173 073c 09        	.byte0x9
 2174 073d 013F      	.word0x13f
 2175 073f 0000 076B 	.long0x76b
 2176 0743 18        	.uleb128 0x18
 2177 0744 0000 0000 	.long.LASF112
 2178 0748 09        	.byte0x9
 2179 0749 0140      	.word0x140
 2180 074b 0000 076B 	.long0x76b
 2181 074f 00        	.byte0
 2182 0750 18        	.uleb128 0x18
 2183 0751 0000 0000 	.long.LASF113
 2184 0755 09        	.byte0x9
 2185 0756 0141      	.word0x141
 2186 0758 0000 076B 	.long0x76b
 2187 075c 06        	.byte0x6
 2188 075d 18        	.uleb128 0x18
 2189 075e 0000 0000 	.long.LASF114
 2190 0762 09        	.byte0x9
 2191 0763 0142      	.word0x142
 2192 0765 0000 0069 	.long0x69
 2193 0769 0C        	.byte0xc
 2194 076a 00        	.byte0
 2195 076b 04        	.uleb128 0x4
 2196 076c 0000 0069 	.long0x69
 2197 0770 0000 077B 	.long0x77b
 2198 0774 05        	.uleb128 0x5
 2199 0775 0000 007B 	.long0x7b
 2200 0779 02        	.byte0x2
 2201 077a 00        	.byte0
 2202 077b 1B        	.uleb128 0x1b
 2203 077c CC        	.byte0xcc
 2204 077d 09        	.byte0x9
 2205 077e 0259      	.word0x259
 2206 0780 0000 087C 	.long0x87c
 2207 0784 18        	.uleb128 0x18
 2208 0785 0000 0000 	.long.LASF115
 2209 0789 09        	.byte0x9
 2210 078a 025B      	.word0x25b
 2211 078c 0000 0116 	.long0x116
 2212 0790 00        	.byte0
 2213 0791 18        	.uleb128 0x18
 2214 0792 0000 0000 	.long.LASF116
 2215 0796 09        	.byte0x9
 2216 0797 025C      	.word0x25c
 2217 0799 0000 065B 	.long0x65b
 2218 079d 04        	.byte0x4
 2219 079e 18        	.uleb128 0x18
68K GAS   			page 65


 2220 079f 0000 0000 	.long.LASF117
 2221 07a3 09        	.byte0x9
 2222 07a4 025D      	.word0x25d
 2223 07a6 0000 087C 	.long0x87c
 2224 07aa 08        	.byte0x8
 2225 07ab 18        	.uleb128 0x18
 2226 07ac 0000 0000 	.long.LASF118
 2227 07b0 09        	.byte0x9
 2228 07b1 025E      	.word0x25e
 2229 07b3 0000 02B1 	.long0x2b1
 2230 07b7 24        	.byte0x24
 2231 07b8 18        	.uleb128 0x18
 2232 07b9 0000 0000 	.long.LASF119
 2233 07bd 09        	.byte0x9
 2234 07be 025F      	.word0x25f
 2235 07c0 0000 00EA 	.long0xea
 2236 07c4 48        	.byte0x48
 2237 07c5 18        	.uleb128 0x18
 2238 07c6 0000 0000 	.long.LASF120
 2239 07ca 09        	.byte0x9
 2240 07cb 0260      	.word0x260
 2241 07cd 0000 0082 	.long0x82
 2242 07d1 4C        	.byte0x4c
 2243 07d2 18        	.uleb128 0x18
 2244 07d3 0000 0000 	.long.LASF121
 2245 07d7 09        	.byte0x9
 2246 07d8 0261      	.word0x261
 2247 07da 0000 0736 	.long0x736
 2248 07de 54        	.byte0x54
 2249 07df 18        	.uleb128 0x18
 2250 07e0 0000 0000 	.long.LASF122
 2251 07e4 09        	.byte0x9
 2252 07e5 0262      	.word0x262
 2253 07e7 0000 0227 	.long0x227
 2254 07eb 64        	.byte0x64
 2255 07ec 18        	.uleb128 0x18
 2256 07ed 0000 0000 	.long.LASF123
 2257 07f1 09        	.byte0x9
 2258 07f2 0263      	.word0x263
 2259 07f4 0000 0227 	.long0x227
 2260 07f8 6C        	.byte0x6c
 2261 07f9 18        	.uleb128 0x18
 2262 07fa 0000 0000 	.long.LASF124
 2263 07fe 09        	.byte0x9
 2264 07ff 0264      	.word0x264
 2265 0801 0000 0227 	.long0x227
 2266 0805 74        	.byte0x74
 2267 0806 18        	.uleb128 0x18
 2268 0807 0000 0000 	.long.LASF125
 2269 080b 09        	.byte0x9
 2270 080c 0265      	.word0x265
 2271 080e 0000 088C 	.long0x88c
 2272 0812 7C        	.byte0x7c
 2273 0813 18        	.uleb128 0x18
 2274 0814 0000 0000 	.long.LASF126
 2275 0818 09        	.byte0x9
 2276 0819 0266      	.word0x266
68K GAS   			page 66


 2277 081b 0000 089C 	.long0x89c
 2278 081f 84        	.byte0x84
 2279 0820 18        	.uleb128 0x18
 2280 0821 0000 0000 	.long.LASF127
 2281 0825 09        	.byte0x9
 2282 0826 0267      	.word0x267
 2283 0828 0000 00EA 	.long0xea
 2284 082c 9C        	.byte0x9c
 2285 082d 18        	.uleb128 0x18
 2286 082e 0000 0000 	.long.LASF128
 2287 0832 09        	.byte0x9
 2288 0833 0268      	.word0x268
 2289 0835 0000 0227 	.long0x227
 2290 0839 A0        	.byte0xa0
 2291 083a 18        	.uleb128 0x18
 2292 083b 0000 0000 	.long.LASF129
 2293 083f 09        	.byte0x9
 2294 0840 0269      	.word0x269
 2295 0842 0000 0227 	.long0x227
 2296 0846 A8        	.byte0xa8
 2297 0847 18        	.uleb128 0x18
 2298 0848 0000 0000 	.long.LASF130
 2299 084c 09        	.byte0x9
 2300 084d 026A      	.word0x26a
 2301 084f 0000 0227 	.long0x227
 2302 0853 B0        	.byte0xb0
 2303 0854 18        	.uleb128 0x18
 2304 0855 0000 0000 	.long.LASF131
 2305 0859 09        	.byte0x9
 2306 085a 026B      	.word0x26b
 2307 085c 0000 0227 	.long0x227
 2308 0860 B8        	.byte0xb8
 2309 0861 18        	.uleb128 0x18
 2310 0862 0000 0000 	.long.LASF132
 2311 0866 09        	.byte0x9
 2312 0867 026C      	.word0x26c
 2313 0869 0000 0227 	.long0x227
 2314 086d C0        	.byte0xc0
 2315 086e 18        	.uleb128 0x18
 2316 086f 0000 0000 	.long.LASF133
 2317 0873 09        	.byte0x9
 2318 0874 026D      	.word0x26d
 2319 0876 0000 00EA 	.long0xea
 2320 087a C8        	.byte0xc8
 2321 087b 00        	.byte0
 2322 087c 04        	.uleb128 0x4
 2323 087d 0000 00A4 	.long0xa4
 2324 0881 0000 088C 	.long0x88c
 2325 0885 05        	.uleb128 0x5
 2326 0886 0000 007B 	.long0x7b
 2327 088a 19        	.byte0x19
 2328 088b 00        	.byte0
 2329 088c 04        	.uleb128 0x4
 2330 088d 0000 00A4 	.long0xa4
 2331 0891 0000 089C 	.long0x89c
 2332 0895 05        	.uleb128 0x5
 2333 0896 0000 007B 	.long0x7b
68K GAS   			page 67


 2334 089a 07        	.byte0x7
 2335 089b 00        	.byte0
 2336 089c 04        	.uleb128 0x4
 2337 089d 0000 00A4 	.long0xa4
 2338 08a1 0000 08AC 	.long0x8ac
 2339 08a5 05        	.uleb128 0x5
 2340 08a6 0000 007B 	.long0x7b
 2341 08aa 17        	.byte0x17
 2342 08ab 00        	.byte0
 2343 08ac 1B        	.uleb128 0x1b
 2344 08ad F0        	.byte0xf0
 2345 08ae 09        	.byte0x9
 2346 08af 0272      	.word0x272
 2347 08b1 0000 08D0 	.long0x8d0
 2348 08b5 18        	.uleb128 0x18
 2349 08b6 0000 0000 	.long.LASF134
 2350 08ba 09        	.byte0x9
 2351 08bb 0275      	.word0x275
 2352 08bd 0000 08D0 	.long0x8d0
 2353 08c1 00        	.byte0
 2354 08c2 18        	.uleb128 0x18
 2355 08c3 0000 0000 	.long.LASF135
 2356 08c7 09        	.byte0x9
 2357 08c8 0276      	.word0x276
 2358 08ca 0000 08E0 	.long0x8e0
 2359 08ce 78        	.byte0x78
 2360 08cf 00        	.byte0
 2361 08d0 04        	.uleb128 0x4
 2362 08d1 0000 03FA 	.long0x3fa
 2363 08d5 0000 08E0 	.long0x8e0
 2364 08d9 05        	.uleb128 0x5
 2365 08da 0000 007B 	.long0x7b
 2366 08de 1D        	.byte0x1d
 2367 08df 00        	.byte0
 2368 08e0 04        	.uleb128 0x4
 2369 08e1 0000 0116 	.long0x116
 2370 08e5 0000 08F0 	.long0x8f0
 2371 08e9 05        	.uleb128 0x5
 2372 08ea 0000 007B 	.long0x7b
 2373 08ee 1D        	.byte0x1d
 2374 08ef 00        	.byte0
 2375 08f0 1C        	.uleb128 0x1c
 2376 08f1 F0        	.byte0xf0
 2377 08f2 09        	.byte0x9
 2378 08f3 0257      	.word0x257
 2379 08f5 0000 0912 	.long0x912
 2380 08f9 1D        	.uleb128 0x1d
 2381 08fa 0000 0000 	.long.LASF87
 2382 08fe 09        	.byte0x9
 2383 08ff 026E      	.word0x26e
 2384 0901 0000 077B 	.long0x77b
 2385 0905 1D        	.uleb128 0x1d
 2386 0906 0000 0000 	.long.LASF136
 2387 090a 09        	.byte0x9
 2388 090b 0277      	.word0x277
 2389 090d 0000 08AC 	.long0x8ac
 2390 0911 00        	.byte0
68K GAS   			page 68


 2391 0912 04        	.uleb128 0x4
 2392 0913 0000 00A4 	.long0xa4
 2393 0917 0000 0922 	.long0x922
 2394 091b 05        	.uleb128 0x5
 2395 091c 0000 007B 	.long0x7b
 2396 0920 18        	.byte0x18
 2397 0921 00        	.byte0
 2398 0922 0B        	.uleb128 0xb
 2399 0923 0000 0000 	.long.LASF137
 2400 0927 0C        	.uleb128 0xc
 2401 0928 04        	.byte0x4
 2402 0929 0000 0922 	.long0x922
 2403 092d 1E        	.uleb128 0x1e
 2404 092e 0000 0938 	.long0x938
 2405 0932 16        	.uleb128 0x16
 2406 0933 0000 0548 	.long0x548
 2407 0937 00        	.byte0
 2408 0938 0C        	.uleb128 0xc
 2409 0939 04        	.byte0x4
 2410 093a 0000 092D 	.long0x92d
 2411 093e 0C        	.uleb128 0xc
 2412 093f 04        	.byte0x4
 2413 0940 0000 029B 	.long0x29b
 2414 0944 1E        	.uleb128 0x1e
 2415 0945 0000 094F 	.long0x94f
 2416 0949 16        	.uleb128 0x16
 2417 094a 0000 00EA 	.long0xea
 2418 094e 00        	.byte0
 2419 094f 0C        	.uleb128 0xc
 2420 0950 04        	.byte0x4
 2421 0951 0000 0955 	.long0x955
 2422 0955 0C        	.uleb128 0xc
 2423 0956 04        	.byte0x4
 2424 0957 0000 0944 	.long0x944
 2425 095b 04        	.uleb128 0x4
 2426 095c 0000 06E9 	.long0x6e9
 2427 0960 0000 096B 	.long0x96b
 2428 0964 05        	.uleb128 0x5
 2429 0965 0000 007B 	.long0x7b
 2430 0969 02        	.byte0x2
 2431 096a 00        	.byte0
 2432 096b 1F        	.uleb128 0x1f
 2433 096c 0000 0000 	.long.LASF138
 2434 0970 09        	.byte0x9
 2435 0971 028D      	.word0x28d
 2436 0973 0000 095B 	.long0x95b
 2437 0977 1F        	.uleb128 0x1f
 2438 0978 0000 0000 	.long.LASF139
 2439 097c 09        	.byte0x9
 2440 097d 0307      	.word0x307
 2441 097f 0000 0548 	.long0x548
 2442 0983 1F        	.uleb128 0x1f
 2443 0984 0000 0000 	.long.LASF140
 2444 0988 09        	.byte0x9
 2445 0989 0308      	.word0x308
 2446 098b 0000 054E 	.long0x54e
 2447 098f 1F        	.uleb128 0x1f
68K GAS   			page 69


 2448 0990 0000 0000 	.long.LASF141
 2449 0994 09        	.byte0x9
 2450 0995 031A      	.word0x31a
 2451 0997 0000 03B8 	.long0x3b8
 2452 099b 20        	.uleb128 0x20
 2453 099c 0000 0000 	.long.LASF142
 2454 09a0 0A        	.byte0xa
 2455 09a1 63        	.byte0x63
 2456 09a2 0000 065B 	.long0x65b
 2457 09a6 20        	.uleb128 0x20
 2458 09a7 0000 0000 	.long.LASF143
 2459 09ab 0B        	.byte0xb
 2460 09ac 9A        	.byte0x9a
 2461 09ad 0000 0045 	.long0x45
 2462 09b1 20        	.uleb128 0x20
 2463 09b2 0000 0000 	.long.LASF144
 2464 09b6 0B        	.byte0xb
 2465 09b7 9B        	.byte0x9b
 2466 09b8 0000 00EA 	.long0xea
 2467 09bc 04        	.uleb128 0x4
 2468 09bd 0000 065B 	.long0x65b
 2469 09c1 0000 09CC 	.long0x9cc
 2470 09c5 05        	.uleb128 0x5
 2471 09c6 0000 007B 	.long0x7b
 2472 09ca 01        	.byte0x1
 2473 09cb 00        	.byte0
 2474 09cc 20        	.uleb128 0x20
 2475 09cd 0000 0000 	.long.LASF145
 2476 09d1 0B        	.byte0xb
 2477 09d2 9E        	.byte0x9e
 2478 09d3 0000 09BC 	.long0x9bc
 2479 09d7 0D        	.uleb128 0xd
 2480 09d8 0000 0000 	.long.LASF146
 2481 09dc 01        	.byte0x1
 2482 09dd 0103      	.word0x103
 2483 09df 0000 0089 	.long0x89
 2484 09e3 1B        	.uleb128 0x1b
 2485 09e4 34        	.byte0x34
 2486 09e5 01        	.byte0x1
 2487 09e6 0141      	.word0x141
 2488 09e8 0000 0A2E 	.long0xa2e
 2489 09ec 18        	.uleb128 0x18
 2490 09ed 0000 0000 	.long.LASF147
 2491 09f1 01        	.byte0x1
 2492 09f2 0143      	.word0x143
 2493 09f4 0000 0070 	.long0x70
 2494 09f8 00        	.byte0
 2495 09f9 18        	.uleb128 0x18
 2496 09fa 0000 0000 	.long.LASF148
 2497 09fe 01        	.byte0x1
 2498 09ff 0144      	.word0x144
 2499 0a01 0000 0070 	.long0x70
 2500 0a05 04        	.byte0x4
 2501 0a06 18        	.uleb128 0x18
 2502 0a07 0000 0000 	.long.LASF149
 2503 0a0b 01        	.byte0x1
 2504 0a0c 0145      	.word0x145
68K GAS   			page 70


 2505 0a0e 0000 0A2E 	.long0xa2e
 2506 0a12 08        	.byte0x8
 2507 0a13 18        	.uleb128 0x18
 2508 0a14 0000 0000 	.long.LASF150
 2509 0a18 01        	.byte0x1
 2510 0a19 0146      	.word0x146
 2511 0a1b 0000 0070 	.long0x70
 2512 0a1f 1C        	.byte0x1c
 2513 0a20 18        	.uleb128 0x18
 2514 0a21 0000 0000 	.long.LASF151
 2515 0a25 01        	.byte0x1
 2516 0a26 0147      	.word0x147
 2517 0a28 0000 0A2E 	.long0xa2e
 2518 0a2c 20        	.byte0x20
 2519 0a2d 00        	.byte0
 2520 0a2e 04        	.uleb128 0x4
 2521 0a2f 0000 0053 	.long0x53
 2522 0a33 0000 0A3E 	.long0xa3e
 2523 0a37 05        	.uleb128 0x5
 2524 0a38 0000 007B 	.long0x7b
 2525 0a3c 13        	.byte0x13
 2526 0a3d 00        	.byte0
 2527 0a3e 0D        	.uleb128 0xd
 2528 0a3f 0000 0000 	.long.LASF152
 2529 0a43 01        	.byte0x1
 2530 0a44 0149      	.word0x149
 2531 0a46 0000 09E3 	.long0x9e3
 2532 0a4a 04        	.uleb128 0x4
 2533 0a4b 0000 0070 	.long0x70
 2534 0a4f 0000 0A5A 	.long0xa5a
 2535 0a53 05        	.uleb128 0x5
 2536 0a54 0000 007B 	.long0x7b
 2537 0a58 1F        	.byte0x1f
 2538 0a59 00        	.byte0
 2539 0a5a 10        	.uleb128 0x10
 2540 0a5b 06        	.byte0x6
 2541 0a5c 0C        	.byte0xc
 2542 0a5d 58        	.byte0x58
 2543 0a5e 0000 0A87 	.long0xa87
 2544 0a62 0A        	.uleb128 0xa
 2545 0a63 0000 0000 	.long.LASF153
 2546 0a67 0C        	.byte0xc
 2547 0a68 5A        	.byte0x5a
 2548 0a69 0000 0A87 	.long0xa87
 2549 0a6d 00        	.byte0
 2550 0a6e 0A        	.uleb128 0xa
 2551 0a6f 0000 0000 	.long.LASF154
 2552 0a73 0C        	.byte0xc
 2553 0a74 61        	.byte0x61
 2554 0a75 0000 0A87 	.long0xa87
 2555 0a79 02        	.byte0x2
 2556 0a7a 0A        	.uleb128 0xa
 2557 0a7b 0000 0000 	.long.LASF155
 2558 0a7f 0C        	.byte0xc
 2559 0a80 66        	.byte0x66
 2560 0a81 0000 0A87 	.long0xa87
 2561 0a85 04        	.byte0x4
68K GAS   			page 71


 2562 0a86 00        	.byte0
 2563 0a87 04        	.uleb128 0x4
 2564 0a88 0000 0053 	.long0x53
 2565 0a8c 0000 0A97 	.long0xa97
 2566 0a90 05        	.uleb128 0x5
 2567 0a91 0000 007B 	.long0x7b
 2568 0a95 01        	.byte0x1
 2569 0a96 00        	.byte0
 2570 0a97 03        	.uleb128 0x3
 2571 0a98 0000 0000 	.long.LASF156
 2572 0a9c 0C        	.byte0xc
 2573 0a9d 6A        	.byte0x6a
 2574 0a9e 0000 0A5A 	.long0xa5a
 2575 0aa2 10        	.uleb128 0x10
 2576 0aa3 06        	.byte0x6
 2577 0aa4 0C        	.byte0xc
 2578 0aa5 7A        	.byte0x7a
 2579 0aa6 0000 0AB7 	.long0xab7
 2580 0aaa 0A        	.uleb128 0xa
 2581 0aab 0000 0000 	.long.LASF157
 2582 0aaf 0C        	.byte0xc
 2583 0ab0 7C        	.byte0x7c
 2584 0ab1 0000 0AB7 	.long0xab7
 2585 0ab5 00        	.byte0
 2586 0ab6 00        	.byte0
 2587 0ab7 04        	.uleb128 0x4
 2588 0ab8 0000 0053 	.long0x53
 2589 0abc 0000 0AC7 	.long0xac7
 2590 0ac0 05        	.uleb128 0x5
 2591 0ac1 0000 007B 	.long0x7b
 2592 0ac5 05        	.byte0x5
 2593 0ac6 00        	.byte0
 2594 0ac7 03        	.uleb128 0x3
 2595 0ac8 0000 0000 	.long.LASF158
 2596 0acc 0C        	.byte0xc
 2597 0acd 7E        	.byte0x7e
 2598 0ace 0000 0AA2 	.long0xaa2
 2599 0ad2 0E        	.uleb128 0xe
 2600 0ad3 08        	.byte0x8
 2601 0ad4 0D        	.byte0xd
 2602 0ad5 75        	.byte0x75
 2603 0ad6 0000 0AFC 	.long0xafc
 2604 0ada 21        	.uleb128 0x21
 2605 0adb 4864 7200 	.string"Hdr"
 2606 0adf 0D        	.byte0xd
 2607 0ae0 76        	.byte0x76
 2608 0ae1 0000 0A97 	.long0xa97
 2609 0ae5 0F        	.uleb128 0xf
 2610 0ae6 0000 0000 	.long.LASF159
 2611 0aea 0D        	.byte0xd
 2612 0aeb 77        	.byte0x77
 2613 0aec 0000 0070 	.long0x70
 2614 0af0 0F        	.uleb128 0xf
 2615 0af1 0000 0000 	.long.LASF160
 2616 0af5 0D        	.byte0xd
 2617 0af6 78        	.byte0x78
 2618 0af7 0000 0AB7 	.long0xab7
68K GAS   			page 72


 2619 0afb 00        	.byte0
 2620 0afc 03        	.uleb128 0x3
 2621 0afd 0000 0000 	.long.LASF161
 2622 0b01 0D        	.byte0xd
 2623 0b02 79        	.byte0x79
 2624 0b03 0000 0AD2 	.long0xad2
 2625 0b07 10        	.uleb128 0x10
 2626 0b08 0C        	.byte0xc
 2627 0b09 0D        	.byte0xd
 2628 0b0a 82        	.byte0x82
 2629 0b0b 0000 0B28 	.long0xb28
 2630 0b0f 11        	.uleb128 0x11
 2631 0b10 5072 6900 	.string"Pri"
 2632 0b14 0D        	.byte0xd
 2633 0b15 83        	.byte0x83
 2634 0b16 0000 0A97 	.long0xa97
 2635 0b1a 00        	.byte0
 2636 0b1b 11        	.uleb128 0x11
 2637 0b1c 5365 6300 	.string"Sec"
 2638 0b20 0D        	.byte0xd
 2639 0b21 84        	.byte0x84
 2640 0b22 0000 0AC7 	.long0xac7
 2641 0b26 06        	.byte0x6
 2642 0b27 00        	.byte0
 2643 0b28 03        	.uleb128 0x3
 2644 0b29 0000 0000 	.long.LASF162
 2645 0b2d 0D        	.byte0xd
 2646 0b2e 85        	.byte0x85
 2647 0b2f 0000 0B07 	.long0xb07
 2648 0b33 03        	.uleb128 0x3
 2649 0b34 0000 0000 	.long.LASF163
 2650 0b38 0D        	.byte0xd
 2651 0b39 98        	.byte0x98
 2652 0b3a 0000 0053 	.long0x53
 2653 0b3e 03        	.uleb128 0x3
 2654 0b3f 0000 0000 	.long.LASF164
 2655 0b43 0D        	.byte0xd
 2656 0b44 9E        	.byte0x9e
 2657 0b45 0000 005E 	.long0x5e
 2658 0b49 03        	.uleb128 0x3
 2659 0b4a 0000 0000 	.long.LASF165
 2660 0b4e 0D        	.byte0xd
 2661 0b4f A1        	.byte0xa1
 2662 0b50 0000 0B54 	.long0xb54
 2663 0b54 0C        	.uleb128 0xc
 2664 0b55 04        	.byte0x4
 2665 0b56 0000 0AFC 	.long0xafc
 2666 0b5a 03        	.uleb128 0x3
 2667 0b5b 0000 0000 	.long.LASF166
 2668 0b5f 0D        	.byte0xd
 2669 0b60 AA        	.byte0xaa
 2670 0b61 0000 0089 	.long0x89
 2671 0b65 10        	.uleb128 0x10
 2672 0b66 02        	.byte0x2
 2673 0b67 0D        	.byte0xd
 2674 0b68 B1        	.byte0xb1
 2675 0b69 0000 0B86 	.long0xb86
68K GAS   			page 73


 2676 0b6d 0A        	.uleb128 0xa
 2677 0b6e 0000 0000 	.long.LASF167
 2678 0b72 0D        	.byte0xd
 2679 0b73 B2        	.byte0xb2
 2680 0b74 0000 0053 	.long0x53
 2681 0b78 00        	.byte0
 2682 0b79 0A        	.uleb128 0xa
 2683 0b7a 0000 0000 	.long.LASF168
 2684 0b7e 0D        	.byte0xd
 2685 0b7f B3        	.byte0xb3
 2686 0b80 0000 0053 	.long0x53
 2687 0b84 01        	.byte0x1
 2688 0b85 00        	.byte0
 2689 0b86 03        	.uleb128 0x3
 2690 0b87 0000 0000 	.long.LASF169
 2691 0b8b 0D        	.byte0xd
 2692 0b8c B4        	.byte0xb4
 2693 0b8d 0000 0B65 	.long0xb65
 2694 0b91 20        	.uleb128 0x20
 2695 0b92 0000 0000 	.long.LASF170
 2696 0b96 0D        	.byte0xd
 2697 0b97 B6        	.byte0xb6
 2698 0b98 0000 0B86 	.long0xb86
 2699 0b9c 10        	.uleb128 0x10
 2700 0b9d 18        	.byte0x18
 2701 0b9e 0D        	.byte0xd
 2702 0b9f BE        	.byte0xbe
 2703 0ba0 0000 0BBD 	.long0xbbd
 2704 0ba4 0A        	.uleb128 0xa
 2705 0ba5 0000 0000 	.long.LASF171
 2706 0ba9 0D        	.byte0xd
 2707 0baa BF        	.byte0xbf
 2708 0bab 0000 0070 	.long0x70
 2709 0baf 00        	.byte0
 2710 0bb0 0A        	.uleb128 0xa
 2711 0bb1 0000 0000 	.long.LASF151
 2712 0bb5 0D        	.byte0xd
 2713 0bb6 C0        	.byte0xc0
 2714 0bb7 0000 00B0 	.long0xb0
 2715 0bbb 04        	.byte0x4
 2716 0bbc 00        	.byte0
 2717 0bbd 03        	.uleb128 0x3
 2718 0bbe 0000 0000 	.long.LASF172
 2719 0bc2 0D        	.byte0xd
 2720 0bc3 C1        	.byte0xc1
 2721 0bc4 0000 0B9C 	.long0xb9c
 2722 0bc8 10        	.uleb128 0x10
 2723 0bc9 04        	.byte0x4
 2724 0bca 0E        	.byte0xe
 2725 0bcb 89        	.byte0x89
 2726 0bcc 0000 0BE9 	.long0xbe9
 2727 0bd0 0A        	.uleb128 0xa
 2728 0bd1 0000 0000 	.long.LASF173
 2729 0bd5 0E        	.byte0xe
 2730 0bd6 8A        	.byte0x8a
 2731 0bd7 0000 005E 	.long0x5e
 2732 0bdb 00        	.byte0
68K GAS   			page 74


 2733 0bdc 0A        	.uleb128 0xa
 2734 0bdd 0000 0000 	.long.LASF174
 2735 0be1 0E        	.byte0xe
 2736 0be2 8B        	.byte0x8b
 2737 0be3 0000 005E 	.long0x5e
 2738 0be7 02        	.byte0x2
 2739 0be8 00        	.byte0
 2740 0be9 03        	.uleb128 0x3
 2741 0bea 0000 0000 	.long.LASF175
 2742 0bee 0E        	.byte0xe
 2743 0bef 8D        	.byte0x8d
 2744 0bf0 0000 0BC8 	.long0xbc8
 2745 0bf4 1B        	.uleb128 0x1b
 2746 0bf5 1C        	.byte0x1c
 2747 0bf6 0F        	.byte0xf
 2748 0bf7 022C      	.word0x22c
 2749 0bf9 0000 0CCE 	.long0xcce
 2750 0bfd 18        	.uleb128 0x18
 2751 0bfe 0000 0000 	.long.LASF176
 2752 0c02 0F        	.byte0xf
 2753 0c03 022E      	.word0x22e
 2754 0c05 0000 0053 	.long0x53
 2755 0c09 00        	.byte0
 2756 0c0a 18        	.uleb128 0x18
 2757 0c0b 0000 0000 	.long.LASF177
 2758 0c0f 0F        	.byte0xf
 2759 0c10 0230      	.word0x230
 2760 0c12 0000 0053 	.long0x53
 2761 0c16 01        	.byte0x1
 2762 0c17 18        	.uleb128 0x18
 2763 0c18 0000 0000 	.long.LASF178
 2764 0c1c 0F        	.byte0xf
 2765 0c1d 0232      	.word0x232
 2766 0c1f 0000 0053 	.long0x53
 2767 0c23 02        	.byte0x2
 2768 0c24 18        	.uleb128 0x18
 2769 0c25 0000 0000 	.long.LASF179
 2770 0c29 0F        	.byte0xf
 2771 0c2a 0234      	.word0x234
 2772 0c2c 0000 0053 	.long0x53
 2773 0c30 03        	.byte0x3
 2774 0c31 18        	.uleb128 0x18
 2775 0c32 0000 0000 	.long.LASF180
 2776 0c36 0F        	.byte0xf
 2777 0c37 0237      	.word0x237
 2778 0c39 0000 0053 	.long0x53
 2779 0c3d 04        	.byte0x4
 2780 0c3e 18        	.uleb128 0x18
 2781 0c3f 0000 0000 	.long.LASF181
 2782 0c43 0F        	.byte0xf
 2783 0c44 0239      	.word0x239
 2784 0c46 0000 0053 	.long0x53
 2785 0c4a 05        	.byte0x5
 2786 0c4b 18        	.uleb128 0x18
 2787 0c4c 0000 0000 	.long.LASF182
 2788 0c50 0F        	.byte0xf
 2789 0c51 023B      	.word0x23b
68K GAS   			page 75


 2790 0c53 0000 0053 	.long0x53
 2791 0c57 06        	.byte0x6
 2792 0c58 18        	.uleb128 0x18
 2793 0c59 0000 0000 	.long.LASF183
 2794 0c5d 0F        	.byte0xf
 2795 0c5e 023D      	.word0x23d
 2796 0c60 0000 0053 	.long0x53
 2797 0c64 07        	.byte0x7
 2798 0c65 18        	.uleb128 0x18
 2799 0c66 0000 0000 	.long.LASF184
 2800 0c6a 0F        	.byte0xf
 2801 0c6b 0240      	.word0x240
 2802 0c6d 0000 0053 	.long0x53
 2803 0c71 08        	.byte0x8
 2804 0c72 18        	.uleb128 0x18
 2805 0c73 0000 0000 	.long.LASF185
 2806 0c77 0F        	.byte0xf
 2807 0c78 0242      	.word0x242
 2808 0c7a 0000 0053 	.long0x53
 2809 0c7e 09        	.byte0x9
 2810 0c7f 18        	.uleb128 0x18
 2811 0c80 0000 0000 	.long.LASF186
 2812 0c84 0F        	.byte0xf
 2813 0c85 0244      	.word0x244
 2814 0c87 0000 0A87 	.long0xa87
 2815 0c8b 0A        	.byte0xa
 2816 0c8c 18        	.uleb128 0x18
 2817 0c8d 0000 0000 	.long.LASF187
 2818 0c91 0F        	.byte0xf
 2819 0c92 0247      	.word0x247
 2820 0c94 0000 005E 	.long0x5e
 2821 0c98 0C        	.byte0xc
 2822 0c99 18        	.uleb128 0x18
 2823 0c9a 0000 0000 	.long.LASF188
 2824 0c9e 0F        	.byte0xf
 2825 0c9f 0249      	.word0x249
 2826 0ca1 0000 005E 	.long0x5e
 2827 0ca5 0E        	.byte0xe
 2828 0ca6 18        	.uleb128 0x18
 2829 0ca7 0000 0000 	.long.LASF189
 2830 0cab 0F        	.byte0xf
 2831 0cac 024C      	.word0x24c
 2832 0cae 0000 09D7 	.long0x9d7
 2833 0cb2 10        	.byte0x10
 2834 0cb3 18        	.uleb128 0x18
 2835 0cb4 0000 0000 	.long.LASF190
 2836 0cb8 0F        	.byte0xf
 2837 0cb9 024F      	.word0x24f
 2838 0cbb 0000 0070 	.long0x70
 2839 0cbf 14        	.byte0x14
 2840 0cc0 18        	.uleb128 0x18
 2841 0cc1 0000 0000 	.long.LASF191
 2842 0cc5 0F        	.byte0xf
 2843 0cc6 0252      	.word0x252
 2844 0cc8 0000 0070 	.long0x70
 2845 0ccc 18        	.byte0x18
 2846 0ccd 00        	.byte0
68K GAS   			page 76


 2847 0cce 0D        	.uleb128 0xd
 2848 0ccf 0000 0000 	.long.LASF192
 2849 0cd3 0F        	.byte0xf
 2850 0cd4 0254      	.word0x254
 2851 0cd6 0000 0BF4 	.long0xbf4
 2852 0cda 1B        	.uleb128 0x1b
 2853 0cdb 28        	.byte0x28
 2854 0cdc 0F        	.byte0xf
 2855 0cdd 0256      	.word0x256
 2856 0cdf 0000 0CFE 	.long0xcfe
 2857 0ce3 22        	.uleb128 0x22
 2858 0ce4 4864 7200 	.string"Hdr"
 2859 0ce8 0F        	.byte0xf
 2860 0ce9 0257      	.word0x257
 2861 0ceb 0000 0B28 	.long0xb28
 2862 0cef 00        	.byte0
 2863 0cf0 18        	.uleb128 0x18
 2864 0cf1 0000 0000 	.long.LASF193
 2865 0cf5 0F        	.byte0xf
 2866 0cf6 0258      	.word0x258
 2867 0cf8 0000 0CCE 	.long0xcce
 2868 0cfc 0C        	.byte0xc
 2869 0cfd 00        	.byte0
 2870 0cfe 0D        	.uleb128 0xd
 2871 0cff 0000 0000 	.long.LASF194
 2872 0d03 0F        	.byte0xf
 2873 0d04 0259      	.word0x259
 2874 0d06 0000 0CDA 	.long0xcda
 2875 0d0a 1B        	.uleb128 0x1b
 2876 0d0b 08        	.byte0x8
 2877 0d0c 0F        	.byte0xf
 2878 0d0d 0261      	.word0x261
 2879 0d0f 0000 0D55 	.long0xd55
 2880 0d13 18        	.uleb128 0x18
 2881 0d14 0000 0000 	.long.LASF195
 2882 0d18 0F        	.byte0xf
 2883 0d19 0263      	.word0x263
 2884 0d1b 0000 0B33 	.long0xb33
 2885 0d1f 00        	.byte0
 2886 0d20 18        	.uleb128 0x18
 2887 0d21 0000 0000 	.long.LASF184
 2888 0d25 0F        	.byte0xf
 2889 0d26 0265      	.word0x265
 2890 0d28 0000 0053 	.long0x53
 2891 0d2c 01        	.byte0x1
 2892 0d2d 18        	.uleb128 0x18
 2893 0d2e 0000 0000 	.long.LASF196
 2894 0d32 0F        	.byte0xf
 2895 0d33 0267      	.word0x267
 2896 0d35 0000 005E 	.long0x5e
 2897 0d39 02        	.byte0x2
 2898 0d3a 18        	.uleb128 0x18
 2899 0d3b 0000 0000 	.long.LASF197
 2900 0d3f 0F        	.byte0xf
 2901 0d40 0269      	.word0x269
 2902 0d42 0000 005E 	.long0x5e
 2903 0d46 04        	.byte0x4
68K GAS   			page 77


 2904 0d47 18        	.uleb128 0x18
 2905 0d48 0000 0000 	.long.LASF198
 2906 0d4c 0F        	.byte0xf
 2907 0d4d 026B      	.word0x26b
 2908 0d4f 0000 005E 	.long0x5e
 2909 0d53 06        	.byte0x6
 2910 0d54 00        	.byte0
 2911 0d55 0D        	.uleb128 0xd
 2912 0d56 0000 0000 	.long.LASF199
 2913 0d5a 0F        	.byte0xf
 2914 0d5b 026E      	.word0x26e
 2915 0d5d 0000 0D0A 	.long0xd0a
 2916 0d61 23        	.uleb128 0x23
 2917 0d62 023C      	.word0x23c
 2918 0d64 0F        	.byte0xf
 2919 0d65 0275      	.word0x275
 2920 0d67 0000 0E3C 	.long0xe3c
 2921 0d6b 18        	.uleb128 0x18
 2922 0d6c 0000 0000 	.long.LASF200
 2923 0d70 0F        	.byte0xf
 2924 0d71 0277      	.word0x277
 2925 0d73 0000 0070 	.long0x70
 2926 0d77 00        	.byte0
 2927 0d78 18        	.uleb128 0x18
 2928 0d79 0000 0000 	.long.LASF201
 2929 0d7d 0F        	.byte0xf
 2930 0d7e 0279      	.word0x279
 2931 0d80 0000 0070 	.long0x70
 2932 0d84 04        	.byte0x4
 2933 0d85 18        	.uleb128 0x18
 2934 0d86 0000 0000 	.long.LASF202
 2935 0d8a 0F        	.byte0xf
 2936 0d8b 027B      	.word0x27b
 2937 0d8d 0000 0070 	.long0x70
 2938 0d91 08        	.byte0x8
 2939 0d92 18        	.uleb128 0x18
 2940 0d93 0000 0000 	.long.LASF203
 2941 0d97 0F        	.byte0xf
 2942 0d98 027E      	.word0x27e
 2943 0d9a 0000 0070 	.long0x70
 2944 0d9e 0C        	.byte0xc
 2945 0d9f 18        	.uleb128 0x18
 2946 0da0 0000 0000 	.long.LASF204
 2947 0da4 0F        	.byte0xf
 2948 0da5 0280      	.word0x280
 2949 0da7 0000 0070 	.long0x70
 2950 0dab 10        	.byte0x10
 2951 0dac 18        	.uleb128 0x18
 2952 0dad 0000 0000 	.long.LASF205
 2953 0db1 0F        	.byte0xf
 2954 0db2 0282      	.word0x282
 2955 0db4 0000 0070 	.long0x70
 2956 0db8 14        	.byte0x14
 2957 0db9 18        	.uleb128 0x18
 2958 0dba 0000 0000 	.long.LASF190
 2959 0dbe 0F        	.byte0xf
 2960 0dbf 0285      	.word0x285
68K GAS   			page 78


 2961 0dc1 0000 0070 	.long0x70
 2962 0dc5 18        	.byte0x18
 2963 0dc6 18        	.uleb128 0x18
 2964 0dc7 0000 0000 	.long.LASF206
 2965 0dcb 0F        	.byte0xf
 2966 0dcc 0287      	.word0x287
 2967 0dce 0000 0070 	.long0x70
 2968 0dd2 1C        	.byte0x1c
 2969 0dd3 18        	.uleb128 0x18
 2970 0dd4 0000 0000 	.long.LASF207
 2971 0dd8 0F        	.byte0xf
 2972 0dd9 0289      	.word0x289
 2973 0ddb 0000 0070 	.long0x70
 2974 0ddf 20        	.byte0x20
 2975 0de0 18        	.uleb128 0x18
 2976 0de1 0000 0000 	.long.LASF208
 2977 0de5 0F        	.byte0xf
 2978 0de6 028C      	.word0x28c
 2979 0de8 0000 0070 	.long0x70
 2980 0dec 24        	.byte0x24
 2981 0ded 18        	.uleb128 0x18
 2982 0dee 0000 0000 	.long.LASF209
 2983 0df2 0F        	.byte0xf
 2984 0df3 028E      	.word0x28e
 2985 0df5 0000 0070 	.long0x70
 2986 0df9 28        	.byte0x28
 2987 0dfa 18        	.uleb128 0x18
 2988 0dfb 0000 0000 	.long.LASF210
 2989 0dff 0F        	.byte0xf
 2990 0e00 0290      	.word0x290
 2991 0e02 0000 0070 	.long0x70
 2992 0e06 2C        	.byte0x2c
 2993 0e07 18        	.uleb128 0x18
 2994 0e08 0000 0000 	.long.LASF211
 2995 0e0c 0F        	.byte0xf
 2996 0e0d 0294      	.word0x294
 2997 0e0f 0000 0070 	.long0x70
 2998 0e13 30        	.byte0x30
 2999 0e14 18        	.uleb128 0x18
 3000 0e15 0000 0000 	.long.LASF212
 3001 0e19 0F        	.byte0xf
 3002 0e1a 0296      	.word0x296
 3003 0e1c 0000 0070 	.long0x70
 3004 0e20 34        	.byte0x34
 3005 0e21 18        	.uleb128 0x18
 3006 0e22 0000 0000 	.long.LASF213
 3007 0e26 0F        	.byte0xf
 3008 0e27 0299      	.word0x299
 3009 0e29 0000 0070 	.long0x70
 3010 0e2d 38        	.byte0x38
 3011 0e2e 18        	.uleb128 0x18
 3012 0e2f 0000 0000 	.long.LASF214
 3013 0e33 0F        	.byte0xf
 3014 0e34 029B      	.word0x29b
 3015 0e36 0000 0E3C 	.long0xe3c
 3016 0e3a 3C        	.byte0x3c
 3017 0e3b 00        	.byte0
68K GAS   			page 79


 3018 0e3c 04        	.uleb128 0x4
 3019 0e3d 0000 0D55 	.long0xd55
 3020 0e41 0000 0E4C 	.long0xe4c
 3021 0e45 05        	.uleb128 0x5
 3022 0e46 0000 007B 	.long0x7b
 3023 0e4a 3F        	.byte0x3f
 3024 0e4b 00        	.byte0
 3025 0e4c 0D        	.uleb128 0xd
 3026 0e4d 0000 0000 	.long.LASF215
 3027 0e51 0F        	.byte0xf
 3028 0e52 029D      	.word0x29d
 3029 0e54 0000 0D61 	.long0xd61
 3030 0e58 23        	.uleb128 0x23
 3031 0e59 0248      	.word0x248
 3032 0e5b 0F        	.byte0xf
 3033 0e5c 029F      	.word0x29f
 3034 0e5e 0000 0E7D 	.long0xe7d
 3035 0e62 22        	.uleb128 0x22
 3036 0e63 4864 7200 	.string"Hdr"
 3037 0e67 0F        	.byte0xf
 3038 0e68 02A0      	.word0x2a0
 3039 0e6a 0000 0B28 	.long0xb28
 3040 0e6e 00        	.byte0
 3041 0e6f 18        	.uleb128 0x18
 3042 0e70 0000 0000 	.long.LASF193
 3043 0e74 0F        	.byte0xf
 3044 0e75 02A1      	.word0x2a1
 3045 0e77 0000 0E4C 	.long0xe4c
 3046 0e7b 0C        	.byte0xc
 3047 0e7c 00        	.byte0
 3048 0e7d 0D        	.uleb128 0xd
 3049 0e7e 0000 0000 	.long.LASF216
 3050 0e82 0F        	.byte0xf
 3051 0e83 02A2      	.word0x2a2
 3052 0e85 0000 0E58 	.long0xe58
 3053 0e89 1B        	.uleb128 0x1b
 3054 0e8a 08        	.byte0x8
 3055 0e8b 0F        	.byte0xf
 3056 0e8c 02C9      	.word0x2c9
 3057 0e8e 0000 0EC7 	.long0xec7
 3058 0e92 18        	.uleb128 0x18
 3059 0e93 0000 0000 	.long.LASF217
 3060 0e97 0F        	.byte0xf
 3061 0e98 02CB      	.word0x2cb
 3062 0e9a 0000 0053 	.long0x53
 3063 0e9e 00        	.byte0
 3064 0e9f 18        	.uleb128 0x18
 3065 0ea0 0000 0000 	.long.LASF218
 3066 0ea4 0F        	.byte0xf
 3067 0ea5 02CC      	.word0x2cc
 3068 0ea7 0000 0B3E 	.long0xb3e
 3069 0eab 02        	.byte0x2
 3070 0eac 22        	.uleb128 0x22
 3071 0ead 516F 7300 	.string"Qos"
 3072 0eb1 0F        	.byte0xf
 3073 0eb2 02CD      	.word0x2cd
 3074 0eb4 0000 0B86 	.long0xb86
68K GAS   			page 80


 3075 0eb8 04        	.byte0x4
 3076 0eb9 18        	.uleb128 0x18
 3077 0eba 0000 0000 	.long.LASF219
 3078 0ebe 0F        	.byte0xf
 3079 0ebf 02CE      	.word0x2ce
 3080 0ec1 0000 0B33 	.long0xb33
 3081 0ec5 06        	.byte0x6
 3082 0ec6 00        	.byte0
 3083 0ec7 0D        	.uleb128 0xd
 3084 0ec8 0000 0000 	.long.LASF220
 3085 0ecc 0F        	.byte0xf
 3086 0ecd 02D0      	.word0x2d0
 3087 0ecf 0000 0E89 	.long0xe89
 3088 0ed3 1B        	.uleb128 0x1b
 3089 0ed4 14        	.byte0x14
 3090 0ed5 0F        	.byte0xf
 3091 0ed6 02D2      	.word0x2d2
 3092 0ed8 0000 0EF7 	.long0xef7
 3093 0edc 22        	.uleb128 0x22
 3094 0edd 4864 7200 	.string"Hdr"
 3095 0ee1 0F        	.byte0xf
 3096 0ee2 02D3      	.word0x2d3
 3097 0ee4 0000 0B28 	.long0xb28
 3098 0ee8 00        	.byte0
 3099 0ee9 18        	.uleb128 0x18
 3100 0eea 0000 0000 	.long.LASF193
 3101 0eee 0F        	.byte0xf
 3102 0eef 02D4      	.word0x2d4
 3103 0ef1 0000 0EC7 	.long0xec7
 3104 0ef5 0C        	.byte0xc
 3105 0ef6 00        	.byte0
 3106 0ef7 0D        	.uleb128 0xd
 3107 0ef8 0000 0000 	.long.LASF221
 3108 0efc 0F        	.byte0xf
 3109 0efd 02D5      	.word0x2d5
 3110 0eff 0000 0ED3 	.long0xed3
 3111 0f03 1B        	.uleb128 0x1b
 3112 0f04 06        	.byte0x6
 3113 0f05 0F        	.byte0xf
 3114 0f06 02E0      	.word0x2e0
 3115 0f08 0000 0F34 	.long0xf34
 3116 0f0c 18        	.uleb128 0x18
 3117 0f0d 0000 0000 	.long.LASF218
 3118 0f11 0F        	.byte0xf
 3119 0f12 02E2      	.word0x2e2
 3120 0f14 0000 0B3E 	.long0xb3e
 3121 0f18 00        	.byte0
 3122 0f19 22        	.uleb128 0x22
 3123 0f1a 516F 7300 	.string"Qos"
 3124 0f1e 0F        	.byte0xf
 3125 0f1f 02E3      	.word0x2e3
 3126 0f21 0000 0B86 	.long0xb86
 3127 0f25 02        	.byte0x2
 3128 0f26 18        	.uleb128 0x18
 3129 0f27 0000 0000 	.long.LASF219
 3130 0f2b 0F        	.byte0xf
 3131 0f2c 02E4      	.word0x2e4
68K GAS   			page 81


 3132 0f2e 0000 0B33 	.long0xb33
 3133 0f32 04        	.byte0x4
 3134 0f33 00        	.byte0
 3135 0f34 0D        	.uleb128 0xd
 3136 0f35 0000 0000 	.long.LASF222
 3137 0f39 0F        	.byte0xf
 3138 0f3a 02E6      	.word0x2e6
 3139 0f3c 0000 0F03 	.long0xf03
 3140 0f40 1B        	.uleb128 0x1b
 3141 0f41 84        	.byte0x84
 3142 0f42 0F        	.byte0xf
 3143 0f43 02F2      	.word0x2f2
 3144 0f45 0000 0F7E 	.long0xf7e
 3145 0f49 18        	.uleb128 0x18
 3146 0f4a 0000 0000 	.long.LASF223
 3147 0f4e 0F        	.byte0xf
 3148 0f4f 02F4      	.word0x2f4
 3149 0f51 0000 0070 	.long0x70
 3150 0f55 00        	.byte0
 3151 0f56 18        	.uleb128 0x18
 3152 0f57 0000 0000 	.long.LASF224
 3153 0f5b 0F        	.byte0xf
 3154 0f5c 02F5      	.word0x2f5
 3155 0f5e 0000 0070 	.long0x70
 3156 0f62 04        	.byte0x4
 3157 0f63 18        	.uleb128 0x18
 3158 0f64 0000 0000 	.long.LASF225
 3159 0f68 0F        	.byte0xf
 3160 0f69 02F6      	.word0x2f6
 3161 0f6b 0000 0070 	.long0x70
 3162 0f6f 08        	.byte0x8
 3163 0f70 18        	.uleb128 0x18
 3164 0f71 0000 0000 	.long.LASF226
 3165 0f75 0F        	.byte0xf
 3166 0f76 02F7      	.word0x2f7
 3167 0f78 0000 0F7E 	.long0xf7e
 3168 0f7c 0C        	.byte0xc
 3169 0f7d 00        	.byte0
 3170 0f7e 04        	.uleb128 0x4
 3171 0f7f 0000 0F34 	.long0xf34
 3172 0f83 0000 0F8E 	.long0xf8e
 3173 0f87 05        	.uleb128 0x5
 3174 0f88 0000 007B 	.long0x7b
 3175 0f8c 13        	.byte0x13
 3176 0f8d 00        	.byte0
 3177 0f8e 0D        	.uleb128 0xd
 3178 0f8f 0000 0000 	.long.LASF227
 3179 0f93 0F        	.byte0xf
 3180 0f94 02F8      	.word0x2f8
 3181 0f96 0000 0F40 	.long0xf40
 3182 0f9a 1B        	.uleb128 0x1b
 3183 0f9b 90        	.byte0x90
 3184 0f9c 0F        	.byte0xf
 3185 0f9d 02FA      	.word0x2fa
 3186 0f9f 0000 0FBE 	.long0xfbe
 3187 0fa3 22        	.uleb128 0x22
 3188 0fa4 4864 7200 	.string"Hdr"
68K GAS   			page 82


 3189 0fa8 0F        	.byte0xf
 3190 0fa9 02FB      	.word0x2fb
 3191 0fab 0000 0B28 	.long0xb28
 3192 0faf 00        	.byte0
 3193 0fb0 18        	.uleb128 0x18
 3194 0fb1 0000 0000 	.long.LASF193
 3195 0fb5 0F        	.byte0xf
 3196 0fb6 02FC      	.word0x2fc
 3197 0fb8 0000 0F8E 	.long0xf8e
 3198 0fbc 0C        	.byte0xc
 3199 0fbd 00        	.byte0
 3200 0fbe 0D        	.uleb128 0xd
 3201 0fbf 0000 0000 	.long.LASF228
 3202 0fc3 0F        	.byte0xf
 3203 0fc4 02FD      	.word0x2fd
 3204 0fc6 0000 0F9A 	.long0xf9a
 3205 0fca 10        	.uleb128 0x10
 3206 0fcb 24        	.byte0x24
 3207 0fcc 10        	.byte0x10
 3208 0fcd AA        	.byte0xaa
 3209 0fce 0000 100F 	.long0x100f
 3210 0fd2 0A        	.uleb128 0xa
 3211 0fd3 0000 0000 	.long.LASF218
 3212 0fd7 10        	.byte0x10
 3213 0fd8 AB        	.byte0xab
 3214 0fd9 0000 0B3E 	.long0xb3e
 3215 0fdd 00        	.byte0
 3216 0fde 0A        	.uleb128 0xa
 3217 0fdf 0000 0000 	.long.LASF229
 3218 0fe3 10        	.byte0x10
 3219 0fe4 AC        	.byte0xac
 3220 0fe5 0000 005E 	.long0x5e
 3221 0fe9 02        	.byte0x2
 3222 0fea 0A        	.uleb128 0xa
 3223 0feb 0000 0000 	.long.LASF230
 3224 0fef 10        	.byte0x10
 3225 0ff0 AD        	.byte0xad
 3226 0ff1 0000 0070 	.long0x70
 3227 0ff5 04        	.byte0x4
 3228 0ff6 0A        	.uleb128 0xa
 3229 0ff7 0000 0000 	.long.LASF231
 3230 0ffb 10        	.byte0x10
 3231 0ffc AE        	.byte0xae
 3232 0ffd 0000 00C0 	.long0xc0
 3233 1001 08        	.byte0x8
 3234 1002 0A        	.uleb128 0xa
 3235 1003 0000 0000 	.long.LASF232
 3236 1007 10        	.byte0x10
 3237 1008 AF        	.byte0xaf
 3238 1009 0000 0BBD 	.long0xbbd
 3239 100d 0C        	.byte0xc
 3240 100e 00        	.byte0
 3241 100f 03        	.uleb128 0x3
 3242 1010 0000 0000 	.long.LASF233
 3243 1014 10        	.byte0x10
 3244 1015 B0        	.byte0xb0
 3245 1016 0000 0FCA 	.long0xfca
68K GAS   			page 83


 3246 101a 10        	.uleb128 0x10
 3247 101b 14        	.byte0x14
 3248 101c 10        	.byte0x10
 3249 101d BE        	.byte0xbe
 3250 101e 0000 108F 	.long0x108f
 3251 1022 0A        	.uleb128 0xa
 3252 1023 0000 0000 	.long.LASF195
 3253 1027 10        	.byte0x10
 3254 1028 BF        	.byte0xbf
 3255 1029 0000 0B33 	.long0xb33
 3256 102d 00        	.byte0
 3257 102e 0A        	.uleb128 0xa
 3258 102f 0000 0000 	.long.LASF234
 3259 1033 10        	.byte0x10
 3260 1034 C0        	.byte0xc0
 3261 1035 0000 0053 	.long0x53
 3262 1039 01        	.byte0x1
 3263 103a 0A        	.uleb128 0xa
 3264 103b 0000 0000 	.long.LASF235
 3265 103f 10        	.byte0x10
 3266 1040 C1        	.byte0xc1
 3267 1041 0000 005E 	.long0x5e
 3268 1045 02        	.byte0x2
 3269 1046 0A        	.uleb128 0xa
 3270 1047 0000 0000 	.long.LASF236
 3271 104b 10        	.byte0x10
 3272 104c C2        	.byte0xc2
 3273 104d 0000 005E 	.long0x5e
 3274 1051 04        	.byte0x4
 3275 1052 0A        	.uleb128 0xa
 3276 1053 0000 0000 	.long.LASF237
 3277 1057 10        	.byte0x10
 3278 1058 C3        	.byte0xc3
 3279 1059 0000 005E 	.long0x5e
 3280 105d 06        	.byte0x6
 3281 105e 0A        	.uleb128 0xa
 3282 105f 0000 0000 	.long.LASF238
 3283 1063 10        	.byte0x10
 3284 1064 C4        	.byte0xc4
 3285 1065 0000 0053 	.long0x53
 3286 1069 08        	.byte0x8
 3287 106a 0A        	.uleb128 0xa
 3288 106b 0000 0000 	.long.LASF184
 3289 106f 10        	.byte0x10
 3290 1070 C5        	.byte0xc5
 3291 1071 0000 108F 	.long0x108f
 3292 1075 09        	.byte0x9
 3293 1076 0A        	.uleb128 0xa
 3294 1077 0000 0000 	.long.LASF239
 3295 107b 10        	.byte0x10
 3296 107c C6        	.byte0xc6
 3297 107d 0000 00C0 	.long0xc0
 3298 1081 0C        	.byte0xc
 3299 1082 0A        	.uleb128 0xa
 3300 1083 0000 0000 	.long.LASF240
 3301 1087 10        	.byte0x10
 3302 1088 C7        	.byte0xc7
68K GAS   			page 84


 3303 1089 0000 00C0 	.long0xc0
 3304 108d 10        	.byte0x10
 3305 108e 00        	.byte0
 3306 108f 04        	.uleb128 0x4
 3307 1090 0000 0053 	.long0x53
 3308 1094 0000 109F 	.long0x109f
 3309 1098 05        	.uleb128 0x5
 3310 1099 0000 007B 	.long0x7b
 3311 109d 02        	.byte0x2
 3312 109e 00        	.byte0
 3313 109f 03        	.uleb128 0x3
 3314 10a0 0000 0000 	.long.LASF241
 3315 10a4 10        	.byte0x10
 3316 10a5 C8        	.byte0xc8
 3317 10a6 0000 101A 	.long0x101a
 3318 10aa 10        	.uleb128 0x10
 3319 10ab 14        	.byte0x14
 3320 10ac 10        	.byte0x10
 3321 10ad D6        	.byte0xd6
 3322 10ae 0000 10EF 	.long0x10ef
 3323 10b2 0A        	.uleb128 0xa
 3324 10b3 0000 0000 	.long.LASF242
 3325 10b7 10        	.byte0x10
 3326 10b8 D7        	.byte0xd7
 3327 10b9 0000 0070 	.long0x70
 3328 10bd 00        	.byte0
 3329 10be 0A        	.uleb128 0xa
 3330 10bf 0000 0000 	.long.LASF230
 3331 10c3 10        	.byte0x10
 3332 10c4 D8        	.byte0xd8
 3333 10c5 0000 0070 	.long0x70
 3334 10c9 04        	.byte0x4
 3335 10ca 0A        	.uleb128 0xa
 3336 10cb 0000 0000 	.long.LASF231
 3337 10cf 10        	.byte0x10
 3338 10d0 D9        	.byte0xd9
 3339 10d1 0000 00C0 	.long0xc0
 3340 10d5 08        	.byte0x8
 3341 10d6 0A        	.uleb128 0xa
 3342 10d7 0000 0000 	.long.LASF240
 3343 10db 10        	.byte0x10
 3344 10dc DA        	.byte0xda
 3345 10dd 0000 00C0 	.long0xc0
 3346 10e1 0C        	.byte0xc
 3347 10e2 0A        	.uleb128 0xa
 3348 10e3 0000 0000 	.long.LASF239
 3349 10e7 10        	.byte0x10
 3350 10e8 DB        	.byte0xdb
 3351 10e9 0000 00C0 	.long0xc0
 3352 10ed 10        	.byte0x10
 3353 10ee 00        	.byte0
 3354 10ef 03        	.uleb128 0x3
 3355 10f0 0000 0000 	.long.LASF243
 3356 10f4 10        	.byte0x10
 3357 10f5 DC        	.byte0xdc
 3358 10f6 0000 10AA 	.long0x10aa
 3359 10fa 10        	.uleb128 0x10
68K GAS   			page 85


 3360 10fb 0C        	.byte0xc
 3361 10fc 10        	.byte0x10
 3362 10fd E6        	.byte0xe6
 3363 10fe 0000 1133 	.long0x1133
 3364 1102 0A        	.uleb128 0xa
 3365 1103 0000 0000 	.long.LASF218
 3366 1107 10        	.byte0x10
 3367 1108 E7        	.byte0xe7
 3368 1109 0000 0B3E 	.long0xb3e
 3369 110d 00        	.byte0
 3370 110e 0A        	.uleb128 0xa
 3371 110f 0000 0000 	.long.LASF244
 3372 1113 10        	.byte0x10
 3373 1114 E8        	.byte0xe8
 3374 1115 0000 005E 	.long0x5e
 3375 1119 02        	.byte0x2
 3376 111a 0A        	.uleb128 0xa
 3377 111b 0000 0000 	.long.LASF245
 3378 111f 10        	.byte0x10
 3379 1120 E9        	.byte0xe9
 3380 1121 0000 0070 	.long0x70
 3381 1125 04        	.byte0x4
 3382 1126 0A        	.uleb128 0xa
 3383 1127 0000 0000 	.long.LASF246
 3384 112b 10        	.byte0x10
 3385 112c EA        	.byte0xea
 3386 112d 0000 1133 	.long0x1133
 3387 1131 08        	.byte0x8
 3388 1132 00        	.byte0
 3389 1133 0C        	.uleb128 0xc
 3390 1134 04        	.byte0x4
 3391 1135 0000 109F 	.long0x109f
 3392 1139 03        	.uleb128 0x3
 3393 113a 0000 0000 	.long.LASF247
 3394 113e 10        	.byte0x10
 3395 113f EB        	.byte0xeb
 3396 1140 0000 10FA 	.long0x10fa
 3397 1144 10        	.uleb128 0x10
 3398 1145 44        	.byte0x44
 3399 1146 10        	.byte0x10
 3400 1147 F6        	.byte0xf6
 3401 1148 0000 11E0 	.long0x11e0
 3402 114c 0A        	.uleb128 0xa
 3403 114d 0000 0000 	.long.LASF197
 3404 1151 10        	.byte0x10
 3405 1152 F7        	.byte0xf7
 3406 1153 0000 0053 	.long0x53
 3407 1157 00        	.byte0
 3408 1158 0A        	.uleb128 0xa
 3409 1159 0000 0000 	.long.LASF195
 3410 115d 10        	.byte0x10
 3411 115e F8        	.byte0xf8
 3412 115f 0000 0B33 	.long0xb33
 3413 1163 01        	.byte0x1
 3414 1164 0A        	.uleb128 0xa
 3415 1165 0000 0000 	.long.LASF248
 3416 1169 10        	.byte0x10
68K GAS   			page 86


 3417 116a F9        	.byte0xf9
 3418 116b 0000 00B0 	.long0xb0
 3419 116f 02        	.byte0x2
 3420 1170 0A        	.uleb128 0xa
 3421 1171 0000 0000 	.long.LASF151
 3422 1175 10        	.byte0x10
 3423 1176 FA        	.byte0xfa
 3424 1177 0000 00B0 	.long0xb0
 3425 117b 16        	.byte0x16
 3426 117c 0A        	.uleb128 0xa
 3427 117d 0000 0000 	.long.LASF184
 3428 1181 10        	.byte0x10
 3429 1182 FB        	.byte0xfb
 3430 1183 0000 005E 	.long0x5e
 3431 1187 2A        	.byte0x2a
 3432 1188 0A        	.uleb128 0xa
 3433 1189 0000 0000 	.long.LASF150
 3434 118d 10        	.byte0x10
 3435 118e FC        	.byte0xfc
 3436 118f 0000 0070 	.long0x70
 3437 1193 2C        	.byte0x2c
 3438 1194 0A        	.uleb128 0xa
 3439 1195 0000 0000 	.long.LASF249
 3440 1199 10        	.byte0x10
 3441 119a FD        	.byte0xfd
 3442 119b 0000 0070 	.long0x70
 3443 119f 30        	.byte0x30
 3444 11a0 0A        	.uleb128 0xa
 3445 11a1 0000 0000 	.long.LASF250
 3446 11a5 10        	.byte0x10
 3447 11a6 FE        	.byte0xfe
 3448 11a7 0000 0070 	.long0x70
 3449 11ab 34        	.byte0x34
 3450 11ac 0A        	.uleb128 0xa
 3451 11ad 0000 0000 	.long.LASF251
 3452 11b1 10        	.byte0x10
 3453 11b2 FF        	.byte0xff
 3454 11b3 0000 005E 	.long0x5e
 3455 11b7 38        	.byte0x38
 3456 11b8 18        	.uleb128 0x18
 3457 11b9 0000 0000 	.long.LASF252
 3458 11bd 10        	.byte0x10
 3459 11be 0100      	.word0x100
 3460 11c0 0000 005E 	.long0x5e
 3461 11c4 3A        	.byte0x3a
 3462 11c5 18        	.uleb128 0x18
 3463 11c6 0000 0000 	.long.LASF253
 3464 11ca 10        	.byte0x10
 3465 11cb 0101      	.word0x101
 3466 11cd 0000 11E0 	.long0x11e0
 3467 11d1 3C        	.byte0x3c
 3468 11d2 18        	.uleb128 0x18
 3469 11d3 0000 0000 	.long.LASF254
 3470 11d7 10        	.byte0x10
 3471 11d8 0102      	.word0x102
 3472 11da 0000 11E0 	.long0x11e0
 3473 11de 40        	.byte0x40
68K GAS   			page 87


 3474 11df 00        	.byte0
 3475 11e0 0C        	.uleb128 0xc
 3476 11e1 04        	.byte0x4
 3477 11e2 0000 100F 	.long0x100f
 3478 11e6 0D        	.uleb128 0xd
 3479 11e7 0000 0000 	.long.LASF255
 3480 11eb 10        	.byte0x10
 3481 11ec 0103      	.word0x103
 3482 11ee 0000 1144 	.long0x1144
 3483 11f2 24        	.uleb128 0x24
 3484 11f3 0008 0004 	.long0x80004
 3485 11f7 10        	.byte0x10
 3486 11f8 010D      	.word0x10d
 3487 11fa 0000 1219 	.long0x1219
 3488 11fe 18        	.uleb128 0x18
 3489 11ff 0000 0000 	.long.LASF256
 3490 1203 10        	.byte0x10
 3491 1204 010F      	.word0x10f
 3492 1206 0000 09D7 	.long0x9d7
 3493 120a 00        	.byte0
 3494 120b 18        	.uleb128 0x18
 3495 120c 0000 0000 	.long.LASF257
 3496 1210 10        	.byte0x10
 3497 1211 0110      	.word0x110
 3498 1213 0000 1219 	.long0x1219
 3499 1217 04        	.byte0x4
 3500 1218 00        	.byte0
 3501 1219 04        	.uleb128 0x4
 3502 121a 0000 0053 	.long0x53
 3503 121e 0000 122C 	.long0x122c
 3504 1222 25        	.uleb128 0x25
 3505 1223 0000 007B 	.long0x7b
 3506 1227 0007 FFFF 	.long0x7ffff
 3507 122b 00        	.byte0
 3508 122c 0D        	.uleb128 0xd
 3509 122d 0000 0000 	.long.LASF258
 3510 1231 10        	.byte0x10
 3511 1232 0112      	.word0x112
 3512 1234 0000 11F2 	.long0x11f2
 3513 1238 24        	.uleb128 0x24
 3514 1239 0008 60D4 	.long0x860d4
 3515 123d 10        	.byte0x10
 3516 123e 011B      	.word0x11b
 3517 1240 0000 1336 	.long0x1336
 3518 1244 18        	.uleb128 0x18
 3519 1245 0000 0000 	.long.LASF259
 3520 1249 10        	.byte0x10
 3521 124a 011C      	.word0x11c
 3522 124c 0000 0070 	.long0x70
 3523 1250 00        	.byte0
 3524 1251 18        	.uleb128 0x18
 3525 1252 0000 0000 	.long.LASF260
 3526 1256 10        	.byte0x10
 3527 1257 011D      	.word0x11d
 3528 1259 0000 0070 	.long0x70
 3529 125d 04        	.byte0x4
 3530 125e 18        	.uleb128 0x18
68K GAS   			page 88


 3531 125f 0000 0000 	.long.LASF261
 3532 1263 10        	.byte0x10
 3533 1264 011E      	.word0x11e
 3534 1266 0000 0070 	.long0x70
 3535 126a 08        	.byte0x8
 3536 126b 18        	.uleb128 0x18
 3537 126c 0000 0000 	.long.LASF150
 3538 1270 10        	.byte0x10
 3539 1271 011F      	.word0x11f
 3540 1273 0000 0070 	.long0x70
 3541 1277 0C        	.byte0xc
 3542 1278 18        	.uleb128 0x18
 3543 1279 0000 0000 	.long.LASF262
 3544 127d 10        	.byte0x10
 3545 127e 0120      	.word0x120
 3546 1280 0000 0A4A 	.long0xa4a
 3547 1284 10        	.byte0x10
 3548 1285 18        	.uleb128 0x18
 3549 1286 0000 0000 	.long.LASF263
 3550 128a 10        	.byte0x10
 3551 128b 0121      	.word0x121
 3552 128d 0000 00C0 	.long0xc0
 3553 1291 90        	.byte0x90
 3554 1292 18        	.uleb128 0x18
 3555 1293 0000 0000 	.long.LASF264
 3556 1297 10        	.byte0x10
 3557 1298 0122      	.word0x122
 3558 129a 0000 1336 	.long0x1336
 3559 129e 94        	.byte0x94
 3560 129f 19        	.uleb128 0x19
 3561 12a0 0000 0000 	.long.LASF265
 3562 12a4 10        	.byte0x10
 3563 12a5 0123      	.word0x123
 3564 12a7 0000 0CFE 	.long0xcfe
 3565 12ab 1194      	.word0x1194
 3566 12ad 19        	.uleb128 0x19
 3567 12ae 0000 0000 	.long.LASF266
 3568 12b2 10        	.byte0x10
 3569 12b3 0124      	.word0x124
 3570 12b5 0000 0E7D 	.long0xe7d
 3571 12b9 11BC      	.word0x11bc
 3572 12bb 19        	.uleb128 0x19
 3573 12bc 0000 0000 	.long.LASF267
 3574 12c0 10        	.byte0x10
 3575 12c1 0125      	.word0x125
 3576 12c3 0000 0B33 	.long0xb33
 3577 12c7 1404      	.word0x1404
 3578 12c9 19        	.uleb128 0x19
 3579 12ca 0000 0000 	.long.LASF268
 3580 12ce 10        	.byte0x10
 3581 12cf 0126      	.word0x126
 3582 12d1 0000 0B54 	.long0xb54
 3583 12d5 1408      	.word0x1408
 3584 12d7 26        	.uleb128 0x26
 3585 12d8 4D65 6D00 	.string"Mem"
 3586 12dc 10        	.byte0x10
 3587 12dd 0127      	.word0x127
68K GAS   			page 89


 3588 12df 0000 122C 	.long0x122c
 3589 12e3 140C      	.word0x140c
 3590 12e5 27        	.uleb128 0x27
 3591 12e6 0000 0000 	.long.LASF269
 3592 12ea 10        	.byte0x10
 3593 12eb 0128      	.word0x128
 3594 12ed 0000 1346 	.long0x1346
 3595 12f1 0008 1410 	.long0x81410
 3596 12f5 27        	.uleb128 0x27
 3597 12f6 0000 0000 	.long.LASF270
 3598 12fa 10        	.byte0x10
 3599 12fb 0129      	.word0x129
 3600 12fd 0000 1357 	.long0x1357
 3601 1301 0008 5410 	.long0x85410
 3602 1305 27        	.uleb128 0x27
 3603 1306 0000 0000 	.long.LASF271
 3604 130a 10        	.byte0x10
 3605 130b 012A      	.word0x12a
 3606 130d 0000 0FBE 	.long0xfbe
 3607 1311 0008 6010 	.long0x86010
 3608 1315 27        	.uleb128 0x27
 3609 1316 0000 0000 	.long.LASF272
 3610 131a 10        	.byte0x10
 3611 131b 012B      	.word0x12b
 3612 131d 0000 0EF7 	.long0xef7
 3613 1321 0008 60A0 	.long0x860a0
 3614 1325 27        	.uleb128 0x27
 3615 1326 0000 0000 	.long.LASF273
 3616 132a 10        	.byte0x10
 3617 132b 012C      	.word0x12c
 3618 132d 0000 1367 	.long0x1367
 3619 1331 0008 60B4 	.long0x860b4
 3620 1335 00        	.byte0
 3621 1336 04        	.uleb128 0x4
 3622 1337 0000 11E6 	.long0x11e6
 3623 133b 0000 1346 	.long0x1346
 3624 133f 05        	.uleb128 0x5
 3625 1340 0000 007B 	.long0x7b
 3626 1344 3F        	.byte0x3f
 3627 1345 00        	.byte0
 3628 1346 04        	.uleb128 0x4
 3629 1347 0000 0B3E 	.long0xb3e
 3630 134b 0000 1357 	.long0x1357
 3631 134f 28        	.uleb128 0x28
 3632 1350 0000 007B 	.long0x7b
 3633 1354 1FFF      	.word0x1fff
 3634 1356 00        	.byte0
 3635 1357 04        	.uleb128 0x4
 3636 1358 0000 1139 	.long0x1139
 3637 135c 0000 1367 	.long0x1367
 3638 1360 05        	.uleb128 0x5
 3639 1361 0000 007B 	.long0x7b
 3640 1365 FF        	.byte0xff
 3641 1366 00        	.byte0
 3642 1367 04        	.uleb128 0x4
 3643 1368 0000 0BE9 	.long0xbe9
 3644 136c 0000 1377 	.long0x1377
68K GAS   			page 90


 3645 1370 05        	.uleb128 0x5
 3646 1371 0000 007B 	.long0x7b
 3647 1375 07        	.byte0x7
 3648 1376 00        	.byte0
 3649 1377 0D        	.uleb128 0xd
 3650 1378 0000 0000 	.long.LASF274
 3651 137c 10        	.byte0x10
 3652 137d 012D      	.word0x12d
 3653 137f 0000 1238 	.long0x1238
 3654 1383 1F        	.uleb128 0x1f
 3655 1384 0000 0000 	.long.LASF275
 3656 1388 10        	.byte0x10
 3657 1389 0198      	.word0x198
 3658 138b 0000 1377 	.long0x1377
 3659 138f 29        	.uleb128 0x29
 3660 1390 0000 0000 	.long.LASF277
 3661 1394 02        	.byte0x2
 3662 1395 0350      	.word0x350
 3663 1397 0000 003A 	.long0x3a
 3664 139b 0000 0000 	.long.LFB80
 3665 139f 0000 004C 	.long.LFE80-.LFB80
 3666 13a3 01        	.uleb128 0x1
 3667 13a4 9C        	.byte0x9c
 3668 13a5 0000 13D7 	.long0x13d7
 3669 13a9 2A        	.uleb128 0x2a
 3670 13aa 0000 0000 	.long.LASF150
 3671 13ae 02        	.byte0x2
 3672 13af 0350      	.word0x350
 3673 13b1 0000 0070 	.long0x70
 3674 13b5 02        	.uleb128 0x2
 3675 13b6 91        	.byte0x91
 3676 13b7 00        	.sleb128 0
 3677 13b8 2B        	.uleb128 0x2b
 3678 13b9 0000 0000 	.long.LASF276
 3679 13bd 02        	.byte0x2
 3680 13be 0352      	.word0x352
 3681 13c0 0000 13D7 	.long0x13d7
 3682 13c4 02        	.uleb128 0x2
 3683 13c5 91        	.byte0x91
 3684 13c6 74        	.sleb128 -12
 3685 13c7 2C        	.uleb128 0x2c
 3686 13c8 7A63 6400 	.string"zcd"
 3687 13cc 02        	.byte0x2
 3688 13cd 0353      	.word0x353
 3689 13cf 0000 13D7 	.long0x13d7
 3690 13d3 02        	.uleb128 0x2
 3691 13d4 91        	.byte0x91
 3692 13d5 78        	.sleb128 -8
 3693 13d6 00        	.byte0
 3694 13d7 0C        	.uleb128 0xc
 3695 13d8 04        	.byte0x4
 3696 13d9 0000 10EF 	.long0x10ef
 3697 13dd 2D        	.uleb128 0x2d
 3698 13de 0000 0000 	.long.LASF278
 3699 13e2 02        	.byte0x2
 3700 13e3 030A      	.word0x30a
 3701 13e5 0000 003A 	.long0x3a
68K GAS   			page 91


 3702 13e9 0000 0000 	.long.LFB79
 3703 13ed 0000 00D4 	.long.LFE79-.LFB79
 3704 13f1 01        	.uleb128 0x1
 3705 13f2 9C        	.byte0x9c
 3706 13f3 0000 1434 	.long0x1434
 3707 13f7 2A        	.uleb128 0x2a
 3708 13f8 0000 0000 	.long.LASF279
 3709 13fc 02        	.byte0x2
 3710 13fd 030A      	.word0x30a
 3711 13ff 0000 005E 	.long0x5e
 3712 1403 02        	.uleb128 0x2
 3713 1404 91        	.byte0x91
 3714 1405 70        	.sleb128 -16
 3715 1406 2A        	.uleb128 0x2a
 3716 1407 0000 0000 	.long.LASF280
 3717 140b 02        	.byte0x2
 3718 140c 030A      	.word0x30a
 3719 140e 0000 1133 	.long0x1133
 3720 1412 02        	.uleb128 0x2
 3721 1413 91        	.byte0x91
 3722 1414 04        	.sleb128 4
 3723 1415 2B        	.uleb128 0x2b
 3724 1416 0000 0000 	.long.LASF281
 3725 141a 02        	.byte0x2
 3726 141b 030C      	.word0x30c
 3727 141d 0000 1133 	.long0x1133
 3728 1421 02        	.uleb128 0x2
 3729 1422 91        	.byte0x91
 3730 1423 78        	.sleb128 -8
 3731 1424 2B        	.uleb128 0x2b
 3732 1425 0000 0000 	.long.LASF282
 3733 1429 02        	.byte0x2
 3734 142a 030D      	.word0x30d
 3735 142c 0000 1133 	.long0x1133
 3736 1430 02        	.uleb128 0x2
 3737 1431 91        	.byte0x91
 3738 1432 74        	.sleb128 -12
 3739 1433 00        	.byte0
 3740 1434 2D        	.uleb128 0x2d
 3741 1435 0000 0000 	.long.LASF283
 3742 1439 02        	.byte0x2
 3743 143a 02DA      	.word0x2da
 3744 143c 0000 003A 	.long0x3a
 3745 1440 0000 0000 	.long.LFB78
 3746 1444 0000 009E 	.long.LFE78-.LFB78
 3747 1448 01        	.uleb128 0x1
 3748 1449 9C        	.byte0x9c
 3749 144a 0000 147C 	.long0x147c
 3750 144e 2A        	.uleb128 0x2a
 3751 144f 0000 0000 	.long.LASF279
 3752 1453 02        	.byte0x2
 3753 1454 02DA      	.word0x2da
 3754 1456 0000 005E 	.long0x5e
 3755 145a 02        	.uleb128 0x2
 3756 145b 91        	.byte0x91
 3757 145c 74        	.sleb128 -12
 3758 145d 2A        	.uleb128 0x2a
68K GAS   			page 92


 3759 145e 0000 0000 	.long.LASF284
 3760 1462 02        	.byte0x2
 3761 1463 02DA      	.word0x2da
 3762 1465 0000 1133 	.long0x1133
 3763 1469 02        	.uleb128 0x2
 3764 146a 91        	.byte0x91
 3765 146b 04        	.sleb128 4
 3766 146c 2C        	.uleb128 0x2c
 3767 146d 5742 5300 	.string"WBS"
 3768 1471 02        	.byte0x2
 3769 1472 02DC      	.word0x2dc
 3770 1474 0000 1133 	.long0x1133
 3771 1478 02        	.uleb128 0x2
 3772 1479 91        	.byte0x91
 3773 147a 78        	.sleb128 -8
 3774 147b 00        	.byte0
 3775 147c 2E        	.uleb128 0x2e
 3776 147d 0000 0000 	.long.LASF293
 3777 1481 02        	.byte0x2
 3778 1482 02C3      	.word0x2c3
 3779 1484 0000 0000 	.long.LFB77
 3780 1488 0000 004C 	.long.LFE77-.LFB77
 3781 148c 01        	.uleb128 0x1
 3782 148d 9C        	.byte0x9c
 3783 148e 0000 14B1 	.long0x14b1
 3784 1492 2A        	.uleb128 0x2a
 3785 1493 0000 0000 	.long.LASF147
 3786 1497 02        	.byte0x2
 3787 1498 02C3      	.word0x2c3
 3788 149a 0000 0070 	.long0x70
 3789 149e 02        	.uleb128 0x2
 3790 149f 91        	.byte0x91
 3791 14a0 00        	.sleb128 0
 3792 14a1 2F        	.uleb128 0x2f
 3793 14a2 4269 7400 	.string"Bit"
 3794 14a6 02        	.byte0x2
 3795 14a7 02C3      	.word0x2c3
 3796 14a9 0000 0070 	.long0x70
 3797 14ad 02        	.uleb128 0x2
 3798 14ae 91        	.byte0x91
 3799 14af 04        	.sleb128 4
 3800 14b0 00        	.byte0
 3801 14b1 29        	.uleb128 0x29
 3802 14b2 0000 0000 	.long.LASF285
 3803 14b6 02        	.byte0x2
 3804 14b7 02A3      	.word0x2a3
 3805 14b9 0000 0070 	.long0x70
 3806 14bd 0000 0000 	.long.LFB76
 3807 14c1 0000 006E 	.long.LFE76-.LFB76
 3808 14c5 01        	.uleb128 0x1
 3809 14c6 9C        	.byte0x9c
 3810 14c7 0000 14EA 	.long0x14ea
 3811 14cb 2A        	.uleb128 0x2a
 3812 14cc 0000 0000 	.long.LASF147
 3813 14d0 02        	.byte0x2
 3814 14d1 02A3      	.word0x2a3
 3815 14d3 0000 0070 	.long0x70
68K GAS   			page 93


 3816 14d7 02        	.uleb128 0x2
 3817 14d8 91        	.byte0x91
 3818 14d9 00        	.sleb128 0
 3819 14da 2F        	.uleb128 0x2f
 3820 14db 4269 7400 	.string"Bit"
 3821 14df 02        	.byte0x2
 3822 14e0 02A3      	.word0x2a3
 3823 14e2 0000 0070 	.long0x70
 3824 14e6 02        	.uleb128 0x2
 3825 14e7 91        	.byte0x91
 3826 14e8 04        	.sleb128 4
 3827 14e9 00        	.byte0
 3828 14ea 2D        	.uleb128 0x2d
 3829 14eb 0000 0000 	.long.LASF286
 3830 14ef 02        	.byte0x2
 3831 14f0 0289      	.word0x289
 3832 14f2 0000 003A 	.long0x3a
 3833 14f6 0000 0000 	.long.LFB75
 3834 14fa 0000 0028 	.long.LFE75-.LFB75
 3835 14fe 01        	.uleb128 0x1
 3836 14ff 9C        	.byte0x9c
 3837 1500 0000 1514 	.long0x1514
 3838 1504 2A        	.uleb128 0x2a
 3839 1505 0000 0000 	.long.LASF218
 3840 1509 02        	.byte0x2
 3841 150a 0289      	.word0x289
 3842 150c 0000 0B3E 	.long0xb3e
 3843 1510 02        	.uleb128 0x2
 3844 1511 91        	.byte0x91
 3845 1512 78        	.sleb128 -8
 3846 1513 00        	.byte0
 3847 1514 29        	.uleb128 0x29
 3848 1515 0000 0000 	.long.LASF287
 3849 1519 02        	.byte0x2
 3850 151a 0259      	.word0x259
 3851 151c 0000 065B 	.long0x65b
 3852 1520 0000 0000 	.long.LFB74
 3853 1524 0000 0112 	.long.LFE74-.LFB74
 3854 1528 01        	.uleb128 0x1
 3855 1529 9C        	.byte0x9c
 3856 152a 0000 158B 	.long0x158b
 3857 152e 2A        	.uleb128 0x2a
 3858 152f 0000 0000 	.long.LASF147
 3859 1533 02        	.byte0x2
 3860 1534 0259      	.word0x259
 3861 1536 0000 0070 	.long0x70
 3862 153a 02        	.uleb128 0x2
 3863 153b 91        	.byte0x91
 3864 153c 00        	.sleb128 0
 3865 153d 2A        	.uleb128 0x2a
 3866 153e 0000 0000 	.long.LASF288
 3867 1542 02        	.byte0x2
 3868 1543 0259      	.word0x259
 3869 1545 0000 065B 	.long0x65b
 3870 1549 02        	.uleb128 0x2
 3871 154a 91        	.byte0x91
 3872 154b 04        	.sleb128 4
68K GAS   			page 94


 3873 154c 2B        	.uleb128 0x2b
 3874 154d 0000 0000 	.long.LASF289
 3875 1551 02        	.byte0x2
 3876 1552 025B      	.word0x25b
 3877 1554 0000 0A3E 	.long0xa3e
 3878 1558 02        	.uleb128 0x2
 3879 1559 91        	.byte0x91
 3880 155a 44        	.sleb128 -60
 3881 155b 2C        	.uleb128 0x2c
 3882 155c 7074 7200 	.string"ptr"
 3883 1560 02        	.byte0x2
 3884 1561 025C      	.word0x25c
 3885 1563 0000 158B 	.long0x158b
 3886 1567 02        	.uleb128 0x2
 3887 1568 91        	.byte0x91
 3888 1569 78        	.sleb128 -8
 3889 156a 2B        	.uleb128 0x2b
 3890 156b 0000 0000 	.long.LASF151
 3891 156f 02        	.byte0x2
 3892 1570 025D      	.word0x25d
 3893 1572 0000 00B0 	.long0xb0
 3894 1576 03        	.uleb128 0x3
 3895 1577 91        	.byte0x91
 3896 1578 B07F      	.sleb128 -80
 3897 157a 2B        	.uleb128 0x2b
 3898 157b 0000 0000 	.long.LASF290
 3899 157f 02        	.byte0x2
 3900 1580 025E      	.word0x25e
 3901 1582 0000 00B0 	.long0xb0
 3902 1586 03        	.uleb128 0x3
 3903 1587 91        	.byte0x91
 3904 1588 9C7F      	.sleb128 -100
 3905 158a 00        	.byte0
 3906 158b 0C        	.uleb128 0xc
 3907 158c 04        	.byte0x4
 3908 158d 0000 0A3E 	.long0xa3e
 3909 1591 2D        	.uleb128 0x2d
 3910 1592 0000 0000 	.long.LASF291
 3911 1596 02        	.byte0x2
 3912 1597 023C      	.word0x23c
 3913 1599 0000 003A 	.long0x3a
 3914 159d 0000 0000 	.long.LFB73
 3915 15a1 0000 0036 	.long.LFE73-.LFB73
 3916 15a5 01        	.uleb128 0x1
 3917 15a6 9C        	.byte0x9c
 3918 15a7 0000 15BB 	.long0x15bb
 3919 15ab 2A        	.uleb128 0x2a
 3920 15ac 0000 0000 	.long.LASF195
 3921 15b0 02        	.byte0x2
 3922 15b1 023C      	.word0x23c
 3923 15b3 0000 0B33 	.long0xb33
 3924 15b7 02        	.uleb128 0x2
 3925 15b8 91        	.byte0x91
 3926 15b9 78        	.sleb128 -8
 3927 15ba 00        	.byte0
 3928 15bb 2D        	.uleb128 0x2d
 3929 15bc 0000 0000 	.long.LASF292
68K GAS   			page 95


 3930 15c0 02        	.byte0x2
 3931 15c1 0221      	.word0x221
 3932 15c3 0000 003A 	.long0x3a
 3933 15c7 0000 0000 	.long.LFB72
 3934 15cb 0000 002C 	.long.LFE72-.LFB72
 3935 15cf 01        	.uleb128 0x1
 3936 15d0 9C        	.byte0x9c
 3937 15d1 0000 15E5 	.long0x15e5
 3938 15d5 2A        	.uleb128 0x2a
 3939 15d6 0000 0000 	.long.LASF218
 3940 15da 02        	.byte0x2
 3941 15db 0221      	.word0x221
 3942 15dd 0000 0B3E 	.long0xb3e
 3943 15e1 02        	.uleb128 0x2
 3944 15e2 91        	.byte0x91
 3945 15e3 78        	.sleb128 -8
 3946 15e4 00        	.byte0
 3947 15e5 30        	.uleb128 0x30
 3948 15e6 0000 0000 	.long.LASF294
 3949 15ea 02        	.byte0x2
 3950 15eb 020D      	.word0x20d
 3951 15ed 0000 0000 	.long.LFB71
 3952 15f1 0000 003E 	.long.LFE71-.LFB71
 3953 15f5 01        	.uleb128 0x1
 3954 15f6 9C        	.byte0x9c
 3955 15f7 0000 161A 	.long0x161a
 3956 15fb 2A        	.uleb128 0x2a
 3957 15fc 0000 0000 	.long.LASF295
 3958 1600 02        	.byte0x2
 3959 1601 020D      	.word0x20d
 3960 1603 0000 0B49 	.long0xb49
 3961 1607 02        	.uleb128 0x2
 3962 1608 91        	.byte0x91
 3963 1609 00        	.sleb128 0
 3964 160a 2A        	.uleb128 0x2a
 3965 160b 0000 0000 	.long.LASF296
 3966 160f 02        	.byte0x2
 3967 1610 020D      	.word0x20d
 3968 1612 0000 0070 	.long0x70
 3969 1616 02        	.uleb128 0x2
 3970 1617 91        	.byte0x91
 3971 1618 04        	.sleb128 4
 3972 1619 00        	.byte0
 3973 161a 29        	.uleb128 0x29
 3974 161b 0000 0000 	.long.LASF297
 3975 161f 02        	.byte0x2
 3976 1620 01E1      	.word0x1e1
 3977 1622 0000 003A 	.long0x3a
 3978 1626 0000 0000 	.long.LFB70
 3979 162a 0000 008A 	.long.LFE70-.LFB70
 3980 162e 01        	.uleb128 0x1
 3981 162f 9C        	.byte0x9c
 3982 1630 0000 1671 	.long0x1671
 3983 1634 2A        	.uleb128 0x2a
 3984 1635 0000 0000 	.long.LASF218
 3985 1639 02        	.byte0x2
 3986 163a 01E1      	.word0x1e1
68K GAS   			page 96


 3987 163c 0000 0B3E 	.long0xb3e
 3988 1640 02        	.uleb128 0x2
 3989 1641 91        	.byte0x91
 3990 1642 70        	.sleb128 -16
 3991 1643 2A        	.uleb128 0x2a
 3992 1644 0000 0000 	.long.LASF195
 3993 1648 02        	.byte0x2
 3994 1649 01E2      	.word0x1e2
 3995 164b 0000 0B33 	.long0xb33
 3996 164f 02        	.uleb128 0x2
 3997 1650 91        	.byte0x91
 3998 1651 6C        	.sleb128 -20
 3999 1652 2C        	.uleb128 0x2c
 4000 1653 4964 7800 	.string"Idx"
 4001 1657 02        	.byte0x2
 4002 1658 01E4      	.word0x1e4
 4003 165a 0000 005E 	.long0x5e
 4004 165e 02        	.uleb128 0x2
 4005 165f 91        	.byte0x91
 4006 1660 76        	.sleb128 -10
 4007 1661 2B        	.uleb128 0x2b
 4008 1662 0000 0000 	.long.LASF298
 4009 1666 02        	.byte0x2
 4010 1667 01E5      	.word0x1e5
 4011 1669 0000 1133 	.long0x1133
 4012 166d 02        	.uleb128 0x2
 4013 166e 91        	.byte0x91
 4014 166f 78        	.sleb128 -8
 4015 1670 00        	.byte0
 4016 1671 2D        	.uleb128 0x2d
 4017 1672 0000 0000 	.long.LASF299
 4018 1676 02        	.byte0x2
 4019 1677 01C5      	.word0x1c5
 4020 1679 0000 065B 	.long0x65b
 4021 167d 0000 0000 	.long.LFB69
 4022 1681 0000 0038 	.long.LFE69-.LFB69
 4023 1685 01        	.uleb128 0x1
 4024 1686 9C        	.byte0x9c
 4025 1687 0000 16AD 	.long0x16ad
 4026 168b 2A        	.uleb128 0x2a
 4027 168c 0000 0000 	.long.LASF195
 4028 1690 02        	.byte0x2
 4029 1691 01C5      	.word0x1c5
 4030 1693 0000 0B33 	.long0xb33
 4031 1697 02        	.uleb128 0x2
 4032 1698 91        	.byte0x91
 4033 1699 78        	.sleb128 -8
 4034 169a 2B        	.uleb128 0x2b
 4035 169b 0000 0000 	.long.LASF300
 4036 169f 02        	.byte0x2
 4037 16a0 01C7      	.word0x1c7
 4038 16a2 0000 0094 	.long0x94
 4039 16a6 05        	.uleb128 0x5
 4040 16a7 03        	.byte0x3
 4041 16a8 0000 0000 	.longPipeName4ErrCase.5646
 4042 16ac 00        	.byte0
 4043 16ad 2D        	.uleb128 0x2d
68K GAS   			page 97


 4044 16ae 0000 0000 	.long.LASF301
 4045 16b2 02        	.byte0x2
 4046 16b3 01A4      	.word0x1a4
 4047 16b5 0000 003A 	.long0x3a
 4048 16b9 0000 0000 	.long.LFB68
 4049 16bd 0000 0040 	.long.LFE68-.LFB68
 4050 16c1 01        	.uleb128 0x1
 4051 16c2 9C        	.byte0x9c
 4052 16c3 0000 16E6 	.long0x16e6
 4053 16c7 2A        	.uleb128 0x2a
 4054 16c8 0000 0000 	.long.LASF218
 4055 16cc 02        	.byte0x2
 4056 16cd 01A4      	.word0x1a4
 4057 16cf 0000 0B3E 	.long0xb3e
 4058 16d3 02        	.uleb128 0x2
 4059 16d4 91        	.byte0x91
 4060 16d5 78        	.sleb128 -8
 4061 16d6 2A        	.uleb128 0x2a
 4062 16d7 0000 0000 	.long.LASF302
 4063 16db 02        	.byte0x2
 4064 16dc 01A4      	.word0x1a4
 4065 16de 0000 0B3E 	.long0xb3e
 4066 16e2 02        	.uleb128 0x2
 4067 16e3 91        	.byte0x91
 4068 16e4 74        	.sleb128 -12
 4069 16e5 00        	.byte0
 4070 16e6 2D        	.uleb128 0x2d
 4071 16e7 0000 0000 	.long.LASF303
 4072 16eb 02        	.byte0x2
 4073 16ec 0183      	.word0x183
 4074 16ee 0000 0B3E 	.long0xb3e
 4075 16f2 0000 0000 	.long.LFB67
 4076 16f6 0000 002E 	.long.LFE67-.LFB67
 4077 16fa 01        	.uleb128 0x1
 4078 16fb 9C        	.byte0x9c
 4079 16fc 0000 1710 	.long0x1710
 4080 1700 2A        	.uleb128 0x2a
 4081 1701 0000 0000 	.long.LASF218
 4082 1705 02        	.byte0x2
 4083 1706 0183      	.word0x183
 4084 1708 0000 0B3E 	.long0xb3e
 4085 170c 02        	.uleb128 0x2
 4086 170d 91        	.byte0x91
 4087 170e 78        	.sleb128 -8
 4088 170f 00        	.byte0
 4089 1710 29        	.uleb128 0x29
 4090 1711 0000 0000 	.long.LASF304
 4091 1715 02        	.byte0x2
 4092 1716 0156      	.word0x156
 4093 1718 0000 1133 	.long0x1133
 4094 171c 0000 0000 	.long.LFB66
 4095 1720 0000 008C 	.long.LFE66-.LFB66
 4096 1724 01        	.uleb128 0x1
 4097 1725 9C        	.byte0x9c
 4098 1726 0000 1767 	.long0x1767
 4099 172a 2A        	.uleb128 0x2a
 4100 172b 0000 0000 	.long.LASF218
68K GAS   			page 98


 4101 172f 02        	.byte0x2
 4102 1730 0156      	.word0x156
 4103 1732 0000 0B3E 	.long0xb3e
 4104 1736 02        	.uleb128 0x2
 4105 1737 91        	.byte0x91
 4106 1738 70        	.sleb128 -16
 4107 1739 2A        	.uleb128 0x2a
 4108 173a 0000 0000 	.long.LASF195
 4109 173e 02        	.byte0x2
 4110 173f 0157      	.word0x157
 4111 1741 0000 0B33 	.long0xb33
 4112 1745 02        	.uleb128 0x2
 4113 1746 91        	.byte0x91
 4114 1747 6C        	.sleb128 -20
 4115 1748 2C        	.uleb128 0x2c
 4116 1749 4964 7800 	.string"Idx"
 4117 174d 02        	.byte0x2
 4118 174e 0159      	.word0x159
 4119 1750 0000 005E 	.long0x5e
 4120 1754 02        	.uleb128 0x2
 4121 1755 91        	.byte0x91
 4122 1756 76        	.sleb128 -10
 4123 1757 2B        	.uleb128 0x2b
 4124 1758 0000 0000 	.long.LASF298
 4125 175c 02        	.byte0x2
 4126 175d 015A      	.word0x15a
 4127 175f 0000 1133 	.long0x1133
 4128 1763 02        	.uleb128 0x2
 4129 1764 91        	.byte0x91
 4130 1765 78        	.sleb128 -8
 4131 1766 00        	.byte0
 4132 1767 29        	.uleb128 0x29
 4133 1768 0000 0000 	.long.LASF305
 4134 176c 02        	.byte0x2
 4135 176d 0136      	.word0x136
 4136 176f 0000 1791 	.long0x1791
 4137 1773 0000 0000 	.long.LFB65
 4138 1777 0000 003A 	.long.LFE65-.LFB65
 4139 177b 01        	.uleb128 0x1
 4140 177c 9C        	.byte0x9c
 4141 177d 0000 1791 	.long0x1791
 4142 1781 2A        	.uleb128 0x2a
 4143 1782 0000 0000 	.long.LASF195
 4144 1786 02        	.byte0x2
 4145 1787 0136      	.word0x136
 4146 1789 0000 0B33 	.long0xb33
 4147 178d 02        	.uleb128 0x2
 4148 178e 91        	.byte0x91
 4149 178f 78        	.sleb128 -8
 4150 1790 00        	.byte0
 4151 1791 0C        	.uleb128 0xc
 4152 1792 04        	.byte0x4
 4153 1793 0000 11E6 	.long0x11e6
 4154 1797 2E        	.uleb128 0x2e
 4155 1798 0000 0000 	.long.LASF306
 4156 179c 02        	.byte0x2
 4157 179d 0113      	.word0x113
68K GAS   			page 99


 4158 179f 0000 0000 	.long.LFB64
 4159 17a3 0000 005A 	.long.LFE64-.LFB64
 4160 17a7 01        	.uleb128 0x1
 4161 17a8 9C        	.byte0x9c
 4162 17a9 0000 17EA 	.long0x17ea
 4163 17ad 2A        	.uleb128 0x2a
 4164 17ae 0000 0000 	.long.LASF307
 4165 17b2 02        	.byte0x2
 4166 17b3 0113      	.word0x113
 4167 17b5 0000 0170 	.long0x170
 4168 17b9 02        	.uleb128 0x2
 4169 17ba 91        	.byte0x91
 4170 17bb 00        	.sleb128 0
 4171 17bc 2A        	.uleb128 0x2a
 4172 17bd 0000 0000 	.long.LASF308
 4173 17c1 02        	.byte0x2
 4174 17c2 0113      	.word0x113
 4175 17c4 0000 003A 	.long0x3a
 4176 17c8 02        	.uleb128 0x2
 4177 17c9 91        	.byte0x91
 4178 17ca 04        	.sleb128 4
 4179 17cb 2B        	.uleb128 0x2b
 4180 17cc 0000 0000 	.long.LASF309
 4181 17d0 02        	.byte0x2
 4182 17d1 0115      	.word0x115
 4183 17d3 0000 003A 	.long0x3a
 4184 17d7 02        	.uleb128 0x2
 4185 17d8 91        	.byte0x91
 4186 17d9 78        	.sleb128 -8
 4187 17da 2B        	.uleb128 0x2b
 4188 17db 0000 0000 	.long.LASF150
 4189 17df 02        	.byte0x2
 4190 17e0 0116      	.word0x116
 4191 17e2 0000 0070 	.long0x70
 4192 17e6 02        	.uleb128 0x2
 4193 17e7 91        	.byte0x91
 4194 17e8 74        	.sleb128 -12
 4195 17e9 00        	.byte0
 4196 17ea 31        	.uleb128 0x31
 4197 17eb 0000 0000 	.long.LASF310
 4198 17ef 02        	.byte0x2
 4199 17f0 F0        	.byte0xf0
 4200 17f1 0000 0000 	.long.LFB63
 4201 17f5 0000 005A 	.long.LFE63-.LFB63
 4202 17f9 01        	.uleb128 0x1
 4203 17fa 9C        	.byte0x9c
 4204 17fb 0000 1838 	.long0x1838
 4205 17ff 32        	.uleb128 0x32
 4206 1800 0000 0000 	.long.LASF307
 4207 1804 02        	.byte0x2
 4208 1805 F0        	.byte0xf0
 4209 1806 0000 0170 	.long0x170
 4210 180a 02        	.uleb128 0x2
 4211 180b 91        	.byte0x91
 4212 180c 00        	.sleb128 0
 4213 180d 32        	.uleb128 0x32
 4214 180e 0000 0000 	.long.LASF308
68K GAS   			page 100


 4215 1812 02        	.byte0x2
 4216 1813 F0        	.byte0xf0
 4217 1814 0000 003A 	.long0x3a
 4218 1818 02        	.uleb128 0x2
 4219 1819 91        	.byte0x91
 4220 181a 04        	.sleb128 4
 4221 181b 33        	.uleb128 0x33
 4222 181c 0000 0000 	.long.LASF309
 4223 1820 02        	.byte0x2
 4224 1821 F2        	.byte0xf2
 4225 1822 0000 003A 	.long0x3a
 4226 1826 02        	.uleb128 0x2
 4227 1827 91        	.byte0x91
 4228 1828 78        	.sleb128 -8
 4229 1829 33        	.uleb128 0x33
 4230 182a 0000 0000 	.long.LASF150
 4231 182e 02        	.byte0x2
 4232 182f F3        	.byte0xf3
 4233 1830 0000 0070 	.long0x70
 4234 1834 02        	.uleb128 0x2
 4235 1835 91        	.byte0x91
 4236 1836 74        	.sleb128 -12
 4237 1837 00        	.byte0
 4238 1838 34        	.uleb128 0x34
 4239 1839 0000 0000 	.long.LASF311
 4240 183d 02        	.byte0x2
 4241 183e D0        	.byte0xd0
 4242 183f 0000 0053 	.long0x53
 4243 1843 0000 0000 	.long.LFB62
 4244 1847 0000 007E 	.long.LFE62-.LFB62
 4245 184b 01        	.uleb128 0x1
 4246 184c 9C        	.byte0x9c
 4247 184d 0000 186C 	.long0x186c
 4248 1851 32        	.uleb128 0x32
 4249 1852 0000 0000 	.long.LASF195
 4250 1856 02        	.byte0x2
 4251 1857 D0        	.byte0xd0
 4252 1858 0000 0B33 	.long0xb33
 4253 185c 02        	.uleb128 0x2
 4254 185d 91        	.byte0x91
 4255 185e 74        	.sleb128 -12
 4256 185f 35        	.uleb128 0x35
 4257 1860 6900      	.string"i"
 4258 1862 02        	.byte0x2
 4259 1863 D2        	.byte0xd2
 4260 1864 0000 0053 	.long0x53
 4261 1868 02        	.uleb128 0x2
 4262 1869 91        	.byte0x91
 4263 186a 7B        	.sleb128 -5
 4264 186b 00        	.byte0
 4265 186c 34        	.uleb128 0x34
 4266 186d 0000 0000 	.long.LASF312
 4267 1871 02        	.byte0x2
 4268 1872 B0        	.byte0xb0
 4269 1873 0000 005E 	.long0x5e
 4270 1877 0000 0000 	.long.LFB61
 4271 187b 0000 0054 	.long.LFE61-.LFB61
68K GAS   			page 101


 4272 187f 01        	.uleb128 0x1
 4273 1880 9C        	.byte0x9c
 4274 1881 0000 1892 	.long0x1892
 4275 1885 35        	.uleb128 0x35
 4276 1886 6900      	.string"i"
 4277 1888 02        	.byte0x2
 4278 1889 B2        	.byte0xb2
 4279 188a 0000 005E 	.long0x5e
 4280 188e 02        	.uleb128 0x2
 4281 188f 91        	.byte0x91
 4282 1890 7A        	.sleb128 -6
 4283 1891 00        	.byte0
 4284 1892 34        	.uleb128 0x34
 4285 1893 0000 0000 	.long.LASF313
 4286 1897 02        	.byte0x2
 4287 1898 8F        	.byte0x8f
 4288 1899 0000 0B33 	.long0xb33
 4289 189d 0000 0000 	.long.LFB60
 4290 18a1 0000 0046 	.long.LFE60-.LFB60
 4291 18a5 01        	.uleb128 0x1
 4292 18a6 9C        	.byte0x9c
 4293 18a7 0000 18B8 	.long0x18b8
 4294 18ab 35        	.uleb128 0x35
 4295 18ac 6900      	.string"i"
 4296 18ae 02        	.byte0x2
 4297 18af 91        	.byte0x91
 4298 18b0 0000 0053 	.long0x53
 4299 18b4 02        	.uleb128 0x2
 4300 18b5 91        	.byte0x91
 4301 18b6 7B        	.sleb128 -5
 4302 18b7 00        	.byte0
 4303 18b8 36        	.uleb128 0x36
 4304 18b9 0000 0000 	.long.LASF314
 4305 18bd 02        	.byte0x2
 4306 18be 6C        	.byte0x6c
 4307 18bf 0000 003A 	.long0x3a
 4308 18c3 0000 0000 	.long.LFB59
 4309 18c7 0000 0080 	.long.LFE59-.LFB59
 4310 18cb 01        	.uleb128 0x1
 4311 18cc 9C        	.byte0x9c
 4312 18cd 0000 18EC 	.long0x18ec
 4313 18d1 32        	.uleb128 0x32
 4314 18d2 0000 0000 	.long.LASF150
 4315 18d6 02        	.byte0x2
 4316 18d7 6C        	.byte0x6c
 4317 18d8 0000 0070 	.long0x70
 4318 18dc 02        	.uleb128 0x2
 4319 18dd 91        	.byte0x91
 4320 18de 00        	.sleb128 0
 4321 18df 35        	.uleb128 0x35
 4322 18e0 6900      	.string"i"
 4323 18e2 02        	.byte0x2
 4324 18e3 6E        	.byte0x6e
 4325 18e4 0000 0070 	.long0x70
 4326 18e8 02        	.uleb128 0x2
 4327 18e9 91        	.byte0x91
 4328 18ea 78        	.sleb128 -8
68K GAS   			page 102


 4329 18eb 00        	.byte0
 4330 18ec 37        	.uleb128 0x37
 4331 18ed 0000 0000 	.long.LASF320
 4332 18f1 01        	.byte0x1
 4333 18f2 01C1      	.word0x1c1
 4334 18f4 0000 003A 	.long0x3a
 4335 18f8 0000 0000 	.long.LFB58
 4336 18fc 0000 000C 	.long.LFE58-.LFB58
 4337 1900 01        	.uleb128 0x1
 4338 1901 9C        	.byte0x9c
 4339 1902 0000 1925 	.long0x1925
 4340 1906 2A        	.uleb128 0x2a
 4341 1907 0000 0000 	.long.LASF315
 4342 190b 01        	.byte0x1
 4343 190c 01C1      	.word0x1c1
 4344 190e 0000 0070 	.long0x70
 4345 1912 02        	.uleb128 0x2
 4346 1913 91        	.byte0x91
 4347 1914 00        	.sleb128 0
 4348 1915 2A        	.uleb128 0x2a
 4349 1916 0000 0000 	.long.LASF316
 4350 191a 01        	.byte0x1
 4351 191b 01C1      	.word0x1c1
 4352 191d 0000 1925 	.long0x1925
 4353 1921 02        	.uleb128 0x2
 4354 1922 91        	.byte0x91
 4355 1923 04        	.sleb128 4
 4356 1924 00        	.byte0
 4357 1925 0C        	.uleb128 0xc
 4358 1926 04        	.byte0x4
 4359 1927 0000 0070 	.long0x70
 4360 192b 00        	.byte0
 4361               	.section.debug_abbrev,"",@progbits
 4362               	.Ldebug_abbrev0:
 4363 0000 01        	.uleb128 0x1
 4364 0001 11        	.uleb128 0x11
 4365 0002 01        	.byte0x1
 4366 0003 25        	.uleb128 0x25
 4367 0004 0E        	.uleb128 0xe
 4368 0005 13        	.uleb128 0x13
 4369 0006 0B        	.uleb128 0xb
 4370 0007 03        	.uleb128 0x3
 4371 0008 0E        	.uleb128 0xe
 4372 0009 1B        	.uleb128 0x1b
 4373 000a 0E        	.uleb128 0xe
 4374 000b 11        	.uleb128 0x11
 4375 000c 01        	.uleb128 0x1
 4376 000d 12        	.uleb128 0x12
 4377 000e 06        	.uleb128 0x6
 4378 000f 10        	.uleb128 0x10
 4379 0010 17        	.uleb128 0x17
 4380 0011 00        	.byte0
 4381 0012 00        	.byte0
 4382 0013 02        	.uleb128 0x2
 4383 0014 24        	.uleb128 0x24
 4384 0015 00        	.byte0
 4385 0016 0B        	.uleb128 0xb
68K GAS   			page 103


 4386 0017 0B        	.uleb128 0xb
 4387 0018 3E        	.uleb128 0x3e
 4388 0019 0B        	.uleb128 0xb
 4389 001a 03        	.uleb128 0x3
 4390 001b 0E        	.uleb128 0xe
 4391 001c 00        	.byte0
 4392 001d 00        	.byte0
 4393 001e 03        	.uleb128 0x3
 4394 001f 16        	.uleb128 0x16
 4395 0020 00        	.byte0
 4396 0021 03        	.uleb128 0x3
 4397 0022 0E        	.uleb128 0xe
 4398 0023 3A        	.uleb128 0x3a
 4399 0024 0B        	.uleb128 0xb
 4400 0025 3B        	.uleb128 0x3b
 4401 0026 0B        	.uleb128 0xb
 4402 0027 49        	.uleb128 0x49
 4403 0028 13        	.uleb128 0x13
 4404 0029 00        	.byte0
 4405 002a 00        	.byte0
 4406 002b 04        	.uleb128 0x4
 4407 002c 01        	.uleb128 0x1
 4408 002d 01        	.byte0x1
 4409 002e 49        	.uleb128 0x49
 4410 002f 13        	.uleb128 0x13
 4411 0030 01        	.uleb128 0x1
 4412 0031 13        	.uleb128 0x13
 4413 0032 00        	.byte0
 4414 0033 00        	.byte0
 4415 0034 05        	.uleb128 0x5
 4416 0035 21        	.uleb128 0x21
 4417 0036 00        	.byte0
 4418 0037 49        	.uleb128 0x49
 4419 0038 13        	.uleb128 0x13
 4420 0039 2F        	.uleb128 0x2f
 4421 003a 0B        	.uleb128 0xb
 4422 003b 00        	.byte0
 4423 003c 00        	.byte0
 4424 003d 06        	.uleb128 0x6
 4425 003e 26        	.uleb128 0x26
 4426 003f 00        	.byte0
 4427 0040 49        	.uleb128 0x49
 4428 0041 13        	.uleb128 0x13
 4429 0042 00        	.byte0
 4430 0043 00        	.byte0
 4431 0044 07        	.uleb128 0x7
 4432 0045 0F        	.uleb128 0xf
 4433 0046 00        	.byte0
 4434 0047 0B        	.uleb128 0xb
 4435 0048 0B        	.uleb128 0xb
 4436 0049 00        	.byte0
 4437 004a 00        	.byte0
 4438 004b 08        	.uleb128 0x8
 4439 004c 24        	.uleb128 0x24
 4440 004d 00        	.byte0
 4441 004e 0B        	.uleb128 0xb
 4442 004f 0B        	.uleb128 0xb
68K GAS   			page 104


 4443 0050 3E        	.uleb128 0x3e
 4444 0051 0B        	.uleb128 0xb
 4445 0052 03        	.uleb128 0x3
 4446 0053 08        	.uleb128 0x8
 4447 0054 00        	.byte0
 4448 0055 00        	.byte0
 4449 0056 09        	.uleb128 0x9
 4450 0057 13        	.uleb128 0x13
 4451 0058 01        	.byte0x1
 4452 0059 03        	.uleb128 0x3
 4453 005a 0E        	.uleb128 0xe
 4454 005b 0B        	.uleb128 0xb
 4455 005c 0B        	.uleb128 0xb
 4456 005d 3A        	.uleb128 0x3a
 4457 005e 0B        	.uleb128 0xb
 4458 005f 3B        	.uleb128 0x3b
 4459 0060 0B        	.uleb128 0xb
 4460 0061 01        	.uleb128 0x1
 4461 0062 13        	.uleb128 0x13
 4462 0063 00        	.byte0
 4463 0064 00        	.byte0
 4464 0065 0A        	.uleb128 0xa
 4465 0066 0D        	.uleb128 0xd
 4466 0067 00        	.byte0
 4467 0068 03        	.uleb128 0x3
 4468 0069 0E        	.uleb128 0xe
 4469 006a 3A        	.uleb128 0x3a
 4470 006b 0B        	.uleb128 0xb
 4471 006c 3B        	.uleb128 0x3b
 4472 006d 0B        	.uleb128 0xb
 4473 006e 49        	.uleb128 0x49
 4474 006f 13        	.uleb128 0x13
 4475 0070 38        	.uleb128 0x38
 4476 0071 0B        	.uleb128 0xb
 4477 0072 00        	.byte0
 4478 0073 00        	.byte0
 4479 0074 0B        	.uleb128 0xb
 4480 0075 13        	.uleb128 0x13
 4481 0076 00        	.byte0
 4482 0077 03        	.uleb128 0x3
 4483 0078 0E        	.uleb128 0xe
 4484 0079 3C        	.uleb128 0x3c
 4485 007a 19        	.uleb128 0x19
 4486 007b 00        	.byte0
 4487 007c 00        	.byte0
 4488 007d 0C        	.uleb128 0xc
 4489 007e 0F        	.uleb128 0xf
 4490 007f 00        	.byte0
 4491 0080 0B        	.uleb128 0xb
 4492 0081 0B        	.uleb128 0xb
 4493 0082 49        	.uleb128 0x49
 4494 0083 13        	.uleb128 0x13
 4495 0084 00        	.byte0
 4496 0085 00        	.byte0
 4497 0086 0D        	.uleb128 0xd
 4498 0087 16        	.uleb128 0x16
 4499 0088 00        	.byte0
68K GAS   			page 105


 4500 0089 03        	.uleb128 0x3
 4501 008a 0E        	.uleb128 0xe
 4502 008b 3A        	.uleb128 0x3a
 4503 008c 0B        	.uleb128 0xb
 4504 008d 3B        	.uleb128 0x3b
 4505 008e 05        	.uleb128 0x5
 4506 008f 49        	.uleb128 0x49
 4507 0090 13        	.uleb128 0x13
 4508 0091 00        	.byte0
 4509 0092 00        	.byte0
 4510 0093 0E        	.uleb128 0xe
 4511 0094 17        	.uleb128 0x17
 4512 0095 01        	.byte0x1
 4513 0096 0B        	.uleb128 0xb
 4514 0097 0B        	.uleb128 0xb
 4515 0098 3A        	.uleb128 0x3a
 4516 0099 0B        	.uleb128 0xb
 4517 009a 3B        	.uleb128 0x3b
 4518 009b 0B        	.uleb128 0xb
 4519 009c 01        	.uleb128 0x1
 4520 009d 13        	.uleb128 0x13
 4521 009e 00        	.byte0
 4522 009f 00        	.byte0
 4523 00a0 0F        	.uleb128 0xf
 4524 00a1 0D        	.uleb128 0xd
 4525 00a2 00        	.byte0
 4526 00a3 03        	.uleb128 0x3
 4527 00a4 0E        	.uleb128 0xe
 4528 00a5 3A        	.uleb128 0x3a
 4529 00a6 0B        	.uleb128 0xb
 4530 00a7 3B        	.uleb128 0x3b
 4531 00a8 0B        	.uleb128 0xb
 4532 00a9 49        	.uleb128 0x49
 4533 00aa 13        	.uleb128 0x13
 4534 00ab 00        	.byte0
 4535 00ac 00        	.byte0
 4536 00ad 10        	.uleb128 0x10
 4537 00ae 13        	.uleb128 0x13
 4538 00af 01        	.byte0x1
 4539 00b0 0B        	.uleb128 0xb
 4540 00b1 0B        	.uleb128 0xb
 4541 00b2 3A        	.uleb128 0x3a
 4542 00b3 0B        	.uleb128 0xb
 4543 00b4 3B        	.uleb128 0x3b
 4544 00b5 0B        	.uleb128 0xb
 4545 00b6 01        	.uleb128 0x1
 4546 00b7 13        	.uleb128 0x13
 4547 00b8 00        	.byte0
 4548 00b9 00        	.byte0
 4549 00ba 11        	.uleb128 0x11
 4550 00bb 0D        	.uleb128 0xd
 4551 00bc 00        	.byte0
 4552 00bd 03        	.uleb128 0x3
 4553 00be 08        	.uleb128 0x8
 4554 00bf 3A        	.uleb128 0x3a
 4555 00c0 0B        	.uleb128 0xb
 4556 00c1 3B        	.uleb128 0x3b
68K GAS   			page 106


 4557 00c2 0B        	.uleb128 0xb
 4558 00c3 49        	.uleb128 0x49
 4559 00c4 13        	.uleb128 0x13
 4560 00c5 38        	.uleb128 0x38
 4561 00c6 0B        	.uleb128 0xb
 4562 00c7 00        	.byte0
 4563 00c8 00        	.byte0
 4564 00c9 12        	.uleb128 0x12
 4565 00ca 13        	.uleb128 0x13
 4566 00cb 01        	.byte0x1
 4567 00cc 03        	.uleb128 0x3
 4568 00cd 0E        	.uleb128 0xe
 4569 00ce 0B        	.uleb128 0xb
 4570 00cf 05        	.uleb128 0x5
 4571 00d0 3A        	.uleb128 0x3a
 4572 00d1 0B        	.uleb128 0xb
 4573 00d2 3B        	.uleb128 0x3b
 4574 00d3 0B        	.uleb128 0xb
 4575 00d4 01        	.uleb128 0x1
 4576 00d5 13        	.uleb128 0x13
 4577 00d6 00        	.byte0
 4578 00d7 00        	.byte0
 4579 00d8 13        	.uleb128 0x13
 4580 00d9 0D        	.uleb128 0xd
 4581 00da 00        	.byte0
 4582 00db 03        	.uleb128 0x3
 4583 00dc 0E        	.uleb128 0xe
 4584 00dd 3A        	.uleb128 0x3a
 4585 00de 0B        	.uleb128 0xb
 4586 00df 3B        	.uleb128 0x3b
 4587 00e0 0B        	.uleb128 0xb
 4588 00e1 49        	.uleb128 0x49
 4589 00e2 13        	.uleb128 0x13
 4590 00e3 38        	.uleb128 0x38
 4591 00e4 05        	.uleb128 0x5
 4592 00e5 00        	.byte0
 4593 00e6 00        	.byte0
 4594 00e7 14        	.uleb128 0x14
 4595 00e8 15        	.uleb128 0x15
 4596 00e9 00        	.byte0
 4597 00ea 27        	.uleb128 0x27
 4598 00eb 19        	.uleb128 0x19
 4599 00ec 00        	.byte0
 4600 00ed 00        	.byte0
 4601 00ee 15        	.uleb128 0x15
 4602 00ef 15        	.uleb128 0x15
 4603 00f0 01        	.byte0x1
 4604 00f1 27        	.uleb128 0x27
 4605 00f2 19        	.uleb128 0x19
 4606 00f3 49        	.uleb128 0x49
 4607 00f4 13        	.uleb128 0x13
 4608 00f5 01        	.uleb128 0x1
 4609 00f6 13        	.uleb128 0x13
 4610 00f7 00        	.byte0
 4611 00f8 00        	.byte0
 4612 00f9 16        	.uleb128 0x16
 4613 00fa 05        	.uleb128 0x5
68K GAS   			page 107


 4614 00fb 00        	.byte0
 4615 00fc 49        	.uleb128 0x49
 4616 00fd 13        	.uleb128 0x13
 4617 00fe 00        	.byte0
 4618 00ff 00        	.byte0
 4619 0100 17        	.uleb128 0x17
 4620 0101 13        	.uleb128 0x13
 4621 0102 01        	.byte0x1
 4622 0103 03        	.uleb128 0x3
 4623 0104 0E        	.uleb128 0xe
 4624 0105 0B        	.uleb128 0xb
 4625 0106 05        	.uleb128 0x5
 4626 0107 3A        	.uleb128 0x3a
 4627 0108 0B        	.uleb128 0xb
 4628 0109 3B        	.uleb128 0x3b
 4629 010a 05        	.uleb128 0x5
 4630 010b 01        	.uleb128 0x1
 4631 010c 13        	.uleb128 0x13
 4632 010d 00        	.byte0
 4633 010e 00        	.byte0
 4634 010f 18        	.uleb128 0x18
 4635 0110 0D        	.uleb128 0xd
 4636 0111 00        	.byte0
 4637 0112 03        	.uleb128 0x3
 4638 0113 0E        	.uleb128 0xe
 4639 0114 3A        	.uleb128 0x3a
 4640 0115 0B        	.uleb128 0xb
 4641 0116 3B        	.uleb128 0x3b
 4642 0117 05        	.uleb128 0x5
 4643 0118 49        	.uleb128 0x49
 4644 0119 13        	.uleb128 0x13
 4645 011a 38        	.uleb128 0x38
 4646 011b 0B        	.uleb128 0xb
 4647 011c 00        	.byte0
 4648 011d 00        	.byte0
 4649 011e 19        	.uleb128 0x19
 4650 011f 0D        	.uleb128 0xd
 4651 0120 00        	.byte0
 4652 0121 03        	.uleb128 0x3
 4653 0122 0E        	.uleb128 0xe
 4654 0123 3A        	.uleb128 0x3a
 4655 0124 0B        	.uleb128 0xb
 4656 0125 3B        	.uleb128 0x3b
 4657 0126 05        	.uleb128 0x5
 4658 0127 49        	.uleb128 0x49
 4659 0128 13        	.uleb128 0x13
 4660 0129 38        	.uleb128 0x38
 4661 012a 05        	.uleb128 0x5
 4662 012b 00        	.byte0
 4663 012c 00        	.byte0
 4664 012d 1A        	.uleb128 0x1a
 4665 012e 13        	.uleb128 0x13
 4666 012f 01        	.byte0x1
 4667 0130 03        	.uleb128 0x3
 4668 0131 0E        	.uleb128 0xe
 4669 0132 0B        	.uleb128 0xb
 4670 0133 0B        	.uleb128 0xb
68K GAS   			page 108


 4671 0134 3A        	.uleb128 0x3a
 4672 0135 0B        	.uleb128 0xb
 4673 0136 3B        	.uleb128 0x3b
 4674 0137 05        	.uleb128 0x5
 4675 0138 01        	.uleb128 0x1
 4676 0139 13        	.uleb128 0x13
 4677 013a 00        	.byte0
 4678 013b 00        	.byte0
 4679 013c 1B        	.uleb128 0x1b
 4680 013d 13        	.uleb128 0x13
 4681 013e 01        	.byte0x1
 4682 013f 0B        	.uleb128 0xb
 4683 0140 0B        	.uleb128 0xb
 4684 0141 3A        	.uleb128 0x3a
 4685 0142 0B        	.uleb128 0xb
 4686 0143 3B        	.uleb128 0x3b
 4687 0144 05        	.uleb128 0x5
 4688 0145 01        	.uleb128 0x1
 4689 0146 13        	.uleb128 0x13
 4690 0147 00        	.byte0
 4691 0148 00        	.byte0
 4692 0149 1C        	.uleb128 0x1c
 4693 014a 17        	.uleb128 0x17
 4694 014b 01        	.byte0x1
 4695 014c 0B        	.uleb128 0xb
 4696 014d 0B        	.uleb128 0xb
 4697 014e 3A        	.uleb128 0x3a
 4698 014f 0B        	.uleb128 0xb
 4699 0150 3B        	.uleb128 0x3b
 4700 0151 05        	.uleb128 0x5
 4701 0152 01        	.uleb128 0x1
 4702 0153 13        	.uleb128 0x13
 4703 0154 00        	.byte0
 4704 0155 00        	.byte0
 4705 0156 1D        	.uleb128 0x1d
 4706 0157 0D        	.uleb128 0xd
 4707 0158 00        	.byte0
 4708 0159 03        	.uleb128 0x3
 4709 015a 0E        	.uleb128 0xe
 4710 015b 3A        	.uleb128 0x3a
 4711 015c 0B        	.uleb128 0xb
 4712 015d 3B        	.uleb128 0x3b
 4713 015e 05        	.uleb128 0x5
 4714 015f 49        	.uleb128 0x49
 4715 0160 13        	.uleb128 0x13
 4716 0161 00        	.byte0
 4717 0162 00        	.byte0
 4718 0163 1E        	.uleb128 0x1e
 4719 0164 15        	.uleb128 0x15
 4720 0165 01        	.byte0x1
 4721 0166 27        	.uleb128 0x27
 4722 0167 19        	.uleb128 0x19
 4723 0168 01        	.uleb128 0x1
 4724 0169 13        	.uleb128 0x13
 4725 016a 00        	.byte0
 4726 016b 00        	.byte0
 4727 016c 1F        	.uleb128 0x1f
68K GAS   			page 109


 4728 016d 34        	.uleb128 0x34
 4729 016e 00        	.byte0
 4730 016f 03        	.uleb128 0x3
 4731 0170 0E        	.uleb128 0xe
 4732 0171 3A        	.uleb128 0x3a
 4733 0172 0B        	.uleb128 0xb
 4734 0173 3B        	.uleb128 0x3b
 4735 0174 05        	.uleb128 0x5
 4736 0175 49        	.uleb128 0x49
 4737 0176 13        	.uleb128 0x13
 4738 0177 3F        	.uleb128 0x3f
 4739 0178 19        	.uleb128 0x19
 4740 0179 3C        	.uleb128 0x3c
 4741 017a 19        	.uleb128 0x19
 4742 017b 00        	.byte0
 4743 017c 00        	.byte0
 4744 017d 20        	.uleb128 0x20
 4745 017e 34        	.uleb128 0x34
 4746 017f 00        	.byte0
 4747 0180 03        	.uleb128 0x3
 4748 0181 0E        	.uleb128 0xe
 4749 0182 3A        	.uleb128 0x3a
 4750 0183 0B        	.uleb128 0xb
 4751 0184 3B        	.uleb128 0x3b
 4752 0185 0B        	.uleb128 0xb
 4753 0186 49        	.uleb128 0x49
 4754 0187 13        	.uleb128 0x13
 4755 0188 3F        	.uleb128 0x3f
 4756 0189 19        	.uleb128 0x19
 4757 018a 3C        	.uleb128 0x3c
 4758 018b 19        	.uleb128 0x19
 4759 018c 00        	.byte0
 4760 018d 00        	.byte0
 4761 018e 21        	.uleb128 0x21
 4762 018f 0D        	.uleb128 0xd
 4763 0190 00        	.byte0
 4764 0191 03        	.uleb128 0x3
 4765 0192 08        	.uleb128 0x8
 4766 0193 3A        	.uleb128 0x3a
 4767 0194 0B        	.uleb128 0xb
 4768 0195 3B        	.uleb128 0x3b
 4769 0196 0B        	.uleb128 0xb
 4770 0197 49        	.uleb128 0x49
 4771 0198 13        	.uleb128 0x13
 4772 0199 00        	.byte0
 4773 019a 00        	.byte0
 4774 019b 22        	.uleb128 0x22
 4775 019c 0D        	.uleb128 0xd
 4776 019d 00        	.byte0
 4777 019e 03        	.uleb128 0x3
 4778 019f 08        	.uleb128 0x8
 4779 01a0 3A        	.uleb128 0x3a
 4780 01a1 0B        	.uleb128 0xb
 4781 01a2 3B        	.uleb128 0x3b
 4782 01a3 05        	.uleb128 0x5
 4783 01a4 49        	.uleb128 0x49
 4784 01a5 13        	.uleb128 0x13
68K GAS   			page 110


 4785 01a6 38        	.uleb128 0x38
 4786 01a7 0B        	.uleb128 0xb
 4787 01a8 00        	.byte0
 4788 01a9 00        	.byte0
 4789 01aa 23        	.uleb128 0x23
 4790 01ab 13        	.uleb128 0x13
 4791 01ac 01        	.byte0x1
 4792 01ad 0B        	.uleb128 0xb
 4793 01ae 05        	.uleb128 0x5
 4794 01af 3A        	.uleb128 0x3a
 4795 01b0 0B        	.uleb128 0xb
 4796 01b1 3B        	.uleb128 0x3b
 4797 01b2 05        	.uleb128 0x5
 4798 01b3 01        	.uleb128 0x1
 4799 01b4 13        	.uleb128 0x13
 4800 01b5 00        	.byte0
 4801 01b6 00        	.byte0
 4802 01b7 24        	.uleb128 0x24
 4803 01b8 13        	.uleb128 0x13
 4804 01b9 01        	.byte0x1
 4805 01ba 0B        	.uleb128 0xb
 4806 01bb 06        	.uleb128 0x6
 4807 01bc 3A        	.uleb128 0x3a
 4808 01bd 0B        	.uleb128 0xb
 4809 01be 3B        	.uleb128 0x3b
 4810 01bf 05        	.uleb128 0x5
 4811 01c0 01        	.uleb128 0x1
 4812 01c1 13        	.uleb128 0x13
 4813 01c2 00        	.byte0
 4814 01c3 00        	.byte0
 4815 01c4 25        	.uleb128 0x25
 4816 01c5 21        	.uleb128 0x21
 4817 01c6 00        	.byte0
 4818 01c7 49        	.uleb128 0x49
 4819 01c8 13        	.uleb128 0x13
 4820 01c9 2F        	.uleb128 0x2f
 4821 01ca 06        	.uleb128 0x6
 4822 01cb 00        	.byte0
 4823 01cc 00        	.byte0
 4824 01cd 26        	.uleb128 0x26
 4825 01ce 0D        	.uleb128 0xd
 4826 01cf 00        	.byte0
 4827 01d0 03        	.uleb128 0x3
 4828 01d1 08        	.uleb128 0x8
 4829 01d2 3A        	.uleb128 0x3a
 4830 01d3 0B        	.uleb128 0xb
 4831 01d4 3B        	.uleb128 0x3b
 4832 01d5 05        	.uleb128 0x5
 4833 01d6 49        	.uleb128 0x49
 4834 01d7 13        	.uleb128 0x13
 4835 01d8 38        	.uleb128 0x38
 4836 01d9 05        	.uleb128 0x5
 4837 01da 00        	.byte0
 4838 01db 00        	.byte0
 4839 01dc 27        	.uleb128 0x27
 4840 01dd 0D        	.uleb128 0xd
 4841 01de 00        	.byte0
68K GAS   			page 111


 4842 01df 03        	.uleb128 0x3
 4843 01e0 0E        	.uleb128 0xe
 4844 01e1 3A        	.uleb128 0x3a
 4845 01e2 0B        	.uleb128 0xb
 4846 01e3 3B        	.uleb128 0x3b
 4847 01e4 05        	.uleb128 0x5
 4848 01e5 49        	.uleb128 0x49
 4849 01e6 13        	.uleb128 0x13
 4850 01e7 38        	.uleb128 0x38
 4851 01e8 06        	.uleb128 0x6
 4852 01e9 00        	.byte0
 4853 01ea 00        	.byte0
 4854 01eb 28        	.uleb128 0x28
 4855 01ec 21        	.uleb128 0x21
 4856 01ed 00        	.byte0
 4857 01ee 49        	.uleb128 0x49
 4858 01ef 13        	.uleb128 0x13
 4859 01f0 2F        	.uleb128 0x2f
 4860 01f1 05        	.uleb128 0x5
 4861 01f2 00        	.byte0
 4862 01f3 00        	.byte0
 4863 01f4 29        	.uleb128 0x29
 4864 01f5 2E        	.uleb128 0x2e
 4865 01f6 01        	.byte0x1
 4866 01f7 3F        	.uleb128 0x3f
 4867 01f8 19        	.uleb128 0x19
 4868 01f9 03        	.uleb128 0x3
 4869 01fa 0E        	.uleb128 0xe
 4870 01fb 3A        	.uleb128 0x3a
 4871 01fc 0B        	.uleb128 0xb
 4872 01fd 3B        	.uleb128 0x3b
 4873 01fe 05        	.uleb128 0x5
 4874 01ff 27        	.uleb128 0x27
 4875 0200 19        	.uleb128 0x19
 4876 0201 49        	.uleb128 0x49
 4877 0202 13        	.uleb128 0x13
 4878 0203 11        	.uleb128 0x11
 4879 0204 01        	.uleb128 0x1
 4880 0205 12        	.uleb128 0x12
 4881 0206 06        	.uleb128 0x6
 4882 0207 40        	.uleb128 0x40
 4883 0208 18        	.uleb128 0x18
 4884 0209 9642      	.uleb128 0x2116
 4885 020b 19        	.uleb128 0x19
 4886 020c 01        	.uleb128 0x1
 4887 020d 13        	.uleb128 0x13
 4888 020e 00        	.byte0
 4889 020f 00        	.byte0
 4890 0210 2A        	.uleb128 0x2a
 4891 0211 05        	.uleb128 0x5
 4892 0212 00        	.byte0
 4893 0213 03        	.uleb128 0x3
 4894 0214 0E        	.uleb128 0xe
 4895 0215 3A        	.uleb128 0x3a
 4896 0216 0B        	.uleb128 0xb
 4897 0217 3B        	.uleb128 0x3b
 4898 0218 05        	.uleb128 0x5
68K GAS   			page 112


 4899 0219 49        	.uleb128 0x49
 4900 021a 13        	.uleb128 0x13
 4901 021b 02        	.uleb128 0x2
 4902 021c 18        	.uleb128 0x18
 4903 021d 00        	.byte0
 4904 021e 00        	.byte0
 4905 021f 2B        	.uleb128 0x2b
 4906 0220 34        	.uleb128 0x34
 4907 0221 00        	.byte0
 4908 0222 03        	.uleb128 0x3
 4909 0223 0E        	.uleb128 0xe
 4910 0224 3A        	.uleb128 0x3a
 4911 0225 0B        	.uleb128 0xb
 4912 0226 3B        	.uleb128 0x3b
 4913 0227 05        	.uleb128 0x5
 4914 0228 49        	.uleb128 0x49
 4915 0229 13        	.uleb128 0x13
 4916 022a 02        	.uleb128 0x2
 4917 022b 18        	.uleb128 0x18
 4918 022c 00        	.byte0
 4919 022d 00        	.byte0
 4920 022e 2C        	.uleb128 0x2c
 4921 022f 34        	.uleb128 0x34
 4922 0230 00        	.byte0
 4923 0231 03        	.uleb128 0x3
 4924 0232 08        	.uleb128 0x8
 4925 0233 3A        	.uleb128 0x3a
 4926 0234 0B        	.uleb128 0xb
 4927 0235 3B        	.uleb128 0x3b
 4928 0236 05        	.uleb128 0x5
 4929 0237 49        	.uleb128 0x49
 4930 0238 13        	.uleb128 0x13
 4931 0239 02        	.uleb128 0x2
 4932 023a 18        	.uleb128 0x18
 4933 023b 00        	.byte0
 4934 023c 00        	.byte0
 4935 023d 2D        	.uleb128 0x2d
 4936 023e 2E        	.uleb128 0x2e
 4937 023f 01        	.byte0x1
 4938 0240 3F        	.uleb128 0x3f
 4939 0241 19        	.uleb128 0x19
 4940 0242 03        	.uleb128 0x3
 4941 0243 0E        	.uleb128 0xe
 4942 0244 3A        	.uleb128 0x3a
 4943 0245 0B        	.uleb128 0xb
 4944 0246 3B        	.uleb128 0x3b
 4945 0247 05        	.uleb128 0x5
 4946 0248 27        	.uleb128 0x27
 4947 0249 19        	.uleb128 0x19
 4948 024a 49        	.uleb128 0x49
 4949 024b 13        	.uleb128 0x13
 4950 024c 11        	.uleb128 0x11
 4951 024d 01        	.uleb128 0x1
 4952 024e 12        	.uleb128 0x12
 4953 024f 06        	.uleb128 0x6
 4954 0250 40        	.uleb128 0x40
 4955 0251 18        	.uleb128 0x18
68K GAS   			page 113


 4956 0252 9742      	.uleb128 0x2117
 4957 0254 19        	.uleb128 0x19
 4958 0255 01        	.uleb128 0x1
 4959 0256 13        	.uleb128 0x13
 4960 0257 00        	.byte0
 4961 0258 00        	.byte0
 4962 0259 2E        	.uleb128 0x2e
 4963 025a 2E        	.uleb128 0x2e
 4964 025b 01        	.byte0x1
 4965 025c 3F        	.uleb128 0x3f
 4966 025d 19        	.uleb128 0x19
 4967 025e 03        	.uleb128 0x3
 4968 025f 0E        	.uleb128 0xe
 4969 0260 3A        	.uleb128 0x3a
 4970 0261 0B        	.uleb128 0xb
 4971 0262 3B        	.uleb128 0x3b
 4972 0263 05        	.uleb128 0x5
 4973 0264 27        	.uleb128 0x27
 4974 0265 19        	.uleb128 0x19
 4975 0266 11        	.uleb128 0x11
 4976 0267 01        	.uleb128 0x1
 4977 0268 12        	.uleb128 0x12
 4978 0269 06        	.uleb128 0x6
 4979 026a 40        	.uleb128 0x40
 4980 026b 18        	.uleb128 0x18
 4981 026c 9642      	.uleb128 0x2116
 4982 026e 19        	.uleb128 0x19
 4983 026f 01        	.uleb128 0x1
 4984 0270 13        	.uleb128 0x13
 4985 0271 00        	.byte0
 4986 0272 00        	.byte0
 4987 0273 2F        	.uleb128 0x2f
 4988 0274 05        	.uleb128 0x5
 4989 0275 00        	.byte0
 4990 0276 03        	.uleb128 0x3
 4991 0277 08        	.uleb128 0x8
 4992 0278 3A        	.uleb128 0x3a
 4993 0279 0B        	.uleb128 0xb
 4994 027a 3B        	.uleb128 0x3b
 4995 027b 05        	.uleb128 0x5
 4996 027c 49        	.uleb128 0x49
 4997 027d 13        	.uleb128 0x13
 4998 027e 02        	.uleb128 0x2
 4999 027f 18        	.uleb128 0x18
 5000 0280 00        	.byte0
 5001 0281 00        	.byte0
 5002 0282 30        	.uleb128 0x30
 5003 0283 2E        	.uleb128 0x2e
 5004 0284 01        	.byte0x1
 5005 0285 3F        	.uleb128 0x3f
 5006 0286 19        	.uleb128 0x19
 5007 0287 03        	.uleb128 0x3
 5008 0288 0E        	.uleb128 0xe
 5009 0289 3A        	.uleb128 0x3a
 5010 028a 0B        	.uleb128 0xb
 5011 028b 3B        	.uleb128 0x3b
 5012 028c 05        	.uleb128 0x5
68K GAS   			page 114


 5013 028d 27        	.uleb128 0x27
 5014 028e 19        	.uleb128 0x19
 5015 028f 11        	.uleb128 0x11
 5016 0290 01        	.uleb128 0x1
 5017 0291 12        	.uleb128 0x12
 5018 0292 06        	.uleb128 0x6
 5019 0293 40        	.uleb128 0x40
 5020 0294 18        	.uleb128 0x18
 5021 0295 9742      	.uleb128 0x2117
 5022 0297 19        	.uleb128 0x19
 5023 0298 01        	.uleb128 0x1
 5024 0299 13        	.uleb128 0x13
 5025 029a 00        	.byte0
 5026 029b 00        	.byte0
 5027 029c 31        	.uleb128 0x31
 5028 029d 2E        	.uleb128 0x2e
 5029 029e 01        	.byte0x1
 5030 029f 3F        	.uleb128 0x3f
 5031 02a0 19        	.uleb128 0x19
 5032 02a1 03        	.uleb128 0x3
 5033 02a2 0E        	.uleb128 0xe
 5034 02a3 3A        	.uleb128 0x3a
 5035 02a4 0B        	.uleb128 0xb
 5036 02a5 3B        	.uleb128 0x3b
 5037 02a6 0B        	.uleb128 0xb
 5038 02a7 27        	.uleb128 0x27
 5039 02a8 19        	.uleb128 0x19
 5040 02a9 11        	.uleb128 0x11
 5041 02aa 01        	.uleb128 0x1
 5042 02ab 12        	.uleb128 0x12
 5043 02ac 06        	.uleb128 0x6
 5044 02ad 40        	.uleb128 0x40
 5045 02ae 18        	.uleb128 0x18
 5046 02af 9642      	.uleb128 0x2116
 5047 02b1 19        	.uleb128 0x19
 5048 02b2 01        	.uleb128 0x1
 5049 02b3 13        	.uleb128 0x13
 5050 02b4 00        	.byte0
 5051 02b5 00        	.byte0
 5052 02b6 32        	.uleb128 0x32
 5053 02b7 05        	.uleb128 0x5
 5054 02b8 00        	.byte0
 5055 02b9 03        	.uleb128 0x3
 5056 02ba 0E        	.uleb128 0xe
 5057 02bb 3A        	.uleb128 0x3a
 5058 02bc 0B        	.uleb128 0xb
 5059 02bd 3B        	.uleb128 0x3b
 5060 02be 0B        	.uleb128 0xb
 5061 02bf 49        	.uleb128 0x49
 5062 02c0 13        	.uleb128 0x13
 5063 02c1 02        	.uleb128 0x2
 5064 02c2 18        	.uleb128 0x18
 5065 02c3 00        	.byte0
 5066 02c4 00        	.byte0
 5067 02c5 33        	.uleb128 0x33
 5068 02c6 34        	.uleb128 0x34
 5069 02c7 00        	.byte0
68K GAS   			page 115


 5070 02c8 03        	.uleb128 0x3
 5071 02c9 0E        	.uleb128 0xe
 5072 02ca 3A        	.uleb128 0x3a
 5073 02cb 0B        	.uleb128 0xb
 5074 02cc 3B        	.uleb128 0x3b
 5075 02cd 0B        	.uleb128 0xb
 5076 02ce 49        	.uleb128 0x49
 5077 02cf 13        	.uleb128 0x13
 5078 02d0 02        	.uleb128 0x2
 5079 02d1 18        	.uleb128 0x18
 5080 02d2 00        	.byte0
 5081 02d3 00        	.byte0
 5082 02d4 34        	.uleb128 0x34
 5083 02d5 2E        	.uleb128 0x2e
 5084 02d6 01        	.byte0x1
 5085 02d7 3F        	.uleb128 0x3f
 5086 02d8 19        	.uleb128 0x19
 5087 02d9 03        	.uleb128 0x3
 5088 02da 0E        	.uleb128 0xe
 5089 02db 3A        	.uleb128 0x3a
 5090 02dc 0B        	.uleb128 0xb
 5091 02dd 3B        	.uleb128 0x3b
 5092 02de 0B        	.uleb128 0xb
 5093 02df 27        	.uleb128 0x27
 5094 02e0 19        	.uleb128 0x19
 5095 02e1 49        	.uleb128 0x49
 5096 02e2 13        	.uleb128 0x13
 5097 02e3 11        	.uleb128 0x11
 5098 02e4 01        	.uleb128 0x1
 5099 02e5 12        	.uleb128 0x12
 5100 02e6 06        	.uleb128 0x6
 5101 02e7 40        	.uleb128 0x40
 5102 02e8 18        	.uleb128 0x18
 5103 02e9 9742      	.uleb128 0x2117
 5104 02eb 19        	.uleb128 0x19
 5105 02ec 01        	.uleb128 0x1
 5106 02ed 13        	.uleb128 0x13
 5107 02ee 00        	.byte0
 5108 02ef 00        	.byte0
 5109 02f0 35        	.uleb128 0x35
 5110 02f1 34        	.uleb128 0x34
 5111 02f2 00        	.byte0
 5112 02f3 03        	.uleb128 0x3
 5113 02f4 08        	.uleb128 0x8
 5114 02f5 3A        	.uleb128 0x3a
 5115 02f6 0B        	.uleb128 0xb
 5116 02f7 3B        	.uleb128 0x3b
 5117 02f8 0B        	.uleb128 0xb
 5118 02f9 49        	.uleb128 0x49
 5119 02fa 13        	.uleb128 0x13
 5120 02fb 02        	.uleb128 0x2
 5121 02fc 18        	.uleb128 0x18
 5122 02fd 00        	.byte0
 5123 02fe 00        	.byte0
 5124 02ff 36        	.uleb128 0x36
 5125 0300 2E        	.uleb128 0x2e
 5126 0301 01        	.byte0x1
68K GAS   			page 116


 5127 0302 3F        	.uleb128 0x3f
 5128 0303 19        	.uleb128 0x19
 5129 0304 03        	.uleb128 0x3
 5130 0305 0E        	.uleb128 0xe
 5131 0306 3A        	.uleb128 0x3a
 5132 0307 0B        	.uleb128 0xb
 5133 0308 3B        	.uleb128 0x3b
 5134 0309 0B        	.uleb128 0xb
 5135 030a 27        	.uleb128 0x27
 5136 030b 19        	.uleb128 0x19
 5137 030c 49        	.uleb128 0x49
 5138 030d 13        	.uleb128 0x13
 5139 030e 11        	.uleb128 0x11
 5140 030f 01        	.uleb128 0x1
 5141 0310 12        	.uleb128 0x12
 5142 0311 06        	.uleb128 0x6
 5143 0312 40        	.uleb128 0x40
 5144 0313 18        	.uleb128 0x18
 5145 0314 9642      	.uleb128 0x2116
 5146 0316 19        	.uleb128 0x19
 5147 0317 01        	.uleb128 0x1
 5148 0318 13        	.uleb128 0x13
 5149 0319 00        	.byte0
 5150 031a 00        	.byte0
 5151 031b 37        	.uleb128 0x37
 5152 031c 2E        	.uleb128 0x2e
 5153 031d 01        	.byte0x1
 5154 031e 03        	.uleb128 0x3
 5155 031f 0E        	.uleb128 0xe
 5156 0320 3A        	.uleb128 0x3a
 5157 0321 0B        	.uleb128 0xb
 5158 0322 3B        	.uleb128 0x3b
 5159 0323 05        	.uleb128 0x5
 5160 0324 27        	.uleb128 0x27
 5161 0325 19        	.uleb128 0x19
 5162 0326 49        	.uleb128 0x49
 5163 0327 13        	.uleb128 0x13
 5164 0328 11        	.uleb128 0x11
 5165 0329 01        	.uleb128 0x1
 5166 032a 12        	.uleb128 0x12
 5167 032b 06        	.uleb128 0x6
 5168 032c 40        	.uleb128 0x40
 5169 032d 18        	.uleb128 0x18
 5170 032e 9742      	.uleb128 0x2117
 5171 0330 19        	.uleb128 0x19
 5172 0331 01        	.uleb128 0x1
 5173 0332 13        	.uleb128 0x13
 5174 0333 00        	.byte0
 5175 0334 00        	.byte0
 5176 0335 00        	.byte0
 5177               	.section.debug_aranges,"",@progbits
 5178 0000 0000 001C 	.long0x1c
 5179 0004 0002      	.word0x2
 5180 0006 0000 0000 	.long.Ldebug_info0
 5181 000a 04        	.byte0x4
 5182 000b 00        	.byte0
 5183 000c 0000      	.word0
68K GAS   			page 117


 5184 000e 0000      	.word0
 5185 0010 0000 0000 	.long.Ltext0
 5186 0014 0000 08A0 	.long.Letext0-.Ltext0
 5187 0018 0000 0000 	.long0
 5188 001c 0000 0000 	.long0
 5189               	.section.debug_line,"",@progbits
 5190               	.Ldebug_line0:
 5191 0000 0000 03E4 	.section.debug_str,"MS",@progbits,1
 5191      0002 0000 
 5191      0284 0201 
 5191      FB0E 0D00 
 5191      0101 0101 
 5192               	.LASF35:
 5193 0000 5F73 7369 	.string"_ssize_t"
 5193      7A65 5F74 
 5193      00
 5194               	.LASF241:
 5195 0009 4346 455F 	.string"CFE_SB_DestinationD_t"
 5195      5342 5F44 
 5195      6573 7469 
 5195      6E61 7469 
 5195      6F6E 445F 
 5196               	.LASF137:
 5197 001f 5F5F 6C6F 	.string"__locale_t"
 5197      6361 6C65 
 5197      5F74 00
 5198               	.LASF40:
 5199 002a 5F5F 7661 	.string"__value"
 5199      6C75 6500 
 5200               	.LASF138:
 5201 0032 5F5F 7366 	.string"__sf"
 5201      00
 5202               	.LASF156:
 5203 0037 4343 5344 	.string"CCSDS_PriHdr_t"
 5203      535F 5072 
 5203      6948 6472 
 5203      5F74 00
 5204               	.LASF185:
 5205 0046 4475 7053 	.string"DupSubscriptionsCnt"
 5205      7562 7363 
 5205      7269 7074 
 5205      696F 6E73 
 5205      436E 7400 
 5206               	.LASF75:
 5207 005a 5F72 6561 	.string"_read"
 5207      6400 
 5208               	.LASF290:
 5209 0060 5473 6B4E 	.string"TskName"
 5209      616D 6500 
 5210               	.LASF255:
 5211 0068 4346 455F 	.string"CFE_SB_PipeD_t"
 5211      5342 5F50 
 5211      6970 6544 
 5211      5F74 00
 5212               	.LASF76:
 5213 0077 5F77 7269 	.string"_write"
 5213      7465 00
68K GAS   			page 118


 5214               	.LASF153:
 5215 007e 5374 7265 	.string"StreamId"
 5215      616D 4964 
 5215      00
 5216               	.LASF117:
 5217 0087 5F61 7363 	.string"_asctime_buf"
 5217      7469 6D65 
 5217      5F62 7566 
 5217      00
 5218               	.LASF295:
 5219 0094 4D73 6750 	.string"MsgPtr"
 5219      7472 00
 5220               	.LASF102:
 5221 009b 5F63 7674 	.string"_cvtlen"
 5221      6C65 6E00 
 5222               	.LASF29:
 5223 00a3 5F4D 7574 	.string"_Mutex_Control"
 5223      6578 5F43 
 5223      6F6E 7472 
 5223      6F6C 00
 5224               	.LASF281:
 5225 00b2 5072 6576 	.string"PrevNode"
 5225      4E6F 6465 
 5225      00
 5226               	.LASF141:
 5227 00bb 5F67 6C6F 	.string"_global_atexit"
 5227      6261 6C5F 
 5227      6174 6578 
 5227      6974 00
 5228               	.LASF9:
 5229 00ca 7569 6E74 	.string"uint32"
 5229      3332 00
 5230               	.LASF136:
 5231 00d1 5F75 6E75 	.string"_unused"
 5231      7365 6400 
 5232               	.LASF49:
 5233 00d9 5F5F 746D 	.string"__tm"
 5233      00
 5234               	.LASF132:
 5235 00de 5F77 6373 	.string"_wcsrtombs_state"
 5235      7274 6F6D 
 5235      6273 5F73 
 5235      7461 7465 
 5235      00
 5236               	.LASF80:
 5237 00ef 5F6E 6275 	.string"_nbuf"
 5237      6600 
 5238               	.LASF50:
 5239 00f5 5F5F 746D 	.string"__tm_sec"
 5239      5F73 6563 
 5239      00
 5240               	.LASF28:
 5241 00fe 5F54 6872 	.string"_Thread_Control"
 5241      6561 645F 
 5241      436F 6E74 
 5241      726F 6C00 
 5242               	.LASF125:
68K GAS   			page 119


 5243 010e 5F6C 3634 	.string"_l64a_buf"
 5243      615F 6275 
 5243      6600 
 5244               	.LASF233:
 5245 0118 4346 455F 	.string"CFE_SB_BufferD_t"
 5245      5342 5F42 
 5245      7566 6665 
 5245      7244 5F74 
 5245      00
 5246               	.LASF219:
 5247 0129 5069 7065 	.string"Pipe"
 5247      00
 5248               	.LASF89:
 5249 012e 5F73 7464 	.string"_stdin"
 5249      696E 00
 5250               	.LASF273:
 5251 0135 4576 656E 	.string"EventFilters"
 5251      7446 696C 
 5251      7465 7273 
 5251      00
 5252               	.LASF242:
 5253 0142 4170 7049 	.string"AppID"
 5253      4400 
 5254               	.LASF77:
 5255 0148 5F73 6565 	.string"_seek"
 5255      6B00 
 5256               	.LASF274:
 5257 014e 6366 655F 	.string"cfe_sb_t"
 5257      7362 5F74 
 5257      00
 5258               	.LASF113:
 5259 0157 5F6D 756C 	.string"_mult"
 5259      7400 
 5260               	.LASF287:
 5261 015d 4346 455F 	.string"CFE_SB_GetAppTskName"
 5261      5342 5F47 
 5261      6574 4170 
 5261      7054 736B 
 5261      4E61 6D65 
 5262               	.LASF211:
 5263 0172 5342 4275 	.string"SBBuffersInUse"
 5263      6666 6572 
 5263      7349 6E55 
 5263      7365 00
 5264               	.LASF249:
 5265 0181 5379 7351 	.string"SysQueueId"
 5265      7565 7565 
 5265      4964 00
 5266               	.LASF195:
 5267 018c 5069 7065 	.string"PipeId"
 5267      4964 00
 5268               	.LASF243:
 5269 0193 4346 455F 	.string"CFE_SB_ZeroCopyD_t"
 5269      5342 5F5A 
 5269      6572 6F43 
 5269      6F70 7944 
 5269      5F74 00
68K GAS   			page 120


 5270               	.LASF37:
 5271 01a6 5F5F 7763 	.string"__wch"
 5271      6800 
 5272               	.LASF72:
 5273 01ac 5F66 696C 	.string"_file"
 5273      6500 
 5274               	.LASF171:
 5275 01b2 5072 6F63 	.string"ProcessorId"
 5275      6573 736F 
 5275      7249 6400 
 5276               	.LASF59:
 5277 01be 5F6F 6E5F 	.string"_on_exit_args"
 5277      6578 6974 
 5277      5F61 7267 
 5277      7300 
 5278               	.LASF305:
 5279 01cc 4346 455F 	.string"CFE_SB_GetPipePtr"
 5279      5342 5F47 
 5279      6574 5069 
 5279      7065 5074 
 5279      7200 
 5280               	.LASF176:
 5281 01de 436F 6D6D 	.string"CommandCnt"
 5281      616E 6443 
 5281      6E74 00
 5282               	.LASF275:
 5283 01e9 4346 455F 	.string"CFE_SB"
 5283      5342 00
 5284               	.LASF183:
 5285 01f0 5375 6273 	.string"SubscribeErrCnt"
 5285      6372 6962 
 5285      6545 7272 
 5285      436E 7400 
 5286               	.LASF291:
 5287 0200 4346 455F 	.string"CFE_SB_ValidatePipeId"
 5287      5342 5F56 
 5287      616C 6964 
 5287      6174 6550 
 5287      6970 6549 
 5288               	.LASF128:
 5289 0216 5F6D 6272 	.string"_mbrlen_state"
 5289      6C65 6E5F 
 5289      7374 6174 
 5289      6500 
 5290               	.LASF3:
 5291 0224 6C6F 6E67 	.string"long int"
 5291      2069 6E74 
 5291      00
 5292               	.LASF139:
 5293 022d 5F69 6D70 	.string"_impure_ptr"
 5293      7572 655F 
 5293      7074 7200 
 5294               	.LASF207:
 5295 0239 4D61 784D 	.string"MaxMemAllowed"
 5295      656D 416C 
 5295      6C6F 7765 
 5295      6400 
68K GAS   			page 121


 5296               	.LASF99:
 5297 0247 5F72 6573 	.string"_result_k"
 5297      756C 745F 
 5297      6B00 
 5298               	.LASF158:
 5299 0251 4343 5344 	.string"CCSDS_TlmSecHdr_t"
 5299      535F 546C 
 5299      6D53 6563 
 5299      4864 725F 
 5299      7400 
 5300               	.LASF69:
 5301 0263 5F73 697A 	.string"_size"
 5301      6500 
 5302               	.LASF227:
 5303 0269 4346 455F 	.string"CFE_SB_PrevSubMsg_Payload_t"
 5303      5342 5F50 
 5303      7265 7653 
 5303      7562 4D73 
 5303      675F 5061 
 5304               	.LASF118:
 5305 0285 5F6C 6F63 	.string"_localtime_buf"
 5305      616C 7469 
 5305      6D65 5F62 
 5305      7566 00
 5306               	.LASF167:
 5307 0294 5072 696F 	.string"Priority"
 5307      7269 7479 
 5307      00
 5308               	.LASF257:
 5309 029d 5061 7274 	.string"Partition"
 5309      6974 696F 
 5309      6E00 
 5310               	.LASF307:
 5311 02a7 4675 6E63 	.string"FuncName"
 5311      4E61 6D65 
 5311      00
 5312               	.LASF54:
 5313 02b0 5F5F 746D 	.string"__tm_mon"
 5313      5F6D 6F6E 
 5313      00
 5314               	.LASF248:
 5315 02b9 5069 7065 	.string"PipeName"
 5315      4E61 6D65 
 5315      00
 5316               	.LASF311:
 5317 02c2 4346 455F 	.string"CFE_SB_GetPipeIdx"
 5317      5342 5F47 
 5317      6574 5069 
 5317      7065 4964 
 5317      7800 
 5318               	.LASF230:
 5319 02d4 5369 7A65 	.string"Size"
 5319      00
 5320               	.LASF115:
 5321 02d9 5F75 6E75 	.string"_unused_rand"
 5321      7365 645F 
 5321      7261 6E64 
68K GAS   			page 122


 5321      00
 5322               	.LASF1:
 5323 02e6 7369 676E 	.string"signed char"
 5323      6564 2063 
 5323      6861 7200 
 5324               	.LASF161:
 5325 02f2 4346 455F 	.string"CFE_SB_Msg_t"
 5325      5342 5F4D 
 5325      7367 5F74 
 5325      00
 5326               	.LASF193:
 5327 02ff 5061 796C 	.string"Payload"
 5327      6F61 6400 
 5328               	.LASF265:
 5329 0307 484B 546C 	.string"HKTlmMsg"
 5329      6D4D 7367 
 5329      00
 5330               	.LASF27:
 5331 0310 5F54 6872 	.string"_Thread_queue_Heads"
 5331      6561 645F 
 5331      7175 6575 
 5331      655F 4865 
 5331      6164 7300 
 5332               	.LASF0:
 5333 0324 756E 7369 	.string"unsigned char"
 5333      676E 6564 
 5333      2063 6861 
 5333      7200 
 5334               	.LASF288:
 5335 0332 4675 6C6C 	.string"FullName"
 5335      4E61 6D65 
 5335      00
 5336               	.LASF313:
 5337 033b 4346 455F 	.string"CFE_SB_GetAvailPipeIdx"
 5337      5342 5F47 
 5337      6574 4176 
 5337      6169 6C50 
 5337      6970 6549 
 5338               	.LASF94:
 5339 0352 5F75 6E73 	.string"_unspecified_locale_info"
 5339      7065 6369 
 5339      6669 6564 
 5339      5F6C 6F63 
 5339      616C 655F 
 5340               	.LASF256:
 5341 036b 506F 6F6C 	.string"PoolHdl"
 5341      4864 6C00 
 5342               	.LASF87:
 5343 0373 5F72 6565 	.string"_reent"
 5343      6E74 00
 5344               	.LASF210:
 5345 037a 4D61 7853 	.string"MaxSubscriptionsAllowed"
 5345      7562 7363 
 5345      7269 7074 
 5345      696F 6E73 
 5345      416C 6C6F 
 5346               	.LASF140:
68K GAS   			page 123


 5347 0392 5F67 6C6F 	.string"_global_impure_ptr"
 5347      6261 6C5F 
 5347      696D 7075 
 5347      7265 5F70 
 5347      7472 00
 5348               	.LASF22:
 5349 03a5 5F54 6872 	.string"_Thread_queue_Queue"
 5349      6561 645F 
 5349      7175 6575 
 5349      655F 5175 
 5349      6575 6500 
 5350               	.LASF13:
 5351 03b9 6368 6172 	.string"char"
 5351      00
 5352               	.LASF261:
 5353 03be 5365 6E64 	.string"SenderReporting"
 5353      6572 5265 
 5353      706F 7274 
 5353      696E 6700 
 5354               	.LASF66:
 5355 03ce 5F66 6E73 	.string"_fns"
 5355      00
 5356               	.LASF78:
 5357 03d3 5F63 6C6F 	.string"_close"
 5357      7365 00
 5358               	.LASF157:
 5359 03da 5469 6D65 	.string"Time"
 5359      00
 5360               	.LASF286:
 5361 03df 4346 455F 	.string"CFE_SB_GetPktType"
 5361      5342 5F47 
 5361      6574 506B 
 5361      7454 7970 
 5361      6500 
 5362               	.LASF12:
 5363 03f1 6370 7561 	.string"cpuaddr"
 5363      6464 7200 
 5364               	.LASF21:
 5365 03f9 5F54 6963 	.string"_Ticket_lock_Control"
 5365      6B65 745F 
 5365      6C6F 636B 
 5365      5F43 6F6E 
 5365      7472 6F6C 
 5366               	.LASF192:
 5367 040e 4346 455F 	.string"CFE_SB_HKMsg_Payload_t"
 5367      5342 5F48 
 5367      4B4D 7367 
 5367      5F50 6179 
 5367      6C6F 6164 
 5368               	.LASF178:
 5369 0425 4E6F 5375 	.string"NoSubscribersCnt"
 5369      6273 6372 
 5369      6962 6572 
 5369      7343 6E74 
 5369      00
 5370               	.LASF159:
 5371 0436 4477 6F72 	.string"Dword"
68K GAS   			page 124


 5371      6400 
 5372               	.LASF25:
 5373 043c 5F6F 776E 	.string"_owner"
 5373      6572 00
 5374               	.LASF166:
 5375 0443 4346 455F 	.string"CFE_SB_ZeroCopyHandle_t"
 5375      5342 5F5A 
 5375      6572 6F43 
 5375      6F70 7948 
 5375      616E 646C 
 5376               	.LASF267:
 5377 045b 436D 6450 	.string"CmdPipe"
 5377      6970 6500 
 5378               	.LASF189:
 5379 0463 4D65 6D50 	.string"MemPoolHandle"
 5379      6F6F 6C48 
 5379      616E 646C 
 5379      6500 
 5380               	.LASF272:
 5381 0471 5375 6252 	.string"SubRprtMsg"
 5381      7072 744D 
 5381      7367 00
 5382               	.LASF174:
 5383 047c 4D61 736B 	.string"Mask"
 5383      00
 5384               	.LASF202:
 5385 0481 4D61 784D 	.string"MaxMsgIdsAllowed"
 5385      7367 4964 
 5385      7341 6C6C 
 5385      6F77 6564 
 5385      00
 5386               	.LASF177:
 5387 0492 436D 6445 	.string"CmdErrCnt"
 5387      7272 436E 
 5387      7400 
 5388               	.LASF277:
 5389 049c 4346 455F 	.string"CFE_SB_ZeroCopyReleaseAppId"
 5389      5342 5F5A 
 5389      6572 6F43 
 5389      6F70 7952 
 5389      656C 6561 
 5390               	.LASF145:
 5391 04b8 5F74 7A6E 	.string"_tzname"
 5391      616D 6500 
 5392               	.LASF33:
 5393 04c0 5F6E 6573 	.string"_nest_level"
 5393      745F 6C65 
 5393      7665 6C00 
 5394               	.LASF188:
 5395 04cc 4D73 674C 	.string"MsgLimErrCnt"
 5395      696D 4572 
 5395      7243 6E74 
 5395      00
 5396               	.LASF253:
 5397 04d9 4375 7272 	.string"CurrentBuff"
 5397      656E 7442 
 5397      7566 6600 
68K GAS   			page 125


 5398               	.LASF212:
 5399 04e5 5065 616B 	.string"PeakSBBuffersInUse"
 5399      5342 4275 
 5399      6666 6572 
 5399      7349 6E55 
 5399      7365 00
 5400               	.LASF236:
 5401 04f8 4275 6666 	.string"BuffCount"
 5401      436F 756E 
 5401      7400 
 5402               	.LASF74:
 5403 0502 5F63 6F6F 	.string"_cookie"
 5403      6B69 6500 
 5404               	.LASF48:
 5405 050a 5F77 6473 	.string"_wds"
 5405      00
 5406               	.LASF197:
 5407 050f 496E 5573 	.string"InUse"
 5407      6500 
 5408               	.LASF105:
 5409 0515 5F73 6967 	.string"_sig_func"
 5409      5F66 756E 
 5409      6300 
 5410               	.LASF220:
 5411 051f 4346 455F 	.string"CFE_SB_SubRprtMsg_Payload_t"
 5411      5342 5F53 
 5411      7562 5270 
 5411      7274 4D73 
 5411      675F 5061 
 5412               	.LASF263:
 5413 053b 5A65 726F 	.string"ZeroCopyTail"
 5413      436F 7079 
 5413      5461 696C 
 5413      00
 5414               	.LASF82:
 5415 0548 5F6F 6666 	.string"_offset"
 5415      7365 7400 
 5416               	.LASF103:
 5417 0550 5F63 7674 	.string"_cvtbuf"
 5417      6275 6600 
 5418               	.LASF18:
 5419 0558 5F6E 6578 	.string"_next_ticket"
 5419      745F 7469 
 5419      636B 6574 
 5419      00
 5420               	.LASF300:
 5421 0565 5069 7065 	.string"PipeName4ErrCase"
 5421      4E61 6D65 
 5421      3445 7272 
 5421      4361 7365 
 5421      00
 5422               	.LASF100:
 5423 0576 5F70 3573 	.string"_p5s"
 5423      00
 5424               	.LASF10:
 5425 057b 6C6F 6E67 	.string"long unsigned int"
 5425      2075 6E73 
68K GAS   			page 126


 5425      6967 6E65 
 5425      6420 696E 
 5425      7400 
 5426               	.LASF231:
 5427 058d 4275 6666 	.string"Buffer"
 5427      6572 00
 5428               	.LASF150:
 5429 0594 4170 7049 	.string"AppId"
 5429      6400 
 5430               	.LASF70:
 5431 059a 5F5F 7346 	.string"__sFILE"
 5431      494C 4500 
 5432               	.LASF96:
 5433 05a2 5F5F 7364 	.string"__sdidinit"
 5433      6964 696E 
 5433      6974 00
 5434               	.LASF86:
 5435 05ad 5F66 6C61 	.string"_flags2"
 5435      6773 3200 
 5436               	.LASF258:
 5437 05b5 4346 455F 	.string"CFE_SB_MemParams_t"
 5437      5342 5F4D 
 5437      656D 5061 
 5437      7261 6D73 
 5437      5F74 00
 5438               	.LASF34:
 5439 05c8 5F4C 4F43 	.string"_LOCK_RECURSIVE_T"
 5439      4B5F 5245 
 5439      4355 5253 
 5439      4956 455F 
 5439      5400 
 5440               	.LASF88:
 5441 05da 5F65 7272 	.string"_errno"
 5441      6E6F 00
 5442               	.LASF289:
 5443 05e1 5461 736B 	.string"TaskInfo"
 5443      496E 666F 
 5443      00
 5444               	.LASF268:
 5445 05ea 436D 6450 	.string"CmdPipePktPtr"
 5445      6970 6550 
 5445      6B74 5074 
 5445      7200 
 5446               	.LASF126:
 5447 05f8 5F73 6967 	.string"_signal_buf"
 5447      6E61 6C5F 
 5447      6275 6600 
 5448               	.LASF44:
 5449 0604 5F42 6967 	.string"_Bigint"
 5449      696E 7400 
 5450               	.LASF254:
 5451 060c 546F 5472 	.string"ToTrashBuff"
 5451      6173 6842 
 5451      7566 6600 
 5452               	.LASF46:
 5453 0618 5F6D 6178 	.string"_maxwds"
 5453      7764 7300 
68K GAS   			page 127


 5454               	.LASF320:
 5455 0620 4F53 5F43 	.string"OS_ConvertToArrayIndex"
 5455      6F6E 7665 
 5455      7274 546F 
 5455      4172 7261 
 5455      7949 6E64 
 5456               	.LASF250:
 5457 0637 4C61 7374 	.string"LastSender"
 5457      5365 6E64 
 5457      6572 00
 5458               	.LASF194:
 5459 0642 4346 455F 	.string"CFE_SB_HKMsg_t"
 5459      5342 5F48 
 5459      4B4D 7367 
 5459      5F74 00
 5460               	.LASF97:
 5461 0651 5F5F 636C 	.string"__cleanup"
 5461      6561 6E75 
 5461      7000 
 5462               	.LASF284:
 5463 065b 4E65 774E 	.string"NewNode"
 5463      6F64 6500 
 5464               	.LASF309:
 5465 0663 5374 6174 	.string"Status"
 5465      7573 00
 5466               	.LASF196:
 5467 066a 4465 7074 	.string"Depth"
 5467      6800 
 5468               	.LASF282:
 5469 0670 4E65 7874 	.string"NextNode"
 5469      4E6F 6465 
 5469      00
 5470               	.LASF93:
 5471 0679 5F65 6D65 	.string"_emergency"
 5471      7267 656E 
 5471      6379 00
 5472               	.LASF292:
 5473 0684 4346 455F 	.string"CFE_SB_ValidateMsgId"
 5473      5342 5F56 
 5473      616C 6964 
 5473      6174 654D 
 5473      7367 4964 
 5474               	.LASF181:
 5475 0699 496E 7465 	.string"InternalErrCnt"
 5475      726E 616C 
 5475      4572 7243 
 5475      6E74 00
 5476               	.LASF293:
 5477 06a8 4346 455F 	.string"CFE_SB_FinishSendEvent"
 5477      5342 5F46 
 5477      696E 6973 
 5477      6853 656E 
 5477      6445 7665 
 5478               	.LASF4:
 5479 06bf 6C6F 6E67 	.string"long long int"
 5479      206C 6F6E 
 5479      6720 696E 
68K GAS   			page 128


 5479      7400 
 5480               	.LASF234:
 5481 06cd 4163 7469 	.string"Active"
 5481      7665 00
 5482               	.LASF109:
 5483 06d4 5F6E 696F 	.string"_niobs"
 5483      6273 00
 5484               	.LASF296:
 5485 06db 436F 756E 	.string"Count"
 5485      7400 
 5486               	.LASF106:
 5487 06e1 5F5F 7367 	.string"__sglue"
 5487      6C75 6500 
 5488               	.LASF135:
 5489 06e9 5F6E 6D61 	.string"_nmalloc"
 5489      6C6C 6F63 
 5489      00
 5490               	.LASF119:
 5491 06f2 5F67 616D 	.string"_gamma_signgam"
 5491      6D61 5F73 
 5491      6967 6E67 
 5491      616D 00
 5492               	.LASF148:
 5493 0701 4578 6563 	.string"ExecutionCounter"
 5493      7574 696F 
 5493      6E43 6F75 
 5493      6E74 6572 
 5493      00
 5494               	.LASF101:
 5495 0712 5F66 7265 	.string"_freelist"
 5495      656C 6973 
 5495      7400 
 5496               	.LASF110:
 5497 071c 5F69 6F62 	.string"_iobs"
 5497      7300 
 5498               	.LASF108:
 5499 0722 5F67 6C75 	.string"_glue"
 5499      6500 
 5500               	.LASF47:
 5501 0728 5F73 6967 	.string"_sign"
 5501      6E00 
 5502               	.LASF304:
 5503 072e 4346 455F 	.string"CFE_SB_GetDestPtr"
 5503      5342 5F47 
 5503      6574 4465 
 5503      7374 5074 
 5503      7200 
 5504               	.LASF180:
 5505 0740 4D73 6752 	.string"MsgReceiveErrCnt"
 5505      6563 6569 
 5505      7665 4572 
 5505      7243 6E74 
 5505      00
 5506               	.LASF229:
 5507 0751 5573 6543 	.string"UseCount"
 5507      6F75 6E74 
 5507      00
68K GAS   			page 129


 5508               	.LASF20:
 5509 075a 756E 7369 	.string"unsigned int"
 5509      676E 6564 
 5509      2069 6E74 
 5509      00
 5510               	.LASF143:
 5511 0767 5F74 696D 	.string"_timezone"
 5511      657A 6F6E 
 5511      6500 
 5512               	.LASF264:
 5513 0771 5069 7065 	.string"PipeTbl"
 5513      5462 6C00 
 5514               	.LASF133:
 5515 0779 5F68 5F65 	.string"_h_errno"
 5515      7272 6E6F 
 5515      00
 5516               	.LASF149:
 5517 0782 5461 736B 	.string"TaskName"
 5517      4E61 6D65 
 5517      00
 5518               	.LASF131:
 5519 078b 5F77 6372 	.string"_wcrtomb_state"
 5519      746F 6D62 
 5519      5F73 7461 
 5519      7465 00
 5520               	.LASF175:
 5521 079a 4346 455F 	.string"CFE_EVS_BinFilter_t"
 5521      4556 535F 
 5521      4269 6E46 
 5521      696C 7465 
 5521      725F 7400 
 5522               	.LASF53:
 5523 07ae 5F5F 746D 	.string"__tm_mday"
 5523      5F6D 6461 
 5523      7900 
 5524               	.LASF162:
 5525 07b8 4346 455F 	.string"CFE_SB_TlmHdr_t"
 5525      5342 5F54 
 5525      6C6D 4864 
 5525      725F 7400 
 5526               	.LASF104:
 5527 07c8 5F6E 6577 	.string"_new"
 5527      00
 5528               	.LASF26:
 5529 07cd 5F6E 616D 	.string"_name"
 5529      6500 
 5530               	.LASF79:
 5531 07d3 5F75 6275 	.string"_ubuf"
 5531      6600 
 5532               	.LASF168:
 5533 07d9 5265 6C69 	.string"Reliability"
 5533      6162 696C 
 5533      6974 7900 
 5534               	.LASF91:
 5535 07e5 5F73 7464 	.string"_stderr"
 5535      6572 7200 
 5536               	.LASF124:
68K GAS   			page 130


 5537 07ed 5F77 6374 	.string"_wctomb_state"
 5537      6F6D 625F 
 5537      7374 6174 
 5537      6500 
 5538               	.LASF85:
 5539 07fb 5F6D 6273 	.string"_mbstate"
 5539      7461 7465 
 5539      00
 5540               	.LASF222:
 5541 0804 4346 455F 	.string"CFE_SB_SubEntries_t"
 5541      5342 5F53 
 5541      7562 456E 
 5541      7472 6965 
 5541      735F 7400 
 5542               	.LASF120:
 5543 0818 5F72 616E 	.string"_rand_next"
 5543      645F 6E65 
 5543      7874 00
 5544               	.LASF71:
 5545 0823 5F66 6C61 	.string"_flags"
 5545      6773 00
 5546               	.LASF216:
 5547 082a 4346 455F 	.string"CFE_SB_StatMsg_t"
 5547      5342 5F53 
 5547      7461 744D 
 5547      7367 5F74 
 5547      00
 5548               	.LASF64:
 5549 083b 5F61 7465 	.string"_atexit"
 5549      7869 7400 
 5550               	.LASF280:
 5551 0843 4E6F 6465 	.string"NodeToRemove"
 5551      546F 5265 
 5551      6D6F 7665 
 5551      00
 5552               	.LASF208:
 5553 0850 5375 6273 	.string"SubscriptionsInUse"
 5553      6372 6970 
 5553      7469 6F6E 
 5553      7349 6E55 
 5553      7365 00
 5554               	.LASF39:
 5555 0863 5F5F 636F 	.string"__count"
 5555      756E 7400 
 5556               	.LASF232:
 5557 086b 5365 6E64 	.string"Sender"
 5557      6572 00
 5558               	.LASF226:
 5559 0872 456E 7472 	.string"Entry"
 5559      7900 
 5560               	.LASF184:
 5561 0878 5370 6172 	.string"Spare"
 5561      6500 
 5562               	.LASF301:
 5563 087e 4346 455F 	.string"CFE_SB_SetRoutingTblIdx"
 5563      5342 5F53 
 5563      6574 526F 
68K GAS   			page 131


 5563      7574 696E 
 5563      6754 626C 
 5564               	.LASF198:
 5565 0896 5065 616B 	.string"PeakInUse"
 5565      496E 5573 
 5565      6500 
 5566               	.LASF213:
 5567 08a0 4D61 7850 	.string"MaxPipeDepthAllowed"
 5567      6970 6544 
 5567      6570 7468 
 5567      416C 6C6F 
 5567      7765 6400 
 5568               	.LASF56:
 5569 08b4 5F5F 746D 	.string"__tm_wday"
 5569      5F77 6461 
 5569      7900 
 5570               	.LASF160:
 5571 08be 4279 7465 	.string"Byte"
 5571      00
 5572               	.LASF15:
 5573 08c3 6C6F 6E67 	.string"long double"
 5573      2064 6F75 
 5573      626C 6500 
 5574               	.LASF57:
 5575 08cf 5F5F 746D 	.string"__tm_yday"
 5575      5F79 6461 
 5575      7900 
 5576               	.LASF205:
 5577 08d9 4D61 7850 	.string"MaxPipesAllowed"
 5577      6970 6573 
 5577      416C 6C6F 
 5577      7765 6400 
 5578               	.LASF31:
 5579 08e9 5F4D 7574 	.string"_Mutex_recursive_Control"
 5579      6578 5F72 
 5579      6563 7572 
 5579      7369 7665 
 5579      5F43 6F6E 
 5580               	.LASF24:
 5581 0902 5F68 6561 	.string"_heads"
 5581      6473 00
 5582               	.LASF112:
 5583 0909 5F73 6565 	.string"_seed"
 5583      6400 
 5584               	.LASF187:
 5585 090f 5069 7065 	.string"PipeOverflowErrCnt"
 5585      4F76 6572 
 5585      666C 6F77 
 5585      4572 7243 
 5585      6E74 00
 5586               	.LASF30:
 5587 0922 5F51 7565 	.string"_Queue"
 5587      7565 00
 5588               	.LASF251:
 5589 0929 5175 6575 	.string"QueueDepth"
 5589      6544 6570 
 5589      7468 00
68K GAS   			page 132


 5590               	.LASF17:
 5591 0934 5F66 706F 	.string"_fpos_t"
 5591      735F 7400 
 5592               	.LASF38:
 5593 093c 5F5F 7763 	.string"__wchb"
 5593      6862 00
 5594               	.LASF260:
 5595 0943 5375 6273 	.string"SubscriptionReporting"
 5595      6372 6970 
 5595      7469 6F6E 
 5595      5265 706F 
 5595      7274 696E 
 5596               	.LASF123:
 5597 0959 5F6D 6274 	.string"_mbtowc_state"
 5597      6F77 635F 
 5597      7374 6174 
 5597      6500 
 5598               	.LASF244:
 5599 0967 4465 7374 	.string"Destinations"
 5599      696E 6174 
 5599      696F 6E73 
 5599      00
 5600               	.LASF271:
 5601 0974 5072 6576 	.string"PrevSubMsg"
 5601      5375 624D 
 5601      7367 00
 5602               	.LASF223:
 5603 097f 506B 7453 	.string"PktSegment"
 5603      6567 6D65 
 5603      6E74 00
 5604               	.LASF11:
 5605 098a 6C6F 6E67 	.string"long long unsigned int"
 5605      206C 6F6E 
 5605      6720 756E 
 5605      7369 676E 
 5605      6564 2069 
 5606               	.LASF314:
 5607 09a1 4346 455F 	.string"CFE_SB_CleanUpApp"
 5607      5342 5F43 
 5607      6C65 616E 
 5607      5570 4170 
 5607      7000 
 5608               	.LASF319:
 5609 09b3 2F68 6F6D 	.string"/home/simulink/cFS_FreeRTOS_seL4/build/cpu1/cfe/sb"
 5609      652F 7369 
 5609      6D75 6C69 
 5609      6E6B 2F63 
 5609      4653 5F46 
 5610               	.LASF225:
 5611 09e6 456E 7472 	.string"Entries"
 5611      6965 7300 
 5612               	.LASF61:
 5613 09ee 5F64 736F 	.string"_dso_handle"
 5613      5F68 616E 
 5613      646C 6500 
 5614               	.LASF111:
 5615 09fa 5F72 616E 	.string"_rand48"
68K GAS   			page 133


 5615      6434 3800 
 5616               	.LASF164:
 5617 0a02 4346 455F 	.string"CFE_SB_MsgId_t"
 5617      5342 5F4D 
 5617      7367 4964 
 5617      5F74 00
 5618               	.LASF90:
 5619 0a11 5F73 7464 	.string"_stdout"
 5619      6F75 7400 
 5620               	.LASF81:
 5621 0a19 5F62 6C6B 	.string"_blksize"
 5621      7369 7A65 
 5621      00
 5622               	.LASF179:
 5623 0a22 4D73 6753 	.string"MsgSendErrCnt"
 5623      656E 6445 
 5623      7272 436E 
 5623      7400 
 5624               	.LASF68:
 5625 0a30 5F62 6173 	.string"_base"
 5625      6500 
 5626               	.LASF283:
 5627 0a36 4346 455F 	.string"CFE_SB_AddDest"
 5627      5342 5F41 
 5627      6464 4465 
 5627      7374 00
 5628               	.LASF116:
 5629 0a45 5F73 7472 	.string"_strtok_last"
 5629      746F 6B5F 
 5629      6C61 7374 
 5629      00
 5630               	.LASF199:
 5631 0a52 4346 455F 	.string"CFE_SB_PipeDepthStats_t"
 5631      5342 5F50 
 5631      6970 6544 
 5631      6570 7468 
 5631      5374 6174 
 5632               	.LASF129:
 5633 0a6a 5F6D 6272 	.string"_mbrtowc_state"
 5633      746F 7763 
 5633      5F73 7461 
 5633      7465 00
 5634               	.LASF215:
 5635 0a79 4346 455F 	.string"CFE_SB_StatMsg_Payload_t"
 5635      5342 5F53 
 5635      7461 744D 
 5635      7367 5F50 
 5635      6179 6C6F 
 5636               	.LASF42:
 5637 0a92 5F66 6C6F 	.string"_flock_t"
 5637      636B 5F74 
 5637      00
 5638               	.LASF107:
 5639 0a9b 5F5F 4649 	.string"__FILE"
 5639      4C45 00
 5640               	.LASF84:
 5641 0aa2 5F6C 6F63 	.string"_lock"
68K GAS   			page 134


 5641      6B00 
 5642               	.LASF299:
 5643 0aa8 4346 455F 	.string"CFE_SB_GetPipeName"
 5643      5342 5F47 
 5643      6574 5069 
 5643      7065 4E61 
 5643      6D65 00
 5644               	.LASF41:
 5645 0abb 5F6D 6273 	.string"_mbstate_t"
 5645      7461 7465 
 5645      5F74 00
 5646               	.LASF121:
 5647 0ac6 5F72 3438 	.string"_r48"
 5647      00
 5648               	.LASF155:
 5649 0acb 4C65 6E67 	.string"Length"
 5649      7468 00
 5650               	.LASF228:
 5651 0ad2 4346 455F 	.string"CFE_SB_PrevSubMsg_t"
 5651      5342 5F50 
 5651      7265 7653 
 5651      7562 4D73 
 5651      675F 7400 
 5652               	.LASF36:
 5653 0ae6 7769 6E74 	.string"wint_t"
 5653      5F74 00
 5654               	.LASF186:
 5655 0aed 5370 6172 	.string"Spare2Align"
 5655      6532 416C 
 5655      6967 6E00 
 5656               	.LASF224:
 5657 0af9 546F 7461 	.string"TotalSegments"
 5657      6C53 6567 
 5657      6D65 6E74 
 5657      7300 
 5658               	.LASF45:
 5659 0b07 5F6E 6578 	.string"_next"
 5659      7400 
 5660               	.LASF83:
 5661 0b0d 5F64 6174 	.string"_data"
 5661      6100 
 5662               	.LASF279:
 5663 0b13 5274 6754 	.string"RtgTblIdx"
 5663      626C 4964 
 5663      7800 
 5664               	.LASF278:
 5665 0b1d 4346 455F 	.string"CFE_SB_RemoveDest"
 5665      5342 5F52 
 5665      656D 6F76 
 5665      6544 6573 
 5665      7400 
 5666               	.LASF310:
 5667 0b2f 4346 455F 	.string"CFE_SB_LockSharedData"
 5667      5342 5F4C 
 5667      6F63 6B53 
 5667      6861 7265 
 5667      6444 6174 
68K GAS   			page 135


 5668               	.LASF170:
 5669 0b45 4346 455F 	.string"CFE_SB_Default_Qos"
 5669      5342 5F44 
 5669      6566 6175 
 5669      6C74 5F51 
 5669      6F73 00
 5670               	.LASF245:
 5671 0b58 5365 7143 	.string"SeqCnt"
 5671      6E74 00
 5672               	.LASF163:
 5673 0b5f 4346 455F 	.string"CFE_SB_PipeId_t"
 5673      5342 5F50 
 5673      6970 6549 
 5673      645F 7400 
 5674               	.LASF298:
 5675 0b6f 4465 7374 	.string"DestPtr"
 5675      5074 7200 
 5676               	.LASF214:
 5677 0b77 5069 7065 	.string"PipeDepthStats"
 5677      4465 7074 
 5677      6853 7461 
 5677      7473 00
 5678               	.LASF32:
 5679 0b86 5F4D 7574 	.string"_Mutex"
 5679      6578 00
 5680               	.LASF315:
 5681 0b8d 4F62 6A65 	.string"ObjectId"
 5681      6374 4964 
 5681      00
 5682               	.LASF6:
 5683 0b96 7569 6E74 	.string"uint8"
 5683      3800 
 5684               	.LASF269:
 5685 0b9c 4D73 674D 	.string"MsgMap"
 5685      6170 00
 5686               	.LASF151:
 5687 0ba3 4170 704E 	.string"AppName"
 5687      616D 6500 
 5688               	.LASF240:
 5689 0bab 4E65 7874 	.string"Next"
 5689      00
 5690               	.LASF259:
 5691 0bb0 5368 6172 	.string"SharedDataMutexId"
 5691      6564 4461 
 5691      7461 4D75 
 5691      7465 7849 
 5691      6400 
 5692               	.LASF122:
 5693 0bc2 5F6D 626C 	.string"_mblen_state"
 5693      656E 5F73 
 5693      7461 7465 
 5693      00
 5694               	.LASF238:
 5695 0bcf 5363 6F70 	.string"Scope"
 5695      6500 
 5696               	.LASF2:
 5697 0bd5 7368 6F72 	.string"short int"
68K GAS   			page 136


 5697      7420 696E 
 5697      7400 
 5698               	.LASF239:
 5699 0bdf 5072 6576 	.string"Prev"
 5699      00
 5700               	.LASF318:
 5701 0be4 2F68 6F6D 	.string"/home/simulink/cFS_FreeRTOS_seL4/cfe/fsw/cfe-core/src/sb/cfe_sb_priv.c"
 5701      652F 7369 
 5701      6D75 6C69 
 5701      6E6B 2F63 
 5701      4653 5F46 
 5702               	.LASF266:
 5703 0c2b 5374 6174 	.string"StatTlmMsg"
 5703      546C 6D4D 
 5703      7367 00
 5704               	.LASF191:
 5705 0c36 556E 6D61 	.string"UnmarkedMem"
 5705      726B 6564 
 5705      4D65 6D00 
 5706               	.LASF142:
 5707 0c42 7375 626F 	.string"suboptarg"
 5707      7074 6172 
 5707      6700 
 5708               	.LASF62:
 5709 0c4c 5F66 6E74 	.string"_fntypes"
 5709      7970 6573 
 5709      00
 5710               	.LASF55:
 5711 0c55 5F5F 746D 	.string"__tm_year"
 5711      5F79 6561 
 5711      7200 
 5712               	.LASF297:
 5713 0c5f 4346 455F 	.string"CFE_SB_DuplicateSubscribeCheck"
 5713      5342 5F44 
 5713      7570 6C69 
 5713      6361 7465 
 5713      5375 6273 
 5714               	.LASF173:
 5715 0c7e 4576 656E 	.string"EventID"
 5715      7449 4400 
 5716               	.LASF73:
 5717 0c86 5F6C 6266 	.string"_lbfsize"
 5717      7369 7A65 
 5717      00
 5718               	.LASF190:
 5719 0c8f 4D65 6D49 	.string"MemInUse"
 5719      6E55 7365 
 5719      00
 5720               	.LASF92:
 5721 0c98 5F69 6E63 	.string"_inc"
 5721      00
 5722               	.LASF65:
 5723 0c9d 5F69 6E64 	.string"_ind"
 5723      00
 5724               	.LASF147:
 5725 0ca2 5461 736B 	.string"TaskId"
 5725      4964 00
68K GAS   			page 137


 5726               	.LASF14:
 5727 0ca9 5F5F 696E 	.string"__int64_t"
 5727      7436 345F 
 5727      7400 
 5728               	.LASF221:
 5729 0cb3 4346 455F 	.string"CFE_SB_SubRprtMsg_t"
 5729      5342 5F53 
 5729      7562 5270 
 5729      7274 4D73 
 5729      675F 7400 
 5730               	.LASF308:
 5731 0cc7 4C69 6E65 	.string"LineNumber"
 5731      4E75 6D62 
 5731      6572 00
 5732               	.LASF67:
 5733 0cd2 5F5F 7362 	.string"__sbuf"
 5733      7566 00
 5734               	.LASF252:
 5735 0cd9 5365 6E64 	.string"SendErrors"
 5735      4572 726F 
 5735      7273 00
 5736               	.LASF63:
 5737 0ce4 5F69 735F 	.string"_is_cxa"
 5737      6378 6100 
 5738               	.LASF134:
 5739 0cec 5F6E 6578 	.string"_nextf"
 5739      7466 00
 5740               	.LASF247:
 5741 0cf3 4346 455F 	.string"CFE_SB_RouteEntry_t"
 5741      5342 5F52 
 5741      6F75 7465 
 5741      456E 7472 
 5741      795F 7400 
 5742               	.LASF209:
 5743 0d07 5065 616B 	.string"PeakSubscriptionsInUse"
 5743      5375 6273 
 5743      6372 6970 
 5743      7469 6F6E 
 5743      7349 6E55 
 5744               	.LASF200:
 5745 0d1e 4D73 6749 	.string"MsgIdsInUse"
 5745      6473 496E 
 5745      5573 6500 
 5746               	.LASF294:
 5747 0d2a 4346 455F 	.string"CFE_SB_SetMsgSeqCnt"
 5747      5342 5F53 
 5747      6574 4D73 
 5747      6753 6571 
 5747      436E 7400 
 5748               	.LASF217:
 5749 0d3e 5375 6254 	.string"SubType"
 5749      7970 6500 
 5750               	.LASF306:
 5751 0d46 4346 455F 	.string"CFE_SB_UnlockSharedData"
 5751      5342 5F55 
 5751      6E6C 6F63 
 5751      6B53 6861 
68K GAS   			page 138


 5751      7265 6444 
 5752               	.LASF95:
 5753 0d5e 5F6C 6F63 	.string"_locale"
 5753      616C 6500 
 5754               	.LASF43:
 5755 0d66 5F5F 554C 	.string"__ULong"
 5755      6F6E 6700 
 5756               	.LASF302:
 5757 0d6e 5661 6C75 	.string"Value"
 5757      6500 
 5758               	.LASF98:
 5759 0d74 5F72 6573 	.string"_result"
 5759      756C 7400 
 5760               	.LASF146:
 5761 0d7c 4346 455F 	.string"CFE_ES_MemHandle_t"
 5761      4553 5F4D 
 5761      656D 4861 
 5761      6E64 6C65 
 5761      5F74 00
 5762               	.LASF23:
 5763 0d8f 5F4C 6F63 	.string"_Lock"
 5763      6B00 
 5764               	.LASF19:
 5765 0d95 5F6E 6F77 	.string"_now_serving"
 5765      5F73 6572 
 5765      7669 6E67 
 5765      00
 5766               	.LASF16:
 5767 0da2 5F6F 6666 	.string"_off_t"
 5767      5F74 00
 5768               	.LASF201:
 5769 0da9 5065 616B 	.string"PeakMsgIdsInUse"
 5769      4D73 6749 
 5769      6473 496E 
 5769      5573 6500 
 5770               	.LASF203:
 5771 0db9 5069 7065 	.string"PipesInUse"
 5771      7349 6E55 
 5771      7365 00
 5772               	.LASF114:
 5773 0dc4 5F61 6464 	.string"_add"
 5773      00
 5774               	.LASF172:
 5775 0dc9 4346 455F 	.string"CFE_SB_SenderId_t"
 5775      5342 5F53 
 5775      656E 6465 
 5775      7249 645F 
 5775      7400 
 5776               	.LASF317:
 5777 0ddb 474E 5520 	.string"GNU C11 7.3.0 20180125 (RTEMS 5, RSB d2b25d131d55adcb38219f2cd8cbec2436ee78ab, Newlib 3.0.0) -malign-int -mcpu=528x -g -O0 -fomit-frame-pointer"
 5777      4331 3120 
 5777      372E 332E 
 5777      3020 3230 
 5777      3138 3031 
 5778               	.LASF8:
 5779 0e6b 7368 6F72 	.string"short unsigned int"
 5779      7420 756E 
68K GAS   			page 139


 5779      7369 676E 
 5779      6564 2069 
 5779      6E74 00
 5780               	.LASF316:
 5781 0e7e 4172 7261 	.string"ArrayIndex"
 5781      7949 6E64 
 5781      6578 00
 5782               	.LASF52:
 5783 0e89 5F5F 746D 	.string"__tm_hour"
 5783      5F68 6F75 
 5783      7200 
 5784               	.LASF218:
 5785 0e93 4D73 6749 	.string"MsgId"
 5785      6400 
 5786               	.LASF285:
 5787 0e99 4346 455F 	.string"CFE_SB_RequestToSendEvent"
 5787      5342 5F52 
 5787      6571 7565 
 5787      7374 546F 
 5787      5365 6E64 
 5788               	.LASF204:
 5789 0eb3 5065 616B 	.string"PeakPipesInUse"
 5789      5069 7065 
 5789      7349 6E55 
 5789      7365 00
 5790               	.LASF237:
 5791 0ec2 4465 7374 	.string"DestCnt"
 5791      436E 7400 
 5792               	.LASF235:
 5793 0eca 4D73 6749 	.string"MsgId2PipeLim"
 5793      6432 5069 
 5793      7065 4C69 
 5793      6D00 
 5794               	.LASF5:
 5795 0ed8 696E 7433 	.string"int32"
 5795      3200 
 5796               	.LASF262:
 5797 0ede 5374 6F70 	.string"StopRecurseFlags"
 5797      5265 6375 
 5797      7273 6546 
 5797      6C61 6773 
 5797      00
 5798               	.LASF154:
 5799 0eef 5365 7175 	.string"Sequence"
 5799      656E 6365 
 5799      00
 5800               	.LASF130:
 5801 0ef8 5F6D 6273 	.string"_mbsrtowcs_state"
 5801      7274 6F77 
 5801      6373 5F73 
 5801      7461 7465 
 5801      00
 5802               	.LASF206:
 5803 0f09 5065 616B 	.string"PeakMemInUse"
 5803      4D65 6D49 
 5803      6E55 7365 
 5803      00
68K GAS   			page 140


 5804               	.LASF182:
 5805 0f16 4372 6561 	.string"CreatePipeErrCnt"
 5805      7465 5069 
 5805      7065 4572 
 5805      7243 6E74 
 5805      00
 5806               	.LASF303:
 5807 0f27 4346 455F 	.string"CFE_SB_GetRoutingTblIdx"
 5807      5342 5F47 
 5807      6574 526F 
 5807      7574 696E 
 5807      6754 626C 
 5808               	.LASF152:
 5809 0f3f 4346 455F 	.string"CFE_ES_TaskInfo_t"
 5809      4553 5F54 
 5809      6173 6B49 
 5809      6E66 6F5F 
 5809      7400 
 5810               	.LASF276:
 5811 0f51 7072 6576 	.string"prev"
 5811      00
 5812               	.LASF60:
 5813 0f56 5F66 6E61 	.string"_fnargs"
 5813      7267 7300 
 5814               	.LASF58:
 5815 0f5e 5F5F 746D 	.string"__tm_isdst"
 5815      5F69 7364 
 5815      7374 00
 5816               	.LASF246:
 5817 0f69 4C69 7374 	.string"ListHeadPtr"
 5817      4865 6164 
 5817      5074 7200 
 5818               	.LASF144:
 5819 0f75 5F64 6179 	.string"_daylight"
 5819      6C69 6768 
 5819      7400 
 5820               	.LASF165:
 5821 0f7f 4346 455F 	.string"CFE_SB_MsgPtr_t"
 5821      5342 5F4D 
 5821      7367 5074 
 5821      725F 7400 
 5822               	.LASF51:
 5823 0f8f 5F5F 746D 	.string"__tm_min"
 5823      5F6D 696E 
 5823      00
 5824               	.LASF7:
 5825 0f98 7569 6E74 	.string"uint16"
 5825      3136 00
 5826               	.LASF127:
 5827 0f9f 5F67 6574 	.string"_getdate_err"
 5827      6461 7465 
 5827      5F65 7272 
 5827      00
 5828               	.LASF270:
 5829 0fac 526F 7574 	.string"RoutingTbl"
 5829      696E 6754 
 5829      626C 00
68K GAS   			page 141


 5830               	.LASF169:
 5831 0fb7 4346 455F 	.string"CFE_SB_Qos_t"
 5831      5342 5F51 
 5831      6F73 5F74 
 5831      00
 5832               	.LASF312:
 5833 0fc4 4346 455F 	.string"CFE_SB_GetAvailRoutingIdx"
 5833      5342 5F47 
 5833      6574 4176 
 5833      6169 6C52 
 5833      6F75 7469 
 5834               	.ident"GCC: (GNU) 7.3.0 20180125 (RTEMS 5, RSB d2b25d131d55adcb38219f2cd8cbec2436ee78ab, Newlib 3.0.0)"
68K GAS   			page 142


DEFINED SYMBOLS
                            *ABS*:0000000000000000 cfe_sb_priv.c
    {standard input}:8      .text:0000000000000000 OS_ConvertToArrayIndex
    {standard input}:26     .text:000000000000000c CFE_SB_CleanUpApp
    {standard input}:1214   .text:0000000000000854 CFE_SB_ZeroCopyReleaseAppId
    {standard input}:97     .text:000000000000008c CFE_SB_GetAvailPipeIdx
    {standard input}:144    .text:00000000000000d2 CFE_SB_GetAvailRoutingIdx
    {standard input}:192    .text:0000000000000126 CFE_SB_GetPipeIdx
    {standard input}:262    .text:00000000000001a4 CFE_SB_LockSharedData
    {standard input}:322    .text:00000000000001fe CFE_SB_UnlockSharedData
    {standard input}:378    .text:0000000000000258 CFE_SB_GetPipePtr
    {standard input}:737    .text:00000000000004b8 CFE_SB_ValidatePipeId
    {standard input}:418    .text:0000000000000292 CFE_SB_GetDestPtr
    {standard input}:491    .text:000000000000031e CFE_SB_GetRoutingTblIdx
    {standard input}:520    .text:000000000000034c CFE_SB_SetRoutingTblIdx
    {standard input}:554    .text:000000000000038c CFE_SB_GetPipeName
                             .bss:0000000000000000 PipeName4ErrCase.5646
    {standard input}:591    .text:00000000000003c4 CFE_SB_DuplicateSubscribeCheck
    {standard input}:664    .text:000000000000044e CFE_SB_SetMsgSeqCnt
    {standard input}:701    .text:000000000000048c CFE_SB_ValidateMsgId
    {standard input}:785    .text:00000000000004ee CFE_SB_GetAppTskName
    {standard input}:916    .text:0000000000000600 CFE_SB_GetPktType
    {standard input}:944    .text:0000000000000628 CFE_SB_RequestToSendEvent
    {standard input}:1006   .text:0000000000000696 CFE_SB_FinishSendEvent
    {standard input}:1051   .text:00000000000006e2 CFE_SB_AddDest
    {standard input}:1122   .text:0000000000000780 CFE_SB_RemoveDest

UNDEFINED SYMBOLS
CFE_SB
CFE_SB_DeletePipeWithAppId
OS_MutSemTake
CFE_ES_GetAppID
CFE_ES_WriteToSysLog
OS_MutSemGive
CFE_ES_GetTaskInfo
strncpy
strncmp
sprintf
CFE_SB_ZeroCopyReleasePtr
