68K GAS   			page 1


   1               	
   2               	.file"cfe_sb_api.c"
   3               	.text
   4               	.Ltext0:
   5               	.cfi_sections.debug_frame
   6               	.section.rodata
   7               	.LC0:
   8 0000 4372 6561 	.string"CreatePipeErr:Bad Input Arg:app=%s,ptr=0x%lx,depth=%d,maxdepth=%d"
   8      7465 5069 
   8      7065 4572 
   8      723A 4261 
   8      6420 496E 
   9               	.LC1:
  10 0042 4372 6561 	.string"CreatePipeErr:Max Pipes(%d)In Use.app %s"
  10      7465 5069 
  10      7065 4572 
  10      723A 4D61 
  10      7820 5069 
  11               	.LC2:
  12 006b 4372 6561 	.string"CreatePipeErr:OS_QueueCreate returned %d,app %s"
  12      7465 5069 
  12      7065 4572 
  12      723A 4F53 
  12      5F51 7565 
  13               	.LC3:
  14 009b 5069 7065 	.string"Pipe Created:name %s,id %d,app %s"
  14      2043 7265 
  14      6174 6564 
  14      3A6E 616D 
  14      6520 2573 
  15               	.text
  16               	.align2
  17               	.globlCFE_SB_CreatePipe
  18               	.typeCFE_SB_CreatePipe, @function
  19               	CFE_SB_CreatePipe:
  20               	.LFB59:
  21               	.file 1 "/home/simulink/cFS_FreeRTOS_seL4/cfe/fsw/cfe-core/src/sb/cfe_sb_api.c"
   1:/home/simulink/cFS_FreeRTOS_seL4/cfe/fsw/cfe-core/src/sb/cfe_sb_api.c **** /******************************************************************************
   2:/home/simulink/cFS_FreeRTOS_seL4/cfe/fsw/cfe-core/src/sb/cfe_sb_api.c **** ** File: cfe_sb_api.c
   3:/home/simulink/cFS_FreeRTOS_seL4/cfe/fsw/cfe-core/src/sb/cfe_sb_api.c **** **
   4:/home/simulink/cFS_FreeRTOS_seL4/cfe/fsw/cfe-core/src/sb/cfe_sb_api.c **** **      Copyright (c) 2004-2012, United States government as represented by the
   5:/home/simulink/cFS_FreeRTOS_seL4/cfe/fsw/cfe-core/src/sb/cfe_sb_api.c **** **      administrator of the National Aeronautics Space Administration.
   6:/home/simulink/cFS_FreeRTOS_seL4/cfe/fsw/cfe-core/src/sb/cfe_sb_api.c **** **      All rights reserved. This software(cFE) was created at NASA's Goddard
   7:/home/simulink/cFS_FreeRTOS_seL4/cfe/fsw/cfe-core/src/sb/cfe_sb_api.c **** **      Space Flight Center pursuant to government contracts.
   8:/home/simulink/cFS_FreeRTOS_seL4/cfe/fsw/cfe-core/src/sb/cfe_sb_api.c **** **
   9:/home/simulink/cFS_FreeRTOS_seL4/cfe/fsw/cfe-core/src/sb/cfe_sb_api.c **** **      This is governed by the NASA Open Source Agreement and may be used,
  10:/home/simulink/cFS_FreeRTOS_seL4/cfe/fsw/cfe-core/src/sb/cfe_sb_api.c **** **      distributed and modified only pursuant to the terms of that agreement.
  11:/home/simulink/cFS_FreeRTOS_seL4/cfe/fsw/cfe-core/src/sb/cfe_sb_api.c **** **
  12:/home/simulink/cFS_FreeRTOS_seL4/cfe/fsw/cfe-core/src/sb/cfe_sb_api.c **** **
  13:/home/simulink/cFS_FreeRTOS_seL4/cfe/fsw/cfe-core/src/sb/cfe_sb_api.c **** **
  14:/home/simulink/cFS_FreeRTOS_seL4/cfe/fsw/cfe-core/src/sb/cfe_sb_api.c **** ** Purpose:
  15:/home/simulink/cFS_FreeRTOS_seL4/cfe/fsw/cfe-core/src/sb/cfe_sb_api.c **** **      This file contains the source code for the SB API's.
  16:/home/simulink/cFS_FreeRTOS_seL4/cfe/fsw/cfe-core/src/sb/cfe_sb_api.c **** **
  17:/home/simulink/cFS_FreeRTOS_seL4/cfe/fsw/cfe-core/src/sb/cfe_sb_api.c **** ** Author:   R.McGraw/SSI
  18:/home/simulink/cFS_FreeRTOS_seL4/cfe/fsw/cfe-core/src/sb/cfe_sb_api.c **** **
  19:/home/simulink/cFS_FreeRTOS_seL4/cfe/fsw/cfe-core/src/sb/cfe_sb_api.c **** ** $Log: cfe_sb_api.c  $
  20:/home/simulink/cFS_FreeRTOS_seL4/cfe/fsw/cfe-core/src/sb/cfe_sb_api.c **** ** Revision 1.40 2014/08/22 16:41:25GMT-05:00 lwalling 
68K GAS   			page 2


  21:/home/simulink/cFS_FreeRTOS_seL4/cfe/fsw/cfe-core/src/sb/cfe_sb_api.c **** ** Change signed loop counters to unsigned
  22:/home/simulink/cFS_FreeRTOS_seL4/cfe/fsw/cfe-core/src/sb/cfe_sb_api.c **** ** Revision 1.39 2014/06/17 13:42:34EDT rmcgraw 
  23:/home/simulink/cFS_FreeRTOS_seL4/cfe/fsw/cfe-core/src/sb/cfe_sb_api.c **** ** DCR18686:1 Initialized all AppId and CallerID's with 0xFFFFFFFF
  24:/home/simulink/cFS_FreeRTOS_seL4/cfe/fsw/cfe-core/src/sb/cfe_sb_api.c **** ** Revision 1.38 2014/05/05 14:47:16EDT rmcgraw
  25:/home/simulink/cFS_FreeRTOS_seL4/cfe/fsw/cfe-core/src/sb/cfe_sb_api.c **** ** DCR19498:1 Fixed buffers in use count, was going negative for zero copy transfers
  26:/home/simulink/cFS_FreeRTOS_seL4/cfe/fsw/cfe-core/src/sb/cfe_sb_api.c **** ** Revision 1.37 2014/05/05 13:53:09EDT rmcgraw
  27:/home/simulink/cFS_FreeRTOS_seL4/cfe/fsw/cfe-core/src/sb/cfe_sb_api.c **** ** DCR19578:1 - Add UnlockSharedData for errors in ZeroCopyReleaseDesc
  28:/home/simulink/cFS_FreeRTOS_seL4/cfe/fsw/cfe-core/src/sb/cfe_sb_api.c **** ** Revision 1.36 2014/04/24 10:57:07EDT rmcgraw
  29:/home/simulink/cFS_FreeRTOS_seL4/cfe/fsw/cfe-core/src/sb/cfe_sb_api.c **** ** DCR19487:1 - Remove size argument in CFE_SB_GetBufferFromCaller
  30:/home/simulink/cFS_FreeRTOS_seL4/cfe/fsw/cfe-core/src/sb/cfe_sb_api.c **** ** Revision 1.35 2012/07/09 15:00:18EDT rmcgraw
  31:/home/simulink/cFS_FreeRTOS_seL4/cfe/fsw/cfe-core/src/sb/cfe_sb_api.c **** ** DCR19413:1 Release buf mem for zero cpy send, no subscribers and error cases
  32:/home/simulink/cFS_FreeRTOS_seL4/cfe/fsw/cfe-core/src/sb/cfe_sb_api.c **** ** Revision 1.34 2012/01/13 12:15:11EST acudmore
  33:/home/simulink/cFS_FreeRTOS_seL4/cfe/fsw/cfe-core/src/sb/cfe_sb_api.c **** ** Changed license text to reflect open source
  34:/home/simulink/cFS_FreeRTOS_seL4/cfe/fsw/cfe-core/src/sb/cfe_sb_api.c **** ** Revision 1.33 2012/01/06 09:27:19EST rmcgraw
  35:/home/simulink/cFS_FreeRTOS_seL4/cfe/fsw/cfe-core/src/sb/cfe_sb_api.c **** ** DCR16100:1 Added perf markers for msg lim and pipe overflow errors
  36:/home/simulink/cFS_FreeRTOS_seL4/cfe/fsw/cfe-core/src/sb/cfe_sb_api.c **** ** Revision 1.32 2011/12/20 10:25:30GMT-05:00 rmcgraw
  37:/home/simulink/cFS_FreeRTOS_seL4/cfe/fsw/cfe-core/src/sb/cfe_sb_api.c **** ** DCR15187:1 Removed function CFE_SB_DecrMsgLimCnt and MsgLim Counter error event
  38:/home/simulink/cFS_FreeRTOS_seL4/cfe/fsw/cfe-core/src/sb/cfe_sb_api.c **** ** Revision 1.31 2011/12/09 12:22:56EST rmcgraw
  39:/home/simulink/cFS_FreeRTOS_seL4/cfe/fsw/cfe-core/src/sb/cfe_sb_api.c **** ** DCR15763:1 Added call to LockSharedData for case of invalid pipe id rcvd in RcvMsg API
  40:/home/simulink/cFS_FreeRTOS_seL4/cfe/fsw/cfe-core/src/sb/cfe_sb_api.c **** ** Revision 1.30 2011/09/09 14:25:33EDT aschoeni
  41:/home/simulink/cFS_FreeRTOS_seL4/cfe/fsw/cfe-core/src/sb/cfe_sb_api.c **** ** Added fix for ZeroCopy issues
  42:/home/simulink/cFS_FreeRTOS_seL4/cfe/fsw/cfe-core/src/sb/cfe_sb_api.c **** ** Revision 1.29 2011/04/29 10:04:48EDT rmcgraw
  43:/home/simulink/cFS_FreeRTOS_seL4/cfe/fsw/cfe-core/src/sb/cfe_sb_api.c **** ** Add check for NULL ptr in send loop
  44:/home/simulink/cFS_FreeRTOS_seL4/cfe/fsw/cfe-core/src/sb/cfe_sb_api.c **** ** Revision 1.28 2011/04/28 10:37:31EDT rmcgraw
  45:/home/simulink/cFS_FreeRTOS_seL4/cfe/fsw/cfe-core/src/sb/cfe_sb_api.c **** ** Fixed compiler error
  46:/home/simulink/cFS_FreeRTOS_seL4/cfe/fsw/cfe-core/src/sb/cfe_sb_api.c **** ** Revision 1.27 2011/04/28 10:10:15EDT rmcgraw
  47:/home/simulink/cFS_FreeRTOS_seL4/cfe/fsw/cfe-core/src/sb/cfe_sb_api.c **** ** DCR14592:1 Fix for the SB Send semaphore problem
  48:/home/simulink/cFS_FreeRTOS_seL4/cfe/fsw/cfe-core/src/sb/cfe_sb_api.c **** ** Revision 1.26 2010/11/04 16:41:53EDT aschoeni
  49:/home/simulink/cFS_FreeRTOS_seL4/cfe/fsw/cfe-core/src/sb/cfe_sb_api.c **** ** Added optional sender information storage
  50:/home/simulink/cFS_FreeRTOS_seL4/cfe/fsw/cfe-core/src/sb/cfe_sb_api.c **** ** Revision 1.25 2010/11/04 14:27:15EDT aschoeni
  51:/home/simulink/cFS_FreeRTOS_seL4/cfe/fsw/cfe-core/src/sb/cfe_sb_api.c **** ** Optimized rcv function
  52:/home/simulink/cFS_FreeRTOS_seL4/cfe/fsw/cfe-core/src/sb/cfe_sb_api.c **** ** Revision 1.24 2010/11/03 15:07:01EDT jmdagost
  53:/home/simulink/cFS_FreeRTOS_seL4/cfe/fsw/cfe-core/src/sb/cfe_sb_api.c **** ** Added cfe.h include file.
  54:/home/simulink/cFS_FreeRTOS_seL4/cfe/fsw/cfe-core/src/sb/cfe_sb_api.c **** ** Revision 1.23 2009/07/29 19:23:26EDT aschoeni
  55:/home/simulink/cFS_FreeRTOS_seL4/cfe/fsw/cfe-core/src/sb/cfe_sb_api.c **** ** Updated for ZeroCopyHandle_t and GetPoolBufInfo
  56:/home/simulink/cFS_FreeRTOS_seL4/cfe/fsw/cfe-core/src/sb/cfe_sb_api.c **** ** Revision 1.22 2009/07/24 18:27:10EDT aschoeni
  57:/home/simulink/cFS_FreeRTOS_seL4/cfe/fsw/cfe-core/src/sb/cfe_sb_api.c **** ** Added Zero Copy Mode
  58:/home/simulink/cFS_FreeRTOS_seL4/cfe/fsw/cfe-core/src/sb/cfe_sb_api.c **** ** Revision 1.21 2009/07/20 14:10:54EDT aschoeni
  59:/home/simulink/cFS_FreeRTOS_seL4/cfe/fsw/cfe-core/src/sb/cfe_sb_api.c **** ** Made GetAppTskName reentrant
  60:/home/simulink/cFS_FreeRTOS_seL4/cfe/fsw/cfe-core/src/sb/cfe_sb_api.c **** ** Revision 1.20 2009/07/17 19:43:01EDT aschoeni
  61:/home/simulink/cFS_FreeRTOS_seL4/cfe/fsw/cfe-core/src/sb/cfe_sb_api.c **** ** Added PassMsg API to sb to support sequence count preservation
  62:/home/simulink/cFS_FreeRTOS_seL4/cfe/fsw/cfe-core/src/sb/cfe_sb_api.c **** ** Revision 1.19 2009/06/26 17:02:07EDT aschoeni
  63:/home/simulink/cFS_FreeRTOS_seL4/cfe/fsw/cfe-core/src/sb/cfe_sb_api.c **** ** Updated SB to use __func__ instead of __FILE__ for lock and unlock errors
  64:/home/simulink/cFS_FreeRTOS_seL4/cfe/fsw/cfe-core/src/sb/cfe_sb_api.c **** ** Revision 1.18 2009/06/10 09:17:57EDT acudmore
  65:/home/simulink/cFS_FreeRTOS_seL4/cfe/fsw/cfe-core/src/sb/cfe_sb_api.c **** ** Updated OS_Mem* and OS_BSP* to CFE_PSP_*
  66:/home/simulink/cFS_FreeRTOS_seL4/cfe/fsw/cfe-core/src/sb/cfe_sb_api.c **** ** Revision 1.17 2009/05/08 11:27:08EDT rmcgraw
  67:/home/simulink/cFS_FreeRTOS_seL4/cfe/fsw/cfe-core/src/sb/cfe_sb_api.c **** ** DCR7631:1 Removed index checks in Subscribe and Unsubscribe - dead code and cannot be tested
  68:/home/simulink/cFS_FreeRTOS_seL4/cfe/fsw/cfe-core/src/sb/cfe_sb_api.c **** ** Revision 1.16 2009/04/29 10:04:33EDT rmcgraw
  69:/home/simulink/cFS_FreeRTOS_seL4/cfe/fsw/cfe-core/src/sb/cfe_sb_api.c **** ** DCR5801:11 Changed subscription return value when buf allocation fails
  70:/home/simulink/cFS_FreeRTOS_seL4/cfe/fsw/cfe-core/src/sb/cfe_sb_api.c **** ** Revision 1.15 2009/03/30 10:45:01EDT rmcgraw
  71:/home/simulink/cFS_FreeRTOS_seL4/cfe/fsw/cfe-core/src/sb/cfe_sb_api.c **** ** DCR5801:2 Fixed infinite loop when deleting a pipe with subscriptions
  72:/home/simulink/cFS_FreeRTOS_seL4/cfe/fsw/cfe-core/src/sb/cfe_sb_api.c **** ** Revision 1.14 2009/02/26 17:57:39EST rmcgraw
  73:/home/simulink/cFS_FreeRTOS_seL4/cfe/fsw/cfe-core/src/sb/cfe_sb_api.c **** ** DCR6805:1 Corrected note under SendMsg API prolog regarding seq count
  74:/home/simulink/cFS_FreeRTOS_seL4/cfe/fsw/cfe-core/src/sb/cfe_sb_api.c **** ** Revision 1.13 2009/02/10 16:53:23EST rmcgraw
  75:/home/simulink/cFS_FreeRTOS_seL4/cfe/fsw/cfe-core/src/sb/cfe_sb_api.c **** ** DCR1700:1 Decrement pipes-in-use counter in DeletePipe API
  76:/home/simulink/cFS_FreeRTOS_seL4/cfe/fsw/cfe-core/src/sb/cfe_sb_api.c **** ** Revision 1.12 2009/02/10 12:29:07EST rmcgraw
  77:/home/simulink/cFS_FreeRTOS_seL4/cfe/fsw/cfe-core/src/sb/cfe_sb_api.c **** ** DCR6956:1 In Create Pipe API, set user's pipe id to invalid for error cases
68K GAS   			page 3


  78:/home/simulink/cFS_FreeRTOS_seL4/cfe/fsw/cfe-core/src/sb/cfe_sb_api.c **** ** Revision 1.11 2009/02/10 11:25:56EST rmcgraw
  79:/home/simulink/cFS_FreeRTOS_seL4/cfe/fsw/cfe-core/src/sb/cfe_sb_api.c **** ** DCR1699:1 Removed pipe owner in five events
  80:/home/simulink/cFS_FreeRTOS_seL4/cfe/fsw/cfe-core/src/sb/cfe_sb_api.c **** ** Revision 1.10 2009/02/06 15:35:08EST rmcgraw
  81:/home/simulink/cFS_FreeRTOS_seL4/cfe/fsw/cfe-core/src/sb/cfe_sb_api.c **** ** DCR5801:3 Moved Total Msg Size test before the lock in the send api
  82:/home/simulink/cFS_FreeRTOS_seL4/cfe/fsw/cfe-core/src/sb/cfe_sb_api.c **** ** Revision 1.9 2009/02/06 11:29:04EST rmcgraw
  83:/home/simulink/cFS_FreeRTOS_seL4/cfe/fsw/cfe-core/src/sb/cfe_sb_api.c **** ** DCR5801:2 General Cleanup
  84:/home/simulink/cFS_FreeRTOS_seL4/cfe/fsw/cfe-core/src/sb/cfe_sb_api.c **** ** Revision 1.8 2009/02/03 16:33:29EST rmcgraw
  85:/home/simulink/cFS_FreeRTOS_seL4/cfe/fsw/cfe-core/src/sb/cfe_sb_api.c **** ** DCR5801:2 Fixed DestPtr errors in Send API
  86:/home/simulink/cFS_FreeRTOS_seL4/cfe/fsw/cfe-core/src/sb/cfe_sb_api.c **** ** Revision 1.7 2009/02/03 11:06:58EST rmcgraw
  87:/home/simulink/cFS_FreeRTOS_seL4/cfe/fsw/cfe-core/src/sb/cfe_sb_api.c **** ** DCR5801:2 Changed destination desciptors from array based to linked list
  88:/home/simulink/cFS_FreeRTOS_seL4/cfe/fsw/cfe-core/src/sb/cfe_sb_api.c **** ** Revision 1.6 2009/01/30 12:27:07EST rmcgraw
  89:/home/simulink/cFS_FreeRTOS_seL4/cfe/fsw/cfe-core/src/sb/cfe_sb_api.c **** ** DCR5801:5 Removed call to GetPipePtr in send API inside loop
  90:/home/simulink/cFS_FreeRTOS_seL4/cfe/fsw/cfe-core/src/sb/cfe_sb_api.c **** ** Revision 1.5 2009/01/30 11:50:07EST rmcgraw
  91:/home/simulink/cFS_FreeRTOS_seL4/cfe/fsw/cfe-core/src/sb/cfe_sb_api.c **** ** DCR5801:8 Set users ptr to null only when readqueue fails in rcv API
  92:/home/simulink/cFS_FreeRTOS_seL4/cfe/fsw/cfe-core/src/sb/cfe_sb_api.c **** ** Revision 1.4 2009/01/30 11:45:06EST rmcgraw
  93:/home/simulink/cFS_FreeRTOS_seL4/cfe/fsw/cfe-core/src/sb/cfe_sb_api.c **** ** DCR5801:9 Removed unused calls to GetAppID in send and rcv APIs
  94:/home/simulink/cFS_FreeRTOS_seL4/cfe/fsw/cfe-core/src/sb/cfe_sb_api.c **** ** Revision 1.3 2009/01/30 11:07:03EST rmcgraw
  95:/home/simulink/cFS_FreeRTOS_seL4/cfe/fsw/cfe-core/src/sb/cfe_sb_api.c **** ** DCR5801:3 Moved the semaphore lock in the send and rcv API's
  96:/home/simulink/cFS_FreeRTOS_seL4/cfe/fsw/cfe-core/src/sb/cfe_sb_api.c **** ** Revision 1.2 2009/01/30 10:34:57EST rmcgraw
  97:/home/simulink/cFS_FreeRTOS_seL4/cfe/fsw/cfe-core/src/sb/cfe_sb_api.c **** ** DCR5801:1 Began tracking subsribers with 'destinations' counter.
  98:/home/simulink/cFS_FreeRTOS_seL4/cfe/fsw/cfe-core/src/sb/cfe_sb_api.c **** ** Revision 1.1 2008/04/17 08:05:30EDT ruperera
  99:/home/simulink/cFS_FreeRTOS_seL4/cfe/fsw/cfe-core/src/sb/cfe_sb_api.c **** ** Initial revision
 100:/home/simulink/cFS_FreeRTOS_seL4/cfe/fsw/cfe-core/src/sb/cfe_sb_api.c **** ** Member added to cfe project on tlserver3
 101:/home/simulink/cFS_FreeRTOS_seL4/cfe/fsw/cfe-core/src/sb/cfe_sb_api.c **** ** Revision 1.74 2007/09/19 14:38:48EDT rjmcgraw
 102:/home/simulink/cFS_FreeRTOS_seL4/cfe/fsw/cfe-core/src/sb/cfe_sb_api.c **** ** DCR4421 Removed use count err events and reworded buf allocation error event
 103:/home/simulink/cFS_FreeRTOS_seL4/cfe/fsw/cfe-core/src/sb/cfe_sb_api.c **** ** Revision 1.73 2007/09/19 12:01:46EDT rjmcgraw
 104:/home/simulink/cFS_FreeRTOS_seL4/cfe/fsw/cfe-core/src/sb/cfe_sb_api.c **** ** Return code in unsubscribe changed from no subscribers to cfe success
 105:/home/simulink/cFS_FreeRTOS_seL4/cfe/fsw/cfe-core/src/sb/cfe_sb_api.c **** ** Revision 1.72 2007/09/13 09:34:09EDT rjmcgraw
 106:/home/simulink/cFS_FreeRTOS_seL4/cfe/fsw/cfe-core/src/sb/cfe_sb_api.c **** ** DCR4861:2 Added check in SendMsg to prevent recursive event problem
 107:/home/simulink/cFS_FreeRTOS_seL4/cfe/fsw/cfe-core/src/sb/cfe_sb_api.c **** ** Revision 1.71 2007/08/17 15:59:51EDT rjmcgraw
 108:/home/simulink/cFS_FreeRTOS_seL4/cfe/fsw/cfe-core/src/sb/cfe_sb_api.c **** ** Changes to free semaphore before calling SendEventWithAppId
 109:/home/simulink/cFS_FreeRTOS_seL4/cfe/fsw/cfe-core/src/sb/cfe_sb_api.c **** ** Revision 1.70 2007/07/12 16:58:22EDT rjmcgraw
 110:/home/simulink/cFS_FreeRTOS_seL4/cfe/fsw/cfe-core/src/sb/cfe_sb_api.c **** ** DCR4680:1 Removed SB event log related items
 111:/home/simulink/cFS_FreeRTOS_seL4/cfe/fsw/cfe-core/src/sb/cfe_sb_api.c **** ** Revision 1.69 2007/07/06 13:34:17EDT rjmcgraw
 112:/home/simulink/cFS_FreeRTOS_seL4/cfe/fsw/cfe-core/src/sb/cfe_sb_api.c **** ** DCR469:1 Added GetLastSender code
 113:/home/simulink/cFS_FreeRTOS_seL4/cfe/fsw/cfe-core/src/sb/cfe_sb_api.c **** ** Revision 1.68 2007/04/24 11:07:18EDT rjmcgraw
 114:/home/simulink/cFS_FreeRTOS_seL4/cfe/fsw/cfe-core/src/sb/cfe_sb_api.c **** ** Added PipeId to PipeDepthStats
 115:/home/simulink/cFS_FreeRTOS_seL4/cfe/fsw/cfe-core/src/sb/cfe_sb_api.c **** ** Revision 1.67 2007/04/24 09:34:04EDT rjmcgraw
 116:/home/simulink/cFS_FreeRTOS_seL4/cfe/fsw/cfe-core/src/sb/cfe_sb_api.c **** ** DCR3294 - Added pipe depth stats to several SB api's
 117:/home/simulink/cFS_FreeRTOS_seL4/cfe/fsw/cfe-core/src/sb/cfe_sb_api.c **** ** Revision 1.66 2007/03/28 14:17:37EST rjmcgraw
 118:/home/simulink/cFS_FreeRTOS_seL4/cfe/fsw/cfe-core/src/sb/cfe_sb_api.c **** ** Sending TskId instead of AppId in call to LogSBEvent - DCR2654
 119:/home/simulink/cFS_FreeRTOS_seL4/cfe/fsw/cfe-core/src/sb/cfe_sb_api.c **** ** Revision 1.65 2007/03/27 13:42:28EST rjmcgraw
 120:/home/simulink/cFS_FreeRTOS_seL4/cfe/fsw/cfe-core/src/sb/cfe_sb_api.c **** ** Added step to increment new duplicate subscription counter
 121:/home/simulink/cFS_FreeRTOS_seL4/cfe/fsw/cfe-core/src/sb/cfe_sb_api.c **** **
 122:/home/simulink/cFS_FreeRTOS_seL4/cfe/fsw/cfe-core/src/sb/cfe_sb_api.c **** ******************************************************************************/
 123:/home/simulink/cFS_FreeRTOS_seL4/cfe/fsw/cfe-core/src/sb/cfe_sb_api.c **** 
 124:/home/simulink/cFS_FreeRTOS_seL4/cfe/fsw/cfe-core/src/sb/cfe_sb_api.c **** /*
 125:/home/simulink/cFS_FreeRTOS_seL4/cfe/fsw/cfe-core/src/sb/cfe_sb_api.c **** ** Include Files
 126:/home/simulink/cFS_FreeRTOS_seL4/cfe/fsw/cfe-core/src/sb/cfe_sb_api.c **** */
 127:/home/simulink/cFS_FreeRTOS_seL4/cfe/fsw/cfe-core/src/sb/cfe_sb_api.c **** #include "common_types.h"
 128:/home/simulink/cFS_FreeRTOS_seL4/cfe/fsw/cfe-core/src/sb/cfe_sb_api.c **** #include "private/cfe_private.h"
 129:/home/simulink/cFS_FreeRTOS_seL4/cfe/fsw/cfe-core/src/sb/cfe_sb_api.c **** #include "cfe_sb_events.h"
 130:/home/simulink/cFS_FreeRTOS_seL4/cfe/fsw/cfe-core/src/sb/cfe_sb_api.c **** #include "cfe_sb_priv.h"
 131:/home/simulink/cFS_FreeRTOS_seL4/cfe/fsw/cfe-core/src/sb/cfe_sb_api.c **** #include "cfe_sb.h"
 132:/home/simulink/cFS_FreeRTOS_seL4/cfe/fsw/cfe-core/src/sb/cfe_sb_api.c **** #include "osapi.h"
 133:/home/simulink/cFS_FreeRTOS_seL4/cfe/fsw/cfe-core/src/sb/cfe_sb_api.c **** #include "cfe_es.h"
 134:/home/simulink/cFS_FreeRTOS_seL4/cfe/fsw/cfe-core/src/sb/cfe_sb_api.c **** #include "cfe_psp.h"
68K GAS   			page 4


 135:/home/simulink/cFS_FreeRTOS_seL4/cfe/fsw/cfe-core/src/sb/cfe_sb_api.c **** #include "cfe_error.h"
 136:/home/simulink/cFS_FreeRTOS_seL4/cfe/fsw/cfe-core/src/sb/cfe_sb_api.c **** #include <string.h>
 137:/home/simulink/cFS_FreeRTOS_seL4/cfe/fsw/cfe-core/src/sb/cfe_sb_api.c **** 
 138:/home/simulink/cFS_FreeRTOS_seL4/cfe/fsw/cfe-core/src/sb/cfe_sb_api.c **** /* 
 139:/home/simulink/cFS_FreeRTOS_seL4/cfe/fsw/cfe-core/src/sb/cfe_sb_api.c ****  * Macro to reflect size of PipeDepthStats Telemetry array - 
 140:/home/simulink/cFS_FreeRTOS_seL4/cfe/fsw/cfe-core/src/sb/cfe_sb_api.c ****  * this may or may not be the same as CFE_SB_MSG_MAX_PIPES
 141:/home/simulink/cFS_FreeRTOS_seL4/cfe/fsw/cfe-core/src/sb/cfe_sb_api.c ****  */
 142:/home/simulink/cFS_FreeRTOS_seL4/cfe/fsw/cfe-core/src/sb/cfe_sb_api.c **** #define CFE_SB_TLM_PIPEDEPTHSTATS_SIZE     (sizeof(CFE_SB.StatTlmMsg.Payload.PipeDepthStats) / size
 143:/home/simulink/cFS_FreeRTOS_seL4/cfe/fsw/cfe-core/src/sb/cfe_sb_api.c **** /******************************************************************************
 144:/home/simulink/cFS_FreeRTOS_seL4/cfe/fsw/cfe-core/src/sb/cfe_sb_api.c **** ** Name:    CFE_SB_CreatePipe
 145:/home/simulink/cFS_FreeRTOS_seL4/cfe/fsw/cfe-core/src/sb/cfe_sb_api.c **** **
 146:/home/simulink/cFS_FreeRTOS_seL4/cfe/fsw/cfe-core/src/sb/cfe_sb_api.c **** ** Purpose: API to create a pipe for receiving messages
 147:/home/simulink/cFS_FreeRTOS_seL4/cfe/fsw/cfe-core/src/sb/cfe_sb_api.c **** **
 148:/home/simulink/cFS_FreeRTOS_seL4/cfe/fsw/cfe-core/src/sb/cfe_sb_api.c **** ** Assumptions, External Events, and Notes:
 149:/home/simulink/cFS_FreeRTOS_seL4/cfe/fsw/cfe-core/src/sb/cfe_sb_api.c **** **
 150:/home/simulink/cFS_FreeRTOS_seL4/cfe/fsw/cfe-core/src/sb/cfe_sb_api.c **** **          Note: Zero is a valid PipeId
 151:/home/simulink/cFS_FreeRTOS_seL4/cfe/fsw/cfe-core/src/sb/cfe_sb_api.c **** **
 152:/home/simulink/cFS_FreeRTOS_seL4/cfe/fsw/cfe-core/src/sb/cfe_sb_api.c **** ** Date Written:
 153:/home/simulink/cFS_FreeRTOS_seL4/cfe/fsw/cfe-core/src/sb/cfe_sb_api.c **** **          04/25/2005
 154:/home/simulink/cFS_FreeRTOS_seL4/cfe/fsw/cfe-core/src/sb/cfe_sb_api.c **** **
 155:/home/simulink/cFS_FreeRTOS_seL4/cfe/fsw/cfe-core/src/sb/cfe_sb_api.c **** ** Inputs:
 156:/home/simulink/cFS_FreeRTOS_seL4/cfe/fsw/cfe-core/src/sb/cfe_sb_api.c **** **          PipeIdPtr - Ptr to users empty PipeId variable, to be filled by
 157:/home/simulink/cFS_FreeRTOS_seL4/cfe/fsw/cfe-core/src/sb/cfe_sb_api.c **** **                      this function.
 158:/home/simulink/cFS_FreeRTOS_seL4/cfe/fsw/cfe-core/src/sb/cfe_sb_api.c **** **          Depth     - The depth of the pipe, synonymous to the max number
 159:/home/simulink/cFS_FreeRTOS_seL4/cfe/fsw/cfe-core/src/sb/cfe_sb_api.c **** **                      of messages the pipe can hold at any time.
 160:/home/simulink/cFS_FreeRTOS_seL4/cfe/fsw/cfe-core/src/sb/cfe_sb_api.c **** **          PipeName  - The name of the pipe displayed in event messages
 161:/home/simulink/cFS_FreeRTOS_seL4/cfe/fsw/cfe-core/src/sb/cfe_sb_api.c **** **
 162:/home/simulink/cFS_FreeRTOS_seL4/cfe/fsw/cfe-core/src/sb/cfe_sb_api.c **** ** Outputs:
 163:/home/simulink/cFS_FreeRTOS_seL4/cfe/fsw/cfe-core/src/sb/cfe_sb_api.c **** **          PipeId    - The handle of the pipe to be used when receiving
 164:/home/simulink/cFS_FreeRTOS_seL4/cfe/fsw/cfe-core/src/sb/cfe_sb_api.c **** **                      messages.
 165:/home/simulink/cFS_FreeRTOS_seL4/cfe/fsw/cfe-core/src/sb/cfe_sb_api.c **** **
 166:/home/simulink/cFS_FreeRTOS_seL4/cfe/fsw/cfe-core/src/sb/cfe_sb_api.c **** ** Return Values:
 167:/home/simulink/cFS_FreeRTOS_seL4/cfe/fsw/cfe-core/src/sb/cfe_sb_api.c **** **          Status
 168:/home/simulink/cFS_FreeRTOS_seL4/cfe/fsw/cfe-core/src/sb/cfe_sb_api.c **** **
 169:/home/simulink/cFS_FreeRTOS_seL4/cfe/fsw/cfe-core/src/sb/cfe_sb_api.c **** ******************************************************************************/
 170:/home/simulink/cFS_FreeRTOS_seL4/cfe/fsw/cfe-core/src/sb/cfe_sb_api.c **** int32  CFE_SB_CreatePipe(CFE_SB_PipeId_t *PipeIdPtr, uint16  Depth, const char *PipeName)
 171:/home/simulink/cFS_FreeRTOS_seL4/cfe/fsw/cfe-core/src/sb/cfe_sb_api.c **** {
  22               	.loc 1 171 0
  23               	.cfi_startproc
  24 0000 4FEF FFAC 	lea (-84,%sp),%sp
  25               	.cfi_def_cfa_offset 88
  26 0004 2F03      	move.l %d3,-(%sp)
  27               	.cfi_def_cfa_offset 92
  28               	.cfi_offset 3, -92
  29 0006 2F02      	move.l %d2,-(%sp)
  30               	.cfi_def_cfa_offset 96
  31               	.cfi_offset 2, -96
  32 0008 202F 0064 	move.l 100(%sp),%d0
  33 000c 3000      	move.w %d0,%d0
  34 000e 3F40 0008 	move.w %d0,8(%sp)
 172:/home/simulink/cFS_FreeRTOS_seL4/cfe/fsw/cfe-core/src/sb/cfe_sb_api.c ****     uint32          AppId = 0xFFFFFFFF;
  35               	.loc 1 172 0
  36 0012 70FF      	moveq #-1,%d0
  37 0014 2F40 004C 	move.l %d0,76(%sp)
 173:/home/simulink/cFS_FreeRTOS_seL4/cfe/fsw/cfe-core/src/sb/cfe_sb_api.c ****     uint32          TskId = 0;
  38               	.loc 1 173 0
  39 0018 42AF 0058 	clr.l 88(%sp)
68K GAS   			page 5


 174:/home/simulink/cFS_FreeRTOS_seL4/cfe/fsw/cfe-core/src/sb/cfe_sb_api.c ****     uint32          SysQueueId = 0;
  40               	.loc 1 174 0
  41 001c 42AF 0048 	clr.l 72(%sp)
 175:/home/simulink/cFS_FreeRTOS_seL4/cfe/fsw/cfe-core/src/sb/cfe_sb_api.c ****     int32           Status;
 176:/home/simulink/cFS_FreeRTOS_seL4/cfe/fsw/cfe-core/src/sb/cfe_sb_api.c ****     CFE_SB_PipeId_t PipeTblIdx;
 177:/home/simulink/cFS_FreeRTOS_seL4/cfe/fsw/cfe-core/src/sb/cfe_sb_api.c ****     char            AppName[OS_MAX_API_NAME] = {'\0'};
  42               	.loc 1 177 0
  43 0020 41EF 0034 	lea (52,%sp),%a0
  44 0024 4290      	clr.l (%a0)
  45 0026 5888      	addq.l #4,%a0
  46 0028 4290      	clr.l (%a0)
  47 002a 5888      	addq.l #4,%a0
  48 002c 4290      	clr.l (%a0)
  49 002e 5888      	addq.l #4,%a0
  50 0030 4290      	clr.l (%a0)
  51 0032 5888      	addq.l #4,%a0
  52 0034 4290      	clr.l (%a0)
  53 0036 5888      	addq.l #4,%a0
 178:/home/simulink/cFS_FreeRTOS_seL4/cfe/fsw/cfe-core/src/sb/cfe_sb_api.c ****     char            FullName[(OS_MAX_API_NAME * 2)];
 179:/home/simulink/cFS_FreeRTOS_seL4/cfe/fsw/cfe-core/src/sb/cfe_sb_api.c **** 
 180:/home/simulink/cFS_FreeRTOS_seL4/cfe/fsw/cfe-core/src/sb/cfe_sb_api.c ****     /* take semaphore to prevent a task switch during this call */
 181:/home/simulink/cFS_FreeRTOS_seL4/cfe/fsw/cfe-core/src/sb/cfe_sb_api.c ****     CFE_SB_LockSharedData(__func__,__LINE__);
  54               	.loc 1 181 0
  55 0038 4878 00B5 	pea 181.w
  56               	.cfi_def_cfa_offset 100
  57 003c 4879 0000 	pea __func__.5596
  57      0000 
  58               	.cfi_def_cfa_offset 104
  59 0042 4EB9 0000 	jsr CFE_SB_LockSharedData
  59      0000 
  60 0048 508F      	addq.l #8,%sp
  61               	.cfi_def_cfa_offset 96
 182:/home/simulink/cFS_FreeRTOS_seL4/cfe/fsw/cfe-core/src/sb/cfe_sb_api.c **** 
 183:/home/simulink/cFS_FreeRTOS_seL4/cfe/fsw/cfe-core/src/sb/cfe_sb_api.c ****     TskId = OS_TaskGetId();
  62               	.loc 1 183 0
  63 004a 4EB9 0000 	jsr OS_TaskGetId
  63      0000 
  64 0050 2F40 0058 	move.l %d0,88(%sp)
 184:/home/simulink/cFS_FreeRTOS_seL4/cfe/fsw/cfe-core/src/sb/cfe_sb_api.c **** 
 185:/home/simulink/cFS_FreeRTOS_seL4/cfe/fsw/cfe-core/src/sb/cfe_sb_api.c ****     /* set user's pipe id value to 'invalid' for error cases below */
 186:/home/simulink/cFS_FreeRTOS_seL4/cfe/fsw/cfe-core/src/sb/cfe_sb_api.c ****     if(PipeIdPtr != NULL){
  65               	.loc 1 186 0
  66 0054 4AAF 0060 	tst.l 96(%sp)
  67 0058 6708      	jeq .L2
 187:/home/simulink/cFS_FreeRTOS_seL4/cfe/fsw/cfe-core/src/sb/cfe_sb_api.c ****         *PipeIdPtr = CFE_SB_INVALID_PIPE;
  68               	.loc 1 187 0
  69 005a 206F 0060 	move.l 96(%sp),%a0
  70 005e 10BC FFFF 	move.b #-1,(%a0)
  71               	.L2:
 188:/home/simulink/cFS_FreeRTOS_seL4/cfe/fsw/cfe-core/src/sb/cfe_sb_api.c ****     }/* end if */
 189:/home/simulink/cFS_FreeRTOS_seL4/cfe/fsw/cfe-core/src/sb/cfe_sb_api.c **** 
 190:/home/simulink/cFS_FreeRTOS_seL4/cfe/fsw/cfe-core/src/sb/cfe_sb_api.c ****     /* check input parameters */
 191:/home/simulink/cFS_FreeRTOS_seL4/cfe/fsw/cfe-core/src/sb/cfe_sb_api.c ****     if((PipeIdPtr == NULL)||(Depth > CFE_SB_MAX_PIPE_DEPTH)||(Depth == 0)){
  72               	.loc 1 191 0
  73 0062 4AAF 0060 	tst.l 96(%sp)
  74 0066 6714      	jeq .L3
  75               	.loc 1 191 0 is_stmt 0 discriminator 1
68K GAS   			page 6


  76 0068 4280      	clr.l %d0
  77 006a 302F 0008 	move.w 8(%sp),%d0
  78 006e 0C80 0000 	cmp.l #256,%d0
  78      0100 
  79 0074 6206      	jhi .L3
  80               	.loc 1 191 0 discriminator 2
  81 0076 4A6F 0008 	tst.w 8(%sp)
  82 007a 6678      	jne .L4
  83               	.L3:
 192:/home/simulink/cFS_FreeRTOS_seL4/cfe/fsw/cfe-core/src/sb/cfe_sb_api.c ****         CFE_SB.HKTlmMsg.Payload.CreatePipeErrCnt++;
  84               	.loc 1 192 0 is_stmt 1
  85 007c 1039 0000 	move.b CFE_SB+4518,%d0
  85      0000 
  86 0082 5280      	addq.l #1,%d0
  87 0084 1000      	move.b %d0,%d0
  88 0086 13C0 0000 	move.b %d0,CFE_SB+4518
  88      0000 
 193:/home/simulink/cFS_FreeRTOS_seL4/cfe/fsw/cfe-core/src/sb/cfe_sb_api.c ****         CFE_SB_UnlockSharedData(__func__,__LINE__);
  89               	.loc 1 193 0
  90 008c 4878 00C1 	pea 193.w
  91               	.cfi_def_cfa_offset 100
  92 0090 4879 0000 	pea __func__.5596
  92      0000 
  93               	.cfi_def_cfa_offset 104
  94 0096 4EB9 0000 	jsr CFE_SB_UnlockSharedData
  94      0000 
  95 009c 508F      	addq.l #8,%sp
  96               	.cfi_def_cfa_offset 96
 194:/home/simulink/cFS_FreeRTOS_seL4/cfe/fsw/cfe-core/src/sb/cfe_sb_api.c ****         CFE_EVS_SendEventWithAppID(CFE_SB_CR_PIPE_BAD_ARG_EID,CFE_EVS_ERROR,CFE_SB.AppId,
  97               	.loc 1 194 0
  98 009e 4282      	clr.l %d2
  99 00a0 342F 0008 	move.w 8(%sp),%d2
 100 00a4 262F 0060 	move.l 96(%sp),%d3
 101 00a8 200F      	move.l %sp,%d0
 102 00aa 0680 0000 	add.l #12,%d0
 102      000C 
 103 00b0 2F00      	move.l %d0,-(%sp)
 104               	.cfi_def_cfa_offset 100
 105 00b2 2F2F 005C 	move.l 92(%sp),-(%sp)
 106               	.cfi_def_cfa_offset 104
 107 00b6 4EB9 0000 	jsr CFE_SB_GetAppTskName
 107      0000 
 108 00bc 508F      	addq.l #8,%sp
 109               	.cfi_def_cfa_offset 96
 110 00be 2200      	move.l %d0,%d1
 111 00c0 2039 0000 	move.l CFE_SB+12,%d0
 111      0000 
 112 00c6 4878 0100 	pea 256.w
 113               	.cfi_def_cfa_offset 100
 114 00ca 2F02      	move.l %d2,-(%sp)
 115               	.cfi_def_cfa_offset 104
 116 00cc 2F03      	move.l %d3,-(%sp)
 117               	.cfi_def_cfa_offset 108
 118 00ce 2F01      	move.l %d1,-(%sp)
 119               	.cfi_def_cfa_offset 112
 120 00d0 4879 0000 	pea .LC0
 120      0000 
68K GAS   			page 7


 121               	.cfi_def_cfa_offset 116
 122 00d6 2F00      	move.l %d0,-(%sp)
 123               	.cfi_def_cfa_offset 120
 124 00d8 4878 0003 	pea 3.w
 125               	.cfi_def_cfa_offset 124
 126 00dc 4878 0002 	pea 2.w
 127               	.cfi_def_cfa_offset 128
 128 00e0 4EB9 0000 	jsr CFE_EVS_SendEventWithAppID
 128      0000 
 129 00e6 4FEF 0020 	lea (32,%sp),%sp
 130               	.cfi_def_cfa_offset 96
 195:/home/simulink/cFS_FreeRTOS_seL4/cfe/fsw/cfe-core/src/sb/cfe_sb_api.c ****           "CreatePipeErr:Bad Input Arg:app=%s,ptr=0x%lx,depth=%d,maxdepth=%d",
 196:/home/simulink/cFS_FreeRTOS_seL4/cfe/fsw/cfe-core/src/sb/cfe_sb_api.c ****                 CFE_SB_GetAppTskName(TskId,FullName),(unsigned long)PipeIdPtr,Depth,CFE_SB_MAX_PIPE
 197:/home/simulink/cFS_FreeRTOS_seL4/cfe/fsw/cfe-core/src/sb/cfe_sb_api.c ****         return CFE_SB_BAD_ARGUMENT;
 131               	.loc 1 197 0
 132 00ea 203C CA00 	move.l #-905969661,%d0
 132      0003 
 133 00f0 6000 03AE 	jra .L10
 134               	.L4:
 198:/home/simulink/cFS_FreeRTOS_seL4/cfe/fsw/cfe-core/src/sb/cfe_sb_api.c ****     }/*end if*/
 199:/home/simulink/cFS_FreeRTOS_seL4/cfe/fsw/cfe-core/src/sb/cfe_sb_api.c **** 
 200:/home/simulink/cFS_FreeRTOS_seL4/cfe/fsw/cfe-core/src/sb/cfe_sb_api.c ****     /* get first available entry in pipe table */
 201:/home/simulink/cFS_FreeRTOS_seL4/cfe/fsw/cfe-core/src/sb/cfe_sb_api.c ****     PipeTblIdx = CFE_SB_GetAvailPipeIdx();
 135               	.loc 1 201 0
 136 00f4 4EB9 0000 	jsr CFE_SB_GetAvailPipeIdx
 136      0000 
 137 00fa 1F40 0057 	move.b %d0,87(%sp)
 202:/home/simulink/cFS_FreeRTOS_seL4/cfe/fsw/cfe-core/src/sb/cfe_sb_api.c **** 
 203:/home/simulink/cFS_FreeRTOS_seL4/cfe/fsw/cfe-core/src/sb/cfe_sb_api.c ****     /* if pipe table is full, send event and return error */
 204:/home/simulink/cFS_FreeRTOS_seL4/cfe/fsw/cfe-core/src/sb/cfe_sb_api.c ****     if(PipeTblIdx == CFE_SB_INVALID_PIPE){
 138               	.loc 1 204 0
 139 00fe 4280      	clr.l %d0
 140 0100 102F 0057 	move.b 87(%sp),%d0
 141 0104 0C80 0000 	cmp.l #255,%d0
 141      00FF 
 142 010a 665A      	jne .L6
 205:/home/simulink/cFS_FreeRTOS_seL4/cfe/fsw/cfe-core/src/sb/cfe_sb_api.c ****         CFE_SB_UnlockSharedData(__func__,__LINE__);
 143               	.loc 1 205 0
 144 010c 4878 00CD 	pea 205.w
 145               	.cfi_def_cfa_offset 100
 146 0110 4879 0000 	pea __func__.5596
 146      0000 
 147               	.cfi_def_cfa_offset 104
 148 0116 4EB9 0000 	jsr CFE_SB_UnlockSharedData
 148      0000 
 149 011c 508F      	addq.l #8,%sp
 150               	.cfi_def_cfa_offset 96
 206:/home/simulink/cFS_FreeRTOS_seL4/cfe/fsw/cfe-core/src/sb/cfe_sb_api.c ****         CFE_EVS_SendEventWithAppID(CFE_SB_MAX_PIPES_MET_EID,CFE_EVS_ERROR,CFE_SB.AppId,
 151               	.loc 1 206 0
 152 011e 200F      	move.l %sp,%d0
 153 0120 0680 0000 	add.l #12,%d0
 153      000C 
 154 0126 2F00      	move.l %d0,-(%sp)
 155               	.cfi_def_cfa_offset 100
 156 0128 2F2F 005C 	move.l 92(%sp),-(%sp)
 157               	.cfi_def_cfa_offset 104
 158 012c 4EB9 0000 	jsr CFE_SB_GetAppTskName
68K GAS   			page 8


 158      0000 
 159 0132 508F      	addq.l #8,%sp
 160               	.cfi_def_cfa_offset 96
 161 0134 2200      	move.l %d0,%d1
 162 0136 2039 0000 	move.l CFE_SB+12,%d0
 162      0000 
 163 013c 2F01      	move.l %d1,-(%sp)
 164               	.cfi_def_cfa_offset 100
 165 013e 4878 0040 	pea 64.w
 166               	.cfi_def_cfa_offset 104
 167 0142 4879 0000 	pea .LC1
 167      0000 
 168               	.cfi_def_cfa_offset 108
 169 0148 2F00      	move.l %d0,-(%sp)
 170               	.cfi_def_cfa_offset 112
 171 014a 4878 0003 	pea 3.w
 172               	.cfi_def_cfa_offset 116
 173 014e 4878 0003 	pea 3.w
 174               	.cfi_def_cfa_offset 120
 175 0152 4EB9 0000 	jsr CFE_EVS_SendEventWithAppID
 175      0000 
 176 0158 4FEF 0018 	lea (24,%sp),%sp
 177               	.cfi_def_cfa_offset 96
 207:/home/simulink/cFS_FreeRTOS_seL4/cfe/fsw/cfe-core/src/sb/cfe_sb_api.c ****           "CreatePipeErr:Max Pipes(%d)In Use.app %s",
 208:/home/simulink/cFS_FreeRTOS_seL4/cfe/fsw/cfe-core/src/sb/cfe_sb_api.c ****           CFE_SB_MAX_PIPES,CFE_SB_GetAppTskName(TskId,FullName));
 209:/home/simulink/cFS_FreeRTOS_seL4/cfe/fsw/cfe-core/src/sb/cfe_sb_api.c ****         return CFE_SB_MAX_PIPES_MET;
 178               	.loc 1 209 0
 179 015c 203C CA00 	move.l #-905969660,%d0
 179      0004 
 180 0162 6000 033C 	jra .L10
 181               	.L6:
 210:/home/simulink/cFS_FreeRTOS_seL4/cfe/fsw/cfe-core/src/sb/cfe_sb_api.c ****     }/* end if */
 211:/home/simulink/cFS_FreeRTOS_seL4/cfe/fsw/cfe-core/src/sb/cfe_sb_api.c **** 
 212:/home/simulink/cFS_FreeRTOS_seL4/cfe/fsw/cfe-core/src/sb/cfe_sb_api.c ****     /* create the queue */
 213:/home/simulink/cFS_FreeRTOS_seL4/cfe/fsw/cfe-core/src/sb/cfe_sb_api.c ****     Status = OS_QueueCreate(&SysQueueId,PipeName,Depth,sizeof(CFE_SB_BufferD_t *),0);
 182               	.loc 1 213 0
 183 0166 4280      	clr.l %d0
 184 0168 302F 0008 	move.w 8(%sp),%d0
 185 016c 42A7      	clr.l -(%sp)
 186               	.cfi_def_cfa_offset 100
 187 016e 4878 0004 	pea 4.w
 188               	.cfi_def_cfa_offset 104
 189 0172 2F00      	move.l %d0,-(%sp)
 190               	.cfi_def_cfa_offset 108
 191 0174 2F2F 0074 	move.l 116(%sp),-(%sp)
 192               	.cfi_def_cfa_offset 112
 193 0178 200F      	move.l %sp,%d0
 194 017a 0680 0000 	add.l #88,%d0
 194      0058 
 195 0180 2F00      	move.l %d0,-(%sp)
 196               	.cfi_def_cfa_offset 116
 197 0182 4EB9 0000 	jsr OS_QueueCreate
 197      0000 
 198 0188 4FEF 0014 	lea (20,%sp),%sp
 199               	.cfi_def_cfa_offset 96
 200 018c 2F40 0050 	move.l %d0,80(%sp)
 214:/home/simulink/cFS_FreeRTOS_seL4/cfe/fsw/cfe-core/src/sb/cfe_sb_api.c ****     if (Status != OS_SUCCESS) {
68K GAS   			page 9


 201               	.loc 1 214 0
 202 0190 4AAF 0050 	tst.l 80(%sp)
 203 0194 675A      	jeq .L7
 215:/home/simulink/cFS_FreeRTOS_seL4/cfe/fsw/cfe-core/src/sb/cfe_sb_api.c ****         CFE_SB_UnlockSharedData(__func__,__LINE__);
 204               	.loc 1 215 0
 205 0196 4878 00D7 	pea 215.w
 206               	.cfi_def_cfa_offset 100
 207 019a 4879 0000 	pea __func__.5596
 207      0000 
 208               	.cfi_def_cfa_offset 104
 209 01a0 4EB9 0000 	jsr CFE_SB_UnlockSharedData
 209      0000 
 210 01a6 508F      	addq.l #8,%sp
 211               	.cfi_def_cfa_offset 96
 216:/home/simulink/cFS_FreeRTOS_seL4/cfe/fsw/cfe-core/src/sb/cfe_sb_api.c ****         CFE_EVS_SendEventWithAppID(CFE_SB_CR_PIPE_ERR_EID,CFE_EVS_ERROR,CFE_SB.AppId,
 212               	.loc 1 216 0
 213 01a8 200F      	move.l %sp,%d0
 214 01aa 0680 0000 	add.l #12,%d0
 214      000C 
 215 01b0 2F00      	move.l %d0,-(%sp)
 216               	.cfi_def_cfa_offset 100
 217 01b2 2F2F 005C 	move.l 92(%sp),-(%sp)
 218               	.cfi_def_cfa_offset 104
 219 01b6 4EB9 0000 	jsr CFE_SB_GetAppTskName
 219      0000 
 220 01bc 508F      	addq.l #8,%sp
 221               	.cfi_def_cfa_offset 96
 222 01be 2200      	move.l %d0,%d1
 223 01c0 2039 0000 	move.l CFE_SB+12,%d0
 223      0000 
 224 01c6 2F01      	move.l %d1,-(%sp)
 225               	.cfi_def_cfa_offset 100
 226 01c8 2F2F 0054 	move.l 84(%sp),-(%sp)
 227               	.cfi_def_cfa_offset 104
 228 01cc 4879 0000 	pea .LC2
 228      0000 
 229               	.cfi_def_cfa_offset 108
 230 01d2 2F00      	move.l %d0,-(%sp)
 231               	.cfi_def_cfa_offset 112
 232 01d4 4878 0003 	pea 3.w
 233               	.cfi_def_cfa_offset 116
 234 01d8 4878 0004 	pea 4.w
 235               	.cfi_def_cfa_offset 120
 236 01dc 4EB9 0000 	jsr CFE_EVS_SendEventWithAppID
 236      0000 
 237 01e2 4FEF 0018 	lea (24,%sp),%sp
 238               	.cfi_def_cfa_offset 96
 217:/home/simulink/cFS_FreeRTOS_seL4/cfe/fsw/cfe-core/src/sb/cfe_sb_api.c ****                 "CreatePipeErr:OS_QueueCreate returned %d,app %s",
 218:/home/simulink/cFS_FreeRTOS_seL4/cfe/fsw/cfe-core/src/sb/cfe_sb_api.c ****                 (int)Status,CFE_SB_GetAppTskName(TskId,FullName));
 219:/home/simulink/cFS_FreeRTOS_seL4/cfe/fsw/cfe-core/src/sb/cfe_sb_api.c ****         return CFE_SB_PIPE_CR_ERR;
 239               	.loc 1 219 0
 240 01e6 203C CA00 	move.l #-905969659,%d0
 240      0005 
 241 01ec 6000 02B2 	jra .L10
 242               	.L7:
 220:/home/simulink/cFS_FreeRTOS_seL4/cfe/fsw/cfe-core/src/sb/cfe_sb_api.c ****     }/* end if */
 221:/home/simulink/cFS_FreeRTOS_seL4/cfe/fsw/cfe-core/src/sb/cfe_sb_api.c **** 
68K GAS   			page 10


 222:/home/simulink/cFS_FreeRTOS_seL4/cfe/fsw/cfe-core/src/sb/cfe_sb_api.c ****     /* get callers AppId */
 223:/home/simulink/cFS_FreeRTOS_seL4/cfe/fsw/cfe-core/src/sb/cfe_sb_api.c ****     CFE_ES_GetAppID(&AppId);
 243               	.loc 1 223 0
 244 01f0 200F      	move.l %sp,%d0
 245 01f2 0680 0000 	add.l #76,%d0
 245      004C 
 246 01f8 2F00      	move.l %d0,-(%sp)
 247               	.cfi_def_cfa_offset 100
 248 01fa 4EB9 0000 	jsr CFE_ES_GetAppID
 248      0000 
 249 0200 588F      	addq.l #4,%sp
 250               	.cfi_def_cfa_offset 96
 224:/home/simulink/cFS_FreeRTOS_seL4/cfe/fsw/cfe-core/src/sb/cfe_sb_api.c **** 
 225:/home/simulink/cFS_FreeRTOS_seL4/cfe/fsw/cfe-core/src/sb/cfe_sb_api.c ****     /* get callers name */
 226:/home/simulink/cFS_FreeRTOS_seL4/cfe/fsw/cfe-core/src/sb/cfe_sb_api.c ****     CFE_ES_GetAppName(AppName, AppId, OS_MAX_API_NAME);
 251               	.loc 1 226 0
 252 0202 202F 004C 	move.l 76(%sp),%d0
 253 0206 4878 0014 	pea 20.w
 254               	.cfi_def_cfa_offset 100
 255 020a 2F00      	move.l %d0,-(%sp)
 256               	.cfi_def_cfa_offset 104
 257 020c 200F      	move.l %sp,%d0
 258 020e 0680 0000 	add.l #60,%d0
 258      003C 
 259 0214 2F00      	move.l %d0,-(%sp)
 260               	.cfi_def_cfa_offset 108
 261 0216 4EB9 0000 	jsr CFE_ES_GetAppName
 261      0000 
 262 021c 4FEF 000C 	lea (12,%sp),%sp
 263               	.cfi_def_cfa_offset 96
 227:/home/simulink/cFS_FreeRTOS_seL4/cfe/fsw/cfe-core/src/sb/cfe_sb_api.c **** 
 228:/home/simulink/cFS_FreeRTOS_seL4/cfe/fsw/cfe-core/src/sb/cfe_sb_api.c ****     /* Hardcode a NULL terminator, in case rcvd name was too long */
 229:/home/simulink/cFS_FreeRTOS_seL4/cfe/fsw/cfe-core/src/sb/cfe_sb_api.c ****     AppName[OS_MAX_API_NAME-1]= '\0';
 264               	.loc 1 229 0
 265 0220 4201      	clr.b %d1
 266 0222 1F41 0047 	move.b %d1,71(%sp)
 230:/home/simulink/cFS_FreeRTOS_seL4/cfe/fsw/cfe-core/src/sb/cfe_sb_api.c **** 
 231:/home/simulink/cFS_FreeRTOS_seL4/cfe/fsw/cfe-core/src/sb/cfe_sb_api.c ****     /* fill in the pipe table fields */
 232:/home/simulink/cFS_FreeRTOS_seL4/cfe/fsw/cfe-core/src/sb/cfe_sb_api.c ****     CFE_SB.PipeTbl[PipeTblIdx].InUse       = CFE_SB_IN_USE;
 267               	.loc 1 232 0
 268 0226 4280      	clr.l %d0
 269 0228 102F 0057 	move.b 87(%sp),%d0
 270 022c 7444      	moveq #68,%d2
 271 022e 4C02 0800 	muls.l %d2,%d0
 272 0232 41F9 0000 	lea CFE_SB+148,%a0
 272      0000 
 273 0238 7201      	moveq #1,%d1
 274 023a 1181 0800 	move.b %d1,(%a0,%d0.l)
 233:/home/simulink/cFS_FreeRTOS_seL4/cfe/fsw/cfe-core/src/sb/cfe_sb_api.c ****     CFE_SB.PipeTbl[PipeTblIdx].SysQueueId  = SysQueueId;
 275               	.loc 1 233 0
 276 023e 4280      	clr.l %d0
 277 0240 102F 0057 	move.b 87(%sp),%d0
 278 0244 222F 0048 	move.l 72(%sp),%d1
 279 0248 7444      	moveq #68,%d2
 280 024a 4C02 0800 	muls.l %d2,%d0
 281 024e 41F9 0000 	lea CFE_SB+196,%a0
 281      0000 
68K GAS   			page 11


 282 0254 2181 0800 	move.l %d1,(%a0,%d0.l)
 234:/home/simulink/cFS_FreeRTOS_seL4/cfe/fsw/cfe-core/src/sb/cfe_sb_api.c ****     CFE_SB.PipeTbl[PipeTblIdx].PipeId      = PipeTblIdx;
 283               	.loc 1 234 0
 284 0258 4280      	clr.l %d0
 285 025a 102F 0057 	move.b 87(%sp),%d0
 286 025e 7244      	moveq #68,%d1
 287 0260 4C01 0800 	muls.l %d1,%d0
 288 0264 41F9 0000 	lea CFE_SB+149,%a0
 288      0000 
 289 026a 43EF 0057 	lea (87,%sp),%a1
 290 026e 1191 0800 	move.b (%a1),(%a0,%d0.l)
 235:/home/simulink/cFS_FreeRTOS_seL4/cfe/fsw/cfe-core/src/sb/cfe_sb_api.c ****     CFE_SB.PipeTbl[PipeTblIdx].QueueDepth  = Depth;
 291               	.loc 1 235 0
 292 0272 4280      	clr.l %d0
 293 0274 102F 0057 	move.b 87(%sp),%d0
 294 0278 7244      	moveq #68,%d1
 295 027a 4C01 0800 	muls.l %d1,%d0
 296 027e 41F9 0000 	lea CFE_SB+204,%a0
 296      0000 
 297 0284 43EF 0008 	lea (8,%sp),%a1
 298 0288 3191 0800 	move.w (%a1),(%a0,%d0.l)
 236:/home/simulink/cFS_FreeRTOS_seL4/cfe/fsw/cfe-core/src/sb/cfe_sb_api.c ****     CFE_SB.PipeTbl[PipeTblIdx].AppId       = AppId;
 299               	.loc 1 236 0
 300 028c 4280      	clr.l %d0
 301 028e 102F 0057 	move.b 87(%sp),%d0
 302 0292 222F 004C 	move.l 76(%sp),%d1
 303 0296 7444      	moveq #68,%d2
 304 0298 4C02 0800 	muls.l %d2,%d0
 305 029c 41F9 0000 	lea CFE_SB+192,%a0
 305      0000 
 306 02a2 2181 0800 	move.l %d1,(%a0,%d0.l)
 237:/home/simulink/cFS_FreeRTOS_seL4/cfe/fsw/cfe-core/src/sb/cfe_sb_api.c ****     CFE_SB.PipeTbl[PipeTblIdx].SendErrors  = 0;
 307               	.loc 1 237 0
 308 02a6 4280      	clr.l %d0
 309 02a8 102F 0057 	move.b 87(%sp),%d0
 310 02ac 7244      	moveq #68,%d1
 311 02ae 4C01 0800 	muls.l %d1,%d0
 312 02b2 41F9 0000 	lea CFE_SB+206,%a0
 312      0000 
 313 02b8 4242      	clr.w %d2
 314 02ba 3182 0800 	move.w %d2,(%a0,%d0.l)
 238:/home/simulink/cFS_FreeRTOS_seL4/cfe/fsw/cfe-core/src/sb/cfe_sb_api.c ****     CFE_SB.PipeTbl[PipeTblIdx].CurrentBuff = NULL;
 315               	.loc 1 238 0
 316 02be 4280      	clr.l %d0
 317 02c0 102F 0057 	move.b 87(%sp),%d0
 318 02c4 7244      	moveq #68,%d1
 319 02c6 4C01 0800 	muls.l %d1,%d0
 320 02ca 41F9 0000 	lea CFE_SB+208,%a0
 320      0000 
 321 02d0 42B0 0800 	clr.l (%a0,%d0.l)
 239:/home/simulink/cFS_FreeRTOS_seL4/cfe/fsw/cfe-core/src/sb/cfe_sb_api.c ****     CFE_SB.PipeTbl[PipeTblIdx].ToTrashBuff = NULL;
 322               	.loc 1 239 0
 323 02d4 4280      	clr.l %d0
 324 02d6 102F 0057 	move.b 87(%sp),%d0
 325 02da 7444      	moveq #68,%d2
 326 02dc 4C02 0800 	muls.l %d2,%d0
 327 02e0 41F9 0000 	lea CFE_SB+212,%a0
68K GAS   			page 12


 327      0000 
 328 02e6 42B0 0800 	clr.l (%a0,%d0.l)
 240:/home/simulink/cFS_FreeRTOS_seL4/cfe/fsw/cfe-core/src/sb/cfe_sb_api.c ****     strcpy(&CFE_SB.PipeTbl[PipeTblIdx].AppName[0],&AppName[0]);
 329               	.loc 1 240 0
 330 02ea 4280      	clr.l %d0
 331 02ec 102F 0057 	move.b 87(%sp),%d0
 332 02f0 7244      	moveq #68,%d1
 333 02f2 4C01 0800 	muls.l %d1,%d0
 334 02f6 0680 0000 	add.l #168,%d0
 334      00A8 
 335 02fc 0680 0000 	add.l #CFE_SB,%d0
 335      0000 
 336 0302 2200      	move.l %d0,%d1
 337 0304 5481      	addq.l #2,%d1
 338 0306 200F      	move.l %sp,%d0
 339 0308 0680 0000 	add.l #52,%d0
 339      0034 
 340 030e 2F00      	move.l %d0,-(%sp)
 341               	.cfi_def_cfa_offset 100
 342 0310 2F01      	move.l %d1,-(%sp)
 343               	.cfi_def_cfa_offset 104
 344 0312 4EB9 0000 	jsr strcpy
 344      0000 
 345 0318 508F      	addq.l #8,%sp
 346               	.cfi_def_cfa_offset 96
 241:/home/simulink/cFS_FreeRTOS_seL4/cfe/fsw/cfe-core/src/sb/cfe_sb_api.c ****     strncpy(&CFE_SB.PipeTbl[PipeTblIdx].PipeName[0],PipeName,OS_MAX_API_NAME);
 347               	.loc 1 241 0
 348 031a 4280      	clr.l %d0
 349 031c 102F 0057 	move.b 87(%sp),%d0
 350 0320 7444      	moveq #68,%d2
 351 0322 4C02 0800 	muls.l %d2,%d0
 352 0326 0680 0000 	add.l #148,%d0
 352      0094 
 353 032c 0680 0000 	add.l #CFE_SB,%d0
 353      0000 
 354 0332 5480      	addq.l #2,%d0
 355 0334 4878 0014 	pea 20.w
 356               	.cfi_def_cfa_offset 100
 357 0338 2F2F 006C 	move.l 108(%sp),-(%sp)
 358               	.cfi_def_cfa_offset 104
 359 033c 2F00      	move.l %d0,-(%sp)
 360               	.cfi_def_cfa_offset 108
 361 033e 4EB9 0000 	jsr strncpy
 361      0000 
 362 0344 4FEF 000C 	lea (12,%sp),%sp
 363               	.cfi_def_cfa_offset 96
 242:/home/simulink/cFS_FreeRTOS_seL4/cfe/fsw/cfe-core/src/sb/cfe_sb_api.c ****     CFE_SB.PipeTbl[PipeTblIdx].PipeName[OS_MAX_API_NAME-1]='\0';
 364               	.loc 1 242 0
 365 0348 4280      	clr.l %d0
 366 034a 102F 0057 	move.b 87(%sp),%d0
 367 034e 7244      	moveq #68,%d1
 368 0350 4C01 0800 	muls.l %d1,%d0
 369 0354 41F9 0000 	lea CFE_SB+169,%a0
 369      0000 
 370 035a 4202      	clr.b %d2
 371 035c 1182 0800 	move.b %d2,(%a0,%d0.l)
 243:/home/simulink/cFS_FreeRTOS_seL4/cfe/fsw/cfe-core/src/sb/cfe_sb_api.c **** 
68K GAS   			page 13


 244:/home/simulink/cFS_FreeRTOS_seL4/cfe/fsw/cfe-core/src/sb/cfe_sb_api.c ****     /* Increment the Pipes in use ctr and if it's > the high water mark,*/
 245:/home/simulink/cFS_FreeRTOS_seL4/cfe/fsw/cfe-core/src/sb/cfe_sb_api.c ****     /* adjust the high water mark */
 246:/home/simulink/cFS_FreeRTOS_seL4/cfe/fsw/cfe-core/src/sb/cfe_sb_api.c ****     CFE_SB.StatTlmMsg.Payload.PipesInUse++;
 372               	.loc 1 246 0
 373 0360 2039 0000 	move.l CFE_SB+4564,%d0
 373      0000 
 374 0366 5280      	addq.l #1,%d0
 375 0368 23C0 0000 	move.l %d0,CFE_SB+4564
 375      0000 
 247:/home/simulink/cFS_FreeRTOS_seL4/cfe/fsw/cfe-core/src/sb/cfe_sb_api.c ****     if(CFE_SB.StatTlmMsg.Payload.PipesInUse > CFE_SB.StatTlmMsg.Payload.PeakPipesInUse){
 376               	.loc 1 247 0
 377 036e 2239 0000 	move.l CFE_SB+4564,%d1
 377      0000 
 378 0374 2039 0000 	move.l CFE_SB+4568,%d0
 378      0000 
 379 037a B081      	cmp.l %d1,%d0
 380 037c 640C      	jcc .L8
 248:/home/simulink/cFS_FreeRTOS_seL4/cfe/fsw/cfe-core/src/sb/cfe_sb_api.c ****        CFE_SB.StatTlmMsg.Payload.PeakPipesInUse = CFE_SB.StatTlmMsg.Payload.PipesInUse;
 381               	.loc 1 248 0
 382 037e 2039 0000 	move.l CFE_SB+4564,%d0
 382      0000 
 383 0384 23C0 0000 	move.l %d0,CFE_SB+4568
 383      0000 
 384               	.L8:
 249:/home/simulink/cFS_FreeRTOS_seL4/cfe/fsw/cfe-core/src/sb/cfe_sb_api.c ****     }/* end if */
 250:/home/simulink/cFS_FreeRTOS_seL4/cfe/fsw/cfe-core/src/sb/cfe_sb_api.c **** 
 251:/home/simulink/cFS_FreeRTOS_seL4/cfe/fsw/cfe-core/src/sb/cfe_sb_api.c ****     /* Reset the pipe depth parameters in the statistics pkt */
 252:/home/simulink/cFS_FreeRTOS_seL4/cfe/fsw/cfe-core/src/sb/cfe_sb_api.c ****     if (PipeTblIdx < CFE_SB_TLM_PIPEDEPTHSTATS_SIZE)
 385               	.loc 1 252 0
 386 038a 4280      	clr.l %d0
 387 038c 102F 0057 	move.b 87(%sp),%d0
 388 0390 723F      	moveq #63,%d1
 389 0392 B280      	cmp.l %d0,%d1
 390 0394 656C      	jcs .L9
 253:/home/simulink/cFS_FreeRTOS_seL4/cfe/fsw/cfe-core/src/sb/cfe_sb_api.c ****     {
 254:/home/simulink/cFS_FreeRTOS_seL4/cfe/fsw/cfe-core/src/sb/cfe_sb_api.c ****     CFE_SB.StatTlmMsg.Payload.PipeDepthStats[PipeTblIdx].PipeId = PipeTblIdx;
 391               	.loc 1 254 0
 392 0396 4280      	clr.l %d0
 393 0398 102F 0057 	move.b 87(%sp),%d0
 394 039c 0680 0000 	add.l #9,%d0
 394      0009 
 395 03a2 E788      	lsl.l #3,%d0
 396 03a4 41F9 0000 	lea CFE_SB+4540,%a0
 396      0000 
 397 03aa 43EF 0057 	lea (87,%sp),%a1
 398 03ae 1191 0800 	move.b (%a1),(%a0,%d0.l)
 255:/home/simulink/cFS_FreeRTOS_seL4/cfe/fsw/cfe-core/src/sb/cfe_sb_api.c ****     CFE_SB.StatTlmMsg.Payload.PipeDepthStats[PipeTblIdx].Depth = Depth;
 399               	.loc 1 255 0
 400 03b2 4280      	clr.l %d0
 401 03b4 102F 0057 	move.b 87(%sp),%d0
 402 03b8 0680 0000 	add.l #9,%d0
 402      0009 
 403 03be E788      	lsl.l #3,%d0
 404 03c0 41F9 0000 	lea CFE_SB+4542,%a0
 404      0000 
 405 03c6 43EF 0008 	lea (8,%sp),%a1
 406 03ca 3191 0800 	move.w (%a1),(%a0,%d0.l)
68K GAS   			page 14


 256:/home/simulink/cFS_FreeRTOS_seL4/cfe/fsw/cfe-core/src/sb/cfe_sb_api.c ****     CFE_SB.StatTlmMsg.Payload.PipeDepthStats[PipeTblIdx].InUse = 0;
 407               	.loc 1 256 0
 408 03ce 4280      	clr.l %d0
 409 03d0 102F 0057 	move.b 87(%sp),%d0
 410 03d4 0680 0000 	add.l #577,%d0
 410      0241 
 411 03da E788      	lsl.l #3,%d0
 412 03dc 41F9 0000 	lea CFE_SB,%a0
 412      0000 
 413 03e2 4241      	clr.w %d1
 414 03e4 3181 0800 	move.w %d1,(%a0,%d0.l)
 257:/home/simulink/cFS_FreeRTOS_seL4/cfe/fsw/cfe-core/src/sb/cfe_sb_api.c ****     CFE_SB.StatTlmMsg.Payload.PipeDepthStats[PipeTblIdx].PeakInUse = 0;
 415               	.loc 1 257 0
 416 03e8 4280      	clr.l %d0
 417 03ea 102F 0057 	move.b 87(%sp),%d0
 418 03ee 0680 0000 	add.l #577,%d0
 418      0241 
 419 03f4 E788      	lsl.l #3,%d0
 420 03f6 41F9 0000 	lea CFE_SB+2,%a0
 420      0000 
 421 03fc 4242      	clr.w %d2
 422 03fe 3182 0800 	move.w %d2,(%a0,%d0.l)
 423               	.L9:
 258:/home/simulink/cFS_FreeRTOS_seL4/cfe/fsw/cfe-core/src/sb/cfe_sb_api.c ****     }
 259:/home/simulink/cFS_FreeRTOS_seL4/cfe/fsw/cfe-core/src/sb/cfe_sb_api.c **** 
 260:/home/simulink/cFS_FreeRTOS_seL4/cfe/fsw/cfe-core/src/sb/cfe_sb_api.c ****     /* give the pipe handle to the caller */
 261:/home/simulink/cFS_FreeRTOS_seL4/cfe/fsw/cfe-core/src/sb/cfe_sb_api.c ****     *PipeIdPtr = PipeTblIdx;
 424               	.loc 1 261 0
 425 0402 206F 0060 	move.l 96(%sp),%a0
 426 0406 10AF 0057 	move.b 87(%sp),(%a0)
 262:/home/simulink/cFS_FreeRTOS_seL4/cfe/fsw/cfe-core/src/sb/cfe_sb_api.c **** 
 263:/home/simulink/cFS_FreeRTOS_seL4/cfe/fsw/cfe-core/src/sb/cfe_sb_api.c ****     CFE_SB_UnlockSharedData(__func__,__LINE__);
 427               	.loc 1 263 0
 428 040a 4878 0107 	pea 263.w
 429               	.cfi_def_cfa_offset 100
 430 040e 4879 0000 	pea __func__.5596
 430      0000 
 431               	.cfi_def_cfa_offset 104
 432 0414 4EB9 0000 	jsr CFE_SB_UnlockSharedData
 432      0000 
 433 041a 508F      	addq.l #8,%sp
 434               	.cfi_def_cfa_offset 96
 264:/home/simulink/cFS_FreeRTOS_seL4/cfe/fsw/cfe-core/src/sb/cfe_sb_api.c **** 
 265:/home/simulink/cFS_FreeRTOS_seL4/cfe/fsw/cfe-core/src/sb/cfe_sb_api.c ****     /* send debug event */
 266:/home/simulink/cFS_FreeRTOS_seL4/cfe/fsw/cfe-core/src/sb/cfe_sb_api.c ****     CFE_EVS_SendEventWithAppID(CFE_SB_PIPE_ADDED_EID,CFE_EVS_DEBUG,CFE_SB.AppId,
 435               	.loc 1 266 0
 436 041c 200F      	move.l %sp,%d0
 437 041e 0680 0000 	add.l #12,%d0
 437      000C 
 438 0424 2F00      	move.l %d0,-(%sp)
 439               	.cfi_def_cfa_offset 100
 440 0426 2F2F 005C 	move.l 92(%sp),-(%sp)
 441               	.cfi_def_cfa_offset 104
 442 042a 4EB9 0000 	jsr CFE_SB_GetAppTskName
 442      0000 
 443 0430 508F      	addq.l #8,%sp
 444               	.cfi_def_cfa_offset 96
68K GAS   			page 15


 445 0432 2600      	move.l %d0,%d3
 267:/home/simulink/cFS_FreeRTOS_seL4/cfe/fsw/cfe-core/src/sb/cfe_sb_api.c ****           "Pipe Created:name %s,id %d,app %s",
 268:/home/simulink/cFS_FreeRTOS_seL4/cfe/fsw/cfe-core/src/sb/cfe_sb_api.c ****           CFE_SB_GetPipeName(CFE_SB.PipeTbl[PipeTblIdx].PipeId),
 269:/home/simulink/cFS_FreeRTOS_seL4/cfe/fsw/cfe-core/src/sb/cfe_sb_api.c ****           (int)CFE_SB.PipeTbl[PipeTblIdx].PipeId,
 446               	.loc 1 269 0
 447 0434 4280      	clr.l %d0
 448 0436 102F 0057 	move.b 87(%sp),%d0
 449 043a 7244      	moveq #68,%d1
 450 043c 4C01 0800 	muls.l %d1,%d0
 451 0440 41F9 0000 	lea CFE_SB+149,%a0
 451      0000 
 452 0446 1030 0800 	move.b (%a0,%d0.l),%d0
 266:/home/simulink/cFS_FreeRTOS_seL4/cfe/fsw/cfe-core/src/sb/cfe_sb_api.c ****           "Pipe Created:name %s,id %d,app %s",
 453               	.loc 1 266 0
 454 044a 4282      	clr.l %d2
 455 044c 1400      	move.b %d0,%d2
 268:/home/simulink/cFS_FreeRTOS_seL4/cfe/fsw/cfe-core/src/sb/cfe_sb_api.c ****           (int)CFE_SB.PipeTbl[PipeTblIdx].PipeId,
 456               	.loc 1 268 0
 457 044e 4280      	clr.l %d0
 458 0450 102F 0057 	move.b 87(%sp),%d0
 459 0454 7244      	moveq #68,%d1
 460 0456 4C01 0800 	muls.l %d1,%d0
 461 045a 41F9 0000 	lea CFE_SB+149,%a0
 461      0000 
 462 0460 1030 0800 	move.b (%a0,%d0.l),%d0
 266:/home/simulink/cFS_FreeRTOS_seL4/cfe/fsw/cfe-core/src/sb/cfe_sb_api.c ****           "Pipe Created:name %s,id %d,app %s",
 463               	.loc 1 266 0
 464 0464 1000      	move.b %d0,%d0
 465 0466 0280 0000 	and.l #255,%d0
 465      00FF 
 466 046c 2F00      	move.l %d0,-(%sp)
 467               	.cfi_def_cfa_offset 100
 468 046e 4EB9 0000 	jsr CFE_SB_GetPipeName
 468      0000 
 469 0474 588F      	addq.l #4,%sp
 470               	.cfi_def_cfa_offset 96
 471 0476 2200      	move.l %d0,%d1
 472 0478 2039 0000 	move.l CFE_SB+12,%d0
 472      0000 
 473 047e 2F03      	move.l %d3,-(%sp)
 474               	.cfi_def_cfa_offset 100
 475 0480 2F02      	move.l %d2,-(%sp)
 476               	.cfi_def_cfa_offset 104
 477 0482 2F01      	move.l %d1,-(%sp)
 478               	.cfi_def_cfa_offset 108
 479 0484 4879 0000 	pea .LC3
 479      0000 
 480               	.cfi_def_cfa_offset 112
 481 048a 2F00      	move.l %d0,-(%sp)
 482               	.cfi_def_cfa_offset 116
 483 048c 4878 0001 	pea 1.w
 484               	.cfi_def_cfa_offset 120
 485 0490 4878 0005 	pea 5.w
 486               	.cfi_def_cfa_offset 124
 487 0494 4EB9 0000 	jsr CFE_EVS_SendEventWithAppID
 487      0000 
 488 049a 4FEF 001C 	lea (28,%sp),%sp
68K GAS   			page 16


 489               	.cfi_def_cfa_offset 96
 270:/home/simulink/cFS_FreeRTOS_seL4/cfe/fsw/cfe-core/src/sb/cfe_sb_api.c ****           CFE_SB_GetAppTskName(TskId,FullName));
 271:/home/simulink/cFS_FreeRTOS_seL4/cfe/fsw/cfe-core/src/sb/cfe_sb_api.c **** 
 272:/home/simulink/cFS_FreeRTOS_seL4/cfe/fsw/cfe-core/src/sb/cfe_sb_api.c ****     return CFE_SUCCESS;
 490               	.loc 1 272 0
 491 049e 4280      	clr.l %d0
 492               	.L10:
 273:/home/simulink/cFS_FreeRTOS_seL4/cfe/fsw/cfe-core/src/sb/cfe_sb_api.c **** 
 274:/home/simulink/cFS_FreeRTOS_seL4/cfe/fsw/cfe-core/src/sb/cfe_sb_api.c **** }/* end CFE_SB_CreatePipe */
 493               	.loc 1 274 0 discriminator 1
 494 04a0 241F      	move.l (%sp)+,%d2
 495 04a2 261F      	move.l (%sp)+,%d3
 496 04a4 4FEF 0054 	lea (84,%sp),%sp
 497 04a8 4E75      	rts
 498               	.cfi_endproc
 499               	.LFE59:
 500               	.sizeCFE_SB_CreatePipe, .-CFE_SB_CreatePipe
 501               	.align2
 502               	.globlCFE_SB_DeletePipe
 503               	.typeCFE_SB_DeletePipe, @function
 504               	CFE_SB_DeletePipe:
 505               	.LFB60:
 275:/home/simulink/cFS_FreeRTOS_seL4/cfe/fsw/cfe-core/src/sb/cfe_sb_api.c **** 
 276:/home/simulink/cFS_FreeRTOS_seL4/cfe/fsw/cfe-core/src/sb/cfe_sb_api.c **** 
 277:/home/simulink/cFS_FreeRTOS_seL4/cfe/fsw/cfe-core/src/sb/cfe_sb_api.c **** /******************************************************************************
 278:/home/simulink/cFS_FreeRTOS_seL4/cfe/fsw/cfe-core/src/sb/cfe_sb_api.c **** **  Function:  CFE_SB_DeletePipe()
 279:/home/simulink/cFS_FreeRTOS_seL4/cfe/fsw/cfe-core/src/sb/cfe_sb_api.c **** **
 280:/home/simulink/cFS_FreeRTOS_seL4/cfe/fsw/cfe-core/src/sb/cfe_sb_api.c **** **  Purpose:
 281:/home/simulink/cFS_FreeRTOS_seL4/cfe/fsw/cfe-core/src/sb/cfe_sb_api.c **** **    Will unsubscribe to all routes associated with the given pipe id, then remove
 282:/home/simulink/cFS_FreeRTOS_seL4/cfe/fsw/cfe-core/src/sb/cfe_sb_api.c **** **    pipe from the pipe table.
 283:/home/simulink/cFS_FreeRTOS_seL4/cfe/fsw/cfe-core/src/sb/cfe_sb_api.c **** **
 284:/home/simulink/cFS_FreeRTOS_seL4/cfe/fsw/cfe-core/src/sb/cfe_sb_api.c **** **  Arguments:
 285:/home/simulink/cFS_FreeRTOS_seL4/cfe/fsw/cfe-core/src/sb/cfe_sb_api.c **** **    PipeId - The ID of the pipe to delete.
 286:/home/simulink/cFS_FreeRTOS_seL4/cfe/fsw/cfe-core/src/sb/cfe_sb_api.c **** **
 287:/home/simulink/cFS_FreeRTOS_seL4/cfe/fsw/cfe-core/src/sb/cfe_sb_api.c **** **  Return:
 288:/home/simulink/cFS_FreeRTOS_seL4/cfe/fsw/cfe-core/src/sb/cfe_sb_api.c **** **    CFE_SUCCESS or cFE Error Code
 289:/home/simulink/cFS_FreeRTOS_seL4/cfe/fsw/cfe-core/src/sb/cfe_sb_api.c **** */
 290:/home/simulink/cFS_FreeRTOS_seL4/cfe/fsw/cfe-core/src/sb/cfe_sb_api.c **** int32 CFE_SB_DeletePipe(CFE_SB_PipeId_t PipeId)
 291:/home/simulink/cFS_FreeRTOS_seL4/cfe/fsw/cfe-core/src/sb/cfe_sb_api.c **** {
 506               	.loc 1 291 0
 507               	.cfi_startproc
 508 04aa 4FEF FFF4 	lea (-12,%sp),%sp
 509               	.cfi_def_cfa_offset 16
 510 04ae 202F 0010 	move.l 16(%sp),%d0
 511 04b2 1000      	move.b %d0,%d0
 512 04b4 1E80      	move.b %d0,(%sp)
 292:/home/simulink/cFS_FreeRTOS_seL4/cfe/fsw/cfe-core/src/sb/cfe_sb_api.c ****     uint32  CallerId = 0xFFFFFFFF;
 513               	.loc 1 292 0
 514 04b6 70FF      	moveq #-1,%d0
 515 04b8 2F40 0004 	move.l %d0,4(%sp)
 293:/home/simulink/cFS_FreeRTOS_seL4/cfe/fsw/cfe-core/src/sb/cfe_sb_api.c ****     int32   Status = 0;
 516               	.loc 1 293 0
 517 04bc 42AF 0008 	clr.l 8(%sp)
 294:/home/simulink/cFS_FreeRTOS_seL4/cfe/fsw/cfe-core/src/sb/cfe_sb_api.c **** 
 295:/home/simulink/cFS_FreeRTOS_seL4/cfe/fsw/cfe-core/src/sb/cfe_sb_api.c ****     /* get the callers Application Id */
 296:/home/simulink/cFS_FreeRTOS_seL4/cfe/fsw/cfe-core/src/sb/cfe_sb_api.c ****     CFE_ES_GetAppID(&CallerId);
 518               	.loc 1 296 0
68K GAS   			page 17


 519 04c0 200F      	move.l %sp,%d0
 520 04c2 5880      	addq.l #4,%d0
 521 04c4 2F00      	move.l %d0,-(%sp)
 522               	.cfi_def_cfa_offset 20
 523 04c6 4EB9 0000 	jsr CFE_ES_GetAppID
 523      0000 
 524 04cc 588F      	addq.l #4,%sp
 525               	.cfi_def_cfa_offset 16
 297:/home/simulink/cFS_FreeRTOS_seL4/cfe/fsw/cfe-core/src/sb/cfe_sb_api.c **** 
 298:/home/simulink/cFS_FreeRTOS_seL4/cfe/fsw/cfe-core/src/sb/cfe_sb_api.c ****     Status = CFE_SB_DeletePipeFull(PipeId,CallerId);
 526               	.loc 1 298 0
 527 04ce 222F 0004 	move.l 4(%sp),%d1
 528 04d2 4280      	clr.l %d0
 529 04d4 1017      	move.b (%sp),%d0
 530 04d6 2F01      	move.l %d1,-(%sp)
 531               	.cfi_def_cfa_offset 20
 532 04d8 2F00      	move.l %d0,-(%sp)
 533               	.cfi_def_cfa_offset 24
 534 04da 4EB9 0000 	jsr CFE_SB_DeletePipeFull
 534      0000 
 535 04e0 508F      	addq.l #8,%sp
 536               	.cfi_def_cfa_offset 16
 537 04e2 2F40 0008 	move.l %d0,8(%sp)
 299:/home/simulink/cFS_FreeRTOS_seL4/cfe/fsw/cfe-core/src/sb/cfe_sb_api.c **** 
 300:/home/simulink/cFS_FreeRTOS_seL4/cfe/fsw/cfe-core/src/sb/cfe_sb_api.c ****     return Status;
 538               	.loc 1 300 0
 539 04e6 202F 0008 	move.l 8(%sp),%d0
 301:/home/simulink/cFS_FreeRTOS_seL4/cfe/fsw/cfe-core/src/sb/cfe_sb_api.c **** 
 302:/home/simulink/cFS_FreeRTOS_seL4/cfe/fsw/cfe-core/src/sb/cfe_sb_api.c **** }/* end CFE_SB_DeletePipe */
 540               	.loc 1 302 0
 541 04ea 4FEF 000C 	lea (12,%sp),%sp
 542 04ee 4E75      	rts
 543               	.cfi_endproc
 544               	.LFE60:
 545               	.sizeCFE_SB_DeletePipe, .-CFE_SB_DeletePipe
 546               	.align2
 547               	.globlCFE_SB_DeletePipeWithAppId
 548               	.typeCFE_SB_DeletePipeWithAppId, @function
 549               	CFE_SB_DeletePipeWithAppId:
 550               	.LFB61:
 303:/home/simulink/cFS_FreeRTOS_seL4/cfe/fsw/cfe-core/src/sb/cfe_sb_api.c **** 
 304:/home/simulink/cFS_FreeRTOS_seL4/cfe/fsw/cfe-core/src/sb/cfe_sb_api.c **** 
 305:/home/simulink/cFS_FreeRTOS_seL4/cfe/fsw/cfe-core/src/sb/cfe_sb_api.c **** 
 306:/home/simulink/cFS_FreeRTOS_seL4/cfe/fsw/cfe-core/src/sb/cfe_sb_api.c **** /******************************************************************************
 307:/home/simulink/cFS_FreeRTOS_seL4/cfe/fsw/cfe-core/src/sb/cfe_sb_api.c **** **  Function:  CFE_SB_DeletePipeWithAppId()
 308:/home/simulink/cFS_FreeRTOS_seL4/cfe/fsw/cfe-core/src/sb/cfe_sb_api.c **** **
 309:/home/simulink/cFS_FreeRTOS_seL4/cfe/fsw/cfe-core/src/sb/cfe_sb_api.c **** **  Purpose:
 310:/home/simulink/cFS_FreeRTOS_seL4/cfe/fsw/cfe-core/src/sb/cfe_sb_api.c **** **
 311:/home/simulink/cFS_FreeRTOS_seL4/cfe/fsw/cfe-core/src/sb/cfe_sb_api.c **** **
 312:/home/simulink/cFS_FreeRTOS_seL4/cfe/fsw/cfe-core/src/sb/cfe_sb_api.c **** **  Arguments:
 313:/home/simulink/cFS_FreeRTOS_seL4/cfe/fsw/cfe-core/src/sb/cfe_sb_api.c **** **    PipeId - The ID of the pipe to delete.
 314:/home/simulink/cFS_FreeRTOS_seL4/cfe/fsw/cfe-core/src/sb/cfe_sb_api.c **** **
 315:/home/simulink/cFS_FreeRTOS_seL4/cfe/fsw/cfe-core/src/sb/cfe_sb_api.c **** **  Return:
 316:/home/simulink/cFS_FreeRTOS_seL4/cfe/fsw/cfe-core/src/sb/cfe_sb_api.c **** **    CFE_SUCCESS or cFE Error Code
 317:/home/simulink/cFS_FreeRTOS_seL4/cfe/fsw/cfe-core/src/sb/cfe_sb_api.c **** */
 318:/home/simulink/cFS_FreeRTOS_seL4/cfe/fsw/cfe-core/src/sb/cfe_sb_api.c **** int32 CFE_SB_DeletePipeWithAppId(CFE_SB_PipeId_t PipeId, uint32 AppId)
 319:/home/simulink/cFS_FreeRTOS_seL4/cfe/fsw/cfe-core/src/sb/cfe_sb_api.c **** {
68K GAS   			page 18


 551               	.loc 1 319 0
 552               	.cfi_startproc
 553 04f0 518F      	subq.l #8,%sp
 554               	.cfi_def_cfa_offset 12
 555 04f2 202F 000C 	move.l 12(%sp),%d0
 556 04f6 1000      	move.b %d0,%d0
 557 04f8 1E80      	move.b %d0,(%sp)
 320:/home/simulink/cFS_FreeRTOS_seL4/cfe/fsw/cfe-core/src/sb/cfe_sb_api.c ****     int32   Status = 0;
 558               	.loc 1 320 0
 559 04fa 42AF 0004 	clr.l 4(%sp)
 321:/home/simulink/cFS_FreeRTOS_seL4/cfe/fsw/cfe-core/src/sb/cfe_sb_api.c **** 
 322:/home/simulink/cFS_FreeRTOS_seL4/cfe/fsw/cfe-core/src/sb/cfe_sb_api.c ****     Status = CFE_SB_DeletePipeFull(PipeId,AppId);
 560               	.loc 1 322 0
 561 04fe 4280      	clr.l %d0
 562 0500 1017      	move.b (%sp),%d0
 563 0502 2F2F 0010 	move.l 16(%sp),-(%sp)
 564               	.cfi_def_cfa_offset 16
 565 0506 2F00      	move.l %d0,-(%sp)
 566               	.cfi_def_cfa_offset 20
 567 0508 4EB9 0000 	jsr CFE_SB_DeletePipeFull
 567      0000 
 568 050e 508F      	addq.l #8,%sp
 569               	.cfi_def_cfa_offset 12
 570 0510 2F40 0004 	move.l %d0,4(%sp)
 323:/home/simulink/cFS_FreeRTOS_seL4/cfe/fsw/cfe-core/src/sb/cfe_sb_api.c **** 
 324:/home/simulink/cFS_FreeRTOS_seL4/cfe/fsw/cfe-core/src/sb/cfe_sb_api.c ****     return Status;
 571               	.loc 1 324 0
 572 0514 202F 0004 	move.l 4(%sp),%d0
 325:/home/simulink/cFS_FreeRTOS_seL4/cfe/fsw/cfe-core/src/sb/cfe_sb_api.c **** 
 326:/home/simulink/cFS_FreeRTOS_seL4/cfe/fsw/cfe-core/src/sb/cfe_sb_api.c **** }/* end CFE_SB_DeletePipeWithAppId */
 573               	.loc 1 326 0
 574 0518 508F      	addq.l #8,%sp
 575 051a 4E75      	rts
 576               	.cfi_endproc
 577               	.LFE61:
 578               	.sizeCFE_SB_DeletePipeWithAppId, .-CFE_SB_DeletePipeWithAppId
 579               	.section.rodata
 580               	.LC4:
 581 00bd 5069 7065 	.string"Pipe Delete Error:Bad Argument,PipedId %d,Requestor %s,Idx %d,Stat %d"
 581      2044 656C 
 581      6574 6520 
 581      4572 726F 
 581      723A 4261 
 582               	.LC5:
 583 0103 5069 7065 	.string"Pipe Delete Error:Caller(%s) is not the owner of pipe %d"
 583      2044 656C 
 583      6574 6520 
 583      4572 726F 
 583      723A 4361 
 584               	.LC6:
 585 013c 5069 7065 	.string"Pipe Deleted:id %d,owner %s"
 585      2044 656C 
 585      6574 6564 
 585      3A69 6420 
 585      2564 2C6F 
 586               	.text
 587               	.align2
68K GAS   			page 19


 588               	.globlCFE_SB_DeletePipeFull
 589               	.typeCFE_SB_DeletePipeFull, @function
 590               	CFE_SB_DeletePipeFull:
 591               	.LFB62:
 327:/home/simulink/cFS_FreeRTOS_seL4/cfe/fsw/cfe-core/src/sb/cfe_sb_api.c **** 
 328:/home/simulink/cFS_FreeRTOS_seL4/cfe/fsw/cfe-core/src/sb/cfe_sb_api.c **** 
 329:/home/simulink/cFS_FreeRTOS_seL4/cfe/fsw/cfe-core/src/sb/cfe_sb_api.c **** 
 330:/home/simulink/cFS_FreeRTOS_seL4/cfe/fsw/cfe-core/src/sb/cfe_sb_api.c **** /******************************************************************************
 331:/home/simulink/cFS_FreeRTOS_seL4/cfe/fsw/cfe-core/src/sb/cfe_sb_api.c **** **  Function:  CFE_SB_DeletePipeFull()
 332:/home/simulink/cFS_FreeRTOS_seL4/cfe/fsw/cfe-core/src/sb/cfe_sb_api.c **** **
 333:/home/simulink/cFS_FreeRTOS_seL4/cfe/fsw/cfe-core/src/sb/cfe_sb_api.c **** **  Purpose:
 334:/home/simulink/cFS_FreeRTOS_seL4/cfe/fsw/cfe-core/src/sb/cfe_sb_api.c **** **    Will unsubscribe to all routes associated with the given pipe id, then remove
 335:/home/simulink/cFS_FreeRTOS_seL4/cfe/fsw/cfe-core/src/sb/cfe_sb_api.c **** **    pipe from the pipe table.
 336:/home/simulink/cFS_FreeRTOS_seL4/cfe/fsw/cfe-core/src/sb/cfe_sb_api.c **** **
 337:/home/simulink/cFS_FreeRTOS_seL4/cfe/fsw/cfe-core/src/sb/cfe_sb_api.c **** **  NOTE:This function cannot be called directly, it would not be semaphore protected
 338:/home/simulink/cFS_FreeRTOS_seL4/cfe/fsw/cfe-core/src/sb/cfe_sb_api.c **** **
 339:/home/simulink/cFS_FreeRTOS_seL4/cfe/fsw/cfe-core/src/sb/cfe_sb_api.c **** **  Arguments:
 340:/home/simulink/cFS_FreeRTOS_seL4/cfe/fsw/cfe-core/src/sb/cfe_sb_api.c **** **    PipeId - The ID of the pipe to delete.
 341:/home/simulink/cFS_FreeRTOS_seL4/cfe/fsw/cfe-core/src/sb/cfe_sb_api.c **** **
 342:/home/simulink/cFS_FreeRTOS_seL4/cfe/fsw/cfe-core/src/sb/cfe_sb_api.c **** **  Return:
 343:/home/simulink/cFS_FreeRTOS_seL4/cfe/fsw/cfe-core/src/sb/cfe_sb_api.c **** **    CFE_SUCCESS or cFE Error Code
 344:/home/simulink/cFS_FreeRTOS_seL4/cfe/fsw/cfe-core/src/sb/cfe_sb_api.c **** */
 345:/home/simulink/cFS_FreeRTOS_seL4/cfe/fsw/cfe-core/src/sb/cfe_sb_api.c **** int32 CFE_SB_DeletePipeFull(CFE_SB_PipeId_t PipeId,uint32 AppId)
 346:/home/simulink/cFS_FreeRTOS_seL4/cfe/fsw/cfe-core/src/sb/cfe_sb_api.c **** {
 592               	.loc 1 346 0
 593               	.cfi_startproc
 594 051c 4FEF FFB4 	lea (-76,%sp),%sp
 595               	.cfi_def_cfa_offset 80
 596 0520 2F02      	move.l %d2,-(%sp)
 597               	.cfi_def_cfa_offset 84
 598               	.cfi_offset 2, -84
 599 0522 202F 0054 	move.l 84(%sp),%d0
 600 0526 1000      	move.b %d0,%d0
 601 0528 1F40 0004 	move.b %d0,4(%sp)
 347:/home/simulink/cFS_FreeRTOS_seL4/cfe/fsw/cfe-core/src/sb/cfe_sb_api.c ****     uint8         PipeTblIdx;
 348:/home/simulink/cFS_FreeRTOS_seL4/cfe/fsw/cfe-core/src/sb/cfe_sb_api.c ****     int32         RtnFromVal,Stat;
 349:/home/simulink/cFS_FreeRTOS_seL4/cfe/fsw/cfe-core/src/sb/cfe_sb_api.c ****     uint32        Owner,i;
 350:/home/simulink/cFS_FreeRTOS_seL4/cfe/fsw/cfe-core/src/sb/cfe_sb_api.c ****     uint32        TskId = 0;
 602               	.loc 1 350 0
 603 052c 42AF 0044 	clr.l 68(%sp)
 351:/home/simulink/cFS_FreeRTOS_seL4/cfe/fsw/cfe-core/src/sb/cfe_sb_api.c ****     CFE_SB_Msg_t  *PipeMsgPtr;
 352:/home/simulink/cFS_FreeRTOS_seL4/cfe/fsw/cfe-core/src/sb/cfe_sb_api.c ****     CFE_SB_DestinationD_t *DestPtr = NULL;
 604               	.loc 1 352 0
 605 0530 42AF 0048 	clr.l 72(%sp)
 353:/home/simulink/cFS_FreeRTOS_seL4/cfe/fsw/cfe-core/src/sb/cfe_sb_api.c ****     char          FullName[(OS_MAX_API_NAME * 2)];
 354:/home/simulink/cFS_FreeRTOS_seL4/cfe/fsw/cfe-core/src/sb/cfe_sb_api.c **** 
 355:/home/simulink/cFS_FreeRTOS_seL4/cfe/fsw/cfe-core/src/sb/cfe_sb_api.c ****     /* take semaphore to prevent a task switch during this call */
 356:/home/simulink/cFS_FreeRTOS_seL4/cfe/fsw/cfe-core/src/sb/cfe_sb_api.c ****     CFE_SB_LockSharedData(__func__,__LINE__);
 606               	.loc 1 356 0
 607 0534 4878 0164 	pea 356.w
 608               	.cfi_def_cfa_offset 88
 609 0538 4879 0000 	pea __func__.5620
 609      0000 
 610               	.cfi_def_cfa_offset 92
 611 053e 4EB9 0000 	jsr CFE_SB_LockSharedData
 611      0000 
 612 0544 508F      	addq.l #8,%sp
68K GAS   			page 20


 613               	.cfi_def_cfa_offset 84
 357:/home/simulink/cFS_FreeRTOS_seL4/cfe/fsw/cfe-core/src/sb/cfe_sb_api.c **** 
 358:/home/simulink/cFS_FreeRTOS_seL4/cfe/fsw/cfe-core/src/sb/cfe_sb_api.c ****     /* get TaskId of caller for events */
 359:/home/simulink/cFS_FreeRTOS_seL4/cfe/fsw/cfe-core/src/sb/cfe_sb_api.c ****     TskId = OS_TaskGetId();
 614               	.loc 1 359 0
 615 0546 4EB9 0000 	jsr OS_TaskGetId
 615      0000 
 616 054c 2F40 0044 	move.l %d0,68(%sp)
 360:/home/simulink/cFS_FreeRTOS_seL4/cfe/fsw/cfe-core/src/sb/cfe_sb_api.c **** 
 361:/home/simulink/cFS_FreeRTOS_seL4/cfe/fsw/cfe-core/src/sb/cfe_sb_api.c ****     /* check input parameter */
 362:/home/simulink/cFS_FreeRTOS_seL4/cfe/fsw/cfe-core/src/sb/cfe_sb_api.c ****     PipeTblIdx = CFE_SB_GetPipeIdx(PipeId);
 617               	.loc 1 362 0
 618 0550 4280      	clr.l %d0
 619 0552 102F 0004 	move.b 4(%sp),%d0
 620 0556 2F00      	move.l %d0,-(%sp)
 621               	.cfi_def_cfa_offset 88
 622 0558 4EB9 0000 	jsr CFE_SB_GetPipeIdx
 622      0000 
 623 055e 588F      	addq.l #4,%sp
 624               	.cfi_def_cfa_offset 84
 625 0560 1F40 0043 	move.b %d0,67(%sp)
 363:/home/simulink/cFS_FreeRTOS_seL4/cfe/fsw/cfe-core/src/sb/cfe_sb_api.c ****     RtnFromVal = CFE_SB_ValidatePipeId(PipeId);
 626               	.loc 1 363 0
 627 0564 4280      	clr.l %d0
 628 0566 102F 0004 	move.b 4(%sp),%d0
 629 056a 2F00      	move.l %d0,-(%sp)
 630               	.cfi_def_cfa_offset 88
 631 056c 4EB9 0000 	jsr CFE_SB_ValidatePipeId
 631      0000 
 632 0572 588F      	addq.l #4,%sp
 633               	.cfi_def_cfa_offset 84
 634 0574 2F40 003C 	move.l %d0,60(%sp)
 364:/home/simulink/cFS_FreeRTOS_seL4/cfe/fsw/cfe-core/src/sb/cfe_sb_api.c ****     if((RtnFromVal != CFE_SUCCESS)||(PipeTblIdx == CFE_SB_INVALID_PIPE))
 635               	.loc 1 364 0
 636 0578 4AAF 003C 	tst.l 60(%sp)
 637 057c 660E      	jne .L16
 638               	.loc 1 364 0 is_stmt 0 discriminator 1
 639 057e 4280      	clr.l %d0
 640 0580 102F 0043 	move.b 67(%sp),%d0
 641 0584 0C80 0000 	cmp.l #255,%d0
 641      00FF 
 642 058a 6676      	jne .L17
 643               	.L16:
 365:/home/simulink/cFS_FreeRTOS_seL4/cfe/fsw/cfe-core/src/sb/cfe_sb_api.c ****     {
 366:/home/simulink/cFS_FreeRTOS_seL4/cfe/fsw/cfe-core/src/sb/cfe_sb_api.c ****         CFE_SB.HKTlmMsg.Payload.CreatePipeErrCnt++;
 644               	.loc 1 366 0 is_stmt 1
 645 058c 1039 0000 	move.b CFE_SB+4518,%d0
 645      0000 
 646 0592 5280      	addq.l #1,%d0
 647 0594 1000      	move.b %d0,%d0
 648 0596 13C0 0000 	move.b %d0,CFE_SB+4518
 648      0000 
 367:/home/simulink/cFS_FreeRTOS_seL4/cfe/fsw/cfe-core/src/sb/cfe_sb_api.c ****         CFE_SB_UnlockSharedData(__func__,__LINE__);
 649               	.loc 1 367 0
 650 059c 4878 016F 	pea 367.w
 651               	.cfi_def_cfa_offset 88
 652 05a0 4879 0000 	pea __func__.5620
68K GAS   			page 21


 652      0000 
 653               	.cfi_def_cfa_offset 92
 654 05a6 4EB9 0000 	jsr CFE_SB_UnlockSharedData
 654      0000 
 655 05ac 508F      	addq.l #8,%sp
 656               	.cfi_def_cfa_offset 84
 368:/home/simulink/cFS_FreeRTOS_seL4/cfe/fsw/cfe-core/src/sb/cfe_sb_api.c ****         CFE_EVS_SendEventWithAppID(CFE_SB_DEL_PIPE_ERR1_EID,CFE_EVS_ERROR,CFE_SB.AppId,
 657               	.loc 1 368 0
 658 05ae 4282      	clr.l %d2
 659 05b0 142F 0043 	move.b 67(%sp),%d2
 660 05b4 200F      	move.l %sp,%d0
 661 05b6 5080      	addq.l #8,%d0
 662 05b8 2F00      	move.l %d0,-(%sp)
 663               	.cfi_def_cfa_offset 88
 664 05ba 2F2F 0048 	move.l 72(%sp),-(%sp)
 665               	.cfi_def_cfa_offset 92
 666 05be 4EB9 0000 	jsr CFE_SB_GetAppTskName
 666      0000 
 667 05c4 508F      	addq.l #8,%sp
 668               	.cfi_def_cfa_offset 84
 669 05c6 2040      	move.l %d0,%a0
 670 05c8 4280      	clr.l %d0
 671 05ca 102F 0004 	move.b 4(%sp),%d0
 672 05ce 2239 0000 	move.l CFE_SB+12,%d1
 672      0000 
 673 05d4 2F2F 003C 	move.l 60(%sp),-(%sp)
 674               	.cfi_def_cfa_offset 88
 675 05d8 2F02      	move.l %d2,-(%sp)
 676               	.cfi_def_cfa_offset 92
 677 05da 2F08      	move.l %a0,-(%sp)
 678               	.cfi_def_cfa_offset 96
 679 05dc 2F00      	move.l %d0,-(%sp)
 680               	.cfi_def_cfa_offset 100
 681 05de 4879 0000 	pea .LC4
 681      0000 
 682               	.cfi_def_cfa_offset 104
 683 05e4 2F01      	move.l %d1,-(%sp)
 684               	.cfi_def_cfa_offset 108
 685 05e6 4878 0003 	pea 3.w
 686               	.cfi_def_cfa_offset 112
 687 05ea 4878 002E 	pea 46.w
 688               	.cfi_def_cfa_offset 116
 689 05ee 4EB9 0000 	jsr CFE_EVS_SendEventWithAppID
 689      0000 
 690 05f4 4FEF 0020 	lea (32,%sp),%sp
 691               	.cfi_def_cfa_offset 84
 369:/home/simulink/cFS_FreeRTOS_seL4/cfe/fsw/cfe-core/src/sb/cfe_sb_api.c ****           "Pipe Delete Error:Bad Argument,PipedId %d,Requestor %s,Idx %d,Stat %d",
 370:/home/simulink/cFS_FreeRTOS_seL4/cfe/fsw/cfe-core/src/sb/cfe_sb_api.c ****           (int)PipeId,CFE_SB_GetAppTskName(TskId,FullName),(int)PipeTblIdx,(int)RtnFromVal);
 371:/home/simulink/cFS_FreeRTOS_seL4/cfe/fsw/cfe-core/src/sb/cfe_sb_api.c ****         return CFE_SB_BAD_ARGUMENT;
 692               	.loc 1 371 0
 693 05f8 203C CA00 	move.l #-905969661,%d0
 693      0003 
 694 05fe 6000 0386 	jra .L29
 695               	.L17:
 372:/home/simulink/cFS_FreeRTOS_seL4/cfe/fsw/cfe-core/src/sb/cfe_sb_api.c ****     }/* end if */
 373:/home/simulink/cFS_FreeRTOS_seL4/cfe/fsw/cfe-core/src/sb/cfe_sb_api.c **** 
 374:/home/simulink/cFS_FreeRTOS_seL4/cfe/fsw/cfe-core/src/sb/cfe_sb_api.c ****     Owner = CFE_SB.PipeTbl[PipeTblIdx].AppId;
68K GAS   			page 22


 696               	.loc 1 374 0
 697 0602 4280      	clr.l %d0
 698 0604 102F 0043 	move.b 67(%sp),%d0
 699 0608 7244      	moveq #68,%d1
 700 060a 4C01 0800 	muls.l %d1,%d0
 701 060e 41F9 0000 	lea CFE_SB+192,%a0
 701      0000 
 702 0614 43F0 0800 	lea (%a0,%d0.l),%a1
 703 0618 2F51 0038 	move.l (%a1),56(%sp)
 375:/home/simulink/cFS_FreeRTOS_seL4/cfe/fsw/cfe-core/src/sb/cfe_sb_api.c **** 
 376:/home/simulink/cFS_FreeRTOS_seL4/cfe/fsw/cfe-core/src/sb/cfe_sb_api.c ****     /* check that the given AppId is the owner of the pipe */
 377:/home/simulink/cFS_FreeRTOS_seL4/cfe/fsw/cfe-core/src/sb/cfe_sb_api.c ****     if(AppId != Owner){
 704               	.loc 1 377 0
 705 061c 202F 0038 	move.l 56(%sp),%d0
 706 0620 B0AF 0058 	cmp.l 88(%sp),%d0
 707 0624 676A      	jeq .L19
 378:/home/simulink/cFS_FreeRTOS_seL4/cfe/fsw/cfe-core/src/sb/cfe_sb_api.c ****         CFE_SB.HKTlmMsg.Payload.CreatePipeErrCnt++;
 708               	.loc 1 378 0
 709 0626 1039 0000 	move.b CFE_SB+4518,%d0
 709      0000 
 710 062c 5280      	addq.l #1,%d0
 711 062e 1000      	move.b %d0,%d0
 712 0630 13C0 0000 	move.b %d0,CFE_SB+4518
 712      0000 
 379:/home/simulink/cFS_FreeRTOS_seL4/cfe/fsw/cfe-core/src/sb/cfe_sb_api.c ****         CFE_SB_UnlockSharedData(__func__,__LINE__);
 713               	.loc 1 379 0
 714 0636 4878 017B 	pea 379.w
 715               	.cfi_def_cfa_offset 88
 716 063a 4879 0000 	pea __func__.5620
 716      0000 
 717               	.cfi_def_cfa_offset 92
 718 0640 4EB9 0000 	jsr CFE_SB_UnlockSharedData
 718      0000 
 719 0646 508F      	addq.l #8,%sp
 720               	.cfi_def_cfa_offset 84
 380:/home/simulink/cFS_FreeRTOS_seL4/cfe/fsw/cfe-core/src/sb/cfe_sb_api.c ****         CFE_EVS_SendEventWithAppID(CFE_SB_DEL_PIPE_ERR2_EID,CFE_EVS_ERROR,CFE_SB.AppId,
 721               	.loc 1 380 0
 722 0648 4282      	clr.l %d2
 723 064a 142F 0004 	move.b 4(%sp),%d2
 724 064e 200F      	move.l %sp,%d0
 725 0650 5080      	addq.l #8,%d0
 726 0652 2F00      	move.l %d0,-(%sp)
 727               	.cfi_def_cfa_offset 88
 728 0654 2F2F 0048 	move.l 72(%sp),-(%sp)
 729               	.cfi_def_cfa_offset 92
 730 0658 4EB9 0000 	jsr CFE_SB_GetAppTskName
 730      0000 
 731 065e 508F      	addq.l #8,%sp
 732               	.cfi_def_cfa_offset 84
 733 0660 2200      	move.l %d0,%d1
 734 0662 2039 0000 	move.l CFE_SB+12,%d0
 734      0000 
 735 0668 2F02      	move.l %d2,-(%sp)
 736               	.cfi_def_cfa_offset 88
 737 066a 2F01      	move.l %d1,-(%sp)
 738               	.cfi_def_cfa_offset 92
 739 066c 4879 0000 	pea .LC5
68K GAS   			page 23


 739      0000 
 740               	.cfi_def_cfa_offset 96
 741 0672 2F00      	move.l %d0,-(%sp)
 742               	.cfi_def_cfa_offset 100
 743 0674 4878 0003 	pea 3.w
 744               	.cfi_def_cfa_offset 104
 745 0678 4878 0036 	pea 54.w
 746               	.cfi_def_cfa_offset 108
 747 067c 4EB9 0000 	jsr CFE_EVS_SendEventWithAppID
 747      0000 
 748 0682 4FEF 0018 	lea (24,%sp),%sp
 749               	.cfi_def_cfa_offset 84
 381:/home/simulink/cFS_FreeRTOS_seL4/cfe/fsw/cfe-core/src/sb/cfe_sb_api.c ****           "Pipe Delete Error:Caller(%s) is not the owner of pipe %d",
 382:/home/simulink/cFS_FreeRTOS_seL4/cfe/fsw/cfe-core/src/sb/cfe_sb_api.c ****           CFE_SB_GetAppTskName(TskId,FullName),PipeId);
 383:/home/simulink/cFS_FreeRTOS_seL4/cfe/fsw/cfe-core/src/sb/cfe_sb_api.c ****         return CFE_SB_BAD_ARGUMENT;
 750               	.loc 1 383 0
 751 0686 203C CA00 	move.l #-905969661,%d0
 751      0003 
 752 068c 6000 02F8 	jra .L29
 753               	.L19:
 384:/home/simulink/cFS_FreeRTOS_seL4/cfe/fsw/cfe-core/src/sb/cfe_sb_api.c ****     }/* end if */
 385:/home/simulink/cFS_FreeRTOS_seL4/cfe/fsw/cfe-core/src/sb/cfe_sb_api.c **** 
 386:/home/simulink/cFS_FreeRTOS_seL4/cfe/fsw/cfe-core/src/sb/cfe_sb_api.c ****     /* check destination list of every in-use MsgId, for the given pipeid. */
 387:/home/simulink/cFS_FreeRTOS_seL4/cfe/fsw/cfe-core/src/sb/cfe_sb_api.c ****     /* when found, remove the pipe ID from the destination list via 'unsubscribe' */
 388:/home/simulink/cFS_FreeRTOS_seL4/cfe/fsw/cfe-core/src/sb/cfe_sb_api.c ****     for(i=0;i<CFE_SB_MAX_MSG_IDS;i++){
 754               	.loc 1 388 0
 755 0690 42AF 004C 	clr.l 76(%sp)
 756 0694 6000 00C6 	jra .L20
 757               	.L25:
 389:/home/simulink/cFS_FreeRTOS_seL4/cfe/fsw/cfe-core/src/sb/cfe_sb_api.c ****         if(CFE_SB.RoutingTbl[i].MsgId != CFE_SB_INVALID_MSG_ID){
 758               	.loc 1 389 0
 759 0698 202F 004C 	move.l 76(%sp),%d0
 760 069c 720C      	moveq #12,%d1
 761 069e 4C01 0800 	muls.l %d1,%d0
 762 06a2 41F9 0000 	lea CFE_SB+545808,%a0
 762      0000 
 763 06a8 3030 0800 	move.w (%a0,%d0.l),%d0
 764 06ac 3000      	move.w %d0,%d0
 765 06ae 0280 0000 	and.l #65535,%d0
 765      FFFF 
 766 06b4 0C80 0000 	cmp.l #65535,%d0
 766      FFFF 
 767 06ba 6700 009C 	jeq .L21
 390:/home/simulink/cFS_FreeRTOS_seL4/cfe/fsw/cfe-core/src/sb/cfe_sb_api.c **** 
 391:/home/simulink/cFS_FreeRTOS_seL4/cfe/fsw/cfe-core/src/sb/cfe_sb_api.c ****             DestPtr = CFE_SB.RoutingTbl[i].ListHeadPtr;
 768               	.loc 1 391 0
 769 06be 202F 004C 	move.l 76(%sp),%d0
 770 06c2 740C      	moveq #12,%d2
 771 06c4 4C02 0800 	muls.l %d2,%d0
 772 06c8 41F9 0000 	lea CFE_SB+545816,%a0
 772      0000 
 773 06ce 43F0 0800 	lea (%a0,%d0.l),%a1
 774 06d2 2F51 0048 	move.l (%a1),72(%sp)
 392:/home/simulink/cFS_FreeRTOS_seL4/cfe/fsw/cfe-core/src/sb/cfe_sb_api.c **** 
 393:/home/simulink/cFS_FreeRTOS_seL4/cfe/fsw/cfe-core/src/sb/cfe_sb_api.c ****             while(DestPtr != NULL){
 775               	.loc 1 393 0
 776 06d6 607A      	jra .L22
68K GAS   			page 24


 777               	.L24:
 394:/home/simulink/cFS_FreeRTOS_seL4/cfe/fsw/cfe-core/src/sb/cfe_sb_api.c **** 
 395:/home/simulink/cFS_FreeRTOS_seL4/cfe/fsw/cfe-core/src/sb/cfe_sb_api.c ****                 if(DestPtr -> PipeId == PipeId){
 778               	.loc 1 395 0
 779 06d8 206F 0048 	move.l 72(%sp),%a0
 780 06dc 1010      	move.b (%a0),%d0
 781 06de 4281      	clr.l %d1
 782 06e0 122F 0004 	move.b 4(%sp),%d1
 783 06e4 1000      	move.b %d0,%d0
 784 06e6 0280 0000 	and.l #255,%d0
 784      00FF 
 785 06ec B081      	cmp.l %d1,%d0
 786 06ee 6658      	jne .L23
 396:/home/simulink/cFS_FreeRTOS_seL4/cfe/fsw/cfe-core/src/sb/cfe_sb_api.c ****                     /* release the semaphore, unsubscribe will need to take it */
 397:/home/simulink/cFS_FreeRTOS_seL4/cfe/fsw/cfe-core/src/sb/cfe_sb_api.c ****                     CFE_SB_UnlockSharedData(__func__,__LINE__);
 787               	.loc 1 397 0
 788 06f0 4878 018D 	pea 397.w
 789               	.cfi_def_cfa_offset 88
 790 06f4 4879 0000 	pea __func__.5620
 790      0000 
 791               	.cfi_def_cfa_offset 92
 792 06fa 4EB9 0000 	jsr CFE_SB_UnlockSharedData
 792      0000 
 793 0700 508F      	addq.l #8,%sp
 794               	.cfi_def_cfa_offset 84
 398:/home/simulink/cFS_FreeRTOS_seL4/cfe/fsw/cfe-core/src/sb/cfe_sb_api.c ****                     CFE_SB_UnsubscribeWithAppId(CFE_SB.RoutingTbl[i].MsgId,
 795               	.loc 1 398 0
 796 0702 4281      	clr.l %d1
 797 0704 122F 0004 	move.b 4(%sp),%d1
 798 0708 202F 004C 	move.l 76(%sp),%d0
 799 070c 740C      	moveq #12,%d2
 800 070e 4C02 0800 	muls.l %d2,%d0
 801 0712 41F9 0000 	lea CFE_SB+545808,%a0
 801      0000 
 802 0718 3030 0800 	move.w (%a0,%d0.l),%d0
 803 071c 3000      	move.w %d0,%d0
 804 071e 0280 0000 	and.l #65535,%d0
 804      FFFF 
 805 0724 2F2F 0058 	move.l 88(%sp),-(%sp)
 806               	.cfi_def_cfa_offset 88
 807 0728 2F01      	move.l %d1,-(%sp)
 808               	.cfi_def_cfa_offset 92
 809 072a 2F00      	move.l %d0,-(%sp)
 810               	.cfi_def_cfa_offset 96
 811 072c 4EB9 0000 	jsr CFE_SB_UnsubscribeWithAppId
 811      0000 
 812 0732 4FEF 000C 	lea (12,%sp),%sp
 813               	.cfi_def_cfa_offset 84
 399:/home/simulink/cFS_FreeRTOS_seL4/cfe/fsw/cfe-core/src/sb/cfe_sb_api.c ****                                        PipeId,AppId);
 400:/home/simulink/cFS_FreeRTOS_seL4/cfe/fsw/cfe-core/src/sb/cfe_sb_api.c ****                     CFE_SB_LockSharedData(__func__,__LINE__);
 814               	.loc 1 400 0
 815 0736 4878 0190 	pea 400.w
 816               	.cfi_def_cfa_offset 88
 817 073a 4879 0000 	pea __func__.5620
 817      0000 
 818               	.cfi_def_cfa_offset 92
 819 0740 4EB9 0000 	jsr CFE_SB_LockSharedData
68K GAS   			page 25


 819      0000 
 820 0746 508F      	addq.l #8,%sp
 821               	.cfi_def_cfa_offset 84
 822               	.L23:
 401:/home/simulink/cFS_FreeRTOS_seL4/cfe/fsw/cfe-core/src/sb/cfe_sb_api.c ****                 }/* end if */
 402:/home/simulink/cFS_FreeRTOS_seL4/cfe/fsw/cfe-core/src/sb/cfe_sb_api.c **** 
 403:/home/simulink/cFS_FreeRTOS_seL4/cfe/fsw/cfe-core/src/sb/cfe_sb_api.c ****                 DestPtr = DestPtr -> Next;
 823               	.loc 1 403 0
 824 0748 206F 0048 	move.l 72(%sp),%a0
 825 074c 2F68 0010 	move.l 16(%a0),72(%sp)
 825      0048 
 826               	.L22:
 393:/home/simulink/cFS_FreeRTOS_seL4/cfe/fsw/cfe-core/src/sb/cfe_sb_api.c **** 
 827               	.loc 1 393 0
 828 0752 4AAF 0048 	tst.l 72(%sp)
 829 0756 6680      	jne .L24
 830               	.L21:
 388:/home/simulink/cFS_FreeRTOS_seL4/cfe/fsw/cfe-core/src/sb/cfe_sb_api.c ****         if(CFE_SB.RoutingTbl[i].MsgId != CFE_SB_INVALID_MSG_ID){
 831               	.loc 1 388 0 discriminator 2
 832 0758 52AF 004C 	addq.l #1,76(%sp)
 833               	.L20:
 388:/home/simulink/cFS_FreeRTOS_seL4/cfe/fsw/cfe-core/src/sb/cfe_sb_api.c ****         if(CFE_SB.RoutingTbl[i].MsgId != CFE_SB_INVALID_MSG_ID){
 834               	.loc 1 388 0 is_stmt 0 discriminator 1
 835 075c 327C 00FF 	move.w #255,%a1
 836 0760 B3EF 004C 	cmp.l 76(%sp),%a1
 837 0764 6400 FF32 	jcc .L25
 404:/home/simulink/cFS_FreeRTOS_seL4/cfe/fsw/cfe-core/src/sb/cfe_sb_api.c **** 
 405:/home/simulink/cFS_FreeRTOS_seL4/cfe/fsw/cfe-core/src/sb/cfe_sb_api.c ****             }/* end while */
 406:/home/simulink/cFS_FreeRTOS_seL4/cfe/fsw/cfe-core/src/sb/cfe_sb_api.c **** 
 407:/home/simulink/cFS_FreeRTOS_seL4/cfe/fsw/cfe-core/src/sb/cfe_sb_api.c ****         }/* end if */
 408:/home/simulink/cFS_FreeRTOS_seL4/cfe/fsw/cfe-core/src/sb/cfe_sb_api.c ****     }/* end for */
 409:/home/simulink/cFS_FreeRTOS_seL4/cfe/fsw/cfe-core/src/sb/cfe_sb_api.c **** 
 410:/home/simulink/cFS_FreeRTOS_seL4/cfe/fsw/cfe-core/src/sb/cfe_sb_api.c ****     if (CFE_SB.PipeTbl[PipeTblIdx].ToTrashBuff != NULL) {
 838               	.loc 1 410 0 is_stmt 1
 839 0768 4280      	clr.l %d0
 840 076a 102F 0043 	move.b 67(%sp),%d0
 841 076e 7244      	moveq #68,%d1
 842 0770 4C01 0800 	muls.l %d1,%d0
 843 0774 41F9 0000 	lea CFE_SB+212,%a0
 843      0000 
 844 077a 2030 0800 	move.l (%a0,%d0.l),%d0
 845 077e 4A80      	tst.l %d0
 846 0780 6736      	jeq .L27
 411:/home/simulink/cFS_FreeRTOS_seL4/cfe/fsw/cfe-core/src/sb/cfe_sb_api.c **** 
 412:/home/simulink/cFS_FreeRTOS_seL4/cfe/fsw/cfe-core/src/sb/cfe_sb_api.c ****         /* Decrement the Buffer Use Count and Free buffer if cnt=0) */
 413:/home/simulink/cFS_FreeRTOS_seL4/cfe/fsw/cfe-core/src/sb/cfe_sb_api.c ****         CFE_SB_DecrBufUseCnt(CFE_SB.PipeTbl[PipeTblIdx].ToTrashBuff);
 847               	.loc 1 413 0
 848 0782 4280      	clr.l %d0
 849 0784 102F 0043 	move.b 67(%sp),%d0
 850 0788 7444      	moveq #68,%d2
 851 078a 4C02 0800 	muls.l %d2,%d0
 852 078e 41F9 0000 	lea CFE_SB+212,%a0
 852      0000 
 853 0794 2030 0800 	move.l (%a0,%d0.l),%d0
 854 0798 2F00      	move.l %d0,-(%sp)
 855               	.cfi_def_cfa_offset 88
 856 079a 4EB9 0000 	jsr CFE_SB_DecrBufUseCnt
68K GAS   			page 26


 856      0000 
 857 07a0 588F      	addq.l #4,%sp
 858               	.cfi_def_cfa_offset 84
 414:/home/simulink/cFS_FreeRTOS_seL4/cfe/fsw/cfe-core/src/sb/cfe_sb_api.c ****         CFE_SB.PipeTbl[PipeTblIdx].ToTrashBuff = NULL;
 859               	.loc 1 414 0
 860 07a2 4280      	clr.l %d0
 861 07a4 102F 0043 	move.b 67(%sp),%d0
 862 07a8 7244      	moveq #68,%d1
 863 07aa 4C01 0800 	muls.l %d1,%d0
 864 07ae 41F9 0000 	lea CFE_SB+212,%a0
 864      0000 
 865 07b4 42B0 0800 	clr.l (%a0,%d0.l)
 866               	.L27:
 415:/home/simulink/cFS_FreeRTOS_seL4/cfe/fsw/cfe-core/src/sb/cfe_sb_api.c **** 
 416:/home/simulink/cFS_FreeRTOS_seL4/cfe/fsw/cfe-core/src/sb/cfe_sb_api.c ****     }/* end if */
 417:/home/simulink/cFS_FreeRTOS_seL4/cfe/fsw/cfe-core/src/sb/cfe_sb_api.c **** 
 418:/home/simulink/cFS_FreeRTOS_seL4/cfe/fsw/cfe-core/src/sb/cfe_sb_api.c **** 
 419:/home/simulink/cFS_FreeRTOS_seL4/cfe/fsw/cfe-core/src/sb/cfe_sb_api.c ****     /* remove any messages that might be on the pipe */
 420:/home/simulink/cFS_FreeRTOS_seL4/cfe/fsw/cfe-core/src/sb/cfe_sb_api.c ****     /* this step will free the memory used to store the message */
 421:/home/simulink/cFS_FreeRTOS_seL4/cfe/fsw/cfe-core/src/sb/cfe_sb_api.c ****     do{
 422:/home/simulink/cFS_FreeRTOS_seL4/cfe/fsw/cfe-core/src/sb/cfe_sb_api.c ****       CFE_SB_UnlockSharedData(__func__,__LINE__);
 867               	.loc 1 422 0 discriminator 1
 868 07b8 4878 01A6 	pea 422.w
 869               	.cfi_def_cfa_offset 88
 870 07bc 4879 0000 	pea __func__.5620
 870      0000 
 871               	.cfi_def_cfa_offset 92
 872 07c2 4EB9 0000 	jsr CFE_SB_UnlockSharedData
 872      0000 
 873 07c8 508F      	addq.l #8,%sp
 874               	.cfi_def_cfa_offset 84
 423:/home/simulink/cFS_FreeRTOS_seL4/cfe/fsw/cfe-core/src/sb/cfe_sb_api.c ****       Stat = CFE_SB_RcvMsg(&PipeMsgPtr,PipeId,CFE_SB_POLL);
 875               	.loc 1 423 0 discriminator 1
 876 07ca 4280      	clr.l %d0
 877 07cc 102F 0004 	move.b 4(%sp),%d0
 878 07d0 42A7      	clr.l -(%sp)
 879               	.cfi_def_cfa_offset 88
 880 07d2 2F00      	move.l %d0,-(%sp)
 881               	.cfi_def_cfa_offset 92
 882 07d4 200F      	move.l %sp,%d0
 883 07d6 0680 0000 	add.l #56,%d0
 883      0038 
 884 07dc 2F00      	move.l %d0,-(%sp)
 885               	.cfi_def_cfa_offset 96
 886 07de 4EB9 0000 	jsr CFE_SB_RcvMsg
 886      0000 
 887 07e4 4FEF 000C 	lea (12,%sp),%sp
 888               	.cfi_def_cfa_offset 84
 889 07e8 2F40 0034 	move.l %d0,52(%sp)
 424:/home/simulink/cFS_FreeRTOS_seL4/cfe/fsw/cfe-core/src/sb/cfe_sb_api.c ****       CFE_SB_LockSharedData(__func__,__LINE__);
 890               	.loc 1 424 0 discriminator 1
 891 07ec 4878 01A8 	pea 424.w
 892               	.cfi_def_cfa_offset 88
 893 07f0 4879 0000 	pea __func__.5620
 893      0000 
 894               	.cfi_def_cfa_offset 92
 895 07f6 4EB9 0000 	jsr CFE_SB_LockSharedData
68K GAS   			page 27


 895      0000 
 896 07fc 508F      	addq.l #8,%sp
 897               	.cfi_def_cfa_offset 84
 425:/home/simulink/cFS_FreeRTOS_seL4/cfe/fsw/cfe-core/src/sb/cfe_sb_api.c ****     }while(Stat == CFE_SUCCESS);
 898               	.loc 1 425 0 discriminator 1
 899 07fe 4AAF 0034 	tst.l 52(%sp)
 900 0802 67B4      	jeq .L27
 426:/home/simulink/cFS_FreeRTOS_seL4/cfe/fsw/cfe-core/src/sb/cfe_sb_api.c **** 
 427:/home/simulink/cFS_FreeRTOS_seL4/cfe/fsw/cfe-core/src/sb/cfe_sb_api.c ****     /* Delete the underlying OS queue */
 428:/home/simulink/cFS_FreeRTOS_seL4/cfe/fsw/cfe-core/src/sb/cfe_sb_api.c ****     OS_QueueDelete(CFE_SB.PipeTbl[PipeTblIdx].SysQueueId);
 901               	.loc 1 428 0
 902 0804 4280      	clr.l %d0
 903 0806 102F 0043 	move.b 67(%sp),%d0
 904 080a 7444      	moveq #68,%d2
 905 080c 4C02 0800 	muls.l %d2,%d0
 906 0810 41F9 0000 	lea CFE_SB+196,%a0
 906      0000 
 907 0816 2030 0800 	move.l (%a0,%d0.l),%d0
 908 081a 2F00      	move.l %d0,-(%sp)
 909               	.cfi_def_cfa_offset 88
 910 081c 4EB9 0000 	jsr OS_QueueDelete
 910      0000 
 911 0822 588F      	addq.l #4,%sp
 912               	.cfi_def_cfa_offset 84
 429:/home/simulink/cFS_FreeRTOS_seL4/cfe/fsw/cfe-core/src/sb/cfe_sb_api.c **** 
 430:/home/simulink/cFS_FreeRTOS_seL4/cfe/fsw/cfe-core/src/sb/cfe_sb_api.c ****     /* remove the pipe from the pipe table */
 431:/home/simulink/cFS_FreeRTOS_seL4/cfe/fsw/cfe-core/src/sb/cfe_sb_api.c ****     CFE_SB.PipeTbl[PipeTblIdx].InUse         = CFE_SB_NOT_IN_USE;
 913               	.loc 1 431 0
 914 0824 4280      	clr.l %d0
 915 0826 102F 0043 	move.b 67(%sp),%d0
 916 082a 7244      	moveq #68,%d1
 917 082c 4C01 0800 	muls.l %d1,%d0
 918 0830 41F9 0000 	lea CFE_SB+148,%a0
 918      0000 
 919 0836 4202      	clr.b %d2
 920 0838 1182 0800 	move.b %d2,(%a0,%d0.l)
 432:/home/simulink/cFS_FreeRTOS_seL4/cfe/fsw/cfe-core/src/sb/cfe_sb_api.c ****     CFE_SB.PipeTbl[PipeTblIdx].SysQueueId    = CFE_SB_UNUSED_QUEUE;
 921               	.loc 1 432 0
 922 083c 4280      	clr.l %d0
 923 083e 102F 0043 	move.b 67(%sp),%d0
 924 0842 7244      	moveq #68,%d1
 925 0844 4C01 0800 	muls.l %d1,%d0
 926 0848 41F9 0000 	lea CFE_SB+196,%a0
 926      0000 
 927 084e 243C 0000 	move.l #65535,%d2
 927      FFFF 
 928 0854 2182 0800 	move.l %d2,(%a0,%d0.l)
 433:/home/simulink/cFS_FreeRTOS_seL4/cfe/fsw/cfe-core/src/sb/cfe_sb_api.c ****     CFE_SB.PipeTbl[PipeTblIdx].PipeId        = CFE_SB_INVALID_PIPE;
 929               	.loc 1 433 0
 930 0858 4280      	clr.l %d0
 931 085a 102F 0043 	move.b 67(%sp),%d0
 932 085e 7244      	moveq #68,%d1
 933 0860 4C01 0800 	muls.l %d1,%d0
 934 0864 41F9 0000 	lea CFE_SB+149,%a0
 934      0000 
 935 086a 50C2      	st %d2
 936 086c 1182 0800 	move.b %d2,(%a0,%d0.l)
68K GAS   			page 28


 434:/home/simulink/cFS_FreeRTOS_seL4/cfe/fsw/cfe-core/src/sb/cfe_sb_api.c ****     CFE_SB.PipeTbl[PipeTblIdx].CurrentBuff   = NULL;
 937               	.loc 1 434 0
 938 0870 4280      	clr.l %d0
 939 0872 102F 0043 	move.b 67(%sp),%d0
 940 0876 7244      	moveq #68,%d1
 941 0878 4C01 0800 	muls.l %d1,%d0
 942 087c 41F9 0000 	lea CFE_SB+208,%a0
 942      0000 
 943 0882 42B0 0800 	clr.l (%a0,%d0.l)
 435:/home/simulink/cFS_FreeRTOS_seL4/cfe/fsw/cfe-core/src/sb/cfe_sb_api.c ****     CFE_PSP_MemSet(&CFE_SB.PipeTbl[PipeTblIdx].PipeName[0],0,OS_MAX_API_NAME);
 944               	.loc 1 435 0
 945 0886 4280      	clr.l %d0
 946 0888 102F 0043 	move.b 67(%sp),%d0
 947 088c 7444      	moveq #68,%d2
 948 088e 4C02 0800 	muls.l %d2,%d0
 949 0892 0680 0000 	add.l #148,%d0
 949      0094 
 950 0898 0680 0000 	add.l #CFE_SB,%d0
 950      0000 
 951 089e 5480      	addq.l #2,%d0
 952 08a0 4878 0014 	pea 20.w
 953               	.cfi_def_cfa_offset 88
 954 08a4 42A7      	clr.l -(%sp)
 955               	.cfi_def_cfa_offset 92
 956 08a6 2F00      	move.l %d0,-(%sp)
 957               	.cfi_def_cfa_offset 96
 958 08a8 4EB9 0000 	jsr CFE_PSP_MemSet
 958      0000 
 959 08ae 4FEF 000C 	lea (12,%sp),%sp
 960               	.cfi_def_cfa_offset 84
 436:/home/simulink/cFS_FreeRTOS_seL4/cfe/fsw/cfe-core/src/sb/cfe_sb_api.c **** 
 437:/home/simulink/cFS_FreeRTOS_seL4/cfe/fsw/cfe-core/src/sb/cfe_sb_api.c ****     /* zero out the pipe depth stats */
 438:/home/simulink/cFS_FreeRTOS_seL4/cfe/fsw/cfe-core/src/sb/cfe_sb_api.c ****     if (PipeTblIdx < CFE_SB_TLM_PIPEDEPTHSTATS_SIZE)
 961               	.loc 1 438 0
 962 08b2 4280      	clr.l %d0
 963 08b4 102F 0043 	move.b 67(%sp),%d0
 964 08b8 723F      	moveq #63,%d1
 965 08ba B280      	cmp.l %d0,%d1
 966 08bc 6568      	jcs .L28
 439:/home/simulink/cFS_FreeRTOS_seL4/cfe/fsw/cfe-core/src/sb/cfe_sb_api.c ****     {
 440:/home/simulink/cFS_FreeRTOS_seL4/cfe/fsw/cfe-core/src/sb/cfe_sb_api.c ****     CFE_SB.StatTlmMsg.Payload.PipeDepthStats[PipeTblIdx].PipeId = 0;
 967               	.loc 1 440 0
 968 08be 4280      	clr.l %d0
 969 08c0 102F 0043 	move.b 67(%sp),%d0
 970 08c4 0680 0000 	add.l #9,%d0
 970      0009 
 971 08ca E788      	lsl.l #3,%d0
 972 08cc 41F9 0000 	lea CFE_SB+4540,%a0
 972      0000 
 973 08d2 4202      	clr.b %d2
 974 08d4 1182 0800 	move.b %d2,(%a0,%d0.l)
 441:/home/simulink/cFS_FreeRTOS_seL4/cfe/fsw/cfe-core/src/sb/cfe_sb_api.c ****     CFE_SB.StatTlmMsg.Payload.PipeDepthStats[PipeTblIdx].Depth = 0;
 975               	.loc 1 441 0
 976 08d8 4280      	clr.l %d0
 977 08da 102F 0043 	move.b 67(%sp),%d0
 978 08de 0680 0000 	add.l #9,%d0
 978      0009 
68K GAS   			page 29


 979 08e4 E788      	lsl.l #3,%d0
 980 08e6 41F9 0000 	lea CFE_SB+4542,%a0
 980      0000 
 981 08ec 4241      	clr.w %d1
 982 08ee 3181 0800 	move.w %d1,(%a0,%d0.l)
 442:/home/simulink/cFS_FreeRTOS_seL4/cfe/fsw/cfe-core/src/sb/cfe_sb_api.c ****     CFE_SB.StatTlmMsg.Payload.PipeDepthStats[PipeTblIdx].InUse = 0;
 983               	.loc 1 442 0
 984 08f2 4280      	clr.l %d0
 985 08f4 102F 0043 	move.b 67(%sp),%d0
 986 08f8 0680 0000 	add.l #577,%d0
 986      0241 
 987 08fe E788      	lsl.l #3,%d0
 988 0900 41F9 0000 	lea CFE_SB,%a0
 988      0000 
 989 0906 4242      	clr.w %d2
 990 0908 3182 0800 	move.w %d2,(%a0,%d0.l)
 443:/home/simulink/cFS_FreeRTOS_seL4/cfe/fsw/cfe-core/src/sb/cfe_sb_api.c ****     CFE_SB.StatTlmMsg.Payload.PipeDepthStats[PipeTblIdx].PeakInUse = 0;
 991               	.loc 1 443 0
 992 090c 4280      	clr.l %d0
 993 090e 102F 0043 	move.b 67(%sp),%d0
 994 0912 0680 0000 	add.l #577,%d0
 994      0241 
 995 0918 E788      	lsl.l #3,%d0
 996 091a 41F9 0000 	lea CFE_SB+2,%a0
 996      0000 
 997 0920 4241      	clr.w %d1
 998 0922 3181 0800 	move.w %d1,(%a0,%d0.l)
 999               	.L28:
 444:/home/simulink/cFS_FreeRTOS_seL4/cfe/fsw/cfe-core/src/sb/cfe_sb_api.c ****     }
 445:/home/simulink/cFS_FreeRTOS_seL4/cfe/fsw/cfe-core/src/sb/cfe_sb_api.c **** 
 446:/home/simulink/cFS_FreeRTOS_seL4/cfe/fsw/cfe-core/src/sb/cfe_sb_api.c ****     CFE_SB.StatTlmMsg.Payload.PipesInUse--;
 1000               	.loc 1 446 0
 1001 0926 2039 0000 	move.l CFE_SB+4564,%d0
 1001      0000 
 1002 092c 5380      	subq.l #1,%d0
 1003 092e 23C0 0000 	move.l %d0,CFE_SB+4564
 1003      0000 
 447:/home/simulink/cFS_FreeRTOS_seL4/cfe/fsw/cfe-core/src/sb/cfe_sb_api.c **** 
 448:/home/simulink/cFS_FreeRTOS_seL4/cfe/fsw/cfe-core/src/sb/cfe_sb_api.c ****     CFE_SB_UnlockSharedData(__func__,__LINE__);
 1004               	.loc 1 448 0
 1005 0934 4878 01C0 	pea 448.w
 1006               	.cfi_def_cfa_offset 88
 1007 0938 4879 0000 	pea __func__.5620
 1007      0000 
 1008               	.cfi_def_cfa_offset 92
 1009 093e 4EB9 0000 	jsr CFE_SB_UnlockSharedData
 1009      0000 
 1010 0944 508F      	addq.l #8,%sp
 1011               	.cfi_def_cfa_offset 84
 449:/home/simulink/cFS_FreeRTOS_seL4/cfe/fsw/cfe-core/src/sb/cfe_sb_api.c **** 
 450:/home/simulink/cFS_FreeRTOS_seL4/cfe/fsw/cfe-core/src/sb/cfe_sb_api.c ****     CFE_EVS_SendEventWithAppID(CFE_SB_PIPE_DELETED_EID,CFE_EVS_DEBUG,CFE_SB.AppId,
 1012               	.loc 1 450 0
 1013 0946 200F      	move.l %sp,%d0
 1014 0948 5080      	addq.l #8,%d0
 1015 094a 2F00      	move.l %d0,-(%sp)
 1016               	.cfi_def_cfa_offset 88
 1017 094c 2F2F 003C 	move.l 60(%sp),-(%sp)
68K GAS   			page 30


 1018               	.cfi_def_cfa_offset 92
 1019 0950 4EB9 0000 	jsr CFE_SB_GetAppTskName
 1019      0000 
 1020 0956 508F      	addq.l #8,%sp
 1021               	.cfi_def_cfa_offset 84
 1022 0958 2040      	move.l %d0,%a0
 1023 095a 4280      	clr.l %d0
 1024 095c 102F 0004 	move.b 4(%sp),%d0
 1025 0960 2239 0000 	move.l CFE_SB+12,%d1
 1025      0000 
 1026 0966 2F08      	move.l %a0,-(%sp)
 1027               	.cfi_def_cfa_offset 88
 1028 0968 2F00      	move.l %d0,-(%sp)
 1029               	.cfi_def_cfa_offset 92
 1030 096a 4879 0000 	pea .LC6
 1030      0000 
 1031               	.cfi_def_cfa_offset 96
 1032 0970 2F01      	move.l %d1,-(%sp)
 1033               	.cfi_def_cfa_offset 100
 1034 0972 4878 0001 	pea 1.w
 1035               	.cfi_def_cfa_offset 104
 1036 0976 4878 002F 	pea 47.w
 1037               	.cfi_def_cfa_offset 108
 1038 097a 4EB9 0000 	jsr CFE_EVS_SendEventWithAppID
 1038      0000 
 1039 0980 4FEF 0018 	lea (24,%sp),%sp
 1040               	.cfi_def_cfa_offset 84
 451:/home/simulink/cFS_FreeRTOS_seL4/cfe/fsw/cfe-core/src/sb/cfe_sb_api.c ****           "Pipe Deleted:id %d,owner %s",PipeId, CFE_SB_GetAppTskName(Owner,FullName));
 452:/home/simulink/cFS_FreeRTOS_seL4/cfe/fsw/cfe-core/src/sb/cfe_sb_api.c **** 
 453:/home/simulink/cFS_FreeRTOS_seL4/cfe/fsw/cfe-core/src/sb/cfe_sb_api.c ****     return CFE_SUCCESS;
 1041               	.loc 1 453 0
 1042 0984 4280      	clr.l %d0
 1043               	.L29:
 454:/home/simulink/cFS_FreeRTOS_seL4/cfe/fsw/cfe-core/src/sb/cfe_sb_api.c **** 
 455:/home/simulink/cFS_FreeRTOS_seL4/cfe/fsw/cfe-core/src/sb/cfe_sb_api.c **** }/* end CFE_SB_DeletePipeFull */
 1044               	.loc 1 455 0 discriminator 1
 1045 0986 241F      	move.l (%sp)+,%d2
 1046 0988 4FEF 004C 	lea (76,%sp),%sp
 1047 098c 4E75      	rts
 1048               	.cfi_endproc
 1049               	.LFE62:
 1050               	.sizeCFE_SB_DeletePipeFull, .-CFE_SB_DeletePipeFull
 1051               	.align2
 1052               	.globlCFE_SB_SubscribeEx
 1053               	.typeCFE_SB_SubscribeEx, @function
 1054               	CFE_SB_SubscribeEx:
 1055               	.LFB63:
 456:/home/simulink/cFS_FreeRTOS_seL4/cfe/fsw/cfe-core/src/sb/cfe_sb_api.c **** 
 457:/home/simulink/cFS_FreeRTOS_seL4/cfe/fsw/cfe-core/src/sb/cfe_sb_api.c **** 
 458:/home/simulink/cFS_FreeRTOS_seL4/cfe/fsw/cfe-core/src/sb/cfe_sb_api.c **** /******************************************************************************
 459:/home/simulink/cFS_FreeRTOS_seL4/cfe/fsw/cfe-core/src/sb/cfe_sb_api.c **** ** Name:    CFE_SB_SubscribeEx
 460:/home/simulink/cFS_FreeRTOS_seL4/cfe/fsw/cfe-core/src/sb/cfe_sb_api.c **** **
 461:/home/simulink/cFS_FreeRTOS_seL4/cfe/fsw/cfe-core/src/sb/cfe_sb_api.c **** ** Purpose: API to globally subscribe to a message when QOS and MsgLim defaults
 462:/home/simulink/cFS_FreeRTOS_seL4/cfe/fsw/cfe-core/src/sb/cfe_sb_api.c **** **          are insufficient.
 463:/home/simulink/cFS_FreeRTOS_seL4/cfe/fsw/cfe-core/src/sb/cfe_sb_api.c **** **
 464:/home/simulink/cFS_FreeRTOS_seL4/cfe/fsw/cfe-core/src/sb/cfe_sb_api.c **** ** Assumptions, External Events, and Notes:
 465:/home/simulink/cFS_FreeRTOS_seL4/cfe/fsw/cfe-core/src/sb/cfe_sb_api.c **** **
68K GAS   			page 31


 466:/home/simulink/cFS_FreeRTOS_seL4/cfe/fsw/cfe-core/src/sb/cfe_sb_api.c **** **          Note: Qos default: priority is low, reliability is low
 467:/home/simulink/cFS_FreeRTOS_seL4/cfe/fsw/cfe-core/src/sb/cfe_sb_api.c **** **          Note: MsgLim default: 4, see Input Arguments below for more detail
 468:/home/simulink/cFS_FreeRTOS_seL4/cfe/fsw/cfe-core/src/sb/cfe_sb_api.c **** **          Note: Qos parameter is currently unused by the fsw. It is recommended
 469:/home/simulink/cFS_FreeRTOS_seL4/cfe/fsw/cfe-core/src/sb/cfe_sb_api.c **** **                to give a value of zero for Quality.Priority and Quality.Reliability
 470:/home/simulink/cFS_FreeRTOS_seL4/cfe/fsw/cfe-core/src/sb/cfe_sb_api.c **** **
 471:/home/simulink/cFS_FreeRTOS_seL4/cfe/fsw/cfe-core/src/sb/cfe_sb_api.c **** ** Date Written:
 472:/home/simulink/cFS_FreeRTOS_seL4/cfe/fsw/cfe-core/src/sb/cfe_sb_api.c **** **          04/25/2005
 473:/home/simulink/cFS_FreeRTOS_seL4/cfe/fsw/cfe-core/src/sb/cfe_sb_api.c **** **
 474:/home/simulink/cFS_FreeRTOS_seL4/cfe/fsw/cfe-core/src/sb/cfe_sb_api.c **** ** Input Arguments:
 475:/home/simulink/cFS_FreeRTOS_seL4/cfe/fsw/cfe-core/src/sb/cfe_sb_api.c **** **          MsgId   - The requesting message
 476:/home/simulink/cFS_FreeRTOS_seL4/cfe/fsw/cfe-core/src/sb/cfe_sb_api.c **** **          PipeId  - The Pipe ID to send the message to
 477:/home/simulink/cFS_FreeRTOS_seL4/cfe/fsw/cfe-core/src/sb/cfe_sb_api.c **** **          Quality - Quality of Service (Qos) - priority and reliability,
 478:/home/simulink/cFS_FreeRTOS_seL4/cfe/fsw/cfe-core/src/sb/cfe_sb_api.c **** **                    see note above for recommended settings
 479:/home/simulink/cFS_FreeRTOS_seL4/cfe/fsw/cfe-core/src/sb/cfe_sb_api.c **** **          MsgLim  - Max number of messages, with this MsgId, allowed on the
 480:/home/simulink/cFS_FreeRTOS_seL4/cfe/fsw/cfe-core/src/sb/cfe_sb_api.c **** **                    pipe at any time.
 481:/home/simulink/cFS_FreeRTOS_seL4/cfe/fsw/cfe-core/src/sb/cfe_sb_api.c **** **
 482:/home/simulink/cFS_FreeRTOS_seL4/cfe/fsw/cfe-core/src/sb/cfe_sb_api.c **** ** Output Arguments:
 483:/home/simulink/cFS_FreeRTOS_seL4/cfe/fsw/cfe-core/src/sb/cfe_sb_api.c **** **          None
 484:/home/simulink/cFS_FreeRTOS_seL4/cfe/fsw/cfe-core/src/sb/cfe_sb_api.c **** **
 485:/home/simulink/cFS_FreeRTOS_seL4/cfe/fsw/cfe-core/src/sb/cfe_sb_api.c **** ** Return Values:
 486:/home/simulink/cFS_FreeRTOS_seL4/cfe/fsw/cfe-core/src/sb/cfe_sb_api.c **** **          Status
 487:/home/simulink/cFS_FreeRTOS_seL4/cfe/fsw/cfe-core/src/sb/cfe_sb_api.c **** **
 488:/home/simulink/cFS_FreeRTOS_seL4/cfe/fsw/cfe-core/src/sb/cfe_sb_api.c **** ******************************************************************************/
 489:/home/simulink/cFS_FreeRTOS_seL4/cfe/fsw/cfe-core/src/sb/cfe_sb_api.c **** int32  CFE_SB_SubscribeEx(CFE_SB_MsgId_t   MsgId,
 490:/home/simulink/cFS_FreeRTOS_seL4/cfe/fsw/cfe-core/src/sb/cfe_sb_api.c ****                           CFE_SB_PipeId_t  PipeId,
 491:/home/simulink/cFS_FreeRTOS_seL4/cfe/fsw/cfe-core/src/sb/cfe_sb_api.c ****                           CFE_SB_Qos_t     Quality,
 492:/home/simulink/cFS_FreeRTOS_seL4/cfe/fsw/cfe-core/src/sb/cfe_sb_api.c ****                           uint16           MsgLim)
 493:/home/simulink/cFS_FreeRTOS_seL4/cfe/fsw/cfe-core/src/sb/cfe_sb_api.c **** {
 1056               	.loc 1 493 0
 1057               	.cfi_startproc
 1058 098e 4FEF FFF4 	lea (-12,%sp),%sp
 1059               	.cfi_def_cfa_offset 16
 1060 0992 2F02      	move.l %d2,-(%sp)
 1061               	.cfi_def_cfa_offset 20
 1062               	.cfi_offset 2, -20
 1063 0994 206F 0014 	move.l 20(%sp),%a0
 1064 0998 222F 0018 	move.l 24(%sp),%d1
 1065 099c 202F 0020 	move.l 32(%sp),%d0
 1066 09a0 3048      	move.w %a0,%a0
 1067 09a2 3F48 000C 	move.w %a0,12(%sp)
 1068 09a6 1201      	move.b %d1,%d1
 1069 09a8 1F41 0008 	move.b %d1,8(%sp)
 1070 09ac 3000      	move.w %d0,%d0
 1071 09ae 3F40 0004 	move.w %d0,4(%sp)
 494:/home/simulink/cFS_FreeRTOS_seL4/cfe/fsw/cfe-core/src/sb/cfe_sb_api.c ****     return CFE_SB_SubscribeFull(MsgId,PipeId,Quality,MsgLim,(uint8)CFE_SB_GLOBAL);
 1072               	.loc 1 494 0
 1073 09b2 4282      	clr.l %d2
 1074 09b4 342F 0004 	move.w 4(%sp),%d2
 1075 09b8 4281      	clr.l %d1
 1076 09ba 122F 0008 	move.b 8(%sp),%d1
 1077 09be 4280      	clr.l %d0
 1078 09c0 302F 000C 	move.w 12(%sp),%d0
 1079 09c4 42A7      	clr.l -(%sp)
 1080               	.cfi_def_cfa_offset 24
 1081 09c6 2F02      	move.l %d2,-(%sp)
 1082               	.cfi_def_cfa_offset 28
 1083 09c8 3F2F 0026 	move.w 38(%sp),-(%sp)
68K GAS   			page 32


 1084               	.cfi_def_cfa_offset 30
 1085 09cc 558F      	subq.l #2,%sp
 1086               	.cfi_def_cfa_offset 32
 1087 09ce 2F01      	move.l %d1,-(%sp)
 1088               	.cfi_def_cfa_offset 36
 1089 09d0 2F00      	move.l %d0,-(%sp)
 1090               	.cfi_def_cfa_offset 40
 1091 09d2 4EB9 0000 	jsr CFE_SB_SubscribeFull
 1091      0000 
 1092 09d8 4FEF 0014 	lea (20,%sp),%sp
 1093               	.cfi_def_cfa_offset 20
 495:/home/simulink/cFS_FreeRTOS_seL4/cfe/fsw/cfe-core/src/sb/cfe_sb_api.c **** 
 496:/home/simulink/cFS_FreeRTOS_seL4/cfe/fsw/cfe-core/src/sb/cfe_sb_api.c **** }/* end CFE_SB_SubscribeEx */
 1094               	.loc 1 496 0
 1095 09dc 241F      	move.l (%sp)+,%d2
 1096 09de 4FEF 000C 	lea (12,%sp),%sp
 1097 09e2 4E75      	rts
 1098               	.cfi_endproc
 1099               	.LFE63:
 1100               	.sizeCFE_SB_SubscribeEx, .-CFE_SB_SubscribeEx
 1101               	.align2
 1102               	.globlCFE_SB_SubscribeLocal
 1103               	.typeCFE_SB_SubscribeLocal, @function
 1104               	CFE_SB_SubscribeLocal:
 1105               	.LFB64:
 497:/home/simulink/cFS_FreeRTOS_seL4/cfe/fsw/cfe-core/src/sb/cfe_sb_api.c **** 
 498:/home/simulink/cFS_FreeRTOS_seL4/cfe/fsw/cfe-core/src/sb/cfe_sb_api.c **** 
 499:/home/simulink/cFS_FreeRTOS_seL4/cfe/fsw/cfe-core/src/sb/cfe_sb_api.c **** 
 500:/home/simulink/cFS_FreeRTOS_seL4/cfe/fsw/cfe-core/src/sb/cfe_sb_api.c **** 
 501:/home/simulink/cFS_FreeRTOS_seL4/cfe/fsw/cfe-core/src/sb/cfe_sb_api.c **** /******************************************************************************
 502:/home/simulink/cFS_FreeRTOS_seL4/cfe/fsw/cfe-core/src/sb/cfe_sb_api.c **** ** Name:    CFE_SB_SubscribeLocal
 503:/home/simulink/cFS_FreeRTOS_seL4/cfe/fsw/cfe-core/src/sb/cfe_sb_api.c **** **
 504:/home/simulink/cFS_FreeRTOS_seL4/cfe/fsw/cfe-core/src/sb/cfe_sb_api.c **** ** Purpose: CFE Internal API to locally subscribe to a message when QOS and
 505:/home/simulink/cFS_FreeRTOS_seL4/cfe/fsw/cfe-core/src/sb/cfe_sb_api.c **** **          MsgLim defaults are insufficient.
 506:/home/simulink/cFS_FreeRTOS_seL4/cfe/fsw/cfe-core/src/sb/cfe_sb_api.c **** **
 507:/home/simulink/cFS_FreeRTOS_seL4/cfe/fsw/cfe-core/src/sb/cfe_sb_api.c **** ** Assumptions, External Events, and Notes:
 508:/home/simulink/cFS_FreeRTOS_seL4/cfe/fsw/cfe-core/src/sb/cfe_sb_api.c **** **
 509:/home/simulink/cFS_FreeRTOS_seL4/cfe/fsw/cfe-core/src/sb/cfe_sb_api.c **** **          Note: Qos default: priority is low, reliability is low
 510:/home/simulink/cFS_FreeRTOS_seL4/cfe/fsw/cfe-core/src/sb/cfe_sb_api.c **** **                MsgLim default: 4 - meaning at most 4 messages of given
 511:/home/simulink/cFS_FreeRTOS_seL4/cfe/fsw/cfe-core/src/sb/cfe_sb_api.c **** **                                    MsgId allowed on the given PipeId.
 512:/home/simulink/cFS_FreeRTOS_seL4/cfe/fsw/cfe-core/src/sb/cfe_sb_api.c **** **
 513:/home/simulink/cFS_FreeRTOS_seL4/cfe/fsw/cfe-core/src/sb/cfe_sb_api.c **** ** Date Written:
 514:/home/simulink/cFS_FreeRTOS_seL4/cfe/fsw/cfe-core/src/sb/cfe_sb_api.c **** **          04/25/2005
 515:/home/simulink/cFS_FreeRTOS_seL4/cfe/fsw/cfe-core/src/sb/cfe_sb_api.c **** **
 516:/home/simulink/cFS_FreeRTOS_seL4/cfe/fsw/cfe-core/src/sb/cfe_sb_api.c **** ** Input Arguments:
 517:/home/simulink/cFS_FreeRTOS_seL4/cfe/fsw/cfe-core/src/sb/cfe_sb_api.c **** **          MsgId   - The requesting message
 518:/home/simulink/cFS_FreeRTOS_seL4/cfe/fsw/cfe-core/src/sb/cfe_sb_api.c **** **          PipeId  - The Pipe ID to send the message to
 519:/home/simulink/cFS_FreeRTOS_seL4/cfe/fsw/cfe-core/src/sb/cfe_sb_api.c **** **          MsgLim  - Max number of messages, with this MsgId, allowed on the
 520:/home/simulink/cFS_FreeRTOS_seL4/cfe/fsw/cfe-core/src/sb/cfe_sb_api.c **** **                    pipe at any time.
 521:/home/simulink/cFS_FreeRTOS_seL4/cfe/fsw/cfe-core/src/sb/cfe_sb_api.c **** **
 522:/home/simulink/cFS_FreeRTOS_seL4/cfe/fsw/cfe-core/src/sb/cfe_sb_api.c **** ** Output Arguments:
 523:/home/simulink/cFS_FreeRTOS_seL4/cfe/fsw/cfe-core/src/sb/cfe_sb_api.c **** **          None
 524:/home/simulink/cFS_FreeRTOS_seL4/cfe/fsw/cfe-core/src/sb/cfe_sb_api.c **** **
 525:/home/simulink/cFS_FreeRTOS_seL4/cfe/fsw/cfe-core/src/sb/cfe_sb_api.c **** ** Return Values:
 526:/home/simulink/cFS_FreeRTOS_seL4/cfe/fsw/cfe-core/src/sb/cfe_sb_api.c **** **          Status
 527:/home/simulink/cFS_FreeRTOS_seL4/cfe/fsw/cfe-core/src/sb/cfe_sb_api.c **** **
 528:/home/simulink/cFS_FreeRTOS_seL4/cfe/fsw/cfe-core/src/sb/cfe_sb_api.c **** ******************************************************************************/
68K GAS   			page 33


 529:/home/simulink/cFS_FreeRTOS_seL4/cfe/fsw/cfe-core/src/sb/cfe_sb_api.c **** int32 CFE_SB_SubscribeLocal(CFE_SB_MsgId_t   MsgId,
 530:/home/simulink/cFS_FreeRTOS_seL4/cfe/fsw/cfe-core/src/sb/cfe_sb_api.c ****                             CFE_SB_PipeId_t  PipeId,
 531:/home/simulink/cFS_FreeRTOS_seL4/cfe/fsw/cfe-core/src/sb/cfe_sb_api.c ****                             uint16           MsgLim)
 532:/home/simulink/cFS_FreeRTOS_seL4/cfe/fsw/cfe-core/src/sb/cfe_sb_api.c **** {
 1106               	.loc 1 532 0
 1107               	.cfi_startproc
 1108 09e4 4FEF FFF4 	lea (-12,%sp),%sp
 1109               	.cfi_def_cfa_offset 16
 1110 09e8 2F02      	move.l %d2,-(%sp)
 1111               	.cfi_def_cfa_offset 20
 1112               	.cfi_offset 2, -20
 1113 09ea 206F 0014 	move.l 20(%sp),%a0
 1114 09ee 222F 0018 	move.l 24(%sp),%d1
 1115 09f2 202F 001C 	move.l 28(%sp),%d0
 1116 09f6 3048      	move.w %a0,%a0
 1117 09f8 3F48 000C 	move.w %a0,12(%sp)
 1118 09fc 1201      	move.b %d1,%d1
 1119 09fe 1F41 0008 	move.b %d1,8(%sp)
 1120 0a02 3000      	move.w %d0,%d0
 1121 0a04 3F40 0004 	move.w %d0,4(%sp)
 533:/home/simulink/cFS_FreeRTOS_seL4/cfe/fsw/cfe-core/src/sb/cfe_sb_api.c ****     return CFE_SB_SubscribeFull(MsgId,PipeId,CFE_SB_Default_Qos,MsgLim,
 1122               	.loc 1 533 0
 1123 0a08 4282      	clr.l %d2
 1124 0a0a 342F 0004 	move.w 4(%sp),%d2
 1125 0a0e 4281      	clr.l %d1
 1126 0a10 122F 0008 	move.b 8(%sp),%d1
 1127 0a14 4280      	clr.l %d0
 1128 0a16 302F 000C 	move.w 12(%sp),%d0
 1129 0a1a 4878 0001 	pea 1.w
 1130               	.cfi_def_cfa_offset 24
 1131 0a1e 2F02      	move.l %d2,-(%sp)
 1132               	.cfi_def_cfa_offset 28
 1133 0a20 3F39 0000 	move.w CFE_SB_Default_Qos,-(%sp)
 1133      0000 
 1134               	.cfi_def_cfa_offset 30
 1135 0a26 558F      	subq.l #2,%sp
 1136               	.cfi_def_cfa_offset 32
 1137 0a28 2F01      	move.l %d1,-(%sp)
 1138               	.cfi_def_cfa_offset 36
 1139 0a2a 2F00      	move.l %d0,-(%sp)
 1140               	.cfi_def_cfa_offset 40
 1141 0a2c 4EB9 0000 	jsr CFE_SB_SubscribeFull
 1141      0000 
 1142 0a32 4FEF 0014 	lea (20,%sp),%sp
 1143               	.cfi_def_cfa_offset 20
 534:/home/simulink/cFS_FreeRTOS_seL4/cfe/fsw/cfe-core/src/sb/cfe_sb_api.c ****                                 (uint8)CFE_SB_LOCAL);
 535:/home/simulink/cFS_FreeRTOS_seL4/cfe/fsw/cfe-core/src/sb/cfe_sb_api.c **** 
 536:/home/simulink/cFS_FreeRTOS_seL4/cfe/fsw/cfe-core/src/sb/cfe_sb_api.c **** }/* end CFE_SB_SubscribeLocal */
 1144               	.loc 1 536 0
 1145 0a36 241F      	move.l (%sp)+,%d2
 1146 0a38 4FEF 000C 	lea (12,%sp),%sp
 1147 0a3c 4E75      	rts
 1148               	.cfi_endproc
 1149               	.LFE64:
 1150               	.sizeCFE_SB_SubscribeLocal, .-CFE_SB_SubscribeLocal
 1151               	.align2
 1152               	.globlCFE_SB_Subscribe
68K GAS   			page 34


 1153               	.typeCFE_SB_Subscribe, @function
 1154               	CFE_SB_Subscribe:
 1155               	.LFB65:
 537:/home/simulink/cFS_FreeRTOS_seL4/cfe/fsw/cfe-core/src/sb/cfe_sb_api.c **** 
 538:/home/simulink/cFS_FreeRTOS_seL4/cfe/fsw/cfe-core/src/sb/cfe_sb_api.c **** 
 539:/home/simulink/cFS_FreeRTOS_seL4/cfe/fsw/cfe-core/src/sb/cfe_sb_api.c **** 
 540:/home/simulink/cFS_FreeRTOS_seL4/cfe/fsw/cfe-core/src/sb/cfe_sb_api.c **** 
 541:/home/simulink/cFS_FreeRTOS_seL4/cfe/fsw/cfe-core/src/sb/cfe_sb_api.c **** /******************************************************************************
 542:/home/simulink/cFS_FreeRTOS_seL4/cfe/fsw/cfe-core/src/sb/cfe_sb_api.c **** ** Name:    CFE_SB_Subscribe
 543:/home/simulink/cFS_FreeRTOS_seL4/cfe/fsw/cfe-core/src/sb/cfe_sb_api.c **** **
 544:/home/simulink/cFS_FreeRTOS_seL4/cfe/fsw/cfe-core/src/sb/cfe_sb_api.c **** ** Purpose: API to locally subscribe to a message when QOS and MsgLim defaults
 545:/home/simulink/cFS_FreeRTOS_seL4/cfe/fsw/cfe-core/src/sb/cfe_sb_api.c **** **          are sufficient.
 546:/home/simulink/cFS_FreeRTOS_seL4/cfe/fsw/cfe-core/src/sb/cfe_sb_api.c **** **
 547:/home/simulink/cFS_FreeRTOS_seL4/cfe/fsw/cfe-core/src/sb/cfe_sb_api.c **** ** Assumptions, External Events, and Notes:
 548:/home/simulink/cFS_FreeRTOS_seL4/cfe/fsw/cfe-core/src/sb/cfe_sb_api.c **** **
 549:/home/simulink/cFS_FreeRTOS_seL4/cfe/fsw/cfe-core/src/sb/cfe_sb_api.c **** **          Note: Qos default: priority is low, reliability is low
 550:/home/simulink/cFS_FreeRTOS_seL4/cfe/fsw/cfe-core/src/sb/cfe_sb_api.c **** **                MsgLim default: 4 - meaning at most 4 messages of given
 551:/home/simulink/cFS_FreeRTOS_seL4/cfe/fsw/cfe-core/src/sb/cfe_sb_api.c **** **                                    MsgId allowed on the given PipeId.
 552:/home/simulink/cFS_FreeRTOS_seL4/cfe/fsw/cfe-core/src/sb/cfe_sb_api.c **** **
 553:/home/simulink/cFS_FreeRTOS_seL4/cfe/fsw/cfe-core/src/sb/cfe_sb_api.c **** ** Date Written:
 554:/home/simulink/cFS_FreeRTOS_seL4/cfe/fsw/cfe-core/src/sb/cfe_sb_api.c **** **          04/25/2005
 555:/home/simulink/cFS_FreeRTOS_seL4/cfe/fsw/cfe-core/src/sb/cfe_sb_api.c **** **
 556:/home/simulink/cFS_FreeRTOS_seL4/cfe/fsw/cfe-core/src/sb/cfe_sb_api.c **** ** Input Arguments:
 557:/home/simulink/cFS_FreeRTOS_seL4/cfe/fsw/cfe-core/src/sb/cfe_sb_api.c **** **          MsgId   - The requesting message
 558:/home/simulink/cFS_FreeRTOS_seL4/cfe/fsw/cfe-core/src/sb/cfe_sb_api.c **** **          PipeId  - The Pipe ID to send the message to
 559:/home/simulink/cFS_FreeRTOS_seL4/cfe/fsw/cfe-core/src/sb/cfe_sb_api.c **** **
 560:/home/simulink/cFS_FreeRTOS_seL4/cfe/fsw/cfe-core/src/sb/cfe_sb_api.c **** ** Output Arguments:
 561:/home/simulink/cFS_FreeRTOS_seL4/cfe/fsw/cfe-core/src/sb/cfe_sb_api.c **** **          None
 562:/home/simulink/cFS_FreeRTOS_seL4/cfe/fsw/cfe-core/src/sb/cfe_sb_api.c **** **
 563:/home/simulink/cFS_FreeRTOS_seL4/cfe/fsw/cfe-core/src/sb/cfe_sb_api.c **** ** Return Values:
 564:/home/simulink/cFS_FreeRTOS_seL4/cfe/fsw/cfe-core/src/sb/cfe_sb_api.c **** **          Status
 565:/home/simulink/cFS_FreeRTOS_seL4/cfe/fsw/cfe-core/src/sb/cfe_sb_api.c **** **
 566:/home/simulink/cFS_FreeRTOS_seL4/cfe/fsw/cfe-core/src/sb/cfe_sb_api.c **** ******************************************************************************/
 567:/home/simulink/cFS_FreeRTOS_seL4/cfe/fsw/cfe-core/src/sb/cfe_sb_api.c **** int32 CFE_SB_Subscribe(CFE_SB_MsgId_t   MsgId,
 568:/home/simulink/cFS_FreeRTOS_seL4/cfe/fsw/cfe-core/src/sb/cfe_sb_api.c ****                        CFE_SB_PipeId_t  PipeId)
 569:/home/simulink/cFS_FreeRTOS_seL4/cfe/fsw/cfe-core/src/sb/cfe_sb_api.c **** {
 1156               	.loc 1 569 0
 1157               	.cfi_startproc
 1158 0a3e 518F      	subq.l #8,%sp
 1159               	.cfi_def_cfa_offset 12
 1160 0a40 222F 000C 	move.l 12(%sp),%d1
 1161 0a44 202F 0010 	move.l 16(%sp),%d0
 1162 0a48 3201      	move.w %d1,%d1
 1163 0a4a 3F41 0004 	move.w %d1,4(%sp)
 1164 0a4e 1000      	move.b %d0,%d0
 1165 0a50 1E80      	move.b %d0,(%sp)
 570:/home/simulink/cFS_FreeRTOS_seL4/cfe/fsw/cfe-core/src/sb/cfe_sb_api.c ****     return CFE_SB_SubscribeFull(MsgId,PipeId,CFE_SB_Default_Qos,
 1166               	.loc 1 570 0
 1167 0a52 4281      	clr.l %d1
 1168 0a54 1217      	move.b (%sp),%d1
 1169 0a56 4280      	clr.l %d0
 1170 0a58 302F 0004 	move.w 4(%sp),%d0
 1171 0a5c 42A7      	clr.l -(%sp)
 1172               	.cfi_def_cfa_offset 16
 1173 0a5e 4878 0004 	pea 4.w
 1174               	.cfi_def_cfa_offset 20
 1175 0a62 3F39 0000 	move.w CFE_SB_Default_Qos,-(%sp)
68K GAS   			page 35


 1175      0000 
 1176               	.cfi_def_cfa_offset 22
 1177 0a68 558F      	subq.l #2,%sp
 1178               	.cfi_def_cfa_offset 24
 1179 0a6a 2F01      	move.l %d1,-(%sp)
 1180               	.cfi_def_cfa_offset 28
 1181 0a6c 2F00      	move.l %d0,-(%sp)
 1182               	.cfi_def_cfa_offset 32
 1183 0a6e 4EB9 0000 	jsr CFE_SB_SubscribeFull
 1183      0000 
 1184 0a74 4FEF 0014 	lea (20,%sp),%sp
 1185               	.cfi_def_cfa_offset 12
 571:/home/simulink/cFS_FreeRTOS_seL4/cfe/fsw/cfe-core/src/sb/cfe_sb_api.c ****                                (uint16)CFE_SB_DEFAULT_MSG_LIMIT,
 572:/home/simulink/cFS_FreeRTOS_seL4/cfe/fsw/cfe-core/src/sb/cfe_sb_api.c ****                                (uint8)CFE_SB_GLOBAL);
 573:/home/simulink/cFS_FreeRTOS_seL4/cfe/fsw/cfe-core/src/sb/cfe_sb_api.c **** 
 574:/home/simulink/cFS_FreeRTOS_seL4/cfe/fsw/cfe-core/src/sb/cfe_sb_api.c **** }/* end CFE_SB_Subscribe */
 1186               	.loc 1 574 0
 1187 0a78 508F      	addq.l #8,%sp
 1188 0a7a 4E75      	rts
 1189               	.cfi_endproc
 1190               	.LFE65:
 1191               	.sizeCFE_SB_Subscribe, .-CFE_SB_Subscribe
 1192               	.section.rodata
 1193               	.LC7:
 1194 0158 5375 6273 	.string"Subscribe Err:Invalid Pipe Id,Msg=0x%x,PipeId=%d,App %s"
 1194      6372 6962 
 1194      6520 4572 
 1194      723A 496E 
 1194      7661 6C69 
 1195               	.LC8:
 1196 0190 5375 6273 	.string"Subscribe Err:Caller(%s) is not the owner of pipe %d,Msg=0x%x"
 1196      6372 6962 
 1196      6520 4572 
 1196      723A 4361 
 1196      6C6C 6572 
 1197               	.LC9:
 1198 01ce 5375 6273 	.string"Subscribe Err:Bad Arg,MsgId 0x%x,PipeId %d,app %s,scope %d"
 1198      6372 6962 
 1198      6520 4572 
 1198      723A 4261 
 1198      6420 4172 
 1199               	.LC10:
 1200 0209 4475 706C 	.string"Duplicate Subscription,MsgId 0x%x on %s pipe,app %s"
 1200      6963 6174 
 1200      6520 5375 
 1200      6273 6372 
 1200      6970 7469 
 1201               	.LC11:
 1202 023d 5375 6273 	.string"Subscribe Err:Max Msgs(%d)In Use,MsgId 0x%x,pipe %s,app %s"
 1202      6372 6962 
 1202      6520 4572 
 1202      723A 4D61 
 1202      7820 4D73 
 1203               	.LC12:
 1204 0278 5375 6273 	.string"Subscribe Err:Max Dests(%d)In Use For Msg 0x%x,pipe %s,app %s"
 1204      6372 6962 
 1204      6520 4572 
68K GAS   			page 36


 1204      723A 4D61 
 1204      7820 4465 
 1205               	.LC13:
 1206 02b6 5375 6273 	.string"Subscribe Err:Request for Destination Blk failed for Msg 0x%x"
 1206      6372 6962 
 1206      6520 4572 
 1206      723A 5265 
 1206      7175 6573 
 1207               	.LC14:
 1208 02f4 5365 6E64 	.string"Sending Subscription Report Msg=0x%x,Pipe=%d,Stat=0x%x"
 1208      696E 6720 
 1208      5375 6273 
 1208      6372 6970 
 1208      7469 6F6E 
 1209               	.LC15:
 1210 032b 5375 6273 	.string"Subscription Rcvd:MsgId 0x%x on %s(%d),app %s"
 1210      6372 6970 
 1210      7469 6F6E 
 1210      2052 6376 
 1210      643A 4D73 
 1211               	.text
 1212               	.align2
 1213               	.globlCFE_SB_SubscribeFull
 1214               	.typeCFE_SB_SubscribeFull, @function
 1215               	CFE_SB_SubscribeFull:
 1216               	.LFB66:
 575:/home/simulink/cFS_FreeRTOS_seL4/cfe/fsw/cfe-core/src/sb/cfe_sb_api.c **** 
 576:/home/simulink/cFS_FreeRTOS_seL4/cfe/fsw/cfe-core/src/sb/cfe_sb_api.c **** 
 577:/home/simulink/cFS_FreeRTOS_seL4/cfe/fsw/cfe-core/src/sb/cfe_sb_api.c **** /******************************************************************************
 578:/home/simulink/cFS_FreeRTOS_seL4/cfe/fsw/cfe-core/src/sb/cfe_sb_api.c **** ** Name:    CFE_SB_SubscribeFull
 579:/home/simulink/cFS_FreeRTOS_seL4/cfe/fsw/cfe-core/src/sb/cfe_sb_api.c **** **
 580:/home/simulink/cFS_FreeRTOS_seL4/cfe/fsw/cfe-core/src/sb/cfe_sb_api.c **** ** Purpose: CFE Internal API used to subscribe to a message. Contains an input
 581:/home/simulink/cFS_FreeRTOS_seL4/cfe/fsw/cfe-core/src/sb/cfe_sb_api.c **** **          parameter for all possible subscription choices. This function is
 582:/home/simulink/cFS_FreeRTOS_seL4/cfe/fsw/cfe-core/src/sb/cfe_sb_api.c **** **          called by CFE_SB_SubscribeEx, CFE_SB_Subscribe and
 583:/home/simulink/cFS_FreeRTOS_seL4/cfe/fsw/cfe-core/src/sb/cfe_sb_api.c **** **          CFE_SB_SubscribeLocal.
 584:/home/simulink/cFS_FreeRTOS_seL4/cfe/fsw/cfe-core/src/sb/cfe_sb_api.c **** **
 585:/home/simulink/cFS_FreeRTOS_seL4/cfe/fsw/cfe-core/src/sb/cfe_sb_api.c **** ** Assumptions, External Events, and Notes:
 586:/home/simulink/cFS_FreeRTOS_seL4/cfe/fsw/cfe-core/src/sb/cfe_sb_api.c **** **          None
 587:/home/simulink/cFS_FreeRTOS_seL4/cfe/fsw/cfe-core/src/sb/cfe_sb_api.c **** **
 588:/home/simulink/cFS_FreeRTOS_seL4/cfe/fsw/cfe-core/src/sb/cfe_sb_api.c **** ** Date Written:
 589:/home/simulink/cFS_FreeRTOS_seL4/cfe/fsw/cfe-core/src/sb/cfe_sb_api.c **** **          04/25/2005
 590:/home/simulink/cFS_FreeRTOS_seL4/cfe/fsw/cfe-core/src/sb/cfe_sb_api.c **** **
 591:/home/simulink/cFS_FreeRTOS_seL4/cfe/fsw/cfe-core/src/sb/cfe_sb_api.c **** ** Input Arguments:
 592:/home/simulink/cFS_FreeRTOS_seL4/cfe/fsw/cfe-core/src/sb/cfe_sb_api.c **** **          MsgId   - The requesting message
 593:/home/simulink/cFS_FreeRTOS_seL4/cfe/fsw/cfe-core/src/sb/cfe_sb_api.c **** **          PipeId  - The Pipe ID to send the message to
 594:/home/simulink/cFS_FreeRTOS_seL4/cfe/fsw/cfe-core/src/sb/cfe_sb_api.c **** **          Quality - Quality of Service (Qos) - priority and reliability
 595:/home/simulink/cFS_FreeRTOS_seL4/cfe/fsw/cfe-core/src/sb/cfe_sb_api.c **** **          MsgLim  - Max number of messages, with this MsgId, allowed on the
 596:/home/simulink/cFS_FreeRTOS_seL4/cfe/fsw/cfe-core/src/sb/cfe_sb_api.c **** **                    pipe at any time.
 597:/home/simulink/cFS_FreeRTOS_seL4/cfe/fsw/cfe-core/src/sb/cfe_sb_api.c **** **          Scope   - Local subscription or broadcasted to peers
 598:/home/simulink/cFS_FreeRTOS_seL4/cfe/fsw/cfe-core/src/sb/cfe_sb_api.c **** **
 599:/home/simulink/cFS_FreeRTOS_seL4/cfe/fsw/cfe-core/src/sb/cfe_sb_api.c **** ** Output Arguments:
 600:/home/simulink/cFS_FreeRTOS_seL4/cfe/fsw/cfe-core/src/sb/cfe_sb_api.c **** **          None
 601:/home/simulink/cFS_FreeRTOS_seL4/cfe/fsw/cfe-core/src/sb/cfe_sb_api.c **** **
 602:/home/simulink/cFS_FreeRTOS_seL4/cfe/fsw/cfe-core/src/sb/cfe_sb_api.c **** ** Return Values:
 603:/home/simulink/cFS_FreeRTOS_seL4/cfe/fsw/cfe-core/src/sb/cfe_sb_api.c **** **          Status
 604:/home/simulink/cFS_FreeRTOS_seL4/cfe/fsw/cfe-core/src/sb/cfe_sb_api.c **** **
 605:/home/simulink/cFS_FreeRTOS_seL4/cfe/fsw/cfe-core/src/sb/cfe_sb_api.c **** ******************************************************************************/
68K GAS   			page 37


 606:/home/simulink/cFS_FreeRTOS_seL4/cfe/fsw/cfe-core/src/sb/cfe_sb_api.c **** int32  CFE_SB_SubscribeFull(CFE_SB_MsgId_t   MsgId,
 607:/home/simulink/cFS_FreeRTOS_seL4/cfe/fsw/cfe-core/src/sb/cfe_sb_api.c ****                             CFE_SB_PipeId_t  PipeId,
 608:/home/simulink/cFS_FreeRTOS_seL4/cfe/fsw/cfe-core/src/sb/cfe_sb_api.c ****                             CFE_SB_Qos_t     Quality,
 609:/home/simulink/cFS_FreeRTOS_seL4/cfe/fsw/cfe-core/src/sb/cfe_sb_api.c ****                             uint16           MsgLim,
 610:/home/simulink/cFS_FreeRTOS_seL4/cfe/fsw/cfe-core/src/sb/cfe_sb_api.c ****                             uint8            Scope)
 611:/home/simulink/cFS_FreeRTOS_seL4/cfe/fsw/cfe-core/src/sb/cfe_sb_api.c **** {
 1217               	.loc 1 611 0
 1218               	.cfi_startproc
 1219 0a7c 4FEF FFB0 	lea (-80,%sp),%sp
 1220               	.cfi_def_cfa_offset 84
 1221 0a80 2F03      	move.l %d3,-(%sp)
 1222               	.cfi_def_cfa_offset 88
 1223               	.cfi_offset 3, -88
 1224 0a82 2F02      	move.l %d2,-(%sp)
 1225               	.cfi_def_cfa_offset 92
 1226               	.cfi_offset 2, -92
 1227 0a84 206F 005C 	move.l 92(%sp),%a0
 1228 0a88 242F 0060 	move.l 96(%sp),%d2
 1229 0a8c 222F 0068 	move.l 104(%sp),%d1
 1230 0a90 202F 006C 	move.l 108(%sp),%d0
 1231 0a94 3048      	move.w %a0,%a0
 1232 0a96 3F48 0014 	move.w %a0,20(%sp)
 1233 0a9a 1402      	move.b %d2,%d2
 1234 0a9c 1F42 0010 	move.b %d2,16(%sp)
 1235 0aa0 3201      	move.w %d1,%d1
 1236 0aa2 3F41 000C 	move.w %d1,12(%sp)
 1237 0aa6 1000      	move.b %d0,%d0
 1238 0aa8 1F40 0008 	move.b %d0,8(%sp)
 612:/home/simulink/cFS_FreeRTOS_seL4/cfe/fsw/cfe-core/src/sb/cfe_sb_api.c ****     uint16 Idx;
 613:/home/simulink/cFS_FreeRTOS_seL4/cfe/fsw/cfe-core/src/sb/cfe_sb_api.c ****     int32  Stat;
 614:/home/simulink/cFS_FreeRTOS_seL4/cfe/fsw/cfe-core/src/sb/cfe_sb_api.c ****     uint32 TskId = 0;
 1239               	.loc 1 614 0
 1240 0aac 42AF 0050 	clr.l 80(%sp)
 615:/home/simulink/cFS_FreeRTOS_seL4/cfe/fsw/cfe-core/src/sb/cfe_sb_api.c ****     uint32 AppId = 0xFFFFFFFF;
 1241               	.loc 1 615 0
 1242 0ab0 70FF      	moveq #-1,%d0
 1243 0ab2 2F40 0040 	move.l %d0,64(%sp)
 616:/home/simulink/cFS_FreeRTOS_seL4/cfe/fsw/cfe-core/src/sb/cfe_sb_api.c ****     uint8  PipeIdx;
 617:/home/simulink/cFS_FreeRTOS_seL4/cfe/fsw/cfe-core/src/sb/cfe_sb_api.c ****     CFE_SB_DestinationD_t *DestBlkPtr = NULL;
 1244               	.loc 1 617 0
 1245 0ab6 42AF 004C 	clr.l 76(%sp)
 618:/home/simulink/cFS_FreeRTOS_seL4/cfe/fsw/cfe-core/src/sb/cfe_sb_api.c ****     char   FullName[(OS_MAX_API_NAME * 2)];
 619:/home/simulink/cFS_FreeRTOS_seL4/cfe/fsw/cfe-core/src/sb/cfe_sb_api.c **** 
 620:/home/simulink/cFS_FreeRTOS_seL4/cfe/fsw/cfe-core/src/sb/cfe_sb_api.c ****     /* take semaphore to prevent a task switch during this call */
 621:/home/simulink/cFS_FreeRTOS_seL4/cfe/fsw/cfe-core/src/sb/cfe_sb_api.c ****     CFE_SB_LockSharedData(__func__,__LINE__);
 1246               	.loc 1 621 0
 1247 0aba 4878 026D 	pea 621.w
 1248               	.cfi_def_cfa_offset 96
 1249 0abe 4879 0000 	pea __func__.5658
 1249      0000 
 1250               	.cfi_def_cfa_offset 100
 1251 0ac4 4EB9 0000 	jsr CFE_SB_LockSharedData
 1251      0000 
 1252 0aca 508F      	addq.l #8,%sp
 1253               	.cfi_def_cfa_offset 92
 622:/home/simulink/cFS_FreeRTOS_seL4/cfe/fsw/cfe-core/src/sb/cfe_sb_api.c **** 
 623:/home/simulink/cFS_FreeRTOS_seL4/cfe/fsw/cfe-core/src/sb/cfe_sb_api.c ****     /* get task id for events */
68K GAS   			page 38


 624:/home/simulink/cFS_FreeRTOS_seL4/cfe/fsw/cfe-core/src/sb/cfe_sb_api.c ****     TskId = OS_TaskGetId();
 1254               	.loc 1 624 0
 1255 0acc 4EB9 0000 	jsr OS_TaskGetId
 1255      0000 
 1256 0ad2 2F40 0050 	move.l %d0,80(%sp)
 625:/home/simulink/cFS_FreeRTOS_seL4/cfe/fsw/cfe-core/src/sb/cfe_sb_api.c **** 
 626:/home/simulink/cFS_FreeRTOS_seL4/cfe/fsw/cfe-core/src/sb/cfe_sb_api.c ****     /* get the callers Application Id */
 627:/home/simulink/cFS_FreeRTOS_seL4/cfe/fsw/cfe-core/src/sb/cfe_sb_api.c ****     CFE_ES_GetAppID(&AppId);
 1257               	.loc 1 627 0
 1258 0ad6 200F      	move.l %sp,%d0
 1259 0ad8 0680 0000 	add.l #64,%d0
 1259      0040 
 1260 0ade 2F00      	move.l %d0,-(%sp)
 1261               	.cfi_def_cfa_offset 96
 1262 0ae0 4EB9 0000 	jsr CFE_ES_GetAppID
 1262      0000 
 1263 0ae6 588F      	addq.l #4,%sp
 1264               	.cfi_def_cfa_offset 92
 628:/home/simulink/cFS_FreeRTOS_seL4/cfe/fsw/cfe-core/src/sb/cfe_sb_api.c **** 
 629:/home/simulink/cFS_FreeRTOS_seL4/cfe/fsw/cfe-core/src/sb/cfe_sb_api.c ****     /* check that the pipe has been created */
 630:/home/simulink/cFS_FreeRTOS_seL4/cfe/fsw/cfe-core/src/sb/cfe_sb_api.c ****     PipeIdx = CFE_SB_GetPipeIdx(PipeId);
 1265               	.loc 1 630 0
 1266 0ae8 4280      	clr.l %d0
 1267 0aea 102F 0010 	move.b 16(%sp),%d0
 1268 0aee 2F00      	move.l %d0,-(%sp)
 1269               	.cfi_def_cfa_offset 96
 1270 0af0 4EB9 0000 	jsr CFE_SB_GetPipeIdx
 1270      0000 
 1271 0af6 588F      	addq.l #4,%sp
 1272               	.cfi_def_cfa_offset 92
 1273 0af8 1F40 004B 	move.b %d0,75(%sp)
 631:/home/simulink/cFS_FreeRTOS_seL4/cfe/fsw/cfe-core/src/sb/cfe_sb_api.c ****     if(PipeIdx==CFE_SB_INVALID_PIPE){
 1274               	.loc 1 631 0
 1275 0afc 4280      	clr.l %d0
 1276 0afe 102F 004B 	move.b 75(%sp),%d0
 1277 0b02 0C80 0000 	cmp.l #255,%d0
 1277      00FF 
 1278 0b08 6676      	jne .L37
 632:/home/simulink/cFS_FreeRTOS_seL4/cfe/fsw/cfe-core/src/sb/cfe_sb_api.c ****       CFE_SB.HKTlmMsg.Payload.SubscribeErrCnt++;
 1279               	.loc 1 632 0
 1280 0b0a 1039 0000 	move.b CFE_SB+4519,%d0
 1280      0000 
 1281 0b10 5280      	addq.l #1,%d0
 1282 0b12 1000      	move.b %d0,%d0
 1283 0b14 13C0 0000 	move.b %d0,CFE_SB+4519
 1283      0000 
 633:/home/simulink/cFS_FreeRTOS_seL4/cfe/fsw/cfe-core/src/sb/cfe_sb_api.c ****       CFE_SB_UnlockSharedData(__func__,__LINE__);
 1284               	.loc 1 633 0
 1285 0b1a 4878 0279 	pea 633.w
 1286               	.cfi_def_cfa_offset 96
 1287 0b1e 4879 0000 	pea __func__.5658
 1287      0000 
 1288               	.cfi_def_cfa_offset 100
 1289 0b24 4EB9 0000 	jsr CFE_SB_UnlockSharedData
 1289      0000 
 1290 0b2a 508F      	addq.l #8,%sp
 1291               	.cfi_def_cfa_offset 92
68K GAS   			page 39


 634:/home/simulink/cFS_FreeRTOS_seL4/cfe/fsw/cfe-core/src/sb/cfe_sb_api.c ****       CFE_EVS_SendEventWithAppID(CFE_SB_SUB_INV_PIPE_EID,CFE_EVS_ERROR,CFE_SB.AppId,
 1292               	.loc 1 634 0
 1293 0b2c 200F      	move.l %sp,%d0
 1294 0b2e 0680 0000 	add.l #24,%d0
 1294      0018 
 1295 0b34 2F00      	move.l %d0,-(%sp)
 1296               	.cfi_def_cfa_offset 96
 1297 0b36 2F2F 0054 	move.l 84(%sp),-(%sp)
 1298               	.cfi_def_cfa_offset 100
 1299 0b3a 4EB9 0000 	jsr CFE_SB_GetAppTskName
 1299      0000 
 1300 0b40 508F      	addq.l #8,%sp
 1301               	.cfi_def_cfa_offset 92
 1302 0b42 2240      	move.l %d0,%a1
 1303 0b44 4281      	clr.l %d1
 1304 0b46 122F 0010 	move.b 16(%sp),%d1
 1305 0b4a 4280      	clr.l %d0
 1306 0b4c 302F 0014 	move.w 20(%sp),%d0
 1307 0b50 2079 0000 	move.l CFE_SB+12,%a0
 1307      0000 
 1308 0b56 2F09      	move.l %a1,-(%sp)
 1309               	.cfi_def_cfa_offset 96
 1310 0b58 2F01      	move.l %d1,-(%sp)
 1311               	.cfi_def_cfa_offset 100
 1312 0b5a 2F00      	move.l %d0,-(%sp)
 1313               	.cfi_def_cfa_offset 104
 1314 0b5c 4879 0000 	pea .LC7
 1314      0000 
 1315               	.cfi_def_cfa_offset 108
 1316 0b62 2F08      	move.l %a0,-(%sp)
 1317               	.cfi_def_cfa_offset 112
 1318 0b64 4878 0003 	pea 3.w
 1319               	.cfi_def_cfa_offset 116
 1320 0b68 4878 0032 	pea 50.w
 1321               	.cfi_def_cfa_offset 120
 1322 0b6c 4EB9 0000 	jsr CFE_EVS_SendEventWithAppID
 1322      0000 
 1323 0b72 4FEF 001C 	lea (28,%sp),%sp
 1324               	.cfi_def_cfa_offset 92
 635:/home/simulink/cFS_FreeRTOS_seL4/cfe/fsw/cfe-core/src/sb/cfe_sb_api.c ****           "Subscribe Err:Invalid Pipe Id,Msg=0x%x,PipeId=%d,App %s",MsgId,PipeId,
 636:/home/simulink/cFS_FreeRTOS_seL4/cfe/fsw/cfe-core/src/sb/cfe_sb_api.c ****           CFE_SB_GetAppTskName(TskId,FullName));
 637:/home/simulink/cFS_FreeRTOS_seL4/cfe/fsw/cfe-core/src/sb/cfe_sb_api.c ****       return CFE_SB_BAD_ARGUMENT;
 1325               	.loc 1 637 0
 1326 0b76 203C CA00 	move.l #-905969661,%d0
 1326      0003 
 1327 0b7c 6000 05A2 	jra .L50
 1328               	.L37:
 638:/home/simulink/cFS_FreeRTOS_seL4/cfe/fsw/cfe-core/src/sb/cfe_sb_api.c ****     }/* end if */
 639:/home/simulink/cFS_FreeRTOS_seL4/cfe/fsw/cfe-core/src/sb/cfe_sb_api.c **** 
 640:/home/simulink/cFS_FreeRTOS_seL4/cfe/fsw/cfe-core/src/sb/cfe_sb_api.c ****     /* check that the requestor is the owner of the pipe */
 641:/home/simulink/cFS_FreeRTOS_seL4/cfe/fsw/cfe-core/src/sb/cfe_sb_api.c ****     if(CFE_SB.PipeTbl[PipeIdx].AppId != AppId){
 1329               	.loc 1 641 0
 1330 0b80 4280      	clr.l %d0
 1331 0b82 102F 004B 	move.b 75(%sp),%d0
 1332 0b86 7244      	moveq #68,%d1
 1333 0b88 4C01 0800 	muls.l %d1,%d0
 1334 0b8c 41F9 0000 	lea CFE_SB+192,%a0
68K GAS   			page 40


 1334      0000 
 1335 0b92 2230 0800 	move.l (%a0,%d0.l),%d1
 1336 0b96 202F 0040 	move.l 64(%sp),%d0
 1337 0b9a B081      	cmp.l %d1,%d0
 1338 0b9c 6776      	jeq .L39
 642:/home/simulink/cFS_FreeRTOS_seL4/cfe/fsw/cfe-core/src/sb/cfe_sb_api.c ****       CFE_SB.HKTlmMsg.Payload.SubscribeErrCnt++;
 1339               	.loc 1 642 0
 1340 0b9e 1039 0000 	move.b CFE_SB+4519,%d0
 1340      0000 
 1341 0ba4 5280      	addq.l #1,%d0
 1342 0ba6 1000      	move.b %d0,%d0
 1343 0ba8 13C0 0000 	move.b %d0,CFE_SB+4519
 1343      0000 
 643:/home/simulink/cFS_FreeRTOS_seL4/cfe/fsw/cfe-core/src/sb/cfe_sb_api.c ****       CFE_SB_UnlockSharedData(__func__,__LINE__);
 1344               	.loc 1 643 0
 1345 0bae 4878 0283 	pea 643.w
 1346               	.cfi_def_cfa_offset 96
 1347 0bb2 4879 0000 	pea __func__.5658
 1347      0000 
 1348               	.cfi_def_cfa_offset 100
 1349 0bb8 4EB9 0000 	jsr CFE_SB_UnlockSharedData
 1349      0000 
 1350 0bbe 508F      	addq.l #8,%sp
 1351               	.cfi_def_cfa_offset 92
 644:/home/simulink/cFS_FreeRTOS_seL4/cfe/fsw/cfe-core/src/sb/cfe_sb_api.c ****       CFE_EVS_SendEventWithAppID(CFE_SB_SUB_INV_CALLER_EID,CFE_EVS_ERROR,CFE_SB.AppId,
 1352               	.loc 1 644 0
 1353 0bc0 4283      	clr.l %d3
 1354 0bc2 362F 0014 	move.w 20(%sp),%d3
 1355 0bc6 4282      	clr.l %d2
 1356 0bc8 142F 0010 	move.b 16(%sp),%d2
 1357 0bcc 200F      	move.l %sp,%d0
 1358 0bce 0680 0000 	add.l #24,%d0
 1358      0018 
 1359 0bd4 2F00      	move.l %d0,-(%sp)
 1360               	.cfi_def_cfa_offset 96
 1361 0bd6 2F2F 0054 	move.l 84(%sp),-(%sp)
 1362               	.cfi_def_cfa_offset 100
 1363 0bda 4EB9 0000 	jsr CFE_SB_GetAppTskName
 1363      0000 
 1364 0be0 508F      	addq.l #8,%sp
 1365               	.cfi_def_cfa_offset 92
 1366 0be2 2200      	move.l %d0,%d1
 1367 0be4 2039 0000 	move.l CFE_SB+12,%d0
 1367      0000 
 1368 0bea 2F03      	move.l %d3,-(%sp)
 1369               	.cfi_def_cfa_offset 96
 1370 0bec 2F02      	move.l %d2,-(%sp)
 1371               	.cfi_def_cfa_offset 100
 1372 0bee 2F01      	move.l %d1,-(%sp)
 1373               	.cfi_def_cfa_offset 104
 1374 0bf0 4879 0000 	pea .LC8
 1374      0000 
 1375               	.cfi_def_cfa_offset 108
 1376 0bf6 2F00      	move.l %d0,-(%sp)
 1377               	.cfi_def_cfa_offset 112
 1378 0bf8 4878 0003 	pea 3.w
 1379               	.cfi_def_cfa_offset 116
68K GAS   			page 41


 1380 0bfc 4878 0033 	pea 51.w
 1381               	.cfi_def_cfa_offset 120
 1382 0c00 4EB9 0000 	jsr CFE_EVS_SendEventWithAppID
 1382      0000 
 1383 0c06 4FEF 001C 	lea (28,%sp),%sp
 1384               	.cfi_def_cfa_offset 92
 645:/home/simulink/cFS_FreeRTOS_seL4/cfe/fsw/cfe-core/src/sb/cfe_sb_api.c ****           "Subscribe Err:Caller(%s) is not the owner of pipe %d,Msg=0x%x",
 646:/home/simulink/cFS_FreeRTOS_seL4/cfe/fsw/cfe-core/src/sb/cfe_sb_api.c ****           CFE_SB_GetAppTskName(TskId,FullName),PipeId,MsgId);
 647:/home/simulink/cFS_FreeRTOS_seL4/cfe/fsw/cfe-core/src/sb/cfe_sb_api.c ****       return CFE_SB_BAD_ARGUMENT;
 1385               	.loc 1 647 0
 1386 0c0a 203C CA00 	move.l #-905969661,%d0
 1386      0003 
 1387 0c10 6000 050E 	jra .L50
 1388               	.L39:
 648:/home/simulink/cFS_FreeRTOS_seL4/cfe/fsw/cfe-core/src/sb/cfe_sb_api.c ****     }/* end if */
 649:/home/simulink/cFS_FreeRTOS_seL4/cfe/fsw/cfe-core/src/sb/cfe_sb_api.c **** 
 650:/home/simulink/cFS_FreeRTOS_seL4/cfe/fsw/cfe-core/src/sb/cfe_sb_api.c ****     /* check message id and scope */
 651:/home/simulink/cFS_FreeRTOS_seL4/cfe/fsw/cfe-core/src/sb/cfe_sb_api.c ****     if((CFE_SB_ValidateMsgId(MsgId) != CFE_SUCCESS)||(Scope > 1))
 1389               	.loc 1 651 0
 1390 0c14 4280      	clr.l %d0
 1391 0c16 302F 0014 	move.w 20(%sp),%d0
 1392 0c1a 2F00      	move.l %d0,-(%sp)
 1393               	.cfi_def_cfa_offset 96
 1394 0c1c 4EB9 0000 	jsr CFE_SB_ValidateMsgId
 1394      0000 
 1395 0c22 588F      	addq.l #4,%sp
 1396               	.cfi_def_cfa_offset 92
 1397 0c24 4A80      	tst.l %d0
 1398 0c26 660C      	jne .L40
 1399               	.loc 1 651 0 is_stmt 0 discriminator 1
 1400 0c28 4280      	clr.l %d0
 1401 0c2a 102F 0008 	move.b 8(%sp),%d0
 1402 0c2e 7401      	moveq #1,%d2
 1403 0c30 B480      	cmp.l %d0,%d2
 1404 0c32 647E      	jcc .L41
 1405               	.L40:
 652:/home/simulink/cFS_FreeRTOS_seL4/cfe/fsw/cfe-core/src/sb/cfe_sb_api.c ****     {
 653:/home/simulink/cFS_FreeRTOS_seL4/cfe/fsw/cfe-core/src/sb/cfe_sb_api.c ****         CFE_SB.HKTlmMsg.Payload.SubscribeErrCnt++;
 1406               	.loc 1 653 0 is_stmt 1
 1407 0c34 1039 0000 	move.b CFE_SB+4519,%d0
 1407      0000 
 1408 0c3a 5280      	addq.l #1,%d0
 1409 0c3c 1000      	move.b %d0,%d0
 1410 0c3e 13C0 0000 	move.b %d0,CFE_SB+4519
 1410      0000 
 654:/home/simulink/cFS_FreeRTOS_seL4/cfe/fsw/cfe-core/src/sb/cfe_sb_api.c ****         CFE_SB_UnlockSharedData(__func__,__LINE__);
 1411               	.loc 1 654 0
 1412 0c44 4878 028E 	pea 654.w
 1413               	.cfi_def_cfa_offset 96
 1414 0c48 4879 0000 	pea __func__.5658
 1414      0000 
 1415               	.cfi_def_cfa_offset 100
 1416 0c4e 4EB9 0000 	jsr CFE_SB_UnlockSharedData
 1416      0000 
 1417 0c54 508F      	addq.l #8,%sp
 1418               	.cfi_def_cfa_offset 92
 655:/home/simulink/cFS_FreeRTOS_seL4/cfe/fsw/cfe-core/src/sb/cfe_sb_api.c ****         CFE_EVS_SendEventWithAppID(CFE_SB_SUB_ARG_ERR_EID,CFE_EVS_ERROR,CFE_SB.AppId,
68K GAS   			page 42


 1419               	.loc 1 655 0
 1420 0c56 4282      	clr.l %d2
 1421 0c58 142F 0008 	move.b 8(%sp),%d2
 1422 0c5c 200F      	move.l %sp,%d0
 1423 0c5e 0680 0000 	add.l #24,%d0
 1423      0018 
 1424 0c64 2F00      	move.l %d0,-(%sp)
 1425               	.cfi_def_cfa_offset 96
 1426 0c66 2F2F 0054 	move.l 84(%sp),-(%sp)
 1427               	.cfi_def_cfa_offset 100
 1428 0c6a 4EB9 0000 	jsr CFE_SB_GetAppTskName
 1428      0000 
 1429 0c70 508F      	addq.l #8,%sp
 1430               	.cfi_def_cfa_offset 92
 1431 0c72 2240      	move.l %d0,%a1
 1432 0c74 4281      	clr.l %d1
 1433 0c76 122F 0010 	move.b 16(%sp),%d1
 1434 0c7a 4280      	clr.l %d0
 1435 0c7c 302F 0014 	move.w 20(%sp),%d0
 1436 0c80 2079 0000 	move.l CFE_SB+12,%a0
 1436      0000 
 1437 0c86 2F02      	move.l %d2,-(%sp)
 1438               	.cfi_def_cfa_offset 96
 1439 0c88 2F09      	move.l %a1,-(%sp)
 1440               	.cfi_def_cfa_offset 100
 1441 0c8a 2F01      	move.l %d1,-(%sp)
 1442               	.cfi_def_cfa_offset 104
 1443 0c8c 2F00      	move.l %d0,-(%sp)
 1444               	.cfi_def_cfa_offset 108
 1445 0c8e 4879 0000 	pea .LC9
 1445      0000 
 1446               	.cfi_def_cfa_offset 112
 1447 0c94 2F08      	move.l %a0,-(%sp)
 1448               	.cfi_def_cfa_offset 116
 1449 0c96 4878 0003 	pea 3.w
 1450               	.cfi_def_cfa_offset 120
 1451 0c9a 4878 0006 	pea 6.w
 1452               	.cfi_def_cfa_offset 124
 1453 0c9e 4EB9 0000 	jsr CFE_EVS_SendEventWithAppID
 1453      0000 
 1454 0ca4 4FEF 0020 	lea (32,%sp),%sp
 1455               	.cfi_def_cfa_offset 92
 656:/home/simulink/cFS_FreeRTOS_seL4/cfe/fsw/cfe-core/src/sb/cfe_sb_api.c ****           "Subscribe Err:Bad Arg,MsgId 0x%x,PipeId %d,app %s,scope %d",
 657:/home/simulink/cFS_FreeRTOS_seL4/cfe/fsw/cfe-core/src/sb/cfe_sb_api.c ****           MsgId,PipeId,CFE_SB_GetAppTskName(TskId,FullName),Scope);
 658:/home/simulink/cFS_FreeRTOS_seL4/cfe/fsw/cfe-core/src/sb/cfe_sb_api.c ****         return CFE_SB_BAD_ARGUMENT;
 1456               	.loc 1 658 0
 1457 0ca8 203C CA00 	move.l #-905969661,%d0
 1457      0003 
 1458 0cae 6000 0470 	jra .L50
 1459               	.L41:
 659:/home/simulink/cFS_FreeRTOS_seL4/cfe/fsw/cfe-core/src/sb/cfe_sb_api.c ****     }/* end if */
 660:/home/simulink/cFS_FreeRTOS_seL4/cfe/fsw/cfe-core/src/sb/cfe_sb_api.c **** 
 661:/home/simulink/cFS_FreeRTOS_seL4/cfe/fsw/cfe-core/src/sb/cfe_sb_api.c ****     /* check for duplicate subscription */
 662:/home/simulink/cFS_FreeRTOS_seL4/cfe/fsw/cfe-core/src/sb/cfe_sb_api.c ****     if(CFE_SB_DuplicateSubscribeCheck(MsgId,PipeId)==CFE_SB_DUPLICATE){
 1460               	.loc 1 662 0
 1461 0cb2 4281      	clr.l %d1
 1462 0cb4 122F 0010 	move.b 16(%sp),%d1
68K GAS   			page 43


 1463 0cb8 4280      	clr.l %d0
 1464 0cba 302F 0014 	move.w 20(%sp),%d0
 1465 0cbe 2F01      	move.l %d1,-(%sp)
 1466               	.cfi_def_cfa_offset 96
 1467 0cc0 2F00      	move.l %d0,-(%sp)
 1468               	.cfi_def_cfa_offset 100
 1469 0cc2 4EB9 0000 	jsr CFE_SB_DuplicateSubscribeCheck
 1469      0000 
 1470 0cc8 508F      	addq.l #8,%sp
 1471               	.cfi_def_cfa_offset 92
 1472 0cca 7201      	moveq #1,%d1
 1473 0ccc B280      	cmp.l %d0,%d1
 1474 0cce 667E      	jne .L42
 663:/home/simulink/cFS_FreeRTOS_seL4/cfe/fsw/cfe-core/src/sb/cfe_sb_api.c ****         CFE_SB.HKTlmMsg.Payload.DupSubscriptionsCnt++;
 1475               	.loc 1 663 0
 1476 0cd0 1039 0000 	move.b CFE_SB+4521,%d0
 1476      0000 
 1477 0cd6 5280      	addq.l #1,%d0
 1478 0cd8 1000      	move.b %d0,%d0
 1479 0cda 13C0 0000 	move.b %d0,CFE_SB+4521
 1479      0000 
 664:/home/simulink/cFS_FreeRTOS_seL4/cfe/fsw/cfe-core/src/sb/cfe_sb_api.c ****         CFE_SB_UnlockSharedData(__func__,__LINE__);
 1480               	.loc 1 664 0
 1481 0ce0 4878 0298 	pea 664.w
 1482               	.cfi_def_cfa_offset 96
 1483 0ce4 4879 0000 	pea __func__.5658
 1483      0000 
 1484               	.cfi_def_cfa_offset 100
 1485 0cea 4EB9 0000 	jsr CFE_SB_UnlockSharedData
 1485      0000 
 1486 0cf0 508F      	addq.l #8,%sp
 1487               	.cfi_def_cfa_offset 92
 665:/home/simulink/cFS_FreeRTOS_seL4/cfe/fsw/cfe-core/src/sb/cfe_sb_api.c ****         CFE_EVS_SendEventWithAppID(CFE_SB_DUP_SUBSCRIP_EID,CFE_EVS_INFORMATION,CFE_SB.AppId,
 1488               	.loc 1 665 0
 1489 0cf2 200F      	move.l %sp,%d0
 1490 0cf4 0680 0000 	add.l #24,%d0
 1490      0018 
 1491 0cfa 2F00      	move.l %d0,-(%sp)
 1492               	.cfi_def_cfa_offset 96
 1493 0cfc 2F2F 0054 	move.l 84(%sp),-(%sp)
 1494               	.cfi_def_cfa_offset 100
 1495 0d00 4EB9 0000 	jsr CFE_SB_GetAppTskName
 1495      0000 
 1496 0d06 508F      	addq.l #8,%sp
 1497               	.cfi_def_cfa_offset 92
 1498 0d08 2400      	move.l %d0,%d2
 1499 0d0a 4280      	clr.l %d0
 1500 0d0c 102F 0010 	move.b 16(%sp),%d0
 1501 0d10 2F00      	move.l %d0,-(%sp)
 1502               	.cfi_def_cfa_offset 96
 1503 0d12 4EB9 0000 	jsr CFE_SB_GetPipeName
 1503      0000 
 1504 0d18 588F      	addq.l #4,%sp
 1505               	.cfi_def_cfa_offset 92
 1506 0d1a 2040      	move.l %d0,%a0
 1507 0d1c 4280      	clr.l %d0
 1508 0d1e 302F 0014 	move.w 20(%sp),%d0
68K GAS   			page 44


 1509 0d22 2239 0000 	move.l CFE_SB+12,%d1
 1509      0000 
 1510 0d28 2F02      	move.l %d2,-(%sp)
 1511               	.cfi_def_cfa_offset 96
 1512 0d2a 2F08      	move.l %a0,-(%sp)
 1513               	.cfi_def_cfa_offset 100
 1514 0d2c 2F00      	move.l %d0,-(%sp)
 1515               	.cfi_def_cfa_offset 104
 1516 0d2e 4879 0000 	pea .LC10
 1516      0000 
 1517               	.cfi_def_cfa_offset 108
 1518 0d34 2F01      	move.l %d1,-(%sp)
 1519               	.cfi_def_cfa_offset 112
 1520 0d36 4878 0002 	pea 2.w
 1521               	.cfi_def_cfa_offset 116
 1522 0d3a 4878 0007 	pea 7.w
 1523               	.cfi_def_cfa_offset 120
 1524 0d3e 4EB9 0000 	jsr CFE_EVS_SendEventWithAppID
 1524      0000 
 1525 0d44 4FEF 001C 	lea (28,%sp),%sp
 1526               	.cfi_def_cfa_offset 92
 666:/home/simulink/cFS_FreeRTOS_seL4/cfe/fsw/cfe-core/src/sb/cfe_sb_api.c ****           "Duplicate Subscription,MsgId 0x%x on %s pipe,app %s",
 667:/home/simulink/cFS_FreeRTOS_seL4/cfe/fsw/cfe-core/src/sb/cfe_sb_api.c ****            MsgId,CFE_SB_GetPipeName(PipeId),CFE_SB_GetAppTskName(TskId,FullName));
 668:/home/simulink/cFS_FreeRTOS_seL4/cfe/fsw/cfe-core/src/sb/cfe_sb_api.c ****         return CFE_SUCCESS;
 1527               	.loc 1 668 0
 1528 0d48 4280      	clr.l %d0
 1529 0d4a 6000 03D4 	jra .L50
 1530               	.L42:
 669:/home/simulink/cFS_FreeRTOS_seL4/cfe/fsw/cfe-core/src/sb/cfe_sb_api.c ****     }/* end if */
 670:/home/simulink/cFS_FreeRTOS_seL4/cfe/fsw/cfe-core/src/sb/cfe_sb_api.c **** 
 671:/home/simulink/cFS_FreeRTOS_seL4/cfe/fsw/cfe-core/src/sb/cfe_sb_api.c ****     /*
 672:/home/simulink/cFS_FreeRTOS_seL4/cfe/fsw/cfe-core/src/sb/cfe_sb_api.c ****     ** If there has been a subscription for this message id earlier,
 673:/home/simulink/cFS_FreeRTOS_seL4/cfe/fsw/cfe-core/src/sb/cfe_sb_api.c ****     ** get the element number in the routing table.
 674:/home/simulink/cFS_FreeRTOS_seL4/cfe/fsw/cfe-core/src/sb/cfe_sb_api.c ****     */
 675:/home/simulink/cFS_FreeRTOS_seL4/cfe/fsw/cfe-core/src/sb/cfe_sb_api.c ****     Idx = CFE_SB_GetRoutingTblIdx(MsgId);
 1531               	.loc 1 675 0
 1532 0d4e 4280      	clr.l %d0
 1533 0d50 302F 0014 	move.w 20(%sp),%d0
 1534 0d54 2F00      	move.l %d0,-(%sp)
 1535               	.cfi_def_cfa_offset 96
 1536 0d56 4EB9 0000 	jsr CFE_SB_GetRoutingTblIdx
 1536      0000 
 1537 0d5c 588F      	addq.l #4,%sp
 1538               	.cfi_def_cfa_offset 92
 1539 0d5e 3F40 0056 	move.w %d0,86(%sp)
 676:/home/simulink/cFS_FreeRTOS_seL4/cfe/fsw/cfe-core/src/sb/cfe_sb_api.c **** 
 677:/home/simulink/cFS_FreeRTOS_seL4/cfe/fsw/cfe-core/src/sb/cfe_sb_api.c ****     /* if first subscription for this message... */
 678:/home/simulink/cFS_FreeRTOS_seL4/cfe/fsw/cfe-core/src/sb/cfe_sb_api.c ****     if(Idx==CFE_SB_AVAILABLE){
 1540               	.loc 1 678 0
 1541 0d62 4280      	clr.l %d0
 1542 0d64 302F 0056 	move.w 86(%sp),%d0
 1543 0d68 0C80 0000 	cmp.l #65535,%d0
 1543      FFFF 
 1544 0d6e 6600 00EC 	jne .L43
 679:/home/simulink/cFS_FreeRTOS_seL4/cfe/fsw/cfe-core/src/sb/cfe_sb_api.c **** 
 680:/home/simulink/cFS_FreeRTOS_seL4/cfe/fsw/cfe-core/src/sb/cfe_sb_api.c ****         /* Get the index to the first available element in the routing table */
 681:/home/simulink/cFS_FreeRTOS_seL4/cfe/fsw/cfe-core/src/sb/cfe_sb_api.c ****         Idx = CFE_SB_GetAvailRoutingIdx();
68K GAS   			page 45


 1545               	.loc 1 681 0
 1546 0d72 4EB9 0000 	jsr CFE_SB_GetAvailRoutingIdx
 1546      0000 
 1547 0d78 3F40 0056 	move.w %d0,86(%sp)
 682:/home/simulink/cFS_FreeRTOS_seL4/cfe/fsw/cfe-core/src/sb/cfe_sb_api.c **** 
 683:/home/simulink/cFS_FreeRTOS_seL4/cfe/fsw/cfe-core/src/sb/cfe_sb_api.c ****         /* if all routing table elements are used, send event */
 684:/home/simulink/cFS_FreeRTOS_seL4/cfe/fsw/cfe-core/src/sb/cfe_sb_api.c ****         if(Idx >= CFE_SB_MAX_MSG_IDS){
 1548               	.loc 1 684 0
 1549 0d7c 4280      	clr.l %d0
 1550 0d7e 302F 0056 	move.w 86(%sp),%d0
 1551 0d82 0C80 0000 	cmp.l #255,%d0
 1551      00FF 
 1552 0d88 6376      	jls .L44
 685:/home/simulink/cFS_FreeRTOS_seL4/cfe/fsw/cfe-core/src/sb/cfe_sb_api.c ****             CFE_SB_UnlockSharedData(__func__,__LINE__);
 1553               	.loc 1 685 0
 1554 0d8a 4878 02AD 	pea 685.w
 1555               	.cfi_def_cfa_offset 96
 1556 0d8e 4879 0000 	pea __func__.5658
 1556      0000 
 1557               	.cfi_def_cfa_offset 100
 1558 0d94 4EB9 0000 	jsr CFE_SB_UnlockSharedData
 1558      0000 
 1559 0d9a 508F      	addq.l #8,%sp
 1560               	.cfi_def_cfa_offset 92
 686:/home/simulink/cFS_FreeRTOS_seL4/cfe/fsw/cfe-core/src/sb/cfe_sb_api.c ****             CFE_EVS_SendEventWithAppID(CFE_SB_MAX_MSGS_MET_EID,CFE_EVS_ERROR,CFE_SB.AppId,
 1561               	.loc 1 686 0
 1562 0d9c 200F      	move.l %sp,%d0
 1563 0d9e 0680 0000 	add.l #24,%d0
 1563      0018 
 1564 0da4 2F00      	move.l %d0,-(%sp)
 1565               	.cfi_def_cfa_offset 96
 1566 0da6 2F2F 0054 	move.l 84(%sp),-(%sp)
 1567               	.cfi_def_cfa_offset 100
 1568 0daa 4EB9 0000 	jsr CFE_SB_GetAppTskName
 1568      0000 
 1569 0db0 508F      	addq.l #8,%sp
 1570               	.cfi_def_cfa_offset 92
 1571 0db2 2400      	move.l %d0,%d2
 1572 0db4 4280      	clr.l %d0
 1573 0db6 102F 0010 	move.b 16(%sp),%d0
 1574 0dba 2F00      	move.l %d0,-(%sp)
 1575               	.cfi_def_cfa_offset 96
 1576 0dbc 4EB9 0000 	jsr CFE_SB_GetPipeName
 1576      0000 
 1577 0dc2 588F      	addq.l #4,%sp
 1578               	.cfi_def_cfa_offset 92
 1579 0dc4 2040      	move.l %d0,%a0
 1580 0dc6 4280      	clr.l %d0
 1581 0dc8 302F 0014 	move.w 20(%sp),%d0
 1582 0dcc 2239 0000 	move.l CFE_SB+12,%d1
 1582      0000 
 1583 0dd2 2F02      	move.l %d2,-(%sp)
 1584               	.cfi_def_cfa_offset 96
 1585 0dd4 2F08      	move.l %a0,-(%sp)
 1586               	.cfi_def_cfa_offset 100
 1587 0dd6 2F00      	move.l %d0,-(%sp)
 1588               	.cfi_def_cfa_offset 104
68K GAS   			page 46


 1589 0dd8 4878 0100 	pea 256.w
 1590               	.cfi_def_cfa_offset 108
 1591 0ddc 4879 0000 	pea .LC11
 1591      0000 
 1592               	.cfi_def_cfa_offset 112
 1593 0de2 2F01      	move.l %d1,-(%sp)
 1594               	.cfi_def_cfa_offset 116
 1595 0de4 4878 0003 	pea 3.w
 1596               	.cfi_def_cfa_offset 120
 1597 0de8 4878 0008 	pea 8.w
 1598               	.cfi_def_cfa_offset 124
 1599 0dec 4EB9 0000 	jsr CFE_EVS_SendEventWithAppID
 1599      0000 
 1600 0df2 4FEF 0020 	lea (32,%sp),%sp
 1601               	.cfi_def_cfa_offset 92
 687:/home/simulink/cFS_FreeRTOS_seL4/cfe/fsw/cfe-core/src/sb/cfe_sb_api.c ****               "Subscribe Err:Max Msgs(%d)In Use,MsgId 0x%x,pipe %s,app %s",
 688:/home/simulink/cFS_FreeRTOS_seL4/cfe/fsw/cfe-core/src/sb/cfe_sb_api.c ****               CFE_SB_MAX_MSG_IDS,MsgId,CFE_SB_GetPipeName(PipeId),CFE_SB_GetAppTskName(TskId,FullNa
 689:/home/simulink/cFS_FreeRTOS_seL4/cfe/fsw/cfe-core/src/sb/cfe_sb_api.c ****             return CFE_SB_MAX_MSGS_MET;
 1602               	.loc 1 689 0
 1603 0df6 203C CA00 	move.l #-905969655,%d0
 1603      0009 
 1604 0dfc 6000 0322 	jra .L50
 1605               	.L44:
 690:/home/simulink/cFS_FreeRTOS_seL4/cfe/fsw/cfe-core/src/sb/cfe_sb_api.c ****         }/* end if */
 691:/home/simulink/cFS_FreeRTOS_seL4/cfe/fsw/cfe-core/src/sb/cfe_sb_api.c **** 
 692:/home/simulink/cFS_FreeRTOS_seL4/cfe/fsw/cfe-core/src/sb/cfe_sb_api.c ****         /* Increment the MsgIds in use ctr and if it's > the high water mark,*/
 693:/home/simulink/cFS_FreeRTOS_seL4/cfe/fsw/cfe-core/src/sb/cfe_sb_api.c ****         /* adjust the high water mark */
 694:/home/simulink/cFS_FreeRTOS_seL4/cfe/fsw/cfe-core/src/sb/cfe_sb_api.c ****         CFE_SB.StatTlmMsg.Payload.MsgIdsInUse++;
 1606               	.loc 1 694 0
 1607 0e00 2039 0000 	move.l CFE_SB+4552,%d0
 1607      0000 
 1608 0e06 5280      	addq.l #1,%d0
 1609 0e08 23C0 0000 	move.l %d0,CFE_SB+4552
 1609      0000 
 695:/home/simulink/cFS_FreeRTOS_seL4/cfe/fsw/cfe-core/src/sb/cfe_sb_api.c ****         if(CFE_SB.StatTlmMsg.Payload.MsgIdsInUse > CFE_SB.StatTlmMsg.Payload.PeakMsgIdsInUse){
 1610               	.loc 1 695 0
 1611 0e0e 2239 0000 	move.l CFE_SB+4552,%d1
 1611      0000 
 1612 0e14 2039 0000 	move.l CFE_SB+4556,%d0
 1612      0000 
 1613 0e1a B081      	cmp.l %d1,%d0
 1614 0e1c 640C      	jcc .L45
 696:/home/simulink/cFS_FreeRTOS_seL4/cfe/fsw/cfe-core/src/sb/cfe_sb_api.c ****            CFE_SB.StatTlmMsg.Payload.PeakMsgIdsInUse = CFE_SB.StatTlmMsg.Payload.MsgIdsInUse;
 1615               	.loc 1 696 0
 1616 0e1e 2039 0000 	move.l CFE_SB+4552,%d0
 1616      0000 
 1617 0e24 23C0 0000 	move.l %d0,CFE_SB+4556
 1617      0000 
 1618               	.L45:
 697:/home/simulink/cFS_FreeRTOS_seL4/cfe/fsw/cfe-core/src/sb/cfe_sb_api.c ****         }/* end if */
 698:/home/simulink/cFS_FreeRTOS_seL4/cfe/fsw/cfe-core/src/sb/cfe_sb_api.c **** 
 699:/home/simulink/cFS_FreeRTOS_seL4/cfe/fsw/cfe-core/src/sb/cfe_sb_api.c ****         /* populate the look up table with the routing table index */
 700:/home/simulink/cFS_FreeRTOS_seL4/cfe/fsw/cfe-core/src/sb/cfe_sb_api.c ****         CFE_SB_SetRoutingTblIdx(MsgId,Idx);
 1619               	.loc 1 700 0
 1620 0e2a 4281      	clr.l %d1
 1621 0e2c 322F 0056 	move.w 86(%sp),%d1
 1622 0e30 4280      	clr.l %d0
68K GAS   			page 47


 1623 0e32 302F 0014 	move.w 20(%sp),%d0
 1624 0e36 2F01      	move.l %d1,-(%sp)
 1625               	.cfi_def_cfa_offset 96
 1626 0e38 2F00      	move.l %d0,-(%sp)
 1627               	.cfi_def_cfa_offset 100
 1628 0e3a 4EB9 0000 	jsr CFE_SB_SetRoutingTblIdx
 1628      0000 
 1629 0e40 508F      	addq.l #8,%sp
 1630               	.cfi_def_cfa_offset 92
 701:/home/simulink/cFS_FreeRTOS_seL4/cfe/fsw/cfe-core/src/sb/cfe_sb_api.c **** 
 702:/home/simulink/cFS_FreeRTOS_seL4/cfe/fsw/cfe-core/src/sb/cfe_sb_api.c ****         /* label the new routing block with the message identifier */
 703:/home/simulink/cFS_FreeRTOS_seL4/cfe/fsw/cfe-core/src/sb/cfe_sb_api.c ****         CFE_SB.RoutingTbl[Idx].MsgId = MsgId;
 1631               	.loc 1 703 0
 1632 0e42 4280      	clr.l %d0
 1633 0e44 302F 0056 	move.w 86(%sp),%d0
 1634 0e48 740C      	moveq #12,%d2
 1635 0e4a 4C02 0800 	muls.l %d2,%d0
 1636 0e4e 41F9 0000 	lea CFE_SB+545808,%a0
 1636      0000 
 1637 0e54 43EF 0014 	lea (20,%sp),%a1
 1638 0e58 3191 0800 	move.w (%a1),(%a0,%d0.l)
 1639               	.L43:
 704:/home/simulink/cFS_FreeRTOS_seL4/cfe/fsw/cfe-core/src/sb/cfe_sb_api.c **** 
 705:/home/simulink/cFS_FreeRTOS_seL4/cfe/fsw/cfe-core/src/sb/cfe_sb_api.c ****     }/* end if */
 706:/home/simulink/cFS_FreeRTOS_seL4/cfe/fsw/cfe-core/src/sb/cfe_sb_api.c **** 
 707:/home/simulink/cFS_FreeRTOS_seL4/cfe/fsw/cfe-core/src/sb/cfe_sb_api.c ****     if(CFE_SB.RoutingTbl[Idx].Destinations >= CFE_SB_MAX_DEST_PER_PKT){
 1640               	.loc 1 707 0
 1641 0e5c 4280      	clr.l %d0
 1642 0e5e 302F 0056 	move.w 86(%sp),%d0
 1643 0e62 720C      	moveq #12,%d1
 1644 0e64 4C01 0800 	muls.l %d1,%d0
 1645 0e68 41F9 0000 	lea CFE_SB+545810,%a0
 1645      0000 
 1646 0e6e 3030 0800 	move.w (%a0,%d0.l),%d0
 1647 0e72 3000      	move.w %d0,%d0
 1648 0e74 0280 0000 	and.l #65535,%d0
 1648      FFFF 
 1649 0e7a 740F      	moveq #15,%d2
 1650 0e7c B480      	cmp.l %d0,%d2
 1651 0e7e 6476      	jcc .L46
 708:/home/simulink/cFS_FreeRTOS_seL4/cfe/fsw/cfe-core/src/sb/cfe_sb_api.c ****         CFE_SB_UnlockSharedData(__func__,__LINE__);
 1652               	.loc 1 708 0
 1653 0e80 4878 02C4 	pea 708.w
 1654               	.cfi_def_cfa_offset 96
 1655 0e84 4879 0000 	pea __func__.5658
 1655      0000 
 1656               	.cfi_def_cfa_offset 100
 1657 0e8a 4EB9 0000 	jsr CFE_SB_UnlockSharedData
 1657      0000 
 1658 0e90 508F      	addq.l #8,%sp
 1659               	.cfi_def_cfa_offset 92
 709:/home/simulink/cFS_FreeRTOS_seL4/cfe/fsw/cfe-core/src/sb/cfe_sb_api.c ****         CFE_EVS_SendEventWithAppID(CFE_SB_MAX_DESTS_MET_EID,CFE_EVS_ERROR,CFE_SB.AppId,
 1660               	.loc 1 709 0
 1661 0e92 200F      	move.l %sp,%d0
 1662 0e94 0680 0000 	add.l #24,%d0
 1662      0018 
 1663 0e9a 2F00      	move.l %d0,-(%sp)
68K GAS   			page 48


 1664               	.cfi_def_cfa_offset 96
 1665 0e9c 2F2F 0054 	move.l 84(%sp),-(%sp)
 1666               	.cfi_def_cfa_offset 100
 1667 0ea0 4EB9 0000 	jsr CFE_SB_GetAppTskName
 1667      0000 
 1668 0ea6 508F      	addq.l #8,%sp
 1669               	.cfi_def_cfa_offset 92
 1670 0ea8 2400      	move.l %d0,%d2
 1671 0eaa 4280      	clr.l %d0
 1672 0eac 102F 0010 	move.b 16(%sp),%d0
 1673 0eb0 2F00      	move.l %d0,-(%sp)
 1674               	.cfi_def_cfa_offset 96
 1675 0eb2 4EB9 0000 	jsr CFE_SB_GetPipeName
 1675      0000 
 1676 0eb8 588F      	addq.l #4,%sp
 1677               	.cfi_def_cfa_offset 92
 1678 0eba 2040      	move.l %d0,%a0
 1679 0ebc 4280      	clr.l %d0
 1680 0ebe 302F 0014 	move.w 20(%sp),%d0
 1681 0ec2 2239 0000 	move.l CFE_SB+12,%d1
 1681      0000 
 1682 0ec8 2F02      	move.l %d2,-(%sp)
 1683               	.cfi_def_cfa_offset 96
 1684 0eca 2F08      	move.l %a0,-(%sp)
 1685               	.cfi_def_cfa_offset 100
 1686 0ecc 2F00      	move.l %d0,-(%sp)
 1687               	.cfi_def_cfa_offset 104
 1688 0ece 4878 0010 	pea 16.w
 1689               	.cfi_def_cfa_offset 108
 1690 0ed2 4879 0000 	pea .LC12
 1690      0000 
 1691               	.cfi_def_cfa_offset 112
 1692 0ed8 2F01      	move.l %d1,-(%sp)
 1693               	.cfi_def_cfa_offset 116
 1694 0eda 4878 0003 	pea 3.w
 1695               	.cfi_def_cfa_offset 120
 1696 0ede 4878 0009 	pea 9.w
 1697               	.cfi_def_cfa_offset 124
 1698 0ee2 4EB9 0000 	jsr CFE_EVS_SendEventWithAppID
 1698      0000 
 1699 0ee8 4FEF 0020 	lea (32,%sp),%sp
 1700               	.cfi_def_cfa_offset 92
 710:/home/simulink/cFS_FreeRTOS_seL4/cfe/fsw/cfe-core/src/sb/cfe_sb_api.c ****             "Subscribe Err:Max Dests(%d)In Use For Msg 0x%x,pipe %s,app %s",
 711:/home/simulink/cFS_FreeRTOS_seL4/cfe/fsw/cfe-core/src/sb/cfe_sb_api.c ****              CFE_SB_MAX_DEST_PER_PKT,MsgId,CFE_SB_GetPipeName(PipeId),
 712:/home/simulink/cFS_FreeRTOS_seL4/cfe/fsw/cfe-core/src/sb/cfe_sb_api.c ****              CFE_SB_GetAppTskName(TskId,FullName));
 713:/home/simulink/cFS_FreeRTOS_seL4/cfe/fsw/cfe-core/src/sb/cfe_sb_api.c ****         return CFE_SB_MAX_DESTS_MET;
 1701               	.loc 1 713 0
 1702 0eec 203C CA00 	move.l #-905969654,%d0
 1702      000A 
 1703 0ef2 6000 022C 	jra .L50
 1704               	.L46:
 714:/home/simulink/cFS_FreeRTOS_seL4/cfe/fsw/cfe-core/src/sb/cfe_sb_api.c ****     }/* end if */
 715:/home/simulink/cFS_FreeRTOS_seL4/cfe/fsw/cfe-core/src/sb/cfe_sb_api.c **** 
 716:/home/simulink/cFS_FreeRTOS_seL4/cfe/fsw/cfe-core/src/sb/cfe_sb_api.c ****     DestBlkPtr = CFE_SB_GetDestinationBlk();
 1705               	.loc 1 716 0
 1706 0ef6 4EB9 0000 	jsr CFE_SB_GetDestinationBlk
 1706      0000 
68K GAS   			page 49


 1707 0efc 2F40 004C 	move.l %d0,76(%sp)
 717:/home/simulink/cFS_FreeRTOS_seL4/cfe/fsw/cfe-core/src/sb/cfe_sb_api.c ****     if(DestBlkPtr == NULL){
 1708               	.loc 1 717 0
 1709 0f00 4AAF 004C 	tst.l 76(%sp)
 1710 0f04 6644      	jne .L47
 718:/home/simulink/cFS_FreeRTOS_seL4/cfe/fsw/cfe-core/src/sb/cfe_sb_api.c ****         CFE_SB_UnlockSharedData(__func__,__LINE__);
 1711               	.loc 1 718 0
 1712 0f06 4878 02CE 	pea 718.w
 1713               	.cfi_def_cfa_offset 96
 1714 0f0a 4879 0000 	pea __func__.5658
 1714      0000 
 1715               	.cfi_def_cfa_offset 100
 1716 0f10 4EB9 0000 	jsr CFE_SB_UnlockSharedData
 1716      0000 
 1717 0f16 508F      	addq.l #8,%sp
 1718               	.cfi_def_cfa_offset 92
 719:/home/simulink/cFS_FreeRTOS_seL4/cfe/fsw/cfe-core/src/sb/cfe_sb_api.c ****         CFE_EVS_SendEventWithAppID(CFE_SB_DEST_BLK_ERR_EID,CFE_EVS_ERROR,CFE_SB.AppId,
 1719               	.loc 1 719 0
 1720 0f18 4280      	clr.l %d0
 1721 0f1a 302F 0014 	move.w 20(%sp),%d0
 1722 0f1e 2239 0000 	move.l CFE_SB+12,%d1
 1722      0000 
 1723 0f24 2F00      	move.l %d0,-(%sp)
 1724               	.cfi_def_cfa_offset 96
 1725 0f26 4879 0000 	pea .LC13
 1725      0000 
 1726               	.cfi_def_cfa_offset 100
 1727 0f2c 2F01      	move.l %d1,-(%sp)
 1728               	.cfi_def_cfa_offset 104
 1729 0f2e 4878 0003 	pea 3.w
 1730               	.cfi_def_cfa_offset 108
 1731 0f32 4878 0014 	pea 20.w
 1732               	.cfi_def_cfa_offset 112
 1733 0f36 4EB9 0000 	jsr CFE_EVS_SendEventWithAppID
 1733      0000 
 1734 0f3c 4FEF 0014 	lea (20,%sp),%sp
 1735               	.cfi_def_cfa_offset 92
 720:/home/simulink/cFS_FreeRTOS_seL4/cfe/fsw/cfe-core/src/sb/cfe_sb_api.c ****             "Subscribe Err:Request for Destination Blk failed for Msg 0x%x", (unsigned int)MsgId);
 721:/home/simulink/cFS_FreeRTOS_seL4/cfe/fsw/cfe-core/src/sb/cfe_sb_api.c ****         return CFE_SB_BUF_ALOC_ERR;
 1736               	.loc 1 721 0
 1737 0f40 203C CA00 	move.l #-905969656,%d0
 1737      0008 
 1738 0f46 6000 01D8 	jra .L50
 1739               	.L47:
 722:/home/simulink/cFS_FreeRTOS_seL4/cfe/fsw/cfe-core/src/sb/cfe_sb_api.c ****     }/* end if */
 723:/home/simulink/cFS_FreeRTOS_seL4/cfe/fsw/cfe-core/src/sb/cfe_sb_api.c **** 
 724:/home/simulink/cFS_FreeRTOS_seL4/cfe/fsw/cfe-core/src/sb/cfe_sb_api.c ****     /* initialize destination block */
 725:/home/simulink/cFS_FreeRTOS_seL4/cfe/fsw/cfe-core/src/sb/cfe_sb_api.c ****     DestBlkPtr -> PipeId = PipeId;
 1740               	.loc 1 725 0
 1741 0f4a 206F 004C 	move.l 76(%sp),%a0
 1742 0f4e 10AF 0010 	move.b 16(%sp),(%a0)
 726:/home/simulink/cFS_FreeRTOS_seL4/cfe/fsw/cfe-core/src/sb/cfe_sb_api.c ****     DestBlkPtr -> MsgId2PipeLim = (uint16)MsgLim;
 1743               	.loc 1 726 0
 1744 0f52 206F 004C 	move.l 76(%sp),%a0
 1745 0f56 316F 000C 	move.w 12(%sp),2(%a0)
 1745      0002 
 727:/home/simulink/cFS_FreeRTOS_seL4/cfe/fsw/cfe-core/src/sb/cfe_sb_api.c ****     DestBlkPtr -> Active = CFE_SB_ACTIVE;
68K GAS   			page 50


 1746               	.loc 1 727 0
 1747 0f5c 206F 004C 	move.l 76(%sp),%a0
 1748 0f60 7001      	moveq #1,%d0
 1749 0f62 1140 0001 	move.b %d0,1(%a0)
 728:/home/simulink/cFS_FreeRTOS_seL4/cfe/fsw/cfe-core/src/sb/cfe_sb_api.c ****     DestBlkPtr -> BuffCount = 0;
 1750               	.loc 1 728 0
 1751 0f66 206F 004C 	move.l 76(%sp),%a0
 1752 0f6a 4241      	clr.w %d1
 1753 0f6c 3141 0004 	move.w %d1,4(%a0)
 729:/home/simulink/cFS_FreeRTOS_seL4/cfe/fsw/cfe-core/src/sb/cfe_sb_api.c ****     DestBlkPtr -> DestCnt = 0;
 1754               	.loc 1 729 0
 1755 0f70 206F 004C 	move.l 76(%sp),%a0
 1756 0f74 4242      	clr.w %d2
 1757 0f76 3142 0006 	move.w %d2,6(%a0)
 730:/home/simulink/cFS_FreeRTOS_seL4/cfe/fsw/cfe-core/src/sb/cfe_sb_api.c ****     DestBlkPtr -> Scope = Scope;
 1758               	.loc 1 730 0
 1759 0f7a 206F 004C 	move.l 76(%sp),%a0
 1760 0f7e 116F 0008 	move.b 8(%sp),8(%a0)
 1760      0008 
 731:/home/simulink/cFS_FreeRTOS_seL4/cfe/fsw/cfe-core/src/sb/cfe_sb_api.c ****     DestBlkPtr -> Prev = NULL;
 1761               	.loc 1 731 0
 1762 0f84 206F 004C 	move.l 76(%sp),%a0
 1763 0f88 42A8 000C 	clr.l 12(%a0)
 732:/home/simulink/cFS_FreeRTOS_seL4/cfe/fsw/cfe-core/src/sb/cfe_sb_api.c ****     DestBlkPtr -> Next = NULL;
 1764               	.loc 1 732 0
 1765 0f8c 206F 004C 	move.l 76(%sp),%a0
 1766 0f90 42A8 0010 	clr.l 16(%a0)
 733:/home/simulink/cFS_FreeRTOS_seL4/cfe/fsw/cfe-core/src/sb/cfe_sb_api.c **** 
 734:/home/simulink/cFS_FreeRTOS_seL4/cfe/fsw/cfe-core/src/sb/cfe_sb_api.c ****     /* add destination block to head of list */
 735:/home/simulink/cFS_FreeRTOS_seL4/cfe/fsw/cfe-core/src/sb/cfe_sb_api.c ****     CFE_SB_AddDest(Idx, DestBlkPtr);
 1767               	.loc 1 735 0
 1768 0f94 4280      	clr.l %d0
 1769 0f96 302F 0056 	move.w 86(%sp),%d0
 1770 0f9a 2F2F 004C 	move.l 76(%sp),-(%sp)
 1771               	.cfi_def_cfa_offset 96
 1772 0f9e 2F00      	move.l %d0,-(%sp)
 1773               	.cfi_def_cfa_offset 100
 1774 0fa0 4EB9 0000 	jsr CFE_SB_AddDest
 1774      0000 
 1775 0fa6 508F      	addq.l #8,%sp
 1776               	.cfi_def_cfa_offset 92
 736:/home/simulink/cFS_FreeRTOS_seL4/cfe/fsw/cfe-core/src/sb/cfe_sb_api.c **** 
 737:/home/simulink/cFS_FreeRTOS_seL4/cfe/fsw/cfe-core/src/sb/cfe_sb_api.c ****     CFE_SB.RoutingTbl[Idx].Destinations++;
 1777               	.loc 1 737 0
 1778 0fa8 4280      	clr.l %d0
 1779 0faa 302F 0056 	move.w 86(%sp),%d0
 1780 0fae 720C      	moveq #12,%d1
 1781 0fb0 4C00 1800 	muls.l %d0,%d1
 1782 0fb4 41F9 0000 	lea CFE_SB+545810,%a0
 1782      0000 
 1783 0fba 3230 1800 	move.w (%a0,%d1.l),%d1
 1784 0fbe 5281      	addq.l #1,%d1
 1785 0fc0 3201      	move.w %d1,%d1
 1786 0fc2 740C      	moveq #12,%d2
 1787 0fc4 4C02 0800 	muls.l %d2,%d0
 1788 0fc8 41F9 0000 	lea CFE_SB+545810,%a0
 1788      0000 
68K GAS   			page 51


 1789 0fce 3181 0800 	move.w %d1,(%a0,%d0.l)
 738:/home/simulink/cFS_FreeRTOS_seL4/cfe/fsw/cfe-core/src/sb/cfe_sb_api.c **** 
 739:/home/simulink/cFS_FreeRTOS_seL4/cfe/fsw/cfe-core/src/sb/cfe_sb_api.c ****     CFE_SB.StatTlmMsg.Payload.SubscriptionsInUse++;
 1790               	.loc 1 739 0
 1791 0fd2 2039 0000 	move.l CFE_SB+4588,%d0
 1791      0000 
 1792 0fd8 5280      	addq.l #1,%d0
 1793 0fda 23C0 0000 	move.l %d0,CFE_SB+4588
 1793      0000 
 740:/home/simulink/cFS_FreeRTOS_seL4/cfe/fsw/cfe-core/src/sb/cfe_sb_api.c ****     if(CFE_SB.StatTlmMsg.Payload.SubscriptionsInUse > CFE_SB.StatTlmMsg.Payload.PeakSubscriptionsIn
 1794               	.loc 1 740 0
 1795 0fe0 2239 0000 	move.l CFE_SB+4588,%d1
 1795      0000 
 1796 0fe6 2039 0000 	move.l CFE_SB+4592,%d0
 1796      0000 
 1797 0fec B081      	cmp.l %d1,%d0
 1798 0fee 640C      	jcc .L48
 741:/home/simulink/cFS_FreeRTOS_seL4/cfe/fsw/cfe-core/src/sb/cfe_sb_api.c ****     {
 742:/home/simulink/cFS_FreeRTOS_seL4/cfe/fsw/cfe-core/src/sb/cfe_sb_api.c ****        CFE_SB.StatTlmMsg.Payload.PeakSubscriptionsInUse = CFE_SB.StatTlmMsg.Payload.SubscriptionsIn
 1799               	.loc 1 742 0
 1800 0ff0 2039 0000 	move.l CFE_SB+4588,%d0
 1800      0000 
 1801 0ff6 23C0 0000 	move.l %d0,CFE_SB+4592
 1801      0000 
 1802               	.L48:
 743:/home/simulink/cFS_FreeRTOS_seL4/cfe/fsw/cfe-core/src/sb/cfe_sb_api.c ****     }/* end if */
 744:/home/simulink/cFS_FreeRTOS_seL4/cfe/fsw/cfe-core/src/sb/cfe_sb_api.c **** 
 745:/home/simulink/cFS_FreeRTOS_seL4/cfe/fsw/cfe-core/src/sb/cfe_sb_api.c ****     if((CFE_SB.SubscriptionReporting == CFE_SB_ENABLE)&&(Scope==CFE_SB_GLOBAL)){
 1803               	.loc 1 745 0
 1804 0ffc 2039 0000 	move.l CFE_SB+4,%d0
 1804      0000 
 1805 1002 7201      	moveq #1,%d1
 1806 1004 B280      	cmp.l %d0,%d1
 1807 1006 6600 00A6 	jne .L49
 1808               	.loc 1 745 0 is_stmt 0 discriminator 1
 1809 100a 4A2F 0008 	tst.b 8(%sp)
 1810 100e 6600 009E 	jne .L49
 746:/home/simulink/cFS_FreeRTOS_seL4/cfe/fsw/cfe-core/src/sb/cfe_sb_api.c ****       CFE_SB.SubRprtMsg.Payload.MsgId = MsgId;
 1811               	.loc 1 746 0 is_stmt 1
 1812 1012 41EF 0014 	lea (20,%sp),%a0
 1813 1016 33D0 0000 	move.w (%a0),CFE_SB+549038
 1813      0000 
 747:/home/simulink/cFS_FreeRTOS_seL4/cfe/fsw/cfe-core/src/sb/cfe_sb_api.c ****       CFE_SB.SubRprtMsg.Payload.Pipe = PipeId;
 1814               	.loc 1 747 0
 1815 101c 43EF 0010 	lea (16,%sp),%a1
 1816 1020 13D1 0000 	move.b (%a1),CFE_SB+549042
 1816      0000 
 748:/home/simulink/cFS_FreeRTOS_seL4/cfe/fsw/cfe-core/src/sb/cfe_sb_api.c ****       CFE_SB.SubRprtMsg.Payload.Qos.Priority = Quality.Priority;
 1817               	.loc 1 748 0
 1818 1026 102F 0066 	move.b 102(%sp),%d0
 1819 102a 13C0 0000 	move.b %d0,CFE_SB+549040
 1819      0000 
 749:/home/simulink/cFS_FreeRTOS_seL4/cfe/fsw/cfe-core/src/sb/cfe_sb_api.c ****       CFE_SB.SubRprtMsg.Payload.Qos.Reliability = Quality.Reliability;
 1820               	.loc 1 749 0
 1821 1030 102F 0067 	move.b 103(%sp),%d0
 1822 1034 13C0 0000 	move.b %d0,CFE_SB+549041
 1822      0000 
68K GAS   			page 52


 750:/home/simulink/cFS_FreeRTOS_seL4/cfe/fsw/cfe-core/src/sb/cfe_sb_api.c ****       CFE_SB.SubRprtMsg.Payload.SubType = CFE_SB_SUBSCRIPTION;
 1823               	.loc 1 750 0
 1824 103a 4200      	clr.b %d0
 1825 103c 13C0 0000 	move.b %d0,CFE_SB+549036
 1825      0000 
 751:/home/simulink/cFS_FreeRTOS_seL4/cfe/fsw/cfe-core/src/sb/cfe_sb_api.c ****       CFE_SB_UnlockSharedData(__func__,__LINE__);
 1826               	.loc 1 751 0
 1827 1042 4878 02EF 	pea 751.w
 1828               	.cfi_def_cfa_offset 96
 1829 1046 4879 0000 	pea __func__.5658
 1829      0000 
 1830               	.cfi_def_cfa_offset 100
 1831 104c 4EB9 0000 	jsr CFE_SB_UnlockSharedData
 1831      0000 
 1832 1052 508F      	addq.l #8,%sp
 1833               	.cfi_def_cfa_offset 92
 752:/home/simulink/cFS_FreeRTOS_seL4/cfe/fsw/cfe-core/src/sb/cfe_sb_api.c ****       Stat = CFE_SB_SendMsg((CFE_SB_Msg_t *)&CFE_SB.SubRprtMsg);
 1834               	.loc 1 752 0
 1835 1054 4879 0000 	pea CFE_SB+549024
 1835      0000 
 1836               	.cfi_def_cfa_offset 96
 1837 105a 4EB9 0000 	jsr CFE_SB_SendMsg
 1837      0000 
 1838 1060 588F      	addq.l #4,%sp
 1839               	.cfi_def_cfa_offset 92
 1840 1062 2F40 0044 	move.l %d0,68(%sp)
 753:/home/simulink/cFS_FreeRTOS_seL4/cfe/fsw/cfe-core/src/sb/cfe_sb_api.c ****       CFE_EVS_SendEventWithAppID(CFE_SB_SUBSCRIPTION_RPT_EID,CFE_EVS_DEBUG,CFE_SB.AppId,
 1841               	.loc 1 753 0
 1842 1066 226F 0044 	move.l 68(%sp),%a1
 1843 106a 4281      	clr.l %d1
 1844 106c 122F 0010 	move.b 16(%sp),%d1
 1845 1070 4280      	clr.l %d0
 1846 1072 302F 0014 	move.w 20(%sp),%d0
 1847 1076 2079 0000 	move.l CFE_SB+12,%a0
 1847      0000 
 1848 107c 2F09      	move.l %a1,-(%sp)
 1849               	.cfi_def_cfa_offset 96
 1850 107e 2F01      	move.l %d1,-(%sp)
 1851               	.cfi_def_cfa_offset 100
 1852 1080 2F00      	move.l %d0,-(%sp)
 1853               	.cfi_def_cfa_offset 104
 1854 1082 4879 0000 	pea .LC14
 1854      0000 
 1855               	.cfi_def_cfa_offset 108
 1856 1088 2F08      	move.l %a0,-(%sp)
 1857               	.cfi_def_cfa_offset 112
 1858 108a 4878 0001 	pea 1.w
 1859               	.cfi_def_cfa_offset 116
 1860 108e 4878 0016 	pea 22.w
 1861               	.cfi_def_cfa_offset 120
 1862 1092 4EB9 0000 	jsr CFE_EVS_SendEventWithAppID
 1862      0000 
 1863 1098 4FEF 001C 	lea (28,%sp),%sp
 1864               	.cfi_def_cfa_offset 92
 754:/home/simulink/cFS_FreeRTOS_seL4/cfe/fsw/cfe-core/src/sb/cfe_sb_api.c ****             "Sending Subscription Report Msg=0x%x,Pipe=%d,Stat=0x%x",
 755:/home/simulink/cFS_FreeRTOS_seL4/cfe/fsw/cfe-core/src/sb/cfe_sb_api.c ****             (unsigned int)MsgId,(int)PipeId,(unsigned int)Stat);
 756:/home/simulink/cFS_FreeRTOS_seL4/cfe/fsw/cfe-core/src/sb/cfe_sb_api.c ****       CFE_SB_LockSharedData(__func__,__LINE__);/* to prevent back-to-back unlock */
68K GAS   			page 53


 1865               	.loc 1 756 0
 1866 109c 4878 02F4 	pea 756.w
 1867               	.cfi_def_cfa_offset 96
 1868 10a0 4879 0000 	pea __func__.5658
 1868      0000 
 1869               	.cfi_def_cfa_offset 100
 1870 10a6 4EB9 0000 	jsr CFE_SB_LockSharedData
 1870      0000 
 1871 10ac 508F      	addq.l #8,%sp
 1872               	.cfi_def_cfa_offset 92
 1873               	.L49:
 757:/home/simulink/cFS_FreeRTOS_seL4/cfe/fsw/cfe-core/src/sb/cfe_sb_api.c ****     }/* end if */
 758:/home/simulink/cFS_FreeRTOS_seL4/cfe/fsw/cfe-core/src/sb/cfe_sb_api.c **** 
 759:/home/simulink/cFS_FreeRTOS_seL4/cfe/fsw/cfe-core/src/sb/cfe_sb_api.c ****     /* release the semaphore */
 760:/home/simulink/cFS_FreeRTOS_seL4/cfe/fsw/cfe-core/src/sb/cfe_sb_api.c ****     CFE_SB_UnlockSharedData(__func__,__LINE__);
 1874               	.loc 1 760 0
 1875 10ae 4878 02F8 	pea 760.w
 1876               	.cfi_def_cfa_offset 96
 1877 10b2 4879 0000 	pea __func__.5658
 1877      0000 
 1878               	.cfi_def_cfa_offset 100
 1879 10b8 4EB9 0000 	jsr CFE_SB_UnlockSharedData
 1879      0000 
 1880 10be 508F      	addq.l #8,%sp
 1881               	.cfi_def_cfa_offset 92
 761:/home/simulink/cFS_FreeRTOS_seL4/cfe/fsw/cfe-core/src/sb/cfe_sb_api.c **** 
 762:/home/simulink/cFS_FreeRTOS_seL4/cfe/fsw/cfe-core/src/sb/cfe_sb_api.c ****     CFE_EVS_SendEventWithAppID(CFE_SB_SUBSCRIPTION_RCVD_EID,CFE_EVS_DEBUG,CFE_SB.AppId,
 1882               	.loc 1 762 0
 1883 10c0 200F      	move.l %sp,%d0
 1884 10c2 0680 0000 	add.l #24,%d0
 1884      0018 
 1885 10c8 2F00      	move.l %d0,-(%sp)
 1886               	.cfi_def_cfa_offset 96
 1887 10ca 2F2F 0054 	move.l 84(%sp),-(%sp)
 1888               	.cfi_def_cfa_offset 100
 1889 10ce 4EB9 0000 	jsr CFE_SB_GetAppTskName
 1889      0000 
 1890 10d4 508F      	addq.l #8,%sp
 1891               	.cfi_def_cfa_offset 92
 1892 10d6 2600      	move.l %d0,%d3
 1893 10d8 4282      	clr.l %d2
 1894 10da 142F 0010 	move.b 16(%sp),%d2
 1895 10de 4280      	clr.l %d0
 1896 10e0 102F 0010 	move.b 16(%sp),%d0
 1897 10e4 2F00      	move.l %d0,-(%sp)
 1898               	.cfi_def_cfa_offset 96
 1899 10e6 4EB9 0000 	jsr CFE_SB_GetPipeName
 1899      0000 
 1900 10ec 588F      	addq.l #4,%sp
 1901               	.cfi_def_cfa_offset 92
 1902 10ee 2040      	move.l %d0,%a0
 1903 10f0 4280      	clr.l %d0
 1904 10f2 302F 0014 	move.w 20(%sp),%d0
 1905 10f6 2239 0000 	move.l CFE_SB+12,%d1
 1905      0000 
 1906 10fc 2F03      	move.l %d3,-(%sp)
 1907               	.cfi_def_cfa_offset 96
68K GAS   			page 54


 1908 10fe 2F02      	move.l %d2,-(%sp)
 1909               	.cfi_def_cfa_offset 100
 1910 1100 2F08      	move.l %a0,-(%sp)
 1911               	.cfi_def_cfa_offset 104
 1912 1102 2F00      	move.l %d0,-(%sp)
 1913               	.cfi_def_cfa_offset 108
 1914 1104 4879 0000 	pea .LC15
 1914      0000 
 1915               	.cfi_def_cfa_offset 112
 1916 110a 2F01      	move.l %d1,-(%sp)
 1917               	.cfi_def_cfa_offset 116
 1918 110c 4878 0001 	pea 1.w
 1919               	.cfi_def_cfa_offset 120
 1920 1110 4878 000A 	pea 10.w
 1921               	.cfi_def_cfa_offset 124
 1922 1114 4EB9 0000 	jsr CFE_EVS_SendEventWithAppID
 1922      0000 
 1923 111a 4FEF 0020 	lea (32,%sp),%sp
 1924               	.cfi_def_cfa_offset 92
 763:/home/simulink/cFS_FreeRTOS_seL4/cfe/fsw/cfe-core/src/sb/cfe_sb_api.c ****         "Subscription Rcvd:MsgId 0x%x on %s(%d),app %s",
 764:/home/simulink/cFS_FreeRTOS_seL4/cfe/fsw/cfe-core/src/sb/cfe_sb_api.c ****          (unsigned int)MsgId,CFE_SB_GetPipeName(PipeId),(int)PipeId,CFE_SB_GetAppTskName(TskId,Full
 765:/home/simulink/cFS_FreeRTOS_seL4/cfe/fsw/cfe-core/src/sb/cfe_sb_api.c **** 
 766:/home/simulink/cFS_FreeRTOS_seL4/cfe/fsw/cfe-core/src/sb/cfe_sb_api.c ****     return CFE_SUCCESS;
 1925               	.loc 1 766 0
 1926 111e 4280      	clr.l %d0
 1927               	.L50:
 767:/home/simulink/cFS_FreeRTOS_seL4/cfe/fsw/cfe-core/src/sb/cfe_sb_api.c **** 
 768:/home/simulink/cFS_FreeRTOS_seL4/cfe/fsw/cfe-core/src/sb/cfe_sb_api.c **** }/* end CFE_SB_SubscribeFull */
 1928               	.loc 1 768 0 discriminator 1
 1929 1120 241F      	move.l (%sp)+,%d2
 1930 1122 261F      	move.l (%sp)+,%d3
 1931 1124 4FEF 0050 	lea (80,%sp),%sp
 1932 1128 4E75      	rts
 1933               	.cfi_endproc
 1934               	.LFE66:
 1935               	.sizeCFE_SB_SubscribeFull, .-CFE_SB_SubscribeFull
 1936               	.align2
 1937               	.globlCFE_SB_Unsubscribe
 1938               	.typeCFE_SB_Unsubscribe, @function
 1939               	CFE_SB_Unsubscribe:
 1940               	.LFB67:
 769:/home/simulink/cFS_FreeRTOS_seL4/cfe/fsw/cfe-core/src/sb/cfe_sb_api.c **** 
 770:/home/simulink/cFS_FreeRTOS_seL4/cfe/fsw/cfe-core/src/sb/cfe_sb_api.c **** 
 771:/home/simulink/cFS_FreeRTOS_seL4/cfe/fsw/cfe-core/src/sb/cfe_sb_api.c **** /******************************************************************************
 772:/home/simulink/cFS_FreeRTOS_seL4/cfe/fsw/cfe-core/src/sb/cfe_sb_api.c **** ** Name:    CFE_SB_Unsubscribe
 773:/home/simulink/cFS_FreeRTOS_seL4/cfe/fsw/cfe-core/src/sb/cfe_sb_api.c **** **
 774:/home/simulink/cFS_FreeRTOS_seL4/cfe/fsw/cfe-core/src/sb/cfe_sb_api.c **** ** Purpose: API used to unsubscribe to a message.
 775:/home/simulink/cFS_FreeRTOS_seL4/cfe/fsw/cfe-core/src/sb/cfe_sb_api.c **** **
 776:/home/simulink/cFS_FreeRTOS_seL4/cfe/fsw/cfe-core/src/sb/cfe_sb_api.c **** ** Date Written:
 777:/home/simulink/cFS_FreeRTOS_seL4/cfe/fsw/cfe-core/src/sb/cfe_sb_api.c **** **          04/25/2005
 778:/home/simulink/cFS_FreeRTOS_seL4/cfe/fsw/cfe-core/src/sb/cfe_sb_api.c **** **
 779:/home/simulink/cFS_FreeRTOS_seL4/cfe/fsw/cfe-core/src/sb/cfe_sb_api.c **** ** Input Arguments:
 780:/home/simulink/cFS_FreeRTOS_seL4/cfe/fsw/cfe-core/src/sb/cfe_sb_api.c **** **          MsgId
 781:/home/simulink/cFS_FreeRTOS_seL4/cfe/fsw/cfe-core/src/sb/cfe_sb_api.c **** **          PipeId
 782:/home/simulink/cFS_FreeRTOS_seL4/cfe/fsw/cfe-core/src/sb/cfe_sb_api.c **** **
 783:/home/simulink/cFS_FreeRTOS_seL4/cfe/fsw/cfe-core/src/sb/cfe_sb_api.c **** ** Output Arguments:
 784:/home/simulink/cFS_FreeRTOS_seL4/cfe/fsw/cfe-core/src/sb/cfe_sb_api.c **** **          None
68K GAS   			page 55


 785:/home/simulink/cFS_FreeRTOS_seL4/cfe/fsw/cfe-core/src/sb/cfe_sb_api.c **** **
 786:/home/simulink/cFS_FreeRTOS_seL4/cfe/fsw/cfe-core/src/sb/cfe_sb_api.c **** ** Return Values:
 787:/home/simulink/cFS_FreeRTOS_seL4/cfe/fsw/cfe-core/src/sb/cfe_sb_api.c **** **          Status
 788:/home/simulink/cFS_FreeRTOS_seL4/cfe/fsw/cfe-core/src/sb/cfe_sb_api.c **** **
 789:/home/simulink/cFS_FreeRTOS_seL4/cfe/fsw/cfe-core/src/sb/cfe_sb_api.c **** ******************************************************************************/
 790:/home/simulink/cFS_FreeRTOS_seL4/cfe/fsw/cfe-core/src/sb/cfe_sb_api.c **** int32 CFE_SB_Unsubscribe(CFE_SB_MsgId_t MsgId, CFE_SB_PipeId_t PipeId)
 791:/home/simulink/cFS_FreeRTOS_seL4/cfe/fsw/cfe-core/src/sb/cfe_sb_api.c **** {
 1941               	.loc 1 791 0
 1942               	.cfi_startproc
 1943 112a 4FEF FFF0 	lea (-16,%sp),%sp
 1944               	.cfi_def_cfa_offset 20
 1945 112e 222F 0014 	move.l 20(%sp),%d1
 1946 1132 202F 0018 	move.l 24(%sp),%d0
 1947 1136 3201      	move.w %d1,%d1
 1948 1138 3F41 0004 	move.w %d1,4(%sp)
 1949 113c 1000      	move.b %d0,%d0
 1950 113e 1E80      	move.b %d0,(%sp)
 792:/home/simulink/cFS_FreeRTOS_seL4/cfe/fsw/cfe-core/src/sb/cfe_sb_api.c ****     uint32  CallerId = 0xFFFFFFFF;
 1951               	.loc 1 792 0
 1952 1140 70FF      	moveq #-1,%d0
 1953 1142 2F40 0008 	move.l %d0,8(%sp)
 793:/home/simulink/cFS_FreeRTOS_seL4/cfe/fsw/cfe-core/src/sb/cfe_sb_api.c ****     int32   Status = 0;
 1954               	.loc 1 793 0
 1955 1146 42AF 000C 	clr.l 12(%sp)
 794:/home/simulink/cFS_FreeRTOS_seL4/cfe/fsw/cfe-core/src/sb/cfe_sb_api.c **** 
 795:/home/simulink/cFS_FreeRTOS_seL4/cfe/fsw/cfe-core/src/sb/cfe_sb_api.c ****     /* get the callers Application Id */
 796:/home/simulink/cFS_FreeRTOS_seL4/cfe/fsw/cfe-core/src/sb/cfe_sb_api.c ****     CFE_ES_GetAppID(&CallerId);
 1956               	.loc 1 796 0
 1957 114a 200F      	move.l %sp,%d0
 1958 114c 5080      	addq.l #8,%d0
 1959 114e 2F00      	move.l %d0,-(%sp)
 1960               	.cfi_def_cfa_offset 24
 1961 1150 4EB9 0000 	jsr CFE_ES_GetAppID
 1961      0000 
 1962 1156 588F      	addq.l #4,%sp
 1963               	.cfi_def_cfa_offset 20
 797:/home/simulink/cFS_FreeRTOS_seL4/cfe/fsw/cfe-core/src/sb/cfe_sb_api.c **** 
 798:/home/simulink/cFS_FreeRTOS_seL4/cfe/fsw/cfe-core/src/sb/cfe_sb_api.c ****     Status = CFE_SB_UnsubscribeFull(MsgId, PipeId, (uint8)CFE_SB_GLOBAL,CallerId);
 1964               	.loc 1 798 0
 1965 1158 206F 0008 	move.l 8(%sp),%a0
 1966 115c 4281      	clr.l %d1
 1967 115e 1217      	move.b (%sp),%d1
 1968 1160 4280      	clr.l %d0
 1969 1162 302F 0004 	move.w 4(%sp),%d0
 1970 1166 2F08      	move.l %a0,-(%sp)
 1971               	.cfi_def_cfa_offset 24
 1972 1168 42A7      	clr.l -(%sp)
 1973               	.cfi_def_cfa_offset 28
 1974 116a 2F01      	move.l %d1,-(%sp)
 1975               	.cfi_def_cfa_offset 32
 1976 116c 2F00      	move.l %d0,-(%sp)
 1977               	.cfi_def_cfa_offset 36
 1978 116e 4EB9 0000 	jsr CFE_SB_UnsubscribeFull
 1978      0000 
 1979 1174 4FEF 0010 	lea (16,%sp),%sp
 1980               	.cfi_def_cfa_offset 20
 1981 1178 2F40 000C 	move.l %d0,12(%sp)
68K GAS   			page 56


 799:/home/simulink/cFS_FreeRTOS_seL4/cfe/fsw/cfe-core/src/sb/cfe_sb_api.c **** 
 800:/home/simulink/cFS_FreeRTOS_seL4/cfe/fsw/cfe-core/src/sb/cfe_sb_api.c ****     return Status;
 1982               	.loc 1 800 0
 1983 117c 202F 000C 	move.l 12(%sp),%d0
 801:/home/simulink/cFS_FreeRTOS_seL4/cfe/fsw/cfe-core/src/sb/cfe_sb_api.c **** 
 802:/home/simulink/cFS_FreeRTOS_seL4/cfe/fsw/cfe-core/src/sb/cfe_sb_api.c **** }/* end CFE_SB_Unsubscribe */
 1984               	.loc 1 802 0
 1985 1180 4FEF 0010 	lea (16,%sp),%sp
 1986 1184 4E75      	rts
 1987               	.cfi_endproc
 1988               	.LFE67:
 1989               	.sizeCFE_SB_Unsubscribe, .-CFE_SB_Unsubscribe
 1990               	.align2
 1991               	.globlCFE_SB_UnsubscribeLocal
 1992               	.typeCFE_SB_UnsubscribeLocal, @function
 1993               	CFE_SB_UnsubscribeLocal:
 1994               	.LFB68:
 803:/home/simulink/cFS_FreeRTOS_seL4/cfe/fsw/cfe-core/src/sb/cfe_sb_api.c **** 
 804:/home/simulink/cFS_FreeRTOS_seL4/cfe/fsw/cfe-core/src/sb/cfe_sb_api.c **** 
 805:/home/simulink/cFS_FreeRTOS_seL4/cfe/fsw/cfe-core/src/sb/cfe_sb_api.c **** /******************************************************************************
 806:/home/simulink/cFS_FreeRTOS_seL4/cfe/fsw/cfe-core/src/sb/cfe_sb_api.c **** ** Name:    CFE_SB_UnsubscribeLocal
 807:/home/simulink/cFS_FreeRTOS_seL4/cfe/fsw/cfe-core/src/sb/cfe_sb_api.c **** **
 808:/home/simulink/cFS_FreeRTOS_seL4/cfe/fsw/cfe-core/src/sb/cfe_sb_api.c **** ** Purpose: CFE Internal API used to locally unsubscribe to a message. This
 809:/home/simulink/cFS_FreeRTOS_seL4/cfe/fsw/cfe-core/src/sb/cfe_sb_api.c **** **          request to cancel a subscription will not be sent to peers.
 810:/home/simulink/cFS_FreeRTOS_seL4/cfe/fsw/cfe-core/src/sb/cfe_sb_api.c **** **
 811:/home/simulink/cFS_FreeRTOS_seL4/cfe/fsw/cfe-core/src/sb/cfe_sb_api.c **** ** Date Written:
 812:/home/simulink/cFS_FreeRTOS_seL4/cfe/fsw/cfe-core/src/sb/cfe_sb_api.c **** **          04/25/2005
 813:/home/simulink/cFS_FreeRTOS_seL4/cfe/fsw/cfe-core/src/sb/cfe_sb_api.c **** **
 814:/home/simulink/cFS_FreeRTOS_seL4/cfe/fsw/cfe-core/src/sb/cfe_sb_api.c **** ** Input Arguments:
 815:/home/simulink/cFS_FreeRTOS_seL4/cfe/fsw/cfe-core/src/sb/cfe_sb_api.c **** **          MsgId
 816:/home/simulink/cFS_FreeRTOS_seL4/cfe/fsw/cfe-core/src/sb/cfe_sb_api.c **** **          PipeId
 817:/home/simulink/cFS_FreeRTOS_seL4/cfe/fsw/cfe-core/src/sb/cfe_sb_api.c **** **
 818:/home/simulink/cFS_FreeRTOS_seL4/cfe/fsw/cfe-core/src/sb/cfe_sb_api.c **** ** Output Arguments:
 819:/home/simulink/cFS_FreeRTOS_seL4/cfe/fsw/cfe-core/src/sb/cfe_sb_api.c **** **          None
 820:/home/simulink/cFS_FreeRTOS_seL4/cfe/fsw/cfe-core/src/sb/cfe_sb_api.c **** **
 821:/home/simulink/cFS_FreeRTOS_seL4/cfe/fsw/cfe-core/src/sb/cfe_sb_api.c **** ** Return Values:
 822:/home/simulink/cFS_FreeRTOS_seL4/cfe/fsw/cfe-core/src/sb/cfe_sb_api.c **** **          Status
 823:/home/simulink/cFS_FreeRTOS_seL4/cfe/fsw/cfe-core/src/sb/cfe_sb_api.c **** **
 824:/home/simulink/cFS_FreeRTOS_seL4/cfe/fsw/cfe-core/src/sb/cfe_sb_api.c **** ******************************************************************************/
 825:/home/simulink/cFS_FreeRTOS_seL4/cfe/fsw/cfe-core/src/sb/cfe_sb_api.c **** int32 CFE_SB_UnsubscribeLocal(CFE_SB_MsgId_t MsgId, CFE_SB_PipeId_t PipeId)
 826:/home/simulink/cFS_FreeRTOS_seL4/cfe/fsw/cfe-core/src/sb/cfe_sb_api.c **** {
 1995               	.loc 1 826 0
 1996               	.cfi_startproc
 1997 1186 4FEF FFF0 	lea (-16,%sp),%sp
 1998               	.cfi_def_cfa_offset 20
 1999 118a 222F 0014 	move.l 20(%sp),%d1
 2000 118e 202F 0018 	move.l 24(%sp),%d0
 2001 1192 3201      	move.w %d1,%d1
 2002 1194 3F41 0004 	move.w %d1,4(%sp)
 2003 1198 1000      	move.b %d0,%d0
 2004 119a 1E80      	move.b %d0,(%sp)
 827:/home/simulink/cFS_FreeRTOS_seL4/cfe/fsw/cfe-core/src/sb/cfe_sb_api.c ****     uint32  CallerId = 0xFFFFFFFF;
 2005               	.loc 1 827 0
 2006 119c 70FF      	moveq #-1,%d0
 2007 119e 2F40 0008 	move.l %d0,8(%sp)
 828:/home/simulink/cFS_FreeRTOS_seL4/cfe/fsw/cfe-core/src/sb/cfe_sb_api.c ****     int32   Status = 0;
 2008               	.loc 1 828 0
68K GAS   			page 57


 2009 11a2 42AF 000C 	clr.l 12(%sp)
 829:/home/simulink/cFS_FreeRTOS_seL4/cfe/fsw/cfe-core/src/sb/cfe_sb_api.c **** 
 830:/home/simulink/cFS_FreeRTOS_seL4/cfe/fsw/cfe-core/src/sb/cfe_sb_api.c ****     /* get the callers Application Id */
 831:/home/simulink/cFS_FreeRTOS_seL4/cfe/fsw/cfe-core/src/sb/cfe_sb_api.c ****     CFE_ES_GetAppID(&CallerId);
 2010               	.loc 1 831 0
 2011 11a6 200F      	move.l %sp,%d0
 2012 11a8 5080      	addq.l #8,%d0
 2013 11aa 2F00      	move.l %d0,-(%sp)
 2014               	.cfi_def_cfa_offset 24
 2015 11ac 4EB9 0000 	jsr CFE_ES_GetAppID
 2015      0000 
 2016 11b2 588F      	addq.l #4,%sp
 2017               	.cfi_def_cfa_offset 20
 832:/home/simulink/cFS_FreeRTOS_seL4/cfe/fsw/cfe-core/src/sb/cfe_sb_api.c **** 
 833:/home/simulink/cFS_FreeRTOS_seL4/cfe/fsw/cfe-core/src/sb/cfe_sb_api.c ****     Status = CFE_SB_UnsubscribeFull(MsgId, PipeId, (uint8)CFE_SB_LOCAL,CallerId);
 2018               	.loc 1 833 0
 2019 11b4 206F 0008 	move.l 8(%sp),%a0
 2020 11b8 4281      	clr.l %d1
 2021 11ba 1217      	move.b (%sp),%d1
 2022 11bc 4280      	clr.l %d0
 2023 11be 302F 0004 	move.w 4(%sp),%d0
 2024 11c2 2F08      	move.l %a0,-(%sp)
 2025               	.cfi_def_cfa_offset 24
 2026 11c4 4878 0001 	pea 1.w
 2027               	.cfi_def_cfa_offset 28
 2028 11c8 2F01      	move.l %d1,-(%sp)
 2029               	.cfi_def_cfa_offset 32
 2030 11ca 2F00      	move.l %d0,-(%sp)
 2031               	.cfi_def_cfa_offset 36
 2032 11cc 4EB9 0000 	jsr CFE_SB_UnsubscribeFull
 2032      0000 
 2033 11d2 4FEF 0010 	lea (16,%sp),%sp
 2034               	.cfi_def_cfa_offset 20
 2035 11d6 2F40 000C 	move.l %d0,12(%sp)
 834:/home/simulink/cFS_FreeRTOS_seL4/cfe/fsw/cfe-core/src/sb/cfe_sb_api.c **** 
 835:/home/simulink/cFS_FreeRTOS_seL4/cfe/fsw/cfe-core/src/sb/cfe_sb_api.c ****     return Status;
 2036               	.loc 1 835 0
 2037 11da 202F 000C 	move.l 12(%sp),%d0
 836:/home/simulink/cFS_FreeRTOS_seL4/cfe/fsw/cfe-core/src/sb/cfe_sb_api.c **** 
 837:/home/simulink/cFS_FreeRTOS_seL4/cfe/fsw/cfe-core/src/sb/cfe_sb_api.c **** }/* end CFE_SB_UnsubscribeLocal */
 2038               	.loc 1 837 0
 2039 11de 4FEF 0010 	lea (16,%sp),%sp
 2040 11e2 4E75      	rts
 2041               	.cfi_endproc
 2042               	.LFE68:
 2043               	.sizeCFE_SB_UnsubscribeLocal, .-CFE_SB_UnsubscribeLocal
 2044               	.align2
 2045               	.globlCFE_SB_UnsubscribeWithAppId
 2046               	.typeCFE_SB_UnsubscribeWithAppId, @function
 2047               	CFE_SB_UnsubscribeWithAppId:
 2048               	.LFB69:
 838:/home/simulink/cFS_FreeRTOS_seL4/cfe/fsw/cfe-core/src/sb/cfe_sb_api.c **** 
 839:/home/simulink/cFS_FreeRTOS_seL4/cfe/fsw/cfe-core/src/sb/cfe_sb_api.c **** 
 840:/home/simulink/cFS_FreeRTOS_seL4/cfe/fsw/cfe-core/src/sb/cfe_sb_api.c **** /******************************************************************************
 841:/home/simulink/cFS_FreeRTOS_seL4/cfe/fsw/cfe-core/src/sb/cfe_sb_api.c **** ** Name:    CFE_SB_UnsubscribeAppId
 842:/home/simulink/cFS_FreeRTOS_seL4/cfe/fsw/cfe-core/src/sb/cfe_sb_api.c **** **
 843:/home/simulink/cFS_FreeRTOS_seL4/cfe/fsw/cfe-core/src/sb/cfe_sb_api.c **** ** Purpose: CFE Internal API intented to be called by CFE_ES when an applications
68K GAS   			page 58


 844:/home/simulink/cFS_FreeRTOS_seL4/cfe/fsw/cfe-core/src/sb/cfe_sb_api.c **** **          SB resources need to be freed. The regular unsibscribe api won't work
 845:/home/simulink/cFS_FreeRTOS_seL4/cfe/fsw/cfe-core/src/sb/cfe_sb_api.c **** **          because it does a check to ensure the caller is the owner of the pipe.
 846:/home/simulink/cFS_FreeRTOS_seL4/cfe/fsw/cfe-core/src/sb/cfe_sb_api.c **** **
 847:/home/simulink/cFS_FreeRTOS_seL4/cfe/fsw/cfe-core/src/sb/cfe_sb_api.c **** ** Date Written:
 848:/home/simulink/cFS_FreeRTOS_seL4/cfe/fsw/cfe-core/src/sb/cfe_sb_api.c **** **          03/15/2007
 849:/home/simulink/cFS_FreeRTOS_seL4/cfe/fsw/cfe-core/src/sb/cfe_sb_api.c **** **
 850:/home/simulink/cFS_FreeRTOS_seL4/cfe/fsw/cfe-core/src/sb/cfe_sb_api.c **** ** Input Arguments:
 851:/home/simulink/cFS_FreeRTOS_seL4/cfe/fsw/cfe-core/src/sb/cfe_sb_api.c **** **          MsgId
 852:/home/simulink/cFS_FreeRTOS_seL4/cfe/fsw/cfe-core/src/sb/cfe_sb_api.c **** **          PipeId
 853:/home/simulink/cFS_FreeRTOS_seL4/cfe/fsw/cfe-core/src/sb/cfe_sb_api.c **** **          AppId
 854:/home/simulink/cFS_FreeRTOS_seL4/cfe/fsw/cfe-core/src/sb/cfe_sb_api.c **** **
 855:/home/simulink/cFS_FreeRTOS_seL4/cfe/fsw/cfe-core/src/sb/cfe_sb_api.c **** ** Output Arguments:
 856:/home/simulink/cFS_FreeRTOS_seL4/cfe/fsw/cfe-core/src/sb/cfe_sb_api.c **** **          None
 857:/home/simulink/cFS_FreeRTOS_seL4/cfe/fsw/cfe-core/src/sb/cfe_sb_api.c **** **
 858:/home/simulink/cFS_FreeRTOS_seL4/cfe/fsw/cfe-core/src/sb/cfe_sb_api.c **** ** Return Values:
 859:/home/simulink/cFS_FreeRTOS_seL4/cfe/fsw/cfe-core/src/sb/cfe_sb_api.c **** **          Status
 860:/home/simulink/cFS_FreeRTOS_seL4/cfe/fsw/cfe-core/src/sb/cfe_sb_api.c **** **
 861:/home/simulink/cFS_FreeRTOS_seL4/cfe/fsw/cfe-core/src/sb/cfe_sb_api.c **** ******************************************************************************/
 862:/home/simulink/cFS_FreeRTOS_seL4/cfe/fsw/cfe-core/src/sb/cfe_sb_api.c **** int32 CFE_SB_UnsubscribeWithAppId(CFE_SB_MsgId_t MsgId,
 863:/home/simulink/cFS_FreeRTOS_seL4/cfe/fsw/cfe-core/src/sb/cfe_sb_api.c ****                               CFE_SB_PipeId_t PipeId,
 864:/home/simulink/cFS_FreeRTOS_seL4/cfe/fsw/cfe-core/src/sb/cfe_sb_api.c ****                               uint32 AppId)
 865:/home/simulink/cFS_FreeRTOS_seL4/cfe/fsw/cfe-core/src/sb/cfe_sb_api.c **** {
 2049               	.loc 1 865 0
 2050               	.cfi_startproc
 2051 11e4 4FEF FFF4 	lea (-12,%sp),%sp
 2052               	.cfi_def_cfa_offset 16
 2053 11e8 222F 0010 	move.l 16(%sp),%d1
 2054 11ec 202F 0014 	move.l 20(%sp),%d0
 2055 11f0 3201      	move.w %d1,%d1
 2056 11f2 3F41 0004 	move.w %d1,4(%sp)
 2057 11f6 1000      	move.b %d0,%d0
 2058 11f8 1E80      	move.b %d0,(%sp)
 866:/home/simulink/cFS_FreeRTOS_seL4/cfe/fsw/cfe-core/src/sb/cfe_sb_api.c ****     int32   Status = 0;
 2059               	.loc 1 866 0
 2060 11fa 42AF 0008 	clr.l 8(%sp)
 867:/home/simulink/cFS_FreeRTOS_seL4/cfe/fsw/cfe-core/src/sb/cfe_sb_api.c **** 
 868:/home/simulink/cFS_FreeRTOS_seL4/cfe/fsw/cfe-core/src/sb/cfe_sb_api.c ****     Status = CFE_SB_UnsubscribeFull(MsgId, PipeId, (uint8)CFE_SB_LOCAL, AppId);
 2061               	.loc 1 868 0
 2062 11fe 4281      	clr.l %d1
 2063 1200 1217      	move.b (%sp),%d1
 2064 1202 4280      	clr.l %d0
 2065 1204 302F 0004 	move.w 4(%sp),%d0
 2066 1208 2F2F 0018 	move.l 24(%sp),-(%sp)
 2067               	.cfi_def_cfa_offset 20
 2068 120c 4878 0001 	pea 1.w
 2069               	.cfi_def_cfa_offset 24
 2070 1210 2F01      	move.l %d1,-(%sp)
 2071               	.cfi_def_cfa_offset 28
 2072 1212 2F00      	move.l %d0,-(%sp)
 2073               	.cfi_def_cfa_offset 32
 2074 1214 4EB9 0000 	jsr CFE_SB_UnsubscribeFull
 2074      0000 
 2075 121a 4FEF 0010 	lea (16,%sp),%sp
 2076               	.cfi_def_cfa_offset 16
 2077 121e 2F40 0008 	move.l %d0,8(%sp)
 869:/home/simulink/cFS_FreeRTOS_seL4/cfe/fsw/cfe-core/src/sb/cfe_sb_api.c **** 
 870:/home/simulink/cFS_FreeRTOS_seL4/cfe/fsw/cfe-core/src/sb/cfe_sb_api.c ****     return Status;
68K GAS   			page 59


 2078               	.loc 1 870 0
 2079 1222 202F 0008 	move.l 8(%sp),%d0
 871:/home/simulink/cFS_FreeRTOS_seL4/cfe/fsw/cfe-core/src/sb/cfe_sb_api.c **** 
 872:/home/simulink/cFS_FreeRTOS_seL4/cfe/fsw/cfe-core/src/sb/cfe_sb_api.c **** }/* end CFE_SB_UnsubscribeWithAppId */
 2080               	.loc 1 872 0
 2081 1226 4FEF 000C 	lea (12,%sp),%sp
 2082 122a 4E75      	rts
 2083               	.cfi_endproc
 2084               	.LFE69:
 2085               	.sizeCFE_SB_UnsubscribeWithAppId, .-CFE_SB_UnsubscribeWithAppId
 2086               	.section.rodata
 2087               	.LC16:
 2088 0359 556E 7375 	.string"Unsubscribe Err:Invalid Pipe Id Msg=0x%x,Pipe=%d,app=%s"
 2088      6273 6372 
 2088      6962 6520 
 2088      4572 723A 
 2088      496E 7661 
 2089               	.LC17:
 2090 0391 556E 7375 	.string"Unsubscribe Err:Caller(%s) is not the owner of pipe %d,Msg=0x%x"
 2090      6273 6372 
 2090      6962 6520 
 2090      4572 723A 
 2090      4361 6C6C 
 2091               	.LC18:
 2092 03d1 556E 5375 	.string"UnSubscribe Err:Bad Arg,MsgId 0x%x,PipeId %d,app %s,scope %d"
 2092      6273 6372 
 2092      6962 6520 
 2092      4572 723A 
 2092      4261 6420 
 2093               	.LC19:
 2094 040e 556E 7375 	.string"Unsubscribe Err:No subs for Msg 0x%x on %s,app %s"
 2094      6273 6372 
 2094      6962 6520 
 2094      4572 723A 
 2094      4E6F 2073 
 2095               	.LC20:
 2096 0440 5365 6E64 	.string"Sending Unsubscription Report Msg=0x%x,Pipe=%d,Stat=0x%x"
 2096      696E 6720 
 2096      556E 7375 
 2096      6273 6372 
 2096      6970 7469 
 2097               	.LC21:
 2098 0479 5375 6273 	.string"Subscription Removed:Msg 0x%x on pipe %d,app %s"
 2098      6372 6970 
 2098      7469 6F6E 
 2098      2052 656D 
 2098      6F76 6564 
 2099               	.text
 2100               	.align2
 2101               	.globlCFE_SB_UnsubscribeFull
 2102               	.typeCFE_SB_UnsubscribeFull, @function
 2103               	CFE_SB_UnsubscribeFull:
 2104               	.LFB70:
 873:/home/simulink/cFS_FreeRTOS_seL4/cfe/fsw/cfe-core/src/sb/cfe_sb_api.c **** 
 874:/home/simulink/cFS_FreeRTOS_seL4/cfe/fsw/cfe-core/src/sb/cfe_sb_api.c **** 
 875:/home/simulink/cFS_FreeRTOS_seL4/cfe/fsw/cfe-core/src/sb/cfe_sb_api.c **** /******************************************************************************
 876:/home/simulink/cFS_FreeRTOS_seL4/cfe/fsw/cfe-core/src/sb/cfe_sb_api.c **** ** Name:    CFE_SB_UnsubscribeFull
68K GAS   			page 60


 877:/home/simulink/cFS_FreeRTOS_seL4/cfe/fsw/cfe-core/src/sb/cfe_sb_api.c **** **
 878:/home/simulink/cFS_FreeRTOS_seL4/cfe/fsw/cfe-core/src/sb/cfe_sb_api.c **** ** Purpose: CFE Internal API used to unsubscribe to a message.
 879:/home/simulink/cFS_FreeRTOS_seL4/cfe/fsw/cfe-core/src/sb/cfe_sb_api.c **** **
 880:/home/simulink/cFS_FreeRTOS_seL4/cfe/fsw/cfe-core/src/sb/cfe_sb_api.c **** ** Assumptions, External Events, and Notes:
 881:/home/simulink/cFS_FreeRTOS_seL4/cfe/fsw/cfe-core/src/sb/cfe_sb_api.c **** **
 882:/home/simulink/cFS_FreeRTOS_seL4/cfe/fsw/cfe-core/src/sb/cfe_sb_api.c **** **
 883:/home/simulink/cFS_FreeRTOS_seL4/cfe/fsw/cfe-core/src/sb/cfe_sb_api.c **** ** Notes:This function cannot be called directly,it would not be semaphore protected.
 884:/home/simulink/cFS_FreeRTOS_seL4/cfe/fsw/cfe-core/src/sb/cfe_sb_api.c **** **       Also,if more than one subscription is found, this function will remove all
 885:/home/simulink/cFS_FreeRTOS_seL4/cfe/fsw/cfe-core/src/sb/cfe_sb_api.c **** **       entries that match.
 886:/home/simulink/cFS_FreeRTOS_seL4/cfe/fsw/cfe-core/src/sb/cfe_sb_api.c **** **
 887:/home/simulink/cFS_FreeRTOS_seL4/cfe/fsw/cfe-core/src/sb/cfe_sb_api.c **** ** Date Written:
 888:/home/simulink/cFS_FreeRTOS_seL4/cfe/fsw/cfe-core/src/sb/cfe_sb_api.c **** **          04/25/2005
 889:/home/simulink/cFS_FreeRTOS_seL4/cfe/fsw/cfe-core/src/sb/cfe_sb_api.c **** **
 890:/home/simulink/cFS_FreeRTOS_seL4/cfe/fsw/cfe-core/src/sb/cfe_sb_api.c **** ** Input Arguments:
 891:/home/simulink/cFS_FreeRTOS_seL4/cfe/fsw/cfe-core/src/sb/cfe_sb_api.c **** **          MsgId
 892:/home/simulink/cFS_FreeRTOS_seL4/cfe/fsw/cfe-core/src/sb/cfe_sb_api.c **** **          PipeId
 893:/home/simulink/cFS_FreeRTOS_seL4/cfe/fsw/cfe-core/src/sb/cfe_sb_api.c **** **          Scope
 894:/home/simulink/cFS_FreeRTOS_seL4/cfe/fsw/cfe-core/src/sb/cfe_sb_api.c **** **          AppId
 895:/home/simulink/cFS_FreeRTOS_seL4/cfe/fsw/cfe-core/src/sb/cfe_sb_api.c **** **
 896:/home/simulink/cFS_FreeRTOS_seL4/cfe/fsw/cfe-core/src/sb/cfe_sb_api.c **** ** Output Arguments:
 897:/home/simulink/cFS_FreeRTOS_seL4/cfe/fsw/cfe-core/src/sb/cfe_sb_api.c **** **          None
 898:/home/simulink/cFS_FreeRTOS_seL4/cfe/fsw/cfe-core/src/sb/cfe_sb_api.c **** **
 899:/home/simulink/cFS_FreeRTOS_seL4/cfe/fsw/cfe-core/src/sb/cfe_sb_api.c **** ** Return Values:
 900:/home/simulink/cFS_FreeRTOS_seL4/cfe/fsw/cfe-core/src/sb/cfe_sb_api.c **** **          Status
 901:/home/simulink/cFS_FreeRTOS_seL4/cfe/fsw/cfe-core/src/sb/cfe_sb_api.c **** **
 902:/home/simulink/cFS_FreeRTOS_seL4/cfe/fsw/cfe-core/src/sb/cfe_sb_api.c **** ******************************************************************************/
 903:/home/simulink/cFS_FreeRTOS_seL4/cfe/fsw/cfe-core/src/sb/cfe_sb_api.c **** int32 CFE_SB_UnsubscribeFull(CFE_SB_MsgId_t MsgId,CFE_SB_PipeId_t PipeId,
 904:/home/simulink/cFS_FreeRTOS_seL4/cfe/fsw/cfe-core/src/sb/cfe_sb_api.c ****                              uint8 Scope,uint32 AppId)
 905:/home/simulink/cFS_FreeRTOS_seL4/cfe/fsw/cfe-core/src/sb/cfe_sb_api.c **** {
 2105               	.loc 1 905 0
 2106               	.cfi_startproc
 2107 122c 4FEF FFB4 	lea (-76,%sp),%sp
 2108               	.cfi_def_cfa_offset 80
 2109 1230 2F03      	move.l %d3,-(%sp)
 2110               	.cfi_def_cfa_offset 84
 2111               	.cfi_offset 3, -84
 2112 1232 2F02      	move.l %d2,-(%sp)
 2113               	.cfi_def_cfa_offset 88
 2114               	.cfi_offset 2, -88
 2115 1234 206F 0058 	move.l 88(%sp),%a0
 2116 1238 222F 005C 	move.l 92(%sp),%d1
 2117 123c 202F 0060 	move.l 96(%sp),%d0
 2118 1240 3048      	move.w %a0,%a0
 2119 1242 3F48 0010 	move.w %a0,16(%sp)
 2120 1246 1201      	move.b %d1,%d1
 2121 1248 1F41 000C 	move.b %d1,12(%sp)
 2122 124c 1000      	move.b %d0,%d0
 2123 124e 1F40 0008 	move.b %d0,8(%sp)
 906:/home/simulink/cFS_FreeRTOS_seL4/cfe/fsw/cfe-core/src/sb/cfe_sb_api.c ****     uint16  Idx;
 907:/home/simulink/cFS_FreeRTOS_seL4/cfe/fsw/cfe-core/src/sb/cfe_sb_api.c ****     uint32  PipeIdx;
 908:/home/simulink/cFS_FreeRTOS_seL4/cfe/fsw/cfe-core/src/sb/cfe_sb_api.c ****     uint32  TskId = 0;
 2124               	.loc 1 908 0
 2125 1252 42AF 0048 	clr.l 72(%sp)
 909:/home/simulink/cFS_FreeRTOS_seL4/cfe/fsw/cfe-core/src/sb/cfe_sb_api.c ****     uint32  MatchFound = FALSE;
 2126               	.loc 1 909 0
 2127 1256 42AF 0050 	clr.l 80(%sp)
 910:/home/simulink/cFS_FreeRTOS_seL4/cfe/fsw/cfe-core/src/sb/cfe_sb_api.c ****     int32   Stat;
68K GAS   			page 61


 911:/home/simulink/cFS_FreeRTOS_seL4/cfe/fsw/cfe-core/src/sb/cfe_sb_api.c ****     CFE_SB_DestinationD_t   *DestPtr = NULL;
 2128               	.loc 1 911 0
 2129 125a 42AF 004C 	clr.l 76(%sp)
 912:/home/simulink/cFS_FreeRTOS_seL4/cfe/fsw/cfe-core/src/sb/cfe_sb_api.c ****     char    FullName[(OS_MAX_API_NAME * 2)];
 913:/home/simulink/cFS_FreeRTOS_seL4/cfe/fsw/cfe-core/src/sb/cfe_sb_api.c **** 
 914:/home/simulink/cFS_FreeRTOS_seL4/cfe/fsw/cfe-core/src/sb/cfe_sb_api.c **** 
 915:/home/simulink/cFS_FreeRTOS_seL4/cfe/fsw/cfe-core/src/sb/cfe_sb_api.c ****     /* take semaphore to prevent a task switch during this call */
 916:/home/simulink/cFS_FreeRTOS_seL4/cfe/fsw/cfe-core/src/sb/cfe_sb_api.c ****     CFE_SB_LockSharedData(__func__,__LINE__);
 2130               	.loc 1 916 0
 2131 125e 4878 0394 	pea 916.w
 2132               	.cfi_def_cfa_offset 92
 2133 1262 4879 0000 	pea __func__.5690
 2133      0000 
 2134               	.cfi_def_cfa_offset 96
 2135 1268 4EB9 0000 	jsr CFE_SB_LockSharedData
 2135      0000 
 2136 126e 508F      	addq.l #8,%sp
 2137               	.cfi_def_cfa_offset 88
 917:/home/simulink/cFS_FreeRTOS_seL4/cfe/fsw/cfe-core/src/sb/cfe_sb_api.c **** 
 918:/home/simulink/cFS_FreeRTOS_seL4/cfe/fsw/cfe-core/src/sb/cfe_sb_api.c ****     /* get task id for events */
 919:/home/simulink/cFS_FreeRTOS_seL4/cfe/fsw/cfe-core/src/sb/cfe_sb_api.c ****     TskId = OS_TaskGetId();
 2138               	.loc 1 919 0
 2139 1270 4EB9 0000 	jsr OS_TaskGetId
 2139      0000 
 2140 1276 2F40 0048 	move.l %d0,72(%sp)
 920:/home/simulink/cFS_FreeRTOS_seL4/cfe/fsw/cfe-core/src/sb/cfe_sb_api.c **** 
 921:/home/simulink/cFS_FreeRTOS_seL4/cfe/fsw/cfe-core/src/sb/cfe_sb_api.c ****     /* check that the pipe has been created */
 922:/home/simulink/cFS_FreeRTOS_seL4/cfe/fsw/cfe-core/src/sb/cfe_sb_api.c ****     PipeIdx = CFE_SB_GetPipeIdx(PipeId);
 2141               	.loc 1 922 0
 2142 127a 4280      	clr.l %d0
 2143 127c 102F 000C 	move.b 12(%sp),%d0
 2144 1280 2F00      	move.l %d0,-(%sp)
 2145               	.cfi_def_cfa_offset 92
 2146 1282 4EB9 0000 	jsr CFE_SB_GetPipeIdx
 2146      0000 
 2147 1288 588F      	addq.l #4,%sp
 2148               	.cfi_def_cfa_offset 88
 2149 128a 1000      	move.b %d0,%d0
 2150 128c 0280 0000 	and.l #255,%d0
 2150      00FF 
 2151 1292 2F40 0044 	move.l %d0,68(%sp)
 923:/home/simulink/cFS_FreeRTOS_seL4/cfe/fsw/cfe-core/src/sb/cfe_sb_api.c ****     if(PipeIdx==CFE_SB_INVALID_PIPE){
 2152               	.loc 1 923 0
 2153 1296 203C 0000 	move.l #255,%d0
 2153      00FF 
 2154 129c B0AF 0044 	cmp.l 68(%sp),%d0
 2155 12a0 6666      	jne .L58
 924:/home/simulink/cFS_FreeRTOS_seL4/cfe/fsw/cfe-core/src/sb/cfe_sb_api.c ****       CFE_SB_UnlockSharedData(__func__,__LINE__);
 2156               	.loc 1 924 0
 2157 12a2 4878 039C 	pea 924.w
 2158               	.cfi_def_cfa_offset 92
 2159 12a6 4879 0000 	pea __func__.5690
 2159      0000 
 2160               	.cfi_def_cfa_offset 96
 2161 12ac 4EB9 0000 	jsr CFE_SB_UnlockSharedData
 2161      0000 
 2162 12b2 508F      	addq.l #8,%sp
68K GAS   			page 62


 2163               	.cfi_def_cfa_offset 88
 925:/home/simulink/cFS_FreeRTOS_seL4/cfe/fsw/cfe-core/src/sb/cfe_sb_api.c ****       CFE_EVS_SendEventWithAppID(CFE_SB_UNSUB_INV_PIPE_EID,CFE_EVS_ERROR,CFE_SB.AppId,
 2164               	.loc 1 925 0
 2165 12b4 200F      	move.l %sp,%d0
 2166 12b6 0680 0000 	add.l #20,%d0
 2166      0014 
 2167 12bc 2F00      	move.l %d0,-(%sp)
 2168               	.cfi_def_cfa_offset 92
 2169 12be 2F2F 004C 	move.l 76(%sp),-(%sp)
 2170               	.cfi_def_cfa_offset 96
 2171 12c2 4EB9 0000 	jsr CFE_SB_GetAppTskName
 2171      0000 
 2172 12c8 508F      	addq.l #8,%sp
 2173               	.cfi_def_cfa_offset 88
 2174 12ca 2240      	move.l %d0,%a1
 2175 12cc 4281      	clr.l %d1
 2176 12ce 122F 000C 	move.b 12(%sp),%d1
 2177 12d2 4280      	clr.l %d0
 2178 12d4 302F 0010 	move.w 16(%sp),%d0
 2179 12d8 2079 0000 	move.l CFE_SB+12,%a0
 2179      0000 
 2180 12de 2F09      	move.l %a1,-(%sp)
 2181               	.cfi_def_cfa_offset 92
 2182 12e0 2F01      	move.l %d1,-(%sp)
 2183               	.cfi_def_cfa_offset 96
 2184 12e2 2F00      	move.l %d0,-(%sp)
 2185               	.cfi_def_cfa_offset 100
 2186 12e4 4879 0000 	pea .LC16
 2186      0000 
 2187               	.cfi_def_cfa_offset 104
 2188 12ea 2F08      	move.l %a0,-(%sp)
 2189               	.cfi_def_cfa_offset 108
 2190 12ec 4878 0003 	pea 3.w
 2191               	.cfi_def_cfa_offset 112
 2192 12f0 4878 0034 	pea 52.w
 2193               	.cfi_def_cfa_offset 116
 2194 12f4 4EB9 0000 	jsr CFE_EVS_SendEventWithAppID
 2194      0000 
 2195 12fa 4FEF 001C 	lea (28,%sp),%sp
 2196               	.cfi_def_cfa_offset 88
 926:/home/simulink/cFS_FreeRTOS_seL4/cfe/fsw/cfe-core/src/sb/cfe_sb_api.c ****             "Unsubscribe Err:Invalid Pipe Id Msg=0x%x,Pipe=%d,app=%s",
 927:/home/simulink/cFS_FreeRTOS_seL4/cfe/fsw/cfe-core/src/sb/cfe_sb_api.c ****             (unsigned int)MsgId,(int)PipeId,CFE_SB_GetAppTskName(TskId,FullName));
 928:/home/simulink/cFS_FreeRTOS_seL4/cfe/fsw/cfe-core/src/sb/cfe_sb_api.c ****       return CFE_SB_BAD_ARGUMENT;
 2197               	.loc 1 928 0
 2198 12fe 203C CA00 	move.l #-905969661,%d0
 2198      0003 
 2199 1304 6000 03C0 	jra .L68
 2200               	.L58:
 929:/home/simulink/cFS_FreeRTOS_seL4/cfe/fsw/cfe-core/src/sb/cfe_sb_api.c ****     }/* end if */
 930:/home/simulink/cFS_FreeRTOS_seL4/cfe/fsw/cfe-core/src/sb/cfe_sb_api.c **** 
 931:/home/simulink/cFS_FreeRTOS_seL4/cfe/fsw/cfe-core/src/sb/cfe_sb_api.c ****     /* if given 'AppId' is not the owner of the pipe, send error event and return */
 932:/home/simulink/cFS_FreeRTOS_seL4/cfe/fsw/cfe-core/src/sb/cfe_sb_api.c ****     if(CFE_SB.PipeTbl[PipeIdx].AppId != AppId){
 2201               	.loc 1 932 0
 2202 1308 202F 0044 	move.l 68(%sp),%d0
 2203 130c 7244      	moveq #68,%d1
 2204 130e 4C01 0800 	muls.l %d1,%d0
 2205 1312 41F9 0000 	lea CFE_SB+192,%a0
68K GAS   			page 63


 2205      0000 
 2206 1318 2030 0800 	move.l (%a0,%d0.l),%d0
 2207 131c B0AF 0064 	cmp.l 100(%sp),%d0
 2208 1320 6766      	jeq .L60
 933:/home/simulink/cFS_FreeRTOS_seL4/cfe/fsw/cfe-core/src/sb/cfe_sb_api.c ****       CFE_SB_UnlockSharedData(__func__,__LINE__);
 2209               	.loc 1 933 0
 2210 1322 4878 03A5 	pea 933.w
 2211               	.cfi_def_cfa_offset 92
 2212 1326 4879 0000 	pea __func__.5690
 2212      0000 
 2213               	.cfi_def_cfa_offset 96
 2214 132c 4EB9 0000 	jsr CFE_SB_UnlockSharedData
 2214      0000 
 2215 1332 508F      	addq.l #8,%sp
 2216               	.cfi_def_cfa_offset 88
 934:/home/simulink/cFS_FreeRTOS_seL4/cfe/fsw/cfe-core/src/sb/cfe_sb_api.c ****       CFE_EVS_SendEventWithAppID(CFE_SB_UNSUB_INV_CALLER_EID,CFE_EVS_ERROR,CFE_SB.AppId,
 2217               	.loc 1 934 0
 2218 1334 4283      	clr.l %d3
 2219 1336 362F 0010 	move.w 16(%sp),%d3
 2220 133a 4282      	clr.l %d2
 2221 133c 142F 000C 	move.b 12(%sp),%d2
 2222 1340 200F      	move.l %sp,%d0
 2223 1342 0680 0000 	add.l #20,%d0
 2223      0014 
 2224 1348 2F00      	move.l %d0,-(%sp)
 2225               	.cfi_def_cfa_offset 92
 2226 134a 2F2F 004C 	move.l 76(%sp),-(%sp)
 2227               	.cfi_def_cfa_offset 96
 2228 134e 4EB9 0000 	jsr CFE_SB_GetAppTskName
 2228      0000 
 2229 1354 508F      	addq.l #8,%sp
 2230               	.cfi_def_cfa_offset 88
 2231 1356 2200      	move.l %d0,%d1
 2232 1358 2039 0000 	move.l CFE_SB+12,%d0
 2232      0000 
 2233 135e 2F03      	move.l %d3,-(%sp)
 2234               	.cfi_def_cfa_offset 92
 2235 1360 2F02      	move.l %d2,-(%sp)
 2236               	.cfi_def_cfa_offset 96
 2237 1362 2F01      	move.l %d1,-(%sp)
 2238               	.cfi_def_cfa_offset 100
 2239 1364 4879 0000 	pea .LC17
 2239      0000 
 2240               	.cfi_def_cfa_offset 104
 2241 136a 2F00      	move.l %d0,-(%sp)
 2242               	.cfi_def_cfa_offset 108
 2243 136c 4878 0003 	pea 3.w
 2244               	.cfi_def_cfa_offset 112
 2245 1370 4878 0035 	pea 53.w
 2246               	.cfi_def_cfa_offset 116
 2247 1374 4EB9 0000 	jsr CFE_EVS_SendEventWithAppID
 2247      0000 
 2248 137a 4FEF 001C 	lea (28,%sp),%sp
 2249               	.cfi_def_cfa_offset 88
 935:/home/simulink/cFS_FreeRTOS_seL4/cfe/fsw/cfe-core/src/sb/cfe_sb_api.c ****             "Unsubscribe Err:Caller(%s) is not the owner of pipe %d,Msg=0x%x",
 936:/home/simulink/cFS_FreeRTOS_seL4/cfe/fsw/cfe-core/src/sb/cfe_sb_api.c ****             CFE_SB_GetAppTskName(TskId,FullName),(int)PipeId,MsgId);
 937:/home/simulink/cFS_FreeRTOS_seL4/cfe/fsw/cfe-core/src/sb/cfe_sb_api.c ****       return CFE_SB_BAD_ARGUMENT;
68K GAS   			page 64


 2250               	.loc 1 937 0
 2251 137e 203C CA00 	move.l #-905969661,%d0
 2251      0003 
 2252 1384 6000 0340 	jra .L68
 2253               	.L60:
 938:/home/simulink/cFS_FreeRTOS_seL4/cfe/fsw/cfe-core/src/sb/cfe_sb_api.c ****     }/* end if */
 939:/home/simulink/cFS_FreeRTOS_seL4/cfe/fsw/cfe-core/src/sb/cfe_sb_api.c **** 
 940:/home/simulink/cFS_FreeRTOS_seL4/cfe/fsw/cfe-core/src/sb/cfe_sb_api.c ****     /* check input parameters */
 941:/home/simulink/cFS_FreeRTOS_seL4/cfe/fsw/cfe-core/src/sb/cfe_sb_api.c ****     if((CFE_SB_ValidateMsgId(MsgId) != CFE_SUCCESS)||
 2254               	.loc 1 941 0
 2255 1388 4280      	clr.l %d0
 2256 138a 302F 0010 	move.w 16(%sp),%d0
 2257 138e 2F00      	move.l %d0,-(%sp)
 2258               	.cfi_def_cfa_offset 92
 2259 1390 4EB9 0000 	jsr CFE_SB_ValidateMsgId
 2259      0000 
 2260 1396 588F      	addq.l #4,%sp
 2261               	.cfi_def_cfa_offset 88
 2262 1398 4A80      	tst.l %d0
 2263 139a 6620      	jne .L61
 942:/home/simulink/cFS_FreeRTOS_seL4/cfe/fsw/cfe-core/src/sb/cfe_sb_api.c ****        (CFE_SB_ValidatePipeId(PipeId) != CFE_SUCCESS)||
 2264               	.loc 1 942 0 discriminator 1
 2265 139c 4280      	clr.l %d0
 2266 139e 102F 000C 	move.b 12(%sp),%d0
 2267 13a2 2F00      	move.l %d0,-(%sp)
 2268               	.cfi_def_cfa_offset 92
 2269 13a4 4EB9 0000 	jsr CFE_SB_ValidatePipeId
 2269      0000 
 2270 13aa 588F      	addq.l #4,%sp
 2271               	.cfi_def_cfa_offset 88
 941:/home/simulink/cFS_FreeRTOS_seL4/cfe/fsw/cfe-core/src/sb/cfe_sb_api.c ****        (CFE_SB_ValidatePipeId(PipeId) != CFE_SUCCESS)||
 2272               	.loc 1 941 0 discriminator 1
 2273 13ac 4A80      	tst.l %d0
 2274 13ae 660C      	jne .L61
 2275               	.loc 1 942 0
 2276 13b0 4280      	clr.l %d0
 2277 13b2 102F 0008 	move.b 8(%sp),%d0
 2278 13b6 7401      	moveq #1,%d2
 2279 13b8 B480      	cmp.l %d0,%d2
 2280 13ba 646E      	jcc .L62
 2281               	.L61:
 943:/home/simulink/cFS_FreeRTOS_seL4/cfe/fsw/cfe-core/src/sb/cfe_sb_api.c ****        (Scope > 1))
 944:/home/simulink/cFS_FreeRTOS_seL4/cfe/fsw/cfe-core/src/sb/cfe_sb_api.c ****     {
 945:/home/simulink/cFS_FreeRTOS_seL4/cfe/fsw/cfe-core/src/sb/cfe_sb_api.c ****         CFE_SB_UnlockSharedData(__func__,__LINE__);
 2282               	.loc 1 945 0
 2283 13bc 4878 03B1 	pea 945.w
 2284               	.cfi_def_cfa_offset 92
 2285 13c0 4879 0000 	pea __func__.5690
 2285      0000 
 2286               	.cfi_def_cfa_offset 96
 2287 13c6 4EB9 0000 	jsr CFE_SB_UnlockSharedData
 2287      0000 
 2288 13cc 508F      	addq.l #8,%sp
 2289               	.cfi_def_cfa_offset 88
 946:/home/simulink/cFS_FreeRTOS_seL4/cfe/fsw/cfe-core/src/sb/cfe_sb_api.c ****         CFE_EVS_SendEventWithAppID(CFE_SB_UNSUB_ARG_ERR_EID,CFE_EVS_ERROR,CFE_SB.AppId,
 2290               	.loc 1 946 0
 2291 13ce 4282      	clr.l %d2
68K GAS   			page 65


 2292 13d0 142F 0008 	move.b 8(%sp),%d2
 2293 13d4 200F      	move.l %sp,%d0
 2294 13d6 0680 0000 	add.l #20,%d0
 2294      0014 
 2295 13dc 2F00      	move.l %d0,-(%sp)
 2296               	.cfi_def_cfa_offset 92
 2297 13de 2F2F 004C 	move.l 76(%sp),-(%sp)
 2298               	.cfi_def_cfa_offset 96
 2299 13e2 4EB9 0000 	jsr CFE_SB_GetAppTskName
 2299      0000 
 2300 13e8 508F      	addq.l #8,%sp
 2301               	.cfi_def_cfa_offset 88
 2302 13ea 2240      	move.l %d0,%a1
 2303 13ec 4281      	clr.l %d1
 2304 13ee 122F 000C 	move.b 12(%sp),%d1
 2305 13f2 4280      	clr.l %d0
 2306 13f4 302F 0010 	move.w 16(%sp),%d0
 2307 13f8 2079 0000 	move.l CFE_SB+12,%a0
 2307      0000 
 2308 13fe 2F02      	move.l %d2,-(%sp)
 2309               	.cfi_def_cfa_offset 92
 2310 1400 2F09      	move.l %a1,-(%sp)
 2311               	.cfi_def_cfa_offset 96
 2312 1402 2F01      	move.l %d1,-(%sp)
 2313               	.cfi_def_cfa_offset 100
 2314 1404 2F00      	move.l %d0,-(%sp)
 2315               	.cfi_def_cfa_offset 104
 2316 1406 4879 0000 	pea .LC18
 2316      0000 
 2317               	.cfi_def_cfa_offset 108
 2318 140c 2F08      	move.l %a0,-(%sp)
 2319               	.cfi_def_cfa_offset 112
 2320 140e 4878 0003 	pea 3.w
 2321               	.cfi_def_cfa_offset 116
 2322 1412 4878 000B 	pea 11.w
 2323               	.cfi_def_cfa_offset 120
 2324 1416 4EB9 0000 	jsr CFE_EVS_SendEventWithAppID
 2324      0000 
 2325 141c 4FEF 0020 	lea (32,%sp),%sp
 2326               	.cfi_def_cfa_offset 88
 947:/home/simulink/cFS_FreeRTOS_seL4/cfe/fsw/cfe-core/src/sb/cfe_sb_api.c ****             "UnSubscribe Err:Bad Arg,MsgId 0x%x,PipeId %d,app %s,scope %d",
 948:/home/simulink/cFS_FreeRTOS_seL4/cfe/fsw/cfe-core/src/sb/cfe_sb_api.c ****             (unsigned int)MsgId,(int)PipeId,CFE_SB_GetAppTskName(TskId,FullName),Scope);
 949:/home/simulink/cFS_FreeRTOS_seL4/cfe/fsw/cfe-core/src/sb/cfe_sb_api.c ****         return CFE_SB_BAD_ARGUMENT;
 2327               	.loc 1 949 0
 2328 1420 203C CA00 	move.l #-905969661,%d0
 2328      0003 
 2329 1426 6000 029E 	jra .L68
 2330               	.L62:
 950:/home/simulink/cFS_FreeRTOS_seL4/cfe/fsw/cfe-core/src/sb/cfe_sb_api.c ****     }/* end if */
 951:/home/simulink/cFS_FreeRTOS_seL4/cfe/fsw/cfe-core/src/sb/cfe_sb_api.c **** 
 952:/home/simulink/cFS_FreeRTOS_seL4/cfe/fsw/cfe-core/src/sb/cfe_sb_api.c ****     /* get index into routing table */
 953:/home/simulink/cFS_FreeRTOS_seL4/cfe/fsw/cfe-core/src/sb/cfe_sb_api.c ****     Idx = CFE_SB_GetRoutingTblIdx(MsgId);
 2331               	.loc 1 953 0
 2332 142a 4280      	clr.l %d0
 2333 142c 302F 0010 	move.w 16(%sp),%d0
 2334 1430 2F00      	move.l %d0,-(%sp)
 2335               	.cfi_def_cfa_offset 92
68K GAS   			page 66


 2336 1432 4EB9 0000 	jsr CFE_SB_GetRoutingTblIdx
 2336      0000 
 2337 1438 588F      	addq.l #4,%sp
 2338               	.cfi_def_cfa_offset 88
 2339 143a 3F40 0042 	move.w %d0,66(%sp)
 954:/home/simulink/cFS_FreeRTOS_seL4/cfe/fsw/cfe-core/src/sb/cfe_sb_api.c **** 
 955:/home/simulink/cFS_FreeRTOS_seL4/cfe/fsw/cfe-core/src/sb/cfe_sb_api.c ****     /* if there are no subscriptions for this message id... */
 956:/home/simulink/cFS_FreeRTOS_seL4/cfe/fsw/cfe-core/src/sb/cfe_sb_api.c ****     if(Idx == CFE_SB_AVAILABLE){
 2340               	.loc 1 956 0
 2341 143e 4280      	clr.l %d0
 2342 1440 302F 0042 	move.w 66(%sp),%d0
 2343 1444 0C80 0000 	cmp.l #65535,%d0
 2343      FFFF 
 2344 144a 666E      	jne .L63
 957:/home/simulink/cFS_FreeRTOS_seL4/cfe/fsw/cfe-core/src/sb/cfe_sb_api.c ****         CFE_SB_UnlockSharedData(__func__,__LINE__);
 2345               	.loc 1 957 0
 2346 144c 4878 03BD 	pea 957.w
 2347               	.cfi_def_cfa_offset 92
 2348 1450 4879 0000 	pea __func__.5690
 2348      0000 
 2349               	.cfi_def_cfa_offset 96
 2350 1456 4EB9 0000 	jsr CFE_SB_UnlockSharedData
 2350      0000 
 2351 145c 508F      	addq.l #8,%sp
 2352               	.cfi_def_cfa_offset 88
 958:/home/simulink/cFS_FreeRTOS_seL4/cfe/fsw/cfe-core/src/sb/cfe_sb_api.c ****         CFE_EVS_SendEventWithAppID(CFE_SB_UNSUB_NO_SUBS_EID,CFE_EVS_INFORMATION,CFE_SB.AppId,
 2353               	.loc 1 958 0
 2354 145e 200F      	move.l %sp,%d0
 2355 1460 0680 0000 	add.l #20,%d0
 2355      0014 
 2356 1466 2F00      	move.l %d0,-(%sp)
 2357               	.cfi_def_cfa_offset 92
 2358 1468 2F2F 004C 	move.l 76(%sp),-(%sp)
 2359               	.cfi_def_cfa_offset 96
 2360 146c 4EB9 0000 	jsr CFE_SB_GetAppTskName
 2360      0000 
 2361 1472 508F      	addq.l #8,%sp
 2362               	.cfi_def_cfa_offset 88
 2363 1474 2400      	move.l %d0,%d2
 2364 1476 4280      	clr.l %d0
 2365 1478 102F 000C 	move.b 12(%sp),%d0
 2366 147c 2F00      	move.l %d0,-(%sp)
 2367               	.cfi_def_cfa_offset 92
 2368 147e 4EB9 0000 	jsr CFE_SB_GetPipeName
 2368      0000 
 2369 1484 588F      	addq.l #4,%sp
 2370               	.cfi_def_cfa_offset 88
 2371 1486 2040      	move.l %d0,%a0
 2372 1488 4280      	clr.l %d0
 2373 148a 302F 0010 	move.w 16(%sp),%d0
 2374 148e 2239 0000 	move.l CFE_SB+12,%d1
 2374      0000 
 2375 1494 2F02      	move.l %d2,-(%sp)
 2376               	.cfi_def_cfa_offset 92
 2377 1496 2F08      	move.l %a0,-(%sp)
 2378               	.cfi_def_cfa_offset 96
 2379 1498 2F00      	move.l %d0,-(%sp)
68K GAS   			page 67


 2380               	.cfi_def_cfa_offset 100
 2381 149a 4879 0000 	pea .LC19
 2381      0000 
 2382               	.cfi_def_cfa_offset 104
 2383 14a0 2F01      	move.l %d1,-(%sp)
 2384               	.cfi_def_cfa_offset 108
 2385 14a2 4878 0002 	pea 2.w
 2386               	.cfi_def_cfa_offset 112
 2387 14a6 4878 000C 	pea 12.w
 2388               	.cfi_def_cfa_offset 116
 2389 14aa 4EB9 0000 	jsr CFE_EVS_SendEventWithAppID
 2389      0000 
 2390 14b0 4FEF 001C 	lea (28,%sp),%sp
 2391               	.cfi_def_cfa_offset 88
 959:/home/simulink/cFS_FreeRTOS_seL4/cfe/fsw/cfe-core/src/sb/cfe_sb_api.c ****             "Unsubscribe Err:No subs for Msg 0x%x on %s,app %s",
 960:/home/simulink/cFS_FreeRTOS_seL4/cfe/fsw/cfe-core/src/sb/cfe_sb_api.c ****             (unsigned int)MsgId,CFE_SB_GetPipeName(PipeId),CFE_SB_GetAppTskName(TskId,FullName));
 961:/home/simulink/cFS_FreeRTOS_seL4/cfe/fsw/cfe-core/src/sb/cfe_sb_api.c ****         return CFE_SUCCESS;
 2392               	.loc 1 961 0
 2393 14b4 4280      	clr.l %d0
 2394 14b6 6000 020E 	jra .L68
 2395               	.L63:
 962:/home/simulink/cFS_FreeRTOS_seL4/cfe/fsw/cfe-core/src/sb/cfe_sb_api.c ****     }/* end if */
 963:/home/simulink/cFS_FreeRTOS_seL4/cfe/fsw/cfe-core/src/sb/cfe_sb_api.c **** 
 964:/home/simulink/cFS_FreeRTOS_seL4/cfe/fsw/cfe-core/src/sb/cfe_sb_api.c ****     /* At this point, there must be at least one destination. */
 965:/home/simulink/cFS_FreeRTOS_seL4/cfe/fsw/cfe-core/src/sb/cfe_sb_api.c ****     /* So the value of 'ListHeadPtr' will not be NULL by design */
 966:/home/simulink/cFS_FreeRTOS_seL4/cfe/fsw/cfe-core/src/sb/cfe_sb_api.c **** 
 967:/home/simulink/cFS_FreeRTOS_seL4/cfe/fsw/cfe-core/src/sb/cfe_sb_api.c ****     /* search the list for a matching pipe id */
 968:/home/simulink/cFS_FreeRTOS_seL4/cfe/fsw/cfe-core/src/sb/cfe_sb_api.c ****     DestPtr = CFE_SB.RoutingTbl[Idx].ListHeadPtr;
 2396               	.loc 1 968 0
 2397 14ba 4280      	clr.l %d0
 2398 14bc 302F 0042 	move.w 66(%sp),%d0
 2399 14c0 720C      	moveq #12,%d1
 2400 14c2 4C01 0800 	muls.l %d1,%d0
 2401 14c6 41F9 0000 	lea CFE_SB+545816,%a0
 2401      0000 
 2402 14cc 43F0 0800 	lea (%a0,%d0.l),%a1
 2403 14d0 2F51 004C 	move.l (%a1),76(%sp)
 2404               	.L66:
 969:/home/simulink/cFS_FreeRTOS_seL4/cfe/fsw/cfe-core/src/sb/cfe_sb_api.c **** 
 970:/home/simulink/cFS_FreeRTOS_seL4/cfe/fsw/cfe-core/src/sb/cfe_sb_api.c ****     do{
 971:/home/simulink/cFS_FreeRTOS_seL4/cfe/fsw/cfe-core/src/sb/cfe_sb_api.c **** 
 972:/home/simulink/cFS_FreeRTOS_seL4/cfe/fsw/cfe-core/src/sb/cfe_sb_api.c ****         if(DestPtr->PipeId == PipeId){
 2405               	.loc 1 972 0
 2406 14d4 206F 004C 	move.l 76(%sp),%a0
 2407 14d8 1010      	move.b (%a0),%d0
 2408 14da 4281      	clr.l %d1
 2409 14dc 122F 000C 	move.b 12(%sp),%d1
 2410 14e0 1000      	move.b %d0,%d0
 2411 14e2 0280 0000 	and.l #255,%d0
 2411      00FF 
 2412 14e8 B081      	cmp.l %d1,%d0
 2413 14ea 665E      	jne .L64
 973:/home/simulink/cFS_FreeRTOS_seL4/cfe/fsw/cfe-core/src/sb/cfe_sb_api.c ****             /* match found, remove node from list */
 974:/home/simulink/cFS_FreeRTOS_seL4/cfe/fsw/cfe-core/src/sb/cfe_sb_api.c ****             CFE_SB_RemoveDest(Idx,DestPtr);
 2414               	.loc 1 974 0
 2415 14ec 4280      	clr.l %d0
 2416 14ee 302F 0042 	move.w 66(%sp),%d0
68K GAS   			page 68


 2417 14f2 2F2F 004C 	move.l 76(%sp),-(%sp)
 2418               	.cfi_def_cfa_offset 92
 2419 14f6 2F00      	move.l %d0,-(%sp)
 2420               	.cfi_def_cfa_offset 96
 2421 14f8 4EB9 0000 	jsr CFE_SB_RemoveDest
 2421      0000 
 2422 14fe 508F      	addq.l #8,%sp
 2423               	.cfi_def_cfa_offset 88
 975:/home/simulink/cFS_FreeRTOS_seL4/cfe/fsw/cfe-core/src/sb/cfe_sb_api.c **** 
 976:/home/simulink/cFS_FreeRTOS_seL4/cfe/fsw/cfe-core/src/sb/cfe_sb_api.c ****             /* return node to memory pool */
 977:/home/simulink/cFS_FreeRTOS_seL4/cfe/fsw/cfe-core/src/sb/cfe_sb_api.c ****             CFE_SB_PutDestinationBlk(DestPtr);
 2424               	.loc 1 977 0
 2425 1500 2F2F 004C 	move.l 76(%sp),-(%sp)
 2426               	.cfi_def_cfa_offset 92
 2427 1504 4EB9 0000 	jsr CFE_SB_PutDestinationBlk
 2427      0000 
 2428 150a 588F      	addq.l #4,%sp
 2429               	.cfi_def_cfa_offset 88
 978:/home/simulink/cFS_FreeRTOS_seL4/cfe/fsw/cfe-core/src/sb/cfe_sb_api.c **** 
 979:/home/simulink/cFS_FreeRTOS_seL4/cfe/fsw/cfe-core/src/sb/cfe_sb_api.c ****             CFE_SB.RoutingTbl[Idx].Destinations--;
 2430               	.loc 1 979 0
 2431 150c 4280      	clr.l %d0
 2432 150e 302F 0042 	move.w 66(%sp),%d0
 2433 1512 720C      	moveq #12,%d1
 2434 1514 4C00 1800 	muls.l %d0,%d1
 2435 1518 41F9 0000 	lea CFE_SB+545810,%a0
 2435      0000 
 2436 151e 3230 1800 	move.w (%a0,%d1.l),%d1
 2437 1522 5381      	subq.l #1,%d1
 2438 1524 3201      	move.w %d1,%d1
 2439 1526 740C      	moveq #12,%d2
 2440 1528 4C02 0800 	muls.l %d2,%d0
 2441 152c 41F9 0000 	lea CFE_SB+545810,%a0
 2441      0000 
 2442 1532 3181 0800 	move.w %d1,(%a0,%d0.l)
 980:/home/simulink/cFS_FreeRTOS_seL4/cfe/fsw/cfe-core/src/sb/cfe_sb_api.c ****             CFE_SB.StatTlmMsg.Payload.SubscriptionsInUse--;
 2443               	.loc 1 980 0
 2444 1536 2039 0000 	move.l CFE_SB+4588,%d0
 2444      0000 
 2445 153c 5380      	subq.l #1,%d0
 2446 153e 23C0 0000 	move.l %d0,CFE_SB+4588
 2446      0000 
 981:/home/simulink/cFS_FreeRTOS_seL4/cfe/fsw/cfe-core/src/sb/cfe_sb_api.c **** 
 982:/home/simulink/cFS_FreeRTOS_seL4/cfe/fsw/cfe-core/src/sb/cfe_sb_api.c ****             MatchFound = TRUE;
 2447               	.loc 1 982 0
 2448 1544 7001      	moveq #1,%d0
 2449 1546 2F40 0050 	move.l %d0,80(%sp)
 2450               	.L64:
 983:/home/simulink/cFS_FreeRTOS_seL4/cfe/fsw/cfe-core/src/sb/cfe_sb_api.c **** 
 984:/home/simulink/cFS_FreeRTOS_seL4/cfe/fsw/cfe-core/src/sb/cfe_sb_api.c ****         }/* end if */
 985:/home/simulink/cFS_FreeRTOS_seL4/cfe/fsw/cfe-core/src/sb/cfe_sb_api.c **** 
 986:/home/simulink/cFS_FreeRTOS_seL4/cfe/fsw/cfe-core/src/sb/cfe_sb_api.c ****         DestPtr = DestPtr->Next;
 2451               	.loc 1 986 0
 2452 154a 206F 004C 	move.l 76(%sp),%a0
 2453 154e 2F68 0010 	move.l 16(%a0),76(%sp)
 2453      004C 
 987:/home/simulink/cFS_FreeRTOS_seL4/cfe/fsw/cfe-core/src/sb/cfe_sb_api.c **** 
68K GAS   			page 69


 988:/home/simulink/cFS_FreeRTOS_seL4/cfe/fsw/cfe-core/src/sb/cfe_sb_api.c ****     }while((MatchFound == FALSE)&&(DestPtr != NULL));
 2454               	.loc 1 988 0
 2455 1554 4AAF 0050 	tst.l 80(%sp)
 2456 1558 6608      	jne .L65
 2457               	.loc 1 988 0 is_stmt 0 discriminator 1
 2458 155a 4AAF 004C 	tst.l 76(%sp)
 2459 155e 6600 FF74 	jne .L66
 2460               	.L65:
 989:/home/simulink/cFS_FreeRTOS_seL4/cfe/fsw/cfe-core/src/sb/cfe_sb_api.c **** 
 990:/home/simulink/cFS_FreeRTOS_seL4/cfe/fsw/cfe-core/src/sb/cfe_sb_api.c ****     /* if 'Destinations' was decremented to zero above... */
 991:/home/simulink/cFS_FreeRTOS_seL4/cfe/fsw/cfe-core/src/sb/cfe_sb_api.c ****     if(CFE_SB.RoutingTbl[Idx].Destinations==0){
 2461               	.loc 1 991 0 is_stmt 1
 2462 1562 4280      	clr.l %d0
 2463 1564 302F 0042 	move.w 66(%sp),%d0
 2464 1568 720C      	moveq #12,%d1
 2465 156a 4C01 0800 	muls.l %d1,%d0
 2466 156e 41F9 0000 	lea CFE_SB+545810,%a0
 2466      0000 
 2467 1574 3030 0800 	move.w (%a0,%d0.l),%d0
 2468 1578 4A40      	tst.w %d0
 2469 157a 6600 00EC 	jne .L67
 992:/home/simulink/cFS_FreeRTOS_seL4/cfe/fsw/cfe-core/src/sb/cfe_sb_api.c ****         CFE_SB.StatTlmMsg.Payload.MsgIdsInUse--;
 2470               	.loc 1 992 0
 2471 157e 2039 0000 	move.l CFE_SB+4552,%d0
 2471      0000 
 2472 1584 5380      	subq.l #1,%d0
 2473 1586 23C0 0000 	move.l %d0,CFE_SB+4552
 2473      0000 
 993:/home/simulink/cFS_FreeRTOS_seL4/cfe/fsw/cfe-core/src/sb/cfe_sb_api.c ****         CFE_SB.RoutingTbl[Idx].MsgId = CFE_SB_INVALID_MSG_ID;
 2474               	.loc 1 993 0
 2475 158c 4280      	clr.l %d0
 2476 158e 302F 0042 	move.w 66(%sp),%d0
 2477 1592 740C      	moveq #12,%d2
 2478 1594 4C02 0800 	muls.l %d2,%d0
 2479 1598 41F9 0000 	lea CFE_SB+545808,%a0
 2479      0000 
 2480 159e 72FF      	moveq #-1,%d1
 2481 15a0 3181 0800 	move.w %d1,(%a0,%d0.l)
 994:/home/simulink/cFS_FreeRTOS_seL4/cfe/fsw/cfe-core/src/sb/cfe_sb_api.c ****         CFE_SB_SetRoutingTblIdx(MsgId,CFE_SB_AVAILABLE);
 2482               	.loc 1 994 0
 2483 15a4 4280      	clr.l %d0
 2484 15a6 302F 0010 	move.w 16(%sp),%d0
 2485 15aa 2F3C 0000 	move.l #65535,-(%sp)
 2485      FFFF 
 2486               	.cfi_def_cfa_offset 92
 2487 15b0 2F00      	move.l %d0,-(%sp)
 2488               	.cfi_def_cfa_offset 96
 2489 15b2 4EB9 0000 	jsr CFE_SB_SetRoutingTblIdx
 2489      0000 
 2490 15b8 508F      	addq.l #8,%sp
 2491               	.cfi_def_cfa_offset 88
 995:/home/simulink/cFS_FreeRTOS_seL4/cfe/fsw/cfe-core/src/sb/cfe_sb_api.c **** 
 996:/home/simulink/cFS_FreeRTOS_seL4/cfe/fsw/cfe-core/src/sb/cfe_sb_api.c ****         /* Send unsubscribe report only if there are zero requests for this pkt */
 997:/home/simulink/cFS_FreeRTOS_seL4/cfe/fsw/cfe-core/src/sb/cfe_sb_api.c ****         if((CFE_SB.SubscriptionReporting == CFE_SB_ENABLE)&&
 2492               	.loc 1 997 0
 2493 15ba 2039 0000 	move.l CFE_SB+4,%d0
 2493      0000 
68K GAS   			page 70


 2494 15c0 7401      	moveq #1,%d2
 2495 15c2 B480      	cmp.l %d0,%d2
 2496 15c4 6600 00A2 	jne .L67
 2497               	.loc 1 997 0 is_stmt 0 discriminator 1
 2498 15c8 4A2F 0008 	tst.b 8(%sp)
 2499 15cc 6600 009A 	jne .L67
 998:/home/simulink/cFS_FreeRTOS_seL4/cfe/fsw/cfe-core/src/sb/cfe_sb_api.c ****           (Scope == CFE_SB_GLOBAL))
 999:/home/simulink/cFS_FreeRTOS_seL4/cfe/fsw/cfe-core/src/sb/cfe_sb_api.c ****         {
1000:/home/simulink/cFS_FreeRTOS_seL4/cfe/fsw/cfe-core/src/sb/cfe_sb_api.c ****           CFE_SB.SubRprtMsg.Payload.MsgId = MsgId;
 2500               	.loc 1 1000 0 is_stmt 1
 2501 15d0 41EF 0010 	lea (16,%sp),%a0
 2502 15d4 33D0 0000 	move.w (%a0),CFE_SB+549038
 2502      0000 
1001:/home/simulink/cFS_FreeRTOS_seL4/cfe/fsw/cfe-core/src/sb/cfe_sb_api.c ****           CFE_SB.SubRprtMsg.Payload.Pipe = PipeId;
 2503               	.loc 1 1001 0
 2504 15da 43EF 000C 	lea (12,%sp),%a1
 2505 15de 13D1 0000 	move.b (%a1),CFE_SB+549042
 2505      0000 
1002:/home/simulink/cFS_FreeRTOS_seL4/cfe/fsw/cfe-core/src/sb/cfe_sb_api.c ****           CFE_SB.SubRprtMsg.Payload.Qos.Priority = 0;
 2506               	.loc 1 1002 0
 2507 15e4 4200      	clr.b %d0
 2508 15e6 13C0 0000 	move.b %d0,CFE_SB+549040
 2508      0000 
1003:/home/simulink/cFS_FreeRTOS_seL4/cfe/fsw/cfe-core/src/sb/cfe_sb_api.c ****           CFE_SB.SubRprtMsg.Payload.Qos.Reliability = 0;
 2509               	.loc 1 1003 0
 2510 15ec 4201      	clr.b %d1
 2511 15ee 13C1 0000 	move.b %d1,CFE_SB+549041
 2511      0000 
1004:/home/simulink/cFS_FreeRTOS_seL4/cfe/fsw/cfe-core/src/sb/cfe_sb_api.c ****           CFE_SB.SubRprtMsg.Payload.SubType = CFE_SB_UNSUBSCRIPTION;
 2512               	.loc 1 1004 0
 2513 15f4 7401      	moveq #1,%d2
 2514 15f6 13C2 0000 	move.b %d2,CFE_SB+549036
 2514      0000 
1005:/home/simulink/cFS_FreeRTOS_seL4/cfe/fsw/cfe-core/src/sb/cfe_sb_api.c ****           CFE_SB_UnlockSharedData(__func__,__LINE__);
 2515               	.loc 1 1005 0
 2516 15fc 4878 03ED 	pea 1005.w
 2517               	.cfi_def_cfa_offset 92
 2518 1600 4879 0000 	pea __func__.5690
 2518      0000 
 2519               	.cfi_def_cfa_offset 96
 2520 1606 4EB9 0000 	jsr CFE_SB_UnlockSharedData
 2520      0000 
 2521 160c 508F      	addq.l #8,%sp
 2522               	.cfi_def_cfa_offset 88
1006:/home/simulink/cFS_FreeRTOS_seL4/cfe/fsw/cfe-core/src/sb/cfe_sb_api.c ****           Stat = CFE_SB_SendMsg((CFE_SB_Msg_t *)&CFE_SB.SubRprtMsg);
 2523               	.loc 1 1006 0
 2524 160e 4879 0000 	pea CFE_SB+549024
 2524      0000 
 2525               	.cfi_def_cfa_offset 92
 2526 1614 4EB9 0000 	jsr CFE_SB_SendMsg
 2526      0000 
 2527 161a 588F      	addq.l #4,%sp
 2528               	.cfi_def_cfa_offset 88
 2529 161c 2F40 003C 	move.l %d0,60(%sp)
1007:/home/simulink/cFS_FreeRTOS_seL4/cfe/fsw/cfe-core/src/sb/cfe_sb_api.c ****           CFE_EVS_SendEventWithAppID(CFE_SB_UNSUBSCRIPTION_RPT_EID,CFE_EVS_DEBUG,CFE_SB.AppId,
 2530               	.loc 1 1007 0
 2531 1620 226F 003C 	move.l 60(%sp),%a1
68K GAS   			page 71


 2532 1624 4281      	clr.l %d1
 2533 1626 122F 000C 	move.b 12(%sp),%d1
 2534 162a 4280      	clr.l %d0
 2535 162c 302F 0010 	move.w 16(%sp),%d0
 2536 1630 2079 0000 	move.l CFE_SB+12,%a0
 2536      0000 
 2537 1636 2F09      	move.l %a1,-(%sp)
 2538               	.cfi_def_cfa_offset 92
 2539 1638 2F01      	move.l %d1,-(%sp)
 2540               	.cfi_def_cfa_offset 96
 2541 163a 2F00      	move.l %d0,-(%sp)
 2542               	.cfi_def_cfa_offset 100
 2543 163c 4879 0000 	pea .LC20
 2543      0000 
 2544               	.cfi_def_cfa_offset 104
 2545 1642 2F08      	move.l %a0,-(%sp)
 2546               	.cfi_def_cfa_offset 108
 2547 1644 4878 0001 	pea 1.w
 2548               	.cfi_def_cfa_offset 112
 2549 1648 4878 0018 	pea 24.w
 2550               	.cfi_def_cfa_offset 116
 2551 164c 4EB9 0000 	jsr CFE_EVS_SendEventWithAppID
 2551      0000 
 2552 1652 4FEF 001C 	lea (28,%sp),%sp
 2553               	.cfi_def_cfa_offset 88
1008:/home/simulink/cFS_FreeRTOS_seL4/cfe/fsw/cfe-core/src/sb/cfe_sb_api.c ****             "Sending Unsubscription Report Msg=0x%x,Pipe=%d,Stat=0x%x",
1009:/home/simulink/cFS_FreeRTOS_seL4/cfe/fsw/cfe-core/src/sb/cfe_sb_api.c ****             (unsigned int)MsgId,(int)PipeId,(unsigned int)Stat);
1010:/home/simulink/cFS_FreeRTOS_seL4/cfe/fsw/cfe-core/src/sb/cfe_sb_api.c ****           CFE_SB_LockSharedData(__func__,__LINE__);
 2554               	.loc 1 1010 0
 2555 1656 4878 03F2 	pea 1010.w
 2556               	.cfi_def_cfa_offset 92
 2557 165a 4879 0000 	pea __func__.5690
 2557      0000 
 2558               	.cfi_def_cfa_offset 96
 2559 1660 4EB9 0000 	jsr CFE_SB_LockSharedData
 2559      0000 
 2560 1666 508F      	addq.l #8,%sp
 2561               	.cfi_def_cfa_offset 88
 2562               	.L67:
1011:/home/simulink/cFS_FreeRTOS_seL4/cfe/fsw/cfe-core/src/sb/cfe_sb_api.c ****         }/* end if */
1012:/home/simulink/cFS_FreeRTOS_seL4/cfe/fsw/cfe-core/src/sb/cfe_sb_api.c **** 
1013:/home/simulink/cFS_FreeRTOS_seL4/cfe/fsw/cfe-core/src/sb/cfe_sb_api.c ****     }/* end if */
1014:/home/simulink/cFS_FreeRTOS_seL4/cfe/fsw/cfe-core/src/sb/cfe_sb_api.c **** 
1015:/home/simulink/cFS_FreeRTOS_seL4/cfe/fsw/cfe-core/src/sb/cfe_sb_api.c ****     CFE_SB_UnlockSharedData(__func__,__LINE__);
 2563               	.loc 1 1015 0
 2564 1668 4878 03F7 	pea 1015.w
 2565               	.cfi_def_cfa_offset 92
 2566 166c 4879 0000 	pea __func__.5690
 2566      0000 
 2567               	.cfi_def_cfa_offset 96
 2568 1672 4EB9 0000 	jsr CFE_SB_UnlockSharedData
 2568      0000 
 2569 1678 508F      	addq.l #8,%sp
 2570               	.cfi_def_cfa_offset 88
1016:/home/simulink/cFS_FreeRTOS_seL4/cfe/fsw/cfe-core/src/sb/cfe_sb_api.c **** 
1017:/home/simulink/cFS_FreeRTOS_seL4/cfe/fsw/cfe-core/src/sb/cfe_sb_api.c ****     CFE_EVS_SendEventWithAppID(CFE_SB_SUBSCRIPTION_REMOVED_EID,CFE_EVS_DEBUG,CFE_SB.AppId,
 2571               	.loc 1 1017 0
68K GAS   			page 72


 2572 167a 200F      	move.l %sp,%d0
 2573 167c 0680 0000 	add.l #20,%d0
 2573      0014 
 2574 1682 2F00      	move.l %d0,-(%sp)
 2575               	.cfi_def_cfa_offset 92
 2576 1684 2F2F 004C 	move.l 76(%sp),-(%sp)
 2577               	.cfi_def_cfa_offset 96
 2578 1688 4EB9 0000 	jsr CFE_SB_GetAppTskName
 2578      0000 
 2579 168e 508F      	addq.l #8,%sp
 2580               	.cfi_def_cfa_offset 88
 2581 1690 2240      	move.l %d0,%a1
 2582 1692 4281      	clr.l %d1
 2583 1694 122F 000C 	move.b 12(%sp),%d1
 2584 1698 4280      	clr.l %d0
 2585 169a 302F 0010 	move.w 16(%sp),%d0
 2586 169e 2079 0000 	move.l CFE_SB+12,%a0
 2586      0000 
 2587 16a4 2F09      	move.l %a1,-(%sp)
 2588               	.cfi_def_cfa_offset 92
 2589 16a6 2F01      	move.l %d1,-(%sp)
 2590               	.cfi_def_cfa_offset 96
 2591 16a8 2F00      	move.l %d0,-(%sp)
 2592               	.cfi_def_cfa_offset 100
 2593 16aa 4879 0000 	pea .LC21
 2593      0000 
 2594               	.cfi_def_cfa_offset 104
 2595 16b0 2F08      	move.l %a0,-(%sp)
 2596               	.cfi_def_cfa_offset 108
 2597 16b2 4878 0001 	pea 1.w
 2598               	.cfi_def_cfa_offset 112
 2599 16b6 4878 0030 	pea 48.w
 2600               	.cfi_def_cfa_offset 116
 2601 16ba 4EB9 0000 	jsr CFE_EVS_SendEventWithAppID
 2601      0000 
 2602 16c0 4FEF 001C 	lea (28,%sp),%sp
 2603               	.cfi_def_cfa_offset 88
1018:/home/simulink/cFS_FreeRTOS_seL4/cfe/fsw/cfe-core/src/sb/cfe_sb_api.c ****             "Subscription Removed:Msg 0x%x on pipe %d,app %s",
1019:/home/simulink/cFS_FreeRTOS_seL4/cfe/fsw/cfe-core/src/sb/cfe_sb_api.c ****             MsgId,PipeId,CFE_SB_GetAppTskName(TskId,FullName));
1020:/home/simulink/cFS_FreeRTOS_seL4/cfe/fsw/cfe-core/src/sb/cfe_sb_api.c **** 
1021:/home/simulink/cFS_FreeRTOS_seL4/cfe/fsw/cfe-core/src/sb/cfe_sb_api.c ****     return CFE_SUCCESS;
 2604               	.loc 1 1021 0
 2605 16c4 4280      	clr.l %d0
 2606               	.L68:
1022:/home/simulink/cFS_FreeRTOS_seL4/cfe/fsw/cfe-core/src/sb/cfe_sb_api.c **** 
1023:/home/simulink/cFS_FreeRTOS_seL4/cfe/fsw/cfe-core/src/sb/cfe_sb_api.c **** }/* end CFE_SB_UnsubscribeFull */
 2607               	.loc 1 1023 0 discriminator 1
 2608 16c6 241F      	move.l (%sp)+,%d2
 2609 16c8 261F      	move.l (%sp)+,%d3
 2610 16ca 4FEF 004C 	lea (76,%sp),%sp
 2611 16ce 4E75      	rts
 2612               	.cfi_endproc
 2613               	.LFE70:
 2614               	.sizeCFE_SB_UnsubscribeFull, .-CFE_SB_UnsubscribeFull
 2615               	.align2
 2616               	.globlCFE_SB_SendMsg
 2617               	.typeCFE_SB_SendMsg, @function
68K GAS   			page 73


 2618               	CFE_SB_SendMsg:
 2619               	.LFB71:
1024:/home/simulink/cFS_FreeRTOS_seL4/cfe/fsw/cfe-core/src/sb/cfe_sb_api.c **** 
1025:/home/simulink/cFS_FreeRTOS_seL4/cfe/fsw/cfe-core/src/sb/cfe_sb_api.c **** 
1026:/home/simulink/cFS_FreeRTOS_seL4/cfe/fsw/cfe-core/src/sb/cfe_sb_api.c **** 
1027:/home/simulink/cFS_FreeRTOS_seL4/cfe/fsw/cfe-core/src/sb/cfe_sb_api.c **** /******************************************************************************
1028:/home/simulink/cFS_FreeRTOS_seL4/cfe/fsw/cfe-core/src/sb/cfe_sb_api.c **** ** Name:    CFE_SB_SendMsg
1029:/home/simulink/cFS_FreeRTOS_seL4/cfe/fsw/cfe-core/src/sb/cfe_sb_api.c **** **
1030:/home/simulink/cFS_FreeRTOS_seL4/cfe/fsw/cfe-core/src/sb/cfe_sb_api.c **** ** Purpose: API used to send a message on the software bus.
1031:/home/simulink/cFS_FreeRTOS_seL4/cfe/fsw/cfe-core/src/sb/cfe_sb_api.c **** **
1032:/home/simulink/cFS_FreeRTOS_seL4/cfe/fsw/cfe-core/src/sb/cfe_sb_api.c **** ** Assumptions, External Events, and Notes:
1033:/home/simulink/cFS_FreeRTOS_seL4/cfe/fsw/cfe-core/src/sb/cfe_sb_api.c **** **
1034:/home/simulink/cFS_FreeRTOS_seL4/cfe/fsw/cfe-core/src/sb/cfe_sb_api.c **** **          Note: This function increments and tracks the source sequence
1035:/home/simulink/cFS_FreeRTOS_seL4/cfe/fsw/cfe-core/src/sb/cfe_sb_api.c **** **                counter for all telemetry messages.
1036:/home/simulink/cFS_FreeRTOS_seL4/cfe/fsw/cfe-core/src/sb/cfe_sb_api.c **** **
1037:/home/simulink/cFS_FreeRTOS_seL4/cfe/fsw/cfe-core/src/sb/cfe_sb_api.c **** ** Date Written:
1038:/home/simulink/cFS_FreeRTOS_seL4/cfe/fsw/cfe-core/src/sb/cfe_sb_api.c **** **          04/25/2005
1039:/home/simulink/cFS_FreeRTOS_seL4/cfe/fsw/cfe-core/src/sb/cfe_sb_api.c **** **
1040:/home/simulink/cFS_FreeRTOS_seL4/cfe/fsw/cfe-core/src/sb/cfe_sb_api.c **** ** Input Arguments:
1041:/home/simulink/cFS_FreeRTOS_seL4/cfe/fsw/cfe-core/src/sb/cfe_sb_api.c **** **          MsgPtr
1042:/home/simulink/cFS_FreeRTOS_seL4/cfe/fsw/cfe-core/src/sb/cfe_sb_api.c **** **
1043:/home/simulink/cFS_FreeRTOS_seL4/cfe/fsw/cfe-core/src/sb/cfe_sb_api.c **** ** Output Arguments:
1044:/home/simulink/cFS_FreeRTOS_seL4/cfe/fsw/cfe-core/src/sb/cfe_sb_api.c **** **          None
1045:/home/simulink/cFS_FreeRTOS_seL4/cfe/fsw/cfe-core/src/sb/cfe_sb_api.c **** **
1046:/home/simulink/cFS_FreeRTOS_seL4/cfe/fsw/cfe-core/src/sb/cfe_sb_api.c **** ** Return Values:
1047:/home/simulink/cFS_FreeRTOS_seL4/cfe/fsw/cfe-core/src/sb/cfe_sb_api.c **** **          Status
1048:/home/simulink/cFS_FreeRTOS_seL4/cfe/fsw/cfe-core/src/sb/cfe_sb_api.c **** **
1049:/home/simulink/cFS_FreeRTOS_seL4/cfe/fsw/cfe-core/src/sb/cfe_sb_api.c **** ******************************************************************************/
1050:/home/simulink/cFS_FreeRTOS_seL4/cfe/fsw/cfe-core/src/sb/cfe_sb_api.c **** int32  CFE_SB_SendMsg(CFE_SB_Msg_t    *MsgPtr)
1051:/home/simulink/cFS_FreeRTOS_seL4/cfe/fsw/cfe-core/src/sb/cfe_sb_api.c **** {
 2620               	.loc 1 1051 0
 2621               	.cfi_startproc
 2622 16d0 598F      	subq.l #4,%sp
 2623               	.cfi_def_cfa_offset 8
1052:/home/simulink/cFS_FreeRTOS_seL4/cfe/fsw/cfe-core/src/sb/cfe_sb_api.c ****     int32   Status = 0;
 2624               	.loc 1 1052 0
 2625 16d2 4297      	clr.l (%sp)
1053:/home/simulink/cFS_FreeRTOS_seL4/cfe/fsw/cfe-core/src/sb/cfe_sb_api.c **** 
1054:/home/simulink/cFS_FreeRTOS_seL4/cfe/fsw/cfe-core/src/sb/cfe_sb_api.c ****     Status = CFE_SB_SendMsgFull(MsgPtr,CFE_SB_INCREMENT_TLM,CFE_SB_SEND_ONECOPY);
 2626               	.loc 1 1054 0
 2627 16d4 4878 0001 	pea 1.w
 2628               	.cfi_def_cfa_offset 12
 2629 16d8 4878 0001 	pea 1.w
 2630               	.cfi_def_cfa_offset 16
 2631 16dc 2F2F 0010 	move.l 16(%sp),-(%sp)
 2632               	.cfi_def_cfa_offset 20
 2633 16e0 4EB9 0000 	jsr CFE_SB_SendMsgFull
 2633      0000 
 2634 16e6 4FEF 000C 	lea (12,%sp),%sp
 2635               	.cfi_def_cfa_offset 8
 2636 16ea 2E80      	move.l %d0,(%sp)
1055:/home/simulink/cFS_FreeRTOS_seL4/cfe/fsw/cfe-core/src/sb/cfe_sb_api.c **** 
1056:/home/simulink/cFS_FreeRTOS_seL4/cfe/fsw/cfe-core/src/sb/cfe_sb_api.c ****     return Status;
 2637               	.loc 1 1056 0
 2638 16ec 2017      	move.l (%sp),%d0
1057:/home/simulink/cFS_FreeRTOS_seL4/cfe/fsw/cfe-core/src/sb/cfe_sb_api.c **** 
1058:/home/simulink/cFS_FreeRTOS_seL4/cfe/fsw/cfe-core/src/sb/cfe_sb_api.c **** }/* end CFE_SB_SendMsg */
68K GAS   			page 74


 2639               	.loc 1 1058 0
 2640 16ee 588F      	addq.l #4,%sp
 2641 16f0 4E75      	rts
 2642               	.cfi_endproc
 2643               	.LFE71:
 2644               	.sizeCFE_SB_SendMsg, .-CFE_SB_SendMsg
 2645               	.align2
 2646               	.globlCFE_SB_PassMsg
 2647               	.typeCFE_SB_PassMsg, @function
 2648               	CFE_SB_PassMsg:
 2649               	.LFB72:
1059:/home/simulink/cFS_FreeRTOS_seL4/cfe/fsw/cfe-core/src/sb/cfe_sb_api.c **** 
1060:/home/simulink/cFS_FreeRTOS_seL4/cfe/fsw/cfe-core/src/sb/cfe_sb_api.c **** 
1061:/home/simulink/cFS_FreeRTOS_seL4/cfe/fsw/cfe-core/src/sb/cfe_sb_api.c **** 
1062:/home/simulink/cFS_FreeRTOS_seL4/cfe/fsw/cfe-core/src/sb/cfe_sb_api.c **** /******************************************************************************
1063:/home/simulink/cFS_FreeRTOS_seL4/cfe/fsw/cfe-core/src/sb/cfe_sb_api.c **** ** Name:    CFE_SB_PassMsg
1064:/home/simulink/cFS_FreeRTOS_seL4/cfe/fsw/cfe-core/src/sb/cfe_sb_api.c **** **
1065:/home/simulink/cFS_FreeRTOS_seL4/cfe/fsw/cfe-core/src/sb/cfe_sb_api.c **** ** Purpose: API used to send a message on the software bus.
1066:/home/simulink/cFS_FreeRTOS_seL4/cfe/fsw/cfe-core/src/sb/cfe_sb_api.c **** **
1067:/home/simulink/cFS_FreeRTOS_seL4/cfe/fsw/cfe-core/src/sb/cfe_sb_api.c **** ** Assumptions, External Events, and Notes:
1068:/home/simulink/cFS_FreeRTOS_seL4/cfe/fsw/cfe-core/src/sb/cfe_sb_api.c **** **
1069:/home/simulink/cFS_FreeRTOS_seL4/cfe/fsw/cfe-core/src/sb/cfe_sb_api.c **** **          Note: This function does NOT increment and track the source
1070:/home/simulink/cFS_FreeRTOS_seL4/cfe/fsw/cfe-core/src/sb/cfe_sb_api.c **** **                sequence counter for telemetry messages.
1071:/home/simulink/cFS_FreeRTOS_seL4/cfe/fsw/cfe-core/src/sb/cfe_sb_api.c **** **
1072:/home/simulink/cFS_FreeRTOS_seL4/cfe/fsw/cfe-core/src/sb/cfe_sb_api.c **** ** Date Written:
1073:/home/simulink/cFS_FreeRTOS_seL4/cfe/fsw/cfe-core/src/sb/cfe_sb_api.c **** **          04/25/2005
1074:/home/simulink/cFS_FreeRTOS_seL4/cfe/fsw/cfe-core/src/sb/cfe_sb_api.c **** **
1075:/home/simulink/cFS_FreeRTOS_seL4/cfe/fsw/cfe-core/src/sb/cfe_sb_api.c **** ** Input Arguments:
1076:/home/simulink/cFS_FreeRTOS_seL4/cfe/fsw/cfe-core/src/sb/cfe_sb_api.c **** **          MsgPtr
1077:/home/simulink/cFS_FreeRTOS_seL4/cfe/fsw/cfe-core/src/sb/cfe_sb_api.c **** **
1078:/home/simulink/cFS_FreeRTOS_seL4/cfe/fsw/cfe-core/src/sb/cfe_sb_api.c **** ** Output Arguments:
1079:/home/simulink/cFS_FreeRTOS_seL4/cfe/fsw/cfe-core/src/sb/cfe_sb_api.c **** **          None
1080:/home/simulink/cFS_FreeRTOS_seL4/cfe/fsw/cfe-core/src/sb/cfe_sb_api.c **** **
1081:/home/simulink/cFS_FreeRTOS_seL4/cfe/fsw/cfe-core/src/sb/cfe_sb_api.c **** ** Return Values:
1082:/home/simulink/cFS_FreeRTOS_seL4/cfe/fsw/cfe-core/src/sb/cfe_sb_api.c **** **          Status
1083:/home/simulink/cFS_FreeRTOS_seL4/cfe/fsw/cfe-core/src/sb/cfe_sb_api.c **** **
1084:/home/simulink/cFS_FreeRTOS_seL4/cfe/fsw/cfe-core/src/sb/cfe_sb_api.c **** ******************************************************************************/
1085:/home/simulink/cFS_FreeRTOS_seL4/cfe/fsw/cfe-core/src/sb/cfe_sb_api.c **** int32  CFE_SB_PassMsg(CFE_SB_Msg_t    *MsgPtr)
1086:/home/simulink/cFS_FreeRTOS_seL4/cfe/fsw/cfe-core/src/sb/cfe_sb_api.c **** {
 2650               	.loc 1 1086 0
 2651               	.cfi_startproc
 2652 16f2 598F      	subq.l #4,%sp
 2653               	.cfi_def_cfa_offset 8
1087:/home/simulink/cFS_FreeRTOS_seL4/cfe/fsw/cfe-core/src/sb/cfe_sb_api.c ****     int32   Status = 0;
 2654               	.loc 1 1087 0
 2655 16f4 4297      	clr.l (%sp)
1088:/home/simulink/cFS_FreeRTOS_seL4/cfe/fsw/cfe-core/src/sb/cfe_sb_api.c **** 
1089:/home/simulink/cFS_FreeRTOS_seL4/cfe/fsw/cfe-core/src/sb/cfe_sb_api.c ****     Status = CFE_SB_SendMsgFull(MsgPtr,CFE_SB_DO_NOT_INCREMENT,CFE_SB_SEND_ONECOPY);
 2656               	.loc 1 1089 0
 2657 16f6 4878 0001 	pea 1.w
 2658               	.cfi_def_cfa_offset 12
 2659 16fa 42A7      	clr.l -(%sp)
 2660               	.cfi_def_cfa_offset 16
 2661 16fc 2F2F 0010 	move.l 16(%sp),-(%sp)
 2662               	.cfi_def_cfa_offset 20
 2663 1700 4EB9 0000 	jsr CFE_SB_SendMsgFull
 2663      0000 
68K GAS   			page 75


 2664 1706 4FEF 000C 	lea (12,%sp),%sp
 2665               	.cfi_def_cfa_offset 8
 2666 170a 2E80      	move.l %d0,(%sp)
1090:/home/simulink/cFS_FreeRTOS_seL4/cfe/fsw/cfe-core/src/sb/cfe_sb_api.c **** 
1091:/home/simulink/cFS_FreeRTOS_seL4/cfe/fsw/cfe-core/src/sb/cfe_sb_api.c ****     return Status;
 2667               	.loc 1 1091 0
 2668 170c 2017      	move.l (%sp),%d0
1092:/home/simulink/cFS_FreeRTOS_seL4/cfe/fsw/cfe-core/src/sb/cfe_sb_api.c **** 
1093:/home/simulink/cFS_FreeRTOS_seL4/cfe/fsw/cfe-core/src/sb/cfe_sb_api.c **** }/* end CFE_SB_PassMsg */
 2669               	.loc 1 1093 0
 2670 170e 588F      	addq.l #4,%sp
 2671 1710 4E75      	rts
 2672               	.cfi_endproc
 2673               	.LFE72:
 2674               	.sizeCFE_SB_PassMsg, .-CFE_SB_PassMsg
 2675               	.section.rodata
 2676               	.LC22:
 2677 04a9 5365 6E64 	.string"Send Err:Bad input argument,Arg 0x%lx,App %s"
 2677      2045 7272 
 2677      3A42 6164 
 2677      2069 6E70 
 2677      7574 2061 
 2678               	.LC23:
 2679 04d6 5365 6E64 	.string"Send Err:Invalid MsgId(0x%x)in msg,App %s"
 2679      2045 7272 
 2679      3A49 6E76 
 2679      616C 6964 
 2679      204D 7367 
 2680               	.LC24:
 2681 0500 5365 6E64 	.string"Send Err:Msg Too Big MsgId=0x%x,app=%s,size=%d,MaxSz=%d"
 2681      2045 7272 
 2681      3A4D 7367 
 2681      2054 6F6F 
 2681      2042 6967 
 2682               	.LC25:
 2683 0538 4E6F 2073 	.string"No subscribers for MsgId 0x%x,sender %s"
 2683      7562 7363 
 2683      7269 6265 
 2683      7273 2066 
 2683      6F72 204D 
 2684               	.LC26:
 2685 0560 5365 6E64 	.string"Send Err:Request for Buffer Failed. MsgId 0x%x,app %s,size %d"
 2685      2045 7272 
 2685      3A52 6571 
 2685      7565 7374 
 2685      2066 6F72 
 2686               	.LC27:
 2687 059e 4D73 6720 	.string"Msg Limit Err,MsgId 0x%x,pipe %s,sender %s"
 2687      4C69 6D69 
 2687      7420 4572 
 2687      722C 4D73 
 2687      6749 6420 
 2688               	.LC28:
 2689 05c9 5069 7065 	.string"Pipe Overflow,MsgId 0x%x,pipe %s,sender %s"
 2689      204F 7665 
 2689      7266 6C6F 
 2689      772C 4D73 
68K GAS   			page 76


 2689      6749 6420 
 2690               	.LC29:
 2691 05f4 5069 7065 	.string"Pipe Write Err,MsgId 0x%x,pipe %s,sender %s,stat 0x%x"
 2691      2057 7269 
 2691      7465 2045 
 2691      7272 2C4D 
 2691      7367 4964 
 2692               	.text
 2693               	.align2
 2694               	.globlCFE_SB_SendMsgFull
 2695               	.typeCFE_SB_SendMsgFull, @function
 2696               	CFE_SB_SendMsgFull:
 2697               	.LFB73:
1094:/home/simulink/cFS_FreeRTOS_seL4/cfe/fsw/cfe-core/src/sb/cfe_sb_api.c **** 
1095:/home/simulink/cFS_FreeRTOS_seL4/cfe/fsw/cfe-core/src/sb/cfe_sb_api.c **** 
1096:/home/simulink/cFS_FreeRTOS_seL4/cfe/fsw/cfe-core/src/sb/cfe_sb_api.c **** 
1097:/home/simulink/cFS_FreeRTOS_seL4/cfe/fsw/cfe-core/src/sb/cfe_sb_api.c **** /******************************************************************************
1098:/home/simulink/cFS_FreeRTOS_seL4/cfe/fsw/cfe-core/src/sb/cfe_sb_api.c **** ** Name:    CFE_SB_SendMsgFull
1099:/home/simulink/cFS_FreeRTOS_seL4/cfe/fsw/cfe-core/src/sb/cfe_sb_api.c **** **
1100:/home/simulink/cFS_FreeRTOS_seL4/cfe/fsw/cfe-core/src/sb/cfe_sb_api.c **** ** Purpose: API used to send a message on the software bus.
1101:/home/simulink/cFS_FreeRTOS_seL4/cfe/fsw/cfe-core/src/sb/cfe_sb_api.c **** **
1102:/home/simulink/cFS_FreeRTOS_seL4/cfe/fsw/cfe-core/src/sb/cfe_sb_api.c **** ** Assumptions, External Events, and Notes:
1103:/home/simulink/cFS_FreeRTOS_seL4/cfe/fsw/cfe-core/src/sb/cfe_sb_api.c **** **
1104:/home/simulink/cFS_FreeRTOS_seL4/cfe/fsw/cfe-core/src/sb/cfe_sb_api.c **** **          Note: This function increments and tracks the source sequence
1105:/home/simulink/cFS_FreeRTOS_seL4/cfe/fsw/cfe-core/src/sb/cfe_sb_api.c **** **                counter for all telemetry messages.
1106:/home/simulink/cFS_FreeRTOS_seL4/cfe/fsw/cfe-core/src/sb/cfe_sb_api.c **** **
1107:/home/simulink/cFS_FreeRTOS_seL4/cfe/fsw/cfe-core/src/sb/cfe_sb_api.c **** ** Date Written:
1108:/home/simulink/cFS_FreeRTOS_seL4/cfe/fsw/cfe-core/src/sb/cfe_sb_api.c **** **          04/25/2005
1109:/home/simulink/cFS_FreeRTOS_seL4/cfe/fsw/cfe-core/src/sb/cfe_sb_api.c **** **
1110:/home/simulink/cFS_FreeRTOS_seL4/cfe/fsw/cfe-core/src/sb/cfe_sb_api.c **** ** Input Arguments:
1111:/home/simulink/cFS_FreeRTOS_seL4/cfe/fsw/cfe-core/src/sb/cfe_sb_api.c **** **          MsgPtr
1112:/home/simulink/cFS_FreeRTOS_seL4/cfe/fsw/cfe-core/src/sb/cfe_sb_api.c **** **          TlmCntIncrements
1113:/home/simulink/cFS_FreeRTOS_seL4/cfe/fsw/cfe-core/src/sb/cfe_sb_api.c **** **          CopyMode
1114:/home/simulink/cFS_FreeRTOS_seL4/cfe/fsw/cfe-core/src/sb/cfe_sb_api.c **** **
1115:/home/simulink/cFS_FreeRTOS_seL4/cfe/fsw/cfe-core/src/sb/cfe_sb_api.c **** ** Output Arguments:
1116:/home/simulink/cFS_FreeRTOS_seL4/cfe/fsw/cfe-core/src/sb/cfe_sb_api.c **** **          None
1117:/home/simulink/cFS_FreeRTOS_seL4/cfe/fsw/cfe-core/src/sb/cfe_sb_api.c **** **
1118:/home/simulink/cFS_FreeRTOS_seL4/cfe/fsw/cfe-core/src/sb/cfe_sb_api.c **** ** Return Values:
1119:/home/simulink/cFS_FreeRTOS_seL4/cfe/fsw/cfe-core/src/sb/cfe_sb_api.c **** **          Status
1120:/home/simulink/cFS_FreeRTOS_seL4/cfe/fsw/cfe-core/src/sb/cfe_sb_api.c **** **
1121:/home/simulink/cFS_FreeRTOS_seL4/cfe/fsw/cfe-core/src/sb/cfe_sb_api.c **** ******************************************************************************/
1122:/home/simulink/cFS_FreeRTOS_seL4/cfe/fsw/cfe-core/src/sb/cfe_sb_api.c **** int32  CFE_SB_SendMsgFull(CFE_SB_Msg_t    *MsgPtr,
1123:/home/simulink/cFS_FreeRTOS_seL4/cfe/fsw/cfe-core/src/sb/cfe_sb_api.c ****                           uint32           TlmCntIncrements,
1124:/home/simulink/cFS_FreeRTOS_seL4/cfe/fsw/cfe-core/src/sb/cfe_sb_api.c ****                           uint32           CopyMode)
1125:/home/simulink/cFS_FreeRTOS_seL4/cfe/fsw/cfe-core/src/sb/cfe_sb_api.c **** {
 2698               	.loc 1 1125 0
 2699               	.cfi_startproc
 2700 1712 4FEF FEE0 	lea (-288,%sp),%sp
 2701               	.cfi_def_cfa_offset 292
 2702 1716 48D7 040C 	movem.l #1036,(%sp)
 2703               	.cfi_offset 2, -292
 2704               	.cfi_offset 3, -288
 2705               	.cfi_offset 10, -284
1126:/home/simulink/cFS_FreeRTOS_seL4/cfe/fsw/cfe-core/src/sb/cfe_sb_api.c ****     CFE_SB_MsgId_t          MsgId;
1127:/home/simulink/cFS_FreeRTOS_seL4/cfe/fsw/cfe-core/src/sb/cfe_sb_api.c ****     int32                   Status;
1128:/home/simulink/cFS_FreeRTOS_seL4/cfe/fsw/cfe-core/src/sb/cfe_sb_api.c ****     CFE_SB_DestinationD_t   *DestPtr = NULL;
 2706               	.loc 1 1128 0
68K GAS   			page 77


 2707 171a 42AF 011C 	clr.l 284(%sp)
1129:/home/simulink/cFS_FreeRTOS_seL4/cfe/fsw/cfe-core/src/sb/cfe_sb_api.c ****     CFE_SB_PipeD_t          *PipeDscPtr;
1130:/home/simulink/cFS_FreeRTOS_seL4/cfe/fsw/cfe-core/src/sb/cfe_sb_api.c ****     CFE_SB_RouteEntry_t     *RtgTblPtr;
1131:/home/simulink/cFS_FreeRTOS_seL4/cfe/fsw/cfe-core/src/sb/cfe_sb_api.c ****     CFE_SB_BufferD_t        *BufDscPtr;
1132:/home/simulink/cFS_FreeRTOS_seL4/cfe/fsw/cfe-core/src/sb/cfe_sb_api.c ****     uint16                  TotalMsgSize;
1133:/home/simulink/cFS_FreeRTOS_seL4/cfe/fsw/cfe-core/src/sb/cfe_sb_api.c ****     uint16                  RtgTblIdx;
1134:/home/simulink/cFS_FreeRTOS_seL4/cfe/fsw/cfe-core/src/sb/cfe_sb_api.c ****     uint32                  TskId = 0;
 2708               	.loc 1 1134 0
 2709 171e 42AF 0114 	clr.l 276(%sp)
1135:/home/simulink/cFS_FreeRTOS_seL4/cfe/fsw/cfe-core/src/sb/cfe_sb_api.c ****     uint16                  i;
1136:/home/simulink/cFS_FreeRTOS_seL4/cfe/fsw/cfe-core/src/sb/cfe_sb_api.c ****     char                    FullName[(OS_MAX_API_NAME * 2)];
1137:/home/simulink/cFS_FreeRTOS_seL4/cfe/fsw/cfe-core/src/sb/cfe_sb_api.c ****     CFE_SB_EventBuf_t       SBSndErr;
1138:/home/simulink/cFS_FreeRTOS_seL4/cfe/fsw/cfe-core/src/sb/cfe_sb_api.c **** 
1139:/home/simulink/cFS_FreeRTOS_seL4/cfe/fsw/cfe-core/src/sb/cfe_sb_api.c ****     SBSndErr.EvtsToSnd = 0;
 2710               	.loc 1 1139 0
 2711 1722 42AF 000C 	clr.l 12(%sp)
1140:/home/simulink/cFS_FreeRTOS_seL4/cfe/fsw/cfe-core/src/sb/cfe_sb_api.c **** 
1141:/home/simulink/cFS_FreeRTOS_seL4/cfe/fsw/cfe-core/src/sb/cfe_sb_api.c ****     /* get task id for events and Sender Info*/
1142:/home/simulink/cFS_FreeRTOS_seL4/cfe/fsw/cfe-core/src/sb/cfe_sb_api.c ****     TskId = OS_TaskGetId();
 2712               	.loc 1 1142 0
 2713 1726 4EB9 0000 	jsr OS_TaskGetId
 2713      0000 
 2714 172c 2F40 0114 	move.l %d0,276(%sp)
1143:/home/simulink/cFS_FreeRTOS_seL4/cfe/fsw/cfe-core/src/sb/cfe_sb_api.c **** 
1144:/home/simulink/cFS_FreeRTOS_seL4/cfe/fsw/cfe-core/src/sb/cfe_sb_api.c ****     /* check input parameter */
1145:/home/simulink/cFS_FreeRTOS_seL4/cfe/fsw/cfe-core/src/sb/cfe_sb_api.c ****     if(MsgPtr == NULL){
 2715               	.loc 1 1145 0
 2716 1730 4AAF 0124 	tst.l 292(%sp)
 2717 1734 667E      	jne .L74
1146:/home/simulink/cFS_FreeRTOS_seL4/cfe/fsw/cfe-core/src/sb/cfe_sb_api.c ****         CFE_SB_LockSharedData(__func__,__LINE__);
 2718               	.loc 1 1146 0
 2719 1736 4878 047A 	pea 1146.w
 2720               	.cfi_def_cfa_offset 296
 2721 173a 4879 0000 	pea __func__.5718
 2721      0000 
 2722               	.cfi_def_cfa_offset 300
 2723 1740 4EB9 0000 	jsr CFE_SB_LockSharedData
 2723      0000 
 2724 1746 508F      	addq.l #8,%sp
 2725               	.cfi_def_cfa_offset 292
1147:/home/simulink/cFS_FreeRTOS_seL4/cfe/fsw/cfe-core/src/sb/cfe_sb_api.c ****         CFE_SB.HKTlmMsg.Payload.MsgSendErrCnt++;
 2726               	.loc 1 1147 0
 2727 1748 1039 0000 	move.b CFE_SB+4515,%d0
 2727      0000 
 2728 174e 5280      	addq.l #1,%d0
 2729 1750 1000      	move.b %d0,%d0
 2730 1752 13C0 0000 	move.b %d0,CFE_SB+4515
 2730      0000 
1148:/home/simulink/cFS_FreeRTOS_seL4/cfe/fsw/cfe-core/src/sb/cfe_sb_api.c ****         CFE_SB_UnlockSharedData(__func__,__LINE__);
 2731               	.loc 1 1148 0
 2732 1758 4878 047C 	pea 1148.w
 2733               	.cfi_def_cfa_offset 296
 2734 175c 4879 0000 	pea __func__.5718
 2734      0000 
 2735               	.cfi_def_cfa_offset 300
 2736 1762 4EB9 0000 	jsr CFE_SB_UnlockSharedData
 2736      0000 
68K GAS   			page 78


 2737 1768 508F      	addq.l #8,%sp
 2738               	.cfi_def_cfa_offset 292
1149:/home/simulink/cFS_FreeRTOS_seL4/cfe/fsw/cfe-core/src/sb/cfe_sb_api.c ****         CFE_EVS_SendEventWithAppID(CFE_SB_SEND_BAD_ARG_EID,CFE_EVS_ERROR,CFE_SB.AppId,
 2739               	.loc 1 1149 0
 2740 176a 200F      	move.l %sp,%d0
 2741 176c 0680 0000 	add.l #208,%d0
 2741      00D0 
 2742 1772 2F00      	move.l %d0,-(%sp)
 2743               	.cfi_def_cfa_offset 296
 2744 1774 2F2F 0118 	move.l 280(%sp),-(%sp)
 2745               	.cfi_def_cfa_offset 300
 2746 1778 4EB9 0000 	jsr CFE_SB_GetAppTskName
 2746      0000 
 2747 177e 508F      	addq.l #8,%sp
 2748               	.cfi_def_cfa_offset 292
 2749 1780 2040      	move.l %d0,%a0
 2750 1782 222F 0124 	move.l 292(%sp),%d1
 2751 1786 2039 0000 	move.l CFE_SB+12,%d0
 2751      0000 
 2752 178c 2F08      	move.l %a0,-(%sp)
 2753               	.cfi_def_cfa_offset 296
 2754 178e 2F01      	move.l %d1,-(%sp)
 2755               	.cfi_def_cfa_offset 300
 2756 1790 4879 0000 	pea .LC22
 2756      0000 
 2757               	.cfi_def_cfa_offset 304
 2758 1796 2F00      	move.l %d0,-(%sp)
 2759               	.cfi_def_cfa_offset 308
 2760 1798 4878 0003 	pea 3.w
 2761               	.cfi_def_cfa_offset 312
 2762 179c 4878 000D 	pea 13.w
 2763               	.cfi_def_cfa_offset 316
 2764 17a0 4EB9 0000 	jsr CFE_EVS_SendEventWithAppID
 2764      0000 
 2765 17a6 4FEF 0018 	lea (24,%sp),%sp
 2766               	.cfi_def_cfa_offset 292
1150:/home/simulink/cFS_FreeRTOS_seL4/cfe/fsw/cfe-core/src/sb/cfe_sb_api.c ****             "Send Err:Bad input argument,Arg 0x%lx,App %s",
1151:/home/simulink/cFS_FreeRTOS_seL4/cfe/fsw/cfe-core/src/sb/cfe_sb_api.c ****             (unsigned long)MsgPtr,CFE_SB_GetAppTskName(TskId,FullName));
1152:/home/simulink/cFS_FreeRTOS_seL4/cfe/fsw/cfe-core/src/sb/cfe_sb_api.c ****         return CFE_SB_BAD_ARGUMENT;
 2767               	.loc 1 1152 0
 2768 17aa 203C CA00 	move.l #-905969661,%d0
 2768      0003 
 2769 17b0 6000 0A70 	jra .L106
 2770               	.L74:
1153:/home/simulink/cFS_FreeRTOS_seL4/cfe/fsw/cfe-core/src/sb/cfe_sb_api.c ****     }/* end if */
1154:/home/simulink/cFS_FreeRTOS_seL4/cfe/fsw/cfe-core/src/sb/cfe_sb_api.c **** 
1155:/home/simulink/cFS_FreeRTOS_seL4/cfe/fsw/cfe-core/src/sb/cfe_sb_api.c ****     MsgId = CFE_SB_GetMsgId(MsgPtr);
 2771               	.loc 1 1155 0
 2772 17b4 2F2F 0124 	move.l 292(%sp),-(%sp)
 2773               	.cfi_def_cfa_offset 296
 2774 17b8 4EB9 0000 	jsr CFE_SB_GetMsgId
 2774      0000 
 2775 17be 588F      	addq.l #4,%sp
 2776               	.cfi_def_cfa_offset 292
 2777 17c0 3F40 0112 	move.w %d0,274(%sp)
1156:/home/simulink/cFS_FreeRTOS_seL4/cfe/fsw/cfe-core/src/sb/cfe_sb_api.c **** 
1157:/home/simulink/cFS_FreeRTOS_seL4/cfe/fsw/cfe-core/src/sb/cfe_sb_api.c ****     /* validate the msgid in the message */
68K GAS   			page 79


1158:/home/simulink/cFS_FreeRTOS_seL4/cfe/fsw/cfe-core/src/sb/cfe_sb_api.c ****     if(CFE_SB_ValidateMsgId(MsgId) != CFE_SUCCESS){
 2778               	.loc 1 1158 0
 2779 17c4 4280      	clr.l %d0
 2780 17c6 302F 0112 	move.w 274(%sp),%d0
 2781 17ca 2F00      	move.l %d0,-(%sp)
 2782               	.cfi_def_cfa_offset 296
 2783 17cc 4EB9 0000 	jsr CFE_SB_ValidateMsgId
 2783      0000 
 2784 17d2 588F      	addq.l #4,%sp
 2785               	.cfi_def_cfa_offset 292
 2786 17d4 4A80      	tst.l %d0
 2787 17d6 6700 00AE 	jeq .L76
1159:/home/simulink/cFS_FreeRTOS_seL4/cfe/fsw/cfe-core/src/sb/cfe_sb_api.c ****         CFE_SB_LockSharedData(__func__,__LINE__);
 2788               	.loc 1 1159 0
 2789 17da 4878 0487 	pea 1159.w
 2790               	.cfi_def_cfa_offset 296
 2791 17de 4879 0000 	pea __func__.5718
 2791      0000 
 2792               	.cfi_def_cfa_offset 300
 2793 17e4 4EB9 0000 	jsr CFE_SB_LockSharedData
 2793      0000 
 2794 17ea 508F      	addq.l #8,%sp
 2795               	.cfi_def_cfa_offset 292
1160:/home/simulink/cFS_FreeRTOS_seL4/cfe/fsw/cfe-core/src/sb/cfe_sb_api.c ****         CFE_SB.HKTlmMsg.Payload.MsgSendErrCnt++;
 2796               	.loc 1 1160 0
 2797 17ec 1039 0000 	move.b CFE_SB+4515,%d0
 2797      0000 
 2798 17f2 5280      	addq.l #1,%d0
 2799 17f4 1000      	move.b %d0,%d0
 2800 17f6 13C0 0000 	move.b %d0,CFE_SB+4515
 2800      0000 
1161:/home/simulink/cFS_FreeRTOS_seL4/cfe/fsw/cfe-core/src/sb/cfe_sb_api.c ****         if (CopyMode == CFE_SB_SEND_ZEROCOPY)
 2801               	.loc 1 1161 0
 2802 17fc 4AAF 012C 	tst.l 300(%sp)
 2803 1800 6626      	jne .L77
1162:/home/simulink/cFS_FreeRTOS_seL4/cfe/fsw/cfe-core/src/sb/cfe_sb_api.c ****         {
1163:/home/simulink/cFS_FreeRTOS_seL4/cfe/fsw/cfe-core/src/sb/cfe_sb_api.c ****             BufDscPtr = CFE_SB_GetBufferFromCaller(MsgId, MsgPtr);
 2804               	.loc 1 1163 0
 2805 1802 4280      	clr.l %d0
 2806 1804 302F 0112 	move.w 274(%sp),%d0
 2807 1808 2F2F 0124 	move.l 292(%sp),-(%sp)
 2808               	.cfi_def_cfa_offset 296
 2809 180c 2F00      	move.l %d0,-(%sp)
 2810               	.cfi_def_cfa_offset 300
 2811 180e 4EB9 0000 	jsr CFE_SB_GetBufferFromCaller
 2811      0000 
 2812 1814 508F      	addq.l #8,%sp
 2813               	.cfi_def_cfa_offset 292
 2814 1816 2F40 00F8 	move.l %d0,248(%sp)
1164:/home/simulink/cFS_FreeRTOS_seL4/cfe/fsw/cfe-core/src/sb/cfe_sb_api.c ****             CFE_SB_DecrBufUseCnt(BufDscPtr);
 2815               	.loc 1 1164 0
 2816 181a 202F 00F8 	move.l 248(%sp),%d0
 2817 181e 2F00      	move.l %d0,-(%sp)
 2818               	.cfi_def_cfa_offset 296
 2819 1820 4EB9 0000 	jsr CFE_SB_DecrBufUseCnt
 2819      0000 
 2820 1826 588F      	addq.l #4,%sp
68K GAS   			page 80


 2821               	.cfi_def_cfa_offset 292
 2822               	.L77:
1165:/home/simulink/cFS_FreeRTOS_seL4/cfe/fsw/cfe-core/src/sb/cfe_sb_api.c ****         }
1166:/home/simulink/cFS_FreeRTOS_seL4/cfe/fsw/cfe-core/src/sb/cfe_sb_api.c ****         CFE_SB_UnlockSharedData(__func__,__LINE__);
 2823               	.loc 1 1166 0
 2824 1828 4878 048E 	pea 1166.w
 2825               	.cfi_def_cfa_offset 296
 2826 182c 4879 0000 	pea __func__.5718
 2826      0000 
 2827               	.cfi_def_cfa_offset 300
 2828 1832 4EB9 0000 	jsr CFE_SB_UnlockSharedData
 2828      0000 
 2829 1838 508F      	addq.l #8,%sp
 2830               	.cfi_def_cfa_offset 292
1167:/home/simulink/cFS_FreeRTOS_seL4/cfe/fsw/cfe-core/src/sb/cfe_sb_api.c ****         CFE_EVS_SendEventWithAppID(CFE_SB_SEND_INV_MSGID_EID,CFE_EVS_ERROR,CFE_SB.AppId,
 2831               	.loc 1 1167 0
 2832 183a 200F      	move.l %sp,%d0
 2833 183c 0680 0000 	add.l #208,%d0
 2833      00D0 
 2834 1842 2F00      	move.l %d0,-(%sp)
 2835               	.cfi_def_cfa_offset 296
 2836 1844 2F2F 0118 	move.l 280(%sp),-(%sp)
 2837               	.cfi_def_cfa_offset 300
 2838 1848 4EB9 0000 	jsr CFE_SB_GetAppTskName
 2838      0000 
 2839 184e 508F      	addq.l #8,%sp
 2840               	.cfi_def_cfa_offset 292
 2841 1850 2040      	move.l %d0,%a0
 2842 1852 4280      	clr.l %d0
 2843 1854 302F 0112 	move.w 274(%sp),%d0
 2844 1858 2239 0000 	move.l CFE_SB+12,%d1
 2844      0000 
 2845 185e 2F08      	move.l %a0,-(%sp)
 2846               	.cfi_def_cfa_offset 296
 2847 1860 2F00      	move.l %d0,-(%sp)
 2848               	.cfi_def_cfa_offset 300
 2849 1862 4879 0000 	pea .LC23
 2849      0000 
 2850               	.cfi_def_cfa_offset 304
 2851 1868 2F01      	move.l %d1,-(%sp)
 2852               	.cfi_def_cfa_offset 308
 2853 186a 4878 0003 	pea 3.w
 2854               	.cfi_def_cfa_offset 312
 2855 186e 4878 0015 	pea 21.w
 2856               	.cfi_def_cfa_offset 316
 2857 1872 4EB9 0000 	jsr CFE_EVS_SendEventWithAppID
 2857      0000 
 2858 1878 4FEF 0018 	lea (24,%sp),%sp
 2859               	.cfi_def_cfa_offset 292
1168:/home/simulink/cFS_FreeRTOS_seL4/cfe/fsw/cfe-core/src/sb/cfe_sb_api.c ****             "Send Err:Invalid MsgId(0x%x)in msg,App %s",
1169:/home/simulink/cFS_FreeRTOS_seL4/cfe/fsw/cfe-core/src/sb/cfe_sb_api.c ****             MsgId,CFE_SB_GetAppTskName(TskId,FullName));
1170:/home/simulink/cFS_FreeRTOS_seL4/cfe/fsw/cfe-core/src/sb/cfe_sb_api.c ****         return CFE_SB_BAD_ARGUMENT;
 2860               	.loc 1 1170 0
 2861 187c 203C CA00 	move.l #-905969661,%d0
 2861      0003 
 2862 1882 6000 099E 	jra .L106
 2863               	.L76:
68K GAS   			page 81


1171:/home/simulink/cFS_FreeRTOS_seL4/cfe/fsw/cfe-core/src/sb/cfe_sb_api.c ****     }/* end if */
1172:/home/simulink/cFS_FreeRTOS_seL4/cfe/fsw/cfe-core/src/sb/cfe_sb_api.c **** 
1173:/home/simulink/cFS_FreeRTOS_seL4/cfe/fsw/cfe-core/src/sb/cfe_sb_api.c ****     TotalMsgSize = CFE_SB_GetTotalMsgLength(MsgPtr);
 2864               	.loc 1 1173 0
 2865 1886 2F2F 0124 	move.l 292(%sp),-(%sp)
 2866               	.cfi_def_cfa_offset 296
 2867 188a 4EB9 0000 	jsr CFE_SB_GetTotalMsgLength
 2867      0000 
 2868 1890 588F      	addq.l #4,%sp
 2869               	.cfi_def_cfa_offset 292
 2870 1892 3F40 0110 	move.w %d0,272(%sp)
1174:/home/simulink/cFS_FreeRTOS_seL4/cfe/fsw/cfe-core/src/sb/cfe_sb_api.c **** 
1175:/home/simulink/cFS_FreeRTOS_seL4/cfe/fsw/cfe-core/src/sb/cfe_sb_api.c ****     /* Verify the size of the pkt is < or = the mission defined max */
1176:/home/simulink/cFS_FreeRTOS_seL4/cfe/fsw/cfe-core/src/sb/cfe_sb_api.c ****     if(TotalMsgSize > CFE_SB_MAX_SB_MSG_SIZE){
 2871               	.loc 1 1176 0
 2872 1896 4280      	clr.l %d0
 2873 1898 302F 0110 	move.w 272(%sp),%d0
 2874 189c 0C80 0000 	cmp.l #32768,%d0
 2874      8000 
 2875 18a2 6300 00BC 	jls .L78
1177:/home/simulink/cFS_FreeRTOS_seL4/cfe/fsw/cfe-core/src/sb/cfe_sb_api.c ****         CFE_SB_LockSharedData(__func__,__LINE__);
 2876               	.loc 1 1177 0
 2877 18a6 4878 0499 	pea 1177.w
 2878               	.cfi_def_cfa_offset 296
 2879 18aa 4879 0000 	pea __func__.5718
 2879      0000 
 2880               	.cfi_def_cfa_offset 300
 2881 18b0 4EB9 0000 	jsr CFE_SB_LockSharedData
 2881      0000 
 2882 18b6 508F      	addq.l #8,%sp
 2883               	.cfi_def_cfa_offset 292
1178:/home/simulink/cFS_FreeRTOS_seL4/cfe/fsw/cfe-core/src/sb/cfe_sb_api.c ****         CFE_SB.HKTlmMsg.Payload.MsgSendErrCnt++;
 2884               	.loc 1 1178 0
 2885 18b8 1039 0000 	move.b CFE_SB+4515,%d0
 2885      0000 
 2886 18be 5280      	addq.l #1,%d0
 2887 18c0 1000      	move.b %d0,%d0
 2888 18c2 13C0 0000 	move.b %d0,CFE_SB+4515
 2888      0000 
1179:/home/simulink/cFS_FreeRTOS_seL4/cfe/fsw/cfe-core/src/sb/cfe_sb_api.c ****         if (CopyMode == CFE_SB_SEND_ZEROCOPY)
 2889               	.loc 1 1179 0
 2890 18c8 4AAF 012C 	tst.l 300(%sp)
 2891 18cc 6626      	jne .L79
1180:/home/simulink/cFS_FreeRTOS_seL4/cfe/fsw/cfe-core/src/sb/cfe_sb_api.c ****         {
1181:/home/simulink/cFS_FreeRTOS_seL4/cfe/fsw/cfe-core/src/sb/cfe_sb_api.c ****             BufDscPtr = CFE_SB_GetBufferFromCaller(MsgId, MsgPtr);
 2892               	.loc 1 1181 0
 2893 18ce 4280      	clr.l %d0
 2894 18d0 302F 0112 	move.w 274(%sp),%d0
 2895 18d4 2F2F 0124 	move.l 292(%sp),-(%sp)
 2896               	.cfi_def_cfa_offset 296
 2897 18d8 2F00      	move.l %d0,-(%sp)
 2898               	.cfi_def_cfa_offset 300
 2899 18da 4EB9 0000 	jsr CFE_SB_GetBufferFromCaller
 2899      0000 
 2900 18e0 508F      	addq.l #8,%sp
 2901               	.cfi_def_cfa_offset 292
 2902 18e2 2F40 00F8 	move.l %d0,248(%sp)
68K GAS   			page 82


1182:/home/simulink/cFS_FreeRTOS_seL4/cfe/fsw/cfe-core/src/sb/cfe_sb_api.c ****             CFE_SB_DecrBufUseCnt(BufDscPtr);
 2903               	.loc 1 1182 0
 2904 18e6 202F 00F8 	move.l 248(%sp),%d0
 2905 18ea 2F00      	move.l %d0,-(%sp)
 2906               	.cfi_def_cfa_offset 296
 2907 18ec 4EB9 0000 	jsr CFE_SB_DecrBufUseCnt
 2907      0000 
 2908 18f2 588F      	addq.l #4,%sp
 2909               	.cfi_def_cfa_offset 292
 2910               	.L79:
1183:/home/simulink/cFS_FreeRTOS_seL4/cfe/fsw/cfe-core/src/sb/cfe_sb_api.c ****         }
1184:/home/simulink/cFS_FreeRTOS_seL4/cfe/fsw/cfe-core/src/sb/cfe_sb_api.c ****         CFE_SB_UnlockSharedData(__func__,__LINE__);
 2911               	.loc 1 1184 0
 2912 18f4 4878 04A0 	pea 1184.w
 2913               	.cfi_def_cfa_offset 296
 2914 18f8 4879 0000 	pea __func__.5718
 2914      0000 
 2915               	.cfi_def_cfa_offset 300
 2916 18fe 4EB9 0000 	jsr CFE_SB_UnlockSharedData
 2916      0000 
 2917 1904 508F      	addq.l #8,%sp
 2918               	.cfi_def_cfa_offset 292
1185:/home/simulink/cFS_FreeRTOS_seL4/cfe/fsw/cfe-core/src/sb/cfe_sb_api.c ****         CFE_EVS_SendEventWithAppID(CFE_SB_MSG_TOO_BIG_EID,CFE_EVS_ERROR,CFE_SB.AppId,
 2919               	.loc 1 1185 0
 2920 1906 4282      	clr.l %d2
 2921 1908 342F 0110 	move.w 272(%sp),%d2
 2922 190c 200F      	move.l %sp,%d0
 2923 190e 0680 0000 	add.l #208,%d0
 2923      00D0 
 2924 1914 2F00      	move.l %d0,-(%sp)
 2925               	.cfi_def_cfa_offset 296
 2926 1916 2F2F 0118 	move.l 280(%sp),-(%sp)
 2927               	.cfi_def_cfa_offset 300
 2928 191a 4EB9 0000 	jsr CFE_SB_GetAppTskName
 2928      0000 
 2929 1920 508F      	addq.l #8,%sp
 2930               	.cfi_def_cfa_offset 292
 2931 1922 2040      	move.l %d0,%a0
 2932 1924 4280      	clr.l %d0
 2933 1926 302F 0112 	move.w 274(%sp),%d0
 2934 192a 2239 0000 	move.l CFE_SB+12,%d1
 2934      0000 
 2935 1930 2F3C 0000 	move.l #32768,-(%sp)
 2935      8000 
 2936               	.cfi_def_cfa_offset 296
 2937 1936 2F02      	move.l %d2,-(%sp)
 2938               	.cfi_def_cfa_offset 300
 2939 1938 2F08      	move.l %a0,-(%sp)
 2940               	.cfi_def_cfa_offset 304
 2941 193a 2F00      	move.l %d0,-(%sp)
 2942               	.cfi_def_cfa_offset 308
 2943 193c 4879 0000 	pea .LC24
 2943      0000 
 2944               	.cfi_def_cfa_offset 312
 2945 1942 2F01      	move.l %d1,-(%sp)
 2946               	.cfi_def_cfa_offset 316
 2947 1944 4878 0003 	pea 3.w
68K GAS   			page 83


 2948               	.cfi_def_cfa_offset 320
 2949 1948 4878 000F 	pea 15.w
 2950               	.cfi_def_cfa_offset 324
 2951 194c 4EB9 0000 	jsr CFE_EVS_SendEventWithAppID
 2951      0000 
 2952 1952 4FEF 0020 	lea (32,%sp),%sp
 2953               	.cfi_def_cfa_offset 292
1186:/home/simulink/cFS_FreeRTOS_seL4/cfe/fsw/cfe-core/src/sb/cfe_sb_api.c ****             "Send Err:Msg Too Big MsgId=0x%x,app=%s,size=%d,MaxSz=%d",
1187:/home/simulink/cFS_FreeRTOS_seL4/cfe/fsw/cfe-core/src/sb/cfe_sb_api.c ****             MsgId,CFE_SB_GetAppTskName(TskId,FullName),TotalMsgSize,CFE_SB_MAX_SB_MSG_SIZE);
1188:/home/simulink/cFS_FreeRTOS_seL4/cfe/fsw/cfe-core/src/sb/cfe_sb_api.c ****         return CFE_SB_MSG_TOO_BIG;
 2954               	.loc 1 1188 0
 2955 1956 203C CA00 	move.l #-905969657,%d0
 2955      0007 
 2956 195c 6000 08C4 	jra .L106
 2957               	.L78:
1189:/home/simulink/cFS_FreeRTOS_seL4/cfe/fsw/cfe-core/src/sb/cfe_sb_api.c ****     }/* end if */
1190:/home/simulink/cFS_FreeRTOS_seL4/cfe/fsw/cfe-core/src/sb/cfe_sb_api.c **** 
1191:/home/simulink/cFS_FreeRTOS_seL4/cfe/fsw/cfe-core/src/sb/cfe_sb_api.c ****     /* take semaphore to prevent a task switch during this call */
1192:/home/simulink/cFS_FreeRTOS_seL4/cfe/fsw/cfe-core/src/sb/cfe_sb_api.c ****     CFE_SB_LockSharedData(__func__,__LINE__);
 2958               	.loc 1 1192 0
 2959 1960 4878 04A8 	pea 1192.w
 2960               	.cfi_def_cfa_offset 296
 2961 1964 4879 0000 	pea __func__.5718
 2961      0000 
 2962               	.cfi_def_cfa_offset 300
 2963 196a 4EB9 0000 	jsr CFE_SB_LockSharedData
 2963      0000 
 2964 1970 508F      	addq.l #8,%sp
 2965               	.cfi_def_cfa_offset 292
1193:/home/simulink/cFS_FreeRTOS_seL4/cfe/fsw/cfe-core/src/sb/cfe_sb_api.c **** 
1194:/home/simulink/cFS_FreeRTOS_seL4/cfe/fsw/cfe-core/src/sb/cfe_sb_api.c ****     RtgTblIdx = CFE_SB_GetRoutingTblIdx(MsgId);
 2966               	.loc 1 1194 0
 2967 1972 4280      	clr.l %d0
 2968 1974 302F 0112 	move.w 274(%sp),%d0
 2969 1978 2F00      	move.l %d0,-(%sp)
 2970               	.cfi_def_cfa_offset 296
 2971 197a 4EB9 0000 	jsr CFE_SB_GetRoutingTblIdx
 2971      0000 
 2972 1980 588F      	addq.l #4,%sp
 2973               	.cfi_def_cfa_offset 292
 2974 1982 3F40 010E 	move.w %d0,270(%sp)
1195:/home/simulink/cFS_FreeRTOS_seL4/cfe/fsw/cfe-core/src/sb/cfe_sb_api.c **** 
1196:/home/simulink/cFS_FreeRTOS_seL4/cfe/fsw/cfe-core/src/sb/cfe_sb_api.c ****     /* if there have been no subscriptions for this pkt, */
1197:/home/simulink/cFS_FreeRTOS_seL4/cfe/fsw/cfe-core/src/sb/cfe_sb_api.c ****     /* increment the dropped pkt cnt, send event and return success */
1198:/home/simulink/cFS_FreeRTOS_seL4/cfe/fsw/cfe-core/src/sb/cfe_sb_api.c ****     if(RtgTblIdx == CFE_SB_AVAILABLE){
 2975               	.loc 1 1198 0
 2976 1986 4280      	clr.l %d0
 2977 1988 302F 010E 	move.w 270(%sp),%d0
 2978 198c 0C80 0000 	cmp.l #65535,%d0
 2978      FFFF 
 2979 1992 6600 00BA 	jne .L80
1199:/home/simulink/cFS_FreeRTOS_seL4/cfe/fsw/cfe-core/src/sb/cfe_sb_api.c **** 
1200:/home/simulink/cFS_FreeRTOS_seL4/cfe/fsw/cfe-core/src/sb/cfe_sb_api.c ****         CFE_SB.HKTlmMsg.Payload.NoSubscribersCnt++;
 2980               	.loc 1 1200 0
 2981 1996 1039 0000 	move.b CFE_SB+4514,%d0
 2981      0000 
 2982 199c 5280      	addq.l #1,%d0
68K GAS   			page 84


 2983 199e 1000      	move.b %d0,%d0
 2984 19a0 13C0 0000 	move.b %d0,CFE_SB+4514
 2984      0000 
1201:/home/simulink/cFS_FreeRTOS_seL4/cfe/fsw/cfe-core/src/sb/cfe_sb_api.c **** 
1202:/home/simulink/cFS_FreeRTOS_seL4/cfe/fsw/cfe-core/src/sb/cfe_sb_api.c ****         if (CopyMode == CFE_SB_SEND_ZEROCOPY){
 2985               	.loc 1 1202 0
 2986 19a6 4AAF 012C 	tst.l 300(%sp)
 2987 19aa 6626      	jne .L81
1203:/home/simulink/cFS_FreeRTOS_seL4/cfe/fsw/cfe-core/src/sb/cfe_sb_api.c ****             BufDscPtr = CFE_SB_GetBufferFromCaller(MsgId, MsgPtr);
 2988               	.loc 1 1203 0
 2989 19ac 4280      	clr.l %d0
 2990 19ae 302F 0112 	move.w 274(%sp),%d0
 2991 19b2 2F2F 0124 	move.l 292(%sp),-(%sp)
 2992               	.cfi_def_cfa_offset 296
 2993 19b6 2F00      	move.l %d0,-(%sp)
 2994               	.cfi_def_cfa_offset 300
 2995 19b8 4EB9 0000 	jsr CFE_SB_GetBufferFromCaller
 2995      0000 
 2996 19be 508F      	addq.l #8,%sp
 2997               	.cfi_def_cfa_offset 292
 2998 19c0 2F40 00F8 	move.l %d0,248(%sp)
1204:/home/simulink/cFS_FreeRTOS_seL4/cfe/fsw/cfe-core/src/sb/cfe_sb_api.c ****             CFE_SB_DecrBufUseCnt(BufDscPtr);
 2999               	.loc 1 1204 0
 3000 19c4 202F 00F8 	move.l 248(%sp),%d0
 3001 19c8 2F00      	move.l %d0,-(%sp)
 3002               	.cfi_def_cfa_offset 296
 3003 19ca 4EB9 0000 	jsr CFE_SB_DecrBufUseCnt
 3003      0000 
 3004 19d0 588F      	addq.l #4,%sp
 3005               	.cfi_def_cfa_offset 292
 3006               	.L81:
1205:/home/simulink/cFS_FreeRTOS_seL4/cfe/fsw/cfe-core/src/sb/cfe_sb_api.c ****         }
1206:/home/simulink/cFS_FreeRTOS_seL4/cfe/fsw/cfe-core/src/sb/cfe_sb_api.c **** 
1207:/home/simulink/cFS_FreeRTOS_seL4/cfe/fsw/cfe-core/src/sb/cfe_sb_api.c ****         CFE_SB_UnlockSharedData(__func__,__LINE__);
 3007               	.loc 1 1207 0
 3008 19d2 4878 04B7 	pea 1207.w
 3009               	.cfi_def_cfa_offset 296
 3010 19d6 4879 0000 	pea __func__.5718
 3010      0000 
 3011               	.cfi_def_cfa_offset 300
 3012 19dc 4EB9 0000 	jsr CFE_SB_UnlockSharedData
 3012      0000 
 3013 19e2 508F      	addq.l #8,%sp
 3014               	.cfi_def_cfa_offset 292
1208:/home/simulink/cFS_FreeRTOS_seL4/cfe/fsw/cfe-core/src/sb/cfe_sb_api.c **** 
1209:/home/simulink/cFS_FreeRTOS_seL4/cfe/fsw/cfe-core/src/sb/cfe_sb_api.c ****         /* Determine if event can be sent without causing recursive event problem */
1210:/home/simulink/cFS_FreeRTOS_seL4/cfe/fsw/cfe-core/src/sb/cfe_sb_api.c ****         if(CFE_SB_RequestToSendEvent(TskId,CFE_SB_SEND_NO_SUBS_EID_BIT) == CFE_SB_GRANTED){
 3015               	.loc 1 1210 0
 3016 19e4 42A7      	clr.l -(%sp)
 3017               	.cfi_def_cfa_offset 296
 3018 19e6 2F2F 0118 	move.l 280(%sp),-(%sp)
 3019               	.cfi_def_cfa_offset 300
 3020 19ea 4EB9 0000 	jsr CFE_SB_RequestToSendEvent
 3020      0000 
 3021 19f0 508F      	addq.l #8,%sp
 3022               	.cfi_def_cfa_offset 292
 3023 19f2 7201      	moveq #1,%d1
68K GAS   			page 85


 3024 19f4 B280      	cmp.l %d0,%d1
 3025 19f6 6650      	jne .L82
1211:/home/simulink/cFS_FreeRTOS_seL4/cfe/fsw/cfe-core/src/sb/cfe_sb_api.c **** 
1212:/home/simulink/cFS_FreeRTOS_seL4/cfe/fsw/cfe-core/src/sb/cfe_sb_api.c ****            CFE_EVS_SendEventWithAppID(CFE_SB_SEND_NO_SUBS_EID,CFE_EVS_INFORMATION,CFE_SB.AppId,
 3026               	.loc 1 1212 0
 3027 19f8 200F      	move.l %sp,%d0
 3028 19fa 0680 0000 	add.l #208,%d0
 3028      00D0 
 3029 1a00 2F00      	move.l %d0,-(%sp)
 3030               	.cfi_def_cfa_offset 296
 3031 1a02 2F2F 0118 	move.l 280(%sp),-(%sp)
 3032               	.cfi_def_cfa_offset 300
 3033 1a06 4EB9 0000 	jsr CFE_SB_GetAppTskName
 3033      0000 
 3034 1a0c 508F      	addq.l #8,%sp
 3035               	.cfi_def_cfa_offset 292
 3036 1a0e 2040      	move.l %d0,%a0
 3037 1a10 4280      	clr.l %d0
 3038 1a12 302F 0112 	move.w 274(%sp),%d0
 3039 1a16 2239 0000 	move.l CFE_SB+12,%d1
 3039      0000 
 3040 1a1c 2F08      	move.l %a0,-(%sp)
 3041               	.cfi_def_cfa_offset 296
 3042 1a1e 2F00      	move.l %d0,-(%sp)
 3043               	.cfi_def_cfa_offset 300
 3044 1a20 4879 0000 	pea .LC25
 3044      0000 
 3045               	.cfi_def_cfa_offset 304
 3046 1a26 2F01      	move.l %d1,-(%sp)
 3047               	.cfi_def_cfa_offset 308
 3048 1a28 4878 0002 	pea 2.w
 3049               	.cfi_def_cfa_offset 312
 3050 1a2c 4878 000E 	pea 14.w
 3051               	.cfi_def_cfa_offset 316
 3052 1a30 4EB9 0000 	jsr CFE_EVS_SendEventWithAppID
 3052      0000 
 3053 1a36 4FEF 0018 	lea (24,%sp),%sp
 3054               	.cfi_def_cfa_offset 292
1213:/home/simulink/cFS_FreeRTOS_seL4/cfe/fsw/cfe-core/src/sb/cfe_sb_api.c ****               "No subscribers for MsgId 0x%x,sender %s",
1214:/home/simulink/cFS_FreeRTOS_seL4/cfe/fsw/cfe-core/src/sb/cfe_sb_api.c ****               MsgId,CFE_SB_GetAppTskName(TskId,FullName));
1215:/home/simulink/cFS_FreeRTOS_seL4/cfe/fsw/cfe-core/src/sb/cfe_sb_api.c **** 
1216:/home/simulink/cFS_FreeRTOS_seL4/cfe/fsw/cfe-core/src/sb/cfe_sb_api.c ****            /* clear the bit so the task may send this event again */
1217:/home/simulink/cFS_FreeRTOS_seL4/cfe/fsw/cfe-core/src/sb/cfe_sb_api.c ****            CFE_SB_FinishSendEvent(TskId,CFE_SB_SEND_NO_SUBS_EID_BIT);
 3055               	.loc 1 1217 0
 3056 1a3a 42A7      	clr.l -(%sp)
 3057               	.cfi_def_cfa_offset 296
 3058 1a3c 2F2F 0118 	move.l 280(%sp),-(%sp)
 3059               	.cfi_def_cfa_offset 300
 3060 1a40 4EB9 0000 	jsr CFE_SB_FinishSendEvent
 3060      0000 
 3061 1a46 508F      	addq.l #8,%sp
 3062               	.cfi_def_cfa_offset 292
 3063               	.L82:
1218:/home/simulink/cFS_FreeRTOS_seL4/cfe/fsw/cfe-core/src/sb/cfe_sb_api.c ****         }/* end if */
1219:/home/simulink/cFS_FreeRTOS_seL4/cfe/fsw/cfe-core/src/sb/cfe_sb_api.c **** 
1220:/home/simulink/cFS_FreeRTOS_seL4/cfe/fsw/cfe-core/src/sb/cfe_sb_api.c ****         return CFE_SUCCESS;
 3064               	.loc 1 1220 0
68K GAS   			page 86


 3065 1a48 4280      	clr.l %d0
 3066 1a4a 6000 07D6 	jra .L106
 3067               	.L80:
1221:/home/simulink/cFS_FreeRTOS_seL4/cfe/fsw/cfe-core/src/sb/cfe_sb_api.c ****     }/* end if */
1222:/home/simulink/cFS_FreeRTOS_seL4/cfe/fsw/cfe-core/src/sb/cfe_sb_api.c **** 
1223:/home/simulink/cFS_FreeRTOS_seL4/cfe/fsw/cfe-core/src/sb/cfe_sb_api.c ****     /* Allocate a new buffer. */
1224:/home/simulink/cFS_FreeRTOS_seL4/cfe/fsw/cfe-core/src/sb/cfe_sb_api.c ****     if (CopyMode == CFE_SB_SEND_ZEROCOPY){
 3068               	.loc 1 1224 0
 3069 1a4e 4AAF 012C 	tst.l 300(%sp)
 3070 1a52 661A      	jne .L83
1225:/home/simulink/cFS_FreeRTOS_seL4/cfe/fsw/cfe-core/src/sb/cfe_sb_api.c ****         BufDscPtr = CFE_SB_GetBufferFromCaller(MsgId, MsgPtr);
 3071               	.loc 1 1225 0
 3072 1a54 4280      	clr.l %d0
 3073 1a56 302F 0112 	move.w 274(%sp),%d0
 3074 1a5a 2F2F 0124 	move.l 292(%sp),-(%sp)
 3075               	.cfi_def_cfa_offset 296
 3076 1a5e 2F00      	move.l %d0,-(%sp)
 3077               	.cfi_def_cfa_offset 300
 3078 1a60 4EB9 0000 	jsr CFE_SB_GetBufferFromCaller
 3078      0000 
 3079 1a66 508F      	addq.l #8,%sp
 3080               	.cfi_def_cfa_offset 292
 3081 1a68 2F40 00F8 	move.l %d0,248(%sp)
 3082 1a6c 601C      	jra .L84
 3083               	.L83:
1226:/home/simulink/cFS_FreeRTOS_seL4/cfe/fsw/cfe-core/src/sb/cfe_sb_api.c ****     }
1227:/home/simulink/cFS_FreeRTOS_seL4/cfe/fsw/cfe-core/src/sb/cfe_sb_api.c ****     else{
1228:/home/simulink/cFS_FreeRTOS_seL4/cfe/fsw/cfe-core/src/sb/cfe_sb_api.c ****         BufDscPtr = CFE_SB_GetBufferFromPool(MsgId, TotalMsgSize);
 3084               	.loc 1 1228 0
 3085 1a6e 4281      	clr.l %d1
 3086 1a70 322F 0110 	move.w 272(%sp),%d1
 3087 1a74 4280      	clr.l %d0
 3088 1a76 302F 0112 	move.w 274(%sp),%d0
 3089 1a7a 2F01      	move.l %d1,-(%sp)
 3090               	.cfi_def_cfa_offset 296
 3091 1a7c 2F00      	move.l %d0,-(%sp)
 3092               	.cfi_def_cfa_offset 300
 3093 1a7e 4EB9 0000 	jsr CFE_SB_GetBufferFromPool
 3093      0000 
 3094 1a84 508F      	addq.l #8,%sp
 3095               	.cfi_def_cfa_offset 292
 3096 1a86 2F40 00F8 	move.l %d0,248(%sp)
 3097               	.L84:
1229:/home/simulink/cFS_FreeRTOS_seL4/cfe/fsw/cfe-core/src/sb/cfe_sb_api.c ****     }
1230:/home/simulink/cFS_FreeRTOS_seL4/cfe/fsw/cfe-core/src/sb/cfe_sb_api.c ****     if (BufDscPtr == NULL){
 3098               	.loc 1 1230 0
 3099 1a8a 202F 00F8 	move.l 248(%sp),%d0
 3100 1a8e 4A80      	tst.l %d0
 3101 1a90 6600 009E 	jne .L85
1231:/home/simulink/cFS_FreeRTOS_seL4/cfe/fsw/cfe-core/src/sb/cfe_sb_api.c ****         CFE_SB.HKTlmMsg.Payload.MsgSendErrCnt++;
 3102               	.loc 1 1231 0
 3103 1a94 1039 0000 	move.b CFE_SB+4515,%d0
 3103      0000 
 3104 1a9a 5280      	addq.l #1,%d0
 3105 1a9c 1000      	move.b %d0,%d0
 3106 1a9e 13C0 0000 	move.b %d0,CFE_SB+4515
 3106      0000 
68K GAS   			page 87


1232:/home/simulink/cFS_FreeRTOS_seL4/cfe/fsw/cfe-core/src/sb/cfe_sb_api.c ****         CFE_SB_UnlockSharedData(__func__,__LINE__);
 3107               	.loc 1 1232 0
 3108 1aa4 4878 04D0 	pea 1232.w
 3109               	.cfi_def_cfa_offset 296
 3110 1aa8 4879 0000 	pea __func__.5718
 3110      0000 
 3111               	.cfi_def_cfa_offset 300
 3112 1aae 4EB9 0000 	jsr CFE_SB_UnlockSharedData
 3112      0000 
 3113 1ab4 508F      	addq.l #8,%sp
 3114               	.cfi_def_cfa_offset 292
1233:/home/simulink/cFS_FreeRTOS_seL4/cfe/fsw/cfe-core/src/sb/cfe_sb_api.c **** 
1234:/home/simulink/cFS_FreeRTOS_seL4/cfe/fsw/cfe-core/src/sb/cfe_sb_api.c ****         /* Determine if event can be sent without causing recursive event problem */
1235:/home/simulink/cFS_FreeRTOS_seL4/cfe/fsw/cfe-core/src/sb/cfe_sb_api.c ****         if(CFE_SB_RequestToSendEvent(TskId,CFE_SB_GET_BUF_ERR_EID_BIT) == CFE_SB_GRANTED){
 3115               	.loc 1 1235 0
 3116 1ab6 4878 0001 	pea 1.w
 3117               	.cfi_def_cfa_offset 296
 3118 1aba 2F2F 0118 	move.l 280(%sp),-(%sp)
 3119               	.cfi_def_cfa_offset 300
 3120 1abe 4EB9 0000 	jsr CFE_SB_RequestToSendEvent
 3120      0000 
 3121 1ac4 508F      	addq.l #8,%sp
 3122               	.cfi_def_cfa_offset 292
 3123 1ac6 7401      	moveq #1,%d2
 3124 1ac8 B480      	cmp.l %d0,%d2
 3125 1aca 665A      	jne .L86
1236:/home/simulink/cFS_FreeRTOS_seL4/cfe/fsw/cfe-core/src/sb/cfe_sb_api.c **** 
1237:/home/simulink/cFS_FreeRTOS_seL4/cfe/fsw/cfe-core/src/sb/cfe_sb_api.c ****             CFE_EVS_SendEventWithAppID(CFE_SB_GET_BUF_ERR_EID,CFE_EVS_ERROR,CFE_SB.AppId,
 3126               	.loc 1 1237 0
 3127 1acc 4282      	clr.l %d2
 3128 1ace 342F 0110 	move.w 272(%sp),%d2
 3129 1ad2 200F      	move.l %sp,%d0
 3130 1ad4 0680 0000 	add.l #208,%d0
 3130      00D0 
 3131 1ada 2F00      	move.l %d0,-(%sp)
 3132               	.cfi_def_cfa_offset 296
 3133 1adc 2F2F 0118 	move.l 280(%sp),-(%sp)
 3134               	.cfi_def_cfa_offset 300
 3135 1ae0 4EB9 0000 	jsr CFE_SB_GetAppTskName
 3135      0000 
 3136 1ae6 508F      	addq.l #8,%sp
 3137               	.cfi_def_cfa_offset 292
 3138 1ae8 2040      	move.l %d0,%a0
 3139 1aea 4280      	clr.l %d0
 3140 1aec 302F 0112 	move.w 274(%sp),%d0
 3141 1af0 2239 0000 	move.l CFE_SB+12,%d1
 3141      0000 
 3142 1af6 2F02      	move.l %d2,-(%sp)
 3143               	.cfi_def_cfa_offset 296
 3144 1af8 2F08      	move.l %a0,-(%sp)
 3145               	.cfi_def_cfa_offset 300
 3146 1afa 2F00      	move.l %d0,-(%sp)
 3147               	.cfi_def_cfa_offset 304
 3148 1afc 4879 0000 	pea .LC26
 3148      0000 
 3149               	.cfi_def_cfa_offset 308
 3150 1b02 2F01      	move.l %d1,-(%sp)
68K GAS   			page 88


 3151               	.cfi_def_cfa_offset 312
 3152 1b04 4878 0003 	pea 3.w
 3153               	.cfi_def_cfa_offset 316
 3154 1b08 4878 0010 	pea 16.w
 3155               	.cfi_def_cfa_offset 320
 3156 1b0c 4EB9 0000 	jsr CFE_EVS_SendEventWithAppID
 3156      0000 
 3157 1b12 4FEF 001C 	lea (28,%sp),%sp
 3158               	.cfi_def_cfa_offset 292
1238:/home/simulink/cFS_FreeRTOS_seL4/cfe/fsw/cfe-core/src/sb/cfe_sb_api.c ****               "Send Err:Request for Buffer Failed. MsgId 0x%x,app %s,size %d",
1239:/home/simulink/cFS_FreeRTOS_seL4/cfe/fsw/cfe-core/src/sb/cfe_sb_api.c ****               MsgId,CFE_SB_GetAppTskName(TskId,FullName),TotalMsgSize);
1240:/home/simulink/cFS_FreeRTOS_seL4/cfe/fsw/cfe-core/src/sb/cfe_sb_api.c **** 
1241:/home/simulink/cFS_FreeRTOS_seL4/cfe/fsw/cfe-core/src/sb/cfe_sb_api.c ****             /* clear the bit so the task may send this event again */
1242:/home/simulink/cFS_FreeRTOS_seL4/cfe/fsw/cfe-core/src/sb/cfe_sb_api.c ****             CFE_SB_FinishSendEvent(TskId,CFE_SB_GET_BUF_ERR_EID_BIT);
 3159               	.loc 1 1242 0
 3160 1b16 4878 0001 	pea 1.w
 3161               	.cfi_def_cfa_offset 296
 3162 1b1a 2F2F 0118 	move.l 280(%sp),-(%sp)
 3163               	.cfi_def_cfa_offset 300
 3164 1b1e 4EB9 0000 	jsr CFE_SB_FinishSendEvent
 3164      0000 
 3165 1b24 508F      	addq.l #8,%sp
 3166               	.cfi_def_cfa_offset 292
 3167               	.L86:
1243:/home/simulink/cFS_FreeRTOS_seL4/cfe/fsw/cfe-core/src/sb/cfe_sb_api.c ****         }/* end if */
1244:/home/simulink/cFS_FreeRTOS_seL4/cfe/fsw/cfe-core/src/sb/cfe_sb_api.c **** 
1245:/home/simulink/cFS_FreeRTOS_seL4/cfe/fsw/cfe-core/src/sb/cfe_sb_api.c ****         return CFE_SB_BUF_ALOC_ERR;
 3168               	.loc 1 1245 0
 3169 1b26 203C CA00 	move.l #-905969656,%d0
 3169      0008 
 3170 1b2c 6000 06F4 	jra .L106
 3171               	.L85:
1246:/home/simulink/cFS_FreeRTOS_seL4/cfe/fsw/cfe-core/src/sb/cfe_sb_api.c ****     }/* end if */
1247:/home/simulink/cFS_FreeRTOS_seL4/cfe/fsw/cfe-core/src/sb/cfe_sb_api.c **** 
1248:/home/simulink/cFS_FreeRTOS_seL4/cfe/fsw/cfe-core/src/sb/cfe_sb_api.c ****     /* Copy the packet into the SB memory space */
1249:/home/simulink/cFS_FreeRTOS_seL4/cfe/fsw/cfe-core/src/sb/cfe_sb_api.c ****     if (CopyMode != CFE_SB_SEND_ZEROCOPY){
 3172               	.loc 1 1249 0
 3173 1b30 4AAF 012C 	tst.l 300(%sp)
 3174 1b34 6720      	jeq .L87
1250:/home/simulink/cFS_FreeRTOS_seL4/cfe/fsw/cfe-core/src/sb/cfe_sb_api.c ****         /* Copy the packet into the SB memory space */
1251:/home/simulink/cFS_FreeRTOS_seL4/cfe/fsw/cfe-core/src/sb/cfe_sb_api.c ****         CFE_PSP_MemCpy( BufDscPtr->Buffer, MsgPtr, (uint16)TotalMsgSize );
 3175               	.loc 1 1251 0
 3176 1b36 4280      	clr.l %d0
 3177 1b38 302F 0110 	move.w 272(%sp),%d0
 3178 1b3c 206F 00F8 	move.l 248(%sp),%a0
 3179 1b40 2228 0008 	move.l 8(%a0),%d1
 3180 1b44 2F00      	move.l %d0,-(%sp)
 3181               	.cfi_def_cfa_offset 296
 3182 1b46 2F2F 0128 	move.l 296(%sp),-(%sp)
 3183               	.cfi_def_cfa_offset 300
 3184 1b4a 2F01      	move.l %d1,-(%sp)
 3185               	.cfi_def_cfa_offset 304
 3186 1b4c 4EB9 0000 	jsr CFE_PSP_MemCpy
 3186      0000 
 3187 1b52 4FEF 000C 	lea (12,%sp),%sp
 3188               	.cfi_def_cfa_offset 292
 3189               	.L87:
68K GAS   			page 89


1252:/home/simulink/cFS_FreeRTOS_seL4/cfe/fsw/cfe-core/src/sb/cfe_sb_api.c ****     }
1253:/home/simulink/cFS_FreeRTOS_seL4/cfe/fsw/cfe-core/src/sb/cfe_sb_api.c **** 
1254:/home/simulink/cFS_FreeRTOS_seL4/cfe/fsw/cfe-core/src/sb/cfe_sb_api.c ****     /* For Tlm packets, increment the seq count if requested */
1255:/home/simulink/cFS_FreeRTOS_seL4/cfe/fsw/cfe-core/src/sb/cfe_sb_api.c ****     if((CFE_SB_GetPktType(MsgId)==CFE_SB_TLM) &&
 3190               	.loc 1 1255 0
 3191 1b56 4280      	clr.l %d0
 3192 1b58 302F 0112 	move.w 274(%sp),%d0
 3193 1b5c 2F00      	move.l %d0,-(%sp)
 3194               	.cfi_def_cfa_offset 296
 3195 1b5e 4EB9 0000 	jsr CFE_SB_GetPktType
 3195      0000 
 3196 1b64 588F      	addq.l #4,%sp
 3197               	.cfi_def_cfa_offset 292
 3198 1b66 4A80      	tst.l %d0
 3199 1b68 665A      	jne .L88
 3200               	.loc 1 1255 0 is_stmt 0 discriminator 1
 3201 1b6a 7001      	moveq #1,%d0
 3202 1b6c B0AF 0128 	cmp.l 296(%sp),%d0
 3203 1b70 6652      	jne .L88
1256:/home/simulink/cFS_FreeRTOS_seL4/cfe/fsw/cfe-core/src/sb/cfe_sb_api.c ****        (TlmCntIncrements==CFE_SB_INCREMENT_TLM)){
1257:/home/simulink/cFS_FreeRTOS_seL4/cfe/fsw/cfe-core/src/sb/cfe_sb_api.c ****         CFE_SB.RoutingTbl[RtgTblIdx].SeqCnt++;
 3204               	.loc 1 1257 0 is_stmt 1
 3205 1b72 4280      	clr.l %d0
 3206 1b74 302F 010E 	move.w 270(%sp),%d0
 3207 1b78 720C      	moveq #12,%d1
 3208 1b7a 4C00 1800 	muls.l %d0,%d1
 3209 1b7e 41F9 0000 	lea CFE_SB+545812,%a0
 3209      0000 
 3210 1b84 2230 1800 	move.l (%a0,%d1.l),%d1
 3211 1b88 5281      	addq.l #1,%d1
 3212 1b8a 740C      	moveq #12,%d2
 3213 1b8c 4C02 0800 	muls.l %d2,%d0
 3214 1b90 41F9 0000 	lea CFE_SB+545812,%a0
 3214      0000 
 3215 1b96 2181 0800 	move.l %d1,(%a0,%d0.l)
1258:/home/simulink/cFS_FreeRTOS_seL4/cfe/fsw/cfe-core/src/sb/cfe_sb_api.c ****         CFE_SB_SetMsgSeqCnt((CFE_SB_Msg_t *)BufDscPtr->Buffer,
 3216               	.loc 1 1258 0
 3217 1b9a 4280      	clr.l %d0
 3218 1b9c 302F 010E 	move.w 270(%sp),%d0
 3219 1ba0 720C      	moveq #12,%d1
 3220 1ba2 4C01 0800 	muls.l %d1,%d0
 3221 1ba6 41F9 0000 	lea CFE_SB+545812,%a0
 3221      0000 
 3222 1bac 2230 0800 	move.l (%a0,%d0.l),%d1
 3223 1bb0 206F 00F8 	move.l 248(%sp),%a0
 3224 1bb4 2028 0008 	move.l 8(%a0),%d0
 3225 1bb8 2F01      	move.l %d1,-(%sp)
 3226               	.cfi_def_cfa_offset 296
 3227 1bba 2F00      	move.l %d0,-(%sp)
 3228               	.cfi_def_cfa_offset 300
 3229 1bbc 4EB9 0000 	jsr CFE_SB_SetMsgSeqCnt
 3229      0000 
 3230 1bc2 508F      	addq.l #8,%sp
 3231               	.cfi_def_cfa_offset 292
 3232               	.L88:
1259:/home/simulink/cFS_FreeRTOS_seL4/cfe/fsw/cfe-core/src/sb/cfe_sb_api.c ****                               CFE_SB.RoutingTbl[RtgTblIdx].SeqCnt);
1260:/home/simulink/cFS_FreeRTOS_seL4/cfe/fsw/cfe-core/src/sb/cfe_sb_api.c ****     }/* end if */
68K GAS   			page 90


1261:/home/simulink/cFS_FreeRTOS_seL4/cfe/fsw/cfe-core/src/sb/cfe_sb_api.c **** 
1262:/home/simulink/cFS_FreeRTOS_seL4/cfe/fsw/cfe-core/src/sb/cfe_sb_api.c ****     /* store the sender information */
1263:/home/simulink/cFS_FreeRTOS_seL4/cfe/fsw/cfe-core/src/sb/cfe_sb_api.c ****     if(CFE_SB.SenderReporting != 0)
 3233               	.loc 1 1263 0
 3234 1bc4 2039 0000 	move.l CFE_SB+8,%d0
 3234      0000 
 3235 1bca 4A80      	tst.l %d0
 3236 1bcc 6742      	jeq .L89
1264:/home/simulink/cFS_FreeRTOS_seL4/cfe/fsw/cfe-core/src/sb/cfe_sb_api.c ****     {
1265:/home/simulink/cFS_FreeRTOS_seL4/cfe/fsw/cfe-core/src/sb/cfe_sb_api.c ****        BufDscPtr->Sender.ProcessorId = CFE_PSP_GetProcessorId();
 3237               	.loc 1 1265 0
 3238 1bce 246F 00F8 	move.l 248(%sp),%a2
 3239 1bd2 4EB9 0000 	jsr CFE_PSP_GetProcessorId
 3239      0000 
 3240 1bd8 2540 000C 	move.l %d0,12(%a2)
1266:/home/simulink/cFS_FreeRTOS_seL4/cfe/fsw/cfe-core/src/sb/cfe_sb_api.c ****        strncpy(&BufDscPtr->Sender.AppName[0],CFE_SB_GetAppTskName(TskId,FullName),OS_MAX_API_NAME);
 3241               	.loc 1 1266 0
 3242 1bdc 200F      	move.l %sp,%d0
 3243 1bde 0680 0000 	add.l #208,%d0
 3243      00D0 
 3244 1be4 2F00      	move.l %d0,-(%sp)
 3245               	.cfi_def_cfa_offset 296
 3246 1be6 2F2F 0118 	move.l 280(%sp),-(%sp)
 3247               	.cfi_def_cfa_offset 300
 3248 1bea 4EB9 0000 	jsr CFE_SB_GetAppTskName
 3248      0000 
 3249 1bf0 508F      	addq.l #8,%sp
 3250               	.cfi_def_cfa_offset 292
 3251 1bf2 2200      	move.l %d0,%d1
 3252 1bf4 202F 00F8 	move.l 248(%sp),%d0
 3253 1bf8 0680 0000 	add.l #16,%d0
 3253      0010 
 3254 1bfe 4878 0014 	pea 20.w
 3255               	.cfi_def_cfa_offset 296
 3256 1c02 2F01      	move.l %d1,-(%sp)
 3257               	.cfi_def_cfa_offset 300
 3258 1c04 2F00      	move.l %d0,-(%sp)
 3259               	.cfi_def_cfa_offset 304
 3260 1c06 4EB9 0000 	jsr strncpy
 3260      0000 
 3261 1c0c 4FEF 000C 	lea (12,%sp),%sp
 3262               	.cfi_def_cfa_offset 292
 3263               	.L89:
1267:/home/simulink/cFS_FreeRTOS_seL4/cfe/fsw/cfe-core/src/sb/cfe_sb_api.c ****     }
1268:/home/simulink/cFS_FreeRTOS_seL4/cfe/fsw/cfe-core/src/sb/cfe_sb_api.c **** 
1269:/home/simulink/cFS_FreeRTOS_seL4/cfe/fsw/cfe-core/src/sb/cfe_sb_api.c ****     RtgTblPtr = &CFE_SB.RoutingTbl[RtgTblIdx];
 3264               	.loc 1 1269 0
 3265 1c10 4280      	clr.l %d0
 3266 1c12 302F 010E 	move.w 270(%sp),%d0
 3267 1c16 740C      	moveq #12,%d2
 3268 1c18 4C02 0800 	muls.l %d2,%d0
 3269 1c1c 0680 0008 	add.l #545808,%d0
 3269      5410 
 3270 1c22 2040      	move.l %d0,%a0
 3271 1c24 D1FC 0000 	add.l #CFE_SB,%a0
 3271      0000 
 3272 1c2a 2F48 0108 	move.l %a0,264(%sp)
68K GAS   			page 91


1270:/home/simulink/cFS_FreeRTOS_seL4/cfe/fsw/cfe-core/src/sb/cfe_sb_api.c **** 
1271:/home/simulink/cFS_FreeRTOS_seL4/cfe/fsw/cfe-core/src/sb/cfe_sb_api.c ****     /* At this point there must be at least one destination for pkt */
1272:/home/simulink/cFS_FreeRTOS_seL4/cfe/fsw/cfe-core/src/sb/cfe_sb_api.c **** 
1273:/home/simulink/cFS_FreeRTOS_seL4/cfe/fsw/cfe-core/src/sb/cfe_sb_api.c ****     DestPtr = RtgTblPtr -> ListHeadPtr;
 3273               	.loc 1 1273 0
 3274 1c2e 206F 0108 	move.l 264(%sp),%a0
 3275 1c32 2F68 0008 	move.l 8(%a0),284(%sp)
 3275      011C 
1274:/home/simulink/cFS_FreeRTOS_seL4/cfe/fsw/cfe-core/src/sb/cfe_sb_api.c **** 
1275:/home/simulink/cFS_FreeRTOS_seL4/cfe/fsw/cfe-core/src/sb/cfe_sb_api.c ****     /* Send the packet to all destinations  */
1276:/home/simulink/cFS_FreeRTOS_seL4/cfe/fsw/cfe-core/src/sb/cfe_sb_api.c ****     for (i=0; i < RtgTblPtr -> Destinations; i++) {
 3276               	.loc 1 1276 0
 3277 1c38 4240      	clr.w %d0
 3278 1c3a 3F40 011A 	move.w %d0,282(%sp)
 3279 1c3e 6000 02E2 	jra .L90
 3280               	.L98:
1277:/home/simulink/cFS_FreeRTOS_seL4/cfe/fsw/cfe-core/src/sb/cfe_sb_api.c **** 
1278:/home/simulink/cFS_FreeRTOS_seL4/cfe/fsw/cfe-core/src/sb/cfe_sb_api.c ****         /* The DestPtr should never be NULL in this loop, this is just extra
1279:/home/simulink/cFS_FreeRTOS_seL4/cfe/fsw/cfe-core/src/sb/cfe_sb_api.c ****            protection in case of the unforseen */
1280:/home/simulink/cFS_FreeRTOS_seL4/cfe/fsw/cfe-core/src/sb/cfe_sb_api.c ****         if(DestPtr == NULL){
 3281               	.loc 1 1280 0
 3282 1c42 4AAF 011C 	tst.l 284(%sp)
 3283 1c46 6700 02F8 	jeq .L107
1281:/home/simulink/cFS_FreeRTOS_seL4/cfe/fsw/cfe-core/src/sb/cfe_sb_api.c ****           break;
1282:/home/simulink/cFS_FreeRTOS_seL4/cfe/fsw/cfe-core/src/sb/cfe_sb_api.c ****         }
1283:/home/simulink/cFS_FreeRTOS_seL4/cfe/fsw/cfe-core/src/sb/cfe_sb_api.c **** 
1284:/home/simulink/cFS_FreeRTOS_seL4/cfe/fsw/cfe-core/src/sb/cfe_sb_api.c ****         if (DestPtr->Active != CFE_SB_INACTIVE)    /* destination is active */
 3284               	.loc 1 1284 0
 3285 1c4a 206F 011C 	move.l 284(%sp),%a0
 3286 1c4e 1028 0001 	move.b 1(%a0),%d0
 3287 1c52 4A00      	tst.b %d0
 3288 1c54 6700 02B8 	jeq .L93
1285:/home/simulink/cFS_FreeRTOS_seL4/cfe/fsw/cfe-core/src/sb/cfe_sb_api.c ****         {
1286:/home/simulink/cFS_FreeRTOS_seL4/cfe/fsw/cfe-core/src/sb/cfe_sb_api.c **** 
1287:/home/simulink/cFS_FreeRTOS_seL4/cfe/fsw/cfe-core/src/sb/cfe_sb_api.c ****         PipeDscPtr = &CFE_SB.PipeTbl[DestPtr->PipeId];
 3289               	.loc 1 1287 0
 3290 1c58 206F 011C 	move.l 284(%sp),%a0
 3291 1c5c 1010      	move.b (%a0),%d0
 3292 1c5e 1000      	move.b %d0,%d0
 3293 1c60 0280 0000 	and.l #255,%d0
 3293      00FF 
 3294 1c66 7244      	moveq #68,%d1
 3295 1c68 4C01 0800 	muls.l %d1,%d0
 3296 1c6c 0680 0000 	add.l #148,%d0
 3296      0094 
 3297 1c72 2400      	move.l %d0,%d2
 3298 1c74 0682 0000 	add.l #CFE_SB,%d2
 3298      0000 
 3299 1c7a 2F42 0104 	move.l %d2,260(%sp)
1288:/home/simulink/cFS_FreeRTOS_seL4/cfe/fsw/cfe-core/src/sb/cfe_sb_api.c **** 
1289:/home/simulink/cFS_FreeRTOS_seL4/cfe/fsw/cfe-core/src/sb/cfe_sb_api.c ****         /* if Msg limit exceeded, log event, increment counter */
1290:/home/simulink/cFS_FreeRTOS_seL4/cfe/fsw/cfe-core/src/sb/cfe_sb_api.c ****         /* and go to next destination */
1291:/home/simulink/cFS_FreeRTOS_seL4/cfe/fsw/cfe-core/src/sb/cfe_sb_api.c ****         if(DestPtr->BuffCount >= DestPtr->MsgId2PipeLim){
 3300               	.loc 1 1291 0
 3301 1c7e 206F 011C 	move.l 284(%sp),%a0
 3302 1c82 3228 0004 	move.w 4(%a0),%d1
 3303 1c86 206F 011C 	move.l 284(%sp),%a0
68K GAS   			page 92


 3304 1c8a 3028 0002 	move.w 2(%a0),%d0
 3305 1c8e 3201      	move.w %d1,%d1
 3306 1c90 0281 0000 	and.l #65535,%d1
 3306      FFFF 
 3307 1c96 3000      	move.w %d0,%d0
 3308 1c98 0280 0000 	and.l #65535,%d0
 3308      FFFF 
 3309 1c9e B081      	cmp.l %d1,%d0
 3310 1ca0 6272      	jhi .L94
1292:/home/simulink/cFS_FreeRTOS_seL4/cfe/fsw/cfe-core/src/sb/cfe_sb_api.c **** 
1293:/home/simulink/cFS_FreeRTOS_seL4/cfe/fsw/cfe-core/src/sb/cfe_sb_api.c ****             SBSndErr.EvtBuf[SBSndErr.EvtsToSnd].PipeId  = DestPtr->PipeId;
 3311               	.loc 1 1293 0
 3312 1ca2 202F 000C 	move.l 12(%sp),%d0
 3313 1ca6 206F 011C 	move.l 284(%sp),%a0
 3314 1caa 1210      	move.b (%a0),%d1
 3315 1cac 5280      	addq.l #1,%d0
 3316 1cae 740C      	moveq #12,%d2
 3317 1cb0 4C02 0800 	muls.l %d2,%d0
 3318 1cb4 41EF 0120 	lea (288,%sp),%a0
 3319 1cb8 D088      	add.l %a0,%d0
 3320 1cba 2040      	move.l %d0,%a0
 3321 1cbc 41E8 FEEC 	lea (-276,%a0),%a0
 3322 1cc0 1081      	move.b %d1,(%a0)
1294:/home/simulink/cFS_FreeRTOS_seL4/cfe/fsw/cfe-core/src/sb/cfe_sb_api.c ****             SBSndErr.EvtBuf[SBSndErr.EvtsToSnd].EventId = CFE_SB_MSGID_LIM_ERR_EID;
 3323               	.loc 1 1294 0
 3324 1cc2 202F 000C 	move.l 12(%sp),%d0
 3325 1cc6 720C      	moveq #12,%d1
 3326 1cc8 4C01 0800 	muls.l %d1,%d0
 3327 1ccc 243C 0000 	move.l #288,%d2
 3327      0120 
 3328 1cd2 D48F      	add.l %sp,%d2
 3329 1cd4 D082      	add.l %d2,%d0
 3330 1cd6 2040      	move.l %d0,%a0
 3331 1cd8 41E8 FEF0 	lea (-272,%a0),%a0
 3332 1cdc 20BC 0000 	move.l #17,(%a0)
 3332      0011 
1295:/home/simulink/cFS_FreeRTOS_seL4/cfe/fsw/cfe-core/src/sb/cfe_sb_api.c ****             SBSndErr.EvtsToSnd++;
 3333               	.loc 1 1295 0
 3334 1ce2 202F 000C 	move.l 12(%sp),%d0
 3335 1ce6 5280      	addq.l #1,%d0
 3336 1ce8 2F40 000C 	move.l %d0,12(%sp)
1296:/home/simulink/cFS_FreeRTOS_seL4/cfe/fsw/cfe-core/src/sb/cfe_sb_api.c ****             CFE_SB.HKTlmMsg.Payload.MsgLimErrCnt++;
 3337               	.loc 1 1296 0
 3338 1cec 3039 0000 	move.w CFE_SB+4526,%d0
 3338      0000 
 3339 1cf2 5280      	addq.l #1,%d0
 3340 1cf4 3000      	move.w %d0,%d0
 3341 1cf6 33C0 0000 	move.w %d0,CFE_SB+4526
 3341      0000 
1297:/home/simulink/cFS_FreeRTOS_seL4/cfe/fsw/cfe-core/src/sb/cfe_sb_api.c ****             PipeDscPtr->SendErrors++;
 3342               	.loc 1 1297 0
 3343 1cfc 206F 0104 	move.l 260(%sp),%a0
 3344 1d00 3028 003A 	move.w 58(%a0),%d0
 3345 1d04 5280      	addq.l #1,%d0
 3346 1d06 3000      	move.w %d0,%d0
 3347 1d08 206F 0104 	move.l 260(%sp),%a0
 3348 1d0c 3140 003A 	move.w %d0,58(%a0)
68K GAS   			page 93


 3349 1d10 6000 01FC 	jra .L93
 3350               	.L94:
1298:/home/simulink/cFS_FreeRTOS_seL4/cfe/fsw/cfe-core/src/sb/cfe_sb_api.c **** 
1299:/home/simulink/cFS_FreeRTOS_seL4/cfe/fsw/cfe-core/src/sb/cfe_sb_api.c ****             }else{
1300:/home/simulink/cFS_FreeRTOS_seL4/cfe/fsw/cfe-core/src/sb/cfe_sb_api.c ****         /*
1301:/home/simulink/cFS_FreeRTOS_seL4/cfe/fsw/cfe-core/src/sb/cfe_sb_api.c ****         ** Write the buffer descriptor to the queue of the pipe.  If the write
1302:/home/simulink/cFS_FreeRTOS_seL4/cfe/fsw/cfe-core/src/sb/cfe_sb_api.c ****         ** failed, log info and increment the pipe's error counter.
1303:/home/simulink/cFS_FreeRTOS_seL4/cfe/fsw/cfe-core/src/sb/cfe_sb_api.c ****         */
1304:/home/simulink/cFS_FreeRTOS_seL4/cfe/fsw/cfe-core/src/sb/cfe_sb_api.c ****                 Status = OS_QueuePut(PipeDscPtr->SysQueueId,(void *)&BufDscPtr,
 3351               	.loc 1 1304 0
 3352 1d14 206F 0104 	move.l 260(%sp),%a0
 3353 1d18 2228 0030 	move.l 48(%a0),%d1
 3354 1d1c 42A7      	clr.l -(%sp)
 3355               	.cfi_def_cfa_offset 296
 3356 1d1e 4878 0004 	pea 4.w
 3357               	.cfi_def_cfa_offset 300
 3358 1d22 200F      	move.l %sp,%d0
 3359 1d24 0680 0000 	add.l #256,%d0
 3359      0100 
 3360 1d2a 2F00      	move.l %d0,-(%sp)
 3361               	.cfi_def_cfa_offset 304
 3362 1d2c 2F01      	move.l %d1,-(%sp)
 3363               	.cfi_def_cfa_offset 308
 3364 1d2e 4EB9 0000 	jsr OS_QueuePut
 3364      0000 
 3365 1d34 4FEF 0010 	lea (16,%sp),%sp
 3366               	.cfi_def_cfa_offset 292
 3367 1d38 2F40 0100 	move.l %d0,256(%sp)
1305:/home/simulink/cFS_FreeRTOS_seL4/cfe/fsw/cfe-core/src/sb/cfe_sb_api.c ****                                      sizeof(CFE_SB_BufferD_t *),0);
1306:/home/simulink/cFS_FreeRTOS_seL4/cfe/fsw/cfe-core/src/sb/cfe_sb_api.c **** 
1307:/home/simulink/cFS_FreeRTOS_seL4/cfe/fsw/cfe-core/src/sb/cfe_sb_api.c ****         if (Status == OS_SUCCESS) {
 3368               	.loc 1 1307 0
 3369 1d3c 4AAF 0100 	tst.l 256(%sp)
 3370 1d40 6600 00C6 	jne .L95
1308:/home/simulink/cFS_FreeRTOS_seL4/cfe/fsw/cfe-core/src/sb/cfe_sb_api.c ****             BufDscPtr->UseCount++;    /* used for releasing buffer  */
 3371               	.loc 1 1308 0
 3372 1d44 206F 00F8 	move.l 248(%sp),%a0
 3373 1d48 3028 0002 	move.w 2(%a0),%d0
 3374 1d4c 5280      	addq.l #1,%d0
 3375 1d4e 3000      	move.w %d0,%d0
 3376 1d50 3140 0002 	move.w %d0,2(%a0)
1309:/home/simulink/cFS_FreeRTOS_seL4/cfe/fsw/cfe-core/src/sb/cfe_sb_api.c ****             DestPtr->BuffCount++; /* used for checking MsgId2PipeLimit */
 3377               	.loc 1 1309 0
 3378 1d54 206F 011C 	move.l 284(%sp),%a0
 3379 1d58 3028 0004 	move.w 4(%a0),%d0
 3380 1d5c 5280      	addq.l #1,%d0
 3381 1d5e 3000      	move.w %d0,%d0
 3382 1d60 206F 011C 	move.l 284(%sp),%a0
 3383 1d64 3140 0004 	move.w %d0,4(%a0)
1310:/home/simulink/cFS_FreeRTOS_seL4/cfe/fsw/cfe-core/src/sb/cfe_sb_api.c ****             DestPtr->DestCnt++;   /* used for statistics */
 3384               	.loc 1 1310 0
 3385 1d68 206F 011C 	move.l 284(%sp),%a0
 3386 1d6c 3028 0006 	move.w 6(%a0),%d0
 3387 1d70 5280      	addq.l #1,%d0
 3388 1d72 3000      	move.w %d0,%d0
 3389 1d74 206F 011C 	move.l 284(%sp),%a0
 3390 1d78 3140 0006 	move.w %d0,6(%a0)
68K GAS   			page 94


1311:/home/simulink/cFS_FreeRTOS_seL4/cfe/fsw/cfe-core/src/sb/cfe_sb_api.c ****             if (DestPtr->PipeId < CFE_SB_TLM_PIPEDEPTHSTATS_SIZE)
 3391               	.loc 1 1311 0
 3392 1d7c 206F 011C 	move.l 284(%sp),%a0
 3393 1d80 1010      	move.b (%a0),%d0
 3394 1d82 1000      	move.b %d0,%d0
 3395 1d84 0280 0000 	and.l #255,%d0
 3395      00FF 
 3396 1d8a 723F      	moveq #63,%d1
 3397 1d8c B280      	cmp.l %d0,%d1
 3398 1d8e 6500 017E 	jcs .L93
 3399               	.LBB2:
1312:/home/simulink/cFS_FreeRTOS_seL4/cfe/fsw/cfe-core/src/sb/cfe_sb_api.c ****             {
1313:/home/simulink/cFS_FreeRTOS_seL4/cfe/fsw/cfe-core/src/sb/cfe_sb_api.c ****                 CFE_SB_PipeDepthStats_t *StatObj =
1314:/home/simulink/cFS_FreeRTOS_seL4/cfe/fsw/cfe-core/src/sb/cfe_sb_api.c ****                         &CFE_SB.StatTlmMsg.Payload.PipeDepthStats[DestPtr->PipeId];
 3400               	.loc 1 1314 0
 3401 1d92 206F 011C 	move.l 284(%sp),%a0
 3402 1d96 1010      	move.b (%a0),%d0
 3403 1d98 1000      	move.b %d0,%d0
 3404 1d9a 0280 0000 	and.l #255,%d0
 3404      00FF 
1313:/home/simulink/cFS_FreeRTOS_seL4/cfe/fsw/cfe-core/src/sb/cfe_sb_api.c ****                         &CFE_SB.StatTlmMsg.Payload.PipeDepthStats[DestPtr->PipeId];
 3405               	.loc 1 1313 0
 3406 1da0 0680 0000 	add.l #9,%d0
 3406      0009 
 3407 1da6 E788      	lsl.l #3,%d0
 3408 1da8 0680 0000 	add.l #4540,%d0
 3408      11BC 
 3409 1dae 2400      	move.l %d0,%d2
 3410 1db0 0682 0000 	add.l #CFE_SB,%d2
 3410      0000 
 3411 1db6 2F42 00FC 	move.l %d2,252(%sp)
1315:/home/simulink/cFS_FreeRTOS_seL4/cfe/fsw/cfe-core/src/sb/cfe_sb_api.c ****                 StatObj->InUse++;
 3412               	.loc 1 1315 0
 3413 1dba 206F 00FC 	move.l 252(%sp),%a0
 3414 1dbe 3028 0004 	move.w 4(%a0),%d0
 3415 1dc2 5280      	addq.l #1,%d0
 3416 1dc4 3000      	move.w %d0,%d0
 3417 1dc6 206F 00FC 	move.l 252(%sp),%a0
 3418 1dca 3140 0004 	move.w %d0,4(%a0)
1316:/home/simulink/cFS_FreeRTOS_seL4/cfe/fsw/cfe-core/src/sb/cfe_sb_api.c ****                 if(StatObj->InUse > StatObj->PeakInUse){
 3419               	.loc 1 1316 0
 3420 1dce 206F 00FC 	move.l 252(%sp),%a0
 3421 1dd2 3228 0004 	move.w 4(%a0),%d1
 3422 1dd6 206F 00FC 	move.l 252(%sp),%a0
 3423 1dda 3028 0006 	move.w 6(%a0),%d0
 3424 1dde 3201      	move.w %d1,%d1
 3425 1de0 0281 0000 	and.l #65535,%d1
 3425      FFFF 
 3426 1de6 3000      	move.w %d0,%d0
 3427 1de8 0280 0000 	and.l #65535,%d0
 3427      FFFF 
 3428 1dee B081      	cmp.l %d1,%d0
 3429 1df0 6400 011C 	jcc .L93
1317:/home/simulink/cFS_FreeRTOS_seL4/cfe/fsw/cfe-core/src/sb/cfe_sb_api.c ****                     StatObj->PeakInUse = StatObj->InUse;
 3430               	.loc 1 1317 0
 3431 1df4 206F 00FC 	move.l 252(%sp),%a0
 3432 1df8 3028 0004 	move.w 4(%a0),%d0
68K GAS   			page 95


 3433 1dfc 206F 00FC 	move.l 252(%sp),%a0
 3434 1e00 3140 0006 	move.w %d0,6(%a0)
 3435 1e04 6000 0108 	jra .L93
 3436               	.L95:
 3437               	.LBE2:
1318:/home/simulink/cFS_FreeRTOS_seL4/cfe/fsw/cfe-core/src/sb/cfe_sb_api.c ****             }/* end if */
1319:/home/simulink/cFS_FreeRTOS_seL4/cfe/fsw/cfe-core/src/sb/cfe_sb_api.c ****             }
1320:/home/simulink/cFS_FreeRTOS_seL4/cfe/fsw/cfe-core/src/sb/cfe_sb_api.c **** 
1321:/home/simulink/cFS_FreeRTOS_seL4/cfe/fsw/cfe-core/src/sb/cfe_sb_api.c ****         }else if(Status == OS_QUEUE_FULL) {
 3438               	.loc 1 1321 0
 3439 1e08 70F7      	moveq #-9,%d0
 3440 1e0a B0AF 0100 	cmp.l 256(%sp),%d0
 3441 1e0e 6672      	jne .L97
1322:/home/simulink/cFS_FreeRTOS_seL4/cfe/fsw/cfe-core/src/sb/cfe_sb_api.c **** 
1323:/home/simulink/cFS_FreeRTOS_seL4/cfe/fsw/cfe-core/src/sb/cfe_sb_api.c ****             SBSndErr.EvtBuf[SBSndErr.EvtsToSnd].PipeId  = DestPtr->PipeId;
 3442               	.loc 1 1323 0
 3443 1e10 202F 000C 	move.l 12(%sp),%d0
 3444 1e14 206F 011C 	move.l 284(%sp),%a0
 3445 1e18 1210      	move.b (%a0),%d1
 3446 1e1a 5280      	addq.l #1,%d0
 3447 1e1c 740C      	moveq #12,%d2
 3448 1e1e 4C02 0800 	muls.l %d2,%d0
 3449 1e22 41EF 0120 	lea (288,%sp),%a0
 3450 1e26 D088      	add.l %a0,%d0
 3451 1e28 2040      	move.l %d0,%a0
 3452 1e2a 41E8 FEEC 	lea (-276,%a0),%a0
 3453 1e2e 1081      	move.b %d1,(%a0)
1324:/home/simulink/cFS_FreeRTOS_seL4/cfe/fsw/cfe-core/src/sb/cfe_sb_api.c ****             SBSndErr.EvtBuf[SBSndErr.EvtsToSnd].EventId = CFE_SB_Q_FULL_ERR_EID;
 3454               	.loc 1 1324 0
 3455 1e30 202F 000C 	move.l 12(%sp),%d0
 3456 1e34 720C      	moveq #12,%d1
 3457 1e36 4C01 0800 	muls.l %d1,%d0
 3458 1e3a 243C 0000 	move.l #288,%d2
 3458      0120 
 3459 1e40 D48F      	add.l %sp,%d2
 3460 1e42 D082      	add.l %d2,%d0
 3461 1e44 2040      	move.l %d0,%a0
 3462 1e46 41E8 FEF0 	lea (-272,%a0),%a0
 3463 1e4a 20BC 0000 	move.l #25,(%a0)
 3463      0019 
1325:/home/simulink/cFS_FreeRTOS_seL4/cfe/fsw/cfe-core/src/sb/cfe_sb_api.c ****             SBSndErr.EvtsToSnd++;
 3464               	.loc 1 1325 0
 3465 1e50 202F 000C 	move.l 12(%sp),%d0
 3466 1e54 5280      	addq.l #1,%d0
 3467 1e56 2F40 000C 	move.l %d0,12(%sp)
1326:/home/simulink/cFS_FreeRTOS_seL4/cfe/fsw/cfe-core/src/sb/cfe_sb_api.c ****             CFE_SB.HKTlmMsg.Payload.PipeOverflowErrCnt++;
 3468               	.loc 1 1326 0
 3469 1e5a 3039 0000 	move.w CFE_SB+4524,%d0
 3469      0000 
 3470 1e60 5280      	addq.l #1,%d0
 3471 1e62 3000      	move.w %d0,%d0
 3472 1e64 33C0 0000 	move.w %d0,CFE_SB+4524
 3472      0000 
1327:/home/simulink/cFS_FreeRTOS_seL4/cfe/fsw/cfe-core/src/sb/cfe_sb_api.c ****             PipeDscPtr->SendErrors++;
 3473               	.loc 1 1327 0
 3474 1e6a 206F 0104 	move.l 260(%sp),%a0
 3475 1e6e 3028 003A 	move.w 58(%a0),%d0
68K GAS   			page 96


 3476 1e72 5280      	addq.l #1,%d0
 3477 1e74 3000      	move.w %d0,%d0
 3478 1e76 206F 0104 	move.l 260(%sp),%a0
 3479 1e7a 3140 003A 	move.w %d0,58(%a0)
 3480 1e7e 6000 008E 	jra .L93
 3481               	.L97:
1328:/home/simulink/cFS_FreeRTOS_seL4/cfe/fsw/cfe-core/src/sb/cfe_sb_api.c **** 
1329:/home/simulink/cFS_FreeRTOS_seL4/cfe/fsw/cfe-core/src/sb/cfe_sb_api.c **** 
1330:/home/simulink/cFS_FreeRTOS_seL4/cfe/fsw/cfe-core/src/sb/cfe_sb_api.c ****         }else{ /* Unexpected error while writing to queue. */
1331:/home/simulink/cFS_FreeRTOS_seL4/cfe/fsw/cfe-core/src/sb/cfe_sb_api.c **** 
1332:/home/simulink/cFS_FreeRTOS_seL4/cfe/fsw/cfe-core/src/sb/cfe_sb_api.c ****             SBSndErr.EvtBuf[SBSndErr.EvtsToSnd].PipeId  = DestPtr->PipeId;
 3482               	.loc 1 1332 0
 3483 1e82 202F 000C 	move.l 12(%sp),%d0
 3484 1e86 206F 011C 	move.l 284(%sp),%a0
 3485 1e8a 1210      	move.b (%a0),%d1
 3486 1e8c 5280      	addq.l #1,%d0
 3487 1e8e 740C      	moveq #12,%d2
 3488 1e90 4C02 0800 	muls.l %d2,%d0
 3489 1e94 41EF 0120 	lea (288,%sp),%a0
 3490 1e98 D088      	add.l %a0,%d0
 3491 1e9a 2040      	move.l %d0,%a0
 3492 1e9c 41E8 FEEC 	lea (-276,%a0),%a0
 3493 1ea0 1081      	move.b %d1,(%a0)
1333:/home/simulink/cFS_FreeRTOS_seL4/cfe/fsw/cfe-core/src/sb/cfe_sb_api.c ****             SBSndErr.EvtBuf[SBSndErr.EvtsToSnd].EventId = CFE_SB_Q_WR_ERR_EID;
 3494               	.loc 1 1333 0
 3495 1ea2 202F 000C 	move.l 12(%sp),%d0
 3496 1ea6 720C      	moveq #12,%d1
 3497 1ea8 4C01 0800 	muls.l %d1,%d0
 3498 1eac 243C 0000 	move.l #288,%d2
 3498      0120 
 3499 1eb2 D48F      	add.l %sp,%d2
 3500 1eb4 D082      	add.l %d2,%d0
 3501 1eb6 2040      	move.l %d0,%a0
 3502 1eb8 41E8 FEF0 	lea (-272,%a0),%a0
 3503 1ebc 20BC 0000 	move.l #26,(%a0)
 3503      001A 
1334:/home/simulink/cFS_FreeRTOS_seL4/cfe/fsw/cfe-core/src/sb/cfe_sb_api.c ****             SBSndErr.EvtBuf[SBSndErr.EvtsToSnd].ErrStat = Status;
 3504               	.loc 1 1334 0
 3505 1ec2 202F 000C 	move.l 12(%sp),%d0
 3506 1ec6 720C      	moveq #12,%d1
 3507 1ec8 4C01 0800 	muls.l %d1,%d0
 3508 1ecc 243C 0000 	move.l #288,%d2
 3508      0120 
 3509 1ed2 D48F      	add.l %sp,%d2
 3510 1ed4 D082      	add.l %d2,%d0
 3511 1ed6 2040      	move.l %d0,%a0
 3512 1ed8 41E8 FEF4 	lea (-268,%a0),%a0
 3513 1edc 20AF 0100 	move.l 256(%sp),(%a0)
1335:/home/simulink/cFS_FreeRTOS_seL4/cfe/fsw/cfe-core/src/sb/cfe_sb_api.c ****             SBSndErr.EvtsToSnd++;
 3514               	.loc 1 1335 0
 3515 1ee0 202F 000C 	move.l 12(%sp),%d0
 3516 1ee4 5280      	addq.l #1,%d0
 3517 1ee6 2F40 000C 	move.l %d0,12(%sp)
1336:/home/simulink/cFS_FreeRTOS_seL4/cfe/fsw/cfe-core/src/sb/cfe_sb_api.c ****             CFE_SB.HKTlmMsg.Payload.InternalErrCnt++;
 3518               	.loc 1 1336 0
 3519 1eea 1039 0000 	move.b CFE_SB+4517,%d0
 3519      0000 
68K GAS   			page 97


 3520 1ef0 5280      	addq.l #1,%d0
 3521 1ef2 1000      	move.b %d0,%d0
 3522 1ef4 13C0 0000 	move.b %d0,CFE_SB+4517
 3522      0000 
1337:/home/simulink/cFS_FreeRTOS_seL4/cfe/fsw/cfe-core/src/sb/cfe_sb_api.c ****             PipeDscPtr->SendErrors++;
 3523               	.loc 1 1337 0
 3524 1efa 206F 0104 	move.l 260(%sp),%a0
 3525 1efe 3028 003A 	move.w 58(%a0),%d0
 3526 1f02 5280      	addq.l #1,%d0
 3527 1f04 3000      	move.w %d0,%d0
 3528 1f06 206F 0104 	move.l 260(%sp),%a0
 3529 1f0a 3140 003A 	move.w %d0,58(%a0)
 3530               	.L93:
1338:/home/simulink/cFS_FreeRTOS_seL4/cfe/fsw/cfe-core/src/sb/cfe_sb_api.c **** 
1339:/home/simulink/cFS_FreeRTOS_seL4/cfe/fsw/cfe-core/src/sb/cfe_sb_api.c ****                 }/*end if */
1340:/home/simulink/cFS_FreeRTOS_seL4/cfe/fsw/cfe-core/src/sb/cfe_sb_api.c ****             }/*end if */
1341:/home/simulink/cFS_FreeRTOS_seL4/cfe/fsw/cfe-core/src/sb/cfe_sb_api.c ****         }/*end if */
1342:/home/simulink/cFS_FreeRTOS_seL4/cfe/fsw/cfe-core/src/sb/cfe_sb_api.c **** 
1343:/home/simulink/cFS_FreeRTOS_seL4/cfe/fsw/cfe-core/src/sb/cfe_sb_api.c ****         DestPtr = DestPtr -> Next;
 3531               	.loc 1 1343 0 discriminator 2
 3532 1f0e 206F 011C 	move.l 284(%sp),%a0
 3533 1f12 2F68 0010 	move.l 16(%a0),284(%sp)
 3533      011C 
1276:/home/simulink/cFS_FreeRTOS_seL4/cfe/fsw/cfe-core/src/sb/cfe_sb_api.c **** 
 3534               	.loc 1 1276 0 discriminator 2
 3535 1f18 302F 011A 	move.w 282(%sp),%d0
 3536 1f1c 5280      	addq.l #1,%d0
 3537 1f1e 3F40 011A 	move.w %d0,282(%sp)
 3538               	.L90:
1276:/home/simulink/cFS_FreeRTOS_seL4/cfe/fsw/cfe-core/src/sb/cfe_sb_api.c **** 
 3539               	.loc 1 1276 0 is_stmt 0 discriminator 1
 3540 1f22 206F 0108 	move.l 264(%sp),%a0
 3541 1f26 3028 0002 	move.w 2(%a0),%d0
 3542 1f2a 4281      	clr.l %d1
 3543 1f2c 322F 011A 	move.w 282(%sp),%d1
 3544 1f30 3000      	move.w %d0,%d0
 3545 1f32 0280 0000 	and.l #65535,%d0
 3545      FFFF 
 3546 1f38 B081      	cmp.l %d1,%d0
 3547 1f3a 6200 FD06 	jhi .L98
 3548 1f3e 6002      	jra .L92
 3549               	.L107:
1281:/home/simulink/cFS_FreeRTOS_seL4/cfe/fsw/cfe-core/src/sb/cfe_sb_api.c ****         }
 3550               	.loc 1 1281 0 is_stmt 1
 3551 1f40 4E71      	nop
 3552               	.L92:
1344:/home/simulink/cFS_FreeRTOS_seL4/cfe/fsw/cfe-core/src/sb/cfe_sb_api.c **** 
1345:/home/simulink/cFS_FreeRTOS_seL4/cfe/fsw/cfe-core/src/sb/cfe_sb_api.c ****     } /* end loop over destinations */
1346:/home/simulink/cFS_FreeRTOS_seL4/cfe/fsw/cfe-core/src/sb/cfe_sb_api.c **** 
1347:/home/simulink/cFS_FreeRTOS_seL4/cfe/fsw/cfe-core/src/sb/cfe_sb_api.c ****     /*
1348:/home/simulink/cFS_FreeRTOS_seL4/cfe/fsw/cfe-core/src/sb/cfe_sb_api.c ****     ** Decrement the buffer UseCount and free buffer if cnt=0. This decrement is done
1349:/home/simulink/cFS_FreeRTOS_seL4/cfe/fsw/cfe-core/src/sb/cfe_sb_api.c ****     ** because the use cnt is initialized to 1 in CFE_SB_GetBufferFromPool.
1350:/home/simulink/cFS_FreeRTOS_seL4/cfe/fsw/cfe-core/src/sb/cfe_sb_api.c ****     ** Initializing the count to 1 (as opposed to zero) and decrementing it here are
1351:/home/simulink/cFS_FreeRTOS_seL4/cfe/fsw/cfe-core/src/sb/cfe_sb_api.c ****     ** done to ensure the buffer gets released when there are destinations that have
1352:/home/simulink/cFS_FreeRTOS_seL4/cfe/fsw/cfe-core/src/sb/cfe_sb_api.c ****     ** been disabled via ground command.
1353:/home/simulink/cFS_FreeRTOS_seL4/cfe/fsw/cfe-core/src/sb/cfe_sb_api.c ****     */
1354:/home/simulink/cFS_FreeRTOS_seL4/cfe/fsw/cfe-core/src/sb/cfe_sb_api.c ****     CFE_SB_DecrBufUseCnt(BufDscPtr);
68K GAS   			page 98


 3553               	.loc 1 1354 0
 3554 1f42 202F 00F8 	move.l 248(%sp),%d0
 3555 1f46 2F00      	move.l %d0,-(%sp)
 3556               	.cfi_def_cfa_offset 296
 3557 1f48 4EB9 0000 	jsr CFE_SB_DecrBufUseCnt
 3557      0000 
 3558 1f4e 588F      	addq.l #4,%sp
 3559               	.cfi_def_cfa_offset 292
1355:/home/simulink/cFS_FreeRTOS_seL4/cfe/fsw/cfe-core/src/sb/cfe_sb_api.c **** 
1356:/home/simulink/cFS_FreeRTOS_seL4/cfe/fsw/cfe-core/src/sb/cfe_sb_api.c ****     /* release the semaphore */
1357:/home/simulink/cFS_FreeRTOS_seL4/cfe/fsw/cfe-core/src/sb/cfe_sb_api.c ****     CFE_SB_UnlockSharedData(__func__,__LINE__);
 3560               	.loc 1 1357 0
 3561 1f50 4878 054D 	pea 1357.w
 3562               	.cfi_def_cfa_offset 296
 3563 1f54 4879 0000 	pea __func__.5718
 3563      0000 
 3564               	.cfi_def_cfa_offset 300
 3565 1f5a 4EB9 0000 	jsr CFE_SB_UnlockSharedData
 3565      0000 
 3566 1f60 508F      	addq.l #8,%sp
 3567               	.cfi_def_cfa_offset 292
1358:/home/simulink/cFS_FreeRTOS_seL4/cfe/fsw/cfe-core/src/sb/cfe_sb_api.c **** 
1359:/home/simulink/cFS_FreeRTOS_seL4/cfe/fsw/cfe-core/src/sb/cfe_sb_api.c **** 
1360:/home/simulink/cFS_FreeRTOS_seL4/cfe/fsw/cfe-core/src/sb/cfe_sb_api.c ****     /* send an event for each pipe write error that may have occurred */
1361:/home/simulink/cFS_FreeRTOS_seL4/cfe/fsw/cfe-core/src/sb/cfe_sb_api.c ****     for(i=0;i < SBSndErr.EvtsToSnd; i++)
 3568               	.loc 1 1361 0
 3569 1f62 4240      	clr.w %d0
 3570 1f64 3F40 011A 	move.w %d0,282(%sp)
 3571 1f68 6000 02A6 	jra .L99
 3572               	.L105:
1362:/home/simulink/cFS_FreeRTOS_seL4/cfe/fsw/cfe-core/src/sb/cfe_sb_api.c ****     {
1363:/home/simulink/cFS_FreeRTOS_seL4/cfe/fsw/cfe-core/src/sb/cfe_sb_api.c ****         if(SBSndErr.EvtBuf[i].EventId == CFE_SB_MSGID_LIM_ERR_EID)
 3573               	.loc 1 1363 0
 3574 1f6c 4280      	clr.l %d0
 3575 1f6e 302F 011A 	move.w 282(%sp),%d0
 3576 1f72 720C      	moveq #12,%d1
 3577 1f74 4C01 0800 	muls.l %d1,%d0
 3578 1f78 243C 0000 	move.l #288,%d2
 3578      0120 
 3579 1f7e D48F      	add.l %sp,%d2
 3580 1f80 D082      	add.l %d2,%d0
 3581 1f82 2040      	move.l %d0,%a0
 3582 1f84 41E8 FEF0 	lea (-272,%a0),%a0
 3583 1f88 2010      	move.l (%a0),%d0
 3584 1f8a 7211      	moveq #17,%d1
 3585 1f8c B280      	cmp.l %d0,%d1
 3586 1f8e 6600 00C8 	jne .L100
1364:/home/simulink/cFS_FreeRTOS_seL4/cfe/fsw/cfe-core/src/sb/cfe_sb_api.c ****         {
1365:/home/simulink/cFS_FreeRTOS_seL4/cfe/fsw/cfe-core/src/sb/cfe_sb_api.c ****             /* Determine if event can be sent without causing recursive event problem */
1366:/home/simulink/cFS_FreeRTOS_seL4/cfe/fsw/cfe-core/src/sb/cfe_sb_api.c ****             if(CFE_SB_RequestToSendEvent(TskId,CFE_SB_MSGID_LIM_ERR_EID_BIT) == CFE_SB_GRANTED){
 3587               	.loc 1 1366 0
 3588 1f92 4878 0002 	pea 2.w
 3589               	.cfi_def_cfa_offset 296
 3590 1f96 2F2F 0118 	move.l 280(%sp),-(%sp)
 3591               	.cfi_def_cfa_offset 300
 3592 1f9a 4EB9 0000 	jsr CFE_SB_RequestToSendEvent
 3592      0000 
68K GAS   			page 99


 3593 1fa0 508F      	addq.l #8,%sp
 3594               	.cfi_def_cfa_offset 292
 3595 1fa2 7401      	moveq #1,%d2
 3596 1fa4 B480      	cmp.l %d0,%d2
 3597 1fa6 6600 025E 	jne .L102
1367:/home/simulink/cFS_FreeRTOS_seL4/cfe/fsw/cfe-core/src/sb/cfe_sb_api.c **** 
1368:/home/simulink/cFS_FreeRTOS_seL4/cfe/fsw/cfe-core/src/sb/cfe_sb_api.c ****               CFE_ES_PerfLogEntry(CFE_SB_MSG_LIM_PERF_ID);
 3598               	.loc 1 1368 0
 3599 1faa 42A7      	clr.l -(%sp)
 3600               	.cfi_def_cfa_offset 296
 3601 1fac 4878 0005 	pea 5.w
 3602               	.cfi_def_cfa_offset 300
 3603 1fb0 4EB9 0000 	jsr CFE_ES_PerfLogAdd
 3603      0000 
 3604 1fb6 508F      	addq.l #8,%sp
 3605               	.cfi_def_cfa_offset 292
1369:/home/simulink/cFS_FreeRTOS_seL4/cfe/fsw/cfe-core/src/sb/cfe_sb_api.c ****               CFE_ES_PerfLogExit(CFE_SB_MSG_LIM_PERF_ID);
 3606               	.loc 1 1369 0
 3607 1fb8 4878 0001 	pea 1.w
 3608               	.cfi_def_cfa_offset 296
 3609 1fbc 4878 0005 	pea 5.w
 3610               	.cfi_def_cfa_offset 300
 3611 1fc0 4EB9 0000 	jsr CFE_ES_PerfLogAdd
 3611      0000 
 3612 1fc6 508F      	addq.l #8,%sp
 3613               	.cfi_def_cfa_offset 292
1370:/home/simulink/cFS_FreeRTOS_seL4/cfe/fsw/cfe-core/src/sb/cfe_sb_api.c **** 
1371:/home/simulink/cFS_FreeRTOS_seL4/cfe/fsw/cfe-core/src/sb/cfe_sb_api.c ****               CFE_EVS_SendEventWithAppID(CFE_SB_MSGID_LIM_ERR_EID,CFE_EVS_ERROR,CFE_SB.AppId,
 3614               	.loc 1 1371 0
 3615 1fc8 200F      	move.l %sp,%d0
 3616 1fca 0680 0000 	add.l #208,%d0
 3616      00D0 
 3617 1fd0 2F00      	move.l %d0,-(%sp)
 3618               	.cfi_def_cfa_offset 296
 3619 1fd2 2F2F 0118 	move.l 280(%sp),-(%sp)
 3620               	.cfi_def_cfa_offset 300
 3621 1fd6 4EB9 0000 	jsr CFE_SB_GetAppTskName
 3621      0000 
 3622 1fdc 508F      	addq.l #8,%sp
 3623               	.cfi_def_cfa_offset 292
 3624 1fde 2400      	move.l %d0,%d2
1372:/home/simulink/cFS_FreeRTOS_seL4/cfe/fsw/cfe-core/src/sb/cfe_sb_api.c ****                 "Msg Limit Err,MsgId 0x%x,pipe %s,sender %s",
1373:/home/simulink/cFS_FreeRTOS_seL4/cfe/fsw/cfe-core/src/sb/cfe_sb_api.c ****                 (unsigned int)RtgTblPtr->MsgId,
1374:/home/simulink/cFS_FreeRTOS_seL4/cfe/fsw/cfe-core/src/sb/cfe_sb_api.c ****                 CFE_SB_GetPipeName(SBSndErr.EvtBuf[i].PipeId),
 3625               	.loc 1 1374 0
 3626 1fe0 4280      	clr.l %d0
 3627 1fe2 302F 011A 	move.w 282(%sp),%d0
 3628 1fe6 5280      	addq.l #1,%d0
 3629 1fe8 720C      	moveq #12,%d1
 3630 1fea 4C01 0800 	muls.l %d1,%d0
 3631 1fee 41EF 0120 	lea (288,%sp),%a0
 3632 1ff2 D088      	add.l %a0,%d0
 3633 1ff4 2040      	move.l %d0,%a0
 3634 1ff6 41E8 FEEC 	lea (-276,%a0),%a0
 3635 1ffa 1010      	move.b (%a0),%d0
1371:/home/simulink/cFS_FreeRTOS_seL4/cfe/fsw/cfe-core/src/sb/cfe_sb_api.c ****                 "Msg Limit Err,MsgId 0x%x,pipe %s,sender %s",
 3636               	.loc 1 1371 0
68K GAS   			page 100


 3637 1ffc 1000      	move.b %d0,%d0
 3638 1ffe 0280 0000 	and.l #255,%d0
 3638      00FF 
 3639 2004 2F00      	move.l %d0,-(%sp)
 3640               	.cfi_def_cfa_offset 296
 3641 2006 4EB9 0000 	jsr CFE_SB_GetPipeName
 3641      0000 
 3642 200c 588F      	addq.l #4,%sp
 3643               	.cfi_def_cfa_offset 292
 3644 200e 2240      	move.l %d0,%a1
1373:/home/simulink/cFS_FreeRTOS_seL4/cfe/fsw/cfe-core/src/sb/cfe_sb_api.c ****                 CFE_SB_GetPipeName(SBSndErr.EvtBuf[i].PipeId),
 3645               	.loc 1 1373 0
 3646 2010 206F 0108 	move.l 264(%sp),%a0
 3647 2014 3010      	move.w (%a0),%d0
1371:/home/simulink/cFS_FreeRTOS_seL4/cfe/fsw/cfe-core/src/sb/cfe_sb_api.c ****                 "Msg Limit Err,MsgId 0x%x,pipe %s,sender %s",
 3648               	.loc 1 1371 0
 3649 2016 3000      	move.w %d0,%d0
 3650 2018 0280 0000 	and.l #65535,%d0
 3650      FFFF 
 3651 201e 2239 0000 	move.l CFE_SB+12,%d1
 3651      0000 
 3652 2024 2F02      	move.l %d2,-(%sp)
 3653               	.cfi_def_cfa_offset 296
 3654 2026 2F09      	move.l %a1,-(%sp)
 3655               	.cfi_def_cfa_offset 300
 3656 2028 2F00      	move.l %d0,-(%sp)
 3657               	.cfi_def_cfa_offset 304
 3658 202a 4879 0000 	pea .LC27
 3658      0000 
 3659               	.cfi_def_cfa_offset 308
 3660 2030 2F01      	move.l %d1,-(%sp)
 3661               	.cfi_def_cfa_offset 312
 3662 2032 4878 0003 	pea 3.w
 3663               	.cfi_def_cfa_offset 316
 3664 2036 4878 0011 	pea 17.w
 3665               	.cfi_def_cfa_offset 320
 3666 203a 4EB9 0000 	jsr CFE_EVS_SendEventWithAppID
 3666      0000 
 3667 2040 4FEF 001C 	lea (28,%sp),%sp
 3668               	.cfi_def_cfa_offset 292
1375:/home/simulink/cFS_FreeRTOS_seL4/cfe/fsw/cfe-core/src/sb/cfe_sb_api.c ****                 CFE_SB_GetAppTskName(TskId,FullName));
1376:/home/simulink/cFS_FreeRTOS_seL4/cfe/fsw/cfe-core/src/sb/cfe_sb_api.c **** 
1377:/home/simulink/cFS_FreeRTOS_seL4/cfe/fsw/cfe-core/src/sb/cfe_sb_api.c ****               /* clear the bit so the task may send this event again */
1378:/home/simulink/cFS_FreeRTOS_seL4/cfe/fsw/cfe-core/src/sb/cfe_sb_api.c ****               CFE_SB_FinishSendEvent(TskId,CFE_SB_MSGID_LIM_ERR_EID_BIT);
 3669               	.loc 1 1378 0
 3670 2044 4878 0002 	pea 2.w
 3671               	.cfi_def_cfa_offset 296
 3672 2048 2F2F 0118 	move.l 280(%sp),-(%sp)
 3673               	.cfi_def_cfa_offset 300
 3674 204c 4EB9 0000 	jsr CFE_SB_FinishSendEvent
 3674      0000 
 3675 2052 508F      	addq.l #8,%sp
 3676               	.cfi_def_cfa_offset 292
 3677 2054 6000 01B0 	jra .L102
 3678               	.L100:
1379:/home/simulink/cFS_FreeRTOS_seL4/cfe/fsw/cfe-core/src/sb/cfe_sb_api.c ****             }/* end if */
1380:/home/simulink/cFS_FreeRTOS_seL4/cfe/fsw/cfe-core/src/sb/cfe_sb_api.c **** 
68K GAS   			page 101


1381:/home/simulink/cFS_FreeRTOS_seL4/cfe/fsw/cfe-core/src/sb/cfe_sb_api.c ****         }else if(SBSndErr.EvtBuf[i].EventId == CFE_SB_Q_FULL_ERR_EID){
 3679               	.loc 1 1381 0
 3680 2058 4280      	clr.l %d0
 3681 205a 302F 011A 	move.w 282(%sp),%d0
 3682 205e 720C      	moveq #12,%d1
 3683 2060 4C01 0800 	muls.l %d1,%d0
 3684 2064 243C 0000 	move.l #288,%d2
 3684      0120 
 3685 206a D48F      	add.l %sp,%d2
 3686 206c D082      	add.l %d2,%d0
 3687 206e 2040      	move.l %d0,%a0
 3688 2070 41E8 FEF0 	lea (-272,%a0),%a0
 3689 2074 2010      	move.l (%a0),%d0
 3690 2076 7219      	moveq #25,%d1
 3691 2078 B280      	cmp.l %d0,%d1
 3692 207a 6600 00C8 	jne .L103
1382:/home/simulink/cFS_FreeRTOS_seL4/cfe/fsw/cfe-core/src/sb/cfe_sb_api.c **** 
1383:/home/simulink/cFS_FreeRTOS_seL4/cfe/fsw/cfe-core/src/sb/cfe_sb_api.c ****             /* Determine if event can be sent without causing recursive event problem */
1384:/home/simulink/cFS_FreeRTOS_seL4/cfe/fsw/cfe-core/src/sb/cfe_sb_api.c ****             if(CFE_SB_RequestToSendEvent(TskId,CFE_SB_Q_FULL_ERR_EID_BIT) == CFE_SB_GRANTED){
 3693               	.loc 1 1384 0
 3694 207e 4878 0003 	pea 3.w
 3695               	.cfi_def_cfa_offset 296
 3696 2082 2F2F 0118 	move.l 280(%sp),-(%sp)
 3697               	.cfi_def_cfa_offset 300
 3698 2086 4EB9 0000 	jsr CFE_SB_RequestToSendEvent
 3698      0000 
 3699 208c 508F      	addq.l #8,%sp
 3700               	.cfi_def_cfa_offset 292
 3701 208e 7401      	moveq #1,%d2
 3702 2090 B480      	cmp.l %d0,%d2
 3703 2092 6600 0172 	jne .L102
1385:/home/simulink/cFS_FreeRTOS_seL4/cfe/fsw/cfe-core/src/sb/cfe_sb_api.c **** 
1386:/home/simulink/cFS_FreeRTOS_seL4/cfe/fsw/cfe-core/src/sb/cfe_sb_api.c ****               CFE_ES_PerfLogEntry(CFE_SB_PIPE_OFLOW_PERF_ID);
 3704               	.loc 1 1386 0
 3705 2096 42A7      	clr.l -(%sp)
 3706               	.cfi_def_cfa_offset 296
 3707 2098 4878 001B 	pea 27.w
 3708               	.cfi_def_cfa_offset 300
 3709 209c 4EB9 0000 	jsr CFE_ES_PerfLogAdd
 3709      0000 
 3710 20a2 508F      	addq.l #8,%sp
 3711               	.cfi_def_cfa_offset 292
1387:/home/simulink/cFS_FreeRTOS_seL4/cfe/fsw/cfe-core/src/sb/cfe_sb_api.c ****               CFE_ES_PerfLogExit(CFE_SB_PIPE_OFLOW_PERF_ID);
 3712               	.loc 1 1387 0
 3713 20a4 4878 0001 	pea 1.w
 3714               	.cfi_def_cfa_offset 296
 3715 20a8 4878 001B 	pea 27.w
 3716               	.cfi_def_cfa_offset 300
 3717 20ac 4EB9 0000 	jsr CFE_ES_PerfLogAdd
 3717      0000 
 3718 20b2 508F      	addq.l #8,%sp
 3719               	.cfi_def_cfa_offset 292
1388:/home/simulink/cFS_FreeRTOS_seL4/cfe/fsw/cfe-core/src/sb/cfe_sb_api.c **** 
1389:/home/simulink/cFS_FreeRTOS_seL4/cfe/fsw/cfe-core/src/sb/cfe_sb_api.c ****               CFE_EVS_SendEventWithAppID(CFE_SB_Q_FULL_ERR_EID,CFE_EVS_ERROR,CFE_SB.AppId,
 3720               	.loc 1 1389 0
 3721 20b4 200F      	move.l %sp,%d0
 3722 20b6 0680 0000 	add.l #208,%d0
68K GAS   			page 102


 3722      00D0 
 3723 20bc 2F00      	move.l %d0,-(%sp)
 3724               	.cfi_def_cfa_offset 296
 3725 20be 2F2F 0118 	move.l 280(%sp),-(%sp)
 3726               	.cfi_def_cfa_offset 300
 3727 20c2 4EB9 0000 	jsr CFE_SB_GetAppTskName
 3727      0000 
 3728 20c8 508F      	addq.l #8,%sp
 3729               	.cfi_def_cfa_offset 292
 3730 20ca 2400      	move.l %d0,%d2
1390:/home/simulink/cFS_FreeRTOS_seL4/cfe/fsw/cfe-core/src/sb/cfe_sb_api.c ****                   "Pipe Overflow,MsgId 0x%x,pipe %s,sender %s",
1391:/home/simulink/cFS_FreeRTOS_seL4/cfe/fsw/cfe-core/src/sb/cfe_sb_api.c ****                   (unsigned int)RtgTblPtr->MsgId,
1392:/home/simulink/cFS_FreeRTOS_seL4/cfe/fsw/cfe-core/src/sb/cfe_sb_api.c ****                   CFE_SB_GetPipeName(SBSndErr.EvtBuf[i].PipeId),
 3731               	.loc 1 1392 0
 3732 20cc 4280      	clr.l %d0
 3733 20ce 302F 011A 	move.w 282(%sp),%d0
 3734 20d2 5280      	addq.l #1,%d0
 3735 20d4 720C      	moveq #12,%d1
 3736 20d6 4C01 0800 	muls.l %d1,%d0
 3737 20da 41EF 0120 	lea (288,%sp),%a0
 3738 20de D088      	add.l %a0,%d0
 3739 20e0 2040      	move.l %d0,%a0
 3740 20e2 41E8 FEEC 	lea (-276,%a0),%a0
 3741 20e6 1010      	move.b (%a0),%d0
1389:/home/simulink/cFS_FreeRTOS_seL4/cfe/fsw/cfe-core/src/sb/cfe_sb_api.c ****                   "Pipe Overflow,MsgId 0x%x,pipe %s,sender %s",
 3742               	.loc 1 1389 0
 3743 20e8 1000      	move.b %d0,%d0
 3744 20ea 0280 0000 	and.l #255,%d0
 3744      00FF 
 3745 20f0 2F00      	move.l %d0,-(%sp)
 3746               	.cfi_def_cfa_offset 296
 3747 20f2 4EB9 0000 	jsr CFE_SB_GetPipeName
 3747      0000 
 3748 20f8 588F      	addq.l #4,%sp
 3749               	.cfi_def_cfa_offset 292
 3750 20fa 2240      	move.l %d0,%a1
1391:/home/simulink/cFS_FreeRTOS_seL4/cfe/fsw/cfe-core/src/sb/cfe_sb_api.c ****                   CFE_SB_GetPipeName(SBSndErr.EvtBuf[i].PipeId),
 3751               	.loc 1 1391 0
 3752 20fc 206F 0108 	move.l 264(%sp),%a0
 3753 2100 3010      	move.w (%a0),%d0
1389:/home/simulink/cFS_FreeRTOS_seL4/cfe/fsw/cfe-core/src/sb/cfe_sb_api.c ****                   "Pipe Overflow,MsgId 0x%x,pipe %s,sender %s",
 3754               	.loc 1 1389 0
 3755 2102 3000      	move.w %d0,%d0
 3756 2104 0280 0000 	and.l #65535,%d0
 3756      FFFF 
 3757 210a 2239 0000 	move.l CFE_SB+12,%d1
 3757      0000 
 3758 2110 2F02      	move.l %d2,-(%sp)
 3759               	.cfi_def_cfa_offset 296
 3760 2112 2F09      	move.l %a1,-(%sp)
 3761               	.cfi_def_cfa_offset 300
 3762 2114 2F00      	move.l %d0,-(%sp)
 3763               	.cfi_def_cfa_offset 304
 3764 2116 4879 0000 	pea .LC28
 3764      0000 
 3765               	.cfi_def_cfa_offset 308
 3766 211c 2F01      	move.l %d1,-(%sp)
68K GAS   			page 103


 3767               	.cfi_def_cfa_offset 312
 3768 211e 4878 0003 	pea 3.w
 3769               	.cfi_def_cfa_offset 316
 3770 2122 4878 0019 	pea 25.w
 3771               	.cfi_def_cfa_offset 320
 3772 2126 4EB9 0000 	jsr CFE_EVS_SendEventWithAppID
 3772      0000 
 3773 212c 4FEF 001C 	lea (28,%sp),%sp
 3774               	.cfi_def_cfa_offset 292
1393:/home/simulink/cFS_FreeRTOS_seL4/cfe/fsw/cfe-core/src/sb/cfe_sb_api.c ****                   CFE_SB_GetAppTskName(TskId,FullName));
1394:/home/simulink/cFS_FreeRTOS_seL4/cfe/fsw/cfe-core/src/sb/cfe_sb_api.c **** 
1395:/home/simulink/cFS_FreeRTOS_seL4/cfe/fsw/cfe-core/src/sb/cfe_sb_api.c ****                /* clear the bit so the task may send this event again */
1396:/home/simulink/cFS_FreeRTOS_seL4/cfe/fsw/cfe-core/src/sb/cfe_sb_api.c ****               CFE_SB_FinishSendEvent(TskId,CFE_SB_Q_FULL_ERR_EID_BIT);
 3775               	.loc 1 1396 0
 3776 2130 4878 0003 	pea 3.w
 3777               	.cfi_def_cfa_offset 296
 3778 2134 2F2F 0118 	move.l 280(%sp),-(%sp)
 3779               	.cfi_def_cfa_offset 300
 3780 2138 4EB9 0000 	jsr CFE_SB_FinishSendEvent
 3780      0000 
 3781 213e 508F      	addq.l #8,%sp
 3782               	.cfi_def_cfa_offset 292
 3783 2140 6000 00C4 	jra .L102
 3784               	.L103:
1397:/home/simulink/cFS_FreeRTOS_seL4/cfe/fsw/cfe-core/src/sb/cfe_sb_api.c ****             }/* end if */
1398:/home/simulink/cFS_FreeRTOS_seL4/cfe/fsw/cfe-core/src/sb/cfe_sb_api.c **** 
1399:/home/simulink/cFS_FreeRTOS_seL4/cfe/fsw/cfe-core/src/sb/cfe_sb_api.c ****         }else{
1400:/home/simulink/cFS_FreeRTOS_seL4/cfe/fsw/cfe-core/src/sb/cfe_sb_api.c **** 
1401:/home/simulink/cFS_FreeRTOS_seL4/cfe/fsw/cfe-core/src/sb/cfe_sb_api.c ****             /* Determine if event can be sent without causing recursive event problem */
1402:/home/simulink/cFS_FreeRTOS_seL4/cfe/fsw/cfe-core/src/sb/cfe_sb_api.c ****             if(CFE_SB_RequestToSendEvent(TskId,CFE_SB_Q_WR_ERR_EID_BIT) == CFE_SB_GRANTED){
 3785               	.loc 1 1402 0
 3786 2144 4878 0004 	pea 4.w
 3787               	.cfi_def_cfa_offset 296
 3788 2148 2F2F 0118 	move.l 280(%sp),-(%sp)
 3789               	.cfi_def_cfa_offset 300
 3790 214c 4EB9 0000 	jsr CFE_SB_RequestToSendEvent
 3790      0000 
 3791 2152 508F      	addq.l #8,%sp
 3792               	.cfi_def_cfa_offset 292
 3793 2154 7201      	moveq #1,%d1
 3794 2156 B280      	cmp.l %d0,%d1
 3795 2158 6600 00AC 	jne .L102
1403:/home/simulink/cFS_FreeRTOS_seL4/cfe/fsw/cfe-core/src/sb/cfe_sb_api.c **** 
1404:/home/simulink/cFS_FreeRTOS_seL4/cfe/fsw/cfe-core/src/sb/cfe_sb_api.c ****               CFE_EVS_SendEventWithAppID(CFE_SB_Q_WR_ERR_EID,CFE_EVS_ERROR,CFE_SB.AppId,
1405:/home/simulink/cFS_FreeRTOS_seL4/cfe/fsw/cfe-core/src/sb/cfe_sb_api.c ****                 "Pipe Write Err,MsgId 0x%x,pipe %s,sender %s,stat 0x%x",
1406:/home/simulink/cFS_FreeRTOS_seL4/cfe/fsw/cfe-core/src/sb/cfe_sb_api.c ****                 (unsigned int)RtgTblPtr->MsgId,
1407:/home/simulink/cFS_FreeRTOS_seL4/cfe/fsw/cfe-core/src/sb/cfe_sb_api.c ****                 CFE_SB_GetPipeName(SBSndErr.EvtBuf[i].PipeId),
1408:/home/simulink/cFS_FreeRTOS_seL4/cfe/fsw/cfe-core/src/sb/cfe_sb_api.c ****                 CFE_SB_GetAppTskName(TskId,FullName),
1409:/home/simulink/cFS_FreeRTOS_seL4/cfe/fsw/cfe-core/src/sb/cfe_sb_api.c ****                 (unsigned int)SBSndErr.EvtBuf[i].ErrStat);
 3796               	.loc 1 1409 0
 3797 215c 4280      	clr.l %d0
 3798 215e 302F 011A 	move.w 282(%sp),%d0
 3799 2162 740C      	moveq #12,%d2
 3800 2164 4C02 0800 	muls.l %d2,%d0
 3801 2168 41EF 0120 	lea (288,%sp),%a0
 3802 216c D088      	add.l %a0,%d0
 3803 216e 2040      	move.l %d0,%a0
68K GAS   			page 104


 3804 2170 41E8 FEF4 	lea (-268,%a0),%a0
 3805 2174 2010      	move.l (%a0),%d0
1404:/home/simulink/cFS_FreeRTOS_seL4/cfe/fsw/cfe-core/src/sb/cfe_sb_api.c ****                 "Pipe Write Err,MsgId 0x%x,pipe %s,sender %s,stat 0x%x",
 3806               	.loc 1 1404 0
 3807 2176 2600      	move.l %d0,%d3
 3808 2178 200F      	move.l %sp,%d0
 3809 217a 0680 0000 	add.l #208,%d0
 3809      00D0 
 3810 2180 2F00      	move.l %d0,-(%sp)
 3811               	.cfi_def_cfa_offset 296
 3812 2182 2F2F 0118 	move.l 280(%sp),-(%sp)
 3813               	.cfi_def_cfa_offset 300
 3814 2186 4EB9 0000 	jsr CFE_SB_GetAppTskName
 3814      0000 
 3815 218c 508F      	addq.l #8,%sp
 3816               	.cfi_def_cfa_offset 292
 3817 218e 2400      	move.l %d0,%d2
1407:/home/simulink/cFS_FreeRTOS_seL4/cfe/fsw/cfe-core/src/sb/cfe_sb_api.c ****                 CFE_SB_GetAppTskName(TskId,FullName),
 3818               	.loc 1 1407 0
 3819 2190 4280      	clr.l %d0
 3820 2192 302F 011A 	move.w 282(%sp),%d0
 3821 2196 5280      	addq.l #1,%d0
 3822 2198 720C      	moveq #12,%d1
 3823 219a 4C01 0800 	muls.l %d1,%d0
 3824 219e 41EF 0120 	lea (288,%sp),%a0
 3825 21a2 D088      	add.l %a0,%d0
 3826 21a4 2040      	move.l %d0,%a0
 3827 21a6 41E8 FEEC 	lea (-276,%a0),%a0
 3828 21aa 1010      	move.b (%a0),%d0
1404:/home/simulink/cFS_FreeRTOS_seL4/cfe/fsw/cfe-core/src/sb/cfe_sb_api.c ****                 "Pipe Write Err,MsgId 0x%x,pipe %s,sender %s,stat 0x%x",
 3829               	.loc 1 1404 0
 3830 21ac 1000      	move.b %d0,%d0
 3831 21ae 0280 0000 	and.l #255,%d0
 3831      00FF 
 3832 21b4 2F00      	move.l %d0,-(%sp)
 3833               	.cfi_def_cfa_offset 296
 3834 21b6 4EB9 0000 	jsr CFE_SB_GetPipeName
 3834      0000 
 3835 21bc 588F      	addq.l #4,%sp
 3836               	.cfi_def_cfa_offset 292
 3837 21be 2240      	move.l %d0,%a1
1406:/home/simulink/cFS_FreeRTOS_seL4/cfe/fsw/cfe-core/src/sb/cfe_sb_api.c ****                 CFE_SB_GetPipeName(SBSndErr.EvtBuf[i].PipeId),
 3838               	.loc 1 1406 0
 3839 21c0 206F 0108 	move.l 264(%sp),%a0
 3840 21c4 3010      	move.w (%a0),%d0
1404:/home/simulink/cFS_FreeRTOS_seL4/cfe/fsw/cfe-core/src/sb/cfe_sb_api.c ****                 "Pipe Write Err,MsgId 0x%x,pipe %s,sender %s,stat 0x%x",
 3841               	.loc 1 1404 0
 3842 21c6 3000      	move.w %d0,%d0
 3843 21c8 0280 0000 	and.l #65535,%d0
 3843      FFFF 
 3844 21ce 2239 0000 	move.l CFE_SB+12,%d1
 3844      0000 
 3845 21d4 2F03      	move.l %d3,-(%sp)
 3846               	.cfi_def_cfa_offset 296
 3847 21d6 2F02      	move.l %d2,-(%sp)
 3848               	.cfi_def_cfa_offset 300
 3849 21d8 2F09      	move.l %a1,-(%sp)
68K GAS   			page 105


 3850               	.cfi_def_cfa_offset 304
 3851 21da 2F00      	move.l %d0,-(%sp)
 3852               	.cfi_def_cfa_offset 308
 3853 21dc 4879 0000 	pea .LC29
 3853      0000 
 3854               	.cfi_def_cfa_offset 312
 3855 21e2 2F01      	move.l %d1,-(%sp)
 3856               	.cfi_def_cfa_offset 316
 3857 21e4 4878 0003 	pea 3.w
 3858               	.cfi_def_cfa_offset 320
 3859 21e8 4878 001A 	pea 26.w
 3860               	.cfi_def_cfa_offset 324
 3861 21ec 4EB9 0000 	jsr CFE_EVS_SendEventWithAppID
 3861      0000 
 3862 21f2 4FEF 0020 	lea (32,%sp),%sp
 3863               	.cfi_def_cfa_offset 292
1410:/home/simulink/cFS_FreeRTOS_seL4/cfe/fsw/cfe-core/src/sb/cfe_sb_api.c **** 
1411:/home/simulink/cFS_FreeRTOS_seL4/cfe/fsw/cfe-core/src/sb/cfe_sb_api.c ****                /* clear the bit so the task may send this event again */
1412:/home/simulink/cFS_FreeRTOS_seL4/cfe/fsw/cfe-core/src/sb/cfe_sb_api.c ****               CFE_SB_FinishSendEvent(TskId,CFE_SB_Q_WR_ERR_EID_BIT);
 3864               	.loc 1 1412 0
 3865 21f6 4878 0004 	pea 4.w
 3866               	.cfi_def_cfa_offset 296
 3867 21fa 2F2F 0118 	move.l 280(%sp),-(%sp)
 3868               	.cfi_def_cfa_offset 300
 3869 21fe 4EB9 0000 	jsr CFE_SB_FinishSendEvent
 3869      0000 
 3870 2204 508F      	addq.l #8,%sp
 3871               	.cfi_def_cfa_offset 292
 3872               	.L102:
1361:/home/simulink/cFS_FreeRTOS_seL4/cfe/fsw/cfe-core/src/sb/cfe_sb_api.c ****     {
 3873               	.loc 1 1361 0 discriminator 2
 3874 2206 302F 011A 	move.w 282(%sp),%d0
 3875 220a 5280      	addq.l #1,%d0
 3876 220c 3F40 011A 	move.w %d0,282(%sp)
 3877               	.L99:
1361:/home/simulink/cFS_FreeRTOS_seL4/cfe/fsw/cfe-core/src/sb/cfe_sb_api.c ****     {
 3878               	.loc 1 1361 0 is_stmt 0 discriminator 1
 3879 2210 4280      	clr.l %d0
 3880 2212 302F 011A 	move.w 282(%sp),%d0
 3881 2216 222F 000C 	move.l 12(%sp),%d1
 3882 221a B280      	cmp.l %d0,%d1
 3883 221c 6200 FD4E 	jhi .L105
1413:/home/simulink/cFS_FreeRTOS_seL4/cfe/fsw/cfe-core/src/sb/cfe_sb_api.c ****             }/* end if */
1414:/home/simulink/cFS_FreeRTOS_seL4/cfe/fsw/cfe-core/src/sb/cfe_sb_api.c **** 
1415:/home/simulink/cFS_FreeRTOS_seL4/cfe/fsw/cfe-core/src/sb/cfe_sb_api.c ****         }/* end if */
1416:/home/simulink/cFS_FreeRTOS_seL4/cfe/fsw/cfe-core/src/sb/cfe_sb_api.c ****     }
1417:/home/simulink/cFS_FreeRTOS_seL4/cfe/fsw/cfe-core/src/sb/cfe_sb_api.c **** 
1418:/home/simulink/cFS_FreeRTOS_seL4/cfe/fsw/cfe-core/src/sb/cfe_sb_api.c **** 
1419:/home/simulink/cFS_FreeRTOS_seL4/cfe/fsw/cfe-core/src/sb/cfe_sb_api.c ****     return CFE_SUCCESS;
 3884               	.loc 1 1419 0 is_stmt 1
 3885 2220 4280      	clr.l %d0
 3886               	.L106:
1420:/home/simulink/cFS_FreeRTOS_seL4/cfe/fsw/cfe-core/src/sb/cfe_sb_api.c **** 
1421:/home/simulink/cFS_FreeRTOS_seL4/cfe/fsw/cfe-core/src/sb/cfe_sb_api.c **** }/* end CFE_SB_SendMsgFull */
 3887               	.loc 1 1421 0 discriminator 1
 3888 2222 4CD7 040C 	movem.l (%sp),#1036
 3889 2226 4FEF 0120 	lea (288,%sp),%sp
68K GAS   			page 106


 3890 222a 4E75      	rts
 3891               	.cfi_endproc
 3892               	.LFE73:
 3893               	.sizeCFE_SB_SendMsgFull, .-CFE_SB_SendMsgFull
 3894               	.section.rodata
 3895               	.LC30:
 3896 062a 5263 7620 	.string"Rcv Err:Bad Input Arg:BufPtr 0x%lx,pipe %d,t/o %d,app %s"
 3896      4572 723A 
 3896      4261 6420 
 3896      496E 7075 
 3896      7420 4172 
 3897               	.LC31:
 3898 0663 5263 7620 	.string"Rcv Err:PipeId %d does not exist,app %s"
 3898      4572 723A 
 3898      5069 7065 
 3898      4964 2025 
 3898      6420 646F 
 3899               	.text
 3900               	.align2
 3901               	.globlCFE_SB_RcvMsg
 3902               	.typeCFE_SB_RcvMsg, @function
 3903               	CFE_SB_RcvMsg:
 3904               	.LFB74:
1422:/home/simulink/cFS_FreeRTOS_seL4/cfe/fsw/cfe-core/src/sb/cfe_sb_api.c **** 
1423:/home/simulink/cFS_FreeRTOS_seL4/cfe/fsw/cfe-core/src/sb/cfe_sb_api.c **** 
1424:/home/simulink/cFS_FreeRTOS_seL4/cfe/fsw/cfe-core/src/sb/cfe_sb_api.c **** 
1425:/home/simulink/cFS_FreeRTOS_seL4/cfe/fsw/cfe-core/src/sb/cfe_sb_api.c **** /******************************************************************************
1426:/home/simulink/cFS_FreeRTOS_seL4/cfe/fsw/cfe-core/src/sb/cfe_sb_api.c **** ** Name:    CFE_SB_RcvMsg
1427:/home/simulink/cFS_FreeRTOS_seL4/cfe/fsw/cfe-core/src/sb/cfe_sb_api.c **** **
1428:/home/simulink/cFS_FreeRTOS_seL4/cfe/fsw/cfe-core/src/sb/cfe_sb_api.c **** ** Purpose: API used to receive a message from the software bus.
1429:/home/simulink/cFS_FreeRTOS_seL4/cfe/fsw/cfe-core/src/sb/cfe_sb_api.c **** **
1430:/home/simulink/cFS_FreeRTOS_seL4/cfe/fsw/cfe-core/src/sb/cfe_sb_api.c **** ** Assumptions, External Events, and Notes:
1431:/home/simulink/cFS_FreeRTOS_seL4/cfe/fsw/cfe-core/src/sb/cfe_sb_api.c **** **          Notes:
1432:/home/simulink/cFS_FreeRTOS_seL4/cfe/fsw/cfe-core/src/sb/cfe_sb_api.c **** **
1433:/home/simulink/cFS_FreeRTOS_seL4/cfe/fsw/cfe-core/src/sb/cfe_sb_api.c **** **
1434:/home/simulink/cFS_FreeRTOS_seL4/cfe/fsw/cfe-core/src/sb/cfe_sb_api.c **** ** Date Written:
1435:/home/simulink/cFS_FreeRTOS_seL4/cfe/fsw/cfe-core/src/sb/cfe_sb_api.c **** **          04/25/2005
1436:/home/simulink/cFS_FreeRTOS_seL4/cfe/fsw/cfe-core/src/sb/cfe_sb_api.c **** **
1437:/home/simulink/cFS_FreeRTOS_seL4/cfe/fsw/cfe-core/src/sb/cfe_sb_api.c **** ** Input Arguments:
1438:/home/simulink/cFS_FreeRTOS_seL4/cfe/fsw/cfe-core/src/sb/cfe_sb_api.c **** **          PipeId
1439:/home/simulink/cFS_FreeRTOS_seL4/cfe/fsw/cfe-core/src/sb/cfe_sb_api.c **** **          BufPtr
1440:/home/simulink/cFS_FreeRTOS_seL4/cfe/fsw/cfe-core/src/sb/cfe_sb_api.c **** **          timeOut - CFE_SB_PEND, CFE_SB_POLL or millisecond timeout
1441:/home/simulink/cFS_FreeRTOS_seL4/cfe/fsw/cfe-core/src/sb/cfe_sb_api.c **** **
1442:/home/simulink/cFS_FreeRTOS_seL4/cfe/fsw/cfe-core/src/sb/cfe_sb_api.c **** ** Output Arguments:
1443:/home/simulink/cFS_FreeRTOS_seL4/cfe/fsw/cfe-core/src/sb/cfe_sb_api.c **** **          None
1444:/home/simulink/cFS_FreeRTOS_seL4/cfe/fsw/cfe-core/src/sb/cfe_sb_api.c **** **
1445:/home/simulink/cFS_FreeRTOS_seL4/cfe/fsw/cfe-core/src/sb/cfe_sb_api.c **** ** Return Values:
1446:/home/simulink/cFS_FreeRTOS_seL4/cfe/fsw/cfe-core/src/sb/cfe_sb_api.c **** **          Status
1447:/home/simulink/cFS_FreeRTOS_seL4/cfe/fsw/cfe-core/src/sb/cfe_sb_api.c **** **
1448:/home/simulink/cFS_FreeRTOS_seL4/cfe/fsw/cfe-core/src/sb/cfe_sb_api.c **** ******************************************************************************/
1449:/home/simulink/cFS_FreeRTOS_seL4/cfe/fsw/cfe-core/src/sb/cfe_sb_api.c **** int32  CFE_SB_RcvMsg(CFE_SB_MsgPtr_t    *BufPtr,
1450:/home/simulink/cFS_FreeRTOS_seL4/cfe/fsw/cfe-core/src/sb/cfe_sb_api.c ****                      CFE_SB_PipeId_t    PipeId,
1451:/home/simulink/cFS_FreeRTOS_seL4/cfe/fsw/cfe-core/src/sb/cfe_sb_api.c ****                      int32              TimeOut)
1452:/home/simulink/cFS_FreeRTOS_seL4/cfe/fsw/cfe-core/src/sb/cfe_sb_api.c **** {
 3905               	.loc 1 1452 0
 3906               	.cfi_startproc
 3907 222c 4FEF FFC0 	lea (-64,%sp),%sp
68K GAS   			page 107


 3908               	.cfi_def_cfa_offset 68
 3909 2230 202F 0048 	move.l 72(%sp),%d0
 3910 2234 1000      	move.b %d0,%d0
 3911 2236 1E80      	move.b %d0,(%sp)
1453:/home/simulink/cFS_FreeRTOS_seL4/cfe/fsw/cfe-core/src/sb/cfe_sb_api.c ****     int32                  Status;
1454:/home/simulink/cFS_FreeRTOS_seL4/cfe/fsw/cfe-core/src/sb/cfe_sb_api.c ****     CFE_SB_BufferD_t       *Message;
1455:/home/simulink/cFS_FreeRTOS_seL4/cfe/fsw/cfe-core/src/sb/cfe_sb_api.c ****     CFE_SB_PipeD_t         *PipeDscPtr;
1456:/home/simulink/cFS_FreeRTOS_seL4/cfe/fsw/cfe-core/src/sb/cfe_sb_api.c ****     CFE_SB_DestinationD_t  *DestPtr = NULL;
 3912               	.loc 1 1456 0
 3913 2238 42AF 003C 	clr.l 60(%sp)
1457:/home/simulink/cFS_FreeRTOS_seL4/cfe/fsw/cfe-core/src/sb/cfe_sb_api.c ****     uint32                 TskId = 0;
 3914               	.loc 1 1457 0
 3915 223c 42AF 0038 	clr.l 56(%sp)
1458:/home/simulink/cFS_FreeRTOS_seL4/cfe/fsw/cfe-core/src/sb/cfe_sb_api.c ****     char                   FullName[(OS_MAX_API_NAME * 2)];
1459:/home/simulink/cFS_FreeRTOS_seL4/cfe/fsw/cfe-core/src/sb/cfe_sb_api.c **** 
1460:/home/simulink/cFS_FreeRTOS_seL4/cfe/fsw/cfe-core/src/sb/cfe_sb_api.c ****     /* get task id for events */
1461:/home/simulink/cFS_FreeRTOS_seL4/cfe/fsw/cfe-core/src/sb/cfe_sb_api.c ****     TskId = OS_TaskGetId();
 3916               	.loc 1 1461 0
 3917 2240 4EB9 0000 	jsr OS_TaskGetId
 3917      0000 
 3918 2246 2F40 0038 	move.l %d0,56(%sp)
1462:/home/simulink/cFS_FreeRTOS_seL4/cfe/fsw/cfe-core/src/sb/cfe_sb_api.c **** 
1463:/home/simulink/cFS_FreeRTOS_seL4/cfe/fsw/cfe-core/src/sb/cfe_sb_api.c ****     /* Check input parameters */
1464:/home/simulink/cFS_FreeRTOS_seL4/cfe/fsw/cfe-core/src/sb/cfe_sb_api.c ****     if((BufPtr == NULL)||(TimeOut < (-1))){
 3919               	.loc 1 1464 0
 3920 224a 4AAF 0044 	tst.l 68(%sp)
 3921 224e 670A      	jeq .L109
 3922               	.loc 1 1464 0 is_stmt 0 discriminator 1
 3923 2250 70FF      	moveq #-1,%d0
 3924 2252 B0AF 004C 	cmp.l 76(%sp),%d0
 3925 2256 6F00 0086 	jle .L110
 3926               	.L109:
1465:/home/simulink/cFS_FreeRTOS_seL4/cfe/fsw/cfe-core/src/sb/cfe_sb_api.c ****         CFE_SB_LockSharedData(__func__,__LINE__);
 3927               	.loc 1 1465 0 is_stmt 1
 3928 225a 4878 05B9 	pea 1465.w
 3929               	.cfi_def_cfa_offset 72
 3930 225e 4879 0000 	pea __func__.5737
 3930      0000 
 3931               	.cfi_def_cfa_offset 76
 3932 2264 4EB9 0000 	jsr CFE_SB_LockSharedData
 3932      0000 
 3933 226a 508F      	addq.l #8,%sp
 3934               	.cfi_def_cfa_offset 68
1466:/home/simulink/cFS_FreeRTOS_seL4/cfe/fsw/cfe-core/src/sb/cfe_sb_api.c ****         CFE_SB.HKTlmMsg.Payload.MsgReceiveErrCnt++;
 3935               	.loc 1 1466 0
 3936 226c 1039 0000 	move.b CFE_SB+4516,%d0
 3936      0000 
 3937 2272 5280      	addq.l #1,%d0
 3938 2274 1000      	move.b %d0,%d0
 3939 2276 13C0 0000 	move.b %d0,CFE_SB+4516
 3939      0000 
1467:/home/simulink/cFS_FreeRTOS_seL4/cfe/fsw/cfe-core/src/sb/cfe_sb_api.c ****         CFE_SB_UnlockSharedData(__func__,__LINE__);
 3940               	.loc 1 1467 0
 3941 227c 4878 05BB 	pea 1467.w
 3942               	.cfi_def_cfa_offset 72
 3943 2280 4879 0000 	pea __func__.5737
 3943      0000 
68K GAS   			page 108


 3944               	.cfi_def_cfa_offset 76
 3945 2286 4EB9 0000 	jsr CFE_SB_UnlockSharedData
 3945      0000 
 3946 228c 508F      	addq.l #8,%sp
 3947               	.cfi_def_cfa_offset 68
1468:/home/simulink/cFS_FreeRTOS_seL4/cfe/fsw/cfe-core/src/sb/cfe_sb_api.c ****         CFE_EVS_SendEventWithAppID(CFE_SB_RCV_BAD_ARG_EID,CFE_EVS_ERROR,CFE_SB.AppId,
 3948               	.loc 1 1468 0
 3949 228e 200F      	move.l %sp,%d0
 3950 2290 5880      	addq.l #4,%d0
 3951 2292 2F00      	move.l %d0,-(%sp)
 3952               	.cfi_def_cfa_offset 72
 3953 2294 2F2F 003C 	move.l 60(%sp),-(%sp)
 3954               	.cfi_def_cfa_offset 76
 3955 2298 4EB9 0000 	jsr CFE_SB_GetAppTskName
 3955      0000 
 3956 229e 508F      	addq.l #8,%sp
 3957               	.cfi_def_cfa_offset 68
 3958 22a0 2240      	move.l %d0,%a1
 3959 22a2 4280      	clr.l %d0
 3960 22a4 1017      	move.b (%sp),%d0
 3961 22a6 206F 0044 	move.l 68(%sp),%a0
 3962 22aa 2239 0000 	move.l CFE_SB+12,%d1
 3962      0000 
 3963 22b0 2F09      	move.l %a1,-(%sp)
 3964               	.cfi_def_cfa_offset 72
 3965 22b2 2F2F 0050 	move.l 80(%sp),-(%sp)
 3966               	.cfi_def_cfa_offset 76
 3967 22b6 2F00      	move.l %d0,-(%sp)
 3968               	.cfi_def_cfa_offset 80
 3969 22b8 2F08      	move.l %a0,-(%sp)
 3970               	.cfi_def_cfa_offset 84
 3971 22ba 4879 0000 	pea .LC30
 3971      0000 
 3972               	.cfi_def_cfa_offset 88
 3973 22c0 2F01      	move.l %d1,-(%sp)
 3974               	.cfi_def_cfa_offset 92
 3975 22c2 4878 0003 	pea 3.w
 3976               	.cfi_def_cfa_offset 96
 3977 22c6 4878 0012 	pea 18.w
 3978               	.cfi_def_cfa_offset 100
 3979 22ca 4EB9 0000 	jsr CFE_EVS_SendEventWithAppID
 3979      0000 
 3980 22d0 4FEF 0020 	lea (32,%sp),%sp
 3981               	.cfi_def_cfa_offset 68
1469:/home/simulink/cFS_FreeRTOS_seL4/cfe/fsw/cfe-core/src/sb/cfe_sb_api.c ****             "Rcv Err:Bad Input Arg:BufPtr 0x%lx,pipe %d,t/o %d,app %s",
1470:/home/simulink/cFS_FreeRTOS_seL4/cfe/fsw/cfe-core/src/sb/cfe_sb_api.c ****             (unsigned long)BufPtr,(int)PipeId,(int)TimeOut,CFE_SB_GetAppTskName(TskId,FullName));
1471:/home/simulink/cFS_FreeRTOS_seL4/cfe/fsw/cfe-core/src/sb/cfe_sb_api.c ****         return CFE_SB_BAD_ARGUMENT;
 3982               	.loc 1 1471 0
 3983 22d4 203C CA00 	move.l #-905969661,%d0
 3983      0003 
 3984 22da 6000 01EE 	jra .L118
 3985               	.L110:
1472:/home/simulink/cFS_FreeRTOS_seL4/cfe/fsw/cfe-core/src/sb/cfe_sb_api.c ****     }/* end if */
1473:/home/simulink/cFS_FreeRTOS_seL4/cfe/fsw/cfe-core/src/sb/cfe_sb_api.c **** 
1474:/home/simulink/cFS_FreeRTOS_seL4/cfe/fsw/cfe-core/src/sb/cfe_sb_api.c ****     PipeDscPtr = CFE_SB_GetPipePtr(PipeId);
 3986               	.loc 1 1474 0
 3987 22de 4280      	clr.l %d0
68K GAS   			page 109


 3988 22e0 1017      	move.b (%sp),%d0
 3989 22e2 2F00      	move.l %d0,-(%sp)
 3990               	.cfi_def_cfa_offset 72
 3991 22e4 4EB9 0000 	jsr CFE_SB_GetPipePtr
 3991      0000 
 3992 22ea 588F      	addq.l #4,%sp
 3993               	.cfi_def_cfa_offset 68
 3994 22ec 2F40 0034 	move.l %d0,52(%sp)
1475:/home/simulink/cFS_FreeRTOS_seL4/cfe/fsw/cfe-core/src/sb/cfe_sb_api.c ****     /* If the pipe does not exist or PipeId is out of range... */
1476:/home/simulink/cFS_FreeRTOS_seL4/cfe/fsw/cfe-core/src/sb/cfe_sb_api.c ****     if (PipeDscPtr == NULL) {
 3995               	.loc 1 1476 0
 3996 22f0 4AAF 0034 	tst.l 52(%sp)
 3997 22f4 667A      	jne .L112
1477:/home/simulink/cFS_FreeRTOS_seL4/cfe/fsw/cfe-core/src/sb/cfe_sb_api.c ****         CFE_SB_LockSharedData(__func__,__LINE__);
 3998               	.loc 1 1477 0
 3999 22f6 4878 05C5 	pea 1477.w
 4000               	.cfi_def_cfa_offset 72
 4001 22fa 4879 0000 	pea __func__.5737
 4001      0000 
 4002               	.cfi_def_cfa_offset 76
 4003 2300 4EB9 0000 	jsr CFE_SB_LockSharedData
 4003      0000 
 4004 2306 508F      	addq.l #8,%sp
 4005               	.cfi_def_cfa_offset 68
1478:/home/simulink/cFS_FreeRTOS_seL4/cfe/fsw/cfe-core/src/sb/cfe_sb_api.c ****         CFE_SB.HKTlmMsg.Payload.MsgReceiveErrCnt++;
 4006               	.loc 1 1478 0
 4007 2308 1039 0000 	move.b CFE_SB+4516,%d0
 4007      0000 
 4008 230e 5280      	addq.l #1,%d0
 4009 2310 1000      	move.b %d0,%d0
 4010 2312 13C0 0000 	move.b %d0,CFE_SB+4516
 4010      0000 
1479:/home/simulink/cFS_FreeRTOS_seL4/cfe/fsw/cfe-core/src/sb/cfe_sb_api.c ****         CFE_SB_UnlockSharedData(__func__,__LINE__);
 4011               	.loc 1 1479 0
 4012 2318 4878 05C7 	pea 1479.w
 4013               	.cfi_def_cfa_offset 72
 4014 231c 4879 0000 	pea __func__.5737
 4014      0000 
 4015               	.cfi_def_cfa_offset 76
 4016 2322 4EB9 0000 	jsr CFE_SB_UnlockSharedData
 4016      0000 
 4017 2328 508F      	addq.l #8,%sp
 4018               	.cfi_def_cfa_offset 68
1480:/home/simulink/cFS_FreeRTOS_seL4/cfe/fsw/cfe-core/src/sb/cfe_sb_api.c ****         CFE_EVS_SendEventWithAppID(CFE_SB_BAD_PIPEID_EID,CFE_EVS_ERROR,CFE_SB.AppId,
 4019               	.loc 1 1480 0
 4020 232a 200F      	move.l %sp,%d0
 4021 232c 5880      	addq.l #4,%d0
 4022 232e 2F00      	move.l %d0,-(%sp)
 4023               	.cfi_def_cfa_offset 72
 4024 2330 2F2F 003C 	move.l 60(%sp),-(%sp)
 4025               	.cfi_def_cfa_offset 76
 4026 2334 4EB9 0000 	jsr CFE_SB_GetAppTskName
 4026      0000 
 4027 233a 508F      	addq.l #8,%sp
 4028               	.cfi_def_cfa_offset 68
 4029 233c 2040      	move.l %d0,%a0
 4030 233e 4280      	clr.l %d0
68K GAS   			page 110


 4031 2340 1017      	move.b (%sp),%d0
 4032 2342 2239 0000 	move.l CFE_SB+12,%d1
 4032      0000 
 4033 2348 2F08      	move.l %a0,-(%sp)
 4034               	.cfi_def_cfa_offset 72
 4035 234a 2F00      	move.l %d0,-(%sp)
 4036               	.cfi_def_cfa_offset 76
 4037 234c 4879 0000 	pea .LC31
 4037      0000 
 4038               	.cfi_def_cfa_offset 80
 4039 2352 2F01      	move.l %d1,-(%sp)
 4040               	.cfi_def_cfa_offset 84
 4041 2354 4878 0003 	pea 3.w
 4042               	.cfi_def_cfa_offset 88
 4043 2358 4878 0013 	pea 19.w
 4044               	.cfi_def_cfa_offset 92
 4045 235c 4EB9 0000 	jsr CFE_EVS_SendEventWithAppID
 4045      0000 
 4046 2362 4FEF 0018 	lea (24,%sp),%sp
 4047               	.cfi_def_cfa_offset 68
1481:/home/simulink/cFS_FreeRTOS_seL4/cfe/fsw/cfe-core/src/sb/cfe_sb_api.c ****             "Rcv Err:PipeId %d does not exist,app %s",
1482:/home/simulink/cFS_FreeRTOS_seL4/cfe/fsw/cfe-core/src/sb/cfe_sb_api.c ****             (int)PipeId,CFE_SB_GetAppTskName(TskId,FullName));
1483:/home/simulink/cFS_FreeRTOS_seL4/cfe/fsw/cfe-core/src/sb/cfe_sb_api.c ****         return CFE_SB_BAD_ARGUMENT;
 4048               	.loc 1 1483 0
 4049 2366 203C CA00 	move.l #-905969661,%d0
 4049      0003 
 4050 236c 6000 015C 	jra .L118
 4051               	.L112:
1484:/home/simulink/cFS_FreeRTOS_seL4/cfe/fsw/cfe-core/src/sb/cfe_sb_api.c ****     }/* end if */
1485:/home/simulink/cFS_FreeRTOS_seL4/cfe/fsw/cfe-core/src/sb/cfe_sb_api.c **** 
1486:/home/simulink/cFS_FreeRTOS_seL4/cfe/fsw/cfe-core/src/sb/cfe_sb_api.c ****     /*
1487:/home/simulink/cFS_FreeRTOS_seL4/cfe/fsw/cfe-core/src/sb/cfe_sb_api.c ****     ** Save off any currently in use buffer to free later; this allows
1488:/home/simulink/cFS_FreeRTOS_seL4/cfe/fsw/cfe-core/src/sb/cfe_sb_api.c ****     ** one fewer shared data locks
1489:/home/simulink/cFS_FreeRTOS_seL4/cfe/fsw/cfe-core/src/sb/cfe_sb_api.c ****     */
1490:/home/simulink/cFS_FreeRTOS_seL4/cfe/fsw/cfe-core/src/sb/cfe_sb_api.c **** 
1491:/home/simulink/cFS_FreeRTOS_seL4/cfe/fsw/cfe-core/src/sb/cfe_sb_api.c ****     PipeDscPtr->ToTrashBuff = PipeDscPtr->CurrentBuff;
 4052               	.loc 1 1491 0
 4053 2370 206F 0034 	move.l 52(%sp),%a0
 4054 2374 2028 003C 	move.l 60(%a0),%d0
 4055 2378 206F 0034 	move.l 52(%sp),%a0
 4056 237c 2140 0040 	move.l %d0,64(%a0)
1492:/home/simulink/cFS_FreeRTOS_seL4/cfe/fsw/cfe-core/src/sb/cfe_sb_api.c ****     PipeDscPtr->CurrentBuff = NULL;
 4057               	.loc 1 1492 0
 4058 2380 206F 0034 	move.l 52(%sp),%a0
 4059 2384 42A8 003C 	clr.l 60(%a0)
1493:/home/simulink/cFS_FreeRTOS_seL4/cfe/fsw/cfe-core/src/sb/cfe_sb_api.c **** 
1494:/home/simulink/cFS_FreeRTOS_seL4/cfe/fsw/cfe-core/src/sb/cfe_sb_api.c ****     /*
1495:/home/simulink/cFS_FreeRTOS_seL4/cfe/fsw/cfe-core/src/sb/cfe_sb_api.c ****     ** Read a new buffer from the queue of the pipe, using the
1496:/home/simulink/cFS_FreeRTOS_seL4/cfe/fsw/cfe-core/src/sb/cfe_sb_api.c ****     ** specified timeout option.  If a buffer was obtained, return the
1497:/home/simulink/cFS_FreeRTOS_seL4/cfe/fsw/cfe-core/src/sb/cfe_sb_api.c ****     ** packet to the task according to mode.  Otherwise, return a status
1498:/home/simulink/cFS_FreeRTOS_seL4/cfe/fsw/cfe-core/src/sb/cfe_sb_api.c ****     ** code indicating that no buffer was read.
1499:/home/simulink/cFS_FreeRTOS_seL4/cfe/fsw/cfe-core/src/sb/cfe_sb_api.c ****     */
1500:/home/simulink/cFS_FreeRTOS_seL4/cfe/fsw/cfe-core/src/sb/cfe_sb_api.c ****     Status = CFE_SB_ReadQueue(PipeDscPtr, TskId, TimeOut, &Message);
 4060               	.loc 1 1500 0
 4061 2388 222F 004C 	move.l 76(%sp),%d1
 4062 238c 200F      	move.l %sp,%d0
 4063 238e 0680 0000 	add.l #44,%d0
68K GAS   			page 111


 4063      002C 
 4064 2394 2F00      	move.l %d0,-(%sp)
 4065               	.cfi_def_cfa_offset 72
 4066 2396 2F01      	move.l %d1,-(%sp)
 4067               	.cfi_def_cfa_offset 76
 4068 2398 2F2F 0040 	move.l 64(%sp),-(%sp)
 4069               	.cfi_def_cfa_offset 80
 4070 239c 2F2F 0040 	move.l 64(%sp),-(%sp)
 4071               	.cfi_def_cfa_offset 84
 4072 23a0 4EB9 0000 	jsr CFE_SB_ReadQueue
 4072      0000 
 4073 23a6 4FEF 0010 	lea (16,%sp),%sp
 4074               	.cfi_def_cfa_offset 68
 4075 23aa 2F40 0030 	move.l %d0,48(%sp)
1501:/home/simulink/cFS_FreeRTOS_seL4/cfe/fsw/cfe-core/src/sb/cfe_sb_api.c **** 
1502:/home/simulink/cFS_FreeRTOS_seL4/cfe/fsw/cfe-core/src/sb/cfe_sb_api.c ****     /* take semaphore again to protect the remaining code in this call */
1503:/home/simulink/cFS_FreeRTOS_seL4/cfe/fsw/cfe-core/src/sb/cfe_sb_api.c ****     CFE_SB_LockSharedData(__func__,__LINE__);
 4076               	.loc 1 1503 0
 4077 23ae 4878 05DF 	pea 1503.w
 4078               	.cfi_def_cfa_offset 72
 4079 23b2 4879 0000 	pea __func__.5737
 4079      0000 
 4080               	.cfi_def_cfa_offset 76
 4081 23b8 4EB9 0000 	jsr CFE_SB_LockSharedData
 4081      0000 
 4082 23be 508F      	addq.l #8,%sp
 4083               	.cfi_def_cfa_offset 68
1504:/home/simulink/cFS_FreeRTOS_seL4/cfe/fsw/cfe-core/src/sb/cfe_sb_api.c **** 
1505:/home/simulink/cFS_FreeRTOS_seL4/cfe/fsw/cfe-core/src/sb/cfe_sb_api.c ****     /* free any pending trash buffer */
1506:/home/simulink/cFS_FreeRTOS_seL4/cfe/fsw/cfe-core/src/sb/cfe_sb_api.c ****     if (PipeDscPtr->ToTrashBuff != NULL) {
 4084               	.loc 1 1506 0
 4085 23c0 206F 0034 	move.l 52(%sp),%a0
 4086 23c4 2028 0040 	move.l 64(%a0),%d0
 4087 23c8 4A80      	tst.l %d0
 4088 23ca 671A      	jeq .L113
1507:/home/simulink/cFS_FreeRTOS_seL4/cfe/fsw/cfe-core/src/sb/cfe_sb_api.c **** 
1508:/home/simulink/cFS_FreeRTOS_seL4/cfe/fsw/cfe-core/src/sb/cfe_sb_api.c ****         /* Decrement the Buffer Use Count and Free buffer if cnt=0) */
1509:/home/simulink/cFS_FreeRTOS_seL4/cfe/fsw/cfe-core/src/sb/cfe_sb_api.c ****         CFE_SB_DecrBufUseCnt(PipeDscPtr->ToTrashBuff);
 4089               	.loc 1 1509 0
 4090 23cc 206F 0034 	move.l 52(%sp),%a0
 4091 23d0 2028 0040 	move.l 64(%a0),%d0
 4092 23d4 2F00      	move.l %d0,-(%sp)
 4093               	.cfi_def_cfa_offset 72
 4094 23d6 4EB9 0000 	jsr CFE_SB_DecrBufUseCnt
 4094      0000 
 4095 23dc 588F      	addq.l #4,%sp
 4096               	.cfi_def_cfa_offset 68
1510:/home/simulink/cFS_FreeRTOS_seL4/cfe/fsw/cfe-core/src/sb/cfe_sb_api.c **** 
1511:/home/simulink/cFS_FreeRTOS_seL4/cfe/fsw/cfe-core/src/sb/cfe_sb_api.c ****         PipeDscPtr->ToTrashBuff = NULL;
 4097               	.loc 1 1511 0
 4098 23de 206F 0034 	move.l 52(%sp),%a0
 4099 23e2 42A8 0040 	clr.l 64(%a0)
 4100               	.L113:
1512:/home/simulink/cFS_FreeRTOS_seL4/cfe/fsw/cfe-core/src/sb/cfe_sb_api.c **** 
1513:/home/simulink/cFS_FreeRTOS_seL4/cfe/fsw/cfe-core/src/sb/cfe_sb_api.c ****     }/* end if */
1514:/home/simulink/cFS_FreeRTOS_seL4/cfe/fsw/cfe-core/src/sb/cfe_sb_api.c **** 
1515:/home/simulink/cFS_FreeRTOS_seL4/cfe/fsw/cfe-core/src/sb/cfe_sb_api.c ****     if (Status == CFE_SUCCESS) {
68K GAS   			page 112


 4101               	.loc 1 1515 0
 4102 23e6 4AAF 0030 	tst.l 48(%sp)
 4103 23ea 6600 00C2 	jne .L114
1516:/home/simulink/cFS_FreeRTOS_seL4/cfe/fsw/cfe-core/src/sb/cfe_sb_api.c **** 
1517:/home/simulink/cFS_FreeRTOS_seL4/cfe/fsw/cfe-core/src/sb/cfe_sb_api.c ****         /*
1518:/home/simulink/cFS_FreeRTOS_seL4/cfe/fsw/cfe-core/src/sb/cfe_sb_api.c ****         ** Load the pipe tables 'CurrentBuff' with the buffer descriptor
1519:/home/simulink/cFS_FreeRTOS_seL4/cfe/fsw/cfe-core/src/sb/cfe_sb_api.c ****         ** ptr corresponding to the message just read. This is done so that
1520:/home/simulink/cFS_FreeRTOS_seL4/cfe/fsw/cfe-core/src/sb/cfe_sb_api.c ****         ** the buffer can be released on the next RcvMsg call for this pipe.
1521:/home/simulink/cFS_FreeRTOS_seL4/cfe/fsw/cfe-core/src/sb/cfe_sb_api.c ****         */
1522:/home/simulink/cFS_FreeRTOS_seL4/cfe/fsw/cfe-core/src/sb/cfe_sb_api.c ****         PipeDscPtr->CurrentBuff = Message;
 4104               	.loc 1 1522 0
 4105 23ee 202F 002C 	move.l 44(%sp),%d0
 4106 23f2 206F 0034 	move.l 52(%sp),%a0
 4107 23f6 2140 003C 	move.l %d0,60(%a0)
1523:/home/simulink/cFS_FreeRTOS_seL4/cfe/fsw/cfe-core/src/sb/cfe_sb_api.c **** 
1524:/home/simulink/cFS_FreeRTOS_seL4/cfe/fsw/cfe-core/src/sb/cfe_sb_api.c ****         /* Set the Receivers pointer to the address of the actual message */
1525:/home/simulink/cFS_FreeRTOS_seL4/cfe/fsw/cfe-core/src/sb/cfe_sb_api.c ****         *BufPtr = (CFE_SB_MsgPtr_t) Message->Buffer;
 4108               	.loc 1 1525 0
 4109 23fa 206F 002C 	move.l 44(%sp),%a0
 4110 23fe 2028 0008 	move.l 8(%a0),%d0
 4111 2402 206F 0044 	move.l 68(%sp),%a0
 4112 2406 2080      	move.l %d0,(%a0)
1526:/home/simulink/cFS_FreeRTOS_seL4/cfe/fsw/cfe-core/src/sb/cfe_sb_api.c **** 
1527:/home/simulink/cFS_FreeRTOS_seL4/cfe/fsw/cfe-core/src/sb/cfe_sb_api.c ****         /* get pointer to destination to be used in decrementing msg limit cnt*/
1528:/home/simulink/cFS_FreeRTOS_seL4/cfe/fsw/cfe-core/src/sb/cfe_sb_api.c ****         DestPtr = CFE_SB_GetDestPtr(PipeDscPtr->CurrentBuff->MsgId, PipeDscPtr->PipeId);
 4113               	.loc 1 1528 0
 4114 2408 206F 0034 	move.l 52(%sp),%a0
 4115 240c 1028 0001 	move.b 1(%a0),%d0
 4116 2410 4281      	clr.l %d1
 4117 2412 1200      	move.b %d0,%d1
 4118 2414 206F 0034 	move.l 52(%sp),%a0
 4119 2418 2068 003C 	move.l 60(%a0),%a0
 4120 241c 3010      	move.w (%a0),%d0
 4121 241e 3000      	move.w %d0,%d0
 4122 2420 0280 0000 	and.l #65535,%d0
 4122      FFFF 
 4123 2426 2F01      	move.l %d1,-(%sp)
 4124               	.cfi_def_cfa_offset 72
 4125 2428 2F00      	move.l %d0,-(%sp)
 4126               	.cfi_def_cfa_offset 76
 4127 242a 4EB9 0000 	jsr CFE_SB_GetDestPtr
 4127      0000 
 4128 2430 508F      	addq.l #8,%sp
 4129               	.cfi_def_cfa_offset 68
 4130 2432 2F40 003C 	move.l %d0,60(%sp)
1529:/home/simulink/cFS_FreeRTOS_seL4/cfe/fsw/cfe-core/src/sb/cfe_sb_api.c **** 
1530:/home/simulink/cFS_FreeRTOS_seL4/cfe/fsw/cfe-core/src/sb/cfe_sb_api.c ****         /*
1531:/home/simulink/cFS_FreeRTOS_seL4/cfe/fsw/cfe-core/src/sb/cfe_sb_api.c ****         ** DestPtr would be NULL if the msg is unsubscribed to while it is on
1532:/home/simulink/cFS_FreeRTOS_seL4/cfe/fsw/cfe-core/src/sb/cfe_sb_api.c ****         ** the pipe. The BuffCount may be zero if the msg is unsubscribed to and
1533:/home/simulink/cFS_FreeRTOS_seL4/cfe/fsw/cfe-core/src/sb/cfe_sb_api.c ****         ** then resubscribed to while it is on the pipe. Both of these cases are
1534:/home/simulink/cFS_FreeRTOS_seL4/cfe/fsw/cfe-core/src/sb/cfe_sb_api.c ****         ** considered nominal and are handled by the code below.
1535:/home/simulink/cFS_FreeRTOS_seL4/cfe/fsw/cfe-core/src/sb/cfe_sb_api.c ****         */
1536:/home/simulink/cFS_FreeRTOS_seL4/cfe/fsw/cfe-core/src/sb/cfe_sb_api.c ****         if(DestPtr != NULL){
 4131               	.loc 1 1536 0
 4132 2436 4AAF 003C 	tst.l 60(%sp)
 4133 243a 6720      	jeq .L115
1537:/home/simulink/cFS_FreeRTOS_seL4/cfe/fsw/cfe-core/src/sb/cfe_sb_api.c **** 
68K GAS   			page 113


1538:/home/simulink/cFS_FreeRTOS_seL4/cfe/fsw/cfe-core/src/sb/cfe_sb_api.c ****             if (DestPtr->BuffCount > 0){
 4134               	.loc 1 1538 0
 4135 243c 206F 003C 	move.l 60(%sp),%a0
 4136 2440 3028 0004 	move.w 4(%a0),%d0
 4137 2444 4A40      	tst.w %d0
 4138 2446 6714      	jeq .L115
1539:/home/simulink/cFS_FreeRTOS_seL4/cfe/fsw/cfe-core/src/sb/cfe_sb_api.c ****                 DestPtr->BuffCount--;
 4139               	.loc 1 1539 0
 4140 2448 206F 003C 	move.l 60(%sp),%a0
 4141 244c 3028 0004 	move.w 4(%a0),%d0
 4142 2450 5380      	subq.l #1,%d0
 4143 2452 3000      	move.w %d0,%d0
 4144 2454 206F 003C 	move.l 60(%sp),%a0
 4145 2458 3140 0004 	move.w %d0,4(%a0)
 4146               	.L115:
1540:/home/simulink/cFS_FreeRTOS_seL4/cfe/fsw/cfe-core/src/sb/cfe_sb_api.c ****             }
1541:/home/simulink/cFS_FreeRTOS_seL4/cfe/fsw/cfe-core/src/sb/cfe_sb_api.c **** 
1542:/home/simulink/cFS_FreeRTOS_seL4/cfe/fsw/cfe-core/src/sb/cfe_sb_api.c ****         }/* end if DestPtr != NULL */
1543:/home/simulink/cFS_FreeRTOS_seL4/cfe/fsw/cfe-core/src/sb/cfe_sb_api.c **** 
1544:/home/simulink/cFS_FreeRTOS_seL4/cfe/fsw/cfe-core/src/sb/cfe_sb_api.c ****         if (PipeDscPtr->PipeId < CFE_SB_TLM_PIPEDEPTHSTATS_SIZE)
 4147               	.loc 1 1544 0
 4148 245c 206F 0034 	move.l 52(%sp),%a0
 4149 2460 1028 0001 	move.b 1(%a0),%d0
 4150 2464 1000      	move.b %d0,%d0
 4151 2466 0280 0000 	and.l #255,%d0
 4151      00FF 
 4152 246c 723F      	moveq #63,%d1
 4153 246e B280      	cmp.l %d0,%d1
 4154 2470 6542      	jcs .L117
1545:/home/simulink/cFS_FreeRTOS_seL4/cfe/fsw/cfe-core/src/sb/cfe_sb_api.c ****         {
1546:/home/simulink/cFS_FreeRTOS_seL4/cfe/fsw/cfe-core/src/sb/cfe_sb_api.c ****         CFE_SB.StatTlmMsg.Payload.PipeDepthStats[PipeDscPtr->PipeId].InUse--;
 4155               	.loc 1 1546 0
 4156 2472 206F 0034 	move.l 52(%sp),%a0
 4157 2476 1028 0001 	move.b 1(%a0),%d0
 4158 247a 1000      	move.b %d0,%d0
 4159 247c 0280 0000 	and.l #255,%d0
 4159      00FF 
 4160 2482 2200      	move.l %d0,%d1
 4161 2484 0681 0000 	add.l #577,%d1
 4161      0241 
 4162 248a E789      	lsl.l #3,%d1
 4163 248c 41F9 0000 	lea CFE_SB,%a0
 4163      0000 
 4164 2492 3230 1800 	move.w (%a0,%d1.l),%d1
 4165 2496 5381      	subq.l #1,%d1
 4166 2498 3201      	move.w %d1,%d1
 4167 249a 0680 0000 	add.l #577,%d0
 4167      0241 
 4168 24a0 E788      	lsl.l #3,%d0
 4169 24a2 41F9 0000 	lea CFE_SB,%a0
 4169      0000 
 4170 24a8 3181 0800 	move.w %d1,(%a0,%d0.l)
 4171 24ac 6006      	jra .L117
 4172               	.L114:
1547:/home/simulink/cFS_FreeRTOS_seL4/cfe/fsw/cfe-core/src/sb/cfe_sb_api.c ****         }
1548:/home/simulink/cFS_FreeRTOS_seL4/cfe/fsw/cfe-core/src/sb/cfe_sb_api.c **** 
1549:/home/simulink/cFS_FreeRTOS_seL4/cfe/fsw/cfe-core/src/sb/cfe_sb_api.c ****     }else{
68K GAS   			page 114


1550:/home/simulink/cFS_FreeRTOS_seL4/cfe/fsw/cfe-core/src/sb/cfe_sb_api.c **** 
1551:/home/simulink/cFS_FreeRTOS_seL4/cfe/fsw/cfe-core/src/sb/cfe_sb_api.c ****         /* Set the users pointer to NULL indicating the CFE_SB_ReadQueue failed */
1552:/home/simulink/cFS_FreeRTOS_seL4/cfe/fsw/cfe-core/src/sb/cfe_sb_api.c ****         *BufPtr = NULL;
 4173               	.loc 1 1552 0
 4174 24ae 206F 0044 	move.l 68(%sp),%a0
 4175 24b2 4290      	clr.l (%a0)
 4176               	.L117:
1553:/home/simulink/cFS_FreeRTOS_seL4/cfe/fsw/cfe-core/src/sb/cfe_sb_api.c **** 
1554:/home/simulink/cFS_FreeRTOS_seL4/cfe/fsw/cfe-core/src/sb/cfe_sb_api.c ****     }/* end if */
1555:/home/simulink/cFS_FreeRTOS_seL4/cfe/fsw/cfe-core/src/sb/cfe_sb_api.c **** 
1556:/home/simulink/cFS_FreeRTOS_seL4/cfe/fsw/cfe-core/src/sb/cfe_sb_api.c ****     /* release the semaphore */
1557:/home/simulink/cFS_FreeRTOS_seL4/cfe/fsw/cfe-core/src/sb/cfe_sb_api.c ****     CFE_SB_UnlockSharedData(__func__,__LINE__);
 4177               	.loc 1 1557 0
 4178 24b4 4878 0615 	pea 1557.w
 4179               	.cfi_def_cfa_offset 72
 4180 24b8 4879 0000 	pea __func__.5737
 4180      0000 
 4181               	.cfi_def_cfa_offset 76
 4182 24be 4EB9 0000 	jsr CFE_SB_UnlockSharedData
 4182      0000 
 4183 24c4 508F      	addq.l #8,%sp
 4184               	.cfi_def_cfa_offset 68
1558:/home/simulink/cFS_FreeRTOS_seL4/cfe/fsw/cfe-core/src/sb/cfe_sb_api.c **** 
1559:/home/simulink/cFS_FreeRTOS_seL4/cfe/fsw/cfe-core/src/sb/cfe_sb_api.c ****     /*
1560:/home/simulink/cFS_FreeRTOS_seL4/cfe/fsw/cfe-core/src/sb/cfe_sb_api.c ****     ** If status is not CFE_SUCCESS, then no packet was received.  If this was
1561:/home/simulink/cFS_FreeRTOS_seL4/cfe/fsw/cfe-core/src/sb/cfe_sb_api.c ****     ** caused by an unexpected error, then CFE_SB_ReadQueue() will report the
1562:/home/simulink/cFS_FreeRTOS_seL4/cfe/fsw/cfe-core/src/sb/cfe_sb_api.c ****     ** error.
1563:/home/simulink/cFS_FreeRTOS_seL4/cfe/fsw/cfe-core/src/sb/cfe_sb_api.c ****     */
1564:/home/simulink/cFS_FreeRTOS_seL4/cfe/fsw/cfe-core/src/sb/cfe_sb_api.c ****     return Status;
 4185               	.loc 1 1564 0
 4186 24c6 202F 0030 	move.l 48(%sp),%d0
 4187               	.L118:
1565:/home/simulink/cFS_FreeRTOS_seL4/cfe/fsw/cfe-core/src/sb/cfe_sb_api.c **** 
1566:/home/simulink/cFS_FreeRTOS_seL4/cfe/fsw/cfe-core/src/sb/cfe_sb_api.c **** }/* end CFE_SB_RcvMsg */
 4188               	.loc 1 1566 0 discriminator 1
 4189 24ca 4FEF 0040 	lea (64,%sp),%sp
 4190 24ce 4E75      	rts
 4191               	.cfi_endproc
 4192               	.LFE74:
 4193               	.sizeCFE_SB_RcvMsg, .-CFE_SB_RcvMsg
 4194               	.section.rodata
 4195               	.LC32:
 4196 068b 5342 2047 	.string"SB GetLastSender Err:Rcvd Null Ptr,Pipe=%d,App=%s"
 4196      6574 4C61 
 4196      7374 5365 
 4196      6E64 6572 
 4196      2045 7272 
 4197               	.LC33:
 4198 06bd 5342 2047 	.string"SB GetLastSender Err:Rcvd Invalid Pipe=%d,App=%s"
 4198      6574 4C61 
 4198      7374 5365 
 4198      6E64 6572 
 4198      2045 7272 
 4199               	.LC34:
 4200 06ee 5342 2047 	.string"SB GetLastSender Err:Caller(%s) is not the owner of pipe %d"
 4200      6574 4C61 
 4200      7374 5365 
68K GAS   			page 115


 4200      6E64 6572 
 4200      2045 7272 
 4201               	.text
 4202               	.align2
 4203               	.globlCFE_SB_GetLastSenderId
 4204               	.typeCFE_SB_GetLastSenderId, @function
 4205               	CFE_SB_GetLastSenderId:
 4206               	.LFB75:
1567:/home/simulink/cFS_FreeRTOS_seL4/cfe/fsw/cfe-core/src/sb/cfe_sb_api.c **** 
1568:/home/simulink/cFS_FreeRTOS_seL4/cfe/fsw/cfe-core/src/sb/cfe_sb_api.c **** 
1569:/home/simulink/cFS_FreeRTOS_seL4/cfe/fsw/cfe-core/src/sb/cfe_sb_api.c **** /******************************************************************************
1570:/home/simulink/cFS_FreeRTOS_seL4/cfe/fsw/cfe-core/src/sb/cfe_sb_api.c **** ** Name:    CFE_SB_GetLastSenderId
1571:/home/simulink/cFS_FreeRTOS_seL4/cfe/fsw/cfe-core/src/sb/cfe_sb_api.c **** **
1572:/home/simulink/cFS_FreeRTOS_seL4/cfe/fsw/cfe-core/src/sb/cfe_sb_api.c **** ** Purpose: API used for receiving sender Information of the last message received on
1573:/home/simulink/cFS_FreeRTOS_seL4/cfe/fsw/cfe-core/src/sb/cfe_sb_api.c **** **          the given pipe.
1574:/home/simulink/cFS_FreeRTOS_seL4/cfe/fsw/cfe-core/src/sb/cfe_sb_api.c **** **
1575:/home/simulink/cFS_FreeRTOS_seL4/cfe/fsw/cfe-core/src/sb/cfe_sb_api.c **** ** Assumptions, External Events, and Notes:
1576:/home/simulink/cFS_FreeRTOS_seL4/cfe/fsw/cfe-core/src/sb/cfe_sb_api.c **** **          None
1577:/home/simulink/cFS_FreeRTOS_seL4/cfe/fsw/cfe-core/src/sb/cfe_sb_api.c **** **
1578:/home/simulink/cFS_FreeRTOS_seL4/cfe/fsw/cfe-core/src/sb/cfe_sb_api.c **** ** Date Written:
1579:/home/simulink/cFS_FreeRTOS_seL4/cfe/fsw/cfe-core/src/sb/cfe_sb_api.c **** **          06/13/2007
1580:/home/simulink/cFS_FreeRTOS_seL4/cfe/fsw/cfe-core/src/sb/cfe_sb_api.c **** **
1581:/home/simulink/cFS_FreeRTOS_seL4/cfe/fsw/cfe-core/src/sb/cfe_sb_api.c **** ** Input Arguments:
1582:/home/simulink/cFS_FreeRTOS_seL4/cfe/fsw/cfe-core/src/sb/cfe_sb_api.c **** **          Ptr -     caller declares a ptr of type CFE_SB_SenderId_t then gives the
1583:/home/simulink/cFS_FreeRTOS_seL4/cfe/fsw/cfe-core/src/sb/cfe_sb_api.c **** **                    address of that pointer.
1584:/home/simulink/cFS_FreeRTOS_seL4/cfe/fsw/cfe-core/src/sb/cfe_sb_api.c **** **          PipeId -  the Pipe Id that the message was received on.
1585:/home/simulink/cFS_FreeRTOS_seL4/cfe/fsw/cfe-core/src/sb/cfe_sb_api.c **** **
1586:/home/simulink/cFS_FreeRTOS_seL4/cfe/fsw/cfe-core/src/sb/cfe_sb_api.c **** ** Output Arguments:
1587:/home/simulink/cFS_FreeRTOS_seL4/cfe/fsw/cfe-core/src/sb/cfe_sb_api.c **** **          None
1588:/home/simulink/cFS_FreeRTOS_seL4/cfe/fsw/cfe-core/src/sb/cfe_sb_api.c **** **
1589:/home/simulink/cFS_FreeRTOS_seL4/cfe/fsw/cfe-core/src/sb/cfe_sb_api.c **** ** Return Values:
1590:/home/simulink/cFS_FreeRTOS_seL4/cfe/fsw/cfe-core/src/sb/cfe_sb_api.c **** **          Status
1591:/home/simulink/cFS_FreeRTOS_seL4/cfe/fsw/cfe-core/src/sb/cfe_sb_api.c **** **
1592:/home/simulink/cFS_FreeRTOS_seL4/cfe/fsw/cfe-core/src/sb/cfe_sb_api.c **** ******************************************************************************/
1593:/home/simulink/cFS_FreeRTOS_seL4/cfe/fsw/cfe-core/src/sb/cfe_sb_api.c **** uint32  CFE_SB_GetLastSenderId(CFE_SB_SenderId_t **Ptr,CFE_SB_PipeId_t  PipeId)
1594:/home/simulink/cFS_FreeRTOS_seL4/cfe/fsw/cfe-core/src/sb/cfe_sb_api.c **** {
 4207               	.loc 1 1594 0
 4208               	.cfi_startproc
 4209 24d0 4FEF FFC8 	lea (-56,%sp),%sp
 4210               	.cfi_def_cfa_offset 60
 4211 24d4 2F02      	move.l %d2,-(%sp)
 4212               	.cfi_def_cfa_offset 64
 4213               	.cfi_offset 2, -64
 4214 24d6 202F 0044 	move.l 68(%sp),%d0
 4215 24da 1000      	move.b %d0,%d0
 4216 24dc 1F40 0004 	move.b %d0,4(%sp)
1595:/home/simulink/cFS_FreeRTOS_seL4/cfe/fsw/cfe-core/src/sb/cfe_sb_api.c **** 
1596:/home/simulink/cFS_FreeRTOS_seL4/cfe/fsw/cfe-core/src/sb/cfe_sb_api.c ****     CFE_SB_BufferD_t *Ptr2BufDescriptor;
1597:/home/simulink/cFS_FreeRTOS_seL4/cfe/fsw/cfe-core/src/sb/cfe_sb_api.c ****     uint32            TskId = 0;
 4217               	.loc 1 1597 0
 4218 24e0 42AF 0038 	clr.l 56(%sp)
1598:/home/simulink/cFS_FreeRTOS_seL4/cfe/fsw/cfe-core/src/sb/cfe_sb_api.c ****     uint32            AppId = 0xFFFFFFFF;
 4219               	.loc 1 1598 0
 4220 24e4 70FF      	moveq #-1,%d0
 4221 24e6 2F40 0030 	move.l %d0,48(%sp)
1599:/home/simulink/cFS_FreeRTOS_seL4/cfe/fsw/cfe-core/src/sb/cfe_sb_api.c ****     char              FullName[(OS_MAX_API_NAME * 2)];
1600:/home/simulink/cFS_FreeRTOS_seL4/cfe/fsw/cfe-core/src/sb/cfe_sb_api.c **** 
68K GAS   			page 116


1601:/home/simulink/cFS_FreeRTOS_seL4/cfe/fsw/cfe-core/src/sb/cfe_sb_api.c ****     TskId = OS_TaskGetId();
 4222               	.loc 1 1601 0
 4223 24ea 4EB9 0000 	jsr OS_TaskGetId
 4223      0000 
 4224 24f0 2F40 0038 	move.l %d0,56(%sp)
1602:/home/simulink/cFS_FreeRTOS_seL4/cfe/fsw/cfe-core/src/sb/cfe_sb_api.c **** 
1603:/home/simulink/cFS_FreeRTOS_seL4/cfe/fsw/cfe-core/src/sb/cfe_sb_api.c ****     /* validate ptr  - note: must validate ptr before pipe id validation  */
1604:/home/simulink/cFS_FreeRTOS_seL4/cfe/fsw/cfe-core/src/sb/cfe_sb_api.c ****     /* because an invalid pipe id sets the callers pointer to NULL */
1605:/home/simulink/cFS_FreeRTOS_seL4/cfe/fsw/cfe-core/src/sb/cfe_sb_api.c ****     if(Ptr == NULL){
 4225               	.loc 1 1605 0
 4226 24f4 4AAF 0040 	tst.l 64(%sp)
 4227 24f8 6648      	jne .L120
1606:/home/simulink/cFS_FreeRTOS_seL4/cfe/fsw/cfe-core/src/sb/cfe_sb_api.c ****       CFE_EVS_SendEventWithAppID(CFE_SB_LSTSNDER_ERR1_EID,CFE_EVS_ERROR,CFE_SB.AppId,
 4228               	.loc 1 1606 0
 4229 24fa 200F      	move.l %sp,%d0
 4230 24fc 5080      	addq.l #8,%d0
 4231 24fe 2F00      	move.l %d0,-(%sp)
 4232               	.cfi_def_cfa_offset 68
 4233 2500 2F2F 003C 	move.l 60(%sp),-(%sp)
 4234               	.cfi_def_cfa_offset 72
 4235 2504 4EB9 0000 	jsr CFE_SB_GetAppTskName
 4235      0000 
 4236 250a 508F      	addq.l #8,%sp
 4237               	.cfi_def_cfa_offset 64
 4238 250c 2040      	move.l %d0,%a0
 4239 250e 4280      	clr.l %d0
 4240 2510 102F 0004 	move.b 4(%sp),%d0
 4241 2514 2239 0000 	move.l CFE_SB+12,%d1
 4241      0000 
 4242 251a 2F08      	move.l %a0,-(%sp)
 4243               	.cfi_def_cfa_offset 68
 4244 251c 2F00      	move.l %d0,-(%sp)
 4245               	.cfi_def_cfa_offset 72
 4246 251e 4879 0000 	pea .LC32
 4246      0000 
 4247               	.cfi_def_cfa_offset 76
 4248 2524 2F01      	move.l %d1,-(%sp)
 4249               	.cfi_def_cfa_offset 80
 4250 2526 4878 0003 	pea 3.w
 4251               	.cfi_def_cfa_offset 84
 4252 252a 4878 001E 	pea 30.w
 4253               	.cfi_def_cfa_offset 88
 4254 252e 4EB9 0000 	jsr CFE_EVS_SendEventWithAppID
 4254      0000 
 4255 2534 4FEF 0018 	lea (24,%sp),%sp
 4256               	.cfi_def_cfa_offset 64
1607:/home/simulink/cFS_FreeRTOS_seL4/cfe/fsw/cfe-core/src/sb/cfe_sb_api.c ****           "SB GetLastSender Err:Rcvd Null Ptr,Pipe=%d,App=%s",
1608:/home/simulink/cFS_FreeRTOS_seL4/cfe/fsw/cfe-core/src/sb/cfe_sb_api.c ****           PipeId,CFE_SB_GetAppTskName(TskId,FullName));
1609:/home/simulink/cFS_FreeRTOS_seL4/cfe/fsw/cfe-core/src/sb/cfe_sb_api.c ****       return CFE_SB_BAD_ARGUMENT;
 4257               	.loc 1 1609 0
 4258 2538 203C CA00 	move.l #-905969661,%d0
 4258      0003 
 4259 253e 6000 0142 	jra .L124
 4260               	.L120:
1610:/home/simulink/cFS_FreeRTOS_seL4/cfe/fsw/cfe-core/src/sb/cfe_sb_api.c ****     }/* end if */
1611:/home/simulink/cFS_FreeRTOS_seL4/cfe/fsw/cfe-core/src/sb/cfe_sb_api.c **** 
1612:/home/simulink/cFS_FreeRTOS_seL4/cfe/fsw/cfe-core/src/sb/cfe_sb_api.c ****     /* validate pipe id */
68K GAS   			page 117


1613:/home/simulink/cFS_FreeRTOS_seL4/cfe/fsw/cfe-core/src/sb/cfe_sb_api.c ****     if(CFE_SB_ValidatePipeId(PipeId)!=CFE_SUCCESS){
 4261               	.loc 1 1613 0
 4262 2542 4280      	clr.l %d0
 4263 2544 102F 0004 	move.b 4(%sp),%d0
 4264 2548 2F00      	move.l %d0,-(%sp)
 4265               	.cfi_def_cfa_offset 68
 4266 254a 4EB9 0000 	jsr CFE_SB_ValidatePipeId
 4266      0000 
 4267 2550 588F      	addq.l #4,%sp
 4268               	.cfi_def_cfa_offset 64
 4269 2552 4A80      	tst.l %d0
 4270 2554 674E      	jeq .L122
1614:/home/simulink/cFS_FreeRTOS_seL4/cfe/fsw/cfe-core/src/sb/cfe_sb_api.c ****       *Ptr = NULL;
 4271               	.loc 1 1614 0
 4272 2556 206F 0040 	move.l 64(%sp),%a0
 4273 255a 4290      	clr.l (%a0)
1615:/home/simulink/cFS_FreeRTOS_seL4/cfe/fsw/cfe-core/src/sb/cfe_sb_api.c ****       CFE_EVS_SendEventWithAppID(CFE_SB_LSTSNDER_ERR2_EID,CFE_EVS_ERROR,CFE_SB.AppId,
 4274               	.loc 1 1615 0
 4275 255c 200F      	move.l %sp,%d0
 4276 255e 5080      	addq.l #8,%d0
 4277 2560 2F00      	move.l %d0,-(%sp)
 4278               	.cfi_def_cfa_offset 68
 4279 2562 2F2F 003C 	move.l 60(%sp),-(%sp)
 4280               	.cfi_def_cfa_offset 72
 4281 2566 4EB9 0000 	jsr CFE_SB_GetAppTskName
 4281      0000 
 4282 256c 508F      	addq.l #8,%sp
 4283               	.cfi_def_cfa_offset 64
 4284 256e 2040      	move.l %d0,%a0
 4285 2570 4280      	clr.l %d0
 4286 2572 102F 0004 	move.b 4(%sp),%d0
 4287 2576 2239 0000 	move.l CFE_SB+12,%d1
 4287      0000 
 4288 257c 2F08      	move.l %a0,-(%sp)
 4289               	.cfi_def_cfa_offset 68
 4290 257e 2F00      	move.l %d0,-(%sp)
 4291               	.cfi_def_cfa_offset 72
 4292 2580 4879 0000 	pea .LC33
 4292      0000 
 4293               	.cfi_def_cfa_offset 76
 4294 2586 2F01      	move.l %d1,-(%sp)
 4295               	.cfi_def_cfa_offset 80
 4296 2588 4878 0003 	pea 3.w
 4297               	.cfi_def_cfa_offset 84
 4298 258c 4878 001F 	pea 31.w
 4299               	.cfi_def_cfa_offset 88
 4300 2590 4EB9 0000 	jsr CFE_EVS_SendEventWithAppID
 4300      0000 
 4301 2596 4FEF 0018 	lea (24,%sp),%sp
 4302               	.cfi_def_cfa_offset 64
1616:/home/simulink/cFS_FreeRTOS_seL4/cfe/fsw/cfe-core/src/sb/cfe_sb_api.c ****           "SB GetLastSender Err:Rcvd Invalid Pipe=%d,App=%s",
1617:/home/simulink/cFS_FreeRTOS_seL4/cfe/fsw/cfe-core/src/sb/cfe_sb_api.c ****           (int)PipeId,CFE_SB_GetAppTskName(TskId,FullName));
1618:/home/simulink/cFS_FreeRTOS_seL4/cfe/fsw/cfe-core/src/sb/cfe_sb_api.c ****       return CFE_SB_BAD_ARGUMENT;
 4303               	.loc 1 1618 0
 4304 259a 203C CA00 	move.l #-905969661,%d0
 4304      0003 
 4305 25a0 6000 00E0 	jra .L124
68K GAS   			page 118


 4306               	.L122:
1619:/home/simulink/cFS_FreeRTOS_seL4/cfe/fsw/cfe-core/src/sb/cfe_sb_api.c ****     }/* end if */
1620:/home/simulink/cFS_FreeRTOS_seL4/cfe/fsw/cfe-core/src/sb/cfe_sb_api.c **** 
1621:/home/simulink/cFS_FreeRTOS_seL4/cfe/fsw/cfe-core/src/sb/cfe_sb_api.c ****     CFE_ES_GetAppID(&AppId);
 4307               	.loc 1 1621 0
 4308 25a4 200F      	move.l %sp,%d0
 4309 25a6 0680 0000 	add.l #48,%d0
 4309      0030 
 4310 25ac 2F00      	move.l %d0,-(%sp)
 4311               	.cfi_def_cfa_offset 68
 4312 25ae 4EB9 0000 	jsr CFE_ES_GetAppID
 4312      0000 
 4313 25b4 588F      	addq.l #4,%sp
 4314               	.cfi_def_cfa_offset 64
1622:/home/simulink/cFS_FreeRTOS_seL4/cfe/fsw/cfe-core/src/sb/cfe_sb_api.c **** 
1623:/home/simulink/cFS_FreeRTOS_seL4/cfe/fsw/cfe-core/src/sb/cfe_sb_api.c ****     CFE_SB_LockSharedData(__func__,__LINE__);
 4315               	.loc 1 1623 0
 4316 25b6 4878 0657 	pea 1623.w
 4317               	.cfi_def_cfa_offset 68
 4318 25ba 4879 0000 	pea __func__.5746
 4318      0000 
 4319               	.cfi_def_cfa_offset 72
 4320 25c0 4EB9 0000 	jsr CFE_SB_LockSharedData
 4320      0000 
 4321 25c6 508F      	addq.l #8,%sp
 4322               	.cfi_def_cfa_offset 64
1624:/home/simulink/cFS_FreeRTOS_seL4/cfe/fsw/cfe-core/src/sb/cfe_sb_api.c **** 
1625:/home/simulink/cFS_FreeRTOS_seL4/cfe/fsw/cfe-core/src/sb/cfe_sb_api.c ****     /* verify requestor is owner of pipe */
1626:/home/simulink/cFS_FreeRTOS_seL4/cfe/fsw/cfe-core/src/sb/cfe_sb_api.c ****     if(CFE_SB.PipeTbl[PipeId].AppId != AppId){
 4323               	.loc 1 1626 0
 4324 25c8 4280      	clr.l %d0
 4325 25ca 102F 0004 	move.b 4(%sp),%d0
 4326 25ce 7244      	moveq #68,%d1
 4327 25d0 4C01 0800 	muls.l %d1,%d0
 4328 25d4 41F9 0000 	lea CFE_SB+192,%a0
 4328      0000 
 4329 25da 2230 0800 	move.l (%a0,%d0.l),%d1
 4330 25de 202F 0030 	move.l 48(%sp),%d0
 4331 25e2 B081      	cmp.l %d1,%d0
 4332 25e4 675E      	jeq .L123
1627:/home/simulink/cFS_FreeRTOS_seL4/cfe/fsw/cfe-core/src/sb/cfe_sb_api.c ****       *Ptr = NULL;
 4333               	.loc 1 1627 0
 4334 25e6 206F 0040 	move.l 64(%sp),%a0
 4335 25ea 4290      	clr.l (%a0)
1628:/home/simulink/cFS_FreeRTOS_seL4/cfe/fsw/cfe-core/src/sb/cfe_sb_api.c ****       CFE_SB_UnlockSharedData(__func__,__LINE__);
 4336               	.loc 1 1628 0
 4337 25ec 4878 065C 	pea 1628.w
 4338               	.cfi_def_cfa_offset 68
 4339 25f0 4879 0000 	pea __func__.5746
 4339      0000 
 4340               	.cfi_def_cfa_offset 72
 4341 25f6 4EB9 0000 	jsr CFE_SB_UnlockSharedData
 4341      0000 
 4342 25fc 508F      	addq.l #8,%sp
 4343               	.cfi_def_cfa_offset 64
1629:/home/simulink/cFS_FreeRTOS_seL4/cfe/fsw/cfe-core/src/sb/cfe_sb_api.c ****       CFE_EVS_SendEventWithAppID(CFE_SB_GLS_INV_CALLER_EID,CFE_EVS_ERROR,CFE_SB.AppId,
 4344               	.loc 1 1629 0
68K GAS   			page 119


 4345 25fe 4282      	clr.l %d2
 4346 2600 142F 0004 	move.b 4(%sp),%d2
 4347 2604 200F      	move.l %sp,%d0
 4348 2606 5080      	addq.l #8,%d0
 4349 2608 2F00      	move.l %d0,-(%sp)
 4350               	.cfi_def_cfa_offset 68
 4351 260a 2F2F 003C 	move.l 60(%sp),-(%sp)
 4352               	.cfi_def_cfa_offset 72
 4353 260e 4EB9 0000 	jsr CFE_SB_GetAppTskName
 4353      0000 
 4354 2614 508F      	addq.l #8,%sp
 4355               	.cfi_def_cfa_offset 64
 4356 2616 2200      	move.l %d0,%d1
 4357 2618 2039 0000 	move.l CFE_SB+12,%d0
 4357      0000 
 4358 261e 2F02      	move.l %d2,-(%sp)
 4359               	.cfi_def_cfa_offset 68
 4360 2620 2F01      	move.l %d1,-(%sp)
 4361               	.cfi_def_cfa_offset 72
 4362 2622 4879 0000 	pea .LC34
 4362      0000 
 4363               	.cfi_def_cfa_offset 76
 4364 2628 2F00      	move.l %d0,-(%sp)
 4365               	.cfi_def_cfa_offset 80
 4366 262a 4878 0003 	pea 3.w
 4367               	.cfi_def_cfa_offset 84
 4368 262e 4878 0029 	pea 41.w
 4369               	.cfi_def_cfa_offset 88
 4370 2632 4EB9 0000 	jsr CFE_EVS_SendEventWithAppID
 4370      0000 
 4371 2638 4FEF 0018 	lea (24,%sp),%sp
 4372               	.cfi_def_cfa_offset 64
1630:/home/simulink/cFS_FreeRTOS_seL4/cfe/fsw/cfe-core/src/sb/cfe_sb_api.c ****           "SB GetLastSender Err:Caller(%s) is not the owner of pipe %d",
1631:/home/simulink/cFS_FreeRTOS_seL4/cfe/fsw/cfe-core/src/sb/cfe_sb_api.c ****           CFE_SB_GetAppTskName(TskId,FullName),(int)PipeId);
1632:/home/simulink/cFS_FreeRTOS_seL4/cfe/fsw/cfe-core/src/sb/cfe_sb_api.c ****       return CFE_SB_BAD_ARGUMENT;
 4373               	.loc 1 1632 0
 4374 263c 203C CA00 	move.l #-905969661,%d0
 4374      0003 
 4375 2642 603E      	jra .L124
 4376               	.L123:
1633:/home/simulink/cFS_FreeRTOS_seL4/cfe/fsw/cfe-core/src/sb/cfe_sb_api.c ****     }/* end if */
1634:/home/simulink/cFS_FreeRTOS_seL4/cfe/fsw/cfe-core/src/sb/cfe_sb_api.c **** 
1635:/home/simulink/cFS_FreeRTOS_seL4/cfe/fsw/cfe-core/src/sb/cfe_sb_api.c ****     /* Get ptr to buffer descriptor for the last msg received on the given pipe */
1636:/home/simulink/cFS_FreeRTOS_seL4/cfe/fsw/cfe-core/src/sb/cfe_sb_api.c ****     Ptr2BufDescriptor = CFE_SB.PipeTbl[PipeId].CurrentBuff;
 4377               	.loc 1 1636 0
 4378 2644 4280      	clr.l %d0
 4379 2646 102F 0004 	move.b 4(%sp),%d0
 4380 264a 7244      	moveq #68,%d1
 4381 264c 4C01 0800 	muls.l %d1,%d0
 4382 2650 41F9 0000 	lea CFE_SB+208,%a0
 4382      0000 
 4383 2656 43F0 0800 	lea (%a0,%d0.l),%a1
 4384 265a 2F51 0034 	move.l (%a1),52(%sp)
1637:/home/simulink/cFS_FreeRTOS_seL4/cfe/fsw/cfe-core/src/sb/cfe_sb_api.c **** 
1638:/home/simulink/cFS_FreeRTOS_seL4/cfe/fsw/cfe-core/src/sb/cfe_sb_api.c ****     /* Set the receivers pointer to the adr of 'Sender' struct in buf descriptor */
1639:/home/simulink/cFS_FreeRTOS_seL4/cfe/fsw/cfe-core/src/sb/cfe_sb_api.c ****     *Ptr = (CFE_SB_SenderId_t *) &Ptr2BufDescriptor -> Sender;
 4385               	.loc 1 1639 0
68K GAS   			page 120


 4386 265e 202F 0034 	move.l 52(%sp),%d0
 4387 2662 0680 0000 	add.l #12,%d0
 4387      000C 
 4388 2668 206F 0040 	move.l 64(%sp),%a0
 4389 266c 2080      	move.l %d0,(%a0)
1640:/home/simulink/cFS_FreeRTOS_seL4/cfe/fsw/cfe-core/src/sb/cfe_sb_api.c **** 
1641:/home/simulink/cFS_FreeRTOS_seL4/cfe/fsw/cfe-core/src/sb/cfe_sb_api.c ****     CFE_SB_UnlockSharedData(__func__,__LINE__);
 4390               	.loc 1 1641 0
 4391 266e 4878 0669 	pea 1641.w
 4392               	.cfi_def_cfa_offset 68
 4393 2672 4879 0000 	pea __func__.5746
 4393      0000 
 4394               	.cfi_def_cfa_offset 72
 4395 2678 4EB9 0000 	jsr CFE_SB_UnlockSharedData
 4395      0000 
 4396 267e 508F      	addq.l #8,%sp
 4397               	.cfi_def_cfa_offset 64
1642:/home/simulink/cFS_FreeRTOS_seL4/cfe/fsw/cfe-core/src/sb/cfe_sb_api.c **** 
1643:/home/simulink/cFS_FreeRTOS_seL4/cfe/fsw/cfe-core/src/sb/cfe_sb_api.c ****     return CFE_SUCCESS;
 4398               	.loc 1 1643 0
 4399 2680 4280      	clr.l %d0
 4400               	.L124:
1644:/home/simulink/cFS_FreeRTOS_seL4/cfe/fsw/cfe-core/src/sb/cfe_sb_api.c **** 
1645:/home/simulink/cFS_FreeRTOS_seL4/cfe/fsw/cfe-core/src/sb/cfe_sb_api.c **** }/* end CFE_SB_GetLastSenderId */
 4401               	.loc 1 1645 0 discriminator 1
 4402 2682 241F      	move.l (%sp)+,%d2
 4403 2684 4FEF 0038 	lea (56,%sp),%sp
 4404 2688 4E75      	rts
 4405               	.cfi_endproc
 4406               	.LFE75:
 4407               	.sizeCFE_SB_GetLastSenderId, .-CFE_SB_GetLastSenderId
 4408               	.align2
 4409               	.globlCFE_SB_ZeroCopyGetPtr
 4410               	.typeCFE_SB_ZeroCopyGetPtr, @function
 4411               	CFE_SB_ZeroCopyGetPtr:
 4412               	.LFB76:
1646:/home/simulink/cFS_FreeRTOS_seL4/cfe/fsw/cfe-core/src/sb/cfe_sb_api.c **** 
1647:/home/simulink/cFS_FreeRTOS_seL4/cfe/fsw/cfe-core/src/sb/cfe_sb_api.c **** 
1648:/home/simulink/cFS_FreeRTOS_seL4/cfe/fsw/cfe-core/src/sb/cfe_sb_api.c **** /******************************************************************************
1649:/home/simulink/cFS_FreeRTOS_seL4/cfe/fsw/cfe-core/src/sb/cfe_sb_api.c **** ** Name:    CFE_SB_ZeroCopyGetPtr
1650:/home/simulink/cFS_FreeRTOS_seL4/cfe/fsw/cfe-core/src/sb/cfe_sb_api.c **** **
1651:/home/simulink/cFS_FreeRTOS_seL4/cfe/fsw/cfe-core/src/sb/cfe_sb_api.c **** ** Purpose: API used for for getting a pointer to a buffer (for zero copy mode
1652:/home/simulink/cFS_FreeRTOS_seL4/cfe/fsw/cfe-core/src/sb/cfe_sb_api.c **** **          only)
1653:/home/simulink/cFS_FreeRTOS_seL4/cfe/fsw/cfe-core/src/sb/cfe_sb_api.c **** **
1654:/home/simulink/cFS_FreeRTOS_seL4/cfe/fsw/cfe-core/src/sb/cfe_sb_api.c **** ** Assumptions, External Events, and Notes:
1655:/home/simulink/cFS_FreeRTOS_seL4/cfe/fsw/cfe-core/src/sb/cfe_sb_api.c **** **          None
1656:/home/simulink/cFS_FreeRTOS_seL4/cfe/fsw/cfe-core/src/sb/cfe_sb_api.c **** **
1657:/home/simulink/cFS_FreeRTOS_seL4/cfe/fsw/cfe-core/src/sb/cfe_sb_api.c **** ** Date Written:
1658:/home/simulink/cFS_FreeRTOS_seL4/cfe/fsw/cfe-core/src/sb/cfe_sb_api.c **** **          04/25/2005
1659:/home/simulink/cFS_FreeRTOS_seL4/cfe/fsw/cfe-core/src/sb/cfe_sb_api.c **** **
1660:/home/simulink/cFS_FreeRTOS_seL4/cfe/fsw/cfe-core/src/sb/cfe_sb_api.c **** ** Input Arguments:
1661:/home/simulink/cFS_FreeRTOS_seL4/cfe/fsw/cfe-core/src/sb/cfe_sb_api.c **** **          MsgSize
1662:/home/simulink/cFS_FreeRTOS_seL4/cfe/fsw/cfe-core/src/sb/cfe_sb_api.c **** **
1663:/home/simulink/cFS_FreeRTOS_seL4/cfe/fsw/cfe-core/src/sb/cfe_sb_api.c **** ** Output Arguments:
1664:/home/simulink/cFS_FreeRTOS_seL4/cfe/fsw/cfe-core/src/sb/cfe_sb_api.c **** **          BufferHandle
1665:/home/simulink/cFS_FreeRTOS_seL4/cfe/fsw/cfe-core/src/sb/cfe_sb_api.c **** **
1666:/home/simulink/cFS_FreeRTOS_seL4/cfe/fsw/cfe-core/src/sb/cfe_sb_api.c **** ** Return Values:
68K GAS   			page 121


1667:/home/simulink/cFS_FreeRTOS_seL4/cfe/fsw/cfe-core/src/sb/cfe_sb_api.c **** **          Pointer to an empty buffer in SB Memory space, or NULL if the buffer
1668:/home/simulink/cFS_FreeRTOS_seL4/cfe/fsw/cfe-core/src/sb/cfe_sb_api.c **** **          could not be allocated.
1669:/home/simulink/cFS_FreeRTOS_seL4/cfe/fsw/cfe-core/src/sb/cfe_sb_api.c **** **
1670:/home/simulink/cFS_FreeRTOS_seL4/cfe/fsw/cfe-core/src/sb/cfe_sb_api.c **** ******************************************************************************/
1671:/home/simulink/cFS_FreeRTOS_seL4/cfe/fsw/cfe-core/src/sb/cfe_sb_api.c **** 
1672:/home/simulink/cFS_FreeRTOS_seL4/cfe/fsw/cfe-core/src/sb/cfe_sb_api.c **** CFE_SB_Msg_t  *CFE_SB_ZeroCopyGetPtr(uint16 MsgSize,
1673:/home/simulink/cFS_FreeRTOS_seL4/cfe/fsw/cfe-core/src/sb/cfe_sb_api.c ****                                      CFE_SB_ZeroCopyHandle_t *BufferHandle)
1674:/home/simulink/cFS_FreeRTOS_seL4/cfe/fsw/cfe-core/src/sb/cfe_sb_api.c **** {
 4413               	.loc 1 1674 0
 4414               	.cfi_startproc
 4415 268a 4FEF FFE8 	lea (-24,%sp),%sp
 4416               	.cfi_def_cfa_offset 28
 4417 268e 2F02      	move.l %d2,-(%sp)
 4418               	.cfi_def_cfa_offset 32
 4419               	.cfi_offset 2, -32
 4420 2690 202F 0020 	move.l 32(%sp),%d0
 4421 2694 3000      	move.w %d0,%d0
 4422 2696 3F40 0004 	move.w %d0,4(%sp)
1675:/home/simulink/cFS_FreeRTOS_seL4/cfe/fsw/cfe-core/src/sb/cfe_sb_api.c ****    int32                stat1;
1676:/home/simulink/cFS_FreeRTOS_seL4/cfe/fsw/cfe-core/src/sb/cfe_sb_api.c ****    uint32               AppId = 0xFFFFFFFF;
 4423               	.loc 1 1676 0
 4424 269a 70FF      	moveq #-1,%d0
 4425 269c 2F40 0010 	move.l %d0,16(%sp)
1677:/home/simulink/cFS_FreeRTOS_seL4/cfe/fsw/cfe-core/src/sb/cfe_sb_api.c ****    uint8               *address = NULL;
 4426               	.loc 1 1677 0
 4427 26a0 42AF 0018 	clr.l 24(%sp)
1678:/home/simulink/cFS_FreeRTOS_seL4/cfe/fsw/cfe-core/src/sb/cfe_sb_api.c ****    CFE_SB_ZeroCopyD_t  *zcd = NULL;
 4428               	.loc 1 1678 0
 4429 26a4 42AF 000C 	clr.l 12(%sp)
1679:/home/simulink/cFS_FreeRTOS_seL4/cfe/fsw/cfe-core/src/sb/cfe_sb_api.c ****    CFE_SB_BufferD_t    *bd = NULL;
 4430               	.loc 1 1679 0
 4431 26a8 42AF 0008 	clr.l 8(%sp)
1680:/home/simulink/cFS_FreeRTOS_seL4/cfe/fsw/cfe-core/src/sb/cfe_sb_api.c **** 
1681:/home/simulink/cFS_FreeRTOS_seL4/cfe/fsw/cfe-core/src/sb/cfe_sb_api.c ****     CFE_SB_LockSharedData(__func__,__LINE__);
 4432               	.loc 1 1681 0
 4433 26ac 4878 0691 	pea 1681.w
 4434               	.cfi_def_cfa_offset 36
 4435 26b0 4879 0000 	pea __func__.5756
 4435      0000 
 4436               	.cfi_def_cfa_offset 40
 4437 26b6 4EB9 0000 	jsr CFE_SB_LockSharedData
 4437      0000 
 4438 26bc 508F      	addq.l #8,%sp
 4439               	.cfi_def_cfa_offset 32
1682:/home/simulink/cFS_FreeRTOS_seL4/cfe/fsw/cfe-core/src/sb/cfe_sb_api.c **** 
1683:/home/simulink/cFS_FreeRTOS_seL4/cfe/fsw/cfe-core/src/sb/cfe_sb_api.c ****     /* Allocate a new zero copy descriptor from the SB memory pool.*/
1684:/home/simulink/cFS_FreeRTOS_seL4/cfe/fsw/cfe-core/src/sb/cfe_sb_api.c ****     stat1 = CFE_ES_GetPoolBuf((uint32 **)&zcd, CFE_SB.Mem.PoolHdl,  sizeof(CFE_SB_ZeroCopyD_t));
 4440               	.loc 1 1684 0
 4441 26be 2039 0000 	move.l CFE_SB+5132,%d0
 4441      0000 
 4442 26c4 4878 0014 	pea 20.w
 4443               	.cfi_def_cfa_offset 36
 4444 26c8 2F00      	move.l %d0,-(%sp)
 4445               	.cfi_def_cfa_offset 40
 4446 26ca 200F      	move.l %sp,%d0
 4447 26cc 0680 0000 	add.l #20,%d0
 4447      0014 
68K GAS   			page 122


 4448 26d2 2F00      	move.l %d0,-(%sp)
 4449               	.cfi_def_cfa_offset 44
 4450 26d4 4EB9 0000 	jsr CFE_ES_GetPoolBuf
 4450      0000 
 4451 26da 4FEF 000C 	lea (12,%sp),%sp
 4452               	.cfi_def_cfa_offset 32
 4453 26de 2F40 0014 	move.l %d0,20(%sp)
1685:/home/simulink/cFS_FreeRTOS_seL4/cfe/fsw/cfe-core/src/sb/cfe_sb_api.c ****     if(stat1 < 0){
 4454               	.loc 1 1685 0
 4455 26e2 4AAF 0014 	tst.l 20(%sp)
 4456 26e6 6C18      	jge .L126
1686:/home/simulink/cFS_FreeRTOS_seL4/cfe/fsw/cfe-core/src/sb/cfe_sb_api.c ****         CFE_SB_UnlockSharedData(__func__,__LINE__);
 4457               	.loc 1 1686 0
 4458 26e8 4878 0696 	pea 1686.w
 4459               	.cfi_def_cfa_offset 36
 4460 26ec 4879 0000 	pea __func__.5756
 4460      0000 
 4461               	.cfi_def_cfa_offset 40
 4462 26f2 4EB9 0000 	jsr CFE_SB_UnlockSharedData
 4462      0000 
 4463 26f8 508F      	addq.l #8,%sp
 4464               	.cfi_def_cfa_offset 32
1687:/home/simulink/cFS_FreeRTOS_seL4/cfe/fsw/cfe-core/src/sb/cfe_sb_api.c ****         return NULL;
 4465               	.loc 1 1687 0
 4466 26fa 4280      	clr.l %d0
 4467 26fc 6000 01CC 	jra .L135
 4468               	.L126:
1688:/home/simulink/cFS_FreeRTOS_seL4/cfe/fsw/cfe-core/src/sb/cfe_sb_api.c ****     }
1689:/home/simulink/cFS_FreeRTOS_seL4/cfe/fsw/cfe-core/src/sb/cfe_sb_api.c **** 
1690:/home/simulink/cFS_FreeRTOS_seL4/cfe/fsw/cfe-core/src/sb/cfe_sb_api.c ****     /* Add the size of a zero copy descriptor to the memory-in-use ctr and */
1691:/home/simulink/cFS_FreeRTOS_seL4/cfe/fsw/cfe-core/src/sb/cfe_sb_api.c ****     /* adjust the high water mark if needed */
1692:/home/simulink/cFS_FreeRTOS_seL4/cfe/fsw/cfe-core/src/sb/cfe_sb_api.c ****     CFE_SB.StatTlmMsg.Payload.MemInUse+=stat1;
 4469               	.loc 1 1692 0
 4470 2700 2239 0000 	move.l CFE_SB+4576,%d1
 4470      0000 
 4471 2706 202F 0014 	move.l 20(%sp),%d0
 4472 270a D081      	add.l %d1,%d0
 4473 270c 23C0 0000 	move.l %d0,CFE_SB+4576
 4473      0000 
1693:/home/simulink/cFS_FreeRTOS_seL4/cfe/fsw/cfe-core/src/sb/cfe_sb_api.c ****     if(CFE_SB.StatTlmMsg.Payload.MemInUse > CFE_SB.StatTlmMsg.Payload.PeakMemInUse){
 4474               	.loc 1 1693 0
 4475 2712 2239 0000 	move.l CFE_SB+4576,%d1
 4475      0000 
 4476 2718 2039 0000 	move.l CFE_SB+4580,%d0
 4476      0000 
 4477 271e B081      	cmp.l %d1,%d0
 4478 2720 640C      	jcc .L128
1694:/home/simulink/cFS_FreeRTOS_seL4/cfe/fsw/cfe-core/src/sb/cfe_sb_api.c ****        CFE_SB.StatTlmMsg.Payload.PeakMemInUse = CFE_SB.StatTlmMsg.Payload.MemInUse;
 4479               	.loc 1 1694 0
 4480 2722 2039 0000 	move.l CFE_SB+4576,%d0
 4480      0000 
 4481 2728 23C0 0000 	move.l %d0,CFE_SB+4580
 4481      0000 
 4482               	.L128:
1695:/home/simulink/cFS_FreeRTOS_seL4/cfe/fsw/cfe-core/src/sb/cfe_sb_api.c ****     }/* end if */
1696:/home/simulink/cFS_FreeRTOS_seL4/cfe/fsw/cfe-core/src/sb/cfe_sb_api.c **** 
1697:/home/simulink/cFS_FreeRTOS_seL4/cfe/fsw/cfe-core/src/sb/cfe_sb_api.c ****     /* Allocate a new buffer (from the SB memory pool) to hold the message  */
68K GAS   			page 123


1698:/home/simulink/cFS_FreeRTOS_seL4/cfe/fsw/cfe-core/src/sb/cfe_sb_api.c ****     stat1 = CFE_ES_GetPoolBuf((uint32 **)&bd, CFE_SB.Mem.PoolHdl, MsgSize + sizeof(CFE_SB_BufferD_t
 4483               	.loc 1 1698 0
 4484 272e 4280      	clr.l %d0
 4485 2730 302F 0004 	move.w 4(%sp),%d0
 4486 2734 0680 0000 	add.l #36,%d0
 4486      0024 
 4487 273a 2239 0000 	move.l CFE_SB+5132,%d1
 4487      0000 
 4488 2740 2F00      	move.l %d0,-(%sp)
 4489               	.cfi_def_cfa_offset 36
 4490 2742 2F01      	move.l %d1,-(%sp)
 4491               	.cfi_def_cfa_offset 40
 4492 2744 200F      	move.l %sp,%d0
 4493 2746 0680 0000 	add.l #16,%d0
 4493      0010 
 4494 274c 2F00      	move.l %d0,-(%sp)
 4495               	.cfi_def_cfa_offset 44
 4496 274e 4EB9 0000 	jsr CFE_ES_GetPoolBuf
 4496      0000 
 4497 2754 4FEF 000C 	lea (12,%sp),%sp
 4498               	.cfi_def_cfa_offset 32
 4499 2758 2F40 0014 	move.l %d0,20(%sp)
1699:/home/simulink/cFS_FreeRTOS_seL4/cfe/fsw/cfe-core/src/sb/cfe_sb_api.c ****     if((stat1 < 0)||(bd==NULL)){
 4500               	.loc 1 1699 0
 4501 275c 4AAF 0014 	tst.l 20(%sp)
 4502 2760 6D08      	jlt .L129
 4503               	.loc 1 1699 0 is_stmt 0 discriminator 1
 4504 2762 202F 0008 	move.l 8(%sp),%d0
 4505 2766 4A80      	tst.l %d0
 4506 2768 664E      	jne .L130
 4507               	.L129:
1700:/home/simulink/cFS_FreeRTOS_seL4/cfe/fsw/cfe-core/src/sb/cfe_sb_api.c ****         /*deallocate the first buffer if the second buffer creation fails*/
1701:/home/simulink/cFS_FreeRTOS_seL4/cfe/fsw/cfe-core/src/sb/cfe_sb_api.c ****         stat1 = CFE_ES_PutPoolBuf(CFE_SB.Mem.PoolHdl, (uint32 *)zcd);
 4508               	.loc 1 1701 0 is_stmt 1
 4509 276a 222F 000C 	move.l 12(%sp),%d1
 4510 276e 2039 0000 	move.l CFE_SB+5132,%d0
 4510      0000 
 4511 2774 2F01      	move.l %d1,-(%sp)
 4512               	.cfi_def_cfa_offset 36
 4513 2776 2F00      	move.l %d0,-(%sp)
 4514               	.cfi_def_cfa_offset 40
 4515 2778 4EB9 0000 	jsr CFE_ES_PutPoolBuf
 4515      0000 
 4516 277e 508F      	addq.l #8,%sp
 4517               	.cfi_def_cfa_offset 32
 4518 2780 2F40 0014 	move.l %d0,20(%sp)
1702:/home/simulink/cFS_FreeRTOS_seL4/cfe/fsw/cfe-core/src/sb/cfe_sb_api.c ****         if(stat1 > 0){
 4519               	.loc 1 1702 0
 4520 2784 4AAF 0014 	tst.l 20(%sp)
 4521 2788 6F16      	jle .L131
1703:/home/simulink/cFS_FreeRTOS_seL4/cfe/fsw/cfe-core/src/sb/cfe_sb_api.c ****             CFE_SB.StatTlmMsg.Payload.MemInUse-=stat1;
 4522               	.loc 1 1703 0
 4523 278a 2239 0000 	move.l CFE_SB+4576,%d1
 4523      0000 
 4524 2790 202F 0014 	move.l 20(%sp),%d0
 4525 2794 2401      	move.l %d1,%d2
 4526 2796 9480      	sub.l %d0,%d2
68K GAS   			page 124


 4527 2798 2002      	move.l %d2,%d0
 4528 279a 23C0 0000 	move.l %d0,CFE_SB+4576
 4528      0000 
 4529               	.L131:
1704:/home/simulink/cFS_FreeRTOS_seL4/cfe/fsw/cfe-core/src/sb/cfe_sb_api.c ****         }
1705:/home/simulink/cFS_FreeRTOS_seL4/cfe/fsw/cfe-core/src/sb/cfe_sb_api.c ****         CFE_SB_UnlockSharedData(__func__,__LINE__);
 4530               	.loc 1 1705 0
 4531 27a0 4878 06A9 	pea 1705.w
 4532               	.cfi_def_cfa_offset 36
 4533 27a4 4879 0000 	pea __func__.5756
 4533      0000 
 4534               	.cfi_def_cfa_offset 40
 4535 27aa 4EB9 0000 	jsr CFE_SB_UnlockSharedData
 4535      0000 
 4536 27b0 508F      	addq.l #8,%sp
 4537               	.cfi_def_cfa_offset 32
1706:/home/simulink/cFS_FreeRTOS_seL4/cfe/fsw/cfe-core/src/sb/cfe_sb_api.c ****         return NULL;
 4538               	.loc 1 1706 0
 4539 27b2 4280      	clr.l %d0
 4540 27b4 6000 0114 	jra .L135
 4541               	.L130:
1707:/home/simulink/cFS_FreeRTOS_seL4/cfe/fsw/cfe-core/src/sb/cfe_sb_api.c ****     }
1708:/home/simulink/cFS_FreeRTOS_seL4/cfe/fsw/cfe-core/src/sb/cfe_sb_api.c **** 
1709:/home/simulink/cFS_FreeRTOS_seL4/cfe/fsw/cfe-core/src/sb/cfe_sb_api.c ****     /* Increment the number of buffers in use by one even though two buffers */
1710:/home/simulink/cFS_FreeRTOS_seL4/cfe/fsw/cfe-core/src/sb/cfe_sb_api.c ****     /* were allocated. SBBuffersInUse increments on a per-message basis */
1711:/home/simulink/cFS_FreeRTOS_seL4/cfe/fsw/cfe-core/src/sb/cfe_sb_api.c ****     CFE_SB.StatTlmMsg.Payload.SBBuffersInUse++;
 4542               	.loc 1 1711 0
 4543 27b8 2039 0000 	move.l CFE_SB+4600,%d0
 4543      0000 
 4544 27be 5280      	addq.l #1,%d0
 4545 27c0 23C0 0000 	move.l %d0,CFE_SB+4600
 4545      0000 
1712:/home/simulink/cFS_FreeRTOS_seL4/cfe/fsw/cfe-core/src/sb/cfe_sb_api.c ****     if(CFE_SB.StatTlmMsg.Payload.SBBuffersInUse > CFE_SB.StatTlmMsg.Payload.PeakSBBuffersInUse){
 4546               	.loc 1 1712 0
 4547 27c6 2239 0000 	move.l CFE_SB+4600,%d1
 4547      0000 
 4548 27cc 2039 0000 	move.l CFE_SB+4604,%d0
 4548      0000 
 4549 27d2 B081      	cmp.l %d1,%d0
 4550 27d4 640C      	jcc .L132
1713:/home/simulink/cFS_FreeRTOS_seL4/cfe/fsw/cfe-core/src/sb/cfe_sb_api.c ****         CFE_SB.StatTlmMsg.Payload.PeakSBBuffersInUse = CFE_SB.StatTlmMsg.Payload.SBBuffersInUse;
 4551               	.loc 1 1713 0
 4552 27d6 2039 0000 	move.l CFE_SB+4600,%d0
 4552      0000 
 4553 27dc 23C0 0000 	move.l %d0,CFE_SB+4604
 4553      0000 
 4554               	.L132:
1714:/home/simulink/cFS_FreeRTOS_seL4/cfe/fsw/cfe-core/src/sb/cfe_sb_api.c ****     }/* end if */
1715:/home/simulink/cFS_FreeRTOS_seL4/cfe/fsw/cfe-core/src/sb/cfe_sb_api.c **** 
1716:/home/simulink/cFS_FreeRTOS_seL4/cfe/fsw/cfe-core/src/sb/cfe_sb_api.c ****     /* Add the size of the actual buffer to the memory-in-use ctr and */
1717:/home/simulink/cFS_FreeRTOS_seL4/cfe/fsw/cfe-core/src/sb/cfe_sb_api.c ****     /* adjust the high water mark if needed */
1718:/home/simulink/cFS_FreeRTOS_seL4/cfe/fsw/cfe-core/src/sb/cfe_sb_api.c ****     CFE_SB.StatTlmMsg.Payload.MemInUse+=stat1;
 4555               	.loc 1 1718 0
 4556 27e2 2239 0000 	move.l CFE_SB+4576,%d1
 4556      0000 
 4557 27e8 202F 0014 	move.l 20(%sp),%d0
 4558 27ec D081      	add.l %d1,%d0
68K GAS   			page 125


 4559 27ee 23C0 0000 	move.l %d0,CFE_SB+4576
 4559      0000 
1719:/home/simulink/cFS_FreeRTOS_seL4/cfe/fsw/cfe-core/src/sb/cfe_sb_api.c ****     if(CFE_SB.StatTlmMsg.Payload.MemInUse > CFE_SB.StatTlmMsg.Payload.PeakMemInUse){
 4560               	.loc 1 1719 0
 4561 27f4 2239 0000 	move.l CFE_SB+4576,%d1
 4561      0000 
 4562 27fa 2039 0000 	move.l CFE_SB+4580,%d0
 4562      0000 
 4563 2800 B081      	cmp.l %d1,%d0
 4564 2802 640C      	jcc .L133
1720:/home/simulink/cFS_FreeRTOS_seL4/cfe/fsw/cfe-core/src/sb/cfe_sb_api.c ****        CFE_SB.StatTlmMsg.Payload.PeakMemInUse = CFE_SB.StatTlmMsg.Payload.MemInUse;
 4565               	.loc 1 1720 0
 4566 2804 2039 0000 	move.l CFE_SB+4576,%d0
 4566      0000 
 4567 280a 23C0 0000 	move.l %d0,CFE_SB+4580
 4567      0000 
 4568               	.L133:
1721:/home/simulink/cFS_FreeRTOS_seL4/cfe/fsw/cfe-core/src/sb/cfe_sb_api.c ****     }/* end if */
1722:/home/simulink/cFS_FreeRTOS_seL4/cfe/fsw/cfe-core/src/sb/cfe_sb_api.c **** 
1723:/home/simulink/cFS_FreeRTOS_seL4/cfe/fsw/cfe-core/src/sb/cfe_sb_api.c ****     /* first set ptr to actual msg buffer the same as ptr to descriptor */
1724:/home/simulink/cFS_FreeRTOS_seL4/cfe/fsw/cfe-core/src/sb/cfe_sb_api.c ****     address = (uint8 *)bd;
 4569               	.loc 1 1724 0
 4570 2810 2F6F 0008 	move.l 8(%sp),24(%sp)
 4570      0018 
1725:/home/simulink/cFS_FreeRTOS_seL4/cfe/fsw/cfe-core/src/sb/cfe_sb_api.c **** 
1726:/home/simulink/cFS_FreeRTOS_seL4/cfe/fsw/cfe-core/src/sb/cfe_sb_api.c ****     /* increment actual msg buffer ptr beyond the descriptor */
1727:/home/simulink/cFS_FreeRTOS_seL4/cfe/fsw/cfe-core/src/sb/cfe_sb_api.c ****     address += sizeof(CFE_SB_BufferD_t);
 4571               	.loc 1 1727 0
 4572 2816 7024      	moveq #36,%d0
 4573 2818 D1AF 0018 	add.l %d0,24(%sp)
1728:/home/simulink/cFS_FreeRTOS_seL4/cfe/fsw/cfe-core/src/sb/cfe_sb_api.c **** 
1729:/home/simulink/cFS_FreeRTOS_seL4/cfe/fsw/cfe-core/src/sb/cfe_sb_api.c ****     /* Initialize the zero copy descriptor structure. */
1730:/home/simulink/cFS_FreeRTOS_seL4/cfe/fsw/cfe-core/src/sb/cfe_sb_api.c ****     zcd->Size      = MsgSize;
 4574               	.loc 1 1730 0
 4575 281c 206F 000C 	move.l 12(%sp),%a0
 4576 2820 4280      	clr.l %d0
 4577 2822 302F 0004 	move.w 4(%sp),%d0
 4578 2826 2140 0004 	move.l %d0,4(%a0)
1731:/home/simulink/cFS_FreeRTOS_seL4/cfe/fsw/cfe-core/src/sb/cfe_sb_api.c ****     zcd->Buffer    = (void *)address;
 4579               	.loc 1 1731 0
 4580 282a 206F 000C 	move.l 12(%sp),%a0
 4581 282e 216F 0018 	move.l 24(%sp),8(%a0)
 4581      0008 
1732:/home/simulink/cFS_FreeRTOS_seL4/cfe/fsw/cfe-core/src/sb/cfe_sb_api.c ****     zcd->Next      = NULL;
 4582               	.loc 1 1732 0
 4583 2834 206F 000C 	move.l 12(%sp),%a0
 4584 2838 42A8 000C 	clr.l 12(%a0)
1733:/home/simulink/cFS_FreeRTOS_seL4/cfe/fsw/cfe-core/src/sb/cfe_sb_api.c **** 
1734:/home/simulink/cFS_FreeRTOS_seL4/cfe/fsw/cfe-core/src/sb/cfe_sb_api.c ****     /* Add this Zero Copy Descriptor to the end of the chain */
1735:/home/simulink/cFS_FreeRTOS_seL4/cfe/fsw/cfe-core/src/sb/cfe_sb_api.c ****     if(CFE_SB.ZeroCopyTail != NULL){
 4585               	.loc 1 1735 0
 4586 283c 2039 0000 	move.l CFE_SB+144,%d0
 4586      0000 
 4587 2842 4A80      	tst.l %d0
 4588 2844 670E      	jeq .L134
1736:/home/simulink/cFS_FreeRTOS_seL4/cfe/fsw/cfe-core/src/sb/cfe_sb_api.c ****         ((CFE_SB_ZeroCopyD_t *) CFE_SB.ZeroCopyTail)->Next = (void *)zcd;
 4589               	.loc 1 1736 0
68K GAS   			page 126


 4590 2846 2079 0000 	move.l CFE_SB+144,%a0
 4590      0000 
 4591 284c 202F 000C 	move.l 12(%sp),%d0
 4592 2850 2140 000C 	move.l %d0,12(%a0)
 4593               	.L134:
1737:/home/simulink/cFS_FreeRTOS_seL4/cfe/fsw/cfe-core/src/sb/cfe_sb_api.c ****     }
1738:/home/simulink/cFS_FreeRTOS_seL4/cfe/fsw/cfe-core/src/sb/cfe_sb_api.c ****     zcd->Prev = CFE_SB.ZeroCopyTail;
 4594               	.loc 1 1738 0
 4595 2854 206F 000C 	move.l 12(%sp),%a0
 4596 2858 2039 0000 	move.l CFE_SB+144,%d0
 4596      0000 
 4597 285e 2140 0010 	move.l %d0,16(%a0)
1739:/home/simulink/cFS_FreeRTOS_seL4/cfe/fsw/cfe-core/src/sb/cfe_sb_api.c ****     CFE_SB.ZeroCopyTail = (void *)zcd;
 4598               	.loc 1 1739 0
 4599 2862 202F 000C 	move.l 12(%sp),%d0
 4600 2866 23C0 0000 	move.l %d0,CFE_SB+144
 4600      0000 
1740:/home/simulink/cFS_FreeRTOS_seL4/cfe/fsw/cfe-core/src/sb/cfe_sb_api.c **** 
1741:/home/simulink/cFS_FreeRTOS_seL4/cfe/fsw/cfe-core/src/sb/cfe_sb_api.c ****     CFE_SB_UnlockSharedData(__func__,__LINE__);
 4601               	.loc 1 1741 0
 4602 286c 4878 06CD 	pea 1741.w
 4603               	.cfi_def_cfa_offset 36
 4604 2870 4879 0000 	pea __func__.5756
 4604      0000 
 4605               	.cfi_def_cfa_offset 40
 4606 2876 4EB9 0000 	jsr CFE_SB_UnlockSharedData
 4606      0000 
 4607 287c 508F      	addq.l #8,%sp
 4608               	.cfi_def_cfa_offset 32
1742:/home/simulink/cFS_FreeRTOS_seL4/cfe/fsw/cfe-core/src/sb/cfe_sb_api.c **** 
1743:/home/simulink/cFS_FreeRTOS_seL4/cfe/fsw/cfe-core/src/sb/cfe_sb_api.c ****     /* get callers AppId */
1744:/home/simulink/cFS_FreeRTOS_seL4/cfe/fsw/cfe-core/src/sb/cfe_sb_api.c ****     CFE_ES_GetAppID(&AppId);
 4609               	.loc 1 1744 0
 4610 287e 200F      	move.l %sp,%d0
 4611 2880 0680 0000 	add.l #16,%d0
 4611      0010 
 4612 2886 2F00      	move.l %d0,-(%sp)
 4613               	.cfi_def_cfa_offset 36
 4614 2888 4EB9 0000 	jsr CFE_ES_GetAppID
 4614      0000 
 4615 288e 588F      	addq.l #4,%sp
 4616               	.cfi_def_cfa_offset 32
1745:/home/simulink/cFS_FreeRTOS_seL4/cfe/fsw/cfe-core/src/sb/cfe_sb_api.c ****     zcd->AppID     = AppId;
 4617               	.loc 1 1745 0
 4618 2890 206F 000C 	move.l 12(%sp),%a0
 4619 2894 202F 0010 	move.l 16(%sp),%d0
 4620 2898 2080      	move.l %d0,(%a0)
1746:/home/simulink/cFS_FreeRTOS_seL4/cfe/fsw/cfe-core/src/sb/cfe_sb_api.c **** 
1747:/home/simulink/cFS_FreeRTOS_seL4/cfe/fsw/cfe-core/src/sb/cfe_sb_api.c ****     (*BufferHandle) = (CFE_SB_ZeroCopyHandle_t) zcd;
 4621               	.loc 1 1747 0
 4622 289a 202F 000C 	move.l 12(%sp),%d0
 4623 289e 206F 0024 	move.l 36(%sp),%a0
 4624 28a2 2080      	move.l %d0,(%a0)
1748:/home/simulink/cFS_FreeRTOS_seL4/cfe/fsw/cfe-core/src/sb/cfe_sb_api.c **** 
1749:/home/simulink/cFS_FreeRTOS_seL4/cfe/fsw/cfe-core/src/sb/cfe_sb_api.c ****     /* Initialize the buffer descriptor structure. */
1750:/home/simulink/cFS_FreeRTOS_seL4/cfe/fsw/cfe-core/src/sb/cfe_sb_api.c ****     bd->UseCount  = 1;
 4625               	.loc 1 1750 0
68K GAS   			page 127


 4626 28a4 206F 0008 	move.l 8(%sp),%a0
 4627 28a8 7401      	moveq #1,%d2
 4628 28aa 3142 0002 	move.w %d2,2(%a0)
1751:/home/simulink/cFS_FreeRTOS_seL4/cfe/fsw/cfe-core/src/sb/cfe_sb_api.c ****     bd->Size      = MsgSize;
 4629               	.loc 1 1751 0
 4630 28ae 206F 0008 	move.l 8(%sp),%a0
 4631 28b2 4280      	clr.l %d0
 4632 28b4 302F 0004 	move.w 4(%sp),%d0
 4633 28b8 2140 0004 	move.l %d0,4(%a0)
1752:/home/simulink/cFS_FreeRTOS_seL4/cfe/fsw/cfe-core/src/sb/cfe_sb_api.c ****     bd->Buffer    = (void *)address;
 4634               	.loc 1 1752 0
 4635 28bc 206F 0008 	move.l 8(%sp),%a0
 4636 28c0 216F 0018 	move.l 24(%sp),8(%a0)
 4636      0008 
1753:/home/simulink/cFS_FreeRTOS_seL4/cfe/fsw/cfe-core/src/sb/cfe_sb_api.c **** 
1754:/home/simulink/cFS_FreeRTOS_seL4/cfe/fsw/cfe-core/src/sb/cfe_sb_api.c ****     return (CFE_SB_Msg_t *)address;
 4637               	.loc 1 1754 0
 4638 28c6 202F 0018 	move.l 24(%sp),%d0
 4639               	.L135:
1755:/home/simulink/cFS_FreeRTOS_seL4/cfe/fsw/cfe-core/src/sb/cfe_sb_api.c **** 
1756:/home/simulink/cFS_FreeRTOS_seL4/cfe/fsw/cfe-core/src/sb/cfe_sb_api.c **** }/* CFE_SB_ZeroCopyGetPtr */
 4640               	.loc 1 1756 0 discriminator 1
 4641 28ca 241F      	move.l (%sp)+,%d2
 4642 28cc 4FEF 0018 	lea (24,%sp),%sp
 4643 28d0 4E75      	rts
 4644               	.cfi_endproc
 4645               	.LFE76:
 4646               	.sizeCFE_SB_ZeroCopyGetPtr, .-CFE_SB_ZeroCopyGetPtr
 4647               	.align2
 4648               	.globlCFE_SB_ZeroCopyReleasePtr
 4649               	.typeCFE_SB_ZeroCopyReleasePtr, @function
 4650               	CFE_SB_ZeroCopyReleasePtr:
 4651               	.LFB77:
1757:/home/simulink/cFS_FreeRTOS_seL4/cfe/fsw/cfe-core/src/sb/cfe_sb_api.c **** 
1758:/home/simulink/cFS_FreeRTOS_seL4/cfe/fsw/cfe-core/src/sb/cfe_sb_api.c **** 
1759:/home/simulink/cFS_FreeRTOS_seL4/cfe/fsw/cfe-core/src/sb/cfe_sb_api.c **** /******************************************************************************
1760:/home/simulink/cFS_FreeRTOS_seL4/cfe/fsw/cfe-core/src/sb/cfe_sb_api.c **** ** Name:    CFE_SB_ZeroCopyReleasePtr
1761:/home/simulink/cFS_FreeRTOS_seL4/cfe/fsw/cfe-core/src/sb/cfe_sb_api.c **** **
1762:/home/simulink/cFS_FreeRTOS_seL4/cfe/fsw/cfe-core/src/sb/cfe_sb_api.c **** ** Purpose: API used for releasing a pointer to a buffer (for zero copy mode
1763:/home/simulink/cFS_FreeRTOS_seL4/cfe/fsw/cfe-core/src/sb/cfe_sb_api.c **** **          only) This function is typically not needed for zero copy transfers.
1764:/home/simulink/cFS_FreeRTOS_seL4/cfe/fsw/cfe-core/src/sb/cfe_sb_api.c **** **          This function is needed only when a ptr is received via
1765:/home/simulink/cFS_FreeRTOS_seL4/cfe/fsw/cfe-core/src/sb/cfe_sb_api.c **** **          CFE_SB_ZeroCopyGetPtr, but never used in a send.
1766:/home/simulink/cFS_FreeRTOS_seL4/cfe/fsw/cfe-core/src/sb/cfe_sb_api.c **** **
1767:/home/simulink/cFS_FreeRTOS_seL4/cfe/fsw/cfe-core/src/sb/cfe_sb_api.c **** ** Assumptions, External Events, and Notes:
1768:/home/simulink/cFS_FreeRTOS_seL4/cfe/fsw/cfe-core/src/sb/cfe_sb_api.c **** **          None
1769:/home/simulink/cFS_FreeRTOS_seL4/cfe/fsw/cfe-core/src/sb/cfe_sb_api.c **** **
1770:/home/simulink/cFS_FreeRTOS_seL4/cfe/fsw/cfe-core/src/sb/cfe_sb_api.c **** ** Date Written:
1771:/home/simulink/cFS_FreeRTOS_seL4/cfe/fsw/cfe-core/src/sb/cfe_sb_api.c **** **          04/25/2005
1772:/home/simulink/cFS_FreeRTOS_seL4/cfe/fsw/cfe-core/src/sb/cfe_sb_api.c **** **
1773:/home/simulink/cFS_FreeRTOS_seL4/cfe/fsw/cfe-core/src/sb/cfe_sb_api.c **** ** Input Arguments:
1774:/home/simulink/cFS_FreeRTOS_seL4/cfe/fsw/cfe-core/src/sb/cfe_sb_api.c **** **          Ptr2Release
1775:/home/simulink/cFS_FreeRTOS_seL4/cfe/fsw/cfe-core/src/sb/cfe_sb_api.c **** **          BufferHandle
1776:/home/simulink/cFS_FreeRTOS_seL4/cfe/fsw/cfe-core/src/sb/cfe_sb_api.c **** **
1777:/home/simulink/cFS_FreeRTOS_seL4/cfe/fsw/cfe-core/src/sb/cfe_sb_api.c **** ** Output Arguments:
1778:/home/simulink/cFS_FreeRTOS_seL4/cfe/fsw/cfe-core/src/sb/cfe_sb_api.c **** **          None
1779:/home/simulink/cFS_FreeRTOS_seL4/cfe/fsw/cfe-core/src/sb/cfe_sb_api.c **** **
1780:/home/simulink/cFS_FreeRTOS_seL4/cfe/fsw/cfe-core/src/sb/cfe_sb_api.c **** ** Return Values:
68K GAS   			page 128


1781:/home/simulink/cFS_FreeRTOS_seL4/cfe/fsw/cfe-core/src/sb/cfe_sb_api.c **** **          Status
1782:/home/simulink/cFS_FreeRTOS_seL4/cfe/fsw/cfe-core/src/sb/cfe_sb_api.c **** **
1783:/home/simulink/cFS_FreeRTOS_seL4/cfe/fsw/cfe-core/src/sb/cfe_sb_api.c **** ******************************************************************************/
1784:/home/simulink/cFS_FreeRTOS_seL4/cfe/fsw/cfe-core/src/sb/cfe_sb_api.c **** int32 CFE_SB_ZeroCopyReleasePtr(CFE_SB_Msg_t  *Ptr2Release,
1785:/home/simulink/cFS_FreeRTOS_seL4/cfe/fsw/cfe-core/src/sb/cfe_sb_api.c ****                                 CFE_SB_ZeroCopyHandle_t BufferHandle)
1786:/home/simulink/cFS_FreeRTOS_seL4/cfe/fsw/cfe-core/src/sb/cfe_sb_api.c **** {
 4652               	.loc 1 1786 0
 4653               	.cfi_startproc
 4654 28d2 518F      	subq.l #8,%sp
 4655               	.cfi_def_cfa_offset 12
 4656 28d4 2F02      	move.l %d2,-(%sp)
 4657               	.cfi_def_cfa_offset 16
 4658               	.cfi_offset 2, -16
1787:/home/simulink/cFS_FreeRTOS_seL4/cfe/fsw/cfe-core/src/sb/cfe_sb_api.c ****     int32    Status;
1788:/home/simulink/cFS_FreeRTOS_seL4/cfe/fsw/cfe-core/src/sb/cfe_sb_api.c ****     int32    Stat2;
1789:/home/simulink/cFS_FreeRTOS_seL4/cfe/fsw/cfe-core/src/sb/cfe_sb_api.c **** 
1790:/home/simulink/cFS_FreeRTOS_seL4/cfe/fsw/cfe-core/src/sb/cfe_sb_api.c ****     Status = CFE_SB_ZeroCopyReleaseDesc(Ptr2Release, BufferHandle);
 4659               	.loc 1 1790 0
 4660 28d6 2F2F 0014 	move.l 20(%sp),-(%sp)
 4661               	.cfi_def_cfa_offset 20
 4662 28da 2F2F 0014 	move.l 20(%sp),-(%sp)
 4663               	.cfi_def_cfa_offset 24
 4664 28de 4EB9 0000 	jsr CFE_SB_ZeroCopyReleaseDesc
 4664      0000 
 4665 28e4 508F      	addq.l #8,%sp
 4666               	.cfi_def_cfa_offset 16
 4667 28e6 2F40 0008 	move.l %d0,8(%sp)
1791:/home/simulink/cFS_FreeRTOS_seL4/cfe/fsw/cfe-core/src/sb/cfe_sb_api.c **** 
1792:/home/simulink/cFS_FreeRTOS_seL4/cfe/fsw/cfe-core/src/sb/cfe_sb_api.c ****     CFE_SB_LockSharedData(__func__,__LINE__);
 4668               	.loc 1 1792 0
 4669 28ea 4878 0700 	pea 1792.w
 4670               	.cfi_def_cfa_offset 20
 4671 28ee 4879 0000 	pea __func__.5763
 4671      0000 
 4672               	.cfi_def_cfa_offset 24
 4673 28f4 4EB9 0000 	jsr CFE_SB_LockSharedData
 4673      0000 
 4674 28fa 508F      	addq.l #8,%sp
 4675               	.cfi_def_cfa_offset 16
1793:/home/simulink/cFS_FreeRTOS_seL4/cfe/fsw/cfe-core/src/sb/cfe_sb_api.c **** 
1794:/home/simulink/cFS_FreeRTOS_seL4/cfe/fsw/cfe-core/src/sb/cfe_sb_api.c ****     if(Status == CFE_SUCCESS){
 4676               	.loc 1 1794 0
 4677 28fc 4AAF 0008 	tst.l 8(%sp)
 4678 2900 664A      	jne .L137
1795:/home/simulink/cFS_FreeRTOS_seL4/cfe/fsw/cfe-core/src/sb/cfe_sb_api.c ****         /* give the buffer back to the buffer pool */
1796:/home/simulink/cFS_FreeRTOS_seL4/cfe/fsw/cfe-core/src/sb/cfe_sb_api.c ****         Stat2 = CFE_ES_PutPoolBuf(CFE_SB.Mem.PoolHdl,
 4679               	.loc 1 1796 0
 4680 2902 202F 0010 	move.l 16(%sp),%d0
 4681 2906 0680 FFFF 	add.l #-36,%d0
 4681      FFDC 
 4682 290c 2239 0000 	move.l CFE_SB+5132,%d1
 4682      0000 
 4683 2912 2F00      	move.l %d0,-(%sp)
 4684               	.cfi_def_cfa_offset 20
 4685 2914 2F01      	move.l %d1,-(%sp)
 4686               	.cfi_def_cfa_offset 24
 4687 2916 4EB9 0000 	jsr CFE_ES_PutPoolBuf
68K GAS   			page 129


 4687      0000 
 4688 291c 508F      	addq.l #8,%sp
 4689               	.cfi_def_cfa_offset 16
 4690 291e 2F40 0004 	move.l %d0,4(%sp)
1797:/home/simulink/cFS_FreeRTOS_seL4/cfe/fsw/cfe-core/src/sb/cfe_sb_api.c ****                                   (uint32 *) (((uint8 *)Ptr2Release) - sizeof(CFE_SB_BufferD_t)));
1798:/home/simulink/cFS_FreeRTOS_seL4/cfe/fsw/cfe-core/src/sb/cfe_sb_api.c ****         if(Stat2 > 0){
 4691               	.loc 1 1798 0
 4692 2922 4AAF 0004 	tst.l 4(%sp)
 4693 2926 6F24      	jle .L137
1799:/home/simulink/cFS_FreeRTOS_seL4/cfe/fsw/cfe-core/src/sb/cfe_sb_api.c ****              /* Substract the size of the actual buffer from the Memory in use ctr */
1800:/home/simulink/cFS_FreeRTOS_seL4/cfe/fsw/cfe-core/src/sb/cfe_sb_api.c ****             CFE_SB.StatTlmMsg.Payload.MemInUse-=Stat2;
 4694               	.loc 1 1800 0
 4695 2928 2239 0000 	move.l CFE_SB+4576,%d1
 4695      0000 
 4696 292e 202F 0004 	move.l 4(%sp),%d0
 4697 2932 2401      	move.l %d1,%d2
 4698 2934 9480      	sub.l %d0,%d2
 4699 2936 2002      	move.l %d2,%d0
 4700 2938 23C0 0000 	move.l %d0,CFE_SB+4576
 4700      0000 
1801:/home/simulink/cFS_FreeRTOS_seL4/cfe/fsw/cfe-core/src/sb/cfe_sb_api.c ****             CFE_SB.StatTlmMsg.Payload.SBBuffersInUse--;
 4701               	.loc 1 1801 0
 4702 293e 2039 0000 	move.l CFE_SB+4600,%d0
 4702      0000 
 4703 2944 5380      	subq.l #1,%d0
 4704 2946 23C0 0000 	move.l %d0,CFE_SB+4600
 4704      0000 
 4705               	.L137:
1802:/home/simulink/cFS_FreeRTOS_seL4/cfe/fsw/cfe-core/src/sb/cfe_sb_api.c ****         }/* end if */
1803:/home/simulink/cFS_FreeRTOS_seL4/cfe/fsw/cfe-core/src/sb/cfe_sb_api.c ****     }
1804:/home/simulink/cFS_FreeRTOS_seL4/cfe/fsw/cfe-core/src/sb/cfe_sb_api.c **** 
1805:/home/simulink/cFS_FreeRTOS_seL4/cfe/fsw/cfe-core/src/sb/cfe_sb_api.c ****     CFE_SB_UnlockSharedData(__func__,__LINE__);
 4706               	.loc 1 1805 0
 4707 294c 4878 070D 	pea 1805.w
 4708               	.cfi_def_cfa_offset 20
 4709 2950 4879 0000 	pea __func__.5763
 4709      0000 
 4710               	.cfi_def_cfa_offset 24
 4711 2956 4EB9 0000 	jsr CFE_SB_UnlockSharedData
 4711      0000 
 4712 295c 508F      	addq.l #8,%sp
 4713               	.cfi_def_cfa_offset 16
1806:/home/simulink/cFS_FreeRTOS_seL4/cfe/fsw/cfe-core/src/sb/cfe_sb_api.c **** 
1807:/home/simulink/cFS_FreeRTOS_seL4/cfe/fsw/cfe-core/src/sb/cfe_sb_api.c ****     return Status;
 4714               	.loc 1 1807 0
 4715 295e 202F 0008 	move.l 8(%sp),%d0
1808:/home/simulink/cFS_FreeRTOS_seL4/cfe/fsw/cfe-core/src/sb/cfe_sb_api.c **** 
1809:/home/simulink/cFS_FreeRTOS_seL4/cfe/fsw/cfe-core/src/sb/cfe_sb_api.c **** }/* end CFE_SB_ZeroCopyReleasePtr */
 4716               	.loc 1 1809 0
 4717 2962 241F      	move.l (%sp)+,%d2
 4718 2964 508F      	addq.l #8,%sp
 4719 2966 4E75      	rts
 4720               	.cfi_endproc
 4721               	.LFE77:
 4722               	.sizeCFE_SB_ZeroCopyReleasePtr, .-CFE_SB_ZeroCopyReleasePtr
 4723               	.align2
 4724               	.globlCFE_SB_ZeroCopyReleaseDesc
68K GAS   			page 130


 4725               	.typeCFE_SB_ZeroCopyReleaseDesc, @function
 4726               	CFE_SB_ZeroCopyReleaseDesc:
 4727               	.LFB78:
1810:/home/simulink/cFS_FreeRTOS_seL4/cfe/fsw/cfe-core/src/sb/cfe_sb_api.c **** 
1811:/home/simulink/cFS_FreeRTOS_seL4/cfe/fsw/cfe-core/src/sb/cfe_sb_api.c **** 
1812:/home/simulink/cFS_FreeRTOS_seL4/cfe/fsw/cfe-core/src/sb/cfe_sb_api.c **** /******************************************************************************
1813:/home/simulink/cFS_FreeRTOS_seL4/cfe/fsw/cfe-core/src/sb/cfe_sb_api.c **** ** Name:    CFE_SB_ZeroCopyReleaseDesc
1814:/home/simulink/cFS_FreeRTOS_seL4/cfe/fsw/cfe-core/src/sb/cfe_sb_api.c **** **
1815:/home/simulink/cFS_FreeRTOS_seL4/cfe/fsw/cfe-core/src/sb/cfe_sb_api.c **** ** Purpose: API used for releasing a zero copy descriptor (for zero copy mode
1816:/home/simulink/cFS_FreeRTOS_seL4/cfe/fsw/cfe-core/src/sb/cfe_sb_api.c **** **          only).
1817:/home/simulink/cFS_FreeRTOS_seL4/cfe/fsw/cfe-core/src/sb/cfe_sb_api.c **** **
1818:/home/simulink/cFS_FreeRTOS_seL4/cfe/fsw/cfe-core/src/sb/cfe_sb_api.c **** ** Assumptions, External Events, and Notes:
1819:/home/simulink/cFS_FreeRTOS_seL4/cfe/fsw/cfe-core/src/sb/cfe_sb_api.c **** **          None
1820:/home/simulink/cFS_FreeRTOS_seL4/cfe/fsw/cfe-core/src/sb/cfe_sb_api.c **** **
1821:/home/simulink/cFS_FreeRTOS_seL4/cfe/fsw/cfe-core/src/sb/cfe_sb_api.c **** ** Date Written:
1822:/home/simulink/cFS_FreeRTOS_seL4/cfe/fsw/cfe-core/src/sb/cfe_sb_api.c **** **          04/25/2005
1823:/home/simulink/cFS_FreeRTOS_seL4/cfe/fsw/cfe-core/src/sb/cfe_sb_api.c **** **
1824:/home/simulink/cFS_FreeRTOS_seL4/cfe/fsw/cfe-core/src/sb/cfe_sb_api.c **** ** Input Arguments:
1825:/home/simulink/cFS_FreeRTOS_seL4/cfe/fsw/cfe-core/src/sb/cfe_sb_api.c **** **          Ptr2Release
1826:/home/simulink/cFS_FreeRTOS_seL4/cfe/fsw/cfe-core/src/sb/cfe_sb_api.c **** **          BufferHandle
1827:/home/simulink/cFS_FreeRTOS_seL4/cfe/fsw/cfe-core/src/sb/cfe_sb_api.c **** **
1828:/home/simulink/cFS_FreeRTOS_seL4/cfe/fsw/cfe-core/src/sb/cfe_sb_api.c **** ** Output Arguments:
1829:/home/simulink/cFS_FreeRTOS_seL4/cfe/fsw/cfe-core/src/sb/cfe_sb_api.c **** **          None
1830:/home/simulink/cFS_FreeRTOS_seL4/cfe/fsw/cfe-core/src/sb/cfe_sb_api.c **** **
1831:/home/simulink/cFS_FreeRTOS_seL4/cfe/fsw/cfe-core/src/sb/cfe_sb_api.c **** ** Return Values:
1832:/home/simulink/cFS_FreeRTOS_seL4/cfe/fsw/cfe-core/src/sb/cfe_sb_api.c **** **          Status
1833:/home/simulink/cFS_FreeRTOS_seL4/cfe/fsw/cfe-core/src/sb/cfe_sb_api.c **** **
1834:/home/simulink/cFS_FreeRTOS_seL4/cfe/fsw/cfe-core/src/sb/cfe_sb_api.c **** ******************************************************************************/
1835:/home/simulink/cFS_FreeRTOS_seL4/cfe/fsw/cfe-core/src/sb/cfe_sb_api.c **** int32 CFE_SB_ZeroCopyReleaseDesc(CFE_SB_Msg_t  *Ptr2Release,
1836:/home/simulink/cFS_FreeRTOS_seL4/cfe/fsw/cfe-core/src/sb/cfe_sb_api.c ****                                  CFE_SB_ZeroCopyHandle_t  BufferHandle)
1837:/home/simulink/cFS_FreeRTOS_seL4/cfe/fsw/cfe-core/src/sb/cfe_sb_api.c **** {
 4728               	.loc 1 1837 0
 4729               	.cfi_startproc
 4730 2968 518F      	subq.l #8,%sp
 4731               	.cfi_def_cfa_offset 12
 4732 296a 2F02      	move.l %d2,-(%sp)
 4733               	.cfi_def_cfa_offset 16
 4734               	.cfi_offset 2, -16
1838:/home/simulink/cFS_FreeRTOS_seL4/cfe/fsw/cfe-core/src/sb/cfe_sb_api.c ****     int32    Stat;
1839:/home/simulink/cFS_FreeRTOS_seL4/cfe/fsw/cfe-core/src/sb/cfe_sb_api.c ****     CFE_SB_ZeroCopyD_t *zcd = (CFE_SB_ZeroCopyD_t *) BufferHandle;
 4735               	.loc 1 1839 0
 4736 296c 2F6F 0014 	move.l 20(%sp),8(%sp)
 4736      0008 
1840:/home/simulink/cFS_FreeRTOS_seL4/cfe/fsw/cfe-core/src/sb/cfe_sb_api.c **** 
1841:/home/simulink/cFS_FreeRTOS_seL4/cfe/fsw/cfe-core/src/sb/cfe_sb_api.c ****     CFE_SB_LockSharedData(__func__,__LINE__);
 4737               	.loc 1 1841 0
 4738 2972 4878 0731 	pea 1841.w
 4739               	.cfi_def_cfa_offset 20
 4740 2976 4879 0000 	pea __func__.5770
 4740      0000 
 4741               	.cfi_def_cfa_offset 24
 4742 297c 4EB9 0000 	jsr CFE_SB_LockSharedData
 4742      0000 
 4743 2982 508F      	addq.l #8,%sp
 4744               	.cfi_def_cfa_offset 16
1842:/home/simulink/cFS_FreeRTOS_seL4/cfe/fsw/cfe-core/src/sb/cfe_sb_api.c **** 
1843:/home/simulink/cFS_FreeRTOS_seL4/cfe/fsw/cfe-core/src/sb/cfe_sb_api.c ****     Stat = CFE_ES_GetPoolBufInfo(CFE_SB.Mem.PoolHdl, (uint32 *)zcd);
68K GAS   			page 131


 4745               	.loc 1 1843 0
 4746 2984 2039 0000 	move.l CFE_SB+5132,%d0
 4746      0000 
 4747 298a 2F2F 0008 	move.l 8(%sp),-(%sp)
 4748               	.cfi_def_cfa_offset 20
 4749 298e 2F00      	move.l %d0,-(%sp)
 4750               	.cfi_def_cfa_offset 24
 4751 2990 4EB9 0000 	jsr CFE_ES_GetPoolBufInfo
 4751      0000 
 4752 2996 508F      	addq.l #8,%sp
 4753               	.cfi_def_cfa_offset 16
 4754 2998 2F40 0004 	move.l %d0,4(%sp)
1844:/home/simulink/cFS_FreeRTOS_seL4/cfe/fsw/cfe-core/src/sb/cfe_sb_api.c **** 
1845:/home/simulink/cFS_FreeRTOS_seL4/cfe/fsw/cfe-core/src/sb/cfe_sb_api.c ****     if((Ptr2Release == NULL) || (Stat < 0) || (zcd->Buffer != (void *)Ptr2Release)){
 4755               	.loc 1 1845 0
 4756 299c 4AAF 0010 	tst.l 16(%sp)
 4757 29a0 6714      	jeq .L140
 4758               	.loc 1 1845 0 is_stmt 0 discriminator 1
 4759 29a2 4AAF 0004 	tst.l 4(%sp)
 4760 29a6 6D0E      	jlt .L140
 4761               	.loc 1 1845 0 discriminator 2
 4762 29a8 206F 0008 	move.l 8(%sp),%a0
 4763 29ac 2028 0008 	move.l 8(%a0),%d0
 4764 29b0 B0AF 0010 	cmp.l 16(%sp),%d0
 4765 29b4 671C      	jeq .L141
 4766               	.L140:
1846:/home/simulink/cFS_FreeRTOS_seL4/cfe/fsw/cfe-core/src/sb/cfe_sb_api.c ****         CFE_SB_UnlockSharedData(__func__,__LINE__);
 4767               	.loc 1 1846 0 is_stmt 1
 4768 29b6 4878 0736 	pea 1846.w
 4769               	.cfi_def_cfa_offset 20
 4770 29ba 4879 0000 	pea __func__.5770
 4770      0000 
 4771               	.cfi_def_cfa_offset 24
 4772 29c0 4EB9 0000 	jsr CFE_SB_UnlockSharedData
 4772      0000 
 4773 29c6 508F      	addq.l #8,%sp
 4774               	.cfi_def_cfa_offset 16
1847:/home/simulink/cFS_FreeRTOS_seL4/cfe/fsw/cfe-core/src/sb/cfe_sb_api.c ****         return CFE_SB_BUFFER_INVALID;
 4775               	.loc 1 1847 0
 4776 29c8 203C CA00 	move.l #-905969650,%d0
 4776      000E 
 4777 29ce 6000 00A4 	jra .L142
 4778               	.L141:
1848:/home/simulink/cFS_FreeRTOS_seL4/cfe/fsw/cfe-core/src/sb/cfe_sb_api.c ****     }
1849:/home/simulink/cFS_FreeRTOS_seL4/cfe/fsw/cfe-core/src/sb/cfe_sb_api.c **** 
1850:/home/simulink/cFS_FreeRTOS_seL4/cfe/fsw/cfe-core/src/sb/cfe_sb_api.c ****     /* delink the descriptor */
1851:/home/simulink/cFS_FreeRTOS_seL4/cfe/fsw/cfe-core/src/sb/cfe_sb_api.c ****     if(zcd->Prev != NULL){
 4779               	.loc 1 1851 0
 4780 29d2 206F 0008 	move.l 8(%sp),%a0
 4781 29d6 2028 0010 	move.l 16(%a0),%d0
 4782 29da 4A80      	tst.l %d0
 4783 29dc 6714      	jeq .L143
1852:/home/simulink/cFS_FreeRTOS_seL4/cfe/fsw/cfe-core/src/sb/cfe_sb_api.c ****         ((CFE_SB_ZeroCopyD_t *) (zcd->Prev))->Next = zcd->Next;
 4784               	.loc 1 1852 0
 4785 29de 206F 0008 	move.l 8(%sp),%a0
 4786 29e2 2068 0010 	move.l 16(%a0),%a0
 4787 29e6 226F 0008 	move.l 8(%sp),%a1
68K GAS   			page 132


 4788 29ea 2029 000C 	move.l 12(%a1),%d0
 4789 29ee 2140 000C 	move.l %d0,12(%a0)
 4790               	.L143:
1853:/home/simulink/cFS_FreeRTOS_seL4/cfe/fsw/cfe-core/src/sb/cfe_sb_api.c ****     }
1854:/home/simulink/cFS_FreeRTOS_seL4/cfe/fsw/cfe-core/src/sb/cfe_sb_api.c ****     if(zcd->Next != NULL){
 4791               	.loc 1 1854 0
 4792 29f2 206F 0008 	move.l 8(%sp),%a0
 4793 29f6 2028 000C 	move.l 12(%a0),%d0
 4794 29fa 4A80      	tst.l %d0
 4795 29fc 6714      	jeq .L144
1855:/home/simulink/cFS_FreeRTOS_seL4/cfe/fsw/cfe-core/src/sb/cfe_sb_api.c ****         ((CFE_SB_ZeroCopyD_t *) (zcd->Next))->Prev = zcd->Prev;
 4796               	.loc 1 1855 0
 4797 29fe 206F 0008 	move.l 8(%sp),%a0
 4798 2a02 2068 000C 	move.l 12(%a0),%a0
 4799 2a06 226F 0008 	move.l 8(%sp),%a1
 4800 2a0a 2029 0010 	move.l 16(%a1),%d0
 4801 2a0e 2140 0010 	move.l %d0,16(%a0)
 4802               	.L144:
1856:/home/simulink/cFS_FreeRTOS_seL4/cfe/fsw/cfe-core/src/sb/cfe_sb_api.c ****     }
1857:/home/simulink/cFS_FreeRTOS_seL4/cfe/fsw/cfe-core/src/sb/cfe_sb_api.c ****     if(CFE_SB.ZeroCopyTail == (void *)zcd){
 4803               	.loc 1 1857 0
 4804 2a12 2039 0000 	move.l CFE_SB+144,%d0
 4804      0000 
 4805 2a18 B0AF 0008 	cmp.l 8(%sp),%d0
 4806 2a1c 660E      	jne .L145
1858:/home/simulink/cFS_FreeRTOS_seL4/cfe/fsw/cfe-core/src/sb/cfe_sb_api.c ****         CFE_SB.ZeroCopyTail = zcd->Prev;
 4807               	.loc 1 1858 0
 4808 2a1e 206F 0008 	move.l 8(%sp),%a0
 4809 2a22 2028 0010 	move.l 16(%a0),%d0
 4810 2a26 23C0 0000 	move.l %d0,CFE_SB+144
 4810      0000 
 4811               	.L145:
1859:/home/simulink/cFS_FreeRTOS_seL4/cfe/fsw/cfe-core/src/sb/cfe_sb_api.c ****     }
1860:/home/simulink/cFS_FreeRTOS_seL4/cfe/fsw/cfe-core/src/sb/cfe_sb_api.c **** 
1861:/home/simulink/cFS_FreeRTOS_seL4/cfe/fsw/cfe-core/src/sb/cfe_sb_api.c ****     /* give the descriptor back to the buffer pool */
1862:/home/simulink/cFS_FreeRTOS_seL4/cfe/fsw/cfe-core/src/sb/cfe_sb_api.c ****     Stat = CFE_ES_PutPoolBuf(CFE_SB.Mem.PoolHdl, (uint32 *)zcd);
 4812               	.loc 1 1862 0
 4813 2a2c 2039 0000 	move.l CFE_SB+5132,%d0
 4813      0000 
 4814 2a32 2F2F 0008 	move.l 8(%sp),-(%sp)
 4815               	.cfi_def_cfa_offset 20
 4816 2a36 2F00      	move.l %d0,-(%sp)
 4817               	.cfi_def_cfa_offset 24
 4818 2a38 4EB9 0000 	jsr CFE_ES_PutPoolBuf
 4818      0000 
 4819 2a3e 508F      	addq.l #8,%sp
 4820               	.cfi_def_cfa_offset 16
 4821 2a40 2F40 0004 	move.l %d0,4(%sp)
1863:/home/simulink/cFS_FreeRTOS_seL4/cfe/fsw/cfe-core/src/sb/cfe_sb_api.c ****     if(Stat > 0){
 4822               	.loc 1 1863 0
 4823 2a44 4AAF 0004 	tst.l 4(%sp)
 4824 2a48 6F16      	jle .L146
1864:/home/simulink/cFS_FreeRTOS_seL4/cfe/fsw/cfe-core/src/sb/cfe_sb_api.c ****         /* Substract the size of the actual buffer from the Memory in use ctr */
1865:/home/simulink/cFS_FreeRTOS_seL4/cfe/fsw/cfe-core/src/sb/cfe_sb_api.c ****         CFE_SB.StatTlmMsg.Payload.MemInUse-=Stat;
 4825               	.loc 1 1865 0
 4826 2a4a 2239 0000 	move.l CFE_SB+4576,%d1
 4826      0000 
68K GAS   			page 133


 4827 2a50 202F 0004 	move.l 4(%sp),%d0
 4828 2a54 2401      	move.l %d1,%d2
 4829 2a56 9480      	sub.l %d0,%d2
 4830 2a58 2002      	move.l %d2,%d0
 4831 2a5a 23C0 0000 	move.l %d0,CFE_SB+4576
 4831      0000 
 4832               	.L146:
1866:/home/simulink/cFS_FreeRTOS_seL4/cfe/fsw/cfe-core/src/sb/cfe_sb_api.c ****     }/* end if */
1867:/home/simulink/cFS_FreeRTOS_seL4/cfe/fsw/cfe-core/src/sb/cfe_sb_api.c **** 
1868:/home/simulink/cFS_FreeRTOS_seL4/cfe/fsw/cfe-core/src/sb/cfe_sb_api.c ****     CFE_SB_UnlockSharedData(__func__,__LINE__);
 4833               	.loc 1 1868 0
 4834 2a60 4878 074C 	pea 1868.w
 4835               	.cfi_def_cfa_offset 20
 4836 2a64 4879 0000 	pea __func__.5770
 4836      0000 
 4837               	.cfi_def_cfa_offset 24
 4838 2a6a 4EB9 0000 	jsr CFE_SB_UnlockSharedData
 4838      0000 
 4839 2a70 508F      	addq.l #8,%sp
 4840               	.cfi_def_cfa_offset 16
1869:/home/simulink/cFS_FreeRTOS_seL4/cfe/fsw/cfe-core/src/sb/cfe_sb_api.c **** 
1870:/home/simulink/cFS_FreeRTOS_seL4/cfe/fsw/cfe-core/src/sb/cfe_sb_api.c ****     return CFE_SUCCESS;
 4841               	.loc 1 1870 0
 4842 2a72 4280      	clr.l %d0
 4843               	.L142:
1871:/home/simulink/cFS_FreeRTOS_seL4/cfe/fsw/cfe-core/src/sb/cfe_sb_api.c **** 
1872:/home/simulink/cFS_FreeRTOS_seL4/cfe/fsw/cfe-core/src/sb/cfe_sb_api.c **** }/* end CFE_SB_ZeroCopyReleaseDesc */
 4844               	.loc 1 1872 0
 4845 2a74 241F      	move.l (%sp)+,%d2
 4846 2a76 508F      	addq.l #8,%sp
 4847 2a78 4E75      	rts
 4848               	.cfi_endproc
 4849               	.LFE78:
 4850               	.sizeCFE_SB_ZeroCopyReleaseDesc, .-CFE_SB_ZeroCopyReleaseDesc
 4851               	.align2
 4852               	.globlCFE_SB_ZeroCopySend
 4853               	.typeCFE_SB_ZeroCopySend, @function
 4854               	CFE_SB_ZeroCopySend:
 4855               	.LFB79:
1873:/home/simulink/cFS_FreeRTOS_seL4/cfe/fsw/cfe-core/src/sb/cfe_sb_api.c **** 
1874:/home/simulink/cFS_FreeRTOS_seL4/cfe/fsw/cfe-core/src/sb/cfe_sb_api.c **** 
1875:/home/simulink/cFS_FreeRTOS_seL4/cfe/fsw/cfe-core/src/sb/cfe_sb_api.c **** /******************************************************************************
1876:/home/simulink/cFS_FreeRTOS_seL4/cfe/fsw/cfe-core/src/sb/cfe_sb_api.c **** ** Name:    CFE_SB_ZeroCopySend
1877:/home/simulink/cFS_FreeRTOS_seL4/cfe/fsw/cfe-core/src/sb/cfe_sb_api.c **** **
1878:/home/simulink/cFS_FreeRTOS_seL4/cfe/fsw/cfe-core/src/sb/cfe_sb_api.c **** ** Purpose: API for sending messages in zero copy mode (with telemetry source
1879:/home/simulink/cFS_FreeRTOS_seL4/cfe/fsw/cfe-core/src/sb/cfe_sb_api.c **** **          sequence count incrementing)
1880:/home/simulink/cFS_FreeRTOS_seL4/cfe/fsw/cfe-core/src/sb/cfe_sb_api.c **** **
1881:/home/simulink/cFS_FreeRTOS_seL4/cfe/fsw/cfe-core/src/sb/cfe_sb_api.c **** ** Assumptions, External Events, and Notes:
1882:/home/simulink/cFS_FreeRTOS_seL4/cfe/fsw/cfe-core/src/sb/cfe_sb_api.c **** **          None
1883:/home/simulink/cFS_FreeRTOS_seL4/cfe/fsw/cfe-core/src/sb/cfe_sb_api.c **** **
1884:/home/simulink/cFS_FreeRTOS_seL4/cfe/fsw/cfe-core/src/sb/cfe_sb_api.c **** ** Date Written:
1885:/home/simulink/cFS_FreeRTOS_seL4/cfe/fsw/cfe-core/src/sb/cfe_sb_api.c **** **          04/25/2005
1886:/home/simulink/cFS_FreeRTOS_seL4/cfe/fsw/cfe-core/src/sb/cfe_sb_api.c **** **
1887:/home/simulink/cFS_FreeRTOS_seL4/cfe/fsw/cfe-core/src/sb/cfe_sb_api.c **** ** Input Arguments:
1888:/home/simulink/cFS_FreeRTOS_seL4/cfe/fsw/cfe-core/src/sb/cfe_sb_api.c **** **          MsgPtr - Pointer to message to be sent
1889:/home/simulink/cFS_FreeRTOS_seL4/cfe/fsw/cfe-core/src/sb/cfe_sb_api.c **** **          BufferHandle - Handle supplied by the get pointer call
1890:/home/simulink/cFS_FreeRTOS_seL4/cfe/fsw/cfe-core/src/sb/cfe_sb_api.c **** **
68K GAS   			page 134


1891:/home/simulink/cFS_FreeRTOS_seL4/cfe/fsw/cfe-core/src/sb/cfe_sb_api.c **** ** Output Arguments:
1892:/home/simulink/cFS_FreeRTOS_seL4/cfe/fsw/cfe-core/src/sb/cfe_sb_api.c **** **          None
1893:/home/simulink/cFS_FreeRTOS_seL4/cfe/fsw/cfe-core/src/sb/cfe_sb_api.c **** **
1894:/home/simulink/cFS_FreeRTOS_seL4/cfe/fsw/cfe-core/src/sb/cfe_sb_api.c **** ** Return Values:
1895:/home/simulink/cFS_FreeRTOS_seL4/cfe/fsw/cfe-core/src/sb/cfe_sb_api.c **** **          Status
1896:/home/simulink/cFS_FreeRTOS_seL4/cfe/fsw/cfe-core/src/sb/cfe_sb_api.c **** **
1897:/home/simulink/cFS_FreeRTOS_seL4/cfe/fsw/cfe-core/src/sb/cfe_sb_api.c **** ******************************************************************************/
1898:/home/simulink/cFS_FreeRTOS_seL4/cfe/fsw/cfe-core/src/sb/cfe_sb_api.c **** int32 CFE_SB_ZeroCopySend(CFE_SB_Msg_t   *MsgPtr,
1899:/home/simulink/cFS_FreeRTOS_seL4/cfe/fsw/cfe-core/src/sb/cfe_sb_api.c ****                           CFE_SB_ZeroCopyHandle_t BufferHandle)
1900:/home/simulink/cFS_FreeRTOS_seL4/cfe/fsw/cfe-core/src/sb/cfe_sb_api.c **** {
 4856               	.loc 1 1900 0
 4857               	.cfi_startproc
 4858 2a7a 598F      	subq.l #4,%sp
 4859               	.cfi_def_cfa_offset 8
1901:/home/simulink/cFS_FreeRTOS_seL4/cfe/fsw/cfe-core/src/sb/cfe_sb_api.c ****     int32   Status = 0;
 4860               	.loc 1 1901 0
 4861 2a7c 4297      	clr.l (%sp)
1902:/home/simulink/cFS_FreeRTOS_seL4/cfe/fsw/cfe-core/src/sb/cfe_sb_api.c **** 
1903:/home/simulink/cFS_FreeRTOS_seL4/cfe/fsw/cfe-core/src/sb/cfe_sb_api.c ****     Status = CFE_SB_ZeroCopyReleaseDesc(MsgPtr, BufferHandle);
 4862               	.loc 1 1903 0
 4863 2a7e 2F2F 000C 	move.l 12(%sp),-(%sp)
 4864               	.cfi_def_cfa_offset 12
 4865 2a82 2F2F 000C 	move.l 12(%sp),-(%sp)
 4866               	.cfi_def_cfa_offset 16
 4867 2a86 4EB9 0000 	jsr CFE_SB_ZeroCopyReleaseDesc
 4867      0000 
 4868 2a8c 508F      	addq.l #8,%sp
 4869               	.cfi_def_cfa_offset 8
 4870 2a8e 2E80      	move.l %d0,(%sp)
1904:/home/simulink/cFS_FreeRTOS_seL4/cfe/fsw/cfe-core/src/sb/cfe_sb_api.c **** 
1905:/home/simulink/cFS_FreeRTOS_seL4/cfe/fsw/cfe-core/src/sb/cfe_sb_api.c ****     if(Status == CFE_SUCCESS){
 4871               	.loc 1 1905 0
 4872 2a90 4A97      	tst.l (%sp)
 4873 2a92 6616      	jne .L148
1906:/home/simulink/cFS_FreeRTOS_seL4/cfe/fsw/cfe-core/src/sb/cfe_sb_api.c ****         Status = CFE_SB_SendMsgFull(MsgPtr,CFE_SB_INCREMENT_TLM,CFE_SB_SEND_ZEROCOPY);
 4874               	.loc 1 1906 0
 4875 2a94 42A7      	clr.l -(%sp)
 4876               	.cfi_def_cfa_offset 12
 4877 2a96 4878 0001 	pea 1.w
 4878               	.cfi_def_cfa_offset 16
 4879 2a9a 2F2F 0010 	move.l 16(%sp),-(%sp)
 4880               	.cfi_def_cfa_offset 20
 4881 2a9e 4EB9 0000 	jsr CFE_SB_SendMsgFull
 4881      0000 
 4882 2aa4 4FEF 000C 	lea (12,%sp),%sp
 4883               	.cfi_def_cfa_offset 8
 4884 2aa8 2E80      	move.l %d0,(%sp)
 4885               	.L148:
1907:/home/simulink/cFS_FreeRTOS_seL4/cfe/fsw/cfe-core/src/sb/cfe_sb_api.c ****     }
1908:/home/simulink/cFS_FreeRTOS_seL4/cfe/fsw/cfe-core/src/sb/cfe_sb_api.c **** 
1909:/home/simulink/cFS_FreeRTOS_seL4/cfe/fsw/cfe-core/src/sb/cfe_sb_api.c ****     return Status;
 4886               	.loc 1 1909 0
 4887 2aaa 2017      	move.l (%sp),%d0
1910:/home/simulink/cFS_FreeRTOS_seL4/cfe/fsw/cfe-core/src/sb/cfe_sb_api.c **** 
1911:/home/simulink/cFS_FreeRTOS_seL4/cfe/fsw/cfe-core/src/sb/cfe_sb_api.c **** }/* end CFE_SB_ZeroCopySend */
 4888               	.loc 1 1911 0
 4889 2aac 588F      	addq.l #4,%sp
68K GAS   			page 135


 4890 2aae 4E75      	rts
 4891               	.cfi_endproc
 4892               	.LFE79:
 4893               	.sizeCFE_SB_ZeroCopySend, .-CFE_SB_ZeroCopySend
 4894               	.align2
 4895               	.globlCFE_SB_ZeroCopyPass
 4896               	.typeCFE_SB_ZeroCopyPass, @function
 4897               	CFE_SB_ZeroCopyPass:
 4898               	.LFB80:
1912:/home/simulink/cFS_FreeRTOS_seL4/cfe/fsw/cfe-core/src/sb/cfe_sb_api.c **** 
1913:/home/simulink/cFS_FreeRTOS_seL4/cfe/fsw/cfe-core/src/sb/cfe_sb_api.c **** 
1914:/home/simulink/cFS_FreeRTOS_seL4/cfe/fsw/cfe-core/src/sb/cfe_sb_api.c **** /******************************************************************************
1915:/home/simulink/cFS_FreeRTOS_seL4/cfe/fsw/cfe-core/src/sb/cfe_sb_api.c **** ** Name:    CFE_SB_ZeroCopyPass
1916:/home/simulink/cFS_FreeRTOS_seL4/cfe/fsw/cfe-core/src/sb/cfe_sb_api.c **** **
1917:/home/simulink/cFS_FreeRTOS_seL4/cfe/fsw/cfe-core/src/sb/cfe_sb_api.c **** ** Purpose: API for sending messages in zero copy mode (telemetry source
1918:/home/simulink/cFS_FreeRTOS_seL4/cfe/fsw/cfe-core/src/sb/cfe_sb_api.c **** **          sequence count is preserved)
1919:/home/simulink/cFS_FreeRTOS_seL4/cfe/fsw/cfe-core/src/sb/cfe_sb_api.c **** **
1920:/home/simulink/cFS_FreeRTOS_seL4/cfe/fsw/cfe-core/src/sb/cfe_sb_api.c **** ** Assumptions, External Events, and Notes:
1921:/home/simulink/cFS_FreeRTOS_seL4/cfe/fsw/cfe-core/src/sb/cfe_sb_api.c **** **          None
1922:/home/simulink/cFS_FreeRTOS_seL4/cfe/fsw/cfe-core/src/sb/cfe_sb_api.c **** **
1923:/home/simulink/cFS_FreeRTOS_seL4/cfe/fsw/cfe-core/src/sb/cfe_sb_api.c **** ** Date Written:
1924:/home/simulink/cFS_FreeRTOS_seL4/cfe/fsw/cfe-core/src/sb/cfe_sb_api.c **** **          04/25/2005
1925:/home/simulink/cFS_FreeRTOS_seL4/cfe/fsw/cfe-core/src/sb/cfe_sb_api.c **** **
1926:/home/simulink/cFS_FreeRTOS_seL4/cfe/fsw/cfe-core/src/sb/cfe_sb_api.c **** ** Input Arguments:
1927:/home/simulink/cFS_FreeRTOS_seL4/cfe/fsw/cfe-core/src/sb/cfe_sb_api.c **** **          MsgPtr - Pointer to message to be sent
1928:/home/simulink/cFS_FreeRTOS_seL4/cfe/fsw/cfe-core/src/sb/cfe_sb_api.c **** **          BufferHandle - Handle supplied by the get pointer call
1929:/home/simulink/cFS_FreeRTOS_seL4/cfe/fsw/cfe-core/src/sb/cfe_sb_api.c **** **
1930:/home/simulink/cFS_FreeRTOS_seL4/cfe/fsw/cfe-core/src/sb/cfe_sb_api.c **** ** Output Arguments:
1931:/home/simulink/cFS_FreeRTOS_seL4/cfe/fsw/cfe-core/src/sb/cfe_sb_api.c **** **          None
1932:/home/simulink/cFS_FreeRTOS_seL4/cfe/fsw/cfe-core/src/sb/cfe_sb_api.c **** **
1933:/home/simulink/cFS_FreeRTOS_seL4/cfe/fsw/cfe-core/src/sb/cfe_sb_api.c **** ** Return Values:
1934:/home/simulink/cFS_FreeRTOS_seL4/cfe/fsw/cfe-core/src/sb/cfe_sb_api.c **** **          Status
1935:/home/simulink/cFS_FreeRTOS_seL4/cfe/fsw/cfe-core/src/sb/cfe_sb_api.c **** **
1936:/home/simulink/cFS_FreeRTOS_seL4/cfe/fsw/cfe-core/src/sb/cfe_sb_api.c **** ******************************************************************************/
1937:/home/simulink/cFS_FreeRTOS_seL4/cfe/fsw/cfe-core/src/sb/cfe_sb_api.c **** int32 CFE_SB_ZeroCopyPass(CFE_SB_Msg_t   *MsgPtr,
1938:/home/simulink/cFS_FreeRTOS_seL4/cfe/fsw/cfe-core/src/sb/cfe_sb_api.c ****                           CFE_SB_ZeroCopyHandle_t BufferHandle)
1939:/home/simulink/cFS_FreeRTOS_seL4/cfe/fsw/cfe-core/src/sb/cfe_sb_api.c **** {
 4899               	.loc 1 1939 0
 4900               	.cfi_startproc
 4901 2ab0 598F      	subq.l #4,%sp
 4902               	.cfi_def_cfa_offset 8
1940:/home/simulink/cFS_FreeRTOS_seL4/cfe/fsw/cfe-core/src/sb/cfe_sb_api.c ****     int32   Status = 0;
 4903               	.loc 1 1940 0
 4904 2ab2 4297      	clr.l (%sp)
1941:/home/simulink/cFS_FreeRTOS_seL4/cfe/fsw/cfe-core/src/sb/cfe_sb_api.c **** 
1942:/home/simulink/cFS_FreeRTOS_seL4/cfe/fsw/cfe-core/src/sb/cfe_sb_api.c ****     Status = CFE_SB_ZeroCopyReleaseDesc(MsgPtr, BufferHandle);
 4905               	.loc 1 1942 0
 4906 2ab4 2F2F 000C 	move.l 12(%sp),-(%sp)
 4907               	.cfi_def_cfa_offset 12
 4908 2ab8 2F2F 000C 	move.l 12(%sp),-(%sp)
 4909               	.cfi_def_cfa_offset 16
 4910 2abc 4EB9 0000 	jsr CFE_SB_ZeroCopyReleaseDesc
 4910      0000 
 4911 2ac2 508F      	addq.l #8,%sp
 4912               	.cfi_def_cfa_offset 8
 4913 2ac4 2E80      	move.l %d0,(%sp)
1943:/home/simulink/cFS_FreeRTOS_seL4/cfe/fsw/cfe-core/src/sb/cfe_sb_api.c **** 
68K GAS   			page 136


1944:/home/simulink/cFS_FreeRTOS_seL4/cfe/fsw/cfe-core/src/sb/cfe_sb_api.c ****     if(Status == CFE_SUCCESS){
 4914               	.loc 1 1944 0
 4915 2ac6 4A97      	tst.l (%sp)
 4916 2ac8 6614      	jne .L151
1945:/home/simulink/cFS_FreeRTOS_seL4/cfe/fsw/cfe-core/src/sb/cfe_sb_api.c ****         Status = CFE_SB_SendMsgFull(MsgPtr,CFE_SB_DO_NOT_INCREMENT,CFE_SB_SEND_ZEROCOPY);
 4917               	.loc 1 1945 0
 4918 2aca 42A7      	clr.l -(%sp)
 4919               	.cfi_def_cfa_offset 12
 4920 2acc 42A7      	clr.l -(%sp)
 4921               	.cfi_def_cfa_offset 16
 4922 2ace 2F2F 0010 	move.l 16(%sp),-(%sp)
 4923               	.cfi_def_cfa_offset 20
 4924 2ad2 4EB9 0000 	jsr CFE_SB_SendMsgFull
 4924      0000 
 4925 2ad8 4FEF 000C 	lea (12,%sp),%sp
 4926               	.cfi_def_cfa_offset 8
 4927 2adc 2E80      	move.l %d0,(%sp)
 4928               	.L151:
1946:/home/simulink/cFS_FreeRTOS_seL4/cfe/fsw/cfe-core/src/sb/cfe_sb_api.c ****     }
1947:/home/simulink/cFS_FreeRTOS_seL4/cfe/fsw/cfe-core/src/sb/cfe_sb_api.c **** 
1948:/home/simulink/cFS_FreeRTOS_seL4/cfe/fsw/cfe-core/src/sb/cfe_sb_api.c ****     return Status;
 4929               	.loc 1 1948 0
 4930 2ade 2017      	move.l (%sp),%d0
1949:/home/simulink/cFS_FreeRTOS_seL4/cfe/fsw/cfe-core/src/sb/cfe_sb_api.c **** 
1950:/home/simulink/cFS_FreeRTOS_seL4/cfe/fsw/cfe-core/src/sb/cfe_sb_api.c **** }/* end CFE_SB_ZeroCopyPass */
 4931               	.loc 1 1950 0
 4932 2ae0 588F      	addq.l #4,%sp
 4933 2ae2 4E75      	rts
 4934               	.cfi_endproc
 4935               	.LFE80:
 4936               	.sizeCFE_SB_ZeroCopyPass, .-CFE_SB_ZeroCopyPass
 4937               	.section.rodata
 4938               	.LC35:
 4939 072a 5069 7065 	.string"Pipe Read Err,pipe %s,app %s,stat 0x%x"
 4939      2052 6561 
 4939      6420 4572 
 4939      722C 7069 
 4939      7065 2025 
 4940               	.text
 4941               	.align2
 4942               	.globlCFE_SB_ReadQueue
 4943               	.typeCFE_SB_ReadQueue, @function
 4944               	CFE_SB_ReadQueue:
 4945               	.LFB81:
1951:/home/simulink/cFS_FreeRTOS_seL4/cfe/fsw/cfe-core/src/sb/cfe_sb_api.c **** 
1952:/home/simulink/cFS_FreeRTOS_seL4/cfe/fsw/cfe-core/src/sb/cfe_sb_api.c **** 
1953:/home/simulink/cFS_FreeRTOS_seL4/cfe/fsw/cfe-core/src/sb/cfe_sb_api.c **** /******************************************************************************
1954:/home/simulink/cFS_FreeRTOS_seL4/cfe/fsw/cfe-core/src/sb/cfe_sb_api.c **** **  Function:  CFE_SB_ReadQueue()
1955:/home/simulink/cFS_FreeRTOS_seL4/cfe/fsw/cfe-core/src/sb/cfe_sb_api.c **** **
1956:/home/simulink/cFS_FreeRTOS_seL4/cfe/fsw/cfe-core/src/sb/cfe_sb_api.c **** **  Purpose:
1957:/home/simulink/cFS_FreeRTOS_seL4/cfe/fsw/cfe-core/src/sb/cfe_sb_api.c **** **    Read an SB message from the system queue.  The message is represented
1958:/home/simulink/cFS_FreeRTOS_seL4/cfe/fsw/cfe-core/src/sb/cfe_sb_api.c **** **    by a pointer to the buffer descriptor of the message.  Several options
1959:/home/simulink/cFS_FreeRTOS_seL4/cfe/fsw/cfe-core/src/sb/cfe_sb_api.c **** **    are available for the timeout, as described below.
1960:/home/simulink/cFS_FreeRTOS_seL4/cfe/fsw/cfe-core/src/sb/cfe_sb_api.c **** **
1961:/home/simulink/cFS_FreeRTOS_seL4/cfe/fsw/cfe-core/src/sb/cfe_sb_api.c **** **  Arguments:
1962:/home/simulink/cFS_FreeRTOS_seL4/cfe/fsw/cfe-core/src/sb/cfe_sb_api.c **** **    PipeDscPtr: Pointer to pipe descriptor.
1963:/home/simulink/cFS_FreeRTOS_seL4/cfe/fsw/cfe-core/src/sb/cfe_sb_api.c **** **    AppId     : Application ID of the receiving task (used for error messages).
68K GAS   			page 137


1964:/home/simulink/cFS_FreeRTOS_seL4/cfe/fsw/cfe-core/src/sb/cfe_sb_api.c **** **    Time_Out  : Timeout option; one of the following:
1965:/home/simulink/cFS_FreeRTOS_seL4/cfe/fsw/cfe-core/src/sb/cfe_sb_api.c **** **                  CFE_SB_PEND_FOREVER  = wait forever until a packet arrives
1966:/home/simulink/cFS_FreeRTOS_seL4/cfe/fsw/cfe-core/src/sb/cfe_sb_api.c **** **                  CFE_SB_POLL = check the pipe for packets but don't wait
1967:/home/simulink/cFS_FreeRTOS_seL4/cfe/fsw/cfe-core/src/sb/cfe_sb_api.c **** **                  value in milliseconds = wait up to a specified time
1968:/home/simulink/cFS_FreeRTOS_seL4/cfe/fsw/cfe-core/src/sb/cfe_sb_api.c **** **    Message   : Pointer to a variable that will receive the buffer
1969:/home/simulink/cFS_FreeRTOS_seL4/cfe/fsw/cfe-core/src/sb/cfe_sb_api.c **** **                descriptor of the message.
1970:/home/simulink/cFS_FreeRTOS_seL4/cfe/fsw/cfe-core/src/sb/cfe_sb_api.c **** **
1971:/home/simulink/cFS_FreeRTOS_seL4/cfe/fsw/cfe-core/src/sb/cfe_sb_api.c **** **  Return:
1972:/home/simulink/cFS_FreeRTOS_seL4/cfe/fsw/cfe-core/src/sb/cfe_sb_api.c **** **    CFE_SB status code indicating the result of the operation:
1973:/home/simulink/cFS_FreeRTOS_seL4/cfe/fsw/cfe-core/src/sb/cfe_sb_api.c **** **      CFE_SUCCESS         = message was successfully read
1974:/home/simulink/cFS_FreeRTOS_seL4/cfe/fsw/cfe-core/src/sb/cfe_sb_api.c **** **      CFE_SB_NO_MESSAGE   = no message is present (for CFE_SB_POLL option)
1975:/home/simulink/cFS_FreeRTOS_seL4/cfe/fsw/cfe-core/src/sb/cfe_sb_api.c **** **      CFE_SB_TIME_OUT     = timeout expired (for timeout option)
1976:/home/simulink/cFS_FreeRTOS_seL4/cfe/fsw/cfe-core/src/sb/cfe_sb_api.c **** **      CFE_SB_PIPE_RD_ERR  = an unexpected queue read error occurred
1977:/home/simulink/cFS_FreeRTOS_seL4/cfe/fsw/cfe-core/src/sb/cfe_sb_api.c **** */
1978:/home/simulink/cFS_FreeRTOS_seL4/cfe/fsw/cfe-core/src/sb/cfe_sb_api.c **** 
1979:/home/simulink/cFS_FreeRTOS_seL4/cfe/fsw/cfe-core/src/sb/cfe_sb_api.c **** int32  CFE_SB_ReadQueue (CFE_SB_PipeD_t         *PipeDscPtr,
1980:/home/simulink/cFS_FreeRTOS_seL4/cfe/fsw/cfe-core/src/sb/cfe_sb_api.c ****                          uint32                 TskId,
1981:/home/simulink/cFS_FreeRTOS_seL4/cfe/fsw/cfe-core/src/sb/cfe_sb_api.c ****                          CFE_SB_TimeOut_t       Time_Out,
1982:/home/simulink/cFS_FreeRTOS_seL4/cfe/fsw/cfe-core/src/sb/cfe_sb_api.c ****                          CFE_SB_BufferD_t       **Message)
1983:/home/simulink/cFS_FreeRTOS_seL4/cfe/fsw/cfe-core/src/sb/cfe_sb_api.c **** {
 4946               	.loc 1 1983 0
 4947               	.cfi_startproc
 4948 2ae4 4FEF FFCC 	lea (-52,%sp),%sp
 4949               	.cfi_def_cfa_offset 56
 4950 2ae8 2F03      	move.l %d3,-(%sp)
 4951               	.cfi_def_cfa_offset 60
 4952               	.cfi_offset 3, -60
 4953 2aea 2F02      	move.l %d2,-(%sp)
 4954               	.cfi_def_cfa_offset 64
 4955               	.cfi_offset 2, -64
1984:/home/simulink/cFS_FreeRTOS_seL4/cfe/fsw/cfe-core/src/sb/cfe_sb_api.c ****     int32              Status,TimeOut;
1985:/home/simulink/cFS_FreeRTOS_seL4/cfe/fsw/cfe-core/src/sb/cfe_sb_api.c ****     uint32             Nbytes;
1986:/home/simulink/cFS_FreeRTOS_seL4/cfe/fsw/cfe-core/src/sb/cfe_sb_api.c ****     char               FullName[(OS_MAX_API_NAME * 2)];
1987:/home/simulink/cFS_FreeRTOS_seL4/cfe/fsw/cfe-core/src/sb/cfe_sb_api.c **** 
1988:/home/simulink/cFS_FreeRTOS_seL4/cfe/fsw/cfe-core/src/sb/cfe_sb_api.c ****     /* translate the given Time_Out value */
1989:/home/simulink/cFS_FreeRTOS_seL4/cfe/fsw/cfe-core/src/sb/cfe_sb_api.c ****     switch(Time_Out){
 4956               	.loc 1 1989 0
 4957 2aec 202F 0048 	move.l 72(%sp),%d0
 4958 2af0 4A80      	tst.l %d0
 4959 2af2 670E      	jeq .L155
 4960 2af4 72FF      	moveq #-1,%d1
 4961 2af6 B280      	cmp.l %d0,%d1
 4962 2af8 660E      	jne .L164
1990:/home/simulink/cFS_FreeRTOS_seL4/cfe/fsw/cfe-core/src/sb/cfe_sb_api.c **** 
1991:/home/simulink/cFS_FreeRTOS_seL4/cfe/fsw/cfe-core/src/sb/cfe_sb_api.c ****       case CFE_SB_PEND_FOREVER:
1992:/home/simulink/cFS_FreeRTOS_seL4/cfe/fsw/cfe-core/src/sb/cfe_sb_api.c ****           TimeOut = OS_PEND;
 4963               	.loc 1 1992 0
 4964 2afa 70FF      	moveq #-1,%d0
 4965 2afc 2F40 0034 	move.l %d0,52(%sp)
1993:/home/simulink/cFS_FreeRTOS_seL4/cfe/fsw/cfe-core/src/sb/cfe_sb_api.c ****           break;
 4966               	.loc 1 1993 0
 4967 2b00 600E      	jra .L157
 4968               	.L155:
1994:/home/simulink/cFS_FreeRTOS_seL4/cfe/fsw/cfe-core/src/sb/cfe_sb_api.c **** 
1995:/home/simulink/cFS_FreeRTOS_seL4/cfe/fsw/cfe-core/src/sb/cfe_sb_api.c ****       case CFE_SB_POLL:
1996:/home/simulink/cFS_FreeRTOS_seL4/cfe/fsw/cfe-core/src/sb/cfe_sb_api.c ****           TimeOut = OS_CHECK;
 4969               	.loc 1 1996 0
68K GAS   			page 138


 4970 2b02 42AF 0034 	clr.l 52(%sp)
1997:/home/simulink/cFS_FreeRTOS_seL4/cfe/fsw/cfe-core/src/sb/cfe_sb_api.c ****           break;
 4971               	.loc 1 1997 0
 4972 2b06 6008      	jra .L157
 4973               	.L164:
1998:/home/simulink/cFS_FreeRTOS_seL4/cfe/fsw/cfe-core/src/sb/cfe_sb_api.c **** 
1999:/home/simulink/cFS_FreeRTOS_seL4/cfe/fsw/cfe-core/src/sb/cfe_sb_api.c ****       default:
2000:/home/simulink/cFS_FreeRTOS_seL4/cfe/fsw/cfe-core/src/sb/cfe_sb_api.c ****           TimeOut = Time_Out;
 4974               	.loc 1 2000 0
 4975 2b08 2F6F 0048 	move.l 72(%sp),52(%sp)
 4975      0034 
2001:/home/simulink/cFS_FreeRTOS_seL4/cfe/fsw/cfe-core/src/sb/cfe_sb_api.c ****           break;
 4976               	.loc 1 2001 0
 4977 2b0e 4E71      	nop
 4978               	.L157:
2002:/home/simulink/cFS_FreeRTOS_seL4/cfe/fsw/cfe-core/src/sb/cfe_sb_api.c **** 
2003:/home/simulink/cFS_FreeRTOS_seL4/cfe/fsw/cfe-core/src/sb/cfe_sb_api.c ****     }/* end switch */
2004:/home/simulink/cFS_FreeRTOS_seL4/cfe/fsw/cfe-core/src/sb/cfe_sb_api.c **** 
2005:/home/simulink/cFS_FreeRTOS_seL4/cfe/fsw/cfe-core/src/sb/cfe_sb_api.c ****     /* Read the buffer descriptor address from the queue.  */
2006:/home/simulink/cFS_FreeRTOS_seL4/cfe/fsw/cfe-core/src/sb/cfe_sb_api.c ****     Status = OS_QueueGet(PipeDscPtr->SysQueueId,
 4979               	.loc 1 2006 0
 4980 2b10 206F 0040 	move.l 64(%sp),%a0
 4981 2b14 2228 0030 	move.l 48(%a0),%d1
 4982 2b18 2F2F 0034 	move.l 52(%sp),-(%sp)
 4983               	.cfi_def_cfa_offset 68
 4984 2b1c 200F      	move.l %sp,%d0
 4985 2b1e 0680 0000 	add.l #52,%d0
 4985      0034 
 4986 2b24 2F00      	move.l %d0,-(%sp)
 4987               	.cfi_def_cfa_offset 72
 4988 2b26 4878 0004 	pea 4.w
 4989               	.cfi_def_cfa_offset 76
 4990 2b2a 2F2F 0058 	move.l 88(%sp),-(%sp)
 4991               	.cfi_def_cfa_offset 80
 4992 2b2e 2F01      	move.l %d1,-(%sp)
 4993               	.cfi_def_cfa_offset 84
 4994 2b30 4EB9 0000 	jsr OS_QueueGet
 4994      0000 
 4995 2b36 4FEF 0014 	lea (20,%sp),%sp
 4996               	.cfi_def_cfa_offset 64
 4997 2b3a 2F40 0038 	move.l %d0,56(%sp)
2007:/home/simulink/cFS_FreeRTOS_seL4/cfe/fsw/cfe-core/src/sb/cfe_sb_api.c ****                         (void *)Message,
2008:/home/simulink/cFS_FreeRTOS_seL4/cfe/fsw/cfe-core/src/sb/cfe_sb_api.c ****                         sizeof(CFE_SB_BufferD_t *),
2009:/home/simulink/cFS_FreeRTOS_seL4/cfe/fsw/cfe-core/src/sb/cfe_sb_api.c ****                         &Nbytes,
2010:/home/simulink/cFS_FreeRTOS_seL4/cfe/fsw/cfe-core/src/sb/cfe_sb_api.c ****                         TimeOut);
2011:/home/simulink/cFS_FreeRTOS_seL4/cfe/fsw/cfe-core/src/sb/cfe_sb_api.c **** 
2012:/home/simulink/cFS_FreeRTOS_seL4/cfe/fsw/cfe-core/src/sb/cfe_sb_api.c ****     /* translate the return value */
2013:/home/simulink/cFS_FreeRTOS_seL4/cfe/fsw/cfe-core/src/sb/cfe_sb_api.c ****     switch(Status){
 4998               	.loc 1 2013 0
 4999 2b3e 202F 0038 	move.l 56(%sp),%d0
 5000 2b42 72F8      	moveq #-8,%d1
 5001 2b44 B280      	cmp.l %d0,%d1
 5002 2b46 6714      	jeq .L159
 5003 2b48 4A80      	tst.l %d0
 5004 2b4a 6708      	jeq .L160
 5005 2b4c 72F6      	moveq #-10,%d1
 5006 2b4e B280      	cmp.l %d0,%d1
68K GAS   			page 139


 5007 2b50 6718      	jeq .L161
 5008 2b52 6024      	jra .L165
 5009               	.L160:
2014:/home/simulink/cFS_FreeRTOS_seL4/cfe/fsw/cfe-core/src/sb/cfe_sb_api.c **** 
2015:/home/simulink/cFS_FreeRTOS_seL4/cfe/fsw/cfe-core/src/sb/cfe_sb_api.c ****       case OS_SUCCESS:
2016:/home/simulink/cFS_FreeRTOS_seL4/cfe/fsw/cfe-core/src/sb/cfe_sb_api.c ****           Status = CFE_SUCCESS;
 5010               	.loc 1 2016 0
 5011 2b54 42AF 0038 	clr.l 56(%sp)
2017:/home/simulink/cFS_FreeRTOS_seL4/cfe/fsw/cfe-core/src/sb/cfe_sb_api.c ****           break;
 5012               	.loc 1 2017 0
 5013 2b58 6000 00B8 	jra .L162
 5014               	.L159:
2018:/home/simulink/cFS_FreeRTOS_seL4/cfe/fsw/cfe-core/src/sb/cfe_sb_api.c **** 
2019:/home/simulink/cFS_FreeRTOS_seL4/cfe/fsw/cfe-core/src/sb/cfe_sb_api.c ****       case OS_QUEUE_EMPTY:
2020:/home/simulink/cFS_FreeRTOS_seL4/cfe/fsw/cfe-core/src/sb/cfe_sb_api.c ****           Status = CFE_SB_NO_MESSAGE;
 5015               	.loc 1 2020 0
 5016 2b5c 203C CA00 	move.l #-905969662,%d0
 5016      0002 
 5017 2b62 2F40 0038 	move.l %d0,56(%sp)
2021:/home/simulink/cFS_FreeRTOS_seL4/cfe/fsw/cfe-core/src/sb/cfe_sb_api.c ****           break;
 5018               	.loc 1 2021 0
 5019 2b66 6000 00AA 	jra .L162
 5020               	.L161:
2022:/home/simulink/cFS_FreeRTOS_seL4/cfe/fsw/cfe-core/src/sb/cfe_sb_api.c **** 
2023:/home/simulink/cFS_FreeRTOS_seL4/cfe/fsw/cfe-core/src/sb/cfe_sb_api.c ****       case OS_QUEUE_TIMEOUT:
2024:/home/simulink/cFS_FreeRTOS_seL4/cfe/fsw/cfe-core/src/sb/cfe_sb_api.c ****           Status = CFE_SB_TIME_OUT;
 5021               	.loc 1 2024 0
 5022 2b6a 223C CA00 	move.l #-905969663,%d1
 5022      0001 
 5023 2b70 2F41 0038 	move.l %d1,56(%sp)
2025:/home/simulink/cFS_FreeRTOS_seL4/cfe/fsw/cfe-core/src/sb/cfe_sb_api.c ****           break;
 5024               	.loc 1 2025 0
 5025 2b74 6000 009C 	jra .L162
 5026               	.L165:
2026:/home/simulink/cFS_FreeRTOS_seL4/cfe/fsw/cfe-core/src/sb/cfe_sb_api.c **** 
2027:/home/simulink/cFS_FreeRTOS_seL4/cfe/fsw/cfe-core/src/sb/cfe_sb_api.c ****       default:
2028:/home/simulink/cFS_FreeRTOS_seL4/cfe/fsw/cfe-core/src/sb/cfe_sb_api.c ****           CFE_SB_LockSharedData(__func__,__LINE__);
 5027               	.loc 1 2028 0
 5028 2b78 4878 07EC 	pea 2028.w
 5029               	.cfi_def_cfa_offset 68
 5030 2b7c 4879 0000 	pea __func__.5800
 5030      0000 
 5031               	.cfi_def_cfa_offset 72
 5032 2b82 4EB9 0000 	jsr CFE_SB_LockSharedData
 5032      0000 
 5033 2b88 508F      	addq.l #8,%sp
 5034               	.cfi_def_cfa_offset 64
2029:/home/simulink/cFS_FreeRTOS_seL4/cfe/fsw/cfe-core/src/sb/cfe_sb_api.c ****           CFE_SB.HKTlmMsg.Payload.InternalErrCnt++;
 5035               	.loc 1 2029 0
 5036 2b8a 1039 0000 	move.b CFE_SB+4517,%d0
 5036      0000 
 5037 2b90 5280      	addq.l #1,%d0
 5038 2b92 1000      	move.b %d0,%d0
 5039 2b94 13C0 0000 	move.b %d0,CFE_SB+4517
 5039      0000 
2030:/home/simulink/cFS_FreeRTOS_seL4/cfe/fsw/cfe-core/src/sb/cfe_sb_api.c ****           CFE_SB_UnlockSharedData(__func__,__LINE__);
 5040               	.loc 1 2030 0
68K GAS   			page 140


 5041 2b9a 4878 07EE 	pea 2030.w
 5042               	.cfi_def_cfa_offset 68
 5043 2b9e 4879 0000 	pea __func__.5800
 5043      0000 
 5044               	.cfi_def_cfa_offset 72
 5045 2ba4 4EB9 0000 	jsr CFE_SB_UnlockSharedData
 5045      0000 
 5046 2baa 508F      	addq.l #8,%sp
 5047               	.cfi_def_cfa_offset 64
2031:/home/simulink/cFS_FreeRTOS_seL4/cfe/fsw/cfe-core/src/sb/cfe_sb_api.c ****           /* Unexpected error while reading the queue. */
2032:/home/simulink/cFS_FreeRTOS_seL4/cfe/fsw/cfe-core/src/sb/cfe_sb_api.c ****           CFE_EVS_SendEventWithAppID(CFE_SB_Q_RD_ERR_EID,CFE_EVS_ERROR,CFE_SB.AppId,
 5048               	.loc 1 2032 0
 5049 2bac 262F 0038 	move.l 56(%sp),%d3
 5050 2bb0 200F      	move.l %sp,%d0
 5051 2bb2 5080      	addq.l #8,%d0
 5052 2bb4 2F00      	move.l %d0,-(%sp)
 5053               	.cfi_def_cfa_offset 68
 5054 2bb6 2F2F 0048 	move.l 72(%sp),-(%sp)
 5055               	.cfi_def_cfa_offset 72
 5056 2bba 4EB9 0000 	jsr CFE_SB_GetAppTskName
 5056      0000 
 5057 2bc0 508F      	addq.l #8,%sp
 5058               	.cfi_def_cfa_offset 64
 5059 2bc2 2400      	move.l %d0,%d2
2033:/home/simulink/cFS_FreeRTOS_seL4/cfe/fsw/cfe-core/src/sb/cfe_sb_api.c ****               "Pipe Read Err,pipe %s,app %s,stat 0x%x",
2034:/home/simulink/cFS_FreeRTOS_seL4/cfe/fsw/cfe-core/src/sb/cfe_sb_api.c ****               CFE_SB_GetPipeName(PipeDscPtr->PipeId),CFE_SB_GetAppTskName(TskId,FullName),(unsigned
 5060               	.loc 1 2034 0
 5061 2bc4 206F 0040 	move.l 64(%sp),%a0
 5062 2bc8 1028 0001 	move.b 1(%a0),%d0
2032:/home/simulink/cFS_FreeRTOS_seL4/cfe/fsw/cfe-core/src/sb/cfe_sb_api.c ****               "Pipe Read Err,pipe %s,app %s,stat 0x%x",
 5063               	.loc 1 2032 0
 5064 2bcc 1000      	move.b %d0,%d0
 5065 2bce 0280 0000 	and.l #255,%d0
 5065      00FF 
 5066 2bd4 2F00      	move.l %d0,-(%sp)
 5067               	.cfi_def_cfa_offset 68
 5068 2bd6 4EB9 0000 	jsr CFE_SB_GetPipeName
 5068      0000 
 5069 2bdc 588F      	addq.l #4,%sp
 5070               	.cfi_def_cfa_offset 64
 5071 2bde 2200      	move.l %d0,%d1
 5072 2be0 2039 0000 	move.l CFE_SB+12,%d0
 5072      0000 
 5073 2be6 2F03      	move.l %d3,-(%sp)
 5074               	.cfi_def_cfa_offset 68
 5075 2be8 2F02      	move.l %d2,-(%sp)
 5076               	.cfi_def_cfa_offset 72
 5077 2bea 2F01      	move.l %d1,-(%sp)
 5078               	.cfi_def_cfa_offset 76
 5079 2bec 4879 0000 	pea .LC35
 5079      0000 
 5080               	.cfi_def_cfa_offset 80
 5081 2bf2 2F00      	move.l %d0,-(%sp)
 5082               	.cfi_def_cfa_offset 84
 5083 2bf4 4878 0003 	pea 3.w
 5084               	.cfi_def_cfa_offset 88
 5085 2bf8 4878 001B 	pea 27.w
68K GAS   			page 141


 5086               	.cfi_def_cfa_offset 92
 5087 2bfc 4EB9 0000 	jsr CFE_EVS_SendEventWithAppID
 5087      0000 
 5088 2c02 4FEF 001C 	lea (28,%sp),%sp
 5089               	.cfi_def_cfa_offset 64
2035:/home/simulink/cFS_FreeRTOS_seL4/cfe/fsw/cfe-core/src/sb/cfe_sb_api.c **** 
2036:/home/simulink/cFS_FreeRTOS_seL4/cfe/fsw/cfe-core/src/sb/cfe_sb_api.c ****           Status = CFE_SB_PIPE_RD_ERR;
 5090               	.loc 1 2036 0
 5091 2c06 203C CA00 	move.l #-905969658,%d0
 5091      0006 
 5092 2c0c 2F40 0038 	move.l %d0,56(%sp)
2037:/home/simulink/cFS_FreeRTOS_seL4/cfe/fsw/cfe-core/src/sb/cfe_sb_api.c ****           break;
 5093               	.loc 1 2037 0
 5094 2c10 4E71      	nop
 5095               	.L162:
2038:/home/simulink/cFS_FreeRTOS_seL4/cfe/fsw/cfe-core/src/sb/cfe_sb_api.c **** 
2039:/home/simulink/cFS_FreeRTOS_seL4/cfe/fsw/cfe-core/src/sb/cfe_sb_api.c ****     }/* end switch */
2040:/home/simulink/cFS_FreeRTOS_seL4/cfe/fsw/cfe-core/src/sb/cfe_sb_api.c **** 
2041:/home/simulink/cFS_FreeRTOS_seL4/cfe/fsw/cfe-core/src/sb/cfe_sb_api.c ****     return (Status);
 5096               	.loc 1 2041 0
 5097 2c12 202F 0038 	move.l 56(%sp),%d0
2042:/home/simulink/cFS_FreeRTOS_seL4/cfe/fsw/cfe-core/src/sb/cfe_sb_api.c **** }/* end CFE_SB_ReadQueue */
 5098               	.loc 1 2042 0
 5099 2c16 241F      	move.l (%sp)+,%d2
 5100 2c18 261F      	move.l (%sp)+,%d3
 5101 2c1a 4FEF 0034 	lea (52,%sp),%sp
 5102 2c1e 4E75      	rts
 5103               	.cfi_endproc
 5104               	.LFE81:
 5105               	.sizeCFE_SB_ReadQueue, .-CFE_SB_ReadQueue
 5106               	.section.rodata
 5107               	.type__func__.5596, @object
 5108               	.size__func__.5596, 18
 5109               	__func__.5596:
 5110 0751 4346 455F 	.string"CFE_SB_CreatePipe"
 5110      5342 5F43 
 5110      7265 6174 
 5110      6550 6970 
 5110      6500 
 5111               	.type__func__.5620, @object
 5112               	.size__func__.5620, 22
 5113               	__func__.5620:
 5114 0763 4346 455F 	.string"CFE_SB_DeletePipeFull"
 5114      5342 5F44 
 5114      656C 6574 
 5114      6550 6970 
 5114      6546 756C 
 5115               	.type__func__.5658, @object
 5116               	.size__func__.5658, 21
 5117               	__func__.5658:
 5118 0779 4346 455F 	.string"CFE_SB_SubscribeFull"
 5118      5342 5F53 
 5118      7562 7363 
 5118      7269 6265 
 5118      4675 6C6C 
 5119               	.type__func__.5690, @object
 5120               	.size__func__.5690, 23
68K GAS   			page 142


 5121               	__func__.5690:
 5122 078e 4346 455F 	.string"CFE_SB_UnsubscribeFull"
 5122      5342 5F55 
 5122      6E73 7562 
 5122      7363 7269 
 5122      6265 4675 
 5123               	.type__func__.5718, @object
 5124               	.size__func__.5718, 19
 5125               	__func__.5718:
 5126 07a5 4346 455F 	.string"CFE_SB_SendMsgFull"
 5126      5342 5F53 
 5126      656E 644D 
 5126      7367 4675 
 5126      6C6C 00
 5127               	.type__func__.5737, @object
 5128               	.size__func__.5737, 14
 5129               	__func__.5737:
 5130 07b8 4346 455F 	.string"CFE_SB_RcvMsg"
 5130      5342 5F52 
 5130      6376 4D73 
 5130      6700 
 5131               	.type__func__.5746, @object
 5132               	.size__func__.5746, 23
 5133               	__func__.5746:
 5134 07c6 4346 455F 	.string"CFE_SB_GetLastSenderId"
 5134      5342 5F47 
 5134      6574 4C61 
 5134      7374 5365 
 5134      6E64 6572 
 5135               	.type__func__.5756, @object
 5136               	.size__func__.5756, 22
 5137               	__func__.5756:
 5138 07dd 4346 455F 	.string"CFE_SB_ZeroCopyGetPtr"
 5138      5342 5F5A 
 5138      6572 6F43 
 5138      6F70 7947 
 5138      6574 5074 
 5139               	.type__func__.5763, @object
 5140               	.size__func__.5763, 26
 5141               	__func__.5763:
 5142 07f3 4346 455F 	.string"CFE_SB_ZeroCopyReleasePtr"
 5142      5342 5F5A 
 5142      6572 6F43 
 5142      6F70 7952 
 5142      656C 6561 
 5143               	.type__func__.5770, @object
 5144               	.size__func__.5770, 27
 5145               	__func__.5770:
 5146 080d 4346 455F 	.string"CFE_SB_ZeroCopyReleaseDesc"
 5146      5342 5F5A 
 5146      6572 6F43 
 5146      6F70 7952 
 5146      656C 6561 
 5147               	.type__func__.5800, @object
 5148               	.size__func__.5800, 17
 5149               	__func__.5800:
 5150 0828 4346 455F 	.string"CFE_SB_ReadQueue"
68K GAS   			page 143


 5150      5342 5F52 
 5150      6561 6451 
 5150      7565 7565 
 5150      00
 5151               	.text
 5152               	.Letext0:
 5153               	.file 2 "/home/simulink/cFS_FreeRTOS_seL4/osal/src/os/inc/common_types.h"
 5154               	.file 3 "/home/simulink/development/rtems/5/m68k-rtems5/include/machine/_default_types.h"
 5155               	.file 4 "/home/simulink/development/rtems/5/m68k-rtems5/include/machine/_types.h"
 5156               	.file 5 "/home/simulink/development/rtems/5/m68k-rtems5/include/sys/lock.h"
 5157               	.file 6 "/home/simulink/development/rtems/5/m68k-rtems5/include/sys/_types.h"
 5158               	.file 7 "/home/simulink/development/rtems/5/lib/gcc/m68k-rtems5/7.3.0/include/stddef.h"
 5159               	.file 8 "/home/simulink/development/rtems/5/m68k-rtems5/include/sys/reent.h"
 5160               	.file 9 "/home/simulink/development/rtems/5/m68k-rtems5/include/stdlib.h"
 5161               	.file 10 "/home/simulink/development/rtems/5/m68k-rtems5/include/time.h"
 5162               	.file 11 "/home/simulink/cFS_FreeRTOS_seL4/cfe/fsw/cfe-core/src/inc/cfe_es.h"
 5163               	.file 12 "/home/simulink/cFS_FreeRTOS_seL4/cfe/fsw/cfe-core/src/inc/ccsds.h"
 5164               	.file 13 "/home/simulink/cFS_FreeRTOS_seL4/cfe/fsw/cfe-core/src/inc/cfe_sb.h"
 5165               	.file 14 "/home/simulink/cFS_FreeRTOS_seL4/cfe/fsw/cfe-core/src/inc/cfe_evs.h"
 5166               	.file 15 "/home/simulink/cFS_FreeRTOS_seL4/cfe/fsw/cfe-core/src/inc/cfe_sb_msg.h"
 5167               	.file 16 "/home/simulink/cFS_FreeRTOS_seL4/cfe/fsw/cfe-core/src/sb/cfe_sb_priv.h"
 5168               	.section.debug_info,"",@progbits
 5169               	.Ldebug_info0:
 5170 0000 0000 1FB1 	.long0x1fb1
 5171 0004 0004      	.word0x4
 5172 0006 0000 0000 	.long.Ldebug_abbrev0
 5173 000a 04        	.byte0x4
 5174 000b 01        	.uleb128 0x1
 5175 000c 0000 0000 	.long.LASF341
 5176 0010 0C        	.byte0xc
 5177 0011 0000 0000 	.long.LASF342
 5178 0015 0000 0000 	.long.LASF343
 5179 0019 0000 0000 	.long.Ltext0
 5180 001d 0000 2C20 	.long.Letext0-.Ltext0
 5181 0021 0000 0000 	.long.Ldebug_line0
 5182 0025 02        	.uleb128 0x2
 5183 0026 01        	.byte0x1
 5184 0027 08        	.byte0x8
 5185 0028 0000 0000 	.long.LASF0
 5186 002c 02        	.uleb128 0x2
 5187 002d 01        	.byte0x1
 5188 002e 06        	.byte0x6
 5189 002f 0000 0000 	.long.LASF1
 5190 0033 02        	.uleb128 0x2
 5191 0034 02        	.byte0x2
 5192 0035 05        	.byte0x5
 5193 0036 0000 0000 	.long.LASF2
 5194 003a 03        	.uleb128 0x3
 5195 003b 0000 0000 	.long.LASF5
 5196 003f 02        	.byte0x2
 5197 0040 E9        	.byte0xe9
 5198 0041 0000 0045 	.long0x45
 5199 0045 02        	.uleb128 0x2
 5200 0046 04        	.byte0x4
 5201 0047 05        	.byte0x5
 5202 0048 0000 0000 	.long.LASF3
 5203 004c 02        	.uleb128 0x2
68K GAS   			page 144


 5204 004d 08        	.byte0x8
 5205 004e 05        	.byte0x5
 5206 004f 0000 0000 	.long.LASF4
 5207 0053 03        	.uleb128 0x3
 5208 0054 0000 0000 	.long.LASF6
 5209 0058 02        	.byte0x2
 5210 0059 EB        	.byte0xeb
 5211 005a 0000 0025 	.long0x25
 5212 005e 03        	.uleb128 0x3
 5213 005f 0000 0000 	.long.LASF7
 5214 0063 02        	.byte0x2
 5215 0064 EC        	.byte0xec
 5216 0065 0000 0069 	.long0x69
 5217 0069 02        	.uleb128 0x2
 5218 006a 02        	.byte0x2
 5219 006b 07        	.byte0x7
 5220 006c 0000 0000 	.long.LASF8
 5221 0070 03        	.uleb128 0x3
 5222 0071 0000 0000 	.long.LASF9
 5223 0075 02        	.byte0x2
 5224 0076 ED        	.byte0xed
 5225 0077 0000 007B 	.long0x7b
 5226 007b 02        	.uleb128 0x2
 5227 007c 04        	.byte0x4
 5228 007d 07        	.byte0x7
 5229 007e 0000 0000 	.long.LASF10
 5230 0082 02        	.uleb128 0x2
 5231 0083 08        	.byte0x8
 5232 0084 07        	.byte0x7
 5233 0085 0000 0000 	.long.LASF11
 5234 0089 03        	.uleb128 0x3
 5235 008a 0000 0000 	.long.LASF12
 5236 008e 02        	.byte0x2
 5237 008f F0        	.byte0xf0
 5238 0090 0000 007B 	.long0x7b
 5239 0094 02        	.uleb128 0x2
 5240 0095 01        	.byte0x1
 5241 0096 06        	.byte0x6
 5242 0097 0000 0000 	.long.LASF13
 5243 009b 04        	.uleb128 0x4
 5244 009c 0000 0094 	.long0x94
 5245 00a0 05        	.uleb128 0x5
 5246 00a1 0000 0094 	.long0x94
 5247 00a5 0000 00B0 	.long0xb0
 5248 00a9 06        	.uleb128 0x6
 5249 00aa 0000 007B 	.long0x7b
 5250 00ae 13        	.byte0x13
 5251 00af 00        	.byte0
 5252 00b0 07        	.uleb128 0x7
 5253 00b1 04        	.byte0x4
 5254 00b2 03        	.uleb128 0x3
 5255 00b3 0000 0000 	.long.LASF14
 5256 00b7 03        	.byte0x3
 5257 00b8 67        	.byte0x67
 5258 00b9 0000 004C 	.long0x4c
 5259 00bd 02        	.uleb128 0x2
 5260 00be 08        	.byte0x8
68K GAS   			page 145


 5261 00bf 04        	.byte0x4
 5262 00c0 0000 0000 	.long.LASF15
 5263 00c4 03        	.uleb128 0x3
 5264 00c5 0000 0000 	.long.LASF16
 5265 00c9 04        	.byte0x4
 5266 00ca 10        	.byte0x10
 5267 00cb 0000 00B2 	.long0xb2
 5268 00cf 03        	.uleb128 0x3
 5269 00d0 0000 0000 	.long.LASF17
 5270 00d4 04        	.byte0x4
 5271 00d5 16        	.byte0x16
 5272 00d6 0000 00C4 	.long0xc4
 5273 00da 08        	.uleb128 0x8
 5274 00db 04        	.byte0x4
 5275 00dc 05        	.byte0x5
 5276 00dd 696E 7400 	.string"int"
 5277 00e1 09        	.uleb128 0x9
 5278 00e2 0000 0000 	.long.LASF21
 5279 00e6 08        	.byte0x8
 5280 00e7 05        	.byte0x5
 5281 00e8 28        	.byte0x28
 5282 00e9 0000 0106 	.long0x106
 5283 00ed 0A        	.uleb128 0xa
 5284 00ee 0000 0000 	.long.LASF18
 5285 00f2 05        	.byte0x5
 5286 00f3 29        	.byte0x29
 5287 00f4 0000 0106 	.long0x106
 5288 00f8 00        	.byte0
 5289 00f9 0A        	.uleb128 0xa
 5290 00fa 0000 0000 	.long.LASF19
 5291 00fe 05        	.byte0x5
 5292 00ff 2A        	.byte0x2a
 5293 0100 0000 0106 	.long0x106
 5294 0104 04        	.byte0x4
 5295 0105 00        	.byte0
 5296 0106 02        	.uleb128 0x2
 5297 0107 04        	.byte0x4
 5298 0108 07        	.byte0x7
 5299 0109 0000 0000 	.long.LASF20
 5300 010d 09        	.uleb128 0x9
 5301 010e 0000 0000 	.long.LASF22
 5302 0112 14        	.byte0x14
 5303 0113 05        	.byte0x5
 5304 0114 2D        	.byte0x2d
 5305 0115 0000 014A 	.long0x14a
 5306 0119 0A        	.uleb128 0xa
 5307 011a 0000 0000 	.long.LASF23
 5308 011e 05        	.byte0x5
 5309 011f 2E        	.byte0x2e
 5310 0120 0000 00E1 	.long0xe1
 5311 0124 00        	.byte0
 5312 0125 0A        	.uleb128 0xa
 5313 0126 0000 0000 	.long.LASF24
 5314 012a 05        	.byte0x5
 5315 012b 2F        	.byte0x2f
 5316 012c 0000 014F 	.long0x14f
 5317 0130 08        	.byte0x8
68K GAS   			page 146


 5318 0131 0A        	.uleb128 0xa
 5319 0132 0000 0000 	.long.LASF25
 5320 0136 05        	.byte0x5
 5321 0137 30        	.byte0x30
 5322 0138 0000 015A 	.long0x15a
 5323 013c 0C        	.byte0xc
 5324 013d 0A        	.uleb128 0xa
 5325 013e 0000 0000 	.long.LASF26
 5326 0142 05        	.byte0x5
 5327 0143 31        	.byte0x31
 5328 0144 0000 0160 	.long0x160
 5329 0148 10        	.byte0x10
 5330 0149 00        	.byte0
 5331 014a 0B        	.uleb128 0xb
 5332 014b 0000 0000 	.long.LASF27
 5333 014f 0C        	.uleb128 0xc
 5334 0150 04        	.byte0x4
 5335 0151 0000 014A 	.long0x14a
 5336 0155 0B        	.uleb128 0xb
 5337 0156 0000 0000 	.long.LASF28
 5338 015a 0C        	.uleb128 0xc
 5339 015b 04        	.byte0x4
 5340 015c 0000 0155 	.long0x155
 5341 0160 0C        	.uleb128 0xc
 5342 0161 04        	.byte0x4
 5343 0162 0000 009B 	.long0x9b
 5344 0166 09        	.uleb128 0x9
 5345 0167 0000 0000 	.long.LASF29
 5346 016b 14        	.byte0x14
 5347 016c 05        	.byte0x5
 5348 016d 34        	.byte0x34
 5349 016e 0000 017F 	.long0x17f
 5350 0172 0A        	.uleb128 0xa
 5351 0173 0000 0000 	.long.LASF30
 5352 0177 05        	.byte0x5
 5353 0178 35        	.byte0x35
 5354 0179 0000 010D 	.long0x10d
 5355 017d 00        	.byte0
 5356 017e 00        	.byte0
 5357 017f 09        	.uleb128 0x9
 5358 0180 0000 0000 	.long.LASF31
 5359 0184 18        	.byte0x18
 5360 0185 05        	.byte0x5
 5361 0186 38        	.byte0x38
 5362 0187 0000 01A4 	.long0x1a4
 5363 018b 0A        	.uleb128 0xa
 5364 018c 0000 0000 	.long.LASF32
 5365 0190 05        	.byte0x5
 5366 0191 39        	.byte0x39
 5367 0192 0000 0166 	.long0x166
 5368 0196 00        	.byte0
 5369 0197 0A        	.uleb128 0xa
 5370 0198 0000 0000 	.long.LASF33
 5371 019c 05        	.byte0x5
 5372 019d 3A        	.byte0x3a
 5373 019e 0000 0106 	.long0x106
 5374 01a2 14        	.byte0x14
68K GAS   			page 147


 5375 01a3 00        	.byte0
 5376 01a4 0D        	.uleb128 0xd
 5377 01a5 0000 0000 	.long.LASF34
 5378 01a9 05        	.byte0x5
 5379 01aa 0171      	.word0x171
 5380 01ac 0000 017F 	.long0x17f
 5381 01b0 03        	.uleb128 0x3
 5382 01b1 0000 0000 	.long.LASF35
 5383 01b5 06        	.byte0x6
 5384 01b6 91        	.byte0x91
 5385 01b7 0000 0045 	.long0x45
 5386 01bb 0D        	.uleb128 0xd
 5387 01bc 0000 0000 	.long.LASF36
 5388 01c0 07        	.byte0x7
 5389 01c1 0165      	.word0x165
 5390 01c3 0000 0106 	.long0x106
 5391 01c7 0E        	.uleb128 0xe
 5392 01c8 04        	.byte0x4
 5393 01c9 06        	.byte0x6
 5394 01ca A6        	.byte0xa6
 5395 01cb 0000 01E6 	.long0x1e6
 5396 01cf 0F        	.uleb128 0xf
 5397 01d0 0000 0000 	.long.LASF37
 5398 01d4 06        	.byte0x6
 5399 01d5 A8        	.byte0xa8
 5400 01d6 0000 01BB 	.long0x1bb
 5401 01da 0F        	.uleb128 0xf
 5402 01db 0000 0000 	.long.LASF38
 5403 01df 06        	.byte0x6
 5404 01e0 A9        	.byte0xa9
 5405 01e1 0000 01E6 	.long0x1e6
 5406 01e5 00        	.byte0
 5407 01e6 05        	.uleb128 0x5
 5408 01e7 0000 0025 	.long0x25
 5409 01eb 0000 01F6 	.long0x1f6
 5410 01ef 06        	.uleb128 0x6
 5411 01f0 0000 007B 	.long0x7b
 5412 01f4 03        	.byte0x3
 5413 01f5 00        	.byte0
 5414 01f6 10        	.uleb128 0x10
 5415 01f7 08        	.byte0x8
 5416 01f8 06        	.byte0x6
 5417 01f9 A3        	.byte0xa3
 5418 01fa 0000 0217 	.long0x217
 5419 01fe 0A        	.uleb128 0xa
 5420 01ff 0000 0000 	.long.LASF39
 5421 0203 06        	.byte0x6
 5422 0204 A5        	.byte0xa5
 5423 0205 0000 00DA 	.long0xda
 5424 0209 00        	.byte0
 5425 020a 0A        	.uleb128 0xa
 5426 020b 0000 0000 	.long.LASF40
 5427 020f 06        	.byte0x6
 5428 0210 AA        	.byte0xaa
 5429 0211 0000 01C7 	.long0x1c7
 5430 0215 04        	.byte0x4
 5431 0216 00        	.byte0
68K GAS   			page 148


 5432 0217 03        	.uleb128 0x3
 5433 0218 0000 0000 	.long.LASF41
 5434 021c 06        	.byte0x6
 5435 021d AB        	.byte0xab
 5436 021e 0000 01F6 	.long0x1f6
 5437 0222 03        	.uleb128 0x3
 5438 0223 0000 0000 	.long.LASF42
 5439 0227 06        	.byte0x6
 5440 0228 AF        	.byte0xaf
 5441 0229 0000 01A4 	.long0x1a4
 5442 022d 03        	.uleb128 0x3
 5443 022e 0000 0000 	.long.LASF43
 5444 0232 08        	.byte0x8
 5445 0233 16        	.byte0x16
 5446 0234 0000 007B 	.long0x7b
 5447 0238 09        	.uleb128 0x9
 5448 0239 0000 0000 	.long.LASF44
 5449 023d 18        	.byte0x18
 5450 023e 08        	.byte0x8
 5451 023f 2F        	.byte0x2f
 5452 0240 0000 028B 	.long0x28b
 5453 0244 0A        	.uleb128 0xa
 5454 0245 0000 0000 	.long.LASF45
 5455 0249 08        	.byte0x8
 5456 024a 31        	.byte0x31
 5457 024b 0000 028B 	.long0x28b
 5458 024f 00        	.byte0
 5459 0250 11        	.uleb128 0x11
 5460 0251 5F6B 00   	.string"_k"
 5461 0254 08        	.byte0x8
 5462 0255 32        	.byte0x32
 5463 0256 0000 00DA 	.long0xda
 5464 025a 04        	.byte0x4
 5465 025b 0A        	.uleb128 0xa
 5466 025c 0000 0000 	.long.LASF46
 5467 0260 08        	.byte0x8
 5468 0261 32        	.byte0x32
 5469 0262 0000 00DA 	.long0xda
 5470 0266 08        	.byte0x8
 5471 0267 0A        	.uleb128 0xa
 5472 0268 0000 0000 	.long.LASF47
 5473 026c 08        	.byte0x8
 5474 026d 32        	.byte0x32
 5475 026e 0000 00DA 	.long0xda
 5476 0272 0C        	.byte0xc
 5477 0273 0A        	.uleb128 0xa
 5478 0274 0000 0000 	.long.LASF48
 5479 0278 08        	.byte0x8
 5480 0279 32        	.byte0x32
 5481 027a 0000 00DA 	.long0xda
 5482 027e 10        	.byte0x10
 5483 027f 11        	.uleb128 0x11
 5484 0280 5F78 00   	.string"_x"
 5485 0283 08        	.byte0x8
 5486 0284 33        	.byte0x33
 5487 0285 0000 0291 	.long0x291
 5488 0289 14        	.byte0x14
68K GAS   			page 149


 5489 028a 00        	.byte0
 5490 028b 0C        	.uleb128 0xc
 5491 028c 04        	.byte0x4
 5492 028d 0000 0238 	.long0x238
 5493 0291 05        	.uleb128 0x5
 5494 0292 0000 022D 	.long0x22d
 5495 0296 0000 02A1 	.long0x2a1
 5496 029a 06        	.uleb128 0x6
 5497 029b 0000 007B 	.long0x7b
 5498 029f 00        	.byte0
 5499 02a0 00        	.byte0
 5500 02a1 09        	.uleb128 0x9
 5501 02a2 0000 0000 	.long.LASF49
 5502 02a6 24        	.byte0x24
 5503 02a7 08        	.byte0x8
 5504 02a8 37        	.byte0x37
 5505 02a9 0000 031A 	.long0x31a
 5506 02ad 0A        	.uleb128 0xa
 5507 02ae 0000 0000 	.long.LASF50
 5508 02b2 08        	.byte0x8
 5509 02b3 39        	.byte0x39
 5510 02b4 0000 00DA 	.long0xda
 5511 02b8 00        	.byte0
 5512 02b9 0A        	.uleb128 0xa
 5513 02ba 0000 0000 	.long.LASF51
 5514 02be 08        	.byte0x8
 5515 02bf 3A        	.byte0x3a
 5516 02c0 0000 00DA 	.long0xda
 5517 02c4 04        	.byte0x4
 5518 02c5 0A        	.uleb128 0xa
 5519 02c6 0000 0000 	.long.LASF52
 5520 02ca 08        	.byte0x8
 5521 02cb 3B        	.byte0x3b
 5522 02cc 0000 00DA 	.long0xda
 5523 02d0 08        	.byte0x8
 5524 02d1 0A        	.uleb128 0xa
 5525 02d2 0000 0000 	.long.LASF53
 5526 02d6 08        	.byte0x8
 5527 02d7 3C        	.byte0x3c
 5528 02d8 0000 00DA 	.long0xda
 5529 02dc 0C        	.byte0xc
 5530 02dd 0A        	.uleb128 0xa
 5531 02de 0000 0000 	.long.LASF54
 5532 02e2 08        	.byte0x8
 5533 02e3 3D        	.byte0x3d
 5534 02e4 0000 00DA 	.long0xda
 5535 02e8 10        	.byte0x10
 5536 02e9 0A        	.uleb128 0xa
 5537 02ea 0000 0000 	.long.LASF55
 5538 02ee 08        	.byte0x8
 5539 02ef 3E        	.byte0x3e
 5540 02f0 0000 00DA 	.long0xda
 5541 02f4 14        	.byte0x14
 5542 02f5 0A        	.uleb128 0xa
 5543 02f6 0000 0000 	.long.LASF56
 5544 02fa 08        	.byte0x8
 5545 02fb 3F        	.byte0x3f
68K GAS   			page 150


 5546 02fc 0000 00DA 	.long0xda
 5547 0300 18        	.byte0x18
 5548 0301 0A        	.uleb128 0xa
 5549 0302 0000 0000 	.long.LASF57
 5550 0306 08        	.byte0x8
 5551 0307 40        	.byte0x40
 5552 0308 0000 00DA 	.long0xda
 5553 030c 1C        	.byte0x1c
 5554 030d 0A        	.uleb128 0xa
 5555 030e 0000 0000 	.long.LASF58
 5556 0312 08        	.byte0x8
 5557 0313 41        	.byte0x41
 5558 0314 0000 00DA 	.long0xda
 5559 0318 20        	.byte0x20
 5560 0319 00        	.byte0
 5561 031a 12        	.uleb128 0x12
 5562 031b 0000 0000 	.long.LASF59
 5563 031f 0108      	.word0x108
 5564 0321 08        	.byte0x8
 5565 0322 4A        	.byte0x4a
 5566 0323 0000 035A 	.long0x35a
 5567 0327 0A        	.uleb128 0xa
 5568 0328 0000 0000 	.long.LASF60
 5569 032c 08        	.byte0x8
 5570 032d 4B        	.byte0x4b
 5571 032e 0000 035A 	.long0x35a
 5572 0332 00        	.byte0
 5573 0333 0A        	.uleb128 0xa
 5574 0334 0000 0000 	.long.LASF61
 5575 0338 08        	.byte0x8
 5576 0339 4C        	.byte0x4c
 5577 033a 0000 035A 	.long0x35a
 5578 033e 80        	.byte0x80
 5579 033f 13        	.uleb128 0x13
 5580 0340 0000 0000 	.long.LASF62
 5581 0344 08        	.byte0x8
 5582 0345 4E        	.byte0x4e
 5583 0346 0000 022D 	.long0x22d
 5584 034a 0100      	.word0x100
 5585 034c 13        	.uleb128 0x13
 5586 034d 0000 0000 	.long.LASF63
 5587 0351 08        	.byte0x8
 5588 0352 51        	.byte0x51
 5589 0353 0000 022D 	.long0x22d
 5590 0357 0104      	.word0x104
 5591 0359 00        	.byte0
 5592 035a 05        	.uleb128 0x5
 5593 035b 0000 00B0 	.long0xb0
 5594 035f 0000 036A 	.long0x36a
 5595 0363 06        	.uleb128 0x6
 5596 0364 0000 007B 	.long0x7b
 5597 0368 1F        	.byte0x1f
 5598 0369 00        	.byte0
 5599 036a 12        	.uleb128 0x12
 5600 036b 0000 0000 	.long.LASF64
 5601 036f 0190      	.word0x190
 5602 0371 08        	.byte0x8
68K GAS   			page 151


 5603 0372 5D        	.byte0x5d
 5604 0373 0000 03A8 	.long0x3a8
 5605 0377 0A        	.uleb128 0xa
 5606 0378 0000 0000 	.long.LASF45
 5607 037c 08        	.byte0x8
 5608 037d 5E        	.byte0x5e
 5609 037e 0000 03A8 	.long0x3a8
 5610 0382 00        	.byte0
 5611 0383 0A        	.uleb128 0xa
 5612 0384 0000 0000 	.long.LASF65
 5613 0388 08        	.byte0x8
 5614 0389 5F        	.byte0x5f
 5615 038a 0000 00DA 	.long0xda
 5616 038e 04        	.byte0x4
 5617 038f 0A        	.uleb128 0xa
 5618 0390 0000 0000 	.long.LASF66
 5619 0394 08        	.byte0x8
 5620 0395 61        	.byte0x61
 5621 0396 0000 03AE 	.long0x3ae
 5622 039a 08        	.byte0x8
 5623 039b 0A        	.uleb128 0xa
 5624 039c 0000 0000 	.long.LASF59
 5625 03a0 08        	.byte0x8
 5626 03a1 62        	.byte0x62
 5627 03a2 0000 031A 	.long0x31a
 5628 03a6 88        	.byte0x88
 5629 03a7 00        	.byte0
 5630 03a8 0C        	.uleb128 0xc
 5631 03a9 04        	.byte0x4
 5632 03aa 0000 036A 	.long0x36a
 5633 03ae 05        	.uleb128 0x5
 5634 03af 0000 03BE 	.long0x3be
 5635 03b3 0000 03BE 	.long0x3be
 5636 03b7 06        	.uleb128 0x6
 5637 03b8 0000 007B 	.long0x7b
 5638 03bc 1F        	.byte0x1f
 5639 03bd 00        	.byte0
 5640 03be 0C        	.uleb128 0xc
 5641 03bf 04        	.byte0x4
 5642 03c0 0000 03C4 	.long0x3c4
 5643 03c4 14        	.uleb128 0x14
 5644 03c5 09        	.uleb128 0x9
 5645 03c6 0000 0000 	.long.LASF67
 5646 03ca 08        	.byte0x8
 5647 03cb 08        	.byte0x8
 5648 03cc 75        	.byte0x75
 5649 03cd 0000 03EA 	.long0x3ea
 5650 03d1 0A        	.uleb128 0xa
 5651 03d2 0000 0000 	.long.LASF68
 5652 03d6 08        	.byte0x8
 5653 03d7 76        	.byte0x76
 5654 03d8 0000 03EA 	.long0x3ea
 5655 03dc 00        	.byte0
 5656 03dd 0A        	.uleb128 0xa
 5657 03de 0000 0000 	.long.LASF69
 5658 03e2 08        	.byte0x8
 5659 03e3 77        	.byte0x77
68K GAS   			page 152


 5660 03e4 0000 00DA 	.long0xda
 5661 03e8 04        	.byte0x4
 5662 03e9 00        	.byte0
 5663 03ea 0C        	.uleb128 0xc
 5664 03eb 04        	.byte0x4
 5665 03ec 0000 0025 	.long0x25
 5666 03f0 09        	.uleb128 0x9
 5667 03f1 0000 0000 	.long.LASF70
 5668 03f5 80        	.byte0x80
 5669 03f6 08        	.byte0x8
 5670 03f7 B5        	.byte0xb5
 5671 03f8 0000 051A 	.long0x51a
 5672 03fc 11        	.uleb128 0x11
 5673 03fd 5F70 00   	.string"_p"
 5674 0400 08        	.byte0x8
 5675 0401 B6        	.byte0xb6
 5676 0402 0000 03EA 	.long0x3ea
 5677 0406 00        	.byte0
 5678 0407 11        	.uleb128 0x11
 5679 0408 5F72 00   	.string"_r"
 5680 040b 08        	.byte0x8
 5681 040c B7        	.byte0xb7
 5682 040d 0000 00DA 	.long0xda
 5683 0411 04        	.byte0x4
 5684 0412 11        	.uleb128 0x11
 5685 0413 5F77 00   	.string"_w"
 5686 0416 08        	.byte0x8
 5687 0417 B8        	.byte0xb8
 5688 0418 0000 00DA 	.long0xda
 5689 041c 08        	.byte0x8
 5690 041d 0A        	.uleb128 0xa
 5691 041e 0000 0000 	.long.LASF71
 5692 0422 08        	.byte0x8
 5693 0423 B9        	.byte0xb9
 5694 0424 0000 0033 	.long0x33
 5695 0428 0C        	.byte0xc
 5696 0429 0A        	.uleb128 0xa
 5697 042a 0000 0000 	.long.LASF72
 5698 042e 08        	.byte0x8
 5699 042f BA        	.byte0xba
 5700 0430 0000 0033 	.long0x33
 5701 0434 0E        	.byte0xe
 5702 0435 11        	.uleb128 0x11
 5703 0436 5F62 6600 	.string"_bf"
 5704 043a 08        	.byte0x8
 5705 043b BB        	.byte0xbb
 5706 043c 0000 03C5 	.long0x3c5
 5707 0440 10        	.byte0x10
 5708 0441 0A        	.uleb128 0xa
 5709 0442 0000 0000 	.long.LASF73
 5710 0446 08        	.byte0x8
 5711 0447 BC        	.byte0xbc
 5712 0448 0000 00DA 	.long0xda
 5713 044c 18        	.byte0x18
 5714 044d 0A        	.uleb128 0xa
 5715 044e 0000 0000 	.long.LASF74
 5716 0452 08        	.byte0x8
68K GAS   			page 153


 5717 0453 C3        	.byte0xc3
 5718 0454 0000 00B0 	.long0xb0
 5719 0458 1C        	.byte0x1c
 5720 0459 0A        	.uleb128 0xa
 5721 045a 0000 0000 	.long.LASF75
 5722 045e 08        	.byte0x8
 5723 045f C5        	.byte0xc5
 5724 0460 0000 0651 	.long0x651
 5725 0464 20        	.byte0x20
 5726 0465 0A        	.uleb128 0xa
 5727 0466 0000 0000 	.long.LASF76
 5728 046a 08        	.byte0x8
 5729 046b C7        	.byte0xc7
 5730 046c 0000 0675 	.long0x675
 5731 0470 24        	.byte0x24
 5732 0471 0A        	.uleb128 0xa
 5733 0472 0000 0000 	.long.LASF77
 5734 0476 08        	.byte0x8
 5735 0477 CA        	.byte0xca
 5736 0478 0000 0699 	.long0x699
 5737 047c 28        	.byte0x28
 5738 047d 0A        	.uleb128 0xa
 5739 047e 0000 0000 	.long.LASF78
 5740 0482 08        	.byte0x8
 5741 0483 CB        	.byte0xcb
 5742 0484 0000 06B3 	.long0x6b3
 5743 0488 2C        	.byte0x2c
 5744 0489 11        	.uleb128 0x11
 5745 048a 5F75 6200 	.string"_ub"
 5746 048e 08        	.byte0x8
 5747 048f CE        	.byte0xce
 5748 0490 0000 03C5 	.long0x3c5
 5749 0494 30        	.byte0x30
 5750 0495 11        	.uleb128 0x11
 5751 0496 5F75 7000 	.string"_up"
 5752 049a 08        	.byte0x8
 5753 049b CF        	.byte0xcf
 5754 049c 0000 03EA 	.long0x3ea
 5755 04a0 38        	.byte0x38
 5756 04a1 11        	.uleb128 0x11
 5757 04a2 5F75 7200 	.string"_ur"
 5758 04a6 08        	.byte0x8
 5759 04a7 D0        	.byte0xd0
 5760 04a8 0000 00DA 	.long0xda
 5761 04ac 3C        	.byte0x3c
 5762 04ad 0A        	.uleb128 0xa
 5763 04ae 0000 0000 	.long.LASF79
 5764 04b2 08        	.byte0x8
 5765 04b3 D3        	.byte0xd3
 5766 04b4 0000 06B9 	.long0x6b9
 5767 04b8 40        	.byte0x40
 5768 04b9 0A        	.uleb128 0xa
 5769 04ba 0000 0000 	.long.LASF80
 5770 04be 08        	.byte0x8
 5771 04bf D4        	.byte0xd4
 5772 04c0 0000 06C9 	.long0x6c9
 5773 04c4 43        	.byte0x43
68K GAS   			page 154


 5774 04c5 11        	.uleb128 0x11
 5775 04c6 5F6C 6200 	.string"_lb"
 5776 04ca 08        	.byte0x8
 5777 04cb D7        	.byte0xd7
 5778 04cc 0000 03C5 	.long0x3c5
 5779 04d0 44        	.byte0x44
 5780 04d1 0A        	.uleb128 0xa
 5781 04d2 0000 0000 	.long.LASF81
 5782 04d6 08        	.byte0x8
 5783 04d7 DA        	.byte0xda
 5784 04d8 0000 00DA 	.long0xda
 5785 04dc 4C        	.byte0x4c
 5786 04dd 0A        	.uleb128 0xa
 5787 04de 0000 0000 	.long.LASF82
 5788 04e2 08        	.byte0x8
 5789 04e3 DB        	.byte0xdb
 5790 04e4 0000 00C4 	.long0xc4
 5791 04e8 50        	.byte0x50
 5792 04e9 0A        	.uleb128 0xa
 5793 04ea 0000 0000 	.long.LASF83
 5794 04ee 08        	.byte0x8
 5795 04ef DE        	.byte0xde
 5796 04f0 0000 0538 	.long0x538
 5797 04f4 58        	.byte0x58
 5798 04f5 0A        	.uleb128 0xa
 5799 04f6 0000 0000 	.long.LASF84
 5800 04fa 08        	.byte0x8
 5801 04fb E2        	.byte0xe2
 5802 04fc 0000 0222 	.long0x222
 5803 0500 5C        	.byte0x5c
 5804 0501 0A        	.uleb128 0xa
 5805 0502 0000 0000 	.long.LASF85
 5806 0506 08        	.byte0x8
 5807 0507 E4        	.byte0xe4
 5808 0508 0000 0217 	.long0x217
 5809 050c 74        	.byte0x74
 5810 050d 0A        	.uleb128 0xa
 5811 050e 0000 0000 	.long.LASF86
 5812 0512 08        	.byte0x8
 5813 0513 E5        	.byte0xe5
 5814 0514 0000 00DA 	.long0xda
 5815 0518 7C        	.byte0x7c
 5816 0519 00        	.byte0
 5817 051a 15        	.uleb128 0x15
 5818 051b 0000 01B0 	.long0x1b0
 5819 051f 0000 0538 	.long0x538
 5820 0523 16        	.uleb128 0x16
 5821 0524 0000 0538 	.long0x538
 5822 0528 16        	.uleb128 0x16
 5823 0529 0000 00B0 	.long0xb0
 5824 052d 16        	.uleb128 0x16
 5825 052e 0000 064B 	.long0x64b
 5826 0532 16        	.uleb128 0x16
 5827 0533 0000 00DA 	.long0xda
 5828 0537 00        	.byte0
 5829 0538 0C        	.uleb128 0xc
 5830 0539 04        	.byte0x4
68K GAS   			page 155


 5831 053a 0000 0543 	.long0x543
 5832 053e 04        	.uleb128 0x4
 5833 053f 0000 0538 	.long0x538
 5834 0543 17        	.uleb128 0x17
 5835 0544 0000 0000 	.long.LASF87
 5836 0548 0158      	.word0x158
 5837 054a 08        	.byte0x8
 5838 054b 0239      	.word0x239
 5839 054d 0000 064B 	.long0x64b
 5840 0551 18        	.uleb128 0x18
 5841 0552 0000 0000 	.long.LASF88
 5842 0556 08        	.byte0x8
 5843 0557 023B      	.word0x23b
 5844 0559 0000 00DA 	.long0xda
 5845 055d 00        	.byte0
 5846 055e 18        	.uleb128 0x18
 5847 055f 0000 0000 	.long.LASF89
 5848 0563 08        	.byte0x8
 5849 0564 0240      	.word0x240
 5850 0566 0000 0720 	.long0x720
 5851 056a 04        	.byte0x4
 5852 056b 18        	.uleb128 0x18
 5853 056c 0000 0000 	.long.LASF90
 5854 0570 08        	.byte0x8
 5855 0571 0240      	.word0x240
 5856 0573 0000 0720 	.long0x720
 5857 0577 08        	.byte0x8
 5858 0578 18        	.uleb128 0x18
 5859 0579 0000 0000 	.long.LASF91
 5860 057d 08        	.byte0x8
 5861 057e 0240      	.word0x240
 5862 0580 0000 0720 	.long0x720
 5863 0584 0C        	.byte0xc
 5864 0585 18        	.uleb128 0x18
 5865 0586 0000 0000 	.long.LASF92
 5866 058a 08        	.byte0x8
 5867 058b 0242      	.word0x242
 5868 058d 0000 00DA 	.long0xda
 5869 0591 10        	.byte0x10
 5870 0592 18        	.uleb128 0x18
 5871 0593 0000 0000 	.long.LASF93
 5872 0597 08        	.byte0x8
 5873 0598 0243      	.word0x243
 5874 059a 0000 0902 	.long0x902
 5875 059e 14        	.byte0x14
 5876 059f 18        	.uleb128 0x18
 5877 05a0 0000 0000 	.long.LASF94
 5878 05a4 08        	.byte0x8
 5879 05a5 0246      	.word0x246
 5880 05a7 0000 00DA 	.long0xda
 5881 05ab 30        	.byte0x30
 5882 05ac 18        	.uleb128 0x18
 5883 05ad 0000 0000 	.long.LASF95
 5884 05b1 08        	.byte0x8
 5885 05b2 0247      	.word0x247
 5886 05b4 0000 0917 	.long0x917
 5887 05b8 34        	.byte0x34
68K GAS   			page 156


 5888 05b9 18        	.uleb128 0x18
 5889 05ba 0000 0000 	.long.LASF96
 5890 05be 08        	.byte0x8
 5891 05bf 0249      	.word0x249
 5892 05c1 0000 00DA 	.long0xda
 5893 05c5 38        	.byte0x38
 5894 05c6 18        	.uleb128 0x18
 5895 05c7 0000 0000 	.long.LASF97
 5896 05cb 08        	.byte0x8
 5897 05cc 024B      	.word0x24b
 5898 05ce 0000 0928 	.long0x928
 5899 05d2 3C        	.byte0x3c
 5900 05d3 18        	.uleb128 0x18
 5901 05d4 0000 0000 	.long.LASF98
 5902 05d8 08        	.byte0x8
 5903 05d9 024E      	.word0x24e
 5904 05db 0000 028B 	.long0x28b
 5905 05df 40        	.byte0x40
 5906 05e0 18        	.uleb128 0x18
 5907 05e1 0000 0000 	.long.LASF99
 5908 05e5 08        	.byte0x8
 5909 05e6 024F      	.word0x24f
 5910 05e8 0000 00DA 	.long0xda
 5911 05ec 44        	.byte0x44
 5912 05ed 18        	.uleb128 0x18
 5913 05ee 0000 0000 	.long.LASF100
 5914 05f2 08        	.byte0x8
 5915 05f3 0250      	.word0x250
 5916 05f5 0000 028B 	.long0x28b
 5917 05f9 48        	.byte0x48
 5918 05fa 18        	.uleb128 0x18
 5919 05fb 0000 0000 	.long.LASF101
 5920 05ff 08        	.byte0x8
 5921 0600 0251      	.word0x251
 5922 0602 0000 092E 	.long0x92e
 5923 0606 4C        	.byte0x4c
 5924 0607 18        	.uleb128 0x18
 5925 0608 0000 0000 	.long.LASF102
 5926 060c 08        	.byte0x8
 5927 060d 0254      	.word0x254
 5928 060f 0000 00DA 	.long0xda
 5929 0613 50        	.byte0x50
 5930 0614 18        	.uleb128 0x18
 5931 0615 0000 0000 	.long.LASF103
 5932 0619 08        	.byte0x8
 5933 061a 0255      	.word0x255
 5934 061c 0000 064B 	.long0x64b
 5935 0620 54        	.byte0x54
 5936 0621 18        	.uleb128 0x18
 5937 0622 0000 0000 	.long.LASF104
 5938 0626 08        	.byte0x8
 5939 0627 0278      	.word0x278
 5940 0629 0000 08E0 	.long0x8e0
 5941 062d 58        	.byte0x58
 5942 062e 19        	.uleb128 0x19
 5943 062f 0000 0000 	.long.LASF105
 5944 0633 08        	.byte0x8
68K GAS   			page 157


 5945 0634 0281      	.word0x281
 5946 0636 0000 093F 	.long0x93f
 5947 063a 0148      	.word0x148
 5948 063c 19        	.uleb128 0x19
 5949 063d 0000 0000 	.long.LASF106
 5950 0641 08        	.byte0x8
 5951 0642 0286      	.word0x286
 5952 0644 0000 06E5 	.long0x6e5
 5953 0648 014C      	.word0x14c
 5954 064a 00        	.byte0
 5955 064b 0C        	.uleb128 0xc
 5956 064c 04        	.byte0x4
 5957 064d 0000 0094 	.long0x94
 5958 0651 0C        	.uleb128 0xc
 5959 0652 04        	.byte0x4
 5960 0653 0000 051A 	.long0x51a
 5961 0657 15        	.uleb128 0x15
 5962 0658 0000 01B0 	.long0x1b0
 5963 065c 0000 0675 	.long0x675
 5964 0660 16        	.uleb128 0x16
 5965 0661 0000 0538 	.long0x538
 5966 0665 16        	.uleb128 0x16
 5967 0666 0000 00B0 	.long0xb0
 5968 066a 16        	.uleb128 0x16
 5969 066b 0000 0160 	.long0x160
 5970 066f 16        	.uleb128 0x16
 5971 0670 0000 00DA 	.long0xda
 5972 0674 00        	.byte0
 5973 0675 0C        	.uleb128 0xc
 5974 0676 04        	.byte0x4
 5975 0677 0000 0657 	.long0x657
 5976 067b 15        	.uleb128 0x15
 5977 067c 0000 00CF 	.long0xcf
 5978 0680 0000 0699 	.long0x699
 5979 0684 16        	.uleb128 0x16
 5980 0685 0000 0538 	.long0x538
 5981 0689 16        	.uleb128 0x16
 5982 068a 0000 00B0 	.long0xb0
 5983 068e 16        	.uleb128 0x16
 5984 068f 0000 00CF 	.long0xcf
 5985 0693 16        	.uleb128 0x16
 5986 0694 0000 00DA 	.long0xda
 5987 0698 00        	.byte0
 5988 0699 0C        	.uleb128 0xc
 5989 069a 04        	.byte0x4
 5990 069b 0000 067B 	.long0x67b
 5991 069f 15        	.uleb128 0x15
 5992 06a0 0000 00DA 	.long0xda
 5993 06a4 0000 06B3 	.long0x6b3
 5994 06a8 16        	.uleb128 0x16
 5995 06a9 0000 0538 	.long0x538
 5996 06ad 16        	.uleb128 0x16
 5997 06ae 0000 00B0 	.long0xb0
 5998 06b2 00        	.byte0
 5999 06b3 0C        	.uleb128 0xc
 6000 06b4 04        	.byte0x4
 6001 06b5 0000 069F 	.long0x69f
68K GAS   			page 158


 6002 06b9 05        	.uleb128 0x5
 6003 06ba 0000 0025 	.long0x25
 6004 06be 0000 06C9 	.long0x6c9
 6005 06c2 06        	.uleb128 0x6
 6006 06c3 0000 007B 	.long0x7b
 6007 06c7 02        	.byte0x2
 6008 06c8 00        	.byte0
 6009 06c9 05        	.uleb128 0x5
 6010 06ca 0000 0025 	.long0x25
 6011 06ce 0000 06D9 	.long0x6d9
 6012 06d2 06        	.uleb128 0x6
 6013 06d3 0000 007B 	.long0x7b
 6014 06d7 00        	.byte0
 6015 06d8 00        	.byte0
 6016 06d9 0D        	.uleb128 0xd
 6017 06da 0000 0000 	.long.LASF107
 6018 06de 08        	.byte0x8
 6019 06df 011F      	.word0x11f
 6020 06e1 0000 03F0 	.long0x3f0
 6021 06e5 1A        	.uleb128 0x1a
 6022 06e6 0000 0000 	.long.LASF108
 6023 06ea 0C        	.byte0xc
 6024 06eb 08        	.byte0x8
 6025 06ec 0123      	.word0x123
 6026 06ee 0000 071A 	.long0x71a
 6027 06f2 18        	.uleb128 0x18
 6028 06f3 0000 0000 	.long.LASF45
 6029 06f7 08        	.byte0x8
 6030 06f8 0125      	.word0x125
 6031 06fa 0000 071A 	.long0x71a
 6032 06fe 00        	.byte0
 6033 06ff 18        	.uleb128 0x18
 6034 0700 0000 0000 	.long.LASF109
 6035 0704 08        	.byte0x8
 6036 0705 0126      	.word0x126
 6037 0707 0000 00DA 	.long0xda
 6038 070b 04        	.byte0x4
 6039 070c 18        	.uleb128 0x18
 6040 070d 0000 0000 	.long.LASF110
 6041 0711 08        	.byte0x8
 6042 0712 0127      	.word0x127
 6043 0714 0000 0720 	.long0x720
 6044 0718 08        	.byte0x8
 6045 0719 00        	.byte0
 6046 071a 0C        	.uleb128 0xc
 6047 071b 04        	.byte0x4
 6048 071c 0000 06E5 	.long0x6e5
 6049 0720 0C        	.uleb128 0xc
 6050 0721 04        	.byte0x4
 6051 0722 0000 06D9 	.long0x6d9
 6052 0726 1A        	.uleb128 0x1a
 6053 0727 0000 0000 	.long.LASF111
 6054 072b 0E        	.byte0xe
 6055 072c 08        	.byte0x8
 6056 072d 013F      	.word0x13f
 6057 072f 0000 075B 	.long0x75b
 6058 0733 18        	.uleb128 0x18
68K GAS   			page 159


 6059 0734 0000 0000 	.long.LASF112
 6060 0738 08        	.byte0x8
 6061 0739 0140      	.word0x140
 6062 073b 0000 075B 	.long0x75b
 6063 073f 00        	.byte0
 6064 0740 18        	.uleb128 0x18
 6065 0741 0000 0000 	.long.LASF113
 6066 0745 08        	.byte0x8
 6067 0746 0141      	.word0x141
 6068 0748 0000 075B 	.long0x75b
 6069 074c 06        	.byte0x6
 6070 074d 18        	.uleb128 0x18
 6071 074e 0000 0000 	.long.LASF114
 6072 0752 08        	.byte0x8
 6073 0753 0142      	.word0x142
 6074 0755 0000 0069 	.long0x69
 6075 0759 0C        	.byte0xc
 6076 075a 00        	.byte0
 6077 075b 05        	.uleb128 0x5
 6078 075c 0000 0069 	.long0x69
 6079 0760 0000 076B 	.long0x76b
 6080 0764 06        	.uleb128 0x6
 6081 0765 0000 007B 	.long0x7b
 6082 0769 02        	.byte0x2
 6083 076a 00        	.byte0
 6084 076b 1B        	.uleb128 0x1b
 6085 076c CC        	.byte0xcc
 6086 076d 08        	.byte0x8
 6087 076e 0259      	.word0x259
 6088 0770 0000 086C 	.long0x86c
 6089 0774 18        	.uleb128 0x18
 6090 0775 0000 0000 	.long.LASF115
 6091 0779 08        	.byte0x8
 6092 077a 025B      	.word0x25b
 6093 077c 0000 0106 	.long0x106
 6094 0780 00        	.byte0
 6095 0781 18        	.uleb128 0x18
 6096 0782 0000 0000 	.long.LASF116
 6097 0786 08        	.byte0x8
 6098 0787 025C      	.word0x25c
 6099 0789 0000 064B 	.long0x64b
 6100 078d 04        	.byte0x4
 6101 078e 18        	.uleb128 0x18
 6102 078f 0000 0000 	.long.LASF117
 6103 0793 08        	.byte0x8
 6104 0794 025D      	.word0x25d
 6105 0796 0000 086C 	.long0x86c
 6106 079a 08        	.byte0x8
 6107 079b 18        	.uleb128 0x18
 6108 079c 0000 0000 	.long.LASF118
 6109 07a0 08        	.byte0x8
 6110 07a1 025E      	.word0x25e
 6111 07a3 0000 02A1 	.long0x2a1
 6112 07a7 24        	.byte0x24
 6113 07a8 18        	.uleb128 0x18
 6114 07a9 0000 0000 	.long.LASF119
 6115 07ad 08        	.byte0x8
68K GAS   			page 160


 6116 07ae 025F      	.word0x25f
 6117 07b0 0000 00DA 	.long0xda
 6118 07b4 48        	.byte0x48
 6119 07b5 18        	.uleb128 0x18
 6120 07b6 0000 0000 	.long.LASF120
 6121 07ba 08        	.byte0x8
 6122 07bb 0260      	.word0x260
 6123 07bd 0000 0082 	.long0x82
 6124 07c1 4C        	.byte0x4c
 6125 07c2 18        	.uleb128 0x18
 6126 07c3 0000 0000 	.long.LASF121
 6127 07c7 08        	.byte0x8
 6128 07c8 0261      	.word0x261
 6129 07ca 0000 0726 	.long0x726
 6130 07ce 54        	.byte0x54
 6131 07cf 18        	.uleb128 0x18
 6132 07d0 0000 0000 	.long.LASF122
 6133 07d4 08        	.byte0x8
 6134 07d5 0262      	.word0x262
 6135 07d7 0000 0217 	.long0x217
 6136 07db 64        	.byte0x64
 6137 07dc 18        	.uleb128 0x18
 6138 07dd 0000 0000 	.long.LASF123
 6139 07e1 08        	.byte0x8
 6140 07e2 0263      	.word0x263
 6141 07e4 0000 0217 	.long0x217
 6142 07e8 6C        	.byte0x6c
 6143 07e9 18        	.uleb128 0x18
 6144 07ea 0000 0000 	.long.LASF124
 6145 07ee 08        	.byte0x8
 6146 07ef 0264      	.word0x264
 6147 07f1 0000 0217 	.long0x217
 6148 07f5 74        	.byte0x74
 6149 07f6 18        	.uleb128 0x18
 6150 07f7 0000 0000 	.long.LASF125
 6151 07fb 08        	.byte0x8
 6152 07fc 0265      	.word0x265
 6153 07fe 0000 087C 	.long0x87c
 6154 0802 7C        	.byte0x7c
 6155 0803 18        	.uleb128 0x18
 6156 0804 0000 0000 	.long.LASF126
 6157 0808 08        	.byte0x8
 6158 0809 0266      	.word0x266
 6159 080b 0000 088C 	.long0x88c
 6160 080f 84        	.byte0x84
 6161 0810 18        	.uleb128 0x18
 6162 0811 0000 0000 	.long.LASF127
 6163 0815 08        	.byte0x8
 6164 0816 0267      	.word0x267
 6165 0818 0000 00DA 	.long0xda
 6166 081c 9C        	.byte0x9c
 6167 081d 18        	.uleb128 0x18
 6168 081e 0000 0000 	.long.LASF128
 6169 0822 08        	.byte0x8
 6170 0823 0268      	.word0x268
 6171 0825 0000 0217 	.long0x217
 6172 0829 A0        	.byte0xa0
68K GAS   			page 161


 6173 082a 18        	.uleb128 0x18
 6174 082b 0000 0000 	.long.LASF129
 6175 082f 08        	.byte0x8
 6176 0830 0269      	.word0x269
 6177 0832 0000 0217 	.long0x217
 6178 0836 A8        	.byte0xa8
 6179 0837 18        	.uleb128 0x18
 6180 0838 0000 0000 	.long.LASF130
 6181 083c 08        	.byte0x8
 6182 083d 026A      	.word0x26a
 6183 083f 0000 0217 	.long0x217
 6184 0843 B0        	.byte0xb0
 6185 0844 18        	.uleb128 0x18
 6186 0845 0000 0000 	.long.LASF131
 6187 0849 08        	.byte0x8
 6188 084a 026B      	.word0x26b
 6189 084c 0000 0217 	.long0x217
 6190 0850 B8        	.byte0xb8
 6191 0851 18        	.uleb128 0x18
 6192 0852 0000 0000 	.long.LASF132
 6193 0856 08        	.byte0x8
 6194 0857 026C      	.word0x26c
 6195 0859 0000 0217 	.long0x217
 6196 085d C0        	.byte0xc0
 6197 085e 18        	.uleb128 0x18
 6198 085f 0000 0000 	.long.LASF133
 6199 0863 08        	.byte0x8
 6200 0864 026D      	.word0x26d
 6201 0866 0000 00DA 	.long0xda
 6202 086a C8        	.byte0xc8
 6203 086b 00        	.byte0
 6204 086c 05        	.uleb128 0x5
 6205 086d 0000 0094 	.long0x94
 6206 0871 0000 087C 	.long0x87c
 6207 0875 06        	.uleb128 0x6
 6208 0876 0000 007B 	.long0x7b
 6209 087a 19        	.byte0x19
 6210 087b 00        	.byte0
 6211 087c 05        	.uleb128 0x5
 6212 087d 0000 0094 	.long0x94
 6213 0881 0000 088C 	.long0x88c
 6214 0885 06        	.uleb128 0x6
 6215 0886 0000 007B 	.long0x7b
 6216 088a 07        	.byte0x7
 6217 088b 00        	.byte0
 6218 088c 05        	.uleb128 0x5
 6219 088d 0000 0094 	.long0x94
 6220 0891 0000 089C 	.long0x89c
 6221 0895 06        	.uleb128 0x6
 6222 0896 0000 007B 	.long0x7b
 6223 089a 17        	.byte0x17
 6224 089b 00        	.byte0
 6225 089c 1B        	.uleb128 0x1b
 6226 089d F0        	.byte0xf0
 6227 089e 08        	.byte0x8
 6228 089f 0272      	.word0x272
 6229 08a1 0000 08C0 	.long0x8c0
68K GAS   			page 162


 6230 08a5 18        	.uleb128 0x18
 6231 08a6 0000 0000 	.long.LASF134
 6232 08aa 08        	.byte0x8
 6233 08ab 0275      	.word0x275
 6234 08ad 0000 08C0 	.long0x8c0
 6235 08b1 00        	.byte0
 6236 08b2 18        	.uleb128 0x18
 6237 08b3 0000 0000 	.long.LASF135
 6238 08b7 08        	.byte0x8
 6239 08b8 0276      	.word0x276
 6240 08ba 0000 08D0 	.long0x8d0
 6241 08be 78        	.byte0x78
 6242 08bf 00        	.byte0
 6243 08c0 05        	.uleb128 0x5
 6244 08c1 0000 03EA 	.long0x3ea
 6245 08c5 0000 08D0 	.long0x8d0
 6246 08c9 06        	.uleb128 0x6
 6247 08ca 0000 007B 	.long0x7b
 6248 08ce 1D        	.byte0x1d
 6249 08cf 00        	.byte0
 6250 08d0 05        	.uleb128 0x5
 6251 08d1 0000 0106 	.long0x106
 6252 08d5 0000 08E0 	.long0x8e0
 6253 08d9 06        	.uleb128 0x6
 6254 08da 0000 007B 	.long0x7b
 6255 08de 1D        	.byte0x1d
 6256 08df 00        	.byte0
 6257 08e0 1C        	.uleb128 0x1c
 6258 08e1 F0        	.byte0xf0
 6259 08e2 08        	.byte0x8
 6260 08e3 0257      	.word0x257
 6261 08e5 0000 0902 	.long0x902
 6262 08e9 1D        	.uleb128 0x1d
 6263 08ea 0000 0000 	.long.LASF87
 6264 08ee 08        	.byte0x8
 6265 08ef 026E      	.word0x26e
 6266 08f1 0000 076B 	.long0x76b
 6267 08f5 1D        	.uleb128 0x1d
 6268 08f6 0000 0000 	.long.LASF136
 6269 08fa 08        	.byte0x8
 6270 08fb 0277      	.word0x277
 6271 08fd 0000 089C 	.long0x89c
 6272 0901 00        	.byte0
 6273 0902 05        	.uleb128 0x5
 6274 0903 0000 0094 	.long0x94
 6275 0907 0000 0912 	.long0x912
 6276 090b 06        	.uleb128 0x6
 6277 090c 0000 007B 	.long0x7b
 6278 0910 18        	.byte0x18
 6279 0911 00        	.byte0
 6280 0912 0B        	.uleb128 0xb
 6281 0913 0000 0000 	.long.LASF137
 6282 0917 0C        	.uleb128 0xc
 6283 0918 04        	.byte0x4
 6284 0919 0000 0912 	.long0x912
 6285 091d 1E        	.uleb128 0x1e
 6286 091e 0000 0928 	.long0x928
68K GAS   			page 163


 6287 0922 16        	.uleb128 0x16
 6288 0923 0000 0538 	.long0x538
 6289 0927 00        	.byte0
 6290 0928 0C        	.uleb128 0xc
 6291 0929 04        	.byte0x4
 6292 092a 0000 091D 	.long0x91d
 6293 092e 0C        	.uleb128 0xc
 6294 092f 04        	.byte0x4
 6295 0930 0000 028B 	.long0x28b
 6296 0934 1E        	.uleb128 0x1e
 6297 0935 0000 093F 	.long0x93f
 6298 0939 16        	.uleb128 0x16
 6299 093a 0000 00DA 	.long0xda
 6300 093e 00        	.byte0
 6301 093f 0C        	.uleb128 0xc
 6302 0940 04        	.byte0x4
 6303 0941 0000 0945 	.long0x945
 6304 0945 0C        	.uleb128 0xc
 6305 0946 04        	.byte0x4
 6306 0947 0000 0934 	.long0x934
 6307 094b 05        	.uleb128 0x5
 6308 094c 0000 06D9 	.long0x6d9
 6309 0950 0000 095B 	.long0x95b
 6310 0954 06        	.uleb128 0x6
 6311 0955 0000 007B 	.long0x7b
 6312 0959 02        	.byte0x2
 6313 095a 00        	.byte0
 6314 095b 1F        	.uleb128 0x1f
 6315 095c 0000 0000 	.long.LASF138
 6316 0960 08        	.byte0x8
 6317 0961 028D      	.word0x28d
 6318 0963 0000 094B 	.long0x94b
 6319 0967 1F        	.uleb128 0x1f
 6320 0968 0000 0000 	.long.LASF139
 6321 096c 08        	.byte0x8
 6322 096d 0307      	.word0x307
 6323 096f 0000 0538 	.long0x538
 6324 0973 1F        	.uleb128 0x1f
 6325 0974 0000 0000 	.long.LASF140
 6326 0978 08        	.byte0x8
 6327 0979 0308      	.word0x308
 6328 097b 0000 053E 	.long0x53e
 6329 097f 1F        	.uleb128 0x1f
 6330 0980 0000 0000 	.long.LASF141
 6331 0984 08        	.byte0x8
 6332 0985 031A      	.word0x31a
 6333 0987 0000 03A8 	.long0x3a8
 6334 098b 20        	.uleb128 0x20
 6335 098c 0000 0000 	.long.LASF142
 6336 0990 09        	.byte0x9
 6337 0991 63        	.byte0x63
 6338 0992 0000 064B 	.long0x64b
 6339 0996 20        	.uleb128 0x20
 6340 0997 0000 0000 	.long.LASF143
 6341 099b 0A        	.byte0xa
 6342 099c 9A        	.byte0x9a
 6343 099d 0000 0045 	.long0x45
68K GAS   			page 164


 6344 09a1 20        	.uleb128 0x20
 6345 09a2 0000 0000 	.long.LASF144
 6346 09a6 0A        	.byte0xa
 6347 09a7 9B        	.byte0x9b
 6348 09a8 0000 00DA 	.long0xda
 6349 09ac 05        	.uleb128 0x5
 6350 09ad 0000 064B 	.long0x64b
 6351 09b1 0000 09BC 	.long0x9bc
 6352 09b5 06        	.uleb128 0x6
 6353 09b6 0000 007B 	.long0x7b
 6354 09ba 01        	.byte0x1
 6355 09bb 00        	.byte0
 6356 09bc 20        	.uleb128 0x20
 6357 09bd 0000 0000 	.long.LASF145
 6358 09c1 0A        	.byte0xa
 6359 09c2 9E        	.byte0x9e
 6360 09c3 0000 09AC 	.long0x9ac
 6361 09c7 0D        	.uleb128 0xd
 6362 09c8 0000 0000 	.long.LASF146
 6363 09cc 0B        	.byte0xb
 6364 09cd 0103      	.word0x103
 6365 09cf 0000 0089 	.long0x89
 6366 09d3 05        	.uleb128 0x5
 6367 09d4 0000 0070 	.long0x70
 6368 09d8 0000 09E3 	.long0x9e3
 6369 09dc 06        	.uleb128 0x6
 6370 09dd 0000 007B 	.long0x7b
 6371 09e1 1F        	.byte0x1f
 6372 09e2 00        	.byte0
 6373 09e3 10        	.uleb128 0x10
 6374 09e4 06        	.byte0x6
 6375 09e5 0C        	.byte0xc
 6376 09e6 58        	.byte0x58
 6377 09e7 0000 0A10 	.long0xa10
 6378 09eb 0A        	.uleb128 0xa
 6379 09ec 0000 0000 	.long.LASF147
 6380 09f0 0C        	.byte0xc
 6381 09f1 5A        	.byte0x5a
 6382 09f2 0000 0A10 	.long0xa10
 6383 09f6 00        	.byte0
 6384 09f7 0A        	.uleb128 0xa
 6385 09f8 0000 0000 	.long.LASF148
 6386 09fc 0C        	.byte0xc
 6387 09fd 61        	.byte0x61
 6388 09fe 0000 0A10 	.long0xa10
 6389 0a02 02        	.byte0x2
 6390 0a03 0A        	.uleb128 0xa
 6391 0a04 0000 0000 	.long.LASF149
 6392 0a08 0C        	.byte0xc
 6393 0a09 66        	.byte0x66
 6394 0a0a 0000 0A10 	.long0xa10
 6395 0a0e 04        	.byte0x4
 6396 0a0f 00        	.byte0
 6397 0a10 05        	.uleb128 0x5
 6398 0a11 0000 0053 	.long0x53
 6399 0a15 0000 0A20 	.long0xa20
 6400 0a19 06        	.uleb128 0x6
68K GAS   			page 165


 6401 0a1a 0000 007B 	.long0x7b
 6402 0a1e 01        	.byte0x1
 6403 0a1f 00        	.byte0
 6404 0a20 03        	.uleb128 0x3
 6405 0a21 0000 0000 	.long.LASF150
 6406 0a25 0C        	.byte0xc
 6407 0a26 6A        	.byte0x6a
 6408 0a27 0000 09E3 	.long0x9e3
 6409 0a2b 10        	.uleb128 0x10
 6410 0a2c 06        	.byte0x6
 6411 0a2d 0C        	.byte0xc
 6412 0a2e 7A        	.byte0x7a
 6413 0a2f 0000 0A40 	.long0xa40
 6414 0a33 0A        	.uleb128 0xa
 6415 0a34 0000 0000 	.long.LASF151
 6416 0a38 0C        	.byte0xc
 6417 0a39 7C        	.byte0x7c
 6418 0a3a 0000 0A40 	.long0xa40
 6419 0a3e 00        	.byte0
 6420 0a3f 00        	.byte0
 6421 0a40 05        	.uleb128 0x5
 6422 0a41 0000 0053 	.long0x53
 6423 0a45 0000 0A50 	.long0xa50
 6424 0a49 06        	.uleb128 0x6
 6425 0a4a 0000 007B 	.long0x7b
 6426 0a4e 05        	.byte0x5
 6427 0a4f 00        	.byte0
 6428 0a50 03        	.uleb128 0x3
 6429 0a51 0000 0000 	.long.LASF152
 6430 0a55 0C        	.byte0xc
 6431 0a56 7E        	.byte0x7e
 6432 0a57 0000 0A2B 	.long0xa2b
 6433 0a5b 0E        	.uleb128 0xe
 6434 0a5c 08        	.byte0x8
 6435 0a5d 0D        	.byte0xd
 6436 0a5e 75        	.byte0x75
 6437 0a5f 0000 0A85 	.long0xa85
 6438 0a63 21        	.uleb128 0x21
 6439 0a64 4864 7200 	.string"Hdr"
 6440 0a68 0D        	.byte0xd
 6441 0a69 76        	.byte0x76
 6442 0a6a 0000 0A20 	.long0xa20
 6443 0a6e 0F        	.uleb128 0xf
 6444 0a6f 0000 0000 	.long.LASF153
 6445 0a73 0D        	.byte0xd
 6446 0a74 77        	.byte0x77
 6447 0a75 0000 0070 	.long0x70
 6448 0a79 0F        	.uleb128 0xf
 6449 0a7a 0000 0000 	.long.LASF154
 6450 0a7e 0D        	.byte0xd
 6451 0a7f 78        	.byte0x78
 6452 0a80 0000 0A40 	.long0xa40
 6453 0a84 00        	.byte0
 6454 0a85 03        	.uleb128 0x3
 6455 0a86 0000 0000 	.long.LASF155
 6456 0a8a 0D        	.byte0xd
 6457 0a8b 79        	.byte0x79
68K GAS   			page 166


 6458 0a8c 0000 0A5B 	.long0xa5b
 6459 0a90 10        	.uleb128 0x10
 6460 0a91 0C        	.byte0xc
 6461 0a92 0D        	.byte0xd
 6462 0a93 82        	.byte0x82
 6463 0a94 0000 0AB1 	.long0xab1
 6464 0a98 11        	.uleb128 0x11
 6465 0a99 5072 6900 	.string"Pri"
 6466 0a9d 0D        	.byte0xd
 6467 0a9e 83        	.byte0x83
 6468 0a9f 0000 0A20 	.long0xa20
 6469 0aa3 00        	.byte0
 6470 0aa4 11        	.uleb128 0x11
 6471 0aa5 5365 6300 	.string"Sec"
 6472 0aa9 0D        	.byte0xd
 6473 0aaa 84        	.byte0x84
 6474 0aab 0000 0A50 	.long0xa50
 6475 0aaf 06        	.byte0x6
 6476 0ab0 00        	.byte0
 6477 0ab1 03        	.uleb128 0x3
 6478 0ab2 0000 0000 	.long.LASF156
 6479 0ab6 0D        	.byte0xd
 6480 0ab7 85        	.byte0x85
 6481 0ab8 0000 0A90 	.long0xa90
 6482 0abc 03        	.uleb128 0x3
 6483 0abd 0000 0000 	.long.LASF157
 6484 0ac1 0D        	.byte0xd
 6485 0ac2 92        	.byte0x92
 6486 0ac3 0000 0070 	.long0x70
 6487 0ac7 03        	.uleb128 0x3
 6488 0ac8 0000 0000 	.long.LASF158
 6489 0acc 0D        	.byte0xd
 6490 0acd 98        	.byte0x98
 6491 0ace 0000 0053 	.long0x53
 6492 0ad2 03        	.uleb128 0x3
 6493 0ad3 0000 0000 	.long.LASF159
 6494 0ad7 0D        	.byte0xd
 6495 0ad8 9E        	.byte0x9e
 6496 0ad9 0000 005E 	.long0x5e
 6497 0add 03        	.uleb128 0x3
 6498 0ade 0000 0000 	.long.LASF160
 6499 0ae2 0D        	.byte0xd
 6500 0ae3 A1        	.byte0xa1
 6501 0ae4 0000 0AE8 	.long0xae8
 6502 0ae8 0C        	.uleb128 0xc
 6503 0ae9 04        	.byte0x4
 6504 0aea 0000 0A85 	.long0xa85
 6505 0aee 0C        	.uleb128 0xc
 6506 0aef 04        	.byte0x4
 6507 0af0 0000 0053 	.long0x53
 6508 0af4 03        	.uleb128 0x3
 6509 0af5 0000 0000 	.long.LASF161
 6510 0af9 0D        	.byte0xd
 6511 0afa AA        	.byte0xaa
 6512 0afb 0000 0089 	.long0x89
 6513 0aff 10        	.uleb128 0x10
 6514 0b00 02        	.byte0x2
68K GAS   			page 167


 6515 0b01 0D        	.byte0xd
 6516 0b02 B1        	.byte0xb1
 6517 0b03 0000 0B20 	.long0xb20
 6518 0b07 0A        	.uleb128 0xa
 6519 0b08 0000 0000 	.long.LASF162
 6520 0b0c 0D        	.byte0xd
 6521 0b0d B2        	.byte0xb2
 6522 0b0e 0000 0053 	.long0x53
 6523 0b12 00        	.byte0
 6524 0b13 0A        	.uleb128 0xa
 6525 0b14 0000 0000 	.long.LASF163
 6526 0b18 0D        	.byte0xd
 6527 0b19 B3        	.byte0xb3
 6528 0b1a 0000 0053 	.long0x53
 6529 0b1e 01        	.byte0x1
 6530 0b1f 00        	.byte0
 6531 0b20 03        	.uleb128 0x3
 6532 0b21 0000 0000 	.long.LASF164
 6533 0b25 0D        	.byte0xd
 6534 0b26 B4        	.byte0xb4
 6535 0b27 0000 0AFF 	.long0xaff
 6536 0b2b 20        	.uleb128 0x20
 6537 0b2c 0000 0000 	.long.LASF165
 6538 0b30 0D        	.byte0xd
 6539 0b31 B6        	.byte0xb6
 6540 0b32 0000 0B20 	.long0xb20
 6541 0b36 10        	.uleb128 0x10
 6542 0b37 18        	.byte0x18
 6543 0b38 0D        	.byte0xd
 6544 0b39 BE        	.byte0xbe
 6545 0b3a 0000 0B57 	.long0xb57
 6546 0b3e 0A        	.uleb128 0xa
 6547 0b3f 0000 0000 	.long.LASF166
 6548 0b43 0D        	.byte0xd
 6549 0b44 BF        	.byte0xbf
 6550 0b45 0000 0070 	.long0x70
 6551 0b49 00        	.byte0
 6552 0b4a 0A        	.uleb128 0xa
 6553 0b4b 0000 0000 	.long.LASF167
 6554 0b4f 0D        	.byte0xd
 6555 0b50 C0        	.byte0xc0
 6556 0b51 0000 00A0 	.long0xa0
 6557 0b55 04        	.byte0x4
 6558 0b56 00        	.byte0
 6559 0b57 03        	.uleb128 0x3
 6560 0b58 0000 0000 	.long.LASF168
 6561 0b5c 0D        	.byte0xd
 6562 0b5d C1        	.byte0xc1
 6563 0b5e 0000 0B36 	.long0xb36
 6564 0b62 10        	.uleb128 0x10
 6565 0b63 04        	.byte0x4
 6566 0b64 0E        	.byte0xe
 6567 0b65 89        	.byte0x89
 6568 0b66 0000 0B83 	.long0xb83
 6569 0b6a 0A        	.uleb128 0xa
 6570 0b6b 0000 0000 	.long.LASF169
 6571 0b6f 0E        	.byte0xe
68K GAS   			page 168


 6572 0b70 8A        	.byte0x8a
 6573 0b71 0000 005E 	.long0x5e
 6574 0b75 00        	.byte0
 6575 0b76 0A        	.uleb128 0xa
 6576 0b77 0000 0000 	.long.LASF170
 6577 0b7b 0E        	.byte0xe
 6578 0b7c 8B        	.byte0x8b
 6579 0b7d 0000 005E 	.long0x5e
 6580 0b81 02        	.byte0x2
 6581 0b82 00        	.byte0
 6582 0b83 03        	.uleb128 0x3
 6583 0b84 0000 0000 	.long.LASF171
 6584 0b88 0E        	.byte0xe
 6585 0b89 8D        	.byte0x8d
 6586 0b8a 0000 0B62 	.long0xb62
 6587 0b8e 1B        	.uleb128 0x1b
 6588 0b8f 1C        	.byte0x1c
 6589 0b90 0F        	.byte0xf
 6590 0b91 022C      	.word0x22c
 6591 0b93 0000 0C68 	.long0xc68
 6592 0b97 18        	.uleb128 0x18
 6593 0b98 0000 0000 	.long.LASF172
 6594 0b9c 0F        	.byte0xf
 6595 0b9d 022E      	.word0x22e
 6596 0b9f 0000 0053 	.long0x53
 6597 0ba3 00        	.byte0
 6598 0ba4 18        	.uleb128 0x18
 6599 0ba5 0000 0000 	.long.LASF173
 6600 0ba9 0F        	.byte0xf
 6601 0baa 0230      	.word0x230
 6602 0bac 0000 0053 	.long0x53
 6603 0bb0 01        	.byte0x1
 6604 0bb1 18        	.uleb128 0x18
 6605 0bb2 0000 0000 	.long.LASF174
 6606 0bb6 0F        	.byte0xf
 6607 0bb7 0232      	.word0x232
 6608 0bb9 0000 0053 	.long0x53
 6609 0bbd 02        	.byte0x2
 6610 0bbe 18        	.uleb128 0x18
 6611 0bbf 0000 0000 	.long.LASF175
 6612 0bc3 0F        	.byte0xf
 6613 0bc4 0234      	.word0x234
 6614 0bc6 0000 0053 	.long0x53
 6615 0bca 03        	.byte0x3
 6616 0bcb 18        	.uleb128 0x18
 6617 0bcc 0000 0000 	.long.LASF176
 6618 0bd0 0F        	.byte0xf
 6619 0bd1 0237      	.word0x237
 6620 0bd3 0000 0053 	.long0x53
 6621 0bd7 04        	.byte0x4
 6622 0bd8 18        	.uleb128 0x18
 6623 0bd9 0000 0000 	.long.LASF177
 6624 0bdd 0F        	.byte0xf
 6625 0bde 0239      	.word0x239
 6626 0be0 0000 0053 	.long0x53
 6627 0be4 05        	.byte0x5
 6628 0be5 18        	.uleb128 0x18
68K GAS   			page 169


 6629 0be6 0000 0000 	.long.LASF178
 6630 0bea 0F        	.byte0xf
 6631 0beb 023B      	.word0x23b
 6632 0bed 0000 0053 	.long0x53
 6633 0bf1 06        	.byte0x6
 6634 0bf2 18        	.uleb128 0x18
 6635 0bf3 0000 0000 	.long.LASF179
 6636 0bf7 0F        	.byte0xf
 6637 0bf8 023D      	.word0x23d
 6638 0bfa 0000 0053 	.long0x53
 6639 0bfe 07        	.byte0x7
 6640 0bff 18        	.uleb128 0x18
 6641 0c00 0000 0000 	.long.LASF180
 6642 0c04 0F        	.byte0xf
 6643 0c05 0240      	.word0x240
 6644 0c07 0000 0053 	.long0x53
 6645 0c0b 08        	.byte0x8
 6646 0c0c 18        	.uleb128 0x18
 6647 0c0d 0000 0000 	.long.LASF181
 6648 0c11 0F        	.byte0xf
 6649 0c12 0242      	.word0x242
 6650 0c14 0000 0053 	.long0x53
 6651 0c18 09        	.byte0x9
 6652 0c19 18        	.uleb128 0x18
 6653 0c1a 0000 0000 	.long.LASF182
 6654 0c1e 0F        	.byte0xf
 6655 0c1f 0244      	.word0x244
 6656 0c21 0000 0A10 	.long0xa10
 6657 0c25 0A        	.byte0xa
 6658 0c26 18        	.uleb128 0x18
 6659 0c27 0000 0000 	.long.LASF183
 6660 0c2b 0F        	.byte0xf
 6661 0c2c 0247      	.word0x247
 6662 0c2e 0000 005E 	.long0x5e
 6663 0c32 0C        	.byte0xc
 6664 0c33 18        	.uleb128 0x18
 6665 0c34 0000 0000 	.long.LASF184
 6666 0c38 0F        	.byte0xf
 6667 0c39 0249      	.word0x249
 6668 0c3b 0000 005E 	.long0x5e
 6669 0c3f 0E        	.byte0xe
 6670 0c40 18        	.uleb128 0x18
 6671 0c41 0000 0000 	.long.LASF185
 6672 0c45 0F        	.byte0xf
 6673 0c46 024C      	.word0x24c
 6674 0c48 0000 09C7 	.long0x9c7
 6675 0c4c 10        	.byte0x10
 6676 0c4d 18        	.uleb128 0x18
 6677 0c4e 0000 0000 	.long.LASF186
 6678 0c52 0F        	.byte0xf
 6679 0c53 024F      	.word0x24f
 6680 0c55 0000 0070 	.long0x70
 6681 0c59 14        	.byte0x14
 6682 0c5a 18        	.uleb128 0x18
 6683 0c5b 0000 0000 	.long.LASF187
 6684 0c5f 0F        	.byte0xf
 6685 0c60 0252      	.word0x252
68K GAS   			page 170


 6686 0c62 0000 0070 	.long0x70
 6687 0c66 18        	.byte0x18
 6688 0c67 00        	.byte0
 6689 0c68 0D        	.uleb128 0xd
 6690 0c69 0000 0000 	.long.LASF188
 6691 0c6d 0F        	.byte0xf
 6692 0c6e 0254      	.word0x254
 6693 0c70 0000 0B8E 	.long0xb8e
 6694 0c74 1B        	.uleb128 0x1b
 6695 0c75 28        	.byte0x28
 6696 0c76 0F        	.byte0xf
 6697 0c77 0256      	.word0x256
 6698 0c79 0000 0C98 	.long0xc98
 6699 0c7d 22        	.uleb128 0x22
 6700 0c7e 4864 7200 	.string"Hdr"
 6701 0c82 0F        	.byte0xf
 6702 0c83 0257      	.word0x257
 6703 0c85 0000 0AB1 	.long0xab1
 6704 0c89 00        	.byte0
 6705 0c8a 18        	.uleb128 0x18
 6706 0c8b 0000 0000 	.long.LASF189
 6707 0c8f 0F        	.byte0xf
 6708 0c90 0258      	.word0x258
 6709 0c92 0000 0C68 	.long0xc68
 6710 0c96 0C        	.byte0xc
 6711 0c97 00        	.byte0
 6712 0c98 0D        	.uleb128 0xd
 6713 0c99 0000 0000 	.long.LASF190
 6714 0c9d 0F        	.byte0xf
 6715 0c9e 0259      	.word0x259
 6716 0ca0 0000 0C74 	.long0xc74
 6717 0ca4 1B        	.uleb128 0x1b
 6718 0ca5 08        	.byte0x8
 6719 0ca6 0F        	.byte0xf
 6720 0ca7 0261      	.word0x261
 6721 0ca9 0000 0CEF 	.long0xcef
 6722 0cad 18        	.uleb128 0x18
 6723 0cae 0000 0000 	.long.LASF191
 6724 0cb2 0F        	.byte0xf
 6725 0cb3 0263      	.word0x263
 6726 0cb5 0000 0AC7 	.long0xac7
 6727 0cb9 00        	.byte0
 6728 0cba 18        	.uleb128 0x18
 6729 0cbb 0000 0000 	.long.LASF180
 6730 0cbf 0F        	.byte0xf
 6731 0cc0 0265      	.word0x265
 6732 0cc2 0000 0053 	.long0x53
 6733 0cc6 01        	.byte0x1
 6734 0cc7 18        	.uleb128 0x18
 6735 0cc8 0000 0000 	.long.LASF192
 6736 0ccc 0F        	.byte0xf
 6737 0ccd 0267      	.word0x267
 6738 0ccf 0000 005E 	.long0x5e
 6739 0cd3 02        	.byte0x2
 6740 0cd4 18        	.uleb128 0x18
 6741 0cd5 0000 0000 	.long.LASF193
 6742 0cd9 0F        	.byte0xf
68K GAS   			page 171


 6743 0cda 0269      	.word0x269
 6744 0cdc 0000 005E 	.long0x5e
 6745 0ce0 04        	.byte0x4
 6746 0ce1 18        	.uleb128 0x18
 6747 0ce2 0000 0000 	.long.LASF194
 6748 0ce6 0F        	.byte0xf
 6749 0ce7 026B      	.word0x26b
 6750 0ce9 0000 005E 	.long0x5e
 6751 0ced 06        	.byte0x6
 6752 0cee 00        	.byte0
 6753 0cef 0D        	.uleb128 0xd
 6754 0cf0 0000 0000 	.long.LASF195
 6755 0cf4 0F        	.byte0xf
 6756 0cf5 026E      	.word0x26e
 6757 0cf7 0000 0CA4 	.long0xca4
 6758 0cfb 23        	.uleb128 0x23
 6759 0cfc 023C      	.word0x23c
 6760 0cfe 0F        	.byte0xf
 6761 0cff 0275      	.word0x275
 6762 0d01 0000 0DD6 	.long0xdd6
 6763 0d05 18        	.uleb128 0x18
 6764 0d06 0000 0000 	.long.LASF196
 6765 0d0a 0F        	.byte0xf
 6766 0d0b 0277      	.word0x277
 6767 0d0d 0000 0070 	.long0x70
 6768 0d11 00        	.byte0
 6769 0d12 18        	.uleb128 0x18
 6770 0d13 0000 0000 	.long.LASF197
 6771 0d17 0F        	.byte0xf
 6772 0d18 0279      	.word0x279
 6773 0d1a 0000 0070 	.long0x70
 6774 0d1e 04        	.byte0x4
 6775 0d1f 18        	.uleb128 0x18
 6776 0d20 0000 0000 	.long.LASF198
 6777 0d24 0F        	.byte0xf
 6778 0d25 027B      	.word0x27b
 6779 0d27 0000 0070 	.long0x70
 6780 0d2b 08        	.byte0x8
 6781 0d2c 18        	.uleb128 0x18
 6782 0d2d 0000 0000 	.long.LASF199
 6783 0d31 0F        	.byte0xf
 6784 0d32 027E      	.word0x27e
 6785 0d34 0000 0070 	.long0x70
 6786 0d38 0C        	.byte0xc
 6787 0d39 18        	.uleb128 0x18
 6788 0d3a 0000 0000 	.long.LASF200
 6789 0d3e 0F        	.byte0xf
 6790 0d3f 0280      	.word0x280
 6791 0d41 0000 0070 	.long0x70
 6792 0d45 10        	.byte0x10
 6793 0d46 18        	.uleb128 0x18
 6794 0d47 0000 0000 	.long.LASF201
 6795 0d4b 0F        	.byte0xf
 6796 0d4c 0282      	.word0x282
 6797 0d4e 0000 0070 	.long0x70
 6798 0d52 14        	.byte0x14
 6799 0d53 18        	.uleb128 0x18
68K GAS   			page 172


 6800 0d54 0000 0000 	.long.LASF186
 6801 0d58 0F        	.byte0xf
 6802 0d59 0285      	.word0x285
 6803 0d5b 0000 0070 	.long0x70
 6804 0d5f 18        	.byte0x18
 6805 0d60 18        	.uleb128 0x18
 6806 0d61 0000 0000 	.long.LASF202
 6807 0d65 0F        	.byte0xf
 6808 0d66 0287      	.word0x287
 6809 0d68 0000 0070 	.long0x70
 6810 0d6c 1C        	.byte0x1c
 6811 0d6d 18        	.uleb128 0x18
 6812 0d6e 0000 0000 	.long.LASF203
 6813 0d72 0F        	.byte0xf
 6814 0d73 0289      	.word0x289
 6815 0d75 0000 0070 	.long0x70
 6816 0d79 20        	.byte0x20
 6817 0d7a 18        	.uleb128 0x18
 6818 0d7b 0000 0000 	.long.LASF204
 6819 0d7f 0F        	.byte0xf
 6820 0d80 028C      	.word0x28c
 6821 0d82 0000 0070 	.long0x70
 6822 0d86 24        	.byte0x24
 6823 0d87 18        	.uleb128 0x18
 6824 0d88 0000 0000 	.long.LASF205
 6825 0d8c 0F        	.byte0xf
 6826 0d8d 028E      	.word0x28e
 6827 0d8f 0000 0070 	.long0x70
 6828 0d93 28        	.byte0x28
 6829 0d94 18        	.uleb128 0x18
 6830 0d95 0000 0000 	.long.LASF206
 6831 0d99 0F        	.byte0xf
 6832 0d9a 0290      	.word0x290
 6833 0d9c 0000 0070 	.long0x70
 6834 0da0 2C        	.byte0x2c
 6835 0da1 18        	.uleb128 0x18
 6836 0da2 0000 0000 	.long.LASF207
 6837 0da6 0F        	.byte0xf
 6838 0da7 0294      	.word0x294
 6839 0da9 0000 0070 	.long0x70
 6840 0dad 30        	.byte0x30
 6841 0dae 18        	.uleb128 0x18
 6842 0daf 0000 0000 	.long.LASF208
 6843 0db3 0F        	.byte0xf
 6844 0db4 0296      	.word0x296
 6845 0db6 0000 0070 	.long0x70
 6846 0dba 34        	.byte0x34
 6847 0dbb 18        	.uleb128 0x18
 6848 0dbc 0000 0000 	.long.LASF209
 6849 0dc0 0F        	.byte0xf
 6850 0dc1 0299      	.word0x299
 6851 0dc3 0000 0070 	.long0x70
 6852 0dc7 38        	.byte0x38
 6853 0dc8 18        	.uleb128 0x18
 6854 0dc9 0000 0000 	.long.LASF210
 6855 0dcd 0F        	.byte0xf
 6856 0dce 029B      	.word0x29b
68K GAS   			page 173


 6857 0dd0 0000 0DD6 	.long0xdd6
 6858 0dd4 3C        	.byte0x3c
 6859 0dd5 00        	.byte0
 6860 0dd6 05        	.uleb128 0x5
 6861 0dd7 0000 0CEF 	.long0xcef
 6862 0ddb 0000 0DE6 	.long0xde6
 6863 0ddf 06        	.uleb128 0x6
 6864 0de0 0000 007B 	.long0x7b
 6865 0de4 3F        	.byte0x3f
 6866 0de5 00        	.byte0
 6867 0de6 0D        	.uleb128 0xd
 6868 0de7 0000 0000 	.long.LASF211
 6869 0deb 0F        	.byte0xf
 6870 0dec 029D      	.word0x29d
 6871 0dee 0000 0CFB 	.long0xcfb
 6872 0df2 23        	.uleb128 0x23
 6873 0df3 0248      	.word0x248
 6874 0df5 0F        	.byte0xf
 6875 0df6 029F      	.word0x29f
 6876 0df8 0000 0E17 	.long0xe17
 6877 0dfc 22        	.uleb128 0x22
 6878 0dfd 4864 7200 	.string"Hdr"
 6879 0e01 0F        	.byte0xf
 6880 0e02 02A0      	.word0x2a0
 6881 0e04 0000 0AB1 	.long0xab1
 6882 0e08 00        	.byte0
 6883 0e09 18        	.uleb128 0x18
 6884 0e0a 0000 0000 	.long.LASF189
 6885 0e0e 0F        	.byte0xf
 6886 0e0f 02A1      	.word0x2a1
 6887 0e11 0000 0DE6 	.long0xde6
 6888 0e15 0C        	.byte0xc
 6889 0e16 00        	.byte0
 6890 0e17 0D        	.uleb128 0xd
 6891 0e18 0000 0000 	.long.LASF212
 6892 0e1c 0F        	.byte0xf
 6893 0e1d 02A2      	.word0x2a2
 6894 0e1f 0000 0DF2 	.long0xdf2
 6895 0e23 1B        	.uleb128 0x1b
 6896 0e24 08        	.byte0x8
 6897 0e25 0F        	.byte0xf
 6898 0e26 02C9      	.word0x2c9
 6899 0e28 0000 0E61 	.long0xe61
 6900 0e2c 18        	.uleb128 0x18
 6901 0e2d 0000 0000 	.long.LASF213
 6902 0e31 0F        	.byte0xf
 6903 0e32 02CB      	.word0x2cb
 6904 0e34 0000 0053 	.long0x53
 6905 0e38 00        	.byte0
 6906 0e39 18        	.uleb128 0x18
 6907 0e3a 0000 0000 	.long.LASF214
 6908 0e3e 0F        	.byte0xf
 6909 0e3f 02CC      	.word0x2cc
 6910 0e41 0000 0AD2 	.long0xad2
 6911 0e45 02        	.byte0x2
 6912 0e46 22        	.uleb128 0x22
 6913 0e47 516F 7300 	.string"Qos"
68K GAS   			page 174


 6914 0e4b 0F        	.byte0xf
 6915 0e4c 02CD      	.word0x2cd
 6916 0e4e 0000 0B20 	.long0xb20
 6917 0e52 04        	.byte0x4
 6918 0e53 18        	.uleb128 0x18
 6919 0e54 0000 0000 	.long.LASF215
 6920 0e58 0F        	.byte0xf
 6921 0e59 02CE      	.word0x2ce
 6922 0e5b 0000 0AC7 	.long0xac7
 6923 0e5f 06        	.byte0x6
 6924 0e60 00        	.byte0
 6925 0e61 0D        	.uleb128 0xd
 6926 0e62 0000 0000 	.long.LASF216
 6927 0e66 0F        	.byte0xf
 6928 0e67 02D0      	.word0x2d0
 6929 0e69 0000 0E23 	.long0xe23
 6930 0e6d 1B        	.uleb128 0x1b
 6931 0e6e 14        	.byte0x14
 6932 0e6f 0F        	.byte0xf
 6933 0e70 02D2      	.word0x2d2
 6934 0e72 0000 0E91 	.long0xe91
 6935 0e76 22        	.uleb128 0x22
 6936 0e77 4864 7200 	.string"Hdr"
 6937 0e7b 0F        	.byte0xf
 6938 0e7c 02D3      	.word0x2d3
 6939 0e7e 0000 0AB1 	.long0xab1
 6940 0e82 00        	.byte0
 6941 0e83 18        	.uleb128 0x18
 6942 0e84 0000 0000 	.long.LASF189
 6943 0e88 0F        	.byte0xf
 6944 0e89 02D4      	.word0x2d4
 6945 0e8b 0000 0E61 	.long0xe61
 6946 0e8f 0C        	.byte0xc
 6947 0e90 00        	.byte0
 6948 0e91 0D        	.uleb128 0xd
 6949 0e92 0000 0000 	.long.LASF217
 6950 0e96 0F        	.byte0xf
 6951 0e97 02D5      	.word0x2d5
 6952 0e99 0000 0E6D 	.long0xe6d
 6953 0e9d 1B        	.uleb128 0x1b
 6954 0e9e 06        	.byte0x6
 6955 0e9f 0F        	.byte0xf
 6956 0ea0 02E0      	.word0x2e0
 6957 0ea2 0000 0ECE 	.long0xece
 6958 0ea6 18        	.uleb128 0x18
 6959 0ea7 0000 0000 	.long.LASF214
 6960 0eab 0F        	.byte0xf
 6961 0eac 02E2      	.word0x2e2
 6962 0eae 0000 0AD2 	.long0xad2
 6963 0eb2 00        	.byte0
 6964 0eb3 22        	.uleb128 0x22
 6965 0eb4 516F 7300 	.string"Qos"
 6966 0eb8 0F        	.byte0xf
 6967 0eb9 02E3      	.word0x2e3
 6968 0ebb 0000 0B20 	.long0xb20
 6969 0ebf 02        	.byte0x2
 6970 0ec0 18        	.uleb128 0x18
68K GAS   			page 175


 6971 0ec1 0000 0000 	.long.LASF215
 6972 0ec5 0F        	.byte0xf
 6973 0ec6 02E4      	.word0x2e4
 6974 0ec8 0000 0AC7 	.long0xac7
 6975 0ecc 04        	.byte0x4
 6976 0ecd 00        	.byte0
 6977 0ece 0D        	.uleb128 0xd
 6978 0ecf 0000 0000 	.long.LASF218
 6979 0ed3 0F        	.byte0xf
 6980 0ed4 02E6      	.word0x2e6
 6981 0ed6 0000 0E9D 	.long0xe9d
 6982 0eda 1B        	.uleb128 0x1b
 6983 0edb 84        	.byte0x84
 6984 0edc 0F        	.byte0xf
 6985 0edd 02F2      	.word0x2f2
 6986 0edf 0000 0F18 	.long0xf18
 6987 0ee3 18        	.uleb128 0x18
 6988 0ee4 0000 0000 	.long.LASF219
 6989 0ee8 0F        	.byte0xf
 6990 0ee9 02F4      	.word0x2f4
 6991 0eeb 0000 0070 	.long0x70
 6992 0eef 00        	.byte0
 6993 0ef0 18        	.uleb128 0x18
 6994 0ef1 0000 0000 	.long.LASF220
 6995 0ef5 0F        	.byte0xf
 6996 0ef6 02F5      	.word0x2f5
 6997 0ef8 0000 0070 	.long0x70
 6998 0efc 04        	.byte0x4
 6999 0efd 18        	.uleb128 0x18
 7000 0efe 0000 0000 	.long.LASF221
 7001 0f02 0F        	.byte0xf
 7002 0f03 02F6      	.word0x2f6
 7003 0f05 0000 0070 	.long0x70
 7004 0f09 08        	.byte0x8
 7005 0f0a 18        	.uleb128 0x18
 7006 0f0b 0000 0000 	.long.LASF222
 7007 0f0f 0F        	.byte0xf
 7008 0f10 02F7      	.word0x2f7
 7009 0f12 0000 0F18 	.long0xf18
 7010 0f16 0C        	.byte0xc
 7011 0f17 00        	.byte0
 7012 0f18 05        	.uleb128 0x5
 7013 0f19 0000 0ECE 	.long0xece
 7014 0f1d 0000 0F28 	.long0xf28
 7015 0f21 06        	.uleb128 0x6
 7016 0f22 0000 007B 	.long0x7b
 7017 0f26 13        	.byte0x13
 7018 0f27 00        	.byte0
 7019 0f28 0D        	.uleb128 0xd
 7020 0f29 0000 0000 	.long.LASF223
 7021 0f2d 0F        	.byte0xf
 7022 0f2e 02F8      	.word0x2f8
 7023 0f30 0000 0EDA 	.long0xeda
 7024 0f34 1B        	.uleb128 0x1b
 7025 0f35 90        	.byte0x90
 7026 0f36 0F        	.byte0xf
 7027 0f37 02FA      	.word0x2fa
68K GAS   			page 176


 7028 0f39 0000 0F58 	.long0xf58
 7029 0f3d 22        	.uleb128 0x22
 7030 0f3e 4864 7200 	.string"Hdr"
 7031 0f42 0F        	.byte0xf
 7032 0f43 02FB      	.word0x2fb
 7033 0f45 0000 0AB1 	.long0xab1
 7034 0f49 00        	.byte0
 7035 0f4a 18        	.uleb128 0x18
 7036 0f4b 0000 0000 	.long.LASF189
 7037 0f4f 0F        	.byte0xf
 7038 0f50 02FC      	.word0x2fc
 7039 0f52 0000 0F28 	.long0xf28
 7040 0f56 0C        	.byte0xc
 7041 0f57 00        	.byte0
 7042 0f58 0D        	.uleb128 0xd
 7043 0f59 0000 0000 	.long.LASF224
 7044 0f5d 0F        	.byte0xf
 7045 0f5e 02FD      	.word0x2fd
 7046 0f60 0000 0F34 	.long0xf34
 7047 0f64 10        	.uleb128 0x10
 7048 0f65 24        	.byte0x24
 7049 0f66 10        	.byte0x10
 7050 0f67 AA        	.byte0xaa
 7051 0f68 0000 0FA9 	.long0xfa9
 7052 0f6c 0A        	.uleb128 0xa
 7053 0f6d 0000 0000 	.long.LASF214
 7054 0f71 10        	.byte0x10
 7055 0f72 AB        	.byte0xab
 7056 0f73 0000 0AD2 	.long0xad2
 7057 0f77 00        	.byte0
 7058 0f78 0A        	.uleb128 0xa
 7059 0f79 0000 0000 	.long.LASF225
 7060 0f7d 10        	.byte0x10
 7061 0f7e AC        	.byte0xac
 7062 0f7f 0000 005E 	.long0x5e
 7063 0f83 02        	.byte0x2
 7064 0f84 0A        	.uleb128 0xa
 7065 0f85 0000 0000 	.long.LASF226
 7066 0f89 10        	.byte0x10
 7067 0f8a AD        	.byte0xad
 7068 0f8b 0000 0070 	.long0x70
 7069 0f8f 04        	.byte0x4
 7070 0f90 0A        	.uleb128 0xa
 7071 0f91 0000 0000 	.long.LASF227
 7072 0f95 10        	.byte0x10
 7073 0f96 AE        	.byte0xae
 7074 0f97 0000 00B0 	.long0xb0
 7075 0f9b 08        	.byte0x8
 7076 0f9c 0A        	.uleb128 0xa
 7077 0f9d 0000 0000 	.long.LASF228
 7078 0fa1 10        	.byte0x10
 7079 0fa2 AF        	.byte0xaf
 7080 0fa3 0000 0B57 	.long0xb57
 7081 0fa7 0C        	.byte0xc
 7082 0fa8 00        	.byte0
 7083 0fa9 03        	.uleb128 0x3
 7084 0faa 0000 0000 	.long.LASF229
68K GAS   			page 177


 7085 0fae 10        	.byte0x10
 7086 0faf B0        	.byte0xb0
 7087 0fb0 0000 0F64 	.long0xf64
 7088 0fb4 10        	.uleb128 0x10
 7089 0fb5 14        	.byte0x14
 7090 0fb6 10        	.byte0x10
 7091 0fb7 BE        	.byte0xbe
 7092 0fb8 0000 1029 	.long0x1029
 7093 0fbc 0A        	.uleb128 0xa
 7094 0fbd 0000 0000 	.long.LASF191
 7095 0fc1 10        	.byte0x10
 7096 0fc2 BF        	.byte0xbf
 7097 0fc3 0000 0AC7 	.long0xac7
 7098 0fc7 00        	.byte0
 7099 0fc8 0A        	.uleb128 0xa
 7100 0fc9 0000 0000 	.long.LASF230
 7101 0fcd 10        	.byte0x10
 7102 0fce C0        	.byte0xc0
 7103 0fcf 0000 0053 	.long0x53
 7104 0fd3 01        	.byte0x1
 7105 0fd4 0A        	.uleb128 0xa
 7106 0fd5 0000 0000 	.long.LASF231
 7107 0fd9 10        	.byte0x10
 7108 0fda C1        	.byte0xc1
 7109 0fdb 0000 005E 	.long0x5e
 7110 0fdf 02        	.byte0x2
 7111 0fe0 0A        	.uleb128 0xa
 7112 0fe1 0000 0000 	.long.LASF232
 7113 0fe5 10        	.byte0x10
 7114 0fe6 C2        	.byte0xc2
 7115 0fe7 0000 005E 	.long0x5e
 7116 0feb 04        	.byte0x4
 7117 0fec 0A        	.uleb128 0xa
 7118 0fed 0000 0000 	.long.LASF233
 7119 0ff1 10        	.byte0x10
 7120 0ff2 C3        	.byte0xc3
 7121 0ff3 0000 005E 	.long0x5e
 7122 0ff7 06        	.byte0x6
 7123 0ff8 0A        	.uleb128 0xa
 7124 0ff9 0000 0000 	.long.LASF234
 7125 0ffd 10        	.byte0x10
 7126 0ffe C4        	.byte0xc4
 7127 0fff 0000 0053 	.long0x53
 7128 1003 08        	.byte0x8
 7129 1004 0A        	.uleb128 0xa
 7130 1005 0000 0000 	.long.LASF180
 7131 1009 10        	.byte0x10
 7132 100a C5        	.byte0xc5
 7133 100b 0000 1029 	.long0x1029
 7134 100f 09        	.byte0x9
 7135 1010 0A        	.uleb128 0xa
 7136 1011 0000 0000 	.long.LASF235
 7137 1015 10        	.byte0x10
 7138 1016 C6        	.byte0xc6
 7139 1017 0000 00B0 	.long0xb0
 7140 101b 0C        	.byte0xc
 7141 101c 0A        	.uleb128 0xa
68K GAS   			page 178


 7142 101d 0000 0000 	.long.LASF236
 7143 1021 10        	.byte0x10
 7144 1022 C7        	.byte0xc7
 7145 1023 0000 00B0 	.long0xb0
 7146 1027 10        	.byte0x10
 7147 1028 00        	.byte0
 7148 1029 05        	.uleb128 0x5
 7149 102a 0000 0053 	.long0x53
 7150 102e 0000 1039 	.long0x1039
 7151 1032 06        	.uleb128 0x6
 7152 1033 0000 007B 	.long0x7b
 7153 1037 02        	.byte0x2
 7154 1038 00        	.byte0
 7155 1039 03        	.uleb128 0x3
 7156 103a 0000 0000 	.long.LASF237
 7157 103e 10        	.byte0x10
 7158 103f C8        	.byte0xc8
 7159 1040 0000 0FB4 	.long0xfb4
 7160 1044 10        	.uleb128 0x10
 7161 1045 14        	.byte0x14
 7162 1046 10        	.byte0x10
 7163 1047 D6        	.byte0xd6
 7164 1048 0000 1089 	.long0x1089
 7165 104c 0A        	.uleb128 0xa
 7166 104d 0000 0000 	.long.LASF238
 7167 1051 10        	.byte0x10
 7168 1052 D7        	.byte0xd7
 7169 1053 0000 0070 	.long0x70
 7170 1057 00        	.byte0
 7171 1058 0A        	.uleb128 0xa
 7172 1059 0000 0000 	.long.LASF226
 7173 105d 10        	.byte0x10
 7174 105e D8        	.byte0xd8
 7175 105f 0000 0070 	.long0x70
 7176 1063 04        	.byte0x4
 7177 1064 0A        	.uleb128 0xa
 7178 1065 0000 0000 	.long.LASF227
 7179 1069 10        	.byte0x10
 7180 106a D9        	.byte0xd9
 7181 106b 0000 00B0 	.long0xb0
 7182 106f 08        	.byte0x8
 7183 1070 0A        	.uleb128 0xa
 7184 1071 0000 0000 	.long.LASF236
 7185 1075 10        	.byte0x10
 7186 1076 DA        	.byte0xda
 7187 1077 0000 00B0 	.long0xb0
 7188 107b 0C        	.byte0xc
 7189 107c 0A        	.uleb128 0xa
 7190 107d 0000 0000 	.long.LASF235
 7191 1081 10        	.byte0x10
 7192 1082 DB        	.byte0xdb
 7193 1083 0000 00B0 	.long0xb0
 7194 1087 10        	.byte0x10
 7195 1088 00        	.byte0
 7196 1089 03        	.uleb128 0x3
 7197 108a 0000 0000 	.long.LASF239
 7198 108e 10        	.byte0x10
68K GAS   			page 179


 7199 108f DC        	.byte0xdc
 7200 1090 0000 1044 	.long0x1044
 7201 1094 10        	.uleb128 0x10
 7202 1095 0C        	.byte0xc
 7203 1096 10        	.byte0x10
 7204 1097 E6        	.byte0xe6
 7205 1098 0000 10CD 	.long0x10cd
 7206 109c 0A        	.uleb128 0xa
 7207 109d 0000 0000 	.long.LASF214
 7208 10a1 10        	.byte0x10
 7209 10a2 E7        	.byte0xe7
 7210 10a3 0000 0AD2 	.long0xad2
 7211 10a7 00        	.byte0
 7212 10a8 0A        	.uleb128 0xa
 7213 10a9 0000 0000 	.long.LASF240
 7214 10ad 10        	.byte0x10
 7215 10ae E8        	.byte0xe8
 7216 10af 0000 005E 	.long0x5e
 7217 10b3 02        	.byte0x2
 7218 10b4 0A        	.uleb128 0xa
 7219 10b5 0000 0000 	.long.LASF241
 7220 10b9 10        	.byte0x10
 7221 10ba E9        	.byte0xe9
 7222 10bb 0000 0070 	.long0x70
 7223 10bf 04        	.byte0x4
 7224 10c0 0A        	.uleb128 0xa
 7225 10c1 0000 0000 	.long.LASF242
 7226 10c5 10        	.byte0x10
 7227 10c6 EA        	.byte0xea
 7228 10c7 0000 10CD 	.long0x10cd
 7229 10cb 08        	.byte0x8
 7230 10cc 00        	.byte0
 7231 10cd 0C        	.uleb128 0xc
 7232 10ce 04        	.byte0x4
 7233 10cf 0000 1039 	.long0x1039
 7234 10d3 03        	.uleb128 0x3
 7235 10d4 0000 0000 	.long.LASF243
 7236 10d8 10        	.byte0x10
 7237 10d9 EB        	.byte0xeb
 7238 10da 0000 1094 	.long0x1094
 7239 10de 10        	.uleb128 0x10
 7240 10df 44        	.byte0x44
 7241 10e0 10        	.byte0x10
 7242 10e1 F6        	.byte0xf6
 7243 10e2 0000 117A 	.long0x117a
 7244 10e6 0A        	.uleb128 0xa
 7245 10e7 0000 0000 	.long.LASF193
 7246 10eb 10        	.byte0x10
 7247 10ec F7        	.byte0xf7
 7248 10ed 0000 0053 	.long0x53
 7249 10f1 00        	.byte0
 7250 10f2 0A        	.uleb128 0xa
 7251 10f3 0000 0000 	.long.LASF191
 7252 10f7 10        	.byte0x10
 7253 10f8 F8        	.byte0xf8
 7254 10f9 0000 0AC7 	.long0xac7
 7255 10fd 01        	.byte0x1
68K GAS   			page 180


 7256 10fe 0A        	.uleb128 0xa
 7257 10ff 0000 0000 	.long.LASF244
 7258 1103 10        	.byte0x10
 7259 1104 F9        	.byte0xf9
 7260 1105 0000 00A0 	.long0xa0
 7261 1109 02        	.byte0x2
 7262 110a 0A        	.uleb128 0xa
 7263 110b 0000 0000 	.long.LASF167
 7264 110f 10        	.byte0x10
 7265 1110 FA        	.byte0xfa
 7266 1111 0000 00A0 	.long0xa0
 7267 1115 16        	.byte0x16
 7268 1116 0A        	.uleb128 0xa
 7269 1117 0000 0000 	.long.LASF180
 7270 111b 10        	.byte0x10
 7271 111c FB        	.byte0xfb
 7272 111d 0000 005E 	.long0x5e
 7273 1121 2A        	.byte0x2a
 7274 1122 0A        	.uleb128 0xa
 7275 1123 0000 0000 	.long.LASF245
 7276 1127 10        	.byte0x10
 7277 1128 FC        	.byte0xfc
 7278 1129 0000 0070 	.long0x70
 7279 112d 2C        	.byte0x2c
 7280 112e 0A        	.uleb128 0xa
 7281 112f 0000 0000 	.long.LASF246
 7282 1133 10        	.byte0x10
 7283 1134 FD        	.byte0xfd
 7284 1135 0000 0070 	.long0x70
 7285 1139 30        	.byte0x30
 7286 113a 0A        	.uleb128 0xa
 7287 113b 0000 0000 	.long.LASF247
 7288 113f 10        	.byte0x10
 7289 1140 FE        	.byte0xfe
 7290 1141 0000 0070 	.long0x70
 7291 1145 34        	.byte0x34
 7292 1146 0A        	.uleb128 0xa
 7293 1147 0000 0000 	.long.LASF248
 7294 114b 10        	.byte0x10
 7295 114c FF        	.byte0xff
 7296 114d 0000 005E 	.long0x5e
 7297 1151 38        	.byte0x38
 7298 1152 18        	.uleb128 0x18
 7299 1153 0000 0000 	.long.LASF249
 7300 1157 10        	.byte0x10
 7301 1158 0100      	.word0x100
 7302 115a 0000 005E 	.long0x5e
 7303 115e 3A        	.byte0x3a
 7304 115f 18        	.uleb128 0x18
 7305 1160 0000 0000 	.long.LASF250
 7306 1164 10        	.byte0x10
 7307 1165 0101      	.word0x101
 7308 1167 0000 117A 	.long0x117a
 7309 116b 3C        	.byte0x3c
 7310 116c 18        	.uleb128 0x18
 7311 116d 0000 0000 	.long.LASF251
 7312 1171 10        	.byte0x10
68K GAS   			page 181


 7313 1172 0102      	.word0x102
 7314 1174 0000 117A 	.long0x117a
 7315 1178 40        	.byte0x40
 7316 1179 00        	.byte0
 7317 117a 0C        	.uleb128 0xc
 7318 117b 04        	.byte0x4
 7319 117c 0000 0FA9 	.long0xfa9
 7320 1180 0D        	.uleb128 0xd
 7321 1181 0000 0000 	.long.LASF252
 7322 1185 10        	.byte0x10
 7323 1186 0103      	.word0x103
 7324 1188 0000 10DE 	.long0x10de
 7325 118c 24        	.uleb128 0x24
 7326 118d 0008 0004 	.long0x80004
 7327 1191 10        	.byte0x10
 7328 1192 010D      	.word0x10d
 7329 1194 0000 11B3 	.long0x11b3
 7330 1198 18        	.uleb128 0x18
 7331 1199 0000 0000 	.long.LASF253
 7332 119d 10        	.byte0x10
 7333 119e 010F      	.word0x10f
 7334 11a0 0000 09C7 	.long0x9c7
 7335 11a4 00        	.byte0
 7336 11a5 18        	.uleb128 0x18
 7337 11a6 0000 0000 	.long.LASF254
 7338 11aa 10        	.byte0x10
 7339 11ab 0110      	.word0x110
 7340 11ad 0000 11B3 	.long0x11b3
 7341 11b1 04        	.byte0x4
 7342 11b2 00        	.byte0
 7343 11b3 05        	.uleb128 0x5
 7344 11b4 0000 0053 	.long0x53
 7345 11b8 0000 11C6 	.long0x11c6
 7346 11bc 25        	.uleb128 0x25
 7347 11bd 0000 007B 	.long0x7b
 7348 11c1 0007 FFFF 	.long0x7ffff
 7349 11c5 00        	.byte0
 7350 11c6 0D        	.uleb128 0xd
 7351 11c7 0000 0000 	.long.LASF255
 7352 11cb 10        	.byte0x10
 7353 11cc 0112      	.word0x112
 7354 11ce 0000 118C 	.long0x118c
 7355 11d2 24        	.uleb128 0x24
 7356 11d3 0008 60D4 	.long0x860d4
 7357 11d7 10        	.byte0x10
 7358 11d8 011B      	.word0x11b
 7359 11da 0000 12D0 	.long0x12d0
 7360 11de 18        	.uleb128 0x18
 7361 11df 0000 0000 	.long.LASF256
 7362 11e3 10        	.byte0x10
 7363 11e4 011C      	.word0x11c
 7364 11e6 0000 0070 	.long0x70
 7365 11ea 00        	.byte0
 7366 11eb 18        	.uleb128 0x18
 7367 11ec 0000 0000 	.long.LASF257
 7368 11f0 10        	.byte0x10
 7369 11f1 011D      	.word0x11d
68K GAS   			page 182


 7370 11f3 0000 0070 	.long0x70
 7371 11f7 04        	.byte0x4
 7372 11f8 18        	.uleb128 0x18
 7373 11f9 0000 0000 	.long.LASF258
 7374 11fd 10        	.byte0x10
 7375 11fe 011E      	.word0x11e
 7376 1200 0000 0070 	.long0x70
 7377 1204 08        	.byte0x8
 7378 1205 18        	.uleb128 0x18
 7379 1206 0000 0000 	.long.LASF245
 7380 120a 10        	.byte0x10
 7381 120b 011F      	.word0x11f
 7382 120d 0000 0070 	.long0x70
 7383 1211 0C        	.byte0xc
 7384 1212 18        	.uleb128 0x18
 7385 1213 0000 0000 	.long.LASF259
 7386 1217 10        	.byte0x10
 7387 1218 0120      	.word0x120
 7388 121a 0000 09D3 	.long0x9d3
 7389 121e 10        	.byte0x10
 7390 121f 18        	.uleb128 0x18
 7391 1220 0000 0000 	.long.LASF260
 7392 1224 10        	.byte0x10
 7393 1225 0121      	.word0x121
 7394 1227 0000 00B0 	.long0xb0
 7395 122b 90        	.byte0x90
 7396 122c 18        	.uleb128 0x18
 7397 122d 0000 0000 	.long.LASF261
 7398 1231 10        	.byte0x10
 7399 1232 0122      	.word0x122
 7400 1234 0000 12D0 	.long0x12d0
 7401 1238 94        	.byte0x94
 7402 1239 19        	.uleb128 0x19
 7403 123a 0000 0000 	.long.LASF262
 7404 123e 10        	.byte0x10
 7405 123f 0123      	.word0x123
 7406 1241 0000 0C98 	.long0xc98
 7407 1245 1194      	.word0x1194
 7408 1247 19        	.uleb128 0x19
 7409 1248 0000 0000 	.long.LASF263
 7410 124c 10        	.byte0x10
 7411 124d 0124      	.word0x124
 7412 124f 0000 0E17 	.long0xe17
 7413 1253 11BC      	.word0x11bc
 7414 1255 19        	.uleb128 0x19
 7415 1256 0000 0000 	.long.LASF264
 7416 125a 10        	.byte0x10
 7417 125b 0125      	.word0x125
 7418 125d 0000 0AC7 	.long0xac7
 7419 1261 1404      	.word0x1404
 7420 1263 19        	.uleb128 0x19
 7421 1264 0000 0000 	.long.LASF265
 7422 1268 10        	.byte0x10
 7423 1269 0126      	.word0x126
 7424 126b 0000 0AE8 	.long0xae8
 7425 126f 1408      	.word0x1408
 7426 1271 26        	.uleb128 0x26
68K GAS   			page 183


 7427 1272 4D65 6D00 	.string"Mem"
 7428 1276 10        	.byte0x10
 7429 1277 0127      	.word0x127
 7430 1279 0000 11C6 	.long0x11c6
 7431 127d 140C      	.word0x140c
 7432 127f 27        	.uleb128 0x27
 7433 1280 0000 0000 	.long.LASF266
 7434 1284 10        	.byte0x10
 7435 1285 0128      	.word0x128
 7436 1287 0000 12E0 	.long0x12e0
 7437 128b 0008 1410 	.long0x81410
 7438 128f 27        	.uleb128 0x27
 7439 1290 0000 0000 	.long.LASF267
 7440 1294 10        	.byte0x10
 7441 1295 0129      	.word0x129
 7442 1297 0000 12F1 	.long0x12f1
 7443 129b 0008 5410 	.long0x85410
 7444 129f 27        	.uleb128 0x27
 7445 12a0 0000 0000 	.long.LASF268
 7446 12a4 10        	.byte0x10
 7447 12a5 012A      	.word0x12a
 7448 12a7 0000 0F58 	.long0xf58
 7449 12ab 0008 6010 	.long0x86010
 7450 12af 27        	.uleb128 0x27
 7451 12b0 0000 0000 	.long.LASF269
 7452 12b4 10        	.byte0x10
 7453 12b5 012B      	.word0x12b
 7454 12b7 0000 0E91 	.long0xe91
 7455 12bb 0008 60A0 	.long0x860a0
 7456 12bf 27        	.uleb128 0x27
 7457 12c0 0000 0000 	.long.LASF270
 7458 12c4 10        	.byte0x10
 7459 12c5 012C      	.word0x12c
 7460 12c7 0000 1301 	.long0x1301
 7461 12cb 0008 60B4 	.long0x860b4
 7462 12cf 00        	.byte0
 7463 12d0 05        	.uleb128 0x5
 7464 12d1 0000 1180 	.long0x1180
 7465 12d5 0000 12E0 	.long0x12e0
 7466 12d9 06        	.uleb128 0x6
 7467 12da 0000 007B 	.long0x7b
 7468 12de 3F        	.byte0x3f
 7469 12df 00        	.byte0
 7470 12e0 05        	.uleb128 0x5
 7471 12e1 0000 0AD2 	.long0xad2
 7472 12e5 0000 12F1 	.long0x12f1
 7473 12e9 28        	.uleb128 0x28
 7474 12ea 0000 007B 	.long0x7b
 7475 12ee 1FFF      	.word0x1fff
 7476 12f0 00        	.byte0
 7477 12f1 05        	.uleb128 0x5
 7478 12f2 0000 10D3 	.long0x10d3
 7479 12f6 0000 1301 	.long0x1301
 7480 12fa 06        	.uleb128 0x6
 7481 12fb 0000 007B 	.long0x7b
 7482 12ff FF        	.byte0xff
 7483 1300 00        	.byte0
68K GAS   			page 184


 7484 1301 05        	.uleb128 0x5
 7485 1302 0000 0B83 	.long0xb83
 7486 1306 0000 1311 	.long0x1311
 7487 130a 06        	.uleb128 0x6
 7488 130b 0000 007B 	.long0x7b
 7489 130f 07        	.byte0x7
 7490 1310 00        	.byte0
 7491 1311 0D        	.uleb128 0xd
 7492 1312 0000 0000 	.long.LASF271
 7493 1316 10        	.byte0x10
 7494 1317 012D      	.word0x12d
 7495 1319 0000 11D2 	.long0x11d2
 7496 131d 1B        	.uleb128 0x1b
 7497 131e 0C        	.byte0xc
 7498 131f 10        	.byte0x10
 7499 1320 0136      	.word0x136
 7500 1322 0000 134E 	.long0x134e
 7501 1326 18        	.uleb128 0x18
 7502 1327 0000 0000 	.long.LASF272
 7503 132b 10        	.byte0x10
 7504 132c 0137      	.word0x137
 7505 132e 0000 0070 	.long0x70
 7506 1332 00        	.byte0
 7507 1333 18        	.uleb128 0x18
 7508 1334 0000 0000 	.long.LASF273
 7509 1338 10        	.byte0x10
 7510 1339 0138      	.word0x138
 7511 133b 0000 003A 	.long0x3a
 7512 133f 04        	.byte0x4
 7513 1340 18        	.uleb128 0x18
 7514 1341 0000 0000 	.long.LASF191
 7515 1345 10        	.byte0x10
 7516 1346 0139      	.word0x139
 7517 1348 0000 0AC7 	.long0xac7
 7518 134c 08        	.byte0x8
 7519 134d 00        	.byte0
 7520 134e 0D        	.uleb128 0xd
 7521 134f 0000 0000 	.long.LASF274
 7522 1353 10        	.byte0x10
 7523 1354 013A      	.word0x13a
 7524 1356 0000 131D 	.long0x131d
 7525 135a 1B        	.uleb128 0x1b
 7526 135b C4        	.byte0xc4
 7527 135c 10        	.byte0x10
 7528 135d 0143      	.word0x143
 7529 135f 0000 137E 	.long0x137e
 7530 1363 18        	.uleb128 0x18
 7531 1364 0000 0000 	.long.LASF275
 7532 1368 10        	.byte0x10
 7533 1369 0144      	.word0x144
 7534 136b 0000 0070 	.long0x70
 7535 136f 00        	.byte0
 7536 1370 18        	.uleb128 0x18
 7537 1371 0000 0000 	.long.LASF276
 7538 1375 10        	.byte0x10
 7539 1376 0145      	.word0x145
 7540 1378 0000 137E 	.long0x137e
68K GAS   			page 185


 7541 137c 04        	.byte0x4
 7542 137d 00        	.byte0
 7543 137e 05        	.uleb128 0x5
 7544 137f 0000 134E 	.long0x134e
 7545 1383 0000 138E 	.long0x138e
 7546 1387 06        	.uleb128 0x6
 7547 1388 0000 007B 	.long0x7b
 7548 138c 0F        	.byte0xf
 7549 138d 00        	.byte0
 7550 138e 0D        	.uleb128 0xd
 7551 138f 0000 0000 	.long.LASF277
 7552 1393 10        	.byte0x10
 7553 1394 0146      	.word0x146
 7554 1396 0000 135A 	.long0x135a
 7555 139a 1F        	.uleb128 0x1f
 7556 139b 0000 0000 	.long.LASF278
 7557 139f 10        	.byte0x10
 7558 13a0 0198      	.word0x198
 7559 13a2 0000 1311 	.long0x1311
 7560 13a6 29        	.uleb128 0x29
 7561 13a7 0000 0000 	.long.LASF287
 7562 13ab 01        	.byte0x1
 7563 13ac 07BB      	.word0x7bb
 7564 13ae 0000 003A 	.long0x3a
 7565 13b2 0000 0000 	.long.LFB81
 7566 13b6 0000 013C 	.long.LFE81-.LFB81
 7567 13ba 01        	.uleb128 0x1
 7568 13bb 9C        	.byte0x9c
 7569 13bc 0000 1448 	.long0x1448
 7570 13c0 2A        	.uleb128 0x2a
 7571 13c1 0000 0000 	.long.LASF279
 7572 13c5 01        	.byte0x1
 7573 13c6 07BB      	.word0x7bb
 7574 13c8 0000 1448 	.long0x1448
 7575 13cc 02        	.uleb128 0x2
 7576 13cd 91        	.byte0x91
 7577 13ce 00        	.sleb128 0
 7578 13cf 2A        	.uleb128 0x2a
 7579 13d0 0000 0000 	.long.LASF280
 7580 13d4 01        	.byte0x1
 7581 13d5 07BC      	.word0x7bc
 7582 13d7 0000 0070 	.long0x70
 7583 13db 02        	.uleb128 0x2
 7584 13dc 91        	.byte0x91
 7585 13dd 04        	.sleb128 4
 7586 13de 2A        	.uleb128 0x2a
 7587 13df 0000 0000 	.long.LASF281
 7588 13e3 01        	.byte0x1
 7589 13e4 07BD      	.word0x7bd
 7590 13e6 0000 0ABC 	.long0xabc
 7591 13ea 02        	.uleb128 0x2
 7592 13eb 91        	.byte0x91
 7593 13ec 08        	.sleb128 8
 7594 13ed 2A        	.uleb128 0x2a
 7595 13ee 0000 0000 	.long.LASF282
 7596 13f2 01        	.byte0x1
 7597 13f3 07BE      	.word0x7be
68K GAS   			page 186


 7598 13f5 0000 144E 	.long0x144e
 7599 13f9 02        	.uleb128 0x2
 7600 13fa 91        	.byte0x91
 7601 13fb 0C        	.sleb128 12
 7602 13fc 2B        	.uleb128 0x2b
 7603 13fd 0000 0000 	.long.LASF283
 7604 1401 01        	.byte0x1
 7605 1402 07C0      	.word0x7c0
 7606 1404 0000 003A 	.long0x3a
 7607 1408 02        	.uleb128 0x2
 7608 1409 91        	.byte0x91
 7609 140a 78        	.sleb128 -8
 7610 140b 2B        	.uleb128 0x2b
 7611 140c 0000 0000 	.long.LASF284
 7612 1410 01        	.byte0x1
 7613 1411 07C0      	.word0x7c0
 7614 1413 0000 003A 	.long0x3a
 7615 1417 02        	.uleb128 0x2
 7616 1418 91        	.byte0x91
 7617 1419 74        	.sleb128 -12
 7618 141a 2B        	.uleb128 0x2b
 7619 141b 0000 0000 	.long.LASF285
 7620 141f 01        	.byte0x1
 7621 1420 07C1      	.word0x7c1
 7622 1422 0000 0070 	.long0x70
 7623 1426 02        	.uleb128 0x2
 7624 1427 91        	.byte0x91
 7625 1428 70        	.sleb128 -16
 7626 1429 2B        	.uleb128 0x2b
 7627 142a 0000 0000 	.long.LASF286
 7628 142e 01        	.byte0x1
 7629 142f 07C2      	.word0x7c2
 7630 1431 0000 1454 	.long0x1454
 7631 1435 02        	.uleb128 0x2
 7632 1436 91        	.byte0x91
 7633 1437 48        	.sleb128 -56
 7634 1438 2C        	.uleb128 0x2c
 7635 1439 0000 0000 	.long.LASF295
 7636 143d 0000 1474 	.long0x1474
 7637 1441 05        	.uleb128 0x5
 7638 1442 03        	.byte0x3
 7639 1443 0000 0000 	.long__func__.5800
 7640 1447 00        	.byte0
 7641 1448 0C        	.uleb128 0xc
 7642 1449 04        	.byte0x4
 7643 144a 0000 1180 	.long0x1180
 7644 144e 0C        	.uleb128 0xc
 7645 144f 04        	.byte0x4
 7646 1450 0000 117A 	.long0x117a
 7647 1454 05        	.uleb128 0x5
 7648 1455 0000 0094 	.long0x94
 7649 1459 0000 1464 	.long0x1464
 7650 145d 06        	.uleb128 0x6
 7651 145e 0000 007B 	.long0x7b
 7652 1462 27        	.byte0x27
 7653 1463 00        	.byte0
 7654 1464 05        	.uleb128 0x5
68K GAS   			page 187


 7655 1465 0000 009B 	.long0x9b
 7656 1469 0000 1474 	.long0x1474
 7657 146d 06        	.uleb128 0x6
 7658 146e 0000 007B 	.long0x7b
 7659 1472 10        	.byte0x10
 7660 1473 00        	.byte0
 7661 1474 04        	.uleb128 0x4
 7662 1475 0000 1464 	.long0x1464
 7663 1479 29        	.uleb128 0x29
 7664 147a 0000 0000 	.long.LASF288
 7665 147e 01        	.byte0x1
 7666 147f 0791      	.word0x791
 7667 1481 0000 003A 	.long0x3a
 7668 1485 0000 0000 	.long.LFB80
 7669 1489 0000 0034 	.long.LFE80-.LFB80
 7670 148d 01        	.uleb128 0x1
 7671 148e 9C        	.byte0x9c
 7672 148f 0000 14C1 	.long0x14c1
 7673 1493 2A        	.uleb128 0x2a
 7674 1494 0000 0000 	.long.LASF289
 7675 1498 01        	.byte0x1
 7676 1499 0791      	.word0x791
 7677 149b 0000 0AE8 	.long0xae8
 7678 149f 02        	.uleb128 0x2
 7679 14a0 91        	.byte0x91
 7680 14a1 00        	.sleb128 0
 7681 14a2 2A        	.uleb128 0x2a
 7682 14a3 0000 0000 	.long.LASF290
 7683 14a7 01        	.byte0x1
 7684 14a8 0792      	.word0x792
 7685 14aa 0000 0AF4 	.long0xaf4
 7686 14ae 02        	.uleb128 0x2
 7687 14af 91        	.byte0x91
 7688 14b0 04        	.sleb128 4
 7689 14b1 2B        	.uleb128 0x2b
 7690 14b2 0000 0000 	.long.LASF283
 7691 14b6 01        	.byte0x1
 7692 14b7 0794      	.word0x794
 7693 14b9 0000 003A 	.long0x3a
 7694 14bd 02        	.uleb128 0x2
 7695 14be 91        	.byte0x91
 7696 14bf 78        	.sleb128 -8
 7697 14c0 00        	.byte0
 7698 14c1 29        	.uleb128 0x29
 7699 14c2 0000 0000 	.long.LASF291
 7700 14c6 01        	.byte0x1
 7701 14c7 076A      	.word0x76a
 7702 14c9 0000 003A 	.long0x3a
 7703 14cd 0000 0000 	.long.LFB79
 7704 14d1 0000 0036 	.long.LFE79-.LFB79
 7705 14d5 01        	.uleb128 0x1
 7706 14d6 9C        	.byte0x9c
 7707 14d7 0000 1509 	.long0x1509
 7708 14db 2A        	.uleb128 0x2a
 7709 14dc 0000 0000 	.long.LASF289
 7710 14e0 01        	.byte0x1
 7711 14e1 076A      	.word0x76a
68K GAS   			page 188


 7712 14e3 0000 0AE8 	.long0xae8
 7713 14e7 02        	.uleb128 0x2
 7714 14e8 91        	.byte0x91
 7715 14e9 00        	.sleb128 0
 7716 14ea 2A        	.uleb128 0x2a
 7717 14eb 0000 0000 	.long.LASF290
 7718 14ef 01        	.byte0x1
 7719 14f0 076B      	.word0x76b
 7720 14f2 0000 0AF4 	.long0xaf4
 7721 14f6 02        	.uleb128 0x2
 7722 14f7 91        	.byte0x91
 7723 14f8 04        	.sleb128 4
 7724 14f9 2B        	.uleb128 0x2b
 7725 14fa 0000 0000 	.long.LASF283
 7726 14fe 01        	.byte0x1
 7727 14ff 076D      	.word0x76d
 7728 1501 0000 003A 	.long0x3a
 7729 1505 02        	.uleb128 0x2
 7730 1506 91        	.byte0x91
 7731 1507 78        	.sleb128 -8
 7732 1508 00        	.byte0
 7733 1509 29        	.uleb128 0x29
 7734 150a 0000 0000 	.long.LASF292
 7735 150e 01        	.byte0x1
 7736 150f 072B      	.word0x72b
 7737 1511 0000 003A 	.long0x3a
 7738 1515 0000 0000 	.long.LFB78
 7739 1519 0000 0112 	.long.LFE78-.LFB78
 7740 151d 01        	.uleb128 0x1
 7741 151e 9C        	.byte0x9c
 7742 151f 0000 156F 	.long0x156f
 7743 1523 2A        	.uleb128 0x2a
 7744 1524 0000 0000 	.long.LASF293
 7745 1528 01        	.byte0x1
 7746 1529 072B      	.word0x72b
 7747 152b 0000 0AE8 	.long0xae8
 7748 152f 02        	.uleb128 0x2
 7749 1530 91        	.byte0x91
 7750 1531 00        	.sleb128 0
 7751 1532 2A        	.uleb128 0x2a
 7752 1533 0000 0000 	.long.LASF290
 7753 1537 01        	.byte0x1
 7754 1538 072C      	.word0x72c
 7755 153a 0000 0AF4 	.long0xaf4
 7756 153e 02        	.uleb128 0x2
 7757 153f 91        	.byte0x91
 7758 1540 04        	.sleb128 4
 7759 1541 2B        	.uleb128 0x2b
 7760 1542 0000 0000 	.long.LASF294
 7761 1546 01        	.byte0x1
 7762 1547 072E      	.word0x72e
 7763 1549 0000 003A 	.long0x3a
 7764 154d 02        	.uleb128 0x2
 7765 154e 91        	.byte0x91
 7766 154f 74        	.sleb128 -12
 7767 1550 2D        	.uleb128 0x2d
 7768 1551 7A63 6400 	.string"zcd"
68K GAS   			page 189


 7769 1555 01        	.byte0x1
 7770 1556 072F      	.word0x72f
 7771 1558 0000 156F 	.long0x156f
 7772 155c 02        	.uleb128 0x2
 7773 155d 91        	.byte0x91
 7774 155e 78        	.sleb128 -8
 7775 155f 2C        	.uleb128 0x2c
 7776 1560 0000 0000 	.long.LASF295
 7777 1564 0000 1585 	.long0x1585
 7778 1568 05        	.uleb128 0x5
 7779 1569 03        	.byte0x3
 7780 156a 0000 0000 	.long__func__.5770
 7781 156e 00        	.byte0
 7782 156f 0C        	.uleb128 0xc
 7783 1570 04        	.byte0x4
 7784 1571 0000 1089 	.long0x1089
 7785 1575 05        	.uleb128 0x5
 7786 1576 0000 009B 	.long0x9b
 7787 157a 0000 1585 	.long0x1585
 7788 157e 06        	.uleb128 0x6
 7789 157f 0000 007B 	.long0x7b
 7790 1583 1A        	.byte0x1a
 7791 1584 00        	.byte0
 7792 1585 04        	.uleb128 0x4
 7793 1586 0000 1575 	.long0x1575
 7794 158a 29        	.uleb128 0x29
 7795 158b 0000 0000 	.long.LASF296
 7796 158f 01        	.byte0x1
 7797 1590 06F8      	.word0x6f8
 7798 1592 0000 003A 	.long0x3a
 7799 1596 0000 0000 	.long.LFB77
 7800 159a 0000 0096 	.long.LFE77-.LFB77
 7801 159e 01        	.uleb128 0x1
 7802 159f 9C        	.byte0x9c
 7803 15a0 0000 15F0 	.long0x15f0
 7804 15a4 2A        	.uleb128 0x2a
 7805 15a5 0000 0000 	.long.LASF293
 7806 15a9 01        	.byte0x1
 7807 15aa 06F8      	.word0x6f8
 7808 15ac 0000 0AE8 	.long0xae8
 7809 15b0 02        	.uleb128 0x2
 7810 15b1 91        	.byte0x91
 7811 15b2 00        	.sleb128 0
 7812 15b3 2A        	.uleb128 0x2a
 7813 15b4 0000 0000 	.long.LASF290
 7814 15b8 01        	.byte0x1
 7815 15b9 06F9      	.word0x6f9
 7816 15bb 0000 0AF4 	.long0xaf4
 7817 15bf 02        	.uleb128 0x2
 7818 15c0 91        	.byte0x91
 7819 15c1 04        	.sleb128 4
 7820 15c2 2B        	.uleb128 0x2b
 7821 15c3 0000 0000 	.long.LASF283
 7822 15c7 01        	.byte0x1
 7823 15c8 06FB      	.word0x6fb
 7824 15ca 0000 003A 	.long0x3a
 7825 15ce 02        	.uleb128 0x2
68K GAS   			page 190


 7826 15cf 91        	.byte0x91
 7827 15d0 78        	.sleb128 -8
 7828 15d1 2B        	.uleb128 0x2b
 7829 15d2 0000 0000 	.long.LASF297
 7830 15d6 01        	.byte0x1
 7831 15d7 06FC      	.word0x6fc
 7832 15d9 0000 003A 	.long0x3a
 7833 15dd 02        	.uleb128 0x2
 7834 15de 91        	.byte0x91
 7835 15df 74        	.sleb128 -12
 7836 15e0 2C        	.uleb128 0x2c
 7837 15e1 0000 0000 	.long.LASF295
 7838 15e5 0000 1600 	.long0x1600
 7839 15e9 05        	.uleb128 0x5
 7840 15ea 03        	.byte0x3
 7841 15eb 0000 0000 	.long__func__.5763
 7842 15ef 00        	.byte0
 7843 15f0 05        	.uleb128 0x5
 7844 15f1 0000 009B 	.long0x9b
 7845 15f5 0000 1600 	.long0x1600
 7846 15f9 06        	.uleb128 0x6
 7847 15fa 0000 007B 	.long0x7b
 7848 15fe 19        	.byte0x19
 7849 15ff 00        	.byte0
 7850 1600 04        	.uleb128 0x4
 7851 1601 0000 15F0 	.long0x15f0
 7852 1605 29        	.uleb128 0x29
 7853 1606 0000 0000 	.long.LASF298
 7854 160a 01        	.byte0x1
 7855 160b 0688      	.word0x688
 7856 160d 0000 0AE8 	.long0xae8
 7857 1611 0000 0000 	.long.LFB76
 7858 1615 0000 0248 	.long.LFE76-.LFB76
 7859 1619 01        	.uleb128 0x1
 7860 161a 9C        	.byte0x9c
 7861 161b 0000 1697 	.long0x1697
 7862 161f 2A        	.uleb128 0x2a
 7863 1620 0000 0000 	.long.LASF299
 7864 1624 01        	.byte0x1
 7865 1625 0688      	.word0x688
 7866 1627 0000 005E 	.long0x5e
 7867 162b 02        	.uleb128 0x2
 7868 162c 91        	.byte0x91
 7869 162d 64        	.sleb128 -28
 7870 162e 2A        	.uleb128 0x2a
 7871 162f 0000 0000 	.long.LASF290
 7872 1633 01        	.byte0x1
 7873 1634 0689      	.word0x689
 7874 1636 0000 1697 	.long0x1697
 7875 163a 02        	.uleb128 0x2
 7876 163b 91        	.byte0x91
 7877 163c 04        	.sleb128 4
 7878 163d 2B        	.uleb128 0x2b
 7879 163e 0000 0000 	.long.LASF300
 7880 1642 01        	.byte0x1
 7881 1643 068B      	.word0x68b
 7882 1645 0000 003A 	.long0x3a
68K GAS   			page 191


 7883 1649 02        	.uleb128 0x2
 7884 164a 91        	.byte0x91
 7885 164b 74        	.sleb128 -12
 7886 164c 2B        	.uleb128 0x2b
 7887 164d 0000 0000 	.long.LASF245
 7888 1651 01        	.byte0x1
 7889 1652 068C      	.word0x68c
 7890 1654 0000 0070 	.long0x70
 7891 1658 02        	.uleb128 0x2
 7892 1659 91        	.byte0x91
 7893 165a 70        	.sleb128 -16
 7894 165b 2B        	.uleb128 0x2b
 7895 165c 0000 0000 	.long.LASF301
 7896 1660 01        	.byte0x1
 7897 1661 068D      	.word0x68d
 7898 1663 0000 0AEE 	.long0xaee
 7899 1667 02        	.uleb128 0x2
 7900 1668 91        	.byte0x91
 7901 1669 78        	.sleb128 -8
 7902 166a 2D        	.uleb128 0x2d
 7903 166b 7A63 6400 	.string"zcd"
 7904 166f 01        	.byte0x1
 7905 1670 068E      	.word0x68e
 7906 1672 0000 156F 	.long0x156f
 7907 1676 02        	.uleb128 0x2
 7908 1677 91        	.byte0x91
 7909 1678 6C        	.sleb128 -20
 7910 1679 2D        	.uleb128 0x2d
 7911 167a 6264 00   	.string"bd"
 7912 167d 01        	.byte0x1
 7913 167e 068F      	.word0x68f
 7914 1680 0000 117A 	.long0x117a
 7915 1684 02        	.uleb128 0x2
 7916 1685 91        	.byte0x91
 7917 1686 68        	.sleb128 -24
 7918 1687 2C        	.uleb128 0x2c
 7919 1688 0000 0000 	.long.LASF295
 7920 168c 0000 16AD 	.long0x16ad
 7921 1690 05        	.uleb128 0x5
 7922 1691 03        	.byte0x3
 7923 1692 0000 0000 	.long__func__.5756
 7924 1696 00        	.byte0
 7925 1697 0C        	.uleb128 0xc
 7926 1698 04        	.byte0x4
 7927 1699 0000 0AF4 	.long0xaf4
 7928 169d 05        	.uleb128 0x5
 7929 169e 0000 009B 	.long0x9b
 7930 16a2 0000 16AD 	.long0x16ad
 7931 16a6 06        	.uleb128 0x6
 7932 16a7 0000 007B 	.long0x7b
 7933 16ab 15        	.byte0x15
 7934 16ac 00        	.byte0
 7935 16ad 04        	.uleb128 0x4
 7936 16ae 0000 169D 	.long0x169d
 7937 16b2 29        	.uleb128 0x29
 7938 16b3 0000 0000 	.long.LASF302
 7939 16b7 01        	.byte0x1
68K GAS   			page 192


 7940 16b8 0639      	.word0x639
 7941 16ba 0000 0070 	.long0x70
 7942 16be 0000 0000 	.long.LFB75
 7943 16c2 0000 01BA 	.long.LFE75-.LFB75
 7944 16c6 01        	.uleb128 0x1
 7945 16c7 9C        	.byte0x9c
 7946 16c8 0000 1736 	.long0x1736
 7947 16cc 2E        	.uleb128 0x2e
 7948 16cd 5074 7200 	.string"Ptr"
 7949 16d1 01        	.byte0x1
 7950 16d2 0639      	.word0x639
 7951 16d4 0000 1736 	.long0x1736
 7952 16d8 02        	.uleb128 0x2
 7953 16d9 91        	.byte0x91
 7954 16da 00        	.sleb128 0
 7955 16db 2A        	.uleb128 0x2a
 7956 16dc 0000 0000 	.long.LASF191
 7957 16e0 01        	.byte0x1
 7958 16e1 0639      	.word0x639
 7959 16e3 0000 0AC7 	.long0xac7
 7960 16e7 02        	.uleb128 0x2
 7961 16e8 91        	.byte0x91
 7962 16e9 44        	.sleb128 -60
 7963 16ea 2B        	.uleb128 0x2b
 7964 16eb 0000 0000 	.long.LASF303
 7965 16ef 01        	.byte0x1
 7966 16f0 063C      	.word0x63c
 7967 16f2 0000 117A 	.long0x117a
 7968 16f6 02        	.uleb128 0x2
 7969 16f7 91        	.byte0x91
 7970 16f8 74        	.sleb128 -12
 7971 16f9 2B        	.uleb128 0x2b
 7972 16fa 0000 0000 	.long.LASF280
 7973 16fe 01        	.byte0x1
 7974 16ff 063D      	.word0x63d
 7975 1701 0000 0070 	.long0x70
 7976 1705 02        	.uleb128 0x2
 7977 1706 91        	.byte0x91
 7978 1707 78        	.sleb128 -8
 7979 1708 2B        	.uleb128 0x2b
 7980 1709 0000 0000 	.long.LASF245
 7981 170d 01        	.byte0x1
 7982 170e 063E      	.word0x63e
 7983 1710 0000 0070 	.long0x70
 7984 1714 02        	.uleb128 0x2
 7985 1715 91        	.byte0x91
 7986 1716 70        	.sleb128 -16
 7987 1717 2B        	.uleb128 0x2b
 7988 1718 0000 0000 	.long.LASF286
 7989 171c 01        	.byte0x1
 7990 171d 063F      	.word0x63f
 7991 171f 0000 1454 	.long0x1454
 7992 1723 02        	.uleb128 0x2
 7993 1724 91        	.byte0x91
 7994 1725 48        	.sleb128 -56
 7995 1726 2C        	.uleb128 0x2c
 7996 1727 0000 0000 	.long.LASF295
68K GAS   			page 193


 7997 172b 0000 1752 	.long0x1752
 7998 172f 05        	.uleb128 0x5
 7999 1730 03        	.byte0x3
 8000 1731 0000 0000 	.long__func__.5746
 8001 1735 00        	.byte0
 8002 1736 0C        	.uleb128 0xc
 8003 1737 04        	.byte0x4
 8004 1738 0000 173C 	.long0x173c
 8005 173c 0C        	.uleb128 0xc
 8006 173d 04        	.byte0x4
 8007 173e 0000 0B57 	.long0xb57
 8008 1742 05        	.uleb128 0x5
 8009 1743 0000 009B 	.long0x9b
 8010 1747 0000 1752 	.long0x1752
 8011 174b 06        	.uleb128 0x6
 8012 174c 0000 007B 	.long0x7b
 8013 1750 16        	.byte0x16
 8014 1751 00        	.byte0
 8015 1752 04        	.uleb128 0x4
 8016 1753 0000 1742 	.long0x1742
 8017 1757 29        	.uleb128 0x29
 8018 1758 0000 0000 	.long.LASF304
 8019 175c 01        	.byte0x1
 8020 175d 05A9      	.word0x5a9
 8021 175f 0000 003A 	.long0x3a
 8022 1763 0000 0000 	.long.LFB74
 8023 1767 0000 02A4 	.long.LFE74-.LFB74
 8024 176b 01        	.uleb128 0x1
 8025 176c 9C        	.byte0x9c
 8026 176d 0000 1809 	.long0x1809
 8027 1771 2A        	.uleb128 0x2a
 8028 1772 0000 0000 	.long.LASF305
 8029 1776 01        	.byte0x1
 8030 1777 05A9      	.word0x5a9
 8031 1779 0000 1809 	.long0x1809
 8032 177d 02        	.uleb128 0x2
 8033 177e 91        	.byte0x91
 8034 177f 00        	.sleb128 0
 8035 1780 2A        	.uleb128 0x2a
 8036 1781 0000 0000 	.long.LASF191
 8037 1785 01        	.byte0x1
 8038 1786 05AA      	.word0x5aa
 8039 1788 0000 0AC7 	.long0xac7
 8040 178c 03        	.uleb128 0x3
 8041 178d 91        	.byte0x91
 8042 178e BC7F      	.sleb128 -68
 8043 1790 2A        	.uleb128 0x2a
 8044 1791 0000 0000 	.long.LASF284
 8045 1795 01        	.byte0x1
 8046 1796 05AB      	.word0x5ab
 8047 1798 0000 003A 	.long0x3a
 8048 179c 02        	.uleb128 0x2
 8049 179d 91        	.byte0x91
 8050 179e 08        	.sleb128 8
 8051 179f 2B        	.uleb128 0x2b
 8052 17a0 0000 0000 	.long.LASF283
 8053 17a4 01        	.byte0x1
68K GAS   			page 194


 8054 17a5 05AD      	.word0x5ad
 8055 17a7 0000 003A 	.long0x3a
 8056 17ab 02        	.uleb128 0x2
 8057 17ac 91        	.byte0x91
 8058 17ad 6C        	.sleb128 -20
 8059 17ae 2B        	.uleb128 0x2b
 8060 17af 0000 0000 	.long.LASF282
 8061 17b3 01        	.byte0x1
 8062 17b4 05AE      	.word0x5ae
 8063 17b6 0000 117A 	.long0x117a
 8064 17ba 02        	.uleb128 0x2
 8065 17bb 91        	.byte0x91
 8066 17bc 68        	.sleb128 -24
 8067 17bd 2B        	.uleb128 0x2b
 8068 17be 0000 0000 	.long.LASF279
 8069 17c2 01        	.byte0x1
 8070 17c3 05AF      	.word0x5af
 8071 17c5 0000 1448 	.long0x1448
 8072 17c9 02        	.uleb128 0x2
 8073 17ca 91        	.byte0x91
 8074 17cb 70        	.sleb128 -16
 8075 17cc 2B        	.uleb128 0x2b
 8076 17cd 0000 0000 	.long.LASF306
 8077 17d1 01        	.byte0x1
 8078 17d2 05B0      	.word0x5b0
 8079 17d4 0000 10CD 	.long0x10cd
 8080 17d8 02        	.uleb128 0x2
 8081 17d9 91        	.byte0x91
 8082 17da 78        	.sleb128 -8
 8083 17db 2B        	.uleb128 0x2b
 8084 17dc 0000 0000 	.long.LASF280
 8085 17e0 01        	.byte0x1
 8086 17e1 05B1      	.word0x5b1
 8087 17e3 0000 0070 	.long0x70
 8088 17e7 02        	.uleb128 0x2
 8089 17e8 91        	.byte0x91
 8090 17e9 74        	.sleb128 -12
 8091 17ea 2B        	.uleb128 0x2b
 8092 17eb 0000 0000 	.long.LASF286
 8093 17ef 01        	.byte0x1
 8094 17f0 05B2      	.word0x5b2
 8095 17f2 0000 1454 	.long0x1454
 8096 17f6 02        	.uleb128 0x2
 8097 17f7 91        	.byte0x91
 8098 17f8 40        	.sleb128 -64
 8099 17f9 2C        	.uleb128 0x2c
 8100 17fa 0000 0000 	.long.LASF295
 8101 17fe 0000 181F 	.long0x181f
 8102 1802 05        	.uleb128 0x5
 8103 1803 03        	.byte0x3
 8104 1804 0000 0000 	.long__func__.5737
 8105 1808 00        	.byte0
 8106 1809 0C        	.uleb128 0xc
 8107 180a 04        	.byte0x4
 8108 180b 0000 0ADD 	.long0xadd
 8109 180f 05        	.uleb128 0x5
 8110 1810 0000 009B 	.long0x9b
68K GAS   			page 195


 8111 1814 0000 181F 	.long0x181f
 8112 1818 06        	.uleb128 0x6
 8113 1819 0000 007B 	.long0x7b
 8114 181d 0D        	.byte0xd
 8115 181e 00        	.byte0
 8116 181f 04        	.uleb128 0x4
 8117 1820 0000 180F 	.long0x180f
 8118 1824 29        	.uleb128 0x29
 8119 1825 0000 0000 	.long.LASF307
 8120 1829 01        	.byte0x1
 8121 182a 0462      	.word0x462
 8122 182c 0000 003A 	.long0x3a
 8123 1830 0000 0000 	.long.LFB73
 8124 1834 0000 0B1A 	.long.LFE73-.LFB73
 8125 1838 01        	.uleb128 0x1
 8126 1839 9C        	.byte0x9c
 8127 183a 0000 1948 	.long0x1948
 8128 183e 2A        	.uleb128 0x2a
 8129 183f 0000 0000 	.long.LASF289
 8130 1843 01        	.byte0x1
 8131 1844 0462      	.word0x462
 8132 1846 0000 0AE8 	.long0xae8
 8133 184a 02        	.uleb128 0x2
 8134 184b 91        	.byte0x91
 8135 184c 00        	.sleb128 0
 8136 184d 2A        	.uleb128 0x2a
 8137 184e 0000 0000 	.long.LASF308
 8138 1852 01        	.byte0x1
 8139 1853 0463      	.word0x463
 8140 1855 0000 0070 	.long0x70
 8141 1859 02        	.uleb128 0x2
 8142 185a 91        	.byte0x91
 8143 185b 04        	.sleb128 4
 8144 185c 2A        	.uleb128 0x2a
 8145 185d 0000 0000 	.long.LASF309
 8146 1861 01        	.byte0x1
 8147 1862 0464      	.word0x464
 8148 1864 0000 0070 	.long0x70
 8149 1868 02        	.uleb128 0x2
 8150 1869 91        	.byte0x91
 8151 186a 08        	.sleb128 8
 8152 186b 2B        	.uleb128 0x2b
 8153 186c 0000 0000 	.long.LASF214
 8154 1870 01        	.byte0x1
 8155 1871 0466      	.word0x466
 8156 1873 0000 0AD2 	.long0xad2
 8157 1877 02        	.uleb128 0x2
 8158 1878 91        	.byte0x91
 8159 1879 6E        	.sleb128 -18
 8160 187a 2B        	.uleb128 0x2b
 8161 187b 0000 0000 	.long.LASF283
 8162 187f 01        	.byte0x1
 8163 1880 0467      	.word0x467
 8164 1882 0000 003A 	.long0x3a
 8165 1886 02        	.uleb128 0x2
 8166 1887 91        	.byte0x91
 8167 1888 5C        	.sleb128 -36
68K GAS   			page 196


 8168 1889 2B        	.uleb128 0x2b
 8169 188a 0000 0000 	.long.LASF306
 8170 188e 01        	.byte0x1
 8171 188f 0468      	.word0x468
 8172 1891 0000 10CD 	.long0x10cd
 8173 1895 02        	.uleb128 0x2
 8174 1896 91        	.byte0x91
 8175 1897 78        	.sleb128 -8
 8176 1898 2B        	.uleb128 0x2b
 8177 1899 0000 0000 	.long.LASF279
 8178 189d 01        	.byte0x1
 8179 189e 0469      	.word0x469
 8180 18a0 0000 1448 	.long0x1448
 8181 18a4 02        	.uleb128 0x2
 8182 18a5 91        	.byte0x91
 8183 18a6 60        	.sleb128 -32
 8184 18a7 2B        	.uleb128 0x2b
 8185 18a8 0000 0000 	.long.LASF310
 8186 18ac 01        	.byte0x1
 8187 18ad 046A      	.word0x46a
 8188 18af 0000 1948 	.long0x1948
 8189 18b3 02        	.uleb128 0x2
 8190 18b4 91        	.byte0x91
 8191 18b5 64        	.sleb128 -28
 8192 18b6 2B        	.uleb128 0x2b
 8193 18b7 0000 0000 	.long.LASF311
 8194 18bb 01        	.byte0x1
 8195 18bc 046B      	.word0x46b
 8196 18be 0000 117A 	.long0x117a
 8197 18c2 02        	.uleb128 0x2
 8198 18c3 91        	.byte0x91
 8199 18c4 54        	.sleb128 -44
 8200 18c5 2B        	.uleb128 0x2b
 8201 18c6 0000 0000 	.long.LASF312
 8202 18ca 01        	.byte0x1
 8203 18cb 046C      	.word0x46c
 8204 18cd 0000 005E 	.long0x5e
 8205 18d1 02        	.uleb128 0x2
 8206 18d2 91        	.byte0x91
 8207 18d3 6C        	.sleb128 -20
 8208 18d4 2B        	.uleb128 0x2b
 8209 18d5 0000 0000 	.long.LASF313
 8210 18d9 01        	.byte0x1
 8211 18da 046D      	.word0x46d
 8212 18dc 0000 005E 	.long0x5e
 8213 18e0 02        	.uleb128 0x2
 8214 18e1 91        	.byte0x91
 8215 18e2 6A        	.sleb128 -22
 8216 18e3 2B        	.uleb128 0x2b
 8217 18e4 0000 0000 	.long.LASF280
 8218 18e8 01        	.byte0x1
 8219 18e9 046E      	.word0x46e
 8220 18eb 0000 0070 	.long0x70
 8221 18ef 02        	.uleb128 0x2
 8222 18f0 91        	.byte0x91
 8223 18f1 70        	.sleb128 -16
 8224 18f2 2D        	.uleb128 0x2d
68K GAS   			page 197


 8225 18f3 6900      	.string"i"
 8226 18f5 01        	.byte0x1
 8227 18f6 046F      	.word0x46f
 8228 18f8 0000 005E 	.long0x5e
 8229 18fc 02        	.uleb128 0x2
 8230 18fd 91        	.byte0x91
 8231 18fe 76        	.sleb128 -10
 8232 18ff 2B        	.uleb128 0x2b
 8233 1900 0000 0000 	.long.LASF286
 8234 1904 01        	.byte0x1
 8235 1905 0470      	.word0x470
 8236 1907 0000 1454 	.long0x1454
 8237 190b 03        	.uleb128 0x3
 8238 190c 91        	.byte0x91
 8239 190d AC7F      	.sleb128 -84
 8240 190f 2B        	.uleb128 0x2b
 8241 1910 0000 0000 	.long.LASF314
 8242 1914 01        	.byte0x1
 8243 1915 0471      	.word0x471
 8244 1917 0000 138E 	.long0x138e
 8245 191b 03        	.uleb128 0x3
 8246 191c 91        	.byte0x91
 8247 191d E87D      	.sleb128 -280
 8248 191f 2C        	.uleb128 0x2c
 8249 1920 0000 0000 	.long.LASF295
 8250 1924 0000 195E 	.long0x195e
 8251 1928 05        	.uleb128 0x5
 8252 1929 03        	.byte0x3
 8253 192a 0000 0000 	.long__func__.5718
 8254 192e 2F        	.uleb128 0x2f
 8255 192f 0000 0000 	.long.LBB2
 8256 1933 0000 0076 	.long.LBE2-.LBB2
 8257 1937 2B        	.uleb128 0x2b
 8258 1938 0000 0000 	.long.LASF315
 8259 193c 01        	.byte0x1
 8260 193d 0521      	.word0x521
 8261 193f 0000 1963 	.long0x1963
 8262 1943 02        	.uleb128 0x2
 8263 1944 91        	.byte0x91
 8264 1945 58        	.sleb128 -40
 8265 1946 00        	.byte0
 8266 1947 00        	.byte0
 8267 1948 0C        	.uleb128 0xc
 8268 1949 04        	.byte0x4
 8269 194a 0000 10D3 	.long0x10d3
 8270 194e 05        	.uleb128 0x5
 8271 194f 0000 009B 	.long0x9b
 8272 1953 0000 195E 	.long0x195e
 8273 1957 06        	.uleb128 0x6
 8274 1958 0000 007B 	.long0x7b
 8275 195c 12        	.byte0x12
 8276 195d 00        	.byte0
 8277 195e 04        	.uleb128 0x4
 8278 195f 0000 194E 	.long0x194e
 8279 1963 0C        	.uleb128 0xc
 8280 1964 04        	.byte0x4
 8281 1965 0000 0CEF 	.long0xcef
68K GAS   			page 198


 8282 1969 29        	.uleb128 0x29
 8283 196a 0000 0000 	.long.LASF316
 8284 196e 01        	.byte0x1
 8285 196f 043D      	.word0x43d
 8286 1971 0000 003A 	.long0x3a
 8287 1975 0000 0000 	.long.LFB72
 8288 1979 0000 0020 	.long.LFE72-.LFB72
 8289 197d 01        	.uleb128 0x1
 8290 197e 9C        	.byte0x9c
 8291 197f 0000 19A2 	.long0x19a2
 8292 1983 2A        	.uleb128 0x2a
 8293 1984 0000 0000 	.long.LASF289
 8294 1988 01        	.byte0x1
 8295 1989 043D      	.word0x43d
 8296 198b 0000 0AE8 	.long0xae8
 8297 198f 02        	.uleb128 0x2
 8298 1990 91        	.byte0x91
 8299 1991 00        	.sleb128 0
 8300 1992 2B        	.uleb128 0x2b
 8301 1993 0000 0000 	.long.LASF283
 8302 1997 01        	.byte0x1
 8303 1998 043F      	.word0x43f
 8304 199a 0000 003A 	.long0x3a
 8305 199e 02        	.uleb128 0x2
 8306 199f 91        	.byte0x91
 8307 19a0 78        	.sleb128 -8
 8308 19a1 00        	.byte0
 8309 19a2 29        	.uleb128 0x29
 8310 19a3 0000 0000 	.long.LASF317
 8311 19a7 01        	.byte0x1
 8312 19a8 041A      	.word0x41a
 8313 19aa 0000 003A 	.long0x3a
 8314 19ae 0000 0000 	.long.LFB71
 8315 19b2 0000 0022 	.long.LFE71-.LFB71
 8316 19b6 01        	.uleb128 0x1
 8317 19b7 9C        	.byte0x9c
 8318 19b8 0000 19DB 	.long0x19db
 8319 19bc 2A        	.uleb128 0x2a
 8320 19bd 0000 0000 	.long.LASF289
 8321 19c1 01        	.byte0x1
 8322 19c2 041A      	.word0x41a
 8323 19c4 0000 0AE8 	.long0xae8
 8324 19c8 02        	.uleb128 0x2
 8325 19c9 91        	.byte0x91
 8326 19ca 00        	.sleb128 0
 8327 19cb 2B        	.uleb128 0x2b
 8328 19cc 0000 0000 	.long.LASF283
 8329 19d0 01        	.byte0x1
 8330 19d1 041C      	.word0x41c
 8331 19d3 0000 003A 	.long0x3a
 8332 19d7 02        	.uleb128 0x2
 8333 19d8 91        	.byte0x91
 8334 19d9 78        	.sleb128 -8
 8335 19da 00        	.byte0
 8336 19db 29        	.uleb128 0x29
 8337 19dc 0000 0000 	.long.LASF318
 8338 19e0 01        	.byte0x1
68K GAS   			page 199


 8339 19e1 0387      	.word0x387
 8340 19e3 0000 003A 	.long0x3a
 8341 19e7 0000 0000 	.long.LFB70
 8342 19eb 0000 04A4 	.long.LFE70-.LFB70
 8343 19ef 01        	.uleb128 0x1
 8344 19f0 9C        	.byte0x9c
 8345 19f1 0000 1AAE 	.long0x1aae
 8346 19f5 2A        	.uleb128 0x2a
 8347 19f6 0000 0000 	.long.LASF214
 8348 19fa 01        	.byte0x1
 8349 19fb 0387      	.word0x387
 8350 19fd 0000 0AD2 	.long0xad2
 8351 1a01 03        	.uleb128 0x3
 8352 1a02 91        	.byte0x91
 8353 1a03 B87F      	.sleb128 -72
 8354 1a05 2A        	.uleb128 0x2a
 8355 1a06 0000 0000 	.long.LASF191
 8356 1a0a 01        	.byte0x1
 8357 1a0b 0387      	.word0x387
 8358 1a0d 0000 0AC7 	.long0xac7
 8359 1a11 03        	.uleb128 0x3
 8360 1a12 91        	.byte0x91
 8361 1a13 B47F      	.sleb128 -76
 8362 1a15 2A        	.uleb128 0x2a
 8363 1a16 0000 0000 	.long.LASF234
 8364 1a1a 01        	.byte0x1
 8365 1a1b 0388      	.word0x388
 8366 1a1d 0000 0053 	.long0x53
 8367 1a21 03        	.uleb128 0x3
 8368 1a22 91        	.byte0x91
 8369 1a23 B07F      	.sleb128 -80
 8370 1a25 2A        	.uleb128 0x2a
 8371 1a26 0000 0000 	.long.LASF245
 8372 1a2a 01        	.byte0x1
 8373 1a2b 0388      	.word0x388
 8374 1a2d 0000 0070 	.long0x70
 8375 1a31 02        	.uleb128 0x2
 8376 1a32 91        	.byte0x91
 8377 1a33 0C        	.sleb128 12
 8378 1a34 2D        	.uleb128 0x2d
 8379 1a35 4964 7800 	.string"Idx"
 8380 1a39 01        	.byte0x1
 8381 1a3a 038A      	.word0x38a
 8382 1a3c 0000 005E 	.long0x5e
 8383 1a40 02        	.uleb128 0x2
 8384 1a41 91        	.byte0x91
 8385 1a42 6A        	.sleb128 -22
 8386 1a43 2B        	.uleb128 0x2b
 8387 1a44 0000 0000 	.long.LASF319
 8388 1a48 01        	.byte0x1
 8389 1a49 038B      	.word0x38b
 8390 1a4b 0000 0070 	.long0x70
 8391 1a4f 02        	.uleb128 0x2
 8392 1a50 91        	.byte0x91
 8393 1a51 6C        	.sleb128 -20
 8394 1a52 2B        	.uleb128 0x2b
 8395 1a53 0000 0000 	.long.LASF280
68K GAS   			page 200


 8396 1a57 01        	.byte0x1
 8397 1a58 038C      	.word0x38c
 8398 1a5a 0000 0070 	.long0x70
 8399 1a5e 02        	.uleb128 0x2
 8400 1a5f 91        	.byte0x91
 8401 1a60 70        	.sleb128 -16
 8402 1a61 2B        	.uleb128 0x2b
 8403 1a62 0000 0000 	.long.LASF320
 8404 1a66 01        	.byte0x1
 8405 1a67 038D      	.word0x38d
 8406 1a69 0000 0070 	.long0x70
 8407 1a6d 02        	.uleb128 0x2
 8408 1a6e 91        	.byte0x91
 8409 1a6f 78        	.sleb128 -8
 8410 1a70 2B        	.uleb128 0x2b
 8411 1a71 0000 0000 	.long.LASF294
 8412 1a75 01        	.byte0x1
 8413 1a76 038E      	.word0x38e
 8414 1a78 0000 003A 	.long0x3a
 8415 1a7c 02        	.uleb128 0x2
 8416 1a7d 91        	.byte0x91
 8417 1a7e 64        	.sleb128 -28
 8418 1a7f 2B        	.uleb128 0x2b
 8419 1a80 0000 0000 	.long.LASF306
 8420 1a84 01        	.byte0x1
 8421 1a85 038F      	.word0x38f
 8422 1a87 0000 10CD 	.long0x10cd
 8423 1a8b 02        	.uleb128 0x2
 8424 1a8c 91        	.byte0x91
 8425 1a8d 74        	.sleb128 -12
 8426 1a8e 2B        	.uleb128 0x2b
 8427 1a8f 0000 0000 	.long.LASF286
 8428 1a93 01        	.byte0x1
 8429 1a94 0390      	.word0x390
 8430 1a96 0000 1454 	.long0x1454
 8431 1a9a 03        	.uleb128 0x3
 8432 1a9b 91        	.byte0x91
 8433 1a9c BC7F      	.sleb128 -68
 8434 1a9e 2C        	.uleb128 0x2c
 8435 1a9f 0000 0000 	.long.LASF295
 8436 1aa3 0000 1752 	.long0x1752
 8437 1aa7 05        	.uleb128 0x5
 8438 1aa8 03        	.byte0x3
 8439 1aa9 0000 0000 	.long__func__.5690
 8440 1aad 00        	.byte0
 8441 1aae 29        	.uleb128 0x29
 8442 1aaf 0000 0000 	.long.LASF321
 8443 1ab3 01        	.byte0x1
 8444 1ab4 035E      	.word0x35e
 8445 1ab6 0000 003A 	.long0x3a
 8446 1aba 0000 0000 	.long.LFB69
 8447 1abe 0000 0048 	.long.LFE69-.LFB69
 8448 1ac2 01        	.uleb128 0x1
 8449 1ac3 9C        	.byte0x9c
 8450 1ac4 0000 1B05 	.long0x1b05
 8451 1ac8 2A        	.uleb128 0x2a
 8452 1ac9 0000 0000 	.long.LASF214
68K GAS   			page 201


 8453 1acd 01        	.byte0x1
 8454 1ace 035E      	.word0x35e
 8455 1ad0 0000 0AD2 	.long0xad2
 8456 1ad4 02        	.uleb128 0x2
 8457 1ad5 91        	.byte0x91
 8458 1ad6 74        	.sleb128 -12
 8459 1ad7 2A        	.uleb128 0x2a
 8460 1ad8 0000 0000 	.long.LASF191
 8461 1adc 01        	.byte0x1
 8462 1add 035F      	.word0x35f
 8463 1adf 0000 0AC7 	.long0xac7
 8464 1ae3 02        	.uleb128 0x2
 8465 1ae4 91        	.byte0x91
 8466 1ae5 70        	.sleb128 -16
 8467 1ae6 2A        	.uleb128 0x2a
 8468 1ae7 0000 0000 	.long.LASF245
 8469 1aeb 01        	.byte0x1
 8470 1aec 0360      	.word0x360
 8471 1aee 0000 0070 	.long0x70
 8472 1af2 02        	.uleb128 0x2
 8473 1af3 91        	.byte0x91
 8474 1af4 08        	.sleb128 8
 8475 1af5 2B        	.uleb128 0x2b
 8476 1af6 0000 0000 	.long.LASF283
 8477 1afa 01        	.byte0x1
 8478 1afb 0362      	.word0x362
 8479 1afd 0000 003A 	.long0x3a
 8480 1b01 02        	.uleb128 0x2
 8481 1b02 91        	.byte0x91
 8482 1b03 78        	.sleb128 -8
 8483 1b04 00        	.byte0
 8484 1b05 29        	.uleb128 0x29
 8485 1b06 0000 0000 	.long.LASF322
 8486 1b0a 01        	.byte0x1
 8487 1b0b 0339      	.word0x339
 8488 1b0d 0000 003A 	.long0x3a
 8489 1b11 0000 0000 	.long.LFB68
 8490 1b15 0000 005E 	.long.LFE68-.LFB68
 8491 1b19 01        	.uleb128 0x1
 8492 1b1a 9C        	.byte0x9c
 8493 1b1b 0000 1B5C 	.long0x1b5c
 8494 1b1f 2A        	.uleb128 0x2a
 8495 1b20 0000 0000 	.long.LASF214
 8496 1b24 01        	.byte0x1
 8497 1b25 0339      	.word0x339
 8498 1b27 0000 0AD2 	.long0xad2
 8499 1b2b 02        	.uleb128 0x2
 8500 1b2c 91        	.byte0x91
 8501 1b2d 70        	.sleb128 -16
 8502 1b2e 2A        	.uleb128 0x2a
 8503 1b2f 0000 0000 	.long.LASF191
 8504 1b33 01        	.byte0x1
 8505 1b34 0339      	.word0x339
 8506 1b36 0000 0AC7 	.long0xac7
 8507 1b3a 02        	.uleb128 0x2
 8508 1b3b 91        	.byte0x91
 8509 1b3c 6C        	.sleb128 -20
68K GAS   			page 202


 8510 1b3d 2B        	.uleb128 0x2b
 8511 1b3e 0000 0000 	.long.LASF323
 8512 1b42 01        	.byte0x1
 8513 1b43 033B      	.word0x33b
 8514 1b45 0000 0070 	.long0x70
 8515 1b49 02        	.uleb128 0x2
 8516 1b4a 91        	.byte0x91
 8517 1b4b 74        	.sleb128 -12
 8518 1b4c 2B        	.uleb128 0x2b
 8519 1b4d 0000 0000 	.long.LASF283
 8520 1b51 01        	.byte0x1
 8521 1b52 033C      	.word0x33c
 8522 1b54 0000 003A 	.long0x3a
 8523 1b58 02        	.uleb128 0x2
 8524 1b59 91        	.byte0x91
 8525 1b5a 78        	.sleb128 -8
 8526 1b5b 00        	.byte0
 8527 1b5c 29        	.uleb128 0x29
 8528 1b5d 0000 0000 	.long.LASF324
 8529 1b61 01        	.byte0x1
 8530 1b62 0316      	.word0x316
 8531 1b64 0000 003A 	.long0x3a
 8532 1b68 0000 0000 	.long.LFB67
 8533 1b6c 0000 005C 	.long.LFE67-.LFB67
 8534 1b70 01        	.uleb128 0x1
 8535 1b71 9C        	.byte0x9c
 8536 1b72 0000 1BB3 	.long0x1bb3
 8537 1b76 2A        	.uleb128 0x2a
 8538 1b77 0000 0000 	.long.LASF214
 8539 1b7b 01        	.byte0x1
 8540 1b7c 0316      	.word0x316
 8541 1b7e 0000 0AD2 	.long0xad2
 8542 1b82 02        	.uleb128 0x2
 8543 1b83 91        	.byte0x91
 8544 1b84 70        	.sleb128 -16
 8545 1b85 2A        	.uleb128 0x2a
 8546 1b86 0000 0000 	.long.LASF191
 8547 1b8a 01        	.byte0x1
 8548 1b8b 0316      	.word0x316
 8549 1b8d 0000 0AC7 	.long0xac7
 8550 1b91 02        	.uleb128 0x2
 8551 1b92 91        	.byte0x91
 8552 1b93 6C        	.sleb128 -20
 8553 1b94 2B        	.uleb128 0x2b
 8554 1b95 0000 0000 	.long.LASF323
 8555 1b99 01        	.byte0x1
 8556 1b9a 0318      	.word0x318
 8557 1b9c 0000 0070 	.long0x70
 8558 1ba0 02        	.uleb128 0x2
 8559 1ba1 91        	.byte0x91
 8560 1ba2 74        	.sleb128 -12
 8561 1ba3 2B        	.uleb128 0x2b
 8562 1ba4 0000 0000 	.long.LASF283
 8563 1ba8 01        	.byte0x1
 8564 1ba9 0319      	.word0x319
 8565 1bab 0000 003A 	.long0x3a
 8566 1baf 02        	.uleb128 0x2
68K GAS   			page 203


 8567 1bb0 91        	.byte0x91
 8568 1bb1 78        	.sleb128 -8
 8569 1bb2 00        	.byte0
 8570 1bb3 29        	.uleb128 0x29
 8571 1bb4 0000 0000 	.long.LASF325
 8572 1bb8 01        	.byte0x1
 8573 1bb9 025E      	.word0x25e
 8574 1bbb 0000 003A 	.long0x3a
 8575 1bbf 0000 0000 	.long.LFB66
 8576 1bc3 0000 06AE 	.long.LFE66-.LFB66
 8577 1bc7 01        	.uleb128 0x1
 8578 1bc8 9C        	.byte0x9c
 8579 1bc9 0000 1C96 	.long0x1c96
 8580 1bcd 2A        	.uleb128 0x2a
 8581 1bce 0000 0000 	.long.LASF214
 8582 1bd2 01        	.byte0x1
 8583 1bd3 025E      	.word0x25e
 8584 1bd5 0000 0AD2 	.long0xad2
 8585 1bd9 03        	.uleb128 0x3
 8586 1bda 91        	.byte0x91
 8587 1bdb B87F      	.sleb128 -72
 8588 1bdd 2A        	.uleb128 0x2a
 8589 1bde 0000 0000 	.long.LASF191
 8590 1be2 01        	.byte0x1
 8591 1be3 025F      	.word0x25f
 8592 1be5 0000 0AC7 	.long0xac7
 8593 1be9 03        	.uleb128 0x3
 8594 1bea 91        	.byte0x91
 8595 1beb B47F      	.sleb128 -76
 8596 1bed 2A        	.uleb128 0x2a
 8597 1bee 0000 0000 	.long.LASF326
 8598 1bf2 01        	.byte0x1
 8599 1bf3 0260      	.word0x260
 8600 1bf5 0000 0B20 	.long0xb20
 8601 1bf9 02        	.uleb128 0x2
 8602 1bfa 91        	.byte0x91
 8603 1bfb 0A        	.sleb128 10
 8604 1bfc 2A        	.uleb128 0x2a
 8605 1bfd 0000 0000 	.long.LASF327
 8606 1c01 01        	.byte0x1
 8607 1c02 0261      	.word0x261
 8608 1c04 0000 005E 	.long0x5e
 8609 1c08 03        	.uleb128 0x3
 8610 1c09 91        	.byte0x91
 8611 1c0a B07F      	.sleb128 -80
 8612 1c0c 2A        	.uleb128 0x2a
 8613 1c0d 0000 0000 	.long.LASF234
 8614 1c11 01        	.byte0x1
 8615 1c12 0262      	.word0x262
 8616 1c14 0000 0053 	.long0x53
 8617 1c18 03        	.uleb128 0x3
 8618 1c19 91        	.byte0x91
 8619 1c1a AC7F      	.sleb128 -84
 8620 1c1c 2D        	.uleb128 0x2d
 8621 1c1d 4964 7800 	.string"Idx"
 8622 1c21 01        	.byte0x1
 8623 1c22 0264      	.word0x264
68K GAS   			page 204


 8624 1c24 0000 005E 	.long0x5e
 8625 1c28 02        	.uleb128 0x2
 8626 1c29 91        	.byte0x91
 8627 1c2a 7A        	.sleb128 -6
 8628 1c2b 2B        	.uleb128 0x2b
 8629 1c2c 0000 0000 	.long.LASF294
 8630 1c30 01        	.byte0x1
 8631 1c31 0265      	.word0x265
 8632 1c33 0000 003A 	.long0x3a
 8633 1c37 02        	.uleb128 0x2
 8634 1c38 91        	.byte0x91
 8635 1c39 68        	.sleb128 -24
 8636 1c3a 2B        	.uleb128 0x2b
 8637 1c3b 0000 0000 	.long.LASF280
 8638 1c3f 01        	.byte0x1
 8639 1c40 0266      	.word0x266
 8640 1c42 0000 0070 	.long0x70
 8641 1c46 02        	.uleb128 0x2
 8642 1c47 91        	.byte0x91
 8643 1c48 74        	.sleb128 -12
 8644 1c49 2B        	.uleb128 0x2b
 8645 1c4a 0000 0000 	.long.LASF245
 8646 1c4e 01        	.byte0x1
 8647 1c4f 0267      	.word0x267
 8648 1c51 0000 0070 	.long0x70
 8649 1c55 02        	.uleb128 0x2
 8650 1c56 91        	.byte0x91
 8651 1c57 64        	.sleb128 -28
 8652 1c58 2B        	.uleb128 0x2b
 8653 1c59 0000 0000 	.long.LASF319
 8654 1c5d 01        	.byte0x1
 8655 1c5e 0268      	.word0x268
 8656 1c60 0000 0053 	.long0x53
 8657 1c64 02        	.uleb128 0x2
 8658 1c65 91        	.byte0x91
 8659 1c66 6F        	.sleb128 -17
 8660 1c67 2B        	.uleb128 0x2b
 8661 1c68 0000 0000 	.long.LASF328
 8662 1c6c 01        	.byte0x1
 8663 1c6d 0269      	.word0x269
 8664 1c6f 0000 10CD 	.long0x10cd
 8665 1c73 02        	.uleb128 0x2
 8666 1c74 91        	.byte0x91
 8667 1c75 70        	.sleb128 -16
 8668 1c76 2B        	.uleb128 0x2b
 8669 1c77 0000 0000 	.long.LASF286
 8670 1c7b 01        	.byte0x1
 8671 1c7c 026A      	.word0x26a
 8672 1c7e 0000 1454 	.long0x1454
 8673 1c82 03        	.uleb128 0x3
 8674 1c83 91        	.byte0x91
 8675 1c84 BC7F      	.sleb128 -68
 8676 1c86 2C        	.uleb128 0x2c
 8677 1c87 0000 0000 	.long.LASF295
 8678 1c8b 0000 1CA6 	.long0x1ca6
 8679 1c8f 05        	.uleb128 0x5
 8680 1c90 03        	.byte0x3
68K GAS   			page 205


 8681 1c91 0000 0000 	.long__func__.5658
 8682 1c95 00        	.byte0
 8683 1c96 05        	.uleb128 0x5
 8684 1c97 0000 009B 	.long0x9b
 8685 1c9b 0000 1CA6 	.long0x1ca6
 8686 1c9f 06        	.uleb128 0x6
 8687 1ca0 0000 007B 	.long0x7b
 8688 1ca4 14        	.byte0x14
 8689 1ca5 00        	.byte0
 8690 1ca6 04        	.uleb128 0x4
 8691 1ca7 0000 1C96 	.long0x1c96
 8692 1cab 29        	.uleb128 0x29
 8693 1cac 0000 0000 	.long.LASF329
 8694 1cb0 01        	.byte0x1
 8695 1cb1 0237      	.word0x237
 8696 1cb3 0000 003A 	.long0x3a
 8697 1cb7 0000 0000 	.long.LFB65
 8698 1cbb 0000 003E 	.long.LFE65-.LFB65
 8699 1cbf 01        	.uleb128 0x1
 8700 1cc0 9C        	.byte0x9c
 8701 1cc1 0000 1CE4 	.long0x1ce4
 8702 1cc5 2A        	.uleb128 0x2a
 8703 1cc6 0000 0000 	.long.LASF214
 8704 1cca 01        	.byte0x1
 8705 1ccb 0237      	.word0x237
 8706 1ccd 0000 0AD2 	.long0xad2
 8707 1cd1 02        	.uleb128 0x2
 8708 1cd2 91        	.byte0x91
 8709 1cd3 78        	.sleb128 -8
 8710 1cd4 2A        	.uleb128 0x2a
 8711 1cd5 0000 0000 	.long.LASF191
 8712 1cd9 01        	.byte0x1
 8713 1cda 0238      	.word0x238
 8714 1cdc 0000 0AC7 	.long0xac7
 8715 1ce0 02        	.uleb128 0x2
 8716 1ce1 91        	.byte0x91
 8717 1ce2 74        	.sleb128 -12
 8718 1ce3 00        	.byte0
 8719 1ce4 29        	.uleb128 0x29
 8720 1ce5 0000 0000 	.long.LASF330
 8721 1ce9 01        	.byte0x1
 8722 1cea 0211      	.word0x211
 8723 1cec 0000 003A 	.long0x3a
 8724 1cf0 0000 0000 	.long.LFB64
 8725 1cf4 0000 005A 	.long.LFE64-.LFB64
 8726 1cf8 01        	.uleb128 0x1
 8727 1cf9 9C        	.byte0x9c
 8728 1cfa 0000 1D2C 	.long0x1d2c
 8729 1cfe 2A        	.uleb128 0x2a
 8730 1cff 0000 0000 	.long.LASF214
 8731 1d03 01        	.byte0x1
 8732 1d04 0211      	.word0x211
 8733 1d06 0000 0AD2 	.long0xad2
 8734 1d0a 02        	.uleb128 0x2
 8735 1d0b 91        	.byte0x91
 8736 1d0c 78        	.sleb128 -8
 8737 1d0d 2A        	.uleb128 0x2a
68K GAS   			page 206


 8738 1d0e 0000 0000 	.long.LASF191
 8739 1d12 01        	.byte0x1
 8740 1d13 0212      	.word0x212
 8741 1d15 0000 0AC7 	.long0xac7
 8742 1d19 02        	.uleb128 0x2
 8743 1d1a 91        	.byte0x91
 8744 1d1b 74        	.sleb128 -12
 8745 1d1c 2A        	.uleb128 0x2a
 8746 1d1d 0000 0000 	.long.LASF327
 8747 1d21 01        	.byte0x1
 8748 1d22 0213      	.word0x213
 8749 1d24 0000 005E 	.long0x5e
 8750 1d28 02        	.uleb128 0x2
 8751 1d29 91        	.byte0x91
 8752 1d2a 70        	.sleb128 -16
 8753 1d2b 00        	.byte0
 8754 1d2c 29        	.uleb128 0x29
 8755 1d2d 0000 0000 	.long.LASF331
 8756 1d31 01        	.byte0x1
 8757 1d32 01E9      	.word0x1e9
 8758 1d34 0000 003A 	.long0x3a
 8759 1d38 0000 0000 	.long.LFB63
 8760 1d3c 0000 0056 	.long.LFE63-.LFB63
 8761 1d40 01        	.uleb128 0x1
 8762 1d41 9C        	.byte0x9c
 8763 1d42 0000 1D83 	.long0x1d83
 8764 1d46 2A        	.uleb128 0x2a
 8765 1d47 0000 0000 	.long.LASF214
 8766 1d4b 01        	.byte0x1
 8767 1d4c 01E9      	.word0x1e9
 8768 1d4e 0000 0AD2 	.long0xad2
 8769 1d52 02        	.uleb128 0x2
 8770 1d53 91        	.byte0x91
 8771 1d54 78        	.sleb128 -8
 8772 1d55 2A        	.uleb128 0x2a
 8773 1d56 0000 0000 	.long.LASF191
 8774 1d5a 01        	.byte0x1
 8775 1d5b 01EA      	.word0x1ea
 8776 1d5d 0000 0AC7 	.long0xac7
 8777 1d61 02        	.uleb128 0x2
 8778 1d62 91        	.byte0x91
 8779 1d63 74        	.sleb128 -12
 8780 1d64 2A        	.uleb128 0x2a
 8781 1d65 0000 0000 	.long.LASF326
 8782 1d69 01        	.byte0x1
 8783 1d6a 01EB      	.word0x1eb
 8784 1d6c 0000 0B20 	.long0xb20
 8785 1d70 02        	.uleb128 0x2
 8786 1d71 91        	.byte0x91
 8787 1d72 0A        	.sleb128 10
 8788 1d73 2A        	.uleb128 0x2a
 8789 1d74 0000 0000 	.long.LASF327
 8790 1d78 01        	.byte0x1
 8791 1d79 01EC      	.word0x1ec
 8792 1d7b 0000 005E 	.long0x5e
 8793 1d7f 02        	.uleb128 0x2
 8794 1d80 91        	.byte0x91
68K GAS   			page 207


 8795 1d81 70        	.sleb128 -16
 8796 1d82 00        	.byte0
 8797 1d83 29        	.uleb128 0x29
 8798 1d84 0000 0000 	.long.LASF332
 8799 1d88 01        	.byte0x1
 8800 1d89 0159      	.word0x159
 8801 1d8b 0000 003A 	.long0x3a
 8802 1d8f 0000 0000 	.long.LFB62
 8803 1d93 0000 0472 	.long.LFE62-.LFB62
 8804 1d97 01        	.uleb128 0x1
 8805 1d98 9C        	.byte0x9c
 8806 1d99 0000 1E52 	.long0x1e52
 8807 1d9d 2A        	.uleb128 0x2a
 8808 1d9e 0000 0000 	.long.LASF191
 8809 1da2 01        	.byte0x1
 8810 1da3 0159      	.word0x159
 8811 1da5 0000 0AC7 	.long0xac7
 8812 1da9 03        	.uleb128 0x3
 8813 1daa 91        	.byte0x91
 8814 1dab B07F      	.sleb128 -80
 8815 1dad 2A        	.uleb128 0x2a
 8816 1dae 0000 0000 	.long.LASF245
 8817 1db2 01        	.byte0x1
 8818 1db3 0159      	.word0x159
 8819 1db5 0000 0070 	.long0x70
 8820 1db9 02        	.uleb128 0x2
 8821 1dba 91        	.byte0x91
 8822 1dbb 04        	.sleb128 4
 8823 1dbc 2B        	.uleb128 0x2b
 8824 1dbd 0000 0000 	.long.LASF333
 8825 1dc1 01        	.byte0x1
 8826 1dc2 015B      	.word0x15b
 8827 1dc4 0000 0053 	.long0x53
 8828 1dc8 02        	.uleb128 0x2
 8829 1dc9 91        	.byte0x91
 8830 1dca 6F        	.sleb128 -17
 8831 1dcb 2B        	.uleb128 0x2b
 8832 1dcc 0000 0000 	.long.LASF334
 8833 1dd0 01        	.byte0x1
 8834 1dd1 015C      	.word0x15c
 8835 1dd3 0000 003A 	.long0x3a
 8836 1dd7 02        	.uleb128 0x2
 8837 1dd8 91        	.byte0x91
 8838 1dd9 68        	.sleb128 -24
 8839 1dda 2B        	.uleb128 0x2b
 8840 1ddb 0000 0000 	.long.LASF294
 8841 1ddf 01        	.byte0x1
 8842 1de0 015C      	.word0x15c
 8843 1de2 0000 003A 	.long0x3a
 8844 1de6 02        	.uleb128 0x2
 8845 1de7 91        	.byte0x91
 8846 1de8 60        	.sleb128 -32
 8847 1de9 2B        	.uleb128 0x2b
 8848 1dea 0000 0000 	.long.LASF335
 8849 1dee 01        	.byte0x1
 8850 1def 015D      	.word0x15d
 8851 1df1 0000 0070 	.long0x70
68K GAS   			page 208


 8852 1df5 02        	.uleb128 0x2
 8853 1df6 91        	.byte0x91
 8854 1df7 64        	.sleb128 -28
 8855 1df8 2D        	.uleb128 0x2d
 8856 1df9 6900      	.string"i"
 8857 1dfb 01        	.byte0x1
 8858 1dfc 015D      	.word0x15d
 8859 1dfe 0000 0070 	.long0x70
 8860 1e02 02        	.uleb128 0x2
 8861 1e03 91        	.byte0x91
 8862 1e04 78        	.sleb128 -8
 8863 1e05 2B        	.uleb128 0x2b
 8864 1e06 0000 0000 	.long.LASF280
 8865 1e0a 01        	.byte0x1
 8866 1e0b 015E      	.word0x15e
 8867 1e0d 0000 0070 	.long0x70
 8868 1e11 02        	.uleb128 0x2
 8869 1e12 91        	.byte0x91
 8870 1e13 70        	.sleb128 -16
 8871 1e14 2B        	.uleb128 0x2b
 8872 1e15 0000 0000 	.long.LASF336
 8873 1e19 01        	.byte0x1
 8874 1e1a 015F      	.word0x15f
 8875 1e1c 0000 0AE8 	.long0xae8
 8876 1e20 02        	.uleb128 0x2
 8877 1e21 91        	.byte0x91
 8878 1e22 5C        	.sleb128 -36
 8879 1e23 2B        	.uleb128 0x2b
 8880 1e24 0000 0000 	.long.LASF306
 8881 1e28 01        	.byte0x1
 8882 1e29 0160      	.word0x160
 8883 1e2b 0000 10CD 	.long0x10cd
 8884 1e2f 02        	.uleb128 0x2
 8885 1e30 91        	.byte0x91
 8886 1e31 74        	.sleb128 -12
 8887 1e32 2B        	.uleb128 0x2b
 8888 1e33 0000 0000 	.long.LASF286
 8889 1e37 01        	.byte0x1
 8890 1e38 0161      	.word0x161
 8891 1e3a 0000 1454 	.long0x1454
 8892 1e3e 03        	.uleb128 0x3
 8893 1e3f 91        	.byte0x91
 8894 1e40 B47F      	.sleb128 -76
 8895 1e42 2C        	.uleb128 0x2c
 8896 1e43 0000 0000 	.long.LASF295
 8897 1e47 0000 16AD 	.long0x16ad
 8898 1e4b 05        	.uleb128 0x5
 8899 1e4c 03        	.byte0x3
 8900 1e4d 0000 0000 	.long__func__.5620
 8901 1e51 00        	.byte0
 8902 1e52 29        	.uleb128 0x29
 8903 1e53 0000 0000 	.long.LASF337
 8904 1e57 01        	.byte0x1
 8905 1e58 013E      	.word0x13e
 8906 1e5a 0000 003A 	.long0x3a
 8907 1e5e 0000 0000 	.long.LFB61
 8908 1e62 0000 002C 	.long.LFE61-.LFB61
68K GAS   			page 209


 8909 1e66 01        	.uleb128 0x1
 8910 1e67 9C        	.byte0x9c
 8911 1e68 0000 1E9A 	.long0x1e9a
 8912 1e6c 2A        	.uleb128 0x2a
 8913 1e6d 0000 0000 	.long.LASF191
 8914 1e71 01        	.byte0x1
 8915 1e72 013E      	.word0x13e
 8916 1e74 0000 0AC7 	.long0xac7
 8917 1e78 02        	.uleb128 0x2
 8918 1e79 91        	.byte0x91
 8919 1e7a 74        	.sleb128 -12
 8920 1e7b 2A        	.uleb128 0x2a
 8921 1e7c 0000 0000 	.long.LASF245
 8922 1e80 01        	.byte0x1
 8923 1e81 013E      	.word0x13e
 8924 1e83 0000 0070 	.long0x70
 8925 1e87 02        	.uleb128 0x2
 8926 1e88 91        	.byte0x91
 8927 1e89 04        	.sleb128 4
 8928 1e8a 2B        	.uleb128 0x2b
 8929 1e8b 0000 0000 	.long.LASF283
 8930 1e8f 01        	.byte0x1
 8931 1e90 0140      	.word0x140
 8932 1e92 0000 003A 	.long0x3a
 8933 1e96 02        	.uleb128 0x2
 8934 1e97 91        	.byte0x91
 8935 1e98 78        	.sleb128 -8
 8936 1e99 00        	.byte0
 8937 1e9a 29        	.uleb128 0x29
 8938 1e9b 0000 0000 	.long.LASF338
 8939 1e9f 01        	.byte0x1
 8940 1ea0 0122      	.word0x122
 8941 1ea2 0000 003A 	.long0x3a
 8942 1ea6 0000 0000 	.long.LFB60
 8943 1eaa 0000 0046 	.long.LFE60-.LFB60
 8944 1eae 01        	.uleb128 0x1
 8945 1eaf 9C        	.byte0x9c
 8946 1eb0 0000 1EE2 	.long0x1ee2
 8947 1eb4 2A        	.uleb128 0x2a
 8948 1eb5 0000 0000 	.long.LASF191
 8949 1eb9 01        	.byte0x1
 8950 1eba 0122      	.word0x122
 8951 1ebc 0000 0AC7 	.long0xac7
 8952 1ec0 02        	.uleb128 0x2
 8953 1ec1 91        	.byte0x91
 8954 1ec2 70        	.sleb128 -16
 8955 1ec3 2B        	.uleb128 0x2b
 8956 1ec4 0000 0000 	.long.LASF323
 8957 1ec8 01        	.byte0x1
 8958 1ec9 0124      	.word0x124
 8959 1ecb 0000 0070 	.long0x70
 8960 1ecf 02        	.uleb128 0x2
 8961 1ed0 91        	.byte0x91
 8962 1ed1 74        	.sleb128 -12
 8963 1ed2 2B        	.uleb128 0x2b
 8964 1ed3 0000 0000 	.long.LASF283
 8965 1ed7 01        	.byte0x1
68K GAS   			page 210


 8966 1ed8 0125      	.word0x125
 8967 1eda 0000 003A 	.long0x3a
 8968 1ede 02        	.uleb128 0x2
 8969 1edf 91        	.byte0x91
 8970 1ee0 78        	.sleb128 -8
 8971 1ee1 00        	.byte0
 8972 1ee2 30        	.uleb128 0x30
 8973 1ee3 0000 0000 	.long.LASF339
 8974 1ee7 01        	.byte0x1
 8975 1ee8 AA        	.byte0xaa
 8976 1ee9 0000 003A 	.long0x3a
 8977 1eed 0000 0000 	.long.LFB59
 8978 1ef1 0000 04AA 	.long.LFE59-.LFB59
 8979 1ef5 01        	.uleb128 0x1
 8980 1ef6 9C        	.byte0x9c
 8981 1ef7 0000 1F99 	.long0x1f99
 8982 1efb 31        	.uleb128 0x31
 8983 1efc 0000 0000 	.long.LASF340
 8984 1f00 01        	.byte0x1
 8985 1f01 AA        	.byte0xaa
 8986 1f02 0000 1F99 	.long0x1f99
 8987 1f06 02        	.uleb128 0x2
 8988 1f07 91        	.byte0x91
 8989 1f08 00        	.sleb128 0
 8990 1f09 31        	.uleb128 0x31
 8991 1f0a 0000 0000 	.long.LASF192
 8992 1f0e 01        	.byte0x1
 8993 1f0f AA        	.byte0xaa
 8994 1f10 0000 005E 	.long0x5e
 8995 1f14 03        	.uleb128 0x3
 8996 1f15 91        	.byte0x91
 8997 1f16 A87F      	.sleb128 -88
 8998 1f18 31        	.uleb128 0x31
 8999 1f19 0000 0000 	.long.LASF244
 9000 1f1d 01        	.byte0x1
 9001 1f1e AA        	.byte0xaa
 9002 1f1f 0000 0160 	.long0x160
 9003 1f23 02        	.uleb128 0x2
 9004 1f24 91        	.byte0x91
 9005 1f25 08        	.sleb128 8
 9006 1f26 32        	.uleb128 0x32
 9007 1f27 0000 0000 	.long.LASF245
 9008 1f2b 01        	.byte0x1
 9009 1f2c AC        	.byte0xac
 9010 1f2d 0000 0070 	.long0x70
 9011 1f31 02        	.uleb128 0x2
 9012 1f32 91        	.byte0x91
 9013 1f33 6C        	.sleb128 -20
 9014 1f34 32        	.uleb128 0x32
 9015 1f35 0000 0000 	.long.LASF280
 9016 1f39 01        	.byte0x1
 9017 1f3a AD        	.byte0xad
 9018 1f3b 0000 0070 	.long0x70
 9019 1f3f 02        	.uleb128 0x2
 9020 1f40 91        	.byte0x91
 9021 1f41 78        	.sleb128 -8
 9022 1f42 32        	.uleb128 0x32
68K GAS   			page 211


 9023 1f43 0000 0000 	.long.LASF246
 9024 1f47 01        	.byte0x1
 9025 1f48 AE        	.byte0xae
 9026 1f49 0000 0070 	.long0x70
 9027 1f4d 02        	.uleb128 0x2
 9028 1f4e 91        	.byte0x91
 9029 1f4f 68        	.sleb128 -24
 9030 1f50 32        	.uleb128 0x32
 9031 1f51 0000 0000 	.long.LASF283
 9032 1f55 01        	.byte0x1
 9033 1f56 AF        	.byte0xaf
 9034 1f57 0000 003A 	.long0x3a
 9035 1f5b 02        	.uleb128 0x2
 9036 1f5c 91        	.byte0x91
 9037 1f5d 70        	.sleb128 -16
 9038 1f5e 32        	.uleb128 0x32
 9039 1f5f 0000 0000 	.long.LASF333
 9040 1f63 01        	.byte0x1
 9041 1f64 B0        	.byte0xb0
 9042 1f65 0000 0AC7 	.long0xac7
 9043 1f69 02        	.uleb128 0x2
 9044 1f6a 91        	.byte0x91
 9045 1f6b 77        	.sleb128 -9
 9046 1f6c 32        	.uleb128 0x32
 9047 1f6d 0000 0000 	.long.LASF167
 9048 1f71 01        	.byte0x1
 9049 1f72 B1        	.byte0xb1
 9050 1f73 0000 00A0 	.long0xa0
 9051 1f77 02        	.uleb128 0x2
 9052 1f78 91        	.byte0x91
 9053 1f79 54        	.sleb128 -44
 9054 1f7a 32        	.uleb128 0x32
 9055 1f7b 0000 0000 	.long.LASF286
 9056 1f7f 01        	.byte0x1
 9057 1f80 B2        	.byte0xb2
 9058 1f81 0000 1454 	.long0x1454
 9059 1f85 03        	.uleb128 0x3
 9060 1f86 91        	.byte0x91
 9061 1f87 AC7F      	.sleb128 -84
 9062 1f89 2C        	.uleb128 0x2c
 9063 1f8a 0000 0000 	.long.LASF295
 9064 1f8e 0000 1FAF 	.long0x1faf
 9065 1f92 05        	.uleb128 0x5
 9066 1f93 03        	.byte0x3
 9067 1f94 0000 0000 	.long__func__.5596
 9068 1f98 00        	.byte0
 9069 1f99 0C        	.uleb128 0xc
 9070 1f9a 04        	.byte0x4
 9071 1f9b 0000 0AC7 	.long0xac7
 9072 1f9f 05        	.uleb128 0x5
 9073 1fa0 0000 009B 	.long0x9b
 9074 1fa4 0000 1FAF 	.long0x1faf
 9075 1fa8 06        	.uleb128 0x6
 9076 1fa9 0000 007B 	.long0x7b
 9077 1fad 11        	.byte0x11
 9078 1fae 00        	.byte0
 9079 1faf 04        	.uleb128 0x4
68K GAS   			page 212


 9080 1fb0 0000 1F9F 	.long0x1f9f
 9081 1fb4 00        	.byte0
 9082               	.section.debug_abbrev,"",@progbits
 9083               	.Ldebug_abbrev0:
 9084 0000 01        	.uleb128 0x1
 9085 0001 11        	.uleb128 0x11
 9086 0002 01        	.byte0x1
 9087 0003 25        	.uleb128 0x25
 9088 0004 0E        	.uleb128 0xe
 9089 0005 13        	.uleb128 0x13
 9090 0006 0B        	.uleb128 0xb
 9091 0007 03        	.uleb128 0x3
 9092 0008 0E        	.uleb128 0xe
 9093 0009 1B        	.uleb128 0x1b
 9094 000a 0E        	.uleb128 0xe
 9095 000b 11        	.uleb128 0x11
 9096 000c 01        	.uleb128 0x1
 9097 000d 12        	.uleb128 0x12
 9098 000e 06        	.uleb128 0x6
 9099 000f 10        	.uleb128 0x10
 9100 0010 17        	.uleb128 0x17
 9101 0011 00        	.byte0
 9102 0012 00        	.byte0
 9103 0013 02        	.uleb128 0x2
 9104 0014 24        	.uleb128 0x24
 9105 0015 00        	.byte0
 9106 0016 0B        	.uleb128 0xb
 9107 0017 0B        	.uleb128 0xb
 9108 0018 3E        	.uleb128 0x3e
 9109 0019 0B        	.uleb128 0xb
 9110 001a 03        	.uleb128 0x3
 9111 001b 0E        	.uleb128 0xe
 9112 001c 00        	.byte0
 9113 001d 00        	.byte0
 9114 001e 03        	.uleb128 0x3
 9115 001f 16        	.uleb128 0x16
 9116 0020 00        	.byte0
 9117 0021 03        	.uleb128 0x3
 9118 0022 0E        	.uleb128 0xe
 9119 0023 3A        	.uleb128 0x3a
 9120 0024 0B        	.uleb128 0xb
 9121 0025 3B        	.uleb128 0x3b
 9122 0026 0B        	.uleb128 0xb
 9123 0027 49        	.uleb128 0x49
 9124 0028 13        	.uleb128 0x13
 9125 0029 00        	.byte0
 9126 002a 00        	.byte0
 9127 002b 04        	.uleb128 0x4
 9128 002c 26        	.uleb128 0x26
 9129 002d 00        	.byte0
 9130 002e 49        	.uleb128 0x49
 9131 002f 13        	.uleb128 0x13
 9132 0030 00        	.byte0
 9133 0031 00        	.byte0
 9134 0032 05        	.uleb128 0x5
 9135 0033 01        	.uleb128 0x1
 9136 0034 01        	.byte0x1
68K GAS   			page 213


 9137 0035 49        	.uleb128 0x49
 9138 0036 13        	.uleb128 0x13
 9139 0037 01        	.uleb128 0x1
 9140 0038 13        	.uleb128 0x13
 9141 0039 00        	.byte0
 9142 003a 00        	.byte0
 9143 003b 06        	.uleb128 0x6
 9144 003c 21        	.uleb128 0x21
 9145 003d 00        	.byte0
 9146 003e 49        	.uleb128 0x49
 9147 003f 13        	.uleb128 0x13
 9148 0040 2F        	.uleb128 0x2f
 9149 0041 0B        	.uleb128 0xb
 9150 0042 00        	.byte0
 9151 0043 00        	.byte0
 9152 0044 07        	.uleb128 0x7
 9153 0045 0F        	.uleb128 0xf
 9154 0046 00        	.byte0
 9155 0047 0B        	.uleb128 0xb
 9156 0048 0B        	.uleb128 0xb
 9157 0049 00        	.byte0
 9158 004a 00        	.byte0
 9159 004b 08        	.uleb128 0x8
 9160 004c 24        	.uleb128 0x24
 9161 004d 00        	.byte0
 9162 004e 0B        	.uleb128 0xb
 9163 004f 0B        	.uleb128 0xb
 9164 0050 3E        	.uleb128 0x3e
 9165 0051 0B        	.uleb128 0xb
 9166 0052 03        	.uleb128 0x3
 9167 0053 08        	.uleb128 0x8
 9168 0054 00        	.byte0
 9169 0055 00        	.byte0
 9170 0056 09        	.uleb128 0x9
 9171 0057 13        	.uleb128 0x13
 9172 0058 01        	.byte0x1
 9173 0059 03        	.uleb128 0x3
 9174 005a 0E        	.uleb128 0xe
 9175 005b 0B        	.uleb128 0xb
 9176 005c 0B        	.uleb128 0xb
 9177 005d 3A        	.uleb128 0x3a
 9178 005e 0B        	.uleb128 0xb
 9179 005f 3B        	.uleb128 0x3b
 9180 0060 0B        	.uleb128 0xb
 9181 0061 01        	.uleb128 0x1
 9182 0062 13        	.uleb128 0x13
 9183 0063 00        	.byte0
 9184 0064 00        	.byte0
 9185 0065 0A        	.uleb128 0xa
 9186 0066 0D        	.uleb128 0xd
 9187 0067 00        	.byte0
 9188 0068 03        	.uleb128 0x3
 9189 0069 0E        	.uleb128 0xe
 9190 006a 3A        	.uleb128 0x3a
 9191 006b 0B        	.uleb128 0xb
 9192 006c 3B        	.uleb128 0x3b
 9193 006d 0B        	.uleb128 0xb
68K GAS   			page 214


 9194 006e 49        	.uleb128 0x49
 9195 006f 13        	.uleb128 0x13
 9196 0070 38        	.uleb128 0x38
 9197 0071 0B        	.uleb128 0xb
 9198 0072 00        	.byte0
 9199 0073 00        	.byte0
 9200 0074 0B        	.uleb128 0xb
 9201 0075 13        	.uleb128 0x13
 9202 0076 00        	.byte0
 9203 0077 03        	.uleb128 0x3
 9204 0078 0E        	.uleb128 0xe
 9205 0079 3C        	.uleb128 0x3c
 9206 007a 19        	.uleb128 0x19
 9207 007b 00        	.byte0
 9208 007c 00        	.byte0
 9209 007d 0C        	.uleb128 0xc
 9210 007e 0F        	.uleb128 0xf
 9211 007f 00        	.byte0
 9212 0080 0B        	.uleb128 0xb
 9213 0081 0B        	.uleb128 0xb
 9214 0082 49        	.uleb128 0x49
 9215 0083 13        	.uleb128 0x13
 9216 0084 00        	.byte0
 9217 0085 00        	.byte0
 9218 0086 0D        	.uleb128 0xd
 9219 0087 16        	.uleb128 0x16
 9220 0088 00        	.byte0
 9221 0089 03        	.uleb128 0x3
 9222 008a 0E        	.uleb128 0xe
 9223 008b 3A        	.uleb128 0x3a
 9224 008c 0B        	.uleb128 0xb
 9225 008d 3B        	.uleb128 0x3b
 9226 008e 05        	.uleb128 0x5
 9227 008f 49        	.uleb128 0x49
 9228 0090 13        	.uleb128 0x13
 9229 0091 00        	.byte0
 9230 0092 00        	.byte0
 9231 0093 0E        	.uleb128 0xe
 9232 0094 17        	.uleb128 0x17
 9233 0095 01        	.byte0x1
 9234 0096 0B        	.uleb128 0xb
 9235 0097 0B        	.uleb128 0xb
 9236 0098 3A        	.uleb128 0x3a
 9237 0099 0B        	.uleb128 0xb
 9238 009a 3B        	.uleb128 0x3b
 9239 009b 0B        	.uleb128 0xb
 9240 009c 01        	.uleb128 0x1
 9241 009d 13        	.uleb128 0x13
 9242 009e 00        	.byte0
 9243 009f 00        	.byte0
 9244 00a0 0F        	.uleb128 0xf
 9245 00a1 0D        	.uleb128 0xd
 9246 00a2 00        	.byte0
 9247 00a3 03        	.uleb128 0x3
 9248 00a4 0E        	.uleb128 0xe
 9249 00a5 3A        	.uleb128 0x3a
 9250 00a6 0B        	.uleb128 0xb
68K GAS   			page 215


 9251 00a7 3B        	.uleb128 0x3b
 9252 00a8 0B        	.uleb128 0xb
 9253 00a9 49        	.uleb128 0x49
 9254 00aa 13        	.uleb128 0x13
 9255 00ab 00        	.byte0
 9256 00ac 00        	.byte0
 9257 00ad 10        	.uleb128 0x10
 9258 00ae 13        	.uleb128 0x13
 9259 00af 01        	.byte0x1
 9260 00b0 0B        	.uleb128 0xb
 9261 00b1 0B        	.uleb128 0xb
 9262 00b2 3A        	.uleb128 0x3a
 9263 00b3 0B        	.uleb128 0xb
 9264 00b4 3B        	.uleb128 0x3b
 9265 00b5 0B        	.uleb128 0xb
 9266 00b6 01        	.uleb128 0x1
 9267 00b7 13        	.uleb128 0x13
 9268 00b8 00        	.byte0
 9269 00b9 00        	.byte0
 9270 00ba 11        	.uleb128 0x11
 9271 00bb 0D        	.uleb128 0xd
 9272 00bc 00        	.byte0
 9273 00bd 03        	.uleb128 0x3
 9274 00be 08        	.uleb128 0x8
 9275 00bf 3A        	.uleb128 0x3a
 9276 00c0 0B        	.uleb128 0xb
 9277 00c1 3B        	.uleb128 0x3b
 9278 00c2 0B        	.uleb128 0xb
 9279 00c3 49        	.uleb128 0x49
 9280 00c4 13        	.uleb128 0x13
 9281 00c5 38        	.uleb128 0x38
 9282 00c6 0B        	.uleb128 0xb
 9283 00c7 00        	.byte0
 9284 00c8 00        	.byte0
 9285 00c9 12        	.uleb128 0x12
 9286 00ca 13        	.uleb128 0x13
 9287 00cb 01        	.byte0x1
 9288 00cc 03        	.uleb128 0x3
 9289 00cd 0E        	.uleb128 0xe
 9290 00ce 0B        	.uleb128 0xb
 9291 00cf 05        	.uleb128 0x5
 9292 00d0 3A        	.uleb128 0x3a
 9293 00d1 0B        	.uleb128 0xb
 9294 00d2 3B        	.uleb128 0x3b
 9295 00d3 0B        	.uleb128 0xb
 9296 00d4 01        	.uleb128 0x1
 9297 00d5 13        	.uleb128 0x13
 9298 00d6 00        	.byte0
 9299 00d7 00        	.byte0
 9300 00d8 13        	.uleb128 0x13
 9301 00d9 0D        	.uleb128 0xd
 9302 00da 00        	.byte0
 9303 00db 03        	.uleb128 0x3
 9304 00dc 0E        	.uleb128 0xe
 9305 00dd 3A        	.uleb128 0x3a
 9306 00de 0B        	.uleb128 0xb
 9307 00df 3B        	.uleb128 0x3b
68K GAS   			page 216


 9308 00e0 0B        	.uleb128 0xb
 9309 00e1 49        	.uleb128 0x49
 9310 00e2 13        	.uleb128 0x13
 9311 00e3 38        	.uleb128 0x38
 9312 00e4 05        	.uleb128 0x5
 9313 00e5 00        	.byte0
 9314 00e6 00        	.byte0
 9315 00e7 14        	.uleb128 0x14
 9316 00e8 15        	.uleb128 0x15
 9317 00e9 00        	.byte0
 9318 00ea 27        	.uleb128 0x27
 9319 00eb 19        	.uleb128 0x19
 9320 00ec 00        	.byte0
 9321 00ed 00        	.byte0
 9322 00ee 15        	.uleb128 0x15
 9323 00ef 15        	.uleb128 0x15
 9324 00f0 01        	.byte0x1
 9325 00f1 27        	.uleb128 0x27
 9326 00f2 19        	.uleb128 0x19
 9327 00f3 49        	.uleb128 0x49
 9328 00f4 13        	.uleb128 0x13
 9329 00f5 01        	.uleb128 0x1
 9330 00f6 13        	.uleb128 0x13
 9331 00f7 00        	.byte0
 9332 00f8 00        	.byte0
 9333 00f9 16        	.uleb128 0x16
 9334 00fa 05        	.uleb128 0x5
 9335 00fb 00        	.byte0
 9336 00fc 49        	.uleb128 0x49
 9337 00fd 13        	.uleb128 0x13
 9338 00fe 00        	.byte0
 9339 00ff 00        	.byte0
 9340 0100 17        	.uleb128 0x17
 9341 0101 13        	.uleb128 0x13
 9342 0102 01        	.byte0x1
 9343 0103 03        	.uleb128 0x3
 9344 0104 0E        	.uleb128 0xe
 9345 0105 0B        	.uleb128 0xb
 9346 0106 05        	.uleb128 0x5
 9347 0107 3A        	.uleb128 0x3a
 9348 0108 0B        	.uleb128 0xb
 9349 0109 3B        	.uleb128 0x3b
 9350 010a 05        	.uleb128 0x5
 9351 010b 01        	.uleb128 0x1
 9352 010c 13        	.uleb128 0x13
 9353 010d 00        	.byte0
 9354 010e 00        	.byte0
 9355 010f 18        	.uleb128 0x18
 9356 0110 0D        	.uleb128 0xd
 9357 0111 00        	.byte0
 9358 0112 03        	.uleb128 0x3
 9359 0113 0E        	.uleb128 0xe
 9360 0114 3A        	.uleb128 0x3a
 9361 0115 0B        	.uleb128 0xb
 9362 0116 3B        	.uleb128 0x3b
 9363 0117 05        	.uleb128 0x5
 9364 0118 49        	.uleb128 0x49
68K GAS   			page 217


 9365 0119 13        	.uleb128 0x13
 9366 011a 38        	.uleb128 0x38
 9367 011b 0B        	.uleb128 0xb
 9368 011c 00        	.byte0
 9369 011d 00        	.byte0
 9370 011e 19        	.uleb128 0x19
 9371 011f 0D        	.uleb128 0xd
 9372 0120 00        	.byte0
 9373 0121 03        	.uleb128 0x3
 9374 0122 0E        	.uleb128 0xe
 9375 0123 3A        	.uleb128 0x3a
 9376 0124 0B        	.uleb128 0xb
 9377 0125 3B        	.uleb128 0x3b
 9378 0126 05        	.uleb128 0x5
 9379 0127 49        	.uleb128 0x49
 9380 0128 13        	.uleb128 0x13
 9381 0129 38        	.uleb128 0x38
 9382 012a 05        	.uleb128 0x5
 9383 012b 00        	.byte0
 9384 012c 00        	.byte0
 9385 012d 1A        	.uleb128 0x1a
 9386 012e 13        	.uleb128 0x13
 9387 012f 01        	.byte0x1
 9388 0130 03        	.uleb128 0x3
 9389 0131 0E        	.uleb128 0xe
 9390 0132 0B        	.uleb128 0xb
 9391 0133 0B        	.uleb128 0xb
 9392 0134 3A        	.uleb128 0x3a
 9393 0135 0B        	.uleb128 0xb
 9394 0136 3B        	.uleb128 0x3b
 9395 0137 05        	.uleb128 0x5
 9396 0138 01        	.uleb128 0x1
 9397 0139 13        	.uleb128 0x13
 9398 013a 00        	.byte0
 9399 013b 00        	.byte0
 9400 013c 1B        	.uleb128 0x1b
 9401 013d 13        	.uleb128 0x13
 9402 013e 01        	.byte0x1
 9403 013f 0B        	.uleb128 0xb
 9404 0140 0B        	.uleb128 0xb
 9405 0141 3A        	.uleb128 0x3a
 9406 0142 0B        	.uleb128 0xb
 9407 0143 3B        	.uleb128 0x3b
 9408 0144 05        	.uleb128 0x5
 9409 0145 01        	.uleb128 0x1
 9410 0146 13        	.uleb128 0x13
 9411 0147 00        	.byte0
 9412 0148 00        	.byte0
 9413 0149 1C        	.uleb128 0x1c
 9414 014a 17        	.uleb128 0x17
 9415 014b 01        	.byte0x1
 9416 014c 0B        	.uleb128 0xb
 9417 014d 0B        	.uleb128 0xb
 9418 014e 3A        	.uleb128 0x3a
 9419 014f 0B        	.uleb128 0xb
 9420 0150 3B        	.uleb128 0x3b
 9421 0151 05        	.uleb128 0x5
68K GAS   			page 218


 9422 0152 01        	.uleb128 0x1
 9423 0153 13        	.uleb128 0x13
 9424 0154 00        	.byte0
 9425 0155 00        	.byte0
 9426 0156 1D        	.uleb128 0x1d
 9427 0157 0D        	.uleb128 0xd
 9428 0158 00        	.byte0
 9429 0159 03        	.uleb128 0x3
 9430 015a 0E        	.uleb128 0xe
 9431 015b 3A        	.uleb128 0x3a
 9432 015c 0B        	.uleb128 0xb
 9433 015d 3B        	.uleb128 0x3b
 9434 015e 05        	.uleb128 0x5
 9435 015f 49        	.uleb128 0x49
 9436 0160 13        	.uleb128 0x13
 9437 0161 00        	.byte0
 9438 0162 00        	.byte0
 9439 0163 1E        	.uleb128 0x1e
 9440 0164 15        	.uleb128 0x15
 9441 0165 01        	.byte0x1
 9442 0166 27        	.uleb128 0x27
 9443 0167 19        	.uleb128 0x19
 9444 0168 01        	.uleb128 0x1
 9445 0169 13        	.uleb128 0x13
 9446 016a 00        	.byte0
 9447 016b 00        	.byte0
 9448 016c 1F        	.uleb128 0x1f
 9449 016d 34        	.uleb128 0x34
 9450 016e 00        	.byte0
 9451 016f 03        	.uleb128 0x3
 9452 0170 0E        	.uleb128 0xe
 9453 0171 3A        	.uleb128 0x3a
 9454 0172 0B        	.uleb128 0xb
 9455 0173 3B        	.uleb128 0x3b
 9456 0174 05        	.uleb128 0x5
 9457 0175 49        	.uleb128 0x49
 9458 0176 13        	.uleb128 0x13
 9459 0177 3F        	.uleb128 0x3f
 9460 0178 19        	.uleb128 0x19
 9461 0179 3C        	.uleb128 0x3c
 9462 017a 19        	.uleb128 0x19
 9463 017b 00        	.byte0
 9464 017c 00        	.byte0
 9465 017d 20        	.uleb128 0x20
 9466 017e 34        	.uleb128 0x34
 9467 017f 00        	.byte0
 9468 0180 03        	.uleb128 0x3
 9469 0181 0E        	.uleb128 0xe
 9470 0182 3A        	.uleb128 0x3a
 9471 0183 0B        	.uleb128 0xb
 9472 0184 3B        	.uleb128 0x3b
 9473 0185 0B        	.uleb128 0xb
 9474 0186 49        	.uleb128 0x49
 9475 0187 13        	.uleb128 0x13
 9476 0188 3F        	.uleb128 0x3f
 9477 0189 19        	.uleb128 0x19
 9478 018a 3C        	.uleb128 0x3c
68K GAS   			page 219


 9479 018b 19        	.uleb128 0x19
 9480 018c 00        	.byte0
 9481 018d 00        	.byte0
 9482 018e 21        	.uleb128 0x21
 9483 018f 0D        	.uleb128 0xd
 9484 0190 00        	.byte0
 9485 0191 03        	.uleb128 0x3
 9486 0192 08        	.uleb128 0x8
 9487 0193 3A        	.uleb128 0x3a
 9488 0194 0B        	.uleb128 0xb
 9489 0195 3B        	.uleb128 0x3b
 9490 0196 0B        	.uleb128 0xb
 9491 0197 49        	.uleb128 0x49
 9492 0198 13        	.uleb128 0x13
 9493 0199 00        	.byte0
 9494 019a 00        	.byte0
 9495 019b 22        	.uleb128 0x22
 9496 019c 0D        	.uleb128 0xd
 9497 019d 00        	.byte0
 9498 019e 03        	.uleb128 0x3
 9499 019f 08        	.uleb128 0x8
 9500 01a0 3A        	.uleb128 0x3a
 9501 01a1 0B        	.uleb128 0xb
 9502 01a2 3B        	.uleb128 0x3b
 9503 01a3 05        	.uleb128 0x5
 9504 01a4 49        	.uleb128 0x49
 9505 01a5 13        	.uleb128 0x13
 9506 01a6 38        	.uleb128 0x38
 9507 01a7 0B        	.uleb128 0xb
 9508 01a8 00        	.byte0
 9509 01a9 00        	.byte0
 9510 01aa 23        	.uleb128 0x23
 9511 01ab 13        	.uleb128 0x13
 9512 01ac 01        	.byte0x1
 9513 01ad 0B        	.uleb128 0xb
 9514 01ae 05        	.uleb128 0x5
 9515 01af 3A        	.uleb128 0x3a
 9516 01b0 0B        	.uleb128 0xb
 9517 01b1 3B        	.uleb128 0x3b
 9518 01b2 05        	.uleb128 0x5
 9519 01b3 01        	.uleb128 0x1
 9520 01b4 13        	.uleb128 0x13
 9521 01b5 00        	.byte0
 9522 01b6 00        	.byte0
 9523 01b7 24        	.uleb128 0x24
 9524 01b8 13        	.uleb128 0x13
 9525 01b9 01        	.byte0x1
 9526 01ba 0B        	.uleb128 0xb
 9527 01bb 06        	.uleb128 0x6
 9528 01bc 3A        	.uleb128 0x3a
 9529 01bd 0B        	.uleb128 0xb
 9530 01be 3B        	.uleb128 0x3b
 9531 01bf 05        	.uleb128 0x5
 9532 01c0 01        	.uleb128 0x1
 9533 01c1 13        	.uleb128 0x13
 9534 01c2 00        	.byte0
 9535 01c3 00        	.byte0
68K GAS   			page 220


 9536 01c4 25        	.uleb128 0x25
 9537 01c5 21        	.uleb128 0x21
 9538 01c6 00        	.byte0
 9539 01c7 49        	.uleb128 0x49
 9540 01c8 13        	.uleb128 0x13
 9541 01c9 2F        	.uleb128 0x2f
 9542 01ca 06        	.uleb128 0x6
 9543 01cb 00        	.byte0
 9544 01cc 00        	.byte0
 9545 01cd 26        	.uleb128 0x26
 9546 01ce 0D        	.uleb128 0xd
 9547 01cf 00        	.byte0
 9548 01d0 03        	.uleb128 0x3
 9549 01d1 08        	.uleb128 0x8
 9550 01d2 3A        	.uleb128 0x3a
 9551 01d3 0B        	.uleb128 0xb
 9552 01d4 3B        	.uleb128 0x3b
 9553 01d5 05        	.uleb128 0x5
 9554 01d6 49        	.uleb128 0x49
 9555 01d7 13        	.uleb128 0x13
 9556 01d8 38        	.uleb128 0x38
 9557 01d9 05        	.uleb128 0x5
 9558 01da 00        	.byte0
 9559 01db 00        	.byte0
 9560 01dc 27        	.uleb128 0x27
 9561 01dd 0D        	.uleb128 0xd
 9562 01de 00        	.byte0
 9563 01df 03        	.uleb128 0x3
 9564 01e0 0E        	.uleb128 0xe
 9565 01e1 3A        	.uleb128 0x3a
 9566 01e2 0B        	.uleb128 0xb
 9567 01e3 3B        	.uleb128 0x3b
 9568 01e4 05        	.uleb128 0x5
 9569 01e5 49        	.uleb128 0x49
 9570 01e6 13        	.uleb128 0x13
 9571 01e7 38        	.uleb128 0x38
 9572 01e8 06        	.uleb128 0x6
 9573 01e9 00        	.byte0
 9574 01ea 00        	.byte0
 9575 01eb 28        	.uleb128 0x28
 9576 01ec 21        	.uleb128 0x21
 9577 01ed 00        	.byte0
 9578 01ee 49        	.uleb128 0x49
 9579 01ef 13        	.uleb128 0x13
 9580 01f0 2F        	.uleb128 0x2f
 9581 01f1 05        	.uleb128 0x5
 9582 01f2 00        	.byte0
 9583 01f3 00        	.byte0
 9584 01f4 29        	.uleb128 0x29
 9585 01f5 2E        	.uleb128 0x2e
 9586 01f6 01        	.byte0x1
 9587 01f7 3F        	.uleb128 0x3f
 9588 01f8 19        	.uleb128 0x19
 9589 01f9 03        	.uleb128 0x3
 9590 01fa 0E        	.uleb128 0xe
 9591 01fb 3A        	.uleb128 0x3a
 9592 01fc 0B        	.uleb128 0xb
68K GAS   			page 221


 9593 01fd 3B        	.uleb128 0x3b
 9594 01fe 05        	.uleb128 0x5
 9595 01ff 27        	.uleb128 0x27
 9596 0200 19        	.uleb128 0x19
 9597 0201 49        	.uleb128 0x49
 9598 0202 13        	.uleb128 0x13
 9599 0203 11        	.uleb128 0x11
 9600 0204 01        	.uleb128 0x1
 9601 0205 12        	.uleb128 0x12
 9602 0206 06        	.uleb128 0x6
 9603 0207 40        	.uleb128 0x40
 9604 0208 18        	.uleb128 0x18
 9605 0209 9642      	.uleb128 0x2116
 9606 020b 19        	.uleb128 0x19
 9607 020c 01        	.uleb128 0x1
 9608 020d 13        	.uleb128 0x13
 9609 020e 00        	.byte0
 9610 020f 00        	.byte0
 9611 0210 2A        	.uleb128 0x2a
 9612 0211 05        	.uleb128 0x5
 9613 0212 00        	.byte0
 9614 0213 03        	.uleb128 0x3
 9615 0214 0E        	.uleb128 0xe
 9616 0215 3A        	.uleb128 0x3a
 9617 0216 0B        	.uleb128 0xb
 9618 0217 3B        	.uleb128 0x3b
 9619 0218 05        	.uleb128 0x5
 9620 0219 49        	.uleb128 0x49
 9621 021a 13        	.uleb128 0x13
 9622 021b 02        	.uleb128 0x2
 9623 021c 18        	.uleb128 0x18
 9624 021d 00        	.byte0
 9625 021e 00        	.byte0
 9626 021f 2B        	.uleb128 0x2b
 9627 0220 34        	.uleb128 0x34
 9628 0221 00        	.byte0
 9629 0222 03        	.uleb128 0x3
 9630 0223 0E        	.uleb128 0xe
 9631 0224 3A        	.uleb128 0x3a
 9632 0225 0B        	.uleb128 0xb
 9633 0226 3B        	.uleb128 0x3b
 9634 0227 05        	.uleb128 0x5
 9635 0228 49        	.uleb128 0x49
 9636 0229 13        	.uleb128 0x13
 9637 022a 02        	.uleb128 0x2
 9638 022b 18        	.uleb128 0x18
 9639 022c 00        	.byte0
 9640 022d 00        	.byte0
 9641 022e 2C        	.uleb128 0x2c
 9642 022f 34        	.uleb128 0x34
 9643 0230 00        	.byte0
 9644 0231 03        	.uleb128 0x3
 9645 0232 0E        	.uleb128 0xe
 9646 0233 49        	.uleb128 0x49
 9647 0234 13        	.uleb128 0x13
 9648 0235 34        	.uleb128 0x34
 9649 0236 19        	.uleb128 0x19
68K GAS   			page 222


 9650 0237 02        	.uleb128 0x2
 9651 0238 18        	.uleb128 0x18
 9652 0239 00        	.byte0
 9653 023a 00        	.byte0
 9654 023b 2D        	.uleb128 0x2d
 9655 023c 34        	.uleb128 0x34
 9656 023d 00        	.byte0
 9657 023e 03        	.uleb128 0x3
 9658 023f 08        	.uleb128 0x8
 9659 0240 3A        	.uleb128 0x3a
 9660 0241 0B        	.uleb128 0xb
 9661 0242 3B        	.uleb128 0x3b
 9662 0243 05        	.uleb128 0x5
 9663 0244 49        	.uleb128 0x49
 9664 0245 13        	.uleb128 0x13
 9665 0246 02        	.uleb128 0x2
 9666 0247 18        	.uleb128 0x18
 9667 0248 00        	.byte0
 9668 0249 00        	.byte0
 9669 024a 2E        	.uleb128 0x2e
 9670 024b 05        	.uleb128 0x5
 9671 024c 00        	.byte0
 9672 024d 03        	.uleb128 0x3
 9673 024e 08        	.uleb128 0x8
 9674 024f 3A        	.uleb128 0x3a
 9675 0250 0B        	.uleb128 0xb
 9676 0251 3B        	.uleb128 0x3b
 9677 0252 05        	.uleb128 0x5
 9678 0253 49        	.uleb128 0x49
 9679 0254 13        	.uleb128 0x13
 9680 0255 02        	.uleb128 0x2
 9681 0256 18        	.uleb128 0x18
 9682 0257 00        	.byte0
 9683 0258 00        	.byte0
 9684 0259 2F        	.uleb128 0x2f
 9685 025a 0B        	.uleb128 0xb
 9686 025b 01        	.byte0x1
 9687 025c 11        	.uleb128 0x11
 9688 025d 01        	.uleb128 0x1
 9689 025e 12        	.uleb128 0x12
 9690 025f 06        	.uleb128 0x6
 9691 0260 00        	.byte0
 9692 0261 00        	.byte0
 9693 0262 30        	.uleb128 0x30
 9694 0263 2E        	.uleb128 0x2e
 9695 0264 01        	.byte0x1
 9696 0265 3F        	.uleb128 0x3f
 9697 0266 19        	.uleb128 0x19
 9698 0267 03        	.uleb128 0x3
 9699 0268 0E        	.uleb128 0xe
 9700 0269 3A        	.uleb128 0x3a
 9701 026a 0B        	.uleb128 0xb
 9702 026b 3B        	.uleb128 0x3b
 9703 026c 0B        	.uleb128 0xb
 9704 026d 27        	.uleb128 0x27
 9705 026e 19        	.uleb128 0x19
 9706 026f 49        	.uleb128 0x49
68K GAS   			page 223


 9707 0270 13        	.uleb128 0x13
 9708 0271 11        	.uleb128 0x11
 9709 0272 01        	.uleb128 0x1
 9710 0273 12        	.uleb128 0x12
 9711 0274 06        	.uleb128 0x6
 9712 0275 40        	.uleb128 0x40
 9713 0276 18        	.uleb128 0x18
 9714 0277 9642      	.uleb128 0x2116
 9715 0279 19        	.uleb128 0x19
 9716 027a 01        	.uleb128 0x1
 9717 027b 13        	.uleb128 0x13
 9718 027c 00        	.byte0
 9719 027d 00        	.byte0
 9720 027e 31        	.uleb128 0x31
 9721 027f 05        	.uleb128 0x5
 9722 0280 00        	.byte0
 9723 0281 03        	.uleb128 0x3
 9724 0282 0E        	.uleb128 0xe
 9725 0283 3A        	.uleb128 0x3a
 9726 0284 0B        	.uleb128 0xb
 9727 0285 3B        	.uleb128 0x3b
 9728 0286 0B        	.uleb128 0xb
 9729 0287 49        	.uleb128 0x49
 9730 0288 13        	.uleb128 0x13
 9731 0289 02        	.uleb128 0x2
 9732 028a 18        	.uleb128 0x18
 9733 028b 00        	.byte0
 9734 028c 00        	.byte0
 9735 028d 32        	.uleb128 0x32
 9736 028e 34        	.uleb128 0x34
 9737 028f 00        	.byte0
 9738 0290 03        	.uleb128 0x3
 9739 0291 0E        	.uleb128 0xe
 9740 0292 3A        	.uleb128 0x3a
 9741 0293 0B        	.uleb128 0xb
 9742 0294 3B        	.uleb128 0x3b
 9743 0295 0B        	.uleb128 0xb
 9744 0296 49        	.uleb128 0x49
 9745 0297 13        	.uleb128 0x13
 9746 0298 02        	.uleb128 0x2
 9747 0299 18        	.uleb128 0x18
 9748 029a 00        	.byte0
 9749 029b 00        	.byte0
 9750 029c 00        	.byte0
 9751               	.section.debug_aranges,"",@progbits
 9752 0000 0000 001C 	.long0x1c
 9753 0004 0002      	.word0x2
 9754 0006 0000 0000 	.long.Ldebug_info0
 9755 000a 04        	.byte0x4
 9756 000b 00        	.byte0
 9757 000c 0000      	.word0
 9758 000e 0000      	.word0
 9759 0010 0000 0000 	.long.Ltext0
 9760 0014 0000 2C20 	.long.Letext0-.Ltext0
 9761 0018 0000 0000 	.long0
 9762 001c 0000 0000 	.long0
 9763               	.section.debug_line,"",@progbits
68K GAS   			page 224


 9764               	.Ldebug_line0:
 9765 0000 0000 0629 	.section.debug_str,"MS",@progbits,1
 9765      0002 0000 
 9765      0283 0201 
 9765      FB0E 0D00 
 9765      0101 0101 
 9766               	.LASF35:
 9767 0000 5F73 7369 	.string"_ssize_t"
 9767      7A65 5F74 
 9767      00
 9768               	.LASF237:
 9769 0009 4346 455F 	.string"CFE_SB_DestinationD_t"
 9769      5342 5F44 
 9769      6573 7469 
 9769      6E61 7469 
 9769      6F6E 445F 
 9770               	.LASF137:
 9771 001f 5F5F 6C6F 	.string"__locale_t"
 9771      6361 6C65 
 9771      5F74 00
 9772               	.LASF40:
 9773 002a 5F5F 7661 	.string"__value"
 9773      6C75 6500 
 9774               	.LASF138:
 9775 0032 5F5F 7366 	.string"__sf"
 9775      00
 9776               	.LASF294:
 9777 0037 5374 6174 	.string"Stat"
 9777      00
 9778               	.LASF150:
 9779 003c 4343 5344 	.string"CCSDS_PriHdr_t"
 9779      535F 5072 
 9779      6948 6472 
 9779      5F74 00
 9780               	.LASF181:
 9781 004b 4475 7053 	.string"DupSubscriptionsCnt"
 9781      7562 7363 
 9781      7269 7074 
 9781      696F 6E73 
 9781      436E 7400 
 9782               	.LASF75:
 9783 005f 5F72 6561 	.string"_read"
 9783      6400 
 9784               	.LASF252:
 9785 0065 4346 455F 	.string"CFE_SB_PipeD_t"
 9785      5342 5F50 
 9785      6970 6544 
 9785      5F74 00
 9786               	.LASF76:
 9787 0074 5F77 7269 	.string"_write"
 9787      7465 00
 9788               	.LASF147:
 9789 007b 5374 7265 	.string"StreamId"
 9789      616D 4964 
 9789      00
 9790               	.LASF117:
 9791 0084 5F61 7363 	.string"_asctime_buf"
68K GAS   			page 225


 9791      7469 6D65 
 9791      5F62 7566 
 9791      00
 9792               	.LASF289:
 9793 0091 4D73 6750 	.string"MsgPtr"
 9793      7472 00
 9794               	.LASF102:
 9795 0098 5F63 7674 	.string"_cvtlen"
 9795      6C65 6E00 
 9796               	.LASF325:
 9797 00a0 4346 455F 	.string"CFE_SB_SubscribeFull"
 9797      5342 5F53 
 9797      7562 7363 
 9797      7269 6265 
 9797      4675 6C6C 
 9798               	.LASF29:
 9799 00b5 5F4D 7574 	.string"_Mutex_Control"
 9799      6578 5F43 
 9799      6F6E 7472 
 9799      6F6C 00
 9800               	.LASF295:
 9801 00c4 5F5F 6675 	.string"__func__"
 9801      6E63 5F5F 
 9801      00
 9802               	.LASF141:
 9803 00cd 5F67 6C6F 	.string"_global_atexit"
 9803      6261 6C5F 
 9803      6174 6578 
 9803      6974 00
 9804               	.LASF300:
 9805 00dc 7374 6174 	.string"stat1"
 9805      3100 
 9806               	.LASF9:
 9807 00e2 7569 6E74 	.string"uint32"
 9807      3332 00
 9808               	.LASF136:
 9809 00e9 5F75 6E75 	.string"_unused"
 9809      7365 6400 
 9810               	.LASF49:
 9811 00f1 5F5F 746D 	.string"__tm"
 9811      00
 9812               	.LASF132:
 9813 00f6 5F77 6373 	.string"_wcsrtombs_state"
 9813      7274 6F6D 
 9813      6273 5F73 
 9813      7461 7465 
 9813      00
 9814               	.LASF80:
 9815 0107 5F6E 6275 	.string"_nbuf"
 9815      6600 
 9816               	.LASF50:
 9817 010d 5F5F 746D 	.string"__tm_sec"
 9817      5F73 6563 
 9817      00
 9818               	.LASF28:
 9819 0116 5F54 6872 	.string"_Thread_Control"
 9819      6561 645F 
68K GAS   			page 226


 9819      436F 6E74 
 9819      726F 6C00 
 9820               	.LASF125:
 9821 0126 5F6C 3634 	.string"_l64a_buf"
 9821      615F 6275 
 9821      6600 
 9822               	.LASF229:
 9823 0130 4346 455F 	.string"CFE_SB_BufferD_t"
 9823      5342 5F42 
 9823      7566 6665 
 9823      7244 5F74 
 9823      00
 9824               	.LASF215:
 9825 0141 5069 7065 	.string"Pipe"
 9825      00
 9826               	.LASF291:
 9827 0146 4346 455F 	.string"CFE_SB_ZeroCopySend"
 9827      5342 5F5A 
 9827      6572 6F43 
 9827      6F70 7953 
 9827      656E 6400 
 9828               	.LASF89:
 9829 015a 5F73 7464 	.string"_stdin"
 9829      696E 00
 9830               	.LASF270:
 9831 0161 4576 656E 	.string"EventFilters"
 9831      7446 696C 
 9831      7465 7273 
 9831      00
 9832               	.LASF238:
 9833 016e 4170 7049 	.string"AppID"
 9833      4400 
 9834               	.LASF77:
 9835 0174 5F73 6565 	.string"_seek"
 9835      6B00 
 9836               	.LASF271:
 9837 017a 6366 655F 	.string"cfe_sb_t"
 9837      7362 5F74 
 9837      00
 9838               	.LASF113:
 9839 0183 5F6D 756C 	.string"_mult"
 9839      7400 
 9840               	.LASF279:
 9841 0189 5069 7065 	.string"PipeDscPtr"
 9841      4473 6350 
 9841      7472 00
 9842               	.LASF207:
 9843 0194 5342 4275 	.string"SBBuffersInUse"
 9843      6666 6572 
 9843      7349 6E55 
 9843      7365 00
 9844               	.LASF246:
 9845 01a3 5379 7351 	.string"SysQueueId"
 9845      7565 7565 
 9845      4964 00
 9846               	.LASF293:
 9847 01ae 5074 7232 	.string"Ptr2Release"
68K GAS   			page 227


 9847      5265 6C65 
 9847      6173 6500 
 9848               	.LASF191:
 9849 01ba 5069 7065 	.string"PipeId"
 9849      4964 00
 9850               	.LASF239:
 9851 01c1 4346 455F 	.string"CFE_SB_ZeroCopyD_t"
 9851      5342 5F5A 
 9851      6572 6F43 
 9851      6F70 7944 
 9851      5F74 00
 9852               	.LASF37:
 9853 01d4 5F5F 7763 	.string"__wch"
 9853      6800 
 9854               	.LASF72:
 9855 01da 5F66 696C 	.string"_file"
 9855      6500 
 9856               	.LASF166:
 9857 01e0 5072 6F63 	.string"ProcessorId"
 9857      6573 736F 
 9857      7249 6400 
 9858               	.LASF59:
 9859 01ec 5F6F 6E5F 	.string"_on_exit_args"
 9859      6578 6974 
 9859      5F61 7267 
 9859      7300 
 9860               	.LASF172:
 9861 01fa 436F 6D6D 	.string"CommandCnt"
 9861      616E 6443 
 9861      6E74 00
 9862               	.LASF278:
 9863 0205 4346 455F 	.string"CFE_SB"
 9863      5342 00
 9864               	.LASF179:
 9865 020c 5375 6273 	.string"SubscribeErrCnt"
 9865      6372 6962 
 9865      6545 7272 
 9865      436E 7400 
 9866               	.LASF285:
 9867 021c 4E62 7974 	.string"Nbytes"
 9867      6573 00
 9868               	.LASF128:
 9869 0223 5F6D 6272 	.string"_mbrlen_state"
 9869      6C65 6E5F 
 9869      7374 6174 
 9869      6500 
 9870               	.LASF3:
 9871 0231 6C6F 6E67 	.string"long int"
 9871      2069 6E74 
 9871      00
 9872               	.LASF139:
 9873 023a 5F69 6D70 	.string"_impure_ptr"
 9873      7572 655F 
 9873      7074 7200 
 9874               	.LASF203:
 9875 0246 4D61 784D 	.string"MaxMemAllowed"
 9875      656D 416C 
68K GAS   			page 228


 9875      6C6F 7765 
 9875      6400 
 9876               	.LASF308:
 9877 0254 546C 6D43 	.string"TlmCntIncrements"
 9877      6E74 496E 
 9877      6372 656D 
 9877      656E 7473 
 9877      00
 9878               	.LASF99:
 9879 0265 5F72 6573 	.string"_result_k"
 9879      756C 745F 
 9879      6B00 
 9880               	.LASF152:
 9881 026f 4343 5344 	.string"CCSDS_TlmSecHdr_t"
 9881      535F 546C 
 9881      6D53 6563 
 9881      4864 725F 
 9881      7400 
 9882               	.LASF69:
 9883 0281 5F73 697A 	.string"_size"
 9883      6500 
 9884               	.LASF223:
 9885 0287 4346 455F 	.string"CFE_SB_PrevSubMsg_Payload_t"
 9885      5342 5F50 
 9885      7265 7653 
 9885      7562 4D73 
 9885      675F 5061 
 9886               	.LASF118:
 9887 02a3 5F6C 6F63 	.string"_localtime_buf"
 9887      616C 7469 
 9887      6D65 5F62 
 9887      7566 00
 9888               	.LASF162:
 9889 02b2 5072 696F 	.string"Priority"
 9889      7269 7479 
 9889      00
 9890               	.LASF254:
 9891 02bb 5061 7274 	.string"Partition"
 9891      6974 696F 
 9891      6E00 
 9892               	.LASF54:
 9893 02c5 5F5F 746D 	.string"__tm_mon"
 9893      5F6D 6F6E 
 9893      00
 9894               	.LASF244:
 9895 02ce 5069 7065 	.string"PipeName"
 9895      4E61 6D65 
 9895      00
 9896               	.LASF226:
 9897 02d7 5369 7A65 	.string"Size"
 9897      00
 9898               	.LASF115:
 9899 02dc 5F75 6E75 	.string"_unused_rand"
 9899      7365 645F 
 9899      7261 6E64 
 9899      00
 9900               	.LASF1:
68K GAS   			page 229


 9901 02e9 7369 676E 	.string"signed char"
 9901      6564 2063 
 9901      6861 7200 
 9902               	.LASF316:
 9903 02f5 4346 455F 	.string"CFE_SB_PassMsg"
 9903      5342 5F50 
 9903      6173 734D 
 9903      7367 00
 9904               	.LASF155:
 9905 0304 4346 455F 	.string"CFE_SB_Msg_t"
 9905      5342 5F4D 
 9905      7367 5F74 
 9905      00
 9906               	.LASF189:
 9907 0311 5061 796C 	.string"Payload"
 9907      6F61 6400 
 9908               	.LASF262:
 9909 0319 484B 546C 	.string"HKTlmMsg"
 9909      6D4D 7367 
 9909      00
 9910               	.LASF27:
 9911 0322 5F54 6872 	.string"_Thread_queue_Heads"
 9911      6561 645F 
 9911      7175 6575 
 9911      655F 4865 
 9911      6164 7300 
 9912               	.LASF273:
 9913 0336 4572 7253 	.string"ErrStat"
 9913      7461 7400 
 9914               	.LASF0:
 9915 033e 756E 7369 	.string"unsigned char"
 9915      676E 6564 
 9915      2063 6861 
 9915      7200 
 9916               	.LASF286:
 9917 034c 4675 6C6C 	.string"FullName"
 9917      4E61 6D65 
 9917      00
 9918               	.LASF94:
 9919 0355 5F75 6E73 	.string"_unspecified_locale_info"
 9919      7065 6369 
 9919      6669 6564 
 9919      5F6C 6F63 
 9919      616C 655F 
 9920               	.LASF253:
 9921 036e 506F 6F6C 	.string"PoolHdl"
 9921      4864 6C00 
 9922               	.LASF87:
 9923 0376 5F72 6565 	.string"_reent"
 9923      6E74 00
 9924               	.LASF206:
 9925 037d 4D61 7853 	.string"MaxSubscriptionsAllowed"
 9925      7562 7363 
 9925      7269 7074 
 9925      696F 6E73 
 9925      416C 6C6F 
 9926               	.LASF140:
68K GAS   			page 230


 9927 0395 5F67 6C6F 	.string"_global_impure_ptr"
 9927      6261 6C5F 
 9927      696D 7075 
 9927      7265 5F70 
 9927      7472 00
 9928               	.LASF342:
 9929 03a8 2F68 6F6D 	.string"/home/simulink/cFS_FreeRTOS_seL4/cfe/fsw/cfe-core/src/sb/cfe_sb_api.c"
 9929      652F 7369 
 9929      6D75 6C69 
 9929      6E6B 2F63 
 9929      4653 5F46 
 9930               	.LASF329:
 9931 03ee 4346 455F 	.string"CFE_SB_Subscribe"
 9931      5342 5F53 
 9931      7562 7363 
 9931      7269 6265 
 9931      00
 9932               	.LASF22:
 9933 03ff 5F54 6872 	.string"_Thread_queue_Queue"
 9933      6561 645F 
 9933      7175 6575 
 9933      655F 5175 
 9933      6575 6500 
 9934               	.LASF13:
 9935 0413 6368 6172 	.string"char"
 9935      00
 9936               	.LASF258:
 9937 0418 5365 6E64 	.string"SenderReporting"
 9937      6572 5265 
 9937      706F 7274 
 9937      696E 6700 
 9938               	.LASF66:
 9939 0428 5F66 6E73 	.string"_fns"
 9939      00
 9940               	.LASF78:
 9941 042d 5F63 6C6F 	.string"_close"
 9941      7365 00
 9942               	.LASF151:
 9943 0434 5469 6D65 	.string"Time"
 9943      00
 9944               	.LASF311:
 9945 0439 4275 6644 	.string"BufDscPtr"
 9945      7363 5074 
 9945      7200 
 9946               	.LASF274:
 9947 0443 4346 455F 	.string"CFE_SB_SendErrEventBuf_t"
 9947      5342 5F53 
 9947      656E 6445 
 9947      7272 4576 
 9947      656E 7442 
 9948               	.LASF12:
 9949 045c 6370 7561 	.string"cpuaddr"
 9949      6464 7200 
 9950               	.LASF21:
 9951 0464 5F54 6963 	.string"_Ticket_lock_Control"
 9951      6B65 745F 
 9951      6C6F 636B 
68K GAS   			page 231


 9951      5F43 6F6E 
 9951      7472 6F6C 
 9952               	.LASF188:
 9953 0479 4346 455F 	.string"CFE_SB_HKMsg_Payload_t"
 9953      5342 5F48 
 9953      4B4D 7367 
 9953      5F50 6179 
 9953      6C6F 6164 
 9954               	.LASF290:
 9955 0490 4275 6666 	.string"BufferHandle"
 9955      6572 4861 
 9955      6E64 6C65 
 9955      00
 9956               	.LASF174:
 9957 049d 4E6F 5375 	.string"NoSubscribersCnt"
 9957      6273 6372 
 9957      6962 6572 
 9957      7343 6E74 
 9957      00
 9958               	.LASF153:
 9959 04ae 4477 6F72 	.string"Dword"
 9959      6400 
 9960               	.LASF25:
 9961 04b4 5F6F 776E 	.string"_owner"
 9961      6572 00
 9962               	.LASF161:
 9963 04bb 4346 455F 	.string"CFE_SB_ZeroCopyHandle_t"
 9963      5342 5F5A 
 9963      6572 6F43 
 9963      6F70 7948 
 9963      616E 646C 
 9964               	.LASF264:
 9965 04d3 436D 6450 	.string"CmdPipe"
 9965      6970 6500 
 9966               	.LASF185:
 9967 04db 4D65 6D50 	.string"MemPoolHandle"
 9967      6F6F 6C48 
 9967      616E 646C 
 9967      6500 
 9968               	.LASF269:
 9969 04e9 5375 6252 	.string"SubRprtMsg"
 9969      7072 744D 
 9969      7367 00
 9970               	.LASF170:
 9971 04f4 4D61 736B 	.string"Mask"
 9971      00
 9972               	.LASF198:
 9973 04f9 4D61 784D 	.string"MaxMsgIdsAllowed"
 9973      7367 4964 
 9973      7341 6C6C 
 9973      6F77 6564 
 9973      00
 9974               	.LASF304:
 9975 050a 4346 455F 	.string"CFE_SB_RcvMsg"
 9975      5342 5F52 
 9975      6376 4D73 
 9975      6700 
68K GAS   			page 232


 9976               	.LASF321:
 9977 0518 4346 455F 	.string"CFE_SB_UnsubscribeWithAppId"
 9977      5342 5F55 
 9977      6E73 7562 
 9977      7363 7269 
 9977      6265 5769 
 9978               	.LASF173:
 9979 0534 436D 6445 	.string"CmdErrCnt"
 9979      7272 436E 
 9979      7400 
 9980               	.LASF145:
 9981 053e 5F74 7A6E 	.string"_tzname"
 9981      616D 6500 
 9982               	.LASF33:
 9983 0546 5F6E 6573 	.string"_nest_level"
 9983      745F 6C65 
 9983      7665 6C00 
 9984               	.LASF184:
 9985 0552 4D73 674C 	.string"MsgLimErrCnt"
 9985      696D 4572 
 9985      7243 6E74 
 9985      00
 9986               	.LASF250:
 9987 055f 4375 7272 	.string"CurrentBuff"
 9987      656E 7442 
 9987      7566 6600 
 9988               	.LASF208:
 9989 056b 5065 616B 	.string"PeakSBBuffersInUse"
 9989      5342 4275 
 9989      6666 6572 
 9989      7349 6E55 
 9989      7365 00
 9990               	.LASF232:
 9991 057e 4275 6666 	.string"BuffCount"
 9991      436F 756E 
 9991      7400 
 9992               	.LASF74:
 9993 0588 5F63 6F6F 	.string"_cookie"
 9993      6B69 6500 
 9994               	.LASF332:
 9995 0590 4346 455F 	.string"CFE_SB_DeletePipeFull"
 9995      5342 5F44 
 9995      656C 6574 
 9995      6550 6970 
 9995      6546 756C 
 9996               	.LASF48:
 9997 05a6 5F77 6473 	.string"_wds"
 9997      00
 9998               	.LASF193:
 9999 05ab 496E 5573 	.string"InUse"
 9999      6500 
 10000               	.LASF105:
 10001 05b1 5F73 6967 	.string"_sig_func"
 10001      5F66 756E 
 10001      6300 
 10002               	.LASF216:
 10003 05bb 4346 455F 	.string"CFE_SB_SubRprtMsg_Payload_t"
68K GAS   			page 233


 10003      5342 5F53 
 10003      7562 5270 
 10003      7274 4D73 
 10003      675F 5061 
 10004               	.LASF339:
 10005 05d7 4346 455F 	.string"CFE_SB_CreatePipe"
 10005      5342 5F43 
 10005      7265 6174 
 10005      6550 6970 
 10005      6500 
 10006               	.LASF260:
 10007 05e9 5A65 726F 	.string"ZeroCopyTail"
 10007      436F 7079 
 10007      5461 696C 
 10007      00
 10008               	.LASF82:
 10009 05f6 5F6F 6666 	.string"_offset"
 10009      7365 7400 
 10010               	.LASF103:
 10011 05fe 5F63 7674 	.string"_cvtbuf"
 10011      6275 6600 
 10012               	.LASF18:
 10013 0606 5F6E 6578 	.string"_next_ticket"
 10013      745F 7469 
 10013      636B 6574 
 10013      00
 10014               	.LASF296:
 10015 0613 4346 455F 	.string"CFE_SB_ZeroCopyReleasePtr"
 10015      5342 5F5A 
 10015      6572 6F43 
 10015      6F70 7952 
 10015      656C 6561 
 10016               	.LASF312:
 10017 062d 546F 7461 	.string"TotalMsgSize"
 10017      6C4D 7367 
 10017      5369 7A65 
 10017      00
 10018               	.LASF100:
 10019 063a 5F70 3573 	.string"_p5s"
 10019      00
 10020               	.LASF10:
 10021 063f 6C6F 6E67 	.string"long unsigned int"
 10021      2075 6E73 
 10021      6967 6E65 
 10021      6420 696E 
 10021      7400 
 10022               	.LASF319:
 10023 0651 5069 7065 	.string"PipeIdx"
 10023      4964 7800 
 10024               	.LASF227:
 10025 0659 4275 6666 	.string"Buffer"
 10025      6572 00
 10026               	.LASF245:
 10027 0660 4170 7049 	.string"AppId"
 10027      6400 
 10028               	.LASF70:
 10029 0666 5F5F 7346 	.string"__sFILE"
68K GAS   			page 234


 10029      494C 4500 
 10030               	.LASF96:
 10031 066e 5F5F 7364 	.string"__sdidinit"
 10031      6964 696E 
 10031      6974 00
 10032               	.LASF86:
 10033 0679 5F66 6C61 	.string"_flags2"
 10033      6773 3200 
 10034               	.LASF287:
 10035 0681 4346 455F 	.string"CFE_SB_ReadQueue"
 10035      5342 5F52 
 10035      6561 6451 
 10035      7565 7565 
 10035      00
 10036               	.LASF301:
 10037 0692 6164 6472 	.string"address"
 10037      6573 7300 
 10038               	.LASF255:
 10039 069a 4346 455F 	.string"CFE_SB_MemParams_t"
 10039      5342 5F4D 
 10039      656D 5061 
 10039      7261 6D73 
 10039      5F74 00
 10040               	.LASF34:
 10041 06ad 5F4C 4F43 	.string"_LOCK_RECURSIVE_T"
 10041      4B5F 5245 
 10041      4355 5253 
 10041      4956 455F 
 10041      5400 
 10042               	.LASF88:
 10043 06bf 5F65 7272 	.string"_errno"
 10043      6E6F 00
 10044               	.LASF265:
 10045 06c6 436D 6450 	.string"CmdPipePktPtr"
 10045      6970 6550 
 10045      6B74 5074 
 10045      7200 
 10046               	.LASF126:
 10047 06d4 5F73 6967 	.string"_signal_buf"
 10047      6E61 6C5F 
 10047      6275 6600 
 10048               	.LASF282:
 10049 06e0 4D65 7373 	.string"Message"
 10049      6167 6500 
 10050               	.LASF44:
 10051 06e8 5F42 6967 	.string"_Bigint"
 10051      696E 7400 
 10052               	.LASF251:
 10053 06f0 546F 5472 	.string"ToTrashBuff"
 10053      6173 6842 
 10053      7566 6600 
 10054               	.LASF46:
 10055 06fc 5F6D 6178 	.string"_maxwds"
 10055      7764 7300 
 10056               	.LASF247:
 10057 0704 4C61 7374 	.string"LastSender"
 10057      5365 6E64 
68K GAS   			page 235


 10057      6572 00
 10058               	.LASF190:
 10059 070f 4346 455F 	.string"CFE_SB_HKMsg_t"
 10059      5342 5F48 
 10059      4B4D 7367 
 10059      5F74 00
 10060               	.LASF97:
 10061 071e 5F5F 636C 	.string"__cleanup"
 10061      6561 6E75 
 10061      7000 
 10062               	.LASF305:
 10063 0728 4275 6650 	.string"BufPtr"
 10063      7472 00
 10064               	.LASF283:
 10065 072f 5374 6174 	.string"Status"
 10065      7573 00
 10066               	.LASF192:
 10067 0736 4465 7074 	.string"Depth"
 10067      6800 
 10068               	.LASF275:
 10069 073c 4576 7473 	.string"EvtsToSnd"
 10069      546F 536E 
 10069      6400 
 10070               	.LASF302:
 10071 0746 4346 455F 	.string"CFE_SB_GetLastSenderId"
 10071      5342 5F47 
 10071      6574 4C61 
 10071      7374 5365 
 10071      6E64 6572 
 10072               	.LASF93:
 10073 075d 5F65 6D65 	.string"_emergency"
 10073      7267 656E 
 10073      6379 00
 10074               	.LASF177:
 10075 0768 496E 7465 	.string"InternalErrCnt"
 10075      726E 616C 
 10075      4572 7243 
 10075      6E74 00
 10076               	.LASF4:
 10077 0777 6C6F 6E67 	.string"long long int"
 10077      206C 6F6E 
 10077      6720 696E 
 10077      7400 
 10078               	.LASF230:
 10079 0785 4163 7469 	.string"Active"
 10079      7665 00
 10080               	.LASF109:
 10081 078c 5F6E 696F 	.string"_niobs"
 10081      6273 00
 10082               	.LASF106:
 10083 0793 5F5F 7367 	.string"__sglue"
 10083      6C75 6500 
 10084               	.LASF135:
 10085 079b 5F6E 6D61 	.string"_nmalloc"
 10085      6C6C 6F63 
 10085      00
 10086               	.LASF119:
68K GAS   			page 236


 10087 07a4 5F67 616D 	.string"_gamma_signgam"
 10087      6D61 5F73 
 10087      6967 6E67 
 10087      616D 00
 10088               	.LASF101:
 10089 07b3 5F66 7265 	.string"_freelist"
 10089      656C 6973 
 10089      7400 
 10090               	.LASF110:
 10091 07bd 5F69 6F62 	.string"_iobs"
 10091      7300 
 10092               	.LASF108:
 10093 07c3 5F67 6C75 	.string"_glue"
 10093      6500 
 10094               	.LASF47:
 10095 07c9 5F73 6967 	.string"_sign"
 10095      6E00 
 10096               	.LASF323:
 10097 07cf 4361 6C6C 	.string"CallerId"
 10097      6572 4964 
 10097      00
 10098               	.LASF176:
 10099 07d8 4D73 6752 	.string"MsgReceiveErrCnt"
 10099      6563 6569 
 10099      7665 4572 
 10099      7243 6E74 
 10099      00
 10100               	.LASF225:
 10101 07e9 5573 6543 	.string"UseCount"
 10101      6F75 6E74 
 10101      00
 10102               	.LASF20:
 10103 07f2 756E 7369 	.string"unsigned int"
 10103      676E 6564 
 10103      2069 6E74 
 10103      00
 10104               	.LASF143:
 10105 07ff 5F74 696D 	.string"_timezone"
 10105      657A 6F6E 
 10105      6500 
 10106               	.LASF261:
 10107 0809 5069 7065 	.string"PipeTbl"
 10107      5462 6C00 
 10108               	.LASF157:
 10109 0811 4346 455F 	.string"CFE_SB_TimeOut_t"
 10109      5342 5F54 
 10109      696D 654F 
 10109      7574 5F74 
 10109      00
 10110               	.LASF133:
 10111 0822 5F68 5F65 	.string"_h_errno"
 10111      7272 6E6F 
 10111      00
 10112               	.LASF328:
 10113 082b 4465 7374 	.string"DestBlkPtr"
 10113      426C 6B50 
 10113      7472 00
68K GAS   			page 237


 10114               	.LASF131:
 10115 0836 5F77 6372 	.string"_wcrtomb_state"
 10115      746F 6D62 
 10115      5F73 7461 
 10115      7465 00
 10116               	.LASF171:
 10117 0845 4346 455F 	.string"CFE_EVS_BinFilter_t"
 10117      4556 535F 
 10117      4269 6E46 
 10117      696C 7465 
 10117      725F 7400 
 10118               	.LASF53:
 10119 0859 5F5F 746D 	.string"__tm_mday"
 10119      5F6D 6461 
 10119      7900 
 10120               	.LASF330:
 10121 0863 4346 455F 	.string"CFE_SB_SubscribeLocal"
 10121      5342 5F53 
 10121      7562 7363 
 10121      7269 6265 
 10121      4C6F 6361 
 10122               	.LASF156:
 10123 0879 4346 455F 	.string"CFE_SB_TlmHdr_t"
 10123      5342 5F54 
 10123      6C6D 4864 
 10123      725F 7400 
 10124               	.LASF104:
 10125 0889 5F6E 6577 	.string"_new"
 10125      00
 10126               	.LASF26:
 10127 088e 5F6E 616D 	.string"_name"
 10127      6500 
 10128               	.LASF79:
 10129 0894 5F75 6275 	.string"_ubuf"
 10129      6600 
 10130               	.LASF163:
 10131 089a 5265 6C69 	.string"Reliability"
 10131      6162 696C 
 10131      6974 7900 
 10132               	.LASF91:
 10133 08a6 5F73 7464 	.string"_stderr"
 10133      6572 7200 
 10134               	.LASF124:
 10135 08ae 5F77 6374 	.string"_wctomb_state"
 10135      6F6D 625F 
 10135      7374 6174 
 10135      6500 
 10136               	.LASF85:
 10137 08bc 5F6D 6273 	.string"_mbstate"
 10137      7461 7465 
 10137      00
 10138               	.LASF218:
 10139 08c5 4346 455F 	.string"CFE_SB_SubEntries_t"
 10139      5342 5F53 
 10139      7562 456E 
 10139      7472 6965 
 10139      735F 7400 
68K GAS   			page 238


 10140               	.LASF120:
 10141 08d9 5F72 616E 	.string"_rand_next"
 10141      645F 6E65 
 10141      7874 00
 10142               	.LASF71:
 10143 08e4 5F66 6C61 	.string"_flags"
 10143      6773 00
 10144               	.LASF212:
 10145 08eb 4346 455F 	.string"CFE_SB_StatMsg_t"
 10145      5342 5F53 
 10145      7461 744D 
 10145      7367 5F74 
 10145      00
 10146               	.LASF326:
 10147 08fc 5175 616C 	.string"Quality"
 10147      6974 7900 
 10148               	.LASF64:
 10149 0904 5F61 7465 	.string"_atexit"
 10149      7869 7400 
 10150               	.LASF204:
 10151 090c 5375 6273 	.string"SubscriptionsInUse"
 10151      6372 6970 
 10151      7469 6F6E 
 10151      7349 6E55 
 10151      7365 00
 10152               	.LASF39:
 10153 091f 5F5F 636F 	.string"__count"
 10153      756E 7400 
 10154               	.LASF228:
 10155 0927 5365 6E64 	.string"Sender"
 10155      6572 00
 10156               	.LASF222:
 10157 092e 456E 7472 	.string"Entry"
 10157      7900 
 10158               	.LASF307:
 10159 0934 4346 455F 	.string"CFE_SB_SendMsgFull"
 10159      5342 5F53 
 10159      656E 644D 
 10159      7367 4675 
 10159      6C6C 00
 10160               	.LASF180:
 10161 0947 5370 6172 	.string"Spare"
 10161      6500 
 10162               	.LASF333:
 10163 094d 5069 7065 	.string"PipeTblIdx"
 10163      5462 6C49 
 10163      6478 00
 10164               	.LASF336:
 10165 0958 5069 7065 	.string"PipeMsgPtr"
 10165      4D73 6750 
 10165      7472 00
 10166               	.LASF194:
 10167 0963 5065 616B 	.string"PeakInUse"
 10167      496E 5573 
 10167      6500 
 10168               	.LASF340:
 10169 096d 5069 7065 	.string"PipeIdPtr"
68K GAS   			page 239


 10169      4964 5074 
 10169      7200 
 10170               	.LASF209:
 10171 0977 4D61 7850 	.string"MaxPipeDepthAllowed"
 10171      6970 6544 
 10171      6570 7468 
 10171      416C 6C6F 
 10171      7765 6400 
 10172               	.LASF56:
 10173 098b 5F5F 746D 	.string"__tm_wday"
 10173      5F77 6461 
 10173      7900 
 10174               	.LASF154:
 10175 0995 4279 7465 	.string"Byte"
 10175      00
 10176               	.LASF15:
 10177 099a 6C6F 6E67 	.string"long double"
 10177      2064 6F75 
 10177      626C 6500 
 10178               	.LASF57:
 10179 09a6 5F5F 746D 	.string"__tm_yday"
 10179      5F79 6461 
 10179      7900 
 10180               	.LASF201:
 10181 09b0 4D61 7850 	.string"MaxPipesAllowed"
 10181      6970 6573 
 10181      416C 6C6F 
 10181      7765 6400 
 10182               	.LASF280:
 10183 09c0 5473 6B49 	.string"TskId"
 10183      6400 
 10184               	.LASF31:
 10185 09c6 5F4D 7574 	.string"_Mutex_recursive_Control"
 10185      6578 5F72 
 10185      6563 7572 
 10185      7369 7665 
 10185      5F43 6F6E 
 10186               	.LASF24:
 10187 09df 5F68 6561 	.string"_heads"
 10187      6473 00
 10188               	.LASF112:
 10189 09e6 5F73 6565 	.string"_seed"
 10189      6400 
 10190               	.LASF183:
 10191 09ec 5069 7065 	.string"PipeOverflowErrCnt"
 10191      4F76 6572 
 10191      666C 6F77 
 10191      4572 7243 
 10191      6E74 00
 10192               	.LASF317:
 10193 09ff 4346 455F 	.string"CFE_SB_SendMsg"
 10193      5342 5F53 
 10193      656E 644D 
 10193      7367 00
 10194               	.LASF30:
 10195 0a0e 5F51 7565 	.string"_Queue"
 10195      7565 00
68K GAS   			page 240


 10196               	.LASF248:
 10197 0a15 5175 6575 	.string"QueueDepth"
 10197      6544 6570 
 10197      7468 00
 10198               	.LASF17:
 10199 0a20 5F66 706F 	.string"_fpos_t"
 10199      735F 7400 
 10200               	.LASF38:
 10201 0a28 5F5F 7763 	.string"__wchb"
 10201      6862 00
 10202               	.LASF315:
 10203 0a2f 5374 6174 	.string"StatObj"
 10203      4F62 6A00 
 10204               	.LASF337:
 10205 0a37 4346 455F 	.string"CFE_SB_DeletePipeWithAppId"
 10205      5342 5F44 
 10205      656C 6574 
 10205      6550 6970 
 10205      6557 6974 
 10206               	.LASF257:
 10207 0a52 5375 6273 	.string"SubscriptionReporting"
 10207      6372 6970 
 10207      7469 6F6E 
 10207      5265 706F 
 10207      7274 696E 
 10208               	.LASF123:
 10209 0a68 5F6D 6274 	.string"_mbtowc_state"
 10209      6F77 635F 
 10209      7374 6174 
 10209      6500 
 10210               	.LASF240:
 10211 0a76 4465 7374 	.string"Destinations"
 10211      696E 6174 
 10211      696F 6E73 
 10211      00
 10212               	.LASF268:
 10213 0a83 5072 6576 	.string"PrevSubMsg"
 10213      5375 624D 
 10213      7367 00
 10214               	.LASF297:
 10215 0a8e 5374 6174 	.string"Stat2"
 10215      3200 
 10216               	.LASF219:
 10217 0a94 506B 7453 	.string"PktSegment"
 10217      6567 6D65 
 10217      6E74 00
 10218               	.LASF11:
 10219 0a9f 6C6F 6E67 	.string"long long unsigned int"
 10219      206C 6F6E 
 10219      6720 756E 
 10219      7369 676E 
 10219      6564 2069 
 10220               	.LASF338:
 10221 0ab6 4346 455F 	.string"CFE_SB_DeletePipe"
 10221      5342 5F44 
 10221      656C 6574 
 10221      6550 6970 
68K GAS   			page 241


 10221      6500 
 10222               	.LASF343:
 10223 0ac8 2F68 6F6D 	.string"/home/simulink/cFS_FreeRTOS_seL4/build/cpu1/cfe/sb"
 10223      652F 7369 
 10223      6D75 6C69 
 10223      6E6B 2F63 
 10223      4653 5F46 
 10224               	.LASF221:
 10225 0afb 456E 7472 	.string"Entries"
 10225      6965 7300 
 10226               	.LASF61:
 10227 0b03 5F64 736F 	.string"_dso_handle"
 10227      5F68 616E 
 10227      646C 6500 
 10228               	.LASF322:
 10229 0b0f 4346 455F 	.string"CFE_SB_UnsubscribeLocal"
 10229      5342 5F55 
 10229      6E73 7562 
 10229      7363 7269 
 10229      6265 4C6F 
 10230               	.LASF111:
 10231 0b27 5F72 616E 	.string"_rand48"
 10231      6434 3800 
 10232               	.LASF159:
 10233 0b2f 4346 455F 	.string"CFE_SB_MsgId_t"
 10233      5342 5F4D 
 10233      7367 4964 
 10233      5F74 00
 10234               	.LASF310:
 10235 0b3e 5274 6754 	.string"RtgTblPtr"
 10235      626C 5074 
 10235      7200 
 10236               	.LASF90:
 10237 0b48 5F73 7464 	.string"_stdout"
 10237      6F75 7400 
 10238               	.LASF81:
 10239 0b50 5F62 6C6B 	.string"_blksize"
 10239      7369 7A65 
 10239      00
 10240               	.LASF175:
 10241 0b59 4D73 6753 	.string"MsgSendErrCnt"
 10241      656E 6445 
 10241      7272 436E 
 10241      7400 
 10242               	.LASF68:
 10243 0b67 5F62 6173 	.string"_base"
 10243      6500 
 10244               	.LASF116:
 10245 0b6d 5F73 7472 	.string"_strtok_last"
 10245      746F 6B5F 
 10245      6C61 7374 
 10245      00
 10246               	.LASF195:
 10247 0b7a 4346 455F 	.string"CFE_SB_PipeDepthStats_t"
 10247      5342 5F50 
 10247      6970 6544 
 10247      6570 7468 
68K GAS   			page 242


 10247      5374 6174 
 10248               	.LASF129:
 10249 0b92 5F6D 6272 	.string"_mbrtowc_state"
 10249      746F 7763 
 10249      5F73 7461 
 10249      7465 00
 10250               	.LASF211:
 10251 0ba1 4346 455F 	.string"CFE_SB_StatMsg_Payload_t"
 10251      5342 5F53 
 10251      7461 744D 
 10251      7367 5F50 
 10251      6179 6C6F 
 10252               	.LASF42:
 10253 0bba 5F66 6C6F 	.string"_flock_t"
 10253      636B 5F74 
 10253      00
 10254               	.LASF107:
 10255 0bc3 5F5F 4649 	.string"__FILE"
 10255      4C45 00
 10256               	.LASF84:
 10257 0bca 5F6C 6F63 	.string"_lock"
 10257      6B00 
 10258               	.LASF41:
 10259 0bd0 5F6D 6273 	.string"_mbstate_t"
 10259      7461 7465 
 10259      5F74 00
 10260               	.LASF121:
 10261 0bdb 5F72 3438 	.string"_r48"
 10261      00
 10262               	.LASF149:
 10263 0be0 4C65 6E67 	.string"Length"
 10263      7468 00
 10264               	.LASF224:
 10265 0be7 4346 455F 	.string"CFE_SB_PrevSubMsg_t"
 10265      5342 5F50 
 10265      7265 7653 
 10265      7562 4D73 
 10265      675F 7400 
 10266               	.LASF36:
 10267 0bfb 7769 6E74 	.string"wint_t"
 10267      5F74 00
 10268               	.LASF182:
 10269 0c02 5370 6172 	.string"Spare2Align"
 10269      6532 416C 
 10269      6967 6E00 
 10270               	.LASF220:
 10271 0c0e 546F 7461 	.string"TotalSegments"
 10271      6C53 6567 
 10271      6D65 6E74 
 10271      7300 
 10272               	.LASF45:
 10273 0c1c 5F6E 6578 	.string"_next"
 10273      7400 
 10274               	.LASF83:
 10275 0c22 5F64 6174 	.string"_data"
 10275      6100 
 10276               	.LASF331:
68K GAS   			page 243


 10277 0c28 4346 455F 	.string"CFE_SB_SubscribeEx"
 10277      5342 5F53 
 10277      7562 7363 
 10277      7269 6265 
 10277      4578 00
 10278               	.LASF276:
 10279 0c3b 4576 7442 	.string"EvtBuf"
 10279      7566 00
 10280               	.LASF313:
 10281 0c42 5274 6754 	.string"RtgTblIdx"
 10281      626C 4964 
 10281      7800 
 10282               	.LASF292:
 10283 0c4c 4346 455F 	.string"CFE_SB_ZeroCopyReleaseDesc"
 10283      5342 5F5A 
 10283      6572 6F43 
 10283      6F70 7952 
 10283      656C 6561 
 10284               	.LASF165:
 10285 0c67 4346 455F 	.string"CFE_SB_Default_Qos"
 10285      5342 5F44 
 10285      6566 6175 
 10285      6C74 5F51 
 10285      6F73 00
 10286               	.LASF241:
 10287 0c7a 5365 7143 	.string"SeqCnt"
 10287      6E74 00
 10288               	.LASF158:
 10289 0c81 4346 455F 	.string"CFE_SB_PipeId_t"
 10289      5342 5F50 
 10289      6970 6549 
 10289      645F 7400 
 10290               	.LASF306:
 10291 0c91 4465 7374 	.string"DestPtr"
 10291      5074 7200 
 10292               	.LASF210:
 10293 0c99 5069 7065 	.string"PipeDepthStats"
 10293      4465 7074 
 10293      6853 7461 
 10293      7473 00
 10294               	.LASF32:
 10295 0ca8 5F4D 7574 	.string"_Mutex"
 10295      6578 00
 10296               	.LASF281:
 10297 0caf 5469 6D65 	.string"Time_Out"
 10297      5F4F 7574 
 10297      00
 10298               	.LASF298:
 10299 0cb8 4346 455F 	.string"CFE_SB_ZeroCopyGetPtr"
 10299      5342 5F5A 
 10299      6572 6F43 
 10299      6F70 7947 
 10299      6574 5074 
 10300               	.LASF6:
 10301 0cce 7569 6E74 	.string"uint8"
 10301      3800 
 10302               	.LASF266:
68K GAS   			page 244


 10303 0cd4 4D73 674D 	.string"MsgMap"
 10303      6170 00
 10304               	.LASF167:
 10305 0cdb 4170 704E 	.string"AppName"
 10305      616D 6500 
 10306               	.LASF236:
 10307 0ce3 4E65 7874 	.string"Next"
 10307      00
 10308               	.LASF309:
 10309 0ce8 436F 7079 	.string"CopyMode"
 10309      4D6F 6465 
 10309      00
 10310               	.LASF256:
 10311 0cf1 5368 6172 	.string"SharedDataMutexId"
 10311      6564 4461 
 10311      7461 4D75 
 10311      7465 7849 
 10311      6400 
 10312               	.LASF122:
 10313 0d03 5F6D 626C 	.string"_mblen_state"
 10313      656E 5F73 
 10313      7461 7465 
 10313      00
 10314               	.LASF234:
 10315 0d10 5363 6F70 	.string"Scope"
 10315      6500 
 10316               	.LASF2:
 10317 0d16 7368 6F72 	.string"short int"
 10317      7420 696E 
 10317      7400 
 10318               	.LASF235:
 10319 0d20 5072 6576 	.string"Prev"
 10319      00
 10320               	.LASF320:
 10321 0d25 4D61 7463 	.string"MatchFound"
 10321      6846 6F75 
 10321      6E64 00
 10322               	.LASF263:
 10323 0d30 5374 6174 	.string"StatTlmMsg"
 10323      546C 6D4D 
 10323      7367 00
 10324               	.LASF187:
 10325 0d3b 556E 6D61 	.string"UnmarkedMem"
 10325      726B 6564 
 10325      4D65 6D00 
 10326               	.LASF142:
 10327 0d47 7375 626F 	.string"suboptarg"
 10327      7074 6172 
 10327      6700 
 10328               	.LASF62:
 10329 0d51 5F66 6E74 	.string"_fntypes"
 10329      7970 6573 
 10329      00
 10330               	.LASF55:
 10331 0d5a 5F5F 746D 	.string"__tm_year"
 10331      5F79 6561 
 10331      7200 
68K GAS   			page 245


 10332               	.LASF284:
 10333 0d64 5469 6D65 	.string"TimeOut"
 10333      4F75 7400 
 10334               	.LASF169:
 10335 0d6c 4576 656E 	.string"EventID"
 10335      7449 4400 
 10336               	.LASF299:
 10337 0d74 4D73 6753 	.string"MsgSize"
 10337      697A 6500 
 10338               	.LASF73:
 10339 0d7c 5F6C 6266 	.string"_lbfsize"
 10339      7369 7A65 
 10339      00
 10340               	.LASF272:
 10341 0d85 4576 656E 	.string"EventId"
 10341      7449 6400 
 10342               	.LASF186:
 10343 0d8d 4D65 6D49 	.string"MemInUse"
 10343      6E55 7365 
 10343      00
 10344               	.LASF92:
 10345 0d96 5F69 6E63 	.string"_inc"
 10345      00
 10346               	.LASF65:
 10347 0d9b 5F69 6E64 	.string"_ind"
 10347      00
 10348               	.LASF14:
 10349 0da0 5F5F 696E 	.string"__int64_t"
 10349      7436 345F 
 10349      7400 
 10350               	.LASF217:
 10351 0daa 4346 455F 	.string"CFE_SB_SubRprtMsg_t"
 10351      5342 5F53 
 10351      7562 5270 
 10351      7274 4D73 
 10351      675F 7400 
 10352               	.LASF67:
 10353 0dbe 5F5F 7362 	.string"__sbuf"
 10353      7566 00
 10354               	.LASF249:
 10355 0dc5 5365 6E64 	.string"SendErrors"
 10355      4572 726F 
 10355      7273 00
 10356               	.LASF63:
 10357 0dd0 5F69 735F 	.string"_is_cxa"
 10357      6378 6100 
 10358               	.LASF134:
 10359 0dd8 5F6E 6578 	.string"_nextf"
 10359      7466 00
 10360               	.LASF243:
 10361 0ddf 4346 455F 	.string"CFE_SB_RouteEntry_t"
 10361      5342 5F52 
 10361      6F75 7465 
 10361      456E 7472 
 10361      795F 7400 
 10362               	.LASF205:
 10363 0df3 5065 616B 	.string"PeakSubscriptionsInUse"
68K GAS   			page 246


 10363      5375 6273 
 10363      6372 6970 
 10363      7469 6F6E 
 10363      7349 6E55 
 10364               	.LASF196:
 10365 0e0a 4D73 6749 	.string"MsgIdsInUse"
 10365      6473 496E 
 10365      5573 6500 
 10366               	.LASF213:
 10367 0e16 5375 6254 	.string"SubType"
 10367      7970 6500 
 10368               	.LASF95:
 10369 0e1e 5F6C 6F63 	.string"_locale"
 10369      616C 6500 
 10370               	.LASF43:
 10371 0e26 5F5F 554C 	.string"__ULong"
 10371      6F6E 6700 
 10372               	.LASF303:
 10373 0e2e 5074 7232 	.string"Ptr2BufDescriptor"
 10373      4275 6644 
 10373      6573 6372 
 10373      6970 746F 
 10373      7200 
 10374               	.LASF277:
 10375 0e40 4346 455F 	.string"CFE_SB_EventBuf_t"
 10375      5342 5F45 
 10375      7665 6E74 
 10375      4275 665F 
 10375      7400 
 10376               	.LASF98:
 10377 0e52 5F72 6573 	.string"_result"
 10377      756C 7400 
 10378               	.LASF146:
 10379 0e5a 4346 455F 	.string"CFE_ES_MemHandle_t"
 10379      4553 5F4D 
 10379      656D 4861 
 10379      6E64 6C65 
 10379      5F74 00
 10380               	.LASF23:
 10381 0e6d 5F4C 6F63 	.string"_Lock"
 10381      6B00 
 10382               	.LASF19:
 10383 0e73 5F6E 6F77 	.string"_now_serving"
 10383      5F73 6572 
 10383      7669 6E67 
 10383      00
 10384               	.LASF16:
 10385 0e80 5F6F 6666 	.string"_off_t"
 10385      5F74 00
 10386               	.LASF197:
 10387 0e87 5065 616B 	.string"PeakMsgIdsInUse"
 10387      4D73 6749 
 10387      6473 496E 
 10387      5573 6500 
 10388               	.LASF199:
 10389 0e97 5069 7065 	.string"PipesInUse"
 10389      7349 6E55 
68K GAS   			page 247


 10389      7365 00
 10390               	.LASF114:
 10391 0ea2 5F61 6464 	.string"_add"
 10391      00
 10392               	.LASF168:
 10393 0ea7 4346 455F 	.string"CFE_SB_SenderId_t"
 10393      5342 5F53 
 10393      656E 6465 
 10393      7249 645F 
 10393      7400 
 10394               	.LASF341:
 10395 0eb9 474E 5520 	.string"GNU C11 7.3.0 20180125 (RTEMS 5, RSB d2b25d131d55adcb38219f2cd8cbec2436ee78ab, Newlib 3.0.0) -malign-int -mcpu=528x -g -O0 -fomit-frame-pointer"
 10395      4331 3120 
 10395      372E 332E 
 10395      3020 3230 
 10395      3138 3031 
 10396               	.LASF8:
 10397 0f49 7368 6F72 	.string"short unsigned int"
 10397      7420 756E 
 10397      7369 676E 
 10397      6564 2069 
 10397      6E74 00
 10398               	.LASF52:
 10399 0f5c 5F5F 746D 	.string"__tm_hour"
 10399      5F68 6F75 
 10399      7200 
 10400               	.LASF214:
 10401 0f66 4D73 6749 	.string"MsgId"
 10401      6400 
 10402               	.LASF200:
 10403 0f6c 5065 616B 	.string"PeakPipesInUse"
 10403      5069 7065 
 10403      7349 6E55 
 10403      7365 00
 10404               	.LASF233:
 10405 0f7b 4465 7374 	.string"DestCnt"
 10405      436E 7400 
 10406               	.LASF231:
 10407 0f83 4D73 6749 	.string"MsgId2PipeLim"
 10407      6432 5069 
 10407      7065 4C69 
 10407      6D00 
 10408               	.LASF5:
 10409 0f91 696E 7433 	.string"int32"
 10409      3200 
 10410               	.LASF288:
 10411 0f97 4346 455F 	.string"CFE_SB_ZeroCopyPass"
 10411      5342 5F5A 
 10411      6572 6F43 
 10411      6F70 7950 
 10411      6173 7300 
 10412               	.LASF259:
 10413 0fab 5374 6F70 	.string"StopRecurseFlags"
 10413      5265 6375 
 10413      7273 6546 
 10413      6C61 6773 
 10413      00
68K GAS   			page 248


 10414               	.LASF148:
 10415 0fbc 5365 7175 	.string"Sequence"
 10415      656E 6365 
 10415      00
 10416               	.LASF130:
 10417 0fc5 5F6D 6273 	.string"_mbsrtowcs_state"
 10417      7274 6F77 
 10417      6373 5F73 
 10417      7461 7465 
 10417      00
 10418               	.LASF334:
 10419 0fd6 5274 6E46 	.string"RtnFromVal"
 10419      726F 6D56 
 10419      616C 00
 10420               	.LASF202:
 10421 0fe1 5065 616B 	.string"PeakMemInUse"
 10421      4D65 6D49 
 10421      6E55 7365 
 10421      00
 10422               	.LASF327:
 10423 0fee 4D73 674C 	.string"MsgLim"
 10423      696D 00
 10424               	.LASF178:
 10425 0ff5 4372 6561 	.string"CreatePipeErrCnt"
 10425      7465 5069 
 10425      7065 4572 
 10425      7243 6E74 
 10425      00
 10426               	.LASF318:
 10427 1006 4346 455F 	.string"CFE_SB_UnsubscribeFull"
 10427      5342 5F55 
 10427      6E73 7562 
 10427      7363 7269 
 10427      6265 4675 
 10428               	.LASF60:
 10429 101d 5F66 6E61 	.string"_fnargs"
 10429      7267 7300 
 10430               	.LASF58:
 10431 1025 5F5F 746D 	.string"__tm_isdst"
 10431      5F69 7364 
 10431      7374 00
 10432               	.LASF242:
 10433 1030 4C69 7374 	.string"ListHeadPtr"
 10433      4865 6164 
 10433      5074 7200 
 10434               	.LASF144:
 10435 103c 5F64 6179 	.string"_daylight"
 10435      6C69 6768 
 10435      7400 
 10436               	.LASF314:
 10437 1046 5342 536E 	.string"SBSndErr"
 10437      6445 7272 
 10437      00
 10438               	.LASF335:
 10439 104f 4F77 6E65 	.string"Owner"
 10439      7200 
 10440               	.LASF160:
68K GAS   			page 249


 10441 1055 4346 455F 	.string"CFE_SB_MsgPtr_t"
 10441      5342 5F4D 
 10441      7367 5074 
 10441      725F 7400 
 10442               	.LASF51:
 10443 1065 5F5F 746D 	.string"__tm_min"
 10443      5F6D 696E 
 10443      00
 10444               	.LASF7:
 10445 106e 7569 6E74 	.string"uint16"
 10445      3136 00
 10446               	.LASF127:
 10447 1075 5F67 6574 	.string"_getdate_err"
 10447      6461 7465 
 10447      5F65 7272 
 10447      00
 10448               	.LASF267:
 10449 1082 526F 7574 	.string"RoutingTbl"
 10449      696E 6754 
 10449      626C 00
 10450               	.LASF164:
 10451 108d 4346 455F 	.string"CFE_SB_Qos_t"
 10451      5342 5F51 
 10451      6F73 5F74 
 10451      00
 10452               	.LASF324:
 10453 109a 4346 455F 	.string"CFE_SB_Unsubscribe"
 10453      5342 5F55 
 10453      6E73 7562 
 10453      7363 7269 
 10453      6265 00
 10454               	.ident"GCC: (GNU) 7.3.0 20180125 (RTEMS 5, RSB d2b25d131d55adcb38219f2cd8cbec2436ee78ab, Newlib 3.0.0)"
68K GAS   			page 250


DEFINED SYMBOLS
                            *ABS*:0000000000000000 cfe_sb_api.c
    {standard input}:19     .text:0000000000000000 CFE_SB_CreatePipe
    {standard input}:5109   .rodata:0000000000000751 __func__.5596
    {standard input}:504    .text:00000000000004aa CFE_SB_DeletePipe
    {standard input}:590    .text:000000000000051c CFE_SB_DeletePipeFull
    {standard input}:549    .text:00000000000004f0 CFE_SB_DeletePipeWithAppId
    {standard input}:5113   .rodata:0000000000000763 __func__.5620
    {standard input}:2047   .text:00000000000011e4 CFE_SB_UnsubscribeWithAppId
    {standard input}:3903   .text:000000000000222c CFE_SB_RcvMsg
    {standard input}:1054   .text:000000000000098e CFE_SB_SubscribeEx
    {standard input}:1215   .text:0000000000000a7c CFE_SB_SubscribeFull
    {standard input}:1104   .text:00000000000009e4 CFE_SB_SubscribeLocal
    {standard input}:1154   .text:0000000000000a3e CFE_SB_Subscribe
    {standard input}:5117   .rodata:0000000000000779 __func__.5658
    {standard input}:2618   .text:00000000000016d0 CFE_SB_SendMsg
    {standard input}:1939   .text:000000000000112a CFE_SB_Unsubscribe
    {standard input}:2103   .text:000000000000122c CFE_SB_UnsubscribeFull
    {standard input}:1993   .text:0000000000001186 CFE_SB_UnsubscribeLocal
    {standard input}:5121   .rodata:000000000000078e __func__.5690
    {standard input}:2696   .text:0000000000001712 CFE_SB_SendMsgFull
    {standard input}:2648   .text:00000000000016f2 CFE_SB_PassMsg
    {standard input}:5125   .rodata:00000000000007a5 __func__.5718
    {standard input}:5129   .rodata:00000000000007b8 __func__.5737
    {standard input}:4944   .text:0000000000002ae4 CFE_SB_ReadQueue
    {standard input}:4205   .text:00000000000024d0 CFE_SB_GetLastSenderId
    {standard input}:5133   .rodata:00000000000007c6 __func__.5746
    {standard input}:4411   .text:000000000000268a CFE_SB_ZeroCopyGetPtr
    {standard input}:5137   .rodata:00000000000007dd __func__.5756
    {standard input}:4650   .text:00000000000028d2 CFE_SB_ZeroCopyReleasePtr
    {standard input}:4726   .text:0000000000002968 CFE_SB_ZeroCopyReleaseDesc
    {standard input}:5141   .rodata:00000000000007f3 __func__.5763
    {standard input}:5145   .rodata:000000000000080d __func__.5770
    {standard input}:4854   .text:0000000000002a7a CFE_SB_ZeroCopySend
    {standard input}:4897   .text:0000000000002ab0 CFE_SB_ZeroCopyPass
    {standard input}:5149   .rodata:0000000000000828 __func__.5800

UNDEFINED SYMBOLS
CFE_SB_LockSharedData
OS_TaskGetId
CFE_SB
CFE_SB_UnlockSharedData
CFE_SB_GetAppTskName
CFE_EVS_SendEventWithAppID
CFE_SB_GetAvailPipeIdx
OS_QueueCreate
CFE_ES_GetAppID
CFE_ES_GetAppName
strcpy
strncpy
CFE_SB_GetPipeName
CFE_SB_GetPipeIdx
CFE_SB_ValidatePipeId
CFE_SB_DecrBufUseCnt
OS_QueueDelete
CFE_PSP_MemSet
CFE_SB_Default_Qos
68K GAS   			page 251


CFE_SB_ValidateMsgId
CFE_SB_DuplicateSubscribeCheck
CFE_SB_GetRoutingTblIdx
CFE_SB_GetAvailRoutingIdx
CFE_SB_SetRoutingTblIdx
CFE_SB_GetDestinationBlk
CFE_SB_AddDest
CFE_SB_RemoveDest
CFE_SB_PutDestinationBlk
CFE_SB_GetMsgId
CFE_SB_GetBufferFromCaller
CFE_SB_GetTotalMsgLength
CFE_SB_RequestToSendEvent
CFE_SB_FinishSendEvent
CFE_SB_GetBufferFromPool
CFE_PSP_MemCpy
CFE_SB_GetPktType
CFE_SB_SetMsgSeqCnt
CFE_PSP_GetProcessorId
OS_QueuePut
CFE_ES_PerfLogAdd
CFE_SB_GetPipePtr
CFE_SB_GetDestPtr
CFE_ES_GetPoolBuf
CFE_ES_PutPoolBuf
CFE_ES_GetPoolBufInfo
OS_QueueGet
