68K GAS   			page 1


   1               	
   2               	.file"cfe_sb_task.c"
   3               	.text
   4               	.Ltext0:
   5               	.cfi_sections.debug_frame
   6               	.commCFE_SB,549076,4
   7               	.commCFE_SB_Default_Qos,2,1
   8               	.section.rodata
   9               	.LC0:
  10 0000 5342 3A41 	.string"SB:Application Init Failed,RC=0x%08X\n"
  10      7070 6C69 
  10      6361 7469 
  10      6F6E 2049 
  10      6E69 7420 
  11               	.LC1:
  12 0026 5342 3A45 	.string"SB:Error reading cmd pipe,RC=0x%08X\n"
  12      7272 6F72 
  12      2072 6561 
  12      6469 6E67 
  12      2063 6D64 
  13               	.text
  14               	.align2
  15               	.globlCFE_SB_TaskMain
  16               	.typeCFE_SB_TaskMain, @function
  17               	CFE_SB_TaskMain:
  18               	.LFB59:
  19               	.file 1 "/home/simulink/cFS_FreeRTOS_seL4/cfe/fsw/cfe-core/src/sb/cfe_sb_task.c"
   1:/home/simulink/cFS_FreeRTOS_seL4/cfe/fsw/cfe-core/src/sb/cfe_sb_task.c **** /******************************************************************************
   2:/home/simulink/cFS_FreeRTOS_seL4/cfe/fsw/cfe-core/src/sb/cfe_sb_task.c **** ** File: cfe_sb_task.c
   3:/home/simulink/cFS_FreeRTOS_seL4/cfe/fsw/cfe-core/src/sb/cfe_sb_task.c **** **
   4:/home/simulink/cFS_FreeRTOS_seL4/cfe/fsw/cfe-core/src/sb/cfe_sb_task.c **** **      Copyright (c) 2004-2012, United States government as represented by the
   5:/home/simulink/cFS_FreeRTOS_seL4/cfe/fsw/cfe-core/src/sb/cfe_sb_task.c **** **      administrator of the National Aeronautics Space Administration.
   6:/home/simulink/cFS_FreeRTOS_seL4/cfe/fsw/cfe-core/src/sb/cfe_sb_task.c **** **      All rights reserved. This software(cFE) was created at NASA's Goddard
   7:/home/simulink/cFS_FreeRTOS_seL4/cfe/fsw/cfe-core/src/sb/cfe_sb_task.c **** **      Space Flight Center pursuant to government contracts.
   8:/home/simulink/cFS_FreeRTOS_seL4/cfe/fsw/cfe-core/src/sb/cfe_sb_task.c **** **
   9:/home/simulink/cFS_FreeRTOS_seL4/cfe/fsw/cfe-core/src/sb/cfe_sb_task.c **** **      This is governed by the NASA Open Source Agreement and may be used,
  10:/home/simulink/cFS_FreeRTOS_seL4/cfe/fsw/cfe-core/src/sb/cfe_sb_task.c **** **      distributed and modified only pursuant to the terms of that agreement.
  11:/home/simulink/cFS_FreeRTOS_seL4/cfe/fsw/cfe-core/src/sb/cfe_sb_task.c **** **
  12:/home/simulink/cFS_FreeRTOS_seL4/cfe/fsw/cfe-core/src/sb/cfe_sb_task.c **** **
  13:/home/simulink/cFS_FreeRTOS_seL4/cfe/fsw/cfe-core/src/sb/cfe_sb_task.c **** **
  14:/home/simulink/cFS_FreeRTOS_seL4/cfe/fsw/cfe-core/src/sb/cfe_sb_task.c **** ** Purpose:
  15:/home/simulink/cFS_FreeRTOS_seL4/cfe/fsw/cfe-core/src/sb/cfe_sb_task.c **** **      This file contains the source code for the SB task.
  16:/home/simulink/cFS_FreeRTOS_seL4/cfe/fsw/cfe-core/src/sb/cfe_sb_task.c **** **
  17:/home/simulink/cFS_FreeRTOS_seL4/cfe/fsw/cfe-core/src/sb/cfe_sb_task.c **** ** Author:   R.McGraw/SSI
  18:/home/simulink/cFS_FreeRTOS_seL4/cfe/fsw/cfe-core/src/sb/cfe_sb_task.c **** **
  19:/home/simulink/cFS_FreeRTOS_seL4/cfe/fsw/cfe-core/src/sb/cfe_sb_task.c **** ** $Log: cfe_sb_task.c  $
  20:/home/simulink/cFS_FreeRTOS_seL4/cfe/fsw/cfe-core/src/sb/cfe_sb_task.c **** ** Revision 1.18 2012/01/18 16:30:29GMT-05:00 jmdagost 
  21:/home/simulink/cFS_FreeRTOS_seL4/cfe/fsw/cfe-core/src/sb/cfe_sb_task.c **** ** Updated no-op event message to include cFE version numbers.
  22:/home/simulink/cFS_FreeRTOS_seL4/cfe/fsw/cfe-core/src/sb/cfe_sb_task.c **** ** Revision 1.17 2012/01/13 12:15:13EST acudmore 
  23:/home/simulink/cFS_FreeRTOS_seL4/cfe/fsw/cfe-core/src/sb/cfe_sb_task.c **** ** Changed license text to reflect open source
  24:/home/simulink/cFS_FreeRTOS_seL4/cfe/fsw/cfe-core/src/sb/cfe_sb_task.c **** ** Revision 1.16 2011/12/20 10:28:02EST rmcgraw 
  25:/home/simulink/cFS_FreeRTOS_seL4/cfe/fsw/cfe-core/src/sb/cfe_sb_task.c **** ** DCR15187:1 Changed MsgIdToPipeErrCnt to MsgLimErrCnt
  26:/home/simulink/cFS_FreeRTOS_seL4/cfe/fsw/cfe-core/src/sb/cfe_sb_task.c **** ** Revision 1.15 2009/07/17 18:07:33EDT aschoeni 
  27:/home/simulink/cFS_FreeRTOS_seL4/cfe/fsw/cfe-core/src/sb/cfe_sb_task.c **** ** Updated MsgMap and associated variables to be CFE_SB_MsgId_t
  28:/home/simulink/cFS_FreeRTOS_seL4/cfe/fsw/cfe-core/src/sb/cfe_sb_task.c **** ** Revision 1.14 2009/06/26 17:02:06EDT aschoeni 
  29:/home/simulink/cFS_FreeRTOS_seL4/cfe/fsw/cfe-core/src/sb/cfe_sb_task.c **** ** Updated SB to use __func__ instead of __FILE__ for lock and unlock errors
  30:/home/simulink/cFS_FreeRTOS_seL4/cfe/fsw/cfe-core/src/sb/cfe_sb_task.c **** ** Revision 1.13 2009/06/10 09:18:03EDT acudmore 
68K GAS   			page 2


  31:/home/simulink/cFS_FreeRTOS_seL4/cfe/fsw/cfe-core/src/sb/cfe_sb_task.c **** ** Updated OS_Mem* and OS_BSP* to CFE_PSP_*
  32:/home/simulink/cFS_FreeRTOS_seL4/cfe/fsw/cfe-core/src/sb/cfe_sb_task.c **** ** Revision 1.12 2009/04/29 10:05:37EDT rmcgraw 
  33:/home/simulink/cFS_FreeRTOS_seL4/cfe/fsw/cfe-core/src/sb/cfe_sb_task.c **** ** DCR5801:11 Removed old code that was commented out
  34:/home/simulink/cFS_FreeRTOS_seL4/cfe/fsw/cfe-core/src/sb/cfe_sb_task.c **** ** Revision 1.11 2009/04/24 10:30:52EDT rmcgraw 
  35:/home/simulink/cFS_FreeRTOS_seL4/cfe/fsw/cfe-core/src/sb/cfe_sb_task.c **** ** DCR6772:1 Added #include cfe_es_msg.h
  36:/home/simulink/cFS_FreeRTOS_seL4/cfe/fsw/cfe-core/src/sb/cfe_sb_task.c **** ** Revision 1.10 2009/04/24 10:24:48EDT rmcgraw 
  37:/home/simulink/cFS_FreeRTOS_seL4/cfe/fsw/cfe-core/src/sb/cfe_sb_task.c **** ** DCR6772:1 Changed the Get/PutPoolBuf check in SB_AppInit
  38:/home/simulink/cFS_FreeRTOS_seL4/cfe/fsw/cfe-core/src/sb/cfe_sb_task.c **** ** Revision 1.9 2009/04/08 13:20:10EDT rmcgraw 
  39:/home/simulink/cFS_FreeRTOS_seL4/cfe/fsw/cfe-core/src/sb/cfe_sb_task.c **** ** DCR6772:1 Added insurance that a gnd cmded reset can get to ES
  40:/home/simulink/cFS_FreeRTOS_seL4/cfe/fsw/cfe-core/src/sb/cfe_sb_task.c **** ** Revision 1.8 2009/04/01 15:23:28EDT rmcgraw 
  41:/home/simulink/cFS_FreeRTOS_seL4/cfe/fsw/cfe-core/src/sb/cfe_sb_task.c **** ** DCR6296:4 Changed hk tlm point from pk-mem-inuse to unmarked mem
  42:/home/simulink/cFS_FreeRTOS_seL4/cfe/fsw/cfe-core/src/sb/cfe_sb_task.c **** ** Revision 1.7 2009/02/12 14:52:46EST rmcgraw 
  43:/home/simulink/cFS_FreeRTOS_seL4/cfe/fsw/cfe-core/src/sb/cfe_sb_task.c **** ** DCR6296:3 Remove 'Buf' in memory pool names
  44:/home/simulink/cFS_FreeRTOS_seL4/cfe/fsw/cfe-core/src/sb/cfe_sb_task.c **** ** Revision 1.6 2009/02/06 12:56:07EST rmcgraw 
  45:/home/simulink/cFS_FreeRTOS_seL4/cfe/fsw/cfe-core/src/sb/cfe_sb_task.c **** ** DCR5802:3 Removed two of four new telemetry items
  46:/home/simulink/cFS_FreeRTOS_seL4/cfe/fsw/cfe-core/src/sb/cfe_sb_task.c **** ** Revision 1.5 2009/02/05 16:19:53EST rmcgraw 
  47:/home/simulink/cFS_FreeRTOS_seL4/cfe/fsw/cfe-core/src/sb/cfe_sb_task.c **** ** DCR5802:2 Added SB statistics to hk pkt
  48:/home/simulink/cFS_FreeRTOS_seL4/cfe/fsw/cfe-core/src/sb/cfe_sb_task.c **** ** Revision 1.4 2009/02/03 11:07:01EST rmcgraw 
  49:/home/simulink/cFS_FreeRTOS_seL4/cfe/fsw/cfe-core/src/sb/cfe_sb_task.c **** ** DCR5801:2 Changed destination desciptors from array based to linked list
  50:/home/simulink/cFS_FreeRTOS_seL4/cfe/fsw/cfe-core/src/sb/cfe_sb_task.c **** ** Revision 1.3 2008/08/08 14:11:56EDT rjmcgraw 
  51:/home/simulink/cFS_FreeRTOS_seL4/cfe/fsw/cfe-core/src/sb/cfe_sb_task.c **** ** DCR4208:1 Added #include cfe_sb_verify.h to cfe_sb_task.c
  52:/home/simulink/cFS_FreeRTOS_seL4/cfe/fsw/cfe-core/src/sb/cfe_sb_task.c **** ** Revision 1.2 2008/07/31 15:41:34EDT apcudmore 
  53:/home/simulink/cFS_FreeRTOS_seL4/cfe/fsw/cfe-core/src/sb/cfe_sb_task.c **** ** Added execution counter API:
  54:/home/simulink/cFS_FreeRTOS_seL4/cfe/fsw/cfe-core/src/sb/cfe_sb_task.c **** **   -- Added execution counter to ES internal task data
  55:/home/simulink/cFS_FreeRTOS_seL4/cfe/fsw/cfe-core/src/sb/cfe_sb_task.c **** **   -- Added code to increment counter in RunLoop
  56:/home/simulink/cFS_FreeRTOS_seL4/cfe/fsw/cfe-core/src/sb/cfe_sb_task.c **** **   -- Added code to report counter in GetInfo APIs
  57:/home/simulink/cFS_FreeRTOS_seL4/cfe/fsw/cfe-core/src/sb/cfe_sb_task.c **** **   -- Added API to increment counter for child tasks
  58:/home/simulink/cFS_FreeRTOS_seL4/cfe/fsw/cfe-core/src/sb/cfe_sb_task.c **** **   -- Added code to cFE Core apps to increment counters.
  59:/home/simulink/cFS_FreeRTOS_seL4/cfe/fsw/cfe-core/src/sb/cfe_sb_task.c **** ** Revision 1.1 2008/04/17 08:05:32EDT ruperera 
  60:/home/simulink/cFS_FreeRTOS_seL4/cfe/fsw/cfe-core/src/sb/cfe_sb_task.c **** ** Initial revision
  61:/home/simulink/cFS_FreeRTOS_seL4/cfe/fsw/cfe-core/src/sb/cfe_sb_task.c **** ** Member added to tlserver3
  62:/home/simulink/cFS_FreeRTOS_seL4/cfe/fsw/cfe-core/src/sb/cfe_sb_task.c **** ** Revision 1.62 2007/09/20 11:59:44EDT rjmcgraw 
  63:/home/simulink/cFS_FreeRTOS_seL4/cfe/fsw/cfe-core/src/sb/cfe_sb_task.c **** ** Fixed compiler error related to event log variable
  64:/home/simulink/cFS_FreeRTOS_seL4/cfe/fsw/cfe-core/src/sb/cfe_sb_task.c **** ** Revision 1.61 2007/09/04 16:22:50EDT rjmcgraw 
  65:/home/simulink/cFS_FreeRTOS_seL4/cfe/fsw/cfe-core/src/sb/cfe_sb_task.c **** ** Added code to detect number of active event filters in platform cfg file
  66:/home/simulink/cFS_FreeRTOS_seL4/cfe/fsw/cfe-core/src/sb/cfe_sb_task.c **** ** Revision 1.60 2007/07/12 17:01:37EDT rjmcgraw 
  67:/home/simulink/cFS_FreeRTOS_seL4/cfe/fsw/cfe-core/src/sb/cfe_sb_task.c **** ** Added code to process new SB event filtering params from platform cfg file
  68:/home/simulink/cFS_FreeRTOS_seL4/cfe/fsw/cfe-core/src/sb/cfe_sb_task.c **** ** Revision 1.59 2007/06/04 13:23:39EDT rjmcgraw 
  69:/home/simulink/cFS_FreeRTOS_seL4/cfe/fsw/cfe-core/src/sb/cfe_sb_task.c **** ** Moved SB stat initialization from task init to early init
  70:/home/simulink/cFS_FreeRTOS_seL4/cfe/fsw/cfe-core/src/sb/cfe_sb_task.c **** ** Revision 1.58 2007/05/18 16:12:11EDT rjmcgraw 
  71:/home/simulink/cFS_FreeRTOS_seL4/cfe/fsw/cfe-core/src/sb/cfe_sb_task.c **** ** DCR3052:9 Moved initialization of subscription report state from app init to 
  72:/home/simulink/cFS_FreeRTOS_seL4/cfe/fsw/cfe-core/src/sb/cfe_sb_task.c **** ** early init
  73:/home/simulink/cFS_FreeRTOS_seL4/cfe/fsw/cfe-core/src/sb/cfe_sb_task.c **** ** Revision 1.57 2007/05/16 15:13:40EDT dlkobe 
  74:/home/simulink/cFS_FreeRTOS_seL4/cfe/fsw/cfe-core/src/sb/cfe_sb_task.c **** ** Added MemPoolHandle members to HK packet
  75:/home/simulink/cFS_FreeRTOS_seL4/cfe/fsw/cfe-core/src/sb/cfe_sb_task.c **** ** Revision 1.56 2007/05/15 11:01:32EDT rjmcgraw 
  76:/home/simulink/cFS_FreeRTOS_seL4/cfe/fsw/cfe-core/src/sb/cfe_sb_task.c **** ** DCR78:11 Exit main loop for CFE_SB_RcvMsg errors
  77:/home/simulink/cFS_FreeRTOS_seL4/cfe/fsw/cfe-core/src/sb/cfe_sb_task.c **** ** Revision 1.55 2007/05/10 15:44:04EDT rjmcgraw 
  78:/home/simulink/cFS_FreeRTOS_seL4/cfe/fsw/cfe-core/src/sb/cfe_sb_task.c **** ** Added check of GetPipePtr return in SendRtgInfo
  79:/home/simulink/cFS_FreeRTOS_seL4/cfe/fsw/cfe-core/src/sb/cfe_sb_task.c **** ** Revision 1.54 2007/05/01 09:42:13EDT rjmcgraw 
  80:/home/simulink/cFS_FreeRTOS_seL4/cfe/fsw/cfe-core/src/sb/cfe_sb_task.c **** ** DCR3052:7 Removed function SendNetworkInfo
  81:/home/simulink/cFS_FreeRTOS_seL4/cfe/fsw/cfe-core/src/sb/cfe_sb_task.c **** ** Revision 1.53 2007/05/01 09:30:42EDT rjmcgraw 
  82:/home/simulink/cFS_FreeRTOS_seL4/cfe/fsw/cfe-core/src/sb/cfe_sb_task.c **** ** DCR3314:3 Populate subtype fields for SB files
  83:/home/simulink/cFS_FreeRTOS_seL4/cfe/fsw/cfe-core/src/sb/cfe_sb_task.c **** ** Revision 1.52 2007/04/30 15:20:34EDT rjmcgraw 
  84:/home/simulink/cFS_FreeRTOS_seL4/cfe/fsw/cfe-core/src/sb/cfe_sb_task.c **** ** DCR78:5 Removed delay, added sys log msg for cmd pipe errors
  85:/home/simulink/cFS_FreeRTOS_seL4/cfe/fsw/cfe-core/src/sb/cfe_sb_task.c **** **
  86:/home/simulink/cFS_FreeRTOS_seL4/cfe/fsw/cfe-core/src/sb/cfe_sb_task.c **** ******************************************************************************/
  87:/home/simulink/cFS_FreeRTOS_seL4/cfe/fsw/cfe-core/src/sb/cfe_sb_task.c **** 
68K GAS   			page 3


  88:/home/simulink/cFS_FreeRTOS_seL4/cfe/fsw/cfe-core/src/sb/cfe_sb_task.c **** /* Include Files */
  89:/home/simulink/cFS_FreeRTOS_seL4/cfe/fsw/cfe-core/src/sb/cfe_sb_task.c **** 
  90:/home/simulink/cFS_FreeRTOS_seL4/cfe/fsw/cfe-core/src/sb/cfe_sb_task.c **** #include "cfe_sb.h"
  91:/home/simulink/cFS_FreeRTOS_seL4/cfe/fsw/cfe-core/src/sb/cfe_sb_task.c **** #include "cfe_sb_events.h"
  92:/home/simulink/cFS_FreeRTOS_seL4/cfe/fsw/cfe-core/src/sb/cfe_sb_task.c **** #include "cfe_evs.h"
  93:/home/simulink/cFS_FreeRTOS_seL4/cfe/fsw/cfe-core/src/sb/cfe_sb_task.c **** #include "cfe_sb_priv.h"
  94:/home/simulink/cFS_FreeRTOS_seL4/cfe/fsw/cfe-core/src/sb/cfe_sb_task.c **** #include "osapi.h"
  95:/home/simulink/cFS_FreeRTOS_seL4/cfe/fsw/cfe-core/src/sb/cfe_sb_task.c **** #include "cfe_version.h"
  96:/home/simulink/cFS_FreeRTOS_seL4/cfe/fsw/cfe-core/src/sb/cfe_sb_task.c **** #include "cfe_msgids.h"
  97:/home/simulink/cFS_FreeRTOS_seL4/cfe/fsw/cfe-core/src/sb/cfe_sb_task.c **** #include "cfe_error.h"
  98:/home/simulink/cFS_FreeRTOS_seL4/cfe/fsw/cfe-core/src/sb/cfe_sb_task.c **** #include "cfe_es.h"
  99:/home/simulink/cFS_FreeRTOS_seL4/cfe/fsw/cfe-core/src/sb/cfe_sb_task.c **** #include "cfe_psp.h"
 100:/home/simulink/cFS_FreeRTOS_seL4/cfe/fsw/cfe-core/src/sb/cfe_sb_task.c **** #include "cfe_es_msg.h"
 101:/home/simulink/cFS_FreeRTOS_seL4/cfe/fsw/cfe-core/src/sb/cfe_sb_task.c **** #include "cfe_sb_verify.h"
 102:/home/simulink/cFS_FreeRTOS_seL4/cfe/fsw/cfe-core/src/sb/cfe_sb_task.c **** #include <string.h>
 103:/home/simulink/cFS_FreeRTOS_seL4/cfe/fsw/cfe-core/src/sb/cfe_sb_task.c **** 
 104:/home/simulink/cFS_FreeRTOS_seL4/cfe/fsw/cfe-core/src/sb/cfe_sb_task.c **** /*  Task Globals */
 105:/home/simulink/cFS_FreeRTOS_seL4/cfe/fsw/cfe-core/src/sb/cfe_sb_task.c **** cfe_sb_t                CFE_SB;
 106:/home/simulink/cFS_FreeRTOS_seL4/cfe/fsw/cfe-core/src/sb/cfe_sb_task.c **** CFE_SB_Qos_t            CFE_SB_Default_Qos;
 107:/home/simulink/cFS_FreeRTOS_seL4/cfe/fsw/cfe-core/src/sb/cfe_sb_task.c **** 
 108:/home/simulink/cFS_FreeRTOS_seL4/cfe/fsw/cfe-core/src/sb/cfe_sb_task.c **** 
 109:/home/simulink/cFS_FreeRTOS_seL4/cfe/fsw/cfe-core/src/sb/cfe_sb_task.c **** /******************************************************************************
 110:/home/simulink/cFS_FreeRTOS_seL4/cfe/fsw/cfe-core/src/sb/cfe_sb_task.c **** **  Function:  CFE_SB_TaskMain()
 111:/home/simulink/cFS_FreeRTOS_seL4/cfe/fsw/cfe-core/src/sb/cfe_sb_task.c **** **
 112:/home/simulink/cFS_FreeRTOS_seL4/cfe/fsw/cfe-core/src/sb/cfe_sb_task.c **** **  Purpose:
 113:/home/simulink/cFS_FreeRTOS_seL4/cfe/fsw/cfe-core/src/sb/cfe_sb_task.c **** **    Main loop for Software Bus task, used to process SB commands.
 114:/home/simulink/cFS_FreeRTOS_seL4/cfe/fsw/cfe-core/src/sb/cfe_sb_task.c **** **
 115:/home/simulink/cFS_FreeRTOS_seL4/cfe/fsw/cfe-core/src/sb/cfe_sb_task.c **** **  Arguments:
 116:/home/simulink/cFS_FreeRTOS_seL4/cfe/fsw/cfe-core/src/sb/cfe_sb_task.c **** **    none
 117:/home/simulink/cFS_FreeRTOS_seL4/cfe/fsw/cfe-core/src/sb/cfe_sb_task.c **** **
 118:/home/simulink/cFS_FreeRTOS_seL4/cfe/fsw/cfe-core/src/sb/cfe_sb_task.c **** **  Return:
 119:/home/simulink/cFS_FreeRTOS_seL4/cfe/fsw/cfe-core/src/sb/cfe_sb_task.c **** **    none
 120:/home/simulink/cFS_FreeRTOS_seL4/cfe/fsw/cfe-core/src/sb/cfe_sb_task.c **** */
 121:/home/simulink/cFS_FreeRTOS_seL4/cfe/fsw/cfe-core/src/sb/cfe_sb_task.c **** void CFE_SB_TaskMain(void)
 122:/home/simulink/cFS_FreeRTOS_seL4/cfe/fsw/cfe-core/src/sb/cfe_sb_task.c **** {
  20               	.loc 1 122 0
  21               	.cfi_startproc
  22 0000 598F      	subq.l #4,%sp
  23               	.cfi_def_cfa_offset 8
 123:/home/simulink/cFS_FreeRTOS_seL4/cfe/fsw/cfe-core/src/sb/cfe_sb_task.c ****     int32  Status;
 124:/home/simulink/cFS_FreeRTOS_seL4/cfe/fsw/cfe-core/src/sb/cfe_sb_task.c **** 
 125:/home/simulink/cFS_FreeRTOS_seL4/cfe/fsw/cfe-core/src/sb/cfe_sb_task.c ****     CFE_ES_PerfLogEntry(CFE_SB_MAIN_PERF_ID);
  24               	.loc 1 125 0
  25 0002 42A7      	clr.l -(%sp)
  26               	.cfi_def_cfa_offset 12
  27 0004 4878 0004 	pea 4.w
  28               	.cfi_def_cfa_offset 16
  29 0008 4EB9 0000 	jsr CFE_ES_PerfLogAdd
  29      0000 
  30 000e 508F      	addq.l #8,%sp
  31               	.cfi_def_cfa_offset 8
 126:/home/simulink/cFS_FreeRTOS_seL4/cfe/fsw/cfe-core/src/sb/cfe_sb_task.c **** 
 127:/home/simulink/cFS_FreeRTOS_seL4/cfe/fsw/cfe-core/src/sb/cfe_sb_task.c ****     Status = CFE_SB_AppInit();
  32               	.loc 1 127 0
  33 0010 4EB9 0000 	jsr CFE_SB_AppInit
  33      0000 
  34 0016 2E80      	move.l %d0,(%sp)
68K GAS   			page 4


 128:/home/simulink/cFS_FreeRTOS_seL4/cfe/fsw/cfe-core/src/sb/cfe_sb_task.c ****     
 129:/home/simulink/cFS_FreeRTOS_seL4/cfe/fsw/cfe-core/src/sb/cfe_sb_task.c ****     if(Status != CFE_SUCCESS)
  35               	.loc 1 129 0
  36 0018 4A97      	tst.l (%sp)
  37 001a 672E      	jeq .L2
 130:/home/simulink/cFS_FreeRTOS_seL4/cfe/fsw/cfe-core/src/sb/cfe_sb_task.c ****     {
 131:/home/simulink/cFS_FreeRTOS_seL4/cfe/fsw/cfe-core/src/sb/cfe_sb_task.c ****       CFE_ES_WriteToSysLog("SB:Application Init Failed,RC=0x%08X\n", (unsigned int)Status);
  38               	.loc 1 131 0
  39 001c 2017      	move.l (%sp),%d0
  40 001e 2F00      	move.l %d0,-(%sp)
  41               	.cfi_def_cfa_offset 12
  42 0020 4879 0000 	pea .LC0
  42      0000 
  43               	.cfi_def_cfa_offset 16
  44 0026 4EB9 0000 	jsr CFE_ES_WriteToSysLog
  44      0000 
  45 002c 508F      	addq.l #8,%sp
  46               	.cfi_def_cfa_offset 8
 132:/home/simulink/cFS_FreeRTOS_seL4/cfe/fsw/cfe-core/src/sb/cfe_sb_task.c ****       CFE_ES_PerfLogExit(CFE_SB_MAIN_PERF_ID);
  47               	.loc 1 132 0
  48 002e 4878 0001 	pea 1.w
  49               	.cfi_def_cfa_offset 12
  50 0032 4878 0004 	pea 4.w
  51               	.cfi_def_cfa_offset 16
  52 0036 4EB9 0000 	jsr CFE_ES_PerfLogAdd
  52      0000 
  53 003c 508F      	addq.l #8,%sp
  54               	.cfi_def_cfa_offset 8
 133:/home/simulink/cFS_FreeRTOS_seL4/cfe/fsw/cfe-core/src/sb/cfe_sb_task.c ****       /* Note: CFE_ES_ExitApp will not return */
 134:/home/simulink/cFS_FreeRTOS_seL4/cfe/fsw/cfe-core/src/sb/cfe_sb_task.c ****       CFE_ES_ExitApp(CFE_ES_RUNSTATUS_CORE_APP_INIT_ERROR);
  55               	.loc 1 134 0
  56 003e 4878 0008 	pea 8.w
  57               	.cfi_def_cfa_offset 12
  58 0042 4EB9 0000 	jsr CFE_ES_ExitApp
  58      0000 
  59 0048 588F      	addq.l #4,%sp
  60               	.cfi_def_cfa_offset 8
  61               	.L2:
 135:/home/simulink/cFS_FreeRTOS_seL4/cfe/fsw/cfe-core/src/sb/cfe_sb_task.c ****     }/* end if */
 136:/home/simulink/cFS_FreeRTOS_seL4/cfe/fsw/cfe-core/src/sb/cfe_sb_task.c **** 
 137:/home/simulink/cFS_FreeRTOS_seL4/cfe/fsw/cfe-core/src/sb/cfe_sb_task.c ****     /*
 138:/home/simulink/cFS_FreeRTOS_seL4/cfe/fsw/cfe-core/src/sb/cfe_sb_task.c ****      * Wait for other apps to start.
 139:/home/simulink/cFS_FreeRTOS_seL4/cfe/fsw/cfe-core/src/sb/cfe_sb_task.c ****      * It is important that the core apps are present before this starts receiving
 140:/home/simulink/cFS_FreeRTOS_seL4/cfe/fsw/cfe-core/src/sb/cfe_sb_task.c ****      * messages from the command pipe, as some of those handlers might depend on
 141:/home/simulink/cFS_FreeRTOS_seL4/cfe/fsw/cfe-core/src/sb/cfe_sb_task.c ****      * the other core apps.
 142:/home/simulink/cFS_FreeRTOS_seL4/cfe/fsw/cfe-core/src/sb/cfe_sb_task.c ****      */
 143:/home/simulink/cFS_FreeRTOS_seL4/cfe/fsw/cfe-core/src/sb/cfe_sb_task.c ****     CFE_ES_WaitForStartupSync(CFE_CORE_MAX_STARTUP_MSEC);
  62               	.loc 1 143 0
  63 004a 4878 7530 	pea 30000.w
  64               	.cfi_def_cfa_offset 12
  65 004e 4EB9 0000 	jsr CFE_ES_WaitForStartupSync
  65      0000 
  66 0054 588F      	addq.l #4,%sp
  67               	.cfi_def_cfa_offset 8
 144:/home/simulink/cFS_FreeRTOS_seL4/cfe/fsw/cfe-core/src/sb/cfe_sb_task.c **** 
 145:/home/simulink/cFS_FreeRTOS_seL4/cfe/fsw/cfe-core/src/sb/cfe_sb_task.c ****     /* Main loop */
 146:/home/simulink/cFS_FreeRTOS_seL4/cfe/fsw/cfe-core/src/sb/cfe_sb_task.c ****     while (Status == CFE_SUCCESS)
68K GAS   			page 5


  68               	.loc 1 146 0
  69 0056 6068      	jra .L3
  70               	.L5:
 147:/home/simulink/cFS_FreeRTOS_seL4/cfe/fsw/cfe-core/src/sb/cfe_sb_task.c ****     {    
 148:/home/simulink/cFS_FreeRTOS_seL4/cfe/fsw/cfe-core/src/sb/cfe_sb_task.c ****         /* Increment the Main task Execution Counter */
 149:/home/simulink/cFS_FreeRTOS_seL4/cfe/fsw/cfe-core/src/sb/cfe_sb_task.c ****         CFE_ES_IncrementTaskCounter();
  71               	.loc 1 149 0
  72 0058 4EB9 0000 	jsr CFE_ES_IncrementTaskCounter
  72      0000 
 150:/home/simulink/cFS_FreeRTOS_seL4/cfe/fsw/cfe-core/src/sb/cfe_sb_task.c **** 
 151:/home/simulink/cFS_FreeRTOS_seL4/cfe/fsw/cfe-core/src/sb/cfe_sb_task.c ****         CFE_ES_PerfLogExit(CFE_SB_MAIN_PERF_ID);
  73               	.loc 1 151 0
  74 005e 4878 0001 	pea 1.w
  75               	.cfi_def_cfa_offset 12
  76 0062 4878 0004 	pea 4.w
  77               	.cfi_def_cfa_offset 16
  78 0066 4EB9 0000 	jsr CFE_ES_PerfLogAdd
  78      0000 
  79 006c 508F      	addq.l #8,%sp
  80               	.cfi_def_cfa_offset 8
 152:/home/simulink/cFS_FreeRTOS_seL4/cfe/fsw/cfe-core/src/sb/cfe_sb_task.c **** 
 153:/home/simulink/cFS_FreeRTOS_seL4/cfe/fsw/cfe-core/src/sb/cfe_sb_task.c ****         /* Pend on receipt of packet */
 154:/home/simulink/cFS_FreeRTOS_seL4/cfe/fsw/cfe-core/src/sb/cfe_sb_task.c ****         Status = CFE_SB_RcvMsg(&CFE_SB.CmdPipePktPtr,
 155:/home/simulink/cFS_FreeRTOS_seL4/cfe/fsw/cfe-core/src/sb/cfe_sb_task.c ****                                 CFE_SB.CmdPipe,
  81               	.loc 1 155 0
  82 006e 1039 0000 	move.b CFE_SB+5124,%d0
  82      0000 
 154:/home/simulink/cFS_FreeRTOS_seL4/cfe/fsw/cfe-core/src/sb/cfe_sb_task.c ****                                 CFE_SB.CmdPipe,
  83               	.loc 1 154 0
  84 0074 1000      	move.b %d0,%d0
  85 0076 0280 0000 	and.l #255,%d0
  85      00FF 
  86 007c 4878 FFFF 	pea -1.w
  87               	.cfi_def_cfa_offset 12
  88 0080 2F00      	move.l %d0,-(%sp)
  89               	.cfi_def_cfa_offset 16
  90 0082 4879 0000 	pea CFE_SB+5128
  90      0000 
  91               	.cfi_def_cfa_offset 20
  92 0088 4EB9 0000 	jsr CFE_SB_RcvMsg
  92      0000 
  93 008e 4FEF 000C 	lea (12,%sp),%sp
  94               	.cfi_def_cfa_offset 8
  95 0092 2E80      	move.l %d0,(%sp)
 156:/home/simulink/cFS_FreeRTOS_seL4/cfe/fsw/cfe-core/src/sb/cfe_sb_task.c ****                                 CFE_SB_PEND_FOREVER);
 157:/home/simulink/cFS_FreeRTOS_seL4/cfe/fsw/cfe-core/src/sb/cfe_sb_task.c **** 
 158:/home/simulink/cFS_FreeRTOS_seL4/cfe/fsw/cfe-core/src/sb/cfe_sb_task.c ****         CFE_ES_PerfLogEntry(CFE_SB_MAIN_PERF_ID);
  96               	.loc 1 158 0
  97 0094 42A7      	clr.l -(%sp)
  98               	.cfi_def_cfa_offset 12
  99 0096 4878 0004 	pea 4.w
 100               	.cfi_def_cfa_offset 16
 101 009a 4EB9 0000 	jsr CFE_ES_PerfLogAdd
 101      0000 
 102 00a0 508F      	addq.l #8,%sp
 103               	.cfi_def_cfa_offset 8
 159:/home/simulink/cFS_FreeRTOS_seL4/cfe/fsw/cfe-core/src/sb/cfe_sb_task.c **** 
68K GAS   			page 6


 160:/home/simulink/cFS_FreeRTOS_seL4/cfe/fsw/cfe-core/src/sb/cfe_sb_task.c ****         if(Status == CFE_SUCCESS)
 104               	.loc 1 160 0
 105 00a2 4A97      	tst.l (%sp)
 106 00a4 6608      	jne .L4
 161:/home/simulink/cFS_FreeRTOS_seL4/cfe/fsw/cfe-core/src/sb/cfe_sb_task.c ****         {
 162:/home/simulink/cFS_FreeRTOS_seL4/cfe/fsw/cfe-core/src/sb/cfe_sb_task.c ****             /* Process cmd pipe msg */
 163:/home/simulink/cFS_FreeRTOS_seL4/cfe/fsw/cfe-core/src/sb/cfe_sb_task.c ****             CFE_SB_ProcessCmdPipePkt();
 107               	.loc 1 163 0
 108 00a6 4EB9 0000 	jsr CFE_SB_ProcessCmdPipePkt
 108      0000 
 109 00ac 6012      	jra .L3
 110               	.L4:
 164:/home/simulink/cFS_FreeRTOS_seL4/cfe/fsw/cfe-core/src/sb/cfe_sb_task.c ****         }else{
 165:/home/simulink/cFS_FreeRTOS_seL4/cfe/fsw/cfe-core/src/sb/cfe_sb_task.c ****             CFE_ES_WriteToSysLog("SB:Error reading cmd pipe,RC=0x%08X\n",(unsigned int)Status);
 111               	.loc 1 165 0
 112 00ae 2017      	move.l (%sp),%d0
 113 00b0 2F00      	move.l %d0,-(%sp)
 114               	.cfi_def_cfa_offset 12
 115 00b2 4879 0000 	pea .LC1
 115      0000 
 116               	.cfi_def_cfa_offset 16
 117 00b8 4EB9 0000 	jsr CFE_ES_WriteToSysLog
 117      0000 
 118 00be 508F      	addq.l #8,%sp
 119               	.cfi_def_cfa_offset 8
 120               	.L3:
 146:/home/simulink/cFS_FreeRTOS_seL4/cfe/fsw/cfe-core/src/sb/cfe_sb_task.c ****     {    
 121               	.loc 1 146 0
 122 00c0 4A97      	tst.l (%sp)
 123 00c2 6794      	jeq .L5
 166:/home/simulink/cFS_FreeRTOS_seL4/cfe/fsw/cfe-core/src/sb/cfe_sb_task.c ****         }/* end if */
 167:/home/simulink/cFS_FreeRTOS_seL4/cfe/fsw/cfe-core/src/sb/cfe_sb_task.c **** 
 168:/home/simulink/cFS_FreeRTOS_seL4/cfe/fsw/cfe-core/src/sb/cfe_sb_task.c ****     }/* end while */
 169:/home/simulink/cFS_FreeRTOS_seL4/cfe/fsw/cfe-core/src/sb/cfe_sb_task.c **** 
 170:/home/simulink/cFS_FreeRTOS_seL4/cfe/fsw/cfe-core/src/sb/cfe_sb_task.c ****     /* while loop exits only if CFE_SB_RcvMsg returns error */
 171:/home/simulink/cFS_FreeRTOS_seL4/cfe/fsw/cfe-core/src/sb/cfe_sb_task.c ****     CFE_ES_ExitApp(CFE_ES_RUNSTATUS_CORE_APP_RUNTIME_ERROR);
 124               	.loc 1 171 0
 125 00c4 4878 0009 	pea 9.w
 126               	.cfi_def_cfa_offset 12
 127 00c8 4EB9 0000 	jsr CFE_ES_ExitApp
 127      0000 
 128 00ce 588F      	addq.l #4,%sp
 129               	.cfi_def_cfa_offset 8
 172:/home/simulink/cFS_FreeRTOS_seL4/cfe/fsw/cfe-core/src/sb/cfe_sb_task.c **** 
 173:/home/simulink/cFS_FreeRTOS_seL4/cfe/fsw/cfe-core/src/sb/cfe_sb_task.c **** }/* end CFE_SB_TaskMain */
 130               	.loc 1 173 0
 131 00d0 4E71      	nop
 132 00d2 588F      	addq.l #4,%sp
 133 00d4 4E75      	rts
 134               	.cfi_endproc
 135               	.LFE59:
 136               	.sizeCFE_SB_TaskMain, .-CFE_SB_TaskMain
 137               	.section.rodata
 138               	.LC2:
 139 004b 5342 3A43 	.string"SB:Call to CFE_ES_RegisterApp Failed:RC=0x%08X\n"
 139      616C 6C20 
 139      746F 2043 
68K GAS   			page 7


 139      4645 5F45 
 139      535F 5265 
 140               	.LC3:
 141 007b 5342 3A43 	.string"SB:Call to CFE_EVS_Register Failed:RC=0x%08X\n"
 141      616C 6C20 
 141      746F 2043 
 141      4645 5F45 
 141      5653 5F52 
 142               	.LC4:
 143 00a9 5342 3A52 	.string"SB:Registered %d events for filtering\n"
 143      6567 6973 
 143      7465 7265 
 143      6420 2564 
 143      2065 7665 
 144               	.LC5:
 145 00d0 5342 5F43 	.string"SB_CMD_PIPE"
 145      4D44 5F50 
 145      4950 4500 
 146               	.LC6:
 147 00dc 5342 3A43 	.string"SB:Call to CFE_SB_CreatePipe Failed:RC=0x%08X\n"
 147      616C 6C20 
 147      746F 2043 
 147      4645 5F53 
 147      425F 4372 
 148               	.LC7:
 149 010b 5342 3A53 	.string"SB:Subscribe to Cmds Failed:RC=0x%08X\n"
 149      7562 7363 
 149      7269 6265 
 149      2074 6F20 
 149      436D 6473 
 150               	.LC8:
 151 0132 5342 3A53 	.string"SB:Subscribe to HK Request Failed:RC=0x%08X\n"
 151      7562 7363 
 151      7269 6265 
 151      2074 6F20 
 151      484B 2052 
 152               	.LC9:
 153 015f 5342 3A49 	.string"SB:Init error, GetPool Failed:RC=0x%08X\n"
 153      6E69 7420 
 153      6572 726F 
 153      722C 2047 
 153      6574 506F 
 154               	.LC10:
 155 0188 5342 3A49 	.string"SB:Init error, PutPool Failed:RC=0x%08X\n"
 155      6E69 7420 
 155      6572 726F 
 155      722C 2050 
 155      7574 506F 
 156               	.LC11:
 157 01b1 6346 4520 	.string"cFE SB Initialized"
 157      5342 2049 
 157      6E69 7469 
 157      616C 697A 
 157      6564 00
 158               	.LC12:
 159 01c4 5342 3A45 	.string"SB:Error sending init event:RC=0x%08X\n"
 159      7272 6F72 
68K GAS   			page 8


 159      2073 656E 
 159      6469 6E67 
 159      2069 6E69 
 160               	.text
 161               	.align2
 162               	.globlCFE_SB_AppInit
 163               	.typeCFE_SB_AppInit, @function
 164               	CFE_SB_AppInit:
 165               	.LFB60:
 174:/home/simulink/cFS_FreeRTOS_seL4/cfe/fsw/cfe-core/src/sb/cfe_sb_task.c **** 
 175:/home/simulink/cFS_FreeRTOS_seL4/cfe/fsw/cfe-core/src/sb/cfe_sb_task.c **** 
 176:/home/simulink/cFS_FreeRTOS_seL4/cfe/fsw/cfe-core/src/sb/cfe_sb_task.c **** 
 177:/home/simulink/cFS_FreeRTOS_seL4/cfe/fsw/cfe-core/src/sb/cfe_sb_task.c **** /******************************************************************************
 178:/home/simulink/cFS_FreeRTOS_seL4/cfe/fsw/cfe-core/src/sb/cfe_sb_task.c **** **  Function:  CFE_SB_AppInit()
 179:/home/simulink/cFS_FreeRTOS_seL4/cfe/fsw/cfe-core/src/sb/cfe_sb_task.c **** **
 180:/home/simulink/cFS_FreeRTOS_seL4/cfe/fsw/cfe-core/src/sb/cfe_sb_task.c **** **  Purpose:
 181:/home/simulink/cFS_FreeRTOS_seL4/cfe/fsw/cfe-core/src/sb/cfe_sb_task.c **** **    Initialization routine for SB application. This routine is executed when
 182:/home/simulink/cFS_FreeRTOS_seL4/cfe/fsw/cfe-core/src/sb/cfe_sb_task.c **** **    the SB application is started by Executive Services.
 183:/home/simulink/cFS_FreeRTOS_seL4/cfe/fsw/cfe-core/src/sb/cfe_sb_task.c **** **
 184:/home/simulink/cFS_FreeRTOS_seL4/cfe/fsw/cfe-core/src/sb/cfe_sb_task.c **** **  Arguments:
 185:/home/simulink/cFS_FreeRTOS_seL4/cfe/fsw/cfe-core/src/sb/cfe_sb_task.c **** **    none
 186:/home/simulink/cFS_FreeRTOS_seL4/cfe/fsw/cfe-core/src/sb/cfe_sb_task.c **** **
 187:/home/simulink/cFS_FreeRTOS_seL4/cfe/fsw/cfe-core/src/sb/cfe_sb_task.c **** **  Return:
 188:/home/simulink/cFS_FreeRTOS_seL4/cfe/fsw/cfe-core/src/sb/cfe_sb_task.c **** **    CFE_SUCCESS if no errors, otherwise this function returns the error code
 189:/home/simulink/cFS_FreeRTOS_seL4/cfe/fsw/cfe-core/src/sb/cfe_sb_task.c **** **    that was received from the function that detected the error.
 190:/home/simulink/cFS_FreeRTOS_seL4/cfe/fsw/cfe-core/src/sb/cfe_sb_task.c **** **    
 191:/home/simulink/cFS_FreeRTOS_seL4/cfe/fsw/cfe-core/src/sb/cfe_sb_task.c **** */
 192:/home/simulink/cFS_FreeRTOS_seL4/cfe/fsw/cfe-core/src/sb/cfe_sb_task.c **** int32 CFE_SB_AppInit(void){
 166               	.loc 1 192 0
 167               	.cfi_startproc
 168 00d6 4FEF FFF4 	lea (-12,%sp),%sp
 169               	.cfi_def_cfa_offset 16
 193:/home/simulink/cFS_FreeRTOS_seL4/cfe/fsw/cfe-core/src/sb/cfe_sb_task.c **** 
 194:/home/simulink/cFS_FreeRTOS_seL4/cfe/fsw/cfe-core/src/sb/cfe_sb_task.c ****     uint32 CfgFileEventsToFilter = 0;    
 170               	.loc 1 194 0
 171 00da 42AF 0008 	clr.l 8(%sp)
 195:/home/simulink/cFS_FreeRTOS_seL4/cfe/fsw/cfe-core/src/sb/cfe_sb_task.c ****     uint32 *TmpPtr = NULL;
 172               	.loc 1 195 0
 173 00de 4297      	clr.l (%sp)
 196:/home/simulink/cFS_FreeRTOS_seL4/cfe/fsw/cfe-core/src/sb/cfe_sb_task.c ****     int32  Status = CFE_SUCCESS;
 174               	.loc 1 196 0
 175 00e0 42AF 0004 	clr.l 4(%sp)
 197:/home/simulink/cFS_FreeRTOS_seL4/cfe/fsw/cfe-core/src/sb/cfe_sb_task.c ****     
 198:/home/simulink/cFS_FreeRTOS_seL4/cfe/fsw/cfe-core/src/sb/cfe_sb_task.c ****     Status = CFE_ES_RegisterApp();
 176               	.loc 1 198 0
 177 00e4 4EB9 0000 	jsr CFE_ES_RegisterApp
 177      0000 
 178 00ea 2F40 0004 	move.l %d0,4(%sp)
 199:/home/simulink/cFS_FreeRTOS_seL4/cfe/fsw/cfe-core/src/sb/cfe_sb_task.c **** 
 200:/home/simulink/cFS_FreeRTOS_seL4/cfe/fsw/cfe-core/src/sb/cfe_sb_task.c ****     if(Status != CFE_SUCCESS){
 179               	.loc 1 200 0
 180 00ee 4AAF 0004 	tst.l 4(%sp)
 181 00f2 671C      	jeq .L7
 201:/home/simulink/cFS_FreeRTOS_seL4/cfe/fsw/cfe-core/src/sb/cfe_sb_task.c ****       CFE_ES_WriteToSysLog("SB:Call to CFE_ES_RegisterApp Failed:RC=0x%08X\n",(unsigned int)Status)
 182               	.loc 1 201 0
 183 00f4 202F 0004 	move.l 4(%sp),%d0
 184 00f8 2F00      	move.l %d0,-(%sp)
68K GAS   			page 9


 185               	.cfi_def_cfa_offset 20
 186 00fa 4879 0000 	pea .LC2
 186      0000 
 187               	.cfi_def_cfa_offset 24
 188 0100 4EB9 0000 	jsr CFE_ES_WriteToSysLog
 188      0000 
 189 0106 508F      	addq.l #8,%sp
 190               	.cfi_def_cfa_offset 16
 202:/home/simulink/cFS_FreeRTOS_seL4/cfe/fsw/cfe-core/src/sb/cfe_sb_task.c ****       return Status;
 191               	.loc 1 202 0
 192 0108 202F 0004 	move.l 4(%sp),%d0
 193 010c 6000 035A 	jra .L17
 194               	.L7:
 203:/home/simulink/cFS_FreeRTOS_seL4/cfe/fsw/cfe-core/src/sb/cfe_sb_task.c ****     }/* end if */
 204:/home/simulink/cFS_FreeRTOS_seL4/cfe/fsw/cfe-core/src/sb/cfe_sb_task.c **** 
 205:/home/simulink/cFS_FreeRTOS_seL4/cfe/fsw/cfe-core/src/sb/cfe_sb_task.c ****     /* Get the assigned Application ID for the SB Task */
 206:/home/simulink/cFS_FreeRTOS_seL4/cfe/fsw/cfe-core/src/sb/cfe_sb_task.c ****     CFE_ES_GetAppID(&CFE_SB.AppId);
 195               	.loc 1 206 0
 196 0110 4879 0000 	pea CFE_SB+12
 196      0000 
 197               	.cfi_def_cfa_offset 20
 198 0116 4EB9 0000 	jsr CFE_ES_GetAppID
 198      0000 
 199 011c 588F      	addq.l #4,%sp
 200               	.cfi_def_cfa_offset 16
 207:/home/simulink/cFS_FreeRTOS_seL4/cfe/fsw/cfe-core/src/sb/cfe_sb_task.c **** 
 208:/home/simulink/cFS_FreeRTOS_seL4/cfe/fsw/cfe-core/src/sb/cfe_sb_task.c ****     /* Process the platform cfg file events to be filtered */
 209:/home/simulink/cFS_FreeRTOS_seL4/cfe/fsw/cfe-core/src/sb/cfe_sb_task.c ****     if(CFE_SB_FILTERED_EVENT1 != 0){
 210:/home/simulink/cFS_FreeRTOS_seL4/cfe/fsw/cfe-core/src/sb/cfe_sb_task.c ****       CFE_SB.EventFilters[CfgFileEventsToFilter].EventID = CFE_SB_FILTERED_EVENT1;
 201               	.loc 1 210 0
 202 011e 202F 0008 	move.l 8(%sp),%d0
 203 0122 0680 0002 	add.l #137261,%d0
 203      182D 
 204 0128 E588      	lsl.l #2,%d0
 205 012a 41F9 0000 	lea CFE_SB,%a0
 205      0000 
 206 0130 720E      	moveq #14,%d1
 207 0132 3181 0800 	move.w %d1,(%a0,%d0.l)
 211:/home/simulink/cFS_FreeRTOS_seL4/cfe/fsw/cfe-core/src/sb/cfe_sb_task.c ****       CFE_SB.EventFilters[CfgFileEventsToFilter].Mask    = CFE_SB_FILTER_MASK1;      
 208               	.loc 1 211 0
 209 0136 202F 0008 	move.l 8(%sp),%d0
 210 013a 0680 0002 	add.l #137261,%d0
 210      182D 
 211 0140 E588      	lsl.l #2,%d0
 212 0142 41F9 0000 	lea CFE_SB+2,%a0
 212      0000 
 213 0148 72FC      	moveq #-4,%d1
 214 014a 3181 0800 	move.w %d1,(%a0,%d0.l)
 212:/home/simulink/cFS_FreeRTOS_seL4/cfe/fsw/cfe-core/src/sb/cfe_sb_task.c ****       CfgFileEventsToFilter++;
 215               	.loc 1 212 0
 216 014e 52AF 0008 	addq.l #1,8(%sp)
 213:/home/simulink/cFS_FreeRTOS_seL4/cfe/fsw/cfe-core/src/sb/cfe_sb_task.c ****     }/* end if */           
 214:/home/simulink/cFS_FreeRTOS_seL4/cfe/fsw/cfe-core/src/sb/cfe_sb_task.c **** 
 215:/home/simulink/cFS_FreeRTOS_seL4/cfe/fsw/cfe-core/src/sb/cfe_sb_task.c ****     if(CFE_SB_FILTERED_EVENT2 != 0){
 216:/home/simulink/cFS_FreeRTOS_seL4/cfe/fsw/cfe-core/src/sb/cfe_sb_task.c ****       CFE_SB.EventFilters[CfgFileEventsToFilter].EventID = CFE_SB_FILTERED_EVENT2;
 217               	.loc 1 216 0
 218 0152 202F 0008 	move.l 8(%sp),%d0
68K GAS   			page 10


 219 0156 0680 0002 	add.l #137261,%d0
 219      182D 
 220 015c E588      	lsl.l #2,%d0
 221 015e 41F9 0000 	lea CFE_SB,%a0
 221      0000 
 222 0164 7207      	moveq #7,%d1
 223 0166 3181 0800 	move.w %d1,(%a0,%d0.l)
 217:/home/simulink/cFS_FreeRTOS_seL4/cfe/fsw/cfe-core/src/sb/cfe_sb_task.c ****       CFE_SB.EventFilters[CfgFileEventsToFilter].Mask    = CFE_SB_FILTER_MASK2;      
 224               	.loc 1 217 0
 225 016a 202F 0008 	move.l 8(%sp),%d0
 226 016e 0680 0002 	add.l #137261,%d0
 226      182D 
 227 0174 E588      	lsl.l #2,%d0
 228 0176 41F9 0000 	lea CFE_SB+2,%a0
 228      0000 
 229 017c 72FC      	moveq #-4,%d1
 230 017e 3181 0800 	move.w %d1,(%a0,%d0.l)
 218:/home/simulink/cFS_FreeRTOS_seL4/cfe/fsw/cfe-core/src/sb/cfe_sb_task.c ****       CfgFileEventsToFilter++;
 231               	.loc 1 218 0
 232 0182 52AF 0008 	addq.l #1,8(%sp)
 219:/home/simulink/cFS_FreeRTOS_seL4/cfe/fsw/cfe-core/src/sb/cfe_sb_task.c ****     }/* end if */      
 220:/home/simulink/cFS_FreeRTOS_seL4/cfe/fsw/cfe-core/src/sb/cfe_sb_task.c **** 
 221:/home/simulink/cFS_FreeRTOS_seL4/cfe/fsw/cfe-core/src/sb/cfe_sb_task.c ****     if(CFE_SB_FILTERED_EVENT3 != 0){
 222:/home/simulink/cFS_FreeRTOS_seL4/cfe/fsw/cfe-core/src/sb/cfe_sb_task.c ****       CFE_SB.EventFilters[CfgFileEventsToFilter].EventID = CFE_SB_FILTERED_EVENT3;
 233               	.loc 1 222 0
 234 0186 202F 0008 	move.l 8(%sp),%d0
 235 018a 0680 0002 	add.l #137261,%d0
 235      182D 
 236 0190 E588      	lsl.l #2,%d0
 237 0192 41F9 0000 	lea CFE_SB,%a0
 237      0000 
 238 0198 7211      	moveq #17,%d1
 239 019a 3181 0800 	move.w %d1,(%a0,%d0.l)
 223:/home/simulink/cFS_FreeRTOS_seL4/cfe/fsw/cfe-core/src/sb/cfe_sb_task.c ****       CFE_SB.EventFilters[CfgFileEventsToFilter].Mask    = CFE_SB_FILTER_MASK3;      
 240               	.loc 1 223 0
 241 019e 202F 0008 	move.l 8(%sp),%d0
 242 01a2 0680 0002 	add.l #137261,%d0
 242      182D 
 243 01a8 E588      	lsl.l #2,%d0
 244 01aa 41F9 0000 	lea CFE_SB+2,%a0
 244      0000 
 245 01b0 72F0      	moveq #-16,%d1
 246 01b2 3181 0800 	move.w %d1,(%a0,%d0.l)
 224:/home/simulink/cFS_FreeRTOS_seL4/cfe/fsw/cfe-core/src/sb/cfe_sb_task.c ****       CfgFileEventsToFilter++;
 247               	.loc 1 224 0
 248 01b6 52AF 0008 	addq.l #1,8(%sp)
 225:/home/simulink/cFS_FreeRTOS_seL4/cfe/fsw/cfe-core/src/sb/cfe_sb_task.c ****     }/* end if */      
 226:/home/simulink/cFS_FreeRTOS_seL4/cfe/fsw/cfe-core/src/sb/cfe_sb_task.c **** 
 227:/home/simulink/cFS_FreeRTOS_seL4/cfe/fsw/cfe-core/src/sb/cfe_sb_task.c ****     if(CFE_SB_FILTERED_EVENT4 != 0){
 228:/home/simulink/cFS_FreeRTOS_seL4/cfe/fsw/cfe-core/src/sb/cfe_sb_task.c ****       CFE_SB.EventFilters[CfgFileEventsToFilter].EventID = CFE_SB_FILTERED_EVENT4;
 249               	.loc 1 228 0
 250 01ba 202F 0008 	move.l 8(%sp),%d0
 251 01be 0680 0002 	add.l #137261,%d0
 251      182D 
 252 01c4 E588      	lsl.l #2,%d0
 253 01c6 41F9 0000 	lea CFE_SB,%a0
 253      0000 
68K GAS   			page 11


 254 01cc 7219      	moveq #25,%d1
 255 01ce 3181 0800 	move.w %d1,(%a0,%d0.l)
 229:/home/simulink/cFS_FreeRTOS_seL4/cfe/fsw/cfe-core/src/sb/cfe_sb_task.c ****       CFE_SB.EventFilters[CfgFileEventsToFilter].Mask    = CFE_SB_FILTER_MASK4;      
 256               	.loc 1 229 0
 257 01d2 202F 0008 	move.l 8(%sp),%d0
 258 01d6 0680 0002 	add.l #137261,%d0
 258      182D 
 259 01dc E588      	lsl.l #2,%d0
 260 01de 41F9 0000 	lea CFE_SB+2,%a0
 260      0000 
 261 01e4 72F0      	moveq #-16,%d1
 262 01e6 3181 0800 	move.w %d1,(%a0,%d0.l)
 230:/home/simulink/cFS_FreeRTOS_seL4/cfe/fsw/cfe-core/src/sb/cfe_sb_task.c ****       CfgFileEventsToFilter++;
 263               	.loc 1 230 0
 264 01ea 52AF 0008 	addq.l #1,8(%sp)
 231:/home/simulink/cFS_FreeRTOS_seL4/cfe/fsw/cfe-core/src/sb/cfe_sb_task.c ****     }/* end if */      
 232:/home/simulink/cFS_FreeRTOS_seL4/cfe/fsw/cfe-core/src/sb/cfe_sb_task.c **** 
 233:/home/simulink/cFS_FreeRTOS_seL4/cfe/fsw/cfe-core/src/sb/cfe_sb_task.c ****     if(CFE_SB_FILTERED_EVENT5 != 0){
 234:/home/simulink/cFS_FreeRTOS_seL4/cfe/fsw/cfe-core/src/sb/cfe_sb_task.c ****       CFE_SB.EventFilters[CfgFileEventsToFilter].EventID = CFE_SB_FILTERED_EVENT5;
 235:/home/simulink/cFS_FreeRTOS_seL4/cfe/fsw/cfe-core/src/sb/cfe_sb_task.c ****       CFE_SB.EventFilters[CfgFileEventsToFilter].Mask    = CFE_SB_FILTER_MASK5;      
 236:/home/simulink/cFS_FreeRTOS_seL4/cfe/fsw/cfe-core/src/sb/cfe_sb_task.c ****       CfgFileEventsToFilter++;
 237:/home/simulink/cFS_FreeRTOS_seL4/cfe/fsw/cfe-core/src/sb/cfe_sb_task.c ****     }/* end if */      
 238:/home/simulink/cFS_FreeRTOS_seL4/cfe/fsw/cfe-core/src/sb/cfe_sb_task.c **** 
 239:/home/simulink/cFS_FreeRTOS_seL4/cfe/fsw/cfe-core/src/sb/cfe_sb_task.c ****     if(CFE_SB_FILTERED_EVENT6 != 0){
 240:/home/simulink/cFS_FreeRTOS_seL4/cfe/fsw/cfe-core/src/sb/cfe_sb_task.c ****       CFE_SB.EventFilters[CfgFileEventsToFilter].EventID = CFE_SB_FILTERED_EVENT6;
 241:/home/simulink/cFS_FreeRTOS_seL4/cfe/fsw/cfe-core/src/sb/cfe_sb_task.c ****       CFE_SB.EventFilters[CfgFileEventsToFilter].Mask    = CFE_SB_FILTER_MASK6;      
 242:/home/simulink/cFS_FreeRTOS_seL4/cfe/fsw/cfe-core/src/sb/cfe_sb_task.c ****       CfgFileEventsToFilter++;
 243:/home/simulink/cFS_FreeRTOS_seL4/cfe/fsw/cfe-core/src/sb/cfe_sb_task.c ****     }/* end if */      
 244:/home/simulink/cFS_FreeRTOS_seL4/cfe/fsw/cfe-core/src/sb/cfe_sb_task.c **** 
 245:/home/simulink/cFS_FreeRTOS_seL4/cfe/fsw/cfe-core/src/sb/cfe_sb_task.c ****     if(CFE_SB_FILTERED_EVENT7 != 0){
 246:/home/simulink/cFS_FreeRTOS_seL4/cfe/fsw/cfe-core/src/sb/cfe_sb_task.c ****       CFE_SB.EventFilters[CfgFileEventsToFilter].EventID = CFE_SB_FILTERED_EVENT7;
 247:/home/simulink/cFS_FreeRTOS_seL4/cfe/fsw/cfe-core/src/sb/cfe_sb_task.c ****       CFE_SB.EventFilters[CfgFileEventsToFilter].Mask    = CFE_SB_FILTER_MASK7;      
 248:/home/simulink/cFS_FreeRTOS_seL4/cfe/fsw/cfe-core/src/sb/cfe_sb_task.c ****       CfgFileEventsToFilter++;
 249:/home/simulink/cFS_FreeRTOS_seL4/cfe/fsw/cfe-core/src/sb/cfe_sb_task.c ****     }/* end if */      
 250:/home/simulink/cFS_FreeRTOS_seL4/cfe/fsw/cfe-core/src/sb/cfe_sb_task.c **** 
 251:/home/simulink/cFS_FreeRTOS_seL4/cfe/fsw/cfe-core/src/sb/cfe_sb_task.c ****     if(CFE_SB_FILTERED_EVENT8 != 0){
 252:/home/simulink/cFS_FreeRTOS_seL4/cfe/fsw/cfe-core/src/sb/cfe_sb_task.c ****       CFE_SB.EventFilters[CfgFileEventsToFilter].EventID = CFE_SB_FILTERED_EVENT8;
 253:/home/simulink/cFS_FreeRTOS_seL4/cfe/fsw/cfe-core/src/sb/cfe_sb_task.c ****       CFE_SB.EventFilters[CfgFileEventsToFilter].Mask    = CFE_SB_FILTER_MASK8;      
 254:/home/simulink/cFS_FreeRTOS_seL4/cfe/fsw/cfe-core/src/sb/cfe_sb_task.c ****       CfgFileEventsToFilter++;
 255:/home/simulink/cFS_FreeRTOS_seL4/cfe/fsw/cfe-core/src/sb/cfe_sb_task.c ****     }/* end if */
 256:/home/simulink/cFS_FreeRTOS_seL4/cfe/fsw/cfe-core/src/sb/cfe_sb_task.c ****     
 257:/home/simulink/cFS_FreeRTOS_seL4/cfe/fsw/cfe-core/src/sb/cfe_sb_task.c ****     /* Be sure the number of events to register for filtering   
 258:/home/simulink/cFS_FreeRTOS_seL4/cfe/fsw/cfe-core/src/sb/cfe_sb_task.c ****     ** does not exceed CFE_EVS_MAX_EVENT_FILTERS */
 259:/home/simulink/cFS_FreeRTOS_seL4/cfe/fsw/cfe-core/src/sb/cfe_sb_task.c ****     if(CFE_EVS_MAX_EVENT_FILTERS < CfgFileEventsToFilter){
 265               	.loc 1 259 0
 266 01ee 7008      	moveq #8,%d0
 267 01f0 B0AF 0008 	cmp.l 8(%sp),%d0
 268 01f4 6406      	jcc .L9
 260:/home/simulink/cFS_FreeRTOS_seL4/cfe/fsw/cfe-core/src/sb/cfe_sb_task.c ****       CfgFileEventsToFilter = CFE_EVS_MAX_EVENT_FILTERS;
 269               	.loc 1 260 0
 270 01f6 7208      	moveq #8,%d1
 271 01f8 2F41 0008 	move.l %d1,8(%sp)
 272               	.L9:
 261:/home/simulink/cFS_FreeRTOS_seL4/cfe/fsw/cfe-core/src/sb/cfe_sb_task.c ****     }/* end if */
 262:/home/simulink/cFS_FreeRTOS_seL4/cfe/fsw/cfe-core/src/sb/cfe_sb_task.c **** 
 263:/home/simulink/cFS_FreeRTOS_seL4/cfe/fsw/cfe-core/src/sb/cfe_sb_task.c **** 
 264:/home/simulink/cFS_FreeRTOS_seL4/cfe/fsw/cfe-core/src/sb/cfe_sb_task.c ****     /* Register event filter table... */
68K GAS   			page 12


 265:/home/simulink/cFS_FreeRTOS_seL4/cfe/fsw/cfe-core/src/sb/cfe_sb_task.c ****     Status = CFE_EVS_Register(CFE_SB.EventFilters,
 273               	.loc 1 265 0
 274 01fc 202F 0008 	move.l 8(%sp),%d0
 275 0200 3000      	move.w %d0,%d0
 276 0202 3000      	move.w %d0,%d0
 277 0204 0280 0000 	and.l #65535,%d0
 277      FFFF 
 278 020a 42A7      	clr.l -(%sp)
 279               	.cfi_def_cfa_offset 20
 280 020c 2F00      	move.l %d0,-(%sp)
 281               	.cfi_def_cfa_offset 24
 282 020e 4879 0000 	pea CFE_SB+549044
 282      0000 
 283               	.cfi_def_cfa_offset 28
 284 0214 4EB9 0000 	jsr CFE_EVS_Register
 284      0000 
 285 021a 4FEF 000C 	lea (12,%sp),%sp
 286               	.cfi_def_cfa_offset 16
 287 021e 2F40 0004 	move.l %d0,4(%sp)
 266:/home/simulink/cFS_FreeRTOS_seL4/cfe/fsw/cfe-core/src/sb/cfe_sb_task.c ****                               CfgFileEventsToFilter,
 267:/home/simulink/cFS_FreeRTOS_seL4/cfe/fsw/cfe-core/src/sb/cfe_sb_task.c ****                               CFE_EVS_BINARY_FILTER);
 268:/home/simulink/cFS_FreeRTOS_seL4/cfe/fsw/cfe-core/src/sb/cfe_sb_task.c ****     if(Status != CFE_SUCCESS){
 288               	.loc 1 268 0
 289 0222 4AAF 0004 	tst.l 4(%sp)
 290 0226 671C      	jeq .L10
 269:/home/simulink/cFS_FreeRTOS_seL4/cfe/fsw/cfe-core/src/sb/cfe_sb_task.c ****       CFE_ES_WriteToSysLog("SB:Call to CFE_EVS_Register Failed:RC=0x%08X\n",(unsigned int)Status);
 291               	.loc 1 269 0
 292 0228 202F 0004 	move.l 4(%sp),%d0
 293 022c 2F00      	move.l %d0,-(%sp)
 294               	.cfi_def_cfa_offset 20
 295 022e 4879 0000 	pea .LC3
 295      0000 
 296               	.cfi_def_cfa_offset 24
 297 0234 4EB9 0000 	jsr CFE_ES_WriteToSysLog
 297      0000 
 298 023a 508F      	addq.l #8,%sp
 299               	.cfi_def_cfa_offset 16
 270:/home/simulink/cFS_FreeRTOS_seL4/cfe/fsw/cfe-core/src/sb/cfe_sb_task.c ****       return Status;
 300               	.loc 1 270 0
 301 023c 202F 0004 	move.l 4(%sp),%d0
 302 0240 6000 0226 	jra .L17
 303               	.L10:
 271:/home/simulink/cFS_FreeRTOS_seL4/cfe/fsw/cfe-core/src/sb/cfe_sb_task.c ****     }/* end if */
 272:/home/simulink/cFS_FreeRTOS_seL4/cfe/fsw/cfe-core/src/sb/cfe_sb_task.c ****     
 273:/home/simulink/cFS_FreeRTOS_seL4/cfe/fsw/cfe-core/src/sb/cfe_sb_task.c ****     CFE_ES_WriteToSysLog("SB:Registered %d events for filtering\n",(int)CfgFileEventsToFilter);
 304               	.loc 1 273 0
 305 0244 202F 0008 	move.l 8(%sp),%d0
 306 0248 2F00      	move.l %d0,-(%sp)
 307               	.cfi_def_cfa_offset 20
 308 024a 4879 0000 	pea .LC4
 308      0000 
 309               	.cfi_def_cfa_offset 24
 310 0250 4EB9 0000 	jsr CFE_ES_WriteToSysLog
 310      0000 
 311 0256 508F      	addq.l #8,%sp
 312               	.cfi_def_cfa_offset 16
 274:/home/simulink/cFS_FreeRTOS_seL4/cfe/fsw/cfe-core/src/sb/cfe_sb_task.c **** 
68K GAS   			page 13


 275:/home/simulink/cFS_FreeRTOS_seL4/cfe/fsw/cfe-core/src/sb/cfe_sb_task.c ****     CFE_SB_InitMsg(&CFE_SB.HKTlmMsg.Hdr.Pri,
 313               	.loc 1 275 0
 314 0258 4878 0001 	pea 1.w
 315               	.cfi_def_cfa_offset 20
 316 025c 4878 0028 	pea 40.w
 317               	.cfi_def_cfa_offset 24
 318 0260 4878 0803 	pea 2051.w
 319               	.cfi_def_cfa_offset 28
 320 0264 4879 0000 	pea CFE_SB+4500
 320      0000 
 321               	.cfi_def_cfa_offset 32
 322 026a 4EB9 0000 	jsr CFE_SB_InitMsg
 322      0000 
 323 0270 4FEF 0010 	lea (16,%sp),%sp
 324               	.cfi_def_cfa_offset 16
 276:/home/simulink/cFS_FreeRTOS_seL4/cfe/fsw/cfe-core/src/sb/cfe_sb_task.c ****                    CFE_SB_HK_TLM_MID,
 277:/home/simulink/cFS_FreeRTOS_seL4/cfe/fsw/cfe-core/src/sb/cfe_sb_task.c ****                    sizeof(CFE_SB_HKMsg_t),
 278:/home/simulink/cFS_FreeRTOS_seL4/cfe/fsw/cfe-core/src/sb/cfe_sb_task.c ****                    TRUE);
 279:/home/simulink/cFS_FreeRTOS_seL4/cfe/fsw/cfe-core/src/sb/cfe_sb_task.c **** 
 280:/home/simulink/cFS_FreeRTOS_seL4/cfe/fsw/cfe-core/src/sb/cfe_sb_task.c ****     CFE_SB_InitMsg(&CFE_SB.PrevSubMsg.Hdr.Pri,
 325               	.loc 1 280 0
 326 0274 4878 0001 	pea 1.w
 327               	.cfi_def_cfa_offset 20
 328 0278 4878 0090 	pea 144.w
 329               	.cfi_def_cfa_offset 24
 330 027c 4878 080D 	pea 2061.w
 331               	.cfi_def_cfa_offset 28
 332 0280 4879 0000 	pea CFE_SB+548880
 332      0000 
 333               	.cfi_def_cfa_offset 32
 334 0286 4EB9 0000 	jsr CFE_SB_InitMsg
 334      0000 
 335 028c 4FEF 0010 	lea (16,%sp),%sp
 336               	.cfi_def_cfa_offset 16
 281:/home/simulink/cFS_FreeRTOS_seL4/cfe/fsw/cfe-core/src/sb/cfe_sb_task.c ****                    CFE_SB_ALLSUBS_TLM_MID,
 282:/home/simulink/cFS_FreeRTOS_seL4/cfe/fsw/cfe-core/src/sb/cfe_sb_task.c ****                    sizeof(CFE_SB_PrevSubMsg_t),
 283:/home/simulink/cFS_FreeRTOS_seL4/cfe/fsw/cfe-core/src/sb/cfe_sb_task.c ****                    TRUE);
 284:/home/simulink/cFS_FreeRTOS_seL4/cfe/fsw/cfe-core/src/sb/cfe_sb_task.c **** 
 285:/home/simulink/cFS_FreeRTOS_seL4/cfe/fsw/cfe-core/src/sb/cfe_sb_task.c ****     CFE_SB_InitMsg(&CFE_SB.SubRprtMsg.Hdr.Pri,
 337               	.loc 1 285 0
 338 0290 4878 0001 	pea 1.w
 339               	.cfi_def_cfa_offset 20
 340 0294 4878 0014 	pea 20.w
 341               	.cfi_def_cfa_offset 24
 342 0298 4878 080E 	pea 2062.w
 343               	.cfi_def_cfa_offset 28
 344 029c 4879 0000 	pea CFE_SB+549024
 344      0000 
 345               	.cfi_def_cfa_offset 32
 346 02a2 4EB9 0000 	jsr CFE_SB_InitMsg
 346      0000 
 347 02a8 4FEF 0010 	lea (16,%sp),%sp
 348               	.cfi_def_cfa_offset 16
 286:/home/simulink/cFS_FreeRTOS_seL4/cfe/fsw/cfe-core/src/sb/cfe_sb_task.c ****                    CFE_SB_ONESUB_TLM_MID,
 287:/home/simulink/cFS_FreeRTOS_seL4/cfe/fsw/cfe-core/src/sb/cfe_sb_task.c ****                    sizeof(CFE_SB_SubRprtMsg_t),
 288:/home/simulink/cFS_FreeRTOS_seL4/cfe/fsw/cfe-core/src/sb/cfe_sb_task.c ****                    TRUE);    
 289:/home/simulink/cFS_FreeRTOS_seL4/cfe/fsw/cfe-core/src/sb/cfe_sb_task.c **** 
68K GAS   			page 14


 290:/home/simulink/cFS_FreeRTOS_seL4/cfe/fsw/cfe-core/src/sb/cfe_sb_task.c ****     /* Populate the fixed fields in the HK Tlm Msg */
 291:/home/simulink/cFS_FreeRTOS_seL4/cfe/fsw/cfe-core/src/sb/cfe_sb_task.c ****     CFE_SB_SET_MEMADDR(CFE_SB.HKTlmMsg.Payload.MemPoolHandle, CFE_SB.Mem.PoolHdl);
 349               	.loc 1 291 0
 350 02ac 2039 0000 	move.l CFE_SB+5132,%d0
 350      0000 
 351 02b2 23C0 0000 	move.l %d0,CFE_SB+4528
 351      0000 
 292:/home/simulink/cFS_FreeRTOS_seL4/cfe/fsw/cfe-core/src/sb/cfe_sb_task.c ****     
 293:/home/simulink/cFS_FreeRTOS_seL4/cfe/fsw/cfe-core/src/sb/cfe_sb_task.c ****     /* Populate the fixed fields in the Stat Tlm Msg */
 294:/home/simulink/cFS_FreeRTOS_seL4/cfe/fsw/cfe-core/src/sb/cfe_sb_task.c ****     CFE_SB.StatTlmMsg.Payload.MaxMsgIdsAllowed = CFE_SB_MAX_MSG_IDS;
 352               	.loc 1 294 0
 353 02b8 203C 0000 	move.l #256,%d0
 353      0100 
 354 02be 23C0 0000 	move.l %d0,CFE_SB+4560
 354      0000 
 295:/home/simulink/cFS_FreeRTOS_seL4/cfe/fsw/cfe-core/src/sb/cfe_sb_task.c ****     CFE_SB.StatTlmMsg.Payload.MaxPipesAllowed  = CFE_SB_MAX_PIPES;
 355               	.loc 1 295 0
 356 02c4 7240      	moveq #64,%d1
 357 02c6 23C1 0000 	move.l %d1,CFE_SB+4572
 357      0000 
 296:/home/simulink/cFS_FreeRTOS_seL4/cfe/fsw/cfe-core/src/sb/cfe_sb_task.c ****     CFE_SB.StatTlmMsg.Payload.MaxMemAllowed    = CFE_SB_BUF_MEMORY_BYTES;
 358               	.loc 1 296 0
 359 02cc 7008      	moveq #8,%d0
 360 02ce 4840      	swap %d0
 361 02d0 23C0 0000 	move.l %d0,CFE_SB+4584
 361      0000 
 297:/home/simulink/cFS_FreeRTOS_seL4/cfe/fsw/cfe-core/src/sb/cfe_sb_task.c ****     CFE_SB.StatTlmMsg.Payload.MaxPipeDepthAllowed = CFE_SB_MAX_PIPE_DEPTH;
 362               	.loc 1 297 0
 363 02d6 223C 0000 	move.l #256,%d1
 363      0100 
 364 02dc 23C1 0000 	move.l %d1,CFE_SB+4608
 364      0000 
 298:/home/simulink/cFS_FreeRTOS_seL4/cfe/fsw/cfe-core/src/sb/cfe_sb_task.c ****     CFE_SB.StatTlmMsg.Payload.MaxSubscriptionsAllowed =
 365               	.loc 1 298 0
 366 02e2 203C 0000 	move.l #4096,%d0
 366      1000 
 367 02e8 23C0 0000 	move.l %d0,CFE_SB+4596
 367      0000 
 299:/home/simulink/cFS_FreeRTOS_seL4/cfe/fsw/cfe-core/src/sb/cfe_sb_task.c ****                     ((CFE_SB_MAX_MSG_IDS)*(CFE_SB_MAX_DEST_PER_PKT));
 300:/home/simulink/cFS_FreeRTOS_seL4/cfe/fsw/cfe-core/src/sb/cfe_sb_task.c ****     
 301:/home/simulink/cFS_FreeRTOS_seL4/cfe/fsw/cfe-core/src/sb/cfe_sb_task.c ****     Status = CFE_SB_CreatePipe(&CFE_SB.CmdPipe,
 368               	.loc 1 301 0
 369 02ee 4879 0000 	pea .LC5
 369      0000 
 370               	.cfi_def_cfa_offset 20
 371 02f4 4878 0020 	pea 32.w
 372               	.cfi_def_cfa_offset 24
 373 02f8 4879 0000 	pea CFE_SB+5124
 373      0000 
 374               	.cfi_def_cfa_offset 28
 375 02fe 4EB9 0000 	jsr CFE_SB_CreatePipe
 375      0000 
 376 0304 4FEF 000C 	lea (12,%sp),%sp
 377               	.cfi_def_cfa_offset 16
 378 0308 2F40 0004 	move.l %d0,4(%sp)
 302:/home/simulink/cFS_FreeRTOS_seL4/cfe/fsw/cfe-core/src/sb/cfe_sb_task.c ****                                 CFE_SB_CMD_PIPE_DEPTH,
 303:/home/simulink/cFS_FreeRTOS_seL4/cfe/fsw/cfe-core/src/sb/cfe_sb_task.c ****                                 CFE_SB_CMD_PIPE_NAME);
68K GAS   			page 15


 304:/home/simulink/cFS_FreeRTOS_seL4/cfe/fsw/cfe-core/src/sb/cfe_sb_task.c ****     if(Status != CFE_SUCCESS){
 379               	.loc 1 304 0
 380 030c 4AAF 0004 	tst.l 4(%sp)
 381 0310 671C      	jeq .L11
 305:/home/simulink/cFS_FreeRTOS_seL4/cfe/fsw/cfe-core/src/sb/cfe_sb_task.c ****       CFE_ES_WriteToSysLog("SB:Call to CFE_SB_CreatePipe Failed:RC=0x%08X\n",(unsigned int)Status);
 382               	.loc 1 305 0
 383 0312 202F 0004 	move.l 4(%sp),%d0
 384 0316 2F00      	move.l %d0,-(%sp)
 385               	.cfi_def_cfa_offset 20
 386 0318 4879 0000 	pea .LC6
 386      0000 
 387               	.cfi_def_cfa_offset 24
 388 031e 4EB9 0000 	jsr CFE_ES_WriteToSysLog
 388      0000 
 389 0324 508F      	addq.l #8,%sp
 390               	.cfi_def_cfa_offset 16
 306:/home/simulink/cFS_FreeRTOS_seL4/cfe/fsw/cfe-core/src/sb/cfe_sb_task.c ****       return Status;
 391               	.loc 1 306 0
 392 0326 202F 0004 	move.l 4(%sp),%d0
 393 032a 6000 013C 	jra .L17
 394               	.L11:
 307:/home/simulink/cFS_FreeRTOS_seL4/cfe/fsw/cfe-core/src/sb/cfe_sb_task.c ****     }/* end if */                                
 308:/home/simulink/cFS_FreeRTOS_seL4/cfe/fsw/cfe-core/src/sb/cfe_sb_task.c **** 
 309:/home/simulink/cFS_FreeRTOS_seL4/cfe/fsw/cfe-core/src/sb/cfe_sb_task.c ****     Status = CFE_SB_Subscribe(CFE_SB_CMD_MID,CFE_SB.CmdPipe);
 395               	.loc 1 309 0
 396 032e 1039 0000 	move.b CFE_SB+5124,%d0
 396      0000 
 397 0334 1000      	move.b %d0,%d0
 398 0336 0280 0000 	and.l #255,%d0
 398      00FF 
 399 033c 2F00      	move.l %d0,-(%sp)
 400               	.cfi_def_cfa_offset 20
 401 033e 4878 1803 	pea 6147.w
 402               	.cfi_def_cfa_offset 24
 403 0342 4EB9 0000 	jsr CFE_SB_Subscribe
 403      0000 
 404 0348 508F      	addq.l #8,%sp
 405               	.cfi_def_cfa_offset 16
 406 034a 2F40 0004 	move.l %d0,4(%sp)
 310:/home/simulink/cFS_FreeRTOS_seL4/cfe/fsw/cfe-core/src/sb/cfe_sb_task.c **** 
 311:/home/simulink/cFS_FreeRTOS_seL4/cfe/fsw/cfe-core/src/sb/cfe_sb_task.c ****     if(Status != CFE_SUCCESS){
 407               	.loc 1 311 0
 408 034e 4AAF 0004 	tst.l 4(%sp)
 409 0352 671C      	jeq .L12
 312:/home/simulink/cFS_FreeRTOS_seL4/cfe/fsw/cfe-core/src/sb/cfe_sb_task.c ****       CFE_ES_WriteToSysLog("SB:Subscribe to Cmds Failed:RC=0x%08X\n",(unsigned int)Status);
 410               	.loc 1 312 0
 411 0354 202F 0004 	move.l 4(%sp),%d0
 412 0358 2F00      	move.l %d0,-(%sp)
 413               	.cfi_def_cfa_offset 20
 414 035a 4879 0000 	pea .LC7
 414      0000 
 415               	.cfi_def_cfa_offset 24
 416 0360 4EB9 0000 	jsr CFE_ES_WriteToSysLog
 416      0000 
 417 0366 508F      	addq.l #8,%sp
 418               	.cfi_def_cfa_offset 16
 313:/home/simulink/cFS_FreeRTOS_seL4/cfe/fsw/cfe-core/src/sb/cfe_sb_task.c ****       return Status;
68K GAS   			page 16


 419               	.loc 1 313 0
 420 0368 202F 0004 	move.l 4(%sp),%d0
 421 036c 6000 00FA 	jra .L17
 422               	.L12:
 314:/home/simulink/cFS_FreeRTOS_seL4/cfe/fsw/cfe-core/src/sb/cfe_sb_task.c ****     }/* end if */
 315:/home/simulink/cFS_FreeRTOS_seL4/cfe/fsw/cfe-core/src/sb/cfe_sb_task.c ****         
 316:/home/simulink/cFS_FreeRTOS_seL4/cfe/fsw/cfe-core/src/sb/cfe_sb_task.c ****     Status = CFE_SB_Subscribe(CFE_SB_SEND_HK_MID,CFE_SB.CmdPipe);
 423               	.loc 1 316 0
 424 0370 1039 0000 	move.b CFE_SB+5124,%d0
 424      0000 
 425 0376 1000      	move.b %d0,%d0
 426 0378 0280 0000 	and.l #255,%d0
 426      00FF 
 427 037e 2F00      	move.l %d0,-(%sp)
 428               	.cfi_def_cfa_offset 20
 429 0380 4878 180B 	pea 6155.w
 430               	.cfi_def_cfa_offset 24
 431 0384 4EB9 0000 	jsr CFE_SB_Subscribe
 431      0000 
 432 038a 508F      	addq.l #8,%sp
 433               	.cfi_def_cfa_offset 16
 434 038c 2F40 0004 	move.l %d0,4(%sp)
 317:/home/simulink/cFS_FreeRTOS_seL4/cfe/fsw/cfe-core/src/sb/cfe_sb_task.c **** 
 318:/home/simulink/cFS_FreeRTOS_seL4/cfe/fsw/cfe-core/src/sb/cfe_sb_task.c ****     if(Status != CFE_SUCCESS){
 435               	.loc 1 318 0
 436 0390 4AAF 0004 	tst.l 4(%sp)
 437 0394 671C      	jeq .L13
 319:/home/simulink/cFS_FreeRTOS_seL4/cfe/fsw/cfe-core/src/sb/cfe_sb_task.c ****       CFE_ES_WriteToSysLog("SB:Subscribe to HK Request Failed:RC=0x%08X\n",(unsigned int)Status);
 438               	.loc 1 319 0
 439 0396 202F 0004 	move.l 4(%sp),%d0
 440 039a 2F00      	move.l %d0,-(%sp)
 441               	.cfi_def_cfa_offset 20
 442 039c 4879 0000 	pea .LC8
 442      0000 
 443               	.cfi_def_cfa_offset 24
 444 03a2 4EB9 0000 	jsr CFE_ES_WriteToSysLog
 444      0000 
 445 03a8 508F      	addq.l #8,%sp
 446               	.cfi_def_cfa_offset 16
 320:/home/simulink/cFS_FreeRTOS_seL4/cfe/fsw/cfe-core/src/sb/cfe_sb_task.c ****       return Status;
 447               	.loc 1 320 0
 448 03aa 202F 0004 	move.l 4(%sp),%d0
 449 03ae 6000 00B8 	jra .L17
 450               	.L13:
 321:/home/simulink/cFS_FreeRTOS_seL4/cfe/fsw/cfe-core/src/sb/cfe_sb_task.c ****     }/* end if */
 322:/home/simulink/cFS_FreeRTOS_seL4/cfe/fsw/cfe-core/src/sb/cfe_sb_task.c ****      
 323:/home/simulink/cFS_FreeRTOS_seL4/cfe/fsw/cfe-core/src/sb/cfe_sb_task.c ****     /* Ensure a ground commanded reset does not get blocked if SB mem pool  */
 324:/home/simulink/cFS_FreeRTOS_seL4/cfe/fsw/cfe-core/src/sb/cfe_sb_task.c ****     /* becomes fully configured (DCR6772) */
 325:/home/simulink/cFS_FreeRTOS_seL4/cfe/fsw/cfe-core/src/sb/cfe_sb_task.c ****     Status = CFE_ES_GetPoolBuf((uint32 **)&TmpPtr, CFE_SB.Mem.PoolHdl,
 451               	.loc 1 325 0
 452 03b2 2039 0000 	move.l CFE_SB+5132,%d0
 452      0000 
 453 03b8 4878 000A 	pea 10.w
 454               	.cfi_def_cfa_offset 20
 455 03bc 2F00      	move.l %d0,-(%sp)
 456               	.cfi_def_cfa_offset 24
 457 03be 200F      	move.l %sp,%d0
68K GAS   			page 17


 458 03c0 5080      	addq.l #8,%d0
 459 03c2 2F00      	move.l %d0,-(%sp)
 460               	.cfi_def_cfa_offset 28
 461 03c4 4EB9 0000 	jsr CFE_ES_GetPoolBuf
 461      0000 
 462 03ca 4FEF 000C 	lea (12,%sp),%sp
 463               	.cfi_def_cfa_offset 16
 464 03ce 2F40 0004 	move.l %d0,4(%sp)
 326:/home/simulink/cFS_FreeRTOS_seL4/cfe/fsw/cfe-core/src/sb/cfe_sb_task.c ****                                         sizeof(CFE_ES_RestartCmd_t));    
 327:/home/simulink/cFS_FreeRTOS_seL4/cfe/fsw/cfe-core/src/sb/cfe_sb_task.c **** 
 328:/home/simulink/cFS_FreeRTOS_seL4/cfe/fsw/cfe-core/src/sb/cfe_sb_task.c ****     if(Status < 0){
 465               	.loc 1 328 0
 466 03d2 4AAF 0004 	tst.l 4(%sp)
 467 03d6 6C1A      	jge .L14
 329:/home/simulink/cFS_FreeRTOS_seL4/cfe/fsw/cfe-core/src/sb/cfe_sb_task.c ****       CFE_ES_WriteToSysLog("SB:Init error, GetPool Failed:RC=0x%08X\n",(unsigned int)Status);
 468               	.loc 1 329 0
 469 03d8 202F 0004 	move.l 4(%sp),%d0
 470 03dc 2F00      	move.l %d0,-(%sp)
 471               	.cfi_def_cfa_offset 20
 472 03de 4879 0000 	pea .LC9
 472      0000 
 473               	.cfi_def_cfa_offset 24
 474 03e4 4EB9 0000 	jsr CFE_ES_WriteToSysLog
 474      0000 
 475 03ea 508F      	addq.l #8,%sp
 476               	.cfi_def_cfa_offset 16
 330:/home/simulink/cFS_FreeRTOS_seL4/cfe/fsw/cfe-core/src/sb/cfe_sb_task.c ****       return Status;
 477               	.loc 1 330 0
 478 03ec 202F 0004 	move.l 4(%sp),%d0
 479 03f0 6076      	jra .L17
 480               	.L14:
 331:/home/simulink/cFS_FreeRTOS_seL4/cfe/fsw/cfe-core/src/sb/cfe_sb_task.c ****     }/* end if */
 332:/home/simulink/cFS_FreeRTOS_seL4/cfe/fsw/cfe-core/src/sb/cfe_sb_task.c **** 
 333:/home/simulink/cFS_FreeRTOS_seL4/cfe/fsw/cfe-core/src/sb/cfe_sb_task.c ****     /* Return mem block used on previous call,the actual memory is not needed.*/
 334:/home/simulink/cFS_FreeRTOS_seL4/cfe/fsw/cfe-core/src/sb/cfe_sb_task.c ****     /* The SB mem pool is now configured with a block size for the reset cmd. */
 335:/home/simulink/cFS_FreeRTOS_seL4/cfe/fsw/cfe-core/src/sb/cfe_sb_task.c ****     Status = CFE_ES_PutPoolBuf(CFE_SB.Mem.PoolHdl, (uint32 *)TmpPtr);
 481               	.loc 1 335 0
 482 03f2 2217      	move.l (%sp),%d1
 483 03f4 2039 0000 	move.l CFE_SB+5132,%d0
 483      0000 
 484 03fa 2F01      	move.l %d1,-(%sp)
 485               	.cfi_def_cfa_offset 20
 486 03fc 2F00      	move.l %d0,-(%sp)
 487               	.cfi_def_cfa_offset 24
 488 03fe 4EB9 0000 	jsr CFE_ES_PutPoolBuf
 488      0000 
 489 0404 508F      	addq.l #8,%sp
 490               	.cfi_def_cfa_offset 16
 491 0406 2F40 0004 	move.l %d0,4(%sp)
 336:/home/simulink/cFS_FreeRTOS_seL4/cfe/fsw/cfe-core/src/sb/cfe_sb_task.c **** 
 337:/home/simulink/cFS_FreeRTOS_seL4/cfe/fsw/cfe-core/src/sb/cfe_sb_task.c ****     if(Status < 0){
 492               	.loc 1 337 0
 493 040a 4AAF 0004 	tst.l 4(%sp)
 494 040e 6C1A      	jge .L15
 338:/home/simulink/cFS_FreeRTOS_seL4/cfe/fsw/cfe-core/src/sb/cfe_sb_task.c ****       CFE_ES_WriteToSysLog("SB:Init error, PutPool Failed:RC=0x%08X\n",(unsigned int)Status);
 495               	.loc 1 338 0
 496 0410 202F 0004 	move.l 4(%sp),%d0
68K GAS   			page 18


 497 0414 2F00      	move.l %d0,-(%sp)
 498               	.cfi_def_cfa_offset 20
 499 0416 4879 0000 	pea .LC10
 499      0000 
 500               	.cfi_def_cfa_offset 24
 501 041c 4EB9 0000 	jsr CFE_ES_WriteToSysLog
 501      0000 
 502 0422 508F      	addq.l #8,%sp
 503               	.cfi_def_cfa_offset 16
 339:/home/simulink/cFS_FreeRTOS_seL4/cfe/fsw/cfe-core/src/sb/cfe_sb_task.c ****       return Status;
 504               	.loc 1 339 0
 505 0424 202F 0004 	move.l 4(%sp),%d0
 506 0428 603E      	jra .L17
 507               	.L15:
 340:/home/simulink/cFS_FreeRTOS_seL4/cfe/fsw/cfe-core/src/sb/cfe_sb_task.c ****     }/* end if */    
 341:/home/simulink/cFS_FreeRTOS_seL4/cfe/fsw/cfe-core/src/sb/cfe_sb_task.c ****     
 342:/home/simulink/cFS_FreeRTOS_seL4/cfe/fsw/cfe-core/src/sb/cfe_sb_task.c ****     Status = CFE_EVS_SendEvent(CFE_SB_INIT_EID,
 508               	.loc 1 342 0
 509 042a 4879 0000 	pea .LC11
 509      0000 
 510               	.cfi_def_cfa_offset 20
 511 0430 4878 0002 	pea 2.w
 512               	.cfi_def_cfa_offset 24
 513 0434 4878 0001 	pea 1.w
 514               	.cfi_def_cfa_offset 28
 515 0438 4EB9 0000 	jsr CFE_EVS_SendEvent
 515      0000 
 516 043e 4FEF 000C 	lea (12,%sp),%sp
 517               	.cfi_def_cfa_offset 16
 518 0442 2F40 0004 	move.l %d0,4(%sp)
 343:/home/simulink/cFS_FreeRTOS_seL4/cfe/fsw/cfe-core/src/sb/cfe_sb_task.c ****                               CFE_EVS_INFORMATION,
 344:/home/simulink/cFS_FreeRTOS_seL4/cfe/fsw/cfe-core/src/sb/cfe_sb_task.c ****                               "cFE SB Initialized");
 345:/home/simulink/cFS_FreeRTOS_seL4/cfe/fsw/cfe-core/src/sb/cfe_sb_task.c ****     if(Status != CFE_SUCCESS){
 519               	.loc 1 345 0
 520 0446 4AAF 0004 	tst.l 4(%sp)
 521 044a 671A      	jeq .L16
 346:/home/simulink/cFS_FreeRTOS_seL4/cfe/fsw/cfe-core/src/sb/cfe_sb_task.c ****       CFE_ES_WriteToSysLog("SB:Error sending init event:RC=0x%08X\n",(unsigned int)Status);
 522               	.loc 1 346 0
 523 044c 202F 0004 	move.l 4(%sp),%d0
 524 0450 2F00      	move.l %d0,-(%sp)
 525               	.cfi_def_cfa_offset 20
 526 0452 4879 0000 	pea .LC12
 526      0000 
 527               	.cfi_def_cfa_offset 24
 528 0458 4EB9 0000 	jsr CFE_ES_WriteToSysLog
 528      0000 
 529 045e 508F      	addq.l #8,%sp
 530               	.cfi_def_cfa_offset 16
 347:/home/simulink/cFS_FreeRTOS_seL4/cfe/fsw/cfe-core/src/sb/cfe_sb_task.c ****       return Status;
 531               	.loc 1 347 0
 532 0460 202F 0004 	move.l 4(%sp),%d0
 533 0464 6002      	jra .L17
 534               	.L16:
 348:/home/simulink/cFS_FreeRTOS_seL4/cfe/fsw/cfe-core/src/sb/cfe_sb_task.c ****     }/* end if */
 349:/home/simulink/cFS_FreeRTOS_seL4/cfe/fsw/cfe-core/src/sb/cfe_sb_task.c ****                       
 350:/home/simulink/cFS_FreeRTOS_seL4/cfe/fsw/cfe-core/src/sb/cfe_sb_task.c ****     return CFE_SUCCESS;                      
 535               	.loc 1 350 0
68K GAS   			page 19


 536 0466 4280      	clr.l %d0
 537               	.L17:
 351:/home/simulink/cFS_FreeRTOS_seL4/cfe/fsw/cfe-core/src/sb/cfe_sb_task.c **** 
 352:/home/simulink/cFS_FreeRTOS_seL4/cfe/fsw/cfe-core/src/sb/cfe_sb_task.c **** }/* end CFE_SB_AppInit */
 538               	.loc 1 352 0 discriminator 1
 539 0468 4FEF 000C 	lea (12,%sp),%sp
 540 046c 4E75      	rts
 541               	.cfi_endproc
 542               	.LFE60:
 543               	.sizeCFE_SB_AppInit, .-CFE_SB_AppInit
 544               	.section.rodata
 545               	.LC13:
 546 01eb 4E6F 2D6F 	.string"No-op Cmd Rcvd. cFE Version %d.%d.%d.%d"
 546      7020 436D 
 546      6420 5263 
 546      7664 2E20 
 546      6346 4520 
 547               	.LC14:
 548 0213 5265 7365 	.string"Reset Counters Cmd Rcvd"
 548      7420 436F 
 548      756E 7465 
 548      7273 2043 
 548      6D64 2052 
 549               	.LC15:
 550 022b 496E 7661 	.string"Invalid Cmd, Unexpected Command Code %d"
 550      6C69 6420 
 550      436D 642C 
 550      2055 6E65 
 550      7870 6563 
 551               	.LC16:
 552 0253 496E 7661 	.string"Invalid Cmd, Unexpected Msg Id: 0x%04x"
 552      6C69 6420 
 552      436D 642C 
 552      2055 6E65 
 552      7870 6563 
 553               	.text
 554               	.align2
 555               	.globlCFE_SB_ProcessCmdPipePkt
 556               	.typeCFE_SB_ProcessCmdPipePkt, @function
 557               	CFE_SB_ProcessCmdPipePkt:
 558               	.LFB61:
 353:/home/simulink/cFS_FreeRTOS_seL4/cfe/fsw/cfe-core/src/sb/cfe_sb_task.c **** 
 354:/home/simulink/cFS_FreeRTOS_seL4/cfe/fsw/cfe-core/src/sb/cfe_sb_task.c **** 
 355:/home/simulink/cFS_FreeRTOS_seL4/cfe/fsw/cfe-core/src/sb/cfe_sb_task.c **** 
 356:/home/simulink/cFS_FreeRTOS_seL4/cfe/fsw/cfe-core/src/sb/cfe_sb_task.c **** 
 357:/home/simulink/cFS_FreeRTOS_seL4/cfe/fsw/cfe-core/src/sb/cfe_sb_task.c **** /******************************************************************************
 358:/home/simulink/cFS_FreeRTOS_seL4/cfe/fsw/cfe-core/src/sb/cfe_sb_task.c **** **  Function:  CFE_SB_ProcessCmdPipePkt()
 359:/home/simulink/cFS_FreeRTOS_seL4/cfe/fsw/cfe-core/src/sb/cfe_sb_task.c **** **
 360:/home/simulink/cFS_FreeRTOS_seL4/cfe/fsw/cfe-core/src/sb/cfe_sb_task.c **** **  Purpose:
 361:/home/simulink/cFS_FreeRTOS_seL4/cfe/fsw/cfe-core/src/sb/cfe_sb_task.c **** **    Function to control actions when an SB command is received.
 362:/home/simulink/cFS_FreeRTOS_seL4/cfe/fsw/cfe-core/src/sb/cfe_sb_task.c **** **
 363:/home/simulink/cFS_FreeRTOS_seL4/cfe/fsw/cfe-core/src/sb/cfe_sb_task.c **** **  Arguments:
 364:/home/simulink/cFS_FreeRTOS_seL4/cfe/fsw/cfe-core/src/sb/cfe_sb_task.c **** **    none
 365:/home/simulink/cFS_FreeRTOS_seL4/cfe/fsw/cfe-core/src/sb/cfe_sb_task.c **** **
 366:/home/simulink/cFS_FreeRTOS_seL4/cfe/fsw/cfe-core/src/sb/cfe_sb_task.c **** **  Return:
 367:/home/simulink/cFS_FreeRTOS_seL4/cfe/fsw/cfe-core/src/sb/cfe_sb_task.c **** **    none
 368:/home/simulink/cFS_FreeRTOS_seL4/cfe/fsw/cfe-core/src/sb/cfe_sb_task.c **** */
68K GAS   			page 20


 369:/home/simulink/cFS_FreeRTOS_seL4/cfe/fsw/cfe-core/src/sb/cfe_sb_task.c **** void CFE_SB_ProcessCmdPipePkt(void){
 559               	.loc 1 369 0
 560               	.cfi_startproc
 561 046e 598F      	subq.l #4,%sp
 562               	.cfi_def_cfa_offset 8
 370:/home/simulink/cFS_FreeRTOS_seL4/cfe/fsw/cfe-core/src/sb/cfe_sb_task.c ****    CFE_SB_MsgPayloadPtr_t Payload;
 371:/home/simulink/cFS_FreeRTOS_seL4/cfe/fsw/cfe-core/src/sb/cfe_sb_task.c ****    Payload = &CFE_SB.CmdPipePktPtr->Byte[CFE_SB_CMD_HDR_SIZE];
 563               	.loc 1 371 0
 564 0470 2039 0000 	move.l CFE_SB+5128,%d0
 564      0000 
 565 0476 2200      	move.l %d0,%d1
 566 0478 5081      	addq.l #8,%d1
 567 047a 2E81      	move.l %d1,(%sp)
 372:/home/simulink/cFS_FreeRTOS_seL4/cfe/fsw/cfe-core/src/sb/cfe_sb_task.c ****    switch(CFE_SB_GetMsgId(CFE_SB.CmdPipePktPtr)){
 568               	.loc 1 372 0
 569 047c 2039 0000 	move.l CFE_SB+5128,%d0
 569      0000 
 570 0482 2F00      	move.l %d0,-(%sp)
 571               	.cfi_def_cfa_offset 12
 572 0484 4EB9 0000 	jsr CFE_SB_GetMsgId
 572      0000 
 573 048a 588F      	addq.l #4,%sp
 574               	.cfi_def_cfa_offset 8
 575 048c 3000      	move.w %d0,%d0
 576 048e 0280 0000 	and.l #65535,%d0
 576      FFFF 
 577 0494 0C80 0000 	cmp.l #6147,%d0
 577      1803 
 578 049a 6714      	jeq .L20
 579 049c 0C80 0000 	cmp.l #6155,%d0
 579      180B 
 580 04a2 6600 0162 	jne .L37
 373:/home/simulink/cFS_FreeRTOS_seL4/cfe/fsw/cfe-core/src/sb/cfe_sb_task.c **** 
 374:/home/simulink/cFS_FreeRTOS_seL4/cfe/fsw/cfe-core/src/sb/cfe_sb_task.c ****       case CFE_SB_SEND_HK_MID:
 375:/home/simulink/cFS_FreeRTOS_seL4/cfe/fsw/cfe-core/src/sb/cfe_sb_task.c ****          /* Note: Command counter not incremented for this command */
 376:/home/simulink/cFS_FreeRTOS_seL4/cfe/fsw/cfe-core/src/sb/cfe_sb_task.c ****          CFE_SB_SendHKTlmPkt();
 581               	.loc 1 376 0
 582 04a6 4EB9 0000 	jsr CFE_SB_SendHKTlmPkt
 582      0000 
 377:/home/simulink/cFS_FreeRTOS_seL4/cfe/fsw/cfe-core/src/sb/cfe_sb_task.c ****          break;
 583               	.loc 1 377 0
 584 04ac 6000 019C 	jra .L22
 585               	.L20:
 378:/home/simulink/cFS_FreeRTOS_seL4/cfe/fsw/cfe-core/src/sb/cfe_sb_task.c **** 
 379:/home/simulink/cFS_FreeRTOS_seL4/cfe/fsw/cfe-core/src/sb/cfe_sb_task.c ****       case CFE_SB_CMD_MID:
 380:/home/simulink/cFS_FreeRTOS_seL4/cfe/fsw/cfe-core/src/sb/cfe_sb_task.c ****          switch (CFE_SB_GetCmdCode(CFE_SB.CmdPipePktPtr)) {
 586               	.loc 1 380 0
 587 04b0 2039 0000 	move.l CFE_SB+5128,%d0
 587      0000 
 588 04b6 2F00      	move.l %d0,-(%sp)
 589               	.cfi_def_cfa_offset 12
 590 04b8 4EB9 0000 	jsr CFE_SB_GetCmdCode
 590      0000 
 591 04be 588F      	addq.l #4,%sp
 592               	.cfi_def_cfa_offset 8
 593 04c0 3000      	move.w %d0,%d0
 594 04c2 0280 0000 	and.l #65535,%d0
68K GAS   			page 21


 594      FFFF 
 595 04c8 720B      	moveq #11,%d1
 596 04ca B280      	cmp.l %d0,%d1
 597 04cc 6500 00F2 	jcs .L23
 598 04d0 D080      	add.l %d0,%d0
 599 04d2 2040      	move.l %d0,%a0
 600 04d4 D1FC 0000 	add.l #.L25,%a0
 600      0000 
 601 04da 3010      	move.w (%a0),%d0
 602 04dc 48C0      	ext.l %d0
 603 04de 4EFB 0802 	jmp %pc@(2,%d0:l)
 604               	.balignw 2,0x284c
 605               	.swbeg&12
 606               	.L25:
 607 04e2 0018      	.word .L24-.L25
 608 04e4 0050      	.word .L26-.L25
 609 04e6 0072      	.word .L27-.L25
 610 04e8 007C      	.word .L28-.L25
 611 04ea 008A      	.word .L29-.L25
 612 04ec 0098      	.word .L30-.L25
 613 04ee 00DE      	.word .L23-.L25
 614 04f0 00A4      	.word .L31-.L25
 615 04f2 00B0      	.word .L32-.L25
 616 04f4 00C4      	.word .L33-.L25
 617 04f6 00D2      	.word .L34-.L25
 618 04f8 00BC      	.word .L35-.L25
 619               	.L24:
 381:/home/simulink/cFS_FreeRTOS_seL4/cfe/fsw/cfe-core/src/sb/cfe_sb_task.c ****             case CFE_SB_NOOP_CC:
 382:/home/simulink/cFS_FreeRTOS_seL4/cfe/fsw/cfe-core/src/sb/cfe_sb_task.c ****                CFE_EVS_SendEvent(CFE_SB_CMD0_RCVD_EID,CFE_EVS_INFORMATION,
 620               	.loc 1 382 0
 621 04fa 42A7      	clr.l -(%sp)
 622               	.cfi_def_cfa_offset 12
 623 04fc 42A7      	clr.l -(%sp)
 624               	.cfi_def_cfa_offset 16
 625 04fe 4878 0005 	pea 5.w
 626               	.cfi_def_cfa_offset 20
 627 0502 4878 0006 	pea 6.w
 628               	.cfi_def_cfa_offset 24
 629 0506 4879 0000 	pea .LC13
 629      0000 
 630               	.cfi_def_cfa_offset 28
 631 050c 4878 0002 	pea 2.w
 632               	.cfi_def_cfa_offset 32
 633 0510 4878 001C 	pea 28.w
 634               	.cfi_def_cfa_offset 36
 635 0514 4EB9 0000 	jsr CFE_EVS_SendEvent
 635      0000 
 636 051a 4FEF 001C 	lea (28,%sp),%sp
 637               	.cfi_def_cfa_offset 8
 383:/home/simulink/cFS_FreeRTOS_seL4/cfe/fsw/cfe-core/src/sb/cfe_sb_task.c ****                                  "No-op Cmd Rcvd. cFE Version %d.%d.%d.%d",
 384:/home/simulink/cFS_FreeRTOS_seL4/cfe/fsw/cfe-core/src/sb/cfe_sb_task.c ****                                  CFE_MAJOR_VERSION,CFE_MINOR_VERSION,CFE_REVISION,CFE_MISSION_REV);
 385:/home/simulink/cFS_FreeRTOS_seL4/cfe/fsw/cfe-core/src/sb/cfe_sb_task.c ****                CFE_SB.HKTlmMsg.Payload.CommandCnt++;
 638               	.loc 1 385 0
 639 051e 1039 0000 	move.b CFE_SB+4512,%d0
 639      0000 
 640 0524 5280      	addq.l #1,%d0
 641 0526 1000      	move.b %d0,%d0
68K GAS   			page 22


 642 0528 13C0 0000 	move.b %d0,CFE_SB+4512
 642      0000 
 386:/home/simulink/cFS_FreeRTOS_seL4/cfe/fsw/cfe-core/src/sb/cfe_sb_task.c ****                break;
 643               	.loc 1 386 0
 644 052e 6000 00D4 	jra .L36
 645               	.L26:
 387:/home/simulink/cFS_FreeRTOS_seL4/cfe/fsw/cfe-core/src/sb/cfe_sb_task.c **** 
 388:/home/simulink/cFS_FreeRTOS_seL4/cfe/fsw/cfe-core/src/sb/cfe_sb_task.c ****             case CFE_SB_RESET_CTRS_CC:
 389:/home/simulink/cFS_FreeRTOS_seL4/cfe/fsw/cfe-core/src/sb/cfe_sb_task.c ****                /* Note: Command counter not incremented for this command */
 390:/home/simulink/cFS_FreeRTOS_seL4/cfe/fsw/cfe-core/src/sb/cfe_sb_task.c ****                CFE_EVS_SendEvent(CFE_SB_CMD1_RCVD_EID,CFE_EVS_DEBUG,
 646               	.loc 1 390 0
 647 0532 4879 0000 	pea .LC14
 647      0000 
 648               	.cfi_def_cfa_offset 12
 649 0538 4878 0001 	pea 1.w
 650               	.cfi_def_cfa_offset 16
 651 053c 4878 001D 	pea 29.w
 652               	.cfi_def_cfa_offset 20
 653 0540 4EB9 0000 	jsr CFE_EVS_SendEvent
 653      0000 
 654 0546 4FEF 000C 	lea (12,%sp),%sp
 655               	.cfi_def_cfa_offset 8
 391:/home/simulink/cFS_FreeRTOS_seL4/cfe/fsw/cfe-core/src/sb/cfe_sb_task.c ****                                  "Reset Counters Cmd Rcvd");
 392:/home/simulink/cFS_FreeRTOS_seL4/cfe/fsw/cfe-core/src/sb/cfe_sb_task.c ****                CFE_SB_ResetCounters();
 656               	.loc 1 392 0
 657 054a 4EB9 0000 	jsr CFE_SB_ResetCounters
 657      0000 
 393:/home/simulink/cFS_FreeRTOS_seL4/cfe/fsw/cfe-core/src/sb/cfe_sb_task.c ****                break;
 658               	.loc 1 393 0
 659 0550 6000 00B2 	jra .L36
 660               	.L27:
 394:/home/simulink/cFS_FreeRTOS_seL4/cfe/fsw/cfe-core/src/sb/cfe_sb_task.c **** 
 395:/home/simulink/cFS_FreeRTOS_seL4/cfe/fsw/cfe-core/src/sb/cfe_sb_task.c ****             case CFE_SB_SEND_SB_STATS_CC:
 396:/home/simulink/cFS_FreeRTOS_seL4/cfe/fsw/cfe-core/src/sb/cfe_sb_task.c ****                 CFE_SB_SendStats();
 661               	.loc 1 396 0
 662 0554 4EB9 0000 	jsr CFE_SB_SendStats
 662      0000 
 397:/home/simulink/cFS_FreeRTOS_seL4/cfe/fsw/cfe-core/src/sb/cfe_sb_task.c ****                 break;
 663               	.loc 1 397 0
 664 055a 6000 00A8 	jra .L36
 665               	.L28:
 398:/home/simulink/cFS_FreeRTOS_seL4/cfe/fsw/cfe-core/src/sb/cfe_sb_task.c **** 
 399:/home/simulink/cFS_FreeRTOS_seL4/cfe/fsw/cfe-core/src/sb/cfe_sb_task.c ****             case CFE_SB_SEND_ROUTING_INFO_CC:
 400:/home/simulink/cFS_FreeRTOS_seL4/cfe/fsw/cfe-core/src/sb/cfe_sb_task.c ****                 CFE_SB_ProcessSendRtgInfoCmd(Payload);
 666               	.loc 1 400 0
 667 055e 2F17      	move.l (%sp),-(%sp)
 668               	.cfi_def_cfa_offset 12
 669 0560 4EB9 0000 	jsr CFE_SB_ProcessSendRtgInfoCmd
 669      0000 
 670 0566 588F      	addq.l #4,%sp
 671               	.cfi_def_cfa_offset 8
 401:/home/simulink/cFS_FreeRTOS_seL4/cfe/fsw/cfe-core/src/sb/cfe_sb_task.c ****                 break;
 672               	.loc 1 401 0
 673 0568 6000 009A 	jra .L36
 674               	.L29:
 402:/home/simulink/cFS_FreeRTOS_seL4/cfe/fsw/cfe-core/src/sb/cfe_sb_task.c **** 
 403:/home/simulink/cFS_FreeRTOS_seL4/cfe/fsw/cfe-core/src/sb/cfe_sb_task.c ****             case CFE_SB_ENABLE_ROUTE_CC:
68K GAS   			page 23


 404:/home/simulink/cFS_FreeRTOS_seL4/cfe/fsw/cfe-core/src/sb/cfe_sb_task.c ****                 CFE_SB_EnableRoute(Payload);
 675               	.loc 1 404 0
 676 056c 2F17      	move.l (%sp),-(%sp)
 677               	.cfi_def_cfa_offset 12
 678 056e 4EB9 0000 	jsr CFE_SB_EnableRoute
 678      0000 
 679 0574 588F      	addq.l #4,%sp
 680               	.cfi_def_cfa_offset 8
 405:/home/simulink/cFS_FreeRTOS_seL4/cfe/fsw/cfe-core/src/sb/cfe_sb_task.c ****                 break;
 681               	.loc 1 405 0
 682 0576 6000 008C 	jra .L36
 683               	.L30:
 406:/home/simulink/cFS_FreeRTOS_seL4/cfe/fsw/cfe-core/src/sb/cfe_sb_task.c **** 
 407:/home/simulink/cFS_FreeRTOS_seL4/cfe/fsw/cfe-core/src/sb/cfe_sb_task.c ****             case CFE_SB_DISABLE_ROUTE_CC:
 408:/home/simulink/cFS_FreeRTOS_seL4/cfe/fsw/cfe-core/src/sb/cfe_sb_task.c ****                 CFE_SB_DisableRoute(Payload);
 684               	.loc 1 408 0
 685 057a 2F17      	move.l (%sp),-(%sp)
 686               	.cfi_def_cfa_offset 12
 687 057c 4EB9 0000 	jsr CFE_SB_DisableRoute
 687      0000 
 688 0582 588F      	addq.l #4,%sp
 689               	.cfi_def_cfa_offset 8
 409:/home/simulink/cFS_FreeRTOS_seL4/cfe/fsw/cfe-core/src/sb/cfe_sb_task.c ****                 break;
 690               	.loc 1 409 0
 691 0584 607E      	jra .L36
 692               	.L31:
 410:/home/simulink/cFS_FreeRTOS_seL4/cfe/fsw/cfe-core/src/sb/cfe_sb_task.c **** 
 411:/home/simulink/cFS_FreeRTOS_seL4/cfe/fsw/cfe-core/src/sb/cfe_sb_task.c ****             case CFE_SB_SEND_PIPE_INFO_CC:
 412:/home/simulink/cFS_FreeRTOS_seL4/cfe/fsw/cfe-core/src/sb/cfe_sb_task.c ****                 CFE_SB_ProcessSendPipeInfoCmd(Payload);
 693               	.loc 1 412 0
 694 0586 2F17      	move.l (%sp),-(%sp)
 695               	.cfi_def_cfa_offset 12
 696 0588 4EB9 0000 	jsr CFE_SB_ProcessSendPipeInfoCmd
 696      0000 
 697 058e 588F      	addq.l #4,%sp
 698               	.cfi_def_cfa_offset 8
 413:/home/simulink/cFS_FreeRTOS_seL4/cfe/fsw/cfe-core/src/sb/cfe_sb_task.c ****                 break;
 699               	.loc 1 413 0
 700 0590 6072      	jra .L36
 701               	.L32:
 414:/home/simulink/cFS_FreeRTOS_seL4/cfe/fsw/cfe-core/src/sb/cfe_sb_task.c **** 
 415:/home/simulink/cFS_FreeRTOS_seL4/cfe/fsw/cfe-core/src/sb/cfe_sb_task.c ****             case CFE_SB_SEND_MAP_INFO_CC:
 416:/home/simulink/cFS_FreeRTOS_seL4/cfe/fsw/cfe-core/src/sb/cfe_sb_task.c ****                 CFE_SB_ProcessSendMapInfoCmd(Payload);
 702               	.loc 1 416 0
 703 0592 2F17      	move.l (%sp),-(%sp)
 704               	.cfi_def_cfa_offset 12
 705 0594 4EB9 0000 	jsr CFE_SB_ProcessSendMapInfoCmd
 705      0000 
 706 059a 588F      	addq.l #4,%sp
 707               	.cfi_def_cfa_offset 8
 417:/home/simulink/cFS_FreeRTOS_seL4/cfe/fsw/cfe-core/src/sb/cfe_sb_task.c ****                 break;
 708               	.loc 1 417 0
 709 059c 6066      	jra .L36
 710               	.L35:
 418:/home/simulink/cFS_FreeRTOS_seL4/cfe/fsw/cfe-core/src/sb/cfe_sb_task.c **** 
 419:/home/simulink/cFS_FreeRTOS_seL4/cfe/fsw/cfe-core/src/sb/cfe_sb_task.c ****             case CFE_SB_SEND_PREV_SUBS_CC:
 420:/home/simulink/cFS_FreeRTOS_seL4/cfe/fsw/cfe-core/src/sb/cfe_sb_task.c ****                 CFE_SB_SendPrevSubs();
68K GAS   			page 24


 711               	.loc 1 420 0
 712 059e 4EB9 0000 	jsr CFE_SB_SendPrevSubs
 712      0000 
 421:/home/simulink/cFS_FreeRTOS_seL4/cfe/fsw/cfe-core/src/sb/cfe_sb_task.c ****                 break;
 713               	.loc 1 421 0
 714 05a4 605E      	jra .L36
 715               	.L33:
 422:/home/simulink/cFS_FreeRTOS_seL4/cfe/fsw/cfe-core/src/sb/cfe_sb_task.c **** 
 423:/home/simulink/cFS_FreeRTOS_seL4/cfe/fsw/cfe-core/src/sb/cfe_sb_task.c ****             case CFE_SB_ENABLE_SUB_REPORTING_CC:
 424:/home/simulink/cFS_FreeRTOS_seL4/cfe/fsw/cfe-core/src/sb/cfe_sb_task.c ****                 CFE_SB_SetSubscriptionReporting(CFE_SB_ENABLE);
 716               	.loc 1 424 0
 717 05a6 4878 0001 	pea 1.w
 718               	.cfi_def_cfa_offset 12
 719 05aa 4EB9 0000 	jsr CFE_SB_SetSubscriptionReporting
 719      0000 
 720 05b0 588F      	addq.l #4,%sp
 721               	.cfi_def_cfa_offset 8
 425:/home/simulink/cFS_FreeRTOS_seL4/cfe/fsw/cfe-core/src/sb/cfe_sb_task.c ****                 break;
 722               	.loc 1 425 0
 723 05b2 6050      	jra .L36
 724               	.L34:
 426:/home/simulink/cFS_FreeRTOS_seL4/cfe/fsw/cfe-core/src/sb/cfe_sb_task.c **** 
 427:/home/simulink/cFS_FreeRTOS_seL4/cfe/fsw/cfe-core/src/sb/cfe_sb_task.c ****             case CFE_SB_DISABLE_SUB_REPORTING_CC:
 428:/home/simulink/cFS_FreeRTOS_seL4/cfe/fsw/cfe-core/src/sb/cfe_sb_task.c ****                 CFE_SB_SetSubscriptionReporting(CFE_SB_DISABLE);
 725               	.loc 1 428 0
 726 05b4 42A7      	clr.l -(%sp)
 727               	.cfi_def_cfa_offset 12
 728 05b6 4EB9 0000 	jsr CFE_SB_SetSubscriptionReporting
 728      0000 
 729 05bc 588F      	addq.l #4,%sp
 730               	.cfi_def_cfa_offset 8
 429:/home/simulink/cFS_FreeRTOS_seL4/cfe/fsw/cfe-core/src/sb/cfe_sb_task.c ****                 break;
 731               	.loc 1 429 0
 732 05be 6044      	jra .L36
 733               	.L23:
 430:/home/simulink/cFS_FreeRTOS_seL4/cfe/fsw/cfe-core/src/sb/cfe_sb_task.c **** 
 431:/home/simulink/cFS_FreeRTOS_seL4/cfe/fsw/cfe-core/src/sb/cfe_sb_task.c ****             default:
 432:/home/simulink/cFS_FreeRTOS_seL4/cfe/fsw/cfe-core/src/sb/cfe_sb_task.c ****                CFE_EVS_SendEvent(CFE_SB_BAD_CMD_CODE_EID,CFE_EVS_ERROR,
 433:/home/simulink/cFS_FreeRTOS_seL4/cfe/fsw/cfe-core/src/sb/cfe_sb_task.c ****                      "Invalid Cmd, Unexpected Command Code %d",
 434:/home/simulink/cFS_FreeRTOS_seL4/cfe/fsw/cfe-core/src/sb/cfe_sb_task.c ****                      (int)CFE_SB_GetCmdCode(CFE_SB.CmdPipePktPtr));
 734               	.loc 1 434 0
 735 05c0 2039 0000 	move.l CFE_SB+5128,%d0
 735      0000 
 736 05c6 2F00      	move.l %d0,-(%sp)
 737               	.cfi_def_cfa_offset 12
 738 05c8 4EB9 0000 	jsr CFE_SB_GetCmdCode
 738      0000 
 739 05ce 588F      	addq.l #4,%sp
 740               	.cfi_def_cfa_offset 8
 432:/home/simulink/cFS_FreeRTOS_seL4/cfe/fsw/cfe-core/src/sb/cfe_sb_task.c ****                      "Invalid Cmd, Unexpected Command Code %d",
 741               	.loc 1 432 0
 742 05d0 3000      	move.w %d0,%d0
 743 05d2 0280 0000 	and.l #65535,%d0
 743      FFFF 
 744 05d8 2F00      	move.l %d0,-(%sp)
 745               	.cfi_def_cfa_offset 12
 746 05da 4879 0000 	pea .LC15
68K GAS   			page 25


 746      0000 
 747               	.cfi_def_cfa_offset 16
 748 05e0 4878 0003 	pea 3.w
 749               	.cfi_def_cfa_offset 20
 750 05e4 4878 002A 	pea 42.w
 751               	.cfi_def_cfa_offset 24
 752 05e8 4EB9 0000 	jsr CFE_EVS_SendEvent
 752      0000 
 753 05ee 4FEF 0010 	lea (16,%sp),%sp
 754               	.cfi_def_cfa_offset 8
 435:/home/simulink/cFS_FreeRTOS_seL4/cfe/fsw/cfe-core/src/sb/cfe_sb_task.c ****                CFE_SB.HKTlmMsg.Payload.CmdErrCnt++;
 755               	.loc 1 435 0
 756 05f2 1039 0000 	move.b CFE_SB+4513,%d0
 756      0000 
 757 05f8 5280      	addq.l #1,%d0
 758 05fa 1000      	move.b %d0,%d0
 759 05fc 13C0 0000 	move.b %d0,CFE_SB+4513
 759      0000 
 436:/home/simulink/cFS_FreeRTOS_seL4/cfe/fsw/cfe-core/src/sb/cfe_sb_task.c ****                break;
 760               	.loc 1 436 0
 761 0602 4E71      	nop
 762               	.L36:
 437:/home/simulink/cFS_FreeRTOS_seL4/cfe/fsw/cfe-core/src/sb/cfe_sb_task.c ****          } /* end switch on cmd code */
 438:/home/simulink/cFS_FreeRTOS_seL4/cfe/fsw/cfe-core/src/sb/cfe_sb_task.c ****          break;
 763               	.loc 1 438 0
 764 0604 6044      	jra .L22
 765               	.L37:
 439:/home/simulink/cFS_FreeRTOS_seL4/cfe/fsw/cfe-core/src/sb/cfe_sb_task.c **** 
 440:/home/simulink/cFS_FreeRTOS_seL4/cfe/fsw/cfe-core/src/sb/cfe_sb_task.c ****          default:
 441:/home/simulink/cFS_FreeRTOS_seL4/cfe/fsw/cfe-core/src/sb/cfe_sb_task.c ****             CFE_EVS_SendEvent(CFE_SB_BAD_MSGID_EID,CFE_EVS_ERROR,
 442:/home/simulink/cFS_FreeRTOS_seL4/cfe/fsw/cfe-core/src/sb/cfe_sb_task.c ****                   "Invalid Cmd, Unexpected Msg Id: 0x%04x",
 443:/home/simulink/cFS_FreeRTOS_seL4/cfe/fsw/cfe-core/src/sb/cfe_sb_task.c ****                   (unsigned int)CFE_SB_GetMsgId(CFE_SB.CmdPipePktPtr));
 766               	.loc 1 443 0
 767 0606 2039 0000 	move.l CFE_SB+5128,%d0
 767      0000 
 768 060c 2F00      	move.l %d0,-(%sp)
 769               	.cfi_def_cfa_offset 12
 770 060e 4EB9 0000 	jsr CFE_SB_GetMsgId
 770      0000 
 771 0614 588F      	addq.l #4,%sp
 772               	.cfi_def_cfa_offset 8
 441:/home/simulink/cFS_FreeRTOS_seL4/cfe/fsw/cfe-core/src/sb/cfe_sb_task.c ****                   "Invalid Cmd, Unexpected Msg Id: 0x%04x",
 773               	.loc 1 441 0
 774 0616 3000      	move.w %d0,%d0
 775 0618 0280 0000 	and.l #65535,%d0
 775      FFFF 
 776 061e 2F00      	move.l %d0,-(%sp)
 777               	.cfi_def_cfa_offset 12
 778 0620 4879 0000 	pea .LC16
 778      0000 
 779               	.cfi_def_cfa_offset 16
 780 0626 4878 0003 	pea 3.w
 781               	.cfi_def_cfa_offset 20
 782 062a 4878 002B 	pea 43.w
 783               	.cfi_def_cfa_offset 24
 784 062e 4EB9 0000 	jsr CFE_EVS_SendEvent
 784      0000 
68K GAS   			page 26


 785 0634 4FEF 0010 	lea (16,%sp),%sp
 786               	.cfi_def_cfa_offset 8
 444:/home/simulink/cFS_FreeRTOS_seL4/cfe/fsw/cfe-core/src/sb/cfe_sb_task.c ****             CFE_SB.HKTlmMsg.Payload.CmdErrCnt++;
 787               	.loc 1 444 0
 788 0638 1039 0000 	move.b CFE_SB+4513,%d0
 788      0000 
 789 063e 5280      	addq.l #1,%d0
 790 0640 1000      	move.b %d0,%d0
 791 0642 13C0 0000 	move.b %d0,CFE_SB+4513
 791      0000 
 445:/home/simulink/cFS_FreeRTOS_seL4/cfe/fsw/cfe-core/src/sb/cfe_sb_task.c ****             break;
 792               	.loc 1 445 0
 793 0648 4E71      	nop
 794               	.L22:
 446:/home/simulink/cFS_FreeRTOS_seL4/cfe/fsw/cfe-core/src/sb/cfe_sb_task.c **** 
 447:/home/simulink/cFS_FreeRTOS_seL4/cfe/fsw/cfe-core/src/sb/cfe_sb_task.c ****    } /* end switch on MsgId */
 448:/home/simulink/cFS_FreeRTOS_seL4/cfe/fsw/cfe-core/src/sb/cfe_sb_task.c **** 
 449:/home/simulink/cFS_FreeRTOS_seL4/cfe/fsw/cfe-core/src/sb/cfe_sb_task.c **** } /* end CFE_SB_ProcessCmdPipePkt */
 795               	.loc 1 449 0
 796 064a 4E71      	nop
 797 064c 588F      	addq.l #4,%sp
 798 064e 4E75      	rts
 799               	.cfi_endproc
 800               	.LFE61:
 801               	.sizeCFE_SB_ProcessCmdPipePkt, .-CFE_SB_ProcessCmdPipePkt
 802               	.align2
 803               	.globlCFE_SB_SendHKTlmPkt
 804               	.typeCFE_SB_SendHKTlmPkt, @function
 805               	CFE_SB_SendHKTlmPkt:
 806               	.LFB62:
 450:/home/simulink/cFS_FreeRTOS_seL4/cfe/fsw/cfe-core/src/sb/cfe_sb_task.c **** 
 451:/home/simulink/cFS_FreeRTOS_seL4/cfe/fsw/cfe-core/src/sb/cfe_sb_task.c **** 
 452:/home/simulink/cFS_FreeRTOS_seL4/cfe/fsw/cfe-core/src/sb/cfe_sb_task.c **** 
 453:/home/simulink/cFS_FreeRTOS_seL4/cfe/fsw/cfe-core/src/sb/cfe_sb_task.c **** /******************************************************************************
 454:/home/simulink/cFS_FreeRTOS_seL4/cfe/fsw/cfe-core/src/sb/cfe_sb_task.c **** **  Function:  CFE_SB_SendHKTlmPkt()
 455:/home/simulink/cFS_FreeRTOS_seL4/cfe/fsw/cfe-core/src/sb/cfe_sb_task.c **** **
 456:/home/simulink/cFS_FreeRTOS_seL4/cfe/fsw/cfe-core/src/sb/cfe_sb_task.c **** **  Purpose:
 457:/home/simulink/cFS_FreeRTOS_seL4/cfe/fsw/cfe-core/src/sb/cfe_sb_task.c **** **    Function to send the SB housekeeping packet.
 458:/home/simulink/cFS_FreeRTOS_seL4/cfe/fsw/cfe-core/src/sb/cfe_sb_task.c **** **
 459:/home/simulink/cFS_FreeRTOS_seL4/cfe/fsw/cfe-core/src/sb/cfe_sb_task.c **** **  Arguments:
 460:/home/simulink/cFS_FreeRTOS_seL4/cfe/fsw/cfe-core/src/sb/cfe_sb_task.c **** **    none
 461:/home/simulink/cFS_FreeRTOS_seL4/cfe/fsw/cfe-core/src/sb/cfe_sb_task.c **** **
 462:/home/simulink/cFS_FreeRTOS_seL4/cfe/fsw/cfe-core/src/sb/cfe_sb_task.c **** **  Notes:
 463:/home/simulink/cFS_FreeRTOS_seL4/cfe/fsw/cfe-core/src/sb/cfe_sb_task.c **** **    Command counter not incremented for this command
 464:/home/simulink/cFS_FreeRTOS_seL4/cfe/fsw/cfe-core/src/sb/cfe_sb_task.c **** **
 465:/home/simulink/cFS_FreeRTOS_seL4/cfe/fsw/cfe-core/src/sb/cfe_sb_task.c **** **  Return:
 466:/home/simulink/cFS_FreeRTOS_seL4/cfe/fsw/cfe-core/src/sb/cfe_sb_task.c **** **    none
 467:/home/simulink/cFS_FreeRTOS_seL4/cfe/fsw/cfe-core/src/sb/cfe_sb_task.c **** */
 468:/home/simulink/cFS_FreeRTOS_seL4/cfe/fsw/cfe-core/src/sb/cfe_sb_task.c **** void CFE_SB_SendHKTlmPkt(void){
 807               	.loc 1 468 0
 808               	.cfi_startproc
 469:/home/simulink/cFS_FreeRTOS_seL4/cfe/fsw/cfe-core/src/sb/cfe_sb_task.c ****     
 470:/home/simulink/cFS_FreeRTOS_seL4/cfe/fsw/cfe-core/src/sb/cfe_sb_task.c ****     CFE_SB.HKTlmMsg.Payload.MemInUse        = CFE_SB.StatTlmMsg.Payload.MemInUse;
 809               	.loc 1 470 0
 810 0650 2039 0000 	move.l CFE_SB+4576,%d0
 810      0000 
 811 0656 23C0 0000 	move.l %d0,CFE_SB+4532
68K GAS   			page 27


 811      0000 
 471:/home/simulink/cFS_FreeRTOS_seL4/cfe/fsw/cfe-core/src/sb/cfe_sb_task.c ****     CFE_SB.HKTlmMsg.Payload.UnmarkedMem     = CFE_SB_BUF_MEMORY_BYTES - CFE_SB.StatTlmMsg.Payload.P
 812               	.loc 1 471 0
 813 065c 2039 0000 	move.l CFE_SB+4580,%d0
 813      0000 
 814 0662 7208      	moveq #8,%d1
 815 0664 4841      	swap %d1
 816 0666 9280      	sub.l %d0,%d1
 817 0668 2001      	move.l %d1,%d0
 818 066a 23C0 0000 	move.l %d0,CFE_SB+4536
 818      0000 
 472:/home/simulink/cFS_FreeRTOS_seL4/cfe/fsw/cfe-core/src/sb/cfe_sb_task.c ****     
 473:/home/simulink/cFS_FreeRTOS_seL4/cfe/fsw/cfe-core/src/sb/cfe_sb_task.c ****     CFE_SB_TimeStampMsg((CFE_SB_Msg_t *) &CFE_SB.HKTlmMsg);
 819               	.loc 1 473 0
 820 0670 4879 0000 	pea CFE_SB+4500
 820      0000 
 821               	.cfi_def_cfa_offset 8
 822 0676 4EB9 0000 	jsr CFE_SB_TimeStampMsg
 822      0000 
 823 067c 588F      	addq.l #4,%sp
 824               	.cfi_def_cfa_offset 4
 474:/home/simulink/cFS_FreeRTOS_seL4/cfe/fsw/cfe-core/src/sb/cfe_sb_task.c ****     CFE_SB_SendMsg((CFE_SB_Msg_t *)&CFE_SB.HKTlmMsg);
 825               	.loc 1 474 0
 826 067e 4879 0000 	pea CFE_SB+4500
 826      0000 
 827               	.cfi_def_cfa_offset 8
 828 0684 4EB9 0000 	jsr CFE_SB_SendMsg
 828      0000 
 829 068a 588F      	addq.l #4,%sp
 830               	.cfi_def_cfa_offset 4
 475:/home/simulink/cFS_FreeRTOS_seL4/cfe/fsw/cfe-core/src/sb/cfe_sb_task.c **** 
 476:/home/simulink/cFS_FreeRTOS_seL4/cfe/fsw/cfe-core/src/sb/cfe_sb_task.c **** }/* end CFE_SB_SendHKTlmPkt */
 831               	.loc 1 476 0
 832 068c 4E71      	nop
 833 068e 4E75      	rts
 834               	.cfi_endproc
 835               	.LFE62:
 836               	.sizeCFE_SB_SendHKTlmPkt, .-CFE_SB_SendHKTlmPkt
 837               	.align2
 838               	.globlCFE_SB_ResetCounters
 839               	.typeCFE_SB_ResetCounters, @function
 840               	CFE_SB_ResetCounters:
 841               	.LFB63:
 477:/home/simulink/cFS_FreeRTOS_seL4/cfe/fsw/cfe-core/src/sb/cfe_sb_task.c **** 
 478:/home/simulink/cFS_FreeRTOS_seL4/cfe/fsw/cfe-core/src/sb/cfe_sb_task.c **** 
 479:/home/simulink/cFS_FreeRTOS_seL4/cfe/fsw/cfe-core/src/sb/cfe_sb_task.c **** /******************************************************************************
 480:/home/simulink/cFS_FreeRTOS_seL4/cfe/fsw/cfe-core/src/sb/cfe_sb_task.c **** **  Function:  CFE_SB_ResetCounters()
 481:/home/simulink/cFS_FreeRTOS_seL4/cfe/fsw/cfe-core/src/sb/cfe_sb_task.c **** **
 482:/home/simulink/cFS_FreeRTOS_seL4/cfe/fsw/cfe-core/src/sb/cfe_sb_task.c **** **  Purpose:
 483:/home/simulink/cFS_FreeRTOS_seL4/cfe/fsw/cfe-core/src/sb/cfe_sb_task.c **** **    Function to reset the SB housekeeping counters.
 484:/home/simulink/cFS_FreeRTOS_seL4/cfe/fsw/cfe-core/src/sb/cfe_sb_task.c **** **
 485:/home/simulink/cFS_FreeRTOS_seL4/cfe/fsw/cfe-core/src/sb/cfe_sb_task.c **** **  Arguments:
 486:/home/simulink/cFS_FreeRTOS_seL4/cfe/fsw/cfe-core/src/sb/cfe_sb_task.c **** **    none
 487:/home/simulink/cFS_FreeRTOS_seL4/cfe/fsw/cfe-core/src/sb/cfe_sb_task.c **** **
 488:/home/simulink/cFS_FreeRTOS_seL4/cfe/fsw/cfe-core/src/sb/cfe_sb_task.c **** **  Notes:
 489:/home/simulink/cFS_FreeRTOS_seL4/cfe/fsw/cfe-core/src/sb/cfe_sb_task.c **** **    Command counter not incremented for this command
 490:/home/simulink/cFS_FreeRTOS_seL4/cfe/fsw/cfe-core/src/sb/cfe_sb_task.c **** **
68K GAS   			page 28


 491:/home/simulink/cFS_FreeRTOS_seL4/cfe/fsw/cfe-core/src/sb/cfe_sb_task.c **** **  Return:
 492:/home/simulink/cFS_FreeRTOS_seL4/cfe/fsw/cfe-core/src/sb/cfe_sb_task.c **** **    none
 493:/home/simulink/cFS_FreeRTOS_seL4/cfe/fsw/cfe-core/src/sb/cfe_sb_task.c **** */
 494:/home/simulink/cFS_FreeRTOS_seL4/cfe/fsw/cfe-core/src/sb/cfe_sb_task.c **** void CFE_SB_ResetCounters(void){
 842               	.loc 1 494 0
 843               	.cfi_startproc
 495:/home/simulink/cFS_FreeRTOS_seL4/cfe/fsw/cfe-core/src/sb/cfe_sb_task.c **** 
 496:/home/simulink/cFS_FreeRTOS_seL4/cfe/fsw/cfe-core/src/sb/cfe_sb_task.c ****    CFE_SB.HKTlmMsg.Payload.CommandCnt          = 0;
 844               	.loc 1 496 0
 845 0690 4200      	clr.b %d0
 846 0692 13C0 0000 	move.b %d0,CFE_SB+4512
 846      0000 
 497:/home/simulink/cFS_FreeRTOS_seL4/cfe/fsw/cfe-core/src/sb/cfe_sb_task.c ****    CFE_SB.HKTlmMsg.Payload.CmdErrCnt           = 0;
 847               	.loc 1 497 0
 848 0698 4200      	clr.b %d0
 849 069a 13C0 0000 	move.b %d0,CFE_SB+4513
 849      0000 
 498:/home/simulink/cFS_FreeRTOS_seL4/cfe/fsw/cfe-core/src/sb/cfe_sb_task.c ****    CFE_SB.HKTlmMsg.Payload.NoSubscribersCnt    = 0;
 850               	.loc 1 498 0
 851 06a0 4200      	clr.b %d0
 852 06a2 13C0 0000 	move.b %d0,CFE_SB+4514
 852      0000 
 499:/home/simulink/cFS_FreeRTOS_seL4/cfe/fsw/cfe-core/src/sb/cfe_sb_task.c ****    CFE_SB.HKTlmMsg.Payload.DupSubscriptionsCnt = 0;
 853               	.loc 1 499 0
 854 06a8 4200      	clr.b %d0
 855 06aa 13C0 0000 	move.b %d0,CFE_SB+4521
 855      0000 
 500:/home/simulink/cFS_FreeRTOS_seL4/cfe/fsw/cfe-core/src/sb/cfe_sb_task.c ****    CFE_SB.HKTlmMsg.Payload.MsgSendErrCnt       = 0;
 856               	.loc 1 500 0
 857 06b0 4200      	clr.b %d0
 858 06b2 13C0 0000 	move.b %d0,CFE_SB+4515
 858      0000 
 501:/home/simulink/cFS_FreeRTOS_seL4/cfe/fsw/cfe-core/src/sb/cfe_sb_task.c ****    CFE_SB.HKTlmMsg.Payload.MsgReceiveErrCnt    = 0;
 859               	.loc 1 501 0
 860 06b8 4200      	clr.b %d0
 861 06ba 13C0 0000 	move.b %d0,CFE_SB+4516
 861      0000 
 502:/home/simulink/cFS_FreeRTOS_seL4/cfe/fsw/cfe-core/src/sb/cfe_sb_task.c ****    CFE_SB.HKTlmMsg.Payload.InternalErrCnt      = 0;
 862               	.loc 1 502 0
 863 06c0 4200      	clr.b %d0
 864 06c2 13C0 0000 	move.b %d0,CFE_SB+4517
 864      0000 
 503:/home/simulink/cFS_FreeRTOS_seL4/cfe/fsw/cfe-core/src/sb/cfe_sb_task.c ****    CFE_SB.HKTlmMsg.Payload.CreatePipeErrCnt    = 0;
 865               	.loc 1 503 0
 866 06c8 4200      	clr.b %d0
 867 06ca 13C0 0000 	move.b %d0,CFE_SB+4518
 867      0000 
 504:/home/simulink/cFS_FreeRTOS_seL4/cfe/fsw/cfe-core/src/sb/cfe_sb_task.c ****    CFE_SB.HKTlmMsg.Payload.SubscribeErrCnt     = 0;
 868               	.loc 1 504 0
 869 06d0 4200      	clr.b %d0
 870 06d2 13C0 0000 	move.b %d0,CFE_SB+4519
 870      0000 
 505:/home/simulink/cFS_FreeRTOS_seL4/cfe/fsw/cfe-core/src/sb/cfe_sb_task.c ****    CFE_SB.HKTlmMsg.Payload.PipeOverflowErrCnt  = 0;
 871               	.loc 1 505 0
 872 06d8 4240      	clr.w %d0
 873 06da 33C0 0000 	move.w %d0,CFE_SB+4524
 873      0000 
68K GAS   			page 29


 506:/home/simulink/cFS_FreeRTOS_seL4/cfe/fsw/cfe-core/src/sb/cfe_sb_task.c ****    CFE_SB.HKTlmMsg.Payload.MsgLimErrCnt        = 0;
 874               	.loc 1 506 0
 875 06e0 4240      	clr.w %d0
 876 06e2 33C0 0000 	move.w %d0,CFE_SB+4526
 876      0000 
 507:/home/simulink/cFS_FreeRTOS_seL4/cfe/fsw/cfe-core/src/sb/cfe_sb_task.c **** 
 508:/home/simulink/cFS_FreeRTOS_seL4/cfe/fsw/cfe-core/src/sb/cfe_sb_task.c **** }/* end CFE_SB_ResetCounters */
 877               	.loc 1 508 0
 878 06e8 4E71      	nop
 879 06ea 4E75      	rts
 880               	.cfi_endproc
 881               	.LFE63:
 882               	.sizeCFE_SB_ResetCounters, .-CFE_SB_ResetCounters
 883               	.section.rodata
 884               	.LC17:
 885 027a 456E 626C 	.string"Enbl Route Cmd:Invalid Param.Msg 0x%x,Pipe %d"
 885      2052 6F75 
 885      7465 2043 
 885      6D64 3A49 
 885      6E76 616C 
 886               	.LC18:
 887 02a8 456E 626C 	.string"Enbl Route Cmd:Route does not exist.Msg 0x%x,Pipe %d"
 887      2052 6F75 
 887      7465 2043 
 887      6D64 3A52 
 887      6F75 7465 
 888               	.LC19:
 889 02dd 456E 6162 	.string"Enabling Route,Msg 0x%x,Pipe %d"
 889      6C69 6E67 
 889      2052 6F75 
 889      7465 2C4D 
 889      7367 2030 
 890               	.text
 891               	.align2
 892               	.globlCFE_SB_EnableRoute
 893               	.typeCFE_SB_EnableRoute, @function
 894               	CFE_SB_EnableRoute:
 895               	.LFB64:
 509:/home/simulink/cFS_FreeRTOS_seL4/cfe/fsw/cfe-core/src/sb/cfe_sb_task.c **** 
 510:/home/simulink/cFS_FreeRTOS_seL4/cfe/fsw/cfe-core/src/sb/cfe_sb_task.c **** 
 511:/home/simulink/cFS_FreeRTOS_seL4/cfe/fsw/cfe-core/src/sb/cfe_sb_task.c **** /******************************************************************************
 512:/home/simulink/cFS_FreeRTOS_seL4/cfe/fsw/cfe-core/src/sb/cfe_sb_task.c **** **  Function:  CFE_SB_EnableRoute()
 513:/home/simulink/cFS_FreeRTOS_seL4/cfe/fsw/cfe-core/src/sb/cfe_sb_task.c **** **
 514:/home/simulink/cFS_FreeRTOS_seL4/cfe/fsw/cfe-core/src/sb/cfe_sb_task.c **** **  Purpose:
 515:/home/simulink/cFS_FreeRTOS_seL4/cfe/fsw/cfe-core/src/sb/cfe_sb_task.c **** **    SB internal function to enable a specific route. A route is defined as a
 516:/home/simulink/cFS_FreeRTOS_seL4/cfe/fsw/cfe-core/src/sb/cfe_sb_task.c **** **    MsgId/PipeId combination.
 517:/home/simulink/cFS_FreeRTOS_seL4/cfe/fsw/cfe-core/src/sb/cfe_sb_task.c **** **
 518:/home/simulink/cFS_FreeRTOS_seL4/cfe/fsw/cfe-core/src/sb/cfe_sb_task.c **** **  Arguments:
 519:/home/simulink/cFS_FreeRTOS_seL4/cfe/fsw/cfe-core/src/sb/cfe_sb_task.c **** **    MsgPtr  : pointer to the message
 520:/home/simulink/cFS_FreeRTOS_seL4/cfe/fsw/cfe-core/src/sb/cfe_sb_task.c **** **
 521:/home/simulink/cFS_FreeRTOS_seL4/cfe/fsw/cfe-core/src/sb/cfe_sb_task.c **** **  Return:
 522:/home/simulink/cFS_FreeRTOS_seL4/cfe/fsw/cfe-core/src/sb/cfe_sb_task.c **** **    None
 523:/home/simulink/cFS_FreeRTOS_seL4/cfe/fsw/cfe-core/src/sb/cfe_sb_task.c **** */
 524:/home/simulink/cFS_FreeRTOS_seL4/cfe/fsw/cfe-core/src/sb/cfe_sb_task.c **** void CFE_SB_EnableRoute(CFE_SB_MsgPayloadPtr_t Payload){
 896               	.loc 1 524 0
 897               	.cfi_startproc
 898 06ec 4FEF FFF4 	lea (-12,%sp),%sp
68K GAS   			page 30


 899               	.cfi_def_cfa_offset 16
 525:/home/simulink/cFS_FreeRTOS_seL4/cfe/fsw/cfe-core/src/sb/cfe_sb_task.c **** 
 526:/home/simulink/cFS_FreeRTOS_seL4/cfe/fsw/cfe-core/src/sb/cfe_sb_task.c ****     CFE_SB_MsgId_t          MsgId;
 527:/home/simulink/cFS_FreeRTOS_seL4/cfe/fsw/cfe-core/src/sb/cfe_sb_task.c ****     CFE_SB_PipeId_t         PipeId;
 528:/home/simulink/cFS_FreeRTOS_seL4/cfe/fsw/cfe-core/src/sb/cfe_sb_task.c ****     CFE_SB_DestinationD_t   *DestPtr;
 529:/home/simulink/cFS_FreeRTOS_seL4/cfe/fsw/cfe-core/src/sb/cfe_sb_task.c ****     CFE_SB_EnRoutCmd_Payload_t      *CmdPtr;
 530:/home/simulink/cFS_FreeRTOS_seL4/cfe/fsw/cfe-core/src/sb/cfe_sb_task.c **** 
 531:/home/simulink/cFS_FreeRTOS_seL4/cfe/fsw/cfe-core/src/sb/cfe_sb_task.c ****     CmdPtr = (CFE_SB_EnRoutCmd_Payload_t *)Payload;
 900               	.loc 1 531 0
 901 06f0 2F6F 0010 	move.l 16(%sp),8(%sp)
 901      0008 
 532:/home/simulink/cFS_FreeRTOS_seL4/cfe/fsw/cfe-core/src/sb/cfe_sb_task.c **** 
 533:/home/simulink/cFS_FreeRTOS_seL4/cfe/fsw/cfe-core/src/sb/cfe_sb_task.c ****     MsgId  = CmdPtr->MsgId;
 902               	.loc 1 533 0
 903 06f6 206F 0008 	move.l 8(%sp),%a0
 904 06fa 3F50 0006 	move.w (%a0),6(%sp)
 534:/home/simulink/cFS_FreeRTOS_seL4/cfe/fsw/cfe-core/src/sb/cfe_sb_task.c ****     PipeId = CmdPtr->Pipe;
 905               	.loc 1 534 0
 906 06fe 206F 0008 	move.l 8(%sp),%a0
 907 0702 1F68 0002 	move.b 2(%a0),5(%sp)
 907      0005 
 535:/home/simulink/cFS_FreeRTOS_seL4/cfe/fsw/cfe-core/src/sb/cfe_sb_task.c **** 
 536:/home/simulink/cFS_FreeRTOS_seL4/cfe/fsw/cfe-core/src/sb/cfe_sb_task.c ****     /* check cmd parameters */
 537:/home/simulink/cFS_FreeRTOS_seL4/cfe/fsw/cfe-core/src/sb/cfe_sb_task.c ****     if((CFE_SB_ValidateMsgId(MsgId) != CFE_SUCCESS)||
 908               	.loc 1 537 0
 909 0708 4280      	clr.l %d0
 910 070a 302F 0006 	move.w 6(%sp),%d0
 911 070e 2F00      	move.l %d0,-(%sp)
 912               	.cfi_def_cfa_offset 20
 913 0710 4EB9 0000 	jsr CFE_SB_ValidateMsgId
 913      0000 
 914 0716 588F      	addq.l #4,%sp
 915               	.cfi_def_cfa_offset 16
 916 0718 4A80      	tst.l %d0
 917 071a 6614      	jne .L41
 538:/home/simulink/cFS_FreeRTOS_seL4/cfe/fsw/cfe-core/src/sb/cfe_sb_task.c ****        (CFE_SB_ValidatePipeId(PipeId) != CFE_SUCCESS))
 918               	.loc 1 538 0 discriminator 1
 919 071c 4280      	clr.l %d0
 920 071e 102F 0005 	move.b 5(%sp),%d0
 921 0722 2F00      	move.l %d0,-(%sp)
 922               	.cfi_def_cfa_offset 20
 923 0724 4EB9 0000 	jsr CFE_SB_ValidatePipeId
 923      0000 
 924 072a 588F      	addq.l #4,%sp
 925               	.cfi_def_cfa_offset 16
 537:/home/simulink/cFS_FreeRTOS_seL4/cfe/fsw/cfe-core/src/sb/cfe_sb_task.c ****        (CFE_SB_ValidatePipeId(PipeId) != CFE_SUCCESS))
 926               	.loc 1 537 0 discriminator 1
 927 072c 4A80      	tst.l %d0
 928 072e 673C      	jeq .L42
 929               	.L41:
 539:/home/simulink/cFS_FreeRTOS_seL4/cfe/fsw/cfe-core/src/sb/cfe_sb_task.c ****     {
 540:/home/simulink/cFS_FreeRTOS_seL4/cfe/fsw/cfe-core/src/sb/cfe_sb_task.c ****         CFE_EVS_SendEvent(CFE_SB_ENBL_RTE3_EID,CFE_EVS_ERROR,
 930               	.loc 1 540 0
 931 0730 4281      	clr.l %d1
 932 0732 122F 0005 	move.b 5(%sp),%d1
 933 0736 4280      	clr.l %d0
 934 0738 302F 0006 	move.w 6(%sp),%d0
68K GAS   			page 31


 935 073c 2F01      	move.l %d1,-(%sp)
 936               	.cfi_def_cfa_offset 20
 937 073e 2F00      	move.l %d0,-(%sp)
 938               	.cfi_def_cfa_offset 24
 939 0740 4879 0000 	pea .LC17
 939      0000 
 940               	.cfi_def_cfa_offset 28
 941 0746 4878 0003 	pea 3.w
 942               	.cfi_def_cfa_offset 32
 943 074a 4878 0023 	pea 35.w
 944               	.cfi_def_cfa_offset 36
 945 074e 4EB9 0000 	jsr CFE_EVS_SendEvent
 945      0000 
 946 0754 4FEF 0014 	lea (20,%sp),%sp
 947               	.cfi_def_cfa_offset 16
 541:/home/simulink/cFS_FreeRTOS_seL4/cfe/fsw/cfe-core/src/sb/cfe_sb_task.c ****                       "Enbl Route Cmd:Invalid Param.Msg 0x%x,Pipe %d",(unsigned int)MsgId,(int)Pipe
 542:/home/simulink/cFS_FreeRTOS_seL4/cfe/fsw/cfe-core/src/sb/cfe_sb_task.c ****         CFE_SB.HKTlmMsg.Payload.CmdErrCnt++;
 948               	.loc 1 542 0
 949 0758 1039 0000 	move.b CFE_SB+4513,%d0
 949      0000 
 950 075e 5280      	addq.l #1,%d0
 951 0760 1000      	move.b %d0,%d0
 952 0762 13C0 0000 	move.b %d0,CFE_SB+4513
 952      0000 
 543:/home/simulink/cFS_FreeRTOS_seL4/cfe/fsw/cfe-core/src/sb/cfe_sb_task.c ****         return;
 953               	.loc 1 543 0
 954 0768 6000 009A 	jra .L40
 955               	.L42:
 544:/home/simulink/cFS_FreeRTOS_seL4/cfe/fsw/cfe-core/src/sb/cfe_sb_task.c ****     }/* end if */
 545:/home/simulink/cFS_FreeRTOS_seL4/cfe/fsw/cfe-core/src/sb/cfe_sb_task.c **** 
 546:/home/simulink/cFS_FreeRTOS_seL4/cfe/fsw/cfe-core/src/sb/cfe_sb_task.c ****     DestPtr = CFE_SB_GetDestPtr(MsgId, PipeId);
 956               	.loc 1 546 0
 957 076c 4281      	clr.l %d1
 958 076e 122F 0005 	move.b 5(%sp),%d1
 959 0772 4280      	clr.l %d0
 960 0774 302F 0006 	move.w 6(%sp),%d0
 961 0778 2F01      	move.l %d1,-(%sp)
 962               	.cfi_def_cfa_offset 20
 963 077a 2F00      	move.l %d0,-(%sp)
 964               	.cfi_def_cfa_offset 24
 965 077c 4EB9 0000 	jsr CFE_SB_GetDestPtr
 965      0000 
 966 0782 508F      	addq.l #8,%sp
 967               	.cfi_def_cfa_offset 16
 968 0784 2E80      	move.l %d0,(%sp)
 547:/home/simulink/cFS_FreeRTOS_seL4/cfe/fsw/cfe-core/src/sb/cfe_sb_task.c ****     if(DestPtr == NULL){
 969               	.loc 1 547 0
 970 0786 4A97      	tst.l (%sp)
 971 0788 663A      	jne .L44
 548:/home/simulink/cFS_FreeRTOS_seL4/cfe/fsw/cfe-core/src/sb/cfe_sb_task.c ****         CFE_EVS_SendEvent(CFE_SB_ENBL_RTE1_EID,CFE_EVS_ERROR,
 972               	.loc 1 548 0
 973 078a 4281      	clr.l %d1
 974 078c 122F 0005 	move.b 5(%sp),%d1
 975 0790 4280      	clr.l %d0
 976 0792 302F 0006 	move.w 6(%sp),%d0
 977 0796 2F01      	move.l %d1,-(%sp)
 978               	.cfi_def_cfa_offset 20
68K GAS   			page 32


 979 0798 2F00      	move.l %d0,-(%sp)
 980               	.cfi_def_cfa_offset 24
 981 079a 4879 0000 	pea .LC18
 981      0000 
 982               	.cfi_def_cfa_offset 28
 983 07a0 4878 0003 	pea 3.w
 984               	.cfi_def_cfa_offset 32
 985 07a4 4878 0021 	pea 33.w
 986               	.cfi_def_cfa_offset 36
 987 07a8 4EB9 0000 	jsr CFE_EVS_SendEvent
 987      0000 
 988 07ae 4FEF 0014 	lea (20,%sp),%sp
 989               	.cfi_def_cfa_offset 16
 549:/home/simulink/cFS_FreeRTOS_seL4/cfe/fsw/cfe-core/src/sb/cfe_sb_task.c ****                 "Enbl Route Cmd:Route does not exist.Msg 0x%x,Pipe %d",MsgId,PipeId);
 550:/home/simulink/cFS_FreeRTOS_seL4/cfe/fsw/cfe-core/src/sb/cfe_sb_task.c ****         CFE_SB.HKTlmMsg.Payload.CmdErrCnt++;
 990               	.loc 1 550 0
 991 07b2 1039 0000 	move.b CFE_SB+4513,%d0
 991      0000 
 992 07b8 5280      	addq.l #1,%d0
 993 07ba 1000      	move.b %d0,%d0
 994 07bc 13C0 0000 	move.b %d0,CFE_SB+4513
 994      0000 
 551:/home/simulink/cFS_FreeRTOS_seL4/cfe/fsw/cfe-core/src/sb/cfe_sb_task.c ****         return;
 995               	.loc 1 551 0
 996 07c2 6040      	jra .L40
 997               	.L44:
 552:/home/simulink/cFS_FreeRTOS_seL4/cfe/fsw/cfe-core/src/sb/cfe_sb_task.c ****     }/* end if */
 553:/home/simulink/cFS_FreeRTOS_seL4/cfe/fsw/cfe-core/src/sb/cfe_sb_task.c **** 
 554:/home/simulink/cFS_FreeRTOS_seL4/cfe/fsw/cfe-core/src/sb/cfe_sb_task.c ****     DestPtr->Active = CFE_SB_ACTIVE;
 998               	.loc 1 554 0
 999 07c4 2057      	move.l (%sp),%a0
 1000 07c6 7001      	moveq #1,%d0
 1001 07c8 1140 0001 	move.b %d0,1(%a0)
 555:/home/simulink/cFS_FreeRTOS_seL4/cfe/fsw/cfe-core/src/sb/cfe_sb_task.c ****     CFE_EVS_SendEvent(CFE_SB_ENBL_RTE2_EID,CFE_EVS_DEBUG,
 1002               	.loc 1 555 0
 1003 07cc 4281      	clr.l %d1
 1004 07ce 122F 0005 	move.b 5(%sp),%d1
 1005 07d2 4280      	clr.l %d0
 1006 07d4 302F 0006 	move.w 6(%sp),%d0
 1007 07d8 2F01      	move.l %d1,-(%sp)
 1008               	.cfi_def_cfa_offset 20
 1009 07da 2F00      	move.l %d0,-(%sp)
 1010               	.cfi_def_cfa_offset 24
 1011 07dc 4879 0000 	pea .LC19
 1011      0000 
 1012               	.cfi_def_cfa_offset 28
 1013 07e2 4878 0001 	pea 1.w
 1014               	.cfi_def_cfa_offset 32
 1015 07e6 4878 0022 	pea 34.w
 1016               	.cfi_def_cfa_offset 36
 1017 07ea 4EB9 0000 	jsr CFE_EVS_SendEvent
 1017      0000 
 1018 07f0 4FEF 0014 	lea (20,%sp),%sp
 1019               	.cfi_def_cfa_offset 16
 556:/home/simulink/cFS_FreeRTOS_seL4/cfe/fsw/cfe-core/src/sb/cfe_sb_task.c ****                       "Enabling Route,Msg 0x%x,Pipe %d",MsgId,PipeId);
 557:/home/simulink/cFS_FreeRTOS_seL4/cfe/fsw/cfe-core/src/sb/cfe_sb_task.c **** 
 558:/home/simulink/cFS_FreeRTOS_seL4/cfe/fsw/cfe-core/src/sb/cfe_sb_task.c ****     CFE_SB.HKTlmMsg.Payload.CommandCnt++;
68K GAS   			page 33


 1020               	.loc 1 558 0
 1021 07f4 1039 0000 	move.b CFE_SB+4512,%d0
 1021      0000 
 1022 07fa 5280      	addq.l #1,%d0
 1023 07fc 1000      	move.b %d0,%d0
 1024 07fe 13C0 0000 	move.b %d0,CFE_SB+4512
 1024      0000 
 1025               	.L40:
 559:/home/simulink/cFS_FreeRTOS_seL4/cfe/fsw/cfe-core/src/sb/cfe_sb_task.c **** 
 560:/home/simulink/cFS_FreeRTOS_seL4/cfe/fsw/cfe-core/src/sb/cfe_sb_task.c **** }/* end CFE_SB_EnableRoute */
 1026               	.loc 1 560 0
 1027 0804 4FEF 000C 	lea (12,%sp),%sp
 1028 0808 4E75      	rts
 1029               	.cfi_endproc
 1030               	.LFE64:
 1031               	.sizeCFE_SB_EnableRoute, .-CFE_SB_EnableRoute
 1032               	.section.rodata
 1033               	.LC20:
 1034 02fd 4469 7361 	.string"Disable Route Cmd:Invalid Param.Msg 0x%x,Pipe %d"
 1034      626C 6520 
 1034      526F 7574 
 1034      6520 436D 
 1034      643A 496E 
 1035               	.LC21:
 1036 032e 4469 7361 	.string"Disable Route Cmd:Route does not exist,Msg 0x%x,Pipe %d"
 1036      626C 6520 
 1036      526F 7574 
 1036      6520 436D 
 1036      643A 526F 
 1037               	.LC22:
 1038 0366 526F 7574 	.string"Route Disabled,Msg 0x%x,Pipe %d"
 1038      6520 4469 
 1038      7361 626C 
 1038      6564 2C4D 
 1038      7367 2030 
 1039               	.text
 1040               	.align2
 1041               	.globlCFE_SB_DisableRoute
 1042               	.typeCFE_SB_DisableRoute, @function
 1043               	CFE_SB_DisableRoute:
 1044               	.LFB65:
 561:/home/simulink/cFS_FreeRTOS_seL4/cfe/fsw/cfe-core/src/sb/cfe_sb_task.c **** 
 562:/home/simulink/cFS_FreeRTOS_seL4/cfe/fsw/cfe-core/src/sb/cfe_sb_task.c **** 
 563:/home/simulink/cFS_FreeRTOS_seL4/cfe/fsw/cfe-core/src/sb/cfe_sb_task.c **** 
 564:/home/simulink/cFS_FreeRTOS_seL4/cfe/fsw/cfe-core/src/sb/cfe_sb_task.c **** /******************************************************************************
 565:/home/simulink/cFS_FreeRTOS_seL4/cfe/fsw/cfe-core/src/sb/cfe_sb_task.c **** **  Function:  CFE_SB_DisableRoute()
 566:/home/simulink/cFS_FreeRTOS_seL4/cfe/fsw/cfe-core/src/sb/cfe_sb_task.c **** **
 567:/home/simulink/cFS_FreeRTOS_seL4/cfe/fsw/cfe-core/src/sb/cfe_sb_task.c **** **  Purpose:
 568:/home/simulink/cFS_FreeRTOS_seL4/cfe/fsw/cfe-core/src/sb/cfe_sb_task.c **** **    SB internal function to disable a specific route. A route is defined as a
 569:/home/simulink/cFS_FreeRTOS_seL4/cfe/fsw/cfe-core/src/sb/cfe_sb_task.c **** **    MsgId/PipeId combination.
 570:/home/simulink/cFS_FreeRTOS_seL4/cfe/fsw/cfe-core/src/sb/cfe_sb_task.c **** **
 571:/home/simulink/cFS_FreeRTOS_seL4/cfe/fsw/cfe-core/src/sb/cfe_sb_task.c **** **  Arguments:
 572:/home/simulink/cFS_FreeRTOS_seL4/cfe/fsw/cfe-core/src/sb/cfe_sb_task.c **** **    MsgPtr  : pointer to the message
 573:/home/simulink/cFS_FreeRTOS_seL4/cfe/fsw/cfe-core/src/sb/cfe_sb_task.c **** **
 574:/home/simulink/cFS_FreeRTOS_seL4/cfe/fsw/cfe-core/src/sb/cfe_sb_task.c **** **  Return:
 575:/home/simulink/cFS_FreeRTOS_seL4/cfe/fsw/cfe-core/src/sb/cfe_sb_task.c **** **    None
 576:/home/simulink/cFS_FreeRTOS_seL4/cfe/fsw/cfe-core/src/sb/cfe_sb_task.c **** */
68K GAS   			page 34


 577:/home/simulink/cFS_FreeRTOS_seL4/cfe/fsw/cfe-core/src/sb/cfe_sb_task.c **** void CFE_SB_DisableRoute(CFE_SB_MsgPayloadPtr_t Payload){
 1045               	.loc 1 577 0
 1046               	.cfi_startproc
 1047 080a 4FEF FFF4 	lea (-12,%sp),%sp
 1048               	.cfi_def_cfa_offset 16
 578:/home/simulink/cFS_FreeRTOS_seL4/cfe/fsw/cfe-core/src/sb/cfe_sb_task.c **** 
 579:/home/simulink/cFS_FreeRTOS_seL4/cfe/fsw/cfe-core/src/sb/cfe_sb_task.c ****     CFE_SB_MsgId_t          MsgId;
 580:/home/simulink/cFS_FreeRTOS_seL4/cfe/fsw/cfe-core/src/sb/cfe_sb_task.c ****     CFE_SB_PipeId_t         PipeId;
 581:/home/simulink/cFS_FreeRTOS_seL4/cfe/fsw/cfe-core/src/sb/cfe_sb_task.c ****     CFE_SB_DestinationD_t   *DestPtr;
 582:/home/simulink/cFS_FreeRTOS_seL4/cfe/fsw/cfe-core/src/sb/cfe_sb_task.c ****     CFE_SB_EnRoutCmd_Payload_t      *CmdPtr;
 583:/home/simulink/cFS_FreeRTOS_seL4/cfe/fsw/cfe-core/src/sb/cfe_sb_task.c **** 
 584:/home/simulink/cFS_FreeRTOS_seL4/cfe/fsw/cfe-core/src/sb/cfe_sb_task.c ****     CmdPtr = (CFE_SB_EnRoutCmd_Payload_t *)Payload;
 1049               	.loc 1 584 0
 1050 080e 2F6F 0010 	move.l 16(%sp),8(%sp)
 1050      0008 
 585:/home/simulink/cFS_FreeRTOS_seL4/cfe/fsw/cfe-core/src/sb/cfe_sb_task.c **** 
 586:/home/simulink/cFS_FreeRTOS_seL4/cfe/fsw/cfe-core/src/sb/cfe_sb_task.c ****     MsgId  = CmdPtr->MsgId;
 1051               	.loc 1 586 0
 1052 0814 206F 0008 	move.l 8(%sp),%a0
 1053 0818 3F50 0006 	move.w (%a0),6(%sp)
 587:/home/simulink/cFS_FreeRTOS_seL4/cfe/fsw/cfe-core/src/sb/cfe_sb_task.c ****     PipeId = CmdPtr->Pipe;
 1054               	.loc 1 587 0
 1055 081c 206F 0008 	move.l 8(%sp),%a0
 1056 0820 1F68 0002 	move.b 2(%a0),5(%sp)
 1056      0005 
 588:/home/simulink/cFS_FreeRTOS_seL4/cfe/fsw/cfe-core/src/sb/cfe_sb_task.c **** 
 589:/home/simulink/cFS_FreeRTOS_seL4/cfe/fsw/cfe-core/src/sb/cfe_sb_task.c ****     /* check cmd parameters */
 590:/home/simulink/cFS_FreeRTOS_seL4/cfe/fsw/cfe-core/src/sb/cfe_sb_task.c ****     if((CFE_SB_ValidateMsgId(MsgId) != CFE_SUCCESS)||
 1057               	.loc 1 590 0
 1058 0826 4280      	clr.l %d0
 1059 0828 302F 0006 	move.w 6(%sp),%d0
 1060 082c 2F00      	move.l %d0,-(%sp)
 1061               	.cfi_def_cfa_offset 20
 1062 082e 4EB9 0000 	jsr CFE_SB_ValidateMsgId
 1062      0000 
 1063 0834 588F      	addq.l #4,%sp
 1064               	.cfi_def_cfa_offset 16
 1065 0836 4A80      	tst.l %d0
 1066 0838 6614      	jne .L46
 591:/home/simulink/cFS_FreeRTOS_seL4/cfe/fsw/cfe-core/src/sb/cfe_sb_task.c ****        (CFE_SB_ValidatePipeId(PipeId) != CFE_SUCCESS)){
 1067               	.loc 1 591 0 discriminator 1
 1068 083a 4280      	clr.l %d0
 1069 083c 102F 0005 	move.b 5(%sp),%d0
 1070 0840 2F00      	move.l %d0,-(%sp)
 1071               	.cfi_def_cfa_offset 20
 1072 0842 4EB9 0000 	jsr CFE_SB_ValidatePipeId
 1072      0000 
 1073 0848 588F      	addq.l #4,%sp
 1074               	.cfi_def_cfa_offset 16
 590:/home/simulink/cFS_FreeRTOS_seL4/cfe/fsw/cfe-core/src/sb/cfe_sb_task.c ****        (CFE_SB_ValidatePipeId(PipeId) != CFE_SUCCESS)){
 1075               	.loc 1 590 0 discriminator 1
 1076 084a 4A80      	tst.l %d0
 1077 084c 673C      	jeq .L47
 1078               	.L46:
 592:/home/simulink/cFS_FreeRTOS_seL4/cfe/fsw/cfe-core/src/sb/cfe_sb_task.c ****         CFE_EVS_SendEvent(CFE_SB_DSBL_RTE3_EID,CFE_EVS_ERROR,
 1079               	.loc 1 592 0
 1080 084e 4281      	clr.l %d1
68K GAS   			page 35


 1081 0850 122F 0005 	move.b 5(%sp),%d1
 1082 0854 4280      	clr.l %d0
 1083 0856 302F 0006 	move.w 6(%sp),%d0
 1084 085a 2F01      	move.l %d1,-(%sp)
 1085               	.cfi_def_cfa_offset 20
 1086 085c 2F00      	move.l %d0,-(%sp)
 1087               	.cfi_def_cfa_offset 24
 1088 085e 4879 0000 	pea .LC20
 1088      0000 
 1089               	.cfi_def_cfa_offset 28
 1090 0864 4878 0003 	pea 3.w
 1091               	.cfi_def_cfa_offset 32
 1092 0868 4878 0026 	pea 38.w
 1093               	.cfi_def_cfa_offset 36
 1094 086c 4EB9 0000 	jsr CFE_EVS_SendEvent
 1094      0000 
 1095 0872 4FEF 0014 	lea (20,%sp),%sp
 1096               	.cfi_def_cfa_offset 16
 593:/home/simulink/cFS_FreeRTOS_seL4/cfe/fsw/cfe-core/src/sb/cfe_sb_task.c ****                    "Disable Route Cmd:Invalid Param.Msg 0x%x,Pipe %d",(unsigned int)MsgId,(int)Pipe
 594:/home/simulink/cFS_FreeRTOS_seL4/cfe/fsw/cfe-core/src/sb/cfe_sb_task.c ****         CFE_SB.HKTlmMsg.Payload.CmdErrCnt++;
 1097               	.loc 1 594 0
 1098 0876 1039 0000 	move.b CFE_SB+4513,%d0
 1098      0000 
 1099 087c 5280      	addq.l #1,%d0
 1100 087e 1000      	move.b %d0,%d0
 1101 0880 13C0 0000 	move.b %d0,CFE_SB+4513
 1101      0000 
 595:/home/simulink/cFS_FreeRTOS_seL4/cfe/fsw/cfe-core/src/sb/cfe_sb_task.c ****         return;
 1102               	.loc 1 595 0
 1103 0886 6000 009A 	jra .L45
 1104               	.L47:
 596:/home/simulink/cFS_FreeRTOS_seL4/cfe/fsw/cfe-core/src/sb/cfe_sb_task.c ****     }/* end if */
 597:/home/simulink/cFS_FreeRTOS_seL4/cfe/fsw/cfe-core/src/sb/cfe_sb_task.c **** 
 598:/home/simulink/cFS_FreeRTOS_seL4/cfe/fsw/cfe-core/src/sb/cfe_sb_task.c ****     DestPtr = CFE_SB_GetDestPtr(MsgId, PipeId);
 1105               	.loc 1 598 0
 1106 088a 4281      	clr.l %d1
 1107 088c 122F 0005 	move.b 5(%sp),%d1
 1108 0890 4280      	clr.l %d0
 1109 0892 302F 0006 	move.w 6(%sp),%d0
 1110 0896 2F01      	move.l %d1,-(%sp)
 1111               	.cfi_def_cfa_offset 20
 1112 0898 2F00      	move.l %d0,-(%sp)
 1113               	.cfi_def_cfa_offset 24
 1114 089a 4EB9 0000 	jsr CFE_SB_GetDestPtr
 1114      0000 
 1115 08a0 508F      	addq.l #8,%sp
 1116               	.cfi_def_cfa_offset 16
 1117 08a2 2E80      	move.l %d0,(%sp)
 599:/home/simulink/cFS_FreeRTOS_seL4/cfe/fsw/cfe-core/src/sb/cfe_sb_task.c ****     if(DestPtr == NULL){
 1118               	.loc 1 599 0
 1119 08a4 4A97      	tst.l (%sp)
 1120 08a6 663A      	jne .L49
 600:/home/simulink/cFS_FreeRTOS_seL4/cfe/fsw/cfe-core/src/sb/cfe_sb_task.c ****         CFE_EVS_SendEvent(CFE_SB_DSBL_RTE1_EID,CFE_EVS_ERROR,
 1121               	.loc 1 600 0
 1122 08a8 4281      	clr.l %d1
 1123 08aa 122F 0005 	move.b 5(%sp),%d1
 1124 08ae 4280      	clr.l %d0
68K GAS   			page 36


 1125 08b0 302F 0006 	move.w 6(%sp),%d0
 1126 08b4 2F01      	move.l %d1,-(%sp)
 1127               	.cfi_def_cfa_offset 20
 1128 08b6 2F00      	move.l %d0,-(%sp)
 1129               	.cfi_def_cfa_offset 24
 1130 08b8 4879 0000 	pea .LC21
 1130      0000 
 1131               	.cfi_def_cfa_offset 28
 1132 08be 4878 0003 	pea 3.w
 1133               	.cfi_def_cfa_offset 32
 1134 08c2 4878 0024 	pea 36.w
 1135               	.cfi_def_cfa_offset 36
 1136 08c6 4EB9 0000 	jsr CFE_EVS_SendEvent
 1136      0000 
 1137 08cc 4FEF 0014 	lea (20,%sp),%sp
 1138               	.cfi_def_cfa_offset 16
 601:/home/simulink/cFS_FreeRTOS_seL4/cfe/fsw/cfe-core/src/sb/cfe_sb_task.c ****             "Disable Route Cmd:Route does not exist,Msg 0x%x,Pipe %d",(unsigned int)MsgId,(int)Pipe
 602:/home/simulink/cFS_FreeRTOS_seL4/cfe/fsw/cfe-core/src/sb/cfe_sb_task.c ****         CFE_SB.HKTlmMsg.Payload.CmdErrCnt++;
 1139               	.loc 1 602 0
 1140 08d0 1039 0000 	move.b CFE_SB+4513,%d0
 1140      0000 
 1141 08d6 5280      	addq.l #1,%d0
 1142 08d8 1000      	move.b %d0,%d0
 1143 08da 13C0 0000 	move.b %d0,CFE_SB+4513
 1143      0000 
 603:/home/simulink/cFS_FreeRTOS_seL4/cfe/fsw/cfe-core/src/sb/cfe_sb_task.c ****         return;
 1144               	.loc 1 603 0
 1145 08e0 6040      	jra .L45
 1146               	.L49:
 604:/home/simulink/cFS_FreeRTOS_seL4/cfe/fsw/cfe-core/src/sb/cfe_sb_task.c ****     }/* end if */
 605:/home/simulink/cFS_FreeRTOS_seL4/cfe/fsw/cfe-core/src/sb/cfe_sb_task.c **** 
 606:/home/simulink/cFS_FreeRTOS_seL4/cfe/fsw/cfe-core/src/sb/cfe_sb_task.c ****     DestPtr->Active = CFE_SB_INACTIVE;
 1147               	.loc 1 606 0
 1148 08e2 2057      	move.l (%sp),%a0
 1149 08e4 4200      	clr.b %d0
 1150 08e6 1140 0001 	move.b %d0,1(%a0)
 607:/home/simulink/cFS_FreeRTOS_seL4/cfe/fsw/cfe-core/src/sb/cfe_sb_task.c **** 
 608:/home/simulink/cFS_FreeRTOS_seL4/cfe/fsw/cfe-core/src/sb/cfe_sb_task.c ****     CFE_EVS_SendEvent(CFE_SB_DSBL_RTE2_EID,CFE_EVS_DEBUG,
 1151               	.loc 1 608 0
 1152 08ea 4281      	clr.l %d1
 1153 08ec 122F 0005 	move.b 5(%sp),%d1
 1154 08f0 4280      	clr.l %d0
 1155 08f2 302F 0006 	move.w 6(%sp),%d0
 1156 08f6 2F01      	move.l %d1,-(%sp)
 1157               	.cfi_def_cfa_offset 20
 1158 08f8 2F00      	move.l %d0,-(%sp)
 1159               	.cfi_def_cfa_offset 24
 1160 08fa 4879 0000 	pea .LC22
 1160      0000 
 1161               	.cfi_def_cfa_offset 28
 1162 0900 4878 0001 	pea 1.w
 1163               	.cfi_def_cfa_offset 32
 1164 0904 4878 0025 	pea 37.w
 1165               	.cfi_def_cfa_offset 36
 1166 0908 4EB9 0000 	jsr CFE_EVS_SendEvent
 1166      0000 
 1167 090e 4FEF 0014 	lea (20,%sp),%sp
68K GAS   			page 37


 1168               	.cfi_def_cfa_offset 16
 609:/home/simulink/cFS_FreeRTOS_seL4/cfe/fsw/cfe-core/src/sb/cfe_sb_task.c ****                       "Route Disabled,Msg 0x%x,Pipe %d",(unsigned int)MsgId,(int)PipeId);
 610:/home/simulink/cFS_FreeRTOS_seL4/cfe/fsw/cfe-core/src/sb/cfe_sb_task.c ****     CFE_SB.HKTlmMsg.Payload.CommandCnt++;
 1169               	.loc 1 610 0
 1170 0912 1039 0000 	move.b CFE_SB+4512,%d0
 1170      0000 
 1171 0918 5280      	addq.l #1,%d0
 1172 091a 1000      	move.b %d0,%d0
 1173 091c 13C0 0000 	move.b %d0,CFE_SB+4512
 1173      0000 
 1174               	.L45:
 611:/home/simulink/cFS_FreeRTOS_seL4/cfe/fsw/cfe-core/src/sb/cfe_sb_task.c **** 
 612:/home/simulink/cFS_FreeRTOS_seL4/cfe/fsw/cfe-core/src/sb/cfe_sb_task.c **** }/* end CFE_SB_DisableRoute */
 1175               	.loc 1 612 0
 1176 0922 4FEF 000C 	lea (12,%sp),%sp
 1177 0926 4E75      	rts
 1178               	.cfi_endproc
 1179               	.LFE65:
 1180               	.sizeCFE_SB_DisableRoute, .-CFE_SB_DisableRoute
 1181               	.section.rodata
 1182               	.LC23:
 1183 0386 536F 6674 	.string"Software Bus Statistics packet sent"
 1183      7761 7265 
 1183      2042 7573 
 1183      2053 7461 
 1183      7469 7374 
 1184               	.text
 1185               	.align2
 1186               	.globlCFE_SB_SendStats
 1187               	.typeCFE_SB_SendStats, @function
 1188               	CFE_SB_SendStats:
 1189               	.LFB66:
 613:/home/simulink/cFS_FreeRTOS_seL4/cfe/fsw/cfe-core/src/sb/cfe_sb_task.c **** 
 614:/home/simulink/cFS_FreeRTOS_seL4/cfe/fsw/cfe-core/src/sb/cfe_sb_task.c **** 
 615:/home/simulink/cFS_FreeRTOS_seL4/cfe/fsw/cfe-core/src/sb/cfe_sb_task.c **** /******************************************************************************
 616:/home/simulink/cFS_FreeRTOS_seL4/cfe/fsw/cfe-core/src/sb/cfe_sb_task.c **** **  Function:  CFE_SB_SendStats()
 617:/home/simulink/cFS_FreeRTOS_seL4/cfe/fsw/cfe-core/src/sb/cfe_sb_task.c **** **
 618:/home/simulink/cFS_FreeRTOS_seL4/cfe/fsw/cfe-core/src/sb/cfe_sb_task.c **** **  Purpose:
 619:/home/simulink/cFS_FreeRTOS_seL4/cfe/fsw/cfe-core/src/sb/cfe_sb_task.c **** **    SB internal function to send a Software Bus statistics packet
 620:/home/simulink/cFS_FreeRTOS_seL4/cfe/fsw/cfe-core/src/sb/cfe_sb_task.c **** **
 621:/home/simulink/cFS_FreeRTOS_seL4/cfe/fsw/cfe-core/src/sb/cfe_sb_task.c **** **  Arguments:
 622:/home/simulink/cFS_FreeRTOS_seL4/cfe/fsw/cfe-core/src/sb/cfe_sb_task.c **** **    None
 623:/home/simulink/cFS_FreeRTOS_seL4/cfe/fsw/cfe-core/src/sb/cfe_sb_task.c **** **
 624:/home/simulink/cFS_FreeRTOS_seL4/cfe/fsw/cfe-core/src/sb/cfe_sb_task.c **** **  Return:
 625:/home/simulink/cFS_FreeRTOS_seL4/cfe/fsw/cfe-core/src/sb/cfe_sb_task.c **** **    None
 626:/home/simulink/cFS_FreeRTOS_seL4/cfe/fsw/cfe-core/src/sb/cfe_sb_task.c **** */
 627:/home/simulink/cFS_FreeRTOS_seL4/cfe/fsw/cfe-core/src/sb/cfe_sb_task.c **** void CFE_SB_SendStats(void){
 1190               	.loc 1 627 0
 1191               	.cfi_startproc
 628:/home/simulink/cFS_FreeRTOS_seL4/cfe/fsw/cfe-core/src/sb/cfe_sb_task.c **** 
 629:/home/simulink/cFS_FreeRTOS_seL4/cfe/fsw/cfe-core/src/sb/cfe_sb_task.c ****     CFE_SB_SendMsg((CFE_SB_Msg_t *)&CFE_SB.StatTlmMsg);
 1192               	.loc 1 629 0
 1193 0928 4879 0000 	pea CFE_SB+4540
 1193      0000 
 1194               	.cfi_def_cfa_offset 8
 1195 092e 4EB9 0000 	jsr CFE_SB_SendMsg
 1195      0000 
68K GAS   			page 38


 1196 0934 588F      	addq.l #4,%sp
 1197               	.cfi_def_cfa_offset 4
 630:/home/simulink/cFS_FreeRTOS_seL4/cfe/fsw/cfe-core/src/sb/cfe_sb_task.c **** 
 631:/home/simulink/cFS_FreeRTOS_seL4/cfe/fsw/cfe-core/src/sb/cfe_sb_task.c ****     CFE_EVS_SendEvent(CFE_SB_SND_STATS_EID,CFE_EVS_DEBUG,
 1198               	.loc 1 631 0
 1199 0936 4879 0000 	pea .LC23
 1199      0000 
 1200               	.cfi_def_cfa_offset 8
 1201 093c 4878 0001 	pea 1.w
 1202               	.cfi_def_cfa_offset 12
 1203 0940 4878 0020 	pea 32.w
 1204               	.cfi_def_cfa_offset 16
 1205 0944 4EB9 0000 	jsr CFE_EVS_SendEvent
 1205      0000 
 1206 094a 4FEF 000C 	lea (12,%sp),%sp
 1207               	.cfi_def_cfa_offset 4
 632:/home/simulink/cFS_FreeRTOS_seL4/cfe/fsw/cfe-core/src/sb/cfe_sb_task.c ****                       "Software Bus Statistics packet sent");
 633:/home/simulink/cFS_FreeRTOS_seL4/cfe/fsw/cfe-core/src/sb/cfe_sb_task.c **** 
 634:/home/simulink/cFS_FreeRTOS_seL4/cfe/fsw/cfe-core/src/sb/cfe_sb_task.c ****     CFE_SB.HKTlmMsg.Payload.CommandCnt++;
 1208               	.loc 1 634 0
 1209 094e 1039 0000 	move.b CFE_SB+4512,%d0
 1209      0000 
 1210 0954 5280      	addq.l #1,%d0
 1211 0956 1000      	move.b %d0,%d0
 1212 0958 13C0 0000 	move.b %d0,CFE_SB+4512
 1212      0000 
 635:/home/simulink/cFS_FreeRTOS_seL4/cfe/fsw/cfe-core/src/sb/cfe_sb_task.c **** 
 636:/home/simulink/cFS_FreeRTOS_seL4/cfe/fsw/cfe-core/src/sb/cfe_sb_task.c **** }/* CFE_SB_SendStats */
 1213               	.loc 1 636 0
 1214 095e 4E71      	nop
 1215 0960 4E75      	rts
 1216               	.cfi_endproc
 1217               	.LFE66:
 1218               	.sizeCFE_SB_SendStats, .-CFE_SB_SendStats
 1219               	.section.rodata
 1220               	.LC24:
 1221 03aa 2F72 616D 	.string"/ram/cfe_sb_route.dat"
 1221      2F63 6665 
 1221      5F73 625F 
 1221      726F 7574 
 1221      652E 6461 
 1222               	.text
 1223               	.align2
 1224               	.globlCFE_SB_ProcessSendRtgInfoCmd
 1225               	.typeCFE_SB_ProcessSendRtgInfoCmd, @function
 1226               	CFE_SB_ProcessSendRtgInfoCmd:
 1227               	.LFB67:
 637:/home/simulink/cFS_FreeRTOS_seL4/cfe/fsw/cfe-core/src/sb/cfe_sb_task.c **** 
 638:/home/simulink/cFS_FreeRTOS_seL4/cfe/fsw/cfe-core/src/sb/cfe_sb_task.c **** 
 639:/home/simulink/cFS_FreeRTOS_seL4/cfe/fsw/cfe-core/src/sb/cfe_sb_task.c **** /******************************************************************************
 640:/home/simulink/cFS_FreeRTOS_seL4/cfe/fsw/cfe-core/src/sb/cfe_sb_task.c **** **  Function:  CFE_SB_ProcessSendRtgInfoCmd()
 641:/home/simulink/cFS_FreeRTOS_seL4/cfe/fsw/cfe-core/src/sb/cfe_sb_task.c **** **
 642:/home/simulink/cFS_FreeRTOS_seL4/cfe/fsw/cfe-core/src/sb/cfe_sb_task.c **** **  Purpose:
 643:/home/simulink/cFS_FreeRTOS_seL4/cfe/fsw/cfe-core/src/sb/cfe_sb_task.c **** **    SB internal function to handle processing of 'Send Routing Info' Cmd
 644:/home/simulink/cFS_FreeRTOS_seL4/cfe/fsw/cfe-core/src/sb/cfe_sb_task.c **** **
 645:/home/simulink/cFS_FreeRTOS_seL4/cfe/fsw/cfe-core/src/sb/cfe_sb_task.c **** **  Arguments:
 646:/home/simulink/cFS_FreeRTOS_seL4/cfe/fsw/cfe-core/src/sb/cfe_sb_task.c **** **    None
68K GAS   			page 39


 647:/home/simulink/cFS_FreeRTOS_seL4/cfe/fsw/cfe-core/src/sb/cfe_sb_task.c **** **
 648:/home/simulink/cFS_FreeRTOS_seL4/cfe/fsw/cfe-core/src/sb/cfe_sb_task.c **** **  Return:
 649:/home/simulink/cFS_FreeRTOS_seL4/cfe/fsw/cfe-core/src/sb/cfe_sb_task.c **** **    None
 650:/home/simulink/cFS_FreeRTOS_seL4/cfe/fsw/cfe-core/src/sb/cfe_sb_task.c **** */
 651:/home/simulink/cFS_FreeRTOS_seL4/cfe/fsw/cfe-core/src/sb/cfe_sb_task.c **** void CFE_SB_ProcessSendRtgInfoCmd(CFE_SB_MsgPayloadPtr_t Payload){
 1228               	.loc 1 651 0
 1229               	.cfi_startproc
 1230 0962 4FEF FFB8 	lea (-72,%sp),%sp
 1231               	.cfi_def_cfa_offset 76
 652:/home/simulink/cFS_FreeRTOS_seL4/cfe/fsw/cfe-core/src/sb/cfe_sb_task.c **** 
 653:/home/simulink/cFS_FreeRTOS_seL4/cfe/fsw/cfe-core/src/sb/cfe_sb_task.c ****     CFE_SB_WriteFileInfoCmd_Payload_t *ptr;
 654:/home/simulink/cFS_FreeRTOS_seL4/cfe/fsw/cfe-core/src/sb/cfe_sb_task.c ****     char LocalFilename[OS_MAX_PATH_LEN];
 655:/home/simulink/cFS_FreeRTOS_seL4/cfe/fsw/cfe-core/src/sb/cfe_sb_task.c ****     int32 Stat;
 656:/home/simulink/cFS_FreeRTOS_seL4/cfe/fsw/cfe-core/src/sb/cfe_sb_task.c **** 
 657:/home/simulink/cFS_FreeRTOS_seL4/cfe/fsw/cfe-core/src/sb/cfe_sb_task.c ****     ptr = (CFE_SB_WriteFileInfoCmd_Payload_t *)Payload;
 1232               	.loc 1 657 0
 1233 0966 2F6F 004C 	move.l 76(%sp),68(%sp)
 1233      0044 
 658:/home/simulink/cFS_FreeRTOS_seL4/cfe/fsw/cfe-core/src/sb/cfe_sb_task.c **** 
 659:/home/simulink/cFS_FreeRTOS_seL4/cfe/fsw/cfe-core/src/sb/cfe_sb_task.c ****     CFE_SB_MessageStringGet(LocalFilename, ptr->Filename, CFE_SB_DEFAULT_ROUTING_FILENAME,
 1234               	.loc 1 659 0
 1235 096c 202F 0044 	move.l 68(%sp),%d0
 1236 0970 4878 0040 	pea 64.w
 1237               	.cfi_def_cfa_offset 80
 1238 0974 4878 0040 	pea 64.w
 1239               	.cfi_def_cfa_offset 84
 1240 0978 4879 0000 	pea .LC24
 1240      0000 
 1241               	.cfi_def_cfa_offset 88
 1242 097e 2F00      	move.l %d0,-(%sp)
 1243               	.cfi_def_cfa_offset 92
 1244 0980 200F      	move.l %sp,%d0
 1245 0982 0680 0000 	add.l #16,%d0
 1245      0010 
 1246 0988 2F00      	move.l %d0,-(%sp)
 1247               	.cfi_def_cfa_offset 96
 1248 098a 4EB9 0000 	jsr CFE_SB_MessageStringGet
 1248      0000 
 1249 0990 4FEF 0014 	lea (20,%sp),%sp
 1250               	.cfi_def_cfa_offset 76
 660:/home/simulink/cFS_FreeRTOS_seL4/cfe/fsw/cfe-core/src/sb/cfe_sb_task.c ****             OS_MAX_PATH_LEN, sizeof(ptr->Filename));
 661:/home/simulink/cFS_FreeRTOS_seL4/cfe/fsw/cfe-core/src/sb/cfe_sb_task.c **** 
 662:/home/simulink/cFS_FreeRTOS_seL4/cfe/fsw/cfe-core/src/sb/cfe_sb_task.c ****     Stat = CFE_SB_SendRtgInfo(LocalFilename);
 1251               	.loc 1 662 0
 1252 0994 200F      	move.l %sp,%d0
 1253 0996 2F00      	move.l %d0,-(%sp)
 1254               	.cfi_def_cfa_offset 80
 1255 0998 4EB9 0000 	jsr CFE_SB_SendRtgInfo
 1255      0000 
 1256 099e 588F      	addq.l #4,%sp
 1257               	.cfi_def_cfa_offset 76
 1258 09a0 2F40 0040 	move.l %d0,64(%sp)
 663:/home/simulink/cFS_FreeRTOS_seL4/cfe/fsw/cfe-core/src/sb/cfe_sb_task.c ****     CFE_SB_IncrCmdCtr(Stat);
 1259               	.loc 1 663 0
 1260 09a4 2F2F 0040 	move.l 64(%sp),-(%sp)
 1261               	.cfi_def_cfa_offset 80
 1262 09a8 4EB9 0000 	jsr CFE_SB_IncrCmdCtr
68K GAS   			page 40


 1262      0000 
 1263 09ae 588F      	addq.l #4,%sp
 1264               	.cfi_def_cfa_offset 76
 664:/home/simulink/cFS_FreeRTOS_seL4/cfe/fsw/cfe-core/src/sb/cfe_sb_task.c **** 
 665:/home/simulink/cFS_FreeRTOS_seL4/cfe/fsw/cfe-core/src/sb/cfe_sb_task.c **** }/* end CFE_SB_ProcessSendRtgInfoCmd */
 1265               	.loc 1 665 0
 1266 09b0 4E71      	nop
 1267 09b2 4FEF 0048 	lea (72,%sp),%sp
 1268 09b6 4E75      	rts
 1269               	.cfi_endproc
 1270               	.LFE67:
 1271               	.sizeCFE_SB_ProcessSendRtgInfoCmd, .-CFE_SB_ProcessSendRtgInfoCmd
 1272               	.section.rodata
 1273               	.LC25:
 1274 03c0 2F72 616D 	.string"/ram/cfe_sb_pipe.dat"
 1274      2F63 6665 
 1274      5F73 625F 
 1274      7069 7065 
 1274      2E64 6174 
 1275               	.text
 1276               	.align2
 1277               	.globlCFE_SB_ProcessSendPipeInfoCmd
 1278               	.typeCFE_SB_ProcessSendPipeInfoCmd, @function
 1279               	CFE_SB_ProcessSendPipeInfoCmd:
 1280               	.LFB68:
 666:/home/simulink/cFS_FreeRTOS_seL4/cfe/fsw/cfe-core/src/sb/cfe_sb_task.c **** 
 667:/home/simulink/cFS_FreeRTOS_seL4/cfe/fsw/cfe-core/src/sb/cfe_sb_task.c **** 
 668:/home/simulink/cFS_FreeRTOS_seL4/cfe/fsw/cfe-core/src/sb/cfe_sb_task.c **** /******************************************************************************
 669:/home/simulink/cFS_FreeRTOS_seL4/cfe/fsw/cfe-core/src/sb/cfe_sb_task.c **** **  Function:  CFE_SB_ProcessSendPipeInfoCmd()
 670:/home/simulink/cFS_FreeRTOS_seL4/cfe/fsw/cfe-core/src/sb/cfe_sb_task.c **** **
 671:/home/simulink/cFS_FreeRTOS_seL4/cfe/fsw/cfe-core/src/sb/cfe_sb_task.c **** **  Purpose:
 672:/home/simulink/cFS_FreeRTOS_seL4/cfe/fsw/cfe-core/src/sb/cfe_sb_task.c **** **    SB internal function to handle processing of 'Send Pipe Info' Cmd
 673:/home/simulink/cFS_FreeRTOS_seL4/cfe/fsw/cfe-core/src/sb/cfe_sb_task.c **** **
 674:/home/simulink/cFS_FreeRTOS_seL4/cfe/fsw/cfe-core/src/sb/cfe_sb_task.c **** **  Arguments:
 675:/home/simulink/cFS_FreeRTOS_seL4/cfe/fsw/cfe-core/src/sb/cfe_sb_task.c **** **    None
 676:/home/simulink/cFS_FreeRTOS_seL4/cfe/fsw/cfe-core/src/sb/cfe_sb_task.c **** **
 677:/home/simulink/cFS_FreeRTOS_seL4/cfe/fsw/cfe-core/src/sb/cfe_sb_task.c **** **  Return:
 678:/home/simulink/cFS_FreeRTOS_seL4/cfe/fsw/cfe-core/src/sb/cfe_sb_task.c **** **    None
 679:/home/simulink/cFS_FreeRTOS_seL4/cfe/fsw/cfe-core/src/sb/cfe_sb_task.c **** */
 680:/home/simulink/cFS_FreeRTOS_seL4/cfe/fsw/cfe-core/src/sb/cfe_sb_task.c **** void CFE_SB_ProcessSendPipeInfoCmd(CFE_SB_MsgPayloadPtr_t Payload){
 1281               	.loc 1 680 0
 1282               	.cfi_startproc
 1283 09b8 4FEF FFB8 	lea (-72,%sp),%sp
 1284               	.cfi_def_cfa_offset 76
 681:/home/simulink/cFS_FreeRTOS_seL4/cfe/fsw/cfe-core/src/sb/cfe_sb_task.c **** 
 682:/home/simulink/cFS_FreeRTOS_seL4/cfe/fsw/cfe-core/src/sb/cfe_sb_task.c ****     CFE_SB_WriteFileInfoCmd_Payload_t *ptr;
 683:/home/simulink/cFS_FreeRTOS_seL4/cfe/fsw/cfe-core/src/sb/cfe_sb_task.c ****     char LocalFilename[OS_MAX_PATH_LEN];
 684:/home/simulink/cFS_FreeRTOS_seL4/cfe/fsw/cfe-core/src/sb/cfe_sb_task.c ****     int32 Stat;
 685:/home/simulink/cFS_FreeRTOS_seL4/cfe/fsw/cfe-core/src/sb/cfe_sb_task.c **** 
 686:/home/simulink/cFS_FreeRTOS_seL4/cfe/fsw/cfe-core/src/sb/cfe_sb_task.c ****     ptr = (CFE_SB_WriteFileInfoCmd_Payload_t *)Payload;
 1285               	.loc 1 686 0
 1286 09bc 2F6F 004C 	move.l 76(%sp),68(%sp)
 1286      0044 
 687:/home/simulink/cFS_FreeRTOS_seL4/cfe/fsw/cfe-core/src/sb/cfe_sb_task.c **** 
 688:/home/simulink/cFS_FreeRTOS_seL4/cfe/fsw/cfe-core/src/sb/cfe_sb_task.c ****     CFE_SB_MessageStringGet(LocalFilename, ptr->Filename, CFE_SB_DEFAULT_PIPE_FILENAME,
 1287               	.loc 1 688 0
 1288 09c2 202F 0044 	move.l 68(%sp),%d0
68K GAS   			page 41


 1289 09c6 4878 0040 	pea 64.w
 1290               	.cfi_def_cfa_offset 80
 1291 09ca 4878 0040 	pea 64.w
 1292               	.cfi_def_cfa_offset 84
 1293 09ce 4879 0000 	pea .LC25
 1293      0000 
 1294               	.cfi_def_cfa_offset 88
 1295 09d4 2F00      	move.l %d0,-(%sp)
 1296               	.cfi_def_cfa_offset 92
 1297 09d6 200F      	move.l %sp,%d0
 1298 09d8 0680 0000 	add.l #16,%d0
 1298      0010 
 1299 09de 2F00      	move.l %d0,-(%sp)
 1300               	.cfi_def_cfa_offset 96
 1301 09e0 4EB9 0000 	jsr CFE_SB_MessageStringGet
 1301      0000 
 1302 09e6 4FEF 0014 	lea (20,%sp),%sp
 1303               	.cfi_def_cfa_offset 76
 689:/home/simulink/cFS_FreeRTOS_seL4/cfe/fsw/cfe-core/src/sb/cfe_sb_task.c ****             OS_MAX_PATH_LEN, sizeof(ptr->Filename));
 690:/home/simulink/cFS_FreeRTOS_seL4/cfe/fsw/cfe-core/src/sb/cfe_sb_task.c **** 
 691:/home/simulink/cFS_FreeRTOS_seL4/cfe/fsw/cfe-core/src/sb/cfe_sb_task.c ****     Stat = CFE_SB_SendPipeInfo(LocalFilename);
 1304               	.loc 1 691 0
 1305 09ea 200F      	move.l %sp,%d0
 1306 09ec 2F00      	move.l %d0,-(%sp)
 1307               	.cfi_def_cfa_offset 80
 1308 09ee 4EB9 0000 	jsr CFE_SB_SendPipeInfo
 1308      0000 
 1309 09f4 588F      	addq.l #4,%sp
 1310               	.cfi_def_cfa_offset 76
 1311 09f6 2F40 0040 	move.l %d0,64(%sp)
 692:/home/simulink/cFS_FreeRTOS_seL4/cfe/fsw/cfe-core/src/sb/cfe_sb_task.c ****     CFE_SB_IncrCmdCtr(Stat);
 1312               	.loc 1 692 0
 1313 09fa 2F2F 0040 	move.l 64(%sp),-(%sp)
 1314               	.cfi_def_cfa_offset 80
 1315 09fe 4EB9 0000 	jsr CFE_SB_IncrCmdCtr
 1315      0000 
 1316 0a04 588F      	addq.l #4,%sp
 1317               	.cfi_def_cfa_offset 76
 693:/home/simulink/cFS_FreeRTOS_seL4/cfe/fsw/cfe-core/src/sb/cfe_sb_task.c **** 
 694:/home/simulink/cFS_FreeRTOS_seL4/cfe/fsw/cfe-core/src/sb/cfe_sb_task.c **** }/* end CFE_SB_ProcessSendPipeInfoCmd */
 1318               	.loc 1 694 0
 1319 0a06 4E71      	nop
 1320 0a08 4FEF 0048 	lea (72,%sp),%sp
 1321 0a0c 4E75      	rts
 1322               	.cfi_endproc
 1323               	.LFE68:
 1324               	.sizeCFE_SB_ProcessSendPipeInfoCmd, .-CFE_SB_ProcessSendPipeInfoCmd
 1325               	.section.rodata
 1326               	.LC26:
 1327 03d5 2F72 616D 	.string"/ram/cfe_sb_msgmap.dat"
 1327      2F63 6665 
 1327      5F73 625F 
 1327      6D73 676D 
 1327      6170 2E64 
 1328               	.text
 1329               	.align2
 1330               	.globlCFE_SB_ProcessSendMapInfoCmd
68K GAS   			page 42


 1331               	.typeCFE_SB_ProcessSendMapInfoCmd, @function
 1332               	CFE_SB_ProcessSendMapInfoCmd:
 1333               	.LFB69:
 695:/home/simulink/cFS_FreeRTOS_seL4/cfe/fsw/cfe-core/src/sb/cfe_sb_task.c **** 
 696:/home/simulink/cFS_FreeRTOS_seL4/cfe/fsw/cfe-core/src/sb/cfe_sb_task.c **** 
 697:/home/simulink/cFS_FreeRTOS_seL4/cfe/fsw/cfe-core/src/sb/cfe_sb_task.c **** /******************************************************************************
 698:/home/simulink/cFS_FreeRTOS_seL4/cfe/fsw/cfe-core/src/sb/cfe_sb_task.c **** **  Function:  CFE_SB_ProcessSendMapInfoCmd()
 699:/home/simulink/cFS_FreeRTOS_seL4/cfe/fsw/cfe-core/src/sb/cfe_sb_task.c **** **
 700:/home/simulink/cFS_FreeRTOS_seL4/cfe/fsw/cfe-core/src/sb/cfe_sb_task.c **** **  Purpose:
 701:/home/simulink/cFS_FreeRTOS_seL4/cfe/fsw/cfe-core/src/sb/cfe_sb_task.c **** **    SB internal function to handle processing of 'Send Map Info' Cmd
 702:/home/simulink/cFS_FreeRTOS_seL4/cfe/fsw/cfe-core/src/sb/cfe_sb_task.c **** **
 703:/home/simulink/cFS_FreeRTOS_seL4/cfe/fsw/cfe-core/src/sb/cfe_sb_task.c **** **  Arguments:
 704:/home/simulink/cFS_FreeRTOS_seL4/cfe/fsw/cfe-core/src/sb/cfe_sb_task.c **** **    None
 705:/home/simulink/cFS_FreeRTOS_seL4/cfe/fsw/cfe-core/src/sb/cfe_sb_task.c **** **
 706:/home/simulink/cFS_FreeRTOS_seL4/cfe/fsw/cfe-core/src/sb/cfe_sb_task.c **** **  Return:
 707:/home/simulink/cFS_FreeRTOS_seL4/cfe/fsw/cfe-core/src/sb/cfe_sb_task.c **** **    None
 708:/home/simulink/cFS_FreeRTOS_seL4/cfe/fsw/cfe-core/src/sb/cfe_sb_task.c **** */
 709:/home/simulink/cFS_FreeRTOS_seL4/cfe/fsw/cfe-core/src/sb/cfe_sb_task.c **** void CFE_SB_ProcessSendMapInfoCmd(CFE_SB_MsgPayloadPtr_t Payload){
 1334               	.loc 1 709 0
 1335               	.cfi_startproc
 1336 0a0e 4FEF FFB8 	lea (-72,%sp),%sp
 1337               	.cfi_def_cfa_offset 76
 710:/home/simulink/cFS_FreeRTOS_seL4/cfe/fsw/cfe-core/src/sb/cfe_sb_task.c **** 
 711:/home/simulink/cFS_FreeRTOS_seL4/cfe/fsw/cfe-core/src/sb/cfe_sb_task.c ****     CFE_SB_WriteFileInfoCmd_Payload_t *ptr;
 712:/home/simulink/cFS_FreeRTOS_seL4/cfe/fsw/cfe-core/src/sb/cfe_sb_task.c ****     char LocalFilename[OS_MAX_PATH_LEN];
 713:/home/simulink/cFS_FreeRTOS_seL4/cfe/fsw/cfe-core/src/sb/cfe_sb_task.c ****     int32 Stat;
 714:/home/simulink/cFS_FreeRTOS_seL4/cfe/fsw/cfe-core/src/sb/cfe_sb_task.c **** 
 715:/home/simulink/cFS_FreeRTOS_seL4/cfe/fsw/cfe-core/src/sb/cfe_sb_task.c ****     ptr = (CFE_SB_WriteFileInfoCmd_Payload_t *)Payload;
 1338               	.loc 1 715 0
 1339 0a12 2F6F 004C 	move.l 76(%sp),68(%sp)
 1339      0044 
 716:/home/simulink/cFS_FreeRTOS_seL4/cfe/fsw/cfe-core/src/sb/cfe_sb_task.c **** 
 717:/home/simulink/cFS_FreeRTOS_seL4/cfe/fsw/cfe-core/src/sb/cfe_sb_task.c ****     CFE_SB_MessageStringGet(LocalFilename, ptr->Filename, CFE_SB_DEFAULT_MAP_FILENAME,
 1340               	.loc 1 717 0
 1341 0a18 202F 0044 	move.l 68(%sp),%d0
 1342 0a1c 4878 0040 	pea 64.w
 1343               	.cfi_def_cfa_offset 80
 1344 0a20 4878 0040 	pea 64.w
 1345               	.cfi_def_cfa_offset 84
 1346 0a24 4879 0000 	pea .LC26
 1346      0000 
 1347               	.cfi_def_cfa_offset 88
 1348 0a2a 2F00      	move.l %d0,-(%sp)
 1349               	.cfi_def_cfa_offset 92
 1350 0a2c 200F      	move.l %sp,%d0
 1351 0a2e 0680 0000 	add.l #16,%d0
 1351      0010 
 1352 0a34 2F00      	move.l %d0,-(%sp)
 1353               	.cfi_def_cfa_offset 96
 1354 0a36 4EB9 0000 	jsr CFE_SB_MessageStringGet
 1354      0000 
 1355 0a3c 4FEF 0014 	lea (20,%sp),%sp
 1356               	.cfi_def_cfa_offset 76
 718:/home/simulink/cFS_FreeRTOS_seL4/cfe/fsw/cfe-core/src/sb/cfe_sb_task.c ****             OS_MAX_PATH_LEN, sizeof(ptr->Filename));
 719:/home/simulink/cFS_FreeRTOS_seL4/cfe/fsw/cfe-core/src/sb/cfe_sb_task.c **** 
 720:/home/simulink/cFS_FreeRTOS_seL4/cfe/fsw/cfe-core/src/sb/cfe_sb_task.c ****     Stat = CFE_SB_SendMapInfo(LocalFilename);
 1357               	.loc 1 720 0
68K GAS   			page 43


 1358 0a40 200F      	move.l %sp,%d0
 1359 0a42 2F00      	move.l %d0,-(%sp)
 1360               	.cfi_def_cfa_offset 80
 1361 0a44 4EB9 0000 	jsr CFE_SB_SendMapInfo
 1361      0000 
 1362 0a4a 588F      	addq.l #4,%sp
 1363               	.cfi_def_cfa_offset 76
 1364 0a4c 2F40 0040 	move.l %d0,64(%sp)
 721:/home/simulink/cFS_FreeRTOS_seL4/cfe/fsw/cfe-core/src/sb/cfe_sb_task.c **** 
 722:/home/simulink/cFS_FreeRTOS_seL4/cfe/fsw/cfe-core/src/sb/cfe_sb_task.c ****     CFE_SB_IncrCmdCtr(Stat);
 1365               	.loc 1 722 0
 1366 0a50 2F2F 0040 	move.l 64(%sp),-(%sp)
 1367               	.cfi_def_cfa_offset 80
 1368 0a54 4EB9 0000 	jsr CFE_SB_IncrCmdCtr
 1368      0000 
 1369 0a5a 588F      	addq.l #4,%sp
 1370               	.cfi_def_cfa_offset 76
 723:/home/simulink/cFS_FreeRTOS_seL4/cfe/fsw/cfe-core/src/sb/cfe_sb_task.c **** 
 724:/home/simulink/cFS_FreeRTOS_seL4/cfe/fsw/cfe-core/src/sb/cfe_sb_task.c **** }/* end CFE_SB_ProcessSendMapInfoCmd */
 1371               	.loc 1 724 0
 1372 0a5c 4E71      	nop
 1373 0a5e 4FEF 0048 	lea (72,%sp),%sp
 1374 0a62 4E75      	rts
 1375               	.cfi_endproc
 1376               	.LFE69:
 1377               	.sizeCFE_SB_ProcessSendMapInfoCmd, .-CFE_SB_ProcessSendMapInfoCmd
 1378               	.section.rodata
 1379               	.LC27:
 1380 03ec 4572 726F 	.string"Error creating file %s, stat=0x%x"
 1380      7220 6372 
 1380      6561 7469 
 1380      6E67 2066 
 1380      696C 6520 
 1381               	.LC28:
 1382 040e 5342 2052 	.string"SB Routing Information"
 1382      6F75 7469 
 1382      6E67 2049 
 1382      6E66 6F72 
 1382      6D61 7469 
 1383               	.LC29:
 1384 0425 2573 2077 	.string"%s written:Size=%d,Entries=%d"
 1384      7269 7474 
 1384      656E 3A53 
 1384      697A 653D 
 1384      2564 2C45 
 1385               	.text
 1386               	.align2
 1387               	.globlCFE_SB_SendRtgInfo
 1388               	.typeCFE_SB_SendRtgInfo, @function
 1389               	CFE_SB_SendRtgInfo:
 1390               	.LFB70:
 725:/home/simulink/cFS_FreeRTOS_seL4/cfe/fsw/cfe-core/src/sb/cfe_sb_task.c **** 
 726:/home/simulink/cFS_FreeRTOS_seL4/cfe/fsw/cfe-core/src/sb/cfe_sb_task.c **** 
 727:/home/simulink/cFS_FreeRTOS_seL4/cfe/fsw/cfe-core/src/sb/cfe_sb_task.c **** /******************************************************************************
 728:/home/simulink/cFS_FreeRTOS_seL4/cfe/fsw/cfe-core/src/sb/cfe_sb_task.c **** **  Function:  CFE_SB_SendRoutingInfo()
 729:/home/simulink/cFS_FreeRTOS_seL4/cfe/fsw/cfe-core/src/sb/cfe_sb_task.c **** **
 730:/home/simulink/cFS_FreeRTOS_seL4/cfe/fsw/cfe-core/src/sb/cfe_sb_task.c **** **  Purpose:
68K GAS   			page 44


 731:/home/simulink/cFS_FreeRTOS_seL4/cfe/fsw/cfe-core/src/sb/cfe_sb_task.c **** **    SB internal function to write the routing information to a file
 732:/home/simulink/cFS_FreeRTOS_seL4/cfe/fsw/cfe-core/src/sb/cfe_sb_task.c **** **
 733:/home/simulink/cFS_FreeRTOS_seL4/cfe/fsw/cfe-core/src/sb/cfe_sb_task.c **** **  Arguments:
 734:/home/simulink/cFS_FreeRTOS_seL4/cfe/fsw/cfe-core/src/sb/cfe_sb_task.c **** **    Pointer to a filename
 735:/home/simulink/cFS_FreeRTOS_seL4/cfe/fsw/cfe-core/src/sb/cfe_sb_task.c **** **
 736:/home/simulink/cFS_FreeRTOS_seL4/cfe/fsw/cfe-core/src/sb/cfe_sb_task.c **** **  Return:
 737:/home/simulink/cFS_FreeRTOS_seL4/cfe/fsw/cfe-core/src/sb/cfe_sb_task.c **** **    CFE_SB_FILE_IO_ERR for file I/O errors or CFE_SUCCESS
 738:/home/simulink/cFS_FreeRTOS_seL4/cfe/fsw/cfe-core/src/sb/cfe_sb_task.c **** */
 739:/home/simulink/cFS_FreeRTOS_seL4/cfe/fsw/cfe-core/src/sb/cfe_sb_task.c **** int32 CFE_SB_SendRtgInfo(const char *Filename){
 1391               	.loc 1 739 0
 1392               	.cfi_startproc
 1393 0a64 4FEF FF70 	lea (-144,%sp),%sp
 1394               	.cfi_def_cfa_offset 148
 740:/home/simulink/cFS_FreeRTOS_seL4/cfe/fsw/cfe-core/src/sb/cfe_sb_task.c **** 
 741:/home/simulink/cFS_FreeRTOS_seL4/cfe/fsw/cfe-core/src/sb/cfe_sb_task.c ****     CFE_SB_MsgId_t              RtgTblIdx = 0;
 1395               	.loc 1 741 0
 1396 0a68 4240      	clr.w %d0
 1397 0a6a 3F40 007E 	move.w %d0,126(%sp)
 742:/home/simulink/cFS_FreeRTOS_seL4/cfe/fsw/cfe-core/src/sb/cfe_sb_task.c ****     CFE_SB_MsgId_t              i;
 743:/home/simulink/cFS_FreeRTOS_seL4/cfe/fsw/cfe-core/src/sb/cfe_sb_task.c ****     int32                       fd = 0;
 1398               	.loc 1 743 0
 1399 0a6e 42AF 0078 	clr.l 120(%sp)
 744:/home/simulink/cFS_FreeRTOS_seL4/cfe/fsw/cfe-core/src/sb/cfe_sb_task.c ****     int32                       WriteStat;
 745:/home/simulink/cFS_FreeRTOS_seL4/cfe/fsw/cfe-core/src/sb/cfe_sb_task.c ****     uint32                      FileSize = 0;
 1400               	.loc 1 745 0
 1401 0a72 42AF 0088 	clr.l 136(%sp)
 746:/home/simulink/cFS_FreeRTOS_seL4/cfe/fsw/cfe-core/src/sb/cfe_sb_task.c ****     uint32                      EntryCount = 0;
 1402               	.loc 1 746 0
 1403 0a76 42AF 0084 	clr.l 132(%sp)
 747:/home/simulink/cFS_FreeRTOS_seL4/cfe/fsw/cfe-core/src/sb/cfe_sb_task.c ****     CFE_SB_RoutingFileEntry_t   Entry;
 748:/home/simulink/cFS_FreeRTOS_seL4/cfe/fsw/cfe-core/src/sb/cfe_sb_task.c ****     CFE_FS_Header_t             FileHdr;
 749:/home/simulink/cFS_FreeRTOS_seL4/cfe/fsw/cfe-core/src/sb/cfe_sb_task.c ****     CFE_SB_PipeD_t              *pd; 
 750:/home/simulink/cFS_FreeRTOS_seL4/cfe/fsw/cfe-core/src/sb/cfe_sb_task.c ****     CFE_SB_DestinationD_t       *DestPtr;
 751:/home/simulink/cFS_FreeRTOS_seL4/cfe/fsw/cfe-core/src/sb/cfe_sb_task.c **** 
 752:/home/simulink/cFS_FreeRTOS_seL4/cfe/fsw/cfe-core/src/sb/cfe_sb_task.c ****     fd = OS_creat(Filename, OS_WRITE_ONLY);
 1404               	.loc 1 752 0
 1405 0a7a 4878 0001 	pea 1.w
 1406               	.cfi_def_cfa_offset 152
 1407 0a7e 2F2F 0098 	move.l 152(%sp),-(%sp)
 1408               	.cfi_def_cfa_offset 156
 1409 0a82 4EB9 0000 	jsr OS_creat
 1409      0000 
 1410 0a88 508F      	addq.l #8,%sp
 1411               	.cfi_def_cfa_offset 148
 1412 0a8a 2F40 0078 	move.l %d0,120(%sp)
 753:/home/simulink/cFS_FreeRTOS_seL4/cfe/fsw/cfe-core/src/sb/cfe_sb_task.c ****     if(fd < OS_FS_SUCCESS){
 1413               	.loc 1 753 0
 1414 0a8e 4AAF 0078 	tst.l 120(%sp)
 1415 0a92 6C28      	jge .L55
 754:/home/simulink/cFS_FreeRTOS_seL4/cfe/fsw/cfe-core/src/sb/cfe_sb_task.c ****         CFE_EVS_SendEvent(CFE_SB_SND_RTG_ERR1_EID,CFE_EVS_ERROR,
 1416               	.loc 1 754 0
 1417 0a94 202F 0078 	move.l 120(%sp),%d0
 1418 0a98 2F00      	move.l %d0,-(%sp)
 1419               	.cfi_def_cfa_offset 152
 1420 0a9a 2F2F 0098 	move.l 152(%sp),-(%sp)
 1421               	.cfi_def_cfa_offset 156
 1422 0a9e 4879 0000 	pea .LC27
68K GAS   			page 45


 1422      0000 
 1423               	.cfi_def_cfa_offset 160
 1424 0aa4 4878 0003 	pea 3.w
 1425               	.cfi_def_cfa_offset 164
 1426 0aa8 4878 0028 	pea 40.w
 1427               	.cfi_def_cfa_offset 168
 1428 0aac 4EB9 0000 	jsr CFE_EVS_SendEvent
 1428      0000 
 1429 0ab2 4FEF 0014 	lea (20,%sp),%sp
 1430               	.cfi_def_cfa_offset 148
 755:/home/simulink/cFS_FreeRTOS_seL4/cfe/fsw/cfe-core/src/sb/cfe_sb_task.c ****                       "Error creating file %s, stat=0x%x",
 756:/home/simulink/cFS_FreeRTOS_seL4/cfe/fsw/cfe-core/src/sb/cfe_sb_task.c ****                       Filename,(unsigned int)fd);
 757:/home/simulink/cFS_FreeRTOS_seL4/cfe/fsw/cfe-core/src/sb/cfe_sb_task.c ****         return CFE_SB_FILE_IO_ERR;
 1431               	.loc 1 757 0
 1432 0ab6 70FB      	moveq #-5,%d0
 1433 0ab8 6000 0240 	jra .L66
 1434               	.L55:
 758:/home/simulink/cFS_FreeRTOS_seL4/cfe/fsw/cfe-core/src/sb/cfe_sb_task.c ****     }/* end if */
 759:/home/simulink/cFS_FreeRTOS_seL4/cfe/fsw/cfe-core/src/sb/cfe_sb_task.c **** 
 760:/home/simulink/cFS_FreeRTOS_seL4/cfe/fsw/cfe-core/src/sb/cfe_sb_task.c ****     /* clear out the cfe file header fields, then populate description and subtype */
 761:/home/simulink/cFS_FreeRTOS_seL4/cfe/fsw/cfe-core/src/sb/cfe_sb_task.c ****     CFE_FS_InitHeader(&FileHdr, "SB Routing Information", CFE_FS_SB_ROUTEDATA_SUBTYPE);
 1435               	.loc 1 761 0
 1436 0abc 4878 0015 	pea 21.w
 1437               	.cfi_def_cfa_offset 152
 1438 0ac0 4879 0000 	pea .LC28
 1438      0000 
 1439               	.cfi_def_cfa_offset 156
 1440 0ac6 200F      	move.l %sp,%d0
 1441 0ac8 5080      	addq.l #8,%d0
 1442 0aca 2F00      	move.l %d0,-(%sp)
 1443               	.cfi_def_cfa_offset 160
 1444 0acc 4EB9 0000 	jsr CFE_FS_InitHeader
 1444      0000 
 1445 0ad2 4FEF 000C 	lea (12,%sp),%sp
 1446               	.cfi_def_cfa_offset 148
 762:/home/simulink/cFS_FreeRTOS_seL4/cfe/fsw/cfe-core/src/sb/cfe_sb_task.c **** 
 763:/home/simulink/cFS_FreeRTOS_seL4/cfe/fsw/cfe-core/src/sb/cfe_sb_task.c ****     WriteStat = CFE_FS_WriteHeader(fd, &FileHdr);
 1447               	.loc 1 763 0
 1448 0ad6 200F      	move.l %sp,%d0
 1449 0ad8 2F00      	move.l %d0,-(%sp)
 1450               	.cfi_def_cfa_offset 152
 1451 0ada 2F2F 007C 	move.l 124(%sp),-(%sp)
 1452               	.cfi_def_cfa_offset 156
 1453 0ade 4EB9 0000 	jsr CFE_FS_WriteHeader
 1453      0000 
 1454 0ae4 508F      	addq.l #8,%sp
 1455               	.cfi_def_cfa_offset 148
 1456 0ae6 2F40 0074 	move.l %d0,116(%sp)
 764:/home/simulink/cFS_FreeRTOS_seL4/cfe/fsw/cfe-core/src/sb/cfe_sb_task.c ****     if(WriteStat != sizeof(CFE_FS_Header_t)){
 1457               	.loc 1 764 0
 1458 0aea 7240      	moveq #64,%d1
 1459 0aec B2AF 0074 	cmp.l 116(%sp),%d1
 1460 0af0 672A      	jeq .L57
 765:/home/simulink/cFS_FreeRTOS_seL4/cfe/fsw/cfe-core/src/sb/cfe_sb_task.c ****         CFE_SB_FileWriteByteCntErr(Filename,sizeof(CFE_FS_Header_t),WriteStat);
 1461               	.loc 1 765 0
 1462 0af2 202F 0074 	move.l 116(%sp),%d0
 1463 0af6 2F00      	move.l %d0,-(%sp)
68K GAS   			page 46


 1464               	.cfi_def_cfa_offset 152
 1465 0af8 4878 0040 	pea 64.w
 1466               	.cfi_def_cfa_offset 156
 1467 0afc 2F2F 009C 	move.l 156(%sp),-(%sp)
 1468               	.cfi_def_cfa_offset 160
 1469 0b00 4EB9 0000 	jsr CFE_SB_FileWriteByteCntErr
 1469      0000 
 1470 0b06 4FEF 000C 	lea (12,%sp),%sp
 1471               	.cfi_def_cfa_offset 148
 766:/home/simulink/cFS_FreeRTOS_seL4/cfe/fsw/cfe-core/src/sb/cfe_sb_task.c ****         OS_close(fd);
 1472               	.loc 1 766 0
 1473 0b0a 2F2F 0078 	move.l 120(%sp),-(%sp)
 1474               	.cfi_def_cfa_offset 152
 1475 0b0e 4EB9 0000 	jsr OS_close
 1475      0000 
 1476 0b14 588F      	addq.l #4,%sp
 1477               	.cfi_def_cfa_offset 148
 767:/home/simulink/cFS_FreeRTOS_seL4/cfe/fsw/cfe-core/src/sb/cfe_sb_task.c ****         return CFE_SB_FILE_IO_ERR;
 1478               	.loc 1 767 0
 1479 0b16 70FB      	moveq #-5,%d0
 1480 0b18 6000 01E0 	jra .L66
 1481               	.L57:
 768:/home/simulink/cFS_FreeRTOS_seL4/cfe/fsw/cfe-core/src/sb/cfe_sb_task.c ****     }/* end if */
 769:/home/simulink/cFS_FreeRTOS_seL4/cfe/fsw/cfe-core/src/sb/cfe_sb_task.c **** 
 770:/home/simulink/cFS_FreeRTOS_seL4/cfe/fsw/cfe-core/src/sb/cfe_sb_task.c ****     FileSize = WriteStat;
 1482               	.loc 1 770 0
 1483 0b1c 2F6F 0074 	move.l 116(%sp),136(%sp)
 1483      0088 
 771:/home/simulink/cFS_FreeRTOS_seL4/cfe/fsw/cfe-core/src/sb/cfe_sb_task.c **** 
 772:/home/simulink/cFS_FreeRTOS_seL4/cfe/fsw/cfe-core/src/sb/cfe_sb_task.c ****     /* loop through the entire MsgMap */
 773:/home/simulink/cFS_FreeRTOS_seL4/cfe/fsw/cfe-core/src/sb/cfe_sb_task.c ****     for(i=0;i<CFE_SB_HIGHEST_VALID_MSGID;i++){
 1484               	.loc 1 773 0
 1485 0b22 4240      	clr.w %d0
 1486 0b24 3F40 008E 	move.w %d0,142(%sp)
 1487 0b28 6000 018A 	jra .L58
 1488               	.L65:
 774:/home/simulink/cFS_FreeRTOS_seL4/cfe/fsw/cfe-core/src/sb/cfe_sb_task.c **** 
 775:/home/simulink/cFS_FreeRTOS_seL4/cfe/fsw/cfe-core/src/sb/cfe_sb_task.c ****         RtgTblIdx = CFE_SB.MsgMap[i];
 1489               	.loc 1 775 0
 1490 0b2c 4280      	clr.l %d0
 1491 0b2e 302F 008E 	move.w 142(%sp),%d0
 1492 0b32 0680 0004 	add.l #264712,%d0
 1492      0A08 
 1493 0b38 D080      	add.l %d0,%d0
 1494 0b3a 41F9 0000 	lea CFE_SB,%a0
 1494      0000 
 1495 0b40 43F0 0800 	lea (%a0,%d0.l),%a1
 1496 0b44 3F51 007E 	move.w (%a1),126(%sp)
 776:/home/simulink/cFS_FreeRTOS_seL4/cfe/fsw/cfe-core/src/sb/cfe_sb_task.c **** 
 777:/home/simulink/cFS_FreeRTOS_seL4/cfe/fsw/cfe-core/src/sb/cfe_sb_task.c ****         /* Only process table entry if it is used. */
 778:/home/simulink/cFS_FreeRTOS_seL4/cfe/fsw/cfe-core/src/sb/cfe_sb_task.c ****         if(RtgTblIdx == CFE_SB_AVAILABLE){
 1497               	.loc 1 778 0
 1498 0b48 4280      	clr.l %d0
 1499 0b4a 302F 007E 	move.w 126(%sp),%d0
 1500 0b4e 0C80 0000 	cmp.l #65535,%d0
 1500      FFFF 
 1501 0b54 6608      	jne .L59
68K GAS   			page 47


 779:/home/simulink/cFS_FreeRTOS_seL4/cfe/fsw/cfe-core/src/sb/cfe_sb_task.c ****             DestPtr = NULL;
 1502               	.loc 1 779 0
 1503 0b56 42AF 0080 	clr.l 128(%sp)
 1504 0b5a 6000 0146 	jra .L61
 1505               	.L59:
 780:/home/simulink/cFS_FreeRTOS_seL4/cfe/fsw/cfe-core/src/sb/cfe_sb_task.c ****         } else {
 781:/home/simulink/cFS_FreeRTOS_seL4/cfe/fsw/cfe-core/src/sb/cfe_sb_task.c ****             DestPtr = CFE_SB.RoutingTbl[RtgTblIdx].ListHeadPtr;
 1506               	.loc 1 781 0
 1507 0b5e 4280      	clr.l %d0
 1508 0b60 302F 007E 	move.w 126(%sp),%d0
 1509 0b64 720C      	moveq #12,%d1
 1510 0b66 4C01 0800 	muls.l %d1,%d0
 1511 0b6a 41F9 0000 	lea CFE_SB+545816,%a0
 1511      0000 
 1512 0b70 43F0 0800 	lea (%a0,%d0.l),%a1
 1513 0b74 2F51 0080 	move.l (%a1),128(%sp)
 782:/home/simulink/cFS_FreeRTOS_seL4/cfe/fsw/cfe-core/src/sb/cfe_sb_task.c ****         }
 783:/home/simulink/cFS_FreeRTOS_seL4/cfe/fsw/cfe-core/src/sb/cfe_sb_task.c **** 
 784:/home/simulink/cFS_FreeRTOS_seL4/cfe/fsw/cfe-core/src/sb/cfe_sb_task.c ****         while(DestPtr != NULL){
 1514               	.loc 1 784 0
 1515 0b78 6000 0128 	jra .L61
 1516               	.L64:
 785:/home/simulink/cFS_FreeRTOS_seL4/cfe/fsw/cfe-core/src/sb/cfe_sb_task.c **** 
 786:/home/simulink/cFS_FreeRTOS_seL4/cfe/fsw/cfe-core/src/sb/cfe_sb_task.c ****             pd = CFE_SB_GetPipePtr(DestPtr -> PipeId);
 1517               	.loc 1 786 0
 1518 0b7c 206F 0080 	move.l 128(%sp),%a0
 1519 0b80 1010      	move.b (%a0),%d0
 1520 0b82 1000      	move.b %d0,%d0
 1521 0b84 0280 0000 	and.l #255,%d0
 1521      00FF 
 1522 0b8a 2F00      	move.l %d0,-(%sp)
 1523               	.cfi_def_cfa_offset 152
 1524 0b8c 4EB9 0000 	jsr CFE_SB_GetPipePtr
 1524      0000 
 1525 0b92 588F      	addq.l #4,%sp
 1526               	.cfi_def_cfa_offset 148
 1527 0b94 2F40 0070 	move.l %d0,112(%sp)
 787:/home/simulink/cFS_FreeRTOS_seL4/cfe/fsw/cfe-core/src/sb/cfe_sb_task.c ****             /* If invalid id, continue on to next entry */
 788:/home/simulink/cFS_FreeRTOS_seL4/cfe/fsw/cfe-core/src/sb/cfe_sb_task.c ****             if (pd != NULL) {
 1528               	.loc 1 788 0
 1529 0b98 4AAF 0070 	tst.l 112(%sp)
 1530 0b9c 6700 00FA 	jeq .L62
 789:/home/simulink/cFS_FreeRTOS_seL4/cfe/fsw/cfe-core/src/sb/cfe_sb_task.c ****             
 790:/home/simulink/cFS_FreeRTOS_seL4/cfe/fsw/cfe-core/src/sb/cfe_sb_task.c ****                 Entry.MsgId     = CFE_SB.RoutingTbl[RtgTblIdx].MsgId;
 1531               	.loc 1 790 0
 1532 0ba0 4280      	clr.l %d0
 1533 0ba2 302F 007E 	move.w 126(%sp),%d0
 1534 0ba6 720C      	moveq #12,%d1
 1535 0ba8 4C01 0800 	muls.l %d1,%d0
 1536 0bac 41F9 0000 	lea CFE_SB+545808,%a0
 1536      0000 
 1537 0bb2 3030 0800 	move.w (%a0,%d0.l),%d0
 1538 0bb6 3F40 0042 	move.w %d0,66(%sp)
 791:/home/simulink/cFS_FreeRTOS_seL4/cfe/fsw/cfe-core/src/sb/cfe_sb_task.c ****                 Entry.PipeId    = DestPtr -> PipeId;
 1539               	.loc 1 791 0
 1540 0bba 206F 0080 	move.l 128(%sp),%a0
 1541 0bbe 1010      	move.b (%a0),%d0
68K GAS   			page 48


 1542 0bc0 1F40 0044 	move.b %d0,68(%sp)
 792:/home/simulink/cFS_FreeRTOS_seL4/cfe/fsw/cfe-core/src/sb/cfe_sb_task.c ****                 Entry.State     = DestPtr -> Active;
 1543               	.loc 1 792 0
 1544 0bc4 206F 0080 	move.l 128(%sp),%a0
 1545 0bc8 1028 0001 	move.b 1(%a0),%d0
 1546 0bcc 1F40 0045 	move.b %d0,69(%sp)
 793:/home/simulink/cFS_FreeRTOS_seL4/cfe/fsw/cfe-core/src/sb/cfe_sb_task.c ****                 Entry.MsgCnt    = DestPtr -> DestCnt;               
 1547               	.loc 1 793 0
 1548 0bd0 206F 0080 	move.l 128(%sp),%a0
 1549 0bd4 3028 0006 	move.w 6(%a0),%d0
 1550 0bd8 3F40 0046 	move.w %d0,70(%sp)
 794:/home/simulink/cFS_FreeRTOS_seL4/cfe/fsw/cfe-core/src/sb/cfe_sb_task.c ****             
 795:/home/simulink/cFS_FreeRTOS_seL4/cfe/fsw/cfe-core/src/sb/cfe_sb_task.c ****                 Entry.AppName[0] = 0;
 1551               	.loc 1 795 0
 1552 0bdc 4200      	clr.b %d0
 1553 0bde 1F40 0048 	move.b %d0,72(%sp)
 796:/home/simulink/cFS_FreeRTOS_seL4/cfe/fsw/cfe-core/src/sb/cfe_sb_task.c ****                 /* 
 797:/home/simulink/cFS_FreeRTOS_seL4/cfe/fsw/cfe-core/src/sb/cfe_sb_task.c ****                  * NOTE: as long as CFE_ES_GetAppName() returns success, then it 
 798:/home/simulink/cFS_FreeRTOS_seL4/cfe/fsw/cfe-core/src/sb/cfe_sb_task.c ****                  * guarantees null termination of the output.  Return code is not
 799:/home/simulink/cFS_FreeRTOS_seL4/cfe/fsw/cfe-core/src/sb/cfe_sb_task.c ****                  * checked here (bad) but in case of error it does not seem to touch
 800:/home/simulink/cFS_FreeRTOS_seL4/cfe/fsw/cfe-core/src/sb/cfe_sb_task.c ****                  * the buffer, therefore the initialization above will protect for now 
 801:/home/simulink/cFS_FreeRTOS_seL4/cfe/fsw/cfe-core/src/sb/cfe_sb_task.c ****                  */
 802:/home/simulink/cFS_FreeRTOS_seL4/cfe/fsw/cfe-core/src/sb/cfe_sb_task.c ****                 CFE_ES_GetAppName(&Entry.AppName[0], pd->AppId, sizeof(Entry.AppName));
 1554               	.loc 1 802 0
 1555 0be2 206F 0070 	move.l 112(%sp),%a0
 1556 0be6 2028 002C 	move.l 44(%a0),%d0
 1557 0bea 4878 0014 	pea 20.w
 1558               	.cfi_def_cfa_offset 152
 1559 0bee 2F00      	move.l %d0,-(%sp)
 1560               	.cfi_def_cfa_offset 156
 1561 0bf0 200F      	move.l %sp,%d0
 1562 0bf2 0680 0000 	add.l #74,%d0
 1562      004A 
 1563 0bf8 5C80      	addq.l #6,%d0
 1564 0bfa 2F00      	move.l %d0,-(%sp)
 1565               	.cfi_def_cfa_offset 160
 1566 0bfc 4EB9 0000 	jsr CFE_ES_GetAppName
 1566      0000 
 1567 0c02 4FEF 000C 	lea (12,%sp),%sp
 1568               	.cfi_def_cfa_offset 148
 803:/home/simulink/cFS_FreeRTOS_seL4/cfe/fsw/cfe-core/src/sb/cfe_sb_task.c ****                 strncpy(&Entry.PipeName[0],CFE_SB_GetPipeName(Entry.PipeId),sizeof(Entry.PipeName))
 1569               	.loc 1 803 0
 1570 0c06 102F 0044 	move.b 68(%sp),%d0
 1571 0c0a 1000      	move.b %d0,%d0
 1572 0c0c 0280 0000 	and.l #255,%d0
 1572      00FF 
 1573 0c12 2F00      	move.l %d0,-(%sp)
 1574               	.cfi_def_cfa_offset 152
 1575 0c14 4EB9 0000 	jsr CFE_SB_GetPipeName
 1575      0000 
 1576 0c1a 588F      	addq.l #4,%sp
 1577               	.cfi_def_cfa_offset 148
 1578 0c1c 4878 0014 	pea 20.w
 1579               	.cfi_def_cfa_offset 152
 1580 0c20 2F00      	move.l %d0,-(%sp)
 1581               	.cfi_def_cfa_offset 156
 1582 0c22 200F      	move.l %sp,%d0
68K GAS   			page 49


 1583 0c24 0680 0000 	add.l #74,%d0
 1583      004A 
 1584 0c2a 0680 0000 	add.l #26,%d0
 1584      001A 
 1585 0c30 2F00      	move.l %d0,-(%sp)
 1586               	.cfi_def_cfa_offset 160
 1587 0c32 4EB9 0000 	jsr strncpy
 1587      0000 
 1588 0c38 4FEF 000C 	lea (12,%sp),%sp
 1589               	.cfi_def_cfa_offset 148
 804:/home/simulink/cFS_FreeRTOS_seL4/cfe/fsw/cfe-core/src/sb/cfe_sb_task.c **** 
 805:/home/simulink/cFS_FreeRTOS_seL4/cfe/fsw/cfe-core/src/sb/cfe_sb_task.c ****                 WriteStat = OS_write (fd, &Entry, sizeof(CFE_SB_RoutingFileEntry_t));
 1590               	.loc 1 805 0
 1591 0c3c 4878 002E 	pea 46.w
 1592               	.cfi_def_cfa_offset 152
 1593 0c40 200F      	move.l %sp,%d0
 1594 0c42 0680 0000 	add.l #70,%d0
 1594      0046 
 1595 0c48 2F00      	move.l %d0,-(%sp)
 1596               	.cfi_def_cfa_offset 156
 1597 0c4a 2F2F 0080 	move.l 128(%sp),-(%sp)
 1598               	.cfi_def_cfa_offset 160
 1599 0c4e 4EB9 0000 	jsr OS_write
 1599      0000 
 1600 0c54 4FEF 000C 	lea (12,%sp),%sp
 1601               	.cfi_def_cfa_offset 148
 1602 0c58 2F40 0074 	move.l %d0,116(%sp)
 806:/home/simulink/cFS_FreeRTOS_seL4/cfe/fsw/cfe-core/src/sb/cfe_sb_task.c ****                 if(WriteStat != sizeof(CFE_SB_RoutingFileEntry_t)){
 1603               	.loc 1 806 0
 1604 0c5c 722E      	moveq #46,%d1
 1605 0c5e B2AF 0074 	cmp.l 116(%sp),%d1
 1606 0c62 6728      	jeq .L63
 807:/home/simulink/cFS_FreeRTOS_seL4/cfe/fsw/cfe-core/src/sb/cfe_sb_task.c ****                     CFE_SB_FileWriteByteCntErr(Filename,
 1607               	.loc 1 807 0
 1608 0c64 202F 0074 	move.l 116(%sp),%d0
 1609 0c68 2F00      	move.l %d0,-(%sp)
 1610               	.cfi_def_cfa_offset 152
 1611 0c6a 4878 002E 	pea 46.w
 1612               	.cfi_def_cfa_offset 156
 1613 0c6e 2F2F 009C 	move.l 156(%sp),-(%sp)
 1614               	.cfi_def_cfa_offset 160
 1615 0c72 4EB9 0000 	jsr CFE_SB_FileWriteByteCntErr
 1615      0000 
 1616 0c78 4FEF 000C 	lea (12,%sp),%sp
 1617               	.cfi_def_cfa_offset 148
 808:/home/simulink/cFS_FreeRTOS_seL4/cfe/fsw/cfe-core/src/sb/cfe_sb_task.c ****                                            sizeof(CFE_SB_RoutingFileEntry_t),
 809:/home/simulink/cFS_FreeRTOS_seL4/cfe/fsw/cfe-core/src/sb/cfe_sb_task.c ****                                            WriteStat);
 810:/home/simulink/cFS_FreeRTOS_seL4/cfe/fsw/cfe-core/src/sb/cfe_sb_task.c ****                     OS_close(fd);
 1618               	.loc 1 810 0
 1619 0c7c 2F2F 0078 	move.l 120(%sp),-(%sp)
 1620               	.cfi_def_cfa_offset 152
 1621 0c80 4EB9 0000 	jsr OS_close
 1621      0000 
 1622 0c86 588F      	addq.l #4,%sp
 1623               	.cfi_def_cfa_offset 148
 811:/home/simulink/cFS_FreeRTOS_seL4/cfe/fsw/cfe-core/src/sb/cfe_sb_task.c ****                     return CFE_SB_FILE_IO_ERR;
 1624               	.loc 1 811 0
68K GAS   			page 50


 1625 0c88 70FB      	moveq #-5,%d0
 1626 0c8a 606E      	jra .L66
 1627               	.L63:
 812:/home/simulink/cFS_FreeRTOS_seL4/cfe/fsw/cfe-core/src/sb/cfe_sb_task.c ****                 }/* end if */
 813:/home/simulink/cFS_FreeRTOS_seL4/cfe/fsw/cfe-core/src/sb/cfe_sb_task.c **** 
 814:/home/simulink/cFS_FreeRTOS_seL4/cfe/fsw/cfe-core/src/sb/cfe_sb_task.c ****                 FileSize += WriteStat;
 1628               	.loc 1 814 0
 1629 0c8c 202F 0074 	move.l 116(%sp),%d0
 1630 0c90 D1AF 0088 	add.l %d0,136(%sp)
 815:/home/simulink/cFS_FreeRTOS_seL4/cfe/fsw/cfe-core/src/sb/cfe_sb_task.c ****                 EntryCount ++;
 1631               	.loc 1 815 0
 1632 0c94 52AF 0084 	addq.l #1,132(%sp)
 1633               	.L62:
 816:/home/simulink/cFS_FreeRTOS_seL4/cfe/fsw/cfe-core/src/sb/cfe_sb_task.c ****             }
 817:/home/simulink/cFS_FreeRTOS_seL4/cfe/fsw/cfe-core/src/sb/cfe_sb_task.c ****             
 818:/home/simulink/cFS_FreeRTOS_seL4/cfe/fsw/cfe-core/src/sb/cfe_sb_task.c ****             DestPtr = DestPtr->Next;
 1634               	.loc 1 818 0
 1635 0c98 206F 0080 	move.l 128(%sp),%a0
 1636 0c9c 2F68 0010 	move.l 16(%a0),128(%sp)
 1636      0080 
 1637               	.L61:
 784:/home/simulink/cFS_FreeRTOS_seL4/cfe/fsw/cfe-core/src/sb/cfe_sb_task.c **** 
 1638               	.loc 1 784 0
 1639 0ca2 4AAF 0080 	tst.l 128(%sp)
 1640 0ca6 6600 FED4 	jne .L64
 773:/home/simulink/cFS_FreeRTOS_seL4/cfe/fsw/cfe-core/src/sb/cfe_sb_task.c **** 
 1641               	.loc 1 773 0 discriminator 2
 1642 0caa 302F 008E 	move.w 142(%sp),%d0
 1643 0cae 5280      	addq.l #1,%d0
 1644 0cb0 3F40 008E 	move.w %d0,142(%sp)
 1645               	.L58:
 773:/home/simulink/cFS_FreeRTOS_seL4/cfe/fsw/cfe-core/src/sb/cfe_sb_task.c **** 
 1646               	.loc 1 773 0 is_stmt 0 discriminator 1
 1647 0cb4 4280      	clr.l %d0
 1648 0cb6 302F 008E 	move.w 142(%sp),%d0
 1649 0cba 0C80 0000 	cmp.l #8190,%d0
 1649      1FFE 
 1650 0cc0 6300 FE6A 	jls .L65
 819:/home/simulink/cFS_FreeRTOS_seL4/cfe/fsw/cfe-core/src/sb/cfe_sb_task.c **** 
 820:/home/simulink/cFS_FreeRTOS_seL4/cfe/fsw/cfe-core/src/sb/cfe_sb_task.c ****         }/* end while */
 821:/home/simulink/cFS_FreeRTOS_seL4/cfe/fsw/cfe-core/src/sb/cfe_sb_task.c **** 
 822:/home/simulink/cFS_FreeRTOS_seL4/cfe/fsw/cfe-core/src/sb/cfe_sb_task.c ****     }/* end for */
 823:/home/simulink/cFS_FreeRTOS_seL4/cfe/fsw/cfe-core/src/sb/cfe_sb_task.c **** 
 824:/home/simulink/cFS_FreeRTOS_seL4/cfe/fsw/cfe-core/src/sb/cfe_sb_task.c ****     OS_close(fd);
 1651               	.loc 1 824 0 is_stmt 1
 1652 0cc4 2F2F 0078 	move.l 120(%sp),-(%sp)
 1653               	.cfi_def_cfa_offset 152
 1654 0cc8 4EB9 0000 	jsr OS_close
 1654      0000 
 1655 0cce 588F      	addq.l #4,%sp
 1656               	.cfi_def_cfa_offset 148
 825:/home/simulink/cFS_FreeRTOS_seL4/cfe/fsw/cfe-core/src/sb/cfe_sb_task.c **** 
 826:/home/simulink/cFS_FreeRTOS_seL4/cfe/fsw/cfe-core/src/sb/cfe_sb_task.c ****     CFE_EVS_SendEvent(CFE_SB_SND_RTG_EID,CFE_EVS_DEBUG,
 1657               	.loc 1 826 0
 1658 0cd0 222F 0084 	move.l 132(%sp),%d1
 1659 0cd4 202F 0088 	move.l 136(%sp),%d0
 1660 0cd8 2F01      	move.l %d1,-(%sp)
68K GAS   			page 51


 1661               	.cfi_def_cfa_offset 152
 1662 0cda 2F00      	move.l %d0,-(%sp)
 1663               	.cfi_def_cfa_offset 156
 1664 0cdc 2F2F 009C 	move.l 156(%sp),-(%sp)
 1665               	.cfi_def_cfa_offset 160
 1666 0ce0 4879 0000 	pea .LC29
 1666      0000 
 1667               	.cfi_def_cfa_offset 164
 1668 0ce6 4878 0001 	pea 1.w
 1669               	.cfi_def_cfa_offset 168
 1670 0cea 4878 0027 	pea 39.w
 1671               	.cfi_def_cfa_offset 172
 1672 0cee 4EB9 0000 	jsr CFE_EVS_SendEvent
 1672      0000 
 1673 0cf4 4FEF 0018 	lea (24,%sp),%sp
 1674               	.cfi_def_cfa_offset 148
 827:/home/simulink/cFS_FreeRTOS_seL4/cfe/fsw/cfe-core/src/sb/cfe_sb_task.c ****                       "%s written:Size=%d,Entries=%d",
 828:/home/simulink/cFS_FreeRTOS_seL4/cfe/fsw/cfe-core/src/sb/cfe_sb_task.c ****                       Filename,(int)FileSize,(int)EntryCount);
 829:/home/simulink/cFS_FreeRTOS_seL4/cfe/fsw/cfe-core/src/sb/cfe_sb_task.c **** 
 830:/home/simulink/cFS_FreeRTOS_seL4/cfe/fsw/cfe-core/src/sb/cfe_sb_task.c ****     return CFE_SUCCESS;
 1675               	.loc 1 830 0
 1676 0cf8 4280      	clr.l %d0
 1677               	.L66:
 831:/home/simulink/cFS_FreeRTOS_seL4/cfe/fsw/cfe-core/src/sb/cfe_sb_task.c **** 
 832:/home/simulink/cFS_FreeRTOS_seL4/cfe/fsw/cfe-core/src/sb/cfe_sb_task.c **** }/* end CFE_SB_SendRtgInfo */
 1678               	.loc 1 832 0 discriminator 1
 1679 0cfa 4FEF 0090 	lea (144,%sp),%sp
 1680 0cfe 4E75      	rts
 1681               	.cfi_endproc
 1682               	.LFE70:
 1683               	.sizeCFE_SB_SendRtgInfo, .-CFE_SB_SendRtgInfo
 1684               	.section.rodata
 1685               	.LC30:
 1686 0443 5342 2050 	.string"SB Pipe Information"
 1686      6970 6520 
 1686      496E 666F 
 1686      726D 6174 
 1686      696F 6E00 
 1687               	.text
 1688               	.align2
 1689               	.globlCFE_SB_SendPipeInfo
 1690               	.typeCFE_SB_SendPipeInfo, @function
 1691               	CFE_SB_SendPipeInfo:
 1692               	.LFB71:
 833:/home/simulink/cFS_FreeRTOS_seL4/cfe/fsw/cfe-core/src/sb/cfe_sb_task.c **** 
 834:/home/simulink/cFS_FreeRTOS_seL4/cfe/fsw/cfe-core/src/sb/cfe_sb_task.c **** 
 835:/home/simulink/cFS_FreeRTOS_seL4/cfe/fsw/cfe-core/src/sb/cfe_sb_task.c **** /******************************************************************************
 836:/home/simulink/cFS_FreeRTOS_seL4/cfe/fsw/cfe-core/src/sb/cfe_sb_task.c **** **  Function:  CFE_SB_SendPipeInfo()
 837:/home/simulink/cFS_FreeRTOS_seL4/cfe/fsw/cfe-core/src/sb/cfe_sb_task.c **** **
 838:/home/simulink/cFS_FreeRTOS_seL4/cfe/fsw/cfe-core/src/sb/cfe_sb_task.c **** **  Purpose:
 839:/home/simulink/cFS_FreeRTOS_seL4/cfe/fsw/cfe-core/src/sb/cfe_sb_task.c **** **    SB internal function to write the Pipe table to a file
 840:/home/simulink/cFS_FreeRTOS_seL4/cfe/fsw/cfe-core/src/sb/cfe_sb_task.c **** **
 841:/home/simulink/cFS_FreeRTOS_seL4/cfe/fsw/cfe-core/src/sb/cfe_sb_task.c **** **  Arguments:
 842:/home/simulink/cFS_FreeRTOS_seL4/cfe/fsw/cfe-core/src/sb/cfe_sb_task.c **** **    Pointer to a filename
 843:/home/simulink/cFS_FreeRTOS_seL4/cfe/fsw/cfe-core/src/sb/cfe_sb_task.c **** **
 844:/home/simulink/cFS_FreeRTOS_seL4/cfe/fsw/cfe-core/src/sb/cfe_sb_task.c **** **  Return:
 845:/home/simulink/cFS_FreeRTOS_seL4/cfe/fsw/cfe-core/src/sb/cfe_sb_task.c **** **    CFE_SB_FILE_IO_ERR for file I/O errors or CFE_SUCCESS
68K GAS   			page 52


 846:/home/simulink/cFS_FreeRTOS_seL4/cfe/fsw/cfe-core/src/sb/cfe_sb_task.c **** */
 847:/home/simulink/cFS_FreeRTOS_seL4/cfe/fsw/cfe-core/src/sb/cfe_sb_task.c **** int32 CFE_SB_SendPipeInfo(const char *Filename){
 1693               	.loc 1 847 0
 1694               	.cfi_startproc
 1695 0d00 4FEF FFAC 	lea (-84,%sp),%sp
 1696               	.cfi_def_cfa_offset 88
 848:/home/simulink/cFS_FreeRTOS_seL4/cfe/fsw/cfe-core/src/sb/cfe_sb_task.c **** 
 849:/home/simulink/cFS_FreeRTOS_seL4/cfe/fsw/cfe-core/src/sb/cfe_sb_task.c ****     uint16 i;
 850:/home/simulink/cFS_FreeRTOS_seL4/cfe/fsw/cfe-core/src/sb/cfe_sb_task.c ****     int32  fd = 0;
 1697               	.loc 1 850 0
 1698 0d04 42AF 0044 	clr.l 68(%sp)
 851:/home/simulink/cFS_FreeRTOS_seL4/cfe/fsw/cfe-core/src/sb/cfe_sb_task.c ****     int32  WriteStat;
 852:/home/simulink/cFS_FreeRTOS_seL4/cfe/fsw/cfe-core/src/sb/cfe_sb_task.c ****     uint32 FileSize = 0;
 1699               	.loc 1 852 0
 1700 0d08 42AF 004C 	clr.l 76(%sp)
 853:/home/simulink/cFS_FreeRTOS_seL4/cfe/fsw/cfe-core/src/sb/cfe_sb_task.c ****     uint32 EntryCount = 0;
 1701               	.loc 1 853 0
 1702 0d0c 42AF 0048 	clr.l 72(%sp)
 854:/home/simulink/cFS_FreeRTOS_seL4/cfe/fsw/cfe-core/src/sb/cfe_sb_task.c ****     CFE_FS_Header_t FileHdr;
 855:/home/simulink/cFS_FreeRTOS_seL4/cfe/fsw/cfe-core/src/sb/cfe_sb_task.c **** 
 856:/home/simulink/cFS_FreeRTOS_seL4/cfe/fsw/cfe-core/src/sb/cfe_sb_task.c ****     fd = OS_creat(Filename, OS_WRITE_ONLY);
 1703               	.loc 1 856 0
 1704 0d10 4878 0001 	pea 1.w
 1705               	.cfi_def_cfa_offset 92
 1706 0d14 2F2F 005C 	move.l 92(%sp),-(%sp)
 1707               	.cfi_def_cfa_offset 96
 1708 0d18 4EB9 0000 	jsr OS_creat
 1708      0000 
 1709 0d1e 508F      	addq.l #8,%sp
 1710               	.cfi_def_cfa_offset 88
 1711 0d20 2F40 0044 	move.l %d0,68(%sp)
 857:/home/simulink/cFS_FreeRTOS_seL4/cfe/fsw/cfe-core/src/sb/cfe_sb_task.c **** 
 858:/home/simulink/cFS_FreeRTOS_seL4/cfe/fsw/cfe-core/src/sb/cfe_sb_task.c ****     if(fd < OS_FS_SUCCESS){
 1712               	.loc 1 858 0
 1713 0d24 4AAF 0044 	tst.l 68(%sp)
 1714 0d28 6C28      	jge .L68
 859:/home/simulink/cFS_FreeRTOS_seL4/cfe/fsw/cfe-core/src/sb/cfe_sb_task.c ****         CFE_EVS_SendEvent(CFE_SB_SND_RTG_ERR1_EID,CFE_EVS_ERROR,
 1715               	.loc 1 859 0
 1716 0d2a 202F 0044 	move.l 68(%sp),%d0
 1717 0d2e 2F00      	move.l %d0,-(%sp)
 1718               	.cfi_def_cfa_offset 92
 1719 0d30 2F2F 005C 	move.l 92(%sp),-(%sp)
 1720               	.cfi_def_cfa_offset 96
 1721 0d34 4879 0000 	pea .LC27
 1721      0000 
 1722               	.cfi_def_cfa_offset 100
 1723 0d3a 4878 0003 	pea 3.w
 1724               	.cfi_def_cfa_offset 104
 1725 0d3e 4878 0028 	pea 40.w
 1726               	.cfi_def_cfa_offset 108
 1727 0d42 4EB9 0000 	jsr CFE_EVS_SendEvent
 1727      0000 
 1728 0d48 4FEF 0014 	lea (20,%sp),%sp
 1729               	.cfi_def_cfa_offset 88
 860:/home/simulink/cFS_FreeRTOS_seL4/cfe/fsw/cfe-core/src/sb/cfe_sb_task.c ****                           "Error creating file %s, stat=0x%x",
 861:/home/simulink/cFS_FreeRTOS_seL4/cfe/fsw/cfe-core/src/sb/cfe_sb_task.c ****                            Filename,(unsigned int)fd);
 862:/home/simulink/cFS_FreeRTOS_seL4/cfe/fsw/cfe-core/src/sb/cfe_sb_task.c ****         return CFE_SB_FILE_IO_ERR;
68K GAS   			page 53


 1730               	.loc 1 862 0
 1731 0d4c 70FB      	moveq #-5,%d0
 1732 0d4e 6000 0150 	jra .L75
 1733               	.L68:
 863:/home/simulink/cFS_FreeRTOS_seL4/cfe/fsw/cfe-core/src/sb/cfe_sb_task.c ****     }/* end if */
 864:/home/simulink/cFS_FreeRTOS_seL4/cfe/fsw/cfe-core/src/sb/cfe_sb_task.c **** 
 865:/home/simulink/cFS_FreeRTOS_seL4/cfe/fsw/cfe-core/src/sb/cfe_sb_task.c ****     /* clear out the cfe file header fields, then populate description and subtype */
 866:/home/simulink/cFS_FreeRTOS_seL4/cfe/fsw/cfe-core/src/sb/cfe_sb_task.c ****     CFE_FS_InitHeader(&FileHdr, "SB Pipe Information", CFE_FS_SB_PIPEDATA_SUBTYPE);
 1734               	.loc 1 866 0
 1735 0d52 4878 0014 	pea 20.w
 1736               	.cfi_def_cfa_offset 92
 1737 0d56 4879 0000 	pea .LC30
 1737      0000 
 1738               	.cfi_def_cfa_offset 96
 1739 0d5c 200F      	move.l %sp,%d0
 1740 0d5e 5080      	addq.l #8,%d0
 1741 0d60 2F00      	move.l %d0,-(%sp)
 1742               	.cfi_def_cfa_offset 100
 1743 0d62 4EB9 0000 	jsr CFE_FS_InitHeader
 1743      0000 
 1744 0d68 4FEF 000C 	lea (12,%sp),%sp
 1745               	.cfi_def_cfa_offset 88
 867:/home/simulink/cFS_FreeRTOS_seL4/cfe/fsw/cfe-core/src/sb/cfe_sb_task.c ****     
 868:/home/simulink/cFS_FreeRTOS_seL4/cfe/fsw/cfe-core/src/sb/cfe_sb_task.c ****     WriteStat = CFE_FS_WriteHeader(fd, &FileHdr);
 1746               	.loc 1 868 0
 1747 0d6c 200F      	move.l %sp,%d0
 1748 0d6e 2F00      	move.l %d0,-(%sp)
 1749               	.cfi_def_cfa_offset 92
 1750 0d70 2F2F 0048 	move.l 72(%sp),-(%sp)
 1751               	.cfi_def_cfa_offset 96
 1752 0d74 4EB9 0000 	jsr CFE_FS_WriteHeader
 1752      0000 
 1753 0d7a 508F      	addq.l #8,%sp
 1754               	.cfi_def_cfa_offset 88
 1755 0d7c 2F40 0040 	move.l %d0,64(%sp)
 869:/home/simulink/cFS_FreeRTOS_seL4/cfe/fsw/cfe-core/src/sb/cfe_sb_task.c ****     if(WriteStat != sizeof(CFE_FS_Header_t)){
 1756               	.loc 1 869 0
 1757 0d80 7040      	moveq #64,%d0
 1758 0d82 B0AF 0040 	cmp.l 64(%sp),%d0
 1759 0d86 672A      	jeq .L70
 870:/home/simulink/cFS_FreeRTOS_seL4/cfe/fsw/cfe-core/src/sb/cfe_sb_task.c ****         CFE_SB_FileWriteByteCntErr(Filename,sizeof(CFE_FS_Header_t),WriteStat);
 1760               	.loc 1 870 0
 1761 0d88 202F 0040 	move.l 64(%sp),%d0
 1762 0d8c 2F00      	move.l %d0,-(%sp)
 1763               	.cfi_def_cfa_offset 92
 1764 0d8e 4878 0040 	pea 64.w
 1765               	.cfi_def_cfa_offset 96
 1766 0d92 2F2F 0060 	move.l 96(%sp),-(%sp)
 1767               	.cfi_def_cfa_offset 100
 1768 0d96 4EB9 0000 	jsr CFE_SB_FileWriteByteCntErr
 1768      0000 
 1769 0d9c 4FEF 000C 	lea (12,%sp),%sp
 1770               	.cfi_def_cfa_offset 88
 871:/home/simulink/cFS_FreeRTOS_seL4/cfe/fsw/cfe-core/src/sb/cfe_sb_task.c ****         OS_close(fd);
 1771               	.loc 1 871 0
 1772 0da0 2F2F 0044 	move.l 68(%sp),-(%sp)
 1773               	.cfi_def_cfa_offset 92
68K GAS   			page 54


 1774 0da4 4EB9 0000 	jsr OS_close
 1774      0000 
 1775 0daa 588F      	addq.l #4,%sp
 1776               	.cfi_def_cfa_offset 88
 872:/home/simulink/cFS_FreeRTOS_seL4/cfe/fsw/cfe-core/src/sb/cfe_sb_task.c ****         return CFE_SB_FILE_IO_ERR;
 1777               	.loc 1 872 0
 1778 0dac 70FB      	moveq #-5,%d0
 1779 0dae 6000 00F0 	jra .L75
 1780               	.L70:
 873:/home/simulink/cFS_FreeRTOS_seL4/cfe/fsw/cfe-core/src/sb/cfe_sb_task.c ****     }/* end if */
 874:/home/simulink/cFS_FreeRTOS_seL4/cfe/fsw/cfe-core/src/sb/cfe_sb_task.c **** 
 875:/home/simulink/cFS_FreeRTOS_seL4/cfe/fsw/cfe-core/src/sb/cfe_sb_task.c ****     FileSize = WriteStat;
 1781               	.loc 1 875 0
 1782 0db2 2F6F 0040 	move.l 64(%sp),76(%sp)
 1782      004C 
 876:/home/simulink/cFS_FreeRTOS_seL4/cfe/fsw/cfe-core/src/sb/cfe_sb_task.c **** 
 877:/home/simulink/cFS_FreeRTOS_seL4/cfe/fsw/cfe-core/src/sb/cfe_sb_task.c ****     /* loop through the pipe table */
 878:/home/simulink/cFS_FreeRTOS_seL4/cfe/fsw/cfe-core/src/sb/cfe_sb_task.c ****     for(i=0;i<CFE_SB_MAX_PIPES;i++){
 1783               	.loc 1 878 0
 1784 0db8 4241      	clr.w %d1
 1785 0dba 3F41 0052 	move.w %d1,82(%sp)
 1786 0dbe 6000 009C 	jra .L71
 1787               	.L74:
 879:/home/simulink/cFS_FreeRTOS_seL4/cfe/fsw/cfe-core/src/sb/cfe_sb_task.c **** 
 880:/home/simulink/cFS_FreeRTOS_seL4/cfe/fsw/cfe-core/src/sb/cfe_sb_task.c ****         if(CFE_SB.PipeTbl[i].InUse==CFE_SB_IN_USE){
 1788               	.loc 1 880 0
 1789 0dc2 4280      	clr.l %d0
 1790 0dc4 302F 0052 	move.w 82(%sp),%d0
 1791 0dc8 7244      	moveq #68,%d1
 1792 0dca 4C01 0800 	muls.l %d1,%d0
 1793 0dce 41F9 0000 	lea CFE_SB+148,%a0
 1793      0000 
 1794 0dd4 1030 0800 	move.b (%a0,%d0.l),%d0
 1795 0dd8 1000      	move.b %d0,%d0
 1796 0dda 0280 0000 	and.l #255,%d0
 1796      00FF 
 1797 0de0 7201      	moveq #1,%d1
 1798 0de2 B280      	cmp.l %d0,%d1
 1799 0de4 666C      	jne .L72
 881:/home/simulink/cFS_FreeRTOS_seL4/cfe/fsw/cfe-core/src/sb/cfe_sb_task.c **** 
 882:/home/simulink/cFS_FreeRTOS_seL4/cfe/fsw/cfe-core/src/sb/cfe_sb_task.c ****             WriteStat = OS_write (fd, &(CFE_SB.PipeTbl[i]), sizeof(CFE_SB_PipeD_t));
 1800               	.loc 1 882 0
 1801 0de6 4280      	clr.l %d0
 1802 0de8 302F 0052 	move.w 82(%sp),%d0
 1803 0dec 7244      	moveq #68,%d1
 1804 0dee 4C01 0800 	muls.l %d1,%d0
 1805 0df2 0680 0000 	add.l #148,%d0
 1805      0094 
 1806 0df8 0680 0000 	add.l #CFE_SB,%d0
 1806      0000 
 1807 0dfe 4878 0044 	pea 68.w
 1808               	.cfi_def_cfa_offset 92
 1809 0e02 2F00      	move.l %d0,-(%sp)
 1810               	.cfi_def_cfa_offset 96
 1811 0e04 2F2F 004C 	move.l 76(%sp),-(%sp)
 1812               	.cfi_def_cfa_offset 100
 1813 0e08 4EB9 0000 	jsr OS_write
68K GAS   			page 55


 1813      0000 
 1814 0e0e 4FEF 000C 	lea (12,%sp),%sp
 1815               	.cfi_def_cfa_offset 88
 1816 0e12 2F40 0040 	move.l %d0,64(%sp)
 883:/home/simulink/cFS_FreeRTOS_seL4/cfe/fsw/cfe-core/src/sb/cfe_sb_task.c ****             if(WriteStat != sizeof(CFE_SB_PipeD_t)){
 1817               	.loc 1 883 0
 1818 0e16 7044      	moveq #68,%d0
 1819 0e18 B0AF 0040 	cmp.l 64(%sp),%d0
 1820 0e1c 6728      	jeq .L73
 884:/home/simulink/cFS_FreeRTOS_seL4/cfe/fsw/cfe-core/src/sb/cfe_sb_task.c ****                 CFE_SB_FileWriteByteCntErr(Filename,sizeof(CFE_SB_PipeD_t),WriteStat);
 1821               	.loc 1 884 0
 1822 0e1e 202F 0040 	move.l 64(%sp),%d0
 1823 0e22 2F00      	move.l %d0,-(%sp)
 1824               	.cfi_def_cfa_offset 92
 1825 0e24 4878 0044 	pea 68.w
 1826               	.cfi_def_cfa_offset 96
 1827 0e28 2F2F 0060 	move.l 96(%sp),-(%sp)
 1828               	.cfi_def_cfa_offset 100
 1829 0e2c 4EB9 0000 	jsr CFE_SB_FileWriteByteCntErr
 1829      0000 
 1830 0e32 4FEF 000C 	lea (12,%sp),%sp
 1831               	.cfi_def_cfa_offset 88
 885:/home/simulink/cFS_FreeRTOS_seL4/cfe/fsw/cfe-core/src/sb/cfe_sb_task.c ****                 OS_close(fd);
 1832               	.loc 1 885 0
 1833 0e36 2F2F 0044 	move.l 68(%sp),-(%sp)
 1834               	.cfi_def_cfa_offset 92
 1835 0e3a 4EB9 0000 	jsr OS_close
 1835      0000 
 1836 0e40 588F      	addq.l #4,%sp
 1837               	.cfi_def_cfa_offset 88
 886:/home/simulink/cFS_FreeRTOS_seL4/cfe/fsw/cfe-core/src/sb/cfe_sb_task.c ****                 return CFE_SB_FILE_IO_ERR;
 1838               	.loc 1 886 0
 1839 0e42 70FB      	moveq #-5,%d0
 1840 0e44 605A      	jra .L75
 1841               	.L73:
 887:/home/simulink/cFS_FreeRTOS_seL4/cfe/fsw/cfe-core/src/sb/cfe_sb_task.c ****             }/* end if */
 888:/home/simulink/cFS_FreeRTOS_seL4/cfe/fsw/cfe-core/src/sb/cfe_sb_task.c **** 
 889:/home/simulink/cFS_FreeRTOS_seL4/cfe/fsw/cfe-core/src/sb/cfe_sb_task.c ****             FileSize += WriteStat;
 1842               	.loc 1 889 0
 1843 0e46 202F 0040 	move.l 64(%sp),%d0
 1844 0e4a D1AF 004C 	add.l %d0,76(%sp)
 890:/home/simulink/cFS_FreeRTOS_seL4/cfe/fsw/cfe-core/src/sb/cfe_sb_task.c ****             EntryCount ++;
 1845               	.loc 1 890 0
 1846 0e4e 52AF 0048 	addq.l #1,72(%sp)
 1847               	.L72:
 878:/home/simulink/cFS_FreeRTOS_seL4/cfe/fsw/cfe-core/src/sb/cfe_sb_task.c **** 
 1848               	.loc 1 878 0 discriminator 2
 1849 0e52 302F 0052 	move.w 82(%sp),%d0
 1850 0e56 5280      	addq.l #1,%d0
 1851 0e58 3F40 0052 	move.w %d0,82(%sp)
 1852               	.L71:
 878:/home/simulink/cFS_FreeRTOS_seL4/cfe/fsw/cfe-core/src/sb/cfe_sb_task.c **** 
 1853               	.loc 1 878 0 is_stmt 0 discriminator 1
 1854 0e5c 4280      	clr.l %d0
 1855 0e5e 302F 0052 	move.w 82(%sp),%d0
 1856 0e62 723F      	moveq #63,%d1
 1857 0e64 B280      	cmp.l %d0,%d1
68K GAS   			page 56


 1858 0e66 6400 FF5A 	jcc .L74
 891:/home/simulink/cFS_FreeRTOS_seL4/cfe/fsw/cfe-core/src/sb/cfe_sb_task.c **** 
 892:/home/simulink/cFS_FreeRTOS_seL4/cfe/fsw/cfe-core/src/sb/cfe_sb_task.c ****         }/* end if */
 893:/home/simulink/cFS_FreeRTOS_seL4/cfe/fsw/cfe-core/src/sb/cfe_sb_task.c **** 
 894:/home/simulink/cFS_FreeRTOS_seL4/cfe/fsw/cfe-core/src/sb/cfe_sb_task.c ****     }/* end for */
 895:/home/simulink/cFS_FreeRTOS_seL4/cfe/fsw/cfe-core/src/sb/cfe_sb_task.c **** 
 896:/home/simulink/cFS_FreeRTOS_seL4/cfe/fsw/cfe-core/src/sb/cfe_sb_task.c ****     OS_close(fd);
 1859               	.loc 1 896 0 is_stmt 1
 1860 0e6a 2F2F 0044 	move.l 68(%sp),-(%sp)
 1861               	.cfi_def_cfa_offset 92
 1862 0e6e 4EB9 0000 	jsr OS_close
 1862      0000 
 1863 0e74 588F      	addq.l #4,%sp
 1864               	.cfi_def_cfa_offset 88
 897:/home/simulink/cFS_FreeRTOS_seL4/cfe/fsw/cfe-core/src/sb/cfe_sb_task.c **** 
 898:/home/simulink/cFS_FreeRTOS_seL4/cfe/fsw/cfe-core/src/sb/cfe_sb_task.c ****     CFE_EVS_SendEvent(CFE_SB_SND_RTG_EID,CFE_EVS_DEBUG,
 1865               	.loc 1 898 0
 1866 0e76 222F 0048 	move.l 72(%sp),%d1
 1867 0e7a 202F 004C 	move.l 76(%sp),%d0
 1868 0e7e 2F01      	move.l %d1,-(%sp)
 1869               	.cfi_def_cfa_offset 92
 1870 0e80 2F00      	move.l %d0,-(%sp)
 1871               	.cfi_def_cfa_offset 96
 1872 0e82 2F2F 0060 	move.l 96(%sp),-(%sp)
 1873               	.cfi_def_cfa_offset 100
 1874 0e86 4879 0000 	pea .LC29
 1874      0000 
 1875               	.cfi_def_cfa_offset 104
 1876 0e8c 4878 0001 	pea 1.w
 1877               	.cfi_def_cfa_offset 108
 1878 0e90 4878 0027 	pea 39.w
 1879               	.cfi_def_cfa_offset 112
 1880 0e94 4EB9 0000 	jsr CFE_EVS_SendEvent
 1880      0000 
 1881 0e9a 4FEF 0018 	lea (24,%sp),%sp
 1882               	.cfi_def_cfa_offset 88
 899:/home/simulink/cFS_FreeRTOS_seL4/cfe/fsw/cfe-core/src/sb/cfe_sb_task.c ****                       "%s written:Size=%d,Entries=%d",
 900:/home/simulink/cFS_FreeRTOS_seL4/cfe/fsw/cfe-core/src/sb/cfe_sb_task.c ****                        Filename,(int)FileSize,(int)EntryCount);
 901:/home/simulink/cFS_FreeRTOS_seL4/cfe/fsw/cfe-core/src/sb/cfe_sb_task.c **** 
 902:/home/simulink/cFS_FreeRTOS_seL4/cfe/fsw/cfe-core/src/sb/cfe_sb_task.c ****     return CFE_SUCCESS;
 1883               	.loc 1 902 0
 1884 0e9e 4280      	clr.l %d0
 1885               	.L75:
 903:/home/simulink/cFS_FreeRTOS_seL4/cfe/fsw/cfe-core/src/sb/cfe_sb_task.c **** 
 904:/home/simulink/cFS_FreeRTOS_seL4/cfe/fsw/cfe-core/src/sb/cfe_sb_task.c **** }/* end CFE_SB_SendPipeInfo */
 1886               	.loc 1 904 0 discriminator 1
 1887 0ea0 4FEF 0054 	lea (84,%sp),%sp
 1888 0ea4 4E75      	rts
 1889               	.cfi_endproc
 1890               	.LFE71:
 1891               	.sizeCFE_SB_SendPipeInfo, .-CFE_SB_SendPipeInfo
 1892               	.section.rodata
 1893               	.LC31:
 1894 0457 5342 204D 	.string"SB Message Map Information"
 1894      6573 7361 
 1894      6765 204D 
 1894      6170 2049 
68K GAS   			page 57


 1894      6E66 6F72 
 1895               	.text
 1896               	.align2
 1897               	.globlCFE_SB_SendMapInfo
 1898               	.typeCFE_SB_SendMapInfo, @function
 1899               	CFE_SB_SendMapInfo:
 1900               	.LFB72:
 905:/home/simulink/cFS_FreeRTOS_seL4/cfe/fsw/cfe-core/src/sb/cfe_sb_task.c **** 
 906:/home/simulink/cFS_FreeRTOS_seL4/cfe/fsw/cfe-core/src/sb/cfe_sb_task.c **** 
 907:/home/simulink/cFS_FreeRTOS_seL4/cfe/fsw/cfe-core/src/sb/cfe_sb_task.c **** /******************************************************************************
 908:/home/simulink/cFS_FreeRTOS_seL4/cfe/fsw/cfe-core/src/sb/cfe_sb_task.c **** **  Function:  CFE_SB_SendMapInfo()
 909:/home/simulink/cFS_FreeRTOS_seL4/cfe/fsw/cfe-core/src/sb/cfe_sb_task.c **** **
 910:/home/simulink/cFS_FreeRTOS_seL4/cfe/fsw/cfe-core/src/sb/cfe_sb_task.c **** **  Purpose:
 911:/home/simulink/cFS_FreeRTOS_seL4/cfe/fsw/cfe-core/src/sb/cfe_sb_task.c **** **    SB internal function to write the Message Map to a file
 912:/home/simulink/cFS_FreeRTOS_seL4/cfe/fsw/cfe-core/src/sb/cfe_sb_task.c **** **
 913:/home/simulink/cFS_FreeRTOS_seL4/cfe/fsw/cfe-core/src/sb/cfe_sb_task.c **** **  Arguments:
 914:/home/simulink/cFS_FreeRTOS_seL4/cfe/fsw/cfe-core/src/sb/cfe_sb_task.c **** **    Pointer to a filename
 915:/home/simulink/cFS_FreeRTOS_seL4/cfe/fsw/cfe-core/src/sb/cfe_sb_task.c **** **
 916:/home/simulink/cFS_FreeRTOS_seL4/cfe/fsw/cfe-core/src/sb/cfe_sb_task.c **** **  Return:
 917:/home/simulink/cFS_FreeRTOS_seL4/cfe/fsw/cfe-core/src/sb/cfe_sb_task.c **** **    CFE_SB_FILE_IO_ERR for file I/O errors or CFE_SUCCESS
 918:/home/simulink/cFS_FreeRTOS_seL4/cfe/fsw/cfe-core/src/sb/cfe_sb_task.c **** */
 919:/home/simulink/cFS_FreeRTOS_seL4/cfe/fsw/cfe-core/src/sb/cfe_sb_task.c **** int32 CFE_SB_SendMapInfo(const char *Filename){
 1901               	.loc 1 919 0
 1902               	.cfi_startproc
 1903 0ea6 4FEF FFA8 	lea (-88,%sp),%sp
 1904               	.cfi_def_cfa_offset 92
 920:/home/simulink/cFS_FreeRTOS_seL4/cfe/fsw/cfe-core/src/sb/cfe_sb_task.c **** 
 921:/home/simulink/cFS_FreeRTOS_seL4/cfe/fsw/cfe-core/src/sb/cfe_sb_task.c ****     uint16 i;
 922:/home/simulink/cFS_FreeRTOS_seL4/cfe/fsw/cfe-core/src/sb/cfe_sb_task.c ****     int32  fd = 0;
 1905               	.loc 1 922 0
 1906 0eaa 42AF 0048 	clr.l 72(%sp)
 923:/home/simulink/cFS_FreeRTOS_seL4/cfe/fsw/cfe-core/src/sb/cfe_sb_task.c ****     int32  WriteStat;
 924:/home/simulink/cFS_FreeRTOS_seL4/cfe/fsw/cfe-core/src/sb/cfe_sb_task.c ****     uint32 FileSize = 0;
 1907               	.loc 1 924 0
 1908 0eae 42AF 0050 	clr.l 80(%sp)
 925:/home/simulink/cFS_FreeRTOS_seL4/cfe/fsw/cfe-core/src/sb/cfe_sb_task.c ****     uint32 EntryCount = 0;
 1909               	.loc 1 925 0
 1910 0eb2 42AF 004C 	clr.l 76(%sp)
 926:/home/simulink/cFS_FreeRTOS_seL4/cfe/fsw/cfe-core/src/sb/cfe_sb_task.c ****     CFE_SB_MsgMapFileEntry_t Entry;
 927:/home/simulink/cFS_FreeRTOS_seL4/cfe/fsw/cfe-core/src/sb/cfe_sb_task.c ****     CFE_FS_Header_t FileHdr;
 928:/home/simulink/cFS_FreeRTOS_seL4/cfe/fsw/cfe-core/src/sb/cfe_sb_task.c **** 
 929:/home/simulink/cFS_FreeRTOS_seL4/cfe/fsw/cfe-core/src/sb/cfe_sb_task.c ****     fd = OS_creat(Filename, OS_WRITE_ONLY);
 1911               	.loc 1 929 0
 1912 0eb6 4878 0001 	pea 1.w
 1913               	.cfi_def_cfa_offset 96
 1914 0eba 2F2F 0060 	move.l 96(%sp),-(%sp)
 1915               	.cfi_def_cfa_offset 100
 1916 0ebe 4EB9 0000 	jsr OS_creat
 1916      0000 
 1917 0ec4 508F      	addq.l #8,%sp
 1918               	.cfi_def_cfa_offset 92
 1919 0ec6 2F40 0048 	move.l %d0,72(%sp)
 930:/home/simulink/cFS_FreeRTOS_seL4/cfe/fsw/cfe-core/src/sb/cfe_sb_task.c **** 
 931:/home/simulink/cFS_FreeRTOS_seL4/cfe/fsw/cfe-core/src/sb/cfe_sb_task.c ****     if (fd < OS_FS_SUCCESS){
 1920               	.loc 1 931 0
 1921 0eca 4AAF 0048 	tst.l 72(%sp)
 1922 0ece 6C28      	jge .L77
68K GAS   			page 58


 932:/home/simulink/cFS_FreeRTOS_seL4/cfe/fsw/cfe-core/src/sb/cfe_sb_task.c ****         CFE_EVS_SendEvent(CFE_SB_SND_RTG_ERR1_EID,CFE_EVS_ERROR,
 1923               	.loc 1 932 0
 1924 0ed0 202F 0048 	move.l 72(%sp),%d0
 1925 0ed4 2F00      	move.l %d0,-(%sp)
 1926               	.cfi_def_cfa_offset 96
 1927 0ed6 2F2F 0060 	move.l 96(%sp),-(%sp)
 1928               	.cfi_def_cfa_offset 100
 1929 0eda 4879 0000 	pea .LC27
 1929      0000 
 1930               	.cfi_def_cfa_offset 104
 1931 0ee0 4878 0003 	pea 3.w
 1932               	.cfi_def_cfa_offset 108
 1933 0ee4 4878 0028 	pea 40.w
 1934               	.cfi_def_cfa_offset 112
 1935 0ee8 4EB9 0000 	jsr CFE_EVS_SendEvent
 1935      0000 
 1936 0eee 4FEF 0014 	lea (20,%sp),%sp
 1937               	.cfi_def_cfa_offset 92
 933:/home/simulink/cFS_FreeRTOS_seL4/cfe/fsw/cfe-core/src/sb/cfe_sb_task.c ****                           "Error creating file %s, stat=0x%x",
 934:/home/simulink/cFS_FreeRTOS_seL4/cfe/fsw/cfe-core/src/sb/cfe_sb_task.c ****                            Filename,(unsigned int)fd);
 935:/home/simulink/cFS_FreeRTOS_seL4/cfe/fsw/cfe-core/src/sb/cfe_sb_task.c ****         return CFE_SB_FILE_IO_ERR;
 1938               	.loc 1 935 0
 1939 0ef2 70FB      	moveq #-5,%d0
 1940 0ef4 6000 0168 	jra .L84
 1941               	.L77:
 936:/home/simulink/cFS_FreeRTOS_seL4/cfe/fsw/cfe-core/src/sb/cfe_sb_task.c ****     }/* end if */
 937:/home/simulink/cFS_FreeRTOS_seL4/cfe/fsw/cfe-core/src/sb/cfe_sb_task.c **** 
 938:/home/simulink/cFS_FreeRTOS_seL4/cfe/fsw/cfe-core/src/sb/cfe_sb_task.c ****     /* clear out the cfe file header fields, then populate description and subtype */
 939:/home/simulink/cFS_FreeRTOS_seL4/cfe/fsw/cfe-core/src/sb/cfe_sb_task.c ****     CFE_FS_InitHeader(&FileHdr, "SB Message Map Information", CFE_FS_SB_MAPDATA_SUBTYPE);
 1942               	.loc 1 939 0
 1943 0ef8 4878 0016 	pea 22.w
 1944               	.cfi_def_cfa_offset 96
 1945 0efc 4879 0000 	pea .LC31
 1945      0000 
 1946               	.cfi_def_cfa_offset 100
 1947 0f02 200F      	move.l %sp,%d0
 1948 0f04 5080      	addq.l #8,%d0
 1949 0f06 2F00      	move.l %d0,-(%sp)
 1950               	.cfi_def_cfa_offset 104
 1951 0f08 4EB9 0000 	jsr CFE_FS_InitHeader
 1951      0000 
 1952 0f0e 4FEF 000C 	lea (12,%sp),%sp
 1953               	.cfi_def_cfa_offset 92
 940:/home/simulink/cFS_FreeRTOS_seL4/cfe/fsw/cfe-core/src/sb/cfe_sb_task.c **** 
 941:/home/simulink/cFS_FreeRTOS_seL4/cfe/fsw/cfe-core/src/sb/cfe_sb_task.c ****     WriteStat = CFE_FS_WriteHeader(fd, &FileHdr);
 1954               	.loc 1 941 0
 1955 0f12 200F      	move.l %sp,%d0
 1956 0f14 2F00      	move.l %d0,-(%sp)
 1957               	.cfi_def_cfa_offset 96
 1958 0f16 2F2F 004C 	move.l 76(%sp),-(%sp)
 1959               	.cfi_def_cfa_offset 100
 1960 0f1a 4EB9 0000 	jsr CFE_FS_WriteHeader
 1960      0000 
 1961 0f20 508F      	addq.l #8,%sp
 1962               	.cfi_def_cfa_offset 92
 1963 0f22 2F40 0044 	move.l %d0,68(%sp)
 942:/home/simulink/cFS_FreeRTOS_seL4/cfe/fsw/cfe-core/src/sb/cfe_sb_task.c ****     if(WriteStat != sizeof(CFE_FS_Header_t)){
68K GAS   			page 59


 1964               	.loc 1 942 0
 1965 0f26 7040      	moveq #64,%d0
 1966 0f28 B0AF 0044 	cmp.l 68(%sp),%d0
 1967 0f2c 672A      	jeq .L79
 943:/home/simulink/cFS_FreeRTOS_seL4/cfe/fsw/cfe-core/src/sb/cfe_sb_task.c ****         CFE_SB_FileWriteByteCntErr(Filename,sizeof(CFE_FS_Header_t),WriteStat);
 1968               	.loc 1 943 0
 1969 0f2e 202F 0044 	move.l 68(%sp),%d0
 1970 0f32 2F00      	move.l %d0,-(%sp)
 1971               	.cfi_def_cfa_offset 96
 1972 0f34 4878 0040 	pea 64.w
 1973               	.cfi_def_cfa_offset 100
 1974 0f38 2F2F 0064 	move.l 100(%sp),-(%sp)
 1975               	.cfi_def_cfa_offset 104
 1976 0f3c 4EB9 0000 	jsr CFE_SB_FileWriteByteCntErr
 1976      0000 
 1977 0f42 4FEF 000C 	lea (12,%sp),%sp
 1978               	.cfi_def_cfa_offset 92
 944:/home/simulink/cFS_FreeRTOS_seL4/cfe/fsw/cfe-core/src/sb/cfe_sb_task.c ****         OS_close(fd);
 1979               	.loc 1 944 0
 1980 0f46 2F2F 0048 	move.l 72(%sp),-(%sp)
 1981               	.cfi_def_cfa_offset 96
 1982 0f4a 4EB9 0000 	jsr OS_close
 1982      0000 
 1983 0f50 588F      	addq.l #4,%sp
 1984               	.cfi_def_cfa_offset 92
 945:/home/simulink/cFS_FreeRTOS_seL4/cfe/fsw/cfe-core/src/sb/cfe_sb_task.c ****         return CFE_SB_FILE_IO_ERR;
 1985               	.loc 1 945 0
 1986 0f52 70FB      	moveq #-5,%d0
 1987 0f54 6000 0108 	jra .L84
 1988               	.L79:
 946:/home/simulink/cFS_FreeRTOS_seL4/cfe/fsw/cfe-core/src/sb/cfe_sb_task.c ****     }/* end if */
 947:/home/simulink/cFS_FreeRTOS_seL4/cfe/fsw/cfe-core/src/sb/cfe_sb_task.c **** 
 948:/home/simulink/cFS_FreeRTOS_seL4/cfe/fsw/cfe-core/src/sb/cfe_sb_task.c ****     FileSize = WriteStat;
 1989               	.loc 1 948 0
 1990 0f58 2F6F 0044 	move.l 68(%sp),80(%sp)
 1990      0050 
 949:/home/simulink/cFS_FreeRTOS_seL4/cfe/fsw/cfe-core/src/sb/cfe_sb_task.c **** 
 950:/home/simulink/cFS_FreeRTOS_seL4/cfe/fsw/cfe-core/src/sb/cfe_sb_task.c ****     /* loop through the entire MsgMap */
 951:/home/simulink/cFS_FreeRTOS_seL4/cfe/fsw/cfe-core/src/sb/cfe_sb_task.c ****     for(i=0;i<CFE_SB_HIGHEST_VALID_MSGID;i++){
 1991               	.loc 1 951 0
 1992 0f5e 4240      	clr.w %d0
 1993 0f60 3F40 0056 	move.w %d0,86(%sp)
 1994 0f64 6000 00B2 	jra .L80
 1995               	.L83:
 952:/home/simulink/cFS_FreeRTOS_seL4/cfe/fsw/cfe-core/src/sb/cfe_sb_task.c **** 
 953:/home/simulink/cFS_FreeRTOS_seL4/cfe/fsw/cfe-core/src/sb/cfe_sb_task.c ****         if(CFE_SB.MsgMap[i] != CFE_SB_AVAILABLE){
 1996               	.loc 1 953 0
 1997 0f68 4280      	clr.l %d0
 1998 0f6a 302F 0056 	move.w 86(%sp),%d0
 1999 0f6e 0680 0004 	add.l #264712,%d0
 1999      0A08 
 2000 0f74 D080      	add.l %d0,%d0
 2001 0f76 41F9 0000 	lea CFE_SB,%a0
 2001      0000 
 2002 0f7c 3030 0800 	move.w (%a0,%d0.l),%d0
 2003 0f80 3000      	move.w %d0,%d0
 2004 0f82 0280 0000 	and.l #65535,%d0
68K GAS   			page 60


 2004      FFFF 
 2005 0f88 0C80 0000 	cmp.l #65535,%d0
 2005      FFFF 
 2006 0f8e 677E      	jeq .L81
 954:/home/simulink/cFS_FreeRTOS_seL4/cfe/fsw/cfe-core/src/sb/cfe_sb_task.c **** 
 955:/home/simulink/cFS_FreeRTOS_seL4/cfe/fsw/cfe-core/src/sb/cfe_sb_task.c ****             Entry.MsgId = i;
 2007               	.loc 1 955 0
 2008 0f90 3F6F 0056 	move.w 86(%sp),64(%sp)
 2008      0040 
 956:/home/simulink/cFS_FreeRTOS_seL4/cfe/fsw/cfe-core/src/sb/cfe_sb_task.c ****             Entry.Index = CFE_SB.MsgMap[i];
 2009               	.loc 1 956 0
 2010 0f96 4280      	clr.l %d0
 2011 0f98 302F 0056 	move.w 86(%sp),%d0
 2012 0f9c 0680 0004 	add.l #264712,%d0
 2012      0A08 
 2013 0fa2 D080      	add.l %d0,%d0
 2014 0fa4 41F9 0000 	lea CFE_SB,%a0
 2014      0000 
 2015 0faa 3030 0800 	move.w (%a0,%d0.l),%d0
 2016 0fae 3F40 0042 	move.w %d0,66(%sp)
 957:/home/simulink/cFS_FreeRTOS_seL4/cfe/fsw/cfe-core/src/sb/cfe_sb_task.c **** 
 958:/home/simulink/cFS_FreeRTOS_seL4/cfe/fsw/cfe-core/src/sb/cfe_sb_task.c ****             WriteStat = OS_write (fd, &Entry, sizeof(CFE_SB_MsgMapFileEntry_t));
 2017               	.loc 1 958 0
 2018 0fb2 4878 0004 	pea 4.w
 2019               	.cfi_def_cfa_offset 96
 2020 0fb6 200F      	move.l %sp,%d0
 2021 0fb8 0680 0000 	add.l #68,%d0
 2021      0044 
 2022 0fbe 2F00      	move.l %d0,-(%sp)
 2023               	.cfi_def_cfa_offset 100
 2024 0fc0 2F2F 0050 	move.l 80(%sp),-(%sp)
 2025               	.cfi_def_cfa_offset 104
 2026 0fc4 4EB9 0000 	jsr OS_write
 2026      0000 
 2027 0fca 4FEF 000C 	lea (12,%sp),%sp
 2028               	.cfi_def_cfa_offset 92
 2029 0fce 2F40 0044 	move.l %d0,68(%sp)
 959:/home/simulink/cFS_FreeRTOS_seL4/cfe/fsw/cfe-core/src/sb/cfe_sb_task.c ****             if(WriteStat != sizeof(CFE_SB_MsgMapFileEntry_t)){
 2030               	.loc 1 959 0
 2031 0fd2 7004      	moveq #4,%d0
 2032 0fd4 B0AF 0044 	cmp.l 68(%sp),%d0
 2033 0fd8 6728      	jeq .L82
 960:/home/simulink/cFS_FreeRTOS_seL4/cfe/fsw/cfe-core/src/sb/cfe_sb_task.c ****                 CFE_SB_FileWriteByteCntErr(Filename,sizeof(CFE_SB_MsgMapFileEntry_t),WriteStat);
 2034               	.loc 1 960 0
 2035 0fda 202F 0044 	move.l 68(%sp),%d0
 2036 0fde 2F00      	move.l %d0,-(%sp)
 2037               	.cfi_def_cfa_offset 96
 2038 0fe0 4878 0004 	pea 4.w
 2039               	.cfi_def_cfa_offset 100
 2040 0fe4 2F2F 0064 	move.l 100(%sp),-(%sp)
 2041               	.cfi_def_cfa_offset 104
 2042 0fe8 4EB9 0000 	jsr CFE_SB_FileWriteByteCntErr
 2042      0000 
 2043 0fee 4FEF 000C 	lea (12,%sp),%sp
 2044               	.cfi_def_cfa_offset 92
 961:/home/simulink/cFS_FreeRTOS_seL4/cfe/fsw/cfe-core/src/sb/cfe_sb_task.c ****                 OS_close(fd);
 2045               	.loc 1 961 0
68K GAS   			page 61


 2046 0ff2 2F2F 0048 	move.l 72(%sp),-(%sp)
 2047               	.cfi_def_cfa_offset 96
 2048 0ff6 4EB9 0000 	jsr OS_close
 2048      0000 
 2049 0ffc 588F      	addq.l #4,%sp
 2050               	.cfi_def_cfa_offset 92
 962:/home/simulink/cFS_FreeRTOS_seL4/cfe/fsw/cfe-core/src/sb/cfe_sb_task.c ****                 return CFE_SB_FILE_IO_ERR;
 2051               	.loc 1 962 0
 2052 0ffe 70FB      	moveq #-5,%d0
 2053 1000 605C      	jra .L84
 2054               	.L82:
 963:/home/simulink/cFS_FreeRTOS_seL4/cfe/fsw/cfe-core/src/sb/cfe_sb_task.c ****             }/* end if */
 964:/home/simulink/cFS_FreeRTOS_seL4/cfe/fsw/cfe-core/src/sb/cfe_sb_task.c **** 
 965:/home/simulink/cFS_FreeRTOS_seL4/cfe/fsw/cfe-core/src/sb/cfe_sb_task.c ****             FileSize += WriteStat;
 2055               	.loc 1 965 0
 2056 1002 202F 0044 	move.l 68(%sp),%d0
 2057 1006 D1AF 0050 	add.l %d0,80(%sp)
 966:/home/simulink/cFS_FreeRTOS_seL4/cfe/fsw/cfe-core/src/sb/cfe_sb_task.c ****             EntryCount ++;
 2058               	.loc 1 966 0
 2059 100a 52AF 004C 	addq.l #1,76(%sp)
 2060               	.L81:
 951:/home/simulink/cFS_FreeRTOS_seL4/cfe/fsw/cfe-core/src/sb/cfe_sb_task.c **** 
 2061               	.loc 1 951 0 discriminator 2
 2062 100e 302F 0056 	move.w 86(%sp),%d0
 2063 1012 5280      	addq.l #1,%d0
 2064 1014 3F40 0056 	move.w %d0,86(%sp)
 2065               	.L80:
 951:/home/simulink/cFS_FreeRTOS_seL4/cfe/fsw/cfe-core/src/sb/cfe_sb_task.c **** 
 2066               	.loc 1 951 0 is_stmt 0 discriminator 1
 2067 1018 4280      	clr.l %d0
 2068 101a 302F 0056 	move.w 86(%sp),%d0
 2069 101e 0C80 0000 	cmp.l #8190,%d0
 2069      1FFE 
 2070 1024 6300 FF42 	jls .L83
 967:/home/simulink/cFS_FreeRTOS_seL4/cfe/fsw/cfe-core/src/sb/cfe_sb_task.c **** 
 968:/home/simulink/cFS_FreeRTOS_seL4/cfe/fsw/cfe-core/src/sb/cfe_sb_task.c ****         }/* end for */
 969:/home/simulink/cFS_FreeRTOS_seL4/cfe/fsw/cfe-core/src/sb/cfe_sb_task.c ****     }/* end for */
 970:/home/simulink/cFS_FreeRTOS_seL4/cfe/fsw/cfe-core/src/sb/cfe_sb_task.c **** 
 971:/home/simulink/cFS_FreeRTOS_seL4/cfe/fsw/cfe-core/src/sb/cfe_sb_task.c ****     OS_close(fd);
 2071               	.loc 1 971 0 is_stmt 1
 2072 1028 2F2F 0048 	move.l 72(%sp),-(%sp)
 2073               	.cfi_def_cfa_offset 96
 2074 102c 4EB9 0000 	jsr OS_close
 2074      0000 
 2075 1032 588F      	addq.l #4,%sp
 2076               	.cfi_def_cfa_offset 92
 972:/home/simulink/cFS_FreeRTOS_seL4/cfe/fsw/cfe-core/src/sb/cfe_sb_task.c **** 
 973:/home/simulink/cFS_FreeRTOS_seL4/cfe/fsw/cfe-core/src/sb/cfe_sb_task.c ****     CFE_EVS_SendEvent(CFE_SB_SND_RTG_EID,CFE_EVS_DEBUG,
 2077               	.loc 1 973 0
 2078 1034 222F 004C 	move.l 76(%sp),%d1
 2079 1038 202F 0050 	move.l 80(%sp),%d0
 2080 103c 2F01      	move.l %d1,-(%sp)
 2081               	.cfi_def_cfa_offset 96
 2082 103e 2F00      	move.l %d0,-(%sp)
 2083               	.cfi_def_cfa_offset 100
 2084 1040 2F2F 0064 	move.l 100(%sp),-(%sp)
 2085               	.cfi_def_cfa_offset 104
68K GAS   			page 62


 2086 1044 4879 0000 	pea .LC29
 2086      0000 
 2087               	.cfi_def_cfa_offset 108
 2088 104a 4878 0001 	pea 1.w
 2089               	.cfi_def_cfa_offset 112
 2090 104e 4878 0027 	pea 39.w
 2091               	.cfi_def_cfa_offset 116
 2092 1052 4EB9 0000 	jsr CFE_EVS_SendEvent
 2092      0000 
 2093 1058 4FEF 0018 	lea (24,%sp),%sp
 2094               	.cfi_def_cfa_offset 92
 974:/home/simulink/cFS_FreeRTOS_seL4/cfe/fsw/cfe-core/src/sb/cfe_sb_task.c ****                       "%s written:Size=%d,Entries=%d",
 975:/home/simulink/cFS_FreeRTOS_seL4/cfe/fsw/cfe-core/src/sb/cfe_sb_task.c ****                       Filename,(int)FileSize,(int)EntryCount);
 976:/home/simulink/cFS_FreeRTOS_seL4/cfe/fsw/cfe-core/src/sb/cfe_sb_task.c **** 
 977:/home/simulink/cFS_FreeRTOS_seL4/cfe/fsw/cfe-core/src/sb/cfe_sb_task.c ****     return CFE_SUCCESS;
 2095               	.loc 1 977 0
 2096 105c 4280      	clr.l %d0
 2097               	.L84:
 978:/home/simulink/cFS_FreeRTOS_seL4/cfe/fsw/cfe-core/src/sb/cfe_sb_task.c **** 
 979:/home/simulink/cFS_FreeRTOS_seL4/cfe/fsw/cfe-core/src/sb/cfe_sb_task.c **** }/* end CFE_SB_SendMapInfo */
 2098               	.loc 1 979 0 discriminator 1
 2099 105e 4FEF 0058 	lea (88,%sp),%sp
 2100 1062 4E75      	rts
 2101               	.cfi_endproc
 2102               	.LFE72:
 2103               	.sizeCFE_SB_SendMapInfo, .-CFE_SB_SendMapInfo
 2104               	.section.rodata
 2105               	.LC32:
 2106 0472 4675 6C6C 	.string"Full Sub Pkt %d Sent,Entries=%d,Stat=0x%x\n"
 2106      2053 7562 
 2106      2050 6B74 
 2106      2025 6420 
 2106      5365 6E74 
 2107               	.LC33:
 2108 049d 5061 7274 	.string"Partial Sub Pkt %d Sent,Entries=%d,Stat=0x%x"
 2108      6961 6C20 
 2108      5375 6220 
 2108      506B 7420 
 2108      2564 2053 
 2109               	.text
 2110               	.align2
 2111               	.globlCFE_SB_SendPrevSubs
 2112               	.typeCFE_SB_SendPrevSubs, @function
 2113               	CFE_SB_SendPrevSubs:
 2114               	.LFB73:
 980:/home/simulink/cFS_FreeRTOS_seL4/cfe/fsw/cfe-core/src/sb/cfe_sb_task.c **** 
 981:/home/simulink/cFS_FreeRTOS_seL4/cfe/fsw/cfe-core/src/sb/cfe_sb_task.c **** 
 982:/home/simulink/cFS_FreeRTOS_seL4/cfe/fsw/cfe-core/src/sb/cfe_sb_task.c **** 
 983:/home/simulink/cFS_FreeRTOS_seL4/cfe/fsw/cfe-core/src/sb/cfe_sb_task.c **** /******************************************************************************
 984:/home/simulink/cFS_FreeRTOS_seL4/cfe/fsw/cfe-core/src/sb/cfe_sb_task.c **** **  Function:  CFE_SB_SendPrevSubs()
 985:/home/simulink/cFS_FreeRTOS_seL4/cfe/fsw/cfe-core/src/sb/cfe_sb_task.c **** **
 986:/home/simulink/cFS_FreeRTOS_seL4/cfe/fsw/cfe-core/src/sb/cfe_sb_task.c **** **  Purpose:
 987:/home/simulink/cFS_FreeRTOS_seL4/cfe/fsw/cfe-core/src/sb/cfe_sb_task.c **** **    SB function to build and send an SB packet containing a complete list of
 988:/home/simulink/cFS_FreeRTOS_seL4/cfe/fsw/cfe-core/src/sb/cfe_sb_task.c **** **    current subscriptions.Intended to be used primarily for the Software Bus
 989:/home/simulink/cFS_FreeRTOS_seL4/cfe/fsw/cfe-core/src/sb/cfe_sb_task.c **** **    Networking Application (SBN).
 990:/home/simulink/cFS_FreeRTOS_seL4/cfe/fsw/cfe-core/src/sb/cfe_sb_task.c **** **
 991:/home/simulink/cFS_FreeRTOS_seL4/cfe/fsw/cfe-core/src/sb/cfe_sb_task.c **** **  Arguments:
68K GAS   			page 63


 992:/home/simulink/cFS_FreeRTOS_seL4/cfe/fsw/cfe-core/src/sb/cfe_sb_task.c **** **    None
 993:/home/simulink/cFS_FreeRTOS_seL4/cfe/fsw/cfe-core/src/sb/cfe_sb_task.c **** **
 994:/home/simulink/cFS_FreeRTOS_seL4/cfe/fsw/cfe-core/src/sb/cfe_sb_task.c **** **  Return:
 995:/home/simulink/cFS_FreeRTOS_seL4/cfe/fsw/cfe-core/src/sb/cfe_sb_task.c **** **    None
 996:/home/simulink/cFS_FreeRTOS_seL4/cfe/fsw/cfe-core/src/sb/cfe_sb_task.c **** */
 997:/home/simulink/cFS_FreeRTOS_seL4/cfe/fsw/cfe-core/src/sb/cfe_sb_task.c **** void CFE_SB_SendPrevSubs(void){
 2115               	.loc 1 997 0
 2116               	.cfi_startproc
 2117 1064 4FEF FFEC 	lea (-20,%sp),%sp
 2118               	.cfi_def_cfa_offset 24
 2119 1068 2F02      	move.l %d2,-(%sp)
 2120               	.cfi_def_cfa_offset 28
 2121               	.cfi_offset 2, -28
 998:/home/simulink/cFS_FreeRTOS_seL4/cfe/fsw/cfe-core/src/sb/cfe_sb_task.c **** 
 999:/home/simulink/cFS_FreeRTOS_seL4/cfe/fsw/cfe-core/src/sb/cfe_sb_task.c ****   uint32 i;
1000:/home/simulink/cFS_FreeRTOS_seL4/cfe/fsw/cfe-core/src/sb/cfe_sb_task.c ****   uint32 EntryNum = 0;
 2122               	.loc 1 1000 0
 2123 106a 42AF 0010 	clr.l 16(%sp)
1001:/home/simulink/cFS_FreeRTOS_seL4/cfe/fsw/cfe-core/src/sb/cfe_sb_task.c ****   uint32 SegNum = 1;
 2124               	.loc 1 1001 0
 2125 106e 7001      	moveq #1,%d0
 2126 1070 2F40 000C 	move.l %d0,12(%sp)
1002:/home/simulink/cFS_FreeRTOS_seL4/cfe/fsw/cfe-core/src/sb/cfe_sb_task.c ****   int32  Stat;
1003:/home/simulink/cFS_FreeRTOS_seL4/cfe/fsw/cfe-core/src/sb/cfe_sb_task.c ****   CFE_SB_DestinationD_t *DestPtr = NULL;
 2127               	.loc 1 1003 0
 2128 1074 42AF 0008 	clr.l 8(%sp)
1004:/home/simulink/cFS_FreeRTOS_seL4/cfe/fsw/cfe-core/src/sb/cfe_sb_task.c **** 
1005:/home/simulink/cFS_FreeRTOS_seL4/cfe/fsw/cfe-core/src/sb/cfe_sb_task.c ****   /* Take semaphore to ensure data does not change during this function */
1006:/home/simulink/cFS_FreeRTOS_seL4/cfe/fsw/cfe-core/src/sb/cfe_sb_task.c ****   CFE_SB_LockSharedData(__func__,__LINE__);
 2129               	.loc 1 1006 0
 2130 1078 4878 03EE 	pea 1006.w
 2131               	.cfi_def_cfa_offset 32
 2132 107c 4879 0000 	pea __func__.5918
 2132      0000 
 2133               	.cfi_def_cfa_offset 36
 2134 1082 4EB9 0000 	jsr CFE_SB_LockSharedData
 2134      0000 
 2135 1088 508F      	addq.l #8,%sp
 2136               	.cfi_def_cfa_offset 28
1007:/home/simulink/cFS_FreeRTOS_seL4/cfe/fsw/cfe-core/src/sb/cfe_sb_task.c **** 
1008:/home/simulink/cFS_FreeRTOS_seL4/cfe/fsw/cfe-core/src/sb/cfe_sb_task.c ****   /* seek msgids that are in use */
1009:/home/simulink/cFS_FreeRTOS_seL4/cfe/fsw/cfe-core/src/sb/cfe_sb_task.c ****   for(i=0;i<CFE_SB_MAX_MSG_IDS;i++){
 2137               	.loc 1 1009 0
 2138 108a 42AF 0014 	clr.l 20(%sp)
 2139 108e 6000 0152 	jra .L86
 2140               	.L94:
1010:/home/simulink/cFS_FreeRTOS_seL4/cfe/fsw/cfe-core/src/sb/cfe_sb_task.c **** 
1011:/home/simulink/cFS_FreeRTOS_seL4/cfe/fsw/cfe-core/src/sb/cfe_sb_task.c ****         if(CFE_SB.RoutingTbl[i].MsgId == CFE_SB_INVALID_MSG_ID) {
 2141               	.loc 1 1011 0
 2142 1092 202F 0014 	move.l 20(%sp),%d0
 2143 1096 720C      	moveq #12,%d1
 2144 1098 4C01 0800 	muls.l %d1,%d0
 2145 109c 41F9 0000 	lea CFE_SB+545808,%a0
 2145      0000 
 2146 10a2 3030 0800 	move.w (%a0,%d0.l),%d0
 2147 10a6 3000      	move.w %d0,%d0
 2148 10a8 0280 0000 	and.l #65535,%d0
68K GAS   			page 64


 2148      FFFF 
 2149 10ae 0C80 0000 	cmp.l #65535,%d0
 2149      FFFF 
 2150 10b4 6608      	jne .L87
1012:/home/simulink/cFS_FreeRTOS_seL4/cfe/fsw/cfe-core/src/sb/cfe_sb_task.c ****             DestPtr = NULL;
 2151               	.loc 1 1012 0
 2152 10b6 42AF 0008 	clr.l 8(%sp)
 2153 10ba 6000 0116 	jra .L89
 2154               	.L87:
1013:/home/simulink/cFS_FreeRTOS_seL4/cfe/fsw/cfe-core/src/sb/cfe_sb_task.c ****         } else {
1014:/home/simulink/cFS_FreeRTOS_seL4/cfe/fsw/cfe-core/src/sb/cfe_sb_task.c ****             DestPtr = CFE_SB.RoutingTbl[i].ListHeadPtr;
 2155               	.loc 1 1014 0
 2156 10be 202F 0014 	move.l 20(%sp),%d0
 2157 10c2 740C      	moveq #12,%d2
 2158 10c4 4C02 0800 	muls.l %d2,%d0
 2159 10c8 41F9 0000 	lea CFE_SB+545816,%a0
 2159      0000 
 2160 10ce 43F0 0800 	lea (%a0,%d0.l),%a1
 2161 10d2 2F51 0008 	move.l (%a1),8(%sp)
1015:/home/simulink/cFS_FreeRTOS_seL4/cfe/fsw/cfe-core/src/sb/cfe_sb_task.c ****         }
1016:/home/simulink/cFS_FreeRTOS_seL4/cfe/fsw/cfe-core/src/sb/cfe_sb_task.c ****         
1017:/home/simulink/cFS_FreeRTOS_seL4/cfe/fsw/cfe-core/src/sb/cfe_sb_task.c ****         while(DestPtr != NULL){
 2162               	.loc 1 1017 0
 2163 10d6 6000 00FA 	jra .L89
 2164               	.L93:
1018:/home/simulink/cFS_FreeRTOS_seL4/cfe/fsw/cfe-core/src/sb/cfe_sb_task.c **** 
1019:/home/simulink/cFS_FreeRTOS_seL4/cfe/fsw/cfe-core/src/sb/cfe_sb_task.c ****             if(DestPtr->Scope == CFE_SB_GLOBAL){
 2165               	.loc 1 1019 0
 2166 10da 206F 0008 	move.l 8(%sp),%a0
 2167 10de 1028 0008 	move.b 8(%a0),%d0
 2168 10e2 4A00      	tst.b %d0
 2169 10e4 6600 00E2 	jne .L90
1020:/home/simulink/cFS_FreeRTOS_seL4/cfe/fsw/cfe-core/src/sb/cfe_sb_task.c ****             
1021:/home/simulink/cFS_FreeRTOS_seL4/cfe/fsw/cfe-core/src/sb/cfe_sb_task.c ****                 /* ...add entry into pkt */
1022:/home/simulink/cFS_FreeRTOS_seL4/cfe/fsw/cfe-core/src/sb/cfe_sb_task.c ****                 CFE_SB.PrevSubMsg.Payload.Entry[EntryNum].MsgId = CFE_SB.RoutingTbl[i].MsgId;
 2170               	.loc 1 1022 0
 2171 10e8 202F 0014 	move.l 20(%sp),%d0
 2172 10ec 720C      	moveq #12,%d1
 2173 10ee 4C01 0800 	muls.l %d1,%d0
 2174 10f2 41F9 0000 	lea CFE_SB+545808,%a0
 2174      0000 
 2175 10f8 3230 0800 	move.w (%a0,%d0.l),%d1
 2176 10fc 202F 0010 	move.l 16(%sp),%d0
 2177 1100 7406      	moveq #6,%d2
 2178 1102 4C02 0800 	muls.l %d2,%d0
 2179 1106 41F9 0000 	lea CFE_SB+548904,%a0
 2179      0000 
 2180 110c 3181 0800 	move.w %d1,(%a0,%d0.l)
1023:/home/simulink/cFS_FreeRTOS_seL4/cfe/fsw/cfe-core/src/sb/cfe_sb_task.c ****                 CFE_SB.PrevSubMsg.Payload.Entry[EntryNum].Qos.Priority = 0;
 2181               	.loc 1 1023 0
 2182 1110 202F 0010 	move.l 16(%sp),%d0
 2183 1114 7206      	moveq #6,%d1
 2184 1116 4C01 0800 	muls.l %d1,%d0
 2185 111a 41F9 0000 	lea CFE_SB+548906,%a0
 2185      0000 
 2186 1120 4202      	clr.b %d2
 2187 1122 1182 0800 	move.b %d2,(%a0,%d0.l)
68K GAS   			page 65


1024:/home/simulink/cFS_FreeRTOS_seL4/cfe/fsw/cfe-core/src/sb/cfe_sb_task.c ****                 CFE_SB.PrevSubMsg.Payload.Entry[EntryNum].Qos.Reliability = 0;
 2188               	.loc 1 1024 0
 2189 1126 202F 0010 	move.l 16(%sp),%d0
 2190 112a 7206      	moveq #6,%d1
 2191 112c 4C01 0800 	muls.l %d1,%d0
 2192 1130 41F9 0000 	lea CFE_SB+548907,%a0
 2192      0000 
 2193 1136 4202      	clr.b %d2
 2194 1138 1182 0800 	move.b %d2,(%a0,%d0.l)
1025:/home/simulink/cFS_FreeRTOS_seL4/cfe/fsw/cfe-core/src/sb/cfe_sb_task.c ****                 EntryNum++;
 2195               	.loc 1 1025 0
 2196 113c 52AF 0010 	addq.l #1,16(%sp)
1026:/home/simulink/cFS_FreeRTOS_seL4/cfe/fsw/cfe-core/src/sb/cfe_sb_task.c ****         
1027:/home/simulink/cFS_FreeRTOS_seL4/cfe/fsw/cfe-core/src/sb/cfe_sb_task.c ****                 /* send pkt if full */
1028:/home/simulink/cFS_FreeRTOS_seL4/cfe/fsw/cfe-core/src/sb/cfe_sb_task.c ****                 if(EntryNum >= CFE_SB_SUB_ENTRIES_PER_PKT){
 2197               	.loc 1 1028 0
 2198 1140 7013      	moveq #19,%d0
 2199 1142 B0AF 0010 	cmp.l 16(%sp),%d0
 2200 1146 6400 0094 	jcc .L97
1029:/home/simulink/cFS_FreeRTOS_seL4/cfe/fsw/cfe-core/src/sb/cfe_sb_task.c ****                   CFE_SB.PrevSubMsg.Payload.PktSegment = SegNum;
 2201               	.loc 1 1029 0
 2202 114a 41EF 000C 	lea (12,%sp),%a0
 2203 114e 23D0 0000 	move.l (%a0),CFE_SB+548892
 2203      0000 
1030:/home/simulink/cFS_FreeRTOS_seL4/cfe/fsw/cfe-core/src/sb/cfe_sb_task.c ****                   CFE_SB.PrevSubMsg.Payload.Entries = EntryNum;
 2204               	.loc 1 1030 0
 2205 1154 43EF 0010 	lea (16,%sp),%a1
 2206 1158 23D1 0000 	move.l (%a1),CFE_SB+548900
 2206      0000 
1031:/home/simulink/cFS_FreeRTOS_seL4/cfe/fsw/cfe-core/src/sb/cfe_sb_task.c ****                   CFE_SB_UnlockSharedData(__func__,__LINE__);
 2207               	.loc 1 1031 0
 2208 115e 4878 0407 	pea 1031.w
 2209               	.cfi_def_cfa_offset 32
 2210 1162 4879 0000 	pea __func__.5918
 2210      0000 
 2211               	.cfi_def_cfa_offset 36
 2212 1168 4EB9 0000 	jsr CFE_SB_UnlockSharedData
 2212      0000 
 2213 116e 508F      	addq.l #8,%sp
 2214               	.cfi_def_cfa_offset 28
1032:/home/simulink/cFS_FreeRTOS_seL4/cfe/fsw/cfe-core/src/sb/cfe_sb_task.c ****                   Stat = CFE_SB_SendMsg((CFE_SB_Msg_t *)&CFE_SB.PrevSubMsg);
 2215               	.loc 1 1032 0
 2216 1170 4879 0000 	pea CFE_SB+548880
 2216      0000 
 2217               	.cfi_def_cfa_offset 32
 2218 1176 4EB9 0000 	jsr CFE_SB_SendMsg
 2218      0000 
 2219 117c 588F      	addq.l #4,%sp
 2220               	.cfi_def_cfa_offset 28
 2221 117e 2F40 0004 	move.l %d0,4(%sp)
1033:/home/simulink/cFS_FreeRTOS_seL4/cfe/fsw/cfe-core/src/sb/cfe_sb_task.c ****                   CFE_SB_LockSharedData(__func__,__LINE__);
 2222               	.loc 1 1033 0
 2223 1182 4878 0409 	pea 1033.w
 2224               	.cfi_def_cfa_offset 32
 2225 1186 4879 0000 	pea __func__.5918
 2225      0000 
 2226               	.cfi_def_cfa_offset 36
68K GAS   			page 66


 2227 118c 4EB9 0000 	jsr CFE_SB_LockSharedData
 2227      0000 
 2228 1192 508F      	addq.l #8,%sp
 2229               	.cfi_def_cfa_offset 28
1034:/home/simulink/cFS_FreeRTOS_seL4/cfe/fsw/cfe-core/src/sb/cfe_sb_task.c ****                   CFE_EVS_SendEvent(CFE_SB_FULL_SUB_PKT_EID,CFE_EVS_DEBUG,
 2230               	.loc 1 1034 0
 2231 1194 206F 0004 	move.l 4(%sp),%a0
 2232 1198 222F 0010 	move.l 16(%sp),%d1
 2233 119c 202F 000C 	move.l 12(%sp),%d0
 2234 11a0 2F08      	move.l %a0,-(%sp)
 2235               	.cfi_def_cfa_offset 32
 2236 11a2 2F01      	move.l %d1,-(%sp)
 2237               	.cfi_def_cfa_offset 36
 2238 11a4 2F00      	move.l %d0,-(%sp)
 2239               	.cfi_def_cfa_offset 40
 2240 11a6 4879 0000 	pea .LC32
 2240      0000 
 2241               	.cfi_def_cfa_offset 44
 2242 11ac 4878 0001 	pea 1.w
 2243               	.cfi_def_cfa_offset 48
 2244 11b0 4878 002C 	pea 44.w
 2245               	.cfi_def_cfa_offset 52
 2246 11b4 4EB9 0000 	jsr CFE_EVS_SendEvent
 2246      0000 
 2247 11ba 4FEF 0018 	lea (24,%sp),%sp
 2248               	.cfi_def_cfa_offset 28
1035:/home/simulink/cFS_FreeRTOS_seL4/cfe/fsw/cfe-core/src/sb/cfe_sb_task.c ****                       "Full Sub Pkt %d Sent,Entries=%d,Stat=0x%x\n",(int)SegNum,(int)EntryNum,(unsi
1036:/home/simulink/cFS_FreeRTOS_seL4/cfe/fsw/cfe-core/src/sb/cfe_sb_task.c ****                   EntryNum = 0;
 2249               	.loc 1 1036 0
 2250 11be 42AF 0010 	clr.l 16(%sp)
1037:/home/simulink/cFS_FreeRTOS_seL4/cfe/fsw/cfe-core/src/sb/cfe_sb_task.c ****                   SegNum++;
 2251               	.loc 1 1037 0
 2252 11c2 52AF 000C 	addq.l #1,12(%sp)
1038:/home/simulink/cFS_FreeRTOS_seL4/cfe/fsw/cfe-core/src/sb/cfe_sb_task.c ****                 }/* end if */
1039:/home/simulink/cFS_FreeRTOS_seL4/cfe/fsw/cfe-core/src/sb/cfe_sb_task.c ****         
1040:/home/simulink/cFS_FreeRTOS_seL4/cfe/fsw/cfe-core/src/sb/cfe_sb_task.c ****                 /* break while loop through destinations, onto next CFE_SB.RoutingTbl index */
1041:/home/simulink/cFS_FreeRTOS_seL4/cfe/fsw/cfe-core/src/sb/cfe_sb_task.c ****                 /* This is done because we want only one network subscription per msgid */
1042:/home/simulink/cFS_FreeRTOS_seL4/cfe/fsw/cfe-core/src/sb/cfe_sb_task.c ****                 /* Later when Qos is used, we may want to take just the highest priority */
1043:/home/simulink/cFS_FreeRTOS_seL4/cfe/fsw/cfe-core/src/sb/cfe_sb_task.c ****                 /* subscription if there are more than one */
1044:/home/simulink/cFS_FreeRTOS_seL4/cfe/fsw/cfe-core/src/sb/cfe_sb_task.c ****                 break;
 2253               	.loc 1 1044 0
 2254 11c6 6014      	jra .L97
 2255               	.L90:
1045:/home/simulink/cFS_FreeRTOS_seL4/cfe/fsw/cfe-core/src/sb/cfe_sb_task.c ****                 
1046:/home/simulink/cFS_FreeRTOS_seL4/cfe/fsw/cfe-core/src/sb/cfe_sb_task.c ****             }/* end if */
1047:/home/simulink/cFS_FreeRTOS_seL4/cfe/fsw/cfe-core/src/sb/cfe_sb_task.c ****             
1048:/home/simulink/cFS_FreeRTOS_seL4/cfe/fsw/cfe-core/src/sb/cfe_sb_task.c ****             /* Check next destination (if another exists) for global scope */
1049:/home/simulink/cFS_FreeRTOS_seL4/cfe/fsw/cfe-core/src/sb/cfe_sb_task.c ****             DestPtr = DestPtr -> Next;
 2256               	.loc 1 1049 0
 2257 11c8 206F 0008 	move.l 8(%sp),%a0
 2258 11cc 2F68 0010 	move.l 16(%a0),8(%sp)
 2258      0008 
 2259               	.L89:
1017:/home/simulink/cFS_FreeRTOS_seL4/cfe/fsw/cfe-core/src/sb/cfe_sb_task.c **** 
 2260               	.loc 1 1017 0
 2261 11d2 4AAF 0008 	tst.l 8(%sp)
 2262 11d6 6600 FF02 	jne .L93
68K GAS   			page 67


 2263 11da 6002      	jra .L92
 2264               	.L97:
1044:/home/simulink/cFS_FreeRTOS_seL4/cfe/fsw/cfe-core/src/sb/cfe_sb_task.c ****                 
 2265               	.loc 1 1044 0
 2266 11dc 4E71      	nop
 2267               	.L92:
1009:/home/simulink/cFS_FreeRTOS_seL4/cfe/fsw/cfe-core/src/sb/cfe_sb_task.c **** 
 2268               	.loc 1 1009 0 discriminator 2
 2269 11de 52AF 0014 	addq.l #1,20(%sp)
 2270               	.L86:
1009:/home/simulink/cFS_FreeRTOS_seL4/cfe/fsw/cfe-core/src/sb/cfe_sb_task.c **** 
 2271               	.loc 1 1009 0 is_stmt 0 discriminator 1
 2272 11e2 203C 0000 	move.l #255,%d0
 2272      00FF 
 2273 11e8 B0AF 0014 	cmp.l 20(%sp),%d0
 2274 11ec 6400 FEA4 	jcc .L94
1050:/home/simulink/cFS_FreeRTOS_seL4/cfe/fsw/cfe-core/src/sb/cfe_sb_task.c ****         
1051:/home/simulink/cFS_FreeRTOS_seL4/cfe/fsw/cfe-core/src/sb/cfe_sb_task.c ****         }/* end while */
1052:/home/simulink/cFS_FreeRTOS_seL4/cfe/fsw/cfe-core/src/sb/cfe_sb_task.c ****   
1053:/home/simulink/cFS_FreeRTOS_seL4/cfe/fsw/cfe-core/src/sb/cfe_sb_task.c ****   }/* end for */ 
1054:/home/simulink/cFS_FreeRTOS_seL4/cfe/fsw/cfe-core/src/sb/cfe_sb_task.c **** 
1055:/home/simulink/cFS_FreeRTOS_seL4/cfe/fsw/cfe-core/src/sb/cfe_sb_task.c ****   /* if pkt has any number of entries, send it as a partial pkt */
1056:/home/simulink/cFS_FreeRTOS_seL4/cfe/fsw/cfe-core/src/sb/cfe_sb_task.c ****   if(EntryNum > 0){
 2275               	.loc 1 1056 0 is_stmt 1
 2276 11f0 4AAF 0010 	tst.l 16(%sp)
 2277 11f4 6774      	jeq .L95
1057:/home/simulink/cFS_FreeRTOS_seL4/cfe/fsw/cfe-core/src/sb/cfe_sb_task.c ****     CFE_SB.PrevSubMsg.Payload.PktSegment = SegNum;
 2278               	.loc 1 1057 0
 2279 11f6 41EF 000C 	lea (12,%sp),%a0
 2280 11fa 23D0 0000 	move.l (%a0),CFE_SB+548892
 2280      0000 
1058:/home/simulink/cFS_FreeRTOS_seL4/cfe/fsw/cfe-core/src/sb/cfe_sb_task.c ****     CFE_SB.PrevSubMsg.Payload.Entries = EntryNum;
 2281               	.loc 1 1058 0
 2282 1200 43EF 0010 	lea (16,%sp),%a1
 2283 1204 23D1 0000 	move.l (%a1),CFE_SB+548900
 2283      0000 
1059:/home/simulink/cFS_FreeRTOS_seL4/cfe/fsw/cfe-core/src/sb/cfe_sb_task.c ****     CFE_SB_UnlockSharedData(__func__,__LINE__);
 2284               	.loc 1 1059 0
 2285 120a 4878 0423 	pea 1059.w
 2286               	.cfi_def_cfa_offset 32
 2287 120e 4879 0000 	pea __func__.5918
 2287      0000 
 2288               	.cfi_def_cfa_offset 36
 2289 1214 4EB9 0000 	jsr CFE_SB_UnlockSharedData
 2289      0000 
 2290 121a 508F      	addq.l #8,%sp
 2291               	.cfi_def_cfa_offset 28
1060:/home/simulink/cFS_FreeRTOS_seL4/cfe/fsw/cfe-core/src/sb/cfe_sb_task.c ****     Stat = CFE_SB_SendMsg((CFE_SB_Msg_t *)&CFE_SB.PrevSubMsg);
 2292               	.loc 1 1060 0
 2293 121c 4879 0000 	pea CFE_SB+548880
 2293      0000 
 2294               	.cfi_def_cfa_offset 32
 2295 1222 4EB9 0000 	jsr CFE_SB_SendMsg
 2295      0000 
 2296 1228 588F      	addq.l #4,%sp
 2297               	.cfi_def_cfa_offset 28
 2298 122a 2F40 0004 	move.l %d0,4(%sp)
68K GAS   			page 68


1061:/home/simulink/cFS_FreeRTOS_seL4/cfe/fsw/cfe-core/src/sb/cfe_sb_task.c ****     CFE_SB_LockSharedData(__func__,__LINE__);
 2299               	.loc 1 1061 0
 2300 122e 4878 0425 	pea 1061.w
 2301               	.cfi_def_cfa_offset 32
 2302 1232 4879 0000 	pea __func__.5918
 2302      0000 
 2303               	.cfi_def_cfa_offset 36
 2304 1238 4EB9 0000 	jsr CFE_SB_LockSharedData
 2304      0000 
 2305 123e 508F      	addq.l #8,%sp
 2306               	.cfi_def_cfa_offset 28
1062:/home/simulink/cFS_FreeRTOS_seL4/cfe/fsw/cfe-core/src/sb/cfe_sb_task.c ****     CFE_EVS_SendEvent(CFE_SB_PART_SUB_PKT_EID,CFE_EVS_DEBUG,
 2307               	.loc 1 1062 0
 2308 1240 206F 0004 	move.l 4(%sp),%a0
 2309 1244 222F 0010 	move.l 16(%sp),%d1
 2310 1248 202F 000C 	move.l 12(%sp),%d0
 2311 124c 2F08      	move.l %a0,-(%sp)
 2312               	.cfi_def_cfa_offset 32
 2313 124e 2F01      	move.l %d1,-(%sp)
 2314               	.cfi_def_cfa_offset 36
 2315 1250 2F00      	move.l %d0,-(%sp)
 2316               	.cfi_def_cfa_offset 40
 2317 1252 4879 0000 	pea .LC33
 2317      0000 
 2318               	.cfi_def_cfa_offset 44
 2319 1258 4878 0001 	pea 1.w
 2320               	.cfi_def_cfa_offset 48
 2321 125c 4878 002D 	pea 45.w
 2322               	.cfi_def_cfa_offset 52
 2323 1260 4EB9 0000 	jsr CFE_EVS_SendEvent
 2323      0000 
 2324 1266 4FEF 0018 	lea (24,%sp),%sp
 2325               	.cfi_def_cfa_offset 28
 2326               	.L95:
1063:/home/simulink/cFS_FreeRTOS_seL4/cfe/fsw/cfe-core/src/sb/cfe_sb_task.c ****         "Partial Sub Pkt %d Sent,Entries=%d,Stat=0x%x",(int)SegNum,(int)EntryNum,(unsigned int)Stat
1064:/home/simulink/cFS_FreeRTOS_seL4/cfe/fsw/cfe-core/src/sb/cfe_sb_task.c ****   }/* end if */
1065:/home/simulink/cFS_FreeRTOS_seL4/cfe/fsw/cfe-core/src/sb/cfe_sb_task.c **** 
1066:/home/simulink/cFS_FreeRTOS_seL4/cfe/fsw/cfe-core/src/sb/cfe_sb_task.c ****   CFE_SB_UnlockSharedData(__func__,__LINE__);
 2327               	.loc 1 1066 0
 2328 126a 4878 042A 	pea 1066.w
 2329               	.cfi_def_cfa_offset 32
 2330 126e 4879 0000 	pea __func__.5918
 2330      0000 
 2331               	.cfi_def_cfa_offset 36
 2332 1274 4EB9 0000 	jsr CFE_SB_UnlockSharedData
 2332      0000 
 2333 127a 508F      	addq.l #8,%sp
 2334               	.cfi_def_cfa_offset 28
1067:/home/simulink/cFS_FreeRTOS_seL4/cfe/fsw/cfe-core/src/sb/cfe_sb_task.c ****   return;
 2335               	.loc 1 1067 0
 2336 127c 4E71      	nop
1068:/home/simulink/cFS_FreeRTOS_seL4/cfe/fsw/cfe-core/src/sb/cfe_sb_task.c **** 
1069:/home/simulink/cFS_FreeRTOS_seL4/cfe/fsw/cfe-core/src/sb/cfe_sb_task.c **** }/* end CFE_SB_SendPrevSubs */
 2337               	.loc 1 1069 0
 2338 127e 241F      	move.l (%sp)+,%d2
 2339 1280 4FEF 0014 	lea (20,%sp),%sp
 2340 1284 4E75      	rts
68K GAS   			page 69


 2341               	.cfi_endproc
 2342               	.LFE73:
 2343               	.sizeCFE_SB_SendPrevSubs, .-CFE_SB_SendPrevSubs
 2344               	.align2
 2345               	.globlCFE_SB_FindGlobalMsgIdCnt
 2346               	.typeCFE_SB_FindGlobalMsgIdCnt, @function
 2347               	CFE_SB_FindGlobalMsgIdCnt:
 2348               	.LFB74:
1070:/home/simulink/cFS_FreeRTOS_seL4/cfe/fsw/cfe-core/src/sb/cfe_sb_task.c **** 
1071:/home/simulink/cFS_FreeRTOS_seL4/cfe/fsw/cfe-core/src/sb/cfe_sb_task.c **** 
1072:/home/simulink/cFS_FreeRTOS_seL4/cfe/fsw/cfe-core/src/sb/cfe_sb_task.c **** /******************************************************************************
1073:/home/simulink/cFS_FreeRTOS_seL4/cfe/fsw/cfe-core/src/sb/cfe_sb_task.c **** **  Function:  CFE_SB_FindGlobalMsgIdCnt()
1074:/home/simulink/cFS_FreeRTOS_seL4/cfe/fsw/cfe-core/src/sb/cfe_sb_task.c **** **
1075:/home/simulink/cFS_FreeRTOS_seL4/cfe/fsw/cfe-core/src/sb/cfe_sb_task.c **** **  Purpose:
1076:/home/simulink/cFS_FreeRTOS_seL4/cfe/fsw/cfe-core/src/sb/cfe_sb_task.c **** **    SB internal function to get a count of the global message ids in use.
1077:/home/simulink/cFS_FreeRTOS_seL4/cfe/fsw/cfe-core/src/sb/cfe_sb_task.c **** **
1078:/home/simulink/cFS_FreeRTOS_seL4/cfe/fsw/cfe-core/src/sb/cfe_sb_task.c **** **  Notes:
1079:/home/simulink/cFS_FreeRTOS_seL4/cfe/fsw/cfe-core/src/sb/cfe_sb_task.c **** **    Subscriptions made with CFE_SB_SubscribeLocal would not be counted.
1080:/home/simulink/cFS_FreeRTOS_seL4/cfe/fsw/cfe-core/src/sb/cfe_sb_task.c **** **    Subscription made with a subscribe API other than CFE_SB_SubscribeLocal are
1081:/home/simulink/cFS_FreeRTOS_seL4/cfe/fsw/cfe-core/src/sb/cfe_sb_task.c **** **    considerd to be global subscriptions. MsgIds with both global and local
1082:/home/simulink/cFS_FreeRTOS_seL4/cfe/fsw/cfe-core/src/sb/cfe_sb_task.c **** **    subscriptions would be counted.
1083:/home/simulink/cFS_FreeRTOS_seL4/cfe/fsw/cfe-core/src/sb/cfe_sb_task.c **** **
1084:/home/simulink/cFS_FreeRTOS_seL4/cfe/fsw/cfe-core/src/sb/cfe_sb_task.c **** **  Arguments:
1085:/home/simulink/cFS_FreeRTOS_seL4/cfe/fsw/cfe-core/src/sb/cfe_sb_task.c **** **
1086:/home/simulink/cFS_FreeRTOS_seL4/cfe/fsw/cfe-core/src/sb/cfe_sb_task.c **** **  Return:
1087:/home/simulink/cFS_FreeRTOS_seL4/cfe/fsw/cfe-core/src/sb/cfe_sb_task.c **** **    None
1088:/home/simulink/cFS_FreeRTOS_seL4/cfe/fsw/cfe-core/src/sb/cfe_sb_task.c **** */
1089:/home/simulink/cFS_FreeRTOS_seL4/cfe/fsw/cfe-core/src/sb/cfe_sb_task.c **** uint32 CFE_SB_FindGlobalMsgIdCnt(void){
 2349               	.loc 1 1089 0
 2350               	.cfi_startproc
 2351 1286 4FEF FFF4 	lea (-12,%sp),%sp
 2352               	.cfi_def_cfa_offset 16
1090:/home/simulink/cFS_FreeRTOS_seL4/cfe/fsw/cfe-core/src/sb/cfe_sb_task.c **** 
1091:/home/simulink/cFS_FreeRTOS_seL4/cfe/fsw/cfe-core/src/sb/cfe_sb_task.c ****     uint32 i;
1092:/home/simulink/cFS_FreeRTOS_seL4/cfe/fsw/cfe-core/src/sb/cfe_sb_task.c ****     uint32 cnt = 0;
 2353               	.loc 1 1092 0
 2354 128a 42AF 0004 	clr.l 4(%sp)
1093:/home/simulink/cFS_FreeRTOS_seL4/cfe/fsw/cfe-core/src/sb/cfe_sb_task.c ****     CFE_SB_DestinationD_t *DestPtr = NULL;
 2355               	.loc 1 1093 0
 2356 128e 4297      	clr.l (%sp)
1094:/home/simulink/cFS_FreeRTOS_seL4/cfe/fsw/cfe-core/src/sb/cfe_sb_task.c ****     
1095:/home/simulink/cFS_FreeRTOS_seL4/cfe/fsw/cfe-core/src/sb/cfe_sb_task.c ****     for(i=0;i<CFE_SB_MAX_MSG_IDS;i++){
 2357               	.loc 1 1095 0
 2358 1290 42AF 0008 	clr.l 8(%sp)
 2359 1294 605C      	jra .L99
 2360               	.L106:
1096:/home/simulink/cFS_FreeRTOS_seL4/cfe/fsw/cfe-core/src/sb/cfe_sb_task.c **** 
1097:/home/simulink/cFS_FreeRTOS_seL4/cfe/fsw/cfe-core/src/sb/cfe_sb_task.c ****         if(CFE_SB.RoutingTbl[i].MsgId == CFE_SB_INVALID_MSG_ID) {
 2361               	.loc 1 1097 0
 2362 1296 202F 0008 	move.l 8(%sp),%d0
 2363 129a 720C      	moveq #12,%d1
 2364 129c 4C01 0800 	muls.l %d1,%d0
 2365 12a0 41F9 0000 	lea CFE_SB+545808,%a0
 2365      0000 
 2366 12a6 3030 0800 	move.w (%a0,%d0.l),%d0
 2367 12aa 3000      	move.w %d0,%d0
 2368 12ac 0280 0000 	and.l #65535,%d0
68K GAS   			page 70


 2368      FFFF 
 2369 12b2 0C80 0000 	cmp.l #65535,%d0
 2369      FFFF 
 2370 12b8 6604      	jne .L100
1098:/home/simulink/cFS_FreeRTOS_seL4/cfe/fsw/cfe-core/src/sb/cfe_sb_task.c ****             DestPtr = NULL;
 2371               	.loc 1 1098 0
 2372 12ba 4297      	clr.l (%sp)
 2373 12bc 602C      	jra .L102
 2374               	.L100:
1099:/home/simulink/cFS_FreeRTOS_seL4/cfe/fsw/cfe-core/src/sb/cfe_sb_task.c ****         } else {
1100:/home/simulink/cFS_FreeRTOS_seL4/cfe/fsw/cfe-core/src/sb/cfe_sb_task.c ****             DestPtr = CFE_SB.RoutingTbl[i].ListHeadPtr;
 2375               	.loc 1 1100 0
 2376 12be 202F 0008 	move.l 8(%sp),%d0
 2377 12c2 720C      	moveq #12,%d1
 2378 12c4 4C01 0800 	muls.l %d1,%d0
 2379 12c8 41F9 0000 	lea CFE_SB+545816,%a0
 2379      0000 
 2380 12ce 2EB0 0800 	move.l (%a0,%d0.l),(%sp)
1101:/home/simulink/cFS_FreeRTOS_seL4/cfe/fsw/cfe-core/src/sb/cfe_sb_task.c ****         }
1102:/home/simulink/cFS_FreeRTOS_seL4/cfe/fsw/cfe-core/src/sb/cfe_sb_task.c ****         
1103:/home/simulink/cFS_FreeRTOS_seL4/cfe/fsw/cfe-core/src/sb/cfe_sb_task.c ****         while(DestPtr != NULL){
 2381               	.loc 1 1103 0
 2382 12d2 6016      	jra .L102
 2383               	.L105:
1104:/home/simulink/cFS_FreeRTOS_seL4/cfe/fsw/cfe-core/src/sb/cfe_sb_task.c ****     
1105:/home/simulink/cFS_FreeRTOS_seL4/cfe/fsw/cfe-core/src/sb/cfe_sb_task.c ****             if(DestPtr->Scope == CFE_SB_GLOBAL){
 2384               	.loc 1 1105 0
 2385 12d4 2057      	move.l (%sp),%a0
 2386 12d6 1028 0008 	move.b 8(%a0),%d0
 2387 12da 4A00      	tst.b %d0
 2388 12dc 6606      	jne .L103
1106:/home/simulink/cFS_FreeRTOS_seL4/cfe/fsw/cfe-core/src/sb/cfe_sb_task.c **** 
1107:/home/simulink/cFS_FreeRTOS_seL4/cfe/fsw/cfe-core/src/sb/cfe_sb_task.c ****                 cnt++;
 2389               	.loc 1 1107 0
 2390 12de 52AF 0004 	addq.l #1,4(%sp)
1108:/home/simulink/cFS_FreeRTOS_seL4/cfe/fsw/cfe-core/src/sb/cfe_sb_task.c ****                 break;
 2391               	.loc 1 1108 0
 2392 12e2 600A      	jra .L104
 2393               	.L103:
1109:/home/simulink/cFS_FreeRTOS_seL4/cfe/fsw/cfe-core/src/sb/cfe_sb_task.c **** 
1110:/home/simulink/cFS_FreeRTOS_seL4/cfe/fsw/cfe-core/src/sb/cfe_sb_task.c ****             }/* end if */
1111:/home/simulink/cFS_FreeRTOS_seL4/cfe/fsw/cfe-core/src/sb/cfe_sb_task.c ****             
1112:/home/simulink/cFS_FreeRTOS_seL4/cfe/fsw/cfe-core/src/sb/cfe_sb_task.c ****             /* Check next destination (if another exists) for global scope */
1113:/home/simulink/cFS_FreeRTOS_seL4/cfe/fsw/cfe-core/src/sb/cfe_sb_task.c ****             DestPtr = DestPtr -> Next;
 2394               	.loc 1 1113 0
 2395 12e4 2057      	move.l (%sp),%a0
 2396 12e6 2EA8 0010 	move.l 16(%a0),(%sp)
 2397               	.L102:
1103:/home/simulink/cFS_FreeRTOS_seL4/cfe/fsw/cfe-core/src/sb/cfe_sb_task.c ****     
 2398               	.loc 1 1103 0
 2399 12ea 4A97      	tst.l (%sp)
 2400 12ec 66E6      	jne .L105
 2401               	.L104:
1095:/home/simulink/cFS_FreeRTOS_seL4/cfe/fsw/cfe-core/src/sb/cfe_sb_task.c **** 
 2402               	.loc 1 1095 0 discriminator 2
 2403 12ee 52AF 0008 	addq.l #1,8(%sp)
 2404               	.L99:
68K GAS   			page 71


1095:/home/simulink/cFS_FreeRTOS_seL4/cfe/fsw/cfe-core/src/sb/cfe_sb_task.c **** 
 2405               	.loc 1 1095 0 is_stmt 0 discriminator 1
 2406 12f2 203C 0000 	move.l #255,%d0
 2406      00FF 
 2407 12f8 B0AF 0008 	cmp.l 8(%sp),%d0
 2408 12fc 6498      	jcc .L106
1114:/home/simulink/cFS_FreeRTOS_seL4/cfe/fsw/cfe-core/src/sb/cfe_sb_task.c ****             
1115:/home/simulink/cFS_FreeRTOS_seL4/cfe/fsw/cfe-core/src/sb/cfe_sb_task.c ****         }/* end while */
1116:/home/simulink/cFS_FreeRTOS_seL4/cfe/fsw/cfe-core/src/sb/cfe_sb_task.c **** 
1117:/home/simulink/cFS_FreeRTOS_seL4/cfe/fsw/cfe-core/src/sb/cfe_sb_task.c ****     }/* end for */
1118:/home/simulink/cFS_FreeRTOS_seL4/cfe/fsw/cfe-core/src/sb/cfe_sb_task.c **** 
1119:/home/simulink/cFS_FreeRTOS_seL4/cfe/fsw/cfe-core/src/sb/cfe_sb_task.c ****   return cnt;
 2409               	.loc 1 1119 0 is_stmt 1
 2410 12fe 202F 0004 	move.l 4(%sp),%d0
1120:/home/simulink/cFS_FreeRTOS_seL4/cfe/fsw/cfe-core/src/sb/cfe_sb_task.c **** 
1121:/home/simulink/cFS_FreeRTOS_seL4/cfe/fsw/cfe-core/src/sb/cfe_sb_task.c **** }/* end CFE_SB_FindGlobalMsgIdCnt */
 2411               	.loc 1 1121 0
 2412 1302 4FEF 000C 	lea (12,%sp),%sp
 2413 1306 4E75      	rts
 2414               	.cfi_endproc
 2415               	.LFE74:
 2416               	.sizeCFE_SB_FindGlobalMsgIdCnt, .-CFE_SB_FindGlobalMsgIdCnt
 2417               	.align2
 2418               	.globlCFE_SB_IncrCmdCtr
 2419               	.typeCFE_SB_IncrCmdCtr, @function
 2420               	CFE_SB_IncrCmdCtr:
 2421               	.LFB75:
1122:/home/simulink/cFS_FreeRTOS_seL4/cfe/fsw/cfe-core/src/sb/cfe_sb_task.c **** 
1123:/home/simulink/cFS_FreeRTOS_seL4/cfe/fsw/cfe-core/src/sb/cfe_sb_task.c **** 
1124:/home/simulink/cFS_FreeRTOS_seL4/cfe/fsw/cfe-core/src/sb/cfe_sb_task.c **** 
1125:/home/simulink/cFS_FreeRTOS_seL4/cfe/fsw/cfe-core/src/sb/cfe_sb_task.c **** 
1126:/home/simulink/cFS_FreeRTOS_seL4/cfe/fsw/cfe-core/src/sb/cfe_sb_task.c **** /******************************************************************************
1127:/home/simulink/cFS_FreeRTOS_seL4/cfe/fsw/cfe-core/src/sb/cfe_sb_task.c **** **  Function:  CFE_SB_IncrCmdCtr()
1128:/home/simulink/cFS_FreeRTOS_seL4/cfe/fsw/cfe-core/src/sb/cfe_sb_task.c **** **
1129:/home/simulink/cFS_FreeRTOS_seL4/cfe/fsw/cfe-core/src/sb/cfe_sb_task.c **** **  Purpose:
1130:/home/simulink/cFS_FreeRTOS_seL4/cfe/fsw/cfe-core/src/sb/cfe_sb_task.c **** **    SB internal function to increment the proper cmd counter based on the
1131:/home/simulink/cFS_FreeRTOS_seL4/cfe/fsw/cfe-core/src/sb/cfe_sb_task.c **** **    status input. This small utility was written to eliminate duplicate code.
1132:/home/simulink/cFS_FreeRTOS_seL4/cfe/fsw/cfe-core/src/sb/cfe_sb_task.c **** **
1133:/home/simulink/cFS_FreeRTOS_seL4/cfe/fsw/cfe-core/src/sb/cfe_sb_task.c **** **  Arguments:
1134:/home/simulink/cFS_FreeRTOS_seL4/cfe/fsw/cfe-core/src/sb/cfe_sb_task.c **** **    status - typically CFE_SUCCESS or an SB error code
1135:/home/simulink/cFS_FreeRTOS_seL4/cfe/fsw/cfe-core/src/sb/cfe_sb_task.c **** **
1136:/home/simulink/cFS_FreeRTOS_seL4/cfe/fsw/cfe-core/src/sb/cfe_sb_task.c **** **  Return:
1137:/home/simulink/cFS_FreeRTOS_seL4/cfe/fsw/cfe-core/src/sb/cfe_sb_task.c **** **    None
1138:/home/simulink/cFS_FreeRTOS_seL4/cfe/fsw/cfe-core/src/sb/cfe_sb_task.c **** */
1139:/home/simulink/cFS_FreeRTOS_seL4/cfe/fsw/cfe-core/src/sb/cfe_sb_task.c **** void CFE_SB_IncrCmdCtr(int32 status){
 2422               	.loc 1 1139 0
 2423               	.cfi_startproc
1140:/home/simulink/cFS_FreeRTOS_seL4/cfe/fsw/cfe-core/src/sb/cfe_sb_task.c **** 
1141:/home/simulink/cFS_FreeRTOS_seL4/cfe/fsw/cfe-core/src/sb/cfe_sb_task.c ****     if(status==CFE_SUCCESS){
 2424               	.loc 1 1141 0
 2425 1308 4AAF 0004 	tst.l 4(%sp)
 2426 130c 6612      	jne .L109
1142:/home/simulink/cFS_FreeRTOS_seL4/cfe/fsw/cfe-core/src/sb/cfe_sb_task.c ****       CFE_SB.HKTlmMsg.Payload.CommandCnt++;
 2427               	.loc 1 1142 0
 2428 130e 1039 0000 	move.b CFE_SB+4512,%d0
 2428      0000 
 2429 1314 5280      	addq.l #1,%d0
68K GAS   			page 72


 2430 1316 1000      	move.b %d0,%d0
 2431 1318 13C0 0000 	move.b %d0,CFE_SB+4512
 2431      0000 
1143:/home/simulink/cFS_FreeRTOS_seL4/cfe/fsw/cfe-core/src/sb/cfe_sb_task.c ****     }else{
1144:/home/simulink/cFS_FreeRTOS_seL4/cfe/fsw/cfe-core/src/sb/cfe_sb_task.c ****       CFE_SB.HKTlmMsg.Payload.CmdErrCnt++;
1145:/home/simulink/cFS_FreeRTOS_seL4/cfe/fsw/cfe-core/src/sb/cfe_sb_task.c ****     }/* end if */
1146:/home/simulink/cFS_FreeRTOS_seL4/cfe/fsw/cfe-core/src/sb/cfe_sb_task.c **** 
1147:/home/simulink/cFS_FreeRTOS_seL4/cfe/fsw/cfe-core/src/sb/cfe_sb_task.c **** }/* end CFE_SB_IncrCmdCtr */
 2432               	.loc 1 1147 0
 2433 131e 6010      	jra .L111
 2434               	.L109:
1144:/home/simulink/cFS_FreeRTOS_seL4/cfe/fsw/cfe-core/src/sb/cfe_sb_task.c ****     }/* end if */
 2435               	.loc 1 1144 0
 2436 1320 1039 0000 	move.b CFE_SB+4513,%d0
 2436      0000 
 2437 1326 5280      	addq.l #1,%d0
 2438 1328 1000      	move.b %d0,%d0
 2439 132a 13C0 0000 	move.b %d0,CFE_SB+4513
 2439      0000 
 2440               	.L111:
 2441               	.loc 1 1147 0
 2442 1330 4E71      	nop
 2443 1332 4E75      	rts
 2444               	.cfi_endproc
 2445               	.LFE75:
 2446               	.sizeCFE_SB_IncrCmdCtr, .-CFE_SB_IncrCmdCtr
 2447               	.section.rodata
 2448               	.LC34:
 2449 04ca 4669 6C65 	.string"File write,byte cnt err,file %s,request=%d,actual=%d"
 2449      2077 7269 
 2449      7465 2C62 
 2449      7974 6520 
 2449      636E 7420 
 2450               	.text
 2451               	.align2
 2452               	.globlCFE_SB_FileWriteByteCntErr
 2453               	.typeCFE_SB_FileWriteByteCntErr, @function
 2454               	CFE_SB_FileWriteByteCntErr:
 2455               	.LFB76:
1148:/home/simulink/cFS_FreeRTOS_seL4/cfe/fsw/cfe-core/src/sb/cfe_sb_task.c **** 
1149:/home/simulink/cFS_FreeRTOS_seL4/cfe/fsw/cfe-core/src/sb/cfe_sb_task.c **** 
1150:/home/simulink/cFS_FreeRTOS_seL4/cfe/fsw/cfe-core/src/sb/cfe_sb_task.c **** 
1151:/home/simulink/cFS_FreeRTOS_seL4/cfe/fsw/cfe-core/src/sb/cfe_sb_task.c **** /******************************************************************************
1152:/home/simulink/cFS_FreeRTOS_seL4/cfe/fsw/cfe-core/src/sb/cfe_sb_task.c **** **  Function:  CFE_SB_FileWriteByteCntErr()
1153:/home/simulink/cFS_FreeRTOS_seL4/cfe/fsw/cfe-core/src/sb/cfe_sb_task.c **** **
1154:/home/simulink/cFS_FreeRTOS_seL4/cfe/fsw/cfe-core/src/sb/cfe_sb_task.c **** **  Purpose:
1155:/home/simulink/cFS_FreeRTOS_seL4/cfe/fsw/cfe-core/src/sb/cfe_sb_task.c **** **    SB internal function to report a file write error
1156:/home/simulink/cFS_FreeRTOS_seL4/cfe/fsw/cfe-core/src/sb/cfe_sb_task.c **** **
1157:/home/simulink/cFS_FreeRTOS_seL4/cfe/fsw/cfe-core/src/sb/cfe_sb_task.c **** **  Arguments:
1158:/home/simulink/cFS_FreeRTOS_seL4/cfe/fsw/cfe-core/src/sb/cfe_sb_task.c **** **
1159:/home/simulink/cFS_FreeRTOS_seL4/cfe/fsw/cfe-core/src/sb/cfe_sb_task.c **** **
1160:/home/simulink/cFS_FreeRTOS_seL4/cfe/fsw/cfe-core/src/sb/cfe_sb_task.c **** **  Return:
1161:/home/simulink/cFS_FreeRTOS_seL4/cfe/fsw/cfe-core/src/sb/cfe_sb_task.c **** **    None
1162:/home/simulink/cFS_FreeRTOS_seL4/cfe/fsw/cfe-core/src/sb/cfe_sb_task.c **** */
1163:/home/simulink/cFS_FreeRTOS_seL4/cfe/fsw/cfe-core/src/sb/cfe_sb_task.c **** void CFE_SB_FileWriteByteCntErr(const char *Filename,uint32 Requested,uint32 Actual){
 2456               	.loc 1 1163 0
 2457               	.cfi_startproc
68K GAS   			page 73


1164:/home/simulink/cFS_FreeRTOS_seL4/cfe/fsw/cfe-core/src/sb/cfe_sb_task.c **** 
1165:/home/simulink/cFS_FreeRTOS_seL4/cfe/fsw/cfe-core/src/sb/cfe_sb_task.c ****     CFE_EVS_SendEvent(CFE_SB_FILEWRITE_ERR_EID,CFE_EVS_ERROR,
 2458               	.loc 1 1165 0
 2459 1334 222F 000C 	move.l 12(%sp),%d1
 2460 1338 202F 0008 	move.l 8(%sp),%d0
 2461 133c 2F01      	move.l %d1,-(%sp)
 2462               	.cfi_def_cfa_offset 8
 2463 133e 2F00      	move.l %d0,-(%sp)
 2464               	.cfi_def_cfa_offset 12
 2465 1340 2F2F 000C 	move.l 12(%sp),-(%sp)
 2466               	.cfi_def_cfa_offset 16
 2467 1344 4879 0000 	pea .LC34
 2467      0000 
 2468               	.cfi_def_cfa_offset 20
 2469 134a 4878 0003 	pea 3.w
 2470               	.cfi_def_cfa_offset 24
 2471 134e 4878 0031 	pea 49.w
 2472               	.cfi_def_cfa_offset 28
 2473 1352 4EB9 0000 	jsr CFE_EVS_SendEvent
 2473      0000 
 2474 1358 4FEF 0018 	lea (24,%sp),%sp
 2475               	.cfi_def_cfa_offset 4
1166:/home/simulink/cFS_FreeRTOS_seL4/cfe/fsw/cfe-core/src/sb/cfe_sb_task.c ****                       "File write,byte cnt err,file %s,request=%d,actual=%d",
1167:/home/simulink/cFS_FreeRTOS_seL4/cfe/fsw/cfe-core/src/sb/cfe_sb_task.c ****                        Filename,(int)Requested,(int)Actual);
1168:/home/simulink/cFS_FreeRTOS_seL4/cfe/fsw/cfe-core/src/sb/cfe_sb_task.c **** 
1169:/home/simulink/cFS_FreeRTOS_seL4/cfe/fsw/cfe-core/src/sb/cfe_sb_task.c **** }/* end CFE_SB_FileWriteByteCntErr() */
 2476               	.loc 1 1169 0
 2477 135c 4E71      	nop
 2478 135e 4E75      	rts
 2479               	.cfi_endproc
 2480               	.LFE76:
 2481               	.sizeCFE_SB_FileWriteByteCntErr, .-CFE_SB_FileWriteByteCntErr
 2482               	.align2
 2483               	.globlCFE_SB_SetSubscriptionReporting
 2484               	.typeCFE_SB_SetSubscriptionReporting, @function
 2485               	CFE_SB_SetSubscriptionReporting:
 2486               	.LFB77:
1170:/home/simulink/cFS_FreeRTOS_seL4/cfe/fsw/cfe-core/src/sb/cfe_sb_task.c **** 
1171:/home/simulink/cFS_FreeRTOS_seL4/cfe/fsw/cfe-core/src/sb/cfe_sb_task.c **** 
1172:/home/simulink/cFS_FreeRTOS_seL4/cfe/fsw/cfe-core/src/sb/cfe_sb_task.c **** /******************************************************************************
1173:/home/simulink/cFS_FreeRTOS_seL4/cfe/fsw/cfe-core/src/sb/cfe_sb_task.c **** **  Function:  CFE_SB_SetSubscriptionReporting()
1174:/home/simulink/cFS_FreeRTOS_seL4/cfe/fsw/cfe-core/src/sb/cfe_sb_task.c **** **
1175:/home/simulink/cFS_FreeRTOS_seL4/cfe/fsw/cfe-core/src/sb/cfe_sb_task.c **** **  Purpose:
1176:/home/simulink/cFS_FreeRTOS_seL4/cfe/fsw/cfe-core/src/sb/cfe_sb_task.c **** **    SB internal function to enable and disable subscription reporting.
1177:/home/simulink/cFS_FreeRTOS_seL4/cfe/fsw/cfe-core/src/sb/cfe_sb_task.c **** **
1178:/home/simulink/cFS_FreeRTOS_seL4/cfe/fsw/cfe-core/src/sb/cfe_sb_task.c **** **  Arguments:
1179:/home/simulink/cFS_FreeRTOS_seL4/cfe/fsw/cfe-core/src/sb/cfe_sb_task.c **** **
1180:/home/simulink/cFS_FreeRTOS_seL4/cfe/fsw/cfe-core/src/sb/cfe_sb_task.c **** **
1181:/home/simulink/cFS_FreeRTOS_seL4/cfe/fsw/cfe-core/src/sb/cfe_sb_task.c **** **  Return:
1182:/home/simulink/cFS_FreeRTOS_seL4/cfe/fsw/cfe-core/src/sb/cfe_sb_task.c **** **    None
1183:/home/simulink/cFS_FreeRTOS_seL4/cfe/fsw/cfe-core/src/sb/cfe_sb_task.c **** */
1184:/home/simulink/cFS_FreeRTOS_seL4/cfe/fsw/cfe-core/src/sb/cfe_sb_task.c **** void CFE_SB_SetSubscriptionReporting(uint32 state){
 2487               	.loc 1 1184 0
 2488               	.cfi_startproc
1185:/home/simulink/cFS_FreeRTOS_seL4/cfe/fsw/cfe-core/src/sb/cfe_sb_task.c **** 
1186:/home/simulink/cFS_FreeRTOS_seL4/cfe/fsw/cfe-core/src/sb/cfe_sb_task.c ****     CFE_SB.SubscriptionReporting = state;
 2489               	.loc 1 1186 0
68K GAS   			page 74


 2490 1360 41EF 0004 	lea (4,%sp),%a0
 2491 1364 23D0 0000 	move.l (%a0),CFE_SB+4
 2491      0000 
1187:/home/simulink/cFS_FreeRTOS_seL4/cfe/fsw/cfe-core/src/sb/cfe_sb_task.c **** 
1188:/home/simulink/cFS_FreeRTOS_seL4/cfe/fsw/cfe-core/src/sb/cfe_sb_task.c **** }/* end CFE_SB_SetSubscriptionReporting */
 2492               	.loc 1 1188 0
 2493 136a 4E71      	nop
 2494 136c 4E75      	rts
 2495               	.cfi_endproc
 2496               	.LFE77:
 2497               	.sizeCFE_SB_SetSubscriptionReporting, .-CFE_SB_SetSubscriptionReporting
 2498               	.section.rodata
 2499               	.type__func__.5918, @object
 2500               	.size__func__.5918, 20
 2501               	__func__.5918:
 2502 04ff 4346 455F 	.string"CFE_SB_SendPrevSubs"
 2502      5342 5F53 
 2502      656E 6450 
 2502      7265 7653 
 2502      7562 7300 
 2503               	.text
 2504               	.Letext0:
 2505               	.file 2 "/home/simulink/cFS_FreeRTOS_seL4/osal/src/os/inc/common_types.h"
 2506               	.file 3 "/home/simulink/development/rtems/5/m68k-rtems5/include/machine/_default_types.h"
 2507               	.file 4 "/home/simulink/development/rtems/5/m68k-rtems5/include/machine/_types.h"
 2508               	.file 5 "/home/simulink/development/rtems/5/m68k-rtems5/include/sys/lock.h"
 2509               	.file 6 "/home/simulink/development/rtems/5/m68k-rtems5/include/sys/_types.h"
 2510               	.file 7 "/home/simulink/development/rtems/5/lib/gcc/m68k-rtems5/7.3.0/include/stddef.h"
 2511               	.file 8 "/home/simulink/development/rtems/5/m68k-rtems5/include/sys/reent.h"
 2512               	.file 9 "/home/simulink/development/rtems/5/m68k-rtems5/include/stdlib.h"
 2513               	.file 10 "/home/simulink/development/rtems/5/m68k-rtems5/include/time.h"
 2514               	.file 11 "/home/simulink/cFS_FreeRTOS_seL4/cfe/fsw/cfe-core/src/inc/ccsds.h"
 2515               	.file 12 "/home/simulink/cFS_FreeRTOS_seL4/cfe/fsw/cfe-core/src/inc/cfe_sb.h"
 2516               	.file 13 "/home/simulink/cFS_FreeRTOS_seL4/cfe/fsw/cfe-core/src/inc/cfe_es.h"
 2517               	.file 14 "/home/simulink/cFS_FreeRTOS_seL4/cfe/fsw/cfe-core/src/inc/cfe_evs.h"
 2518               	.file 15 "/home/simulink/cFS_FreeRTOS_seL4/cfe/fsw/cfe-core/src/inc/cfe_fs.h"
 2519               	.file 16 "/home/simulink/cFS_FreeRTOS_seL4/cfe/fsw/cfe-core/src/inc/cfe_sb_msg.h"
 2520               	.file 17 "/home/simulink/cFS_FreeRTOS_seL4/cfe/fsw/cfe-core/src/sb/cfe_sb_priv.h"
 2521               	.section.debug_info,"",@progbits
 2522               	.Ldebug_info0:
 2523 0000 0000 1A31 	.long0x1a31
 2524 0004 0004      	.word0x4
 2525 0006 0000 0000 	.long.Ldebug_abbrev0
 2526 000a 04        	.byte0x4
 2527 000b 01        	.uleb128 0x1
 2528 000c 0000 0000 	.long.LASF321
 2529 0010 0C        	.byte0xc
 2530 0011 0000 0000 	.long.LASF322
 2531 0015 0000 0000 	.long.LASF323
 2532 0019 0000 0000 	.long.Ltext0
 2533 001d 0000 136E 	.long.Letext0-.Ltext0
 2534 0021 0000 0000 	.long.Ldebug_line0
 2535 0025 02        	.uleb128 0x2
 2536 0026 01        	.byte0x1
 2537 0027 08        	.byte0x8
 2538 0028 0000 0000 	.long.LASF0
 2539 002c 02        	.uleb128 0x2
68K GAS   			page 75


 2540 002d 01        	.byte0x1
 2541 002e 06        	.byte0x6
 2542 002f 0000 0000 	.long.LASF1
 2543 0033 02        	.uleb128 0x2
 2544 0034 02        	.byte0x2
 2545 0035 05        	.byte0x5
 2546 0036 0000 0000 	.long.LASF2
 2547 003a 03        	.uleb128 0x3
 2548 003b 0000 0000 	.long.LASF5
 2549 003f 02        	.byte0x2
 2550 0040 E9        	.byte0xe9
 2551 0041 0000 0045 	.long0x45
 2552 0045 02        	.uleb128 0x2
 2553 0046 04        	.byte0x4
 2554 0047 05        	.byte0x5
 2555 0048 0000 0000 	.long.LASF3
 2556 004c 02        	.uleb128 0x2
 2557 004d 08        	.byte0x8
 2558 004e 05        	.byte0x5
 2559 004f 0000 0000 	.long.LASF4
 2560 0053 03        	.uleb128 0x3
 2561 0054 0000 0000 	.long.LASF6
 2562 0058 02        	.byte0x2
 2563 0059 EB        	.byte0xeb
 2564 005a 0000 0025 	.long0x25
 2565 005e 03        	.uleb128 0x3
 2566 005f 0000 0000 	.long.LASF7
 2567 0063 02        	.byte0x2
 2568 0064 EC        	.byte0xec
 2569 0065 0000 0069 	.long0x69
 2570 0069 02        	.uleb128 0x2
 2571 006a 02        	.byte0x2
 2572 006b 07        	.byte0x7
 2573 006c 0000 0000 	.long.LASF8
 2574 0070 03        	.uleb128 0x3
 2575 0071 0000 0000 	.long.LASF9
 2576 0075 02        	.byte0x2
 2577 0076 ED        	.byte0xed
 2578 0077 0000 007B 	.long0x7b
 2579 007b 02        	.uleb128 0x2
 2580 007c 04        	.byte0x4
 2581 007d 07        	.byte0x7
 2582 007e 0000 0000 	.long.LASF10
 2583 0082 02        	.uleb128 0x2
 2584 0083 08        	.byte0x8
 2585 0084 07        	.byte0x7
 2586 0085 0000 0000 	.long.LASF11
 2587 0089 03        	.uleb128 0x3
 2588 008a 0000 0000 	.long.LASF12
 2589 008e 02        	.byte0x2
 2590 008f F0        	.byte0xf0
 2591 0090 0000 007B 	.long0x7b
 2592 0094 02        	.uleb128 0x2
 2593 0095 01        	.byte0x1
 2594 0096 06        	.byte0x6
 2595 0097 0000 0000 	.long.LASF13
 2596 009b 04        	.uleb128 0x4
68K GAS   			page 76


 2597 009c 0000 0094 	.long0x94
 2598 00a0 05        	.uleb128 0x5
 2599 00a1 0000 0094 	.long0x94
 2600 00a5 0000 00B0 	.long0xb0
 2601 00a9 06        	.uleb128 0x6
 2602 00aa 0000 007B 	.long0x7b
 2603 00ae 13        	.byte0x13
 2604 00af 00        	.byte0
 2605 00b0 07        	.uleb128 0x7
 2606 00b1 04        	.byte0x4
 2607 00b2 03        	.uleb128 0x3
 2608 00b3 0000 0000 	.long.LASF14
 2609 00b7 03        	.byte0x3
 2610 00b8 67        	.byte0x67
 2611 00b9 0000 004C 	.long0x4c
 2612 00bd 02        	.uleb128 0x2
 2613 00be 08        	.byte0x8
 2614 00bf 04        	.byte0x4
 2615 00c0 0000 0000 	.long.LASF15
 2616 00c4 03        	.uleb128 0x3
 2617 00c5 0000 0000 	.long.LASF16
 2618 00c9 04        	.byte0x4
 2619 00ca 10        	.byte0x10
 2620 00cb 0000 00B2 	.long0xb2
 2621 00cf 03        	.uleb128 0x3
 2622 00d0 0000 0000 	.long.LASF17
 2623 00d4 04        	.byte0x4
 2624 00d5 16        	.byte0x16
 2625 00d6 0000 00C4 	.long0xc4
 2626 00da 08        	.uleb128 0x8
 2627 00db 04        	.byte0x4
 2628 00dc 05        	.byte0x5
 2629 00dd 696E 7400 	.string"int"
 2630 00e1 09        	.uleb128 0x9
 2631 00e2 0000 0000 	.long.LASF21
 2632 00e6 08        	.byte0x8
 2633 00e7 05        	.byte0x5
 2634 00e8 28        	.byte0x28
 2635 00e9 0000 0106 	.long0x106
 2636 00ed 0A        	.uleb128 0xa
 2637 00ee 0000 0000 	.long.LASF18
 2638 00f2 05        	.byte0x5
 2639 00f3 29        	.byte0x29
 2640 00f4 0000 0106 	.long0x106
 2641 00f8 00        	.byte0
 2642 00f9 0A        	.uleb128 0xa
 2643 00fa 0000 0000 	.long.LASF19
 2644 00fe 05        	.byte0x5
 2645 00ff 2A        	.byte0x2a
 2646 0100 0000 0106 	.long0x106
 2647 0104 04        	.byte0x4
 2648 0105 00        	.byte0
 2649 0106 02        	.uleb128 0x2
 2650 0107 04        	.byte0x4
 2651 0108 07        	.byte0x7
 2652 0109 0000 0000 	.long.LASF20
 2653 010d 09        	.uleb128 0x9
68K GAS   			page 77


 2654 010e 0000 0000 	.long.LASF22
 2655 0112 14        	.byte0x14
 2656 0113 05        	.byte0x5
 2657 0114 2D        	.byte0x2d
 2658 0115 0000 014A 	.long0x14a
 2659 0119 0A        	.uleb128 0xa
 2660 011a 0000 0000 	.long.LASF23
 2661 011e 05        	.byte0x5
 2662 011f 2E        	.byte0x2e
 2663 0120 0000 00E1 	.long0xe1
 2664 0124 00        	.byte0
 2665 0125 0A        	.uleb128 0xa
 2666 0126 0000 0000 	.long.LASF24
 2667 012a 05        	.byte0x5
 2668 012b 2F        	.byte0x2f
 2669 012c 0000 014F 	.long0x14f
 2670 0130 08        	.byte0x8
 2671 0131 0A        	.uleb128 0xa
 2672 0132 0000 0000 	.long.LASF25
 2673 0136 05        	.byte0x5
 2674 0137 30        	.byte0x30
 2675 0138 0000 015A 	.long0x15a
 2676 013c 0C        	.byte0xc
 2677 013d 0A        	.uleb128 0xa
 2678 013e 0000 0000 	.long.LASF26
 2679 0142 05        	.byte0x5
 2680 0143 31        	.byte0x31
 2681 0144 0000 0160 	.long0x160
 2682 0148 10        	.byte0x10
 2683 0149 00        	.byte0
 2684 014a 0B        	.uleb128 0xb
 2685 014b 0000 0000 	.long.LASF27
 2686 014f 0C        	.uleb128 0xc
 2687 0150 04        	.byte0x4
 2688 0151 0000 014A 	.long0x14a
 2689 0155 0B        	.uleb128 0xb
 2690 0156 0000 0000 	.long.LASF28
 2691 015a 0C        	.uleb128 0xc
 2692 015b 04        	.byte0x4
 2693 015c 0000 0155 	.long0x155
 2694 0160 0C        	.uleb128 0xc
 2695 0161 04        	.byte0x4
 2696 0162 0000 009B 	.long0x9b
 2697 0166 09        	.uleb128 0x9
 2698 0167 0000 0000 	.long.LASF29
 2699 016b 14        	.byte0x14
 2700 016c 05        	.byte0x5
 2701 016d 34        	.byte0x34
 2702 016e 0000 017F 	.long0x17f
 2703 0172 0A        	.uleb128 0xa
 2704 0173 0000 0000 	.long.LASF30
 2705 0177 05        	.byte0x5
 2706 0178 35        	.byte0x35
 2707 0179 0000 010D 	.long0x10d
 2708 017d 00        	.byte0
 2709 017e 00        	.byte0
 2710 017f 09        	.uleb128 0x9
68K GAS   			page 78


 2711 0180 0000 0000 	.long.LASF31
 2712 0184 18        	.byte0x18
 2713 0185 05        	.byte0x5
 2714 0186 38        	.byte0x38
 2715 0187 0000 01A4 	.long0x1a4
 2716 018b 0A        	.uleb128 0xa
 2717 018c 0000 0000 	.long.LASF32
 2718 0190 05        	.byte0x5
 2719 0191 39        	.byte0x39
 2720 0192 0000 0166 	.long0x166
 2721 0196 00        	.byte0
 2722 0197 0A        	.uleb128 0xa
 2723 0198 0000 0000 	.long.LASF33
 2724 019c 05        	.byte0x5
 2725 019d 3A        	.byte0x3a
 2726 019e 0000 0106 	.long0x106
 2727 01a2 14        	.byte0x14
 2728 01a3 00        	.byte0
 2729 01a4 0D        	.uleb128 0xd
 2730 01a5 0000 0000 	.long.LASF34
 2731 01a9 05        	.byte0x5
 2732 01aa 0171      	.word0x171
 2733 01ac 0000 017F 	.long0x17f
 2734 01b0 03        	.uleb128 0x3
 2735 01b1 0000 0000 	.long.LASF35
 2736 01b5 06        	.byte0x6
 2737 01b6 91        	.byte0x91
 2738 01b7 0000 0045 	.long0x45
 2739 01bb 0D        	.uleb128 0xd
 2740 01bc 0000 0000 	.long.LASF36
 2741 01c0 07        	.byte0x7
 2742 01c1 0165      	.word0x165
 2743 01c3 0000 0106 	.long0x106
 2744 01c7 0E        	.uleb128 0xe
 2745 01c8 04        	.byte0x4
 2746 01c9 06        	.byte0x6
 2747 01ca A6        	.byte0xa6
 2748 01cb 0000 01E6 	.long0x1e6
 2749 01cf 0F        	.uleb128 0xf
 2750 01d0 0000 0000 	.long.LASF37
 2751 01d4 06        	.byte0x6
 2752 01d5 A8        	.byte0xa8
 2753 01d6 0000 01BB 	.long0x1bb
 2754 01da 0F        	.uleb128 0xf
 2755 01db 0000 0000 	.long.LASF38
 2756 01df 06        	.byte0x6
 2757 01e0 A9        	.byte0xa9
 2758 01e1 0000 01E6 	.long0x1e6
 2759 01e5 00        	.byte0
 2760 01e6 05        	.uleb128 0x5
 2761 01e7 0000 0025 	.long0x25
 2762 01eb 0000 01F6 	.long0x1f6
 2763 01ef 06        	.uleb128 0x6
 2764 01f0 0000 007B 	.long0x7b
 2765 01f4 03        	.byte0x3
 2766 01f5 00        	.byte0
 2767 01f6 10        	.uleb128 0x10
68K GAS   			page 79


 2768 01f7 08        	.byte0x8
 2769 01f8 06        	.byte0x6
 2770 01f9 A3        	.byte0xa3
 2771 01fa 0000 0217 	.long0x217
 2772 01fe 0A        	.uleb128 0xa
 2773 01ff 0000 0000 	.long.LASF39
 2774 0203 06        	.byte0x6
 2775 0204 A5        	.byte0xa5
 2776 0205 0000 00DA 	.long0xda
 2777 0209 00        	.byte0
 2778 020a 0A        	.uleb128 0xa
 2779 020b 0000 0000 	.long.LASF40
 2780 020f 06        	.byte0x6
 2781 0210 AA        	.byte0xaa
 2782 0211 0000 01C7 	.long0x1c7
 2783 0215 04        	.byte0x4
 2784 0216 00        	.byte0
 2785 0217 03        	.uleb128 0x3
 2786 0218 0000 0000 	.long.LASF41
 2787 021c 06        	.byte0x6
 2788 021d AB        	.byte0xab
 2789 021e 0000 01F6 	.long0x1f6
 2790 0222 03        	.uleb128 0x3
 2791 0223 0000 0000 	.long.LASF42
 2792 0227 06        	.byte0x6
 2793 0228 AF        	.byte0xaf
 2794 0229 0000 01A4 	.long0x1a4
 2795 022d 03        	.uleb128 0x3
 2796 022e 0000 0000 	.long.LASF43
 2797 0232 08        	.byte0x8
 2798 0233 16        	.byte0x16
 2799 0234 0000 007B 	.long0x7b
 2800 0238 09        	.uleb128 0x9
 2801 0239 0000 0000 	.long.LASF44
 2802 023d 18        	.byte0x18
 2803 023e 08        	.byte0x8
 2804 023f 2F        	.byte0x2f
 2805 0240 0000 028B 	.long0x28b
 2806 0244 0A        	.uleb128 0xa
 2807 0245 0000 0000 	.long.LASF45
 2808 0249 08        	.byte0x8
 2809 024a 31        	.byte0x31
 2810 024b 0000 028B 	.long0x28b
 2811 024f 00        	.byte0
 2812 0250 11        	.uleb128 0x11
 2813 0251 5F6B 00   	.string"_k"
 2814 0254 08        	.byte0x8
 2815 0255 32        	.byte0x32
 2816 0256 0000 00DA 	.long0xda
 2817 025a 04        	.byte0x4
 2818 025b 0A        	.uleb128 0xa
 2819 025c 0000 0000 	.long.LASF46
 2820 0260 08        	.byte0x8
 2821 0261 32        	.byte0x32
 2822 0262 0000 00DA 	.long0xda
 2823 0266 08        	.byte0x8
 2824 0267 0A        	.uleb128 0xa
68K GAS   			page 80


 2825 0268 0000 0000 	.long.LASF47
 2826 026c 08        	.byte0x8
 2827 026d 32        	.byte0x32
 2828 026e 0000 00DA 	.long0xda
 2829 0272 0C        	.byte0xc
 2830 0273 0A        	.uleb128 0xa
 2831 0274 0000 0000 	.long.LASF48
 2832 0278 08        	.byte0x8
 2833 0279 32        	.byte0x32
 2834 027a 0000 00DA 	.long0xda
 2835 027e 10        	.byte0x10
 2836 027f 11        	.uleb128 0x11
 2837 0280 5F78 00   	.string"_x"
 2838 0283 08        	.byte0x8
 2839 0284 33        	.byte0x33
 2840 0285 0000 0291 	.long0x291
 2841 0289 14        	.byte0x14
 2842 028a 00        	.byte0
 2843 028b 0C        	.uleb128 0xc
 2844 028c 04        	.byte0x4
 2845 028d 0000 0238 	.long0x238
 2846 0291 05        	.uleb128 0x5
 2847 0292 0000 022D 	.long0x22d
 2848 0296 0000 02A1 	.long0x2a1
 2849 029a 06        	.uleb128 0x6
 2850 029b 0000 007B 	.long0x7b
 2851 029f 00        	.byte0
 2852 02a0 00        	.byte0
 2853 02a1 09        	.uleb128 0x9
 2854 02a2 0000 0000 	.long.LASF49
 2855 02a6 24        	.byte0x24
 2856 02a7 08        	.byte0x8
 2857 02a8 37        	.byte0x37
 2858 02a9 0000 031A 	.long0x31a
 2859 02ad 0A        	.uleb128 0xa
 2860 02ae 0000 0000 	.long.LASF50
 2861 02b2 08        	.byte0x8
 2862 02b3 39        	.byte0x39
 2863 02b4 0000 00DA 	.long0xda
 2864 02b8 00        	.byte0
 2865 02b9 0A        	.uleb128 0xa
 2866 02ba 0000 0000 	.long.LASF51
 2867 02be 08        	.byte0x8
 2868 02bf 3A        	.byte0x3a
 2869 02c0 0000 00DA 	.long0xda
 2870 02c4 04        	.byte0x4
 2871 02c5 0A        	.uleb128 0xa
 2872 02c6 0000 0000 	.long.LASF52
 2873 02ca 08        	.byte0x8
 2874 02cb 3B        	.byte0x3b
 2875 02cc 0000 00DA 	.long0xda
 2876 02d0 08        	.byte0x8
 2877 02d1 0A        	.uleb128 0xa
 2878 02d2 0000 0000 	.long.LASF53
 2879 02d6 08        	.byte0x8
 2880 02d7 3C        	.byte0x3c
 2881 02d8 0000 00DA 	.long0xda
68K GAS   			page 81


 2882 02dc 0C        	.byte0xc
 2883 02dd 0A        	.uleb128 0xa
 2884 02de 0000 0000 	.long.LASF54
 2885 02e2 08        	.byte0x8
 2886 02e3 3D        	.byte0x3d
 2887 02e4 0000 00DA 	.long0xda
 2888 02e8 10        	.byte0x10
 2889 02e9 0A        	.uleb128 0xa
 2890 02ea 0000 0000 	.long.LASF55
 2891 02ee 08        	.byte0x8
 2892 02ef 3E        	.byte0x3e
 2893 02f0 0000 00DA 	.long0xda
 2894 02f4 14        	.byte0x14
 2895 02f5 0A        	.uleb128 0xa
 2896 02f6 0000 0000 	.long.LASF56
 2897 02fa 08        	.byte0x8
 2898 02fb 3F        	.byte0x3f
 2899 02fc 0000 00DA 	.long0xda
 2900 0300 18        	.byte0x18
 2901 0301 0A        	.uleb128 0xa
 2902 0302 0000 0000 	.long.LASF57
 2903 0306 08        	.byte0x8
 2904 0307 40        	.byte0x40
 2905 0308 0000 00DA 	.long0xda
 2906 030c 1C        	.byte0x1c
 2907 030d 0A        	.uleb128 0xa
 2908 030e 0000 0000 	.long.LASF58
 2909 0312 08        	.byte0x8
 2910 0313 41        	.byte0x41
 2911 0314 0000 00DA 	.long0xda
 2912 0318 20        	.byte0x20
 2913 0319 00        	.byte0
 2914 031a 12        	.uleb128 0x12
 2915 031b 0000 0000 	.long.LASF59
 2916 031f 0108      	.word0x108
 2917 0321 08        	.byte0x8
 2918 0322 4A        	.byte0x4a
 2919 0323 0000 035A 	.long0x35a
 2920 0327 0A        	.uleb128 0xa
 2921 0328 0000 0000 	.long.LASF60
 2922 032c 08        	.byte0x8
 2923 032d 4B        	.byte0x4b
 2924 032e 0000 035A 	.long0x35a
 2925 0332 00        	.byte0
 2926 0333 0A        	.uleb128 0xa
 2927 0334 0000 0000 	.long.LASF61
 2928 0338 08        	.byte0x8
 2929 0339 4C        	.byte0x4c
 2930 033a 0000 035A 	.long0x35a
 2931 033e 80        	.byte0x80
 2932 033f 13        	.uleb128 0x13
 2933 0340 0000 0000 	.long.LASF62
 2934 0344 08        	.byte0x8
 2935 0345 4E        	.byte0x4e
 2936 0346 0000 022D 	.long0x22d
 2937 034a 0100      	.word0x100
 2938 034c 13        	.uleb128 0x13
68K GAS   			page 82


 2939 034d 0000 0000 	.long.LASF63
 2940 0351 08        	.byte0x8
 2941 0352 51        	.byte0x51
 2942 0353 0000 022D 	.long0x22d
 2943 0357 0104      	.word0x104
 2944 0359 00        	.byte0
 2945 035a 05        	.uleb128 0x5
 2946 035b 0000 00B0 	.long0xb0
 2947 035f 0000 036A 	.long0x36a
 2948 0363 06        	.uleb128 0x6
 2949 0364 0000 007B 	.long0x7b
 2950 0368 1F        	.byte0x1f
 2951 0369 00        	.byte0
 2952 036a 12        	.uleb128 0x12
 2953 036b 0000 0000 	.long.LASF64
 2954 036f 0190      	.word0x190
 2955 0371 08        	.byte0x8
 2956 0372 5D        	.byte0x5d
 2957 0373 0000 03A8 	.long0x3a8
 2958 0377 0A        	.uleb128 0xa
 2959 0378 0000 0000 	.long.LASF45
 2960 037c 08        	.byte0x8
 2961 037d 5E        	.byte0x5e
 2962 037e 0000 03A8 	.long0x3a8
 2963 0382 00        	.byte0
 2964 0383 0A        	.uleb128 0xa
 2965 0384 0000 0000 	.long.LASF65
 2966 0388 08        	.byte0x8
 2967 0389 5F        	.byte0x5f
 2968 038a 0000 00DA 	.long0xda
 2969 038e 04        	.byte0x4
 2970 038f 0A        	.uleb128 0xa
 2971 0390 0000 0000 	.long.LASF66
 2972 0394 08        	.byte0x8
 2973 0395 61        	.byte0x61
 2974 0396 0000 03AE 	.long0x3ae
 2975 039a 08        	.byte0x8
 2976 039b 0A        	.uleb128 0xa
 2977 039c 0000 0000 	.long.LASF59
 2978 03a0 08        	.byte0x8
 2979 03a1 62        	.byte0x62
 2980 03a2 0000 031A 	.long0x31a
 2981 03a6 88        	.byte0x88
 2982 03a7 00        	.byte0
 2983 03a8 0C        	.uleb128 0xc
 2984 03a9 04        	.byte0x4
 2985 03aa 0000 036A 	.long0x36a
 2986 03ae 05        	.uleb128 0x5
 2987 03af 0000 03BE 	.long0x3be
 2988 03b3 0000 03BE 	.long0x3be
 2989 03b7 06        	.uleb128 0x6
 2990 03b8 0000 007B 	.long0x7b
 2991 03bc 1F        	.byte0x1f
 2992 03bd 00        	.byte0
 2993 03be 0C        	.uleb128 0xc
 2994 03bf 04        	.byte0x4
 2995 03c0 0000 03C4 	.long0x3c4
68K GAS   			page 83


 2996 03c4 14        	.uleb128 0x14
 2997 03c5 09        	.uleb128 0x9
 2998 03c6 0000 0000 	.long.LASF67
 2999 03ca 08        	.byte0x8
 3000 03cb 08        	.byte0x8
 3001 03cc 75        	.byte0x75
 3002 03cd 0000 03EA 	.long0x3ea
 3003 03d1 0A        	.uleb128 0xa
 3004 03d2 0000 0000 	.long.LASF68
 3005 03d6 08        	.byte0x8
 3006 03d7 76        	.byte0x76
 3007 03d8 0000 03EA 	.long0x3ea
 3008 03dc 00        	.byte0
 3009 03dd 0A        	.uleb128 0xa
 3010 03de 0000 0000 	.long.LASF69
 3011 03e2 08        	.byte0x8
 3012 03e3 77        	.byte0x77
 3013 03e4 0000 00DA 	.long0xda
 3014 03e8 04        	.byte0x4
 3015 03e9 00        	.byte0
 3016 03ea 0C        	.uleb128 0xc
 3017 03eb 04        	.byte0x4
 3018 03ec 0000 0025 	.long0x25
 3019 03f0 09        	.uleb128 0x9
 3020 03f1 0000 0000 	.long.LASF70
 3021 03f5 80        	.byte0x80
 3022 03f6 08        	.byte0x8
 3023 03f7 B5        	.byte0xb5
 3024 03f8 0000 051A 	.long0x51a
 3025 03fc 11        	.uleb128 0x11
 3026 03fd 5F70 00   	.string"_p"
 3027 0400 08        	.byte0x8
 3028 0401 B6        	.byte0xb6
 3029 0402 0000 03EA 	.long0x3ea
 3030 0406 00        	.byte0
 3031 0407 11        	.uleb128 0x11
 3032 0408 5F72 00   	.string"_r"
 3033 040b 08        	.byte0x8
 3034 040c B7        	.byte0xb7
 3035 040d 0000 00DA 	.long0xda
 3036 0411 04        	.byte0x4
 3037 0412 11        	.uleb128 0x11
 3038 0413 5F77 00   	.string"_w"
 3039 0416 08        	.byte0x8
 3040 0417 B8        	.byte0xb8
 3041 0418 0000 00DA 	.long0xda
 3042 041c 08        	.byte0x8
 3043 041d 0A        	.uleb128 0xa
 3044 041e 0000 0000 	.long.LASF71
 3045 0422 08        	.byte0x8
 3046 0423 B9        	.byte0xb9
 3047 0424 0000 0033 	.long0x33
 3048 0428 0C        	.byte0xc
 3049 0429 0A        	.uleb128 0xa
 3050 042a 0000 0000 	.long.LASF72
 3051 042e 08        	.byte0x8
 3052 042f BA        	.byte0xba
68K GAS   			page 84


 3053 0430 0000 0033 	.long0x33
 3054 0434 0E        	.byte0xe
 3055 0435 11        	.uleb128 0x11
 3056 0436 5F62 6600 	.string"_bf"
 3057 043a 08        	.byte0x8
 3058 043b BB        	.byte0xbb
 3059 043c 0000 03C5 	.long0x3c5
 3060 0440 10        	.byte0x10
 3061 0441 0A        	.uleb128 0xa
 3062 0442 0000 0000 	.long.LASF73
 3063 0446 08        	.byte0x8
 3064 0447 BC        	.byte0xbc
 3065 0448 0000 00DA 	.long0xda
 3066 044c 18        	.byte0x18
 3067 044d 0A        	.uleb128 0xa
 3068 044e 0000 0000 	.long.LASF74
 3069 0452 08        	.byte0x8
 3070 0453 C3        	.byte0xc3
 3071 0454 0000 00B0 	.long0xb0
 3072 0458 1C        	.byte0x1c
 3073 0459 0A        	.uleb128 0xa
 3074 045a 0000 0000 	.long.LASF75
 3075 045e 08        	.byte0x8
 3076 045f C5        	.byte0xc5
 3077 0460 0000 0651 	.long0x651
 3078 0464 20        	.byte0x20
 3079 0465 0A        	.uleb128 0xa
 3080 0466 0000 0000 	.long.LASF76
 3081 046a 08        	.byte0x8
 3082 046b C7        	.byte0xc7
 3083 046c 0000 0675 	.long0x675
 3084 0470 24        	.byte0x24
 3085 0471 0A        	.uleb128 0xa
 3086 0472 0000 0000 	.long.LASF77
 3087 0476 08        	.byte0x8
 3088 0477 CA        	.byte0xca
 3089 0478 0000 0699 	.long0x699
 3090 047c 28        	.byte0x28
 3091 047d 0A        	.uleb128 0xa
 3092 047e 0000 0000 	.long.LASF78
 3093 0482 08        	.byte0x8
 3094 0483 CB        	.byte0xcb
 3095 0484 0000 06B3 	.long0x6b3
 3096 0488 2C        	.byte0x2c
 3097 0489 11        	.uleb128 0x11
 3098 048a 5F75 6200 	.string"_ub"
 3099 048e 08        	.byte0x8
 3100 048f CE        	.byte0xce
 3101 0490 0000 03C5 	.long0x3c5
 3102 0494 30        	.byte0x30
 3103 0495 11        	.uleb128 0x11
 3104 0496 5F75 7000 	.string"_up"
 3105 049a 08        	.byte0x8
 3106 049b CF        	.byte0xcf
 3107 049c 0000 03EA 	.long0x3ea
 3108 04a0 38        	.byte0x38
 3109 04a1 11        	.uleb128 0x11
68K GAS   			page 85


 3110 04a2 5F75 7200 	.string"_ur"
 3111 04a6 08        	.byte0x8
 3112 04a7 D0        	.byte0xd0
 3113 04a8 0000 00DA 	.long0xda
 3114 04ac 3C        	.byte0x3c
 3115 04ad 0A        	.uleb128 0xa
 3116 04ae 0000 0000 	.long.LASF79
 3117 04b2 08        	.byte0x8
 3118 04b3 D3        	.byte0xd3
 3119 04b4 0000 06B9 	.long0x6b9
 3120 04b8 40        	.byte0x40
 3121 04b9 0A        	.uleb128 0xa
 3122 04ba 0000 0000 	.long.LASF80
 3123 04be 08        	.byte0x8
 3124 04bf D4        	.byte0xd4
 3125 04c0 0000 06C9 	.long0x6c9
 3126 04c4 43        	.byte0x43
 3127 04c5 11        	.uleb128 0x11
 3128 04c6 5F6C 6200 	.string"_lb"
 3129 04ca 08        	.byte0x8
 3130 04cb D7        	.byte0xd7
 3131 04cc 0000 03C5 	.long0x3c5
 3132 04d0 44        	.byte0x44
 3133 04d1 0A        	.uleb128 0xa
 3134 04d2 0000 0000 	.long.LASF81
 3135 04d6 08        	.byte0x8
 3136 04d7 DA        	.byte0xda
 3137 04d8 0000 00DA 	.long0xda
 3138 04dc 4C        	.byte0x4c
 3139 04dd 0A        	.uleb128 0xa
 3140 04de 0000 0000 	.long.LASF82
 3141 04e2 08        	.byte0x8
 3142 04e3 DB        	.byte0xdb
 3143 04e4 0000 00C4 	.long0xc4
 3144 04e8 50        	.byte0x50
 3145 04e9 0A        	.uleb128 0xa
 3146 04ea 0000 0000 	.long.LASF83
 3147 04ee 08        	.byte0x8
 3148 04ef DE        	.byte0xde
 3149 04f0 0000 0538 	.long0x538
 3150 04f4 58        	.byte0x58
 3151 04f5 0A        	.uleb128 0xa
 3152 04f6 0000 0000 	.long.LASF84
 3153 04fa 08        	.byte0x8
 3154 04fb E2        	.byte0xe2
 3155 04fc 0000 0222 	.long0x222
 3156 0500 5C        	.byte0x5c
 3157 0501 0A        	.uleb128 0xa
 3158 0502 0000 0000 	.long.LASF85
 3159 0506 08        	.byte0x8
 3160 0507 E4        	.byte0xe4
 3161 0508 0000 0217 	.long0x217
 3162 050c 74        	.byte0x74
 3163 050d 0A        	.uleb128 0xa
 3164 050e 0000 0000 	.long.LASF86
 3165 0512 08        	.byte0x8
 3166 0513 E5        	.byte0xe5
68K GAS   			page 86


 3167 0514 0000 00DA 	.long0xda
 3168 0518 7C        	.byte0x7c
 3169 0519 00        	.byte0
 3170 051a 15        	.uleb128 0x15
 3171 051b 0000 01B0 	.long0x1b0
 3172 051f 0000 0538 	.long0x538
 3173 0523 16        	.uleb128 0x16
 3174 0524 0000 0538 	.long0x538
 3175 0528 16        	.uleb128 0x16
 3176 0529 0000 00B0 	.long0xb0
 3177 052d 16        	.uleb128 0x16
 3178 052e 0000 064B 	.long0x64b
 3179 0532 16        	.uleb128 0x16
 3180 0533 0000 00DA 	.long0xda
 3181 0537 00        	.byte0
 3182 0538 0C        	.uleb128 0xc
 3183 0539 04        	.byte0x4
 3184 053a 0000 0543 	.long0x543
 3185 053e 04        	.uleb128 0x4
 3186 053f 0000 0538 	.long0x538
 3187 0543 17        	.uleb128 0x17
 3188 0544 0000 0000 	.long.LASF87
 3189 0548 0158      	.word0x158
 3190 054a 08        	.byte0x8
 3191 054b 0239      	.word0x239
 3192 054d 0000 064B 	.long0x64b
 3193 0551 18        	.uleb128 0x18
 3194 0552 0000 0000 	.long.LASF88
 3195 0556 08        	.byte0x8
 3196 0557 023B      	.word0x23b
 3197 0559 0000 00DA 	.long0xda
 3198 055d 00        	.byte0
 3199 055e 18        	.uleb128 0x18
 3200 055f 0000 0000 	.long.LASF89
 3201 0563 08        	.byte0x8
 3202 0564 0240      	.word0x240
 3203 0566 0000 0720 	.long0x720
 3204 056a 04        	.byte0x4
 3205 056b 18        	.uleb128 0x18
 3206 056c 0000 0000 	.long.LASF90
 3207 0570 08        	.byte0x8
 3208 0571 0240      	.word0x240
 3209 0573 0000 0720 	.long0x720
 3210 0577 08        	.byte0x8
 3211 0578 18        	.uleb128 0x18
 3212 0579 0000 0000 	.long.LASF91
 3213 057d 08        	.byte0x8
 3214 057e 0240      	.word0x240
 3215 0580 0000 0720 	.long0x720
 3216 0584 0C        	.byte0xc
 3217 0585 18        	.uleb128 0x18
 3218 0586 0000 0000 	.long.LASF92
 3219 058a 08        	.byte0x8
 3220 058b 0242      	.word0x242
 3221 058d 0000 00DA 	.long0xda
 3222 0591 10        	.byte0x10
 3223 0592 18        	.uleb128 0x18
68K GAS   			page 87


 3224 0593 0000 0000 	.long.LASF93
 3225 0597 08        	.byte0x8
 3226 0598 0243      	.word0x243
 3227 059a 0000 0902 	.long0x902
 3228 059e 14        	.byte0x14
 3229 059f 18        	.uleb128 0x18
 3230 05a0 0000 0000 	.long.LASF94
 3231 05a4 08        	.byte0x8
 3232 05a5 0246      	.word0x246
 3233 05a7 0000 00DA 	.long0xda
 3234 05ab 30        	.byte0x30
 3235 05ac 18        	.uleb128 0x18
 3236 05ad 0000 0000 	.long.LASF95
 3237 05b1 08        	.byte0x8
 3238 05b2 0247      	.word0x247
 3239 05b4 0000 0917 	.long0x917
 3240 05b8 34        	.byte0x34
 3241 05b9 18        	.uleb128 0x18
 3242 05ba 0000 0000 	.long.LASF96
 3243 05be 08        	.byte0x8
 3244 05bf 0249      	.word0x249
 3245 05c1 0000 00DA 	.long0xda
 3246 05c5 38        	.byte0x38
 3247 05c6 18        	.uleb128 0x18
 3248 05c7 0000 0000 	.long.LASF97
 3249 05cb 08        	.byte0x8
 3250 05cc 024B      	.word0x24b
 3251 05ce 0000 0928 	.long0x928
 3252 05d2 3C        	.byte0x3c
 3253 05d3 18        	.uleb128 0x18
 3254 05d4 0000 0000 	.long.LASF98
 3255 05d8 08        	.byte0x8
 3256 05d9 024E      	.word0x24e
 3257 05db 0000 028B 	.long0x28b
 3258 05df 40        	.byte0x40
 3259 05e0 18        	.uleb128 0x18
 3260 05e1 0000 0000 	.long.LASF99
 3261 05e5 08        	.byte0x8
 3262 05e6 024F      	.word0x24f
 3263 05e8 0000 00DA 	.long0xda
 3264 05ec 44        	.byte0x44
 3265 05ed 18        	.uleb128 0x18
 3266 05ee 0000 0000 	.long.LASF100
 3267 05f2 08        	.byte0x8
 3268 05f3 0250      	.word0x250
 3269 05f5 0000 028B 	.long0x28b
 3270 05f9 48        	.byte0x48
 3271 05fa 18        	.uleb128 0x18
 3272 05fb 0000 0000 	.long.LASF101
 3273 05ff 08        	.byte0x8
 3274 0600 0251      	.word0x251
 3275 0602 0000 092E 	.long0x92e
 3276 0606 4C        	.byte0x4c
 3277 0607 18        	.uleb128 0x18
 3278 0608 0000 0000 	.long.LASF102
 3279 060c 08        	.byte0x8
 3280 060d 0254      	.word0x254
68K GAS   			page 88


 3281 060f 0000 00DA 	.long0xda
 3282 0613 50        	.byte0x50
 3283 0614 18        	.uleb128 0x18
 3284 0615 0000 0000 	.long.LASF103
 3285 0619 08        	.byte0x8
 3286 061a 0255      	.word0x255
 3287 061c 0000 064B 	.long0x64b
 3288 0620 54        	.byte0x54
 3289 0621 18        	.uleb128 0x18
 3290 0622 0000 0000 	.long.LASF104
 3291 0626 08        	.byte0x8
 3292 0627 0278      	.word0x278
 3293 0629 0000 08E0 	.long0x8e0
 3294 062d 58        	.byte0x58
 3295 062e 19        	.uleb128 0x19
 3296 062f 0000 0000 	.long.LASF105
 3297 0633 08        	.byte0x8
 3298 0634 0281      	.word0x281
 3299 0636 0000 093F 	.long0x93f
 3300 063a 0148      	.word0x148
 3301 063c 19        	.uleb128 0x19
 3302 063d 0000 0000 	.long.LASF106
 3303 0641 08        	.byte0x8
 3304 0642 0286      	.word0x286
 3305 0644 0000 06E5 	.long0x6e5
 3306 0648 014C      	.word0x14c
 3307 064a 00        	.byte0
 3308 064b 0C        	.uleb128 0xc
 3309 064c 04        	.byte0x4
 3310 064d 0000 0094 	.long0x94
 3311 0651 0C        	.uleb128 0xc
 3312 0652 04        	.byte0x4
 3313 0653 0000 051A 	.long0x51a
 3314 0657 15        	.uleb128 0x15
 3315 0658 0000 01B0 	.long0x1b0
 3316 065c 0000 0675 	.long0x675
 3317 0660 16        	.uleb128 0x16
 3318 0661 0000 0538 	.long0x538
 3319 0665 16        	.uleb128 0x16
 3320 0666 0000 00B0 	.long0xb0
 3321 066a 16        	.uleb128 0x16
 3322 066b 0000 0160 	.long0x160
 3323 066f 16        	.uleb128 0x16
 3324 0670 0000 00DA 	.long0xda
 3325 0674 00        	.byte0
 3326 0675 0C        	.uleb128 0xc
 3327 0676 04        	.byte0x4
 3328 0677 0000 0657 	.long0x657
 3329 067b 15        	.uleb128 0x15
 3330 067c 0000 00CF 	.long0xcf
 3331 0680 0000 0699 	.long0x699
 3332 0684 16        	.uleb128 0x16
 3333 0685 0000 0538 	.long0x538
 3334 0689 16        	.uleb128 0x16
 3335 068a 0000 00B0 	.long0xb0
 3336 068e 16        	.uleb128 0x16
 3337 068f 0000 00CF 	.long0xcf
68K GAS   			page 89


 3338 0693 16        	.uleb128 0x16
 3339 0694 0000 00DA 	.long0xda
 3340 0698 00        	.byte0
 3341 0699 0C        	.uleb128 0xc
 3342 069a 04        	.byte0x4
 3343 069b 0000 067B 	.long0x67b
 3344 069f 15        	.uleb128 0x15
 3345 06a0 0000 00DA 	.long0xda
 3346 06a4 0000 06B3 	.long0x6b3
 3347 06a8 16        	.uleb128 0x16
 3348 06a9 0000 0538 	.long0x538
 3349 06ad 16        	.uleb128 0x16
 3350 06ae 0000 00B0 	.long0xb0
 3351 06b2 00        	.byte0
 3352 06b3 0C        	.uleb128 0xc
 3353 06b4 04        	.byte0x4
 3354 06b5 0000 069F 	.long0x69f
 3355 06b9 05        	.uleb128 0x5
 3356 06ba 0000 0025 	.long0x25
 3357 06be 0000 06C9 	.long0x6c9
 3358 06c2 06        	.uleb128 0x6
 3359 06c3 0000 007B 	.long0x7b
 3360 06c7 02        	.byte0x2
 3361 06c8 00        	.byte0
 3362 06c9 05        	.uleb128 0x5
 3363 06ca 0000 0025 	.long0x25
 3364 06ce 0000 06D9 	.long0x6d9
 3365 06d2 06        	.uleb128 0x6
 3366 06d3 0000 007B 	.long0x7b
 3367 06d7 00        	.byte0
 3368 06d8 00        	.byte0
 3369 06d9 0D        	.uleb128 0xd
 3370 06da 0000 0000 	.long.LASF107
 3371 06de 08        	.byte0x8
 3372 06df 011F      	.word0x11f
 3373 06e1 0000 03F0 	.long0x3f0
 3374 06e5 1A        	.uleb128 0x1a
 3375 06e6 0000 0000 	.long.LASF108
 3376 06ea 0C        	.byte0xc
 3377 06eb 08        	.byte0x8
 3378 06ec 0123      	.word0x123
 3379 06ee 0000 071A 	.long0x71a
 3380 06f2 18        	.uleb128 0x18
 3381 06f3 0000 0000 	.long.LASF45
 3382 06f7 08        	.byte0x8
 3383 06f8 0125      	.word0x125
 3384 06fa 0000 071A 	.long0x71a
 3385 06fe 00        	.byte0
 3386 06ff 18        	.uleb128 0x18
 3387 0700 0000 0000 	.long.LASF109
 3388 0704 08        	.byte0x8
 3389 0705 0126      	.word0x126
 3390 0707 0000 00DA 	.long0xda
 3391 070b 04        	.byte0x4
 3392 070c 18        	.uleb128 0x18
 3393 070d 0000 0000 	.long.LASF110
 3394 0711 08        	.byte0x8
68K GAS   			page 90


 3395 0712 0127      	.word0x127
 3396 0714 0000 0720 	.long0x720
 3397 0718 08        	.byte0x8
 3398 0719 00        	.byte0
 3399 071a 0C        	.uleb128 0xc
 3400 071b 04        	.byte0x4
 3401 071c 0000 06E5 	.long0x6e5
 3402 0720 0C        	.uleb128 0xc
 3403 0721 04        	.byte0x4
 3404 0722 0000 06D9 	.long0x6d9
 3405 0726 1A        	.uleb128 0x1a
 3406 0727 0000 0000 	.long.LASF111
 3407 072b 0E        	.byte0xe
 3408 072c 08        	.byte0x8
 3409 072d 013F      	.word0x13f
 3410 072f 0000 075B 	.long0x75b
 3411 0733 18        	.uleb128 0x18
 3412 0734 0000 0000 	.long.LASF112
 3413 0738 08        	.byte0x8
 3414 0739 0140      	.word0x140
 3415 073b 0000 075B 	.long0x75b
 3416 073f 00        	.byte0
 3417 0740 18        	.uleb128 0x18
 3418 0741 0000 0000 	.long.LASF113
 3419 0745 08        	.byte0x8
 3420 0746 0141      	.word0x141
 3421 0748 0000 075B 	.long0x75b
 3422 074c 06        	.byte0x6
 3423 074d 18        	.uleb128 0x18
 3424 074e 0000 0000 	.long.LASF114
 3425 0752 08        	.byte0x8
 3426 0753 0142      	.word0x142
 3427 0755 0000 0069 	.long0x69
 3428 0759 0C        	.byte0xc
 3429 075a 00        	.byte0
 3430 075b 05        	.uleb128 0x5
 3431 075c 0000 0069 	.long0x69
 3432 0760 0000 076B 	.long0x76b
 3433 0764 06        	.uleb128 0x6
 3434 0765 0000 007B 	.long0x7b
 3435 0769 02        	.byte0x2
 3436 076a 00        	.byte0
 3437 076b 1B        	.uleb128 0x1b
 3438 076c CC        	.byte0xcc
 3439 076d 08        	.byte0x8
 3440 076e 0259      	.word0x259
 3441 0770 0000 086C 	.long0x86c
 3442 0774 18        	.uleb128 0x18
 3443 0775 0000 0000 	.long.LASF115
 3444 0779 08        	.byte0x8
 3445 077a 025B      	.word0x25b
 3446 077c 0000 0106 	.long0x106
 3447 0780 00        	.byte0
 3448 0781 18        	.uleb128 0x18
 3449 0782 0000 0000 	.long.LASF116
 3450 0786 08        	.byte0x8
 3451 0787 025C      	.word0x25c
68K GAS   			page 91


 3452 0789 0000 064B 	.long0x64b
 3453 078d 04        	.byte0x4
 3454 078e 18        	.uleb128 0x18
 3455 078f 0000 0000 	.long.LASF117
 3456 0793 08        	.byte0x8
 3457 0794 025D      	.word0x25d
 3458 0796 0000 086C 	.long0x86c
 3459 079a 08        	.byte0x8
 3460 079b 18        	.uleb128 0x18
 3461 079c 0000 0000 	.long.LASF118
 3462 07a0 08        	.byte0x8
 3463 07a1 025E      	.word0x25e
 3464 07a3 0000 02A1 	.long0x2a1
 3465 07a7 24        	.byte0x24
 3466 07a8 18        	.uleb128 0x18
 3467 07a9 0000 0000 	.long.LASF119
 3468 07ad 08        	.byte0x8
 3469 07ae 025F      	.word0x25f
 3470 07b0 0000 00DA 	.long0xda
 3471 07b4 48        	.byte0x48
 3472 07b5 18        	.uleb128 0x18
 3473 07b6 0000 0000 	.long.LASF120
 3474 07ba 08        	.byte0x8
 3475 07bb 0260      	.word0x260
 3476 07bd 0000 0082 	.long0x82
 3477 07c1 4C        	.byte0x4c
 3478 07c2 18        	.uleb128 0x18
 3479 07c3 0000 0000 	.long.LASF121
 3480 07c7 08        	.byte0x8
 3481 07c8 0261      	.word0x261
 3482 07ca 0000 0726 	.long0x726
 3483 07ce 54        	.byte0x54
 3484 07cf 18        	.uleb128 0x18
 3485 07d0 0000 0000 	.long.LASF122
 3486 07d4 08        	.byte0x8
 3487 07d5 0262      	.word0x262
 3488 07d7 0000 0217 	.long0x217
 3489 07db 64        	.byte0x64
 3490 07dc 18        	.uleb128 0x18
 3491 07dd 0000 0000 	.long.LASF123
 3492 07e1 08        	.byte0x8
 3493 07e2 0263      	.word0x263
 3494 07e4 0000 0217 	.long0x217
 3495 07e8 6C        	.byte0x6c
 3496 07e9 18        	.uleb128 0x18
 3497 07ea 0000 0000 	.long.LASF124
 3498 07ee 08        	.byte0x8
 3499 07ef 0264      	.word0x264
 3500 07f1 0000 0217 	.long0x217
 3501 07f5 74        	.byte0x74
 3502 07f6 18        	.uleb128 0x18
 3503 07f7 0000 0000 	.long.LASF125
 3504 07fb 08        	.byte0x8
 3505 07fc 0265      	.word0x265
 3506 07fe 0000 087C 	.long0x87c
 3507 0802 7C        	.byte0x7c
 3508 0803 18        	.uleb128 0x18
68K GAS   			page 92


 3509 0804 0000 0000 	.long.LASF126
 3510 0808 08        	.byte0x8
 3511 0809 0266      	.word0x266
 3512 080b 0000 088C 	.long0x88c
 3513 080f 84        	.byte0x84
 3514 0810 18        	.uleb128 0x18
 3515 0811 0000 0000 	.long.LASF127
 3516 0815 08        	.byte0x8
 3517 0816 0267      	.word0x267
 3518 0818 0000 00DA 	.long0xda
 3519 081c 9C        	.byte0x9c
 3520 081d 18        	.uleb128 0x18
 3521 081e 0000 0000 	.long.LASF128
 3522 0822 08        	.byte0x8
 3523 0823 0268      	.word0x268
 3524 0825 0000 0217 	.long0x217
 3525 0829 A0        	.byte0xa0
 3526 082a 18        	.uleb128 0x18
 3527 082b 0000 0000 	.long.LASF129
 3528 082f 08        	.byte0x8
 3529 0830 0269      	.word0x269
 3530 0832 0000 0217 	.long0x217
 3531 0836 A8        	.byte0xa8
 3532 0837 18        	.uleb128 0x18
 3533 0838 0000 0000 	.long.LASF130
 3534 083c 08        	.byte0x8
 3535 083d 026A      	.word0x26a
 3536 083f 0000 0217 	.long0x217
 3537 0843 B0        	.byte0xb0
 3538 0844 18        	.uleb128 0x18
 3539 0845 0000 0000 	.long.LASF131
 3540 0849 08        	.byte0x8
 3541 084a 026B      	.word0x26b
 3542 084c 0000 0217 	.long0x217
 3543 0850 B8        	.byte0xb8
 3544 0851 18        	.uleb128 0x18
 3545 0852 0000 0000 	.long.LASF132
 3546 0856 08        	.byte0x8
 3547 0857 026C      	.word0x26c
 3548 0859 0000 0217 	.long0x217
 3549 085d C0        	.byte0xc0
 3550 085e 18        	.uleb128 0x18
 3551 085f 0000 0000 	.long.LASF133
 3552 0863 08        	.byte0x8
 3553 0864 026D      	.word0x26d
 3554 0866 0000 00DA 	.long0xda
 3555 086a C8        	.byte0xc8
 3556 086b 00        	.byte0
 3557 086c 05        	.uleb128 0x5
 3558 086d 0000 0094 	.long0x94
 3559 0871 0000 087C 	.long0x87c
 3560 0875 06        	.uleb128 0x6
 3561 0876 0000 007B 	.long0x7b
 3562 087a 19        	.byte0x19
 3563 087b 00        	.byte0
 3564 087c 05        	.uleb128 0x5
 3565 087d 0000 0094 	.long0x94
68K GAS   			page 93


 3566 0881 0000 088C 	.long0x88c
 3567 0885 06        	.uleb128 0x6
 3568 0886 0000 007B 	.long0x7b
 3569 088a 07        	.byte0x7
 3570 088b 00        	.byte0
 3571 088c 05        	.uleb128 0x5
 3572 088d 0000 0094 	.long0x94
 3573 0891 0000 089C 	.long0x89c
 3574 0895 06        	.uleb128 0x6
 3575 0896 0000 007B 	.long0x7b
 3576 089a 17        	.byte0x17
 3577 089b 00        	.byte0
 3578 089c 1B        	.uleb128 0x1b
 3579 089d F0        	.byte0xf0
 3580 089e 08        	.byte0x8
 3581 089f 0272      	.word0x272
 3582 08a1 0000 08C0 	.long0x8c0
 3583 08a5 18        	.uleb128 0x18
 3584 08a6 0000 0000 	.long.LASF134
 3585 08aa 08        	.byte0x8
 3586 08ab 0275      	.word0x275
 3587 08ad 0000 08C0 	.long0x8c0
 3588 08b1 00        	.byte0
 3589 08b2 18        	.uleb128 0x18
 3590 08b3 0000 0000 	.long.LASF135
 3591 08b7 08        	.byte0x8
 3592 08b8 0276      	.word0x276
 3593 08ba 0000 08D0 	.long0x8d0
 3594 08be 78        	.byte0x78
 3595 08bf 00        	.byte0
 3596 08c0 05        	.uleb128 0x5
 3597 08c1 0000 03EA 	.long0x3ea
 3598 08c5 0000 08D0 	.long0x8d0
 3599 08c9 06        	.uleb128 0x6
 3600 08ca 0000 007B 	.long0x7b
 3601 08ce 1D        	.byte0x1d
 3602 08cf 00        	.byte0
 3603 08d0 05        	.uleb128 0x5
 3604 08d1 0000 0106 	.long0x106
 3605 08d5 0000 08E0 	.long0x8e0
 3606 08d9 06        	.uleb128 0x6
 3607 08da 0000 007B 	.long0x7b
 3608 08de 1D        	.byte0x1d
 3609 08df 00        	.byte0
 3610 08e0 1C        	.uleb128 0x1c
 3611 08e1 F0        	.byte0xf0
 3612 08e2 08        	.byte0x8
 3613 08e3 0257      	.word0x257
 3614 08e5 0000 0902 	.long0x902
 3615 08e9 1D        	.uleb128 0x1d
 3616 08ea 0000 0000 	.long.LASF87
 3617 08ee 08        	.byte0x8
 3618 08ef 026E      	.word0x26e
 3619 08f1 0000 076B 	.long0x76b
 3620 08f5 1D        	.uleb128 0x1d
 3621 08f6 0000 0000 	.long.LASF136
 3622 08fa 08        	.byte0x8
68K GAS   			page 94


 3623 08fb 0277      	.word0x277
 3624 08fd 0000 089C 	.long0x89c
 3625 0901 00        	.byte0
 3626 0902 05        	.uleb128 0x5
 3627 0903 0000 0094 	.long0x94
 3628 0907 0000 0912 	.long0x912
 3629 090b 06        	.uleb128 0x6
 3630 090c 0000 007B 	.long0x7b
 3631 0910 18        	.byte0x18
 3632 0911 00        	.byte0
 3633 0912 0B        	.uleb128 0xb
 3634 0913 0000 0000 	.long.LASF137
 3635 0917 0C        	.uleb128 0xc
 3636 0918 04        	.byte0x4
 3637 0919 0000 0912 	.long0x912
 3638 091d 1E        	.uleb128 0x1e
 3639 091e 0000 0928 	.long0x928
 3640 0922 16        	.uleb128 0x16
 3641 0923 0000 0538 	.long0x538
 3642 0927 00        	.byte0
 3643 0928 0C        	.uleb128 0xc
 3644 0929 04        	.byte0x4
 3645 092a 0000 091D 	.long0x91d
 3646 092e 0C        	.uleb128 0xc
 3647 092f 04        	.byte0x4
 3648 0930 0000 028B 	.long0x28b
 3649 0934 1E        	.uleb128 0x1e
 3650 0935 0000 093F 	.long0x93f
 3651 0939 16        	.uleb128 0x16
 3652 093a 0000 00DA 	.long0xda
 3653 093e 00        	.byte0
 3654 093f 0C        	.uleb128 0xc
 3655 0940 04        	.byte0x4
 3656 0941 0000 0945 	.long0x945
 3657 0945 0C        	.uleb128 0xc
 3658 0946 04        	.byte0x4
 3659 0947 0000 0934 	.long0x934
 3660 094b 05        	.uleb128 0x5
 3661 094c 0000 06D9 	.long0x6d9
 3662 0950 0000 095B 	.long0x95b
 3663 0954 06        	.uleb128 0x6
 3664 0955 0000 007B 	.long0x7b
 3665 0959 02        	.byte0x2
 3666 095a 00        	.byte0
 3667 095b 1F        	.uleb128 0x1f
 3668 095c 0000 0000 	.long.LASF138
 3669 0960 08        	.byte0x8
 3670 0961 028D      	.word0x28d
 3671 0963 0000 094B 	.long0x94b
 3672 0967 1F        	.uleb128 0x1f
 3673 0968 0000 0000 	.long.LASF139
 3674 096c 08        	.byte0x8
 3675 096d 0307      	.word0x307
 3676 096f 0000 0538 	.long0x538
 3677 0973 1F        	.uleb128 0x1f
 3678 0974 0000 0000 	.long.LASF140
 3679 0978 08        	.byte0x8
68K GAS   			page 95


 3680 0979 0308      	.word0x308
 3681 097b 0000 053E 	.long0x53e
 3682 097f 1F        	.uleb128 0x1f
 3683 0980 0000 0000 	.long.LASF141
 3684 0984 08        	.byte0x8
 3685 0985 031A      	.word0x31a
 3686 0987 0000 03A8 	.long0x3a8
 3687 098b 20        	.uleb128 0x20
 3688 098c 0000 0000 	.long.LASF142
 3689 0990 09        	.byte0x9
 3690 0991 63        	.byte0x63
 3691 0992 0000 064B 	.long0x64b
 3692 0996 20        	.uleb128 0x20
 3693 0997 0000 0000 	.long.LASF143
 3694 099b 0A        	.byte0xa
 3695 099c 9A        	.byte0x9a
 3696 099d 0000 0045 	.long0x45
 3697 09a1 20        	.uleb128 0x20
 3698 09a2 0000 0000 	.long.LASF144
 3699 09a6 0A        	.byte0xa
 3700 09a7 9B        	.byte0x9b
 3701 09a8 0000 00DA 	.long0xda
 3702 09ac 05        	.uleb128 0x5
 3703 09ad 0000 064B 	.long0x64b
 3704 09b1 0000 09BC 	.long0x9bc
 3705 09b5 06        	.uleb128 0x6
 3706 09b6 0000 007B 	.long0x7b
 3707 09ba 01        	.byte0x1
 3708 09bb 00        	.byte0
 3709 09bc 20        	.uleb128 0x20
 3710 09bd 0000 0000 	.long.LASF145
 3711 09c1 0A        	.byte0xa
 3712 09c2 9E        	.byte0x9e
 3713 09c3 0000 09AC 	.long0x9ac
 3714 09c7 05        	.uleb128 0x5
 3715 09c8 0000 0094 	.long0x94
 3716 09cc 0000 09D7 	.long0x9d7
 3717 09d0 06        	.uleb128 0x6
 3718 09d1 0000 007B 	.long0x7b
 3719 09d5 1F        	.byte0x1f
 3720 09d6 00        	.byte0
 3721 09d7 05        	.uleb128 0x5
 3722 09d8 0000 0094 	.long0x94
 3723 09dc 0000 09E7 	.long0x9e7
 3724 09e0 06        	.uleb128 0x6
 3725 09e1 0000 007B 	.long0x7b
 3726 09e5 3F        	.byte0x3f
 3727 09e6 00        	.byte0
 3728 09e7 05        	.uleb128 0x5
 3729 09e8 0000 0070 	.long0x70
 3730 09ec 0000 09F7 	.long0x9f7
 3731 09f0 06        	.uleb128 0x6
 3732 09f1 0000 007B 	.long0x7b
 3733 09f5 1F        	.byte0x1f
 3734 09f6 00        	.byte0
 3735 09f7 10        	.uleb128 0x10
 3736 09f8 06        	.byte0x6
68K GAS   			page 96


 3737 09f9 0B        	.byte0xb
 3738 09fa 58        	.byte0x58
 3739 09fb 0000 0A24 	.long0xa24
 3740 09ff 0A        	.uleb128 0xa
 3741 0a00 0000 0000 	.long.LASF146
 3742 0a04 0B        	.byte0xb
 3743 0a05 5A        	.byte0x5a
 3744 0a06 0000 0A24 	.long0xa24
 3745 0a0a 00        	.byte0
 3746 0a0b 0A        	.uleb128 0xa
 3747 0a0c 0000 0000 	.long.LASF147
 3748 0a10 0B        	.byte0xb
 3749 0a11 61        	.byte0x61
 3750 0a12 0000 0A24 	.long0xa24
 3751 0a16 02        	.byte0x2
 3752 0a17 0A        	.uleb128 0xa
 3753 0a18 0000 0000 	.long.LASF148
 3754 0a1c 0B        	.byte0xb
 3755 0a1d 66        	.byte0x66
 3756 0a1e 0000 0A24 	.long0xa24
 3757 0a22 04        	.byte0x4
 3758 0a23 00        	.byte0
 3759 0a24 05        	.uleb128 0x5
 3760 0a25 0000 0053 	.long0x53
 3761 0a29 0000 0A34 	.long0xa34
 3762 0a2d 06        	.uleb128 0x6
 3763 0a2e 0000 007B 	.long0x7b
 3764 0a32 01        	.byte0x1
 3765 0a33 00        	.byte0
 3766 0a34 03        	.uleb128 0x3
 3767 0a35 0000 0000 	.long.LASF149
 3768 0a39 0B        	.byte0xb
 3769 0a3a 6A        	.byte0x6a
 3770 0a3b 0000 09F7 	.long0x9f7
 3771 0a3f 10        	.uleb128 0x10
 3772 0a40 06        	.byte0x6
 3773 0a41 0B        	.byte0xb
 3774 0a42 7A        	.byte0x7a
 3775 0a43 0000 0A54 	.long0xa54
 3776 0a47 0A        	.uleb128 0xa
 3777 0a48 0000 0000 	.long.LASF150
 3778 0a4c 0B        	.byte0xb
 3779 0a4d 7C        	.byte0x7c
 3780 0a4e 0000 0A54 	.long0xa54
 3781 0a52 00        	.byte0
 3782 0a53 00        	.byte0
 3783 0a54 05        	.uleb128 0x5
 3784 0a55 0000 0053 	.long0x53
 3785 0a59 0000 0A64 	.long0xa64
 3786 0a5d 06        	.uleb128 0x6
 3787 0a5e 0000 007B 	.long0x7b
 3788 0a62 05        	.byte0x5
 3789 0a63 00        	.byte0
 3790 0a64 03        	.uleb128 0x3
 3791 0a65 0000 0000 	.long.LASF151
 3792 0a69 0B        	.byte0xb
 3793 0a6a 7E        	.byte0x7e
68K GAS   			page 97


 3794 0a6b 0000 0A3F 	.long0xa3f
 3795 0a6f 0E        	.uleb128 0xe
 3796 0a70 08        	.byte0x8
 3797 0a71 0C        	.byte0xc
 3798 0a72 75        	.byte0x75
 3799 0a73 0000 0A99 	.long0xa99
 3800 0a77 21        	.uleb128 0x21
 3801 0a78 4864 7200 	.string"Hdr"
 3802 0a7c 0C        	.byte0xc
 3803 0a7d 76        	.byte0x76
 3804 0a7e 0000 0A34 	.long0xa34
 3805 0a82 0F        	.uleb128 0xf
 3806 0a83 0000 0000 	.long.LASF152
 3807 0a87 0C        	.byte0xc
 3808 0a88 77        	.byte0x77
 3809 0a89 0000 0070 	.long0x70
 3810 0a8d 0F        	.uleb128 0xf
 3811 0a8e 0000 0000 	.long.LASF153
 3812 0a92 0C        	.byte0xc
 3813 0a93 78        	.byte0x78
 3814 0a94 0000 0A54 	.long0xa54
 3815 0a98 00        	.byte0
 3816 0a99 03        	.uleb128 0x3
 3817 0a9a 0000 0000 	.long.LASF154
 3818 0a9e 0C        	.byte0xc
 3819 0a9f 79        	.byte0x79
 3820 0aa0 0000 0A6F 	.long0xa6f
 3821 0aa4 10        	.uleb128 0x10
 3822 0aa5 0C        	.byte0xc
 3823 0aa6 0C        	.byte0xc
 3824 0aa7 82        	.byte0x82
 3825 0aa8 0000 0AC5 	.long0xac5
 3826 0aac 11        	.uleb128 0x11
 3827 0aad 5072 6900 	.string"Pri"
 3828 0ab1 0C        	.byte0xc
 3829 0ab2 83        	.byte0x83
 3830 0ab3 0000 0A34 	.long0xa34
 3831 0ab7 00        	.byte0
 3832 0ab8 11        	.uleb128 0x11
 3833 0ab9 5365 6300 	.string"Sec"
 3834 0abd 0C        	.byte0xc
 3835 0abe 84        	.byte0x84
 3836 0abf 0000 0A64 	.long0xa64
 3837 0ac3 06        	.byte0x6
 3838 0ac4 00        	.byte0
 3839 0ac5 03        	.uleb128 0x3
 3840 0ac6 0000 0000 	.long.LASF155
 3841 0aca 0C        	.byte0xc
 3842 0acb 85        	.byte0x85
 3843 0acc 0000 0AA4 	.long0xaa4
 3844 0ad0 03        	.uleb128 0x3
 3845 0ad1 0000 0000 	.long.LASF156
 3846 0ad5 0C        	.byte0xc
 3847 0ad6 98        	.byte0x98
 3848 0ad7 0000 0053 	.long0x53
 3849 0adb 03        	.uleb128 0x3
 3850 0adc 0000 0000 	.long.LASF157
68K GAS   			page 98


 3851 0ae0 0C        	.byte0xc
 3852 0ae1 9E        	.byte0x9e
 3853 0ae2 0000 005E 	.long0x5e
 3854 0ae6 0C        	.uleb128 0xc
 3855 0ae7 04        	.byte0x4
 3856 0ae8 0000 0A99 	.long0xa99
 3857 0aec 03        	.uleb128 0x3
 3858 0aed 0000 0000 	.long.LASF158
 3859 0af1 0C        	.byte0xc
 3860 0af2 A4        	.byte0xa4
 3861 0af3 0000 0AF7 	.long0xaf7
 3862 0af7 0C        	.uleb128 0xc
 3863 0af8 04        	.byte0x4
 3864 0af9 0000 0053 	.long0x53
 3865 0afd 10        	.uleb128 0x10
 3866 0afe 02        	.byte0x2
 3867 0aff 0C        	.byte0xc
 3868 0b00 B1        	.byte0xb1
 3869 0b01 0000 0B1E 	.long0xb1e
 3870 0b05 0A        	.uleb128 0xa
 3871 0b06 0000 0000 	.long.LASF159
 3872 0b0a 0C        	.byte0xc
 3873 0b0b B2        	.byte0xb2
 3874 0b0c 0000 0053 	.long0x53
 3875 0b10 00        	.byte0
 3876 0b11 0A        	.uleb128 0xa
 3877 0b12 0000 0000 	.long.LASF160
 3878 0b16 0C        	.byte0xc
 3879 0b17 B3        	.byte0xb3
 3880 0b18 0000 0053 	.long0x53
 3881 0b1c 01        	.byte0x1
 3882 0b1d 00        	.byte0
 3883 0b1e 03        	.uleb128 0x3
 3884 0b1f 0000 0000 	.long.LASF161
 3885 0b23 0C        	.byte0xc
 3886 0b24 B4        	.byte0xb4
 3887 0b25 0000 0AFD 	.long0xafd
 3888 0b29 20        	.uleb128 0x20
 3889 0b2a 0000 0000 	.long.LASF162
 3890 0b2e 0C        	.byte0xc
 3891 0b2f B6        	.byte0xb6
 3892 0b30 0000 0B1E 	.long0xb1e
 3893 0b34 10        	.uleb128 0x10
 3894 0b35 18        	.byte0x18
 3895 0b36 0C        	.byte0xc
 3896 0b37 BE        	.byte0xbe
 3897 0b38 0000 0B55 	.long0xb55
 3898 0b3c 0A        	.uleb128 0xa
 3899 0b3d 0000 0000 	.long.LASF163
 3900 0b41 0C        	.byte0xc
 3901 0b42 BF        	.byte0xbf
 3902 0b43 0000 0070 	.long0x70
 3903 0b47 00        	.byte0
 3904 0b48 0A        	.uleb128 0xa
 3905 0b49 0000 0000 	.long.LASF164
 3906 0b4d 0C        	.byte0xc
 3907 0b4e C0        	.byte0xc0
68K GAS   			page 99


 3908 0b4f 0000 00A0 	.long0xa0
 3909 0b53 04        	.byte0x4
 3910 0b54 00        	.byte0
 3911 0b55 03        	.uleb128 0x3
 3912 0b56 0000 0000 	.long.LASF165
 3913 0b5a 0C        	.byte0xc
 3914 0b5b C1        	.byte0xc1
 3915 0b5c 0000 0B34 	.long0xb34
 3916 0b60 0D        	.uleb128 0xd
 3917 0b61 0000 0000 	.long.LASF166
 3918 0b65 0D        	.byte0xd
 3919 0b66 0103      	.word0x103
 3920 0b68 0000 0089 	.long0x89
 3921 0b6c 10        	.uleb128 0x10
 3922 0b6d 04        	.byte0x4
 3923 0b6e 0E        	.byte0xe
 3924 0b6f 89        	.byte0x89
 3925 0b70 0000 0B8D 	.long0xb8d
 3926 0b74 0A        	.uleb128 0xa
 3927 0b75 0000 0000 	.long.LASF167
 3928 0b79 0E        	.byte0xe
 3929 0b7a 8A        	.byte0x8a
 3930 0b7b 0000 005E 	.long0x5e
 3931 0b7f 00        	.byte0
 3932 0b80 0A        	.uleb128 0xa
 3933 0b81 0000 0000 	.long.LASF168
 3934 0b85 0E        	.byte0xe
 3935 0b86 8B        	.byte0x8b
 3936 0b87 0000 005E 	.long0x5e
 3937 0b8b 02        	.byte0x2
 3938 0b8c 00        	.byte0
 3939 0b8d 03        	.uleb128 0x3
 3940 0b8e 0000 0000 	.long.LASF169
 3941 0b92 0E        	.byte0xe
 3942 0b93 8D        	.byte0x8d
 3943 0b94 0000 0B6C 	.long0xb6c
 3944 0b98 10        	.uleb128 0x10
 3945 0b99 40        	.byte0x40
 3946 0b9a 0F        	.byte0xf
 3947 0b9b 8B        	.byte0x8b
 3948 0b9c 0000 0C0D 	.long0xc0d
 3949 0ba0 0A        	.uleb128 0xa
 3950 0ba1 0000 0000 	.long.LASF170
 3951 0ba5 0F        	.byte0xf
 3952 0ba6 8D        	.byte0x8d
 3953 0ba7 0000 0070 	.long0x70
 3954 0bab 00        	.byte0
 3955 0bac 0A        	.uleb128 0xa
 3956 0bad 0000 0000 	.long.LASF171
 3957 0bb1 0F        	.byte0xf
 3958 0bb2 8E        	.byte0x8e
 3959 0bb3 0000 0070 	.long0x70
 3960 0bb7 04        	.byte0x4
 3961 0bb8 0A        	.uleb128 0xa
 3962 0bb9 0000 0000 	.long.LASF148
 3963 0bbd 0F        	.byte0xf
 3964 0bbe 91        	.byte0x91
68K GAS   			page 100


 3965 0bbf 0000 0070 	.long0x70
 3966 0bc3 08        	.byte0x8
 3967 0bc4 0A        	.uleb128 0xa
 3968 0bc5 0000 0000 	.long.LASF172
 3969 0bc9 0F        	.byte0xf
 3970 0bca 92        	.byte0x92
 3971 0bcb 0000 0070 	.long0x70
 3972 0bcf 0C        	.byte0xc
 3973 0bd0 0A        	.uleb128 0xa
 3974 0bd1 0000 0000 	.long.LASF173
 3975 0bd5 0F        	.byte0xf
 3976 0bd6 93        	.byte0x93
 3977 0bd7 0000 0070 	.long0x70
 3978 0bdb 10        	.byte0x10
 3979 0bdc 0A        	.uleb128 0xa
 3980 0bdd 0000 0000 	.long.LASF174
 3981 0be1 0F        	.byte0xf
 3982 0be2 94        	.byte0x94
 3983 0be3 0000 0070 	.long0x70
 3984 0be7 14        	.byte0x14
 3985 0be8 0A        	.uleb128 0xa
 3986 0be9 0000 0000 	.long.LASF175
 3987 0bed 0F        	.byte0xf
 3988 0bee 96        	.byte0x96
 3989 0bef 0000 0070 	.long0x70
 3990 0bf3 18        	.byte0x18
 3991 0bf4 0A        	.uleb128 0xa
 3992 0bf5 0000 0000 	.long.LASF176
 3993 0bf9 0F        	.byte0xf
 3994 0bfa 97        	.byte0x97
 3995 0bfb 0000 0070 	.long0x70
 3996 0bff 1C        	.byte0x1c
 3997 0c00 0A        	.uleb128 0xa
 3998 0c01 0000 0000 	.long.LASF177
 3999 0c05 0F        	.byte0xf
 4000 0c06 99        	.byte0x99
 4001 0c07 0000 09C7 	.long0x9c7
 4002 0c0b 20        	.byte0x20
 4003 0c0c 00        	.byte0
 4004 0c0d 03        	.uleb128 0x3
 4005 0c0e 0000 0000 	.long.LASF178
 4006 0c12 0F        	.byte0xf
 4007 0c13 9B        	.byte0x9b
 4008 0c14 0000 0B98 	.long0xb98
 4009 0c18 1B        	.uleb128 0x1b
 4010 0c19 40        	.byte0x40
 4011 0c1a 10        	.byte0x10
 4012 0c1b 0206      	.word0x206
 4013 0c1d 0000 0C2F 	.long0xc2f
 4014 0c21 18        	.uleb128 0x18
 4015 0c22 0000 0000 	.long.LASF179
 4016 0c26 10        	.byte0x10
 4017 0c27 0207      	.word0x207
 4018 0c29 0000 09D7 	.long0x9d7
 4019 0c2d 00        	.byte0
 4020 0c2e 00        	.byte0
 4021 0c2f 0D        	.uleb128 0xd
68K GAS   			page 101


 4022 0c30 0000 0000 	.long.LASF180
 4023 0c34 10        	.byte0x10
 4024 0c35 0208      	.word0x208
 4025 0c37 0000 0C18 	.long0xc18
 4026 0c3b 1B        	.uleb128 0x1b
 4027 0c3c 04        	.byte0x4
 4028 0c3d 10        	.byte0x10
 4029 0c3e 0218      	.word0x218
 4030 0c40 0000 0C6C 	.long0xc6c
 4031 0c44 18        	.uleb128 0x18
 4032 0c45 0000 0000 	.long.LASF181
 4033 0c49 10        	.byte0x10
 4034 0c4a 021A      	.word0x21a
 4035 0c4c 0000 0ADB 	.long0xadb
 4036 0c50 00        	.byte0
 4037 0c51 18        	.uleb128 0x18
 4038 0c52 0000 0000 	.long.LASF182
 4039 0c56 10        	.byte0x10
 4040 0c57 021B      	.word0x21b
 4041 0c59 0000 0AD0 	.long0xad0
 4042 0c5d 02        	.byte0x2
 4043 0c5e 18        	.uleb128 0x18
 4044 0c5f 0000 0000 	.long.LASF183
 4045 0c63 10        	.byte0x10
 4046 0c64 021C      	.word0x21c
 4047 0c66 0000 0053 	.long0x53
 4048 0c6a 03        	.byte0x3
 4049 0c6b 00        	.byte0
 4050 0c6c 0D        	.uleb128 0xd
 4051 0c6d 0000 0000 	.long.LASF184
 4052 0c71 10        	.byte0x10
 4053 0c72 021D      	.word0x21d
 4054 0c74 0000 0C3B 	.long0xc3b
 4055 0c78 1B        	.uleb128 0x1b
 4056 0c79 1C        	.byte0x1c
 4057 0c7a 10        	.byte0x10
 4058 0c7b 022C      	.word0x22c
 4059 0c7d 0000 0D52 	.long0xd52
 4060 0c81 18        	.uleb128 0x18
 4061 0c82 0000 0000 	.long.LASF185
 4062 0c86 10        	.byte0x10
 4063 0c87 022E      	.word0x22e
 4064 0c89 0000 0053 	.long0x53
 4065 0c8d 00        	.byte0
 4066 0c8e 18        	.uleb128 0x18
 4067 0c8f 0000 0000 	.long.LASF186
 4068 0c93 10        	.byte0x10
 4069 0c94 0230      	.word0x230
 4070 0c96 0000 0053 	.long0x53
 4071 0c9a 01        	.byte0x1
 4072 0c9b 18        	.uleb128 0x18
 4073 0c9c 0000 0000 	.long.LASF187
 4074 0ca0 10        	.byte0x10
 4075 0ca1 0232      	.word0x232
 4076 0ca3 0000 0053 	.long0x53
 4077 0ca7 02        	.byte0x2
 4078 0ca8 18        	.uleb128 0x18
68K GAS   			page 102


 4079 0ca9 0000 0000 	.long.LASF188
 4080 0cad 10        	.byte0x10
 4081 0cae 0234      	.word0x234
 4082 0cb0 0000 0053 	.long0x53
 4083 0cb4 03        	.byte0x3
 4084 0cb5 18        	.uleb128 0x18
 4085 0cb6 0000 0000 	.long.LASF189
 4086 0cba 10        	.byte0x10
 4087 0cbb 0237      	.word0x237
 4088 0cbd 0000 0053 	.long0x53
 4089 0cc1 04        	.byte0x4
 4090 0cc2 18        	.uleb128 0x18
 4091 0cc3 0000 0000 	.long.LASF190
 4092 0cc7 10        	.byte0x10
 4093 0cc8 0239      	.word0x239
 4094 0cca 0000 0053 	.long0x53
 4095 0cce 05        	.byte0x5
 4096 0ccf 18        	.uleb128 0x18
 4097 0cd0 0000 0000 	.long.LASF191
 4098 0cd4 10        	.byte0x10
 4099 0cd5 023B      	.word0x23b
 4100 0cd7 0000 0053 	.long0x53
 4101 0cdb 06        	.byte0x6
 4102 0cdc 18        	.uleb128 0x18
 4103 0cdd 0000 0000 	.long.LASF192
 4104 0ce1 10        	.byte0x10
 4105 0ce2 023D      	.word0x23d
 4106 0ce4 0000 0053 	.long0x53
 4107 0ce8 07        	.byte0x7
 4108 0ce9 18        	.uleb128 0x18
 4109 0cea 0000 0000 	.long.LASF183
 4110 0cee 10        	.byte0x10
 4111 0cef 0240      	.word0x240
 4112 0cf1 0000 0053 	.long0x53
 4113 0cf5 08        	.byte0x8
 4114 0cf6 18        	.uleb128 0x18
 4115 0cf7 0000 0000 	.long.LASF193
 4116 0cfb 10        	.byte0x10
 4117 0cfc 0242      	.word0x242
 4118 0cfe 0000 0053 	.long0x53
 4119 0d02 09        	.byte0x9
 4120 0d03 18        	.uleb128 0x18
 4121 0d04 0000 0000 	.long.LASF194
 4122 0d08 10        	.byte0x10
 4123 0d09 0244      	.word0x244
 4124 0d0b 0000 0A24 	.long0xa24
 4125 0d0f 0A        	.byte0xa
 4126 0d10 18        	.uleb128 0x18
 4127 0d11 0000 0000 	.long.LASF195
 4128 0d15 10        	.byte0x10
 4129 0d16 0247      	.word0x247
 4130 0d18 0000 005E 	.long0x5e
 4131 0d1c 0C        	.byte0xc
 4132 0d1d 18        	.uleb128 0x18
 4133 0d1e 0000 0000 	.long.LASF196
 4134 0d22 10        	.byte0x10
 4135 0d23 0249      	.word0x249
68K GAS   			page 103


 4136 0d25 0000 005E 	.long0x5e
 4137 0d29 0E        	.byte0xe
 4138 0d2a 18        	.uleb128 0x18
 4139 0d2b 0000 0000 	.long.LASF197
 4140 0d2f 10        	.byte0x10
 4141 0d30 024C      	.word0x24c
 4142 0d32 0000 0B60 	.long0xb60
 4143 0d36 10        	.byte0x10
 4144 0d37 18        	.uleb128 0x18
 4145 0d38 0000 0000 	.long.LASF198
 4146 0d3c 10        	.byte0x10
 4147 0d3d 024F      	.word0x24f
 4148 0d3f 0000 0070 	.long0x70
 4149 0d43 14        	.byte0x14
 4150 0d44 18        	.uleb128 0x18
 4151 0d45 0000 0000 	.long.LASF199
 4152 0d49 10        	.byte0x10
 4153 0d4a 0252      	.word0x252
 4154 0d4c 0000 0070 	.long0x70
 4155 0d50 18        	.byte0x18
 4156 0d51 00        	.byte0
 4157 0d52 0D        	.uleb128 0xd
 4158 0d53 0000 0000 	.long.LASF200
 4159 0d57 10        	.byte0x10
 4160 0d58 0254      	.word0x254
 4161 0d5a 0000 0C78 	.long0xc78
 4162 0d5e 1B        	.uleb128 0x1b
 4163 0d5f 28        	.byte0x28
 4164 0d60 10        	.byte0x10
 4165 0d61 0256      	.word0x256
 4166 0d63 0000 0D82 	.long0xd82
 4167 0d67 22        	.uleb128 0x22
 4168 0d68 4864 7200 	.string"Hdr"
 4169 0d6c 10        	.byte0x10
 4170 0d6d 0257      	.word0x257
 4171 0d6f 0000 0AC5 	.long0xac5
 4172 0d73 00        	.byte0
 4173 0d74 18        	.uleb128 0x18
 4174 0d75 0000 0000 	.long.LASF201
 4175 0d79 10        	.byte0x10
 4176 0d7a 0258      	.word0x258
 4177 0d7c 0000 0D52 	.long0xd52
 4178 0d80 0C        	.byte0xc
 4179 0d81 00        	.byte0
 4180 0d82 0D        	.uleb128 0xd
 4181 0d83 0000 0000 	.long.LASF202
 4182 0d87 10        	.byte0x10
 4183 0d88 0259      	.word0x259
 4184 0d8a 0000 0D5E 	.long0xd5e
 4185 0d8e 1B        	.uleb128 0x1b
 4186 0d8f 08        	.byte0x8
 4187 0d90 10        	.byte0x10
 4188 0d91 0261      	.word0x261
 4189 0d93 0000 0DD9 	.long0xdd9
 4190 0d97 18        	.uleb128 0x18
 4191 0d98 0000 0000 	.long.LASF203
 4192 0d9c 10        	.byte0x10
68K GAS   			page 104


 4193 0d9d 0263      	.word0x263
 4194 0d9f 0000 0AD0 	.long0xad0
 4195 0da3 00        	.byte0
 4196 0da4 18        	.uleb128 0x18
 4197 0da5 0000 0000 	.long.LASF183
 4198 0da9 10        	.byte0x10
 4199 0daa 0265      	.word0x265
 4200 0dac 0000 0053 	.long0x53
 4201 0db0 01        	.byte0x1
 4202 0db1 18        	.uleb128 0x18
 4203 0db2 0000 0000 	.long.LASF204
 4204 0db6 10        	.byte0x10
 4205 0db7 0267      	.word0x267
 4206 0db9 0000 005E 	.long0x5e
 4207 0dbd 02        	.byte0x2
 4208 0dbe 18        	.uleb128 0x18
 4209 0dbf 0000 0000 	.long.LASF205
 4210 0dc3 10        	.byte0x10
 4211 0dc4 0269      	.word0x269
 4212 0dc6 0000 005E 	.long0x5e
 4213 0dca 04        	.byte0x4
 4214 0dcb 18        	.uleb128 0x18
 4215 0dcc 0000 0000 	.long.LASF206
 4216 0dd0 10        	.byte0x10
 4217 0dd1 026B      	.word0x26b
 4218 0dd3 0000 005E 	.long0x5e
 4219 0dd7 06        	.byte0x6
 4220 0dd8 00        	.byte0
 4221 0dd9 0D        	.uleb128 0xd
 4222 0dda 0000 0000 	.long.LASF207
 4223 0dde 10        	.byte0x10
 4224 0ddf 026E      	.word0x26e
 4225 0de1 0000 0D8E 	.long0xd8e
 4226 0de5 23        	.uleb128 0x23
 4227 0de6 023C      	.word0x23c
 4228 0de8 10        	.byte0x10
 4229 0de9 0275      	.word0x275
 4230 0deb 0000 0EC0 	.long0xec0
 4231 0def 18        	.uleb128 0x18
 4232 0df0 0000 0000 	.long.LASF208
 4233 0df4 10        	.byte0x10
 4234 0df5 0277      	.word0x277
 4235 0df7 0000 0070 	.long0x70
 4236 0dfb 00        	.byte0
 4237 0dfc 18        	.uleb128 0x18
 4238 0dfd 0000 0000 	.long.LASF209
 4239 0e01 10        	.byte0x10
 4240 0e02 0279      	.word0x279
 4241 0e04 0000 0070 	.long0x70
 4242 0e08 04        	.byte0x4
 4243 0e09 18        	.uleb128 0x18
 4244 0e0a 0000 0000 	.long.LASF210
 4245 0e0e 10        	.byte0x10
 4246 0e0f 027B      	.word0x27b
 4247 0e11 0000 0070 	.long0x70
 4248 0e15 08        	.byte0x8
 4249 0e16 18        	.uleb128 0x18
68K GAS   			page 105


 4250 0e17 0000 0000 	.long.LASF211
 4251 0e1b 10        	.byte0x10
 4252 0e1c 027E      	.word0x27e
 4253 0e1e 0000 0070 	.long0x70
 4254 0e22 0C        	.byte0xc
 4255 0e23 18        	.uleb128 0x18
 4256 0e24 0000 0000 	.long.LASF212
 4257 0e28 10        	.byte0x10
 4258 0e29 0280      	.word0x280
 4259 0e2b 0000 0070 	.long0x70
 4260 0e2f 10        	.byte0x10
 4261 0e30 18        	.uleb128 0x18
 4262 0e31 0000 0000 	.long.LASF213
 4263 0e35 10        	.byte0x10
 4264 0e36 0282      	.word0x282
 4265 0e38 0000 0070 	.long0x70
 4266 0e3c 14        	.byte0x14
 4267 0e3d 18        	.uleb128 0x18
 4268 0e3e 0000 0000 	.long.LASF198
 4269 0e42 10        	.byte0x10
 4270 0e43 0285      	.word0x285
 4271 0e45 0000 0070 	.long0x70
 4272 0e49 18        	.byte0x18
 4273 0e4a 18        	.uleb128 0x18
 4274 0e4b 0000 0000 	.long.LASF214
 4275 0e4f 10        	.byte0x10
 4276 0e50 0287      	.word0x287
 4277 0e52 0000 0070 	.long0x70
 4278 0e56 1C        	.byte0x1c
 4279 0e57 18        	.uleb128 0x18
 4280 0e58 0000 0000 	.long.LASF215
 4281 0e5c 10        	.byte0x10
 4282 0e5d 0289      	.word0x289
 4283 0e5f 0000 0070 	.long0x70
 4284 0e63 20        	.byte0x20
 4285 0e64 18        	.uleb128 0x18
 4286 0e65 0000 0000 	.long.LASF216
 4287 0e69 10        	.byte0x10
 4288 0e6a 028C      	.word0x28c
 4289 0e6c 0000 0070 	.long0x70
 4290 0e70 24        	.byte0x24
 4291 0e71 18        	.uleb128 0x18
 4292 0e72 0000 0000 	.long.LASF217
 4293 0e76 10        	.byte0x10
 4294 0e77 028E      	.word0x28e
 4295 0e79 0000 0070 	.long0x70
 4296 0e7d 28        	.byte0x28
 4297 0e7e 18        	.uleb128 0x18
 4298 0e7f 0000 0000 	.long.LASF218
 4299 0e83 10        	.byte0x10
 4300 0e84 0290      	.word0x290
 4301 0e86 0000 0070 	.long0x70
 4302 0e8a 2C        	.byte0x2c
 4303 0e8b 18        	.uleb128 0x18
 4304 0e8c 0000 0000 	.long.LASF219
 4305 0e90 10        	.byte0x10
 4306 0e91 0294      	.word0x294
68K GAS   			page 106


 4307 0e93 0000 0070 	.long0x70
 4308 0e97 30        	.byte0x30
 4309 0e98 18        	.uleb128 0x18
 4310 0e99 0000 0000 	.long.LASF220
 4311 0e9d 10        	.byte0x10
 4312 0e9e 0296      	.word0x296
 4313 0ea0 0000 0070 	.long0x70
 4314 0ea4 34        	.byte0x34
 4315 0ea5 18        	.uleb128 0x18
 4316 0ea6 0000 0000 	.long.LASF221
 4317 0eaa 10        	.byte0x10
 4318 0eab 0299      	.word0x299
 4319 0ead 0000 0070 	.long0x70
 4320 0eb1 38        	.byte0x38
 4321 0eb2 18        	.uleb128 0x18
 4322 0eb3 0000 0000 	.long.LASF222
 4323 0eb7 10        	.byte0x10
 4324 0eb8 029B      	.word0x29b
 4325 0eba 0000 0EC0 	.long0xec0
 4326 0ebe 3C        	.byte0x3c
 4327 0ebf 00        	.byte0
 4328 0ec0 05        	.uleb128 0x5
 4329 0ec1 0000 0DD9 	.long0xdd9
 4330 0ec5 0000 0ED0 	.long0xed0
 4331 0ec9 06        	.uleb128 0x6
 4332 0eca 0000 007B 	.long0x7b
 4333 0ece 3F        	.byte0x3f
 4334 0ecf 00        	.byte0
 4335 0ed0 0D        	.uleb128 0xd
 4336 0ed1 0000 0000 	.long.LASF223
 4337 0ed5 10        	.byte0x10
 4338 0ed6 029D      	.word0x29d
 4339 0ed8 0000 0DE5 	.long0xde5
 4340 0edc 23        	.uleb128 0x23
 4341 0edd 0248      	.word0x248
 4342 0edf 10        	.byte0x10
 4343 0ee0 029F      	.word0x29f
 4344 0ee2 0000 0F01 	.long0xf01
 4345 0ee6 22        	.uleb128 0x22
 4346 0ee7 4864 7200 	.string"Hdr"
 4347 0eeb 10        	.byte0x10
 4348 0eec 02A0      	.word0x2a0
 4349 0eee 0000 0AC5 	.long0xac5
 4350 0ef2 00        	.byte0
 4351 0ef3 18        	.uleb128 0x18
 4352 0ef4 0000 0000 	.long.LASF201
 4353 0ef8 10        	.byte0x10
 4354 0ef9 02A1      	.word0x2a1
 4355 0efb 0000 0ED0 	.long0xed0
 4356 0eff 0C        	.byte0xc
 4357 0f00 00        	.byte0
 4358 0f01 0D        	.uleb128 0xd
 4359 0f02 0000 0000 	.long.LASF224
 4360 0f06 10        	.byte0x10
 4361 0f07 02A2      	.word0x2a2
 4362 0f09 0000 0EDC 	.long0xedc
 4363 0f0d 1B        	.uleb128 0x1b
68K GAS   			page 107


 4364 0f0e 2E        	.byte0x2e
 4365 0f0f 10        	.byte0x10
 4366 0f10 02AA      	.word0x2aa
 4367 0f12 0000 0F65 	.long0xf65
 4368 0f16 18        	.uleb128 0x18
 4369 0f17 0000 0000 	.long.LASF181
 4370 0f1b 10        	.byte0x10
 4371 0f1c 02AB      	.word0x2ab
 4372 0f1e 0000 0ADB 	.long0xadb
 4373 0f22 00        	.byte0
 4374 0f23 18        	.uleb128 0x18
 4375 0f24 0000 0000 	.long.LASF203
 4376 0f28 10        	.byte0x10
 4377 0f29 02AC      	.word0x2ac
 4378 0f2b 0000 0AD0 	.long0xad0
 4379 0f2f 02        	.byte0x2
 4380 0f30 18        	.uleb128 0x18
 4381 0f31 0000 0000 	.long.LASF225
 4382 0f35 10        	.byte0x10
 4383 0f36 02AD      	.word0x2ad
 4384 0f38 0000 0053 	.long0x53
 4385 0f3c 03        	.byte0x3
 4386 0f3d 18        	.uleb128 0x18
 4387 0f3e 0000 0000 	.long.LASF226
 4388 0f42 10        	.byte0x10
 4389 0f43 02AE      	.word0x2ae
 4390 0f45 0000 005E 	.long0x5e
 4391 0f49 04        	.byte0x4
 4392 0f4a 18        	.uleb128 0x18
 4393 0f4b 0000 0000 	.long.LASF164
 4394 0f4f 10        	.byte0x10
 4395 0f50 02AF      	.word0x2af
 4396 0f52 0000 00A0 	.long0xa0
 4397 0f56 06        	.byte0x6
 4398 0f57 18        	.uleb128 0x18
 4399 0f58 0000 0000 	.long.LASF227
 4400 0f5c 10        	.byte0x10
 4401 0f5d 02B0      	.word0x2b0
 4402 0f5f 0000 00A0 	.long0xa0
 4403 0f63 1A        	.byte0x1a
 4404 0f64 00        	.byte0
 4405 0f65 0D        	.uleb128 0xd
 4406 0f66 0000 0000 	.long.LASF228
 4407 0f6a 10        	.byte0x10
 4408 0f6b 02B1      	.word0x2b1
 4409 0f6d 0000 0F0D 	.long0xf0d
 4410 0f71 1B        	.uleb128 0x1b
 4411 0f72 04        	.byte0x4
 4412 0f73 10        	.byte0x10
 4413 0f74 02B9      	.word0x2b9
 4414 0f76 0000 0F95 	.long0xf95
 4415 0f7a 18        	.uleb128 0x18
 4416 0f7b 0000 0000 	.long.LASF181
 4417 0f7f 10        	.byte0x10
 4418 0f80 02BA      	.word0x2ba
 4419 0f82 0000 005E 	.long0x5e
 4420 0f86 00        	.byte0
68K GAS   			page 108


 4421 0f87 18        	.uleb128 0x18
 4422 0f88 0000 0000 	.long.LASF229
 4423 0f8c 10        	.byte0x10
 4424 0f8d 02BB      	.word0x2bb
 4425 0f8f 0000 005E 	.long0x5e
 4426 0f93 02        	.byte0x2
 4427 0f94 00        	.byte0
 4428 0f95 0D        	.uleb128 0xd
 4429 0f96 0000 0000 	.long.LASF230
 4430 0f9a 10        	.byte0x10
 4431 0f9b 02BC      	.word0x2bc
 4432 0f9d 0000 0F71 	.long0xf71
 4433 0fa1 1B        	.uleb128 0x1b
 4434 0fa2 08        	.byte0x8
 4435 0fa3 10        	.byte0x10
 4436 0fa4 02C9      	.word0x2c9
 4437 0fa6 0000 0FDF 	.long0xfdf
 4438 0faa 18        	.uleb128 0x18
 4439 0fab 0000 0000 	.long.LASF171
 4440 0faf 10        	.byte0x10
 4441 0fb0 02CB      	.word0x2cb
 4442 0fb2 0000 0053 	.long0x53
 4443 0fb6 00        	.byte0
 4444 0fb7 18        	.uleb128 0x18
 4445 0fb8 0000 0000 	.long.LASF181
 4446 0fbc 10        	.byte0x10
 4447 0fbd 02CC      	.word0x2cc
 4448 0fbf 0000 0ADB 	.long0xadb
 4449 0fc3 02        	.byte0x2
 4450 0fc4 22        	.uleb128 0x22
 4451 0fc5 516F 7300 	.string"Qos"
 4452 0fc9 10        	.byte0x10
 4453 0fca 02CD      	.word0x2cd
 4454 0fcc 0000 0B1E 	.long0xb1e
 4455 0fd0 04        	.byte0x4
 4456 0fd1 18        	.uleb128 0x18
 4457 0fd2 0000 0000 	.long.LASF182
 4458 0fd6 10        	.byte0x10
 4459 0fd7 02CE      	.word0x2ce
 4460 0fd9 0000 0AD0 	.long0xad0
 4461 0fdd 06        	.byte0x6
 4462 0fde 00        	.byte0
 4463 0fdf 0D        	.uleb128 0xd
 4464 0fe0 0000 0000 	.long.LASF231
 4465 0fe4 10        	.byte0x10
 4466 0fe5 02D0      	.word0x2d0
 4467 0fe7 0000 0FA1 	.long0xfa1
 4468 0feb 1B        	.uleb128 0x1b
 4469 0fec 14        	.byte0x14
 4470 0fed 10        	.byte0x10
 4471 0fee 02D2      	.word0x2d2
 4472 0ff0 0000 100F 	.long0x100f
 4473 0ff4 22        	.uleb128 0x22
 4474 0ff5 4864 7200 	.string"Hdr"
 4475 0ff9 10        	.byte0x10
 4476 0ffa 02D3      	.word0x2d3
 4477 0ffc 0000 0AC5 	.long0xac5
68K GAS   			page 109


 4478 1000 00        	.byte0
 4479 1001 18        	.uleb128 0x18
 4480 1002 0000 0000 	.long.LASF201
 4481 1006 10        	.byte0x10
 4482 1007 02D4      	.word0x2d4
 4483 1009 0000 0FDF 	.long0xfdf
 4484 100d 0C        	.byte0xc
 4485 100e 00        	.byte0
 4486 100f 0D        	.uleb128 0xd
 4487 1010 0000 0000 	.long.LASF232
 4488 1014 10        	.byte0x10
 4489 1015 02D5      	.word0x2d5
 4490 1017 0000 0FEB 	.long0xfeb
 4491 101b 1B        	.uleb128 0x1b
 4492 101c 06        	.byte0x6
 4493 101d 10        	.byte0x10
 4494 101e 02E0      	.word0x2e0
 4495 1020 0000 104C 	.long0x104c
 4496 1024 18        	.uleb128 0x18
 4497 1025 0000 0000 	.long.LASF181
 4498 1029 10        	.byte0x10
 4499 102a 02E2      	.word0x2e2
 4500 102c 0000 0ADB 	.long0xadb
 4501 1030 00        	.byte0
 4502 1031 22        	.uleb128 0x22
 4503 1032 516F 7300 	.string"Qos"
 4504 1036 10        	.byte0x10
 4505 1037 02E3      	.word0x2e3
 4506 1039 0000 0B1E 	.long0xb1e
 4507 103d 02        	.byte0x2
 4508 103e 18        	.uleb128 0x18
 4509 103f 0000 0000 	.long.LASF182
 4510 1043 10        	.byte0x10
 4511 1044 02E4      	.word0x2e4
 4512 1046 0000 0AD0 	.long0xad0
 4513 104a 04        	.byte0x4
 4514 104b 00        	.byte0
 4515 104c 0D        	.uleb128 0xd
 4516 104d 0000 0000 	.long.LASF233
 4517 1051 10        	.byte0x10
 4518 1052 02E6      	.word0x2e6
 4519 1054 0000 101B 	.long0x101b
 4520 1058 1B        	.uleb128 0x1b
 4521 1059 84        	.byte0x84
 4522 105a 10        	.byte0x10
 4523 105b 02F2      	.word0x2f2
 4524 105d 0000 1096 	.long0x1096
 4525 1061 18        	.uleb128 0x18
 4526 1062 0000 0000 	.long.LASF234
 4527 1066 10        	.byte0x10
 4528 1067 02F4      	.word0x2f4
 4529 1069 0000 0070 	.long0x70
 4530 106d 00        	.byte0
 4531 106e 18        	.uleb128 0x18
 4532 106f 0000 0000 	.long.LASF235
 4533 1073 10        	.byte0x10
 4534 1074 02F5      	.word0x2f5
68K GAS   			page 110


 4535 1076 0000 0070 	.long0x70
 4536 107a 04        	.byte0x4
 4537 107b 18        	.uleb128 0x18
 4538 107c 0000 0000 	.long.LASF236
 4539 1080 10        	.byte0x10
 4540 1081 02F6      	.word0x2f6
 4541 1083 0000 0070 	.long0x70
 4542 1087 08        	.byte0x8
 4543 1088 18        	.uleb128 0x18
 4544 1089 0000 0000 	.long.LASF237
 4545 108d 10        	.byte0x10
 4546 108e 02F7      	.word0x2f7
 4547 1090 0000 1096 	.long0x1096
 4548 1094 0C        	.byte0xc
 4549 1095 00        	.byte0
 4550 1096 05        	.uleb128 0x5
 4551 1097 0000 104C 	.long0x104c
 4552 109b 0000 10A6 	.long0x10a6
 4553 109f 06        	.uleb128 0x6
 4554 10a0 0000 007B 	.long0x7b
 4555 10a4 13        	.byte0x13
 4556 10a5 00        	.byte0
 4557 10a6 0D        	.uleb128 0xd
 4558 10a7 0000 0000 	.long.LASF238
 4559 10ab 10        	.byte0x10
 4560 10ac 02F8      	.word0x2f8
 4561 10ae 0000 1058 	.long0x1058
 4562 10b2 1B        	.uleb128 0x1b
 4563 10b3 90        	.byte0x90
 4564 10b4 10        	.byte0x10
 4565 10b5 02FA      	.word0x2fa
 4566 10b7 0000 10D6 	.long0x10d6
 4567 10bb 22        	.uleb128 0x22
 4568 10bc 4864 7200 	.string"Hdr"
 4569 10c0 10        	.byte0x10
 4570 10c1 02FB      	.word0x2fb
 4571 10c3 0000 0AC5 	.long0xac5
 4572 10c7 00        	.byte0
 4573 10c8 18        	.uleb128 0x18
 4574 10c9 0000 0000 	.long.LASF201
 4575 10cd 10        	.byte0x10
 4576 10ce 02FC      	.word0x2fc
 4577 10d0 0000 10A6 	.long0x10a6
 4578 10d4 0C        	.byte0xc
 4579 10d5 00        	.byte0
 4580 10d6 0D        	.uleb128 0xd
 4581 10d7 0000 0000 	.long.LASF239
 4582 10db 10        	.byte0x10
 4583 10dc 02FD      	.word0x2fd
 4584 10de 0000 10B2 	.long0x10b2
 4585 10e2 10        	.uleb128 0x10
 4586 10e3 24        	.byte0x24
 4587 10e4 11        	.byte0x11
 4588 10e5 AA        	.byte0xaa
 4589 10e6 0000 1127 	.long0x1127
 4590 10ea 0A        	.uleb128 0xa
 4591 10eb 0000 0000 	.long.LASF181
68K GAS   			page 111


 4592 10ef 11        	.byte0x11
 4593 10f0 AB        	.byte0xab
 4594 10f1 0000 0ADB 	.long0xadb
 4595 10f5 00        	.byte0
 4596 10f6 0A        	.uleb128 0xa
 4597 10f7 0000 0000 	.long.LASF240
 4598 10fb 11        	.byte0x11
 4599 10fc AC        	.byte0xac
 4600 10fd 0000 005E 	.long0x5e
 4601 1101 02        	.byte0x2
 4602 1102 0A        	.uleb128 0xa
 4603 1103 0000 0000 	.long.LASF241
 4604 1107 11        	.byte0x11
 4605 1108 AD        	.byte0xad
 4606 1109 0000 0070 	.long0x70
 4607 110d 04        	.byte0x4
 4608 110e 0A        	.uleb128 0xa
 4609 110f 0000 0000 	.long.LASF242
 4610 1113 11        	.byte0x11
 4611 1114 AE        	.byte0xae
 4612 1115 0000 00B0 	.long0xb0
 4613 1119 08        	.byte0x8
 4614 111a 0A        	.uleb128 0xa
 4615 111b 0000 0000 	.long.LASF243
 4616 111f 11        	.byte0x11
 4617 1120 AF        	.byte0xaf
 4618 1121 0000 0B55 	.long0xb55
 4619 1125 0C        	.byte0xc
 4620 1126 00        	.byte0
 4621 1127 03        	.uleb128 0x3
 4622 1128 0000 0000 	.long.LASF244
 4623 112c 11        	.byte0x11
 4624 112d B0        	.byte0xb0
 4625 112e 0000 10E2 	.long0x10e2
 4626 1132 10        	.uleb128 0x10
 4627 1133 14        	.byte0x14
 4628 1134 11        	.byte0x11
 4629 1135 BE        	.byte0xbe
 4630 1136 0000 11A7 	.long0x11a7
 4631 113a 0A        	.uleb128 0xa
 4632 113b 0000 0000 	.long.LASF203
 4633 113f 11        	.byte0x11
 4634 1140 BF        	.byte0xbf
 4635 1141 0000 0AD0 	.long0xad0
 4636 1145 00        	.byte0
 4637 1146 0A        	.uleb128 0xa
 4638 1147 0000 0000 	.long.LASF245
 4639 114b 11        	.byte0x11
 4640 114c C0        	.byte0xc0
 4641 114d 0000 0053 	.long0x53
 4642 1151 01        	.byte0x1
 4643 1152 0A        	.uleb128 0xa
 4644 1153 0000 0000 	.long.LASF246
 4645 1157 11        	.byte0x11
 4646 1158 C1        	.byte0xc1
 4647 1159 0000 005E 	.long0x5e
 4648 115d 02        	.byte0x2
68K GAS   			page 112


 4649 115e 0A        	.uleb128 0xa
 4650 115f 0000 0000 	.long.LASF247
 4651 1163 11        	.byte0x11
 4652 1164 C2        	.byte0xc2
 4653 1165 0000 005E 	.long0x5e
 4654 1169 04        	.byte0x4
 4655 116a 0A        	.uleb128 0xa
 4656 116b 0000 0000 	.long.LASF248
 4657 116f 11        	.byte0x11
 4658 1170 C3        	.byte0xc3
 4659 1171 0000 005E 	.long0x5e
 4660 1175 06        	.byte0x6
 4661 1176 0A        	.uleb128 0xa
 4662 1177 0000 0000 	.long.LASF249
 4663 117b 11        	.byte0x11
 4664 117c C4        	.byte0xc4
 4665 117d 0000 0053 	.long0x53
 4666 1181 08        	.byte0x8
 4667 1182 0A        	.uleb128 0xa
 4668 1183 0000 0000 	.long.LASF183
 4669 1187 11        	.byte0x11
 4670 1188 C5        	.byte0xc5
 4671 1189 0000 11A7 	.long0x11a7
 4672 118d 09        	.byte0x9
 4673 118e 0A        	.uleb128 0xa
 4674 118f 0000 0000 	.long.LASF250
 4675 1193 11        	.byte0x11
 4676 1194 C6        	.byte0xc6
 4677 1195 0000 00B0 	.long0xb0
 4678 1199 0C        	.byte0xc
 4679 119a 0A        	.uleb128 0xa
 4680 119b 0000 0000 	.long.LASF251
 4681 119f 11        	.byte0x11
 4682 11a0 C7        	.byte0xc7
 4683 11a1 0000 00B0 	.long0xb0
 4684 11a5 10        	.byte0x10
 4685 11a6 00        	.byte0
 4686 11a7 05        	.uleb128 0x5
 4687 11a8 0000 0053 	.long0x53
 4688 11ac 0000 11B7 	.long0x11b7
 4689 11b0 06        	.uleb128 0x6
 4690 11b1 0000 007B 	.long0x7b
 4691 11b5 02        	.byte0x2
 4692 11b6 00        	.byte0
 4693 11b7 03        	.uleb128 0x3
 4694 11b8 0000 0000 	.long.LASF252
 4695 11bc 11        	.byte0x11
 4696 11bd C8        	.byte0xc8
 4697 11be 0000 1132 	.long0x1132
 4698 11c2 10        	.uleb128 0x10
 4699 11c3 0C        	.byte0xc
 4700 11c4 11        	.byte0x11
 4701 11c5 E6        	.byte0xe6
 4702 11c6 0000 11FB 	.long0x11fb
 4703 11ca 0A        	.uleb128 0xa
 4704 11cb 0000 0000 	.long.LASF181
 4705 11cf 11        	.byte0x11
68K GAS   			page 113


 4706 11d0 E7        	.byte0xe7
 4707 11d1 0000 0ADB 	.long0xadb
 4708 11d5 00        	.byte0
 4709 11d6 0A        	.uleb128 0xa
 4710 11d7 0000 0000 	.long.LASF253
 4711 11db 11        	.byte0x11
 4712 11dc E8        	.byte0xe8
 4713 11dd 0000 005E 	.long0x5e
 4714 11e1 02        	.byte0x2
 4715 11e2 0A        	.uleb128 0xa
 4716 11e3 0000 0000 	.long.LASF254
 4717 11e7 11        	.byte0x11
 4718 11e8 E9        	.byte0xe9
 4719 11e9 0000 0070 	.long0x70
 4720 11ed 04        	.byte0x4
 4721 11ee 0A        	.uleb128 0xa
 4722 11ef 0000 0000 	.long.LASF255
 4723 11f3 11        	.byte0x11
 4724 11f4 EA        	.byte0xea
 4725 11f5 0000 11FB 	.long0x11fb
 4726 11f9 08        	.byte0x8
 4727 11fa 00        	.byte0
 4728 11fb 0C        	.uleb128 0xc
 4729 11fc 04        	.byte0x4
 4730 11fd 0000 11B7 	.long0x11b7
 4731 1201 03        	.uleb128 0x3
 4732 1202 0000 0000 	.long.LASF256
 4733 1206 11        	.byte0x11
 4734 1207 EB        	.byte0xeb
 4735 1208 0000 11C2 	.long0x11c2
 4736 120c 10        	.uleb128 0x10
 4737 120d 44        	.byte0x44
 4738 120e 11        	.byte0x11
 4739 120f F6        	.byte0xf6
 4740 1210 0000 12A8 	.long0x12a8
 4741 1214 0A        	.uleb128 0xa
 4742 1215 0000 0000 	.long.LASF205
 4743 1219 11        	.byte0x11
 4744 121a F7        	.byte0xf7
 4745 121b 0000 0053 	.long0x53
 4746 121f 00        	.byte0
 4747 1220 0A        	.uleb128 0xa
 4748 1221 0000 0000 	.long.LASF203
 4749 1225 11        	.byte0x11
 4750 1226 F8        	.byte0xf8
 4751 1227 0000 0AD0 	.long0xad0
 4752 122b 01        	.byte0x1
 4753 122c 0A        	.uleb128 0xa
 4754 122d 0000 0000 	.long.LASF227
 4755 1231 11        	.byte0x11
 4756 1232 F9        	.byte0xf9
 4757 1233 0000 00A0 	.long0xa0
 4758 1237 02        	.byte0x2
 4759 1238 0A        	.uleb128 0xa
 4760 1239 0000 0000 	.long.LASF164
 4761 123d 11        	.byte0x11
 4762 123e FA        	.byte0xfa
68K GAS   			page 114


 4763 123f 0000 00A0 	.long0xa0
 4764 1243 16        	.byte0x16
 4765 1244 0A        	.uleb128 0xa
 4766 1245 0000 0000 	.long.LASF183
 4767 1249 11        	.byte0x11
 4768 124a FB        	.byte0xfb
 4769 124b 0000 005E 	.long0x5e
 4770 124f 2A        	.byte0x2a
 4771 1250 0A        	.uleb128 0xa
 4772 1251 0000 0000 	.long.LASF257
 4773 1255 11        	.byte0x11
 4774 1256 FC        	.byte0xfc
 4775 1257 0000 0070 	.long0x70
 4776 125b 2C        	.byte0x2c
 4777 125c 0A        	.uleb128 0xa
 4778 125d 0000 0000 	.long.LASF258
 4779 1261 11        	.byte0x11
 4780 1262 FD        	.byte0xfd
 4781 1263 0000 0070 	.long0x70
 4782 1267 30        	.byte0x30
 4783 1268 0A        	.uleb128 0xa
 4784 1269 0000 0000 	.long.LASF259
 4785 126d 11        	.byte0x11
 4786 126e FE        	.byte0xfe
 4787 126f 0000 0070 	.long0x70
 4788 1273 34        	.byte0x34
 4789 1274 0A        	.uleb128 0xa
 4790 1275 0000 0000 	.long.LASF260
 4791 1279 11        	.byte0x11
 4792 127a FF        	.byte0xff
 4793 127b 0000 005E 	.long0x5e
 4794 127f 38        	.byte0x38
 4795 1280 18        	.uleb128 0x18
 4796 1281 0000 0000 	.long.LASF261
 4797 1285 11        	.byte0x11
 4798 1286 0100      	.word0x100
 4799 1288 0000 005E 	.long0x5e
 4800 128c 3A        	.byte0x3a
 4801 128d 18        	.uleb128 0x18
 4802 128e 0000 0000 	.long.LASF262
 4803 1292 11        	.byte0x11
 4804 1293 0101      	.word0x101
 4805 1295 0000 12A8 	.long0x12a8
 4806 1299 3C        	.byte0x3c
 4807 129a 18        	.uleb128 0x18
 4808 129b 0000 0000 	.long.LASF263
 4809 129f 11        	.byte0x11
 4810 12a0 0102      	.word0x102
 4811 12a2 0000 12A8 	.long0x12a8
 4812 12a6 40        	.byte0x40
 4813 12a7 00        	.byte0
 4814 12a8 0C        	.uleb128 0xc
 4815 12a9 04        	.byte0x4
 4816 12aa 0000 1127 	.long0x1127
 4817 12ae 0D        	.uleb128 0xd
 4818 12af 0000 0000 	.long.LASF264
 4819 12b3 11        	.byte0x11
68K GAS   			page 115


 4820 12b4 0103      	.word0x103
 4821 12b6 0000 120C 	.long0x120c
 4822 12ba 24        	.uleb128 0x24
 4823 12bb 0008 0004 	.long0x80004
 4824 12bf 11        	.byte0x11
 4825 12c0 010D      	.word0x10d
 4826 12c2 0000 12E1 	.long0x12e1
 4827 12c6 18        	.uleb128 0x18
 4828 12c7 0000 0000 	.long.LASF265
 4829 12cb 11        	.byte0x11
 4830 12cc 010F      	.word0x10f
 4831 12ce 0000 0B60 	.long0xb60
 4832 12d2 00        	.byte0
 4833 12d3 18        	.uleb128 0x18
 4834 12d4 0000 0000 	.long.LASF266
 4835 12d8 11        	.byte0x11
 4836 12d9 0110      	.word0x110
 4837 12db 0000 12E1 	.long0x12e1
 4838 12df 04        	.byte0x4
 4839 12e0 00        	.byte0
 4840 12e1 05        	.uleb128 0x5
 4841 12e2 0000 0053 	.long0x53
 4842 12e6 0000 12F4 	.long0x12f4
 4843 12ea 25        	.uleb128 0x25
 4844 12eb 0000 007B 	.long0x7b
 4845 12ef 0007 FFFF 	.long0x7ffff
 4846 12f3 00        	.byte0
 4847 12f4 0D        	.uleb128 0xd
 4848 12f5 0000 0000 	.long.LASF267
 4849 12f9 11        	.byte0x11
 4850 12fa 0112      	.word0x112
 4851 12fc 0000 12BA 	.long0x12ba
 4852 1300 24        	.uleb128 0x24
 4853 1301 0008 60D4 	.long0x860d4
 4854 1305 11        	.byte0x11
 4855 1306 011B      	.word0x11b
 4856 1308 0000 13FE 	.long0x13fe
 4857 130c 18        	.uleb128 0x18
 4858 130d 0000 0000 	.long.LASF268
 4859 1311 11        	.byte0x11
 4860 1312 011C      	.word0x11c
 4861 1314 0000 0070 	.long0x70
 4862 1318 00        	.byte0
 4863 1319 18        	.uleb128 0x18
 4864 131a 0000 0000 	.long.LASF269
 4865 131e 11        	.byte0x11
 4866 131f 011D      	.word0x11d
 4867 1321 0000 0070 	.long0x70
 4868 1325 04        	.byte0x4
 4869 1326 18        	.uleb128 0x18
 4870 1327 0000 0000 	.long.LASF270
 4871 132b 11        	.byte0x11
 4872 132c 011E      	.word0x11e
 4873 132e 0000 0070 	.long0x70
 4874 1332 08        	.byte0x8
 4875 1333 18        	.uleb128 0x18
 4876 1334 0000 0000 	.long.LASF257
68K GAS   			page 116


 4877 1338 11        	.byte0x11
 4878 1339 011F      	.word0x11f
 4879 133b 0000 0070 	.long0x70
 4880 133f 0C        	.byte0xc
 4881 1340 18        	.uleb128 0x18
 4882 1341 0000 0000 	.long.LASF271
 4883 1345 11        	.byte0x11
 4884 1346 0120      	.word0x120
 4885 1348 0000 09E7 	.long0x9e7
 4886 134c 10        	.byte0x10
 4887 134d 18        	.uleb128 0x18
 4888 134e 0000 0000 	.long.LASF272
 4889 1352 11        	.byte0x11
 4890 1353 0121      	.word0x121
 4891 1355 0000 00B0 	.long0xb0
 4892 1359 90        	.byte0x90
 4893 135a 18        	.uleb128 0x18
 4894 135b 0000 0000 	.long.LASF273
 4895 135f 11        	.byte0x11
 4896 1360 0122      	.word0x122
 4897 1362 0000 13FE 	.long0x13fe
 4898 1366 94        	.byte0x94
 4899 1367 19        	.uleb128 0x19
 4900 1368 0000 0000 	.long.LASF274
 4901 136c 11        	.byte0x11
 4902 136d 0123      	.word0x123
 4903 136f 0000 0D82 	.long0xd82
 4904 1373 1194      	.word0x1194
 4905 1375 19        	.uleb128 0x19
 4906 1376 0000 0000 	.long.LASF275
 4907 137a 11        	.byte0x11
 4908 137b 0124      	.word0x124
 4909 137d 0000 0F01 	.long0xf01
 4910 1381 11BC      	.word0x11bc
 4911 1383 19        	.uleb128 0x19
 4912 1384 0000 0000 	.long.LASF276
 4913 1388 11        	.byte0x11
 4914 1389 0125      	.word0x125
 4915 138b 0000 0AD0 	.long0xad0
 4916 138f 1404      	.word0x1404
 4917 1391 19        	.uleb128 0x19
 4918 1392 0000 0000 	.long.LASF277
 4919 1396 11        	.byte0x11
 4920 1397 0126      	.word0x126
 4921 1399 0000 0AE6 	.long0xae6
 4922 139d 1408      	.word0x1408
 4923 139f 26        	.uleb128 0x26
 4924 13a0 4D65 6D00 	.string"Mem"
 4925 13a4 11        	.byte0x11
 4926 13a5 0127      	.word0x127
 4927 13a7 0000 12F4 	.long0x12f4
 4928 13ab 140C      	.word0x140c
 4929 13ad 27        	.uleb128 0x27
 4930 13ae 0000 0000 	.long.LASF278
 4931 13b2 11        	.byte0x11
 4932 13b3 0128      	.word0x128
 4933 13b5 0000 140E 	.long0x140e
68K GAS   			page 117


 4934 13b9 0008 1410 	.long0x81410
 4935 13bd 27        	.uleb128 0x27
 4936 13be 0000 0000 	.long.LASF279
 4937 13c2 11        	.byte0x11
 4938 13c3 0129      	.word0x129
 4939 13c5 0000 141F 	.long0x141f
 4940 13c9 0008 5410 	.long0x85410
 4941 13cd 27        	.uleb128 0x27
 4942 13ce 0000 0000 	.long.LASF280
 4943 13d2 11        	.byte0x11
 4944 13d3 012A      	.word0x12a
 4945 13d5 0000 10D6 	.long0x10d6
 4946 13d9 0008 6010 	.long0x86010
 4947 13dd 27        	.uleb128 0x27
 4948 13de 0000 0000 	.long.LASF281
 4949 13e2 11        	.byte0x11
 4950 13e3 012B      	.word0x12b
 4951 13e5 0000 100F 	.long0x100f
 4952 13e9 0008 60A0 	.long0x860a0
 4953 13ed 27        	.uleb128 0x27
 4954 13ee 0000 0000 	.long.LASF282
 4955 13f2 11        	.byte0x11
 4956 13f3 012C      	.word0x12c
 4957 13f5 0000 142F 	.long0x142f
 4958 13f9 0008 60B4 	.long0x860b4
 4959 13fd 00        	.byte0
 4960 13fe 05        	.uleb128 0x5
 4961 13ff 0000 12AE 	.long0x12ae
 4962 1403 0000 140E 	.long0x140e
 4963 1407 06        	.uleb128 0x6
 4964 1408 0000 007B 	.long0x7b
 4965 140c 3F        	.byte0x3f
 4966 140d 00        	.byte0
 4967 140e 05        	.uleb128 0x5
 4968 140f 0000 0ADB 	.long0xadb
 4969 1413 0000 141F 	.long0x141f
 4970 1417 28        	.uleb128 0x28
 4971 1418 0000 007B 	.long0x7b
 4972 141c 1FFF      	.word0x1fff
 4973 141e 00        	.byte0
 4974 141f 05        	.uleb128 0x5
 4975 1420 0000 1201 	.long0x1201
 4976 1424 0000 142F 	.long0x142f
 4977 1428 06        	.uleb128 0x6
 4978 1429 0000 007B 	.long0x7b
 4979 142d FF        	.byte0xff
 4980 142e 00        	.byte0
 4981 142f 05        	.uleb128 0x5
 4982 1430 0000 0B8D 	.long0xb8d
 4983 1434 0000 143F 	.long0x143f
 4984 1438 06        	.uleb128 0x6
 4985 1439 0000 007B 	.long0x7b
 4986 143d 07        	.byte0x7
 4987 143e 00        	.byte0
 4988 143f 0D        	.uleb128 0xd
 4989 1440 0000 0000 	.long.LASF283
 4990 1444 11        	.byte0x11
68K GAS   			page 118


 4991 1445 012D      	.word0x12d
 4992 1447 0000 1300 	.long0x1300
 4993 144b 1F        	.uleb128 0x1f
 4994 144c 0000 0000 	.long.LASF284
 4995 1450 11        	.byte0x11
 4996 1451 0198      	.word0x198
 4997 1453 0000 143F 	.long0x143f
 4998 1457 29        	.uleb128 0x29
 4999 1458 0000 144B 	.long0x144b
 5000 145c 01        	.byte0x1
 5001 145d 69        	.byte0x69
 5002 145e 05        	.uleb128 0x5
 5003 145f 03        	.byte0x3
 5004 1460 0000 0000 	.longCFE_SB
 5005 1464 29        	.uleb128 0x29
 5006 1465 0000 0B29 	.long0xb29
 5007 1469 01        	.byte0x1
 5008 146a 6A        	.byte0x6a
 5009 146b 05        	.uleb128 0x5
 5010 146c 03        	.byte0x3
 5011 146d 0000 0000 	.longCFE_SB_Default_Qos
 5012 1471 2A        	.uleb128 0x2a
 5013 1472 0000 0000 	.long.LASF285
 5014 1476 01        	.byte0x1
 5015 1477 04A0      	.word0x4a0
 5016 1479 0000 0000 	.long.LFB77
 5017 147d 0000 000E 	.long.LFE77-.LFB77
 5018 1481 01        	.uleb128 0x1
 5019 1482 9C        	.byte0x9c
 5020 1483 0000 1497 	.long0x1497
 5021 1487 2B        	.uleb128 0x2b
 5022 1488 0000 0000 	.long.LASF287
 5023 148c 01        	.byte0x1
 5024 148d 04A0      	.word0x4a0
 5025 148f 0000 0070 	.long0x70
 5026 1493 02        	.uleb128 0x2
 5027 1494 91        	.byte0x91
 5028 1495 00        	.sleb128 0
 5029 1496 00        	.byte0
 5030 1497 2C        	.uleb128 0x2c
 5031 1498 0000 0000 	.long.LASF286
 5032 149c 01        	.byte0x1
 5033 149d 048B      	.word0x48b
 5034 149f 0000 0000 	.long.LFB76
 5035 14a3 0000 002C 	.long.LFE76-.LFB76
 5036 14a7 01        	.uleb128 0x1
 5037 14a8 9C        	.byte0x9c
 5038 14a9 0000 14DB 	.long0x14db
 5039 14ad 2B        	.uleb128 0x2b
 5040 14ae 0000 0000 	.long.LASF179
 5041 14b2 01        	.byte0x1
 5042 14b3 048B      	.word0x48b
 5043 14b5 0000 0160 	.long0x160
 5044 14b9 02        	.uleb128 0x2
 5045 14ba 91        	.byte0x91
 5046 14bb 00        	.sleb128 0
 5047 14bc 2B        	.uleb128 0x2b
68K GAS   			page 119


 5048 14bd 0000 0000 	.long.LASF288
 5049 14c1 01        	.byte0x1
 5050 14c2 048B      	.word0x48b
 5051 14c4 0000 0070 	.long0x70
 5052 14c8 02        	.uleb128 0x2
 5053 14c9 91        	.byte0x91
 5054 14ca 04        	.sleb128 4
 5055 14cb 2B        	.uleb128 0x2b
 5056 14cc 0000 0000 	.long.LASF289
 5057 14d0 01        	.byte0x1
 5058 14d1 048B      	.word0x48b
 5059 14d3 0000 0070 	.long0x70
 5060 14d7 02        	.uleb128 0x2
 5061 14d8 91        	.byte0x91
 5062 14d9 08        	.sleb128 8
 5063 14da 00        	.byte0
 5064 14db 2A        	.uleb128 0x2a
 5065 14dc 0000 0000 	.long.LASF290
 5066 14e0 01        	.byte0x1
 5067 14e1 0473      	.word0x473
 5068 14e3 0000 0000 	.long.LFB75
 5069 14e7 0000 002C 	.long.LFE75-.LFB75
 5070 14eb 01        	.uleb128 0x1
 5071 14ec 9C        	.byte0x9c
 5072 14ed 0000 1501 	.long0x1501
 5073 14f1 2B        	.uleb128 0x2b
 5074 14f2 0000 0000 	.long.LASF291
 5075 14f6 01        	.byte0x1
 5076 14f7 0473      	.word0x473
 5077 14f9 0000 003A 	.long0x3a
 5078 14fd 02        	.uleb128 0x2
 5079 14fe 91        	.byte0x91
 5080 14ff 00        	.sleb128 0
 5081 1500 00        	.byte0
 5082 1501 2D        	.uleb128 0x2d
 5083 1502 0000 0000 	.long.LASF297
 5084 1506 01        	.byte0x1
 5085 1507 0441      	.word0x441
 5086 1509 0000 0070 	.long0x70
 5087 150d 0000 0000 	.long.LFB74
 5088 1511 0000 0082 	.long.LFE74-.LFB74
 5089 1515 01        	.uleb128 0x1
 5090 1516 9C        	.byte0x9c
 5091 1517 0000 1547 	.long0x1547
 5092 151b 2E        	.uleb128 0x2e
 5093 151c 6900      	.string"i"
 5094 151e 01        	.byte0x1
 5095 151f 0443      	.word0x443
 5096 1521 0000 0070 	.long0x70
 5097 1525 02        	.uleb128 0x2
 5098 1526 91        	.byte0x91
 5099 1527 78        	.sleb128 -8
 5100 1528 2E        	.uleb128 0x2e
 5101 1529 636E 7400 	.string"cnt"
 5102 152d 01        	.byte0x1
 5103 152e 0444      	.word0x444
 5104 1530 0000 0070 	.long0x70
68K GAS   			page 120


 5105 1534 02        	.uleb128 0x2
 5106 1535 91        	.byte0x91
 5107 1536 74        	.sleb128 -12
 5108 1537 2F        	.uleb128 0x2f
 5109 1538 0000 0000 	.long.LASF292
 5110 153c 01        	.byte0x1
 5111 153d 0445      	.word0x445
 5112 153f 0000 11FB 	.long0x11fb
 5113 1543 02        	.uleb128 0x2
 5114 1544 91        	.byte0x91
 5115 1545 70        	.sleb128 -16
 5116 1546 00        	.byte0
 5117 1547 2C        	.uleb128 0x2c
 5118 1548 0000 0000 	.long.LASF293
 5119 154c 01        	.byte0x1
 5120 154d 03E5      	.word0x3e5
 5121 154f 0000 0000 	.long.LFB73
 5122 1553 0000 0222 	.long.LFE73-.LFB73
 5123 1557 01        	.uleb128 0x1
 5124 1558 9C        	.byte0x9c
 5125 1559 0000 15B6 	.long0x15b6
 5126 155d 2E        	.uleb128 0x2e
 5127 155e 6900      	.string"i"
 5128 1560 01        	.byte0x1
 5129 1561 03E7      	.word0x3e7
 5130 1563 0000 0070 	.long0x70
 5131 1567 02        	.uleb128 0x2
 5132 1568 91        	.byte0x91
 5133 1569 78        	.sleb128 -8
 5134 156a 2F        	.uleb128 0x2f
 5135 156b 0000 0000 	.long.LASF294
 5136 156f 01        	.byte0x1
 5137 1570 03E8      	.word0x3e8
 5138 1572 0000 0070 	.long0x70
 5139 1576 02        	.uleb128 0x2
 5140 1577 91        	.byte0x91
 5141 1578 74        	.sleb128 -12
 5142 1579 2F        	.uleb128 0x2f
 5143 157a 0000 0000 	.long.LASF295
 5144 157e 01        	.byte0x1
 5145 157f 03E9      	.word0x3e9
 5146 1581 0000 0070 	.long0x70
 5147 1585 02        	.uleb128 0x2
 5148 1586 91        	.byte0x91
 5149 1587 70        	.sleb128 -16
 5150 1588 2F        	.uleb128 0x2f
 5151 1589 0000 0000 	.long.LASF296
 5152 158d 01        	.byte0x1
 5153 158e 03EA      	.word0x3ea
 5154 1590 0000 003A 	.long0x3a
 5155 1594 02        	.uleb128 0x2
 5156 1595 91        	.byte0x91
 5157 1596 68        	.sleb128 -24
 5158 1597 2F        	.uleb128 0x2f
 5159 1598 0000 0000 	.long.LASF292
 5160 159c 01        	.byte0x1
 5161 159d 03EB      	.word0x3eb
68K GAS   			page 121


 5162 159f 0000 11FB 	.long0x11fb
 5163 15a3 02        	.uleb128 0x2
 5164 15a4 91        	.byte0x91
 5165 15a5 6C        	.sleb128 -20
 5166 15a6 30        	.uleb128 0x30
 5167 15a7 0000 0000 	.long.LASF324
 5168 15ab 0000 15C6 	.long0x15c6
 5169 15af 05        	.uleb128 0x5
 5170 15b0 03        	.byte0x3
 5171 15b1 0000 0000 	.long__func__.5918
 5172 15b5 00        	.byte0
 5173 15b6 05        	.uleb128 0x5
 5174 15b7 0000 009B 	.long0x9b
 5175 15bb 0000 15C6 	.long0x15c6
 5176 15bf 06        	.uleb128 0x6
 5177 15c0 0000 007B 	.long0x7b
 5178 15c4 13        	.byte0x13
 5179 15c5 00        	.byte0
 5180 15c6 04        	.uleb128 0x4
 5181 15c7 0000 15B6 	.long0x15b6
 5182 15cb 31        	.uleb128 0x31
 5183 15cc 0000 0000 	.long.LASF298
 5184 15d0 01        	.byte0x1
 5185 15d1 0397      	.word0x397
 5186 15d3 0000 003A 	.long0x3a
 5187 15d7 0000 0000 	.long.LFB72
 5188 15db 0000 01BE 	.long.LFE72-.LFB72
 5189 15df 01        	.uleb128 0x1
 5190 15e0 9C        	.byte0x9c
 5191 15e1 0000 165C 	.long0x165c
 5192 15e5 2B        	.uleb128 0x2b
 5193 15e6 0000 0000 	.long.LASF179
 5194 15ea 01        	.byte0x1
 5195 15eb 0397      	.word0x397
 5196 15ed 0000 0160 	.long0x160
 5197 15f1 02        	.uleb128 0x2
 5198 15f2 91        	.byte0x91
 5199 15f3 00        	.sleb128 0
 5200 15f4 2E        	.uleb128 0x2e
 5201 15f5 6900      	.string"i"
 5202 15f7 01        	.byte0x1
 5203 15f8 0399      	.word0x399
 5204 15fa 0000 005E 	.long0x5e
 5205 15fe 02        	.uleb128 0x2
 5206 15ff 91        	.byte0x91
 5207 1600 7A        	.sleb128 -6
 5208 1601 2E        	.uleb128 0x2e
 5209 1602 6664 00   	.string"fd"
 5210 1605 01        	.byte0x1
 5211 1606 039A      	.word0x39a
 5212 1608 0000 003A 	.long0x3a
 5213 160c 02        	.uleb128 0x2
 5214 160d 91        	.byte0x91
 5215 160e 6C        	.sleb128 -20
 5216 160f 2F        	.uleb128 0x2f
 5217 1610 0000 0000 	.long.LASF299
 5218 1614 01        	.byte0x1
68K GAS   			page 122


 5219 1615 039B      	.word0x39b
 5220 1617 0000 003A 	.long0x3a
 5221 161b 02        	.uleb128 0x2
 5222 161c 91        	.byte0x91
 5223 161d 68        	.sleb128 -24
 5224 161e 2F        	.uleb128 0x2f
 5225 161f 0000 0000 	.long.LASF300
 5226 1623 01        	.byte0x1
 5227 1624 039C      	.word0x39c
 5228 1626 0000 0070 	.long0x70
 5229 162a 02        	.uleb128 0x2
 5230 162b 91        	.byte0x91
 5231 162c 74        	.sleb128 -12
 5232 162d 2F        	.uleb128 0x2f
 5233 162e 0000 0000 	.long.LASF301
 5234 1632 01        	.byte0x1
 5235 1633 039D      	.word0x39d
 5236 1635 0000 0070 	.long0x70
 5237 1639 02        	.uleb128 0x2
 5238 163a 91        	.byte0x91
 5239 163b 70        	.sleb128 -16
 5240 163c 2F        	.uleb128 0x2f
 5241 163d 0000 0000 	.long.LASF237
 5242 1641 01        	.byte0x1
 5243 1642 039E      	.word0x39e
 5244 1644 0000 0F95 	.long0xf95
 5245 1648 02        	.uleb128 0x2
 5246 1649 91        	.byte0x91
 5247 164a 64        	.sleb128 -28
 5248 164b 2F        	.uleb128 0x2f
 5249 164c 0000 0000 	.long.LASF302
 5250 1650 01        	.byte0x1
 5251 1651 039F      	.word0x39f
 5252 1653 0000 0C0D 	.long0xc0d
 5253 1657 03        	.uleb128 0x3
 5254 1658 91        	.byte0x91
 5255 1659 A47F      	.sleb128 -92
 5256 165b 00        	.byte0
 5257 165c 31        	.uleb128 0x31
 5258 165d 0000 0000 	.long.LASF303
 5259 1661 01        	.byte0x1
 5260 1662 034F      	.word0x34f
 5261 1664 0000 003A 	.long0x3a
 5262 1668 0000 0000 	.long.LFB71
 5263 166c 0000 01A6 	.long.LFE71-.LFB71
 5264 1670 01        	.uleb128 0x1
 5265 1671 9C        	.byte0x9c
 5266 1672 0000 16DE 	.long0x16de
 5267 1676 2B        	.uleb128 0x2b
 5268 1677 0000 0000 	.long.LASF179
 5269 167b 01        	.byte0x1
 5270 167c 034F      	.word0x34f
 5271 167e 0000 0160 	.long0x160
 5272 1682 02        	.uleb128 0x2
 5273 1683 91        	.byte0x91
 5274 1684 00        	.sleb128 0
 5275 1685 2E        	.uleb128 0x2e
68K GAS   			page 123


 5276 1686 6900      	.string"i"
 5277 1688 01        	.byte0x1
 5278 1689 0351      	.word0x351
 5279 168b 0000 005E 	.long0x5e
 5280 168f 02        	.uleb128 0x2
 5281 1690 91        	.byte0x91
 5282 1691 7A        	.sleb128 -6
 5283 1692 2E        	.uleb128 0x2e
 5284 1693 6664 00   	.string"fd"
 5285 1696 01        	.byte0x1
 5286 1697 0352      	.word0x352
 5287 1699 0000 003A 	.long0x3a
 5288 169d 02        	.uleb128 0x2
 5289 169e 91        	.byte0x91
 5290 169f 6C        	.sleb128 -20
 5291 16a0 2F        	.uleb128 0x2f
 5292 16a1 0000 0000 	.long.LASF299
 5293 16a5 01        	.byte0x1
 5294 16a6 0353      	.word0x353
 5295 16a8 0000 003A 	.long0x3a
 5296 16ac 02        	.uleb128 0x2
 5297 16ad 91        	.byte0x91
 5298 16ae 68        	.sleb128 -24
 5299 16af 2F        	.uleb128 0x2f
 5300 16b0 0000 0000 	.long.LASF300
 5301 16b4 01        	.byte0x1
 5302 16b5 0354      	.word0x354
 5303 16b7 0000 0070 	.long0x70
 5304 16bb 02        	.uleb128 0x2
 5305 16bc 91        	.byte0x91
 5306 16bd 74        	.sleb128 -12
 5307 16be 2F        	.uleb128 0x2f
 5308 16bf 0000 0000 	.long.LASF301
 5309 16c3 01        	.byte0x1
 5310 16c4 0355      	.word0x355
 5311 16c6 0000 0070 	.long0x70
 5312 16ca 02        	.uleb128 0x2
 5313 16cb 91        	.byte0x91
 5314 16cc 70        	.sleb128 -16
 5315 16cd 2F        	.uleb128 0x2f
 5316 16ce 0000 0000 	.long.LASF302
 5317 16d2 01        	.byte0x1
 5318 16d3 0356      	.word0x356
 5319 16d5 0000 0C0D 	.long0xc0d
 5320 16d9 03        	.uleb128 0x3
 5321 16da 91        	.byte0x91
 5322 16db A87F      	.sleb128 -88
 5323 16dd 00        	.byte0
 5324 16de 31        	.uleb128 0x31
 5325 16df 0000 0000 	.long.LASF304
 5326 16e3 01        	.byte0x1
 5327 16e4 02E3      	.word0x2e3
 5328 16e6 0000 003A 	.long0x3a
 5329 16ea 0000 0000 	.long.LFB70
 5330 16ee 0000 029C 	.long.LFE70-.LFB70
 5331 16f2 01        	.uleb128 0x1
 5332 16f3 9C        	.byte0x9c
68K GAS   			page 124


 5333 16f4 0000 179C 	.long0x179c
 5334 16f8 2B        	.uleb128 0x2b
 5335 16f9 0000 0000 	.long.LASF179
 5336 16fd 01        	.byte0x1
 5337 16fe 02E3      	.word0x2e3
 5338 1700 0000 0160 	.long0x160
 5339 1704 02        	.uleb128 0x2
 5340 1705 91        	.byte0x91
 5341 1706 00        	.sleb128 0
 5342 1707 2F        	.uleb128 0x2f
 5343 1708 0000 0000 	.long.LASF305
 5344 170c 01        	.byte0x1
 5345 170d 02E5      	.word0x2e5
 5346 170f 0000 0ADB 	.long0xadb
 5347 1713 02        	.uleb128 0x2
 5348 1714 91        	.byte0x91
 5349 1715 6A        	.sleb128 -22
 5350 1716 2E        	.uleb128 0x2e
 5351 1717 6900      	.string"i"
 5352 1719 01        	.byte0x1
 5353 171a 02E6      	.word0x2e6
 5354 171c 0000 0ADB 	.long0xadb
 5355 1720 02        	.uleb128 0x2
 5356 1721 91        	.byte0x91
 5357 1722 7A        	.sleb128 -6
 5358 1723 2E        	.uleb128 0x2e
 5359 1724 6664 00   	.string"fd"
 5360 1727 01        	.byte0x1
 5361 1728 02E7      	.word0x2e7
 5362 172a 0000 003A 	.long0x3a
 5363 172e 02        	.uleb128 0x2
 5364 172f 91        	.byte0x91
 5365 1730 64        	.sleb128 -28
 5366 1731 2F        	.uleb128 0x2f
 5367 1732 0000 0000 	.long.LASF299
 5368 1736 01        	.byte0x1
 5369 1737 02E8      	.word0x2e8
 5370 1739 0000 003A 	.long0x3a
 5371 173d 02        	.uleb128 0x2
 5372 173e 91        	.byte0x91
 5373 173f 60        	.sleb128 -32
 5374 1740 2F        	.uleb128 0x2f
 5375 1741 0000 0000 	.long.LASF300
 5376 1745 01        	.byte0x1
 5377 1746 02E9      	.word0x2e9
 5378 1748 0000 0070 	.long0x70
 5379 174c 02        	.uleb128 0x2
 5380 174d 91        	.byte0x91
 5381 174e 74        	.sleb128 -12
 5382 174f 2F        	.uleb128 0x2f
 5383 1750 0000 0000 	.long.LASF301
 5384 1754 01        	.byte0x1
 5385 1755 02EA      	.word0x2ea
 5386 1757 0000 0070 	.long0x70
 5387 175b 02        	.uleb128 0x2
 5388 175c 91        	.byte0x91
 5389 175d 70        	.sleb128 -16
68K GAS   			page 125


 5390 175e 2F        	.uleb128 0x2f
 5391 175f 0000 0000 	.long.LASF237
 5392 1763 01        	.byte0x1
 5393 1764 02EB      	.word0x2eb
 5394 1766 0000 0F65 	.long0xf65
 5395 176a 03        	.uleb128 0x3
 5396 176b 91        	.byte0x91
 5397 176c AE7F      	.sleb128 -82
 5398 176e 2F        	.uleb128 0x2f
 5399 176f 0000 0000 	.long.LASF302
 5400 1773 01        	.byte0x1
 5401 1774 02EC      	.word0x2ec
 5402 1776 0000 0C0D 	.long0xc0d
 5403 177a 03        	.uleb128 0x3
 5404 177b 91        	.byte0x91
 5405 177c EC7E      	.sleb128 -148
 5406 177e 2E        	.uleb128 0x2e
 5407 177f 7064 00   	.string"pd"
 5408 1782 01        	.byte0x1
 5409 1783 02ED      	.word0x2ed
 5410 1785 0000 179C 	.long0x179c
 5411 1789 02        	.uleb128 0x2
 5412 178a 91        	.byte0x91
 5413 178b 5C        	.sleb128 -36
 5414 178c 2F        	.uleb128 0x2f
 5415 178d 0000 0000 	.long.LASF292
 5416 1791 01        	.byte0x1
 5417 1792 02EE      	.word0x2ee
 5418 1794 0000 11FB 	.long0x11fb
 5419 1798 02        	.uleb128 0x2
 5420 1799 91        	.byte0x91
 5421 179a 6C        	.sleb128 -20
 5422 179b 00        	.byte0
 5423 179c 0C        	.uleb128 0xc
 5424 179d 04        	.byte0x4
 5425 179e 0000 12AE 	.long0x12ae
 5426 17a2 2C        	.uleb128 0x2c
 5427 17a3 0000 0000 	.long.LASF306
 5428 17a7 01        	.byte0x1
 5429 17a8 02C5      	.word0x2c5
 5430 17aa 0000 0000 	.long.LFB69
 5431 17ae 0000 0056 	.long.LFE69-.LFB69
 5432 17b2 01        	.uleb128 0x1
 5433 17b3 9C        	.byte0x9c
 5434 17b4 0000 17F6 	.long0x17f6
 5435 17b8 2B        	.uleb128 0x2b
 5436 17b9 0000 0000 	.long.LASF201
 5437 17bd 01        	.byte0x1
 5438 17be 02C5      	.word0x2c5
 5439 17c0 0000 0AEC 	.long0xaec
 5440 17c4 02        	.uleb128 0x2
 5441 17c5 91        	.byte0x91
 5442 17c6 00        	.sleb128 0
 5443 17c7 2E        	.uleb128 0x2e
 5444 17c8 7074 7200 	.string"ptr"
 5445 17cc 01        	.byte0x1
 5446 17cd 02C7      	.word0x2c7
68K GAS   			page 126


 5447 17cf 0000 17F6 	.long0x17f6
 5448 17d3 02        	.uleb128 0x2
 5449 17d4 91        	.byte0x91
 5450 17d5 78        	.sleb128 -8
 5451 17d6 2F        	.uleb128 0x2f
 5452 17d7 0000 0000 	.long.LASF307
 5453 17db 01        	.byte0x1
 5454 17dc 02C8      	.word0x2c8
 5455 17de 0000 09D7 	.long0x9d7
 5456 17e2 03        	.uleb128 0x3
 5457 17e3 91        	.byte0x91
 5458 17e4 B47F      	.sleb128 -76
 5459 17e6 2F        	.uleb128 0x2f
 5460 17e7 0000 0000 	.long.LASF296
 5461 17eb 01        	.byte0x1
 5462 17ec 02C9      	.word0x2c9
 5463 17ee 0000 003A 	.long0x3a
 5464 17f2 02        	.uleb128 0x2
 5465 17f3 91        	.byte0x91
 5466 17f4 74        	.sleb128 -12
 5467 17f5 00        	.byte0
 5468 17f6 0C        	.uleb128 0xc
 5469 17f7 04        	.byte0x4
 5470 17f8 0000 0C2F 	.long0xc2f
 5471 17fc 2C        	.uleb128 0x2c
 5472 17fd 0000 0000 	.long.LASF308
 5473 1801 01        	.byte0x1
 5474 1802 02A8      	.word0x2a8
 5475 1804 0000 0000 	.long.LFB68
 5476 1808 0000 0056 	.long.LFE68-.LFB68
 5477 180c 01        	.uleb128 0x1
 5478 180d 9C        	.byte0x9c
 5479 180e 0000 1850 	.long0x1850
 5480 1812 2B        	.uleb128 0x2b
 5481 1813 0000 0000 	.long.LASF201
 5482 1817 01        	.byte0x1
 5483 1818 02A8      	.word0x2a8
 5484 181a 0000 0AEC 	.long0xaec
 5485 181e 02        	.uleb128 0x2
 5486 181f 91        	.byte0x91
 5487 1820 00        	.sleb128 0
 5488 1821 2E        	.uleb128 0x2e
 5489 1822 7074 7200 	.string"ptr"
 5490 1826 01        	.byte0x1
 5491 1827 02AA      	.word0x2aa
 5492 1829 0000 17F6 	.long0x17f6
 5493 182d 02        	.uleb128 0x2
 5494 182e 91        	.byte0x91
 5495 182f 78        	.sleb128 -8
 5496 1830 2F        	.uleb128 0x2f
 5497 1831 0000 0000 	.long.LASF307
 5498 1835 01        	.byte0x1
 5499 1836 02AB      	.word0x2ab
 5500 1838 0000 09D7 	.long0x9d7
 5501 183c 03        	.uleb128 0x3
 5502 183d 91        	.byte0x91
 5503 183e B47F      	.sleb128 -76
68K GAS   			page 127


 5504 1840 2F        	.uleb128 0x2f
 5505 1841 0000 0000 	.long.LASF296
 5506 1845 01        	.byte0x1
 5507 1846 02AC      	.word0x2ac
 5508 1848 0000 003A 	.long0x3a
 5509 184c 02        	.uleb128 0x2
 5510 184d 91        	.byte0x91
 5511 184e 74        	.sleb128 -12
 5512 184f 00        	.byte0
 5513 1850 2C        	.uleb128 0x2c
 5514 1851 0000 0000 	.long.LASF309
 5515 1855 01        	.byte0x1
 5516 1856 028B      	.word0x28b
 5517 1858 0000 0000 	.long.LFB67
 5518 185c 0000 0056 	.long.LFE67-.LFB67
 5519 1860 01        	.uleb128 0x1
 5520 1861 9C        	.byte0x9c
 5521 1862 0000 18A4 	.long0x18a4
 5522 1866 2B        	.uleb128 0x2b
 5523 1867 0000 0000 	.long.LASF201
 5524 186b 01        	.byte0x1
 5525 186c 028B      	.word0x28b
 5526 186e 0000 0AEC 	.long0xaec
 5527 1872 02        	.uleb128 0x2
 5528 1873 91        	.byte0x91
 5529 1874 00        	.sleb128 0
 5530 1875 2E        	.uleb128 0x2e
 5531 1876 7074 7200 	.string"ptr"
 5532 187a 01        	.byte0x1
 5533 187b 028D      	.word0x28d
 5534 187d 0000 17F6 	.long0x17f6
 5535 1881 02        	.uleb128 0x2
 5536 1882 91        	.byte0x91
 5537 1883 78        	.sleb128 -8
 5538 1884 2F        	.uleb128 0x2f
 5539 1885 0000 0000 	.long.LASF307
 5540 1889 01        	.byte0x1
 5541 188a 028E      	.word0x28e
 5542 188c 0000 09D7 	.long0x9d7
 5543 1890 03        	.uleb128 0x3
 5544 1891 91        	.byte0x91
 5545 1892 B47F      	.sleb128 -76
 5546 1894 2F        	.uleb128 0x2f
 5547 1895 0000 0000 	.long.LASF296
 5548 1899 01        	.byte0x1
 5549 189a 028F      	.word0x28f
 5550 189c 0000 003A 	.long0x3a
 5551 18a0 02        	.uleb128 0x2
 5552 18a1 91        	.byte0x91
 5553 18a2 74        	.sleb128 -12
 5554 18a3 00        	.byte0
 5555 18a4 32        	.uleb128 0x32
 5556 18a5 0000 0000 	.long.LASF313
 5557 18a9 01        	.byte0x1
 5558 18aa 0273      	.word0x273
 5559 18ac 0000 0000 	.long.LFB66
 5560 18b0 0000 003A 	.long.LFE66-.LFB66
68K GAS   			page 128


 5561 18b4 01        	.uleb128 0x1
 5562 18b5 9C        	.byte0x9c
 5563 18b6 2C        	.uleb128 0x2c
 5564 18b7 0000 0000 	.long.LASF310
 5565 18bb 01        	.byte0x1
 5566 18bc 0241      	.word0x241
 5567 18be 0000 0000 	.long.LFB65
 5568 18c2 0000 011E 	.long.LFE65-.LFB65
 5569 18c6 01        	.uleb128 0x1
 5570 18c7 9C        	.byte0x9c
 5571 18c8 0000 1918 	.long0x1918
 5572 18cc 2B        	.uleb128 0x2b
 5573 18cd 0000 0000 	.long.LASF201
 5574 18d1 01        	.byte0x1
 5575 18d2 0241      	.word0x241
 5576 18d4 0000 0AEC 	.long0xaec
 5577 18d8 02        	.uleb128 0x2
 5578 18d9 91        	.byte0x91
 5579 18da 00        	.sleb128 0
 5580 18db 2F        	.uleb128 0x2f
 5581 18dc 0000 0000 	.long.LASF181
 5582 18e0 01        	.byte0x1
 5583 18e1 0243      	.word0x243
 5584 18e3 0000 0ADB 	.long0xadb
 5585 18e7 02        	.uleb128 0x2
 5586 18e8 91        	.byte0x91
 5587 18e9 76        	.sleb128 -10
 5588 18ea 2F        	.uleb128 0x2f
 5589 18eb 0000 0000 	.long.LASF203
 5590 18ef 01        	.byte0x1
 5591 18f0 0244      	.word0x244
 5592 18f2 0000 0AD0 	.long0xad0
 5593 18f6 02        	.uleb128 0x2
 5594 18f7 91        	.byte0x91
 5595 18f8 75        	.sleb128 -11
 5596 18f9 2F        	.uleb128 0x2f
 5597 18fa 0000 0000 	.long.LASF292
 5598 18fe 01        	.byte0x1
 5599 18ff 0245      	.word0x245
 5600 1901 0000 11FB 	.long0x11fb
 5601 1905 02        	.uleb128 0x2
 5602 1906 91        	.byte0x91
 5603 1907 70        	.sleb128 -16
 5604 1908 2F        	.uleb128 0x2f
 5605 1909 0000 0000 	.long.LASF311
 5606 190d 01        	.byte0x1
 5607 190e 0246      	.word0x246
 5608 1910 0000 1918 	.long0x1918
 5609 1914 02        	.uleb128 0x2
 5610 1915 91        	.byte0x91
 5611 1916 78        	.sleb128 -8
 5612 1917 00        	.byte0
 5613 1918 0C        	.uleb128 0xc
 5614 1919 04        	.byte0x4
 5615 191a 0000 0C6C 	.long0xc6c
 5616 191e 2C        	.uleb128 0x2c
 5617 191f 0000 0000 	.long.LASF312
68K GAS   			page 129


 5618 1923 01        	.byte0x1
 5619 1924 020C      	.word0x20c
 5620 1926 0000 0000 	.long.LFB64
 5621 192a 0000 011E 	.long.LFE64-.LFB64
 5622 192e 01        	.uleb128 0x1
 5623 192f 9C        	.byte0x9c
 5624 1930 0000 1980 	.long0x1980
 5625 1934 2B        	.uleb128 0x2b
 5626 1935 0000 0000 	.long.LASF201
 5627 1939 01        	.byte0x1
 5628 193a 020C      	.word0x20c
 5629 193c 0000 0AEC 	.long0xaec
 5630 1940 02        	.uleb128 0x2
 5631 1941 91        	.byte0x91
 5632 1942 00        	.sleb128 0
 5633 1943 2F        	.uleb128 0x2f
 5634 1944 0000 0000 	.long.LASF181
 5635 1948 01        	.byte0x1
 5636 1949 020E      	.word0x20e
 5637 194b 0000 0ADB 	.long0xadb
 5638 194f 02        	.uleb128 0x2
 5639 1950 91        	.byte0x91
 5640 1951 76        	.sleb128 -10
 5641 1952 2F        	.uleb128 0x2f
 5642 1953 0000 0000 	.long.LASF203
 5643 1957 01        	.byte0x1
 5644 1958 020F      	.word0x20f
 5645 195a 0000 0AD0 	.long0xad0
 5646 195e 02        	.uleb128 0x2
 5647 195f 91        	.byte0x91
 5648 1960 75        	.sleb128 -11
 5649 1961 2F        	.uleb128 0x2f
 5650 1962 0000 0000 	.long.LASF292
 5651 1966 01        	.byte0x1
 5652 1967 0210      	.word0x210
 5653 1969 0000 11FB 	.long0x11fb
 5654 196d 02        	.uleb128 0x2
 5655 196e 91        	.byte0x91
 5656 196f 70        	.sleb128 -16
 5657 1970 2F        	.uleb128 0x2f
 5658 1971 0000 0000 	.long.LASF311
 5659 1975 01        	.byte0x1
 5660 1976 0211      	.word0x211
 5661 1978 0000 1918 	.long0x1918
 5662 197c 02        	.uleb128 0x2
 5663 197d 91        	.byte0x91
 5664 197e 78        	.sleb128 -8
 5665 197f 00        	.byte0
 5666 1980 33        	.uleb128 0x33
 5667 1981 0000 0000 	.long.LASF314
 5668 1985 01        	.byte0x1
 5669 1986 01EE      	.word0x1ee
 5670 1988 0000 0000 	.long.LFB63
 5671 198c 0000 005C 	.long.LFE63-.LFB63
 5672 1990 01        	.uleb128 0x1
 5673 1991 9C        	.byte0x9c
 5674 1992 32        	.uleb128 0x32
68K GAS   			page 130


 5675 1993 0000 0000 	.long.LASF315
 5676 1997 01        	.byte0x1
 5677 1998 01D4      	.word0x1d4
 5678 199a 0000 0000 	.long.LFB62
 5679 199e 0000 0040 	.long.LFE62-.LFB62
 5680 19a2 01        	.uleb128 0x1
 5681 19a3 9C        	.byte0x9c
 5682 19a4 2C        	.uleb128 0x2c
 5683 19a5 0000 0000 	.long.LASF316
 5684 19a9 01        	.byte0x1
 5685 19aa 0171      	.word0x171
 5686 19ac 0000 0000 	.long.LFB61
 5687 19b0 0000 01E2 	.long.LFE61-.LFB61
 5688 19b4 01        	.uleb128 0x1
 5689 19b5 9C        	.byte0x9c
 5690 19b6 0000 19CA 	.long0x19ca
 5691 19ba 2F        	.uleb128 0x2f
 5692 19bb 0000 0000 	.long.LASF201
 5693 19bf 01        	.byte0x1
 5694 19c0 0172      	.word0x172
 5695 19c2 0000 0AEC 	.long0xaec
 5696 19c6 02        	.uleb128 0x2
 5697 19c7 91        	.byte0x91
 5698 19c8 78        	.sleb128 -8
 5699 19c9 00        	.byte0
 5700 19ca 34        	.uleb128 0x34
 5701 19cb 0000 0000 	.long.LASF317
 5702 19cf 01        	.byte0x1
 5703 19d0 C0        	.byte0xc0
 5704 19d1 0000 003A 	.long0x3a
 5705 19d5 0000 0000 	.long.LFB60
 5706 19d9 0000 0398 	.long.LFE60-.LFB60
 5707 19dd 01        	.uleb128 0x1
 5708 19de 9C        	.byte0x9c
 5709 19df 0000 1A0E 	.long0x1a0e
 5710 19e3 35        	.uleb128 0x35
 5711 19e4 0000 0000 	.long.LASF318
 5712 19e8 01        	.byte0x1
 5713 19e9 C2        	.byte0xc2
 5714 19ea 0000 0070 	.long0x70
 5715 19ee 02        	.uleb128 0x2
 5716 19ef 91        	.byte0x91
 5717 19f0 78        	.sleb128 -8
 5718 19f1 35        	.uleb128 0x35
 5719 19f2 0000 0000 	.long.LASF319
 5720 19f6 01        	.byte0x1
 5721 19f7 C3        	.byte0xc3
 5722 19f8 0000 1A0E 	.long0x1a0e
 5723 19fc 02        	.uleb128 0x2
 5724 19fd 91        	.byte0x91
 5725 19fe 70        	.sleb128 -16
 5726 19ff 35        	.uleb128 0x35
 5727 1a00 0000 0000 	.long.LASF320
 5728 1a04 01        	.byte0x1
 5729 1a05 C4        	.byte0xc4
 5730 1a06 0000 003A 	.long0x3a
 5731 1a0a 02        	.uleb128 0x2
68K GAS   			page 131


 5732 1a0b 91        	.byte0x91
 5733 1a0c 74        	.sleb128 -12
 5734 1a0d 00        	.byte0
 5735 1a0e 0C        	.uleb128 0xc
 5736 1a0f 04        	.byte0x4
 5737 1a10 0000 0070 	.long0x70
 5738 1a14 36        	.uleb128 0x36
 5739 1a15 0000 0000 	.long.LASF325
 5740 1a19 01        	.byte0x1
 5741 1a1a 79        	.byte0x79
 5742 1a1b 0000 0000 	.long.LFB59
 5743 1a1f 0000 00D6 	.long.LFE59-.LFB59
 5744 1a23 01        	.uleb128 0x1
 5745 1a24 9C        	.byte0x9c
 5746 1a25 35        	.uleb128 0x35
 5747 1a26 0000 0000 	.long.LASF320
 5748 1a2a 01        	.byte0x1
 5749 1a2b 7B        	.byte0x7b
 5750 1a2c 0000 003A 	.long0x3a
 5751 1a30 02        	.uleb128 0x2
 5752 1a31 91        	.byte0x91
 5753 1a32 78        	.sleb128 -8
 5754 1a33 00        	.byte0
 5755 1a34 00        	.byte0
 5756               	.section.debug_abbrev,"",@progbits
 5757               	.Ldebug_abbrev0:
 5758 0000 01        	.uleb128 0x1
 5759 0001 11        	.uleb128 0x11
 5760 0002 01        	.byte0x1
 5761 0003 25        	.uleb128 0x25
 5762 0004 0E        	.uleb128 0xe
 5763 0005 13        	.uleb128 0x13
 5764 0006 0B        	.uleb128 0xb
 5765 0007 03        	.uleb128 0x3
 5766 0008 0E        	.uleb128 0xe
 5767 0009 1B        	.uleb128 0x1b
 5768 000a 0E        	.uleb128 0xe
 5769 000b 11        	.uleb128 0x11
 5770 000c 01        	.uleb128 0x1
 5771 000d 12        	.uleb128 0x12
 5772 000e 06        	.uleb128 0x6
 5773 000f 10        	.uleb128 0x10
 5774 0010 17        	.uleb128 0x17
 5775 0011 00        	.byte0
 5776 0012 00        	.byte0
 5777 0013 02        	.uleb128 0x2
 5778 0014 24        	.uleb128 0x24
 5779 0015 00        	.byte0
 5780 0016 0B        	.uleb128 0xb
 5781 0017 0B        	.uleb128 0xb
 5782 0018 3E        	.uleb128 0x3e
 5783 0019 0B        	.uleb128 0xb
 5784 001a 03        	.uleb128 0x3
 5785 001b 0E        	.uleb128 0xe
 5786 001c 00        	.byte0
 5787 001d 00        	.byte0
 5788 001e 03        	.uleb128 0x3
68K GAS   			page 132


 5789 001f 16        	.uleb128 0x16
 5790 0020 00        	.byte0
 5791 0021 03        	.uleb128 0x3
 5792 0022 0E        	.uleb128 0xe
 5793 0023 3A        	.uleb128 0x3a
 5794 0024 0B        	.uleb128 0xb
 5795 0025 3B        	.uleb128 0x3b
 5796 0026 0B        	.uleb128 0xb
 5797 0027 49        	.uleb128 0x49
 5798 0028 13        	.uleb128 0x13
 5799 0029 00        	.byte0
 5800 002a 00        	.byte0
 5801 002b 04        	.uleb128 0x4
 5802 002c 26        	.uleb128 0x26
 5803 002d 00        	.byte0
 5804 002e 49        	.uleb128 0x49
 5805 002f 13        	.uleb128 0x13
 5806 0030 00        	.byte0
 5807 0031 00        	.byte0
 5808 0032 05        	.uleb128 0x5
 5809 0033 01        	.uleb128 0x1
 5810 0034 01        	.byte0x1
 5811 0035 49        	.uleb128 0x49
 5812 0036 13        	.uleb128 0x13
 5813 0037 01        	.uleb128 0x1
 5814 0038 13        	.uleb128 0x13
 5815 0039 00        	.byte0
 5816 003a 00        	.byte0
 5817 003b 06        	.uleb128 0x6
 5818 003c 21        	.uleb128 0x21
 5819 003d 00        	.byte0
 5820 003e 49        	.uleb128 0x49
 5821 003f 13        	.uleb128 0x13
 5822 0040 2F        	.uleb128 0x2f
 5823 0041 0B        	.uleb128 0xb
 5824 0042 00        	.byte0
 5825 0043 00        	.byte0
 5826 0044 07        	.uleb128 0x7
 5827 0045 0F        	.uleb128 0xf
 5828 0046 00        	.byte0
 5829 0047 0B        	.uleb128 0xb
 5830 0048 0B        	.uleb128 0xb
 5831 0049 00        	.byte0
 5832 004a 00        	.byte0
 5833 004b 08        	.uleb128 0x8
 5834 004c 24        	.uleb128 0x24
 5835 004d 00        	.byte0
 5836 004e 0B        	.uleb128 0xb
 5837 004f 0B        	.uleb128 0xb
 5838 0050 3E        	.uleb128 0x3e
 5839 0051 0B        	.uleb128 0xb
 5840 0052 03        	.uleb128 0x3
 5841 0053 08        	.uleb128 0x8
 5842 0054 00        	.byte0
 5843 0055 00        	.byte0
 5844 0056 09        	.uleb128 0x9
 5845 0057 13        	.uleb128 0x13
68K GAS   			page 133


 5846 0058 01        	.byte0x1
 5847 0059 03        	.uleb128 0x3
 5848 005a 0E        	.uleb128 0xe
 5849 005b 0B        	.uleb128 0xb
 5850 005c 0B        	.uleb128 0xb
 5851 005d 3A        	.uleb128 0x3a
 5852 005e 0B        	.uleb128 0xb
 5853 005f 3B        	.uleb128 0x3b
 5854 0060 0B        	.uleb128 0xb
 5855 0061 01        	.uleb128 0x1
 5856 0062 13        	.uleb128 0x13
 5857 0063 00        	.byte0
 5858 0064 00        	.byte0
 5859 0065 0A        	.uleb128 0xa
 5860 0066 0D        	.uleb128 0xd
 5861 0067 00        	.byte0
 5862 0068 03        	.uleb128 0x3
 5863 0069 0E        	.uleb128 0xe
 5864 006a 3A        	.uleb128 0x3a
 5865 006b 0B        	.uleb128 0xb
 5866 006c 3B        	.uleb128 0x3b
 5867 006d 0B        	.uleb128 0xb
 5868 006e 49        	.uleb128 0x49
 5869 006f 13        	.uleb128 0x13
 5870 0070 38        	.uleb128 0x38
 5871 0071 0B        	.uleb128 0xb
 5872 0072 00        	.byte0
 5873 0073 00        	.byte0
 5874 0074 0B        	.uleb128 0xb
 5875 0075 13        	.uleb128 0x13
 5876 0076 00        	.byte0
 5877 0077 03        	.uleb128 0x3
 5878 0078 0E        	.uleb128 0xe
 5879 0079 3C        	.uleb128 0x3c
 5880 007a 19        	.uleb128 0x19
 5881 007b 00        	.byte0
 5882 007c 00        	.byte0
 5883 007d 0C        	.uleb128 0xc
 5884 007e 0F        	.uleb128 0xf
 5885 007f 00        	.byte0
 5886 0080 0B        	.uleb128 0xb
 5887 0081 0B        	.uleb128 0xb
 5888 0082 49        	.uleb128 0x49
 5889 0083 13        	.uleb128 0x13
 5890 0084 00        	.byte0
 5891 0085 00        	.byte0
 5892 0086 0D        	.uleb128 0xd
 5893 0087 16        	.uleb128 0x16
 5894 0088 00        	.byte0
 5895 0089 03        	.uleb128 0x3
 5896 008a 0E        	.uleb128 0xe
 5897 008b 3A        	.uleb128 0x3a
 5898 008c 0B        	.uleb128 0xb
 5899 008d 3B        	.uleb128 0x3b
 5900 008e 05        	.uleb128 0x5
 5901 008f 49        	.uleb128 0x49
 5902 0090 13        	.uleb128 0x13
68K GAS   			page 134


 5903 0091 00        	.byte0
 5904 0092 00        	.byte0
 5905 0093 0E        	.uleb128 0xe
 5906 0094 17        	.uleb128 0x17
 5907 0095 01        	.byte0x1
 5908 0096 0B        	.uleb128 0xb
 5909 0097 0B        	.uleb128 0xb
 5910 0098 3A        	.uleb128 0x3a
 5911 0099 0B        	.uleb128 0xb
 5912 009a 3B        	.uleb128 0x3b
 5913 009b 0B        	.uleb128 0xb
 5914 009c 01        	.uleb128 0x1
 5915 009d 13        	.uleb128 0x13
 5916 009e 00        	.byte0
 5917 009f 00        	.byte0
 5918 00a0 0F        	.uleb128 0xf
 5919 00a1 0D        	.uleb128 0xd
 5920 00a2 00        	.byte0
 5921 00a3 03        	.uleb128 0x3
 5922 00a4 0E        	.uleb128 0xe
 5923 00a5 3A        	.uleb128 0x3a
 5924 00a6 0B        	.uleb128 0xb
 5925 00a7 3B        	.uleb128 0x3b
 5926 00a8 0B        	.uleb128 0xb
 5927 00a9 49        	.uleb128 0x49
 5928 00aa 13        	.uleb128 0x13
 5929 00ab 00        	.byte0
 5930 00ac 00        	.byte0
 5931 00ad 10        	.uleb128 0x10
 5932 00ae 13        	.uleb128 0x13
 5933 00af 01        	.byte0x1
 5934 00b0 0B        	.uleb128 0xb
 5935 00b1 0B        	.uleb128 0xb
 5936 00b2 3A        	.uleb128 0x3a
 5937 00b3 0B        	.uleb128 0xb
 5938 00b4 3B        	.uleb128 0x3b
 5939 00b5 0B        	.uleb128 0xb
 5940 00b6 01        	.uleb128 0x1
 5941 00b7 13        	.uleb128 0x13
 5942 00b8 00        	.byte0
 5943 00b9 00        	.byte0
 5944 00ba 11        	.uleb128 0x11
 5945 00bb 0D        	.uleb128 0xd
 5946 00bc 00        	.byte0
 5947 00bd 03        	.uleb128 0x3
 5948 00be 08        	.uleb128 0x8
 5949 00bf 3A        	.uleb128 0x3a
 5950 00c0 0B        	.uleb128 0xb
 5951 00c1 3B        	.uleb128 0x3b
 5952 00c2 0B        	.uleb128 0xb
 5953 00c3 49        	.uleb128 0x49
 5954 00c4 13        	.uleb128 0x13
 5955 00c5 38        	.uleb128 0x38
 5956 00c6 0B        	.uleb128 0xb
 5957 00c7 00        	.byte0
 5958 00c8 00        	.byte0
 5959 00c9 12        	.uleb128 0x12
68K GAS   			page 135


 5960 00ca 13        	.uleb128 0x13
 5961 00cb 01        	.byte0x1
 5962 00cc 03        	.uleb128 0x3
 5963 00cd 0E        	.uleb128 0xe
 5964 00ce 0B        	.uleb128 0xb
 5965 00cf 05        	.uleb128 0x5
 5966 00d0 3A        	.uleb128 0x3a
 5967 00d1 0B        	.uleb128 0xb
 5968 00d2 3B        	.uleb128 0x3b
 5969 00d3 0B        	.uleb128 0xb
 5970 00d4 01        	.uleb128 0x1
 5971 00d5 13        	.uleb128 0x13
 5972 00d6 00        	.byte0
 5973 00d7 00        	.byte0
 5974 00d8 13        	.uleb128 0x13
 5975 00d9 0D        	.uleb128 0xd
 5976 00da 00        	.byte0
 5977 00db 03        	.uleb128 0x3
 5978 00dc 0E        	.uleb128 0xe
 5979 00dd 3A        	.uleb128 0x3a
 5980 00de 0B        	.uleb128 0xb
 5981 00df 3B        	.uleb128 0x3b
 5982 00e0 0B        	.uleb128 0xb
 5983 00e1 49        	.uleb128 0x49
 5984 00e2 13        	.uleb128 0x13
 5985 00e3 38        	.uleb128 0x38
 5986 00e4 05        	.uleb128 0x5
 5987 00e5 00        	.byte0
 5988 00e6 00        	.byte0
 5989 00e7 14        	.uleb128 0x14
 5990 00e8 15        	.uleb128 0x15
 5991 00e9 00        	.byte0
 5992 00ea 27        	.uleb128 0x27
 5993 00eb 19        	.uleb128 0x19
 5994 00ec 00        	.byte0
 5995 00ed 00        	.byte0
 5996 00ee 15        	.uleb128 0x15
 5997 00ef 15        	.uleb128 0x15
 5998 00f0 01        	.byte0x1
 5999 00f1 27        	.uleb128 0x27
 6000 00f2 19        	.uleb128 0x19
 6001 00f3 49        	.uleb128 0x49
 6002 00f4 13        	.uleb128 0x13
 6003 00f5 01        	.uleb128 0x1
 6004 00f6 13        	.uleb128 0x13
 6005 00f7 00        	.byte0
 6006 00f8 00        	.byte0
 6007 00f9 16        	.uleb128 0x16
 6008 00fa 05        	.uleb128 0x5
 6009 00fb 00        	.byte0
 6010 00fc 49        	.uleb128 0x49
 6011 00fd 13        	.uleb128 0x13
 6012 00fe 00        	.byte0
 6013 00ff 00        	.byte0
 6014 0100 17        	.uleb128 0x17
 6015 0101 13        	.uleb128 0x13
 6016 0102 01        	.byte0x1
68K GAS   			page 136


 6017 0103 03        	.uleb128 0x3
 6018 0104 0E        	.uleb128 0xe
 6019 0105 0B        	.uleb128 0xb
 6020 0106 05        	.uleb128 0x5
 6021 0107 3A        	.uleb128 0x3a
 6022 0108 0B        	.uleb128 0xb
 6023 0109 3B        	.uleb128 0x3b
 6024 010a 05        	.uleb128 0x5
 6025 010b 01        	.uleb128 0x1
 6026 010c 13        	.uleb128 0x13
 6027 010d 00        	.byte0
 6028 010e 00        	.byte0
 6029 010f 18        	.uleb128 0x18
 6030 0110 0D        	.uleb128 0xd
 6031 0111 00        	.byte0
 6032 0112 03        	.uleb128 0x3
 6033 0113 0E        	.uleb128 0xe
 6034 0114 3A        	.uleb128 0x3a
 6035 0115 0B        	.uleb128 0xb
 6036 0116 3B        	.uleb128 0x3b
 6037 0117 05        	.uleb128 0x5
 6038 0118 49        	.uleb128 0x49
 6039 0119 13        	.uleb128 0x13
 6040 011a 38        	.uleb128 0x38
 6041 011b 0B        	.uleb128 0xb
 6042 011c 00        	.byte0
 6043 011d 00        	.byte0
 6044 011e 19        	.uleb128 0x19
 6045 011f 0D        	.uleb128 0xd
 6046 0120 00        	.byte0
 6047 0121 03        	.uleb128 0x3
 6048 0122 0E        	.uleb128 0xe
 6049 0123 3A        	.uleb128 0x3a
 6050 0124 0B        	.uleb128 0xb
 6051 0125 3B        	.uleb128 0x3b
 6052 0126 05        	.uleb128 0x5
 6053 0127 49        	.uleb128 0x49
 6054 0128 13        	.uleb128 0x13
 6055 0129 38        	.uleb128 0x38
 6056 012a 05        	.uleb128 0x5
 6057 012b 00        	.byte0
 6058 012c 00        	.byte0
 6059 012d 1A        	.uleb128 0x1a
 6060 012e 13        	.uleb128 0x13
 6061 012f 01        	.byte0x1
 6062 0130 03        	.uleb128 0x3
 6063 0131 0E        	.uleb128 0xe
 6064 0132 0B        	.uleb128 0xb
 6065 0133 0B        	.uleb128 0xb
 6066 0134 3A        	.uleb128 0x3a
 6067 0135 0B        	.uleb128 0xb
 6068 0136 3B        	.uleb128 0x3b
 6069 0137 05        	.uleb128 0x5
 6070 0138 01        	.uleb128 0x1
 6071 0139 13        	.uleb128 0x13
 6072 013a 00        	.byte0
 6073 013b 00        	.byte0
68K GAS   			page 137


 6074 013c 1B        	.uleb128 0x1b
 6075 013d 13        	.uleb128 0x13
 6076 013e 01        	.byte0x1
 6077 013f 0B        	.uleb128 0xb
 6078 0140 0B        	.uleb128 0xb
 6079 0141 3A        	.uleb128 0x3a
 6080 0142 0B        	.uleb128 0xb
 6081 0143 3B        	.uleb128 0x3b
 6082 0144 05        	.uleb128 0x5
 6083 0145 01        	.uleb128 0x1
 6084 0146 13        	.uleb128 0x13
 6085 0147 00        	.byte0
 6086 0148 00        	.byte0
 6087 0149 1C        	.uleb128 0x1c
 6088 014a 17        	.uleb128 0x17
 6089 014b 01        	.byte0x1
 6090 014c 0B        	.uleb128 0xb
 6091 014d 0B        	.uleb128 0xb
 6092 014e 3A        	.uleb128 0x3a
 6093 014f 0B        	.uleb128 0xb
 6094 0150 3B        	.uleb128 0x3b
 6095 0151 05        	.uleb128 0x5
 6096 0152 01        	.uleb128 0x1
 6097 0153 13        	.uleb128 0x13
 6098 0154 00        	.byte0
 6099 0155 00        	.byte0
 6100 0156 1D        	.uleb128 0x1d
 6101 0157 0D        	.uleb128 0xd
 6102 0158 00        	.byte0
 6103 0159 03        	.uleb128 0x3
 6104 015a 0E        	.uleb128 0xe
 6105 015b 3A        	.uleb128 0x3a
 6106 015c 0B        	.uleb128 0xb
 6107 015d 3B        	.uleb128 0x3b
 6108 015e 05        	.uleb128 0x5
 6109 015f 49        	.uleb128 0x49
 6110 0160 13        	.uleb128 0x13
 6111 0161 00        	.byte0
 6112 0162 00        	.byte0
 6113 0163 1E        	.uleb128 0x1e
 6114 0164 15        	.uleb128 0x15
 6115 0165 01        	.byte0x1
 6116 0166 27        	.uleb128 0x27
 6117 0167 19        	.uleb128 0x19
 6118 0168 01        	.uleb128 0x1
 6119 0169 13        	.uleb128 0x13
 6120 016a 00        	.byte0
 6121 016b 00        	.byte0
 6122 016c 1F        	.uleb128 0x1f
 6123 016d 34        	.uleb128 0x34
 6124 016e 00        	.byte0
 6125 016f 03        	.uleb128 0x3
 6126 0170 0E        	.uleb128 0xe
 6127 0171 3A        	.uleb128 0x3a
 6128 0172 0B        	.uleb128 0xb
 6129 0173 3B        	.uleb128 0x3b
 6130 0174 05        	.uleb128 0x5
68K GAS   			page 138


 6131 0175 49        	.uleb128 0x49
 6132 0176 13        	.uleb128 0x13
 6133 0177 3F        	.uleb128 0x3f
 6134 0178 19        	.uleb128 0x19
 6135 0179 3C        	.uleb128 0x3c
 6136 017a 19        	.uleb128 0x19
 6137 017b 00        	.byte0
 6138 017c 00        	.byte0
 6139 017d 20        	.uleb128 0x20
 6140 017e 34        	.uleb128 0x34
 6141 017f 00        	.byte0
 6142 0180 03        	.uleb128 0x3
 6143 0181 0E        	.uleb128 0xe
 6144 0182 3A        	.uleb128 0x3a
 6145 0183 0B        	.uleb128 0xb
 6146 0184 3B        	.uleb128 0x3b
 6147 0185 0B        	.uleb128 0xb
 6148 0186 49        	.uleb128 0x49
 6149 0187 13        	.uleb128 0x13
 6150 0188 3F        	.uleb128 0x3f
 6151 0189 19        	.uleb128 0x19
 6152 018a 3C        	.uleb128 0x3c
 6153 018b 19        	.uleb128 0x19
 6154 018c 00        	.byte0
 6155 018d 00        	.byte0
 6156 018e 21        	.uleb128 0x21
 6157 018f 0D        	.uleb128 0xd
 6158 0190 00        	.byte0
 6159 0191 03        	.uleb128 0x3
 6160 0192 08        	.uleb128 0x8
 6161 0193 3A        	.uleb128 0x3a
 6162 0194 0B        	.uleb128 0xb
 6163 0195 3B        	.uleb128 0x3b
 6164 0196 0B        	.uleb128 0xb
 6165 0197 49        	.uleb128 0x49
 6166 0198 13        	.uleb128 0x13
 6167 0199 00        	.byte0
 6168 019a 00        	.byte0
 6169 019b 22        	.uleb128 0x22
 6170 019c 0D        	.uleb128 0xd
 6171 019d 00        	.byte0
 6172 019e 03        	.uleb128 0x3
 6173 019f 08        	.uleb128 0x8
 6174 01a0 3A        	.uleb128 0x3a
 6175 01a1 0B        	.uleb128 0xb
 6176 01a2 3B        	.uleb128 0x3b
 6177 01a3 05        	.uleb128 0x5
 6178 01a4 49        	.uleb128 0x49
 6179 01a5 13        	.uleb128 0x13
 6180 01a6 38        	.uleb128 0x38
 6181 01a7 0B        	.uleb128 0xb
 6182 01a8 00        	.byte0
 6183 01a9 00        	.byte0
 6184 01aa 23        	.uleb128 0x23
 6185 01ab 13        	.uleb128 0x13
 6186 01ac 01        	.byte0x1
 6187 01ad 0B        	.uleb128 0xb
68K GAS   			page 139


 6188 01ae 05        	.uleb128 0x5
 6189 01af 3A        	.uleb128 0x3a
 6190 01b0 0B        	.uleb128 0xb
 6191 01b1 3B        	.uleb128 0x3b
 6192 01b2 05        	.uleb128 0x5
 6193 01b3 01        	.uleb128 0x1
 6194 01b4 13        	.uleb128 0x13
 6195 01b5 00        	.byte0
 6196 01b6 00        	.byte0
 6197 01b7 24        	.uleb128 0x24
 6198 01b8 13        	.uleb128 0x13
 6199 01b9 01        	.byte0x1
 6200 01ba 0B        	.uleb128 0xb
 6201 01bb 06        	.uleb128 0x6
 6202 01bc 3A        	.uleb128 0x3a
 6203 01bd 0B        	.uleb128 0xb
 6204 01be 3B        	.uleb128 0x3b
 6205 01bf 05        	.uleb128 0x5
 6206 01c0 01        	.uleb128 0x1
 6207 01c1 13        	.uleb128 0x13
 6208 01c2 00        	.byte0
 6209 01c3 00        	.byte0
 6210 01c4 25        	.uleb128 0x25
 6211 01c5 21        	.uleb128 0x21
 6212 01c6 00        	.byte0
 6213 01c7 49        	.uleb128 0x49
 6214 01c8 13        	.uleb128 0x13
 6215 01c9 2F        	.uleb128 0x2f
 6216 01ca 06        	.uleb128 0x6
 6217 01cb 00        	.byte0
 6218 01cc 00        	.byte0
 6219 01cd 26        	.uleb128 0x26
 6220 01ce 0D        	.uleb128 0xd
 6221 01cf 00        	.byte0
 6222 01d0 03        	.uleb128 0x3
 6223 01d1 08        	.uleb128 0x8
 6224 01d2 3A        	.uleb128 0x3a
 6225 01d3 0B        	.uleb128 0xb
 6226 01d4 3B        	.uleb128 0x3b
 6227 01d5 05        	.uleb128 0x5
 6228 01d6 49        	.uleb128 0x49
 6229 01d7 13        	.uleb128 0x13
 6230 01d8 38        	.uleb128 0x38
 6231 01d9 05        	.uleb128 0x5
 6232 01da 00        	.byte0
 6233 01db 00        	.byte0
 6234 01dc 27        	.uleb128 0x27
 6235 01dd 0D        	.uleb128 0xd
 6236 01de 00        	.byte0
 6237 01df 03        	.uleb128 0x3
 6238 01e0 0E        	.uleb128 0xe
 6239 01e1 3A        	.uleb128 0x3a
 6240 01e2 0B        	.uleb128 0xb
 6241 01e3 3B        	.uleb128 0x3b
 6242 01e4 05        	.uleb128 0x5
 6243 01e5 49        	.uleb128 0x49
 6244 01e6 13        	.uleb128 0x13
68K GAS   			page 140


 6245 01e7 38        	.uleb128 0x38
 6246 01e8 06        	.uleb128 0x6
 6247 01e9 00        	.byte0
 6248 01ea 00        	.byte0
 6249 01eb 28        	.uleb128 0x28
 6250 01ec 21        	.uleb128 0x21
 6251 01ed 00        	.byte0
 6252 01ee 49        	.uleb128 0x49
 6253 01ef 13        	.uleb128 0x13
 6254 01f0 2F        	.uleb128 0x2f
 6255 01f1 05        	.uleb128 0x5
 6256 01f2 00        	.byte0
 6257 01f3 00        	.byte0
 6258 01f4 29        	.uleb128 0x29
 6259 01f5 34        	.uleb128 0x34
 6260 01f6 00        	.byte0
 6261 01f7 47        	.uleb128 0x47
 6262 01f8 13        	.uleb128 0x13
 6263 01f9 3A        	.uleb128 0x3a
 6264 01fa 0B        	.uleb128 0xb
 6265 01fb 3B        	.uleb128 0x3b
 6266 01fc 0B        	.uleb128 0xb
 6267 01fd 02        	.uleb128 0x2
 6268 01fe 18        	.uleb128 0x18
 6269 01ff 00        	.byte0
 6270 0200 00        	.byte0
 6271 0201 2A        	.uleb128 0x2a
 6272 0202 2E        	.uleb128 0x2e
 6273 0203 01        	.byte0x1
 6274 0204 3F        	.uleb128 0x3f
 6275 0205 19        	.uleb128 0x19
 6276 0206 03        	.uleb128 0x3
 6277 0207 0E        	.uleb128 0xe
 6278 0208 3A        	.uleb128 0x3a
 6279 0209 0B        	.uleb128 0xb
 6280 020a 3B        	.uleb128 0x3b
 6281 020b 05        	.uleb128 0x5
 6282 020c 27        	.uleb128 0x27
 6283 020d 19        	.uleb128 0x19
 6284 020e 11        	.uleb128 0x11
 6285 020f 01        	.uleb128 0x1
 6286 0210 12        	.uleb128 0x12
 6287 0211 06        	.uleb128 0x6
 6288 0212 40        	.uleb128 0x40
 6289 0213 18        	.uleb128 0x18
 6290 0214 9742      	.uleb128 0x2117
 6291 0216 19        	.uleb128 0x19
 6292 0217 01        	.uleb128 0x1
 6293 0218 13        	.uleb128 0x13
 6294 0219 00        	.byte0
 6295 021a 00        	.byte0
 6296 021b 2B        	.uleb128 0x2b
 6297 021c 05        	.uleb128 0x5
 6298 021d 00        	.byte0
 6299 021e 03        	.uleb128 0x3
 6300 021f 0E        	.uleb128 0xe
 6301 0220 3A        	.uleb128 0x3a
68K GAS   			page 141


 6302 0221 0B        	.uleb128 0xb
 6303 0222 3B        	.uleb128 0x3b
 6304 0223 05        	.uleb128 0x5
 6305 0224 49        	.uleb128 0x49
 6306 0225 13        	.uleb128 0x13
 6307 0226 02        	.uleb128 0x2
 6308 0227 18        	.uleb128 0x18
 6309 0228 00        	.byte0
 6310 0229 00        	.byte0
 6311 022a 2C        	.uleb128 0x2c
 6312 022b 2E        	.uleb128 0x2e
 6313 022c 01        	.byte0x1
 6314 022d 3F        	.uleb128 0x3f
 6315 022e 19        	.uleb128 0x19
 6316 022f 03        	.uleb128 0x3
 6317 0230 0E        	.uleb128 0xe
 6318 0231 3A        	.uleb128 0x3a
 6319 0232 0B        	.uleb128 0xb
 6320 0233 3B        	.uleb128 0x3b
 6321 0234 05        	.uleb128 0x5
 6322 0235 27        	.uleb128 0x27
 6323 0236 19        	.uleb128 0x19
 6324 0237 11        	.uleb128 0x11
 6325 0238 01        	.uleb128 0x1
 6326 0239 12        	.uleb128 0x12
 6327 023a 06        	.uleb128 0x6
 6328 023b 40        	.uleb128 0x40
 6329 023c 18        	.uleb128 0x18
 6330 023d 9642      	.uleb128 0x2116
 6331 023f 19        	.uleb128 0x19
 6332 0240 01        	.uleb128 0x1
 6333 0241 13        	.uleb128 0x13
 6334 0242 00        	.byte0
 6335 0243 00        	.byte0
 6336 0244 2D        	.uleb128 0x2d
 6337 0245 2E        	.uleb128 0x2e
 6338 0246 01        	.byte0x1
 6339 0247 3F        	.uleb128 0x3f
 6340 0248 19        	.uleb128 0x19
 6341 0249 03        	.uleb128 0x3
 6342 024a 0E        	.uleb128 0xe
 6343 024b 3A        	.uleb128 0x3a
 6344 024c 0B        	.uleb128 0xb
 6345 024d 3B        	.uleb128 0x3b
 6346 024e 05        	.uleb128 0x5
 6347 024f 27        	.uleb128 0x27
 6348 0250 19        	.uleb128 0x19
 6349 0251 49        	.uleb128 0x49
 6350 0252 13        	.uleb128 0x13
 6351 0253 11        	.uleb128 0x11
 6352 0254 01        	.uleb128 0x1
 6353 0255 12        	.uleb128 0x12
 6354 0256 06        	.uleb128 0x6
 6355 0257 40        	.uleb128 0x40
 6356 0258 18        	.uleb128 0x18
 6357 0259 9742      	.uleb128 0x2117
 6358 025b 19        	.uleb128 0x19
68K GAS   			page 142


 6359 025c 01        	.uleb128 0x1
 6360 025d 13        	.uleb128 0x13
 6361 025e 00        	.byte0
 6362 025f 00        	.byte0
 6363 0260 2E        	.uleb128 0x2e
 6364 0261 34        	.uleb128 0x34
 6365 0262 00        	.byte0
 6366 0263 03        	.uleb128 0x3
 6367 0264 08        	.uleb128 0x8
 6368 0265 3A        	.uleb128 0x3a
 6369 0266 0B        	.uleb128 0xb
 6370 0267 3B        	.uleb128 0x3b
 6371 0268 05        	.uleb128 0x5
 6372 0269 49        	.uleb128 0x49
 6373 026a 13        	.uleb128 0x13
 6374 026b 02        	.uleb128 0x2
 6375 026c 18        	.uleb128 0x18
 6376 026d 00        	.byte0
 6377 026e 00        	.byte0
 6378 026f 2F        	.uleb128 0x2f
 6379 0270 34        	.uleb128 0x34
 6380 0271 00        	.byte0
 6381 0272 03        	.uleb128 0x3
 6382 0273 0E        	.uleb128 0xe
 6383 0274 3A        	.uleb128 0x3a
 6384 0275 0B        	.uleb128 0xb
 6385 0276 3B        	.uleb128 0x3b
 6386 0277 05        	.uleb128 0x5
 6387 0278 49        	.uleb128 0x49
 6388 0279 13        	.uleb128 0x13
 6389 027a 02        	.uleb128 0x2
 6390 027b 18        	.uleb128 0x18
 6391 027c 00        	.byte0
 6392 027d 00        	.byte0
 6393 027e 30        	.uleb128 0x30
 6394 027f 34        	.uleb128 0x34
 6395 0280 00        	.byte0
 6396 0281 03        	.uleb128 0x3
 6397 0282 0E        	.uleb128 0xe
 6398 0283 49        	.uleb128 0x49
 6399 0284 13        	.uleb128 0x13
 6400 0285 34        	.uleb128 0x34
 6401 0286 19        	.uleb128 0x19
 6402 0287 02        	.uleb128 0x2
 6403 0288 18        	.uleb128 0x18
 6404 0289 00        	.byte0
 6405 028a 00        	.byte0
 6406 028b 31        	.uleb128 0x31
 6407 028c 2E        	.uleb128 0x2e
 6408 028d 01        	.byte0x1
 6409 028e 3F        	.uleb128 0x3f
 6410 028f 19        	.uleb128 0x19
 6411 0290 03        	.uleb128 0x3
 6412 0291 0E        	.uleb128 0xe
 6413 0292 3A        	.uleb128 0x3a
 6414 0293 0B        	.uleb128 0xb
 6415 0294 3B        	.uleb128 0x3b
68K GAS   			page 143


 6416 0295 05        	.uleb128 0x5
 6417 0296 27        	.uleb128 0x27
 6418 0297 19        	.uleb128 0x19
 6419 0298 49        	.uleb128 0x49
 6420 0299 13        	.uleb128 0x13
 6421 029a 11        	.uleb128 0x11
 6422 029b 01        	.uleb128 0x1
 6423 029c 12        	.uleb128 0x12
 6424 029d 06        	.uleb128 0x6
 6425 029e 40        	.uleb128 0x40
 6426 029f 18        	.uleb128 0x18
 6427 02a0 9642      	.uleb128 0x2116
 6428 02a2 19        	.uleb128 0x19
 6429 02a3 01        	.uleb128 0x1
 6430 02a4 13        	.uleb128 0x13
 6431 02a5 00        	.byte0
 6432 02a6 00        	.byte0
 6433 02a7 32        	.uleb128 0x32
 6434 02a8 2E        	.uleb128 0x2e
 6435 02a9 00        	.byte0
 6436 02aa 3F        	.uleb128 0x3f
 6437 02ab 19        	.uleb128 0x19
 6438 02ac 03        	.uleb128 0x3
 6439 02ad 0E        	.uleb128 0xe
 6440 02ae 3A        	.uleb128 0x3a
 6441 02af 0B        	.uleb128 0xb
 6442 02b0 3B        	.uleb128 0x3b
 6443 02b1 05        	.uleb128 0x5
 6444 02b2 27        	.uleb128 0x27
 6445 02b3 19        	.uleb128 0x19
 6446 02b4 11        	.uleb128 0x11
 6447 02b5 01        	.uleb128 0x1
 6448 02b6 12        	.uleb128 0x12
 6449 02b7 06        	.uleb128 0x6
 6450 02b8 40        	.uleb128 0x40
 6451 02b9 18        	.uleb128 0x18
 6452 02ba 9642      	.uleb128 0x2116
 6453 02bc 19        	.uleb128 0x19
 6454 02bd 00        	.byte0
 6455 02be 00        	.byte0
 6456 02bf 33        	.uleb128 0x33
 6457 02c0 2E        	.uleb128 0x2e
 6458 02c1 00        	.byte0
 6459 02c2 3F        	.uleb128 0x3f
 6460 02c3 19        	.uleb128 0x19
 6461 02c4 03        	.uleb128 0x3
 6462 02c5 0E        	.uleb128 0xe
 6463 02c6 3A        	.uleb128 0x3a
 6464 02c7 0B        	.uleb128 0xb
 6465 02c8 3B        	.uleb128 0x3b
 6466 02c9 05        	.uleb128 0x5
 6467 02ca 27        	.uleb128 0x27
 6468 02cb 19        	.uleb128 0x19
 6469 02cc 11        	.uleb128 0x11
 6470 02cd 01        	.uleb128 0x1
 6471 02ce 12        	.uleb128 0x12
 6472 02cf 06        	.uleb128 0x6
68K GAS   			page 144


 6473 02d0 40        	.uleb128 0x40
 6474 02d1 18        	.uleb128 0x18
 6475 02d2 9742      	.uleb128 0x2117
 6476 02d4 19        	.uleb128 0x19
 6477 02d5 00        	.byte0
 6478 02d6 00        	.byte0
 6479 02d7 34        	.uleb128 0x34
 6480 02d8 2E        	.uleb128 0x2e
 6481 02d9 01        	.byte0x1
 6482 02da 3F        	.uleb128 0x3f
 6483 02db 19        	.uleb128 0x19
 6484 02dc 03        	.uleb128 0x3
 6485 02dd 0E        	.uleb128 0xe
 6486 02de 3A        	.uleb128 0x3a
 6487 02df 0B        	.uleb128 0xb
 6488 02e0 3B        	.uleb128 0x3b
 6489 02e1 0B        	.uleb128 0xb
 6490 02e2 27        	.uleb128 0x27
 6491 02e3 19        	.uleb128 0x19
 6492 02e4 49        	.uleb128 0x49
 6493 02e5 13        	.uleb128 0x13
 6494 02e6 11        	.uleb128 0x11
 6495 02e7 01        	.uleb128 0x1
 6496 02e8 12        	.uleb128 0x12
 6497 02e9 06        	.uleb128 0x6
 6498 02ea 40        	.uleb128 0x40
 6499 02eb 18        	.uleb128 0x18
 6500 02ec 9642      	.uleb128 0x2116
 6501 02ee 19        	.uleb128 0x19
 6502 02ef 01        	.uleb128 0x1
 6503 02f0 13        	.uleb128 0x13
 6504 02f1 00        	.byte0
 6505 02f2 00        	.byte0
 6506 02f3 35        	.uleb128 0x35
 6507 02f4 34        	.uleb128 0x34
 6508 02f5 00        	.byte0
 6509 02f6 03        	.uleb128 0x3
 6510 02f7 0E        	.uleb128 0xe
 6511 02f8 3A        	.uleb128 0x3a
 6512 02f9 0B        	.uleb128 0xb
 6513 02fa 3B        	.uleb128 0x3b
 6514 02fb 0B        	.uleb128 0xb
 6515 02fc 49        	.uleb128 0x49
 6516 02fd 13        	.uleb128 0x13
 6517 02fe 02        	.uleb128 0x2
 6518 02ff 18        	.uleb128 0x18
 6519 0300 00        	.byte0
 6520 0301 00        	.byte0
 6521 0302 36        	.uleb128 0x36
 6522 0303 2E        	.uleb128 0x2e
 6523 0304 01        	.byte0x1
 6524 0305 3F        	.uleb128 0x3f
 6525 0306 19        	.uleb128 0x19
 6526 0307 03        	.uleb128 0x3
 6527 0308 0E        	.uleb128 0xe
 6528 0309 3A        	.uleb128 0x3a
 6529 030a 0B        	.uleb128 0xb
68K GAS   			page 145


 6530 030b 3B        	.uleb128 0x3b
 6531 030c 0B        	.uleb128 0xb
 6532 030d 27        	.uleb128 0x27
 6533 030e 19        	.uleb128 0x19
 6534 030f 11        	.uleb128 0x11
 6535 0310 01        	.uleb128 0x1
 6536 0311 12        	.uleb128 0x12
 6537 0312 06        	.uleb128 0x6
 6538 0313 40        	.uleb128 0x40
 6539 0314 18        	.uleb128 0x18
 6540 0315 9642      	.uleb128 0x2116
 6541 0317 19        	.uleb128 0x19
 6542 0318 00        	.byte0
 6543 0319 00        	.byte0
 6544 031a 00        	.byte0
 6545               	.section.debug_aranges,"",@progbits
 6546 0000 0000 001C 	.long0x1c
 6547 0004 0002      	.word0x2
 6548 0006 0000 0000 	.long.Ldebug_info0
 6549 000a 04        	.byte0x4
 6550 000b 00        	.byte0
 6551 000c 0000      	.word0
 6552 000e 0000      	.word0
 6553 0010 0000 0000 	.long.Ltext0
 6554 0014 0000 136E 	.long.Letext0-.Ltext0
 6555 0018 0000 0000 	.long0
 6556 001c 0000 0000 	.long0
 6557               	.section.debug_line,"",@progbits
 6558               	.Ldebug_line0:
 6559 0000 0000 04DC 	.section.debug_str,"MS",@progbits,1
 6559      0002 0000 
 6559      0290 0201 
 6559      FB0E 0D00 
 6559      0101 0101 
 6560               	.LASF35:
 6561 0000 5F73 7369 	.string"_ssize_t"
 6561      7A65 5F74 
 6561      00
 6562               	.LASF302:
 6563 0009 4669 6C65 	.string"FileHdr"
 6563      4864 7200 
 6564               	.LASF252:
 6565 0011 4346 455F 	.string"CFE_SB_DestinationD_t"
 6565      5342 5F44 
 6565      6573 7469 
 6565      6E61 7469 
 6565      6F6E 445F 
 6566               	.LASF137:
 6567 0027 5F5F 6C6F 	.string"__locale_t"
 6567      6361 6C65 
 6567      5F74 00
 6568               	.LASF40:
 6569 0032 5F5F 7661 	.string"__value"
 6569      6C75 6500 
 6570               	.LASF138:
 6571 003a 5F5F 7366 	.string"__sf"
 6571      00
68K GAS   			page 146


 6572               	.LASF296:
 6573 003f 5374 6174 	.string"Stat"
 6573      00
 6574               	.LASF178:
 6575 0044 4346 455F 	.string"CFE_FS_Header_t"
 6575      4653 5F48 
 6575      6561 6465 
 6575      725F 7400 
 6576               	.LASF149:
 6577 0054 4343 5344 	.string"CCSDS_PriHdr_t"
 6577      535F 5072 
 6577      6948 6472 
 6577      5F74 00
 6578               	.LASF193:
 6579 0063 4475 7053 	.string"DupSubscriptionsCnt"
 6579      7562 7363 
 6579      7269 7074 
 6579      696F 6E73 
 6579      436E 7400 
 6580               	.LASF75:
 6581 0077 5F72 6561 	.string"_read"
 6581      6400 
 6582               	.LASF264:
 6583 007d 4346 455F 	.string"CFE_SB_PipeD_t"
 6583      5342 5F50 
 6583      6970 6544 
 6583      5F74 00
 6584               	.LASF76:
 6585 008c 5F77 7269 	.string"_write"
 6585      7465 00
 6586               	.LASF146:
 6587 0093 5374 7265 	.string"StreamId"
 6587      616D 4964 
 6587      00
 6588               	.LASF117:
 6589 009c 5F61 7363 	.string"_asctime_buf"
 6589      7469 6D65 
 6589      5F62 7566 
 6589      00
 6590               	.LASF102:
 6591 00a9 5F63 7674 	.string"_cvtlen"
 6591      6C65 6E00 
 6592               	.LASF29:
 6593 00b1 5F4D 7574 	.string"_Mutex_Control"
 6593      6578 5F43 
 6593      6F6E 7472 
 6593      6F6C 00
 6594               	.LASF324:
 6595 00c0 5F5F 6675 	.string"__func__"
 6595      6E63 5F5F 
 6595      00
 6596               	.LASF294:
 6597 00c9 456E 7472 	.string"EntryNum"
 6597      794E 756D 
 6597      00
 6598               	.LASF141:
 6599 00d2 5F67 6C6F 	.string"_global_atexit"
68K GAS   			page 147


 6599      6261 6C5F 
 6599      6174 6578 
 6599      6974 00
 6600               	.LASF9:
 6601 00e1 7569 6E74 	.string"uint32"
 6601      3332 00
 6602               	.LASF285:
 6603 00e8 4346 455F 	.string"CFE_SB_SetSubscriptionReporting"
 6603      5342 5F53 
 6603      6574 5375 
 6603      6273 6372 
 6603      6970 7469 
 6604               	.LASF136:
 6605 0108 5F75 6E75 	.string"_unused"
 6605      7365 6400 
 6606               	.LASF49:
 6607 0110 5F5F 746D 	.string"__tm"
 6607      00
 6608               	.LASF132:
 6609 0115 5F77 6373 	.string"_wcsrtombs_state"
 6609      7274 6F6D 
 6609      6273 5F73 
 6609      7461 7465 
 6609      00
 6610               	.LASF80:
 6611 0126 5F6E 6275 	.string"_nbuf"
 6611      6600 
 6612               	.LASF50:
 6613 012c 5F5F 746D 	.string"__tm_sec"
 6613      5F73 6563 
 6613      00
 6614               	.LASF28:
 6615 0135 5F54 6872 	.string"_Thread_Control"
 6615      6561 645F 
 6615      436F 6E74 
 6615      726F 6C00 
 6616               	.LASF125:
 6617 0145 5F6C 3634 	.string"_l64a_buf"
 6617      615F 6275 
 6617      6600 
 6618               	.LASF244:
 6619 014f 4346 455F 	.string"CFE_SB_BufferD_t"
 6619      5342 5F42 
 6619      7566 6665 
 6619      7244 5F74 
 6619      00
 6620               	.LASF182:
 6621 0160 5069 7065 	.string"Pipe"
 6621      00
 6622               	.LASF287:
 6623 0165 7374 6174 	.string"state"
 6623      6500 
 6624               	.LASF89:
 6625 016b 5F73 7464 	.string"_stdin"
 6625      696E 00
 6626               	.LASF282:
 6627 0172 4576 656E 	.string"EventFilters"
68K GAS   			page 148


 6627      7446 696C 
 6627      7465 7273 
 6627      00
 6628               	.LASF77:
 6629 017f 5F73 6565 	.string"_seek"
 6629      6B00 
 6630               	.LASF283:
 6631 0185 6366 655F 	.string"cfe_sb_t"
 6631      7362 5F74 
 6631      00
 6632               	.LASF322:
 6633 018e 2F68 6F6D 	.string"/home/simulink/cFS_FreeRTOS_seL4/cfe/fsw/cfe-core/src/sb/cfe_sb_task.c"
 6633      652F 7369 
 6633      6D75 6C69 
 6633      6E6B 2F63 
 6633      4653 5F46 
 6634               	.LASF113:
 6635 01d5 5F6D 756C 	.string"_mult"
 6635      7400 
 6636               	.LASF219:
 6637 01db 5342 4275 	.string"SBBuffersInUse"
 6637      6666 6572 
 6637      7349 6E55 
 6637      7365 00
 6638               	.LASF258:
 6639 01ea 5379 7351 	.string"SysQueueId"
 6639      7565 7565 
 6639      4964 00
 6640               	.LASF180:
 6641 01f5 4346 455F 	.string"CFE_SB_WriteFileInfoCmd_Payload_t"
 6641      5342 5F57 
 6641      7269 7465 
 6641      4669 6C65 
 6641      496E 666F 
 6642               	.LASF173:
 6643 0217 5072 6F63 	.string"ProcessorID"
 6643      6573 736F 
 6643      7249 4400 
 6644               	.LASF298:
 6645 0223 4346 455F 	.string"CFE_SB_SendMapInfo"
 6645      5342 5F53 
 6645      656E 644D 
 6645      6170 496E 
 6645      666F 00
 6646               	.LASF203:
 6647 0236 5069 7065 	.string"PipeId"
 6647      4964 00
 6648               	.LASF37:
 6649 023d 5F5F 7763 	.string"__wch"
 6649      6800 
 6650               	.LASF248:
 6651 0243 4465 7374 	.string"DestCnt"
 6651      436E 7400 
 6652               	.LASF72:
 6653 024b 5F66 696C 	.string"_file"
 6653      6500 
 6654               	.LASF163:
68K GAS   			page 149


 6655 0251 5072 6F63 	.string"ProcessorId"
 6655      6573 736F 
 6655      7249 6400 
 6656               	.LASF59:
 6657 025d 5F6F 6E5F 	.string"_on_exit_args"
 6657      6578 6974 
 6657      5F61 7267 
 6657      7300 
 6658               	.LASF185:
 6659 026b 436F 6D6D 	.string"CommandCnt"
 6659      616E 6443 
 6659      6E74 00
 6660               	.LASF284:
 6661 0276 4346 455F 	.string"CFE_SB"
 6661      5342 00
 6662               	.LASF192:
 6663 027d 5375 6273 	.string"SubscribeErrCnt"
 6663      6372 6962 
 6663      6545 7272 
 6663      436E 7400 
 6664               	.LASF128:
 6665 028d 5F6D 6272 	.string"_mbrlen_state"
 6665      6C65 6E5F 
 6665      7374 6174 
 6665      6500 
 6666               	.LASF3:
 6667 029b 6C6F 6E67 	.string"long int"
 6667      2069 6E74 
 6667      00
 6668               	.LASF139:
 6669 02a4 5F69 6D70 	.string"_impure_ptr"
 6669      7572 655F 
 6669      7074 7200 
 6670               	.LASF215:
 6671 02b0 4D61 784D 	.string"MaxMemAllowed"
 6671      656D 416C 
 6671      6C6F 7765 
 6671      6400 
 6672               	.LASF99:
 6673 02be 5F72 6573 	.string"_result_k"
 6673      756C 745F 
 6673      6B00 
 6674               	.LASF151:
 6675 02c8 4343 5344 	.string"CCSDS_TlmSecHdr_t"
 6675      535F 546C 
 6675      6D53 6563 
 6675      4864 725F 
 6675      7400 
 6676               	.LASF69:
 6677 02da 5F73 697A 	.string"_size"
 6677      6500 
 6678               	.LASF238:
 6679 02e0 4346 455F 	.string"CFE_SB_PrevSubMsg_Payload_t"
 6679      5342 5F50 
 6679      7265 7653 
 6679      7562 4D73 
 6679      675F 5061 
68K GAS   			page 150


 6680               	.LASF176:
 6681 02fc 5469 6D65 	.string"TimeSubSeconds"
 6681      5375 6253 
 6681      6563 6F6E 
 6681      6473 00
 6682               	.LASF118:
 6683 030b 5F6C 6F63 	.string"_localtime_buf"
 6683      616C 7469 
 6683      6D65 5F62 
 6683      7566 00
 6684               	.LASF159:
 6685 031a 5072 696F 	.string"Priority"
 6685      7269 7479 
 6685      00
 6686               	.LASF266:
 6687 0323 5061 7274 	.string"Partition"
 6687      6974 696F 
 6687      6E00 
 6688               	.LASF295:
 6689 032d 5365 674E 	.string"SegNum"
 6689      756D 00
 6690               	.LASF54:
 6691 0334 5F5F 746D 	.string"__tm_mon"
 6691      5F6D 6F6E 
 6691      00
 6692               	.LASF227:
 6693 033d 5069 7065 	.string"PipeName"
 6693      4E61 6D65 
 6693      00
 6694               	.LASF241:
 6695 0346 5369 7A65 	.string"Size"
 6695      00
 6696               	.LASF115:
 6697 034b 5F75 6E75 	.string"_unused_rand"
 6697      7365 645F 
 6697      7261 6E64 
 6697      00
 6698               	.LASF1:
 6699 0358 7369 676E 	.string"signed char"
 6699      6564 2063 
 6699      6861 7200 
 6700               	.LASF154:
 6701 0364 4346 455F 	.string"CFE_SB_Msg_t"
 6701      5342 5F4D 
 6701      7367 5F74 
 6701      00
 6702               	.LASF201:
 6703 0371 5061 796C 	.string"Payload"
 6703      6F61 6400 
 6704               	.LASF274:
 6705 0379 484B 546C 	.string"HKTlmMsg"
 6705      6D4D 7367 
 6705      00
 6706               	.LASF27:
 6707 0382 5F54 6872 	.string"_Thread_queue_Heads"
 6707      6561 645F 
 6707      7175 6575 
68K GAS   			page 151


 6707      655F 4865 
 6707      6164 7300 
 6708               	.LASF226:
 6709 0396 4D73 6743 	.string"MsgCnt"
 6709      6E74 00
 6710               	.LASF0:
 6711 039d 756E 7369 	.string"unsigned char"
 6711      676E 6564 
 6711      2063 6861 
 6711      7200 
 6712               	.LASF289:
 6713 03ab 4163 7475 	.string"Actual"
 6713      616C 00
 6714               	.LASF94:
 6715 03b2 5F75 6E73 	.string"_unspecified_locale_info"
 6715      7065 6369 
 6715      6669 6564 
 6715      5F6C 6F63 
 6715      616C 655F 
 6716               	.LASF310:
 6717 03cb 4346 455F 	.string"CFE_SB_DisableRoute"
 6717      5342 5F44 
 6717      6973 6162 
 6717      6C65 526F 
 6717      7574 6500 
 6718               	.LASF265:
 6719 03df 506F 6F6C 	.string"PoolHdl"
 6719      4864 6C00 
 6720               	.LASF87:
 6721 03e7 5F72 6565 	.string"_reent"
 6721      6E74 00
 6722               	.LASF218:
 6723 03ee 4D61 7853 	.string"MaxSubscriptionsAllowed"
 6723      7562 7363 
 6723      7269 7074 
 6723      696F 6E73 
 6723      416C 6C6F 
 6724               	.LASF140:
 6725 0406 5F67 6C6F 	.string"_global_impure_ptr"
 6725      6261 6C5F 
 6725      696D 7075 
 6725      7265 5F70 
 6725      7472 00
 6726               	.LASF301:
 6727 0419 456E 7472 	.string"EntryCount"
 6727      7943 6F75 
 6727      6E74 00
 6728               	.LASF22:
 6729 0424 5F54 6872 	.string"_Thread_queue_Queue"
 6729      6561 645F 
 6729      7175 6575 
 6729      655F 5175 
 6729      6575 6500 
 6730               	.LASF13:
 6731 0438 6368 6172 	.string"char"
 6731      00
 6732               	.LASF270:
68K GAS   			page 152


 6733 043d 5365 6E64 	.string"SenderReporting"
 6733      6572 5265 
 6733      706F 7274 
 6733      696E 6700 
 6734               	.LASF66:
 6735 044d 5F66 6E73 	.string"_fns"
 6735      00
 6736               	.LASF228:
 6737 0452 4346 455F 	.string"CFE_SB_RoutingFileEntry_t"
 6737      5342 5F52 
 6737      6F75 7469 
 6737      6E67 4669 
 6737      6C65 456E 
 6738               	.LASF78:
 6739 046c 5F63 6C6F 	.string"_close"
 6739      7365 00
 6740               	.LASF150:
 6741 0473 5469 6D65 	.string"Time"
 6741      00
 6742               	.LASF293:
 6743 0478 4346 455F 	.string"CFE_SB_SendPrevSubs"
 6743      5342 5F53 
 6743      656E 6450 
 6743      7265 7653 
 6743      7562 7300 
 6744               	.LASF12:
 6745 048c 6370 7561 	.string"cpuaddr"
 6745      6464 7200 
 6746               	.LASF21:
 6747 0494 5F54 6963 	.string"_Ticket_lock_Control"
 6747      6B65 745F 
 6747      6C6F 636B 
 6747      5F43 6F6E 
 6747      7472 6F6C 
 6748               	.LASF200:
 6749 04a9 4346 455F 	.string"CFE_SB_HKMsg_Payload_t"
 6749      5342 5F48 
 6749      4B4D 7367 
 6749      5F50 6179 
 6749      6C6F 6164 
 6750               	.LASF187:
 6751 04c0 4E6F 5375 	.string"NoSubscribersCnt"
 6751      6273 6372 
 6751      6962 6572 
 6751      7343 6E74 
 6751      00
 6752               	.LASF152:
 6753 04d1 4477 6F72 	.string"Dword"
 6753      6400 
 6754               	.LASF25:
 6755 04d7 5F6F 776E 	.string"_owner"
 6755      6572 00
 6756               	.LASF276:
 6757 04de 436D 6450 	.string"CmdPipe"
 6757      6970 6500 
 6758               	.LASF197:
 6759 04e6 4D65 6D50 	.string"MemPoolHandle"
68K GAS   			page 153


 6759      6F6F 6C48 
 6759      616E 646C 
 6759      6500 
 6760               	.LASF311:
 6761 04f4 436D 6450 	.string"CmdPtr"
 6761      7472 00
 6762               	.LASF281:
 6763 04fb 5375 6252 	.string"SubRprtMsg"
 6763      7072 744D 
 6763      7367 00
 6764               	.LASF168:
 6765 0506 4D61 736B 	.string"Mask"
 6765      00
 6766               	.LASF210:
 6767 050b 4D61 784D 	.string"MaxMsgIdsAllowed"
 6767      7367 4964 
 6767      7341 6C6C 
 6767      6F77 6564 
 6767      00
 6768               	.LASF186:
 6769 051c 436D 6445 	.string"CmdErrCnt"
 6769      7272 436E 
 6769      7400 
 6770               	.LASF229:
 6771 0526 496E 6465 	.string"Index"
 6771      7800 
 6772               	.LASF145:
 6773 052c 5F74 7A6E 	.string"_tzname"
 6773      616D 6500 
 6774               	.LASF33:
 6775 0534 5F6E 6573 	.string"_nest_level"
 6775      745F 6C65 
 6775      7665 6C00 
 6776               	.LASF196:
 6777 0540 4D73 674C 	.string"MsgLimErrCnt"
 6777      696D 4572 
 6777      7243 6E74 
 6777      00
 6778               	.LASF262:
 6779 054d 4375 7272 	.string"CurrentBuff"
 6779      656E 7442 
 6779      7566 6600 
 6780               	.LASF220:
 6781 0559 5065 616B 	.string"PeakSBBuffersInUse"
 6781      5342 4275 
 6781      6666 6572 
 6781      7349 6E55 
 6781      7365 00
 6782               	.LASF247:
 6783 056c 4275 6666 	.string"BuffCount"
 6783      436F 756E 
 6783      7400 
 6784               	.LASF74:
 6785 0576 5F63 6F6F 	.string"_cookie"
 6785      6B69 6500 
 6786               	.LASF48:
 6787 057e 5F77 6473 	.string"_wds"
68K GAS   			page 154


 6787      00
 6788               	.LASF205:
 6789 0583 496E 5573 	.string"InUse"
 6789      6500 
 6790               	.LASF105:
 6791 0589 5F73 6967 	.string"_sig_func"
 6791      5F66 756E 
 6791      6300 
 6792               	.LASF231:
 6793 0593 4346 455F 	.string"CFE_SB_SubRprtMsg_Payload_t"
 6793      5342 5F53 
 6793      7562 5270 
 6793      7274 4D73 
 6793      675F 5061 
 6794               	.LASF170:
 6795 05af 436F 6E74 	.string"ContentType"
 6795      656E 7454 
 6795      7970 6500 
 6796               	.LASF82:
 6797 05bb 5F6F 6666 	.string"_offset"
 6797      7365 7400 
 6798               	.LASF103:
 6799 05c3 5F63 7674 	.string"_cvtbuf"
 6799      6275 6600 
 6800               	.LASF18:
 6801 05cb 5F6E 6578 	.string"_next_ticket"
 6801      745F 7469 
 6801      636B 6574 
 6801      00
 6802               	.LASF315:
 6803 05d8 4346 455F 	.string"CFE_SB_SendHKTlmPkt"
 6803      5342 5F53 
 6803      656E 6448 
 6803      4B54 6C6D 
 6803      506B 7400 
 6804               	.LASF100:
 6805 05ec 5F70 3573 	.string"_p5s"
 6805      00
 6806               	.LASF10:
 6807 05f1 6C6F 6E67 	.string"long unsigned int"
 6807      2075 6E73 
 6807      6967 6E65 
 6807      6420 696E 
 6807      7400 
 6808               	.LASF242:
 6809 0603 4275 6666 	.string"Buffer"
 6809      6572 00
 6810               	.LASF257:
 6811 060a 4170 7049 	.string"AppId"
 6811      6400 
 6812               	.LASF70:
 6813 0610 5F5F 7346 	.string"__sFILE"
 6813      494C 4500 
 6814               	.LASF96:
 6815 0618 5F5F 7364 	.string"__sdidinit"
 6815      6964 696E 
 6815      6974 00
68K GAS   			page 155


 6816               	.LASF86:
 6817 0623 5F66 6C61 	.string"_flags2"
 6817      6773 3200 
 6818               	.LASF267:
 6819 062b 4346 455F 	.string"CFE_SB_MemParams_t"
 6819      5342 5F4D 
 6819      656D 5061 
 6819      7261 6D73 
 6819      5F74 00
 6820               	.LASF307:
 6821 063e 4C6F 6361 	.string"LocalFilename"
 6821      6C46 696C 
 6821      656E 616D 
 6821      6500 
 6822               	.LASF34:
 6823 064c 5F4C 4F43 	.string"_LOCK_RECURSIVE_T"
 6823      4B5F 5245 
 6823      4355 5253 
 6823      4956 455F 
 6823      5400 
 6824               	.LASF88:
 6825 065e 5F65 7272 	.string"_errno"
 6825      6E6F 00
 6826               	.LASF277:
 6827 0665 436D 6450 	.string"CmdPipePktPtr"
 6827      6970 6550 
 6827      6B74 5074 
 6827      7200 
 6828               	.LASF126:
 6829 0673 5F73 6967 	.string"_signal_buf"
 6829      6E61 6C5F 
 6829      6275 6600 
 6830               	.LASF44:
 6831 067f 5F42 6967 	.string"_Bigint"
 6831      696E 7400 
 6832               	.LASF263:
 6833 0687 546F 5472 	.string"ToTrashBuff"
 6833      6173 6842 
 6833      7566 6600 
 6834               	.LASF46:
 6835 0693 5F6D 6178 	.string"_maxwds"
 6835      7764 7300 
 6836               	.LASF259:
 6837 069b 4C61 7374 	.string"LastSender"
 6837      5365 6E64 
 6837      6572 00
 6838               	.LASF319:
 6839 06a6 546D 7050 	.string"TmpPtr"
 6839      7472 00
 6840               	.LASF202:
 6841 06ad 4346 455F 	.string"CFE_SB_HKMsg_t"
 6841      5342 5F48 
 6841      4B4D 7367 
 6841      5F74 00
 6842               	.LASF97:
 6843 06bc 5F5F 636C 	.string"__cleanup"
 6843      6561 6E75 
68K GAS   			page 156


 6843      7000 
 6844               	.LASF308:
 6845 06c6 4346 455F 	.string"CFE_SB_ProcessSendPipeInfoCmd"
 6845      5342 5F50 
 6845      726F 6365 
 6845      7373 5365 
 6845      6E64 5069 
 6846               	.LASF320:
 6847 06e4 5374 6174 	.string"Status"
 6847      7573 00
 6848               	.LASF204:
 6849 06eb 4465 7074 	.string"Depth"
 6849      6800 
 6850               	.LASF93:
 6851 06f1 5F65 6D65 	.string"_emergency"
 6851      7267 656E 
 6851      6379 00
 6852               	.LASF190:
 6853 06fc 496E 7465 	.string"InternalErrCnt"
 6853      726E 616C 
 6853      4572 7243 
 6853      6E74 00
 6854               	.LASF4:
 6855 070b 6C6F 6E67 	.string"long long int"
 6855      206C 6F6E 
 6855      6720 696E 
 6855      7400 
 6856               	.LASF245:
 6857 0719 4163 7469 	.string"Active"
 6857      7665 00
 6858               	.LASF109:
 6859 0720 5F6E 696F 	.string"_niobs"
 6859      6273 00
 6860               	.LASF212:
 6861 0727 5065 616B 	.string"PeakPipesInUse"
 6861      5069 7065 
 6861      7349 6E55 
 6861      7365 00
 6862               	.LASF106:
 6863 0736 5F5F 7367 	.string"__sglue"
 6863      6C75 6500 
 6864               	.LASF286:
 6865 073e 4346 455F 	.string"CFE_SB_FileWriteByteCntErr"
 6865      5342 5F46 
 6865      696C 6557 
 6865      7269 7465 
 6865      4279 7465 
 6866               	.LASF135:
 6867 0759 5F6E 6D61 	.string"_nmalloc"
 6867      6C6C 6F63 
 6867      00
 6868               	.LASF119:
 6869 0762 5F67 616D 	.string"_gamma_signgam"
 6869      6D61 5F73 
 6869      6967 6E67 
 6869      616D 00
 6870               	.LASF101:
68K GAS   			page 157


 6871 0771 5F66 7265 	.string"_freelist"
 6871      656C 6973 
 6871      7400 
 6872               	.LASF110:
 6873 077b 5F69 6F62 	.string"_iobs"
 6873      7300 
 6874               	.LASF108:
 6875 0781 5F67 6C75 	.string"_glue"
 6875      6500 
 6876               	.LASF47:
 6877 0787 5F73 6967 	.string"_sign"
 6877      6E00 
 6878               	.LASF189:
 6879 078d 4D73 6752 	.string"MsgReceiveErrCnt"
 6879      6563 6569 
 6879      7665 4572 
 6879      7243 6E74 
 6879      00
 6880               	.LASF240:
 6881 079e 5573 6543 	.string"UseCount"
 6881      6F75 6E74 
 6881      00
 6882               	.LASF179:
 6883 07a7 4669 6C65 	.string"Filename"
 6883      6E61 6D65 
 6883      00
 6884               	.LASF20:
 6885 07b0 756E 7369 	.string"unsigned int"
 6885      676E 6564 
 6885      2069 6E74 
 6885      00
 6886               	.LASF143:
 6887 07bd 5F74 696D 	.string"_timezone"
 6887      657A 6F6E 
 6887      6500 
 6888               	.LASF273:
 6889 07c7 5069 7065 	.string"PipeTbl"
 6889      5462 6C00 
 6890               	.LASF317:
 6891 07cf 4346 455F 	.string"CFE_SB_AppInit"
 6891      5342 5F41 
 6891      7070 496E 
 6891      6974 00
 6892               	.LASF133:
 6893 07de 5F68 5F65 	.string"_h_errno"
 6893      7272 6E6F 
 6893      00
 6894               	.LASF230:
 6895 07e7 4346 455F 	.string"CFE_SB_MsgMapFileEntry_t"
 6895      5342 5F4D 
 6895      7367 4D61 
 6895      7046 696C 
 6895      6545 6E74 
 6896               	.LASF175:
 6897 0800 5469 6D65 	.string"TimeSeconds"
 6897      5365 636F 
 6897      6E64 7300 
68K GAS   			page 158


 6898               	.LASF131:
 6899 080c 5F77 6372 	.string"_wcrtomb_state"
 6899      746F 6D62 
 6899      5F73 7461 
 6899      7465 00
 6900               	.LASF169:
 6901 081b 4346 455F 	.string"CFE_EVS_BinFilter_t"
 6901      4556 535F 
 6901      4269 6E46 
 6901      696C 7465 
 6901      725F 7400 
 6902               	.LASF53:
 6903 082f 5F5F 746D 	.string"__tm_mday"
 6903      5F6D 6461 
 6903      7900 
 6904               	.LASF155:
 6905 0839 4346 455F 	.string"CFE_SB_TlmHdr_t"
 6905      5342 5F54 
 6905      6C6D 4864 
 6905      725F 7400 
 6906               	.LASF104:
 6907 0849 5F6E 6577 	.string"_new"
 6907      00
 6908               	.LASF26:
 6909 084e 5F6E 616D 	.string"_name"
 6909      6500 
 6910               	.LASF79:
 6911 0854 5F75 6275 	.string"_ubuf"
 6911      6600 
 6912               	.LASF160:
 6913 085a 5265 6C69 	.string"Reliability"
 6913      6162 696C 
 6913      6974 7900 
 6914               	.LASF91:
 6915 0866 5F73 7464 	.string"_stderr"
 6915      6572 7200 
 6916               	.LASF124:
 6917 086e 5F77 6374 	.string"_wctomb_state"
 6917      6F6D 625F 
 6917      7374 6174 
 6917      6500 
 6918               	.LASF85:
 6919 087c 5F6D 6273 	.string"_mbstate"
 6919      7461 7465 
 6919      00
 6920               	.LASF233:
 6921 0885 4346 455F 	.string"CFE_SB_SubEntries_t"
 6921      5342 5F53 
 6921      7562 456E 
 6921      7472 6965 
 6921      735F 7400 
 6922               	.LASF120:
 6923 0899 5F72 616E 	.string"_rand_next"
 6923      645F 6E65 
 6923      7874 00
 6924               	.LASF71:
 6925 08a4 5F66 6C61 	.string"_flags"
68K GAS   			page 159


 6925      6773 00
 6926               	.LASF224:
 6927 08ab 4346 455F 	.string"CFE_SB_StatMsg_t"
 6927      5342 5F53 
 6927      7461 744D 
 6927      7367 5F74 
 6927      00
 6928               	.LASF64:
 6929 08bc 5F61 7465 	.string"_atexit"
 6929      7869 7400 
 6930               	.LASF216:
 6931 08c4 5375 6273 	.string"SubscriptionsInUse"
 6931      6372 6970 
 6931      7469 6F6E 
 6931      7349 6E55 
 6931      7365 00
 6932               	.LASF39:
 6933 08d7 5F5F 636F 	.string"__count"
 6933      756E 7400 
 6934               	.LASF243:
 6935 08df 5365 6E64 	.string"Sender"
 6935      6572 00
 6936               	.LASF237:
 6937 08e6 456E 7472 	.string"Entry"
 6937      7900 
 6938               	.LASF183:
 6939 08ec 5370 6172 	.string"Spare"
 6939      6500 
 6940               	.LASF206:
 6941 08f2 5065 616B 	.string"PeakInUse"
 6941      496E 5573 
 6941      6500 
 6942               	.LASF299:
 6943 08fc 5772 6974 	.string"WriteStat"
 6943      6553 7461 
 6943      7400 
 6944               	.LASF221:
 6945 0906 4D61 7850 	.string"MaxPipeDepthAllowed"
 6945      6970 6544 
 6945      6570 7468 
 6945      416C 6C6F 
 6945      7765 6400 
 6946               	.LASF56:
 6947 091a 5F5F 746D 	.string"__tm_wday"
 6947      5F77 6461 
 6947      7900 
 6948               	.LASF153:
 6949 0924 4279 7465 	.string"Byte"
 6949      00
 6950               	.LASF15:
 6951 0929 6C6F 6E67 	.string"long double"
 6951      2064 6F75 
 6951      626C 6500 
 6952               	.LASF57:
 6953 0935 5F5F 746D 	.string"__tm_yday"
 6953      5F79 6461 
 6953      7900 
68K GAS   			page 160


 6954               	.LASF213:
 6955 093f 4D61 7850 	.string"MaxPipesAllowed"
 6955      6970 6573 
 6955      416C 6C6F 
 6955      7765 6400 
 6956               	.LASF31:
 6957 094f 5F4D 7574 	.string"_Mutex_recursive_Control"
 6957      6578 5F72 
 6957      6563 7572 
 6957      7369 7665 
 6957      5F43 6F6E 
 6958               	.LASF24:
 6959 0968 5F68 6561 	.string"_heads"
 6959      6473 00
 6960               	.LASF112:
 6961 096f 5F73 6565 	.string"_seed"
 6961      6400 
 6962               	.LASF195:
 6963 0975 5069 7065 	.string"PipeOverflowErrCnt"
 6963      4F76 6572 
 6963      666C 6F77 
 6963      4572 7243 
 6963      6E74 00
 6964               	.LASF272:
 6965 0988 5A65 726F 	.string"ZeroCopyTail"
 6965      436F 7079 
 6965      5461 696C 
 6965      00
 6966               	.LASF30:
 6967 0995 5F51 7565 	.string"_Queue"
 6967      7565 00
 6968               	.LASF260:
 6969 099c 5175 6575 	.string"QueueDepth"
 6969      6544 6570 
 6969      7468 00
 6970               	.LASF17:
 6971 09a7 5F66 706F 	.string"_fpos_t"
 6971      735F 7400 
 6972               	.LASF38:
 6973 09af 5F5F 7763 	.string"__wchb"
 6973      6862 00
 6974               	.LASF269:
 6975 09b6 5375 6273 	.string"SubscriptionReporting"
 6975      6372 6970 
 6975      7469 6F6E 
 6975      5265 706F 
 6975      7274 696E 
 6976               	.LASF123:
 6977 09cc 5F6D 6274 	.string"_mbtowc_state"
 6977      6F77 635F 
 6977      7374 6174 
 6977      6500 
 6978               	.LASF253:
 6979 09da 4465 7374 	.string"Destinations"
 6979      696E 6174 
 6979      696F 6E73 
 6979      00
68K GAS   			page 161


 6980               	.LASF280:
 6981 09e7 5072 6576 	.string"PrevSubMsg"
 6981      5375 624D 
 6981      7367 00
 6982               	.LASF234:
 6983 09f2 506B 7453 	.string"PktSegment"
 6983      6567 6D65 
 6983      6E74 00
 6984               	.LASF11:
 6985 09fd 6C6F 6E67 	.string"long long unsigned int"
 6985      206C 6F6E 
 6985      6720 756E 
 6985      7369 676E 
 6985      6564 2069 
 6986               	.LASF318:
 6987 0a14 4366 6746 	.string"CfgFileEventsToFilter"
 6987      696C 6545 
 6987      7665 6E74 
 6987      7354 6F46 
 6987      696C 7465 
 6988               	.LASF323:
 6989 0a2a 2F68 6F6D 	.string"/home/simulink/cFS_FreeRTOS_seL4/build/cpu1/cfe/sb"
 6989      652F 7369 
 6989      6D75 6C69 
 6989      6E6B 2F63 
 6989      4653 5F46 
 6990               	.LASF236:
 6991 0a5d 456E 7472 	.string"Entries"
 6991      6965 7300 
 6992               	.LASF290:
 6993 0a65 4346 455F 	.string"CFE_SB_IncrCmdCtr"
 6993      5342 5F49 
 6993      6E63 7243 
 6993      6D64 4374 
 6993      7200 
 6994               	.LASF312:
 6995 0a77 4346 455F 	.string"CFE_SB_EnableRoute"
 6995      5342 5F45 
 6995      6E61 626C 
 6995      6552 6F75 
 6995      7465 00
 6996               	.LASF61:
 6997 0a8a 5F64 736F 	.string"_dso_handle"
 6997      5F68 616E 
 6997      646C 6500 
 6998               	.LASF111:
 6999 0a96 5F72 616E 	.string"_rand48"
 6999      6434 3800 
 7000               	.LASF157:
 7001 0a9e 4346 455F 	.string"CFE_SB_MsgId_t"
 7001      5342 5F4D 
 7001      7367 4964 
 7001      5F74 00
 7002               	.LASF90:
 7003 0aad 5F73 7464 	.string"_stdout"
 7003      6F75 7400 
 7004               	.LASF225:
68K GAS   			page 162


 7005 0ab5 5374 6174 	.string"State"
 7005      6500 
 7006               	.LASF81:
 7007 0abb 5F62 6C6B 	.string"_blksize"
 7007      7369 7A65 
 7007      00
 7008               	.LASF304:
 7009 0ac4 4346 455F 	.string"CFE_SB_SendRtgInfo"
 7009      5342 5F53 
 7009      656E 6452 
 7009      7467 496E 
 7009      666F 00
 7010               	.LASF188:
 7011 0ad7 4D73 6753 	.string"MsgSendErrCnt"
 7011      656E 6445 
 7011      7272 436E 
 7011      7400 
 7012               	.LASF288:
 7013 0ae5 5265 7175 	.string"Requested"
 7013      6573 7465 
 7013      6400 
 7014               	.LASF68:
 7015 0aef 5F62 6173 	.string"_base"
 7015      6500 
 7016               	.LASF116:
 7017 0af5 5F73 7472 	.string"_strtok_last"
 7017      746F 6B5F 
 7017      6C61 7374 
 7017      00
 7018               	.LASF207:
 7019 0b02 4346 455F 	.string"CFE_SB_PipeDepthStats_t"
 7019      5342 5F50 
 7019      6970 6544 
 7019      6570 7468 
 7019      5374 6174 
 7020               	.LASF129:
 7021 0b1a 5F6D 6272 	.string"_mbrtowc_state"
 7021      746F 7763 
 7021      5F73 7461 
 7021      7465 00
 7022               	.LASF223:
 7023 0b29 4346 455F 	.string"CFE_SB_StatMsg_Payload_t"
 7023      5342 5F53 
 7023      7461 744D 
 7023      7367 5F50 
 7023      6179 6C6F 
 7024               	.LASF42:
 7025 0b42 5F66 6C6F 	.string"_flock_t"
 7025      636B 5F74 
 7025      00
 7026               	.LASF107:
 7027 0b4b 5F5F 4649 	.string"__FILE"
 7027      4C45 00
 7028               	.LASF84:
 7029 0b52 5F6C 6F63 	.string"_lock"
 7029      6B00 
 7030               	.LASF41:
68K GAS   			page 163


 7031 0b58 5F6D 6273 	.string"_mbstate_t"
 7031      7461 7465 
 7031      5F74 00
 7032               	.LASF121:
 7033 0b63 5F72 3438 	.string"_r48"
 7033      00
 7034               	.LASF148:
 7035 0b68 4C65 6E67 	.string"Length"
 7035      7468 00
 7036               	.LASF239:
 7037 0b6f 4346 455F 	.string"CFE_SB_PrevSubMsg_t"
 7037      5342 5F50 
 7037      7265 7653 
 7037      7562 4D73 
 7037      675F 7400 
 7038               	.LASF36:
 7039 0b83 7769 6E74 	.string"wint_t"
 7039      5F74 00
 7040               	.LASF194:
 7041 0b8a 5370 6172 	.string"Spare2Align"
 7041      6532 416C 
 7041      6967 6E00 
 7042               	.LASF235:
 7043 0b96 546F 7461 	.string"TotalSegments"
 7043      6C53 6567 
 7043      6D65 6E74 
 7043      7300 
 7044               	.LASF45:
 7045 0ba4 5F6E 6578 	.string"_next"
 7045      7400 
 7046               	.LASF83:
 7047 0baa 5F64 6174 	.string"_data"
 7047      6100 
 7048               	.LASF305:
 7049 0bb0 5274 6754 	.string"RtgTblIdx"
 7049      626C 4964 
 7049      7800 
 7050               	.LASF162:
 7051 0bba 4346 455F 	.string"CFE_SB_Default_Qos"
 7051      5342 5F44 
 7051      6566 6175 
 7051      6C74 5F51 
 7051      6F73 00
 7052               	.LASF254:
 7053 0bcd 5365 7143 	.string"SeqCnt"
 7053      6E74 00
 7054               	.LASF156:
 7055 0bd4 4346 455F 	.string"CFE_SB_PipeId_t"
 7055      5342 5F50 
 7055      6970 6549 
 7055      645F 7400 
 7056               	.LASF292:
 7057 0be4 4465 7374 	.string"DestPtr"
 7057      5074 7200 
 7058               	.LASF222:
 7059 0bec 5069 7065 	.string"PipeDepthStats"
 7059      4465 7074 
68K GAS   			page 164


 7059      6853 7461 
 7059      7473 00
 7060               	.LASF32:
 7061 0bfb 5F4D 7574 	.string"_Mutex"
 7061      6578 00
 7062               	.LASF314:
 7063 0c02 4346 455F 	.string"CFE_SB_ResetCounters"
 7063      5342 5F52 
 7063      6573 6574 
 7063      436F 756E 
 7063      7465 7273 
 7064               	.LASF158:
 7065 0c17 4346 455F 	.string"CFE_SB_MsgPayloadPtr_t"
 7065      5342 5F4D 
 7065      7367 5061 
 7065      796C 6F61 
 7065      6450 7472 
 7066               	.LASF6:
 7067 0c2e 7569 6E74 	.string"uint8"
 7067      3800 
 7068               	.LASF278:
 7069 0c34 4D73 674D 	.string"MsgMap"
 7069      6170 00
 7070               	.LASF164:
 7071 0c3b 4170 704E 	.string"AppName"
 7071      616D 6500 
 7072               	.LASF251:
 7073 0c43 4E65 7874 	.string"Next"
 7073      00
 7074               	.LASF268:
 7075 0c48 5368 6172 	.string"SharedDataMutexId"
 7075      6564 4461 
 7075      7461 4D75 
 7075      7465 7849 
 7075      6400 
 7076               	.LASF122:
 7077 0c5a 5F6D 626C 	.string"_mblen_state"
 7077      656E 5F73 
 7077      7461 7465 
 7077      00
 7078               	.LASF249:
 7079 0c67 5363 6F70 	.string"Scope"
 7079      6500 
 7080               	.LASF2:
 7081 0c6d 7368 6F72 	.string"short int"
 7081      7420 696E 
 7081      7400 
 7082               	.LASF250:
 7083 0c77 5072 6576 	.string"Prev"
 7083      00
 7084               	.LASF297:
 7085 0c7c 4346 455F 	.string"CFE_SB_FindGlobalMsgIdCnt"
 7085      5342 5F46 
 7085      696E 6447 
 7085      6C6F 6261 
 7085      6C4D 7367 
 7086               	.LASF275:
68K GAS   			page 165


 7087 0c96 5374 6174 	.string"StatTlmMsg"
 7087      546C 6D4D 
 7087      7367 00
 7088               	.LASF199:
 7089 0ca1 556E 6D61 	.string"UnmarkedMem"
 7089      726B 6564 
 7089      4D65 6D00 
 7090               	.LASF142:
 7091 0cad 7375 626F 	.string"suboptarg"
 7091      7074 6172 
 7091      6700 
 7092               	.LASF62:
 7093 0cb7 5F66 6E74 	.string"_fntypes"
 7093      7970 6573 
 7093      00
 7094               	.LASF55:
 7095 0cc0 5F5F 746D 	.string"__tm_year"
 7095      5F79 6561 
 7095      7200 
 7096               	.LASF167:
 7097 0cca 4576 656E 	.string"EventID"
 7097      7449 4400 
 7098               	.LASF316:
 7099 0cd2 4346 455F 	.string"CFE_SB_ProcessCmdPipePkt"
 7099      5342 5F50 
 7099      726F 6365 
 7099      7373 436D 
 7099      6450 6970 
 7100               	.LASF73:
 7101 0ceb 5F6C 6266 	.string"_lbfsize"
 7101      7369 7A65 
 7101      00
 7102               	.LASF198:
 7103 0cf4 4D65 6D49 	.string"MemInUse"
 7103      6E55 7365 
 7103      00
 7104               	.LASF92:
 7105 0cfd 5F69 6E63 	.string"_inc"
 7105      00
 7106               	.LASF65:
 7107 0d02 5F69 6E64 	.string"_ind"
 7107      00
 7108               	.LASF14:
 7109 0d07 5F5F 696E 	.string"__int64_t"
 7109      7436 345F 
 7109      7400 
 7110               	.LASF232:
 7111 0d11 4346 455F 	.string"CFE_SB_SubRprtMsg_t"
 7111      5342 5F53 
 7111      7562 5270 
 7111      7274 4D73 
 7111      675F 7400 
 7112               	.LASF67:
 7113 0d25 5F5F 7362 	.string"__sbuf"
 7113      7566 00
 7114               	.LASF261:
 7115 0d2c 5365 6E64 	.string"SendErrors"
68K GAS   			page 166


 7115      4572 726F 
 7115      7273 00
 7116               	.LASF63:
 7117 0d37 5F69 735F 	.string"_is_cxa"
 7117      6378 6100 
 7118               	.LASF309:
 7119 0d3f 4346 455F 	.string"CFE_SB_ProcessSendRtgInfoCmd"
 7119      5342 5F50 
 7119      726F 6365 
 7119      7373 5365 
 7119      6E64 5274 
 7120               	.LASF134:
 7121 0d5c 5F6E 6578 	.string"_nextf"
 7121      7466 00
 7122               	.LASF303:
 7123 0d63 4346 455F 	.string"CFE_SB_SendPipeInfo"
 7123      5342 5F53 
 7123      656E 6450 
 7123      6970 6549 
 7123      6E66 6F00 
 7124               	.LASF256:
 7125 0d77 4346 455F 	.string"CFE_SB_RouteEntry_t"
 7125      5342 5F52 
 7125      6F75 7465 
 7125      456E 7472 
 7125      795F 7400 
 7126               	.LASF217:
 7127 0d8b 5065 616B 	.string"PeakSubscriptionsInUse"
 7127      5375 6273 
 7127      6372 6970 
 7127      7469 6F6E 
 7127      7349 6E55 
 7128               	.LASF208:
 7129 0da2 4D73 6749 	.string"MsgIdsInUse"
 7129      6473 496E 
 7129      5573 6500 
 7130               	.LASF291:
 7131 0dae 7374 6174 	.string"status"
 7131      7573 00
 7132               	.LASF171:
 7133 0db5 5375 6254 	.string"SubType"
 7133      7970 6500 
 7134               	.LASF95:
 7135 0dbd 5F6C 6F63 	.string"_locale"
 7135      616C 6500 
 7136               	.LASF43:
 7137 0dc5 5F5F 554C 	.string"__ULong"
 7137      6F6E 6700 
 7138               	.LASF184:
 7139 0dcd 4346 455F 	.string"CFE_SB_EnRoutCmd_Payload_t"
 7139      5342 5F45 
 7139      6E52 6F75 
 7139      7443 6D64 
 7139      5F50 6179 
 7140               	.LASF177:
 7141 0de8 4465 7363 	.string"Description"
 7141      7269 7074 
68K GAS   			page 167


 7141      696F 6E00 
 7142               	.LASF98:
 7143 0df4 5F72 6573 	.string"_result"
 7143      756C 7400 
 7144               	.LASF166:
 7145 0dfc 4346 455F 	.string"CFE_ES_MemHandle_t"
 7145      4553 5F4D 
 7145      656D 4861 
 7145      6E64 6C65 
 7145      5F74 00
 7146               	.LASF23:
 7147 0e0f 5F4C 6F63 	.string"_Lock"
 7147      6B00 
 7148               	.LASF19:
 7149 0e15 5F6E 6F77 	.string"_now_serving"
 7149      5F73 6572 
 7149      7669 6E67 
 7149      00
 7150               	.LASF325:
 7151 0e22 4346 455F 	.string"CFE_SB_TaskMain"
 7151      5342 5F54 
 7151      6173 6B4D 
 7151      6169 6E00 
 7152               	.LASF16:
 7153 0e32 5F6F 6666 	.string"_off_t"
 7153      5F74 00
 7154               	.LASF209:
 7155 0e39 5065 616B 	.string"PeakMsgIdsInUse"
 7155      4D73 6749 
 7155      6473 496E 
 7155      5573 6500 
 7156               	.LASF211:
 7157 0e49 5069 7065 	.string"PipesInUse"
 7157      7349 6E55 
 7157      7365 00
 7158               	.LASF114:
 7159 0e54 5F61 6464 	.string"_add"
 7159      00
 7160               	.LASF165:
 7161 0e59 4346 455F 	.string"CFE_SB_SenderId_t"
 7161      5342 5F53 
 7161      656E 6465 
 7161      7249 645F 
 7161      7400 
 7162               	.LASF321:
 7163 0e6b 474E 5520 	.string"GNU C11 7.3.0 20180125 (RTEMS 5, RSB d2b25d131d55adcb38219f2cd8cbec2436ee78ab, Newlib 3.0.0) -malign-int -mcpu=528x -g -O0 -fomit-frame-pointer"
 7163      4331 3120 
 7163      372E 332E 
 7163      3020 3230 
 7163      3138 3031 
 7164               	.LASF8:
 7165 0efb 7368 6F72 	.string"short unsigned int"
 7165      7420 756E 
 7165      7369 676E 
 7165      6564 2069 
 7165      6E74 00
 7166               	.LASF52:
68K GAS   			page 168


 7167 0f0e 5F5F 746D 	.string"__tm_hour"
 7167      5F68 6F75 
 7167      7200 
 7168               	.LASF181:
 7169 0f18 4D73 6749 	.string"MsgId"
 7169      6400 
 7170               	.LASF172:
 7171 0f1e 5370 6163 	.string"SpacecraftID"
 7171      6563 7261 
 7171      6674 4944 
 7171      00
 7172               	.LASF174:
 7173 0f2b 4170 706C 	.string"ApplicationID"
 7173      6963 6174 
 7173      696F 6E49 
 7173      4400 
 7174               	.LASF246:
 7175 0f39 4D73 6749 	.string"MsgId2PipeLim"
 7175      6432 5069 
 7175      7065 4C69 
 7175      6D00 
 7176               	.LASF5:
 7177 0f47 696E 7433 	.string"int32"
 7177      3200 
 7178               	.LASF271:
 7179 0f4d 5374 6F70 	.string"StopRecurseFlags"
 7179      5265 6375 
 7179      7273 6546 
 7179      6C61 6773 
 7179      00
 7180               	.LASF147:
 7181 0f5e 5365 7175 	.string"Sequence"
 7181      656E 6365 
 7181      00
 7182               	.LASF130:
 7183 0f67 5F6D 6273 	.string"_mbsrtowcs_state"
 7183      7274 6F77 
 7183      6373 5F73 
 7183      7461 7465 
 7183      00
 7184               	.LASF214:
 7185 0f78 5065 616B 	.string"PeakMemInUse"
 7185      4D65 6D49 
 7185      6E55 7365 
 7185      00
 7186               	.LASF191:
 7187 0f85 4372 6561 	.string"CreatePipeErrCnt"
 7187      7465 5069 
 7187      7065 4572 
 7187      7243 6E74 
 7187      00
 7188               	.LASF306:
 7189 0f96 4346 455F 	.string"CFE_SB_ProcessSendMapInfoCmd"
 7189      5342 5F50 
 7189      726F 6365 
 7189      7373 5365 
 7189      6E64 4D61 
68K GAS   			page 169


 7190               	.LASF300:
 7191 0fb3 4669 6C65 	.string"FileSize"
 7191      5369 7A65 
 7191      00
 7192               	.LASF60:
 7193 0fbc 5F66 6E61 	.string"_fnargs"
 7193      7267 7300 
 7194               	.LASF313:
 7195 0fc4 4346 455F 	.string"CFE_SB_SendStats"
 7195      5342 5F53 
 7195      656E 6453 
 7195      7461 7473 
 7195      00
 7196               	.LASF58:
 7197 0fd5 5F5F 746D 	.string"__tm_isdst"
 7197      5F69 7364 
 7197      7374 00
 7198               	.LASF255:
 7199 0fe0 4C69 7374 	.string"ListHeadPtr"
 7199      4865 6164 
 7199      5074 7200 
 7200               	.LASF144:
 7201 0fec 5F64 6179 	.string"_daylight"
 7201      6C69 6768 
 7201      7400 
 7202               	.LASF51:
 7203 0ff6 5F5F 746D 	.string"__tm_min"
 7203      5F6D 696E 
 7203      00
 7204               	.LASF7:
 7205 0fff 7569 6E74 	.string"uint16"
 7205      3136 00
 7206               	.LASF127:
 7207 1006 5F67 6574 	.string"_getdate_err"
 7207      6461 7465 
 7207      5F65 7272 
 7207      00
 7208               	.LASF279:
 7209 1013 526F 7574 	.string"RoutingTbl"
 7209      696E 6754 
 7209      626C 00
 7210               	.LASF161:
 7211 101e 4346 455F 	.string"CFE_SB_Qos_t"
 7211      5342 5F51 
 7211      6F73 5F74 
 7211      00
 7212               	.ident"GCC: (GNU) 7.3.0 20180125 (RTEMS 5, RSB d2b25d131d55adcb38219f2cd8cbec2436ee78ab, Newlib 3.0.0)"
68K GAS   			page 170


DEFINED SYMBOLS
                            *ABS*:0000000000000000 cfe_sb_task.c
                            *COM*:00000000000860d4 CFE_SB
                            *COM*:0000000000000002 CFE_SB_Default_Qos
    {standard input}:17     .text:0000000000000000 CFE_SB_TaskMain
    {standard input}:164    .text:00000000000000d6 CFE_SB_AppInit
    {standard input}:557    .text:000000000000046e CFE_SB_ProcessCmdPipePkt
    {standard input}:805    .text:0000000000000650 CFE_SB_SendHKTlmPkt
    {standard input}:840    .text:0000000000000690 CFE_SB_ResetCounters
    {standard input}:1188   .text:0000000000000928 CFE_SB_SendStats
    {standard input}:1226   .text:0000000000000962 CFE_SB_ProcessSendRtgInfoCmd
    {standard input}:894    .text:00000000000006ec CFE_SB_EnableRoute
    {standard input}:1043   .text:000000000000080a CFE_SB_DisableRoute
    {standard input}:1279   .text:00000000000009b8 CFE_SB_ProcessSendPipeInfoCmd
    {standard input}:1332   .text:0000000000000a0e CFE_SB_ProcessSendMapInfoCmd
    {standard input}:2113   .text:0000000000001064 CFE_SB_SendPrevSubs
    {standard input}:2485   .text:0000000000001360 CFE_SB_SetSubscriptionReporting
    {standard input}:1389   .text:0000000000000a64 CFE_SB_SendRtgInfo
    {standard input}:2420   .text:0000000000001308 CFE_SB_IncrCmdCtr
    {standard input}:1691   .text:0000000000000d00 CFE_SB_SendPipeInfo
    {standard input}:1899   .text:0000000000000ea6 CFE_SB_SendMapInfo
    {standard input}:2454   .text:0000000000001334 CFE_SB_FileWriteByteCntErr
    {standard input}:2501   .rodata:00000000000004ff __func__.5918
    {standard input}:2347   .text:0000000000001286 CFE_SB_FindGlobalMsgIdCnt

UNDEFINED SYMBOLS
CFE_ES_PerfLogAdd
CFE_ES_WriteToSysLog
CFE_ES_ExitApp
CFE_ES_WaitForStartupSync
CFE_ES_IncrementTaskCounter
CFE_SB_RcvMsg
CFE_ES_RegisterApp
CFE_ES_GetAppID
CFE_EVS_Register
CFE_SB_InitMsg
CFE_SB_CreatePipe
CFE_SB_Subscribe
CFE_ES_GetPoolBuf
CFE_ES_PutPoolBuf
CFE_EVS_SendEvent
CFE_SB_GetMsgId
CFE_SB_GetCmdCode
CFE_SB_TimeStampMsg
CFE_SB_SendMsg
CFE_SB_ValidateMsgId
CFE_SB_ValidatePipeId
CFE_SB_GetDestPtr
CFE_SB_MessageStringGet
OS_creat
CFE_FS_InitHeader
CFE_FS_WriteHeader
OS_close
CFE_SB_GetPipePtr
CFE_ES_GetAppName
CFE_SB_GetPipeName
strncpy
68K GAS   			page 171


OS_write
CFE_SB_LockSharedData
CFE_SB_UnlockSharedData
