68K GAS   			page 1


   1               	
   2               	.file"cfe_evs_task.c"
   3               	.text
   4               	.Ltext0:
   5               	.cfi_sections.debug_frame
   6               	.commCFE_EVS_GlobalData,2540,4
   7               	.section.rodata
   8               	.LC0:
   9 0000 4556 5320 	.string"EVS call to CFE_PSP_GetResetArea failed, RC=0x%08x\n"
   9      6361 6C6C 
   9      2074 6F20 
   9      4346 455F 
   9      5053 505F 
  10               	.LC1:
  11 0034 556E 6578 	.string"Unexpected size from CFE_PSP_GetResetArea: expected = 0x%08lX, actual = 0x%08lX\n"
  11      7065 6374 
  11      6564 2073 
  11      697A 6520 
  11      6672 6F6D 
  12               	.LC2:
  13 0085 4346 455F 	.string"CFE_EVS_DataMutex"
  13      4556 535F 
  13      4461 7461 
  13      4D75 7465 
  13      7800 
  14               	.LC3:
  15 0097 4556 5320 	.string"EVS call to OS_MutSemCreate failed, RC=0x%08x\n"
  15      6361 6C6C 
  15      2074 6F20 
  15      4F53 5F4D 
  15      7574 5365 
  16               	.LC4:
  17 00c6 4576 656E 	.string"Event Log cleared following power-on reset\n"
  17      7420 4C6F 
  17      6720 636C 
  17      6561 7265 
  17      6420 666F 
  18               	.LC5:
  19 00f2 4576 656E 	.string"Event Log cleared, n=%d, c=%d, f=%d, m=%d, o=%d\n"
  19      7420 4C6F 
  19      6720 636C 
  19      6561 7265 
  19      642C 206E 
  20               	.LC6:
  21 0123 4576 656E 	.string"Event Log restored, n=%d, c=%d, f=%d, m=%d, o=%d\n"
  21      7420 4C6F 
  21      6720 7265 
  21      7374 6F72 
  21      6564 2C20 
  22               	.text
  23               	.align2
  24               	.globlCFE_EVS_EarlyInit
  25               	.typeCFE_EVS_EarlyInit, @function
  26               	CFE_EVS_EarlyInit:
  27               	.LFB59:
  28               	.file 1 "/home/simulink/cFS_FreeRTOS_seL4/cfe/fsw/cfe-core/src/evs/cfe_evs_task.c"
   1:/home/simulink/cFS_FreeRTOS_seL4/cfe/fsw/cfe-core/src/evs/cfe_evs_task.c **** /*
68K GAS   			page 2


   2:/home/simulink/cFS_FreeRTOS_seL4/cfe/fsw/cfe-core/src/evs/cfe_evs_task.c **** **
   3:/home/simulink/cFS_FreeRTOS_seL4/cfe/fsw/cfe-core/src/evs/cfe_evs_task.c **** **  File Name: cfe_evs_task.c
   4:/home/simulink/cFS_FreeRTOS_seL4/cfe/fsw/cfe-core/src/evs/cfe_evs_task.c **** **  $Id: cfe_evs_task.c 1.19 2014/08/22 16:53:24GMT-05:00 lwalling Exp  $
   5:/home/simulink/cFS_FreeRTOS_seL4/cfe/fsw/cfe-core/src/evs/cfe_evs_task.c **** **
   6:/home/simulink/cFS_FreeRTOS_seL4/cfe/fsw/cfe-core/src/evs/cfe_evs_task.c **** **
   7:/home/simulink/cFS_FreeRTOS_seL4/cfe/fsw/cfe-core/src/evs/cfe_evs_task.c **** **      Copyright (c) 2004-2012, United States government as represented by the
   8:/home/simulink/cFS_FreeRTOS_seL4/cfe/fsw/cfe-core/src/evs/cfe_evs_task.c **** **      administrator of the National Aeronautics Space Administration.
   9:/home/simulink/cFS_FreeRTOS_seL4/cfe/fsw/cfe-core/src/evs/cfe_evs_task.c **** **      All rights reserved. This software(cFE) was created at NASA's Goddard
  10:/home/simulink/cFS_FreeRTOS_seL4/cfe/fsw/cfe-core/src/evs/cfe_evs_task.c **** **      Space Flight Center pursuant to government contracts.
  11:/home/simulink/cFS_FreeRTOS_seL4/cfe/fsw/cfe-core/src/evs/cfe_evs_task.c **** **
  12:/home/simulink/cFS_FreeRTOS_seL4/cfe/fsw/cfe-core/src/evs/cfe_evs_task.c **** **      This is governed by the NASA Open Source Agreement and may be used,
  13:/home/simulink/cFS_FreeRTOS_seL4/cfe/fsw/cfe-core/src/evs/cfe_evs_task.c **** **      distributed and modified only pursuant to the terms of that agreement.
  14:/home/simulink/cFS_FreeRTOS_seL4/cfe/fsw/cfe-core/src/evs/cfe_evs_task.c **** **
  15:/home/simulink/cFS_FreeRTOS_seL4/cfe/fsw/cfe-core/src/evs/cfe_evs_task.c **** **
  16:/home/simulink/cFS_FreeRTOS_seL4/cfe/fsw/cfe-core/src/evs/cfe_evs_task.c **** **
  17:/home/simulink/cFS_FreeRTOS_seL4/cfe/fsw/cfe-core/src/evs/cfe_evs_task.c **** **
  18:/home/simulink/cFS_FreeRTOS_seL4/cfe/fsw/cfe-core/src/evs/cfe_evs_task.c **** **
  19:/home/simulink/cFS_FreeRTOS_seL4/cfe/fsw/cfe-core/src/evs/cfe_evs_task.c **** **  Title: Event Service API Management Control Interfaces
  20:/home/simulink/cFS_FreeRTOS_seL4/cfe/fsw/cfe-core/src/evs/cfe_evs_task.c **** **
  21:/home/simulink/cFS_FreeRTOS_seL4/cfe/fsw/cfe-core/src/evs/cfe_evs_task.c **** **  Purpose: This module defines the top level functions of the
  22:/home/simulink/cFS_FreeRTOS_seL4/cfe/fsw/cfe-core/src/evs/cfe_evs_task.c **** **           cFE Event Service task defining the control, command,
  23:/home/simulink/cFS_FreeRTOS_seL4/cfe/fsw/cfe-core/src/evs/cfe_evs_task.c **** **           and telemetry interfaces
  24:/home/simulink/cFS_FreeRTOS_seL4/cfe/fsw/cfe-core/src/evs/cfe_evs_task.c **** **
  25:/home/simulink/cFS_FreeRTOS_seL4/cfe/fsw/cfe-core/src/evs/cfe_evs_task.c **** **  $Date: 2014/08/22 16:53:24GMT-05:00 $
  26:/home/simulink/cFS_FreeRTOS_seL4/cfe/fsw/cfe-core/src/evs/cfe_evs_task.c **** **  $Revision: 1.19 $
  27:/home/simulink/cFS_FreeRTOS_seL4/cfe/fsw/cfe-core/src/evs/cfe_evs_task.c **** **  $Log: cfe_evs_task.c  $
  28:/home/simulink/cFS_FreeRTOS_seL4/cfe/fsw/cfe-core/src/evs/cfe_evs_task.c **** **  Revision 1.19 2014/08/22 16:53:24GMT-05:00 lwalling 
  29:/home/simulink/cFS_FreeRTOS_seL4/cfe/fsw/cfe-core/src/evs/cfe_evs_task.c **** **  Change signed loop counters to unsigned
  30:/home/simulink/cFS_FreeRTOS_seL4/cfe/fsw/cfe-core/src/evs/cfe_evs_task.c **** **  Revision 1.18 2012/10/01 17:37:11EDT aschoeni 
  31:/home/simulink/cFS_FreeRTOS_seL4/cfe/fsw/cfe-core/src/evs/cfe_evs_task.c **** **  removed relative path in include (handle in makefile)
  32:/home/simulink/cFS_FreeRTOS_seL4/cfe/fsw/cfe-core/src/evs/cfe_evs_task.c **** **  Revision 1.17 2012/01/18 16:28:03EST jmdagost 
  33:/home/simulink/cFS_FreeRTOS_seL4/cfe/fsw/cfe-core/src/evs/cfe_evs_task.c **** **  Update init and no-op event msgs to include OSAL revision and mission revision numbers.
  34:/home/simulink/cFS_FreeRTOS_seL4/cfe/fsw/cfe-core/src/evs/cfe_evs_task.c **** **  --- Added comments ---  jmdagost [2012/01/18 21:31:18Z]
  35:/home/simulink/cFS_FreeRTOS_seL4/cfe/fsw/cfe-core/src/evs/cfe_evs_task.c **** **  Updated init and no-op event msgs to include cFE version numbers.
  36:/home/simulink/cFS_FreeRTOS_seL4/cfe/fsw/cfe-core/src/evs/cfe_evs_task.c **** **  Revision 1.16 2012/01/13 12:00:55EST acudmore 
  37:/home/simulink/cFS_FreeRTOS_seL4/cfe/fsw/cfe-core/src/evs/cfe_evs_task.c **** **  Changed license text to reflect open source
  38:/home/simulink/cFS_FreeRTOS_seL4/cfe/fsw/cfe-core/src/evs/cfe_evs_task.c **** **  Revision 1.15 2011/09/30 14:52:08EDT lwalling 
  39:/home/simulink/cFS_FreeRTOS_seL4/cfe/fsw/cfe-core/src/evs/cfe_evs_task.c **** **  Fix use of config file setting for default event log mode
  40:/home/simulink/cFS_FreeRTOS_seL4/cfe/fsw/cfe-core/src/evs/cfe_evs_task.c **** **  Revision 1.14 2011/09/28 13:18:12EDT lwalling 
  41:/home/simulink/cFS_FreeRTOS_seL4/cfe/fsw/cfe-core/src/evs/cfe_evs_task.c **** **  Verify reset area size is at least as big as CFE_ES_ResetData_t
  42:/home/simulink/cFS_FreeRTOS_seL4/cfe/fsw/cfe-core/src/evs/cfe_evs_task.c **** **  Revision 1.13 2011/06/02 18:08:56EDT lwalling 
  43:/home/simulink/cFS_FreeRTOS_seL4/cfe/fsw/cfe-core/src/evs/cfe_evs_task.c **** **  Modified error handling for Write App Data to File command handler, updated event text
  44:/home/simulink/cFS_FreeRTOS_seL4/cfe/fsw/cfe-core/src/evs/cfe_evs_task.c **** **  Revision 1.12 2011/06/01 10:36:39EDT lwalling 
  45:/home/simulink/cFS_FreeRTOS_seL4/cfe/fsw/cfe-core/src/evs/cfe_evs_task.c **** **  Include internal ES header file, fix typo in calls to CFE_ES_WriteToSysLog()
  46:/home/simulink/cFS_FreeRTOS_seL4/cfe/fsw/cfe-core/src/evs/cfe_evs_task.c **** **  Revision 1.11 2011/05/23 15:57:01EDT lwalling 
  47:/home/simulink/cFS_FreeRTOS_seL4/cfe/fsw/cfe-core/src/evs/cfe_evs_task.c **** **  Change startup to not fail if unable to create event log, verify reset area size and event log 
  48:/home/simulink/cFS_FreeRTOS_seL4/cfe/fsw/cfe-core/src/evs/cfe_evs_task.c **** **  Revision 1.10 2011/04/07 11:24:26EDT lwalling 
  49:/home/simulink/cFS_FreeRTOS_seL4/cfe/fsw/cfe-core/src/evs/cfe_evs_task.c **** **  Fix typo in data definition
  50:/home/simulink/cFS_FreeRTOS_seL4/cfe/fsw/cfe-core/src/evs/cfe_evs_task.c **** **  Revision 1.9 2011/04/07 11:00:39EDT lwalling 
  51:/home/simulink/cFS_FreeRTOS_seL4/cfe/fsw/cfe-core/src/evs/cfe_evs_task.c **** **  Restored deleted app cleanup function -- CFE_EVS_CleanUpApp()
  52:/home/simulink/cFS_FreeRTOS_seL4/cfe/fsw/cfe-core/src/evs/cfe_evs_task.c **** **  Revision 1.8 2011/04/05 16:33:44EDT lwalling 
  53:/home/simulink/cFS_FreeRTOS_seL4/cfe/fsw/cfe-core/src/evs/cfe_evs_task.c **** **  Optimize EVS use of string functions, plus other performance improvements
  54:/home/simulink/cFS_FreeRTOS_seL4/cfe/fsw/cfe-core/src/evs/cfe_evs_task.c **** **  Revision 1.7 2011/03/17 15:55:39EDT lwalling 
  55:/home/simulink/cFS_FreeRTOS_seL4/cfe/fsw/cfe-core/src/evs/cfe_evs_task.c **** **  Fix use of return value from function CFE_ES_GetResetType()
  56:/home/simulink/cFS_FreeRTOS_seL4/cfe/fsw/cfe-core/src/evs/cfe_evs_task.c **** **  Revision 1.6 2010/10/27 16:37:17EDT jmdagost 
  57:/home/simulink/cFS_FreeRTOS_seL4/cfe/fsw/cfe-core/src/evs/cfe_evs_task.c **** **  Forced LogMode to default value on reset, added platform config and evs msg include files.
  58:/home/simulink/cFS_FreeRTOS_seL4/cfe/fsw/cfe-core/src/evs/cfe_evs_task.c **** **  Revision 1.5 2010/09/21 16:12:13EDT jmdagost 
68K GAS   			page 3


  59:/home/simulink/cFS_FreeRTOS_seL4/cfe/fsw/cfe-core/src/evs/cfe_evs_task.c **** **  Added conditional statements around conditionally-used local variables.
  60:/home/simulink/cFS_FreeRTOS_seL4/cfe/fsw/cfe-core/src/evs/cfe_evs_task.c **** **  Revision 1.4 2009/07/31 19:54:57EDT aschoeni 
  61:/home/simulink/cFS_FreeRTOS_seL4/cfe/fsw/cfe-core/src/evs/cfe_evs_task.c **** **  Added length checking and fixed several comments and events
  62:/home/simulink/cFS_FreeRTOS_seL4/cfe/fsw/cfe-core/src/evs/cfe_evs_task.c **** **  Revision 1.3 2009/06/10 09:13:01EDT acudmore 
  63:/home/simulink/cFS_FreeRTOS_seL4/cfe/fsw/cfe-core/src/evs/cfe_evs_task.c **** **  Converted OS_Mem* and OS_BSP* calls to CFE_PSP_*
  64:/home/simulink/cFS_FreeRTOS_seL4/cfe/fsw/cfe-core/src/evs/cfe_evs_task.c **** **  Revision 1.2 2008/07/31 15:41:38EDT apcudmore 
  65:/home/simulink/cFS_FreeRTOS_seL4/cfe/fsw/cfe-core/src/evs/cfe_evs_task.c **** **  Added execution counter API:
  66:/home/simulink/cFS_FreeRTOS_seL4/cfe/fsw/cfe-core/src/evs/cfe_evs_task.c **** **    -- Added execution counter to ES internal task data
  67:/home/simulink/cFS_FreeRTOS_seL4/cfe/fsw/cfe-core/src/evs/cfe_evs_task.c **** **    -- Added code to increment counter in RunLoop
  68:/home/simulink/cFS_FreeRTOS_seL4/cfe/fsw/cfe-core/src/evs/cfe_evs_task.c **** **    -- Added code to report counter in GetInfo APIs
  69:/home/simulink/cFS_FreeRTOS_seL4/cfe/fsw/cfe-core/src/evs/cfe_evs_task.c **** **    -- Added API to increment counter for child tasks
  70:/home/simulink/cFS_FreeRTOS_seL4/cfe/fsw/cfe-core/src/evs/cfe_evs_task.c **** **    -- Added code to cFE Core apps to increment counters.
  71:/home/simulink/cFS_FreeRTOS_seL4/cfe/fsw/cfe-core/src/evs/cfe_evs_task.c **** **  Revision 1.1 2008/04/17 08:05:13EDT ruperera 
  72:/home/simulink/cFS_FreeRTOS_seL4/cfe/fsw/cfe-core/src/evs/cfe_evs_task.c **** **  Initial revision
  73:/home/simulink/cFS_FreeRTOS_seL4/cfe/fsw/cfe-core/src/evs/cfe_evs_task.c **** **  Member added to project c:/MKSDATA/MKS-REPOSITORY/MKS-CFE-PROJECT/fsw/cfe-core/src/evs/project.
  74:/home/simulink/cFS_FreeRTOS_seL4/cfe/fsw/cfe-core/src/evs/cfe_evs_task.c **** **  Revision 1.1.2.72 2007/08/27 12:01:13EDT njyanchik 
  75:/home/simulink/cFS_FreeRTOS_seL4/cfe/fsw/cfe-core/src/evs/cfe_evs_task.c **** **  I mustv'e accidentally overwritten DAve's change of adding an event ID to WriteAppData, so I
  76:/home/simulink/cFS_FreeRTOS_seL4/cfe/fsw/cfe-core/src/evs/cfe_evs_task.c **** **  am fixing the mistake
  77:/home/simulink/cFS_FreeRTOS_seL4/cfe/fsw/cfe-core/src/evs/cfe_evs_task.c **** **  Revision 1.1.2.71 2007/08/24 14:27:38EDT apcudmore 
  78:/home/simulink/cFS_FreeRTOS_seL4/cfe/fsw/cfe-core/src/evs/cfe_evs_task.c **** **  Keep EVS from clearing out the log on a Processor reset
  79:/home/simulink/cFS_FreeRTOS_seL4/cfe/fsw/cfe-core/src/evs/cfe_evs_task.c **** **  Revision 1.1.2.70 2007/07/18 15:48:00EDT njyanchik 
  80:/home/simulink/cFS_FreeRTOS_seL4/cfe/fsw/cfe-core/src/evs/cfe_evs_task.c **** **  Jonathan added text into each error event in the two functions that write files (WriteLog and W
  81:/home/simulink/cFS_FreeRTOS_seL4/cfe/fsw/cfe-core/src/evs/cfe_evs_task.c **** **  Revision 1.1.2.68 2007/06/05 15:37:36EDT njyanchik 
  82:/home/simulink/cFS_FreeRTOS_seL4/cfe/fsw/cfe-core/src/evs/cfe_evs_task.c **** **  The log mode was not being set correctly in the telemetry. It was because the logmode variable
  83:/home/simulink/cFS_FreeRTOS_seL4/cfe/fsw/cfe-core/src/evs/cfe_evs_task.c **** **  was assigned to the logfullflag variable in telemetry. I reassigned it to the appropriate varia
  84:/home/simulink/cFS_FreeRTOS_seL4/cfe/fsw/cfe-core/src/evs/cfe_evs_task.c **** **  Revision 1.1.2.67 2007/05/16 15:13:42EDT dlkobe 
  85:/home/simulink/cFS_FreeRTOS_seL4/cfe/fsw/cfe-core/src/evs/cfe_evs_task.c **** **  Added MemPoolHandle members to HK packet
  86:/home/simulink/cFS_FreeRTOS_seL4/cfe/fsw/cfe-core/src/evs/cfe_evs_task.c **** **  Revision 1.1.2.66 2007/05/16 08:44:36EDT njyanchik 
  87:/home/simulink/cFS_FreeRTOS_seL4/cfe/fsw/cfe-core/src/evs/cfe_evs_task.c **** **  I re added the AppData Subtype to the AppData File header
  88:/home/simulink/cFS_FreeRTOS_seL4/cfe/fsw/cfe-core/src/evs/cfe_evs_task.c **** **  Revision 1.1.2.65 2007/05/15 11:01:10EDT rjmcgraw 
  89:/home/simulink/cFS_FreeRTOS_seL4/cfe/fsw/cfe-core/src/evs/cfe_evs_task.c **** **  DCR78:11 Exit main loop for CFE_SB_RcvMsg errors
  90:/home/simulink/cFS_FreeRTOS_seL4/cfe/fsw/cfe-core/src/evs/cfe_evs_task.c **** **  Revision 1.1.2.64 2007/05/14 10:26:04EDT apcudmore 
  91:/home/simulink/cFS_FreeRTOS_seL4/cfe/fsw/cfe-core/src/evs/cfe_evs_task.c **** **  Preserve the EVS Local event log on a processor restart:
  92:/home/simulink/cFS_FreeRTOS_seL4/cfe/fsw/cfe-core/src/evs/cfe_evs_task.c **** **  - moved the EVS Log to the ES reset data structure
  93:/home/simulink/cFS_FreeRTOS_seL4/cfe/fsw/cfe-core/src/evs/cfe_evs_task.c **** **  - Added a couple of EVS Log related variables into the EVS_Log_t structure
  94:/home/simulink/cFS_FreeRTOS_seL4/cfe/fsw/cfe-core/src/evs/cfe_evs_task.c **** **  - Added a routine to the EVS early init to get a pointer to the EVS Log 
  95:/home/simulink/cFS_FreeRTOS_seL4/cfe/fsw/cfe-core/src/evs/cfe_evs_task.c **** **  - Added code to the EVS housekeeping service routine to copy Log variables into TLM
  96:/home/simulink/cFS_FreeRTOS_seL4/cfe/fsw/cfe-core/src/evs/cfe_evs_task.c **** **  Revision 1.1.2.63 2007/04/27 16:58:19EDT rjmcgraw 
  97:/home/simulink/cFS_FreeRTOS_seL4/cfe/fsw/cfe-core/src/evs/cfe_evs_task.c **** **  Checked return from init event
  98:/home/simulink/cFS_FreeRTOS_seL4/cfe/fsw/cfe-core/src/evs/cfe_evs_task.c **** **  Revision 1.1.2.62 2007/04/27 16:13:15EDT rjmcgraw 
  99:/home/simulink/cFS_FreeRTOS_seL4/cfe/fsw/cfe-core/src/evs/cfe_evs_task.c **** **  DCR2987:4 Standardize task init error code
 100:/home/simulink/cFS_FreeRTOS_seL4/cfe/fsw/cfe-core/src/evs/cfe_evs_task.c **** **  Revision 1.1.2.61 2007/04/27 12:31:06EDT njyanchik 
 101:/home/simulink/cFS_FreeRTOS_seL4/cfe/fsw/cfe-core/src/evs/cfe_evs_task.c **** **  I changed EVS and TIME to not have a telemetry counter for SB pipe reads in the  
 102:/home/simulink/cFS_FreeRTOS_seL4/cfe/fsw/cfe-core/src/evs/cfe_evs_task.c **** **  main loop. Instead, I have added a syslog message to state the problem
 103:/home/simulink/cFS_FreeRTOS_seL4/cfe/fsw/cfe-core/src/evs/cfe_evs_task.c **** **  Revision 1.1.2.60 2007/04/26 14:45:39EDT rjmcgraw 
 104:/home/simulink/cFS_FreeRTOS_seL4/cfe/fsw/cfe-core/src/evs/cfe_evs_task.c **** **  Added pool create and sem create error handling
 105:/home/simulink/cFS_FreeRTOS_seL4/cfe/fsw/cfe-core/src/evs/cfe_evs_task.c **** **  Revision 1.1.2.59 2007/04/13 16:23:16EDT apcudmore 
 106:/home/simulink/cFS_FreeRTOS_seL4/cfe/fsw/cfe-core/src/evs/cfe_evs_task.c **** **  Changed EarlyInit function prototype to return int32 status
 107:/home/simulink/cFS_FreeRTOS_seL4/cfe/fsw/cfe-core/src/evs/cfe_evs_task.c **** **  Revision 1.1.2.58 2007/04/11 10:59:56EDT njyanchik 
 108:/home/simulink/cFS_FreeRTOS_seL4/cfe/fsw/cfe-core/src/evs/cfe_evs_task.c **** **  Remove the TaskDelay in the main loop for EVS. I also addeda counterin telemtry 
 109:/home/simulink/cFS_FreeRTOS_seL4/cfe/fsw/cfe-core/src/evs/cfe_evs_task.c **** **  that will notify the ground of an error in reading the command pipe.
 110:/home/simulink/cFS_FreeRTOS_seL4/cfe/fsw/cfe-core/src/evs/cfe_evs_task.c **** **  Revision 1.1.2.57 2007/04/09 14:45:08EDT rjmcgraw 
 111:/home/simulink/cFS_FreeRTOS_seL4/cfe/fsw/cfe-core/src/evs/cfe_evs_task.c **** **  Changed names of performance ids to include CFE_
 112:/home/simulink/cFS_FreeRTOS_seL4/cfe/fsw/cfe-core/src/evs/cfe_evs_task.c **** **
 113:/home/simulink/cFS_FreeRTOS_seL4/cfe/fsw/cfe-core/src/evs/cfe_evs_task.c **** */
 114:/home/simulink/cFS_FreeRTOS_seL4/cfe/fsw/cfe-core/src/evs/cfe_evs_task.c **** 
 115:/home/simulink/cFS_FreeRTOS_seL4/cfe/fsw/cfe-core/src/evs/cfe_evs_task.c **** /* Include Files */
68K GAS   			page 4


 116:/home/simulink/cFS_FreeRTOS_seL4/cfe/fsw/cfe-core/src/evs/cfe_evs_task.c **** #include "cfe_evs_task.h"       /* EVS internal definitions */
 117:/home/simulink/cFS_FreeRTOS_seL4/cfe/fsw/cfe-core/src/evs/cfe_evs_task.c **** #include "cfe_evs_log.h"        /* EVS log file definitions */
 118:/home/simulink/cFS_FreeRTOS_seL4/cfe/fsw/cfe-core/src/evs/cfe_evs_task.c **** #include "cfe_evs_utils.h"      /* EVS utility function definitions */
 119:/home/simulink/cFS_FreeRTOS_seL4/cfe/fsw/cfe-core/src/evs/cfe_evs_task.c **** #include "cfe_evs.h"            /* EVS API definitions */
 120:/home/simulink/cFS_FreeRTOS_seL4/cfe/fsw/cfe-core/src/evs/cfe_evs_task.c **** 
 121:/home/simulink/cFS_FreeRTOS_seL4/cfe/fsw/cfe-core/src/evs/cfe_evs_task.c **** #include <string.h>
 122:/home/simulink/cFS_FreeRTOS_seL4/cfe/fsw/cfe-core/src/evs/cfe_evs_task.c **** 
 123:/home/simulink/cFS_FreeRTOS_seL4/cfe/fsw/cfe-core/src/evs/cfe_evs_task.c **** #include "cfe_version.h"      /* cFE version definitions */
 124:/home/simulink/cFS_FreeRTOS_seL4/cfe/fsw/cfe-core/src/evs/cfe_evs_task.c **** #include "cfe_error.h"        /* cFE error code definitions */
 125:/home/simulink/cFS_FreeRTOS_seL4/cfe/fsw/cfe-core/src/evs/cfe_evs_task.c **** #include "cfe_es.h"           /* Executive Service definitions */
 126:/home/simulink/cFS_FreeRTOS_seL4/cfe/fsw/cfe-core/src/evs/cfe_evs_task.c **** #include "cfe_fs.h"           /* File Service definitions */
 127:/home/simulink/cFS_FreeRTOS_seL4/cfe/fsw/cfe-core/src/evs/cfe_evs_task.c **** #include "cfe_psp.h"          /* cFE Platform Support Package definitions */
 128:/home/simulink/cFS_FreeRTOS_seL4/cfe/fsw/cfe-core/src/evs/cfe_evs_task.c **** #include "osapi.h"            /* OS API file system definitions */
 129:/home/simulink/cFS_FreeRTOS_seL4/cfe/fsw/cfe-core/src/evs/cfe_evs_task.c **** 
 130:/home/simulink/cFS_FreeRTOS_seL4/cfe/fsw/cfe-core/src/evs/cfe_evs_task.c **** #include "private/cfe_es_resetdata_typedef.h"  /* Definition of CFE_ES_ResetData_t */
 131:/home/simulink/cFS_FreeRTOS_seL4/cfe/fsw/cfe-core/src/evs/cfe_evs_task.c **** 
 132:/home/simulink/cFS_FreeRTOS_seL4/cfe/fsw/cfe-core/src/evs/cfe_evs_task.c **** /* Global Data */
 133:/home/simulink/cFS_FreeRTOS_seL4/cfe/fsw/cfe-core/src/evs/cfe_evs_task.c **** CFE_EVS_GlobalData_t CFE_EVS_GlobalData;
 134:/home/simulink/cFS_FreeRTOS_seL4/cfe/fsw/cfe-core/src/evs/cfe_evs_task.c **** 
 135:/home/simulink/cFS_FreeRTOS_seL4/cfe/fsw/cfe-core/src/evs/cfe_evs_task.c **** 
 136:/home/simulink/cFS_FreeRTOS_seL4/cfe/fsw/cfe-core/src/evs/cfe_evs_task.c **** /*
 137:/home/simulink/cFS_FreeRTOS_seL4/cfe/fsw/cfe-core/src/evs/cfe_evs_task.c **** ** Local function prototypes.
 138:/home/simulink/cFS_FreeRTOS_seL4/cfe/fsw/cfe-core/src/evs/cfe_evs_task.c **** */
 139:/home/simulink/cFS_FreeRTOS_seL4/cfe/fsw/cfe-core/src/evs/cfe_evs_task.c **** void  CFE_EVS_ProcessGroundCommand ( CFE_SB_MsgPtr_t EVS_MsgPtr );
 140:/home/simulink/cFS_FreeRTOS_seL4/cfe/fsw/cfe-core/src/evs/cfe_evs_task.c **** void  CFE_EVS_ReportHousekeepingCmd ( void );
 141:/home/simulink/cFS_FreeRTOS_seL4/cfe/fsw/cfe-core/src/evs/cfe_evs_task.c **** void  CFE_EVS_ResetCountersCmd ( void );
 142:/home/simulink/cFS_FreeRTOS_seL4/cfe/fsw/cfe-core/src/evs/cfe_evs_task.c **** boolean CFE_EVS_VerifyCmdLength(CFE_SB_MsgPtr_t Msg, uint16 ExpectedLength);
 143:/home/simulink/cFS_FreeRTOS_seL4/cfe/fsw/cfe-core/src/evs/cfe_evs_task.c **** 
 144:/home/simulink/cFS_FreeRTOS_seL4/cfe/fsw/cfe-core/src/evs/cfe_evs_task.c **** /* Function Definitions */
 145:/home/simulink/cFS_FreeRTOS_seL4/cfe/fsw/cfe-core/src/evs/cfe_evs_task.c **** 
 146:/home/simulink/cFS_FreeRTOS_seL4/cfe/fsw/cfe-core/src/evs/cfe_evs_task.c **** 
 147:/home/simulink/cFS_FreeRTOS_seL4/cfe/fsw/cfe-core/src/evs/cfe_evs_task.c **** /*
 148:/home/simulink/cFS_FreeRTOS_seL4/cfe/fsw/cfe-core/src/evs/cfe_evs_task.c **** **             Function Prologue
 149:/home/simulink/cFS_FreeRTOS_seL4/cfe/fsw/cfe-core/src/evs/cfe_evs_task.c **** **
 150:/home/simulink/cFS_FreeRTOS_seL4/cfe/fsw/cfe-core/src/evs/cfe_evs_task.c **** ** Function Name:      CFE_EVS_EarlyInit
 151:/home/simulink/cFS_FreeRTOS_seL4/cfe/fsw/cfe-core/src/evs/cfe_evs_task.c **** **
 152:/home/simulink/cFS_FreeRTOS_seL4/cfe/fsw/cfe-core/src/evs/cfe_evs_task.c **** ** Purpose:  This routine provides initialization for the EVS API.
 153:/home/simulink/cFS_FreeRTOS_seL4/cfe/fsw/cfe-core/src/evs/cfe_evs_task.c **** **
 154:/home/simulink/cFS_FreeRTOS_seL4/cfe/fsw/cfe-core/src/evs/cfe_evs_task.c **** ** Assumptions and Notes: This routine must be called before the EVS
 155:/home/simulink/cFS_FreeRTOS_seL4/cfe/fsw/cfe-core/src/evs/cfe_evs_task.c **** **      application is started.  CFE_EVS_EarlyInit performs initialization
 156:/home/simulink/cFS_FreeRTOS_seL4/cfe/fsw/cfe-core/src/evs/cfe_evs_task.c **** **      necessary to support EVS API calls that might occur before
 157:/home/simulink/cFS_FreeRTOS_seL4/cfe/fsw/cfe-core/src/evs/cfe_evs_task.c **** **      the EVS application has completed its startup initialization.
 158:/home/simulink/cFS_FreeRTOS_seL4/cfe/fsw/cfe-core/src/evs/cfe_evs_task.c **** */
 159:/home/simulink/cFS_FreeRTOS_seL4/cfe/fsw/cfe-core/src/evs/cfe_evs_task.c **** int32 CFE_EVS_EarlyInit ( void )
 160:/home/simulink/cFS_FreeRTOS_seL4/cfe/fsw/cfe-core/src/evs/cfe_evs_task.c **** {
  29               	.loc 1 160 0
  30               	.cfi_startproc
  31 0000 4FEF FFE4 	lea (-28,%sp),%sp
  32               	.cfi_def_cfa_offset 32
  33 0004 48D7 001C 	movem.l #28,(%sp)
  34               	.cfi_offset 2, -32
  35               	.cfi_offset 3, -28
  36               	.cfi_offset 4, -24
 161:/home/simulink/cFS_FreeRTOS_seL4/cfe/fsw/cfe-core/src/evs/cfe_evs_task.c **** 
 162:/home/simulink/cFS_FreeRTOS_seL4/cfe/fsw/cfe-core/src/evs/cfe_evs_task.c **** #ifdef CFE_EVS_LOG_ON
 163:/home/simulink/cFS_FreeRTOS_seL4/cfe/fsw/cfe-core/src/evs/cfe_evs_task.c **** 
 164:/home/simulink/cFS_FreeRTOS_seL4/cfe/fsw/cfe-core/src/evs/cfe_evs_task.c ****    int32                Status;
68K GAS   			page 5


 165:/home/simulink/cFS_FreeRTOS_seL4/cfe/fsw/cfe-core/src/evs/cfe_evs_task.c ****    uint32               resetAreaSize = 0;
  37               	.loc 1 165 0
  38 0008 42AF 0010 	clr.l 16(%sp)
 166:/home/simulink/cFS_FreeRTOS_seL4/cfe/fsw/cfe-core/src/evs/cfe_evs_task.c ****    cpuaddr              resetAreaAddr;
 167:/home/simulink/cFS_FreeRTOS_seL4/cfe/fsw/cfe-core/src/evs/cfe_evs_task.c ****    CFE_ES_ResetData_t  *CFE_EVS_ResetDataPtr = (CFE_ES_ResetData_t *) NULL;
  39               	.loc 1 167 0
  40 000c 42AF 0018 	clr.l 24(%sp)
 168:/home/simulink/cFS_FreeRTOS_seL4/cfe/fsw/cfe-core/src/evs/cfe_evs_task.c **** 
 169:/home/simulink/cFS_FreeRTOS_seL4/cfe/fsw/cfe-core/src/evs/cfe_evs_task.c **** #endif
 170:/home/simulink/cFS_FreeRTOS_seL4/cfe/fsw/cfe-core/src/evs/cfe_evs_task.c **** 
 171:/home/simulink/cFS_FreeRTOS_seL4/cfe/fsw/cfe-core/src/evs/cfe_evs_task.c ****    CFE_PSP_MemSet(&CFE_EVS_GlobalData, 0, sizeof(CFE_EVS_GlobalData_t));
  41               	.loc 1 171 0
  42 0010 4878 09EC 	pea 2540.w
  43               	.cfi_def_cfa_offset 36
  44 0014 42A7      	clr.l -(%sp)
  45               	.cfi_def_cfa_offset 40
  46 0016 4879 0000 	pea CFE_EVS_GlobalData
  46      0000 
  47               	.cfi_def_cfa_offset 44
  48 001c 4EB9 0000 	jsr CFE_PSP_MemSet
  48      0000 
  49 0022 4FEF 000C 	lea (12,%sp),%sp
  50               	.cfi_def_cfa_offset 32
 172:/home/simulink/cFS_FreeRTOS_seL4/cfe/fsw/cfe-core/src/evs/cfe_evs_task.c **** 
 173:/home/simulink/cFS_FreeRTOS_seL4/cfe/fsw/cfe-core/src/evs/cfe_evs_task.c ****    CFE_EVS_GlobalData.EVS_AppID = CFE_EVS_UNDEF_APPID;
  51               	.loc 1 173 0
  52 0026 70FF      	moveq #-1,%d0
  53 0028 23C0 0000 	move.l %d0,CFE_EVS_GlobalData+2536
  53      0000 
 174:/home/simulink/cFS_FreeRTOS_seL4/cfe/fsw/cfe-core/src/evs/cfe_evs_task.c **** 
 175:/home/simulink/cFS_FreeRTOS_seL4/cfe/fsw/cfe-core/src/evs/cfe_evs_task.c ****    /* Initialize housekeeping packet */
 176:/home/simulink/cFS_FreeRTOS_seL4/cfe/fsw/cfe-core/src/evs/cfe_evs_task.c ****    CFE_SB_InitMsg(&CFE_EVS_GlobalData.EVS_TlmPkt, CFE_EVS_HK_TLM_MID,
  54               	.loc 1 176 0
  55 002e 42A7      	clr.l -(%sp)
  56               	.cfi_def_cfa_offset 36
  57 0030 4878 011C 	pea 284.w
  58               	.cfi_def_cfa_offset 40
  59 0034 4878 0801 	pea 2049.w
  60               	.cfi_def_cfa_offset 44
  61 0038 4879 0000 	pea CFE_EVS_GlobalData+2244
  61      0000 
  62               	.cfi_def_cfa_offset 48
  63 003e 4EB9 0000 	jsr CFE_SB_InitMsg
  63      0000 
  64 0044 4FEF 0010 	lea (16,%sp),%sp
  65               	.cfi_def_cfa_offset 32
 177:/home/simulink/cFS_FreeRTOS_seL4/cfe/fsw/cfe-core/src/evs/cfe_evs_task.c ****                    CFE_EVS_HK_TLM_LNGTH, FALSE);
 178:/home/simulink/cFS_FreeRTOS_seL4/cfe/fsw/cfe-core/src/evs/cfe_evs_task.c ****   
 179:/home/simulink/cFS_FreeRTOS_seL4/cfe/fsw/cfe-core/src/evs/cfe_evs_task.c ****    /* Elements stored in the hk packet that have non-zero default values */
 180:/home/simulink/cFS_FreeRTOS_seL4/cfe/fsw/cfe-core/src/evs/cfe_evs_task.c ****    CFE_EVS_GlobalData.EVS_TlmPkt.Payload.MessageFormatMode = CFE_EVS_DEFAULT_MSG_FORMAT_MODE;
  66               	.loc 1 180 0
  67 0048 7201      	moveq #1,%d1
  68 004a 13C1 0000 	move.b %d1,CFE_EVS_GlobalData+2258
  68      0000 
 181:/home/simulink/cFS_FreeRTOS_seL4/cfe/fsw/cfe-core/src/evs/cfe_evs_task.c ****    CFE_EVS_GlobalData.EVS_TlmPkt.Payload.OutputPort = CFE_EVS_PORT_DEFAULT;
  69               	.loc 1 181 0
  70 0050 7001      	moveq #1,%d0
68K GAS   			page 6


  71 0052 13C0 0000 	move.b %d0,CFE_EVS_GlobalData+2261
  71      0000 
 182:/home/simulink/cFS_FreeRTOS_seL4/cfe/fsw/cfe-core/src/evs/cfe_evs_task.c ****    CFE_EVS_GlobalData.EVS_TlmPkt.Payload.LogFullFlag = FALSE;
  72               	.loc 1 182 0
  73 0058 4201      	clr.b %d1
  74 005a 13C1 0000 	move.b %d1,CFE_EVS_GlobalData+2262
  74      0000 
 183:/home/simulink/cFS_FreeRTOS_seL4/cfe/fsw/cfe-core/src/evs/cfe_evs_task.c ****    CFE_EVS_GlobalData.EVS_TlmPkt.Payload.LogMode = CFE_EVS_DEFAULT_LOG_MODE;
  75               	.loc 1 183 0
  76 0060 7001      	moveq #1,%d0
  77 0062 13C0 0000 	move.b %d0,CFE_EVS_GlobalData+2263
  77      0000 
 184:/home/simulink/cFS_FreeRTOS_seL4/cfe/fsw/cfe-core/src/evs/cfe_evs_task.c **** 
 185:/home/simulink/cFS_FreeRTOS_seL4/cfe/fsw/cfe-core/src/evs/cfe_evs_task.c **** #ifdef CFE_EVS_LOG_ON
 186:/home/simulink/cFS_FreeRTOS_seL4/cfe/fsw/cfe-core/src/evs/cfe_evs_task.c **** 
 187:/home/simulink/cFS_FreeRTOS_seL4/cfe/fsw/cfe-core/src/evs/cfe_evs_task.c ****    /* Get a pointer to the CFE reset area from the BSP */
 188:/home/simulink/cFS_FreeRTOS_seL4/cfe/fsw/cfe-core/src/evs/cfe_evs_task.c ****    Status = CFE_PSP_GetResetArea(&resetAreaAddr, &resetAreaSize);
  78               	.loc 1 188 0
  79 0068 200F      	move.l %sp,%d0
  80 006a 0680 0000 	add.l #16,%d0
  80      0010 
  81 0070 2F00      	move.l %d0,-(%sp)
  82               	.cfi_def_cfa_offset 36
  83 0072 200F      	move.l %sp,%d0
  84 0074 0680 0000 	add.l #16,%d0
  84      0010 
  85 007a 2F00      	move.l %d0,-(%sp)
  86               	.cfi_def_cfa_offset 40
  87 007c 4EB9 0000 	jsr CFE_PSP_GetResetArea
  87      0000 
  88 0082 508F      	addq.l #8,%sp
  89               	.cfi_def_cfa_offset 32
  90 0084 2F40 0014 	move.l %d0,20(%sp)
 189:/home/simulink/cFS_FreeRTOS_seL4/cfe/fsw/cfe-core/src/evs/cfe_evs_task.c **** 
 190:/home/simulink/cFS_FreeRTOS_seL4/cfe/fsw/cfe-core/src/evs/cfe_evs_task.c ****    if (Status != CFE_PSP_SUCCESS)
  91               	.loc 1 190 0
  92 0088 4AAF 0014 	tst.l 20(%sp)
  93 008c 6718      	jeq .L2
 191:/home/simulink/cFS_FreeRTOS_seL4/cfe/fsw/cfe-core/src/evs/cfe_evs_task.c ****    {
 192:/home/simulink/cFS_FreeRTOS_seL4/cfe/fsw/cfe-core/src/evs/cfe_evs_task.c ****       CFE_ES_WriteToSysLog("EVS call to CFE_PSP_GetResetArea failed, RC=0x%08x\n", (unsigned int)St
  94               	.loc 1 192 0
  95 008e 202F 0014 	move.l 20(%sp),%d0
  96 0092 2F00      	move.l %d0,-(%sp)
  97               	.cfi_def_cfa_offset 36
  98 0094 4879 0000 	pea .LC0
  98      0000 
  99               	.cfi_def_cfa_offset 40
 100 009a 4EB9 0000 	jsr CFE_ES_WriteToSysLog
 100      0000 
 101 00a0 508F      	addq.l #8,%sp
 102               	.cfi_def_cfa_offset 32
 103 00a2 6000 0200 	jra .L3
 104               	.L2:
 193:/home/simulink/cFS_FreeRTOS_seL4/cfe/fsw/cfe-core/src/evs/cfe_evs_task.c ****    }
 194:/home/simulink/cFS_FreeRTOS_seL4/cfe/fsw/cfe-core/src/evs/cfe_evs_task.c ****    else if (resetAreaSize < sizeof(CFE_ES_ResetData_t))
 105               	.loc 1 194 0
 106 00a6 202F 0010 	move.l 16(%sp),%d0
68K GAS   			page 7


 107 00aa 0C80 0002 	cmp.l #131875,%d0
 107      0323 
 108 00b0 622A      	jhi .L4
 195:/home/simulink/cFS_FreeRTOS_seL4/cfe/fsw/cfe-core/src/evs/cfe_evs_task.c ****    {
 196:/home/simulink/cFS_FreeRTOS_seL4/cfe/fsw/cfe-core/src/evs/cfe_evs_task.c ****       /* Got the pointer but the size is wrong */
 197:/home/simulink/cFS_FreeRTOS_seL4/cfe/fsw/cfe-core/src/evs/cfe_evs_task.c ****       Status = CFE_EVS_RESET_AREA_POINTER;
 109               	.loc 1 197 0
 110 00b2 223C C200 	move.l #-1040187387,%d1
 110      0005 
 111 00b8 2F41 0014 	move.l %d1,20(%sp)
 198:/home/simulink/cFS_FreeRTOS_seL4/cfe/fsw/cfe-core/src/evs/cfe_evs_task.c ****       CFE_ES_WriteToSysLog("Unexpected size from CFE_PSP_GetResetArea: expected = 0x%08lX, actual =
 112               	.loc 1 198 0
 113 00bc 202F 0010 	move.l 16(%sp),%d0
 114 00c0 2F00      	move.l %d0,-(%sp)
 115               	.cfi_def_cfa_offset 36
 116 00c2 2F3C 0002 	move.l #131876,-(%sp)
 116      0324 
 117               	.cfi_def_cfa_offset 40
 118 00c8 4879 0000 	pea .LC1
 118      0000 
 119               	.cfi_def_cfa_offset 44
 120 00ce 4EB9 0000 	jsr CFE_ES_WriteToSysLog
 120      0000 
 121 00d4 4FEF 000C 	lea (12,%sp),%sp
 122               	.cfi_def_cfa_offset 32
 123 00d8 6000 01CA 	jra .L3
 124               	.L4:
 199:/home/simulink/cFS_FreeRTOS_seL4/cfe/fsw/cfe-core/src/evs/cfe_evs_task.c ****                             (unsigned long)sizeof(CFE_ES_ResetData_t), (unsigned long)resetAreaSize
 200:/home/simulink/cFS_FreeRTOS_seL4/cfe/fsw/cfe-core/src/evs/cfe_evs_task.c ****    }
 201:/home/simulink/cFS_FreeRTOS_seL4/cfe/fsw/cfe-core/src/evs/cfe_evs_task.c ****    else
 202:/home/simulink/cFS_FreeRTOS_seL4/cfe/fsw/cfe-core/src/evs/cfe_evs_task.c ****    {
 203:/home/simulink/cFS_FreeRTOS_seL4/cfe/fsw/cfe-core/src/evs/cfe_evs_task.c ****       CFE_EVS_ResetDataPtr = (CFE_ES_ResetData_t *)resetAreaAddr;
 125               	.loc 1 203 0
 126 00dc 202F 000C 	move.l 12(%sp),%d0
 127 00e0 2F40 0018 	move.l %d0,24(%sp)
 204:/home/simulink/cFS_FreeRTOS_seL4/cfe/fsw/cfe-core/src/evs/cfe_evs_task.c ****       /* Save pointer to the EVS portion of the CFE reset area */
 205:/home/simulink/cFS_FreeRTOS_seL4/cfe/fsw/cfe-core/src/evs/cfe_evs_task.c ****       CFE_EVS_GlobalData.EVS_LogPtr = &CFE_EVS_ResetDataPtr->EVS_Log;
 128               	.loc 1 205 0
 129 00e4 202F 0018 	move.l 24(%sp),%d0
 130 00e8 0680 0001 	add.l #128508,%d0
 130      F5FC 
 131 00ee 23C0 0000 	move.l %d0,CFE_EVS_GlobalData+2240
 131      0000 
 206:/home/simulink/cFS_FreeRTOS_seL4/cfe/fsw/cfe-core/src/evs/cfe_evs_task.c **** 
 207:/home/simulink/cFS_FreeRTOS_seL4/cfe/fsw/cfe-core/src/evs/cfe_evs_task.c ****       /* Create semaphore to serialize access to event log */
 208:/home/simulink/cFS_FreeRTOS_seL4/cfe/fsw/cfe-core/src/evs/cfe_evs_task.c ****       Status = OS_MutSemCreate(&CFE_EVS_GlobalData.EVS_SharedDataMutexID, "CFE_EVS_DataMutex", 0);
 132               	.loc 1 208 0
 133 00f4 42A7      	clr.l -(%sp)
 134               	.cfi_def_cfa_offset 36
 135 00f6 4879 0000 	pea .LC2
 135      0000 
 136               	.cfi_def_cfa_offset 40
 137 00fc 4879 0000 	pea CFE_EVS_GlobalData+2532
 137      0000 
 138               	.cfi_def_cfa_offset 44
 139 0102 4EB9 0000 	jsr OS_MutSemCreate
 139      0000 
68K GAS   			page 8


 140 0108 4FEF 000C 	lea (12,%sp),%sp
 141               	.cfi_def_cfa_offset 32
 142 010c 2F40 0014 	move.l %d0,20(%sp)
 209:/home/simulink/cFS_FreeRTOS_seL4/cfe/fsw/cfe-core/src/evs/cfe_evs_task.c **** 
 210:/home/simulink/cFS_FreeRTOS_seL4/cfe/fsw/cfe-core/src/evs/cfe_evs_task.c ****       if (Status != OS_SUCCESS)
 143               	.loc 1 210 0
 144 0110 4AAF 0014 	tst.l 20(%sp)
 145 0114 6718      	jeq .L5
 211:/home/simulink/cFS_FreeRTOS_seL4/cfe/fsw/cfe-core/src/evs/cfe_evs_task.c ****       {
 212:/home/simulink/cFS_FreeRTOS_seL4/cfe/fsw/cfe-core/src/evs/cfe_evs_task.c ****          CFE_ES_WriteToSysLog("EVS call to OS_MutSemCreate failed, RC=0x%08x\n", (unsigned int)Stat
 146               	.loc 1 212 0
 147 0116 202F 0014 	move.l 20(%sp),%d0
 148 011a 2F00      	move.l %d0,-(%sp)
 149               	.cfi_def_cfa_offset 36
 150 011c 4879 0000 	pea .LC3
 150      0000 
 151               	.cfi_def_cfa_offset 40
 152 0122 4EB9 0000 	jsr CFE_ES_WriteToSysLog
 152      0000 
 153 0128 508F      	addq.l #8,%sp
 154               	.cfi_def_cfa_offset 32
 155 012a 6000 0178 	jra .L3
 156               	.L5:
 213:/home/simulink/cFS_FreeRTOS_seL4/cfe/fsw/cfe-core/src/evs/cfe_evs_task.c ****       }
 214:/home/simulink/cFS_FreeRTOS_seL4/cfe/fsw/cfe-core/src/evs/cfe_evs_task.c ****       else
 215:/home/simulink/cFS_FreeRTOS_seL4/cfe/fsw/cfe-core/src/evs/cfe_evs_task.c ****       {
 216:/home/simulink/cFS_FreeRTOS_seL4/cfe/fsw/cfe-core/src/evs/cfe_evs_task.c ****          /* Enable access to the EVS event log */                                                  
 217:/home/simulink/cFS_FreeRTOS_seL4/cfe/fsw/cfe-core/src/evs/cfe_evs_task.c ****          CFE_EVS_GlobalData.EVS_TlmPkt.Payload.LogEnabled = TRUE;
 157               	.loc 1 217 0
 158 012e 7001      	moveq #1,%d0
 159 0130 13C0 0000 	move.b %d0,CFE_EVS_GlobalData+2268
 159      0000 
 218:/home/simulink/cFS_FreeRTOS_seL4/cfe/fsw/cfe-core/src/evs/cfe_evs_task.c **** 
 219:/home/simulink/cFS_FreeRTOS_seL4/cfe/fsw/cfe-core/src/evs/cfe_evs_task.c ****          /* Clear event log if power-on reset or bad contents */                                   
 220:/home/simulink/cFS_FreeRTOS_seL4/cfe/fsw/cfe-core/src/evs/cfe_evs_task.c ****          if (CFE_ES_GetResetType(NULL) == CFE_PSP_RST_TYPE_POWERON)                                
 160               	.loc 1 220 0
 161 0136 42A7      	clr.l -(%sp)
 162               	.cfi_def_cfa_offset 36
 163 0138 4EB9 0000 	jsr CFE_ES_GetResetType
 163      0000 
 164 013e 588F      	addq.l #4,%sp
 165               	.cfi_def_cfa_offset 32
 166 0140 7202      	moveq #2,%d1
 167 0142 B280      	cmp.l %d0,%d1
 168 0144 6624      	jne .L6
 221:/home/simulink/cFS_FreeRTOS_seL4/cfe/fsw/cfe-core/src/evs/cfe_evs_task.c ****          {
 222:/home/simulink/cFS_FreeRTOS_seL4/cfe/fsw/cfe-core/src/evs/cfe_evs_task.c ****             CFE_ES_WriteToSysLog("Event Log cleared following power-on reset\n");
 169               	.loc 1 222 0
 170 0146 4879 0000 	pea .LC4
 170      0000 
 171               	.cfi_def_cfa_offset 36
 172 014c 4EB9 0000 	jsr CFE_ES_WriteToSysLog
 172      0000 
 173 0152 588F      	addq.l #4,%sp
 174               	.cfi_def_cfa_offset 32
 223:/home/simulink/cFS_FreeRTOS_seL4/cfe/fsw/cfe-core/src/evs/cfe_evs_task.c ****             EVS_ClearLog();                                                                        
 175               	.loc 1 223 0
68K GAS   			page 9


 176 0154 4EB9 0000 	jsr EVS_ClearLog
 176      0000 
 224:/home/simulink/cFS_FreeRTOS_seL4/cfe/fsw/cfe-core/src/evs/cfe_evs_task.c ****             CFE_EVS_GlobalData.EVS_LogPtr->LogMode = CFE_EVS_DEFAULT_LOG_MODE;
 177               	.loc 1 224 0
 178 015a 2079 0000 	move.l CFE_EVS_GlobalData+2240,%a0
 178      0000 
 179 0160 7001      	moveq #1,%d0
 180 0162 1140 0005 	move.b %d0,5(%a0)
 181 0166 6000 013C 	jra .L3
 182               	.L6:
 225:/home/simulink/cFS_FreeRTOS_seL4/cfe/fsw/cfe-core/src/evs/cfe_evs_task.c ****          }
 226:/home/simulink/cFS_FreeRTOS_seL4/cfe/fsw/cfe-core/src/evs/cfe_evs_task.c ****          else if (((CFE_EVS_GlobalData.EVS_LogPtr->LogMode != CFE_EVS_LOG_OVERWRITE) &&
 183               	.loc 1 226 0
 184 016a 2079 0000 	move.l CFE_EVS_GlobalData+2240,%a0
 184      0000 
 185 0170 1028 0005 	move.b 5(%a0),%d0
 186 0174 4A00      	tst.b %d0
 187 0176 6718      	jeq .L7
 227:/home/simulink/cFS_FreeRTOS_seL4/cfe/fsw/cfe-core/src/evs/cfe_evs_task.c ****                    (CFE_EVS_GlobalData.EVS_LogPtr->LogMode != CFE_EVS_LOG_DISCARD))  ||
 188               	.loc 1 227 0 discriminator 1
 189 0178 2079 0000 	move.l CFE_EVS_GlobalData+2240,%a0
 189      0000 
 190 017e 1028 0005 	move.b 5(%a0),%d0
 226:/home/simulink/cFS_FreeRTOS_seL4/cfe/fsw/cfe-core/src/evs/cfe_evs_task.c ****                    (CFE_EVS_GlobalData.EVS_LogPtr->LogMode != CFE_EVS_LOG_DISCARD))  ||
 191               	.loc 1 226 0 discriminator 1
 192 0182 1000      	move.b %d0,%d0
 193 0184 0280 0000 	and.l #255,%d0
 193      00FF 
 194 018a 7201      	moveq #1,%d1
 195 018c B280      	cmp.l %d0,%d1
 196 018e 663C      	jne .L8
 197               	.L7:
 228:/home/simulink/cFS_FreeRTOS_seL4/cfe/fsw/cfe-core/src/evs/cfe_evs_task.c ****                   ((CFE_EVS_GlobalData.EVS_LogPtr->LogFullFlag != FALSE)   &&
 198               	.loc 1 228 0
 199 0190 2079 0000 	move.l CFE_EVS_GlobalData+2240,%a0
 199      0000 
 200 0196 1028 0004 	move.b 4(%a0),%d0
 227:/home/simulink/cFS_FreeRTOS_seL4/cfe/fsw/cfe-core/src/evs/cfe_evs_task.c ****                    (CFE_EVS_GlobalData.EVS_LogPtr->LogMode != CFE_EVS_LOG_DISCARD))  ||
 201               	.loc 1 227 0
 202 019a 4A00      	tst.b %d0
 203 019c 6718      	jeq .L9
 229:/home/simulink/cFS_FreeRTOS_seL4/cfe/fsw/cfe-core/src/evs/cfe_evs_task.c ****                    (CFE_EVS_GlobalData.EVS_LogPtr->LogFullFlag != TRUE))   ||
 204               	.loc 1 229 0
 205 019e 2079 0000 	move.l CFE_EVS_GlobalData+2240,%a0
 205      0000 
 206 01a4 1028 0004 	move.b 4(%a0),%d0
 228:/home/simulink/cFS_FreeRTOS_seL4/cfe/fsw/cfe-core/src/evs/cfe_evs_task.c ****                   ((CFE_EVS_GlobalData.EVS_LogPtr->LogFullFlag != FALSE)   &&
 207               	.loc 1 228 0
 208 01a8 1000      	move.b %d0,%d0
 209 01aa 0280 0000 	and.l #255,%d0
 209      00FF 
 210 01b0 7201      	moveq #1,%d1
 211 01b2 B280      	cmp.l %d0,%d1
 212 01b4 6616      	jne .L8
 213               	.L9:
 230:/home/simulink/cFS_FreeRTOS_seL4/cfe/fsw/cfe-core/src/evs/cfe_evs_task.c ****                    (CFE_EVS_GlobalData.EVS_LogPtr->Next >= CFE_EVS_LOG_MAX))
 214               	.loc 1 230 0
68K GAS   			page 10


 215 01b6 2079 0000 	move.l CFE_EVS_GlobalData+2240,%a0
 215      0000 
 216 01bc 3010      	move.w (%a0),%d0
 229:/home/simulink/cFS_FreeRTOS_seL4/cfe/fsw/cfe-core/src/evs/cfe_evs_task.c ****                    (CFE_EVS_GlobalData.EVS_LogPtr->LogFullFlag != TRUE))   ||
 217               	.loc 1 229 0
 218 01be 3000      	move.w %d0,%d0
 219 01c0 0280 0000 	and.l #65535,%d0
 219      FFFF 
 220 01c6 7213      	moveq #19,%d1
 221 01c8 B280      	cmp.l %d0,%d1
 222 01ca 6476      	jcc .L10
 223               	.L8:
 231:/home/simulink/cFS_FreeRTOS_seL4/cfe/fsw/cfe-core/src/evs/cfe_evs_task.c ****          {
 232:/home/simulink/cFS_FreeRTOS_seL4/cfe/fsw/cfe-core/src/evs/cfe_evs_task.c ****             CFE_ES_WriteToSysLog("Event Log cleared, n=%d, c=%d, f=%d, m=%d, o=%d\n",
 233:/home/simulink/cFS_FreeRTOS_seL4/cfe/fsw/cfe-core/src/evs/cfe_evs_task.c ****                                   (int)CFE_EVS_GlobalData.EVS_LogPtr->Next,
 234:/home/simulink/cFS_FreeRTOS_seL4/cfe/fsw/cfe-core/src/evs/cfe_evs_task.c ****                                   (int)CFE_EVS_GlobalData.EVS_LogPtr->LogCount,
 235:/home/simulink/cFS_FreeRTOS_seL4/cfe/fsw/cfe-core/src/evs/cfe_evs_task.c ****                                   (int)CFE_EVS_GlobalData.EVS_LogPtr->LogFullFlag,
 236:/home/simulink/cFS_FreeRTOS_seL4/cfe/fsw/cfe-core/src/evs/cfe_evs_task.c ****                                   (int)CFE_EVS_GlobalData.EVS_LogPtr->LogMode,
 237:/home/simulink/cFS_FreeRTOS_seL4/cfe/fsw/cfe-core/src/evs/cfe_evs_task.c ****                                   (int)CFE_EVS_GlobalData.EVS_LogPtr->LogOverflowCounter);
 224               	.loc 1 237 0
 225 01cc 2079 0000 	move.l CFE_EVS_GlobalData+2240,%a0
 225      0000 
 226 01d2 3028 0006 	move.w 6(%a0),%d0
 232:/home/simulink/cFS_FreeRTOS_seL4/cfe/fsw/cfe-core/src/evs/cfe_evs_task.c ****                                   (int)CFE_EVS_GlobalData.EVS_LogPtr->Next,
 227               	.loc 1 232 0
 228 01d6 4284      	clr.l %d4
 229 01d8 3800      	move.w %d0,%d4
 236:/home/simulink/cFS_FreeRTOS_seL4/cfe/fsw/cfe-core/src/evs/cfe_evs_task.c ****                                   (int)CFE_EVS_GlobalData.EVS_LogPtr->LogOverflowCounter);
 230               	.loc 1 236 0
 231 01da 2079 0000 	move.l CFE_EVS_GlobalData+2240,%a0
 231      0000 
 232 01e0 1028 0005 	move.b 5(%a0),%d0
 232:/home/simulink/cFS_FreeRTOS_seL4/cfe/fsw/cfe-core/src/evs/cfe_evs_task.c ****                                   (int)CFE_EVS_GlobalData.EVS_LogPtr->Next,
 233               	.loc 1 232 0
 234 01e4 4283      	clr.l %d3
 235 01e6 1600      	move.b %d0,%d3
 235:/home/simulink/cFS_FreeRTOS_seL4/cfe/fsw/cfe-core/src/evs/cfe_evs_task.c ****                                   (int)CFE_EVS_GlobalData.EVS_LogPtr->LogMode,
 236               	.loc 1 235 0
 237 01e8 2079 0000 	move.l CFE_EVS_GlobalData+2240,%a0
 237      0000 
 238 01ee 1028 0004 	move.b 4(%a0),%d0
 232:/home/simulink/cFS_FreeRTOS_seL4/cfe/fsw/cfe-core/src/evs/cfe_evs_task.c ****                                   (int)CFE_EVS_GlobalData.EVS_LogPtr->Next,
 239               	.loc 1 232 0
 240 01f2 4282      	clr.l %d2
 241 01f4 1400      	move.b %d0,%d2
 234:/home/simulink/cFS_FreeRTOS_seL4/cfe/fsw/cfe-core/src/evs/cfe_evs_task.c ****                                   (int)CFE_EVS_GlobalData.EVS_LogPtr->LogFullFlag,
 242               	.loc 1 234 0
 243 01f6 2079 0000 	move.l CFE_EVS_GlobalData+2240,%a0
 243      0000 
 244 01fc 3028 0002 	move.w 2(%a0),%d0
 232:/home/simulink/cFS_FreeRTOS_seL4/cfe/fsw/cfe-core/src/evs/cfe_evs_task.c ****                                   (int)CFE_EVS_GlobalData.EVS_LogPtr->Next,
 245               	.loc 1 232 0
 246 0200 4281      	clr.l %d1
 247 0202 3200      	move.w %d0,%d1
 233:/home/simulink/cFS_FreeRTOS_seL4/cfe/fsw/cfe-core/src/evs/cfe_evs_task.c ****                                   (int)CFE_EVS_GlobalData.EVS_LogPtr->LogCount,
 248               	.loc 1 233 0
 249 0204 2079 0000 	move.l CFE_EVS_GlobalData+2240,%a0
68K GAS   			page 11


 249      0000 
 250 020a 3010      	move.w (%a0),%d0
 232:/home/simulink/cFS_FreeRTOS_seL4/cfe/fsw/cfe-core/src/evs/cfe_evs_task.c ****                                   (int)CFE_EVS_GlobalData.EVS_LogPtr->Next,
 251               	.loc 1 232 0
 252 020c 3000      	move.w %d0,%d0
 253 020e 0280 0000 	and.l #65535,%d0
 253      FFFF 
 254 0214 2F04      	move.l %d4,-(%sp)
 255               	.cfi_def_cfa_offset 36
 256 0216 2F03      	move.l %d3,-(%sp)
 257               	.cfi_def_cfa_offset 40
 258 0218 2F02      	move.l %d2,-(%sp)
 259               	.cfi_def_cfa_offset 44
 260 021a 2F01      	move.l %d1,-(%sp)
 261               	.cfi_def_cfa_offset 48
 262 021c 2F00      	move.l %d0,-(%sp)
 263               	.cfi_def_cfa_offset 52
 264 021e 4879 0000 	pea .LC5
 264      0000 
 265               	.cfi_def_cfa_offset 56
 266 0224 4EB9 0000 	jsr CFE_ES_WriteToSysLog
 266      0000 
 267 022a 4FEF 0018 	lea (24,%sp),%sp
 268               	.cfi_def_cfa_offset 32
 238:/home/simulink/cFS_FreeRTOS_seL4/cfe/fsw/cfe-core/src/evs/cfe_evs_task.c ****             EVS_ClearLog();                                                                        
 269               	.loc 1 238 0
 270 022e 4EB9 0000 	jsr EVS_ClearLog
 270      0000 
 239:/home/simulink/cFS_FreeRTOS_seL4/cfe/fsw/cfe-core/src/evs/cfe_evs_task.c ****             CFE_EVS_GlobalData.EVS_LogPtr->LogMode = CFE_EVS_DEFAULT_LOG_MODE;
 271               	.loc 1 239 0
 272 0234 2079 0000 	move.l CFE_EVS_GlobalData+2240,%a0
 272      0000 
 273 023a 7001      	moveq #1,%d0
 274 023c 1140 0005 	move.b %d0,5(%a0)
 275 0240 6062      	jra .L3
 276               	.L10:
 240:/home/simulink/cFS_FreeRTOS_seL4/cfe/fsw/cfe-core/src/evs/cfe_evs_task.c ****          }
 241:/home/simulink/cFS_FreeRTOS_seL4/cfe/fsw/cfe-core/src/evs/cfe_evs_task.c ****          else
 242:/home/simulink/cFS_FreeRTOS_seL4/cfe/fsw/cfe-core/src/evs/cfe_evs_task.c ****          {
 243:/home/simulink/cFS_FreeRTOS_seL4/cfe/fsw/cfe-core/src/evs/cfe_evs_task.c ****             CFE_ES_WriteToSysLog("Event Log restored, n=%d, c=%d, f=%d, m=%d, o=%d\n",
 244:/home/simulink/cFS_FreeRTOS_seL4/cfe/fsw/cfe-core/src/evs/cfe_evs_task.c ****                                   (int)CFE_EVS_GlobalData.EVS_LogPtr->Next,
 245:/home/simulink/cFS_FreeRTOS_seL4/cfe/fsw/cfe-core/src/evs/cfe_evs_task.c ****                                   (int)CFE_EVS_GlobalData.EVS_LogPtr->LogCount,
 246:/home/simulink/cFS_FreeRTOS_seL4/cfe/fsw/cfe-core/src/evs/cfe_evs_task.c ****                                   (int)CFE_EVS_GlobalData.EVS_LogPtr->LogFullFlag,
 247:/home/simulink/cFS_FreeRTOS_seL4/cfe/fsw/cfe-core/src/evs/cfe_evs_task.c ****                                   (int)CFE_EVS_GlobalData.EVS_LogPtr->LogMode,
 248:/home/simulink/cFS_FreeRTOS_seL4/cfe/fsw/cfe-core/src/evs/cfe_evs_task.c ****                                   (int)CFE_EVS_GlobalData.EVS_LogPtr->LogOverflowCounter);
 277               	.loc 1 248 0
 278 0242 2079 0000 	move.l CFE_EVS_GlobalData+2240,%a0
 278      0000 
 279 0248 3028 0006 	move.w 6(%a0),%d0
 243:/home/simulink/cFS_FreeRTOS_seL4/cfe/fsw/cfe-core/src/evs/cfe_evs_task.c ****                                   (int)CFE_EVS_GlobalData.EVS_LogPtr->Next,
 280               	.loc 1 243 0
 281 024c 4284      	clr.l %d4
 282 024e 3800      	move.w %d0,%d4
 247:/home/simulink/cFS_FreeRTOS_seL4/cfe/fsw/cfe-core/src/evs/cfe_evs_task.c ****                                   (int)CFE_EVS_GlobalData.EVS_LogPtr->LogOverflowCounter);
 283               	.loc 1 247 0
 284 0250 2079 0000 	move.l CFE_EVS_GlobalData+2240,%a0
 284      0000 
68K GAS   			page 12


 285 0256 1028 0005 	move.b 5(%a0),%d0
 243:/home/simulink/cFS_FreeRTOS_seL4/cfe/fsw/cfe-core/src/evs/cfe_evs_task.c ****                                   (int)CFE_EVS_GlobalData.EVS_LogPtr->Next,
 286               	.loc 1 243 0
 287 025a 4283      	clr.l %d3
 288 025c 1600      	move.b %d0,%d3
 246:/home/simulink/cFS_FreeRTOS_seL4/cfe/fsw/cfe-core/src/evs/cfe_evs_task.c ****                                   (int)CFE_EVS_GlobalData.EVS_LogPtr->LogMode,
 289               	.loc 1 246 0
 290 025e 2079 0000 	move.l CFE_EVS_GlobalData+2240,%a0
 290      0000 
 291 0264 1028 0004 	move.b 4(%a0),%d0
 243:/home/simulink/cFS_FreeRTOS_seL4/cfe/fsw/cfe-core/src/evs/cfe_evs_task.c ****                                   (int)CFE_EVS_GlobalData.EVS_LogPtr->Next,
 292               	.loc 1 243 0
 293 0268 4282      	clr.l %d2
 294 026a 1400      	move.b %d0,%d2
 245:/home/simulink/cFS_FreeRTOS_seL4/cfe/fsw/cfe-core/src/evs/cfe_evs_task.c ****                                   (int)CFE_EVS_GlobalData.EVS_LogPtr->LogFullFlag,
 295               	.loc 1 245 0
 296 026c 2079 0000 	move.l CFE_EVS_GlobalData+2240,%a0
 296      0000 
 297 0272 3028 0002 	move.w 2(%a0),%d0
 243:/home/simulink/cFS_FreeRTOS_seL4/cfe/fsw/cfe-core/src/evs/cfe_evs_task.c ****                                   (int)CFE_EVS_GlobalData.EVS_LogPtr->Next,
 298               	.loc 1 243 0
 299 0276 4281      	clr.l %d1
 300 0278 3200      	move.w %d0,%d1
 244:/home/simulink/cFS_FreeRTOS_seL4/cfe/fsw/cfe-core/src/evs/cfe_evs_task.c ****                                   (int)CFE_EVS_GlobalData.EVS_LogPtr->LogCount,
 301               	.loc 1 244 0
 302 027a 2079 0000 	move.l CFE_EVS_GlobalData+2240,%a0
 302      0000 
 303 0280 3010      	move.w (%a0),%d0
 243:/home/simulink/cFS_FreeRTOS_seL4/cfe/fsw/cfe-core/src/evs/cfe_evs_task.c ****                                   (int)CFE_EVS_GlobalData.EVS_LogPtr->Next,
 304               	.loc 1 243 0
 305 0282 3000      	move.w %d0,%d0
 306 0284 0280 0000 	and.l #65535,%d0
 306      FFFF 
 307 028a 2F04      	move.l %d4,-(%sp)
 308               	.cfi_def_cfa_offset 36
 309 028c 2F03      	move.l %d3,-(%sp)
 310               	.cfi_def_cfa_offset 40
 311 028e 2F02      	move.l %d2,-(%sp)
 312               	.cfi_def_cfa_offset 44
 313 0290 2F01      	move.l %d1,-(%sp)
 314               	.cfi_def_cfa_offset 48
 315 0292 2F00      	move.l %d0,-(%sp)
 316               	.cfi_def_cfa_offset 52
 317 0294 4879 0000 	pea .LC6
 317      0000 
 318               	.cfi_def_cfa_offset 56
 319 029a 4EB9 0000 	jsr CFE_ES_WriteToSysLog
 319      0000 
 320 02a0 4FEF 0018 	lea (24,%sp),%sp
 321               	.cfi_def_cfa_offset 32
 322               	.L3:
 249:/home/simulink/cFS_FreeRTOS_seL4/cfe/fsw/cfe-core/src/evs/cfe_evs_task.c ****          }
 250:/home/simulink/cFS_FreeRTOS_seL4/cfe/fsw/cfe-core/src/evs/cfe_evs_task.c ****       }
 251:/home/simulink/cFS_FreeRTOS_seL4/cfe/fsw/cfe-core/src/evs/cfe_evs_task.c ****    }
 252:/home/simulink/cFS_FreeRTOS_seL4/cfe/fsw/cfe-core/src/evs/cfe_evs_task.c **** 
 253:/home/simulink/cFS_FreeRTOS_seL4/cfe/fsw/cfe-core/src/evs/cfe_evs_task.c **** #endif
 254:/home/simulink/cFS_FreeRTOS_seL4/cfe/fsw/cfe-core/src/evs/cfe_evs_task.c **** 
68K GAS   			page 13


 255:/home/simulink/cFS_FreeRTOS_seL4/cfe/fsw/cfe-core/src/evs/cfe_evs_task.c ****    return(CFE_SUCCESS);
 323               	.loc 1 255 0
 324 02a4 4280      	clr.l %d0
 256:/home/simulink/cFS_FreeRTOS_seL4/cfe/fsw/cfe-core/src/evs/cfe_evs_task.c **** 
 257:/home/simulink/cFS_FreeRTOS_seL4/cfe/fsw/cfe-core/src/evs/cfe_evs_task.c **** } /* End CFE_EVS_EarlyInit */
 325               	.loc 1 257 0
 326 02a6 4CD7 001C 	movem.l (%sp),#28
 327 02aa 4FEF 001C 	lea (28,%sp),%sp
 328 02ae 4E75      	rts
 329               	.cfi_endproc
 330               	.LFE59:
 331               	.sizeCFE_EVS_EarlyInit, .-CFE_EVS_EarlyInit
 332               	.align2
 333               	.globlCFE_EVS_CleanUpApp
 334               	.typeCFE_EVS_CleanUpApp, @function
 335               	CFE_EVS_CleanUpApp:
 336               	.LFB60:
 258:/home/simulink/cFS_FreeRTOS_seL4/cfe/fsw/cfe-core/src/evs/cfe_evs_task.c **** 
 259:/home/simulink/cFS_FreeRTOS_seL4/cfe/fsw/cfe-core/src/evs/cfe_evs_task.c **** 
 260:/home/simulink/cFS_FreeRTOS_seL4/cfe/fsw/cfe-core/src/evs/cfe_evs_task.c **** /*
 261:/home/simulink/cFS_FreeRTOS_seL4/cfe/fsw/cfe-core/src/evs/cfe_evs_task.c **** **             Function Prologue
 262:/home/simulink/cFS_FreeRTOS_seL4/cfe/fsw/cfe-core/src/evs/cfe_evs_task.c **** **
 263:/home/simulink/cFS_FreeRTOS_seL4/cfe/fsw/cfe-core/src/evs/cfe_evs_task.c **** ** Function Name:      CFE_EVS_CleanUpApp
 264:/home/simulink/cFS_FreeRTOS_seL4/cfe/fsw/cfe-core/src/evs/cfe_evs_task.c **** **
 265:/home/simulink/cFS_FreeRTOS_seL4/cfe/fsw/cfe-core/src/evs/cfe_evs_task.c **** ** Purpose:  ES calls this routine when an app is being terminated.
 266:/home/simulink/cFS_FreeRTOS_seL4/cfe/fsw/cfe-core/src/evs/cfe_evs_task.c **** **
 267:/home/simulink/cFS_FreeRTOS_seL4/cfe/fsw/cfe-core/src/evs/cfe_evs_task.c **** ** Assumptions and Notes:
 268:/home/simulink/cFS_FreeRTOS_seL4/cfe/fsw/cfe-core/src/evs/cfe_evs_task.c **** */
 269:/home/simulink/cFS_FreeRTOS_seL4/cfe/fsw/cfe-core/src/evs/cfe_evs_task.c **** int32 CFE_EVS_CleanUpApp(uint32 AppID)
 270:/home/simulink/cFS_FreeRTOS_seL4/cfe/fsw/cfe-core/src/evs/cfe_evs_task.c **** {
 337               	.loc 1 270 0
 338               	.cfi_startproc
 339 02b0 598F      	subq.l #4,%sp
 340               	.cfi_def_cfa_offset 8
 271:/home/simulink/cFS_FreeRTOS_seL4/cfe/fsw/cfe-core/src/evs/cfe_evs_task.c ****    int32  Status = CFE_SUCCESS;
 341               	.loc 1 271 0
 342 02b2 4297      	clr.l (%sp)
 272:/home/simulink/cFS_FreeRTOS_seL4/cfe/fsw/cfe-core/src/evs/cfe_evs_task.c **** 
 273:/home/simulink/cFS_FreeRTOS_seL4/cfe/fsw/cfe-core/src/evs/cfe_evs_task.c ****    if (AppID >= CFE_ES_MAX_APPLICATIONS)
 343               	.loc 1 273 0
 344 02b4 701F      	moveq #31,%d0
 345 02b6 B0AF 0008 	cmp.l 8(%sp),%d0
 346 02ba 6408      	jcc .L13
 274:/home/simulink/cFS_FreeRTOS_seL4/cfe/fsw/cfe-core/src/evs/cfe_evs_task.c ****    {
 275:/home/simulink/cFS_FreeRTOS_seL4/cfe/fsw/cfe-core/src/evs/cfe_evs_task.c ****       Status = CFE_EVS_APP_ILLEGAL_APP_ID;
 347               	.loc 1 275 0
 348 02bc 2EBC C200 	move.l #-1040187389,(%sp)
 348      0003 
 349 02c2 6044      	jra .L14
 350               	.L13:
 276:/home/simulink/cFS_FreeRTOS_seL4/cfe/fsw/cfe-core/src/evs/cfe_evs_task.c ****    }
 277:/home/simulink/cFS_FreeRTOS_seL4/cfe/fsw/cfe-core/src/evs/cfe_evs_task.c ****    else if (CFE_EVS_GlobalData.AppData[AppID].RegisterFlag == TRUE)
 351               	.loc 1 277 0
 352 02c4 202F 0008 	move.l 8(%sp),%d0
 353 02c8 7246      	moveq #70,%d1
 354 02ca 4C01 0800 	muls.l %d1,%d0
 355 02ce 41F9 0000 	lea CFE_EVS_GlobalData+68,%a0
68K GAS   			page 14


 355      0000 
 356 02d4 3030 0800 	move.w (%a0,%d0.l),%d0
 357 02d8 3000      	move.w %d0,%d0
 358 02da 0280 0000 	and.l #65535,%d0
 358      FFFF 
 359 02e0 7201      	moveq #1,%d1
 360 02e2 B280      	cmp.l %d0,%d1
 361 02e4 6622      	jne .L14
 278:/home/simulink/cFS_FreeRTOS_seL4/cfe/fsw/cfe-core/src/evs/cfe_evs_task.c ****    {
 279:/home/simulink/cFS_FreeRTOS_seL4/cfe/fsw/cfe-core/src/evs/cfe_evs_task.c ****       /* Same cleanup as CFE_EVS_Unregister() */
 280:/home/simulink/cFS_FreeRTOS_seL4/cfe/fsw/cfe-core/src/evs/cfe_evs_task.c ****       CFE_PSP_MemSet(&CFE_EVS_GlobalData.AppData[AppID], 0, sizeof(EVS_AppData_t));
 362               	.loc 1 280 0
 363 02e6 202F 0008 	move.l 8(%sp),%d0
 364 02ea 7246      	moveq #70,%d1
 365 02ec 4C01 0800 	muls.l %d1,%d0
 366 02f0 0680 0000 	add.l #CFE_EVS_GlobalData,%d0
 366      0000 
 367 02f6 4878 0046 	pea 70.w
 368               	.cfi_def_cfa_offset 12
 369 02fa 42A7      	clr.l -(%sp)
 370               	.cfi_def_cfa_offset 16
 371 02fc 2F00      	move.l %d0,-(%sp)
 372               	.cfi_def_cfa_offset 20
 373 02fe 4EB9 0000 	jsr CFE_PSP_MemSet
 373      0000 
 374 0304 4FEF 000C 	lea (12,%sp),%sp
 375               	.cfi_def_cfa_offset 8
 376               	.L14:
 281:/home/simulink/cFS_FreeRTOS_seL4/cfe/fsw/cfe-core/src/evs/cfe_evs_task.c ****    }
 282:/home/simulink/cFS_FreeRTOS_seL4/cfe/fsw/cfe-core/src/evs/cfe_evs_task.c ****     
 283:/home/simulink/cFS_FreeRTOS_seL4/cfe/fsw/cfe-core/src/evs/cfe_evs_task.c ****    return(Status);
 377               	.loc 1 283 0
 378 0308 2017      	move.l (%sp),%d0
 284:/home/simulink/cFS_FreeRTOS_seL4/cfe/fsw/cfe-core/src/evs/cfe_evs_task.c **** }
 379               	.loc 1 284 0
 380 030a 588F      	addq.l #4,%sp
 381 030c 4E75      	rts
 382               	.cfi_endproc
 383               	.LFE60:
 384               	.sizeCFE_EVS_CleanUpApp, .-CFE_EVS_CleanUpApp
 385               	.section.rodata
 386               	.LC7:
 387 0155 4556 533A 	.string"EVS:Application Init Failed,RC=0x%08X\n"
 387      4170 706C 
 387      6963 6174 
 387      696F 6E20 
 387      496E 6974 
 388               	.LC8:
 389 017c 4556 533A 	.string"EVS:Error reading cmd pipe,RC=0x%08X\n"
 389      4572 726F 
 389      7220 7265 
 389      6164 696E 
 389      6720 636D 
 390               	.text
 391               	.align2
 392               	.globlCFE_EVS_TaskMain
 393               	.typeCFE_EVS_TaskMain, @function
68K GAS   			page 15


 394               	CFE_EVS_TaskMain:
 395               	.LFB61:
 285:/home/simulink/cFS_FreeRTOS_seL4/cfe/fsw/cfe-core/src/evs/cfe_evs_task.c **** 
 286:/home/simulink/cFS_FreeRTOS_seL4/cfe/fsw/cfe-core/src/evs/cfe_evs_task.c **** 
 287:/home/simulink/cFS_FreeRTOS_seL4/cfe/fsw/cfe-core/src/evs/cfe_evs_task.c **** /*
 288:/home/simulink/cFS_FreeRTOS_seL4/cfe/fsw/cfe-core/src/evs/cfe_evs_task.c **** **             Function Prologue
 289:/home/simulink/cFS_FreeRTOS_seL4/cfe/fsw/cfe-core/src/evs/cfe_evs_task.c **** **
 290:/home/simulink/cFS_FreeRTOS_seL4/cfe/fsw/cfe-core/src/evs/cfe_evs_task.c **** ** Function Name:      EVS_TaskMain
 291:/home/simulink/cFS_FreeRTOS_seL4/cfe/fsw/cfe-core/src/evs/cfe_evs_task.c **** **
 292:/home/simulink/cFS_FreeRTOS_seL4/cfe/fsw/cfe-core/src/evs/cfe_evs_task.c **** ** Purpose:  This is the main EVS task process loop.
 293:/home/simulink/cFS_FreeRTOS_seL4/cfe/fsw/cfe-core/src/evs/cfe_evs_task.c **** **
 294:/home/simulink/cFS_FreeRTOS_seL4/cfe/fsw/cfe-core/src/evs/cfe_evs_task.c **** ** Assumptions and Notes:
 295:/home/simulink/cFS_FreeRTOS_seL4/cfe/fsw/cfe-core/src/evs/cfe_evs_task.c **** **
 296:/home/simulink/cFS_FreeRTOS_seL4/cfe/fsw/cfe-core/src/evs/cfe_evs_task.c **** */
 297:/home/simulink/cFS_FreeRTOS_seL4/cfe/fsw/cfe-core/src/evs/cfe_evs_task.c **** void CFE_EVS_TaskMain(void)
 298:/home/simulink/cFS_FreeRTOS_seL4/cfe/fsw/cfe-core/src/evs/cfe_evs_task.c **** {
 396               	.loc 1 298 0
 397               	.cfi_startproc
 398 030e 518F      	subq.l #8,%sp
 399               	.cfi_def_cfa_offset 12
 299:/home/simulink/cFS_FreeRTOS_seL4/cfe/fsw/cfe-core/src/evs/cfe_evs_task.c ****     int32 Status;    
 300:/home/simulink/cFS_FreeRTOS_seL4/cfe/fsw/cfe-core/src/evs/cfe_evs_task.c ****     CFE_SB_MsgPtr_t    EVS_MsgPtr; /* Pointer to SB message */
 301:/home/simulink/cFS_FreeRTOS_seL4/cfe/fsw/cfe-core/src/evs/cfe_evs_task.c **** 
 302:/home/simulink/cFS_FreeRTOS_seL4/cfe/fsw/cfe-core/src/evs/cfe_evs_task.c ****     CFE_ES_PerfLogEntry(CFE_EVS_MAIN_PERF_ID);    
 400               	.loc 1 302 0
 401 0310 42A7      	clr.l -(%sp)
 402               	.cfi_def_cfa_offset 16
 403 0312 4878 0002 	pea 2.w
 404               	.cfi_def_cfa_offset 20
 405 0316 4EB9 0000 	jsr CFE_ES_PerfLogAdd
 405      0000 
 406 031c 508F      	addq.l #8,%sp
 407               	.cfi_def_cfa_offset 12
 303:/home/simulink/cFS_FreeRTOS_seL4/cfe/fsw/cfe-core/src/evs/cfe_evs_task.c ****    
 304:/home/simulink/cFS_FreeRTOS_seL4/cfe/fsw/cfe-core/src/evs/cfe_evs_task.c ****     Status = CFE_EVS_TaskInit();
 408               	.loc 1 304 0
 409 031e 4EB9 0000 	jsr CFE_EVS_TaskInit
 409      0000 
 410 0324 2F40 0004 	move.l %d0,4(%sp)
 305:/home/simulink/cFS_FreeRTOS_seL4/cfe/fsw/cfe-core/src/evs/cfe_evs_task.c ****     
 306:/home/simulink/cFS_FreeRTOS_seL4/cfe/fsw/cfe-core/src/evs/cfe_evs_task.c ****     if(Status != CFE_SUCCESS)
 411               	.loc 1 306 0
 412 0328 4AAF 0004 	tst.l 4(%sp)
 413 032c 6730      	jeq .L17
 307:/home/simulink/cFS_FreeRTOS_seL4/cfe/fsw/cfe-core/src/evs/cfe_evs_task.c ****     {
 308:/home/simulink/cFS_FreeRTOS_seL4/cfe/fsw/cfe-core/src/evs/cfe_evs_task.c ****       CFE_ES_WriteToSysLog("EVS:Application Init Failed,RC=0x%08X\n", (unsigned int)Status);
 414               	.loc 1 308 0
 415 032e 202F 0004 	move.l 4(%sp),%d0
 416 0332 2F00      	move.l %d0,-(%sp)
 417               	.cfi_def_cfa_offset 16
 418 0334 4879 0000 	pea .LC7
 418      0000 
 419               	.cfi_def_cfa_offset 20
 420 033a 4EB9 0000 	jsr CFE_ES_WriteToSysLog
 420      0000 
 421 0340 508F      	addq.l #8,%sp
 422               	.cfi_def_cfa_offset 12
68K GAS   			page 16


 309:/home/simulink/cFS_FreeRTOS_seL4/cfe/fsw/cfe-core/src/evs/cfe_evs_task.c ****       CFE_ES_PerfLogExit(CFE_EVS_MAIN_PERF_ID);
 423               	.loc 1 309 0
 424 0342 4878 0001 	pea 1.w
 425               	.cfi_def_cfa_offset 16
 426 0346 4878 0002 	pea 2.w
 427               	.cfi_def_cfa_offset 20
 428 034a 4EB9 0000 	jsr CFE_ES_PerfLogAdd
 428      0000 
 429 0350 508F      	addq.l #8,%sp
 430               	.cfi_def_cfa_offset 12
 310:/home/simulink/cFS_FreeRTOS_seL4/cfe/fsw/cfe-core/src/evs/cfe_evs_task.c ****       /* Note: CFE_ES_ExitApp will not return */
 311:/home/simulink/cFS_FreeRTOS_seL4/cfe/fsw/cfe-core/src/evs/cfe_evs_task.c ****       CFE_ES_ExitApp(CFE_ES_RUNSTATUS_CORE_APP_INIT_ERROR);
 431               	.loc 1 311 0
 432 0352 4878 0008 	pea 8.w
 433               	.cfi_def_cfa_offset 16
 434 0356 4EB9 0000 	jsr CFE_ES_ExitApp
 434      0000 
 435 035c 588F      	addq.l #4,%sp
 436               	.cfi_def_cfa_offset 12
 437               	.L17:
 312:/home/simulink/cFS_FreeRTOS_seL4/cfe/fsw/cfe-core/src/evs/cfe_evs_task.c ****     }/* end if */      
 313:/home/simulink/cFS_FreeRTOS_seL4/cfe/fsw/cfe-core/src/evs/cfe_evs_task.c **** 
 314:/home/simulink/cFS_FreeRTOS_seL4/cfe/fsw/cfe-core/src/evs/cfe_evs_task.c ****     /*
 315:/home/simulink/cFS_FreeRTOS_seL4/cfe/fsw/cfe-core/src/evs/cfe_evs_task.c ****      * Wait for other apps to start.
 316:/home/simulink/cFS_FreeRTOS_seL4/cfe/fsw/cfe-core/src/evs/cfe_evs_task.c ****      * It is important that the core apps are present before this starts receiving
 317:/home/simulink/cFS_FreeRTOS_seL4/cfe/fsw/cfe-core/src/evs/cfe_evs_task.c ****      * messages from the command pipe, as some of those handlers might depend on
 318:/home/simulink/cFS_FreeRTOS_seL4/cfe/fsw/cfe-core/src/evs/cfe_evs_task.c ****      * the other core apps.
 319:/home/simulink/cFS_FreeRTOS_seL4/cfe/fsw/cfe-core/src/evs/cfe_evs_task.c ****      */
 320:/home/simulink/cFS_FreeRTOS_seL4/cfe/fsw/cfe-core/src/evs/cfe_evs_task.c ****     CFE_ES_WaitForStartupSync(CFE_CORE_MAX_STARTUP_MSEC);
 438               	.loc 1 320 0
 439 035e 4878 7530 	pea 30000.w
 440               	.cfi_def_cfa_offset 16
 441 0362 4EB9 0000 	jsr CFE_ES_WaitForStartupSync
 441      0000 
 442 0368 588F      	addq.l #4,%sp
 443               	.cfi_def_cfa_offset 12
 321:/home/simulink/cFS_FreeRTOS_seL4/cfe/fsw/cfe-core/src/evs/cfe_evs_task.c **** 
 322:/home/simulink/cFS_FreeRTOS_seL4/cfe/fsw/cfe-core/src/evs/cfe_evs_task.c ****     /* Main loop */
 323:/home/simulink/cFS_FreeRTOS_seL4/cfe/fsw/cfe-core/src/evs/cfe_evs_task.c ****     while (Status == CFE_SUCCESS)
 444               	.loc 1 323 0
 445 036a 6074      	jra .L18
 446               	.L20:
 324:/home/simulink/cFS_FreeRTOS_seL4/cfe/fsw/cfe-core/src/evs/cfe_evs_task.c ****     {
 325:/home/simulink/cFS_FreeRTOS_seL4/cfe/fsw/cfe-core/src/evs/cfe_evs_task.c ****         /* Increment the Main task Execution Counter */
 326:/home/simulink/cFS_FreeRTOS_seL4/cfe/fsw/cfe-core/src/evs/cfe_evs_task.c ****         CFE_ES_IncrementTaskCounter();
 447               	.loc 1 326 0
 448 036c 4EB9 0000 	jsr CFE_ES_IncrementTaskCounter
 448      0000 
 327:/home/simulink/cFS_FreeRTOS_seL4/cfe/fsw/cfe-core/src/evs/cfe_evs_task.c ****     
 328:/home/simulink/cFS_FreeRTOS_seL4/cfe/fsw/cfe-core/src/evs/cfe_evs_task.c ****         CFE_ES_PerfLogExit(CFE_EVS_MAIN_PERF_ID);
 449               	.loc 1 328 0
 450 0372 4878 0001 	pea 1.w
 451               	.cfi_def_cfa_offset 16
 452 0376 4878 0002 	pea 2.w
 453               	.cfi_def_cfa_offset 20
 454 037a 4EB9 0000 	jsr CFE_ES_PerfLogAdd
 454      0000 
68K GAS   			page 17


 455 0380 508F      	addq.l #8,%sp
 456               	.cfi_def_cfa_offset 12
 329:/home/simulink/cFS_FreeRTOS_seL4/cfe/fsw/cfe-core/src/evs/cfe_evs_task.c **** 
 330:/home/simulink/cFS_FreeRTOS_seL4/cfe/fsw/cfe-core/src/evs/cfe_evs_task.c ****         /* Pend on receipt of packet */
 331:/home/simulink/cFS_FreeRTOS_seL4/cfe/fsw/cfe-core/src/evs/cfe_evs_task.c ****         Status = CFE_SB_RcvMsg(&EVS_MsgPtr, 
 332:/home/simulink/cFS_FreeRTOS_seL4/cfe/fsw/cfe-core/src/evs/cfe_evs_task.c ****                                CFE_EVS_GlobalData.EVS_CommandPipe, 
 457               	.loc 1 332 0
 458 0382 1039 0000 	move.b CFE_EVS_GlobalData+2528,%d0
 458      0000 
 331:/home/simulink/cFS_FreeRTOS_seL4/cfe/fsw/cfe-core/src/evs/cfe_evs_task.c ****                                CFE_EVS_GlobalData.EVS_CommandPipe, 
 459               	.loc 1 331 0
 460 0388 1000      	move.b %d0,%d0
 461 038a 0280 0000 	and.l #255,%d0
 461      00FF 
 462 0390 4878 FFFF 	pea -1.w
 463               	.cfi_def_cfa_offset 16
 464 0394 2F00      	move.l %d0,-(%sp)
 465               	.cfi_def_cfa_offset 20
 466 0396 200F      	move.l %sp,%d0
 467 0398 5080      	addq.l #8,%d0
 468 039a 2F00      	move.l %d0,-(%sp)
 469               	.cfi_def_cfa_offset 24
 470 039c 4EB9 0000 	jsr CFE_SB_RcvMsg
 470      0000 
 471 03a2 4FEF 000C 	lea (12,%sp),%sp
 472               	.cfi_def_cfa_offset 12
 473 03a6 2F40 0004 	move.l %d0,4(%sp)
 333:/home/simulink/cFS_FreeRTOS_seL4/cfe/fsw/cfe-core/src/evs/cfe_evs_task.c ****                                CFE_SB_PEND_FOREVER);
 334:/home/simulink/cFS_FreeRTOS_seL4/cfe/fsw/cfe-core/src/evs/cfe_evs_task.c **** 
 335:/home/simulink/cFS_FreeRTOS_seL4/cfe/fsw/cfe-core/src/evs/cfe_evs_task.c ****         CFE_ES_PerfLogEntry(CFE_EVS_MAIN_PERF_ID);
 474               	.loc 1 335 0
 475 03aa 42A7      	clr.l -(%sp)
 476               	.cfi_def_cfa_offset 16
 477 03ac 4878 0002 	pea 2.w
 478               	.cfi_def_cfa_offset 20
 479 03b0 4EB9 0000 	jsr CFE_ES_PerfLogAdd
 479      0000 
 480 03b6 508F      	addq.l #8,%sp
 481               	.cfi_def_cfa_offset 12
 336:/home/simulink/cFS_FreeRTOS_seL4/cfe/fsw/cfe-core/src/evs/cfe_evs_task.c **** 
 337:/home/simulink/cFS_FreeRTOS_seL4/cfe/fsw/cfe-core/src/evs/cfe_evs_task.c ****         if (Status == CFE_SUCCESS)
 482               	.loc 1 337 0
 483 03b8 4AAF 0004 	tst.l 4(%sp)
 484 03bc 660E      	jne .L19
 338:/home/simulink/cFS_FreeRTOS_seL4/cfe/fsw/cfe-core/src/evs/cfe_evs_task.c ****         {
 339:/home/simulink/cFS_FreeRTOS_seL4/cfe/fsw/cfe-core/src/evs/cfe_evs_task.c ****             /* Process cmd pipe msg */
 340:/home/simulink/cFS_FreeRTOS_seL4/cfe/fsw/cfe-core/src/evs/cfe_evs_task.c ****             CFE_EVS_ProcessCommandPacket(EVS_MsgPtr);
 485               	.loc 1 340 0
 486 03be 2017      	move.l (%sp),%d0
 487 03c0 2F00      	move.l %d0,-(%sp)
 488               	.cfi_def_cfa_offset 16
 489 03c2 4EB9 0000 	jsr CFE_EVS_ProcessCommandPacket
 489      0000 
 490 03c8 588F      	addq.l #4,%sp
 491               	.cfi_def_cfa_offset 12
 492 03ca 6014      	jra .L18
 493               	.L19:
68K GAS   			page 18


 341:/home/simulink/cFS_FreeRTOS_seL4/cfe/fsw/cfe-core/src/evs/cfe_evs_task.c ****         }else{            
 342:/home/simulink/cFS_FreeRTOS_seL4/cfe/fsw/cfe-core/src/evs/cfe_evs_task.c ****             CFE_ES_WriteToSysLog("EVS:Error reading cmd pipe,RC=0x%08X\n",(unsigned int)Status);
 494               	.loc 1 342 0
 495 03cc 202F 0004 	move.l 4(%sp),%d0
 496 03d0 2F00      	move.l %d0,-(%sp)
 497               	.cfi_def_cfa_offset 16
 498 03d2 4879 0000 	pea .LC8
 498      0000 
 499               	.cfi_def_cfa_offset 20
 500 03d8 4EB9 0000 	jsr CFE_ES_WriteToSysLog
 500      0000 
 501 03de 508F      	addq.l #8,%sp
 502               	.cfi_def_cfa_offset 12
 503               	.L18:
 323:/home/simulink/cFS_FreeRTOS_seL4/cfe/fsw/cfe-core/src/evs/cfe_evs_task.c ****     {
 504               	.loc 1 323 0
 505 03e0 4AAF 0004 	tst.l 4(%sp)
 506 03e4 6786      	jeq .L20
 343:/home/simulink/cFS_FreeRTOS_seL4/cfe/fsw/cfe-core/src/evs/cfe_evs_task.c ****         }/* end if */
 344:/home/simulink/cFS_FreeRTOS_seL4/cfe/fsw/cfe-core/src/evs/cfe_evs_task.c ****     
 345:/home/simulink/cFS_FreeRTOS_seL4/cfe/fsw/cfe-core/src/evs/cfe_evs_task.c ****     }/* end while */
 346:/home/simulink/cFS_FreeRTOS_seL4/cfe/fsw/cfe-core/src/evs/cfe_evs_task.c **** 
 347:/home/simulink/cFS_FreeRTOS_seL4/cfe/fsw/cfe-core/src/evs/cfe_evs_task.c ****     /* while loop exits only if CFE_SB_RcvMsg returns error */
 348:/home/simulink/cFS_FreeRTOS_seL4/cfe/fsw/cfe-core/src/evs/cfe_evs_task.c ****     CFE_ES_ExitApp(CFE_ES_RUNSTATUS_CORE_APP_RUNTIME_ERROR);
 507               	.loc 1 348 0
 508 03e6 4878 0009 	pea 9.w
 509               	.cfi_def_cfa_offset 16
 510 03ea 4EB9 0000 	jsr CFE_ES_ExitApp
 510      0000 
 511 03f0 588F      	addq.l #4,%sp
 512               	.cfi_def_cfa_offset 12
 349:/home/simulink/cFS_FreeRTOS_seL4/cfe/fsw/cfe-core/src/evs/cfe_evs_task.c **** 
 350:/home/simulink/cFS_FreeRTOS_seL4/cfe/fsw/cfe-core/src/evs/cfe_evs_task.c **** } /* end CFE_EVS_TaskMain */
 513               	.loc 1 350 0
 514 03f2 4E71      	nop
 515 03f4 508F      	addq.l #8,%sp
 516 03f6 4E75      	rts
 517               	.cfi_endproc
 518               	.LFE61:
 519               	.sizeCFE_EVS_TaskMain, .-CFE_EVS_TaskMain
 520               	.section.rodata
 521               	.LC9:
 522 01a2 4556 533A 	.string"EVS:Call to CFE_ES_RegisterApp Failed:RC=0x%08X\n"
 522      4361 6C6C 
 522      2074 6F20 
 522      4346 455F 
 522      4553 5F52 
 523               	.LC10:
 524 01d3 4556 533A 	.string"EVS:Call to CFE_ES_GetAppID Failed:RC=0x%08X\n"
 524      4361 6C6C 
 524      2074 6F20 
 524      4346 455F 
 524      4553 5F47 
 525               	.LC11:
 526 0201 4556 533A 	.string"EVS:Call to CFE_EVS_Register Failed:RC=0x%08X\n"
 526      4361 6C6C 
 526      2074 6F20 
68K GAS   			page 19


 526      4346 455F 
 526      4556 535F 
 527               	.LC12:
 528 0230 4556 535F 	.string"EVS_CMD_PIPE"
 528      434D 445F 
 528      5049 5045 
 528      00
 529               	.LC13:
 530 023d 4556 533A 	.string"EVS:Call to CFE_SB_CreatePipe Failed:RC=0x%08X\n"
 530      4361 6C6C 
 530      2074 6F20 
 530      4346 455F 
 530      5342 5F43 
 531               	.LC14:
 532 026d 4556 533A 	.string"EVS:Subscribing to Cmds Failed:RC=0x%08X\n"
 532      5375 6273 
 532      6372 6962 
 532      696E 6720 
 532      746F 2043 
 533               	.LC15:
 534 0297 4556 533A 	.string"EVS:Subscribing to HK Request Failed:RC=0x%08X\n"
 534      5375 6273 
 534      6372 6962 
 534      696E 6720 
 534      746F 2048 
 535               	.LC16:
 536 02c7 6346 4520 	.string"cFE EVS Initialized. cFE Version %d.%d.%d.%d"
 536      4556 5320 
 536      496E 6974 
 536      6961 6C69 
 536      7A65 642E 
 537               	.text
 538               	.align2
 539               	.globlCFE_EVS_TaskInit
 540               	.typeCFE_EVS_TaskInit, @function
 541               	CFE_EVS_TaskInit:
 542               	.LFB62:
 351:/home/simulink/cFS_FreeRTOS_seL4/cfe/fsw/cfe-core/src/evs/cfe_evs_task.c **** 
 352:/home/simulink/cFS_FreeRTOS_seL4/cfe/fsw/cfe-core/src/evs/cfe_evs_task.c **** 
 353:/home/simulink/cFS_FreeRTOS_seL4/cfe/fsw/cfe-core/src/evs/cfe_evs_task.c **** 
 354:/home/simulink/cFS_FreeRTOS_seL4/cfe/fsw/cfe-core/src/evs/cfe_evs_task.c **** /*
 355:/home/simulink/cFS_FreeRTOS_seL4/cfe/fsw/cfe-core/src/evs/cfe_evs_task.c **** **             Function Prologue
 356:/home/simulink/cFS_FreeRTOS_seL4/cfe/fsw/cfe-core/src/evs/cfe_evs_task.c **** **
 357:/home/simulink/cFS_FreeRTOS_seL4/cfe/fsw/cfe-core/src/evs/cfe_evs_task.c **** ** Function Name:      CFE_EVS_TaskInit
 358:/home/simulink/cFS_FreeRTOS_seL4/cfe/fsw/cfe-core/src/evs/cfe_evs_task.c **** **
 359:/home/simulink/cFS_FreeRTOS_seL4/cfe/fsw/cfe-core/src/evs/cfe_evs_task.c **** ** Purpose:  This function performs any necessary EVS task initialization.
 360:/home/simulink/cFS_FreeRTOS_seL4/cfe/fsw/cfe-core/src/evs/cfe_evs_task.c **** **
 361:/home/simulink/cFS_FreeRTOS_seL4/cfe/fsw/cfe-core/src/evs/cfe_evs_task.c **** ** Assumptions and Notes:
 362:/home/simulink/cFS_FreeRTOS_seL4/cfe/fsw/cfe-core/src/evs/cfe_evs_task.c **** **
 363:/home/simulink/cFS_FreeRTOS_seL4/cfe/fsw/cfe-core/src/evs/cfe_evs_task.c **** */
 364:/home/simulink/cFS_FreeRTOS_seL4/cfe/fsw/cfe-core/src/evs/cfe_evs_task.c **** int32 CFE_EVS_TaskInit ( void )
 365:/home/simulink/cFS_FreeRTOS_seL4/cfe/fsw/cfe-core/src/evs/cfe_evs_task.c **** {
 543               	.loc 1 365 0
 544               	.cfi_startproc
 545 03f8 518F      	subq.l #8,%sp
 546               	.cfi_def_cfa_offset 12
 366:/home/simulink/cFS_FreeRTOS_seL4/cfe/fsw/cfe-core/src/evs/cfe_evs_task.c ****    int32 Status;
68K GAS   			page 20


 367:/home/simulink/cFS_FreeRTOS_seL4/cfe/fsw/cfe-core/src/evs/cfe_evs_task.c ****    uint32 AppID;
 368:/home/simulink/cFS_FreeRTOS_seL4/cfe/fsw/cfe-core/src/evs/cfe_evs_task.c ****  
 369:/home/simulink/cFS_FreeRTOS_seL4/cfe/fsw/cfe-core/src/evs/cfe_evs_task.c ****    /* Register EVS application */
 370:/home/simulink/cFS_FreeRTOS_seL4/cfe/fsw/cfe-core/src/evs/cfe_evs_task.c ****    Status = CFE_ES_RegisterApp();
 547               	.loc 1 370 0
 548 03fa 4EB9 0000 	jsr CFE_ES_RegisterApp
 548      0000 
 549 0400 2F40 0004 	move.l %d0,4(%sp)
 371:/home/simulink/cFS_FreeRTOS_seL4/cfe/fsw/cfe-core/src/evs/cfe_evs_task.c ****    if (Status != CFE_SUCCESS)
 550               	.loc 1 371 0
 551 0404 4AAF 0004 	tst.l 4(%sp)
 552 0408 671C      	jeq .L22
 372:/home/simulink/cFS_FreeRTOS_seL4/cfe/fsw/cfe-core/src/evs/cfe_evs_task.c ****    {
 373:/home/simulink/cFS_FreeRTOS_seL4/cfe/fsw/cfe-core/src/evs/cfe_evs_task.c ****       CFE_ES_WriteToSysLog("EVS:Call to CFE_ES_RegisterApp Failed:RC=0x%08X\n",(unsigned int)Status
 553               	.loc 1 373 0
 554 040a 202F 0004 	move.l 4(%sp),%d0
 555 040e 2F00      	move.l %d0,-(%sp)
 556               	.cfi_def_cfa_offset 16
 557 0410 4879 0000 	pea .LC9
 557      0000 
 558               	.cfi_def_cfa_offset 20
 559 0416 4EB9 0000 	jsr CFE_ES_WriteToSysLog
 559      0000 
 560 041c 508F      	addq.l #8,%sp
 561               	.cfi_def_cfa_offset 12
 374:/home/simulink/cFS_FreeRTOS_seL4/cfe/fsw/cfe-core/src/evs/cfe_evs_task.c ****       return Status;
 562               	.loc 1 374 0
 563 041e 202F 0004 	move.l 4(%sp),%d0
 564 0422 6000 0174 	jra .L29
 565               	.L22:
 375:/home/simulink/cFS_FreeRTOS_seL4/cfe/fsw/cfe-core/src/evs/cfe_evs_task.c ****    }
 376:/home/simulink/cFS_FreeRTOS_seL4/cfe/fsw/cfe-core/src/evs/cfe_evs_task.c **** 
 377:/home/simulink/cFS_FreeRTOS_seL4/cfe/fsw/cfe-core/src/evs/cfe_evs_task.c ****    /* Query and verify the EVS AppID */
 378:/home/simulink/cFS_FreeRTOS_seL4/cfe/fsw/cfe-core/src/evs/cfe_evs_task.c ****    Status = EVS_GetAppID(&AppID);
 566               	.loc 1 378 0
 567 0426 200F      	move.l %sp,%d0
 568 0428 2F00      	move.l %d0,-(%sp)
 569               	.cfi_def_cfa_offset 16
 570 042a 4EB9 0000 	jsr EVS_GetAppID
 570      0000 
 571 0430 588F      	addq.l #4,%sp
 572               	.cfi_def_cfa_offset 12
 573 0432 2F40 0004 	move.l %d0,4(%sp)
 379:/home/simulink/cFS_FreeRTOS_seL4/cfe/fsw/cfe-core/src/evs/cfe_evs_task.c ****    if (Status != CFE_SUCCESS)
 574               	.loc 1 379 0
 575 0436 4AAF 0004 	tst.l 4(%sp)
 576 043a 671C      	jeq .L24
 380:/home/simulink/cFS_FreeRTOS_seL4/cfe/fsw/cfe-core/src/evs/cfe_evs_task.c ****    {
 381:/home/simulink/cFS_FreeRTOS_seL4/cfe/fsw/cfe-core/src/evs/cfe_evs_task.c ****       CFE_ES_WriteToSysLog("EVS:Call to CFE_ES_GetAppID Failed:RC=0x%08X\n",(unsigned int)Status);
 577               	.loc 1 381 0
 578 043c 202F 0004 	move.l 4(%sp),%d0
 579 0440 2F00      	move.l %d0,-(%sp)
 580               	.cfi_def_cfa_offset 16
 581 0442 4879 0000 	pea .LC10
 581      0000 
 582               	.cfi_def_cfa_offset 20
 583 0448 4EB9 0000 	jsr CFE_ES_WriteToSysLog
68K GAS   			page 21


 583      0000 
 584 044e 508F      	addq.l #8,%sp
 585               	.cfi_def_cfa_offset 12
 382:/home/simulink/cFS_FreeRTOS_seL4/cfe/fsw/cfe-core/src/evs/cfe_evs_task.c ****       return Status;
 586               	.loc 1 382 0
 587 0450 202F 0004 	move.l 4(%sp),%d0
 588 0454 6000 0142 	jra .L29
 589               	.L24:
 383:/home/simulink/cFS_FreeRTOS_seL4/cfe/fsw/cfe-core/src/evs/cfe_evs_task.c ****    }
 384:/home/simulink/cFS_FreeRTOS_seL4/cfe/fsw/cfe-core/src/evs/cfe_evs_task.c **** 
 385:/home/simulink/cFS_FreeRTOS_seL4/cfe/fsw/cfe-core/src/evs/cfe_evs_task.c ****    /* Register EVS task for event services */
 386:/home/simulink/cFS_FreeRTOS_seL4/cfe/fsw/cfe-core/src/evs/cfe_evs_task.c ****    Status = CFE_EVS_Register(NULL, 0, CFE_EVS_BINARY_FILTER);
 590               	.loc 1 386 0
 591 0458 42A7      	clr.l -(%sp)
 592               	.cfi_def_cfa_offset 16
 593 045a 42A7      	clr.l -(%sp)
 594               	.cfi_def_cfa_offset 20
 595 045c 42A7      	clr.l -(%sp)
 596               	.cfi_def_cfa_offset 24
 597 045e 4EB9 0000 	jsr CFE_EVS_Register
 597      0000 
 598 0464 4FEF 000C 	lea (12,%sp),%sp
 599               	.cfi_def_cfa_offset 12
 600 0468 2F40 0004 	move.l %d0,4(%sp)
 387:/home/simulink/cFS_FreeRTOS_seL4/cfe/fsw/cfe-core/src/evs/cfe_evs_task.c ****    if (Status != CFE_SUCCESS)
 601               	.loc 1 387 0
 602 046c 4AAF 0004 	tst.l 4(%sp)
 603 0470 671C      	jeq .L25
 388:/home/simulink/cFS_FreeRTOS_seL4/cfe/fsw/cfe-core/src/evs/cfe_evs_task.c ****    {
 389:/home/simulink/cFS_FreeRTOS_seL4/cfe/fsw/cfe-core/src/evs/cfe_evs_task.c ****       CFE_ES_WriteToSysLog("EVS:Call to CFE_EVS_Register Failed:RC=0x%08X\n",(unsigned int)Status);
 604               	.loc 1 389 0
 605 0472 202F 0004 	move.l 4(%sp),%d0
 606 0476 2F00      	move.l %d0,-(%sp)
 607               	.cfi_def_cfa_offset 16
 608 0478 4879 0000 	pea .LC11
 608      0000 
 609               	.cfi_def_cfa_offset 20
 610 047e 4EB9 0000 	jsr CFE_ES_WriteToSysLog
 610      0000 
 611 0484 508F      	addq.l #8,%sp
 612               	.cfi_def_cfa_offset 12
 390:/home/simulink/cFS_FreeRTOS_seL4/cfe/fsw/cfe-core/src/evs/cfe_evs_task.c ****       return Status;
 613               	.loc 1 390 0
 614 0486 202F 0004 	move.l 4(%sp),%d0
 615 048a 6000 010C 	jra .L29
 616               	.L25:
 391:/home/simulink/cFS_FreeRTOS_seL4/cfe/fsw/cfe-core/src/evs/cfe_evs_task.c ****    }
 392:/home/simulink/cFS_FreeRTOS_seL4/cfe/fsw/cfe-core/src/evs/cfe_evs_task.c ****     
 393:/home/simulink/cFS_FreeRTOS_seL4/cfe/fsw/cfe-core/src/evs/cfe_evs_task.c ****    /* Create software bus command pipe */
 394:/home/simulink/cFS_FreeRTOS_seL4/cfe/fsw/cfe-core/src/evs/cfe_evs_task.c ****    Status = CFE_SB_CreatePipe(&CFE_EVS_GlobalData.EVS_CommandPipe,
 617               	.loc 1 394 0
 618 048e 4879 0000 	pea .LC12
 618      0000 
 619               	.cfi_def_cfa_offset 16
 620 0494 4878 0020 	pea 32.w
 621               	.cfi_def_cfa_offset 20
 622 0498 4879 0000 	pea CFE_EVS_GlobalData+2528
68K GAS   			page 22


 622      0000 
 623               	.cfi_def_cfa_offset 24
 624 049e 4EB9 0000 	jsr CFE_SB_CreatePipe
 624      0000 
 625 04a4 4FEF 000C 	lea (12,%sp),%sp
 626               	.cfi_def_cfa_offset 12
 627 04a8 2F40 0004 	move.l %d0,4(%sp)
 395:/home/simulink/cFS_FreeRTOS_seL4/cfe/fsw/cfe-core/src/evs/cfe_evs_task.c ****                                CFE_EVS_PIPE_DEPTH, CFE_EVS_PIPE_NAME);
 396:/home/simulink/cFS_FreeRTOS_seL4/cfe/fsw/cfe-core/src/evs/cfe_evs_task.c ****    if (Status != CFE_SUCCESS)
 628               	.loc 1 396 0
 629 04ac 4AAF 0004 	tst.l 4(%sp)
 630 04b0 671C      	jeq .L26
 397:/home/simulink/cFS_FreeRTOS_seL4/cfe/fsw/cfe-core/src/evs/cfe_evs_task.c ****    {
 398:/home/simulink/cFS_FreeRTOS_seL4/cfe/fsw/cfe-core/src/evs/cfe_evs_task.c ****       CFE_ES_WriteToSysLog("EVS:Call to CFE_SB_CreatePipe Failed:RC=0x%08X\n",(unsigned int)Status)
 631               	.loc 1 398 0
 632 04b2 202F 0004 	move.l 4(%sp),%d0
 633 04b6 2F00      	move.l %d0,-(%sp)
 634               	.cfi_def_cfa_offset 16
 635 04b8 4879 0000 	pea .LC13
 635      0000 
 636               	.cfi_def_cfa_offset 20
 637 04be 4EB9 0000 	jsr CFE_ES_WriteToSysLog
 637      0000 
 638 04c4 508F      	addq.l #8,%sp
 639               	.cfi_def_cfa_offset 12
 399:/home/simulink/cFS_FreeRTOS_seL4/cfe/fsw/cfe-core/src/evs/cfe_evs_task.c ****       return Status;
 640               	.loc 1 399 0
 641 04c6 202F 0004 	move.l 4(%sp),%d0
 642 04ca 6000 00CC 	jra .L29
 643               	.L26:
 400:/home/simulink/cFS_FreeRTOS_seL4/cfe/fsw/cfe-core/src/evs/cfe_evs_task.c ****    }
 401:/home/simulink/cFS_FreeRTOS_seL4/cfe/fsw/cfe-core/src/evs/cfe_evs_task.c ****       
 402:/home/simulink/cFS_FreeRTOS_seL4/cfe/fsw/cfe-core/src/evs/cfe_evs_task.c ****    /* Subscribe to command and telemetry requests coming in on the command pipe */
 403:/home/simulink/cFS_FreeRTOS_seL4/cfe/fsw/cfe-core/src/evs/cfe_evs_task.c ****    Status = CFE_SB_SubscribeEx(CFE_EVS_CMD_MID, CFE_EVS_GlobalData.EVS_CommandPipe,
 644               	.loc 1 403 0
 645 04ce 1039 0000 	move.b CFE_EVS_GlobalData+2528,%d0
 645      0000 
 646 04d4 1000      	move.b %d0,%d0
 647 04d6 0280 0000 	and.l #255,%d0
 647      00FF 
 648 04dc 4878 0004 	pea 4.w
 649               	.cfi_def_cfa_offset 16
 650 04e0 3F39 0000 	move.w CFE_SB_Default_Qos,-(%sp)
 650      0000 
 651               	.cfi_def_cfa_offset 18
 652 04e6 558F      	subq.l #2,%sp
 653               	.cfi_def_cfa_offset 20
 654 04e8 2F00      	move.l %d0,-(%sp)
 655               	.cfi_def_cfa_offset 24
 656 04ea 4878 1801 	pea 6145.w
 657               	.cfi_def_cfa_offset 28
 658 04ee 4EB9 0000 	jsr CFE_SB_SubscribeEx
 658      0000 
 659 04f4 4FEF 0010 	lea (16,%sp),%sp
 660               	.cfi_def_cfa_offset 12
 661 04f8 2F40 0004 	move.l %d0,4(%sp)
 404:/home/simulink/cFS_FreeRTOS_seL4/cfe/fsw/cfe-core/src/evs/cfe_evs_task.c ****                                CFE_SB_Default_Qos, CFE_EVS_MSG_LIMIT);
68K GAS   			page 23


 405:/home/simulink/cFS_FreeRTOS_seL4/cfe/fsw/cfe-core/src/evs/cfe_evs_task.c ****    if (Status != CFE_SUCCESS)
 662               	.loc 1 405 0
 663 04fc 4AAF 0004 	tst.l 4(%sp)
 664 0500 671A      	jeq .L27
 406:/home/simulink/cFS_FreeRTOS_seL4/cfe/fsw/cfe-core/src/evs/cfe_evs_task.c ****    {
 407:/home/simulink/cFS_FreeRTOS_seL4/cfe/fsw/cfe-core/src/evs/cfe_evs_task.c ****       CFE_ES_WriteToSysLog("EVS:Subscribing to Cmds Failed:RC=0x%08X\n",(unsigned int)Status);
 665               	.loc 1 407 0
 666 0502 202F 0004 	move.l 4(%sp),%d0
 667 0506 2F00      	move.l %d0,-(%sp)
 668               	.cfi_def_cfa_offset 16
 669 0508 4879 0000 	pea .LC14
 669      0000 
 670               	.cfi_def_cfa_offset 20
 671 050e 4EB9 0000 	jsr CFE_ES_WriteToSysLog
 671      0000 
 672 0514 508F      	addq.l #8,%sp
 673               	.cfi_def_cfa_offset 12
 408:/home/simulink/cFS_FreeRTOS_seL4/cfe/fsw/cfe-core/src/evs/cfe_evs_task.c ****       return Status;
 674               	.loc 1 408 0
 675 0516 202F 0004 	move.l 4(%sp),%d0
 676 051a 607C      	jra .L29
 677               	.L27:
 409:/home/simulink/cFS_FreeRTOS_seL4/cfe/fsw/cfe-core/src/evs/cfe_evs_task.c ****    }
 410:/home/simulink/cFS_FreeRTOS_seL4/cfe/fsw/cfe-core/src/evs/cfe_evs_task.c ****   
 411:/home/simulink/cFS_FreeRTOS_seL4/cfe/fsw/cfe-core/src/evs/cfe_evs_task.c ****    Status = CFE_SB_SubscribeEx(CFE_EVS_SEND_HK_MID, CFE_EVS_GlobalData.EVS_CommandPipe,
 678               	.loc 1 411 0
 679 051c 1039 0000 	move.b CFE_EVS_GlobalData+2528,%d0
 679      0000 
 680 0522 1000      	move.b %d0,%d0
 681 0524 0280 0000 	and.l #255,%d0
 681      00FF 
 682 052a 4878 0004 	pea 4.w
 683               	.cfi_def_cfa_offset 16
 684 052e 3F39 0000 	move.w CFE_SB_Default_Qos,-(%sp)
 684      0000 
 685               	.cfi_def_cfa_offset 18
 686 0534 558F      	subq.l #2,%sp
 687               	.cfi_def_cfa_offset 20
 688 0536 2F00      	move.l %d0,-(%sp)
 689               	.cfi_def_cfa_offset 24
 690 0538 4878 1809 	pea 6153.w
 691               	.cfi_def_cfa_offset 28
 692 053c 4EB9 0000 	jsr CFE_SB_SubscribeEx
 692      0000 
 693 0542 4FEF 0010 	lea (16,%sp),%sp
 694               	.cfi_def_cfa_offset 12
 695 0546 2F40 0004 	move.l %d0,4(%sp)
 412:/home/simulink/cFS_FreeRTOS_seL4/cfe/fsw/cfe-core/src/evs/cfe_evs_task.c ****                                CFE_SB_Default_Qos, CFE_EVS_MSG_LIMIT);
 413:/home/simulink/cFS_FreeRTOS_seL4/cfe/fsw/cfe-core/src/evs/cfe_evs_task.c ****    if (Status != CFE_SUCCESS)
 696               	.loc 1 413 0
 697 054a 4AAF 0004 	tst.l 4(%sp)
 698 054e 671A      	jeq .L28
 414:/home/simulink/cFS_FreeRTOS_seL4/cfe/fsw/cfe-core/src/evs/cfe_evs_task.c ****    {
 415:/home/simulink/cFS_FreeRTOS_seL4/cfe/fsw/cfe-core/src/evs/cfe_evs_task.c ****       CFE_ES_WriteToSysLog("EVS:Subscribing to HK Request Failed:RC=0x%08X\n",(unsigned int)Status)
 699               	.loc 1 415 0
 700 0550 202F 0004 	move.l 4(%sp),%d0
 701 0554 2F00      	move.l %d0,-(%sp)
68K GAS   			page 24


 702               	.cfi_def_cfa_offset 16
 703 0556 4879 0000 	pea .LC15
 703      0000 
 704               	.cfi_def_cfa_offset 20
 705 055c 4EB9 0000 	jsr CFE_ES_WriteToSysLog
 705      0000 
 706 0562 508F      	addq.l #8,%sp
 707               	.cfi_def_cfa_offset 12
 416:/home/simulink/cFS_FreeRTOS_seL4/cfe/fsw/cfe-core/src/evs/cfe_evs_task.c ****       return Status;
 708               	.loc 1 416 0
 709 0564 202F 0004 	move.l 4(%sp),%d0
 710 0568 602E      	jra .L29
 711               	.L28:
 417:/home/simulink/cFS_FreeRTOS_seL4/cfe/fsw/cfe-core/src/evs/cfe_evs_task.c ****    }
 418:/home/simulink/cFS_FreeRTOS_seL4/cfe/fsw/cfe-core/src/evs/cfe_evs_task.c ****   
 419:/home/simulink/cFS_FreeRTOS_seL4/cfe/fsw/cfe-core/src/evs/cfe_evs_task.c ****    /* Write the AppID to the global location, now that the rest of initialization is done */
 420:/home/simulink/cFS_FreeRTOS_seL4/cfe/fsw/cfe-core/src/evs/cfe_evs_task.c ****    CFE_EVS_GlobalData.EVS_AppID = AppID;
 712               	.loc 1 420 0
 713 056a 2017      	move.l (%sp),%d0
 714 056c 23C0 0000 	move.l %d0,CFE_EVS_GlobalData+2536
 714      0000 
 421:/home/simulink/cFS_FreeRTOS_seL4/cfe/fsw/cfe-core/src/evs/cfe_evs_task.c ****    EVS_SendEvent(CFE_EVS_STARTUP_EID, CFE_EVS_INFORMATION, "cFE EVS Initialized. cFE Version %d.%d.
 715               	.loc 1 421 0
 716 0572 42A7      	clr.l -(%sp)
 717               	.cfi_def_cfa_offset 16
 718 0574 42A7      	clr.l -(%sp)
 719               	.cfi_def_cfa_offset 20
 720 0576 4878 0005 	pea 5.w
 721               	.cfi_def_cfa_offset 24
 722 057a 4878 0006 	pea 6.w
 723               	.cfi_def_cfa_offset 28
 724 057e 4879 0000 	pea .LC16
 724      0000 
 725               	.cfi_def_cfa_offset 32
 726 0584 4878 0002 	pea 2.w
 727               	.cfi_def_cfa_offset 36
 728 0588 4878 0001 	pea 1.w
 729               	.cfi_def_cfa_offset 40
 730 058c 4EB9 0000 	jsr EVS_SendEvent
 730      0000 
 731 0592 4FEF 001C 	lea (28,%sp),%sp
 732               	.cfi_def_cfa_offset 12
 422:/home/simulink/cFS_FreeRTOS_seL4/cfe/fsw/cfe-core/src/evs/cfe_evs_task.c ****                  CFE_MAJOR_VERSION,CFE_MINOR_VERSION,CFE_REVISION,CFE_MISSION_REV);
 423:/home/simulink/cFS_FreeRTOS_seL4/cfe/fsw/cfe-core/src/evs/cfe_evs_task.c **** 
 424:/home/simulink/cFS_FreeRTOS_seL4/cfe/fsw/cfe-core/src/evs/cfe_evs_task.c ****    return CFE_SUCCESS;
 733               	.loc 1 424 0
 734 0596 4280      	clr.l %d0
 735               	.L29:
 425:/home/simulink/cFS_FreeRTOS_seL4/cfe/fsw/cfe-core/src/evs/cfe_evs_task.c **** 
 426:/home/simulink/cFS_FreeRTOS_seL4/cfe/fsw/cfe-core/src/evs/cfe_evs_task.c **** } /* End CFE_EVS_TaskInit */
 736               	.loc 1 426 0 discriminator 1
 737 0598 508F      	addq.l #8,%sp
 738 059a 4E75      	rts
 739               	.cfi_endproc
 740               	.LFE62:
 741               	.sizeCFE_EVS_TaskInit, .-CFE_EVS_TaskInit
 742               	.section.rodata
68K GAS   			page 25


 743               	.LC17:
 744 02f4 496E 7661 	.string"Invalid command packet, Message ID = 0x%08X"
 744      6C69 6420 
 744      636F 6D6D 
 744      616E 6420 
 744      7061 636B 
 745               	.text
 746               	.align2
 747               	.globlCFE_EVS_ProcessCommandPacket
 748               	.typeCFE_EVS_ProcessCommandPacket, @function
 749               	CFE_EVS_ProcessCommandPacket:
 750               	.LFB63:
 427:/home/simulink/cFS_FreeRTOS_seL4/cfe/fsw/cfe-core/src/evs/cfe_evs_task.c **** 
 428:/home/simulink/cFS_FreeRTOS_seL4/cfe/fsw/cfe-core/src/evs/cfe_evs_task.c **** 
 429:/home/simulink/cFS_FreeRTOS_seL4/cfe/fsw/cfe-core/src/evs/cfe_evs_task.c **** 
 430:/home/simulink/cFS_FreeRTOS_seL4/cfe/fsw/cfe-core/src/evs/cfe_evs_task.c **** /*
 431:/home/simulink/cFS_FreeRTOS_seL4/cfe/fsw/cfe-core/src/evs/cfe_evs_task.c **** **             Function Prologue
 432:/home/simulink/cFS_FreeRTOS_seL4/cfe/fsw/cfe-core/src/evs/cfe_evs_task.c **** **
 433:/home/simulink/cFS_FreeRTOS_seL4/cfe/fsw/cfe-core/src/evs/cfe_evs_task.c **** ** Function Name:      CFE_EVS_ProcessCommandPacket
 434:/home/simulink/cFS_FreeRTOS_seL4/cfe/fsw/cfe-core/src/evs/cfe_evs_task.c **** **
 435:/home/simulink/cFS_FreeRTOS_seL4/cfe/fsw/cfe-core/src/evs/cfe_evs_task.c **** ** Purpose:  This function processes packets received on the EVS command pipe.
 436:/home/simulink/cFS_FreeRTOS_seL4/cfe/fsw/cfe-core/src/evs/cfe_evs_task.c **** **
 437:/home/simulink/cFS_FreeRTOS_seL4/cfe/fsw/cfe-core/src/evs/cfe_evs_task.c **** ** Assumptions and Notes:
 438:/home/simulink/cFS_FreeRTOS_seL4/cfe/fsw/cfe-core/src/evs/cfe_evs_task.c **** **
 439:/home/simulink/cFS_FreeRTOS_seL4/cfe/fsw/cfe-core/src/evs/cfe_evs_task.c **** */
 440:/home/simulink/cFS_FreeRTOS_seL4/cfe/fsw/cfe-core/src/evs/cfe_evs_task.c **** void CFE_EVS_ProcessCommandPacket ( CFE_SB_MsgPtr_t EVS_MsgPtr )
 441:/home/simulink/cFS_FreeRTOS_seL4/cfe/fsw/cfe-core/src/evs/cfe_evs_task.c **** {
 751               	.loc 1 441 0
 752               	.cfi_startproc
 442:/home/simulink/cFS_FreeRTOS_seL4/cfe/fsw/cfe-core/src/evs/cfe_evs_task.c ****     /* Process all SB messages */
 443:/home/simulink/cFS_FreeRTOS_seL4/cfe/fsw/cfe-core/src/evs/cfe_evs_task.c ****     switch (CFE_SB_GetMsgId(EVS_MsgPtr))
 753               	.loc 1 443 0
 754 059c 2F2F 0004 	move.l 4(%sp),-(%sp)
 755               	.cfi_def_cfa_offset 8
 756 05a0 4EB9 0000 	jsr CFE_SB_GetMsgId
 756      0000 
 757 05a6 588F      	addq.l #4,%sp
 758               	.cfi_def_cfa_offset 4
 759 05a8 3000      	move.w %d0,%d0
 760 05aa 0280 0000 	and.l #65535,%d0
 760      FFFF 
 761 05b0 0C80 0000 	cmp.l #6145,%d0
 761      1801 
 762 05b6 670A      	jeq .L32
 763 05b8 0C80 0000 	cmp.l #6153,%d0
 763      1809 
 764 05be 6710      	jeq .L33
 765 05c0 6016      	jra .L36
 766               	.L32:
 444:/home/simulink/cFS_FreeRTOS_seL4/cfe/fsw/cfe-core/src/evs/cfe_evs_task.c ****     {
 445:/home/simulink/cFS_FreeRTOS_seL4/cfe/fsw/cfe-core/src/evs/cfe_evs_task.c ****         case CFE_EVS_CMD_MID:
 446:/home/simulink/cFS_FreeRTOS_seL4/cfe/fsw/cfe-core/src/evs/cfe_evs_task.c ****             /* EVS task specific command */
 447:/home/simulink/cFS_FreeRTOS_seL4/cfe/fsw/cfe-core/src/evs/cfe_evs_task.c ****             CFE_EVS_ProcessGroundCommand(EVS_MsgPtr);
 767               	.loc 1 447 0
 768 05c2 2F2F 0004 	move.l 4(%sp),-(%sp)
 769               	.cfi_def_cfa_offset 8
 770 05c6 4EB9 0000 	jsr CFE_EVS_ProcessGroundCommand
68K GAS   			page 26


 770      0000 
 771 05cc 588F      	addq.l #4,%sp
 772               	.cfi_def_cfa_offset 4
 448:/home/simulink/cFS_FreeRTOS_seL4/cfe/fsw/cfe-core/src/evs/cfe_evs_task.c ****             break;
 773               	.loc 1 448 0
 774 05ce 6048      	jra .L34
 775               	.L33:
 449:/home/simulink/cFS_FreeRTOS_seL4/cfe/fsw/cfe-core/src/evs/cfe_evs_task.c **** 
 450:/home/simulink/cFS_FreeRTOS_seL4/cfe/fsw/cfe-core/src/evs/cfe_evs_task.c ****         case CFE_EVS_SEND_HK_MID:
 451:/home/simulink/cFS_FreeRTOS_seL4/cfe/fsw/cfe-core/src/evs/cfe_evs_task.c ****             /* Housekeeping request */
 452:/home/simulink/cFS_FreeRTOS_seL4/cfe/fsw/cfe-core/src/evs/cfe_evs_task.c ****             CFE_EVS_ReportHousekeepingCmd();
 776               	.loc 1 452 0
 777 05d0 4EB9 0000 	jsr CFE_EVS_ReportHousekeepingCmd
 777      0000 
 453:/home/simulink/cFS_FreeRTOS_seL4/cfe/fsw/cfe-core/src/evs/cfe_evs_task.c ****             break;
 778               	.loc 1 453 0
 779 05d6 6040      	jra .L34
 780               	.L36:
 454:/home/simulink/cFS_FreeRTOS_seL4/cfe/fsw/cfe-core/src/evs/cfe_evs_task.c **** 
 455:/home/simulink/cFS_FreeRTOS_seL4/cfe/fsw/cfe-core/src/evs/cfe_evs_task.c ****         default:
 456:/home/simulink/cFS_FreeRTOS_seL4/cfe/fsw/cfe-core/src/evs/cfe_evs_task.c ****             /* Unknown command -- should never occur */
 457:/home/simulink/cFS_FreeRTOS_seL4/cfe/fsw/cfe-core/src/evs/cfe_evs_task.c ****             CFE_EVS_GlobalData.EVS_TlmPkt.Payload.CommandErrCounter++;
 781               	.loc 1 457 0
 782 05d8 1039 0000 	move.b CFE_EVS_GlobalData+2257,%d0
 782      0000 
 783 05de 5280      	addq.l #1,%d0
 784 05e0 1000      	move.b %d0,%d0
 785 05e2 13C0 0000 	move.b %d0,CFE_EVS_GlobalData+2257
 785      0000 
 458:/home/simulink/cFS_FreeRTOS_seL4/cfe/fsw/cfe-core/src/evs/cfe_evs_task.c ****             EVS_SendEvent(CFE_EVS_ERR_MSGID_EID, CFE_EVS_ERROR,
 459:/home/simulink/cFS_FreeRTOS_seL4/cfe/fsw/cfe-core/src/evs/cfe_evs_task.c ****                          "Invalid command packet, Message ID = 0x%08X",
 460:/home/simulink/cFS_FreeRTOS_seL4/cfe/fsw/cfe-core/src/evs/cfe_evs_task.c ****                           (unsigned int)CFE_SB_GetMsgId(EVS_MsgPtr));
 786               	.loc 1 460 0
 787 05e8 2F2F 0004 	move.l 4(%sp),-(%sp)
 788               	.cfi_def_cfa_offset 8
 789 05ec 4EB9 0000 	jsr CFE_SB_GetMsgId
 789      0000 
 790 05f2 588F      	addq.l #4,%sp
 791               	.cfi_def_cfa_offset 4
 458:/home/simulink/cFS_FreeRTOS_seL4/cfe/fsw/cfe-core/src/evs/cfe_evs_task.c ****             EVS_SendEvent(CFE_EVS_ERR_MSGID_EID, CFE_EVS_ERROR,
 792               	.loc 1 458 0
 793 05f4 3000      	move.w %d0,%d0
 794 05f6 0280 0000 	and.l #65535,%d0
 794      FFFF 
 795 05fc 2F00      	move.l %d0,-(%sp)
 796               	.cfi_def_cfa_offset 8
 797 05fe 4879 0000 	pea .LC17
 797      0000 
 798               	.cfi_def_cfa_offset 12
 799 0604 4878 0003 	pea 3.w
 800               	.cfi_def_cfa_offset 16
 801 0608 4878 0005 	pea 5.w
 802               	.cfi_def_cfa_offset 20
 803 060c 4EB9 0000 	jsr EVS_SendEvent
 803      0000 
 804 0612 4FEF 0010 	lea (16,%sp),%sp
 805               	.cfi_def_cfa_offset 4
68K GAS   			page 27


 461:/home/simulink/cFS_FreeRTOS_seL4/cfe/fsw/cfe-core/src/evs/cfe_evs_task.c ****             break;
 806               	.loc 1 461 0
 807 0616 4E71      	nop
 808               	.L34:
 462:/home/simulink/cFS_FreeRTOS_seL4/cfe/fsw/cfe-core/src/evs/cfe_evs_task.c ****     }
 463:/home/simulink/cFS_FreeRTOS_seL4/cfe/fsw/cfe-core/src/evs/cfe_evs_task.c **** 
 464:/home/simulink/cFS_FreeRTOS_seL4/cfe/fsw/cfe-core/src/evs/cfe_evs_task.c ****     return;
 809               	.loc 1 464 0
 810 0618 4E71      	nop
 465:/home/simulink/cFS_FreeRTOS_seL4/cfe/fsw/cfe-core/src/evs/cfe_evs_task.c **** 
 466:/home/simulink/cFS_FreeRTOS_seL4/cfe/fsw/cfe-core/src/evs/cfe_evs_task.c **** } /* End CFE_EVS_ProcessCommandPacket */
 811               	.loc 1 466 0
 812 061a 4E75      	rts
 813               	.cfi_endproc
 814               	.LFE63:
 815               	.sizeCFE_EVS_ProcessCommandPacket, .-CFE_EVS_ProcessCommandPacket
 816               	.section.rodata
 817               	.LC18:
 818 0320 4E6F 2D6F 	.string"No-op command. cFE Version %d.%d.%d.%d"
 818      7020 636F 
 818      6D6D 616E 
 818      642E 2063 
 818      4645 2056 
 819               	.LC19:
 820 0347 5365 7420 	.string"Set Log Mode Command: Event Log is Disabled"
 820      4C6F 6720 
 820      4D6F 6465 
 820      2043 6F6D 
 820      6D61 6E64 
 821               	.LC20:
 822 0373 436C 6561 	.string"Clear Log Command: Event Log is Disabled"
 822      7220 4C6F 
 822      6720 436F 
 822      6D6D 616E 
 822      643A 2045 
 823               	.LC21:
 824 039c 5772 6974 	.string"Write Log Command: Event Log is Disabled"
 824      6520 4C6F 
 824      6720 436F 
 824      6D6D 616E 
 824      643A 2045 
 825               	.LC22:
 826 03c5 496E 7661 	.string"Invalid command code -- ID = 0x%08x, CC = %d"
 826      6C69 6420 
 826      636F 6D6D 
 826      616E 6420 
 826      636F 6465 
 827               	.text
 828               	.align2
 829               	.globlCFE_EVS_ProcessGroundCommand
 830               	.typeCFE_EVS_ProcessGroundCommand, @function
 831               	CFE_EVS_ProcessGroundCommand:
 832               	.LFB64:
 467:/home/simulink/cFS_FreeRTOS_seL4/cfe/fsw/cfe-core/src/evs/cfe_evs_task.c **** 
 468:/home/simulink/cFS_FreeRTOS_seL4/cfe/fsw/cfe-core/src/evs/cfe_evs_task.c **** 
 469:/home/simulink/cFS_FreeRTOS_seL4/cfe/fsw/cfe-core/src/evs/cfe_evs_task.c **** /*
 470:/home/simulink/cFS_FreeRTOS_seL4/cfe/fsw/cfe-core/src/evs/cfe_evs_task.c **** **             Function Prologue
68K GAS   			page 28


 471:/home/simulink/cFS_FreeRTOS_seL4/cfe/fsw/cfe-core/src/evs/cfe_evs_task.c **** **
 472:/home/simulink/cFS_FreeRTOS_seL4/cfe/fsw/cfe-core/src/evs/cfe_evs_task.c **** ** Function Name:      CFE_EVS_ProcessGroundCommand
 473:/home/simulink/cFS_FreeRTOS_seL4/cfe/fsw/cfe-core/src/evs/cfe_evs_task.c **** **
 474:/home/simulink/cFS_FreeRTOS_seL4/cfe/fsw/cfe-core/src/evs/cfe_evs_task.c **** ** Purpose:  This function processes a command, verifying that it is valid and of
 475:/home/simulink/cFS_FreeRTOS_seL4/cfe/fsw/cfe-core/src/evs/cfe_evs_task.c **** **           proper length.
 476:/home/simulink/cFS_FreeRTOS_seL4/cfe/fsw/cfe-core/src/evs/cfe_evs_task.c **** **
 477:/home/simulink/cFS_FreeRTOS_seL4/cfe/fsw/cfe-core/src/evs/cfe_evs_task.c **** ** Assumptions and Notes:
 478:/home/simulink/cFS_FreeRTOS_seL4/cfe/fsw/cfe-core/src/evs/cfe_evs_task.c **** **
 479:/home/simulink/cFS_FreeRTOS_seL4/cfe/fsw/cfe-core/src/evs/cfe_evs_task.c **** */
 480:/home/simulink/cFS_FreeRTOS_seL4/cfe/fsw/cfe-core/src/evs/cfe_evs_task.c **** void CFE_EVS_ProcessGroundCommand ( CFE_SB_MsgPtr_t EVS_MsgPtr )
 481:/home/simulink/cFS_FreeRTOS_seL4/cfe/fsw/cfe-core/src/evs/cfe_evs_task.c **** {
 833               	.loc 1 481 0
 834               	.cfi_startproc
 835 061c 518F      	subq.l #8,%sp
 836               	.cfi_def_cfa_offset 12
 837 061e 2F02      	move.l %d2,-(%sp)
 838               	.cfi_def_cfa_offset 16
 839               	.cfi_offset 2, -16
 482:/home/simulink/cFS_FreeRTOS_seL4/cfe/fsw/cfe-core/src/evs/cfe_evs_task.c ****    boolean Valid = FALSE;
 840               	.loc 1 482 0
 841 0620 4200      	clr.b %d0
 842 0622 1F40 000B 	move.b %d0,11(%sp)
 483:/home/simulink/cFS_FreeRTOS_seL4/cfe/fsw/cfe-core/src/evs/cfe_evs_task.c ****    CFE_SB_MsgPayloadPtr_t Payload;
 484:/home/simulink/cFS_FreeRTOS_seL4/cfe/fsw/cfe-core/src/evs/cfe_evs_task.c **** 
 485:/home/simulink/cFS_FreeRTOS_seL4/cfe/fsw/cfe-core/src/evs/cfe_evs_task.c ****    Payload = &EVS_MsgPtr->Byte[CFE_SB_CMD_HDR_SIZE];
 843               	.loc 1 485 0
 844 0626 222F 0010 	move.l 16(%sp),%d1
 845 062a 5081      	addq.l #8,%d1
 846 062c 2F41 0004 	move.l %d1,4(%sp)
 486:/home/simulink/cFS_FreeRTOS_seL4/cfe/fsw/cfe-core/src/evs/cfe_evs_task.c ****    /* Process "known" EVS task ground commands */
 487:/home/simulink/cFS_FreeRTOS_seL4/cfe/fsw/cfe-core/src/evs/cfe_evs_task.c ****    switch (CFE_SB_GetCmdCode(EVS_MsgPtr))
 847               	.loc 1 487 0
 848 0630 2F2F 0010 	move.l 16(%sp),-(%sp)
 849               	.cfi_def_cfa_offset 20
 850 0634 4EB9 0000 	jsr CFE_SB_GetCmdCode
 850      0000 
 851 063a 588F      	addq.l #4,%sp
 852               	.cfi_def_cfa_offset 16
 853 063c 3000      	move.w %d0,%d0
 854 063e 0280 0000 	and.l #65535,%d0
 854      FFFF 
 855 0644 7214      	moveq #20,%d1
 856 0646 B280      	cmp.l %d0,%d1
 857 0648 6500 053A 	jcs .L38
 858 064c D080      	add.l %d0,%d0
 859 064e 2040      	move.l %d0,%a0
 860 0650 D1FC 0000 	add.l #.L40,%a0
 860      0000 
 861 0656 3010      	move.w (%a0),%d0
 862 0658 48C0      	ext.l %d0
 863 065a 4EFB 0802 	jmp %pc@(2,%d0:l)
 864               	.balignw 2,0x284c
 865               	.swbeg&21
 866               	.L40:
 867 065e 002A      	.word .L39-.L40
 868 0660 0072      	.word .L41-.L40
 869 0662 009E      	.word .L42-.L40
68K GAS   			page 29


 870 0664 00D4      	.word .L43-.L40
 871 0666 010A      	.word .L44-.L40
 872 0668 0140      	.word .L45-.L40
 873 066a 0176      	.word .L46-.L40
 874 066c 01AC      	.word .L47-.L40
 875 066e 01E2      	.word .L48-.L40
 876 0670 0218      	.word .L49-.L40
 877 0672 024E      	.word .L50-.L40
 878 0674 0284      	.word .L51-.L40
 879 0676 02BA      	.word .L52-.L40
 880 0678 02F0      	.word .L53-.L40
 881 067a 0326      	.word .L54-.L40
 882 067c 035C      	.word .L55-.L40
 883 067e 0392      	.word .L56-.L40
 884 0680 03C8      	.word .L57-.L40
 885 0682 04C0      	.word .L58-.L40
 886 0684 03FE      	.word .L59-.L40
 887 0686 0464      	.word .L60-.L40
 888               	.L39:
 488:/home/simulink/cFS_FreeRTOS_seL4/cfe/fsw/cfe-core/src/evs/cfe_evs_task.c ****    {
 489:/home/simulink/cFS_FreeRTOS_seL4/cfe/fsw/cfe-core/src/evs/cfe_evs_task.c ****       case CFE_EVS_NO_OPERATION_CC:
 490:/home/simulink/cFS_FreeRTOS_seL4/cfe/fsw/cfe-core/src/evs/cfe_evs_task.c **** 
 491:/home/simulink/cFS_FreeRTOS_seL4/cfe/fsw/cfe-core/src/evs/cfe_evs_task.c ****          if ((Valid = CFE_EVS_VerifyCmdLength(EVS_MsgPtr, sizeof(CFE_SB_CmdHdr_t))) == TRUE)
 889               	.loc 1 491 0
 890 0688 4878 0008 	pea 8.w
 891               	.cfi_def_cfa_offset 20
 892 068c 2F2F 0014 	move.l 20(%sp),-(%sp)
 893               	.cfi_def_cfa_offset 24
 894 0690 4EB9 0000 	jsr CFE_EVS_VerifyCmdLength
 894      0000 
 895 0696 508F      	addq.l #8,%sp
 896               	.cfi_def_cfa_offset 16
 897 0698 1F40 000B 	move.b %d0,11(%sp)
 898 069c 4280      	clr.l %d0
 899 069e 102F 000B 	move.b 11(%sp),%d0
 900 06a2 7201      	moveq #1,%d1
 901 06a4 B280      	cmp.l %d0,%d1
 902 06a6 6600 051E 	jne .L92
 492:/home/simulink/cFS_FreeRTOS_seL4/cfe/fsw/cfe-core/src/evs/cfe_evs_task.c ****          {
 493:/home/simulink/cFS_FreeRTOS_seL4/cfe/fsw/cfe-core/src/evs/cfe_evs_task.c ****             EVS_SendEvent(CFE_EVS_NOOP_EID, CFE_EVS_INFORMATION,"No-op command. cFE Version %d.%d.%
 903               	.loc 1 493 0
 904 06aa 42A7      	clr.l -(%sp)
 905               	.cfi_def_cfa_offset 20
 906 06ac 42A7      	clr.l -(%sp)
 907               	.cfi_def_cfa_offset 24
 908 06ae 4878 0005 	pea 5.w
 909               	.cfi_def_cfa_offset 28
 910 06b2 4878 0006 	pea 6.w
 911               	.cfi_def_cfa_offset 32
 912 06b6 4879 0000 	pea .LC18
 912      0000 
 913               	.cfi_def_cfa_offset 36
 914 06bc 4878 0002 	pea 2.w
 915               	.cfi_def_cfa_offset 40
 916 06c0 42A7      	clr.l -(%sp)
 917               	.cfi_def_cfa_offset 44
 918 06c2 4EB9 0000 	jsr EVS_SendEvent
68K GAS   			page 30


 918      0000 
 919 06c8 4FEF 001C 	lea (28,%sp),%sp
 920               	.cfi_def_cfa_offset 16
 494:/home/simulink/cFS_FreeRTOS_seL4/cfe/fsw/cfe-core/src/evs/cfe_evs_task.c ****                           CFE_MAJOR_VERSION,CFE_MINOR_VERSION,CFE_REVISION,CFE_MISSION_REV);
 495:/home/simulink/cFS_FreeRTOS_seL4/cfe/fsw/cfe-core/src/evs/cfe_evs_task.c ****          }
 496:/home/simulink/cFS_FreeRTOS_seL4/cfe/fsw/cfe-core/src/evs/cfe_evs_task.c ****          break;
 921               	.loc 1 496 0
 922 06cc 6000 04F8 	jra .L92
 923               	.L41:
 497:/home/simulink/cFS_FreeRTOS_seL4/cfe/fsw/cfe-core/src/evs/cfe_evs_task.c **** 
 498:/home/simulink/cFS_FreeRTOS_seL4/cfe/fsw/cfe-core/src/evs/cfe_evs_task.c ****       case CFE_EVS_RESET_COUNTERS_CC:
 499:/home/simulink/cFS_FreeRTOS_seL4/cfe/fsw/cfe-core/src/evs/cfe_evs_task.c **** 
 500:/home/simulink/cFS_FreeRTOS_seL4/cfe/fsw/cfe-core/src/evs/cfe_evs_task.c ****          if ((Valid = CFE_EVS_VerifyCmdLength(EVS_MsgPtr, sizeof(CFE_SB_CmdHdr_t))) == TRUE)
 924               	.loc 1 500 0
 925 06d0 4878 0008 	pea 8.w
 926               	.cfi_def_cfa_offset 20
 927 06d4 2F2F 0014 	move.l 20(%sp),-(%sp)
 928               	.cfi_def_cfa_offset 24
 929 06d8 4EB9 0000 	jsr CFE_EVS_VerifyCmdLength
 929      0000 
 930 06de 508F      	addq.l #8,%sp
 931               	.cfi_def_cfa_offset 16
 932 06e0 1F40 000B 	move.b %d0,11(%sp)
 933 06e4 4280      	clr.l %d0
 934 06e6 102F 000B 	move.b 11(%sp),%d0
 935 06ea 7201      	moveq #1,%d1
 936 06ec B280      	cmp.l %d0,%d1
 937 06ee 6600 04DA 	jne .L93
 501:/home/simulink/cFS_FreeRTOS_seL4/cfe/fsw/cfe-core/src/evs/cfe_evs_task.c ****          {
 502:/home/simulink/cFS_FreeRTOS_seL4/cfe/fsw/cfe-core/src/evs/cfe_evs_task.c ****             CFE_EVS_ResetCountersCmd();
 938               	.loc 1 502 0
 939 06f2 4EB9 0000 	jsr CFE_EVS_ResetCountersCmd
 939      0000 
 503:/home/simulink/cFS_FreeRTOS_seL4/cfe/fsw/cfe-core/src/evs/cfe_evs_task.c ****             /* Return avoids incrementing command counter */
 504:/home/simulink/cFS_FreeRTOS_seL4/cfe/fsw/cfe-core/src/evs/cfe_evs_task.c ****             return;
 940               	.loc 1 504 0
 941 06f8 6000 054E 	jra .L37
 942               	.L42:
 505:/home/simulink/cFS_FreeRTOS_seL4/cfe/fsw/cfe-core/src/evs/cfe_evs_task.c ****          }
 506:/home/simulink/cFS_FreeRTOS_seL4/cfe/fsw/cfe-core/src/evs/cfe_evs_task.c ****          break;
 507:/home/simulink/cFS_FreeRTOS_seL4/cfe/fsw/cfe-core/src/evs/cfe_evs_task.c **** 
 508:/home/simulink/cFS_FreeRTOS_seL4/cfe/fsw/cfe-core/src/evs/cfe_evs_task.c ****       case CFE_EVS_ENABLE_EVENT_TYPE_CC:
 509:/home/simulink/cFS_FreeRTOS_seL4/cfe/fsw/cfe-core/src/evs/cfe_evs_task.c **** 
 510:/home/simulink/cFS_FreeRTOS_seL4/cfe/fsw/cfe-core/src/evs/cfe_evs_task.c ****          if ((Valid = CFE_EVS_VerifyCmdLength(EVS_MsgPtr, sizeof(CFE_EVS_BitMaskCmd_t))) == TRUE)
 943               	.loc 1 510 0
 944 06fc 4878 000A 	pea 10.w
 945               	.cfi_def_cfa_offset 20
 946 0700 2F2F 0014 	move.l 20(%sp),-(%sp)
 947               	.cfi_def_cfa_offset 24
 948 0704 4EB9 0000 	jsr CFE_EVS_VerifyCmdLength
 948      0000 
 949 070a 508F      	addq.l #8,%sp
 950               	.cfi_def_cfa_offset 16
 951 070c 1F40 000B 	move.b %d0,11(%sp)
 952 0710 4280      	clr.l %d0
 953 0712 102F 000B 	move.b 11(%sp),%d0
 954 0716 7201      	moveq #1,%d1
68K GAS   			page 31


 955 0718 B280      	cmp.l %d0,%d1
 956 071a 6600 04B2 	jne .L94
 511:/home/simulink/cFS_FreeRTOS_seL4/cfe/fsw/cfe-core/src/evs/cfe_evs_task.c ****          {
 512:/home/simulink/cFS_FreeRTOS_seL4/cfe/fsw/cfe-core/src/evs/cfe_evs_task.c ****             Valid = CFE_EVS_EnableEventTypesCmd(Payload);
 957               	.loc 1 512 0
 958 071e 2F2F 0004 	move.l 4(%sp),-(%sp)
 959               	.cfi_def_cfa_offset 20
 960 0722 4EB9 0000 	jsr CFE_EVS_EnableEventTypesCmd
 960      0000 
 961 0728 588F      	addq.l #4,%sp
 962               	.cfi_def_cfa_offset 16
 963 072a 1F40 000B 	move.b %d0,11(%sp)
 513:/home/simulink/cFS_FreeRTOS_seL4/cfe/fsw/cfe-core/src/evs/cfe_evs_task.c ****          }
 514:/home/simulink/cFS_FreeRTOS_seL4/cfe/fsw/cfe-core/src/evs/cfe_evs_task.c ****          break;
 964               	.loc 1 514 0
 965 072e 6000 049E 	jra .L94
 966               	.L43:
 515:/home/simulink/cFS_FreeRTOS_seL4/cfe/fsw/cfe-core/src/evs/cfe_evs_task.c **** 
 516:/home/simulink/cFS_FreeRTOS_seL4/cfe/fsw/cfe-core/src/evs/cfe_evs_task.c ****       case CFE_EVS_DISABLE_EVENT_TYPE_CC:
 517:/home/simulink/cFS_FreeRTOS_seL4/cfe/fsw/cfe-core/src/evs/cfe_evs_task.c **** 
 518:/home/simulink/cFS_FreeRTOS_seL4/cfe/fsw/cfe-core/src/evs/cfe_evs_task.c ****          if ((Valid = CFE_EVS_VerifyCmdLength(EVS_MsgPtr, sizeof(CFE_EVS_BitMaskCmd_t))) == TRUE)
 967               	.loc 1 518 0
 968 0732 4878 000A 	pea 10.w
 969               	.cfi_def_cfa_offset 20
 970 0736 2F2F 0014 	move.l 20(%sp),-(%sp)
 971               	.cfi_def_cfa_offset 24
 972 073a 4EB9 0000 	jsr CFE_EVS_VerifyCmdLength
 972      0000 
 973 0740 508F      	addq.l #8,%sp
 974               	.cfi_def_cfa_offset 16
 975 0742 1F40 000B 	move.b %d0,11(%sp)
 976 0746 4280      	clr.l %d0
 977 0748 102F 000B 	move.b 11(%sp),%d0
 978 074c 7201      	moveq #1,%d1
 979 074e B280      	cmp.l %d0,%d1
 980 0750 6600 0480 	jne .L95
 519:/home/simulink/cFS_FreeRTOS_seL4/cfe/fsw/cfe-core/src/evs/cfe_evs_task.c ****          {
 520:/home/simulink/cFS_FreeRTOS_seL4/cfe/fsw/cfe-core/src/evs/cfe_evs_task.c ****             Valid = CFE_EVS_DisableEventTypesCmd(Payload);
 981               	.loc 1 520 0
 982 0754 2F2F 0004 	move.l 4(%sp),-(%sp)
 983               	.cfi_def_cfa_offset 20
 984 0758 4EB9 0000 	jsr CFE_EVS_DisableEventTypesCmd
 984      0000 
 985 075e 588F      	addq.l #4,%sp
 986               	.cfi_def_cfa_offset 16
 987 0760 1F40 000B 	move.b %d0,11(%sp)
 521:/home/simulink/cFS_FreeRTOS_seL4/cfe/fsw/cfe-core/src/evs/cfe_evs_task.c ****          }
 522:/home/simulink/cFS_FreeRTOS_seL4/cfe/fsw/cfe-core/src/evs/cfe_evs_task.c ****          break;
 988               	.loc 1 522 0
 989 0764 6000 046C 	jra .L95
 990               	.L44:
 523:/home/simulink/cFS_FreeRTOS_seL4/cfe/fsw/cfe-core/src/evs/cfe_evs_task.c **** 
 524:/home/simulink/cFS_FreeRTOS_seL4/cfe/fsw/cfe-core/src/evs/cfe_evs_task.c ****       case CFE_EVS_SET_EVENT_FORMAT_MODE_CC:
 525:/home/simulink/cFS_FreeRTOS_seL4/cfe/fsw/cfe-core/src/evs/cfe_evs_task.c **** 
 526:/home/simulink/cFS_FreeRTOS_seL4/cfe/fsw/cfe-core/src/evs/cfe_evs_task.c ****          if ((Valid = CFE_EVS_VerifyCmdLength(EVS_MsgPtr, sizeof(CFE_EVS_ModeCmd_t))) == TRUE)
 991               	.loc 1 526 0
 992 0768 4878 000A 	pea 10.w
68K GAS   			page 32


 993               	.cfi_def_cfa_offset 20
 994 076c 2F2F 0014 	move.l 20(%sp),-(%sp)
 995               	.cfi_def_cfa_offset 24
 996 0770 4EB9 0000 	jsr CFE_EVS_VerifyCmdLength
 996      0000 
 997 0776 508F      	addq.l #8,%sp
 998               	.cfi_def_cfa_offset 16
 999 0778 1F40 000B 	move.b %d0,11(%sp)
 1000 077c 4280      	clr.l %d0
 1001 077e 102F 000B 	move.b 11(%sp),%d0
 1002 0782 7201      	moveq #1,%d1
 1003 0784 B280      	cmp.l %d0,%d1
 1004 0786 6600 044E 	jne .L96
 527:/home/simulink/cFS_FreeRTOS_seL4/cfe/fsw/cfe-core/src/evs/cfe_evs_task.c ****          {
 528:/home/simulink/cFS_FreeRTOS_seL4/cfe/fsw/cfe-core/src/evs/cfe_evs_task.c ****             Valid = CFE_EVS_SetEventFormatModeCmd(Payload);
 1005               	.loc 1 528 0
 1006 078a 2F2F 0004 	move.l 4(%sp),-(%sp)
 1007               	.cfi_def_cfa_offset 20
 1008 078e 4EB9 0000 	jsr CFE_EVS_SetEventFormatModeCmd
 1008      0000 
 1009 0794 588F      	addq.l #4,%sp
 1010               	.cfi_def_cfa_offset 16
 1011 0796 1F40 000B 	move.b %d0,11(%sp)
 529:/home/simulink/cFS_FreeRTOS_seL4/cfe/fsw/cfe-core/src/evs/cfe_evs_task.c ****          }
 530:/home/simulink/cFS_FreeRTOS_seL4/cfe/fsw/cfe-core/src/evs/cfe_evs_task.c ****          break;
 1012               	.loc 1 530 0
 1013 079a 6000 043A 	jra .L96
 1014               	.L45:
 531:/home/simulink/cFS_FreeRTOS_seL4/cfe/fsw/cfe-core/src/evs/cfe_evs_task.c **** 
 532:/home/simulink/cFS_FreeRTOS_seL4/cfe/fsw/cfe-core/src/evs/cfe_evs_task.c ****       case CFE_EVS_ENABLE_APP_EVENT_TYPE_CC:
 533:/home/simulink/cFS_FreeRTOS_seL4/cfe/fsw/cfe-core/src/evs/cfe_evs_task.c **** 
 534:/home/simulink/cFS_FreeRTOS_seL4/cfe/fsw/cfe-core/src/evs/cfe_evs_task.c ****          if ((Valid = CFE_EVS_VerifyCmdLength(EVS_MsgPtr, sizeof(CFE_EVS_AppNameBitMaskCmd_t))) == 
 1015               	.loc 1 534 0
 1016 079e 4878 001E 	pea 30.w
 1017               	.cfi_def_cfa_offset 20
 1018 07a2 2F2F 0014 	move.l 20(%sp),-(%sp)
 1019               	.cfi_def_cfa_offset 24
 1020 07a6 4EB9 0000 	jsr CFE_EVS_VerifyCmdLength
 1020      0000 
 1021 07ac 508F      	addq.l #8,%sp
 1022               	.cfi_def_cfa_offset 16
 1023 07ae 1F40 000B 	move.b %d0,11(%sp)
 1024 07b2 4280      	clr.l %d0
 1025 07b4 102F 000B 	move.b 11(%sp),%d0
 1026 07b8 7201      	moveq #1,%d1
 1027 07ba B280      	cmp.l %d0,%d1
 1028 07bc 6600 041C 	jne .L97
 535:/home/simulink/cFS_FreeRTOS_seL4/cfe/fsw/cfe-core/src/evs/cfe_evs_task.c ****          {
 536:/home/simulink/cFS_FreeRTOS_seL4/cfe/fsw/cfe-core/src/evs/cfe_evs_task.c ****             Valid = CFE_EVS_EnableAppEventTypesCmd(Payload);
 1029               	.loc 1 536 0
 1030 07c0 2F2F 0004 	move.l 4(%sp),-(%sp)
 1031               	.cfi_def_cfa_offset 20
 1032 07c4 4EB9 0000 	jsr CFE_EVS_EnableAppEventTypesCmd
 1032      0000 
 1033 07ca 588F      	addq.l #4,%sp
 1034               	.cfi_def_cfa_offset 16
 1035 07cc 1F40 000B 	move.b %d0,11(%sp)
68K GAS   			page 33


 537:/home/simulink/cFS_FreeRTOS_seL4/cfe/fsw/cfe-core/src/evs/cfe_evs_task.c ****          }
 538:/home/simulink/cFS_FreeRTOS_seL4/cfe/fsw/cfe-core/src/evs/cfe_evs_task.c ****          break;
 1036               	.loc 1 538 0
 1037 07d0 6000 0408 	jra .L97
 1038               	.L46:
 539:/home/simulink/cFS_FreeRTOS_seL4/cfe/fsw/cfe-core/src/evs/cfe_evs_task.c **** 
 540:/home/simulink/cFS_FreeRTOS_seL4/cfe/fsw/cfe-core/src/evs/cfe_evs_task.c ****       case CFE_EVS_DISABLE_APP_EVENT_TYPE_CC:
 541:/home/simulink/cFS_FreeRTOS_seL4/cfe/fsw/cfe-core/src/evs/cfe_evs_task.c **** 
 542:/home/simulink/cFS_FreeRTOS_seL4/cfe/fsw/cfe-core/src/evs/cfe_evs_task.c ****          if ((Valid = CFE_EVS_VerifyCmdLength(EVS_MsgPtr, sizeof(CFE_EVS_AppNameBitMaskCmd_t))) == 
 1039               	.loc 1 542 0
 1040 07d4 4878 001E 	pea 30.w
 1041               	.cfi_def_cfa_offset 20
 1042 07d8 2F2F 0014 	move.l 20(%sp),-(%sp)
 1043               	.cfi_def_cfa_offset 24
 1044 07dc 4EB9 0000 	jsr CFE_EVS_VerifyCmdLength
 1044      0000 
 1045 07e2 508F      	addq.l #8,%sp
 1046               	.cfi_def_cfa_offset 16
 1047 07e4 1F40 000B 	move.b %d0,11(%sp)
 1048 07e8 4280      	clr.l %d0
 1049 07ea 102F 000B 	move.b 11(%sp),%d0
 1050 07ee 7201      	moveq #1,%d1
 1051 07f0 B280      	cmp.l %d0,%d1
 1052 07f2 6600 03EA 	jne .L98
 543:/home/simulink/cFS_FreeRTOS_seL4/cfe/fsw/cfe-core/src/evs/cfe_evs_task.c ****          {
 544:/home/simulink/cFS_FreeRTOS_seL4/cfe/fsw/cfe-core/src/evs/cfe_evs_task.c ****             Valid = CFE_EVS_DisableAppEventTypesCmd(Payload);
 1053               	.loc 1 544 0
 1054 07f6 2F2F 0004 	move.l 4(%sp),-(%sp)
 1055               	.cfi_def_cfa_offset 20
 1056 07fa 4EB9 0000 	jsr CFE_EVS_DisableAppEventTypesCmd
 1056      0000 
 1057 0800 588F      	addq.l #4,%sp
 1058               	.cfi_def_cfa_offset 16
 1059 0802 1F40 000B 	move.b %d0,11(%sp)
 545:/home/simulink/cFS_FreeRTOS_seL4/cfe/fsw/cfe-core/src/evs/cfe_evs_task.c ****          }
 546:/home/simulink/cFS_FreeRTOS_seL4/cfe/fsw/cfe-core/src/evs/cfe_evs_task.c ****          break;
 1060               	.loc 1 546 0
 1061 0806 6000 03D6 	jra .L98
 1062               	.L47:
 547:/home/simulink/cFS_FreeRTOS_seL4/cfe/fsw/cfe-core/src/evs/cfe_evs_task.c **** 
 548:/home/simulink/cFS_FreeRTOS_seL4/cfe/fsw/cfe-core/src/evs/cfe_evs_task.c ****       case CFE_EVS_ENABLE_APP_EVENTS_CC:
 549:/home/simulink/cFS_FreeRTOS_seL4/cfe/fsw/cfe-core/src/evs/cfe_evs_task.c **** 
 550:/home/simulink/cFS_FreeRTOS_seL4/cfe/fsw/cfe-core/src/evs/cfe_evs_task.c ****          if ((Valid = CFE_EVS_VerifyCmdLength(EVS_MsgPtr, sizeof(CFE_EVS_AppNameCmd_t))) == TRUE)
 1063               	.loc 1 550 0
 1064 080a 4878 001C 	pea 28.w
 1065               	.cfi_def_cfa_offset 20
 1066 080e 2F2F 0014 	move.l 20(%sp),-(%sp)
 1067               	.cfi_def_cfa_offset 24
 1068 0812 4EB9 0000 	jsr CFE_EVS_VerifyCmdLength
 1068      0000 
 1069 0818 508F      	addq.l #8,%sp
 1070               	.cfi_def_cfa_offset 16
 1071 081a 1F40 000B 	move.b %d0,11(%sp)
 1072 081e 4280      	clr.l %d0
 1073 0820 102F 000B 	move.b 11(%sp),%d0
 1074 0824 7201      	moveq #1,%d1
 1075 0826 B280      	cmp.l %d0,%d1
68K GAS   			page 34


 1076 0828 6600 03B8 	jne .L99
 551:/home/simulink/cFS_FreeRTOS_seL4/cfe/fsw/cfe-core/src/evs/cfe_evs_task.c ****          {
 552:/home/simulink/cFS_FreeRTOS_seL4/cfe/fsw/cfe-core/src/evs/cfe_evs_task.c ****             Valid = CFE_EVS_EnableAppEventsCmd(Payload);
 1077               	.loc 1 552 0
 1078 082c 2F2F 0004 	move.l 4(%sp),-(%sp)
 1079               	.cfi_def_cfa_offset 20
 1080 0830 4EB9 0000 	jsr CFE_EVS_EnableAppEventsCmd
 1080      0000 
 1081 0836 588F      	addq.l #4,%sp
 1082               	.cfi_def_cfa_offset 16
 1083 0838 1F40 000B 	move.b %d0,11(%sp)
 553:/home/simulink/cFS_FreeRTOS_seL4/cfe/fsw/cfe-core/src/evs/cfe_evs_task.c ****          }
 554:/home/simulink/cFS_FreeRTOS_seL4/cfe/fsw/cfe-core/src/evs/cfe_evs_task.c ****          break;
 1084               	.loc 1 554 0
 1085 083c 6000 03A4 	jra .L99
 1086               	.L48:
 555:/home/simulink/cFS_FreeRTOS_seL4/cfe/fsw/cfe-core/src/evs/cfe_evs_task.c **** 
 556:/home/simulink/cFS_FreeRTOS_seL4/cfe/fsw/cfe-core/src/evs/cfe_evs_task.c ****       case CFE_EVS_DISABLE_APP_EVENTS_CC:
 557:/home/simulink/cFS_FreeRTOS_seL4/cfe/fsw/cfe-core/src/evs/cfe_evs_task.c **** 
 558:/home/simulink/cFS_FreeRTOS_seL4/cfe/fsw/cfe-core/src/evs/cfe_evs_task.c ****          if ((Valid = CFE_EVS_VerifyCmdLength(EVS_MsgPtr, sizeof(CFE_EVS_AppNameCmd_t))) == TRUE)
 1087               	.loc 1 558 0
 1088 0840 4878 001C 	pea 28.w
 1089               	.cfi_def_cfa_offset 20
 1090 0844 2F2F 0014 	move.l 20(%sp),-(%sp)
 1091               	.cfi_def_cfa_offset 24
 1092 0848 4EB9 0000 	jsr CFE_EVS_VerifyCmdLength
 1092      0000 
 1093 084e 508F      	addq.l #8,%sp
 1094               	.cfi_def_cfa_offset 16
 1095 0850 1F40 000B 	move.b %d0,11(%sp)
 1096 0854 4280      	clr.l %d0
 1097 0856 102F 000B 	move.b 11(%sp),%d0
 1098 085a 7201      	moveq #1,%d1
 1099 085c B280      	cmp.l %d0,%d1
 1100 085e 6600 0386 	jne .L100
 559:/home/simulink/cFS_FreeRTOS_seL4/cfe/fsw/cfe-core/src/evs/cfe_evs_task.c ****          {
 560:/home/simulink/cFS_FreeRTOS_seL4/cfe/fsw/cfe-core/src/evs/cfe_evs_task.c ****             Valid = CFE_EVS_DisableAppEventsCmd(Payload);
 1101               	.loc 1 560 0
 1102 0862 2F2F 0004 	move.l 4(%sp),-(%sp)
 1103               	.cfi_def_cfa_offset 20
 1104 0866 4EB9 0000 	jsr CFE_EVS_DisableAppEventsCmd
 1104      0000 
 1105 086c 588F      	addq.l #4,%sp
 1106               	.cfi_def_cfa_offset 16
 1107 086e 1F40 000B 	move.b %d0,11(%sp)
 561:/home/simulink/cFS_FreeRTOS_seL4/cfe/fsw/cfe-core/src/evs/cfe_evs_task.c ****          }
 562:/home/simulink/cFS_FreeRTOS_seL4/cfe/fsw/cfe-core/src/evs/cfe_evs_task.c ****          break;
 1108               	.loc 1 562 0
 1109 0872 6000 0372 	jra .L100
 1110               	.L49:
 563:/home/simulink/cFS_FreeRTOS_seL4/cfe/fsw/cfe-core/src/evs/cfe_evs_task.c **** 
 564:/home/simulink/cFS_FreeRTOS_seL4/cfe/fsw/cfe-core/src/evs/cfe_evs_task.c ****       case CFE_EVS_RESET_APP_COUNTER_CC:
 565:/home/simulink/cFS_FreeRTOS_seL4/cfe/fsw/cfe-core/src/evs/cfe_evs_task.c **** 
 566:/home/simulink/cFS_FreeRTOS_seL4/cfe/fsw/cfe-core/src/evs/cfe_evs_task.c ****          if ((Valid = CFE_EVS_VerifyCmdLength(EVS_MsgPtr, sizeof(CFE_EVS_AppNameCmd_t))) == TRUE)
 1111               	.loc 1 566 0
 1112 0876 4878 001C 	pea 28.w
 1113               	.cfi_def_cfa_offset 20
68K GAS   			page 35


 1114 087a 2F2F 0014 	move.l 20(%sp),-(%sp)
 1115               	.cfi_def_cfa_offset 24
 1116 087e 4EB9 0000 	jsr CFE_EVS_VerifyCmdLength
 1116      0000 
 1117 0884 508F      	addq.l #8,%sp
 1118               	.cfi_def_cfa_offset 16
 1119 0886 1F40 000B 	move.b %d0,11(%sp)
 1120 088a 4280      	clr.l %d0
 1121 088c 102F 000B 	move.b 11(%sp),%d0
 1122 0890 7201      	moveq #1,%d1
 1123 0892 B280      	cmp.l %d0,%d1
 1124 0894 6600 0354 	jne .L101
 567:/home/simulink/cFS_FreeRTOS_seL4/cfe/fsw/cfe-core/src/evs/cfe_evs_task.c ****          {
 568:/home/simulink/cFS_FreeRTOS_seL4/cfe/fsw/cfe-core/src/evs/cfe_evs_task.c ****             Valid = CFE_EVS_ResetAppEventCounterCmd(Payload);
 1125               	.loc 1 568 0
 1126 0898 2F2F 0004 	move.l 4(%sp),-(%sp)
 1127               	.cfi_def_cfa_offset 20
 1128 089c 4EB9 0000 	jsr CFE_EVS_ResetAppEventCounterCmd
 1128      0000 
 1129 08a2 588F      	addq.l #4,%sp
 1130               	.cfi_def_cfa_offset 16
 1131 08a4 1F40 000B 	move.b %d0,11(%sp)
 569:/home/simulink/cFS_FreeRTOS_seL4/cfe/fsw/cfe-core/src/evs/cfe_evs_task.c ****          }
 570:/home/simulink/cFS_FreeRTOS_seL4/cfe/fsw/cfe-core/src/evs/cfe_evs_task.c ****          break;
 1132               	.loc 1 570 0
 1133 08a8 6000 0340 	jra .L101
 1134               	.L50:
 571:/home/simulink/cFS_FreeRTOS_seL4/cfe/fsw/cfe-core/src/evs/cfe_evs_task.c **** 
 572:/home/simulink/cFS_FreeRTOS_seL4/cfe/fsw/cfe-core/src/evs/cfe_evs_task.c ****       case CFE_EVS_SET_FILTER_CC:
 573:/home/simulink/cFS_FreeRTOS_seL4/cfe/fsw/cfe-core/src/evs/cfe_evs_task.c **** 
 574:/home/simulink/cFS_FreeRTOS_seL4/cfe/fsw/cfe-core/src/evs/cfe_evs_task.c ****          if ((Valid = CFE_EVS_VerifyCmdLength(EVS_MsgPtr, (uint16) sizeof(CFE_EVS_AppNameEventIDMas
 1135               	.loc 1 574 0
 1136 08ac 4878 0020 	pea 32.w
 1137               	.cfi_def_cfa_offset 20
 1138 08b0 2F2F 0014 	move.l 20(%sp),-(%sp)
 1139               	.cfi_def_cfa_offset 24
 1140 08b4 4EB9 0000 	jsr CFE_EVS_VerifyCmdLength
 1140      0000 
 1141 08ba 508F      	addq.l #8,%sp
 1142               	.cfi_def_cfa_offset 16
 1143 08bc 1F40 000B 	move.b %d0,11(%sp)
 1144 08c0 4280      	clr.l %d0
 1145 08c2 102F 000B 	move.b 11(%sp),%d0
 1146 08c6 7201      	moveq #1,%d1
 1147 08c8 B280      	cmp.l %d0,%d1
 1148 08ca 6600 0322 	jne .L102
 575:/home/simulink/cFS_FreeRTOS_seL4/cfe/fsw/cfe-core/src/evs/cfe_evs_task.c ****          {
 576:/home/simulink/cFS_FreeRTOS_seL4/cfe/fsw/cfe-core/src/evs/cfe_evs_task.c ****             Valid = CFE_EVS_SetFilterMaskCmd(Payload);
 1149               	.loc 1 576 0
 1150 08ce 2F2F 0004 	move.l 4(%sp),-(%sp)
 1151               	.cfi_def_cfa_offset 20
 1152 08d2 4EB9 0000 	jsr CFE_EVS_SetFilterMaskCmd
 1152      0000 
 1153 08d8 588F      	addq.l #4,%sp
 1154               	.cfi_def_cfa_offset 16
 1155 08da 1F40 000B 	move.b %d0,11(%sp)
 577:/home/simulink/cFS_FreeRTOS_seL4/cfe/fsw/cfe-core/src/evs/cfe_evs_task.c ****          }
68K GAS   			page 36


 578:/home/simulink/cFS_FreeRTOS_seL4/cfe/fsw/cfe-core/src/evs/cfe_evs_task.c ****          break;
 1156               	.loc 1 578 0
 1157 08de 6000 030E 	jra .L102
 1158               	.L51:
 579:/home/simulink/cFS_FreeRTOS_seL4/cfe/fsw/cfe-core/src/evs/cfe_evs_task.c **** 
 580:/home/simulink/cFS_FreeRTOS_seL4/cfe/fsw/cfe-core/src/evs/cfe_evs_task.c ****       case CFE_EVS_ENABLE_PORTS_CC:
 581:/home/simulink/cFS_FreeRTOS_seL4/cfe/fsw/cfe-core/src/evs/cfe_evs_task.c **** 
 582:/home/simulink/cFS_FreeRTOS_seL4/cfe/fsw/cfe-core/src/evs/cfe_evs_task.c ****          if ((Valid = CFE_EVS_VerifyCmdLength(EVS_MsgPtr, sizeof(CFE_EVS_BitMaskCmd_t))) == TRUE)
 1159               	.loc 1 582 0
 1160 08e2 4878 000A 	pea 10.w
 1161               	.cfi_def_cfa_offset 20
 1162 08e6 2F2F 0014 	move.l 20(%sp),-(%sp)
 1163               	.cfi_def_cfa_offset 24
 1164 08ea 4EB9 0000 	jsr CFE_EVS_VerifyCmdLength
 1164      0000 
 1165 08f0 508F      	addq.l #8,%sp
 1166               	.cfi_def_cfa_offset 16
 1167 08f2 1F40 000B 	move.b %d0,11(%sp)
 1168 08f6 4280      	clr.l %d0
 1169 08f8 102F 000B 	move.b 11(%sp),%d0
 1170 08fc 7201      	moveq #1,%d1
 1171 08fe B280      	cmp.l %d0,%d1
 1172 0900 6600 02F0 	jne .L103
 583:/home/simulink/cFS_FreeRTOS_seL4/cfe/fsw/cfe-core/src/evs/cfe_evs_task.c ****          {
 584:/home/simulink/cFS_FreeRTOS_seL4/cfe/fsw/cfe-core/src/evs/cfe_evs_task.c ****             Valid = CFE_EVS_EnablePortsCmd(Payload);
 1173               	.loc 1 584 0
 1174 0904 2F2F 0004 	move.l 4(%sp),-(%sp)
 1175               	.cfi_def_cfa_offset 20
 1176 0908 4EB9 0000 	jsr CFE_EVS_EnablePortsCmd
 1176      0000 
 1177 090e 588F      	addq.l #4,%sp
 1178               	.cfi_def_cfa_offset 16
 1179 0910 1F40 000B 	move.b %d0,11(%sp)
 585:/home/simulink/cFS_FreeRTOS_seL4/cfe/fsw/cfe-core/src/evs/cfe_evs_task.c ****          }
 586:/home/simulink/cFS_FreeRTOS_seL4/cfe/fsw/cfe-core/src/evs/cfe_evs_task.c ****          break;
 1180               	.loc 1 586 0
 1181 0914 6000 02DC 	jra .L103
 1182               	.L52:
 587:/home/simulink/cFS_FreeRTOS_seL4/cfe/fsw/cfe-core/src/evs/cfe_evs_task.c **** 
 588:/home/simulink/cFS_FreeRTOS_seL4/cfe/fsw/cfe-core/src/evs/cfe_evs_task.c ****       case CFE_EVS_DISABLE_PORTS_CC:
 589:/home/simulink/cFS_FreeRTOS_seL4/cfe/fsw/cfe-core/src/evs/cfe_evs_task.c **** 
 590:/home/simulink/cFS_FreeRTOS_seL4/cfe/fsw/cfe-core/src/evs/cfe_evs_task.c ****          if ((Valid = CFE_EVS_VerifyCmdLength(EVS_MsgPtr, sizeof(CFE_EVS_BitMaskCmd_t))) == TRUE)
 1183               	.loc 1 590 0
 1184 0918 4878 000A 	pea 10.w
 1185               	.cfi_def_cfa_offset 20
 1186 091c 2F2F 0014 	move.l 20(%sp),-(%sp)
 1187               	.cfi_def_cfa_offset 24
 1188 0920 4EB9 0000 	jsr CFE_EVS_VerifyCmdLength
 1188      0000 
 1189 0926 508F      	addq.l #8,%sp
 1190               	.cfi_def_cfa_offset 16
 1191 0928 1F40 000B 	move.b %d0,11(%sp)
 1192 092c 4280      	clr.l %d0
 1193 092e 102F 000B 	move.b 11(%sp),%d0
 1194 0932 7201      	moveq #1,%d1
 1195 0934 B280      	cmp.l %d0,%d1
 1196 0936 6600 02BE 	jne .L104
68K GAS   			page 37


 591:/home/simulink/cFS_FreeRTOS_seL4/cfe/fsw/cfe-core/src/evs/cfe_evs_task.c ****          {
 592:/home/simulink/cFS_FreeRTOS_seL4/cfe/fsw/cfe-core/src/evs/cfe_evs_task.c ****             Valid = CFE_EVS_DisablePortsCmd(Payload);
 1197               	.loc 1 592 0
 1198 093a 2F2F 0004 	move.l 4(%sp),-(%sp)
 1199               	.cfi_def_cfa_offset 20
 1200 093e 4EB9 0000 	jsr CFE_EVS_DisablePortsCmd
 1200      0000 
 1201 0944 588F      	addq.l #4,%sp
 1202               	.cfi_def_cfa_offset 16
 1203 0946 1F40 000B 	move.b %d0,11(%sp)
 593:/home/simulink/cFS_FreeRTOS_seL4/cfe/fsw/cfe-core/src/evs/cfe_evs_task.c ****          }
 594:/home/simulink/cFS_FreeRTOS_seL4/cfe/fsw/cfe-core/src/evs/cfe_evs_task.c ****          break;
 1204               	.loc 1 594 0
 1205 094a 6000 02AA 	jra .L104
 1206               	.L53:
 595:/home/simulink/cFS_FreeRTOS_seL4/cfe/fsw/cfe-core/src/evs/cfe_evs_task.c **** 
 596:/home/simulink/cFS_FreeRTOS_seL4/cfe/fsw/cfe-core/src/evs/cfe_evs_task.c ****       case CFE_EVS_RESET_FILTER_CC:
 597:/home/simulink/cFS_FreeRTOS_seL4/cfe/fsw/cfe-core/src/evs/cfe_evs_task.c **** 
 598:/home/simulink/cFS_FreeRTOS_seL4/cfe/fsw/cfe-core/src/evs/cfe_evs_task.c ****          if ((Valid = CFE_EVS_VerifyCmdLength(EVS_MsgPtr, sizeof(CFE_EVS_AppNameEventIDCmd_t))) == 
 1207               	.loc 1 598 0
 1208 094e 4878 001E 	pea 30.w
 1209               	.cfi_def_cfa_offset 20
 1210 0952 2F2F 0014 	move.l 20(%sp),-(%sp)
 1211               	.cfi_def_cfa_offset 24
 1212 0956 4EB9 0000 	jsr CFE_EVS_VerifyCmdLength
 1212      0000 
 1213 095c 508F      	addq.l #8,%sp
 1214               	.cfi_def_cfa_offset 16
 1215 095e 1F40 000B 	move.b %d0,11(%sp)
 1216 0962 4280      	clr.l %d0
 1217 0964 102F 000B 	move.b 11(%sp),%d0
 1218 0968 7201      	moveq #1,%d1
 1219 096a B280      	cmp.l %d0,%d1
 1220 096c 6600 028C 	jne .L105
 599:/home/simulink/cFS_FreeRTOS_seL4/cfe/fsw/cfe-core/src/evs/cfe_evs_task.c ****          {
 600:/home/simulink/cFS_FreeRTOS_seL4/cfe/fsw/cfe-core/src/evs/cfe_evs_task.c ****             Valid = CFE_EVS_ResetFilterCmd(Payload);
 1221               	.loc 1 600 0
 1222 0970 2F2F 0004 	move.l 4(%sp),-(%sp)
 1223               	.cfi_def_cfa_offset 20
 1224 0974 4EB9 0000 	jsr CFE_EVS_ResetFilterCmd
 1224      0000 
 1225 097a 588F      	addq.l #4,%sp
 1226               	.cfi_def_cfa_offset 16
 1227 097c 1F40 000B 	move.b %d0,11(%sp)
 601:/home/simulink/cFS_FreeRTOS_seL4/cfe/fsw/cfe-core/src/evs/cfe_evs_task.c ****          }
 602:/home/simulink/cFS_FreeRTOS_seL4/cfe/fsw/cfe-core/src/evs/cfe_evs_task.c ****          break;
 1228               	.loc 1 602 0
 1229 0980 6000 0278 	jra .L105
 1230               	.L54:
 603:/home/simulink/cFS_FreeRTOS_seL4/cfe/fsw/cfe-core/src/evs/cfe_evs_task.c **** 
 604:/home/simulink/cFS_FreeRTOS_seL4/cfe/fsw/cfe-core/src/evs/cfe_evs_task.c ****       case CFE_EVS_RESET_ALL_FILTERS_CC:
 605:/home/simulink/cFS_FreeRTOS_seL4/cfe/fsw/cfe-core/src/evs/cfe_evs_task.c **** 
 606:/home/simulink/cFS_FreeRTOS_seL4/cfe/fsw/cfe-core/src/evs/cfe_evs_task.c ****          if ((Valid = CFE_EVS_VerifyCmdLength(EVS_MsgPtr, sizeof(CFE_EVS_AppNameCmd_t))) == TRUE)
 1231               	.loc 1 606 0
 1232 0984 4878 001C 	pea 28.w
 1233               	.cfi_def_cfa_offset 20
 1234 0988 2F2F 0014 	move.l 20(%sp),-(%sp)
68K GAS   			page 38


 1235               	.cfi_def_cfa_offset 24
 1236 098c 4EB9 0000 	jsr CFE_EVS_VerifyCmdLength
 1236      0000 
 1237 0992 508F      	addq.l #8,%sp
 1238               	.cfi_def_cfa_offset 16
 1239 0994 1F40 000B 	move.b %d0,11(%sp)
 1240 0998 4280      	clr.l %d0
 1241 099a 102F 000B 	move.b 11(%sp),%d0
 1242 099e 7201      	moveq #1,%d1
 1243 09a0 B280      	cmp.l %d0,%d1
 1244 09a2 6600 025A 	jne .L106
 607:/home/simulink/cFS_FreeRTOS_seL4/cfe/fsw/cfe-core/src/evs/cfe_evs_task.c ****          {
 608:/home/simulink/cFS_FreeRTOS_seL4/cfe/fsw/cfe-core/src/evs/cfe_evs_task.c ****             Valid = CFE_EVS_ResetAllFiltersCmd(Payload);
 1245               	.loc 1 608 0
 1246 09a6 2F2F 0004 	move.l 4(%sp),-(%sp)
 1247               	.cfi_def_cfa_offset 20
 1248 09aa 4EB9 0000 	jsr CFE_EVS_ResetAllFiltersCmd
 1248      0000 
 1249 09b0 588F      	addq.l #4,%sp
 1250               	.cfi_def_cfa_offset 16
 1251 09b2 1F40 000B 	move.b %d0,11(%sp)
 609:/home/simulink/cFS_FreeRTOS_seL4/cfe/fsw/cfe-core/src/evs/cfe_evs_task.c ****          }
 610:/home/simulink/cFS_FreeRTOS_seL4/cfe/fsw/cfe-core/src/evs/cfe_evs_task.c ****          break;
 1252               	.loc 1 610 0
 1253 09b6 6000 0246 	jra .L106
 1254               	.L55:
 611:/home/simulink/cFS_FreeRTOS_seL4/cfe/fsw/cfe-core/src/evs/cfe_evs_task.c **** 
 612:/home/simulink/cFS_FreeRTOS_seL4/cfe/fsw/cfe-core/src/evs/cfe_evs_task.c ****       case CFE_EVS_ADD_EVENT_FILTER_CC:
 613:/home/simulink/cFS_FreeRTOS_seL4/cfe/fsw/cfe-core/src/evs/cfe_evs_task.c **** 
 614:/home/simulink/cFS_FreeRTOS_seL4/cfe/fsw/cfe-core/src/evs/cfe_evs_task.c ****          if ((Valid = CFE_EVS_VerifyCmdLength(EVS_MsgPtr, sizeof(CFE_EVS_AppNameEventIDMaskCmd_t)))
 1255               	.loc 1 614 0
 1256 09ba 4878 0020 	pea 32.w
 1257               	.cfi_def_cfa_offset 20
 1258 09be 2F2F 0014 	move.l 20(%sp),-(%sp)
 1259               	.cfi_def_cfa_offset 24
 1260 09c2 4EB9 0000 	jsr CFE_EVS_VerifyCmdLength
 1260      0000 
 1261 09c8 508F      	addq.l #8,%sp
 1262               	.cfi_def_cfa_offset 16
 1263 09ca 1F40 000B 	move.b %d0,11(%sp)
 1264 09ce 4280      	clr.l %d0
 1265 09d0 102F 000B 	move.b 11(%sp),%d0
 1266 09d4 7201      	moveq #1,%d1
 1267 09d6 B280      	cmp.l %d0,%d1
 1268 09d8 6600 0228 	jne .L107
 615:/home/simulink/cFS_FreeRTOS_seL4/cfe/fsw/cfe-core/src/evs/cfe_evs_task.c ****          {
 616:/home/simulink/cFS_FreeRTOS_seL4/cfe/fsw/cfe-core/src/evs/cfe_evs_task.c ****             Valid = CFE_EVS_AddEventFilterCmd(Payload);
 1269               	.loc 1 616 0
 1270 09dc 2F2F 0004 	move.l 4(%sp),-(%sp)
 1271               	.cfi_def_cfa_offset 20
 1272 09e0 4EB9 0000 	jsr CFE_EVS_AddEventFilterCmd
 1272      0000 
 1273 09e6 588F      	addq.l #4,%sp
 1274               	.cfi_def_cfa_offset 16
 1275 09e8 1F40 000B 	move.b %d0,11(%sp)
 617:/home/simulink/cFS_FreeRTOS_seL4/cfe/fsw/cfe-core/src/evs/cfe_evs_task.c ****          }
 618:/home/simulink/cFS_FreeRTOS_seL4/cfe/fsw/cfe-core/src/evs/cfe_evs_task.c ****          break;
68K GAS   			page 39


 1276               	.loc 1 618 0
 1277 09ec 6000 0214 	jra .L107
 1278               	.L56:
 619:/home/simulink/cFS_FreeRTOS_seL4/cfe/fsw/cfe-core/src/evs/cfe_evs_task.c **** 
 620:/home/simulink/cFS_FreeRTOS_seL4/cfe/fsw/cfe-core/src/evs/cfe_evs_task.c ****       case CFE_EVS_DELETE_EVENT_FILTER_CC:
 621:/home/simulink/cFS_FreeRTOS_seL4/cfe/fsw/cfe-core/src/evs/cfe_evs_task.c **** 
 622:/home/simulink/cFS_FreeRTOS_seL4/cfe/fsw/cfe-core/src/evs/cfe_evs_task.c ****          if ((Valid = CFE_EVS_VerifyCmdLength(EVS_MsgPtr, sizeof(CFE_EVS_AppNameEventIDCmd_t))) == 
 1279               	.loc 1 622 0
 1280 09f0 4878 001E 	pea 30.w
 1281               	.cfi_def_cfa_offset 20
 1282 09f4 2F2F 0014 	move.l 20(%sp),-(%sp)
 1283               	.cfi_def_cfa_offset 24
 1284 09f8 4EB9 0000 	jsr CFE_EVS_VerifyCmdLength
 1284      0000 
 1285 09fe 508F      	addq.l #8,%sp
 1286               	.cfi_def_cfa_offset 16
 1287 0a00 1F40 000B 	move.b %d0,11(%sp)
 1288 0a04 4280      	clr.l %d0
 1289 0a06 102F 000B 	move.b 11(%sp),%d0
 1290 0a0a 7201      	moveq #1,%d1
 1291 0a0c B280      	cmp.l %d0,%d1
 1292 0a0e 6600 01F6 	jne .L108
 623:/home/simulink/cFS_FreeRTOS_seL4/cfe/fsw/cfe-core/src/evs/cfe_evs_task.c ****          {
 624:/home/simulink/cFS_FreeRTOS_seL4/cfe/fsw/cfe-core/src/evs/cfe_evs_task.c ****             Valid = CFE_EVS_DeleteEventFilterCmd(Payload);
 1293               	.loc 1 624 0
 1294 0a12 2F2F 0004 	move.l 4(%sp),-(%sp)
 1295               	.cfi_def_cfa_offset 20
 1296 0a16 4EB9 0000 	jsr CFE_EVS_DeleteEventFilterCmd
 1296      0000 
 1297 0a1c 588F      	addq.l #4,%sp
 1298               	.cfi_def_cfa_offset 16
 1299 0a1e 1F40 000B 	move.b %d0,11(%sp)
 625:/home/simulink/cFS_FreeRTOS_seL4/cfe/fsw/cfe-core/src/evs/cfe_evs_task.c ****          }
 626:/home/simulink/cFS_FreeRTOS_seL4/cfe/fsw/cfe-core/src/evs/cfe_evs_task.c ****          break;
 1300               	.loc 1 626 0
 1301 0a22 6000 01E2 	jra .L108
 1302               	.L57:
 627:/home/simulink/cFS_FreeRTOS_seL4/cfe/fsw/cfe-core/src/evs/cfe_evs_task.c **** 
 628:/home/simulink/cFS_FreeRTOS_seL4/cfe/fsw/cfe-core/src/evs/cfe_evs_task.c ****       case CFE_EVS_FILE_WRITE_APP_DATA_CC:
 629:/home/simulink/cFS_FreeRTOS_seL4/cfe/fsw/cfe-core/src/evs/cfe_evs_task.c **** 
 630:/home/simulink/cFS_FreeRTOS_seL4/cfe/fsw/cfe-core/src/evs/cfe_evs_task.c ****          if ((Valid = CFE_EVS_VerifyCmdLength(EVS_MsgPtr, sizeof(CFE_EVS_AppDataCmd_t))) == TRUE)
 1303               	.loc 1 630 0
 1304 0a26 4878 0048 	pea 72.w
 1305               	.cfi_def_cfa_offset 20
 1306 0a2a 2F2F 0014 	move.l 20(%sp),-(%sp)
 1307               	.cfi_def_cfa_offset 24
 1308 0a2e 4EB9 0000 	jsr CFE_EVS_VerifyCmdLength
 1308      0000 
 1309 0a34 508F      	addq.l #8,%sp
 1310               	.cfi_def_cfa_offset 16
 1311 0a36 1F40 000B 	move.b %d0,11(%sp)
 1312 0a3a 4280      	clr.l %d0
 1313 0a3c 102F 000B 	move.b 11(%sp),%d0
 1314 0a40 7201      	moveq #1,%d1
 1315 0a42 B280      	cmp.l %d0,%d1
 1316 0a44 6600 01C4 	jne .L109
 631:/home/simulink/cFS_FreeRTOS_seL4/cfe/fsw/cfe-core/src/evs/cfe_evs_task.c ****          {
68K GAS   			page 40


 632:/home/simulink/cFS_FreeRTOS_seL4/cfe/fsw/cfe-core/src/evs/cfe_evs_task.c ****             Valid = CFE_EVS_WriteAppDataCmd(Payload);
 1317               	.loc 1 632 0
 1318 0a48 2F2F 0004 	move.l 4(%sp),-(%sp)
 1319               	.cfi_def_cfa_offset 20
 1320 0a4c 4EB9 0000 	jsr CFE_EVS_WriteAppDataCmd
 1320      0000 
 1321 0a52 588F      	addq.l #4,%sp
 1322               	.cfi_def_cfa_offset 16
 1323 0a54 1F40 000B 	move.b %d0,11(%sp)
 633:/home/simulink/cFS_FreeRTOS_seL4/cfe/fsw/cfe-core/src/evs/cfe_evs_task.c ****          }
 634:/home/simulink/cFS_FreeRTOS_seL4/cfe/fsw/cfe-core/src/evs/cfe_evs_task.c ****          break;
 1324               	.loc 1 634 0
 1325 0a58 6000 01B0 	jra .L109
 1326               	.L59:
 635:/home/simulink/cFS_FreeRTOS_seL4/cfe/fsw/cfe-core/src/evs/cfe_evs_task.c **** 
 636:/home/simulink/cFS_FreeRTOS_seL4/cfe/fsw/cfe-core/src/evs/cfe_evs_task.c ****       case CFE_EVS_SET_LOG_MODE_CC:
 637:/home/simulink/cFS_FreeRTOS_seL4/cfe/fsw/cfe-core/src/evs/cfe_evs_task.c **** 
 638:/home/simulink/cFS_FreeRTOS_seL4/cfe/fsw/cfe-core/src/evs/cfe_evs_task.c ****          if (CFE_EVS_GlobalData.EVS_TlmPkt.Payload.LogEnabled == TRUE)
 1327               	.loc 1 638 0
 1328 0a5c 1039 0000 	move.b CFE_EVS_GlobalData+2268,%d0
 1328      0000 
 1329 0a62 1000      	move.b %d0,%d0
 1330 0a64 0280 0000 	and.l #255,%d0
 1330      00FF 
 1331 0a6a 7201      	moveq #1,%d1
 1332 0a6c B280      	cmp.l %d0,%d1
 1333 0a6e 6636      	jne .L81
 639:/home/simulink/cFS_FreeRTOS_seL4/cfe/fsw/cfe-core/src/evs/cfe_evs_task.c ****          {   
 640:/home/simulink/cFS_FreeRTOS_seL4/cfe/fsw/cfe-core/src/evs/cfe_evs_task.c ****             if ((Valid = CFE_EVS_VerifyCmdLength(EVS_MsgPtr, sizeof(CFE_EVS_ModeCmd_t))) == TRUE)
 1334               	.loc 1 640 0
 1335 0a70 4878 000A 	pea 10.w
 1336               	.cfi_def_cfa_offset 20
 1337 0a74 2F2F 0014 	move.l 20(%sp),-(%sp)
 1338               	.cfi_def_cfa_offset 24
 1339 0a78 4EB9 0000 	jsr CFE_EVS_VerifyCmdLength
 1339      0000 
 1340 0a7e 508F      	addq.l #8,%sp
 1341               	.cfi_def_cfa_offset 16
 1342 0a80 1F40 000B 	move.b %d0,11(%sp)
 1343 0a84 4280      	clr.l %d0
 1344 0a86 102F 000B 	move.b 11(%sp),%d0
 1345 0a8a 7201      	moveq #1,%d1
 1346 0a8c B280      	cmp.l %d0,%d1
 1347 0a8e 6600 017E 	jne .L110
 641:/home/simulink/cFS_FreeRTOS_seL4/cfe/fsw/cfe-core/src/evs/cfe_evs_task.c ****             {
 642:/home/simulink/cFS_FreeRTOS_seL4/cfe/fsw/cfe-core/src/evs/cfe_evs_task.c ****                Valid = CFE_EVS_SetLoggingModeCmd(Payload);
 1348               	.loc 1 642 0
 1349 0a92 2F2F 0004 	move.l 4(%sp),-(%sp)
 1350               	.cfi_def_cfa_offset 20
 1351 0a96 4EB9 0000 	jsr CFE_EVS_SetLoggingModeCmd
 1351      0000 
 1352 0a9c 588F      	addq.l #4,%sp
 1353               	.cfi_def_cfa_offset 16
 1354 0a9e 1F40 000B 	move.b %d0,11(%sp)
 643:/home/simulink/cFS_FreeRTOS_seL4/cfe/fsw/cfe-core/src/evs/cfe_evs_task.c ****             }
 644:/home/simulink/cFS_FreeRTOS_seL4/cfe/fsw/cfe-core/src/evs/cfe_evs_task.c ****          }
 645:/home/simulink/cFS_FreeRTOS_seL4/cfe/fsw/cfe-core/src/evs/cfe_evs_task.c ****          else
68K GAS   			page 41


 646:/home/simulink/cFS_FreeRTOS_seL4/cfe/fsw/cfe-core/src/evs/cfe_evs_task.c ****          {
 647:/home/simulink/cFS_FreeRTOS_seL4/cfe/fsw/cfe-core/src/evs/cfe_evs_task.c ****             EVS_SendEvent(CFE_EVS_NO_LOGSET_EID, CFE_EVS_ERROR,
 648:/home/simulink/cFS_FreeRTOS_seL4/cfe/fsw/cfe-core/src/evs/cfe_evs_task.c ****                "Set Log Mode Command: Event Log is Disabled");
 649:/home/simulink/cFS_FreeRTOS_seL4/cfe/fsw/cfe-core/src/evs/cfe_evs_task.c ****          }
 650:/home/simulink/cFS_FreeRTOS_seL4/cfe/fsw/cfe-core/src/evs/cfe_evs_task.c ****          break;
 1355               	.loc 1 650 0
 1356 0aa2 6000 016A 	jra .L110
 1357               	.L81:
 647:/home/simulink/cFS_FreeRTOS_seL4/cfe/fsw/cfe-core/src/evs/cfe_evs_task.c ****                "Set Log Mode Command: Event Log is Disabled");
 1358               	.loc 1 647 0
 1359 0aa6 4879 0000 	pea .LC19
 1359      0000 
 1360               	.cfi_def_cfa_offset 20
 1361 0aac 4878 0003 	pea 3.w
 1362               	.cfi_def_cfa_offset 24
 1363 0ab0 4878 0022 	pea 34.w
 1364               	.cfi_def_cfa_offset 28
 1365 0ab4 4EB9 0000 	jsr EVS_SendEvent
 1365      0000 
 1366 0aba 4FEF 000C 	lea (12,%sp),%sp
 1367               	.cfi_def_cfa_offset 16
 1368               	.loc 1 650 0
 1369 0abe 6000 014E 	jra .L110
 1370               	.L60:
 651:/home/simulink/cFS_FreeRTOS_seL4/cfe/fsw/cfe-core/src/evs/cfe_evs_task.c **** 
 652:/home/simulink/cFS_FreeRTOS_seL4/cfe/fsw/cfe-core/src/evs/cfe_evs_task.c ****       case CFE_EVS_CLEAR_LOG_CC:
 653:/home/simulink/cFS_FreeRTOS_seL4/cfe/fsw/cfe-core/src/evs/cfe_evs_task.c **** 
 654:/home/simulink/cFS_FreeRTOS_seL4/cfe/fsw/cfe-core/src/evs/cfe_evs_task.c ****          if (CFE_EVS_GlobalData.EVS_TlmPkt.Payload.LogEnabled == TRUE)
 1371               	.loc 1 654 0
 1372 0ac2 1039 0000 	move.b CFE_EVS_GlobalData+2268,%d0
 1372      0000 
 1373 0ac8 1000      	move.b %d0,%d0
 1374 0aca 0280 0000 	and.l #255,%d0
 1374      00FF 
 1375 0ad0 7201      	moveq #1,%d1
 1376 0ad2 B280      	cmp.l %d0,%d1
 1377 0ad4 662C      	jne .L84
 655:/home/simulink/cFS_FreeRTOS_seL4/cfe/fsw/cfe-core/src/evs/cfe_evs_task.c ****          {   
 656:/home/simulink/cFS_FreeRTOS_seL4/cfe/fsw/cfe-core/src/evs/cfe_evs_task.c ****             if ((Valid = CFE_EVS_VerifyCmdLength(EVS_MsgPtr, sizeof(CFE_SB_CmdHdr_t))) == TRUE)
 1378               	.loc 1 656 0
 1379 0ad6 4878 0008 	pea 8.w
 1380               	.cfi_def_cfa_offset 20
 1381 0ada 2F2F 0014 	move.l 20(%sp),-(%sp)
 1382               	.cfi_def_cfa_offset 24
 1383 0ade 4EB9 0000 	jsr CFE_EVS_VerifyCmdLength
 1383      0000 
 1384 0ae4 508F      	addq.l #8,%sp
 1385               	.cfi_def_cfa_offset 16
 1386 0ae6 1F40 000B 	move.b %d0,11(%sp)
 1387 0aea 4280      	clr.l %d0
 1388 0aec 102F 000B 	move.b 11(%sp),%d0
 1389 0af0 7201      	moveq #1,%d1
 1390 0af2 B280      	cmp.l %d0,%d1
 1391 0af4 6600 011C 	jne .L111
 657:/home/simulink/cFS_FreeRTOS_seL4/cfe/fsw/cfe-core/src/evs/cfe_evs_task.c ****             {
 658:/home/simulink/cFS_FreeRTOS_seL4/cfe/fsw/cfe-core/src/evs/cfe_evs_task.c ****                EVS_ClearLog();
 1392               	.loc 1 658 0
68K GAS   			page 42


 1393 0af8 4EB9 0000 	jsr EVS_ClearLog
 1393      0000 
 659:/home/simulink/cFS_FreeRTOS_seL4/cfe/fsw/cfe-core/src/evs/cfe_evs_task.c ****             }
 660:/home/simulink/cFS_FreeRTOS_seL4/cfe/fsw/cfe-core/src/evs/cfe_evs_task.c ****          }
 661:/home/simulink/cFS_FreeRTOS_seL4/cfe/fsw/cfe-core/src/evs/cfe_evs_task.c ****          else
 662:/home/simulink/cFS_FreeRTOS_seL4/cfe/fsw/cfe-core/src/evs/cfe_evs_task.c ****          {
 663:/home/simulink/cFS_FreeRTOS_seL4/cfe/fsw/cfe-core/src/evs/cfe_evs_task.c ****             EVS_SendEvent(CFE_EVS_NO_LOGCLR_EID, CFE_EVS_ERROR,
 664:/home/simulink/cFS_FreeRTOS_seL4/cfe/fsw/cfe-core/src/evs/cfe_evs_task.c ****                          "Clear Log Command: Event Log is Disabled");
 665:/home/simulink/cFS_FreeRTOS_seL4/cfe/fsw/cfe-core/src/evs/cfe_evs_task.c ****          }
 666:/home/simulink/cFS_FreeRTOS_seL4/cfe/fsw/cfe-core/src/evs/cfe_evs_task.c ****          break;
 1394               	.loc 1 666 0
 1395 0afe 6000 0112 	jra .L111
 1396               	.L84:
 663:/home/simulink/cFS_FreeRTOS_seL4/cfe/fsw/cfe-core/src/evs/cfe_evs_task.c ****                          "Clear Log Command: Event Log is Disabled");
 1397               	.loc 1 663 0
 1398 0b02 4879 0000 	pea .LC20
 1398      0000 
 1399               	.cfi_def_cfa_offset 20
 1400 0b08 4878 0003 	pea 3.w
 1401               	.cfi_def_cfa_offset 24
 1402 0b0c 4878 0023 	pea 35.w
 1403               	.cfi_def_cfa_offset 28
 1404 0b10 4EB9 0000 	jsr EVS_SendEvent
 1404      0000 
 1405 0b16 4FEF 000C 	lea (12,%sp),%sp
 1406               	.cfi_def_cfa_offset 16
 1407               	.loc 1 666 0
 1408 0b1a 6000 00F6 	jra .L111
 1409               	.L58:
 667:/home/simulink/cFS_FreeRTOS_seL4/cfe/fsw/cfe-core/src/evs/cfe_evs_task.c **** 
 668:/home/simulink/cFS_FreeRTOS_seL4/cfe/fsw/cfe-core/src/evs/cfe_evs_task.c ****       case CFE_EVS_FILE_WRITE_LOG_DATA_CC:
 669:/home/simulink/cFS_FreeRTOS_seL4/cfe/fsw/cfe-core/src/evs/cfe_evs_task.c **** 
 670:/home/simulink/cFS_FreeRTOS_seL4/cfe/fsw/cfe-core/src/evs/cfe_evs_task.c ****          if (CFE_EVS_GlobalData.EVS_TlmPkt.Payload.LogEnabled == TRUE)
 1410               	.loc 1 670 0
 1411 0b1e 1039 0000 	move.b CFE_EVS_GlobalData+2268,%d0
 1411      0000 
 1412 0b24 1000      	move.b %d0,%d0
 1413 0b26 0280 0000 	and.l #255,%d0
 1413      00FF 
 1414 0b2c 7201      	moveq #1,%d1
 1415 0b2e B280      	cmp.l %d0,%d1
 1416 0b30 6636      	jne .L87
 671:/home/simulink/cFS_FreeRTOS_seL4/cfe/fsw/cfe-core/src/evs/cfe_evs_task.c ****          {   
 672:/home/simulink/cFS_FreeRTOS_seL4/cfe/fsw/cfe-core/src/evs/cfe_evs_task.c ****             if ((Valid = CFE_EVS_VerifyCmdLength(EVS_MsgPtr, sizeof(CFE_EVS_LogFileCmd_t))) == TRUE
 1417               	.loc 1 672 0
 1418 0b32 4878 0048 	pea 72.w
 1419               	.cfi_def_cfa_offset 20
 1420 0b36 2F2F 0014 	move.l 20(%sp),-(%sp)
 1421               	.cfi_def_cfa_offset 24
 1422 0b3a 4EB9 0000 	jsr CFE_EVS_VerifyCmdLength
 1422      0000 
 1423 0b40 508F      	addq.l #8,%sp
 1424               	.cfi_def_cfa_offset 16
 1425 0b42 1F40 000B 	move.b %d0,11(%sp)
 1426 0b46 4280      	clr.l %d0
 1427 0b48 102F 000B 	move.b 11(%sp),%d0
 1428 0b4c 7201      	moveq #1,%d1
68K GAS   			page 43


 1429 0b4e B280      	cmp.l %d0,%d1
 1430 0b50 6600 00C4 	jne .L112
 673:/home/simulink/cFS_FreeRTOS_seL4/cfe/fsw/cfe-core/src/evs/cfe_evs_task.c ****             {
 674:/home/simulink/cFS_FreeRTOS_seL4/cfe/fsw/cfe-core/src/evs/cfe_evs_task.c ****                Valid = CFE_EVS_WriteLogFileCmd(Payload);
 1431               	.loc 1 674 0
 1432 0b54 2F2F 0004 	move.l 4(%sp),-(%sp)
 1433               	.cfi_def_cfa_offset 20
 1434 0b58 4EB9 0000 	jsr CFE_EVS_WriteLogFileCmd
 1434      0000 
 1435 0b5e 588F      	addq.l #4,%sp
 1436               	.cfi_def_cfa_offset 16
 1437 0b60 1F40 000B 	move.b %d0,11(%sp)
 675:/home/simulink/cFS_FreeRTOS_seL4/cfe/fsw/cfe-core/src/evs/cfe_evs_task.c ****             }
 676:/home/simulink/cFS_FreeRTOS_seL4/cfe/fsw/cfe-core/src/evs/cfe_evs_task.c ****          }
 677:/home/simulink/cFS_FreeRTOS_seL4/cfe/fsw/cfe-core/src/evs/cfe_evs_task.c ****          else
 678:/home/simulink/cFS_FreeRTOS_seL4/cfe/fsw/cfe-core/src/evs/cfe_evs_task.c ****          {
 679:/home/simulink/cFS_FreeRTOS_seL4/cfe/fsw/cfe-core/src/evs/cfe_evs_task.c ****             EVS_SendEvent(CFE_EVS_NO_LOGWR_EID, CFE_EVS_ERROR,
 680:/home/simulink/cFS_FreeRTOS_seL4/cfe/fsw/cfe-core/src/evs/cfe_evs_task.c ****                          "Write Log Command: Event Log is Disabled");
 681:/home/simulink/cFS_FreeRTOS_seL4/cfe/fsw/cfe-core/src/evs/cfe_evs_task.c ****          }
 682:/home/simulink/cFS_FreeRTOS_seL4/cfe/fsw/cfe-core/src/evs/cfe_evs_task.c ****          break;
 1438               	.loc 1 682 0
 1439 0b64 6000 00B0 	jra .L112
 1440               	.L87:
 679:/home/simulink/cFS_FreeRTOS_seL4/cfe/fsw/cfe-core/src/evs/cfe_evs_task.c ****                          "Write Log Command: Event Log is Disabled");
 1441               	.loc 1 679 0
 1442 0b68 4879 0000 	pea .LC21
 1442      0000 
 1443               	.cfi_def_cfa_offset 20
 1444 0b6e 4878 0003 	pea 3.w
 1445               	.cfi_def_cfa_offset 24
 1446 0b72 4878 0024 	pea 36.w
 1447               	.cfi_def_cfa_offset 28
 1448 0b76 4EB9 0000 	jsr EVS_SendEvent
 1448      0000 
 1449 0b7c 4FEF 000C 	lea (12,%sp),%sp
 1450               	.cfi_def_cfa_offset 16
 1451               	.loc 1 682 0
 1452 0b80 6000 0094 	jra .L112
 1453               	.L38:
 683:/home/simulink/cFS_FreeRTOS_seL4/cfe/fsw/cfe-core/src/evs/cfe_evs_task.c **** 
 684:/home/simulink/cFS_FreeRTOS_seL4/cfe/fsw/cfe-core/src/evs/cfe_evs_task.c ****        /* default is a bad command code as it was not found above */
 685:/home/simulink/cFS_FreeRTOS_seL4/cfe/fsw/cfe-core/src/evs/cfe_evs_task.c ****        default:
 686:/home/simulink/cFS_FreeRTOS_seL4/cfe/fsw/cfe-core/src/evs/cfe_evs_task.c **** 
 687:/home/simulink/cFS_FreeRTOS_seL4/cfe/fsw/cfe-core/src/evs/cfe_evs_task.c ****           EVS_SendEvent(CFE_EVS_ERR_CC_EID, CFE_EVS_ERROR,
 688:/home/simulink/cFS_FreeRTOS_seL4/cfe/fsw/cfe-core/src/evs/cfe_evs_task.c ****                        "Invalid command code -- ID = 0x%08x, CC = %d",
 689:/home/simulink/cFS_FreeRTOS_seL4/cfe/fsw/cfe-core/src/evs/cfe_evs_task.c ****                         (unsigned int)CFE_SB_GetMsgId(EVS_MsgPtr), (int)CFE_SB_GetCmdCode(EVS_MsgPt
 1454               	.loc 1 689 0
 1455 0b84 2F2F 0010 	move.l 16(%sp),-(%sp)
 1456               	.cfi_def_cfa_offset 20
 1457 0b88 4EB9 0000 	jsr CFE_SB_GetCmdCode
 1457      0000 
 1458 0b8e 588F      	addq.l #4,%sp
 1459               	.cfi_def_cfa_offset 16
 687:/home/simulink/cFS_FreeRTOS_seL4/cfe/fsw/cfe-core/src/evs/cfe_evs_task.c ****                        "Invalid command code -- ID = 0x%08x, CC = %d",
 1460               	.loc 1 687 0
 1461 0b90 4282      	clr.l %d2
 1462 0b92 3400      	move.w %d0,%d2
68K GAS   			page 44


 1463               	.loc 1 689 0
 1464 0b94 2F2F 0010 	move.l 16(%sp),-(%sp)
 1465               	.cfi_def_cfa_offset 20
 1466 0b98 4EB9 0000 	jsr CFE_SB_GetMsgId
 1466      0000 
 1467 0b9e 588F      	addq.l #4,%sp
 1468               	.cfi_def_cfa_offset 16
 687:/home/simulink/cFS_FreeRTOS_seL4/cfe/fsw/cfe-core/src/evs/cfe_evs_task.c ****                        "Invalid command code -- ID = 0x%08x, CC = %d",
 1469               	.loc 1 687 0
 1470 0ba0 3000      	move.w %d0,%d0
 1471 0ba2 0280 0000 	and.l #65535,%d0
 1471      FFFF 
 1472 0ba8 2F02      	move.l %d2,-(%sp)
 1473               	.cfi_def_cfa_offset 20
 1474 0baa 2F00      	move.l %d0,-(%sp)
 1475               	.cfi_def_cfa_offset 24
 1476 0bac 4879 0000 	pea .LC22
 1476      0000 
 1477               	.cfi_def_cfa_offset 28
 1478 0bb2 4878 0003 	pea 3.w
 1479               	.cfi_def_cfa_offset 32
 1480 0bb6 4878 000F 	pea 15.w
 1481               	.cfi_def_cfa_offset 36
 1482 0bba 4EB9 0000 	jsr EVS_SendEvent
 1482      0000 
 1483 0bc0 4FEF 0014 	lea (20,%sp),%sp
 1484               	.cfi_def_cfa_offset 16
 690:/home/simulink/cFS_FreeRTOS_seL4/cfe/fsw/cfe-core/src/evs/cfe_evs_task.c ****           break;
 1485               	.loc 1 690 0
 1486 0bc4 6052      	jra .L62
 1487               	.L92:
 496:/home/simulink/cFS_FreeRTOS_seL4/cfe/fsw/cfe-core/src/evs/cfe_evs_task.c **** 
 1488               	.loc 1 496 0
 1489 0bc6 4E71      	nop
 1490 0bc8 604E      	jra .L62
 1491               	.L93:
 506:/home/simulink/cFS_FreeRTOS_seL4/cfe/fsw/cfe-core/src/evs/cfe_evs_task.c **** 
 1492               	.loc 1 506 0
 1493 0bca 4E71      	nop
 1494 0bcc 604A      	jra .L62
 1495               	.L94:
 514:/home/simulink/cFS_FreeRTOS_seL4/cfe/fsw/cfe-core/src/evs/cfe_evs_task.c **** 
 1496               	.loc 1 514 0
 1497 0bce 4E71      	nop
 1498 0bd0 6046      	jra .L62
 1499               	.L95:
 522:/home/simulink/cFS_FreeRTOS_seL4/cfe/fsw/cfe-core/src/evs/cfe_evs_task.c **** 
 1500               	.loc 1 522 0
 1501 0bd2 4E71      	nop
 1502 0bd4 6042      	jra .L62
 1503               	.L96:
 530:/home/simulink/cFS_FreeRTOS_seL4/cfe/fsw/cfe-core/src/evs/cfe_evs_task.c **** 
 1504               	.loc 1 530 0
 1505 0bd6 4E71      	nop
 1506 0bd8 603E      	jra .L62
 1507               	.L97:
 538:/home/simulink/cFS_FreeRTOS_seL4/cfe/fsw/cfe-core/src/evs/cfe_evs_task.c **** 
68K GAS   			page 45


 1508               	.loc 1 538 0
 1509 0bda 4E71      	nop
 1510 0bdc 603A      	jra .L62
 1511               	.L98:
 546:/home/simulink/cFS_FreeRTOS_seL4/cfe/fsw/cfe-core/src/evs/cfe_evs_task.c **** 
 1512               	.loc 1 546 0
 1513 0bde 4E71      	nop
 1514 0be0 6036      	jra .L62
 1515               	.L99:
 554:/home/simulink/cFS_FreeRTOS_seL4/cfe/fsw/cfe-core/src/evs/cfe_evs_task.c **** 
 1516               	.loc 1 554 0
 1517 0be2 4E71      	nop
 1518 0be4 6032      	jra .L62
 1519               	.L100:
 562:/home/simulink/cFS_FreeRTOS_seL4/cfe/fsw/cfe-core/src/evs/cfe_evs_task.c **** 
 1520               	.loc 1 562 0
 1521 0be6 4E71      	nop
 1522 0be8 602E      	jra .L62
 1523               	.L101:
 570:/home/simulink/cFS_FreeRTOS_seL4/cfe/fsw/cfe-core/src/evs/cfe_evs_task.c **** 
 1524               	.loc 1 570 0
 1525 0bea 4E71      	nop
 1526 0bec 602A      	jra .L62
 1527               	.L102:
 578:/home/simulink/cFS_FreeRTOS_seL4/cfe/fsw/cfe-core/src/evs/cfe_evs_task.c **** 
 1528               	.loc 1 578 0
 1529 0bee 4E71      	nop
 1530 0bf0 6026      	jra .L62
 1531               	.L103:
 586:/home/simulink/cFS_FreeRTOS_seL4/cfe/fsw/cfe-core/src/evs/cfe_evs_task.c **** 
 1532               	.loc 1 586 0
 1533 0bf2 4E71      	nop
 1534 0bf4 6022      	jra .L62
 1535               	.L104:
 594:/home/simulink/cFS_FreeRTOS_seL4/cfe/fsw/cfe-core/src/evs/cfe_evs_task.c **** 
 1536               	.loc 1 594 0
 1537 0bf6 4E71      	nop
 1538 0bf8 601E      	jra .L62
 1539               	.L105:
 602:/home/simulink/cFS_FreeRTOS_seL4/cfe/fsw/cfe-core/src/evs/cfe_evs_task.c **** 
 1540               	.loc 1 602 0
 1541 0bfa 4E71      	nop
 1542 0bfc 601A      	jra .L62
 1543               	.L106:
 610:/home/simulink/cFS_FreeRTOS_seL4/cfe/fsw/cfe-core/src/evs/cfe_evs_task.c **** 
 1544               	.loc 1 610 0
 1545 0bfe 4E71      	nop
 1546 0c00 6016      	jra .L62
 1547               	.L107:
 618:/home/simulink/cFS_FreeRTOS_seL4/cfe/fsw/cfe-core/src/evs/cfe_evs_task.c **** 
 1548               	.loc 1 618 0
 1549 0c02 4E71      	nop
 1550 0c04 6012      	jra .L62
 1551               	.L108:
 626:/home/simulink/cFS_FreeRTOS_seL4/cfe/fsw/cfe-core/src/evs/cfe_evs_task.c **** 
 1552               	.loc 1 626 0
 1553 0c06 4E71      	nop
68K GAS   			page 46


 1554 0c08 600E      	jra .L62
 1555               	.L109:
 634:/home/simulink/cFS_FreeRTOS_seL4/cfe/fsw/cfe-core/src/evs/cfe_evs_task.c **** 
 1556               	.loc 1 634 0
 1557 0c0a 4E71      	nop
 1558 0c0c 600A      	jra .L62
 1559               	.L110:
 650:/home/simulink/cFS_FreeRTOS_seL4/cfe/fsw/cfe-core/src/evs/cfe_evs_task.c **** 
 1560               	.loc 1 650 0
 1561 0c0e 4E71      	nop
 1562 0c10 6006      	jra .L62
 1563               	.L111:
 666:/home/simulink/cFS_FreeRTOS_seL4/cfe/fsw/cfe-core/src/evs/cfe_evs_task.c **** 
 1564               	.loc 1 666 0
 1565 0c12 4E71      	nop
 1566 0c14 6002      	jra .L62
 1567               	.L112:
 682:/home/simulink/cFS_FreeRTOS_seL4/cfe/fsw/cfe-core/src/evs/cfe_evs_task.c **** 
 1568               	.loc 1 682 0
 1569 0c16 4E71      	nop
 1570               	.L62:
 691:/home/simulink/cFS_FreeRTOS_seL4/cfe/fsw/cfe-core/src/evs/cfe_evs_task.c ****    }
 692:/home/simulink/cFS_FreeRTOS_seL4/cfe/fsw/cfe-core/src/evs/cfe_evs_task.c **** 
 693:/home/simulink/cFS_FreeRTOS_seL4/cfe/fsw/cfe-core/src/evs/cfe_evs_task.c ****    if (Valid == TRUE)
 1571               	.loc 1 693 0
 1572 0c18 4280      	clr.l %d0
 1573 0c1a 102F 000B 	move.b 11(%sp),%d0
 1574 0c1e 7201      	moveq #1,%d1
 1575 0c20 B280      	cmp.l %d0,%d1
 1576 0c22 6612      	jne .L90
 694:/home/simulink/cFS_FreeRTOS_seL4/cfe/fsw/cfe-core/src/evs/cfe_evs_task.c ****    {
 695:/home/simulink/cFS_FreeRTOS_seL4/cfe/fsw/cfe-core/src/evs/cfe_evs_task.c ****       CFE_EVS_GlobalData.EVS_TlmPkt.Payload.CommandCounter++;
 1577               	.loc 1 695 0
 1578 0c24 1039 0000 	move.b CFE_EVS_GlobalData+2256,%d0
 1578      0000 
 1579 0c2a 5280      	addq.l #1,%d0
 1580 0c2c 1000      	move.b %d0,%d0
 1581 0c2e 13C0 0000 	move.b %d0,CFE_EVS_GlobalData+2256
 1581      0000 
 696:/home/simulink/cFS_FreeRTOS_seL4/cfe/fsw/cfe-core/src/evs/cfe_evs_task.c ****    }
 697:/home/simulink/cFS_FreeRTOS_seL4/cfe/fsw/cfe-core/src/evs/cfe_evs_task.c ****    else
 698:/home/simulink/cFS_FreeRTOS_seL4/cfe/fsw/cfe-core/src/evs/cfe_evs_task.c ****    {
 699:/home/simulink/cFS_FreeRTOS_seL4/cfe/fsw/cfe-core/src/evs/cfe_evs_task.c ****       CFE_EVS_GlobalData.EVS_TlmPkt.Payload.CommandErrCounter++;
 700:/home/simulink/cFS_FreeRTOS_seL4/cfe/fsw/cfe-core/src/evs/cfe_evs_task.c ****    }
 701:/home/simulink/cFS_FreeRTOS_seL4/cfe/fsw/cfe-core/src/evs/cfe_evs_task.c **** 
 702:/home/simulink/cFS_FreeRTOS_seL4/cfe/fsw/cfe-core/src/evs/cfe_evs_task.c ****    return;
 1582               	.loc 1 702 0
 1583 0c34 6012      	jra .L37
 1584               	.L90:
 699:/home/simulink/cFS_FreeRTOS_seL4/cfe/fsw/cfe-core/src/evs/cfe_evs_task.c ****    }
 1585               	.loc 1 699 0
 1586 0c36 1039 0000 	move.b CFE_EVS_GlobalData+2257,%d0
 1586      0000 
 1587 0c3c 5280      	addq.l #1,%d0
 1588 0c3e 1000      	move.b %d0,%d0
 1589 0c40 13C0 0000 	move.b %d0,CFE_EVS_GlobalData+2257
 1589      0000 
68K GAS   			page 47


 1590               	.loc 1 702 0
 1591 0c46 4E71      	nop
 1592               	.L37:
 703:/home/simulink/cFS_FreeRTOS_seL4/cfe/fsw/cfe-core/src/evs/cfe_evs_task.c **** 
 704:/home/simulink/cFS_FreeRTOS_seL4/cfe/fsw/cfe-core/src/evs/cfe_evs_task.c **** } /* End of EVS_ProcessGroundCommand() */
 1593               	.loc 1 704 0
 1594 0c48 241F      	move.l (%sp)+,%d2
 1595 0c4a 508F      	addq.l #8,%sp
 1596 0c4c 4E75      	rts
 1597               	.cfi_endproc
 1598               	.LFE64:
 1599               	.sizeCFE_EVS_ProcessGroundCommand, .-CFE_EVS_ProcessGroundCommand
 1600               	.section.rodata
 1601               	.LC23:
 1602 03f2 496E 7661 	.string"Invalid cmd length: ID = 0x%X, CC = %d, Exp Len = %d, Len = %d"
 1602      6C69 6420 
 1602      636D 6420 
 1602      6C65 6E67 
 1602      7468 3A20 
 1603               	.text
 1604               	.align2
 1605               	.globlCFE_EVS_VerifyCmdLength
 1606               	.typeCFE_EVS_VerifyCmdLength, @function
 1607               	CFE_EVS_VerifyCmdLength:
 1608               	.LFB65:
 705:/home/simulink/cFS_FreeRTOS_seL4/cfe/fsw/cfe-core/src/evs/cfe_evs_task.c **** 
 706:/home/simulink/cFS_FreeRTOS_seL4/cfe/fsw/cfe-core/src/evs/cfe_evs_task.c **** 
 707:/home/simulink/cFS_FreeRTOS_seL4/cfe/fsw/cfe-core/src/evs/cfe_evs_task.c **** /*
 708:/home/simulink/cFS_FreeRTOS_seL4/cfe/fsw/cfe-core/src/evs/cfe_evs_task.c **** **             Function Prologue
 709:/home/simulink/cFS_FreeRTOS_seL4/cfe/fsw/cfe-core/src/evs/cfe_evs_task.c **** **
 710:/home/simulink/cFS_FreeRTOS_seL4/cfe/fsw/cfe-core/src/evs/cfe_evs_task.c **** ** Function Name:      CFE_EVS_VerifyCmdLength
 711:/home/simulink/cFS_FreeRTOS_seL4/cfe/fsw/cfe-core/src/evs/cfe_evs_task.c **** **
 712:/home/simulink/cFS_FreeRTOS_seL4/cfe/fsw/cfe-core/src/evs/cfe_evs_task.c **** ** Purpose:  This function validates the length of incoming commands.
 713:/home/simulink/cFS_FreeRTOS_seL4/cfe/fsw/cfe-core/src/evs/cfe_evs_task.c **** **
 714:/home/simulink/cFS_FreeRTOS_seL4/cfe/fsw/cfe-core/src/evs/cfe_evs_task.c **** ** Assumptions and Notes:
 715:/home/simulink/cFS_FreeRTOS_seL4/cfe/fsw/cfe-core/src/evs/cfe_evs_task.c **** **
 716:/home/simulink/cFS_FreeRTOS_seL4/cfe/fsw/cfe-core/src/evs/cfe_evs_task.c **** */
 717:/home/simulink/cFS_FreeRTOS_seL4/cfe/fsw/cfe-core/src/evs/cfe_evs_task.c **** boolean CFE_EVS_VerifyCmdLength(CFE_SB_MsgPtr_t Msg, uint16 ExpectedLength)
 718:/home/simulink/cFS_FreeRTOS_seL4/cfe/fsw/cfe-core/src/evs/cfe_evs_task.c **** {
 1609               	.loc 1 718 0
 1610               	.cfi_startproc
 1611 0c4e 4FEF FFF4 	lea (-12,%sp),%sp
 1612               	.cfi_def_cfa_offset 16
 1613 0c52 2F03      	move.l %d3,-(%sp)
 1614               	.cfi_def_cfa_offset 20
 1615               	.cfi_offset 3, -20
 1616 0c54 2F02      	move.l %d2,-(%sp)
 1617               	.cfi_def_cfa_offset 24
 1618               	.cfi_offset 2, -24
 1619 0c56 202F 001C 	move.l 28(%sp),%d0
 1620 0c5a 3000      	move.w %d0,%d0
 1621 0c5c 3F40 0008 	move.w %d0,8(%sp)
 719:/home/simulink/cFS_FreeRTOS_seL4/cfe/fsw/cfe-core/src/evs/cfe_evs_task.c ****     boolean result       = TRUE;
 1622               	.loc 1 719 0
 1623 0c60 7001      	moveq #1,%d0
 1624 0c62 1F40 0013 	move.b %d0,19(%sp)
 720:/home/simulink/cFS_FreeRTOS_seL4/cfe/fsw/cfe-core/src/evs/cfe_evs_task.c ****     uint16  ActualLength = CFE_SB_GetTotalMsgLength(Msg);
68K GAS   			page 48


 1625               	.loc 1 720 0
 1626 0c66 2F2F 0018 	move.l 24(%sp),-(%sp)
 1627               	.cfi_def_cfa_offset 28
 1628 0c6a 4EB9 0000 	jsr CFE_SB_GetTotalMsgLength
 1628      0000 
 1629 0c70 588F      	addq.l #4,%sp
 1630               	.cfi_def_cfa_offset 24
 1631 0c72 3F40 0010 	move.w %d0,16(%sp)
 721:/home/simulink/cFS_FreeRTOS_seL4/cfe/fsw/cfe-core/src/evs/cfe_evs_task.c **** 
 722:/home/simulink/cFS_FreeRTOS_seL4/cfe/fsw/cfe-core/src/evs/cfe_evs_task.c ****     /*
 723:/home/simulink/cFS_FreeRTOS_seL4/cfe/fsw/cfe-core/src/evs/cfe_evs_task.c ****     ** Verify the command packet length
 724:/home/simulink/cFS_FreeRTOS_seL4/cfe/fsw/cfe-core/src/evs/cfe_evs_task.c ****     */
 725:/home/simulink/cFS_FreeRTOS_seL4/cfe/fsw/cfe-core/src/evs/cfe_evs_task.c ****     if (ExpectedLength != ActualLength)
 1632               	.loc 1 725 0
 1633 0c76 4281      	clr.l %d1
 1634 0c78 322F 0008 	move.w 8(%sp),%d1
 1635 0c7c 4280      	clr.l %d0
 1636 0c7e 302F 0010 	move.w 16(%sp),%d0
 1637 0c82 B081      	cmp.l %d1,%d0
 1638 0c84 675E      	jeq .L114
 1639               	.LBB2:
 726:/home/simulink/cFS_FreeRTOS_seL4/cfe/fsw/cfe-core/src/evs/cfe_evs_task.c ****     {
 727:/home/simulink/cFS_FreeRTOS_seL4/cfe/fsw/cfe-core/src/evs/cfe_evs_task.c ****         CFE_SB_MsgId_t MessageID = CFE_SB_GetMsgId(Msg);
 1640               	.loc 1 727 0
 1641 0c86 2F2F 0018 	move.l 24(%sp),-(%sp)
 1642               	.cfi_def_cfa_offset 28
 1643 0c8a 4EB9 0000 	jsr CFE_SB_GetMsgId
 1643      0000 
 1644 0c90 588F      	addq.l #4,%sp
 1645               	.cfi_def_cfa_offset 24
 1646 0c92 3F40 000E 	move.w %d0,14(%sp)
 728:/home/simulink/cFS_FreeRTOS_seL4/cfe/fsw/cfe-core/src/evs/cfe_evs_task.c ****         uint16 CommandCode = CFE_SB_GetCmdCode(Msg);
 1647               	.loc 1 728 0
 1648 0c96 2F2F 0018 	move.l 24(%sp),-(%sp)
 1649               	.cfi_def_cfa_offset 28
 1650 0c9a 4EB9 0000 	jsr CFE_SB_GetCmdCode
 1650      0000 
 1651 0ca0 588F      	addq.l #4,%sp
 1652               	.cfi_def_cfa_offset 24
 1653 0ca2 3F40 000C 	move.w %d0,12(%sp)
 729:/home/simulink/cFS_FreeRTOS_seL4/cfe/fsw/cfe-core/src/evs/cfe_evs_task.c **** 
 730:/home/simulink/cFS_FreeRTOS_seL4/cfe/fsw/cfe-core/src/evs/cfe_evs_task.c ****         EVS_SendEvent(CFE_EVS_LEN_ERR_EID, CFE_EVS_ERROR,
 1654               	.loc 1 730 0
 1655 0ca6 4283      	clr.l %d3
 1656 0ca8 362F 0010 	move.w 16(%sp),%d3
 1657 0cac 4282      	clr.l %d2
 1658 0cae 342F 0008 	move.w 8(%sp),%d2
 1659 0cb2 4281      	clr.l %d1
 1660 0cb4 322F 000C 	move.w 12(%sp),%d1
 1661 0cb8 4280      	clr.l %d0
 1662 0cba 302F 000E 	move.w 14(%sp),%d0
 1663 0cbe 2F03      	move.l %d3,-(%sp)
 1664               	.cfi_def_cfa_offset 28
 1665 0cc0 2F02      	move.l %d2,-(%sp)
 1666               	.cfi_def_cfa_offset 32
 1667 0cc2 2F01      	move.l %d1,-(%sp)
 1668               	.cfi_def_cfa_offset 36
68K GAS   			page 49


 1669 0cc4 2F00      	move.l %d0,-(%sp)
 1670               	.cfi_def_cfa_offset 40
 1671 0cc6 4879 0000 	pea .LC23
 1671      0000 
 1672               	.cfi_def_cfa_offset 44
 1673 0ccc 4878 0003 	pea 3.w
 1674               	.cfi_def_cfa_offset 48
 1675 0cd0 4878 002B 	pea 43.w
 1676               	.cfi_def_cfa_offset 52
 1677 0cd4 4EB9 0000 	jsr EVS_SendEvent
 1677      0000 
 1678 0cda 4FEF 001C 	lea (28,%sp),%sp
 1679               	.cfi_def_cfa_offset 24
 731:/home/simulink/cFS_FreeRTOS_seL4/cfe/fsw/cfe-core/src/evs/cfe_evs_task.c ****            "Invalid cmd length: ID = 0x%X, CC = %d, Exp Len = %d, Len = %d",
 732:/home/simulink/cFS_FreeRTOS_seL4/cfe/fsw/cfe-core/src/evs/cfe_evs_task.c ****                           (unsigned int)MessageID, (int)CommandCode, (int)ExpectedLength, (int)Actu
 733:/home/simulink/cFS_FreeRTOS_seL4/cfe/fsw/cfe-core/src/evs/cfe_evs_task.c ****         result = FALSE;
 1680               	.loc 1 733 0
 1681 0cde 4200      	clr.b %d0
 1682 0ce0 1F40 0013 	move.b %d0,19(%sp)
 1683               	.L114:
 1684               	.LBE2:
 734:/home/simulink/cFS_FreeRTOS_seL4/cfe/fsw/cfe-core/src/evs/cfe_evs_task.c ****     }
 735:/home/simulink/cFS_FreeRTOS_seL4/cfe/fsw/cfe-core/src/evs/cfe_evs_task.c **** 
 736:/home/simulink/cFS_FreeRTOS_seL4/cfe/fsw/cfe-core/src/evs/cfe_evs_task.c ****     return(result);
 1685               	.loc 1 736 0
 1686 0ce4 102F 0013 	move.b 19(%sp),%d0
 737:/home/simulink/cFS_FreeRTOS_seL4/cfe/fsw/cfe-core/src/evs/cfe_evs_task.c **** 
 738:/home/simulink/cFS_FreeRTOS_seL4/cfe/fsw/cfe-core/src/evs/cfe_evs_task.c **** } /* End of CFE_EVS_VerifyCmdLength() */
 1687               	.loc 1 738 0
 1688 0ce8 241F      	move.l (%sp)+,%d2
 1689 0cea 261F      	move.l (%sp)+,%d3
 1690 0cec 4FEF 000C 	lea (12,%sp),%sp
 1691 0cf0 4E75      	rts
 1692               	.cfi_endproc
 1693               	.LFE65:
 1694               	.sizeCFE_EVS_VerifyCmdLength, .-CFE_EVS_VerifyCmdLength
 1695               	.align2
 1696               	.globlCFE_EVS_ReportHousekeepingCmd
 1697               	.typeCFE_EVS_ReportHousekeepingCmd, @function
 1698               	CFE_EVS_ReportHousekeepingCmd:
 1699               	.LFB66:
 739:/home/simulink/cFS_FreeRTOS_seL4/cfe/fsw/cfe-core/src/evs/cfe_evs_task.c **** 
 740:/home/simulink/cFS_FreeRTOS_seL4/cfe/fsw/cfe-core/src/evs/cfe_evs_task.c **** /*
 741:/home/simulink/cFS_FreeRTOS_seL4/cfe/fsw/cfe-core/src/evs/cfe_evs_task.c **** **             Function Prologue
 742:/home/simulink/cFS_FreeRTOS_seL4/cfe/fsw/cfe-core/src/evs/cfe_evs_task.c **** **
 743:/home/simulink/cFS_FreeRTOS_seL4/cfe/fsw/cfe-core/src/evs/cfe_evs_task.c **** ** Function Name:      CFE_EVS_ReportHousekeepingCmd
 744:/home/simulink/cFS_FreeRTOS_seL4/cfe/fsw/cfe-core/src/evs/cfe_evs_task.c **** **
 745:/home/simulink/cFS_FreeRTOS_seL4/cfe/fsw/cfe-core/src/evs/cfe_evs_task.c **** ** Purpose:  Request for housekeeping status telemetry packet.
 746:/home/simulink/cFS_FreeRTOS_seL4/cfe/fsw/cfe-core/src/evs/cfe_evs_task.c **** **
 747:/home/simulink/cFS_FreeRTOS_seL4/cfe/fsw/cfe-core/src/evs/cfe_evs_task.c **** ** Assumptions and Notes:
 748:/home/simulink/cFS_FreeRTOS_seL4/cfe/fsw/cfe-core/src/evs/cfe_evs_task.c **** **
 749:/home/simulink/cFS_FreeRTOS_seL4/cfe/fsw/cfe-core/src/evs/cfe_evs_task.c **** */
 750:/home/simulink/cFS_FreeRTOS_seL4/cfe/fsw/cfe-core/src/evs/cfe_evs_task.c **** void CFE_EVS_ReportHousekeepingCmd ( void )
 751:/home/simulink/cFS_FreeRTOS_seL4/cfe/fsw/cfe-core/src/evs/cfe_evs_task.c **** {
 1700               	.loc 1 751 0
 1701               	.cfi_startproc
 1702 0cf2 518F      	subq.l #8,%sp
68K GAS   			page 50


 1703               	.cfi_def_cfa_offset 12
 752:/home/simulink/cFS_FreeRTOS_seL4/cfe/fsw/cfe-core/src/evs/cfe_evs_task.c ****    uint32 i, j;
 753:/home/simulink/cFS_FreeRTOS_seL4/cfe/fsw/cfe-core/src/evs/cfe_evs_task.c **** 
 754:/home/simulink/cFS_FreeRTOS_seL4/cfe/fsw/cfe-core/src/evs/cfe_evs_task.c **** 
 755:/home/simulink/cFS_FreeRTOS_seL4/cfe/fsw/cfe-core/src/evs/cfe_evs_task.c ****    if (CFE_EVS_GlobalData.EVS_TlmPkt.Payload.LogEnabled == TRUE)
 1704               	.loc 1 755 0
 1705 0cf4 1039 0000 	move.b CFE_EVS_GlobalData+2268,%d0
 1705      0000 
 1706 0cfa 1000      	move.b %d0,%d0
 1707 0cfc 0280 0000 	and.l #255,%d0
 1707      00FF 
 1708 0d02 7201      	moveq #1,%d1
 1709 0d04 B280      	cmp.l %d0,%d1
 1710 0d06 6630      	jne .L117
 756:/home/simulink/cFS_FreeRTOS_seL4/cfe/fsw/cfe-core/src/evs/cfe_evs_task.c ****    {   
 757:/home/simulink/cFS_FreeRTOS_seL4/cfe/fsw/cfe-core/src/evs/cfe_evs_task.c ****       /* Copy hk variables that are maintained in the event log */
 758:/home/simulink/cFS_FreeRTOS_seL4/cfe/fsw/cfe-core/src/evs/cfe_evs_task.c ****       CFE_EVS_GlobalData.EVS_TlmPkt.Payload.LogFullFlag = CFE_EVS_GlobalData.EVS_LogPtr->LogFullFla
 1711               	.loc 1 758 0
 1712 0d08 2079 0000 	move.l CFE_EVS_GlobalData+2240,%a0
 1712      0000 
 1713 0d0e 1028 0004 	move.b 4(%a0),%d0
 1714 0d12 13C0 0000 	move.b %d0,CFE_EVS_GlobalData+2262
 1714      0000 
 759:/home/simulink/cFS_FreeRTOS_seL4/cfe/fsw/cfe-core/src/evs/cfe_evs_task.c ****       CFE_EVS_GlobalData.EVS_TlmPkt.Payload.LogMode = CFE_EVS_GlobalData.EVS_LogPtr->LogMode;
 1715               	.loc 1 759 0
 1716 0d18 2079 0000 	move.l CFE_EVS_GlobalData+2240,%a0
 1716      0000 
 1717 0d1e 1028 0005 	move.b 5(%a0),%d0
 1718 0d22 13C0 0000 	move.b %d0,CFE_EVS_GlobalData+2263
 1718      0000 
 760:/home/simulink/cFS_FreeRTOS_seL4/cfe/fsw/cfe-core/src/evs/cfe_evs_task.c ****       CFE_EVS_GlobalData.EVS_TlmPkt.Payload.LogOverflowCounter = CFE_EVS_GlobalData.EVS_LogPtr->Log
 1719               	.loc 1 760 0
 1720 0d28 2079 0000 	move.l CFE_EVS_GlobalData+2240,%a0
 1720      0000 
 1721 0d2e 3028 0006 	move.w 6(%a0),%d0
 1722 0d32 33C0 0000 	move.w %d0,CFE_EVS_GlobalData+2266
 1722      0000 
 1723               	.L117:
 761:/home/simulink/cFS_FreeRTOS_seL4/cfe/fsw/cfe-core/src/evs/cfe_evs_task.c ****    }
 762:/home/simulink/cFS_FreeRTOS_seL4/cfe/fsw/cfe-core/src/evs/cfe_evs_task.c **** 
 763:/home/simulink/cFS_FreeRTOS_seL4/cfe/fsw/cfe-core/src/evs/cfe_evs_task.c ****    /* Write event state data for registered apps to telemetry packet */
 764:/home/simulink/cFS_FreeRTOS_seL4/cfe/fsw/cfe-core/src/evs/cfe_evs_task.c ****    for (i = 0, j = 0; i < CFE_ES_MAX_APPLICATIONS; i++)
 1724               	.loc 1 764 0
 1725 0d38 42AF 0004 	clr.l 4(%sp)
 1726 0d3c 4297      	clr.l (%sp)
 1727 0d3e 6000 008A 	jra .L118
 1728               	.L120:
 765:/home/simulink/cFS_FreeRTOS_seL4/cfe/fsw/cfe-core/src/evs/cfe_evs_task.c ****    {
 766:/home/simulink/cFS_FreeRTOS_seL4/cfe/fsw/cfe-core/src/evs/cfe_evs_task.c ****       if (CFE_EVS_GlobalData.AppData[i].RegisterFlag == TRUE)
 1729               	.loc 1 766 0
 1730 0d42 202F 0004 	move.l 4(%sp),%d0
 1731 0d46 7246      	moveq #70,%d1
 1732 0d48 4C01 0800 	muls.l %d1,%d0
 1733 0d4c 41F9 0000 	lea CFE_EVS_GlobalData+68,%a0
 1733      0000 
 1734 0d52 3030 0800 	move.w (%a0,%d0.l),%d0
 1735 0d56 3000      	move.w %d0,%d0
68K GAS   			page 51


 1736 0d58 0280 0000 	and.l #65535,%d0
 1736      FFFF 
 1737 0d5e 7201      	moveq #1,%d1
 1738 0d60 B280      	cmp.l %d0,%d1
 1739 0d62 6662      	jne .L119
 767:/home/simulink/cFS_FreeRTOS_seL4/cfe/fsw/cfe-core/src/evs/cfe_evs_task.c ****       {
 768:/home/simulink/cFS_FreeRTOS_seL4/cfe/fsw/cfe-core/src/evs/cfe_evs_task.c ****          CFE_EVS_GlobalData.EVS_TlmPkt.Payload.AppData[j].AppID = i;
 1740               	.loc 1 768 0
 1741 0d64 2017      	move.l (%sp),%d0
 1742 0d66 0680 0000 	add.l #284,%d0
 1742      011C 
 1743 0d6c E788      	lsl.l #3,%d0
 1744 0d6e 41F9 0000 	lea CFE_EVS_GlobalData,%a0
 1744      0000 
 1745 0d74 43EF 0004 	lea (4,%sp),%a1
 1746 0d78 2191 0800 	move.l (%a1),(%a0,%d0.l)
 769:/home/simulink/cFS_FreeRTOS_seL4/cfe/fsw/cfe-core/src/evs/cfe_evs_task.c ****          CFE_EVS_GlobalData.EVS_TlmPkt.Payload.AppData[j].AppEnableStatus = CFE_EVS_GlobalData.AppD
 1747               	.loc 1 769 0
 1748 0d7c 202F 0004 	move.l 4(%sp),%d0
 1749 0d80 7246      	moveq #70,%d1
 1750 0d82 4C01 0800 	muls.l %d1,%d0
 1751 0d86 41F9 0000 	lea CFE_EVS_GlobalData+64,%a0
 1751      0000 
 1752 0d8c 1230 0800 	move.b (%a0,%d0.l),%d1
 1753 0d90 2017      	move.l (%sp),%d0
 1754 0d92 5880      	addq.l #4,%d0
 1755 0d94 E788      	lsl.l #3,%d0
 1756 0d96 41F9 0000 	lea CFE_EVS_GlobalData+2246,%a0
 1756      0000 
 1757 0d9c 1181 0800 	move.b %d1,(%a0,%d0.l)
 770:/home/simulink/cFS_FreeRTOS_seL4/cfe/fsw/cfe-core/src/evs/cfe_evs_task.c ****          CFE_EVS_GlobalData.EVS_TlmPkt.Payload.AppData[j].AppMessageSentCounter = CFE_EVS_GlobalDat
 1758               	.loc 1 770 0
 1759 0da0 202F 0004 	move.l 4(%sp),%d0
 1760 0da4 7246      	moveq #70,%d1
 1761 0da6 4C01 0800 	muls.l %d1,%d0
 1762 0daa 41F9 0000 	lea CFE_EVS_GlobalData+66,%a0
 1762      0000 
 1763 0db0 3230 0800 	move.w (%a0,%d0.l),%d1
 1764 0db4 2017      	move.l (%sp),%d0
 1765 0db6 5880      	addq.l #4,%d0
 1766 0db8 E788      	lsl.l #3,%d0
 1767 0dba 41F9 0000 	lea CFE_EVS_GlobalData+2244,%a0
 1767      0000 
 1768 0dc0 3181 0800 	move.w %d1,(%a0,%d0.l)
 771:/home/simulink/cFS_FreeRTOS_seL4/cfe/fsw/cfe-core/src/evs/cfe_evs_task.c ****          j++;
 1769               	.loc 1 771 0
 1770 0dc4 5297      	addq.l #1,(%sp)
 1771               	.L119:
 764:/home/simulink/cFS_FreeRTOS_seL4/cfe/fsw/cfe-core/src/evs/cfe_evs_task.c ****    {
 1772               	.loc 1 764 0 discriminator 2
 1773 0dc6 52AF 0004 	addq.l #1,4(%sp)
 1774               	.L118:
 764:/home/simulink/cFS_FreeRTOS_seL4/cfe/fsw/cfe-core/src/evs/cfe_evs_task.c ****    {
 1775               	.loc 1 764 0 is_stmt 0 discriminator 1
 1776 0dca 701F      	moveq #31,%d0
 1777 0dcc B0AF 0004 	cmp.l 4(%sp),%d0
 1778 0dd0 6400 FF70 	jcc .L120
68K GAS   			page 52


 772:/home/simulink/cFS_FreeRTOS_seL4/cfe/fsw/cfe-core/src/evs/cfe_evs_task.c ****       }
 773:/home/simulink/cFS_FreeRTOS_seL4/cfe/fsw/cfe-core/src/evs/cfe_evs_task.c ****    }
 774:/home/simulink/cFS_FreeRTOS_seL4/cfe/fsw/cfe-core/src/evs/cfe_evs_task.c **** 
 775:/home/simulink/cFS_FreeRTOS_seL4/cfe/fsw/cfe-core/src/evs/cfe_evs_task.c ****    /* Clear unused portion of event state data in telemetry packet */
 776:/home/simulink/cFS_FreeRTOS_seL4/cfe/fsw/cfe-core/src/evs/cfe_evs_task.c ****    for (i = j; i < CFE_ES_MAX_APPLICATIONS; i++)
 1779               	.loc 1 776 0 is_stmt 1
 1780 0dd4 2F57 0004 	move.l (%sp),4(%sp)
 1781 0dd8 6042      	jra .L121
 1782               	.L122:
 777:/home/simulink/cFS_FreeRTOS_seL4/cfe/fsw/cfe-core/src/evs/cfe_evs_task.c ****    {
 778:/home/simulink/cFS_FreeRTOS_seL4/cfe/fsw/cfe-core/src/evs/cfe_evs_task.c ****       CFE_EVS_GlobalData.EVS_TlmPkt.Payload.AppData[i].AppID = 0;
 1783               	.loc 1 778 0 discriminator 3
 1784 0dda 202F 0004 	move.l 4(%sp),%d0
 1785 0dde 0680 0000 	add.l #284,%d0
 1785      011C 
 1786 0de4 E788      	lsl.l #3,%d0
 1787 0de6 41F9 0000 	lea CFE_EVS_GlobalData,%a0
 1787      0000 
 1788 0dec 42B0 0800 	clr.l (%a0,%d0.l)
 779:/home/simulink/cFS_FreeRTOS_seL4/cfe/fsw/cfe-core/src/evs/cfe_evs_task.c ****       CFE_EVS_GlobalData.EVS_TlmPkt.Payload.AppData[i].AppEnableStatus = FALSE;
 1789               	.loc 1 779 0 discriminator 3
 1790 0df0 202F 0004 	move.l 4(%sp),%d0
 1791 0df4 5880      	addq.l #4,%d0
 1792 0df6 E788      	lsl.l #3,%d0
 1793 0df8 41F9 0000 	lea CFE_EVS_GlobalData+2246,%a0
 1793      0000 
 1794 0dfe 4201      	clr.b %d1
 1795 0e00 1181 0800 	move.b %d1,(%a0,%d0.l)
 780:/home/simulink/cFS_FreeRTOS_seL4/cfe/fsw/cfe-core/src/evs/cfe_evs_task.c ****       CFE_EVS_GlobalData.EVS_TlmPkt.Payload.AppData[i].AppMessageSentCounter = 0;
 1796               	.loc 1 780 0 discriminator 3
 1797 0e04 202F 0004 	move.l 4(%sp),%d0
 1798 0e08 5880      	addq.l #4,%d0
 1799 0e0a E788      	lsl.l #3,%d0
 1800 0e0c 41F9 0000 	lea CFE_EVS_GlobalData+2244,%a0
 1800      0000 
 1801 0e12 4241      	clr.w %d1
 1802 0e14 3181 0800 	move.w %d1,(%a0,%d0.l)
 776:/home/simulink/cFS_FreeRTOS_seL4/cfe/fsw/cfe-core/src/evs/cfe_evs_task.c ****    {
 1803               	.loc 1 776 0 discriminator 3
 1804 0e18 52AF 0004 	addq.l #1,4(%sp)
 1805               	.L121:
 776:/home/simulink/cFS_FreeRTOS_seL4/cfe/fsw/cfe-core/src/evs/cfe_evs_task.c ****    {
 1806               	.loc 1 776 0 is_stmt 0 discriminator 1
 1807 0e1c 701F      	moveq #31,%d0
 1808 0e1e B0AF 0004 	cmp.l 4(%sp),%d0
 1809 0e22 64B6      	jcc .L122
 781:/home/simulink/cFS_FreeRTOS_seL4/cfe/fsw/cfe-core/src/evs/cfe_evs_task.c ****    }
 782:/home/simulink/cFS_FreeRTOS_seL4/cfe/fsw/cfe-core/src/evs/cfe_evs_task.c **** 
 783:/home/simulink/cFS_FreeRTOS_seL4/cfe/fsw/cfe-core/src/evs/cfe_evs_task.c ****    CFE_SB_TimeStampMsg((CFE_SB_Msg_t *) &CFE_EVS_GlobalData.EVS_TlmPkt);
 1810               	.loc 1 783 0 is_stmt 1
 1811 0e24 4879 0000 	pea CFE_EVS_GlobalData+2244
 1811      0000 
 1812               	.cfi_def_cfa_offset 16
 1813 0e2a 4EB9 0000 	jsr CFE_SB_TimeStampMsg
 1813      0000 
 1814 0e30 588F      	addq.l #4,%sp
 1815               	.cfi_def_cfa_offset 12
68K GAS   			page 53


 784:/home/simulink/cFS_FreeRTOS_seL4/cfe/fsw/cfe-core/src/evs/cfe_evs_task.c **** 
 785:/home/simulink/cFS_FreeRTOS_seL4/cfe/fsw/cfe-core/src/evs/cfe_evs_task.c ****    CFE_SB_SendMsg((CFE_SB_Msg_t *) &CFE_EVS_GlobalData.EVS_TlmPkt);
 1816               	.loc 1 785 0
 1817 0e32 4879 0000 	pea CFE_EVS_GlobalData+2244
 1817      0000 
 1818               	.cfi_def_cfa_offset 16
 1819 0e38 4EB9 0000 	jsr CFE_SB_SendMsg
 1819      0000 
 1820 0e3e 588F      	addq.l #4,%sp
 1821               	.cfi_def_cfa_offset 12
 786:/home/simulink/cFS_FreeRTOS_seL4/cfe/fsw/cfe-core/src/evs/cfe_evs_task.c **** 
 787:/home/simulink/cFS_FreeRTOS_seL4/cfe/fsw/cfe-core/src/evs/cfe_evs_task.c **** } /* End of CFE_EVS_ReportHousekeepingCmd() */
 1822               	.loc 1 787 0
 1823 0e40 4E71      	nop
 1824 0e42 508F      	addq.l #8,%sp
 1825 0e44 4E75      	rts
 1826               	.cfi_endproc
 1827               	.LFE66:
 1828               	.sizeCFE_EVS_ReportHousekeepingCmd, .-CFE_EVS_ReportHousekeepingCmd
 1829               	.section.rodata
 1830               	.LC24:
 1831 0431 5265 7365 	.string"Reset Counters Command Received"
 1831      7420 436F 
 1831      756E 7465 
 1831      7273 2043 
 1831      6F6D 6D61 
 1832               	.text
 1833               	.align2
 1834               	.globlCFE_EVS_ResetCountersCmd
 1835               	.typeCFE_EVS_ResetCountersCmd, @function
 1836               	CFE_EVS_ResetCountersCmd:
 1837               	.LFB67:
 788:/home/simulink/cFS_FreeRTOS_seL4/cfe/fsw/cfe-core/src/evs/cfe_evs_task.c **** 
 789:/home/simulink/cFS_FreeRTOS_seL4/cfe/fsw/cfe-core/src/evs/cfe_evs_task.c **** 
 790:/home/simulink/cFS_FreeRTOS_seL4/cfe/fsw/cfe-core/src/evs/cfe_evs_task.c **** /*
 791:/home/simulink/cFS_FreeRTOS_seL4/cfe/fsw/cfe-core/src/evs/cfe_evs_task.c **** **             Function Prologue
 792:/home/simulink/cFS_FreeRTOS_seL4/cfe/fsw/cfe-core/src/evs/cfe_evs_task.c **** **
 793:/home/simulink/cFS_FreeRTOS_seL4/cfe/fsw/cfe-core/src/evs/cfe_evs_task.c **** ** Function Name:      CFE_EVS_ResetCountersCmd
 794:/home/simulink/cFS_FreeRTOS_seL4/cfe/fsw/cfe-core/src/evs/cfe_evs_task.c **** **
 795:/home/simulink/cFS_FreeRTOS_seL4/cfe/fsw/cfe-core/src/evs/cfe_evs_task.c **** ** Purpose:  This function resets all the global counter variables that are
 796:/home/simulink/cFS_FreeRTOS_seL4/cfe/fsw/cfe-core/src/evs/cfe_evs_task.c **** **           part of the task telemetry.
 797:/home/simulink/cFS_FreeRTOS_seL4/cfe/fsw/cfe-core/src/evs/cfe_evs_task.c **** **
 798:/home/simulink/cFS_FreeRTOS_seL4/cfe/fsw/cfe-core/src/evs/cfe_evs_task.c **** ** Assumptions and Notes:
 799:/home/simulink/cFS_FreeRTOS_seL4/cfe/fsw/cfe-core/src/evs/cfe_evs_task.c **** **
 800:/home/simulink/cFS_FreeRTOS_seL4/cfe/fsw/cfe-core/src/evs/cfe_evs_task.c **** */
 801:/home/simulink/cFS_FreeRTOS_seL4/cfe/fsw/cfe-core/src/evs/cfe_evs_task.c **** void CFE_EVS_ResetCountersCmd ( void )
 802:/home/simulink/cFS_FreeRTOS_seL4/cfe/fsw/cfe-core/src/evs/cfe_evs_task.c **** {
 1838               	.loc 1 802 0
 1839               	.cfi_startproc
 803:/home/simulink/cFS_FreeRTOS_seL4/cfe/fsw/cfe-core/src/evs/cfe_evs_task.c ****    /* Status of commands processed by EVS task */
 804:/home/simulink/cFS_FreeRTOS_seL4/cfe/fsw/cfe-core/src/evs/cfe_evs_task.c ****     CFE_EVS_GlobalData.EVS_TlmPkt.Payload.CommandCounter  = 0;
 1840               	.loc 1 804 0
 1841 0e46 4200      	clr.b %d0
 1842 0e48 13C0 0000 	move.b %d0,CFE_EVS_GlobalData+2256
 1842      0000 
 805:/home/simulink/cFS_FreeRTOS_seL4/cfe/fsw/cfe-core/src/evs/cfe_evs_task.c ****     CFE_EVS_GlobalData.EVS_TlmPkt.Payload.CommandErrCounter   =  0;
 1843               	.loc 1 805 0
68K GAS   			page 54


 1844 0e4e 4200      	clr.b %d0
 1845 0e50 13C0 0000 	move.b %d0,CFE_EVS_GlobalData+2257
 1845      0000 
 806:/home/simulink/cFS_FreeRTOS_seL4/cfe/fsw/cfe-core/src/evs/cfe_evs_task.c **** 
 807:/home/simulink/cFS_FreeRTOS_seL4/cfe/fsw/cfe-core/src/evs/cfe_evs_task.c ****    /* EVS telemetry counters */
 808:/home/simulink/cFS_FreeRTOS_seL4/cfe/fsw/cfe-core/src/evs/cfe_evs_task.c ****     CFE_EVS_GlobalData.EVS_TlmPkt.Payload.MessageSendCounter = 0;
 1846               	.loc 1 808 0
 1847 0e56 4240      	clr.w %d0
 1848 0e58 33C0 0000 	move.w %d0,CFE_EVS_GlobalData+2264
 1848      0000 
 809:/home/simulink/cFS_FreeRTOS_seL4/cfe/fsw/cfe-core/src/evs/cfe_evs_task.c ****     CFE_EVS_GlobalData.EVS_TlmPkt.Payload.MessageTruncCounter = 0;
 1849               	.loc 1 809 0
 1850 0e5e 4200      	clr.b %d0
 1851 0e60 13C0 0000 	move.b %d0,CFE_EVS_GlobalData+2259
 1851      0000 
 810:/home/simulink/cFS_FreeRTOS_seL4/cfe/fsw/cfe-core/src/evs/cfe_evs_task.c ****     CFE_EVS_GlobalData.EVS_TlmPkt.Payload.UnregisteredAppCounter = 0;
 1852               	.loc 1 810 0
 1853 0e66 4200      	clr.b %d0
 1854 0e68 13C0 0000 	move.b %d0,CFE_EVS_GlobalData+2260
 1854      0000 
 811:/home/simulink/cFS_FreeRTOS_seL4/cfe/fsw/cfe-core/src/evs/cfe_evs_task.c **** 
 812:/home/simulink/cFS_FreeRTOS_seL4/cfe/fsw/cfe-core/src/evs/cfe_evs_task.c ****    EVS_SendEvent(CFE_EVS_RSTCNT_EID, CFE_EVS_DEBUG, "Reset Counters Command Received");
 1855               	.loc 1 812 0
 1856 0e6e 4879 0000 	pea .LC24
 1856      0000 
 1857               	.cfi_def_cfa_offset 8
 1858 0e74 4878 0001 	pea 1.w
 1859               	.cfi_def_cfa_offset 12
 1860 0e78 4878 0010 	pea 16.w
 1861               	.cfi_def_cfa_offset 16
 1862 0e7c 4EB9 0000 	jsr EVS_SendEvent
 1862      0000 
 1863 0e82 4FEF 000C 	lea (12,%sp),%sp
 1864               	.cfi_def_cfa_offset 4
 813:/home/simulink/cFS_FreeRTOS_seL4/cfe/fsw/cfe-core/src/evs/cfe_evs_task.c **** 
 814:/home/simulink/cFS_FreeRTOS_seL4/cfe/fsw/cfe-core/src/evs/cfe_evs_task.c **** } /* End of CFE_EVS_ResetCountersCmd() */
 1865               	.loc 1 814 0
 1866 0e86 4E71      	nop
 1867 0e88 4E75      	rts
 1868               	.cfi_endproc
 1869               	.LFE67:
 1870               	.sizeCFE_EVS_ResetCountersCmd, .-CFE_EVS_ResetCountersCmd
 1871               	.section.rodata
 1872               	.LC25:
 1873 0451 5365 7420 	.string"Set Filter Mask Command Received with AppName=%s, EventID=0x%08x, Mask=0x%04x"
 1873      4669 6C74 
 1873      6572 204D 
 1873      6173 6B20 
 1873      436F 6D6D 
 1874               	.LC26:
 1875 049f 2573 2045 	.string"%s Event ID %d not registered for filtering: CC = %lu "
 1875      7665 6E74 
 1875      2049 4420 
 1875      2564 206E 
 1875      6F74 2072 
 1876               	.LC27:
 1877 04d6 2573 206E 	.string"%s not registered with EVS: CC = %lu"
68K GAS   			page 55


 1877      6F74 2072 
 1877      6567 6973 
 1877      7465 7265 
 1877      6420 7769 
 1878               	.LC28:
 1879 04fb 496C 6C65 	.string"Illegal application ID %d retrieved for %s: CC = %lu"
 1879      6761 6C20 
 1879      6170 706C 
 1879      6963 6174 
 1879      696F 6E20 
 1880               	.LC29:
 1881 0530 556E 6162 	.string"Unable to retrieve application ID for %s: CC = %lu"
 1881      6C65 2074 
 1881      6F20 7265 
 1881      7472 6965 
 1881      7665 2061 
 1882               	.text
 1883               	.align2
 1884               	.globlCFE_EVS_SetFilterMaskCmd
 1885               	.typeCFE_EVS_SetFilterMaskCmd, @function
 1886               	CFE_EVS_SetFilterMaskCmd:
 1887               	.LFB68:
 815:/home/simulink/cFS_FreeRTOS_seL4/cfe/fsw/cfe-core/src/evs/cfe_evs_task.c **** 
 816:/home/simulink/cFS_FreeRTOS_seL4/cfe/fsw/cfe-core/src/evs/cfe_evs_task.c **** 
 817:/home/simulink/cFS_FreeRTOS_seL4/cfe/fsw/cfe-core/src/evs/cfe_evs_task.c **** /*
 818:/home/simulink/cFS_FreeRTOS_seL4/cfe/fsw/cfe-core/src/evs/cfe_evs_task.c **** **             Function Prologue
 819:/home/simulink/cFS_FreeRTOS_seL4/cfe/fsw/cfe-core/src/evs/cfe_evs_task.c **** **
 820:/home/simulink/cFS_FreeRTOS_seL4/cfe/fsw/cfe-core/src/evs/cfe_evs_task.c **** ** Function Name:      CFE_EVS_SetEventFilterMaskCmd
 821:/home/simulink/cFS_FreeRTOS_seL4/cfe/fsw/cfe-core/src/evs/cfe_evs_task.c **** **
 822:/home/simulink/cFS_FreeRTOS_seL4/cfe/fsw/cfe-core/src/evs/cfe_evs_task.c **** ** Purpose:  This routine sets the filter mask for the given event_id in the
 823:/home/simulink/cFS_FreeRTOS_seL4/cfe/fsw/cfe-core/src/evs/cfe_evs_task.c **** **           calling task's filter array
 824:/home/simulink/cFS_FreeRTOS_seL4/cfe/fsw/cfe-core/src/evs/cfe_evs_task.c **** **
 825:/home/simulink/cFS_FreeRTOS_seL4/cfe/fsw/cfe-core/src/evs/cfe_evs_task.c **** ** Assumptions and Notes:
 826:/home/simulink/cFS_FreeRTOS_seL4/cfe/fsw/cfe-core/src/evs/cfe_evs_task.c **** **
 827:/home/simulink/cFS_FreeRTOS_seL4/cfe/fsw/cfe-core/src/evs/cfe_evs_task.c **** */
 828:/home/simulink/cFS_FreeRTOS_seL4/cfe/fsw/cfe-core/src/evs/cfe_evs_task.c **** boolean CFE_EVS_SetFilterMaskCmd (const CFE_SB_MsgPayloadPtr_t Payload)
 829:/home/simulink/cFS_FreeRTOS_seL4/cfe/fsw/cfe-core/src/evs/cfe_evs_task.c **** {
 1888               	.loc 1 829 0
 1889               	.cfi_startproc
 1890 0e8a 4FEF FFD8 	lea (-40,%sp),%sp
 1891               	.cfi_def_cfa_offset 44
 830:/home/simulink/cFS_FreeRTOS_seL4/cfe/fsw/cfe-core/src/evs/cfe_evs_task.c ****    const CFE_EVS_AppNameEventIDMaskCmd_Payload_t *CmdPtr = (const CFE_EVS_AppNameEventIDMaskCmd_Pay
 1892               	.loc 1 830 0
 1893 0e8e 2F6F 002C 	move.l 44(%sp),32(%sp)
 1893      0020 
 831:/home/simulink/cFS_FreeRTOS_seL4/cfe/fsw/cfe-core/src/evs/cfe_evs_task.c ****    EVS_BinFilter_t    *FilterPtr;
 832:/home/simulink/cFS_FreeRTOS_seL4/cfe/fsw/cfe-core/src/evs/cfe_evs_task.c ****    uint32              AppID = CFE_EVS_UNDEF_APPID;
 1894               	.loc 1 832 0
 1895 0e94 70FF      	moveq #-1,%d0
 1896 0e96 2F40 0014 	move.l %d0,20(%sp)
 833:/home/simulink/cFS_FreeRTOS_seL4/cfe/fsw/cfe-core/src/evs/cfe_evs_task.c ****    int32               Status;
 834:/home/simulink/cFS_FreeRTOS_seL4/cfe/fsw/cfe-core/src/evs/cfe_evs_task.c ****    EVS_AppData_t      *AppDataPtr;
 835:/home/simulink/cFS_FreeRTOS_seL4/cfe/fsw/cfe-core/src/evs/cfe_evs_task.c ****    char                LocalName[OS_MAX_API_NAME];
 836:/home/simulink/cFS_FreeRTOS_seL4/cfe/fsw/cfe-core/src/evs/cfe_evs_task.c **** 
 837:/home/simulink/cFS_FreeRTOS_seL4/cfe/fsw/cfe-core/src/evs/cfe_evs_task.c ****    /*
 838:/home/simulink/cFS_FreeRTOS_seL4/cfe/fsw/cfe-core/src/evs/cfe_evs_task.c ****     * Althgouh EVS_GetApplicationInfo() does not require a null terminated argument,
 839:/home/simulink/cFS_FreeRTOS_seL4/cfe/fsw/cfe-core/src/evs/cfe_evs_task.c ****     * the value is passed to EVS_SendEvent which does require termination (normal C string)
68K GAS   			page 56


 840:/home/simulink/cFS_FreeRTOS_seL4/cfe/fsw/cfe-core/src/evs/cfe_evs_task.c ****     */
 841:/home/simulink/cFS_FreeRTOS_seL4/cfe/fsw/cfe-core/src/evs/cfe_evs_task.c ****    CFE_SB_MessageStringGet(LocalName, (char *)CmdPtr->AppName, NULL, OS_MAX_API_NAME, sizeof(CmdPtr
 1897               	.loc 1 841 0
 1898 0e9a 202F 0020 	move.l 32(%sp),%d0
 1899 0e9e 4878 0014 	pea 20.w
 1900               	.cfi_def_cfa_offset 48
 1901 0ea2 4878 0014 	pea 20.w
 1902               	.cfi_def_cfa_offset 52
 1903 0ea6 42A7      	clr.l -(%sp)
 1904               	.cfi_def_cfa_offset 56
 1905 0ea8 2F00      	move.l %d0,-(%sp)
 1906               	.cfi_def_cfa_offset 60
 1907 0eaa 200F      	move.l %sp,%d0
 1908 0eac 0680 0000 	add.l #16,%d0
 1908      0010 
 1909 0eb2 2F00      	move.l %d0,-(%sp)
 1910               	.cfi_def_cfa_offset 64
 1911 0eb4 4EB9 0000 	jsr CFE_SB_MessageStringGet
 1911      0000 
 1912 0eba 4FEF 0014 	lea (20,%sp),%sp
 1913               	.cfi_def_cfa_offset 44
 842:/home/simulink/cFS_FreeRTOS_seL4/cfe/fsw/cfe-core/src/evs/cfe_evs_task.c **** 
 843:/home/simulink/cFS_FreeRTOS_seL4/cfe/fsw/cfe-core/src/evs/cfe_evs_task.c ****    /* Retreive application data */
 844:/home/simulink/cFS_FreeRTOS_seL4/cfe/fsw/cfe-core/src/evs/cfe_evs_task.c ****    Status = EVS_GetApplicationInfo(&AppID, LocalName);
 1914               	.loc 1 844 0
 1915 0ebe 200F      	move.l %sp,%d0
 1916 0ec0 2F00      	move.l %d0,-(%sp)
 1917               	.cfi_def_cfa_offset 48
 1918 0ec2 200F      	move.l %sp,%d0
 1919 0ec4 0680 0000 	add.l #24,%d0
 1919      0018 
 1920 0eca 2F00      	move.l %d0,-(%sp)
 1921               	.cfi_def_cfa_offset 52
 1922 0ecc 4EB9 0000 	jsr EVS_GetApplicationInfo
 1922      0000 
 1923 0ed2 508F      	addq.l #8,%sp
 1924               	.cfi_def_cfa_offset 44
 1925 0ed4 2F40 0024 	move.l %d0,36(%sp)
 845:/home/simulink/cFS_FreeRTOS_seL4/cfe/fsw/cfe-core/src/evs/cfe_evs_task.c **** 
 846:/home/simulink/cFS_FreeRTOS_seL4/cfe/fsw/cfe-core/src/evs/cfe_evs_task.c ****    if (Status == CFE_SUCCESS)
 1926               	.loc 1 846 0
 1927 0ed8 4AAF 0024 	tst.l 36(%sp)
 1928 0edc 6600 00D0 	jne .L125
 847:/home/simulink/cFS_FreeRTOS_seL4/cfe/fsw/cfe-core/src/evs/cfe_evs_task.c ****    {
 848:/home/simulink/cFS_FreeRTOS_seL4/cfe/fsw/cfe-core/src/evs/cfe_evs_task.c ****       AppDataPtr = &CFE_EVS_GlobalData.AppData[AppID];
 1929               	.loc 1 848 0
 1930 0ee0 202F 0014 	move.l 20(%sp),%d0
 1931 0ee4 7246      	moveq #70,%d1
 1932 0ee6 4C01 0800 	muls.l %d1,%d0
 1933 0eea 2200      	move.l %d0,%d1
 1934 0eec 0681 0000 	add.l #CFE_EVS_GlobalData,%d1
 1934      0000 
 1935 0ef2 2F41 001C 	move.l %d1,28(%sp)
 849:/home/simulink/cFS_FreeRTOS_seL4/cfe/fsw/cfe-core/src/evs/cfe_evs_task.c **** 
 850:/home/simulink/cFS_FreeRTOS_seL4/cfe/fsw/cfe-core/src/evs/cfe_evs_task.c ****       FilterPtr = EVS_FindEventID(CmdPtr->EventID, AppDataPtr->BinFilters);
 1936               	.loc 1 850 0
 1937 0ef6 202F 001C 	move.l 28(%sp),%d0
68K GAS   			page 57


 1938 0efa 206F 0020 	move.l 32(%sp),%a0
 1939 0efe 3228 0014 	move.w 20(%a0),%d1
 1940 0f02 3041      	move.w %d1,%a0
 1941 0f04 2F00      	move.l %d0,-(%sp)
 1942               	.cfi_def_cfa_offset 48
 1943 0f06 2F08      	move.l %a0,-(%sp)
 1944               	.cfi_def_cfa_offset 52
 1945 0f08 4EB9 0000 	jsr EVS_FindEventID
 1945      0000 
 1946 0f0e 508F      	addq.l #8,%sp
 1947               	.cfi_def_cfa_offset 44
 1948 0f10 2F40 0018 	move.l %d0,24(%sp)
 851:/home/simulink/cFS_FreeRTOS_seL4/cfe/fsw/cfe-core/src/evs/cfe_evs_task.c **** 
 852:/home/simulink/cFS_FreeRTOS_seL4/cfe/fsw/cfe-core/src/evs/cfe_evs_task.c ****       if(FilterPtr != NULL)
 1949               	.loc 1 852 0
 1950 0f14 4AAF 0018 	tst.l 24(%sp)
 1951 0f18 6758      	jeq .L126
 853:/home/simulink/cFS_FreeRTOS_seL4/cfe/fsw/cfe-core/src/evs/cfe_evs_task.c ****       {
 854:/home/simulink/cFS_FreeRTOS_seL4/cfe/fsw/cfe-core/src/evs/cfe_evs_task.c ****          /* Set application filter mask */
 855:/home/simulink/cFS_FreeRTOS_seL4/cfe/fsw/cfe-core/src/evs/cfe_evs_task.c ****          FilterPtr->Mask = CmdPtr->Mask;
 1952               	.loc 1 855 0
 1953 0f1a 206F 0020 	move.l 32(%sp),%a0
 1954 0f1e 3028 0016 	move.w 22(%a0),%d0
 1955 0f22 206F 0018 	move.l 24(%sp),%a0
 1956 0f26 3140 0002 	move.w %d0,2(%a0)
 856:/home/simulink/cFS_FreeRTOS_seL4/cfe/fsw/cfe-core/src/evs/cfe_evs_task.c **** 
 857:/home/simulink/cFS_FreeRTOS_seL4/cfe/fsw/cfe-core/src/evs/cfe_evs_task.c ****          EVS_SendEvent(CFE_EVS_SETFILTERMSK_EID, CFE_EVS_DEBUG,
 858:/home/simulink/cFS_FreeRTOS_seL4/cfe/fsw/cfe-core/src/evs/cfe_evs_task.c ****                            "Set Filter Mask Command Received with AppName=%s, EventID=0x%08x, Mask=
 859:/home/simulink/cFS_FreeRTOS_seL4/cfe/fsw/cfe-core/src/evs/cfe_evs_task.c ****                            LocalName, CmdPtr->EventID, CmdPtr->Mask);
 1957               	.loc 1 859 0
 1958 0f2a 206F 0020 	move.l 32(%sp),%a0
 1959 0f2e 3028 0016 	move.w 22(%a0),%d0
 857:/home/simulink/cFS_FreeRTOS_seL4/cfe/fsw/cfe-core/src/evs/cfe_evs_task.c ****                            "Set Filter Mask Command Received with AppName=%s, EventID=0x%08x, Mask=
 1960               	.loc 1 857 0
 1961 0f32 4281      	clr.l %d1
 1962 0f34 3200      	move.w %d0,%d1
 1963               	.loc 1 859 0
 1964 0f36 206F 0020 	move.l 32(%sp),%a0
 1965 0f3a 3028 0014 	move.w 20(%a0),%d0
 857:/home/simulink/cFS_FreeRTOS_seL4/cfe/fsw/cfe-core/src/evs/cfe_evs_task.c ****                            "Set Filter Mask Command Received with AppName=%s, EventID=0x%08x, Mask=
 1966               	.loc 1 857 0
 1967 0f3e 3000      	move.w %d0,%d0
 1968 0f40 0280 0000 	and.l #65535,%d0
 1968      FFFF 
 1969 0f46 2F01      	move.l %d1,-(%sp)
 1970               	.cfi_def_cfa_offset 48
 1971 0f48 2F00      	move.l %d0,-(%sp)
 1972               	.cfi_def_cfa_offset 52
 1973 0f4a 200F      	move.l %sp,%d0
 1974 0f4c 5080      	addq.l #8,%d0
 1975 0f4e 2F00      	move.l %d0,-(%sp)
 1976               	.cfi_def_cfa_offset 56
 1977 0f50 4879 0000 	pea .LC25
 1977      0000 
 1978               	.cfi_def_cfa_offset 60
 1979 0f56 4878 0001 	pea 1.w
 1980               	.cfi_def_cfa_offset 64
68K GAS   			page 58


 1981 0f5a 4878 0011 	pea 17.w
 1982               	.cfi_def_cfa_offset 68
 1983 0f5e 4EB9 0000 	jsr EVS_SendEvent
 1983      0000 
 1984 0f64 4FEF 0018 	lea (24,%sp),%sp
 1985               	.cfi_def_cfa_offset 44
 860:/home/simulink/cFS_FreeRTOS_seL4/cfe/fsw/cfe-core/src/evs/cfe_evs_task.c **** 
 861:/home/simulink/cFS_FreeRTOS_seL4/cfe/fsw/cfe-core/src/evs/cfe_evs_task.c ****          Status = TRUE;
 1986               	.loc 1 861 0
 1987 0f68 7001      	moveq #1,%d0
 1988 0f6a 2F40 0024 	move.l %d0,36(%sp)
 1989 0f6e 6000 00D4 	jra .L128
 1990               	.L126:
 862:/home/simulink/cFS_FreeRTOS_seL4/cfe/fsw/cfe-core/src/evs/cfe_evs_task.c ****       }
 863:/home/simulink/cFS_FreeRTOS_seL4/cfe/fsw/cfe-core/src/evs/cfe_evs_task.c ****       else
 864:/home/simulink/cFS_FreeRTOS_seL4/cfe/fsw/cfe-core/src/evs/cfe_evs_task.c ****       {
 865:/home/simulink/cFS_FreeRTOS_seL4/cfe/fsw/cfe-core/src/evs/cfe_evs_task.c ****          EVS_SendEvent(CFE_EVS_ERR_EVTIDNOREGS_EID, CFE_EVS_ERROR,
 866:/home/simulink/cFS_FreeRTOS_seL4/cfe/fsw/cfe-core/src/evs/cfe_evs_task.c ****                            "%s Event ID %d not registered for filtering: CC = %lu ",
 867:/home/simulink/cFS_FreeRTOS_seL4/cfe/fsw/cfe-core/src/evs/cfe_evs_task.c ****                            LocalName, (int)CmdPtr->EventID, (long unsigned int)CFE_EVS_SET_FILTER_C
 1991               	.loc 1 867 0
 1992 0f72 206F 0020 	move.l 32(%sp),%a0
 1993 0f76 3028 0014 	move.w 20(%a0),%d0
 865:/home/simulink/cFS_FreeRTOS_seL4/cfe/fsw/cfe-core/src/evs/cfe_evs_task.c ****                            "%s Event ID %d not registered for filtering: CC = %lu ",
 1994               	.loc 1 865 0
 1995 0f7a 3000      	move.w %d0,%d0
 1996 0f7c 0280 0000 	and.l #65535,%d0
 1996      FFFF 
 1997 0f82 4878 000A 	pea 10.w
 1998               	.cfi_def_cfa_offset 48
 1999 0f86 2F00      	move.l %d0,-(%sp)
 2000               	.cfi_def_cfa_offset 52
 2001 0f88 200F      	move.l %sp,%d0
 2002 0f8a 5080      	addq.l #8,%d0
 2003 0f8c 2F00      	move.l %d0,-(%sp)
 2004               	.cfi_def_cfa_offset 56
 2005 0f8e 4879 0000 	pea .LC26
 2005      0000 
 2006               	.cfi_def_cfa_offset 60
 2007 0f94 4878 0003 	pea 3.w
 2008               	.cfi_def_cfa_offset 64
 2009 0f98 4878 0006 	pea 6.w
 2010               	.cfi_def_cfa_offset 68
 2011 0f9c 4EB9 0000 	jsr EVS_SendEvent
 2011      0000 
 2012 0fa2 4FEF 0018 	lea (24,%sp),%sp
 2013               	.cfi_def_cfa_offset 44
 868:/home/simulink/cFS_FreeRTOS_seL4/cfe/fsw/cfe-core/src/evs/cfe_evs_task.c **** 
 869:/home/simulink/cFS_FreeRTOS_seL4/cfe/fsw/cfe-core/src/evs/cfe_evs_task.c ****          Status = FALSE;
 2014               	.loc 1 869 0
 2015 0fa6 42AF 0024 	clr.l 36(%sp)
 2016 0faa 6000 0098 	jra .L128
 2017               	.L125:
 870:/home/simulink/cFS_FreeRTOS_seL4/cfe/fsw/cfe-core/src/evs/cfe_evs_task.c ****       }
 871:/home/simulink/cFS_FreeRTOS_seL4/cfe/fsw/cfe-core/src/evs/cfe_evs_task.c ****    }
 872:/home/simulink/cFS_FreeRTOS_seL4/cfe/fsw/cfe-core/src/evs/cfe_evs_task.c ****    else if(Status == CFE_EVS_APP_NOT_REGISTERED)
 2018               	.loc 1 872 0
 2019 0fae 223C C200 	move.l #-1040187390,%d1
68K GAS   			page 59


 2019      0002 
 2020 0fb4 B2AF 0024 	cmp.l 36(%sp),%d1
 2021 0fb8 6628      	jne .L129
 873:/home/simulink/cFS_FreeRTOS_seL4/cfe/fsw/cfe-core/src/evs/cfe_evs_task.c ****    {
 874:/home/simulink/cFS_FreeRTOS_seL4/cfe/fsw/cfe-core/src/evs/cfe_evs_task.c ****       EVS_SendEvent(CFE_EVS_ERR_APPNOREGS_EID, CFE_EVS_ERROR,
 2022               	.loc 1 874 0
 2023 0fba 4878 000A 	pea 10.w
 2024               	.cfi_def_cfa_offset 48
 2025 0fbe 200F      	move.l %sp,%d0
 2026 0fc0 5880      	addq.l #4,%d0
 2027 0fc2 2F00      	move.l %d0,-(%sp)
 2028               	.cfi_def_cfa_offset 52
 2029 0fc4 4879 0000 	pea .LC27
 2029      0000 
 2030               	.cfi_def_cfa_offset 56
 2031 0fca 4878 0003 	pea 3.w
 2032               	.cfi_def_cfa_offset 60
 2033 0fce 4878 0007 	pea 7.w
 2034               	.cfi_def_cfa_offset 64
 2035 0fd2 4EB9 0000 	jsr EVS_SendEvent
 2035      0000 
 2036 0fd8 4FEF 0014 	lea (20,%sp),%sp
 2037               	.cfi_def_cfa_offset 44
 875:/home/simulink/cFS_FreeRTOS_seL4/cfe/fsw/cfe-core/src/evs/cfe_evs_task.c ****                         "%s not registered with EVS: CC = %lu",
 876:/home/simulink/cFS_FreeRTOS_seL4/cfe/fsw/cfe-core/src/evs/cfe_evs_task.c ****                         LocalName, (long unsigned int)CFE_EVS_SET_FILTER_CC);
 877:/home/simulink/cFS_FreeRTOS_seL4/cfe/fsw/cfe-core/src/evs/cfe_evs_task.c ****       Status = FALSE;
 2038               	.loc 1 877 0
 2039 0fdc 42AF 0024 	clr.l 36(%sp)
 2040 0fe0 6062      	jra .L128
 2041               	.L129:
 878:/home/simulink/cFS_FreeRTOS_seL4/cfe/fsw/cfe-core/src/evs/cfe_evs_task.c ****    }
 879:/home/simulink/cFS_FreeRTOS_seL4/cfe/fsw/cfe-core/src/evs/cfe_evs_task.c ****    else if(Status == CFE_EVS_APP_ILLEGAL_APP_ID)
 2042               	.loc 1 879 0
 2043 0fe2 203C C200 	move.l #-1040187389,%d0
 2043      0003 
 2044 0fe8 B0AF 0024 	cmp.l 36(%sp),%d0
 2045 0fec 6630      	jne .L130
 880:/home/simulink/cFS_FreeRTOS_seL4/cfe/fsw/cfe-core/src/evs/cfe_evs_task.c ****    {
 881:/home/simulink/cFS_FreeRTOS_seL4/cfe/fsw/cfe-core/src/evs/cfe_evs_task.c ****       EVS_SendEvent(CFE_EVS_ERR_ILLAPPIDRANGE_EID, CFE_EVS_ERROR,
 2046               	.loc 1 881 0
 2047 0fee 202F 0014 	move.l 20(%sp),%d0
 2048 0ff2 2200      	move.l %d0,%d1
 2049 0ff4 4878 000A 	pea 10.w
 2050               	.cfi_def_cfa_offset 48
 2051 0ff8 200F      	move.l %sp,%d0
 2052 0ffa 5880      	addq.l #4,%d0
 2053 0ffc 2F00      	move.l %d0,-(%sp)
 2054               	.cfi_def_cfa_offset 52
 2055 0ffe 2F01      	move.l %d1,-(%sp)
 2056               	.cfi_def_cfa_offset 56
 2057 1000 4879 0000 	pea .LC28
 2057      0000 
 2058               	.cfi_def_cfa_offset 60
 2059 1006 4878 0003 	pea 3.w
 2060               	.cfi_def_cfa_offset 64
 2061 100a 4878 0008 	pea 8.w
 2062               	.cfi_def_cfa_offset 68
68K GAS   			page 60


 2063 100e 4EB9 0000 	jsr EVS_SendEvent
 2063      0000 
 2064 1014 4FEF 0018 	lea (24,%sp),%sp
 2065               	.cfi_def_cfa_offset 44
 882:/home/simulink/cFS_FreeRTOS_seL4/cfe/fsw/cfe-core/src/evs/cfe_evs_task.c ****                         "Illegal application ID %d retrieved for %s: CC = %lu",
 883:/home/simulink/cFS_FreeRTOS_seL4/cfe/fsw/cfe-core/src/evs/cfe_evs_task.c ****                         (int)AppID, LocalName, (long unsigned int)CFE_EVS_SET_FILTER_CC);
 884:/home/simulink/cFS_FreeRTOS_seL4/cfe/fsw/cfe-core/src/evs/cfe_evs_task.c ****       Status = FALSE;
 2066               	.loc 1 884 0
 2067 1018 42AF 0024 	clr.l 36(%sp)
 2068 101c 6026      	jra .L128
 2069               	.L130:
 885:/home/simulink/cFS_FreeRTOS_seL4/cfe/fsw/cfe-core/src/evs/cfe_evs_task.c ****    }
 886:/home/simulink/cFS_FreeRTOS_seL4/cfe/fsw/cfe-core/src/evs/cfe_evs_task.c ****    else
 887:/home/simulink/cFS_FreeRTOS_seL4/cfe/fsw/cfe-core/src/evs/cfe_evs_task.c ****    {
 888:/home/simulink/cFS_FreeRTOS_seL4/cfe/fsw/cfe-core/src/evs/cfe_evs_task.c ****       EVS_SendEvent(CFE_EVS_ERR_NOAPPIDFOUND_EID, CFE_EVS_ERROR,
 2070               	.loc 1 888 0
 2071 101e 4878 000A 	pea 10.w
 2072               	.cfi_def_cfa_offset 48
 2073 1022 200F      	move.l %sp,%d0
 2074 1024 5880      	addq.l #4,%d0
 2075 1026 2F00      	move.l %d0,-(%sp)
 2076               	.cfi_def_cfa_offset 52
 2077 1028 4879 0000 	pea .LC29
 2077      0000 
 2078               	.cfi_def_cfa_offset 56
 2079 102e 4878 0003 	pea 3.w
 2080               	.cfi_def_cfa_offset 60
 2081 1032 4878 0009 	pea 9.w
 2082               	.cfi_def_cfa_offset 64
 2083 1036 4EB9 0000 	jsr EVS_SendEvent
 2083      0000 
 2084 103c 4FEF 0014 	lea (20,%sp),%sp
 2085               	.cfi_def_cfa_offset 44
 889:/home/simulink/cFS_FreeRTOS_seL4/cfe/fsw/cfe-core/src/evs/cfe_evs_task.c ****                         "Unable to retrieve application ID for %s: CC = %lu",
 890:/home/simulink/cFS_FreeRTOS_seL4/cfe/fsw/cfe-core/src/evs/cfe_evs_task.c ****                         LocalName, (long unsigned int)CFE_EVS_SET_FILTER_CC);
 891:/home/simulink/cFS_FreeRTOS_seL4/cfe/fsw/cfe-core/src/evs/cfe_evs_task.c ****       Status = FALSE;
 2086               	.loc 1 891 0
 2087 1040 42AF 0024 	clr.l 36(%sp)
 2088               	.L128:
 892:/home/simulink/cFS_FreeRTOS_seL4/cfe/fsw/cfe-core/src/evs/cfe_evs_task.c ****    }
 893:/home/simulink/cFS_FreeRTOS_seL4/cfe/fsw/cfe-core/src/evs/cfe_evs_task.c **** 
 894:/home/simulink/cFS_FreeRTOS_seL4/cfe/fsw/cfe-core/src/evs/cfe_evs_task.c ****    return (boolean)Status;
 2089               	.loc 1 894 0
 2090 1044 202F 0024 	move.l 36(%sp),%d0
 2091 1048 1000      	move.b %d0,%d0
 895:/home/simulink/cFS_FreeRTOS_seL4/cfe/fsw/cfe-core/src/evs/cfe_evs_task.c **** 
 896:/home/simulink/cFS_FreeRTOS_seL4/cfe/fsw/cfe-core/src/evs/cfe_evs_task.c **** } /* End CFE_EVS_SetFilterMaskCmd */
 2092               	.loc 1 896 0
 2093 104a 4FEF 0028 	lea (40,%sp),%sp
 2094 104e 4E75      	rts
 2095               	.cfi_endproc
 2096               	.LFE68:
 2097               	.sizeCFE_EVS_SetFilterMaskCmd, .-CFE_EVS_SetFilterMaskCmd
 2098               	.section.rodata
 2099               	.LC30:
 2100 0563 4269 7420 	.string"Bit Mask = 0x%08x out of range: CC = %lu"
 2100      4D61 736B 
68K GAS   			page 61


 2100      203D 2030 
 2100      7825 3038 
 2100      7820 6F75 
 2101               	.LC31:
 2102 058c 456E 6162 	.string"Enable Ports Command Received with Port Bit Mask = 0x%02x"
 2102      6C65 2050 
 2102      6F72 7473 
 2102      2043 6F6D 
 2102      6D61 6E64 
 2103               	.text
 2104               	.align2
 2105               	.globlCFE_EVS_EnablePortsCmd
 2106               	.typeCFE_EVS_EnablePortsCmd, @function
 2107               	CFE_EVS_EnablePortsCmd:
 2108               	.LFB69:
 897:/home/simulink/cFS_FreeRTOS_seL4/cfe/fsw/cfe-core/src/evs/cfe_evs_task.c **** 
 898:/home/simulink/cFS_FreeRTOS_seL4/cfe/fsw/cfe-core/src/evs/cfe_evs_task.c **** 
 899:/home/simulink/cFS_FreeRTOS_seL4/cfe/fsw/cfe-core/src/evs/cfe_evs_task.c **** 
 900:/home/simulink/cFS_FreeRTOS_seL4/cfe/fsw/cfe-core/src/evs/cfe_evs_task.c **** /*
 901:/home/simulink/cFS_FreeRTOS_seL4/cfe/fsw/cfe-core/src/evs/cfe_evs_task.c **** **             Function Prologue
 902:/home/simulink/cFS_FreeRTOS_seL4/cfe/fsw/cfe-core/src/evs/cfe_evs_task.c **** **
 903:/home/simulink/cFS_FreeRTOS_seL4/cfe/fsw/cfe-core/src/evs/cfe_evs_task.c **** ** Function Name:      CFE_EVS_EnablePortsCmd
 904:/home/simulink/cFS_FreeRTOS_seL4/cfe/fsw/cfe-core/src/evs/cfe_evs_task.c **** **
 905:/home/simulink/cFS_FreeRTOS_seL4/cfe/fsw/cfe-core/src/evs/cfe_evs_task.c **** ** Purpose:  This routine sets the command given ports to an enabled state
 906:/home/simulink/cFS_FreeRTOS_seL4/cfe/fsw/cfe-core/src/evs/cfe_evs_task.c **** **
 907:/home/simulink/cFS_FreeRTOS_seL4/cfe/fsw/cfe-core/src/evs/cfe_evs_task.c **** ** Assumptions and Notes:
 908:/home/simulink/cFS_FreeRTOS_seL4/cfe/fsw/cfe-core/src/evs/cfe_evs_task.c **** ** Shifting is done so the value not masked off is placed in the ones spot:
 909:/home/simulink/cFS_FreeRTOS_seL4/cfe/fsw/cfe-core/src/evs/cfe_evs_task.c **** ** necessary for comparing with TRUE.
 910:/home/simulink/cFS_FreeRTOS_seL4/cfe/fsw/cfe-core/src/evs/cfe_evs_task.c **** */
 911:/home/simulink/cFS_FreeRTOS_seL4/cfe/fsw/cfe-core/src/evs/cfe_evs_task.c **** boolean CFE_EVS_EnablePortsCmd (const CFE_SB_MsgPayloadPtr_t Payload)
 912:/home/simulink/cFS_FreeRTOS_seL4/cfe/fsw/cfe-core/src/evs/cfe_evs_task.c **** {
 2109               	.loc 1 912 0
 2110               	.cfi_startproc
 2111 1050 518F      	subq.l #8,%sp
 2112               	.cfi_def_cfa_offset 12
 913:/home/simulink/cFS_FreeRTOS_seL4/cfe/fsw/cfe-core/src/evs/cfe_evs_task.c ****     const CFE_EVS_BitMaskCmd_Payload_t *CmdPtr = (const CFE_EVS_BitMaskCmd_Payload_t *)Payload;
 2113               	.loc 1 913 0
 2114 1052 2EAF 000C 	move.l 12(%sp),(%sp)
 914:/home/simulink/cFS_FreeRTOS_seL4/cfe/fsw/cfe-core/src/evs/cfe_evs_task.c ****     boolean ReturnCode;
 915:/home/simulink/cFS_FreeRTOS_seL4/cfe/fsw/cfe-core/src/evs/cfe_evs_task.c **** 
 916:/home/simulink/cFS_FreeRTOS_seL4/cfe/fsw/cfe-core/src/evs/cfe_evs_task.c ****     /* Need to check for an out of range bitmask, since oue bit masks are only 4 bits */
 917:/home/simulink/cFS_FreeRTOS_seL4/cfe/fsw/cfe-core/src/evs/cfe_evs_task.c ****     if (CmdPtr->BitMask == 0x0 || CmdPtr->BitMask > 0x0F)
 2115               	.loc 1 917 0
 2116 1056 2057      	move.l (%sp),%a0
 2117 1058 1010      	move.b (%a0),%d0
 2118 105a 4A00      	tst.b %d0
 2119 105c 6712      	jeq .L133
 2120               	.loc 1 917 0 is_stmt 0 discriminator 1
 2121 105e 2057      	move.l (%sp),%a0
 2122 1060 1010      	move.b (%a0),%d0
 2123 1062 1000      	move.b %d0,%d0
 2124 1064 0280 0000 	and.l #255,%d0
 2124      00FF 
 2125 106a 720F      	moveq #15,%d1
 2126 106c B280      	cmp.l %d0,%d1
 2127 106e 6434      	jcc .L134
 2128               	.L133:
68K GAS   			page 62


 918:/home/simulink/cFS_FreeRTOS_seL4/cfe/fsw/cfe-core/src/evs/cfe_evs_task.c ****     {
 919:/home/simulink/cFS_FreeRTOS_seL4/cfe/fsw/cfe-core/src/evs/cfe_evs_task.c ****         EVS_SendEvent(CFE_EVS_ERR_INVALID_BITMASK_EID, CFE_EVS_ERROR,
 920:/home/simulink/cFS_FreeRTOS_seL4/cfe/fsw/cfe-core/src/evs/cfe_evs_task.c ****                           "Bit Mask = 0x%08x out of range: CC = %lu",
 921:/home/simulink/cFS_FreeRTOS_seL4/cfe/fsw/cfe-core/src/evs/cfe_evs_task.c ****                           (unsigned int)CmdPtr->BitMask, (long unsigned int)CFE_EVS_ENABLE_PORTS_CC
 2129               	.loc 1 921 0 is_stmt 1
 2130 1070 2057      	move.l (%sp),%a0
 2131 1072 1010      	move.b (%a0),%d0
 919:/home/simulink/cFS_FreeRTOS_seL4/cfe/fsw/cfe-core/src/evs/cfe_evs_task.c ****                           "Bit Mask = 0x%08x out of range: CC = %lu",
 2132               	.loc 1 919 0
 2133 1074 1000      	move.b %d0,%d0
 2134 1076 0280 0000 	and.l #255,%d0
 2134      00FF 
 2135 107c 4878 000B 	pea 11.w
 2136               	.cfi_def_cfa_offset 16
 2137 1080 2F00      	move.l %d0,-(%sp)
 2138               	.cfi_def_cfa_offset 20
 2139 1082 4879 0000 	pea .LC30
 2139      0000 
 2140               	.cfi_def_cfa_offset 24
 2141 1088 4878 0003 	pea 3.w
 2142               	.cfi_def_cfa_offset 28
 2143 108c 4878 0028 	pea 40.w
 2144               	.cfi_def_cfa_offset 32
 2145 1090 4EB9 0000 	jsr EVS_SendEvent
 2145      0000 
 2146 1096 4FEF 0014 	lea (20,%sp),%sp
 2147               	.cfi_def_cfa_offset 12
 922:/home/simulink/cFS_FreeRTOS_seL4/cfe/fsw/cfe-core/src/evs/cfe_evs_task.c ****         ReturnCode = FALSE;  
 2148               	.loc 1 922 0
 2149 109a 4200      	clr.b %d0
 2150 109c 1F40 0007 	move.b %d0,7(%sp)
 2151 10a0 6000 00C6 	jra .L135
 2152               	.L134:
 923:/home/simulink/cFS_FreeRTOS_seL4/cfe/fsw/cfe-core/src/evs/cfe_evs_task.c ****     }
 924:/home/simulink/cFS_FreeRTOS_seL4/cfe/fsw/cfe-core/src/evs/cfe_evs_task.c ****     else
 925:/home/simulink/cFS_FreeRTOS_seL4/cfe/fsw/cfe-core/src/evs/cfe_evs_task.c ****     {
 926:/home/simulink/cFS_FreeRTOS_seL4/cfe/fsw/cfe-core/src/evs/cfe_evs_task.c **** 
 927:/home/simulink/cFS_FreeRTOS_seL4/cfe/fsw/cfe-core/src/evs/cfe_evs_task.c ****         /* Process command data */
 928:/home/simulink/cFS_FreeRTOS_seL4/cfe/fsw/cfe-core/src/evs/cfe_evs_task.c ****         if(((CmdPtr->BitMask & CFE_EVS_PORT1_BIT) >> 0) == TRUE)
 2153               	.loc 1 928 0
 2154 10a4 2057      	move.l (%sp),%a0
 2155 10a6 1010      	move.b (%a0),%d0
 2156 10a8 1000      	move.b %d0,%d0
 2157 10aa 0280 0000 	and.l #255,%d0
 2157      00FF 
 2158 10b0 7201      	moveq #1,%d1
 2159 10b2 C081      	and.l %d1,%d0
 2160 10b4 4A80      	tst.l %d0
 2161 10b6 6712      	jeq .L136
 929:/home/simulink/cFS_FreeRTOS_seL4/cfe/fsw/cfe-core/src/evs/cfe_evs_task.c ****         {
 930:/home/simulink/cFS_FreeRTOS_seL4/cfe/fsw/cfe-core/src/evs/cfe_evs_task.c ****             CFE_EVS_GlobalData.EVS_TlmPkt.Payload.OutputPort |= CFE_EVS_PORT1_BIT;
 2162               	.loc 1 930 0
 2163 10b8 1039 0000 	move.b CFE_EVS_GlobalData+2261,%d0
 2163      0000 
 2164 10be 7201      	moveq #1,%d1
 2165 10c0 8081      	or.l %d1,%d0
 2166 10c2 1000      	move.b %d0,%d0
68K GAS   			page 63


 2167 10c4 13C0 0000 	move.b %d0,CFE_EVS_GlobalData+2261
 2167      0000 
 2168               	.L136:
 931:/home/simulink/cFS_FreeRTOS_seL4/cfe/fsw/cfe-core/src/evs/cfe_evs_task.c ****         }
 932:/home/simulink/cFS_FreeRTOS_seL4/cfe/fsw/cfe-core/src/evs/cfe_evs_task.c ****         if(((CmdPtr->BitMask & CFE_EVS_PORT2_BIT) >>1) == TRUE)
 2169               	.loc 1 932 0
 2170 10ca 2057      	move.l (%sp),%a0
 2171 10cc 1010      	move.b (%a0),%d0
 2172 10ce 1000      	move.b %d0,%d0
 2173 10d0 0280 0000 	and.l #255,%d0
 2173      00FF 
 2174 10d6 7202      	moveq #2,%d1
 2175 10d8 C081      	and.l %d1,%d0
 2176 10da 4A80      	tst.l %d0
 2177 10dc 6712      	jeq .L137
 933:/home/simulink/cFS_FreeRTOS_seL4/cfe/fsw/cfe-core/src/evs/cfe_evs_task.c ****         {
 934:/home/simulink/cFS_FreeRTOS_seL4/cfe/fsw/cfe-core/src/evs/cfe_evs_task.c ****             CFE_EVS_GlobalData.EVS_TlmPkt.Payload.OutputPort |= CFE_EVS_PORT2_BIT;
 2178               	.loc 1 934 0
 2179 10de 1039 0000 	move.b CFE_EVS_GlobalData+2261,%d0
 2179      0000 
 2180 10e4 7202      	moveq #2,%d1
 2181 10e6 8081      	or.l %d1,%d0
 2182 10e8 1000      	move.b %d0,%d0
 2183 10ea 13C0 0000 	move.b %d0,CFE_EVS_GlobalData+2261
 2183      0000 
 2184               	.L137:
 935:/home/simulink/cFS_FreeRTOS_seL4/cfe/fsw/cfe-core/src/evs/cfe_evs_task.c ****         }
 936:/home/simulink/cFS_FreeRTOS_seL4/cfe/fsw/cfe-core/src/evs/cfe_evs_task.c ****         if(((CmdPtr->BitMask & CFE_EVS_PORT3_BIT) >> 2) == TRUE)
 2185               	.loc 1 936 0
 2186 10f0 2057      	move.l (%sp),%a0
 2187 10f2 1010      	move.b (%a0),%d0
 2188 10f4 1000      	move.b %d0,%d0
 2189 10f6 0280 0000 	and.l #255,%d0
 2189      00FF 
 2190 10fc 7204      	moveq #4,%d1
 2191 10fe C081      	and.l %d1,%d0
 2192 1100 4A80      	tst.l %d0
 2193 1102 6712      	jeq .L138
 937:/home/simulink/cFS_FreeRTOS_seL4/cfe/fsw/cfe-core/src/evs/cfe_evs_task.c ****         {
 938:/home/simulink/cFS_FreeRTOS_seL4/cfe/fsw/cfe-core/src/evs/cfe_evs_task.c ****             CFE_EVS_GlobalData.EVS_TlmPkt.Payload.OutputPort |= CFE_EVS_PORT3_BIT;
 2194               	.loc 1 938 0
 2195 1104 1039 0000 	move.b CFE_EVS_GlobalData+2261,%d0
 2195      0000 
 2196 110a 7204      	moveq #4,%d1
 2197 110c 8081      	or.l %d1,%d0
 2198 110e 1000      	move.b %d0,%d0
 2199 1110 13C0 0000 	move.b %d0,CFE_EVS_GlobalData+2261
 2199      0000 
 2200               	.L138:
 939:/home/simulink/cFS_FreeRTOS_seL4/cfe/fsw/cfe-core/src/evs/cfe_evs_task.c ****         }
 940:/home/simulink/cFS_FreeRTOS_seL4/cfe/fsw/cfe-core/src/evs/cfe_evs_task.c ****         if(((CmdPtr->BitMask & CFE_EVS_PORT4_BIT) >>3) == TRUE)
 2201               	.loc 1 940 0
 2202 1116 2057      	move.l (%sp),%a0
 2203 1118 1010      	move.b (%a0),%d0
 2204 111a 1000      	move.b %d0,%d0
 2205 111c 0280 0000 	and.l #255,%d0
 2205      00FF 
68K GAS   			page 64


 2206 1122 7208      	moveq #8,%d1
 2207 1124 C081      	and.l %d1,%d0
 2208 1126 4A80      	tst.l %d0
 2209 1128 6712      	jeq .L139
 941:/home/simulink/cFS_FreeRTOS_seL4/cfe/fsw/cfe-core/src/evs/cfe_evs_task.c ****         {
 942:/home/simulink/cFS_FreeRTOS_seL4/cfe/fsw/cfe-core/src/evs/cfe_evs_task.c ****             CFE_EVS_GlobalData.EVS_TlmPkt.Payload.OutputPort |= CFE_EVS_PORT4_BIT;
 2210               	.loc 1 942 0
 2211 112a 1039 0000 	move.b CFE_EVS_GlobalData+2261,%d0
 2211      0000 
 2212 1130 7208      	moveq #8,%d1
 2213 1132 8081      	or.l %d1,%d0
 2214 1134 1000      	move.b %d0,%d0
 2215 1136 13C0 0000 	move.b %d0,CFE_EVS_GlobalData+2261
 2215      0000 
 2216               	.L139:
 943:/home/simulink/cFS_FreeRTOS_seL4/cfe/fsw/cfe-core/src/evs/cfe_evs_task.c ****         }
 944:/home/simulink/cFS_FreeRTOS_seL4/cfe/fsw/cfe-core/src/evs/cfe_evs_task.c **** 
 945:/home/simulink/cFS_FreeRTOS_seL4/cfe/fsw/cfe-core/src/evs/cfe_evs_task.c ****         EVS_SendEvent(CFE_EVS_ENAPORT_EID, CFE_EVS_DEBUG,
 946:/home/simulink/cFS_FreeRTOS_seL4/cfe/fsw/cfe-core/src/evs/cfe_evs_task.c ****                         "Enable Ports Command Received with Port Bit Mask = 0x%02x",
 947:/home/simulink/cFS_FreeRTOS_seL4/cfe/fsw/cfe-core/src/evs/cfe_evs_task.c ****                         (unsigned int)CmdPtr->BitMask);
 2217               	.loc 1 947 0
 2218 113c 2057      	move.l (%sp),%a0
 2219 113e 1010      	move.b (%a0),%d0
 945:/home/simulink/cFS_FreeRTOS_seL4/cfe/fsw/cfe-core/src/evs/cfe_evs_task.c ****                         "Enable Ports Command Received with Port Bit Mask = 0x%02x",
 2220               	.loc 1 945 0
 2221 1140 1000      	move.b %d0,%d0
 2222 1142 0280 0000 	and.l #255,%d0
 2222      00FF 
 2223 1148 2F00      	move.l %d0,-(%sp)
 2224               	.cfi_def_cfa_offset 16
 2225 114a 4879 0000 	pea .LC31
 2225      0000 
 2226               	.cfi_def_cfa_offset 20
 2227 1150 4878 0001 	pea 1.w
 2228               	.cfi_def_cfa_offset 24
 2229 1154 4878 0012 	pea 18.w
 2230               	.cfi_def_cfa_offset 28
 2231 1158 4EB9 0000 	jsr EVS_SendEvent
 2231      0000 
 2232 115e 4FEF 0010 	lea (16,%sp),%sp
 2233               	.cfi_def_cfa_offset 12
 948:/home/simulink/cFS_FreeRTOS_seL4/cfe/fsw/cfe-core/src/evs/cfe_evs_task.c ****         ReturnCode = TRUE;
 2234               	.loc 1 948 0
 2235 1162 7001      	moveq #1,%d0
 2236 1164 1F40 0007 	move.b %d0,7(%sp)
 2237               	.L135:
 949:/home/simulink/cFS_FreeRTOS_seL4/cfe/fsw/cfe-core/src/evs/cfe_evs_task.c ****     }
 950:/home/simulink/cFS_FreeRTOS_seL4/cfe/fsw/cfe-core/src/evs/cfe_evs_task.c **** 
 951:/home/simulink/cFS_FreeRTOS_seL4/cfe/fsw/cfe-core/src/evs/cfe_evs_task.c ****     return ReturnCode;
 2238               	.loc 1 951 0
 2239 1168 102F 0007 	move.b 7(%sp),%d0
 952:/home/simulink/cFS_FreeRTOS_seL4/cfe/fsw/cfe-core/src/evs/cfe_evs_task.c **** 
 953:/home/simulink/cFS_FreeRTOS_seL4/cfe/fsw/cfe-core/src/evs/cfe_evs_task.c **** } /* End CFE_EVS_EnablePortsCmd */
 2240               	.loc 1 953 0
 2241 116c 508F      	addq.l #8,%sp
 2242 116e 4E75      	rts
 2243               	.cfi_endproc
68K GAS   			page 65


 2244               	.LFE69:
 2245               	.sizeCFE_EVS_EnablePortsCmd, .-CFE_EVS_EnablePortsCmd
 2246               	.section.rodata
 2247               	.LC32:
 2248 05c6 4469 7361 	.string"Disable Ports Command Received with Port Bit Mask = 0x%02x"
 2248      626C 6520 
 2248      506F 7274 
 2248      7320 436F 
 2248      6D6D 616E 
 2249               	.text
 2250               	.align2
 2251               	.globlCFE_EVS_DisablePortsCmd
 2252               	.typeCFE_EVS_DisablePortsCmd, @function
 2253               	CFE_EVS_DisablePortsCmd:
 2254               	.LFB70:
 954:/home/simulink/cFS_FreeRTOS_seL4/cfe/fsw/cfe-core/src/evs/cfe_evs_task.c **** 
 955:/home/simulink/cFS_FreeRTOS_seL4/cfe/fsw/cfe-core/src/evs/cfe_evs_task.c **** 
 956:/home/simulink/cFS_FreeRTOS_seL4/cfe/fsw/cfe-core/src/evs/cfe_evs_task.c **** /*
 957:/home/simulink/cFS_FreeRTOS_seL4/cfe/fsw/cfe-core/src/evs/cfe_evs_task.c **** **             Function Prologue
 958:/home/simulink/cFS_FreeRTOS_seL4/cfe/fsw/cfe-core/src/evs/cfe_evs_task.c **** **
 959:/home/simulink/cFS_FreeRTOS_seL4/cfe/fsw/cfe-core/src/evs/cfe_evs_task.c **** ** Function Name:      CFE_EVS_DisablePortsCmd
 960:/home/simulink/cFS_FreeRTOS_seL4/cfe/fsw/cfe-core/src/evs/cfe_evs_task.c **** **
 961:/home/simulink/cFS_FreeRTOS_seL4/cfe/fsw/cfe-core/src/evs/cfe_evs_task.c **** ** Purpose:  This routine sets the command given ports to a disabled state
 962:/home/simulink/cFS_FreeRTOS_seL4/cfe/fsw/cfe-core/src/evs/cfe_evs_task.c **** **
 963:/home/simulink/cFS_FreeRTOS_seL4/cfe/fsw/cfe-core/src/evs/cfe_evs_task.c **** ** Assumptions and Notes:
 964:/home/simulink/cFS_FreeRTOS_seL4/cfe/fsw/cfe-core/src/evs/cfe_evs_task.c **** ** Shifting is done so the value not masked off is placed in the ones spot:
 965:/home/simulink/cFS_FreeRTOS_seL4/cfe/fsw/cfe-core/src/evs/cfe_evs_task.c **** ** necessary for comparing with TRUE.
 966:/home/simulink/cFS_FreeRTOS_seL4/cfe/fsw/cfe-core/src/evs/cfe_evs_task.c **** */
 967:/home/simulink/cFS_FreeRTOS_seL4/cfe/fsw/cfe-core/src/evs/cfe_evs_task.c **** boolean CFE_EVS_DisablePortsCmd (const CFE_SB_MsgPayloadPtr_t Payload)
 968:/home/simulink/cFS_FreeRTOS_seL4/cfe/fsw/cfe-core/src/evs/cfe_evs_task.c **** {
 2255               	.loc 1 968 0
 2256               	.cfi_startproc
 2257 1170 518F      	subq.l #8,%sp
 2258               	.cfi_def_cfa_offset 12
 969:/home/simulink/cFS_FreeRTOS_seL4/cfe/fsw/cfe-core/src/evs/cfe_evs_task.c ****     
 970:/home/simulink/cFS_FreeRTOS_seL4/cfe/fsw/cfe-core/src/evs/cfe_evs_task.c ****    const CFE_EVS_BitMaskCmd_Payload_t *CmdPtr = (const CFE_EVS_BitMaskCmd_Payload_t *)Payload;
 2259               	.loc 1 970 0
 2260 1172 2EAF 000C 	move.l 12(%sp),(%sp)
 971:/home/simulink/cFS_FreeRTOS_seL4/cfe/fsw/cfe-core/src/evs/cfe_evs_task.c ****     boolean ReturnCode;
 972:/home/simulink/cFS_FreeRTOS_seL4/cfe/fsw/cfe-core/src/evs/cfe_evs_task.c **** 
 973:/home/simulink/cFS_FreeRTOS_seL4/cfe/fsw/cfe-core/src/evs/cfe_evs_task.c ****     /* Need to check for an out of range bitmask, since oue bit masks are only 4 bits */
 974:/home/simulink/cFS_FreeRTOS_seL4/cfe/fsw/cfe-core/src/evs/cfe_evs_task.c ****     if (CmdPtr->BitMask == 0x0 || CmdPtr->BitMask > 0x0F)
 2261               	.loc 1 974 0
 2262 1176 2057      	move.l (%sp),%a0
 2263 1178 1010      	move.b (%a0),%d0
 2264 117a 4A00      	tst.b %d0
 2265 117c 6712      	jeq .L142
 2266               	.loc 1 974 0 is_stmt 0 discriminator 1
 2267 117e 2057      	move.l (%sp),%a0
 2268 1180 1010      	move.b (%a0),%d0
 2269 1182 1000      	move.b %d0,%d0
 2270 1184 0280 0000 	and.l #255,%d0
 2270      00FF 
 2271 118a 720F      	moveq #15,%d1
 2272 118c B280      	cmp.l %d0,%d1
 2273 118e 6434      	jcc .L143
 2274               	.L142:
68K GAS   			page 66


 975:/home/simulink/cFS_FreeRTOS_seL4/cfe/fsw/cfe-core/src/evs/cfe_evs_task.c ****     {
 976:/home/simulink/cFS_FreeRTOS_seL4/cfe/fsw/cfe-core/src/evs/cfe_evs_task.c ****         EVS_SendEvent(CFE_EVS_ERR_INVALID_BITMASK_EID, CFE_EVS_ERROR,
 977:/home/simulink/cFS_FreeRTOS_seL4/cfe/fsw/cfe-core/src/evs/cfe_evs_task.c ****                           "Bit Mask = 0x%08x out of range: CC = %lu",
 978:/home/simulink/cFS_FreeRTOS_seL4/cfe/fsw/cfe-core/src/evs/cfe_evs_task.c ****                           (unsigned int)CmdPtr->BitMask, (long unsigned int)CFE_EVS_DISABLE_PORTS_C
 2275               	.loc 1 978 0 is_stmt 1
 2276 1190 2057      	move.l (%sp),%a0
 2277 1192 1010      	move.b (%a0),%d0
 976:/home/simulink/cFS_FreeRTOS_seL4/cfe/fsw/cfe-core/src/evs/cfe_evs_task.c ****                           "Bit Mask = 0x%08x out of range: CC = %lu",
 2278               	.loc 1 976 0
 2279 1194 1000      	move.b %d0,%d0
 2280 1196 0280 0000 	and.l #255,%d0
 2280      00FF 
 2281 119c 4878 000C 	pea 12.w
 2282               	.cfi_def_cfa_offset 16
 2283 11a0 2F00      	move.l %d0,-(%sp)
 2284               	.cfi_def_cfa_offset 20
 2285 11a2 4879 0000 	pea .LC30
 2285      0000 
 2286               	.cfi_def_cfa_offset 24
 2287 11a8 4878 0003 	pea 3.w
 2288               	.cfi_def_cfa_offset 28
 2289 11ac 4878 0028 	pea 40.w
 2290               	.cfi_def_cfa_offset 32
 2291 11b0 4EB9 0000 	jsr EVS_SendEvent
 2291      0000 
 2292 11b6 4FEF 0014 	lea (20,%sp),%sp
 2293               	.cfi_def_cfa_offset 12
 979:/home/simulink/cFS_FreeRTOS_seL4/cfe/fsw/cfe-core/src/evs/cfe_evs_task.c ****         ReturnCode = FALSE;  
 2294               	.loc 1 979 0
 2295 11ba 4200      	clr.b %d0
 2296 11bc 1F40 0007 	move.b %d0,7(%sp)
 2297 11c0 6000 00C6 	jra .L144
 2298               	.L143:
 980:/home/simulink/cFS_FreeRTOS_seL4/cfe/fsw/cfe-core/src/evs/cfe_evs_task.c ****     }
 981:/home/simulink/cFS_FreeRTOS_seL4/cfe/fsw/cfe-core/src/evs/cfe_evs_task.c ****     else
 982:/home/simulink/cFS_FreeRTOS_seL4/cfe/fsw/cfe-core/src/evs/cfe_evs_task.c ****     {
 983:/home/simulink/cFS_FreeRTOS_seL4/cfe/fsw/cfe-core/src/evs/cfe_evs_task.c **** 
 984:/home/simulink/cFS_FreeRTOS_seL4/cfe/fsw/cfe-core/src/evs/cfe_evs_task.c ****         /* Process command data */
 985:/home/simulink/cFS_FreeRTOS_seL4/cfe/fsw/cfe-core/src/evs/cfe_evs_task.c ****         if(((CmdPtr->BitMask & CFE_EVS_PORT1_BIT) >>0) == TRUE)
 2299               	.loc 1 985 0
 2300 11c4 2057      	move.l (%sp),%a0
 2301 11c6 1010      	move.b (%a0),%d0
 2302 11c8 1000      	move.b %d0,%d0
 2303 11ca 0280 0000 	and.l #255,%d0
 2303      00FF 
 2304 11d0 7201      	moveq #1,%d1
 2305 11d2 C081      	and.l %d1,%d0
 2306 11d4 4A80      	tst.l %d0
 2307 11d6 6712      	jeq .L145
 986:/home/simulink/cFS_FreeRTOS_seL4/cfe/fsw/cfe-core/src/evs/cfe_evs_task.c ****         {
 987:/home/simulink/cFS_FreeRTOS_seL4/cfe/fsw/cfe-core/src/evs/cfe_evs_task.c ****             CFE_EVS_GlobalData.EVS_TlmPkt.Payload.OutputPort &= ~CFE_EVS_PORT1_BIT;
 2308               	.loc 1 987 0
 2309 11d8 1039 0000 	move.b CFE_EVS_GlobalData+2261,%d0
 2309      0000 
 2310 11de 72FE      	moveq #-2,%d1
 2311 11e0 C081      	and.l %d1,%d0
 2312 11e2 1000      	move.b %d0,%d0
68K GAS   			page 67


 2313 11e4 13C0 0000 	move.b %d0,CFE_EVS_GlobalData+2261
 2313      0000 
 2314               	.L145:
 988:/home/simulink/cFS_FreeRTOS_seL4/cfe/fsw/cfe-core/src/evs/cfe_evs_task.c ****         }
 989:/home/simulink/cFS_FreeRTOS_seL4/cfe/fsw/cfe-core/src/evs/cfe_evs_task.c ****         if(((CmdPtr->BitMask & CFE_EVS_PORT2_BIT) >> 1) == TRUE)
 2315               	.loc 1 989 0
 2316 11ea 2057      	move.l (%sp),%a0
 2317 11ec 1010      	move.b (%a0),%d0
 2318 11ee 1000      	move.b %d0,%d0
 2319 11f0 0280 0000 	and.l #255,%d0
 2319      00FF 
 2320 11f6 7202      	moveq #2,%d1
 2321 11f8 C081      	and.l %d1,%d0
 2322 11fa 4A80      	tst.l %d0
 2323 11fc 6712      	jeq .L146
 990:/home/simulink/cFS_FreeRTOS_seL4/cfe/fsw/cfe-core/src/evs/cfe_evs_task.c ****         {
 991:/home/simulink/cFS_FreeRTOS_seL4/cfe/fsw/cfe-core/src/evs/cfe_evs_task.c ****             CFE_EVS_GlobalData.EVS_TlmPkt.Payload.OutputPort &= ~CFE_EVS_PORT2_BIT;
 2324               	.loc 1 991 0
 2325 11fe 1039 0000 	move.b CFE_EVS_GlobalData+2261,%d0
 2325      0000 
 2326 1204 72FD      	moveq #-3,%d1
 2327 1206 C081      	and.l %d1,%d0
 2328 1208 1000      	move.b %d0,%d0
 2329 120a 13C0 0000 	move.b %d0,CFE_EVS_GlobalData+2261
 2329      0000 
 2330               	.L146:
 992:/home/simulink/cFS_FreeRTOS_seL4/cfe/fsw/cfe-core/src/evs/cfe_evs_task.c ****         }
 993:/home/simulink/cFS_FreeRTOS_seL4/cfe/fsw/cfe-core/src/evs/cfe_evs_task.c ****         if(((CmdPtr->BitMask & CFE_EVS_PORT3_BIT) >> 2) == TRUE)
 2331               	.loc 1 993 0
 2332 1210 2057      	move.l (%sp),%a0
 2333 1212 1010      	move.b (%a0),%d0
 2334 1214 1000      	move.b %d0,%d0
 2335 1216 0280 0000 	and.l #255,%d0
 2335      00FF 
 2336 121c 7204      	moveq #4,%d1
 2337 121e C081      	and.l %d1,%d0
 2338 1220 4A80      	tst.l %d0
 2339 1222 6712      	jeq .L147
 994:/home/simulink/cFS_FreeRTOS_seL4/cfe/fsw/cfe-core/src/evs/cfe_evs_task.c ****         {
 995:/home/simulink/cFS_FreeRTOS_seL4/cfe/fsw/cfe-core/src/evs/cfe_evs_task.c ****             CFE_EVS_GlobalData.EVS_TlmPkt.Payload.OutputPort &= ~CFE_EVS_PORT3_BIT;
 2340               	.loc 1 995 0
 2341 1224 1039 0000 	move.b CFE_EVS_GlobalData+2261,%d0
 2341      0000 
 2342 122a 72FB      	moveq #-5,%d1
 2343 122c C081      	and.l %d1,%d0
 2344 122e 1000      	move.b %d0,%d0
 2345 1230 13C0 0000 	move.b %d0,CFE_EVS_GlobalData+2261
 2345      0000 
 2346               	.L147:
 996:/home/simulink/cFS_FreeRTOS_seL4/cfe/fsw/cfe-core/src/evs/cfe_evs_task.c ****         }
 997:/home/simulink/cFS_FreeRTOS_seL4/cfe/fsw/cfe-core/src/evs/cfe_evs_task.c ****         if(((CmdPtr->BitMask & CFE_EVS_PORT4_BIT) >>3) == TRUE)
 2347               	.loc 1 997 0
 2348 1236 2057      	move.l (%sp),%a0
 2349 1238 1010      	move.b (%a0),%d0
 2350 123a 1000      	move.b %d0,%d0
 2351 123c 0280 0000 	and.l #255,%d0
 2351      00FF 
68K GAS   			page 68


 2352 1242 7208      	moveq #8,%d1
 2353 1244 C081      	and.l %d1,%d0
 2354 1246 4A80      	tst.l %d0
 2355 1248 6712      	jeq .L148
 998:/home/simulink/cFS_FreeRTOS_seL4/cfe/fsw/cfe-core/src/evs/cfe_evs_task.c ****         {
 999:/home/simulink/cFS_FreeRTOS_seL4/cfe/fsw/cfe-core/src/evs/cfe_evs_task.c ****             CFE_EVS_GlobalData.EVS_TlmPkt.Payload.OutputPort &= ~CFE_EVS_PORT4_BIT;
 2356               	.loc 1 999 0
 2357 124a 1039 0000 	move.b CFE_EVS_GlobalData+2261,%d0
 2357      0000 
 2358 1250 72F7      	moveq #-9,%d1
 2359 1252 C081      	and.l %d1,%d0
 2360 1254 1000      	move.b %d0,%d0
 2361 1256 13C0 0000 	move.b %d0,CFE_EVS_GlobalData+2261
 2361      0000 
 2362               	.L148:
1000:/home/simulink/cFS_FreeRTOS_seL4/cfe/fsw/cfe-core/src/evs/cfe_evs_task.c ****         }
1001:/home/simulink/cFS_FreeRTOS_seL4/cfe/fsw/cfe-core/src/evs/cfe_evs_task.c **** 
1002:/home/simulink/cFS_FreeRTOS_seL4/cfe/fsw/cfe-core/src/evs/cfe_evs_task.c ****         EVS_SendEvent(CFE_EVS_DISPORT_EID, CFE_EVS_DEBUG,
1003:/home/simulink/cFS_FreeRTOS_seL4/cfe/fsw/cfe-core/src/evs/cfe_evs_task.c ****                          "Disable Ports Command Received with Port Bit Mask = 0x%02x",
1004:/home/simulink/cFS_FreeRTOS_seL4/cfe/fsw/cfe-core/src/evs/cfe_evs_task.c ****                          CmdPtr->BitMask);
 2363               	.loc 1 1004 0
 2364 125c 2057      	move.l (%sp),%a0
 2365 125e 1010      	move.b (%a0),%d0
1002:/home/simulink/cFS_FreeRTOS_seL4/cfe/fsw/cfe-core/src/evs/cfe_evs_task.c ****                          "Disable Ports Command Received with Port Bit Mask = 0x%02x",
 2366               	.loc 1 1002 0
 2367 1260 1000      	move.b %d0,%d0
 2368 1262 0280 0000 	and.l #255,%d0
 2368      00FF 
 2369 1268 2F00      	move.l %d0,-(%sp)
 2370               	.cfi_def_cfa_offset 16
 2371 126a 4879 0000 	pea .LC32
 2371      0000 
 2372               	.cfi_def_cfa_offset 20
 2373 1270 4878 0001 	pea 1.w
 2374               	.cfi_def_cfa_offset 24
 2375 1274 4878 0013 	pea 19.w
 2376               	.cfi_def_cfa_offset 28
 2377 1278 4EB9 0000 	jsr EVS_SendEvent
 2377      0000 
 2378 127e 4FEF 0010 	lea (16,%sp),%sp
 2379               	.cfi_def_cfa_offset 12
1005:/home/simulink/cFS_FreeRTOS_seL4/cfe/fsw/cfe-core/src/evs/cfe_evs_task.c ****         
1006:/home/simulink/cFS_FreeRTOS_seL4/cfe/fsw/cfe-core/src/evs/cfe_evs_task.c ****         ReturnCode = TRUE;
 2380               	.loc 1 1006 0
 2381 1282 7001      	moveq #1,%d0
 2382 1284 1F40 0007 	move.b %d0,7(%sp)
 2383               	.L144:
1007:/home/simulink/cFS_FreeRTOS_seL4/cfe/fsw/cfe-core/src/evs/cfe_evs_task.c ****     }
1008:/home/simulink/cFS_FreeRTOS_seL4/cfe/fsw/cfe-core/src/evs/cfe_evs_task.c ****    
1009:/home/simulink/cFS_FreeRTOS_seL4/cfe/fsw/cfe-core/src/evs/cfe_evs_task.c ****     return ReturnCode;
 2384               	.loc 1 1009 0
 2385 1288 102F 0007 	move.b 7(%sp),%d0
1010:/home/simulink/cFS_FreeRTOS_seL4/cfe/fsw/cfe-core/src/evs/cfe_evs_task.c **** 
1011:/home/simulink/cFS_FreeRTOS_seL4/cfe/fsw/cfe-core/src/evs/cfe_evs_task.c **** } /* End CFE_EVS_DisablePortsCmd */
 2386               	.loc 1 1011 0
 2387 128c 508F      	addq.l #8,%sp
 2388 128e 4E75      	rts
68K GAS   			page 69


 2389               	.cfi_endproc
 2390               	.LFE70:
 2391               	.sizeCFE_EVS_DisablePortsCmd, .-CFE_EVS_DisablePortsCmd
 2392               	.section.rodata
 2393               	.LC33:
 2394 0601 456E 6162 	.string"Enable Event Type Command Received with Event Type Bit Mask = 0x%02x"
 2394      6C65 2045 
 2394      7665 6E74 
 2394      2054 7970 
 2394      6520 436F 
 2395               	.text
 2396               	.align2
 2397               	.globlCFE_EVS_EnableEventTypesCmd
 2398               	.typeCFE_EVS_EnableEventTypesCmd, @function
 2399               	CFE_EVS_EnableEventTypesCmd:
 2400               	.LFB71:
1012:/home/simulink/cFS_FreeRTOS_seL4/cfe/fsw/cfe-core/src/evs/cfe_evs_task.c **** 
1013:/home/simulink/cFS_FreeRTOS_seL4/cfe/fsw/cfe-core/src/evs/cfe_evs_task.c **** 
1014:/home/simulink/cFS_FreeRTOS_seL4/cfe/fsw/cfe-core/src/evs/cfe_evs_task.c **** 
1015:/home/simulink/cFS_FreeRTOS_seL4/cfe/fsw/cfe-core/src/evs/cfe_evs_task.c **** /*
1016:/home/simulink/cFS_FreeRTOS_seL4/cfe/fsw/cfe-core/src/evs/cfe_evs_task.c **** **             Function Prologue
1017:/home/simulink/cFS_FreeRTOS_seL4/cfe/fsw/cfe-core/src/evs/cfe_evs_task.c **** **
1018:/home/simulink/cFS_FreeRTOS_seL4/cfe/fsw/cfe-core/src/evs/cfe_evs_task.c **** ** Function Name:      CFE_EVS_EnableEventTypesCmd
1019:/home/simulink/cFS_FreeRTOS_seL4/cfe/fsw/cfe-core/src/evs/cfe_evs_task.c **** **
1020:/home/simulink/cFS_FreeRTOS_seL4/cfe/fsw/cfe-core/src/evs/cfe_evs_task.c **** ** Purpose:  This routine sets the given event types to an enabled state across all
1021:/home/simulink/cFS_FreeRTOS_seL4/cfe/fsw/cfe-core/src/evs/cfe_evs_task.c **** **           registered applications
1022:/home/simulink/cFS_FreeRTOS_seL4/cfe/fsw/cfe-core/src/evs/cfe_evs_task.c **** **
1023:/home/simulink/cFS_FreeRTOS_seL4/cfe/fsw/cfe-core/src/evs/cfe_evs_task.c **** ** Assumptions and Notes:
1024:/home/simulink/cFS_FreeRTOS_seL4/cfe/fsw/cfe-core/src/evs/cfe_evs_task.c **** **
1025:/home/simulink/cFS_FreeRTOS_seL4/cfe/fsw/cfe-core/src/evs/cfe_evs_task.c **** */
1026:/home/simulink/cFS_FreeRTOS_seL4/cfe/fsw/cfe-core/src/evs/cfe_evs_task.c **** boolean CFE_EVS_EnableEventTypesCmd (const CFE_SB_MsgPayloadPtr_t Payload)
1027:/home/simulink/cFS_FreeRTOS_seL4/cfe/fsw/cfe-core/src/evs/cfe_evs_task.c **** {
 2401               	.loc 1 1027 0
 2402               	.cfi_startproc
 2403 1290 4FEF FFF4 	lea (-12,%sp),%sp
 2404               	.cfi_def_cfa_offset 16
1028:/home/simulink/cFS_FreeRTOS_seL4/cfe/fsw/cfe-core/src/evs/cfe_evs_task.c ****    uint32      i;
1029:/home/simulink/cFS_FreeRTOS_seL4/cfe/fsw/cfe-core/src/evs/cfe_evs_task.c ****    const CFE_EVS_BitMaskCmd_Payload_t *CmdPtr = (const CFE_EVS_BitMaskCmd_Payload_t *)Payload;
 2405               	.loc 1 1029 0
 2406 1294 2EAF 0010 	move.l 16(%sp),(%sp)
1030:/home/simulink/cFS_FreeRTOS_seL4/cfe/fsw/cfe-core/src/evs/cfe_evs_task.c ****    boolean  ReturnCode; 
1031:/home/simulink/cFS_FreeRTOS_seL4/cfe/fsw/cfe-core/src/evs/cfe_evs_task.c **** 
1032:/home/simulink/cFS_FreeRTOS_seL4/cfe/fsw/cfe-core/src/evs/cfe_evs_task.c ****    /* Need to check for an out of range bitmask, since our bit masks are only 4 bits */
1033:/home/simulink/cFS_FreeRTOS_seL4/cfe/fsw/cfe-core/src/evs/cfe_evs_task.c ****    if (CmdPtr->BitMask == 0x0 || CmdPtr->BitMask > 0x0F)
 2407               	.loc 1 1033 0
 2408 1298 2057      	move.l (%sp),%a0
 2409 129a 1010      	move.b (%a0),%d0
 2410 129c 4A00      	tst.b %d0
 2411 129e 6712      	jeq .L151
 2412               	.loc 1 1033 0 is_stmt 0 discriminator 1
 2413 12a0 2057      	move.l (%sp),%a0
 2414 12a2 1010      	move.b (%a0),%d0
 2415 12a4 1000      	move.b %d0,%d0
 2416 12a6 0280 0000 	and.l #255,%d0
 2416      00FF 
 2417 12ac 720F      	moveq #15,%d1
 2418 12ae B280      	cmp.l %d0,%d1
68K GAS   			page 70


 2419 12b0 6432      	jcc .L152
 2420               	.L151:
1034:/home/simulink/cFS_FreeRTOS_seL4/cfe/fsw/cfe-core/src/evs/cfe_evs_task.c ****    {
1035:/home/simulink/cFS_FreeRTOS_seL4/cfe/fsw/cfe-core/src/evs/cfe_evs_task.c ****        EVS_SendEvent(CFE_EVS_ERR_INVALID_BITMASK_EID, CFE_EVS_ERROR,
1036:/home/simulink/cFS_FreeRTOS_seL4/cfe/fsw/cfe-core/src/evs/cfe_evs_task.c ****                          "Bit Mask = 0x%08x out of range: CC = %lu",
1037:/home/simulink/cFS_FreeRTOS_seL4/cfe/fsw/cfe-core/src/evs/cfe_evs_task.c ****                          (unsigned int)CmdPtr->BitMask, (long unsigned int)CFE_EVS_ENABLE_EVENT_TYP
 2421               	.loc 1 1037 0 is_stmt 1
 2422 12b2 2057      	move.l (%sp),%a0
 2423 12b4 1010      	move.b (%a0),%d0
1035:/home/simulink/cFS_FreeRTOS_seL4/cfe/fsw/cfe-core/src/evs/cfe_evs_task.c ****                          "Bit Mask = 0x%08x out of range: CC = %lu",
 2424               	.loc 1 1035 0
 2425 12b6 1000      	move.b %d0,%d0
 2426 12b8 0280 0000 	and.l #255,%d0
 2426      00FF 
 2427 12be 4878 0002 	pea 2.w
 2428               	.cfi_def_cfa_offset 20
 2429 12c2 2F00      	move.l %d0,-(%sp)
 2430               	.cfi_def_cfa_offset 24
 2431 12c4 4879 0000 	pea .LC30
 2431      0000 
 2432               	.cfi_def_cfa_offset 28
 2433 12ca 4878 0003 	pea 3.w
 2434               	.cfi_def_cfa_offset 32
 2435 12ce 4878 0028 	pea 40.w
 2436               	.cfi_def_cfa_offset 36
 2437 12d2 4EB9 0000 	jsr EVS_SendEvent
 2437      0000 
 2438 12d8 4FEF 0014 	lea (20,%sp),%sp
 2439               	.cfi_def_cfa_offset 16
1038:/home/simulink/cFS_FreeRTOS_seL4/cfe/fsw/cfe-core/src/evs/cfe_evs_task.c ****     ReturnCode = FALSE;  
 2440               	.loc 1 1038 0
 2441 12dc 4200      	clr.b %d0
 2442 12de 1F40 0007 	move.b %d0,7(%sp)
 2443 12e2 607A      	jra .L153
 2444               	.L152:
1039:/home/simulink/cFS_FreeRTOS_seL4/cfe/fsw/cfe-core/src/evs/cfe_evs_task.c ****    }
1040:/home/simulink/cFS_FreeRTOS_seL4/cfe/fsw/cfe-core/src/evs/cfe_evs_task.c ****    else
1041:/home/simulink/cFS_FreeRTOS_seL4/cfe/fsw/cfe-core/src/evs/cfe_evs_task.c ****    {
1042:/home/simulink/cFS_FreeRTOS_seL4/cfe/fsw/cfe-core/src/evs/cfe_evs_task.c **** 
1043:/home/simulink/cFS_FreeRTOS_seL4/cfe/fsw/cfe-core/src/evs/cfe_evs_task.c ****         
1044:/home/simulink/cFS_FreeRTOS_seL4/cfe/fsw/cfe-core/src/evs/cfe_evs_task.c **** 
1045:/home/simulink/cFS_FreeRTOS_seL4/cfe/fsw/cfe-core/src/evs/cfe_evs_task.c ****         for (i = 0; i < CFE_ES_MAX_APPLICATIONS; i++)
 2445               	.loc 1 1045 0
 2446 12e4 42AF 0008 	clr.l 8(%sp)
 2447 12e8 6040      	jra .L154
 2448               	.L156:
1046:/home/simulink/cFS_FreeRTOS_seL4/cfe/fsw/cfe-core/src/evs/cfe_evs_task.c ****         {
1047:/home/simulink/cFS_FreeRTOS_seL4/cfe/fsw/cfe-core/src/evs/cfe_evs_task.c ****             /* Make sure application is registered for event services */
1048:/home/simulink/cFS_FreeRTOS_seL4/cfe/fsw/cfe-core/src/evs/cfe_evs_task.c ****             if (CFE_EVS_GlobalData.AppData[i].RegisterFlag == TRUE)
 2449               	.loc 1 1048 0
 2450 12ea 202F 0008 	move.l 8(%sp),%d0
 2451 12ee 7246      	moveq #70,%d1
 2452 12f0 4C01 0800 	muls.l %d1,%d0
 2453 12f4 41F9 0000 	lea CFE_EVS_GlobalData+68,%a0
 2453      0000 
 2454 12fa 3030 0800 	move.w (%a0,%d0.l),%d0
 2455 12fe 3000      	move.w %d0,%d0
68K GAS   			page 71


 2456 1300 0280 0000 	and.l #65535,%d0
 2456      FFFF 
 2457 1306 7201      	moveq #1,%d1
 2458 1308 B280      	cmp.l %d0,%d1
 2459 130a 661A      	jne .L155
1049:/home/simulink/cFS_FreeRTOS_seL4/cfe/fsw/cfe-core/src/evs/cfe_evs_task.c ****             {
1050:/home/simulink/cFS_FreeRTOS_seL4/cfe/fsw/cfe-core/src/evs/cfe_evs_task.c ****                 EVS_EnableTypes(CmdPtr->BitMask, i);
 2460               	.loc 1 1050 0
 2461 130c 2057      	move.l (%sp),%a0
 2462 130e 1010      	move.b (%a0),%d0
 2463 1310 1000      	move.b %d0,%d0
 2464 1312 0280 0000 	and.l #255,%d0
 2464      00FF 
 2465 1318 2F2F 0008 	move.l 8(%sp),-(%sp)
 2466               	.cfi_def_cfa_offset 20
 2467 131c 2F00      	move.l %d0,-(%sp)
 2468               	.cfi_def_cfa_offset 24
 2469 131e 4EB9 0000 	jsr EVS_EnableTypes
 2469      0000 
 2470 1324 508F      	addq.l #8,%sp
 2471               	.cfi_def_cfa_offset 16
 2472               	.L155:
1045:/home/simulink/cFS_FreeRTOS_seL4/cfe/fsw/cfe-core/src/evs/cfe_evs_task.c ****         {
 2473               	.loc 1 1045 0 discriminator 2
 2474 1326 52AF 0008 	addq.l #1,8(%sp)
 2475               	.L154:
1045:/home/simulink/cFS_FreeRTOS_seL4/cfe/fsw/cfe-core/src/evs/cfe_evs_task.c ****         {
 2476               	.loc 1 1045 0 is_stmt 0 discriminator 1
 2477 132a 701F      	moveq #31,%d0
 2478 132c B0AF 0008 	cmp.l 8(%sp),%d0
 2479 1330 64B8      	jcc .L156
1051:/home/simulink/cFS_FreeRTOS_seL4/cfe/fsw/cfe-core/src/evs/cfe_evs_task.c ****             }
1052:/home/simulink/cFS_FreeRTOS_seL4/cfe/fsw/cfe-core/src/evs/cfe_evs_task.c ****         }
1053:/home/simulink/cFS_FreeRTOS_seL4/cfe/fsw/cfe-core/src/evs/cfe_evs_task.c **** 
1054:/home/simulink/cFS_FreeRTOS_seL4/cfe/fsw/cfe-core/src/evs/cfe_evs_task.c ****         EVS_SendEvent(CFE_EVS_ENAEVTTYPE_EID, CFE_EVS_DEBUG,
1055:/home/simulink/cFS_FreeRTOS_seL4/cfe/fsw/cfe-core/src/evs/cfe_evs_task.c ****                         "Enable Event Type Command Received with Event Type Bit Mask = 0x%02x",
1056:/home/simulink/cFS_FreeRTOS_seL4/cfe/fsw/cfe-core/src/evs/cfe_evs_task.c ****                          CmdPtr->BitMask);
 2480               	.loc 1 1056 0 is_stmt 1
 2481 1332 2057      	move.l (%sp),%a0
 2482 1334 1010      	move.b (%a0),%d0
1054:/home/simulink/cFS_FreeRTOS_seL4/cfe/fsw/cfe-core/src/evs/cfe_evs_task.c ****                         "Enable Event Type Command Received with Event Type Bit Mask = 0x%02x",
 2483               	.loc 1 1054 0
 2484 1336 1000      	move.b %d0,%d0
 2485 1338 0280 0000 	and.l #255,%d0
 2485      00FF 
 2486 133e 2F00      	move.l %d0,-(%sp)
 2487               	.cfi_def_cfa_offset 20
 2488 1340 4879 0000 	pea .LC33
 2488      0000 
 2489               	.cfi_def_cfa_offset 24
 2490 1346 4878 0001 	pea 1.w
 2491               	.cfi_def_cfa_offset 28
 2492 134a 4878 0014 	pea 20.w
 2493               	.cfi_def_cfa_offset 32
 2494 134e 4EB9 0000 	jsr EVS_SendEvent
 2494      0000 
 2495 1354 4FEF 0010 	lea (16,%sp),%sp
68K GAS   			page 72


 2496               	.cfi_def_cfa_offset 16
1057:/home/simulink/cFS_FreeRTOS_seL4/cfe/fsw/cfe-core/src/evs/cfe_evs_task.c **** 
1058:/home/simulink/cFS_FreeRTOS_seL4/cfe/fsw/cfe-core/src/evs/cfe_evs_task.c ****        ReturnCode = TRUE;
 2497               	.loc 1 1058 0
 2498 1358 7201      	moveq #1,%d1
 2499 135a 1F41 0007 	move.b %d1,7(%sp)
 2500               	.L153:
1059:/home/simulink/cFS_FreeRTOS_seL4/cfe/fsw/cfe-core/src/evs/cfe_evs_task.c ****    }
1060:/home/simulink/cFS_FreeRTOS_seL4/cfe/fsw/cfe-core/src/evs/cfe_evs_task.c **** 
1061:/home/simulink/cFS_FreeRTOS_seL4/cfe/fsw/cfe-core/src/evs/cfe_evs_task.c ****    return ReturnCode;
 2501               	.loc 1 1061 0
 2502 135e 102F 0007 	move.b 7(%sp),%d0
1062:/home/simulink/cFS_FreeRTOS_seL4/cfe/fsw/cfe-core/src/evs/cfe_evs_task.c **** 
1063:/home/simulink/cFS_FreeRTOS_seL4/cfe/fsw/cfe-core/src/evs/cfe_evs_task.c **** } /* End CFE_EVS_EnableEventTypesCmd */
 2503               	.loc 1 1063 0
 2504 1362 4FEF 000C 	lea (12,%sp),%sp
 2505 1366 4E75      	rts
 2506               	.cfi_endproc
 2507               	.LFE71:
 2508               	.sizeCFE_EVS_EnableEventTypesCmd, .-CFE_EVS_EnableEventTypesCmd
 2509               	.section.rodata
 2510               	.LC34:
 2511 0646 4469 7361 	.string"Disable Event Type Command Received with Event Type Bit Mask = 0x%02x"
 2511      626C 6520 
 2511      4576 656E 
 2511      7420 5479 
 2511      7065 2043 
 2512               	.text
 2513               	.align2
 2514               	.globlCFE_EVS_DisableEventTypesCmd
 2515               	.typeCFE_EVS_DisableEventTypesCmd, @function
 2516               	CFE_EVS_DisableEventTypesCmd:
 2517               	.LFB72:
1064:/home/simulink/cFS_FreeRTOS_seL4/cfe/fsw/cfe-core/src/evs/cfe_evs_task.c **** 
1065:/home/simulink/cFS_FreeRTOS_seL4/cfe/fsw/cfe-core/src/evs/cfe_evs_task.c **** 
1066:/home/simulink/cFS_FreeRTOS_seL4/cfe/fsw/cfe-core/src/evs/cfe_evs_task.c **** /*
1067:/home/simulink/cFS_FreeRTOS_seL4/cfe/fsw/cfe-core/src/evs/cfe_evs_task.c **** **             Function Prologue
1068:/home/simulink/cFS_FreeRTOS_seL4/cfe/fsw/cfe-core/src/evs/cfe_evs_task.c **** **
1069:/home/simulink/cFS_FreeRTOS_seL4/cfe/fsw/cfe-core/src/evs/cfe_evs_task.c **** ** Function Name:      CFE_EVS_DisableEventTypesCmd
1070:/home/simulink/cFS_FreeRTOS_seL4/cfe/fsw/cfe-core/src/evs/cfe_evs_task.c **** **
1071:/home/simulink/cFS_FreeRTOS_seL4/cfe/fsw/cfe-core/src/evs/cfe_evs_task.c **** ** Purpose:  This routine sets the given event types to a disabled state across all
1072:/home/simulink/cFS_FreeRTOS_seL4/cfe/fsw/cfe-core/src/evs/cfe_evs_task.c **** **           registered applications
1073:/home/simulink/cFS_FreeRTOS_seL4/cfe/fsw/cfe-core/src/evs/cfe_evs_task.c **** **
1074:/home/simulink/cFS_FreeRTOS_seL4/cfe/fsw/cfe-core/src/evs/cfe_evs_task.c **** ** Assumptions and Notes:
1075:/home/simulink/cFS_FreeRTOS_seL4/cfe/fsw/cfe-core/src/evs/cfe_evs_task.c **** **
1076:/home/simulink/cFS_FreeRTOS_seL4/cfe/fsw/cfe-core/src/evs/cfe_evs_task.c **** */
1077:/home/simulink/cFS_FreeRTOS_seL4/cfe/fsw/cfe-core/src/evs/cfe_evs_task.c **** boolean CFE_EVS_DisableEventTypesCmd (const CFE_SB_MsgPayloadPtr_t Payload)
1078:/home/simulink/cFS_FreeRTOS_seL4/cfe/fsw/cfe-core/src/evs/cfe_evs_task.c **** {
 2518               	.loc 1 1078 0
 2519               	.cfi_startproc
 2520 1368 4FEF FFF4 	lea (-12,%sp),%sp
 2521               	.cfi_def_cfa_offset 16
1079:/home/simulink/cFS_FreeRTOS_seL4/cfe/fsw/cfe-core/src/evs/cfe_evs_task.c ****    uint32   i;
1080:/home/simulink/cFS_FreeRTOS_seL4/cfe/fsw/cfe-core/src/evs/cfe_evs_task.c ****    const CFE_EVS_BitMaskCmd_Payload_t *CmdPtr = (const CFE_EVS_BitMaskCmd_Payload_t *)Payload;
 2522               	.loc 1 1080 0
 2523 136c 2EAF 0010 	move.l 16(%sp),(%sp)
1081:/home/simulink/cFS_FreeRTOS_seL4/cfe/fsw/cfe-core/src/evs/cfe_evs_task.c ****    boolean  ReturnCode; 
68K GAS   			page 73


1082:/home/simulink/cFS_FreeRTOS_seL4/cfe/fsw/cfe-core/src/evs/cfe_evs_task.c **** 
1083:/home/simulink/cFS_FreeRTOS_seL4/cfe/fsw/cfe-core/src/evs/cfe_evs_task.c ****    /* Need to check for an out of range bitmask, since our bit masks are only 4 bits */
1084:/home/simulink/cFS_FreeRTOS_seL4/cfe/fsw/cfe-core/src/evs/cfe_evs_task.c ****    if (CmdPtr->BitMask == 0x0 || CmdPtr->BitMask > 0x0F)
 2524               	.loc 1 1084 0
 2525 1370 2057      	move.l (%sp),%a0
 2526 1372 1010      	move.b (%a0),%d0
 2527 1374 4A00      	tst.b %d0
 2528 1376 6712      	jeq .L159
 2529               	.loc 1 1084 0 is_stmt 0 discriminator 1
 2530 1378 2057      	move.l (%sp),%a0
 2531 137a 1010      	move.b (%a0),%d0
 2532 137c 1000      	move.b %d0,%d0
 2533 137e 0280 0000 	and.l #255,%d0
 2533      00FF 
 2534 1384 720F      	moveq #15,%d1
 2535 1386 B280      	cmp.l %d0,%d1
 2536 1388 6432      	jcc .L160
 2537               	.L159:
1085:/home/simulink/cFS_FreeRTOS_seL4/cfe/fsw/cfe-core/src/evs/cfe_evs_task.c ****    {
1086:/home/simulink/cFS_FreeRTOS_seL4/cfe/fsw/cfe-core/src/evs/cfe_evs_task.c ****        EVS_SendEvent(CFE_EVS_ERR_INVALID_BITMASK_EID, CFE_EVS_ERROR,
1087:/home/simulink/cFS_FreeRTOS_seL4/cfe/fsw/cfe-core/src/evs/cfe_evs_task.c ****                          "Bit Mask = 0x%08x out of range: CC = %lu",
1088:/home/simulink/cFS_FreeRTOS_seL4/cfe/fsw/cfe-core/src/evs/cfe_evs_task.c ****                          (unsigned int)CmdPtr->BitMask, (long unsigned int)CFE_EVS_DISABLE_EVENT_TY
 2538               	.loc 1 1088 0 is_stmt 1
 2539 138a 2057      	move.l (%sp),%a0
 2540 138c 1010      	move.b (%a0),%d0
1086:/home/simulink/cFS_FreeRTOS_seL4/cfe/fsw/cfe-core/src/evs/cfe_evs_task.c ****                          "Bit Mask = 0x%08x out of range: CC = %lu",
 2541               	.loc 1 1086 0
 2542 138e 1000      	move.b %d0,%d0
 2543 1390 0280 0000 	and.l #255,%d0
 2543      00FF 
 2544 1396 4878 0003 	pea 3.w
 2545               	.cfi_def_cfa_offset 20
 2546 139a 2F00      	move.l %d0,-(%sp)
 2547               	.cfi_def_cfa_offset 24
 2548 139c 4879 0000 	pea .LC30
 2548      0000 
 2549               	.cfi_def_cfa_offset 28
 2550 13a2 4878 0003 	pea 3.w
 2551               	.cfi_def_cfa_offset 32
 2552 13a6 4878 0028 	pea 40.w
 2553               	.cfi_def_cfa_offset 36
 2554 13aa 4EB9 0000 	jsr EVS_SendEvent
 2554      0000 
 2555 13b0 4FEF 0014 	lea (20,%sp),%sp
 2556               	.cfi_def_cfa_offset 16
1089:/home/simulink/cFS_FreeRTOS_seL4/cfe/fsw/cfe-core/src/evs/cfe_evs_task.c ****     ReturnCode = FALSE;  
 2557               	.loc 1 1089 0
 2558 13b4 4200      	clr.b %d0
 2559 13b6 1F40 0007 	move.b %d0,7(%sp)
 2560 13ba 607A      	jra .L161
 2561               	.L160:
1090:/home/simulink/cFS_FreeRTOS_seL4/cfe/fsw/cfe-core/src/evs/cfe_evs_task.c ****    }
1091:/home/simulink/cFS_FreeRTOS_seL4/cfe/fsw/cfe-core/src/evs/cfe_evs_task.c **** 
1092:/home/simulink/cFS_FreeRTOS_seL4/cfe/fsw/cfe-core/src/evs/cfe_evs_task.c ****    else
1093:/home/simulink/cFS_FreeRTOS_seL4/cfe/fsw/cfe-core/src/evs/cfe_evs_task.c ****    {
1094:/home/simulink/cFS_FreeRTOS_seL4/cfe/fsw/cfe-core/src/evs/cfe_evs_task.c **** 
1095:/home/simulink/cFS_FreeRTOS_seL4/cfe/fsw/cfe-core/src/evs/cfe_evs_task.c ****         for (i = 0; i < CFE_ES_MAX_APPLICATIONS; i++)
68K GAS   			page 74


 2562               	.loc 1 1095 0
 2563 13bc 42AF 0008 	clr.l 8(%sp)
 2564 13c0 6040      	jra .L162
 2565               	.L164:
1096:/home/simulink/cFS_FreeRTOS_seL4/cfe/fsw/cfe-core/src/evs/cfe_evs_task.c ****         {
1097:/home/simulink/cFS_FreeRTOS_seL4/cfe/fsw/cfe-core/src/evs/cfe_evs_task.c ****             /* Make sure application is registered for event services */
1098:/home/simulink/cFS_FreeRTOS_seL4/cfe/fsw/cfe-core/src/evs/cfe_evs_task.c ****             if (CFE_EVS_GlobalData.AppData[i].RegisterFlag == TRUE)
 2566               	.loc 1 1098 0
 2567 13c2 202F 0008 	move.l 8(%sp),%d0
 2568 13c6 7246      	moveq #70,%d1
 2569 13c8 4C01 0800 	muls.l %d1,%d0
 2570 13cc 41F9 0000 	lea CFE_EVS_GlobalData+68,%a0
 2570      0000 
 2571 13d2 3030 0800 	move.w (%a0,%d0.l),%d0
 2572 13d6 3000      	move.w %d0,%d0
 2573 13d8 0280 0000 	and.l #65535,%d0
 2573      FFFF 
 2574 13de 7201      	moveq #1,%d1
 2575 13e0 B280      	cmp.l %d0,%d1
 2576 13e2 661A      	jne .L163
1099:/home/simulink/cFS_FreeRTOS_seL4/cfe/fsw/cfe-core/src/evs/cfe_evs_task.c ****             {
1100:/home/simulink/cFS_FreeRTOS_seL4/cfe/fsw/cfe-core/src/evs/cfe_evs_task.c ****                 EVS_DisableTypes(CmdPtr->BitMask, i);
 2577               	.loc 1 1100 0
 2578 13e4 2057      	move.l (%sp),%a0
 2579 13e6 1010      	move.b (%a0),%d0
 2580 13e8 1000      	move.b %d0,%d0
 2581 13ea 0280 0000 	and.l #255,%d0
 2581      00FF 
 2582 13f0 2F2F 0008 	move.l 8(%sp),-(%sp)
 2583               	.cfi_def_cfa_offset 20
 2584 13f4 2F00      	move.l %d0,-(%sp)
 2585               	.cfi_def_cfa_offset 24
 2586 13f6 4EB9 0000 	jsr EVS_DisableTypes
 2586      0000 
 2587 13fc 508F      	addq.l #8,%sp
 2588               	.cfi_def_cfa_offset 16
 2589               	.L163:
1095:/home/simulink/cFS_FreeRTOS_seL4/cfe/fsw/cfe-core/src/evs/cfe_evs_task.c ****         {
 2590               	.loc 1 1095 0 discriminator 2
 2591 13fe 52AF 0008 	addq.l #1,8(%sp)
 2592               	.L162:
1095:/home/simulink/cFS_FreeRTOS_seL4/cfe/fsw/cfe-core/src/evs/cfe_evs_task.c ****         {
 2593               	.loc 1 1095 0 is_stmt 0 discriminator 1
 2594 1402 701F      	moveq #31,%d0
 2595 1404 B0AF 0008 	cmp.l 8(%sp),%d0
 2596 1408 64B8      	jcc .L164
1101:/home/simulink/cFS_FreeRTOS_seL4/cfe/fsw/cfe-core/src/evs/cfe_evs_task.c ****             }
1102:/home/simulink/cFS_FreeRTOS_seL4/cfe/fsw/cfe-core/src/evs/cfe_evs_task.c ****          }
1103:/home/simulink/cFS_FreeRTOS_seL4/cfe/fsw/cfe-core/src/evs/cfe_evs_task.c **** 
1104:/home/simulink/cFS_FreeRTOS_seL4/cfe/fsw/cfe-core/src/evs/cfe_evs_task.c ****         EVS_SendEvent(CFE_EVS_DISEVTTYPE_EID, CFE_EVS_DEBUG,
1105:/home/simulink/cFS_FreeRTOS_seL4/cfe/fsw/cfe-core/src/evs/cfe_evs_task.c ****                          "Disable Event Type Command Received with Event Type Bit Mask = 0x%02x",
1106:/home/simulink/cFS_FreeRTOS_seL4/cfe/fsw/cfe-core/src/evs/cfe_evs_task.c ****                          CmdPtr->BitMask);
 2597               	.loc 1 1106 0 is_stmt 1
 2598 140a 2057      	move.l (%sp),%a0
 2599 140c 1010      	move.b (%a0),%d0
1104:/home/simulink/cFS_FreeRTOS_seL4/cfe/fsw/cfe-core/src/evs/cfe_evs_task.c ****                          "Disable Event Type Command Received with Event Type Bit Mask = 0x%02x",
 2600               	.loc 1 1104 0
68K GAS   			page 75


 2601 140e 1000      	move.b %d0,%d0
 2602 1410 0280 0000 	and.l #255,%d0
 2602      00FF 
 2603 1416 2F00      	move.l %d0,-(%sp)
 2604               	.cfi_def_cfa_offset 20
 2605 1418 4879 0000 	pea .LC34
 2605      0000 
 2606               	.cfi_def_cfa_offset 24
 2607 141e 4878 0001 	pea 1.w
 2608               	.cfi_def_cfa_offset 28
 2609 1422 4878 0015 	pea 21.w
 2610               	.cfi_def_cfa_offset 32
 2611 1426 4EB9 0000 	jsr EVS_SendEvent
 2611      0000 
 2612 142c 4FEF 0010 	lea (16,%sp),%sp
 2613               	.cfi_def_cfa_offset 16
1107:/home/simulink/cFS_FreeRTOS_seL4/cfe/fsw/cfe-core/src/evs/cfe_evs_task.c **** 
1108:/home/simulink/cFS_FreeRTOS_seL4/cfe/fsw/cfe-core/src/evs/cfe_evs_task.c ****         ReturnCode = TRUE;
 2614               	.loc 1 1108 0
 2615 1430 7201      	moveq #1,%d1
 2616 1432 1F41 0007 	move.b %d1,7(%sp)
 2617               	.L161:
1109:/home/simulink/cFS_FreeRTOS_seL4/cfe/fsw/cfe-core/src/evs/cfe_evs_task.c ****    }
1110:/home/simulink/cFS_FreeRTOS_seL4/cfe/fsw/cfe-core/src/evs/cfe_evs_task.c **** 
1111:/home/simulink/cFS_FreeRTOS_seL4/cfe/fsw/cfe-core/src/evs/cfe_evs_task.c ****    return ReturnCode;
 2618               	.loc 1 1111 0
 2619 1436 102F 0007 	move.b 7(%sp),%d0
1112:/home/simulink/cFS_FreeRTOS_seL4/cfe/fsw/cfe-core/src/evs/cfe_evs_task.c **** 
1113:/home/simulink/cFS_FreeRTOS_seL4/cfe/fsw/cfe-core/src/evs/cfe_evs_task.c **** } /* End CFE_EVS_DisableEventTypesCmd */
 2620               	.loc 1 1113 0
 2621 143a 4FEF 000C 	lea (12,%sp),%sp
 2622 143e 4E75      	rts
 2623               	.cfi_endproc
 2624               	.LFE72:
 2625               	.sizeCFE_EVS_DisableEventTypesCmd, .-CFE_EVS_DisableEventTypesCmd
 2626               	.section.rodata
 2627               	.LC35:
 2628 068c 5365 7420 	.string"Set Event Format Mode Command Received with Mode = 0x%02x"
 2628      4576 656E 
 2628      7420 466F 
 2628      726D 6174 
 2628      204D 6F64 
 2629               	.LC36:
 2630 06c6 5365 7420 	.string"Set Event Format Mode Command: Invalid Event Format Mode = 0x%02x"
 2630      4576 656E 
 2630      7420 466F 
 2630      726D 6174 
 2630      204D 6F64 
 2631               	.text
 2632               	.align2
 2633               	.globlCFE_EVS_SetEventFormatModeCmd
 2634               	.typeCFE_EVS_SetEventFormatModeCmd, @function
 2635               	CFE_EVS_SetEventFormatModeCmd:
 2636               	.LFB73:
1114:/home/simulink/cFS_FreeRTOS_seL4/cfe/fsw/cfe-core/src/evs/cfe_evs_task.c **** 
1115:/home/simulink/cFS_FreeRTOS_seL4/cfe/fsw/cfe-core/src/evs/cfe_evs_task.c **** 
1116:/home/simulink/cFS_FreeRTOS_seL4/cfe/fsw/cfe-core/src/evs/cfe_evs_task.c **** 
68K GAS   			page 76


1117:/home/simulink/cFS_FreeRTOS_seL4/cfe/fsw/cfe-core/src/evs/cfe_evs_task.c **** /*
1118:/home/simulink/cFS_FreeRTOS_seL4/cfe/fsw/cfe-core/src/evs/cfe_evs_task.c **** **             Function Prologue
1119:/home/simulink/cFS_FreeRTOS_seL4/cfe/fsw/cfe-core/src/evs/cfe_evs_task.c **** **
1120:/home/simulink/cFS_FreeRTOS_seL4/cfe/fsw/cfe-core/src/evs/cfe_evs_task.c **** ** Function Name:      CFE_EVS_SetEventFormatModeCmd
1121:/home/simulink/cFS_FreeRTOS_seL4/cfe/fsw/cfe-core/src/evs/cfe_evs_task.c **** **
1122:/home/simulink/cFS_FreeRTOS_seL4/cfe/fsw/cfe-core/src/evs/cfe_evs_task.c **** ** Purpose:  This routine sets the Event Format Mode
1123:/home/simulink/cFS_FreeRTOS_seL4/cfe/fsw/cfe-core/src/evs/cfe_evs_task.c **** **
1124:/home/simulink/cFS_FreeRTOS_seL4/cfe/fsw/cfe-core/src/evs/cfe_evs_task.c **** ** Assumptions and Notes:
1125:/home/simulink/cFS_FreeRTOS_seL4/cfe/fsw/cfe-core/src/evs/cfe_evs_task.c **** **
1126:/home/simulink/cFS_FreeRTOS_seL4/cfe/fsw/cfe-core/src/evs/cfe_evs_task.c **** */
1127:/home/simulink/cFS_FreeRTOS_seL4/cfe/fsw/cfe-core/src/evs/cfe_evs_task.c **** boolean CFE_EVS_SetEventFormatModeCmd (const CFE_SB_MsgPayloadPtr_t Payload)
1128:/home/simulink/cFS_FreeRTOS_seL4/cfe/fsw/cfe-core/src/evs/cfe_evs_task.c **** {
 2637               	.loc 1 1128 0
 2638               	.cfi_startproc
 2639 1440 518F      	subq.l #8,%sp
 2640               	.cfi_def_cfa_offset 12
1129:/home/simulink/cFS_FreeRTOS_seL4/cfe/fsw/cfe-core/src/evs/cfe_evs_task.c ****    const CFE_EVS_ModeCmd_Payload_t *CmdPtr = (const CFE_EVS_ModeCmd_Payload_t *)Payload;
 2641               	.loc 1 1129 0
 2642 1442 2EAF 000C 	move.l 12(%sp),(%sp)
1130:/home/simulink/cFS_FreeRTOS_seL4/cfe/fsw/cfe-core/src/evs/cfe_evs_task.c ****    boolean Status = TRUE;
 2643               	.loc 1 1130 0
 2644 1446 7001      	moveq #1,%d0
 2645 1448 1F40 0007 	move.b %d0,7(%sp)
1131:/home/simulink/cFS_FreeRTOS_seL4/cfe/fsw/cfe-core/src/evs/cfe_evs_task.c **** 
1132:/home/simulink/cFS_FreeRTOS_seL4/cfe/fsw/cfe-core/src/evs/cfe_evs_task.c ****    if((CmdPtr->Mode == CFE_EVS_SHORT_FORMAT) || (CmdPtr->Mode == CFE_EVS_LONG_FORMAT))
 2646               	.loc 1 1132 0
 2647 144c 2057      	move.l (%sp),%a0
 2648 144e 1010      	move.b (%a0),%d0
 2649 1450 4A00      	tst.b %d0
 2650 1452 6712      	jeq .L167
 2651               	.loc 1 1132 0 is_stmt 0 discriminator 1
 2652 1454 2057      	move.l (%sp),%a0
 2653 1456 1010      	move.b (%a0),%d0
 2654 1458 1000      	move.b %d0,%d0
 2655 145a 0280 0000 	and.l #255,%d0
 2655      00FF 
 2656 1460 7201      	moveq #1,%d1
 2657 1462 B280      	cmp.l %d0,%d1
 2658 1464 6632      	jne .L168
 2659               	.L167:
1133:/home/simulink/cFS_FreeRTOS_seL4/cfe/fsw/cfe-core/src/evs/cfe_evs_task.c ****    {
1134:/home/simulink/cFS_FreeRTOS_seL4/cfe/fsw/cfe-core/src/evs/cfe_evs_task.c ****       CFE_EVS_GlobalData.EVS_TlmPkt.Payload.MessageFormatMode = CmdPtr->Mode;
 2660               	.loc 1 1134 0 is_stmt 1
 2661 1466 2057      	move.l (%sp),%a0
 2662 1468 1010      	move.b (%a0),%d0
 2663 146a 13C0 0000 	move.b %d0,CFE_EVS_GlobalData+2258
 2663      0000 
1135:/home/simulink/cFS_FreeRTOS_seL4/cfe/fsw/cfe-core/src/evs/cfe_evs_task.c **** 
1136:/home/simulink/cFS_FreeRTOS_seL4/cfe/fsw/cfe-core/src/evs/cfe_evs_task.c ****       EVS_SendEvent(CFE_EVS_SETEVTFMTMOD_EID, CFE_EVS_DEBUG,
1137:/home/simulink/cFS_FreeRTOS_seL4/cfe/fsw/cfe-core/src/evs/cfe_evs_task.c ****                         "Set Event Format Mode Command Received with Mode = 0x%02x",
1138:/home/simulink/cFS_FreeRTOS_seL4/cfe/fsw/cfe-core/src/evs/cfe_evs_task.c ****                         (unsigned int)CmdPtr->Mode);
 2664               	.loc 1 1138 0
 2665 1470 2057      	move.l (%sp),%a0
 2666 1472 1010      	move.b (%a0),%d0
1136:/home/simulink/cFS_FreeRTOS_seL4/cfe/fsw/cfe-core/src/evs/cfe_evs_task.c ****                         "Set Event Format Mode Command Received with Mode = 0x%02x",
 2667               	.loc 1 1136 0
 2668 1474 1000      	move.b %d0,%d0
68K GAS   			page 77


 2669 1476 0280 0000 	and.l #255,%d0
 2669      00FF 
 2670 147c 2F00      	move.l %d0,-(%sp)
 2671               	.cfi_def_cfa_offset 16
 2672 147e 4879 0000 	pea .LC35
 2672      0000 
 2673               	.cfi_def_cfa_offset 20
 2674 1484 4878 0001 	pea 1.w
 2675               	.cfi_def_cfa_offset 24
 2676 1488 4878 0016 	pea 22.w
 2677               	.cfi_def_cfa_offset 28
 2678 148c 4EB9 0000 	jsr EVS_SendEvent
 2678      0000 
 2679 1492 4FEF 0010 	lea (16,%sp),%sp
 2680               	.cfi_def_cfa_offset 12
 2681 1496 602C      	jra .L169
 2682               	.L168:
1139:/home/simulink/cFS_FreeRTOS_seL4/cfe/fsw/cfe-core/src/evs/cfe_evs_task.c ****    }
1140:/home/simulink/cFS_FreeRTOS_seL4/cfe/fsw/cfe-core/src/evs/cfe_evs_task.c ****    else
1141:/home/simulink/cFS_FreeRTOS_seL4/cfe/fsw/cfe-core/src/evs/cfe_evs_task.c ****    {
1142:/home/simulink/cFS_FreeRTOS_seL4/cfe/fsw/cfe-core/src/evs/cfe_evs_task.c ****       EVS_SendEvent(CFE_EVS_ERR_ILLEGALFMTMOD_EID, CFE_EVS_ERROR,
1143:/home/simulink/cFS_FreeRTOS_seL4/cfe/fsw/cfe-core/src/evs/cfe_evs_task.c ****                         "Set Event Format Mode Command: Invalid Event Format Mode = 0x%02x", CmdPtr
 2683               	.loc 1 1143 0
 2684 1498 2057      	move.l (%sp),%a0
 2685 149a 1010      	move.b (%a0),%d0
1142:/home/simulink/cFS_FreeRTOS_seL4/cfe/fsw/cfe-core/src/evs/cfe_evs_task.c ****                         "Set Event Format Mode Command: Invalid Event Format Mode = 0x%02x", CmdPtr
 2686               	.loc 1 1142 0
 2687 149c 1000      	move.b %d0,%d0
 2688 149e 0280 0000 	and.l #255,%d0
 2688      00FF 
 2689 14a4 2F00      	move.l %d0,-(%sp)
 2690               	.cfi_def_cfa_offset 16
 2691 14a6 4879 0000 	pea .LC36
 2691      0000 
 2692               	.cfi_def_cfa_offset 20
 2693 14ac 4878 0003 	pea 3.w
 2694               	.cfi_def_cfa_offset 24
 2695 14b0 4878 000A 	pea 10.w
 2696               	.cfi_def_cfa_offset 28
 2697 14b4 4EB9 0000 	jsr EVS_SendEvent
 2697      0000 
 2698 14ba 4FEF 0010 	lea (16,%sp),%sp
 2699               	.cfi_def_cfa_offset 12
1144:/home/simulink/cFS_FreeRTOS_seL4/cfe/fsw/cfe-core/src/evs/cfe_evs_task.c ****       Status = FALSE;
 2700               	.loc 1 1144 0
 2701 14be 4200      	clr.b %d0
 2702 14c0 1F40 0007 	move.b %d0,7(%sp)
 2703               	.L169:
1145:/home/simulink/cFS_FreeRTOS_seL4/cfe/fsw/cfe-core/src/evs/cfe_evs_task.c ****    }
1146:/home/simulink/cFS_FreeRTOS_seL4/cfe/fsw/cfe-core/src/evs/cfe_evs_task.c **** 
1147:/home/simulink/cFS_FreeRTOS_seL4/cfe/fsw/cfe-core/src/evs/cfe_evs_task.c ****    return Status;
 2704               	.loc 1 1147 0
 2705 14c4 102F 0007 	move.b 7(%sp),%d0
1148:/home/simulink/cFS_FreeRTOS_seL4/cfe/fsw/cfe-core/src/evs/cfe_evs_task.c **** 
1149:/home/simulink/cFS_FreeRTOS_seL4/cfe/fsw/cfe-core/src/evs/cfe_evs_task.c **** } /* End CFE_EVS_SetEventFormatModeCmd */
 2706               	.loc 1 1149 0
 2707 14c8 508F      	addq.l #8,%sp
68K GAS   			page 78


 2708 14ca 4E75      	rts
 2709               	.cfi_endproc
 2710               	.LFE73:
 2711               	.sizeCFE_EVS_SetEventFormatModeCmd, .-CFE_EVS_SetEventFormatModeCmd
 2712               	.section.rodata
 2713               	.LC37:
 2714 0708 456E 6162 	.string"Enable App Event Type Command Received with AppName = %s, EventType Bit Mask = 0x%02x"
 2714      6C65 2041 
 2714      7070 2045 
 2714      7665 6E74 
 2714      2054 7970 
 2715               	.text
 2716               	.align2
 2717               	.globlCFE_EVS_EnableAppEventTypesCmd
 2718               	.typeCFE_EVS_EnableAppEventTypesCmd, @function
 2719               	CFE_EVS_EnableAppEventTypesCmd:
 2720               	.LFB74:
1150:/home/simulink/cFS_FreeRTOS_seL4/cfe/fsw/cfe-core/src/evs/cfe_evs_task.c **** 
1151:/home/simulink/cFS_FreeRTOS_seL4/cfe/fsw/cfe-core/src/evs/cfe_evs_task.c **** 
1152:/home/simulink/cFS_FreeRTOS_seL4/cfe/fsw/cfe-core/src/evs/cfe_evs_task.c **** /*
1153:/home/simulink/cFS_FreeRTOS_seL4/cfe/fsw/cfe-core/src/evs/cfe_evs_task.c **** **             Function Prologue
1154:/home/simulink/cFS_FreeRTOS_seL4/cfe/fsw/cfe-core/src/evs/cfe_evs_task.c **** **
1155:/home/simulink/cFS_FreeRTOS_seL4/cfe/fsw/cfe-core/src/evs/cfe_evs_task.c **** ** Function Name:      CFE_EVS_EnableAppEventTypesCmd
1156:/home/simulink/cFS_FreeRTOS_seL4/cfe/fsw/cfe-core/src/evs/cfe_evs_task.c **** **
1157:/home/simulink/cFS_FreeRTOS_seL4/cfe/fsw/cfe-core/src/evs/cfe_evs_task.c **** ** Purpose:  This routine sets the given event type for the given application identifier to an
1158:/home/simulink/cFS_FreeRTOS_seL4/cfe/fsw/cfe-core/src/evs/cfe_evs_task.c **** **           enabled state
1159:/home/simulink/cFS_FreeRTOS_seL4/cfe/fsw/cfe-core/src/evs/cfe_evs_task.c **** **
1160:/home/simulink/cFS_FreeRTOS_seL4/cfe/fsw/cfe-core/src/evs/cfe_evs_task.c **** ** Assumptions and Notes:
1161:/home/simulink/cFS_FreeRTOS_seL4/cfe/fsw/cfe-core/src/evs/cfe_evs_task.c **** **
1162:/home/simulink/cFS_FreeRTOS_seL4/cfe/fsw/cfe-core/src/evs/cfe_evs_task.c **** */
1163:/home/simulink/cFS_FreeRTOS_seL4/cfe/fsw/cfe-core/src/evs/cfe_evs_task.c **** boolean CFE_EVS_EnableAppEventTypesCmd (const CFE_SB_MsgPayloadPtr_t Payload)
1164:/home/simulink/cFS_FreeRTOS_seL4/cfe/fsw/cfe-core/src/evs/cfe_evs_task.c **** {
 2721               	.loc 1 1164 0
 2722               	.cfi_startproc
 2723 14cc 4FEF FFE0 	lea (-32,%sp),%sp
 2724               	.cfi_def_cfa_offset 36
1165:/home/simulink/cFS_FreeRTOS_seL4/cfe/fsw/cfe-core/src/evs/cfe_evs_task.c ****    const CFE_EVS_AppNameBitMaskCmd_Payload_t *CmdPtr = (const CFE_EVS_AppNameBitMaskCmd_Payload_t *
 2725               	.loc 1 1165 0
 2726 14d0 2F6F 0024 	move.l 36(%sp),24(%sp)
 2726      0018 
1166:/home/simulink/cFS_FreeRTOS_seL4/cfe/fsw/cfe-core/src/evs/cfe_evs_task.c ****    uint32  AppID = CFE_EVS_UNDEF_APPID;
 2727               	.loc 1 1166 0
 2728 14d6 70FF      	moveq #-1,%d0
 2729 14d8 2F40 0014 	move.l %d0,20(%sp)
1167:/home/simulink/cFS_FreeRTOS_seL4/cfe/fsw/cfe-core/src/evs/cfe_evs_task.c ****    int32   Status;
1168:/home/simulink/cFS_FreeRTOS_seL4/cfe/fsw/cfe-core/src/evs/cfe_evs_task.c ****    char    LocalName[OS_MAX_API_NAME];
1169:/home/simulink/cFS_FreeRTOS_seL4/cfe/fsw/cfe-core/src/evs/cfe_evs_task.c **** 
1170:/home/simulink/cFS_FreeRTOS_seL4/cfe/fsw/cfe-core/src/evs/cfe_evs_task.c ****    /*
1171:/home/simulink/cFS_FreeRTOS_seL4/cfe/fsw/cfe-core/src/evs/cfe_evs_task.c ****     * Althgouh EVS_GetApplicationInfo() does not require a null terminated argument,
1172:/home/simulink/cFS_FreeRTOS_seL4/cfe/fsw/cfe-core/src/evs/cfe_evs_task.c ****     * the value is passed to EVS_SendEvent which does require termination (normal C string)
1173:/home/simulink/cFS_FreeRTOS_seL4/cfe/fsw/cfe-core/src/evs/cfe_evs_task.c ****     */
1174:/home/simulink/cFS_FreeRTOS_seL4/cfe/fsw/cfe-core/src/evs/cfe_evs_task.c ****    CFE_SB_MessageStringGet(LocalName, (char *)CmdPtr->AppName, NULL, OS_MAX_API_NAME, sizeof(CmdPtr
 2730               	.loc 1 1174 0
 2731 14dc 202F 0018 	move.l 24(%sp),%d0
 2732 14e0 4878 0014 	pea 20.w
 2733               	.cfi_def_cfa_offset 40
 2734 14e4 4878 0014 	pea 20.w
68K GAS   			page 79


 2735               	.cfi_def_cfa_offset 44
 2736 14e8 42A7      	clr.l -(%sp)
 2737               	.cfi_def_cfa_offset 48
 2738 14ea 2F00      	move.l %d0,-(%sp)
 2739               	.cfi_def_cfa_offset 52
 2740 14ec 200F      	move.l %sp,%d0
 2741 14ee 0680 0000 	add.l #16,%d0
 2741      0010 
 2742 14f4 2F00      	move.l %d0,-(%sp)
 2743               	.cfi_def_cfa_offset 56
 2744 14f6 4EB9 0000 	jsr CFE_SB_MessageStringGet
 2744      0000 
 2745 14fc 4FEF 0014 	lea (20,%sp),%sp
 2746               	.cfi_def_cfa_offset 36
1175:/home/simulink/cFS_FreeRTOS_seL4/cfe/fsw/cfe-core/src/evs/cfe_evs_task.c **** 
1176:/home/simulink/cFS_FreeRTOS_seL4/cfe/fsw/cfe-core/src/evs/cfe_evs_task.c ****    /* Retrieve application data */
1177:/home/simulink/cFS_FreeRTOS_seL4/cfe/fsw/cfe-core/src/evs/cfe_evs_task.c ****    Status = EVS_GetApplicationInfo(&AppID, LocalName);
 2747               	.loc 1 1177 0
 2748 1500 200F      	move.l %sp,%d0
 2749 1502 2F00      	move.l %d0,-(%sp)
 2750               	.cfi_def_cfa_offset 40
 2751 1504 200F      	move.l %sp,%d0
 2752 1506 0680 0000 	add.l #24,%d0
 2752      0018 
 2753 150c 2F00      	move.l %d0,-(%sp)
 2754               	.cfi_def_cfa_offset 44
 2755 150e 4EB9 0000 	jsr EVS_GetApplicationInfo
 2755      0000 
 2756 1514 508F      	addq.l #8,%sp
 2757               	.cfi_def_cfa_offset 36
 2758 1516 2F40 001C 	move.l %d0,28(%sp)
1178:/home/simulink/cFS_FreeRTOS_seL4/cfe/fsw/cfe-core/src/evs/cfe_evs_task.c **** 
1179:/home/simulink/cFS_FreeRTOS_seL4/cfe/fsw/cfe-core/src/evs/cfe_evs_task.c ****    if(Status == CFE_SUCCESS)
 2759               	.loc 1 1179 0
 2760 151a 4AAF 001C 	tst.l 28(%sp)
 2761 151e 6600 0084 	jne .L172
1180:/home/simulink/cFS_FreeRTOS_seL4/cfe/fsw/cfe-core/src/evs/cfe_evs_task.c ****    {
1181:/home/simulink/cFS_FreeRTOS_seL4/cfe/fsw/cfe-core/src/evs/cfe_evs_task.c **** 
1182:/home/simulink/cFS_FreeRTOS_seL4/cfe/fsw/cfe-core/src/evs/cfe_evs_task.c ****         /* Need to check for an out of range bitmask, since our bit masks are only 4 bits */
1183:/home/simulink/cFS_FreeRTOS_seL4/cfe/fsw/cfe-core/src/evs/cfe_evs_task.c ****         if (CmdPtr->BitMask == 0x0 || CmdPtr->BitMask > 0x0F)
 2762               	.loc 1 1183 0
 2763 1522 206F 0018 	move.l 24(%sp),%a0
 2764 1526 1028 0014 	move.b 20(%a0),%d0
 2765 152a 4A00      	tst.b %d0
 2766 152c 6716      	jeq .L173
 2767               	.loc 1 1183 0 is_stmt 0 discriminator 1
 2768 152e 206F 0018 	move.l 24(%sp),%a0
 2769 1532 1028 0014 	move.b 20(%a0),%d0
 2770 1536 1000      	move.b %d0,%d0
 2771 1538 0280 0000 	and.l #255,%d0
 2771      00FF 
 2772 153e 720F      	moveq #15,%d1
 2773 1540 B280      	cmp.l %d0,%d1
 2774 1542 6436      	jcc .L174
 2775               	.L173:
1184:/home/simulink/cFS_FreeRTOS_seL4/cfe/fsw/cfe-core/src/evs/cfe_evs_task.c ****         {
1185:/home/simulink/cFS_FreeRTOS_seL4/cfe/fsw/cfe-core/src/evs/cfe_evs_task.c ****             EVS_SendEvent(CFE_EVS_ERR_INVALID_BITMASK_EID, CFE_EVS_ERROR,
68K GAS   			page 80


1186:/home/simulink/cFS_FreeRTOS_seL4/cfe/fsw/cfe-core/src/evs/cfe_evs_task.c ****                               "Bit Mask = 0x%08x out of range: CC = %lu",
1187:/home/simulink/cFS_FreeRTOS_seL4/cfe/fsw/cfe-core/src/evs/cfe_evs_task.c ****                               (unsigned int)CmdPtr->BitMask, (long unsigned int)CFE_EVS_ENABLE_APP_
 2776               	.loc 1 1187 0 is_stmt 1
 2777 1544 206F 0018 	move.l 24(%sp),%a0
 2778 1548 1028 0014 	move.b 20(%a0),%d0
1185:/home/simulink/cFS_FreeRTOS_seL4/cfe/fsw/cfe-core/src/evs/cfe_evs_task.c ****                               "Bit Mask = 0x%08x out of range: CC = %lu",
 2779               	.loc 1 1185 0
 2780 154c 1000      	move.b %d0,%d0
 2781 154e 0280 0000 	and.l #255,%d0
 2781      00FF 
 2782 1554 4878 0005 	pea 5.w
 2783               	.cfi_def_cfa_offset 40
 2784 1558 2F00      	move.l %d0,-(%sp)
 2785               	.cfi_def_cfa_offset 44
 2786 155a 4879 0000 	pea .LC30
 2786      0000 
 2787               	.cfi_def_cfa_offset 48
 2788 1560 4878 0003 	pea 3.w
 2789               	.cfi_def_cfa_offset 52
 2790 1564 4878 0028 	pea 40.w
 2791               	.cfi_def_cfa_offset 56
 2792 1568 4EB9 0000 	jsr EVS_SendEvent
 2792      0000 
 2793 156e 4FEF 0014 	lea (20,%sp),%sp
 2794               	.cfi_def_cfa_offset 36
1188:/home/simulink/cFS_FreeRTOS_seL4/cfe/fsw/cfe-core/src/evs/cfe_evs_task.c ****             Status = FALSE;  
 2795               	.loc 1 1188 0
 2796 1572 42AF 001C 	clr.l 28(%sp)
 2797 1576 6000 00C2 	jra .L176
 2798               	.L174:
1189:/home/simulink/cFS_FreeRTOS_seL4/cfe/fsw/cfe-core/src/evs/cfe_evs_task.c ****         }
1190:/home/simulink/cFS_FreeRTOS_seL4/cfe/fsw/cfe-core/src/evs/cfe_evs_task.c ****         else
1191:/home/simulink/cFS_FreeRTOS_seL4/cfe/fsw/cfe-core/src/evs/cfe_evs_task.c ****         {
1192:/home/simulink/cFS_FreeRTOS_seL4/cfe/fsw/cfe-core/src/evs/cfe_evs_task.c ****             EVS_EnableTypes(CmdPtr->BitMask, AppID);
 2799               	.loc 1 1192 0
 2800 157a 222F 0014 	move.l 20(%sp),%d1
 2801 157e 206F 0018 	move.l 24(%sp),%a0
 2802 1582 1028 0014 	move.b 20(%a0),%d0
 2803 1586 1000      	move.b %d0,%d0
 2804 1588 0280 0000 	and.l #255,%d0
 2804      00FF 
 2805 158e 2F01      	move.l %d1,-(%sp)
 2806               	.cfi_def_cfa_offset 40
 2807 1590 2F00      	move.l %d0,-(%sp)
 2808               	.cfi_def_cfa_offset 44
 2809 1592 4EB9 0000 	jsr EVS_EnableTypes
 2809      0000 
 2810 1598 508F      	addq.l #8,%sp
 2811               	.cfi_def_cfa_offset 36
1193:/home/simulink/cFS_FreeRTOS_seL4/cfe/fsw/cfe-core/src/evs/cfe_evs_task.c ****             Status = TRUE;
 2812               	.loc 1 1193 0
 2813 159a 7001      	moveq #1,%d0
 2814 159c 2F40 001C 	move.l %d0,28(%sp)
 2815 15a0 6000 0098 	jra .L176
 2816               	.L172:
1194:/home/simulink/cFS_FreeRTOS_seL4/cfe/fsw/cfe-core/src/evs/cfe_evs_task.c ****         }
1195:/home/simulink/cFS_FreeRTOS_seL4/cfe/fsw/cfe-core/src/evs/cfe_evs_task.c ****    }
68K GAS   			page 81


1196:/home/simulink/cFS_FreeRTOS_seL4/cfe/fsw/cfe-core/src/evs/cfe_evs_task.c ****    else if(Status == CFE_EVS_APP_NOT_REGISTERED)
 2817               	.loc 1 1196 0
 2818 15a4 223C C200 	move.l #-1040187390,%d1
 2818      0002 
 2819 15aa B2AF 001C 	cmp.l 28(%sp),%d1
 2820 15ae 6628      	jne .L177
1197:/home/simulink/cFS_FreeRTOS_seL4/cfe/fsw/cfe-core/src/evs/cfe_evs_task.c ****    {
1198:/home/simulink/cFS_FreeRTOS_seL4/cfe/fsw/cfe-core/src/evs/cfe_evs_task.c ****       EVS_SendEvent(CFE_EVS_ERR_APPNOREGS_EID, CFE_EVS_ERROR,
 2821               	.loc 1 1198 0
 2822 15b0 4878 0005 	pea 5.w
 2823               	.cfi_def_cfa_offset 40
 2824 15b4 200F      	move.l %sp,%d0
 2825 15b6 5880      	addq.l #4,%d0
 2826 15b8 2F00      	move.l %d0,-(%sp)
 2827               	.cfi_def_cfa_offset 44
 2828 15ba 4879 0000 	pea .LC27
 2828      0000 
 2829               	.cfi_def_cfa_offset 48
 2830 15c0 4878 0003 	pea 3.w
 2831               	.cfi_def_cfa_offset 52
 2832 15c4 4878 0007 	pea 7.w
 2833               	.cfi_def_cfa_offset 56
 2834 15c8 4EB9 0000 	jsr EVS_SendEvent
 2834      0000 
 2835 15ce 4FEF 0014 	lea (20,%sp),%sp
 2836               	.cfi_def_cfa_offset 36
1199:/home/simulink/cFS_FreeRTOS_seL4/cfe/fsw/cfe-core/src/evs/cfe_evs_task.c ****                         "%s not registered with EVS: CC = %lu",
1200:/home/simulink/cFS_FreeRTOS_seL4/cfe/fsw/cfe-core/src/evs/cfe_evs_task.c ****                         LocalName, (long unsigned int)CFE_EVS_ENABLE_APP_EVENT_TYPE_CC);
1201:/home/simulink/cFS_FreeRTOS_seL4/cfe/fsw/cfe-core/src/evs/cfe_evs_task.c ****       Status = FALSE;
 2837               	.loc 1 1201 0
 2838 15d2 42AF 001C 	clr.l 28(%sp)
 2839 15d6 6062      	jra .L176
 2840               	.L177:
1202:/home/simulink/cFS_FreeRTOS_seL4/cfe/fsw/cfe-core/src/evs/cfe_evs_task.c ****    }
1203:/home/simulink/cFS_FreeRTOS_seL4/cfe/fsw/cfe-core/src/evs/cfe_evs_task.c ****    else if(Status == CFE_EVS_APP_ILLEGAL_APP_ID)
 2841               	.loc 1 1203 0
 2842 15d8 203C C200 	move.l #-1040187389,%d0
 2842      0003 
 2843 15de B0AF 001C 	cmp.l 28(%sp),%d0
 2844 15e2 6630      	jne .L178
1204:/home/simulink/cFS_FreeRTOS_seL4/cfe/fsw/cfe-core/src/evs/cfe_evs_task.c ****    {
1205:/home/simulink/cFS_FreeRTOS_seL4/cfe/fsw/cfe-core/src/evs/cfe_evs_task.c ****       EVS_SendEvent(CFE_EVS_ERR_ILLAPPIDRANGE_EID, CFE_EVS_ERROR,
 2845               	.loc 1 1205 0
 2846 15e4 202F 0014 	move.l 20(%sp),%d0
 2847 15e8 2200      	move.l %d0,%d1
 2848 15ea 4878 0005 	pea 5.w
 2849               	.cfi_def_cfa_offset 40
 2850 15ee 200F      	move.l %sp,%d0
 2851 15f0 5880      	addq.l #4,%d0
 2852 15f2 2F00      	move.l %d0,-(%sp)
 2853               	.cfi_def_cfa_offset 44
 2854 15f4 2F01      	move.l %d1,-(%sp)
 2855               	.cfi_def_cfa_offset 48
 2856 15f6 4879 0000 	pea .LC28
 2856      0000 
 2857               	.cfi_def_cfa_offset 52
 2858 15fc 4878 0003 	pea 3.w
68K GAS   			page 82


 2859               	.cfi_def_cfa_offset 56
 2860 1600 4878 0008 	pea 8.w
 2861               	.cfi_def_cfa_offset 60
 2862 1604 4EB9 0000 	jsr EVS_SendEvent
 2862      0000 
 2863 160a 4FEF 0018 	lea (24,%sp),%sp
 2864               	.cfi_def_cfa_offset 36
1206:/home/simulink/cFS_FreeRTOS_seL4/cfe/fsw/cfe-core/src/evs/cfe_evs_task.c ****                         "Illegal application ID %d retrieved for %s: CC = %lu",
1207:/home/simulink/cFS_FreeRTOS_seL4/cfe/fsw/cfe-core/src/evs/cfe_evs_task.c ****                         (int)AppID, LocalName, (long unsigned int)CFE_EVS_ENABLE_APP_EVENT_TYPE_CC)
1208:/home/simulink/cFS_FreeRTOS_seL4/cfe/fsw/cfe-core/src/evs/cfe_evs_task.c ****       Status = FALSE;
 2865               	.loc 1 1208 0
 2866 160e 42AF 001C 	clr.l 28(%sp)
 2867 1612 6026      	jra .L176
 2868               	.L178:
1209:/home/simulink/cFS_FreeRTOS_seL4/cfe/fsw/cfe-core/src/evs/cfe_evs_task.c ****    }
1210:/home/simulink/cFS_FreeRTOS_seL4/cfe/fsw/cfe-core/src/evs/cfe_evs_task.c ****    else
1211:/home/simulink/cFS_FreeRTOS_seL4/cfe/fsw/cfe-core/src/evs/cfe_evs_task.c ****    {
1212:/home/simulink/cFS_FreeRTOS_seL4/cfe/fsw/cfe-core/src/evs/cfe_evs_task.c ****       EVS_SendEvent(CFE_EVS_ERR_NOAPPIDFOUND_EID, CFE_EVS_ERROR,
 2869               	.loc 1 1212 0
 2870 1614 4878 0005 	pea 5.w
 2871               	.cfi_def_cfa_offset 40
 2872 1618 200F      	move.l %sp,%d0
 2873 161a 5880      	addq.l #4,%d0
 2874 161c 2F00      	move.l %d0,-(%sp)
 2875               	.cfi_def_cfa_offset 44
 2876 161e 4879 0000 	pea .LC29
 2876      0000 
 2877               	.cfi_def_cfa_offset 48
 2878 1624 4878 0003 	pea 3.w
 2879               	.cfi_def_cfa_offset 52
 2880 1628 4878 0009 	pea 9.w
 2881               	.cfi_def_cfa_offset 56
 2882 162c 4EB9 0000 	jsr EVS_SendEvent
 2882      0000 
 2883 1632 4FEF 0014 	lea (20,%sp),%sp
 2884               	.cfi_def_cfa_offset 36
1213:/home/simulink/cFS_FreeRTOS_seL4/cfe/fsw/cfe-core/src/evs/cfe_evs_task.c ****                         "Unable to retrieve application ID for %s: CC = %lu",
1214:/home/simulink/cFS_FreeRTOS_seL4/cfe/fsw/cfe-core/src/evs/cfe_evs_task.c ****                         LocalName, (long unsigned int)CFE_EVS_ENABLE_APP_EVENT_TYPE_CC);
1215:/home/simulink/cFS_FreeRTOS_seL4/cfe/fsw/cfe-core/src/evs/cfe_evs_task.c ****       Status = FALSE;
 2885               	.loc 1 1215 0
 2886 1636 42AF 001C 	clr.l 28(%sp)
 2887               	.L176:
1216:/home/simulink/cFS_FreeRTOS_seL4/cfe/fsw/cfe-core/src/evs/cfe_evs_task.c ****    }
1217:/home/simulink/cFS_FreeRTOS_seL4/cfe/fsw/cfe-core/src/evs/cfe_evs_task.c **** 
1218:/home/simulink/cFS_FreeRTOS_seL4/cfe/fsw/cfe-core/src/evs/cfe_evs_task.c ****    if(Status == TRUE)
 2888               	.loc 1 1218 0
 2889 163a 7201      	moveq #1,%d1
 2890 163c B2AF 001C 	cmp.l 28(%sp),%d1
 2891 1640 6630      	jne .L179
1219:/home/simulink/cFS_FreeRTOS_seL4/cfe/fsw/cfe-core/src/evs/cfe_evs_task.c ****    {
1220:/home/simulink/cFS_FreeRTOS_seL4/cfe/fsw/cfe-core/src/evs/cfe_evs_task.c ****       EVS_SendEvent(CFE_EVS_ENAAPPEVTTYPE_EID, CFE_EVS_DEBUG,
1221:/home/simulink/cFS_FreeRTOS_seL4/cfe/fsw/cfe-core/src/evs/cfe_evs_task.c ****                         "Enable App Event Type Command Received with AppName = %s, EventType Bit Ma
1222:/home/simulink/cFS_FreeRTOS_seL4/cfe/fsw/cfe-core/src/evs/cfe_evs_task.c ****                         LocalName, CmdPtr->BitMask);
 2892               	.loc 1 1222 0
 2893 1642 206F 0018 	move.l 24(%sp),%a0
 2894 1646 1028 0014 	move.b 20(%a0),%d0
1220:/home/simulink/cFS_FreeRTOS_seL4/cfe/fsw/cfe-core/src/evs/cfe_evs_task.c ****                         "Enable App Event Type Command Received with AppName = %s, EventType Bit Ma
68K GAS   			page 83


 2895               	.loc 1 1220 0
 2896 164a 1000      	move.b %d0,%d0
 2897 164c 0280 0000 	and.l #255,%d0
 2897      00FF 
 2898 1652 2F00      	move.l %d0,-(%sp)
 2899               	.cfi_def_cfa_offset 40
 2900 1654 200F      	move.l %sp,%d0
 2901 1656 5880      	addq.l #4,%d0
 2902 1658 2F00      	move.l %d0,-(%sp)
 2903               	.cfi_def_cfa_offset 44
 2904 165a 4879 0000 	pea .LC37
 2904      0000 
 2905               	.cfi_def_cfa_offset 48
 2906 1660 4878 0001 	pea 1.w
 2907               	.cfi_def_cfa_offset 52
 2908 1664 4878 0017 	pea 23.w
 2909               	.cfi_def_cfa_offset 56
 2910 1668 4EB9 0000 	jsr EVS_SendEvent
 2910      0000 
 2911 166e 4FEF 0014 	lea (20,%sp),%sp
 2912               	.cfi_def_cfa_offset 36
 2913               	.L179:
1223:/home/simulink/cFS_FreeRTOS_seL4/cfe/fsw/cfe-core/src/evs/cfe_evs_task.c ****    }
1224:/home/simulink/cFS_FreeRTOS_seL4/cfe/fsw/cfe-core/src/evs/cfe_evs_task.c **** 
1225:/home/simulink/cFS_FreeRTOS_seL4/cfe/fsw/cfe-core/src/evs/cfe_evs_task.c ****    return (boolean)Status;
 2914               	.loc 1 1225 0
 2915 1672 202F 001C 	move.l 28(%sp),%d0
 2916 1676 1000      	move.b %d0,%d0
1226:/home/simulink/cFS_FreeRTOS_seL4/cfe/fsw/cfe-core/src/evs/cfe_evs_task.c **** 
1227:/home/simulink/cFS_FreeRTOS_seL4/cfe/fsw/cfe-core/src/evs/cfe_evs_task.c **** } /* End CFE_EVS_EnableAppEventTypesCmd */
 2917               	.loc 1 1227 0
 2918 1678 4FEF 0020 	lea (32,%sp),%sp
 2919 167c 4E75      	rts
 2920               	.cfi_endproc
 2921               	.LFE74:
 2922               	.sizeCFE_EVS_EnableAppEventTypesCmd, .-CFE_EVS_EnableAppEventTypesCmd
 2923               	.section.rodata
 2924               	.LC38:
 2925 075e 2573 206E 	.string"%s not registered with EVS,: CC = %lu"
 2925      6F74 2072 
 2925      6567 6973 
 2925      7465 7265 
 2925      6420 7769 
 2926               	.LC39:
 2927 0784 4469 7361 	.string"Disable App Event Type Command Received with AppName = %s, EventType Bit Mask = 0x%02x"
 2927      626C 6520 
 2927      4170 7020 
 2927      4576 656E 
 2927      7420 5479 
 2928               	.text
 2929               	.align2
 2930               	.globlCFE_EVS_DisableAppEventTypesCmd
 2931               	.typeCFE_EVS_DisableAppEventTypesCmd, @function
 2932               	CFE_EVS_DisableAppEventTypesCmd:
 2933               	.LFB75:
1228:/home/simulink/cFS_FreeRTOS_seL4/cfe/fsw/cfe-core/src/evs/cfe_evs_task.c **** 
1229:/home/simulink/cFS_FreeRTOS_seL4/cfe/fsw/cfe-core/src/evs/cfe_evs_task.c **** 
68K GAS   			page 84


1230:/home/simulink/cFS_FreeRTOS_seL4/cfe/fsw/cfe-core/src/evs/cfe_evs_task.c **** /*
1231:/home/simulink/cFS_FreeRTOS_seL4/cfe/fsw/cfe-core/src/evs/cfe_evs_task.c **** **             Function Prologue
1232:/home/simulink/cFS_FreeRTOS_seL4/cfe/fsw/cfe-core/src/evs/cfe_evs_task.c **** **
1233:/home/simulink/cFS_FreeRTOS_seL4/cfe/fsw/cfe-core/src/evs/cfe_evs_task.c **** ** Function Name:      CFE_EVS_DisableAppEventTypesCmd
1234:/home/simulink/cFS_FreeRTOS_seL4/cfe/fsw/cfe-core/src/evs/cfe_evs_task.c **** **
1235:/home/simulink/cFS_FreeRTOS_seL4/cfe/fsw/cfe-core/src/evs/cfe_evs_task.c **** ** Purpose:  This routine sets the given event type for the given application identifier to a
1236:/home/simulink/cFS_FreeRTOS_seL4/cfe/fsw/cfe-core/src/evs/cfe_evs_task.c **** **           disabled state
1237:/home/simulink/cFS_FreeRTOS_seL4/cfe/fsw/cfe-core/src/evs/cfe_evs_task.c **** **
1238:/home/simulink/cFS_FreeRTOS_seL4/cfe/fsw/cfe-core/src/evs/cfe_evs_task.c **** ** Assumptions and Notes:
1239:/home/simulink/cFS_FreeRTOS_seL4/cfe/fsw/cfe-core/src/evs/cfe_evs_task.c **** **
1240:/home/simulink/cFS_FreeRTOS_seL4/cfe/fsw/cfe-core/src/evs/cfe_evs_task.c **** */
1241:/home/simulink/cFS_FreeRTOS_seL4/cfe/fsw/cfe-core/src/evs/cfe_evs_task.c **** boolean CFE_EVS_DisableAppEventTypesCmd (const CFE_SB_MsgPayloadPtr_t Payload)
1242:/home/simulink/cFS_FreeRTOS_seL4/cfe/fsw/cfe-core/src/evs/cfe_evs_task.c **** {
 2934               	.loc 1 1242 0
 2935               	.cfi_startproc
 2936 167e 4FEF FFE0 	lea (-32,%sp),%sp
 2937               	.cfi_def_cfa_offset 36
1243:/home/simulink/cFS_FreeRTOS_seL4/cfe/fsw/cfe-core/src/evs/cfe_evs_task.c ****    uint32 AppID  = CFE_EVS_UNDEF_APPID;
 2938               	.loc 1 1243 0
 2939 1682 70FF      	moveq #-1,%d0
 2940 1684 2F40 0014 	move.l %d0,20(%sp)
1244:/home/simulink/cFS_FreeRTOS_seL4/cfe/fsw/cfe-core/src/evs/cfe_evs_task.c ****    const CFE_EVS_AppNameBitMaskCmd_Payload_t *CmdPtr = (const CFE_EVS_AppNameBitMaskCmd_Payload_t *
 2941               	.loc 1 1244 0
 2942 1688 2F6F 0024 	move.l 36(%sp),24(%sp)
 2942      0018 
1245:/home/simulink/cFS_FreeRTOS_seL4/cfe/fsw/cfe-core/src/evs/cfe_evs_task.c ****    int32  Status;
1246:/home/simulink/cFS_FreeRTOS_seL4/cfe/fsw/cfe-core/src/evs/cfe_evs_task.c ****    char    LocalName[OS_MAX_API_NAME];
1247:/home/simulink/cFS_FreeRTOS_seL4/cfe/fsw/cfe-core/src/evs/cfe_evs_task.c **** 
1248:/home/simulink/cFS_FreeRTOS_seL4/cfe/fsw/cfe-core/src/evs/cfe_evs_task.c ****    /*
1249:/home/simulink/cFS_FreeRTOS_seL4/cfe/fsw/cfe-core/src/evs/cfe_evs_task.c ****     * Althgouh EVS_GetApplicationInfo() does not require a null terminated argument,
1250:/home/simulink/cFS_FreeRTOS_seL4/cfe/fsw/cfe-core/src/evs/cfe_evs_task.c ****     * the value is passed to EVS_SendEvent which does require termination (normal C string)
1251:/home/simulink/cFS_FreeRTOS_seL4/cfe/fsw/cfe-core/src/evs/cfe_evs_task.c ****     */
1252:/home/simulink/cFS_FreeRTOS_seL4/cfe/fsw/cfe-core/src/evs/cfe_evs_task.c ****    CFE_SB_MessageStringGet(LocalName, (char *)CmdPtr->AppName, NULL, OS_MAX_API_NAME, sizeof(CmdPtr
 2943               	.loc 1 1252 0
 2944 168e 202F 0018 	move.l 24(%sp),%d0
 2945 1692 4878 0014 	pea 20.w
 2946               	.cfi_def_cfa_offset 40
 2947 1696 4878 0014 	pea 20.w
 2948               	.cfi_def_cfa_offset 44
 2949 169a 42A7      	clr.l -(%sp)
 2950               	.cfi_def_cfa_offset 48
 2951 169c 2F00      	move.l %d0,-(%sp)
 2952               	.cfi_def_cfa_offset 52
 2953 169e 200F      	move.l %sp,%d0
 2954 16a0 0680 0000 	add.l #16,%d0
 2954      0010 
 2955 16a6 2F00      	move.l %d0,-(%sp)
 2956               	.cfi_def_cfa_offset 56
 2957 16a8 4EB9 0000 	jsr CFE_SB_MessageStringGet
 2957      0000 
 2958 16ae 4FEF 0014 	lea (20,%sp),%sp
 2959               	.cfi_def_cfa_offset 36
1253:/home/simulink/cFS_FreeRTOS_seL4/cfe/fsw/cfe-core/src/evs/cfe_evs_task.c **** 
1254:/home/simulink/cFS_FreeRTOS_seL4/cfe/fsw/cfe-core/src/evs/cfe_evs_task.c ****    /* Retreive application data */
1255:/home/simulink/cFS_FreeRTOS_seL4/cfe/fsw/cfe-core/src/evs/cfe_evs_task.c ****    Status = EVS_GetApplicationInfo(&AppID, LocalName);
 2960               	.loc 1 1255 0
 2961 16b2 200F      	move.l %sp,%d0
68K GAS   			page 85


 2962 16b4 2F00      	move.l %d0,-(%sp)
 2963               	.cfi_def_cfa_offset 40
 2964 16b6 200F      	move.l %sp,%d0
 2965 16b8 0680 0000 	add.l #24,%d0
 2965      0018 
 2966 16be 2F00      	move.l %d0,-(%sp)
 2967               	.cfi_def_cfa_offset 44
 2968 16c0 4EB9 0000 	jsr EVS_GetApplicationInfo
 2968      0000 
 2969 16c6 508F      	addq.l #8,%sp
 2970               	.cfi_def_cfa_offset 36
 2971 16c8 2F40 001C 	move.l %d0,28(%sp)
1256:/home/simulink/cFS_FreeRTOS_seL4/cfe/fsw/cfe-core/src/evs/cfe_evs_task.c **** 
1257:/home/simulink/cFS_FreeRTOS_seL4/cfe/fsw/cfe-core/src/evs/cfe_evs_task.c ****    if(Status == CFE_SUCCESS)
 2972               	.loc 1 1257 0
 2973 16cc 4AAF 001C 	tst.l 28(%sp)
 2974 16d0 6600 0084 	jne .L182
1258:/home/simulink/cFS_FreeRTOS_seL4/cfe/fsw/cfe-core/src/evs/cfe_evs_task.c ****    {
1259:/home/simulink/cFS_FreeRTOS_seL4/cfe/fsw/cfe-core/src/evs/cfe_evs_task.c **** 
1260:/home/simulink/cFS_FreeRTOS_seL4/cfe/fsw/cfe-core/src/evs/cfe_evs_task.c ****         /* Need to check for an out of range bitmask, since our bit masks are only 4 bits */
1261:/home/simulink/cFS_FreeRTOS_seL4/cfe/fsw/cfe-core/src/evs/cfe_evs_task.c ****         if (CmdPtr->BitMask == 0x0 || CmdPtr->BitMask > 0x0F)
 2975               	.loc 1 1261 0
 2976 16d4 206F 0018 	move.l 24(%sp),%a0
 2977 16d8 1028 0014 	move.b 20(%a0),%d0
 2978 16dc 4A00      	tst.b %d0
 2979 16de 6716      	jeq .L183
 2980               	.loc 1 1261 0 is_stmt 0 discriminator 1
 2981 16e0 206F 0018 	move.l 24(%sp),%a0
 2982 16e4 1028 0014 	move.b 20(%a0),%d0
 2983 16e8 1000      	move.b %d0,%d0
 2984 16ea 0280 0000 	and.l #255,%d0
 2984      00FF 
 2985 16f0 720F      	moveq #15,%d1
 2986 16f2 B280      	cmp.l %d0,%d1
 2987 16f4 6436      	jcc .L184
 2988               	.L183:
1262:/home/simulink/cFS_FreeRTOS_seL4/cfe/fsw/cfe-core/src/evs/cfe_evs_task.c ****         {
1263:/home/simulink/cFS_FreeRTOS_seL4/cfe/fsw/cfe-core/src/evs/cfe_evs_task.c ****             EVS_SendEvent(CFE_EVS_ERR_INVALID_BITMASK_EID, CFE_EVS_ERROR,
1264:/home/simulink/cFS_FreeRTOS_seL4/cfe/fsw/cfe-core/src/evs/cfe_evs_task.c ****                               "Bit Mask = 0x%08x out of range: CC = %lu",
1265:/home/simulink/cFS_FreeRTOS_seL4/cfe/fsw/cfe-core/src/evs/cfe_evs_task.c ****                               (unsigned int)CmdPtr->BitMask, (long unsigned int)CFE_EVS_DISABLE_APP
 2989               	.loc 1 1265 0 is_stmt 1
 2990 16f6 206F 0018 	move.l 24(%sp),%a0
 2991 16fa 1028 0014 	move.b 20(%a0),%d0
1263:/home/simulink/cFS_FreeRTOS_seL4/cfe/fsw/cfe-core/src/evs/cfe_evs_task.c ****                               "Bit Mask = 0x%08x out of range: CC = %lu",
 2992               	.loc 1 1263 0
 2993 16fe 1000      	move.b %d0,%d0
 2994 1700 0280 0000 	and.l #255,%d0
 2994      00FF 
 2995 1706 4878 0006 	pea 6.w
 2996               	.cfi_def_cfa_offset 40
 2997 170a 2F00      	move.l %d0,-(%sp)
 2998               	.cfi_def_cfa_offset 44
 2999 170c 4879 0000 	pea .LC30
 2999      0000 
 3000               	.cfi_def_cfa_offset 48
 3001 1712 4878 0003 	pea 3.w
 3002               	.cfi_def_cfa_offset 52
68K GAS   			page 86


 3003 1716 4878 0028 	pea 40.w
 3004               	.cfi_def_cfa_offset 56
 3005 171a 4EB9 0000 	jsr EVS_SendEvent
 3005      0000 
 3006 1720 4FEF 0014 	lea (20,%sp),%sp
 3007               	.cfi_def_cfa_offset 36
1266:/home/simulink/cFS_FreeRTOS_seL4/cfe/fsw/cfe-core/src/evs/cfe_evs_task.c ****             Status = FALSE;  
 3008               	.loc 1 1266 0
 3009 1724 42AF 001C 	clr.l 28(%sp)
 3010 1728 6000 00C2 	jra .L186
 3011               	.L184:
1267:/home/simulink/cFS_FreeRTOS_seL4/cfe/fsw/cfe-core/src/evs/cfe_evs_task.c ****         }
1268:/home/simulink/cFS_FreeRTOS_seL4/cfe/fsw/cfe-core/src/evs/cfe_evs_task.c ****         else
1269:/home/simulink/cFS_FreeRTOS_seL4/cfe/fsw/cfe-core/src/evs/cfe_evs_task.c ****         {
1270:/home/simulink/cFS_FreeRTOS_seL4/cfe/fsw/cfe-core/src/evs/cfe_evs_task.c ****             EVS_DisableTypes(CmdPtr->BitMask, AppID);
 3012               	.loc 1 1270 0
 3013 172c 222F 0014 	move.l 20(%sp),%d1
 3014 1730 206F 0018 	move.l 24(%sp),%a0
 3015 1734 1028 0014 	move.b 20(%a0),%d0
 3016 1738 1000      	move.b %d0,%d0
 3017 173a 0280 0000 	and.l #255,%d0
 3017      00FF 
 3018 1740 2F01      	move.l %d1,-(%sp)
 3019               	.cfi_def_cfa_offset 40
 3020 1742 2F00      	move.l %d0,-(%sp)
 3021               	.cfi_def_cfa_offset 44
 3022 1744 4EB9 0000 	jsr EVS_DisableTypes
 3022      0000 
 3023 174a 508F      	addq.l #8,%sp
 3024               	.cfi_def_cfa_offset 36
1271:/home/simulink/cFS_FreeRTOS_seL4/cfe/fsw/cfe-core/src/evs/cfe_evs_task.c ****             Status = TRUE;
 3025               	.loc 1 1271 0
 3026 174c 7001      	moveq #1,%d0
 3027 174e 2F40 001C 	move.l %d0,28(%sp)
 3028 1752 6000 0098 	jra .L186
 3029               	.L182:
1272:/home/simulink/cFS_FreeRTOS_seL4/cfe/fsw/cfe-core/src/evs/cfe_evs_task.c ****         }
1273:/home/simulink/cFS_FreeRTOS_seL4/cfe/fsw/cfe-core/src/evs/cfe_evs_task.c ****    }
1274:/home/simulink/cFS_FreeRTOS_seL4/cfe/fsw/cfe-core/src/evs/cfe_evs_task.c ****    else if(Status == CFE_EVS_APP_NOT_REGISTERED)
 3030               	.loc 1 1274 0
 3031 1756 223C C200 	move.l #-1040187390,%d1
 3031      0002 
 3032 175c B2AF 001C 	cmp.l 28(%sp),%d1
 3033 1760 6628      	jne .L187
1275:/home/simulink/cFS_FreeRTOS_seL4/cfe/fsw/cfe-core/src/evs/cfe_evs_task.c ****    {
1276:/home/simulink/cFS_FreeRTOS_seL4/cfe/fsw/cfe-core/src/evs/cfe_evs_task.c ****       EVS_SendEvent(CFE_EVS_ERR_APPNOREGS_EID, CFE_EVS_ERROR,
 3034               	.loc 1 1276 0
 3035 1762 4878 0006 	pea 6.w
 3036               	.cfi_def_cfa_offset 40
 3037 1766 200F      	move.l %sp,%d0
 3038 1768 5880      	addq.l #4,%d0
 3039 176a 2F00      	move.l %d0,-(%sp)
 3040               	.cfi_def_cfa_offset 44
 3041 176c 4879 0000 	pea .LC38
 3041      0000 
 3042               	.cfi_def_cfa_offset 48
 3043 1772 4878 0003 	pea 3.w
68K GAS   			page 87


 3044               	.cfi_def_cfa_offset 52
 3045 1776 4878 0007 	pea 7.w
 3046               	.cfi_def_cfa_offset 56
 3047 177a 4EB9 0000 	jsr EVS_SendEvent
 3047      0000 
 3048 1780 4FEF 0014 	lea (20,%sp),%sp
 3049               	.cfi_def_cfa_offset 36
1277:/home/simulink/cFS_FreeRTOS_seL4/cfe/fsw/cfe-core/src/evs/cfe_evs_task.c ****                         "%s not registered with EVS,: CC = %lu",
1278:/home/simulink/cFS_FreeRTOS_seL4/cfe/fsw/cfe-core/src/evs/cfe_evs_task.c ****                         LocalName,(long unsigned int)CFE_EVS_DISABLE_APP_EVENT_TYPE_CC);
1279:/home/simulink/cFS_FreeRTOS_seL4/cfe/fsw/cfe-core/src/evs/cfe_evs_task.c ****       Status = FALSE;
 3050               	.loc 1 1279 0
 3051 1784 42AF 001C 	clr.l 28(%sp)
 3052 1788 6062      	jra .L186
 3053               	.L187:
1280:/home/simulink/cFS_FreeRTOS_seL4/cfe/fsw/cfe-core/src/evs/cfe_evs_task.c ****    }
1281:/home/simulink/cFS_FreeRTOS_seL4/cfe/fsw/cfe-core/src/evs/cfe_evs_task.c ****    else if(Status == CFE_EVS_APP_ILLEGAL_APP_ID)
 3054               	.loc 1 1281 0
 3055 178a 203C C200 	move.l #-1040187389,%d0
 3055      0003 
 3056 1790 B0AF 001C 	cmp.l 28(%sp),%d0
 3057 1794 6630      	jne .L188
1282:/home/simulink/cFS_FreeRTOS_seL4/cfe/fsw/cfe-core/src/evs/cfe_evs_task.c ****    {
1283:/home/simulink/cFS_FreeRTOS_seL4/cfe/fsw/cfe-core/src/evs/cfe_evs_task.c ****       EVS_SendEvent(CFE_EVS_ERR_ILLAPPIDRANGE_EID, CFE_EVS_ERROR,
 3058               	.loc 1 1283 0
 3059 1796 202F 0014 	move.l 20(%sp),%d0
 3060 179a 2200      	move.l %d0,%d1
 3061 179c 4878 0006 	pea 6.w
 3062               	.cfi_def_cfa_offset 40
 3063 17a0 200F      	move.l %sp,%d0
 3064 17a2 5880      	addq.l #4,%d0
 3065 17a4 2F00      	move.l %d0,-(%sp)
 3066               	.cfi_def_cfa_offset 44
 3067 17a6 2F01      	move.l %d1,-(%sp)
 3068               	.cfi_def_cfa_offset 48
 3069 17a8 4879 0000 	pea .LC28
 3069      0000 
 3070               	.cfi_def_cfa_offset 52
 3071 17ae 4878 0003 	pea 3.w
 3072               	.cfi_def_cfa_offset 56
 3073 17b2 4878 0008 	pea 8.w
 3074               	.cfi_def_cfa_offset 60
 3075 17b6 4EB9 0000 	jsr EVS_SendEvent
 3075      0000 
 3076 17bc 4FEF 0018 	lea (24,%sp),%sp
 3077               	.cfi_def_cfa_offset 36
1284:/home/simulink/cFS_FreeRTOS_seL4/cfe/fsw/cfe-core/src/evs/cfe_evs_task.c ****                         "Illegal application ID %d retrieved for %s: CC = %lu",
1285:/home/simulink/cFS_FreeRTOS_seL4/cfe/fsw/cfe-core/src/evs/cfe_evs_task.c ****                         (int)AppID, LocalName, (long unsigned int)CFE_EVS_DISABLE_APP_EVENT_TYPE_CC
1286:/home/simulink/cFS_FreeRTOS_seL4/cfe/fsw/cfe-core/src/evs/cfe_evs_task.c ****       Status = FALSE;
 3078               	.loc 1 1286 0
 3079 17c0 42AF 001C 	clr.l 28(%sp)
 3080 17c4 6026      	jra .L186
 3081               	.L188:
1287:/home/simulink/cFS_FreeRTOS_seL4/cfe/fsw/cfe-core/src/evs/cfe_evs_task.c ****    }
1288:/home/simulink/cFS_FreeRTOS_seL4/cfe/fsw/cfe-core/src/evs/cfe_evs_task.c ****    else
1289:/home/simulink/cFS_FreeRTOS_seL4/cfe/fsw/cfe-core/src/evs/cfe_evs_task.c ****    {
1290:/home/simulink/cFS_FreeRTOS_seL4/cfe/fsw/cfe-core/src/evs/cfe_evs_task.c ****       EVS_SendEvent(CFE_EVS_ERR_NOAPPIDFOUND_EID, CFE_EVS_ERROR,
 3082               	.loc 1 1290 0
68K GAS   			page 88


 3083 17c6 4878 0006 	pea 6.w
 3084               	.cfi_def_cfa_offset 40
 3085 17ca 200F      	move.l %sp,%d0
 3086 17cc 5880      	addq.l #4,%d0
 3087 17ce 2F00      	move.l %d0,-(%sp)
 3088               	.cfi_def_cfa_offset 44
 3089 17d0 4879 0000 	pea .LC29
 3089      0000 
 3090               	.cfi_def_cfa_offset 48
 3091 17d6 4878 0003 	pea 3.w
 3092               	.cfi_def_cfa_offset 52
 3093 17da 4878 0009 	pea 9.w
 3094               	.cfi_def_cfa_offset 56
 3095 17de 4EB9 0000 	jsr EVS_SendEvent
 3095      0000 
 3096 17e4 4FEF 0014 	lea (20,%sp),%sp
 3097               	.cfi_def_cfa_offset 36
1291:/home/simulink/cFS_FreeRTOS_seL4/cfe/fsw/cfe-core/src/evs/cfe_evs_task.c ****                         "Unable to retrieve application ID for %s: CC = %lu",
1292:/home/simulink/cFS_FreeRTOS_seL4/cfe/fsw/cfe-core/src/evs/cfe_evs_task.c ****                         LocalName, (long unsigned int)CFE_EVS_DISABLE_APP_EVENT_TYPE_CC);
1293:/home/simulink/cFS_FreeRTOS_seL4/cfe/fsw/cfe-core/src/evs/cfe_evs_task.c ****       Status = FALSE;
 3098               	.loc 1 1293 0
 3099 17e8 42AF 001C 	clr.l 28(%sp)
 3100               	.L186:
1294:/home/simulink/cFS_FreeRTOS_seL4/cfe/fsw/cfe-core/src/evs/cfe_evs_task.c ****    }
1295:/home/simulink/cFS_FreeRTOS_seL4/cfe/fsw/cfe-core/src/evs/cfe_evs_task.c **** 
1296:/home/simulink/cFS_FreeRTOS_seL4/cfe/fsw/cfe-core/src/evs/cfe_evs_task.c ****    if(Status == TRUE)
 3101               	.loc 1 1296 0
 3102 17ec 7201      	moveq #1,%d1
 3103 17ee B2AF 001C 	cmp.l 28(%sp),%d1
 3104 17f2 6630      	jne .L189
1297:/home/simulink/cFS_FreeRTOS_seL4/cfe/fsw/cfe-core/src/evs/cfe_evs_task.c ****    {
1298:/home/simulink/cFS_FreeRTOS_seL4/cfe/fsw/cfe-core/src/evs/cfe_evs_task.c ****       EVS_SendEvent(CFE_EVS_DISAPPENTTYPE_EID, CFE_EVS_DEBUG,
1299:/home/simulink/cFS_FreeRTOS_seL4/cfe/fsw/cfe-core/src/evs/cfe_evs_task.c ****                         "Disable App Event Type Command Received with AppName = %s, EventType Bit M
1300:/home/simulink/cFS_FreeRTOS_seL4/cfe/fsw/cfe-core/src/evs/cfe_evs_task.c ****                         LocalName, CmdPtr->BitMask);
 3105               	.loc 1 1300 0
 3106 17f4 206F 0018 	move.l 24(%sp),%a0
 3107 17f8 1028 0014 	move.b 20(%a0),%d0
1298:/home/simulink/cFS_FreeRTOS_seL4/cfe/fsw/cfe-core/src/evs/cfe_evs_task.c ****                         "Disable App Event Type Command Received with AppName = %s, EventType Bit M
 3108               	.loc 1 1298 0
 3109 17fc 1000      	move.b %d0,%d0
 3110 17fe 0280 0000 	and.l #255,%d0
 3110      00FF 
 3111 1804 2F00      	move.l %d0,-(%sp)
 3112               	.cfi_def_cfa_offset 40
 3113 1806 200F      	move.l %sp,%d0
 3114 1808 5880      	addq.l #4,%d0
 3115 180a 2F00      	move.l %d0,-(%sp)
 3116               	.cfi_def_cfa_offset 44
 3117 180c 4879 0000 	pea .LC39
 3117      0000 
 3118               	.cfi_def_cfa_offset 48
 3119 1812 4878 0001 	pea 1.w
 3120               	.cfi_def_cfa_offset 52
 3121 1816 4878 0018 	pea 24.w
 3122               	.cfi_def_cfa_offset 56
 3123 181a 4EB9 0000 	jsr EVS_SendEvent
 3123      0000 
68K GAS   			page 89


 3124 1820 4FEF 0014 	lea (20,%sp),%sp
 3125               	.cfi_def_cfa_offset 36
 3126               	.L189:
1301:/home/simulink/cFS_FreeRTOS_seL4/cfe/fsw/cfe-core/src/evs/cfe_evs_task.c ****    }
1302:/home/simulink/cFS_FreeRTOS_seL4/cfe/fsw/cfe-core/src/evs/cfe_evs_task.c **** 
1303:/home/simulink/cFS_FreeRTOS_seL4/cfe/fsw/cfe-core/src/evs/cfe_evs_task.c ****    return (boolean)Status;
 3127               	.loc 1 1303 0
 3128 1824 202F 001C 	move.l 28(%sp),%d0
 3129 1828 1000      	move.b %d0,%d0
1304:/home/simulink/cFS_FreeRTOS_seL4/cfe/fsw/cfe-core/src/evs/cfe_evs_task.c **** 
1305:/home/simulink/cFS_FreeRTOS_seL4/cfe/fsw/cfe-core/src/evs/cfe_evs_task.c **** } /* End CFE_EVS_DisableAppEventTypes */
 3130               	.loc 1 1305 0
 3131 182a 4FEF 0020 	lea (32,%sp),%sp
 3132 182e 4E75      	rts
 3133               	.cfi_endproc
 3134               	.LFE75:
 3135               	.sizeCFE_EVS_DisableAppEventTypesCmd, .-CFE_EVS_DisableAppEventTypesCmd
 3136               	.section.rodata
 3137               	.LC40:
 3138 07db 456E 6162 	.string"Enable App Events Command Received with AppName = %s"
 3138      6C65 2041 
 3138      7070 2045 
 3138      7665 6E74 
 3138      7320 436F 
 3139               	.text
 3140               	.align2
 3141               	.globlCFE_EVS_EnableAppEventsCmd
 3142               	.typeCFE_EVS_EnableAppEventsCmd, @function
 3143               	CFE_EVS_EnableAppEventsCmd:
 3144               	.LFB76:
1306:/home/simulink/cFS_FreeRTOS_seL4/cfe/fsw/cfe-core/src/evs/cfe_evs_task.c **** 
1307:/home/simulink/cFS_FreeRTOS_seL4/cfe/fsw/cfe-core/src/evs/cfe_evs_task.c **** 
1308:/home/simulink/cFS_FreeRTOS_seL4/cfe/fsw/cfe-core/src/evs/cfe_evs_task.c **** /*
1309:/home/simulink/cFS_FreeRTOS_seL4/cfe/fsw/cfe-core/src/evs/cfe_evs_task.c **** **             Function Prologue
1310:/home/simulink/cFS_FreeRTOS_seL4/cfe/fsw/cfe-core/src/evs/cfe_evs_task.c **** **
1311:/home/simulink/cFS_FreeRTOS_seL4/cfe/fsw/cfe-core/src/evs/cfe_evs_task.c **** ** Function Name:      CFE_EVS_EnableAppEventsCmd
1312:/home/simulink/cFS_FreeRTOS_seL4/cfe/fsw/cfe-core/src/evs/cfe_evs_task.c **** **
1313:/home/simulink/cFS_FreeRTOS_seL4/cfe/fsw/cfe-core/src/evs/cfe_evs_task.c **** ** Purpose:  This routine enables application events for the given application identifier
1314:/home/simulink/cFS_FreeRTOS_seL4/cfe/fsw/cfe-core/src/evs/cfe_evs_task.c **** **
1315:/home/simulink/cFS_FreeRTOS_seL4/cfe/fsw/cfe-core/src/evs/cfe_evs_task.c **** ** Assumptions and Notes:
1316:/home/simulink/cFS_FreeRTOS_seL4/cfe/fsw/cfe-core/src/evs/cfe_evs_task.c **** **
1317:/home/simulink/cFS_FreeRTOS_seL4/cfe/fsw/cfe-core/src/evs/cfe_evs_task.c **** */
1318:/home/simulink/cFS_FreeRTOS_seL4/cfe/fsw/cfe-core/src/evs/cfe_evs_task.c **** boolean CFE_EVS_EnableAppEventsCmd (const CFE_SB_MsgPayloadPtr_t Payload)
1319:/home/simulink/cFS_FreeRTOS_seL4/cfe/fsw/cfe-core/src/evs/cfe_evs_task.c **** {
 3145               	.loc 1 1319 0
 3146               	.cfi_startproc
 3147 1830 4FEF FFE0 	lea (-32,%sp),%sp
 3148               	.cfi_def_cfa_offset 36
1320:/home/simulink/cFS_FreeRTOS_seL4/cfe/fsw/cfe-core/src/evs/cfe_evs_task.c ****    uint32 AppID  = CFE_EVS_UNDEF_APPID;
 3149               	.loc 1 1320 0
 3150 1834 70FF      	moveq #-1,%d0
 3151 1836 2F40 0014 	move.l %d0,20(%sp)
1321:/home/simulink/cFS_FreeRTOS_seL4/cfe/fsw/cfe-core/src/evs/cfe_evs_task.c ****    const CFE_EVS_AppNameCmd_Payload_t *CmdPtr = (const CFE_EVS_AppNameCmd_Payload_t *)Payload;
 3152               	.loc 1 1321 0
 3153 183a 2F6F 0024 	move.l 36(%sp),24(%sp)
 3153      0018 
1322:/home/simulink/cFS_FreeRTOS_seL4/cfe/fsw/cfe-core/src/evs/cfe_evs_task.c ****    int32  Status;
68K GAS   			page 90


1323:/home/simulink/cFS_FreeRTOS_seL4/cfe/fsw/cfe-core/src/evs/cfe_evs_task.c ****    char                LocalName[OS_MAX_API_NAME];
1324:/home/simulink/cFS_FreeRTOS_seL4/cfe/fsw/cfe-core/src/evs/cfe_evs_task.c **** 
1325:/home/simulink/cFS_FreeRTOS_seL4/cfe/fsw/cfe-core/src/evs/cfe_evs_task.c ****    /*
1326:/home/simulink/cFS_FreeRTOS_seL4/cfe/fsw/cfe-core/src/evs/cfe_evs_task.c ****     * Althgouh EVS_GetApplicationInfo() does not require a null terminated argument,
1327:/home/simulink/cFS_FreeRTOS_seL4/cfe/fsw/cfe-core/src/evs/cfe_evs_task.c ****     * the value is passed to EVS_SendEvent which does require termination (normal C string)
1328:/home/simulink/cFS_FreeRTOS_seL4/cfe/fsw/cfe-core/src/evs/cfe_evs_task.c ****     */
1329:/home/simulink/cFS_FreeRTOS_seL4/cfe/fsw/cfe-core/src/evs/cfe_evs_task.c ****    CFE_SB_MessageStringGet(LocalName, (char *)CmdPtr->AppName, NULL, OS_MAX_API_NAME, sizeof(CmdPtr
 3154               	.loc 1 1329 0
 3155 1840 202F 0018 	move.l 24(%sp),%d0
 3156 1844 4878 0014 	pea 20.w
 3157               	.cfi_def_cfa_offset 40
 3158 1848 4878 0014 	pea 20.w
 3159               	.cfi_def_cfa_offset 44
 3160 184c 42A7      	clr.l -(%sp)
 3161               	.cfi_def_cfa_offset 48
 3162 184e 2F00      	move.l %d0,-(%sp)
 3163               	.cfi_def_cfa_offset 52
 3164 1850 200F      	move.l %sp,%d0
 3165 1852 0680 0000 	add.l #16,%d0
 3165      0010 
 3166 1858 2F00      	move.l %d0,-(%sp)
 3167               	.cfi_def_cfa_offset 56
 3168 185a 4EB9 0000 	jsr CFE_SB_MessageStringGet
 3168      0000 
 3169 1860 4FEF 0014 	lea (20,%sp),%sp
 3170               	.cfi_def_cfa_offset 36
1330:/home/simulink/cFS_FreeRTOS_seL4/cfe/fsw/cfe-core/src/evs/cfe_evs_task.c **** 
1331:/home/simulink/cFS_FreeRTOS_seL4/cfe/fsw/cfe-core/src/evs/cfe_evs_task.c ****    /* Retrieve application data */
1332:/home/simulink/cFS_FreeRTOS_seL4/cfe/fsw/cfe-core/src/evs/cfe_evs_task.c ****    Status = EVS_GetApplicationInfo(&AppID, LocalName);
 3171               	.loc 1 1332 0
 3172 1864 200F      	move.l %sp,%d0
 3173 1866 2F00      	move.l %d0,-(%sp)
 3174               	.cfi_def_cfa_offset 40
 3175 1868 200F      	move.l %sp,%d0
 3176 186a 0680 0000 	add.l #24,%d0
 3176      0018 
 3177 1870 2F00      	move.l %d0,-(%sp)
 3178               	.cfi_def_cfa_offset 44
 3179 1872 4EB9 0000 	jsr EVS_GetApplicationInfo
 3179      0000 
 3180 1878 508F      	addq.l #8,%sp
 3181               	.cfi_def_cfa_offset 36
 3182 187a 2F40 001C 	move.l %d0,28(%sp)
1333:/home/simulink/cFS_FreeRTOS_seL4/cfe/fsw/cfe-core/src/evs/cfe_evs_task.c **** 
1334:/home/simulink/cFS_FreeRTOS_seL4/cfe/fsw/cfe-core/src/evs/cfe_evs_task.c ****    if(Status == CFE_SUCCESS)
 3183               	.loc 1 1334 0
 3184 187e 4AAF 001C 	tst.l 28(%sp)
 3185 1882 663C      	jne .L192
1335:/home/simulink/cFS_FreeRTOS_seL4/cfe/fsw/cfe-core/src/evs/cfe_evs_task.c ****    {
1336:/home/simulink/cFS_FreeRTOS_seL4/cfe/fsw/cfe-core/src/evs/cfe_evs_task.c ****         CFE_EVS_GlobalData.AppData[AppID].ActiveFlag = TRUE;
 3186               	.loc 1 1336 0
 3187 1884 202F 0014 	move.l 20(%sp),%d0
 3188 1888 7246      	moveq #70,%d1
 3189 188a 4C01 0800 	muls.l %d1,%d0
 3190 188e 41F9 0000 	lea CFE_EVS_GlobalData+64,%a0
 3190      0000 
 3191 1894 7201      	moveq #1,%d1
68K GAS   			page 91


 3192 1896 1181 0800 	move.b %d1,(%a0,%d0.l)
1337:/home/simulink/cFS_FreeRTOS_seL4/cfe/fsw/cfe-core/src/evs/cfe_evs_task.c **** 
1338:/home/simulink/cFS_FreeRTOS_seL4/cfe/fsw/cfe-core/src/evs/cfe_evs_task.c ****         EVS_SendEvent(CFE_EVS_ENAAPPEVT_EID, CFE_EVS_DEBUG,
 3193               	.loc 1 1338 0
 3194 189a 200F      	move.l %sp,%d0
 3195 189c 2F00      	move.l %d0,-(%sp)
 3196               	.cfi_def_cfa_offset 40
 3197 189e 4879 0000 	pea .LC40
 3197      0000 
 3198               	.cfi_def_cfa_offset 44
 3199 18a4 4878 0001 	pea 1.w
 3200               	.cfi_def_cfa_offset 48
 3201 18a8 4878 0019 	pea 25.w
 3202               	.cfi_def_cfa_offset 52
 3203 18ac 4EB9 0000 	jsr EVS_SendEvent
 3203      0000 
 3204 18b2 4FEF 0010 	lea (16,%sp),%sp
 3205               	.cfi_def_cfa_offset 36
1339:/home/simulink/cFS_FreeRTOS_seL4/cfe/fsw/cfe-core/src/evs/cfe_evs_task.c ****                           "Enable App Events Command Received with AppName = %s",
1340:/home/simulink/cFS_FreeRTOS_seL4/cfe/fsw/cfe-core/src/evs/cfe_evs_task.c ****                           LocalName);
1341:/home/simulink/cFS_FreeRTOS_seL4/cfe/fsw/cfe-core/src/evs/cfe_evs_task.c **** 
1342:/home/simulink/cFS_FreeRTOS_seL4/cfe/fsw/cfe-core/src/evs/cfe_evs_task.c ****         Status = TRUE;
 3206               	.loc 1 1342 0
 3207 18b6 7001      	moveq #1,%d0
 3208 18b8 2F40 001C 	move.l %d0,28(%sp)
 3209 18bc 6000 0098 	jra .L193
 3210               	.L192:
1343:/home/simulink/cFS_FreeRTOS_seL4/cfe/fsw/cfe-core/src/evs/cfe_evs_task.c ****    }
1344:/home/simulink/cFS_FreeRTOS_seL4/cfe/fsw/cfe-core/src/evs/cfe_evs_task.c ****    else if(Status == CFE_EVS_APP_NOT_REGISTERED)
 3211               	.loc 1 1344 0
 3212 18c0 223C C200 	move.l #-1040187390,%d1
 3212      0002 
 3213 18c6 B2AF 001C 	cmp.l 28(%sp),%d1
 3214 18ca 6628      	jne .L194
1345:/home/simulink/cFS_FreeRTOS_seL4/cfe/fsw/cfe-core/src/evs/cfe_evs_task.c ****    {
1346:/home/simulink/cFS_FreeRTOS_seL4/cfe/fsw/cfe-core/src/evs/cfe_evs_task.c ****       EVS_SendEvent(CFE_EVS_ERR_APPNOREGS_EID, CFE_EVS_ERROR,
 3215               	.loc 1 1346 0
 3216 18cc 4878 0007 	pea 7.w
 3217               	.cfi_def_cfa_offset 40
 3218 18d0 200F      	move.l %sp,%d0
 3219 18d2 5880      	addq.l #4,%d0
 3220 18d4 2F00      	move.l %d0,-(%sp)
 3221               	.cfi_def_cfa_offset 44
 3222 18d6 4879 0000 	pea .LC27
 3222      0000 
 3223               	.cfi_def_cfa_offset 48
 3224 18dc 4878 0003 	pea 3.w
 3225               	.cfi_def_cfa_offset 52
 3226 18e0 4878 0007 	pea 7.w
 3227               	.cfi_def_cfa_offset 56
 3228 18e4 4EB9 0000 	jsr EVS_SendEvent
 3228      0000 
 3229 18ea 4FEF 0014 	lea (20,%sp),%sp
 3230               	.cfi_def_cfa_offset 36
1347:/home/simulink/cFS_FreeRTOS_seL4/cfe/fsw/cfe-core/src/evs/cfe_evs_task.c ****                         "%s not registered with EVS: CC = %lu",
1348:/home/simulink/cFS_FreeRTOS_seL4/cfe/fsw/cfe-core/src/evs/cfe_evs_task.c ****                         LocalName, (long unsigned int)CFE_EVS_ENABLE_APP_EVENTS_CC);
1349:/home/simulink/cFS_FreeRTOS_seL4/cfe/fsw/cfe-core/src/evs/cfe_evs_task.c ****       Status = FALSE;
68K GAS   			page 92


 3231               	.loc 1 1349 0
 3232 18ee 42AF 001C 	clr.l 28(%sp)
 3233 18f2 6062      	jra .L193
 3234               	.L194:
1350:/home/simulink/cFS_FreeRTOS_seL4/cfe/fsw/cfe-core/src/evs/cfe_evs_task.c ****    }
1351:/home/simulink/cFS_FreeRTOS_seL4/cfe/fsw/cfe-core/src/evs/cfe_evs_task.c ****    else if(Status == CFE_EVS_APP_ILLEGAL_APP_ID)
 3235               	.loc 1 1351 0
 3236 18f4 203C C200 	move.l #-1040187389,%d0
 3236      0003 
 3237 18fa B0AF 001C 	cmp.l 28(%sp),%d0
 3238 18fe 6630      	jne .L195
1352:/home/simulink/cFS_FreeRTOS_seL4/cfe/fsw/cfe-core/src/evs/cfe_evs_task.c ****    {
1353:/home/simulink/cFS_FreeRTOS_seL4/cfe/fsw/cfe-core/src/evs/cfe_evs_task.c ****       EVS_SendEvent(CFE_EVS_ERR_ILLAPPIDRANGE_EID, CFE_EVS_ERROR,
 3239               	.loc 1 1353 0
 3240 1900 202F 0014 	move.l 20(%sp),%d0
 3241 1904 2200      	move.l %d0,%d1
 3242 1906 4878 0007 	pea 7.w
 3243               	.cfi_def_cfa_offset 40
 3244 190a 200F      	move.l %sp,%d0
 3245 190c 5880      	addq.l #4,%d0
 3246 190e 2F00      	move.l %d0,-(%sp)
 3247               	.cfi_def_cfa_offset 44
 3248 1910 2F01      	move.l %d1,-(%sp)
 3249               	.cfi_def_cfa_offset 48
 3250 1912 4879 0000 	pea .LC28
 3250      0000 
 3251               	.cfi_def_cfa_offset 52
 3252 1918 4878 0003 	pea 3.w
 3253               	.cfi_def_cfa_offset 56
 3254 191c 4878 0008 	pea 8.w
 3255               	.cfi_def_cfa_offset 60
 3256 1920 4EB9 0000 	jsr EVS_SendEvent
 3256      0000 
 3257 1926 4FEF 0018 	lea (24,%sp),%sp
 3258               	.cfi_def_cfa_offset 36
1354:/home/simulink/cFS_FreeRTOS_seL4/cfe/fsw/cfe-core/src/evs/cfe_evs_task.c ****                         "Illegal application ID %d retrieved for %s: CC = %lu",
1355:/home/simulink/cFS_FreeRTOS_seL4/cfe/fsw/cfe-core/src/evs/cfe_evs_task.c ****                         (int)AppID, LocalName, (long unsigned int)CFE_EVS_ENABLE_APP_EVENTS_CC);
1356:/home/simulink/cFS_FreeRTOS_seL4/cfe/fsw/cfe-core/src/evs/cfe_evs_task.c ****       Status = FALSE;
 3259               	.loc 1 1356 0
 3260 192a 42AF 001C 	clr.l 28(%sp)
 3261 192e 6026      	jra .L193
 3262               	.L195:
1357:/home/simulink/cFS_FreeRTOS_seL4/cfe/fsw/cfe-core/src/evs/cfe_evs_task.c ****    }
1358:/home/simulink/cFS_FreeRTOS_seL4/cfe/fsw/cfe-core/src/evs/cfe_evs_task.c ****    else
1359:/home/simulink/cFS_FreeRTOS_seL4/cfe/fsw/cfe-core/src/evs/cfe_evs_task.c ****    {
1360:/home/simulink/cFS_FreeRTOS_seL4/cfe/fsw/cfe-core/src/evs/cfe_evs_task.c ****       EVS_SendEvent(CFE_EVS_ERR_NOAPPIDFOUND_EID, CFE_EVS_ERROR,
 3263               	.loc 1 1360 0
 3264 1930 4878 0007 	pea 7.w
 3265               	.cfi_def_cfa_offset 40
 3266 1934 200F      	move.l %sp,%d0
 3267 1936 5880      	addq.l #4,%d0
 3268 1938 2F00      	move.l %d0,-(%sp)
 3269               	.cfi_def_cfa_offset 44
 3270 193a 4879 0000 	pea .LC29
 3270      0000 
 3271               	.cfi_def_cfa_offset 48
 3272 1940 4878 0003 	pea 3.w
68K GAS   			page 93


 3273               	.cfi_def_cfa_offset 52
 3274 1944 4878 0009 	pea 9.w
 3275               	.cfi_def_cfa_offset 56
 3276 1948 4EB9 0000 	jsr EVS_SendEvent
 3276      0000 
 3277 194e 4FEF 0014 	lea (20,%sp),%sp
 3278               	.cfi_def_cfa_offset 36
1361:/home/simulink/cFS_FreeRTOS_seL4/cfe/fsw/cfe-core/src/evs/cfe_evs_task.c ****                         "Unable to retrieve application ID for %s: CC = %lu",
1362:/home/simulink/cFS_FreeRTOS_seL4/cfe/fsw/cfe-core/src/evs/cfe_evs_task.c ****                         LocalName, (long unsigned int)CFE_EVS_ENABLE_APP_EVENTS_CC);
1363:/home/simulink/cFS_FreeRTOS_seL4/cfe/fsw/cfe-core/src/evs/cfe_evs_task.c ****       Status = FALSE;
 3279               	.loc 1 1363 0
 3280 1952 42AF 001C 	clr.l 28(%sp)
 3281               	.L193:
1364:/home/simulink/cFS_FreeRTOS_seL4/cfe/fsw/cfe-core/src/evs/cfe_evs_task.c ****    }
1365:/home/simulink/cFS_FreeRTOS_seL4/cfe/fsw/cfe-core/src/evs/cfe_evs_task.c **** 
1366:/home/simulink/cFS_FreeRTOS_seL4/cfe/fsw/cfe-core/src/evs/cfe_evs_task.c ****    return (boolean)Status;
 3282               	.loc 1 1366 0
 3283 1956 202F 001C 	move.l 28(%sp),%d0
 3284 195a 1000      	move.b %d0,%d0
1367:/home/simulink/cFS_FreeRTOS_seL4/cfe/fsw/cfe-core/src/evs/cfe_evs_task.c **** 
1368:/home/simulink/cFS_FreeRTOS_seL4/cfe/fsw/cfe-core/src/evs/cfe_evs_task.c **** } /* End EVS_EnableAppEventsCmd */
 3285               	.loc 1 1368 0
 3286 195c 4FEF 0020 	lea (32,%sp),%sp
 3287 1960 4E75      	rts
 3288               	.cfi_endproc
 3289               	.LFE76:
 3290               	.sizeCFE_EVS_EnableAppEventsCmd, .-CFE_EVS_EnableAppEventsCmd
 3291               	.section.rodata
 3292               	.LC41:
 3293 0810 4469 7361 	.string"Disable App Events Command Received with AppName = %s"
 3293      626C 6520 
 3293      4170 7020 
 3293      4576 656E 
 3293      7473 2043 
 3294               	.LC42:
 3295 0846 4469 7361 	.string"Disable App Events Command: Unable to retrieve application ID for %s: CC = %lu"
 3295      626C 6520 
 3295      4170 7020 
 3295      4576 656E 
 3295      7473 2043 
 3296               	.text
 3297               	.align2
 3298               	.globlCFE_EVS_DisableAppEventsCmd
 3299               	.typeCFE_EVS_DisableAppEventsCmd, @function
 3300               	CFE_EVS_DisableAppEventsCmd:
 3301               	.LFB77:
1369:/home/simulink/cFS_FreeRTOS_seL4/cfe/fsw/cfe-core/src/evs/cfe_evs_task.c **** 
1370:/home/simulink/cFS_FreeRTOS_seL4/cfe/fsw/cfe-core/src/evs/cfe_evs_task.c **** 
1371:/home/simulink/cFS_FreeRTOS_seL4/cfe/fsw/cfe-core/src/evs/cfe_evs_task.c **** /*
1372:/home/simulink/cFS_FreeRTOS_seL4/cfe/fsw/cfe-core/src/evs/cfe_evs_task.c **** **             Function Prologue
1373:/home/simulink/cFS_FreeRTOS_seL4/cfe/fsw/cfe-core/src/evs/cfe_evs_task.c **** **
1374:/home/simulink/cFS_FreeRTOS_seL4/cfe/fsw/cfe-core/src/evs/cfe_evs_task.c **** ** Function Name:      CFE_EVS_DisableAppEventsCmd
1375:/home/simulink/cFS_FreeRTOS_seL4/cfe/fsw/cfe-core/src/evs/cfe_evs_task.c **** **
1376:/home/simulink/cFS_FreeRTOS_seL4/cfe/fsw/cfe-core/src/evs/cfe_evs_task.c **** ** Purpose:  This routine disables application events for the given application identifier
1377:/home/simulink/cFS_FreeRTOS_seL4/cfe/fsw/cfe-core/src/evs/cfe_evs_task.c **** **
1378:/home/simulink/cFS_FreeRTOS_seL4/cfe/fsw/cfe-core/src/evs/cfe_evs_task.c **** ** Assumptions and Notes:
1379:/home/simulink/cFS_FreeRTOS_seL4/cfe/fsw/cfe-core/src/evs/cfe_evs_task.c **** **
68K GAS   			page 94


1380:/home/simulink/cFS_FreeRTOS_seL4/cfe/fsw/cfe-core/src/evs/cfe_evs_task.c **** */
1381:/home/simulink/cFS_FreeRTOS_seL4/cfe/fsw/cfe-core/src/evs/cfe_evs_task.c **** boolean CFE_EVS_DisableAppEventsCmd (const CFE_SB_MsgPayloadPtr_t Payload)
1382:/home/simulink/cFS_FreeRTOS_seL4/cfe/fsw/cfe-core/src/evs/cfe_evs_task.c **** {
 3302               	.loc 1 1382 0
 3303               	.cfi_startproc
 3304 1962 4FEF FFE0 	lea (-32,%sp),%sp
 3305               	.cfi_def_cfa_offset 36
1383:/home/simulink/cFS_FreeRTOS_seL4/cfe/fsw/cfe-core/src/evs/cfe_evs_task.c ****    uint32 AppID  = CFE_EVS_UNDEF_APPID;
 3306               	.loc 1 1383 0
 3307 1966 70FF      	moveq #-1,%d0
 3308 1968 2F40 0014 	move.l %d0,20(%sp)
1384:/home/simulink/cFS_FreeRTOS_seL4/cfe/fsw/cfe-core/src/evs/cfe_evs_task.c ****    const CFE_EVS_AppNameCmd_Payload_t *CmdPtr = (const CFE_EVS_AppNameCmd_Payload_t *)Payload;
 3309               	.loc 1 1384 0
 3310 196c 2F6F 0024 	move.l 36(%sp),24(%sp)
 3310      0018 
1385:/home/simulink/cFS_FreeRTOS_seL4/cfe/fsw/cfe-core/src/evs/cfe_evs_task.c ****    int32  Status = TRUE;
 3311               	.loc 1 1385 0
 3312 1972 7201      	moveq #1,%d1
 3313 1974 2F41 001C 	move.l %d1,28(%sp)
1386:/home/simulink/cFS_FreeRTOS_seL4/cfe/fsw/cfe-core/src/evs/cfe_evs_task.c ****    char                LocalName[OS_MAX_API_NAME];
1387:/home/simulink/cFS_FreeRTOS_seL4/cfe/fsw/cfe-core/src/evs/cfe_evs_task.c **** 
1388:/home/simulink/cFS_FreeRTOS_seL4/cfe/fsw/cfe-core/src/evs/cfe_evs_task.c ****    /*
1389:/home/simulink/cFS_FreeRTOS_seL4/cfe/fsw/cfe-core/src/evs/cfe_evs_task.c ****     * Althgouh EVS_GetApplicationInfo() does not require a null terminated argument,
1390:/home/simulink/cFS_FreeRTOS_seL4/cfe/fsw/cfe-core/src/evs/cfe_evs_task.c ****     * the value is passed to EVS_SendEvent which does require termination (normal C string)
1391:/home/simulink/cFS_FreeRTOS_seL4/cfe/fsw/cfe-core/src/evs/cfe_evs_task.c ****     */
1392:/home/simulink/cFS_FreeRTOS_seL4/cfe/fsw/cfe-core/src/evs/cfe_evs_task.c ****    CFE_SB_MessageStringGet(LocalName, (char *)CmdPtr->AppName, NULL, OS_MAX_API_NAME, sizeof(CmdPtr
 3314               	.loc 1 1392 0
 3315 1978 202F 0018 	move.l 24(%sp),%d0
 3316 197c 4878 0014 	pea 20.w
 3317               	.cfi_def_cfa_offset 40
 3318 1980 4878 0014 	pea 20.w
 3319               	.cfi_def_cfa_offset 44
 3320 1984 42A7      	clr.l -(%sp)
 3321               	.cfi_def_cfa_offset 48
 3322 1986 2F00      	move.l %d0,-(%sp)
 3323               	.cfi_def_cfa_offset 52
 3324 1988 200F      	move.l %sp,%d0
 3325 198a 0680 0000 	add.l #16,%d0
 3325      0010 
 3326 1990 2F00      	move.l %d0,-(%sp)
 3327               	.cfi_def_cfa_offset 56
 3328 1992 4EB9 0000 	jsr CFE_SB_MessageStringGet
 3328      0000 
 3329 1998 4FEF 0014 	lea (20,%sp),%sp
 3330               	.cfi_def_cfa_offset 36
1393:/home/simulink/cFS_FreeRTOS_seL4/cfe/fsw/cfe-core/src/evs/cfe_evs_task.c **** 
1394:/home/simulink/cFS_FreeRTOS_seL4/cfe/fsw/cfe-core/src/evs/cfe_evs_task.c ****    /* Retreive application data */
1395:/home/simulink/cFS_FreeRTOS_seL4/cfe/fsw/cfe-core/src/evs/cfe_evs_task.c ****    Status = EVS_GetApplicationInfo(&AppID, LocalName);
 3331               	.loc 1 1395 0
 3332 199c 200F      	move.l %sp,%d0
 3333 199e 2F00      	move.l %d0,-(%sp)
 3334               	.cfi_def_cfa_offset 40
 3335 19a0 200F      	move.l %sp,%d0
 3336 19a2 0680 0000 	add.l #24,%d0
 3336      0018 
 3337 19a8 2F00      	move.l %d0,-(%sp)
 3338               	.cfi_def_cfa_offset 44
68K GAS   			page 95


 3339 19aa 4EB9 0000 	jsr EVS_GetApplicationInfo
 3339      0000 
 3340 19b0 508F      	addq.l #8,%sp
 3341               	.cfi_def_cfa_offset 36
 3342 19b2 2F40 001C 	move.l %d0,28(%sp)
1396:/home/simulink/cFS_FreeRTOS_seL4/cfe/fsw/cfe-core/src/evs/cfe_evs_task.c **** 
1397:/home/simulink/cFS_FreeRTOS_seL4/cfe/fsw/cfe-core/src/evs/cfe_evs_task.c ****    if(Status == CFE_SUCCESS)
 3343               	.loc 1 1397 0
 3344 19b6 4AAF 001C 	tst.l 28(%sp)
 3345 19ba 663C      	jne .L198
1398:/home/simulink/cFS_FreeRTOS_seL4/cfe/fsw/cfe-core/src/evs/cfe_evs_task.c ****    {
1399:/home/simulink/cFS_FreeRTOS_seL4/cfe/fsw/cfe-core/src/evs/cfe_evs_task.c ****         CFE_EVS_GlobalData.AppData[AppID].ActiveFlag = FALSE;
 3346               	.loc 1 1399 0
 3347 19bc 202F 0014 	move.l 20(%sp),%d0
 3348 19c0 7246      	moveq #70,%d1
 3349 19c2 4C01 0800 	muls.l %d1,%d0
 3350 19c6 41F9 0000 	lea CFE_EVS_GlobalData+64,%a0
 3350      0000 
 3351 19cc 4201      	clr.b %d1
 3352 19ce 1181 0800 	move.b %d1,(%a0,%d0.l)
1400:/home/simulink/cFS_FreeRTOS_seL4/cfe/fsw/cfe-core/src/evs/cfe_evs_task.c **** 
1401:/home/simulink/cFS_FreeRTOS_seL4/cfe/fsw/cfe-core/src/evs/cfe_evs_task.c ****         EVS_SendEvent(CFE_EVS_DISAPPEVT_EID, CFE_EVS_DEBUG,
 3353               	.loc 1 1401 0
 3354 19d2 200F      	move.l %sp,%d0
 3355 19d4 2F00      	move.l %d0,-(%sp)
 3356               	.cfi_def_cfa_offset 40
 3357 19d6 4879 0000 	pea .LC41
 3357      0000 
 3358               	.cfi_def_cfa_offset 44
 3359 19dc 4878 0001 	pea 1.w
 3360               	.cfi_def_cfa_offset 48
 3361 19e0 4878 001A 	pea 26.w
 3362               	.cfi_def_cfa_offset 52
 3363 19e4 4EB9 0000 	jsr EVS_SendEvent
 3363      0000 
 3364 19ea 4FEF 0010 	lea (16,%sp),%sp
 3365               	.cfi_def_cfa_offset 36
1402:/home/simulink/cFS_FreeRTOS_seL4/cfe/fsw/cfe-core/src/evs/cfe_evs_task.c ****                           "Disable App Events Command Received with AppName = %s",
1403:/home/simulink/cFS_FreeRTOS_seL4/cfe/fsw/cfe-core/src/evs/cfe_evs_task.c ****                           LocalName);
1404:/home/simulink/cFS_FreeRTOS_seL4/cfe/fsw/cfe-core/src/evs/cfe_evs_task.c **** 
1405:/home/simulink/cFS_FreeRTOS_seL4/cfe/fsw/cfe-core/src/evs/cfe_evs_task.c ****         Status = TRUE;
 3366               	.loc 1 1405 0
 3367 19ee 7001      	moveq #1,%d0
 3368 19f0 2F40 001C 	move.l %d0,28(%sp)
 3369 19f4 6000 0098 	jra .L199
 3370               	.L198:
1406:/home/simulink/cFS_FreeRTOS_seL4/cfe/fsw/cfe-core/src/evs/cfe_evs_task.c ****    }
1407:/home/simulink/cFS_FreeRTOS_seL4/cfe/fsw/cfe-core/src/evs/cfe_evs_task.c ****    else if(Status == CFE_EVS_APP_NOT_REGISTERED)
 3371               	.loc 1 1407 0
 3372 19f8 223C C200 	move.l #-1040187390,%d1
 3372      0002 
 3373 19fe B2AF 001C 	cmp.l 28(%sp),%d1
 3374 1a02 6628      	jne .L200
1408:/home/simulink/cFS_FreeRTOS_seL4/cfe/fsw/cfe-core/src/evs/cfe_evs_task.c ****    {
1409:/home/simulink/cFS_FreeRTOS_seL4/cfe/fsw/cfe-core/src/evs/cfe_evs_task.c ****       EVS_SendEvent(CFE_EVS_ERR_APPNOREGS_EID, CFE_EVS_ERROR,
 3375               	.loc 1 1409 0
 3376 1a04 4878 0008 	pea 8.w
68K GAS   			page 96


 3377               	.cfi_def_cfa_offset 40
 3378 1a08 200F      	move.l %sp,%d0
 3379 1a0a 5880      	addq.l #4,%d0
 3380 1a0c 2F00      	move.l %d0,-(%sp)
 3381               	.cfi_def_cfa_offset 44
 3382 1a0e 4879 0000 	pea .LC27
 3382      0000 
 3383               	.cfi_def_cfa_offset 48
 3384 1a14 4878 0003 	pea 3.w
 3385               	.cfi_def_cfa_offset 52
 3386 1a18 4878 0007 	pea 7.w
 3387               	.cfi_def_cfa_offset 56
 3388 1a1c 4EB9 0000 	jsr EVS_SendEvent
 3388      0000 
 3389 1a22 4FEF 0014 	lea (20,%sp),%sp
 3390               	.cfi_def_cfa_offset 36
1410:/home/simulink/cFS_FreeRTOS_seL4/cfe/fsw/cfe-core/src/evs/cfe_evs_task.c ****                         "%s not registered with EVS: CC = %lu",
1411:/home/simulink/cFS_FreeRTOS_seL4/cfe/fsw/cfe-core/src/evs/cfe_evs_task.c ****                         LocalName,(long unsigned int)CFE_EVS_DISABLE_APP_EVENTS_CC);
1412:/home/simulink/cFS_FreeRTOS_seL4/cfe/fsw/cfe-core/src/evs/cfe_evs_task.c ****       Status = FALSE;
 3391               	.loc 1 1412 0
 3392 1a26 42AF 001C 	clr.l 28(%sp)
 3393 1a2a 6062      	jra .L199
 3394               	.L200:
1413:/home/simulink/cFS_FreeRTOS_seL4/cfe/fsw/cfe-core/src/evs/cfe_evs_task.c ****    }
1414:/home/simulink/cFS_FreeRTOS_seL4/cfe/fsw/cfe-core/src/evs/cfe_evs_task.c ****    else if(Status == CFE_EVS_APP_ILLEGAL_APP_ID)
 3395               	.loc 1 1414 0
 3396 1a2c 203C C200 	move.l #-1040187389,%d0
 3396      0003 
 3397 1a32 B0AF 001C 	cmp.l 28(%sp),%d0
 3398 1a36 6630      	jne .L201
1415:/home/simulink/cFS_FreeRTOS_seL4/cfe/fsw/cfe-core/src/evs/cfe_evs_task.c ****    {
1416:/home/simulink/cFS_FreeRTOS_seL4/cfe/fsw/cfe-core/src/evs/cfe_evs_task.c ****       EVS_SendEvent(CFE_EVS_ERR_ILLAPPIDRANGE_EID, CFE_EVS_ERROR,
 3399               	.loc 1 1416 0
 3400 1a38 202F 0014 	move.l 20(%sp),%d0
 3401 1a3c 2200      	move.l %d0,%d1
 3402 1a3e 4878 0008 	pea 8.w
 3403               	.cfi_def_cfa_offset 40
 3404 1a42 200F      	move.l %sp,%d0
 3405 1a44 5880      	addq.l #4,%d0
 3406 1a46 2F00      	move.l %d0,-(%sp)
 3407               	.cfi_def_cfa_offset 44
 3408 1a48 2F01      	move.l %d1,-(%sp)
 3409               	.cfi_def_cfa_offset 48
 3410 1a4a 4879 0000 	pea .LC28
 3410      0000 
 3411               	.cfi_def_cfa_offset 52
 3412 1a50 4878 0003 	pea 3.w
 3413               	.cfi_def_cfa_offset 56
 3414 1a54 4878 0008 	pea 8.w
 3415               	.cfi_def_cfa_offset 60
 3416 1a58 4EB9 0000 	jsr EVS_SendEvent
 3416      0000 
 3417 1a5e 4FEF 0018 	lea (24,%sp),%sp
 3418               	.cfi_def_cfa_offset 36
1417:/home/simulink/cFS_FreeRTOS_seL4/cfe/fsw/cfe-core/src/evs/cfe_evs_task.c ****                         "Illegal application ID %d retrieved for %s: CC = %lu",
1418:/home/simulink/cFS_FreeRTOS_seL4/cfe/fsw/cfe-core/src/evs/cfe_evs_task.c ****                         (int)AppID, LocalName,(long unsigned int)CFE_EVS_DISABLE_APP_EVENTS_CC);
1419:/home/simulink/cFS_FreeRTOS_seL4/cfe/fsw/cfe-core/src/evs/cfe_evs_task.c ****       Status = FALSE;
68K GAS   			page 97


 3419               	.loc 1 1419 0
 3420 1a62 42AF 001C 	clr.l 28(%sp)
 3421 1a66 6026      	jra .L199
 3422               	.L201:
1420:/home/simulink/cFS_FreeRTOS_seL4/cfe/fsw/cfe-core/src/evs/cfe_evs_task.c ****    }
1421:/home/simulink/cFS_FreeRTOS_seL4/cfe/fsw/cfe-core/src/evs/cfe_evs_task.c ****    else
1422:/home/simulink/cFS_FreeRTOS_seL4/cfe/fsw/cfe-core/src/evs/cfe_evs_task.c ****    {
1423:/home/simulink/cFS_FreeRTOS_seL4/cfe/fsw/cfe-core/src/evs/cfe_evs_task.c ****       EVS_SendEvent(CFE_EVS_ERR_NOAPPIDFOUND_EID, CFE_EVS_ERROR,
 3423               	.loc 1 1423 0
 3424 1a68 4878 0008 	pea 8.w
 3425               	.cfi_def_cfa_offset 40
 3426 1a6c 200F      	move.l %sp,%d0
 3427 1a6e 5880      	addq.l #4,%d0
 3428 1a70 2F00      	move.l %d0,-(%sp)
 3429               	.cfi_def_cfa_offset 44
 3430 1a72 4879 0000 	pea .LC42
 3430      0000 
 3431               	.cfi_def_cfa_offset 48
 3432 1a78 4878 0003 	pea 3.w
 3433               	.cfi_def_cfa_offset 52
 3434 1a7c 4878 0009 	pea 9.w
 3435               	.cfi_def_cfa_offset 56
 3436 1a80 4EB9 0000 	jsr EVS_SendEvent
 3436      0000 
 3437 1a86 4FEF 0014 	lea (20,%sp),%sp
 3438               	.cfi_def_cfa_offset 36
1424:/home/simulink/cFS_FreeRTOS_seL4/cfe/fsw/cfe-core/src/evs/cfe_evs_task.c ****                         "Disable App Events Command: Unable to retrieve application ID for %s: CC =
1425:/home/simulink/cFS_FreeRTOS_seL4/cfe/fsw/cfe-core/src/evs/cfe_evs_task.c ****                         LocalName, (long unsigned int)CFE_EVS_DISABLE_APP_EVENTS_CC);
1426:/home/simulink/cFS_FreeRTOS_seL4/cfe/fsw/cfe-core/src/evs/cfe_evs_task.c ****       Status = FALSE;
 3439               	.loc 1 1426 0
 3440 1a8a 42AF 001C 	clr.l 28(%sp)
 3441               	.L199:
1427:/home/simulink/cFS_FreeRTOS_seL4/cfe/fsw/cfe-core/src/evs/cfe_evs_task.c ****    }
1428:/home/simulink/cFS_FreeRTOS_seL4/cfe/fsw/cfe-core/src/evs/cfe_evs_task.c **** 
1429:/home/simulink/cFS_FreeRTOS_seL4/cfe/fsw/cfe-core/src/evs/cfe_evs_task.c ****    return (boolean)Status;
 3442               	.loc 1 1429 0
 3443 1a8e 202F 001C 	move.l 28(%sp),%d0
 3444 1a92 1000      	move.b %d0,%d0
1430:/home/simulink/cFS_FreeRTOS_seL4/cfe/fsw/cfe-core/src/evs/cfe_evs_task.c **** 
1431:/home/simulink/cFS_FreeRTOS_seL4/cfe/fsw/cfe-core/src/evs/cfe_evs_task.c **** } /* End CFE_EVS_DisableAppEventsCmd */
 3445               	.loc 1 1431 0
 3446 1a94 4FEF 0020 	lea (32,%sp),%sp
 3447 1a98 4E75      	rts
 3448               	.cfi_endproc
 3449               	.LFE77:
 3450               	.sizeCFE_EVS_DisableAppEventsCmd, .-CFE_EVS_DisableAppEventsCmd
 3451               	.section.rodata
 3452               	.LC43:
 3453 0895 5265 7365 	.string"Reset Event Counter Command Received with AppName = %s"
 3453      7420 4576 
 3453      656E 7420 
 3453      436F 756E 
 3453      7465 7220 
 3454               	.LC44:
 3455 08cc 5265 7365 	.string"Reset Event Counter Command: Unable to retrieve application ID for %s: CC = %lu"
 3455      7420 4576 
 3455      656E 7420 
68K GAS   			page 98


 3455      436F 756E 
 3455      7465 7220 
 3456               	.text
 3457               	.align2
 3458               	.globlCFE_EVS_ResetAppEventCounterCmd
 3459               	.typeCFE_EVS_ResetAppEventCounterCmd, @function
 3460               	CFE_EVS_ResetAppEventCounterCmd:
 3461               	.LFB78:
1432:/home/simulink/cFS_FreeRTOS_seL4/cfe/fsw/cfe-core/src/evs/cfe_evs_task.c **** 
1433:/home/simulink/cFS_FreeRTOS_seL4/cfe/fsw/cfe-core/src/evs/cfe_evs_task.c **** 
1434:/home/simulink/cFS_FreeRTOS_seL4/cfe/fsw/cfe-core/src/evs/cfe_evs_task.c **** /*
1435:/home/simulink/cFS_FreeRTOS_seL4/cfe/fsw/cfe-core/src/evs/cfe_evs_task.c **** **             Function Prologue
1436:/home/simulink/cFS_FreeRTOS_seL4/cfe/fsw/cfe-core/src/evs/cfe_evs_task.c **** **
1437:/home/simulink/cFS_FreeRTOS_seL4/cfe/fsw/cfe-core/src/evs/cfe_evs_task.c **** ** Function Name:      CFE_EVS_ResetAppEventCounterCmd
1438:/home/simulink/cFS_FreeRTOS_seL4/cfe/fsw/cfe-core/src/evs/cfe_evs_task.c **** **
1439:/home/simulink/cFS_FreeRTOS_seL4/cfe/fsw/cfe-core/src/evs/cfe_evs_task.c **** ** Purpose:  This routine sets the application event counter to zero for the given
1440:/home/simulink/cFS_FreeRTOS_seL4/cfe/fsw/cfe-core/src/evs/cfe_evs_task.c **** **           application identifier
1441:/home/simulink/cFS_FreeRTOS_seL4/cfe/fsw/cfe-core/src/evs/cfe_evs_task.c **** **
1442:/home/simulink/cFS_FreeRTOS_seL4/cfe/fsw/cfe-core/src/evs/cfe_evs_task.c **** ** Assumptions and Notes:
1443:/home/simulink/cFS_FreeRTOS_seL4/cfe/fsw/cfe-core/src/evs/cfe_evs_task.c **** **
1444:/home/simulink/cFS_FreeRTOS_seL4/cfe/fsw/cfe-core/src/evs/cfe_evs_task.c **** */
1445:/home/simulink/cFS_FreeRTOS_seL4/cfe/fsw/cfe-core/src/evs/cfe_evs_task.c **** boolean CFE_EVS_ResetAppEventCounterCmd (const CFE_SB_MsgPayloadPtr_t Payload)
1446:/home/simulink/cFS_FreeRTOS_seL4/cfe/fsw/cfe-core/src/evs/cfe_evs_task.c **** {
 3462               	.loc 1 1446 0
 3463               	.cfi_startproc
 3464 1a9a 4FEF FFE0 	lea (-32,%sp),%sp
 3465               	.cfi_def_cfa_offset 36
1447:/home/simulink/cFS_FreeRTOS_seL4/cfe/fsw/cfe-core/src/evs/cfe_evs_task.c ****    uint32 AppID  = CFE_EVS_UNDEF_APPID;
 3466               	.loc 1 1447 0
 3467 1a9e 70FF      	moveq #-1,%d0
 3468 1aa0 2F40 0014 	move.l %d0,20(%sp)
1448:/home/simulink/cFS_FreeRTOS_seL4/cfe/fsw/cfe-core/src/evs/cfe_evs_task.c ****    const CFE_EVS_AppNameCmd_Payload_t *CmdPtr = (const CFE_EVS_AppNameCmd_Payload_t *) Payload;
 3469               	.loc 1 1448 0
 3470 1aa4 2F6F 0024 	move.l 36(%sp),24(%sp)
 3470      0018 
1449:/home/simulink/cFS_FreeRTOS_seL4/cfe/fsw/cfe-core/src/evs/cfe_evs_task.c ****    int32  Status;
1450:/home/simulink/cFS_FreeRTOS_seL4/cfe/fsw/cfe-core/src/evs/cfe_evs_task.c ****    char   LocalName[OS_MAX_API_NAME];
1451:/home/simulink/cFS_FreeRTOS_seL4/cfe/fsw/cfe-core/src/evs/cfe_evs_task.c **** 
1452:/home/simulink/cFS_FreeRTOS_seL4/cfe/fsw/cfe-core/src/evs/cfe_evs_task.c ****    /*
1453:/home/simulink/cFS_FreeRTOS_seL4/cfe/fsw/cfe-core/src/evs/cfe_evs_task.c ****     * Althgouh EVS_GetApplicationInfo() does not require a null terminated argument,
1454:/home/simulink/cFS_FreeRTOS_seL4/cfe/fsw/cfe-core/src/evs/cfe_evs_task.c ****     * the value is passed to EVS_SendEvent which does require termination (normal C string)
1455:/home/simulink/cFS_FreeRTOS_seL4/cfe/fsw/cfe-core/src/evs/cfe_evs_task.c ****     */
1456:/home/simulink/cFS_FreeRTOS_seL4/cfe/fsw/cfe-core/src/evs/cfe_evs_task.c ****    CFE_SB_MessageStringGet(LocalName, (char *)CmdPtr->AppName, NULL, OS_MAX_API_NAME, sizeof(CmdPtr
 3471               	.loc 1 1456 0
 3472 1aaa 202F 0018 	move.l 24(%sp),%d0
 3473 1aae 4878 0014 	pea 20.w
 3474               	.cfi_def_cfa_offset 40
 3475 1ab2 4878 0014 	pea 20.w
 3476               	.cfi_def_cfa_offset 44
 3477 1ab6 42A7      	clr.l -(%sp)
 3478               	.cfi_def_cfa_offset 48
 3479 1ab8 2F00      	move.l %d0,-(%sp)
 3480               	.cfi_def_cfa_offset 52
 3481 1aba 200F      	move.l %sp,%d0
 3482 1abc 0680 0000 	add.l #16,%d0
 3482      0010 
 3483 1ac2 2F00      	move.l %d0,-(%sp)
68K GAS   			page 99


 3484               	.cfi_def_cfa_offset 56
 3485 1ac4 4EB9 0000 	jsr CFE_SB_MessageStringGet
 3485      0000 
 3486 1aca 4FEF 0014 	lea (20,%sp),%sp
 3487               	.cfi_def_cfa_offset 36
1457:/home/simulink/cFS_FreeRTOS_seL4/cfe/fsw/cfe-core/src/evs/cfe_evs_task.c **** 
1458:/home/simulink/cFS_FreeRTOS_seL4/cfe/fsw/cfe-core/src/evs/cfe_evs_task.c ****    /* Retreive application data */
1459:/home/simulink/cFS_FreeRTOS_seL4/cfe/fsw/cfe-core/src/evs/cfe_evs_task.c ****    Status = EVS_GetApplicationInfo(&AppID, LocalName);
 3488               	.loc 1 1459 0
 3489 1ace 200F      	move.l %sp,%d0
 3490 1ad0 2F00      	move.l %d0,-(%sp)
 3491               	.cfi_def_cfa_offset 40
 3492 1ad2 200F      	move.l %sp,%d0
 3493 1ad4 0680 0000 	add.l #24,%d0
 3493      0018 
 3494 1ada 2F00      	move.l %d0,-(%sp)
 3495               	.cfi_def_cfa_offset 44
 3496 1adc 4EB9 0000 	jsr EVS_GetApplicationInfo
 3496      0000 
 3497 1ae2 508F      	addq.l #8,%sp
 3498               	.cfi_def_cfa_offset 36
 3499 1ae4 2F40 001C 	move.l %d0,28(%sp)
1460:/home/simulink/cFS_FreeRTOS_seL4/cfe/fsw/cfe-core/src/evs/cfe_evs_task.c **** 
1461:/home/simulink/cFS_FreeRTOS_seL4/cfe/fsw/cfe-core/src/evs/cfe_evs_task.c ****    if(Status == CFE_SUCCESS)
 3500               	.loc 1 1461 0
 3501 1ae8 4AAF 001C 	tst.l 28(%sp)
 3502 1aec 663C      	jne .L204
1462:/home/simulink/cFS_FreeRTOS_seL4/cfe/fsw/cfe-core/src/evs/cfe_evs_task.c ****    {
1463:/home/simulink/cFS_FreeRTOS_seL4/cfe/fsw/cfe-core/src/evs/cfe_evs_task.c ****         CFE_EVS_GlobalData.AppData[AppID].EventCount = 0;
 3503               	.loc 1 1463 0
 3504 1aee 202F 0014 	move.l 20(%sp),%d0
 3505 1af2 7246      	moveq #70,%d1
 3506 1af4 4C01 0800 	muls.l %d1,%d0
 3507 1af8 41F9 0000 	lea CFE_EVS_GlobalData+66,%a0
 3507      0000 
 3508 1afe 4241      	clr.w %d1
 3509 1b00 3181 0800 	move.w %d1,(%a0,%d0.l)
1464:/home/simulink/cFS_FreeRTOS_seL4/cfe/fsw/cfe-core/src/evs/cfe_evs_task.c **** 
1465:/home/simulink/cFS_FreeRTOS_seL4/cfe/fsw/cfe-core/src/evs/cfe_evs_task.c ****         EVS_SendEvent(CFE_EVS_RSTEVTCNT_EID, CFE_EVS_DEBUG,
 3510               	.loc 1 1465 0
 3511 1b04 200F      	move.l %sp,%d0
 3512 1b06 2F00      	move.l %d0,-(%sp)
 3513               	.cfi_def_cfa_offset 40
 3514 1b08 4879 0000 	pea .LC43
 3514      0000 
 3515               	.cfi_def_cfa_offset 44
 3516 1b0e 4878 0001 	pea 1.w
 3517               	.cfi_def_cfa_offset 48
 3518 1b12 4878 001B 	pea 27.w
 3519               	.cfi_def_cfa_offset 52
 3520 1b16 4EB9 0000 	jsr EVS_SendEvent
 3520      0000 
 3521 1b1c 4FEF 0010 	lea (16,%sp),%sp
 3522               	.cfi_def_cfa_offset 36
1466:/home/simulink/cFS_FreeRTOS_seL4/cfe/fsw/cfe-core/src/evs/cfe_evs_task.c ****                           "Reset Event Counter Command Received with AppName = %s",
1467:/home/simulink/cFS_FreeRTOS_seL4/cfe/fsw/cfe-core/src/evs/cfe_evs_task.c ****                           LocalName);
1468:/home/simulink/cFS_FreeRTOS_seL4/cfe/fsw/cfe-core/src/evs/cfe_evs_task.c **** 
68K GAS   			page 100


1469:/home/simulink/cFS_FreeRTOS_seL4/cfe/fsw/cfe-core/src/evs/cfe_evs_task.c ****         Status = TRUE;
 3523               	.loc 1 1469 0
 3524 1b20 7001      	moveq #1,%d0
 3525 1b22 2F40 001C 	move.l %d0,28(%sp)
 3526 1b26 6000 0098 	jra .L205
 3527               	.L204:
1470:/home/simulink/cFS_FreeRTOS_seL4/cfe/fsw/cfe-core/src/evs/cfe_evs_task.c ****    }
1471:/home/simulink/cFS_FreeRTOS_seL4/cfe/fsw/cfe-core/src/evs/cfe_evs_task.c ****    else if(Status == CFE_EVS_APP_NOT_REGISTERED)
 3528               	.loc 1 1471 0
 3529 1b2a 223C C200 	move.l #-1040187390,%d1
 3529      0002 
 3530 1b30 B2AF 001C 	cmp.l 28(%sp),%d1
 3531 1b34 6628      	jne .L206
1472:/home/simulink/cFS_FreeRTOS_seL4/cfe/fsw/cfe-core/src/evs/cfe_evs_task.c ****    {
1473:/home/simulink/cFS_FreeRTOS_seL4/cfe/fsw/cfe-core/src/evs/cfe_evs_task.c ****       EVS_SendEvent(CFE_EVS_ERR_APPNOREGS_EID, CFE_EVS_ERROR,
 3532               	.loc 1 1473 0
 3533 1b36 4878 0009 	pea 9.w
 3534               	.cfi_def_cfa_offset 40
 3535 1b3a 200F      	move.l %sp,%d0
 3536 1b3c 5880      	addq.l #4,%d0
 3537 1b3e 2F00      	move.l %d0,-(%sp)
 3538               	.cfi_def_cfa_offset 44
 3539 1b40 4879 0000 	pea .LC27
 3539      0000 
 3540               	.cfi_def_cfa_offset 48
 3541 1b46 4878 0003 	pea 3.w
 3542               	.cfi_def_cfa_offset 52
 3543 1b4a 4878 0007 	pea 7.w
 3544               	.cfi_def_cfa_offset 56
 3545 1b4e 4EB9 0000 	jsr EVS_SendEvent
 3545      0000 
 3546 1b54 4FEF 0014 	lea (20,%sp),%sp
 3547               	.cfi_def_cfa_offset 36
1474:/home/simulink/cFS_FreeRTOS_seL4/cfe/fsw/cfe-core/src/evs/cfe_evs_task.c ****                         "%s not registered with EVS: CC = %lu",
1475:/home/simulink/cFS_FreeRTOS_seL4/cfe/fsw/cfe-core/src/evs/cfe_evs_task.c ****                         LocalName, (long unsigned int)CFE_EVS_RESET_APP_COUNTER_CC);
1476:/home/simulink/cFS_FreeRTOS_seL4/cfe/fsw/cfe-core/src/evs/cfe_evs_task.c ****       Status = FALSE;
 3548               	.loc 1 1476 0
 3549 1b58 42AF 001C 	clr.l 28(%sp)
 3550 1b5c 6062      	jra .L205
 3551               	.L206:
1477:/home/simulink/cFS_FreeRTOS_seL4/cfe/fsw/cfe-core/src/evs/cfe_evs_task.c ****    }
1478:/home/simulink/cFS_FreeRTOS_seL4/cfe/fsw/cfe-core/src/evs/cfe_evs_task.c ****    else if(Status == CFE_EVS_APP_ILLEGAL_APP_ID)
 3552               	.loc 1 1478 0
 3553 1b5e 203C C200 	move.l #-1040187389,%d0
 3553      0003 
 3554 1b64 B0AF 001C 	cmp.l 28(%sp),%d0
 3555 1b68 6630      	jne .L207
1479:/home/simulink/cFS_FreeRTOS_seL4/cfe/fsw/cfe-core/src/evs/cfe_evs_task.c ****    {
1480:/home/simulink/cFS_FreeRTOS_seL4/cfe/fsw/cfe-core/src/evs/cfe_evs_task.c ****       EVS_SendEvent(CFE_EVS_ERR_ILLAPPIDRANGE_EID, CFE_EVS_ERROR,
 3556               	.loc 1 1480 0
 3557 1b6a 202F 0014 	move.l 20(%sp),%d0
 3558 1b6e 2200      	move.l %d0,%d1
 3559 1b70 4878 0009 	pea 9.w
 3560               	.cfi_def_cfa_offset 40
 3561 1b74 200F      	move.l %sp,%d0
 3562 1b76 5880      	addq.l #4,%d0
 3563 1b78 2F00      	move.l %d0,-(%sp)
68K GAS   			page 101


 3564               	.cfi_def_cfa_offset 44
 3565 1b7a 2F01      	move.l %d1,-(%sp)
 3566               	.cfi_def_cfa_offset 48
 3567 1b7c 4879 0000 	pea .LC28
 3567      0000 
 3568               	.cfi_def_cfa_offset 52
 3569 1b82 4878 0003 	pea 3.w
 3570               	.cfi_def_cfa_offset 56
 3571 1b86 4878 0008 	pea 8.w
 3572               	.cfi_def_cfa_offset 60
 3573 1b8a 4EB9 0000 	jsr EVS_SendEvent
 3573      0000 
 3574 1b90 4FEF 0018 	lea (24,%sp),%sp
 3575               	.cfi_def_cfa_offset 36
1481:/home/simulink/cFS_FreeRTOS_seL4/cfe/fsw/cfe-core/src/evs/cfe_evs_task.c ****                         "Illegal application ID %d retrieved for %s: CC = %lu",
1482:/home/simulink/cFS_FreeRTOS_seL4/cfe/fsw/cfe-core/src/evs/cfe_evs_task.c ****                         (int)AppID, LocalName,(long unsigned int) CFE_EVS_RESET_APP_COUNTER_CC);
1483:/home/simulink/cFS_FreeRTOS_seL4/cfe/fsw/cfe-core/src/evs/cfe_evs_task.c ****       Status = FALSE;
 3576               	.loc 1 1483 0
 3577 1b94 42AF 001C 	clr.l 28(%sp)
 3578 1b98 6026      	jra .L205
 3579               	.L207:
1484:/home/simulink/cFS_FreeRTOS_seL4/cfe/fsw/cfe-core/src/evs/cfe_evs_task.c ****    }
1485:/home/simulink/cFS_FreeRTOS_seL4/cfe/fsw/cfe-core/src/evs/cfe_evs_task.c ****    else
1486:/home/simulink/cFS_FreeRTOS_seL4/cfe/fsw/cfe-core/src/evs/cfe_evs_task.c ****    {
1487:/home/simulink/cFS_FreeRTOS_seL4/cfe/fsw/cfe-core/src/evs/cfe_evs_task.c ****       EVS_SendEvent(CFE_EVS_ERR_NOAPPIDFOUND_EID, CFE_EVS_ERROR,
 3580               	.loc 1 1487 0
 3581 1b9a 4878 0009 	pea 9.w
 3582               	.cfi_def_cfa_offset 40
 3583 1b9e 200F      	move.l %sp,%d0
 3584 1ba0 5880      	addq.l #4,%d0
 3585 1ba2 2F00      	move.l %d0,-(%sp)
 3586               	.cfi_def_cfa_offset 44
 3587 1ba4 4879 0000 	pea .LC44
 3587      0000 
 3588               	.cfi_def_cfa_offset 48
 3589 1baa 4878 0003 	pea 3.w
 3590               	.cfi_def_cfa_offset 52
 3591 1bae 4878 0009 	pea 9.w
 3592               	.cfi_def_cfa_offset 56
 3593 1bb2 4EB9 0000 	jsr EVS_SendEvent
 3593      0000 
 3594 1bb8 4FEF 0014 	lea (20,%sp),%sp
 3595               	.cfi_def_cfa_offset 36
1488:/home/simulink/cFS_FreeRTOS_seL4/cfe/fsw/cfe-core/src/evs/cfe_evs_task.c ****                         "Reset Event Counter Command: Unable to retrieve application ID for %s: CC 
1489:/home/simulink/cFS_FreeRTOS_seL4/cfe/fsw/cfe-core/src/evs/cfe_evs_task.c ****                         LocalName, (long unsigned int)CFE_EVS_RESET_APP_COUNTER_CC);
1490:/home/simulink/cFS_FreeRTOS_seL4/cfe/fsw/cfe-core/src/evs/cfe_evs_task.c ****       Status = FALSE;
 3596               	.loc 1 1490 0
 3597 1bbc 42AF 001C 	clr.l 28(%sp)
 3598               	.L205:
1491:/home/simulink/cFS_FreeRTOS_seL4/cfe/fsw/cfe-core/src/evs/cfe_evs_task.c ****    }
1492:/home/simulink/cFS_FreeRTOS_seL4/cfe/fsw/cfe-core/src/evs/cfe_evs_task.c **** 
1493:/home/simulink/cFS_FreeRTOS_seL4/cfe/fsw/cfe-core/src/evs/cfe_evs_task.c ****    return (boolean)Status;
 3599               	.loc 1 1493 0
 3600 1bc0 202F 001C 	move.l 28(%sp),%d0
 3601 1bc4 1000      	move.b %d0,%d0
1494:/home/simulink/cFS_FreeRTOS_seL4/cfe/fsw/cfe-core/src/evs/cfe_evs_task.c **** 
1495:/home/simulink/cFS_FreeRTOS_seL4/cfe/fsw/cfe-core/src/evs/cfe_evs_task.c **** } /* End CFE_EVS_ResetAppEventCounterCmd */
68K GAS   			page 102


 3602               	.loc 1 1495 0
 3603 1bc6 4FEF 0020 	lea (32,%sp),%sp
 3604 1bca 4E75      	rts
 3605               	.cfi_endproc
 3606               	.LFE78:
 3607               	.sizeCFE_EVS_ResetAppEventCounterCmd, .-CFE_EVS_ResetAppEventCounterCmd
 3608               	.section.rodata
 3609               	.LC45:
 3610 091c 5265 7365 	.string"Reset Filter Command Received with AppName = %s, EventID = 0x%08x"
 3610      7420 4669 
 3610      6C74 6572 
 3610      2043 6F6D 
 3610      6D61 6E64 
 3611               	.LC46:
 3612 095e 2573 2045 	.string"%s Event ID %d not registered for filtering: CC = %lu"
 3612      7665 6E74 
 3612      2049 4420 
 3612      2564 206E 
 3612      6F74 2072 
 3613               	.text
 3614               	.align2
 3615               	.globlCFE_EVS_ResetFilterCmd
 3616               	.typeCFE_EVS_ResetFilterCmd, @function
 3617               	CFE_EVS_ResetFilterCmd:
 3618               	.LFB79:
1496:/home/simulink/cFS_FreeRTOS_seL4/cfe/fsw/cfe-core/src/evs/cfe_evs_task.c **** 
1497:/home/simulink/cFS_FreeRTOS_seL4/cfe/fsw/cfe-core/src/evs/cfe_evs_task.c **** 
1498:/home/simulink/cFS_FreeRTOS_seL4/cfe/fsw/cfe-core/src/evs/cfe_evs_task.c **** /*
1499:/home/simulink/cFS_FreeRTOS_seL4/cfe/fsw/cfe-core/src/evs/cfe_evs_task.c **** **             Function Prologue
1500:/home/simulink/cFS_FreeRTOS_seL4/cfe/fsw/cfe-core/src/evs/cfe_evs_task.c **** **
1501:/home/simulink/cFS_FreeRTOS_seL4/cfe/fsw/cfe-core/src/evs/cfe_evs_task.c **** ** Function Name:      CFE_EVS_ResetFilterCmd
1502:/home/simulink/cFS_FreeRTOS_seL4/cfe/fsw/cfe-core/src/evs/cfe_evs_task.c **** **
1503:/home/simulink/cFS_FreeRTOS_seL4/cfe/fsw/cfe-core/src/evs/cfe_evs_task.c **** ** Purpose:  This routine sets the application event filter counter to zero for the given
1504:/home/simulink/cFS_FreeRTOS_seL4/cfe/fsw/cfe-core/src/evs/cfe_evs_task.c **** **           application identifier and event identifier
1505:/home/simulink/cFS_FreeRTOS_seL4/cfe/fsw/cfe-core/src/evs/cfe_evs_task.c **** **
1506:/home/simulink/cFS_FreeRTOS_seL4/cfe/fsw/cfe-core/src/evs/cfe_evs_task.c **** ** Assumptions and Notes:
1507:/home/simulink/cFS_FreeRTOS_seL4/cfe/fsw/cfe-core/src/evs/cfe_evs_task.c **** **
1508:/home/simulink/cFS_FreeRTOS_seL4/cfe/fsw/cfe-core/src/evs/cfe_evs_task.c **** */
1509:/home/simulink/cFS_FreeRTOS_seL4/cfe/fsw/cfe-core/src/evs/cfe_evs_task.c **** boolean CFE_EVS_ResetFilterCmd (const CFE_SB_MsgPayloadPtr_t Payload)
1510:/home/simulink/cFS_FreeRTOS_seL4/cfe/fsw/cfe-core/src/evs/cfe_evs_task.c **** {
 3619               	.loc 1 1510 0
 3620               	.cfi_startproc
 3621 1bcc 4FEF FFD8 	lea (-40,%sp),%sp
 3622               	.cfi_def_cfa_offset 44
1511:/home/simulink/cFS_FreeRTOS_seL4/cfe/fsw/cfe-core/src/evs/cfe_evs_task.c ****    const CFE_EVS_AppNameEventIDCmd_Payload_t *CmdPtr = (const CFE_EVS_AppNameEventIDCmd_Payload_t *
 3623               	.loc 1 1511 0
 3624 1bd0 2F6F 002C 	move.l 44(%sp),32(%sp)
 3624      0020 
1512:/home/simulink/cFS_FreeRTOS_seL4/cfe/fsw/cfe-core/src/evs/cfe_evs_task.c ****    EVS_BinFilter_t     *FilterPtr;
1513:/home/simulink/cFS_FreeRTOS_seL4/cfe/fsw/cfe-core/src/evs/cfe_evs_task.c ****    uint32               AppID = CFE_EVS_UNDEF_APPID;
 3625               	.loc 1 1513 0
 3626 1bd6 70FF      	moveq #-1,%d0
 3627 1bd8 2F40 0014 	move.l %d0,20(%sp)
1514:/home/simulink/cFS_FreeRTOS_seL4/cfe/fsw/cfe-core/src/evs/cfe_evs_task.c ****    int32                Status;
1515:/home/simulink/cFS_FreeRTOS_seL4/cfe/fsw/cfe-core/src/evs/cfe_evs_task.c ****    EVS_AppData_t       *AppDataPtr;
1516:/home/simulink/cFS_FreeRTOS_seL4/cfe/fsw/cfe-core/src/evs/cfe_evs_task.c ****    char                 LocalName[OS_MAX_API_NAME];
1517:/home/simulink/cFS_FreeRTOS_seL4/cfe/fsw/cfe-core/src/evs/cfe_evs_task.c **** 
68K GAS   			page 103


1518:/home/simulink/cFS_FreeRTOS_seL4/cfe/fsw/cfe-core/src/evs/cfe_evs_task.c ****    /*
1519:/home/simulink/cFS_FreeRTOS_seL4/cfe/fsw/cfe-core/src/evs/cfe_evs_task.c ****     * Althgouh EVS_GetApplicationInfo() does not require a null terminated argument,
1520:/home/simulink/cFS_FreeRTOS_seL4/cfe/fsw/cfe-core/src/evs/cfe_evs_task.c ****     * the value is passed to EVS_SendEvent which does require termination (normal C string)
1521:/home/simulink/cFS_FreeRTOS_seL4/cfe/fsw/cfe-core/src/evs/cfe_evs_task.c ****     */
1522:/home/simulink/cFS_FreeRTOS_seL4/cfe/fsw/cfe-core/src/evs/cfe_evs_task.c ****    CFE_SB_MessageStringGet(LocalName, (char *)CmdPtr->AppName, NULL, OS_MAX_API_NAME, sizeof(CmdPtr
 3628               	.loc 1 1522 0
 3629 1bdc 202F 0020 	move.l 32(%sp),%d0
 3630 1be0 4878 0014 	pea 20.w
 3631               	.cfi_def_cfa_offset 48
 3632 1be4 4878 0014 	pea 20.w
 3633               	.cfi_def_cfa_offset 52
 3634 1be8 42A7      	clr.l -(%sp)
 3635               	.cfi_def_cfa_offset 56
 3636 1bea 2F00      	move.l %d0,-(%sp)
 3637               	.cfi_def_cfa_offset 60
 3638 1bec 200F      	move.l %sp,%d0
 3639 1bee 0680 0000 	add.l #16,%d0
 3639      0010 
 3640 1bf4 2F00      	move.l %d0,-(%sp)
 3641               	.cfi_def_cfa_offset 64
 3642 1bf6 4EB9 0000 	jsr CFE_SB_MessageStringGet
 3642      0000 
 3643 1bfc 4FEF 0014 	lea (20,%sp),%sp
 3644               	.cfi_def_cfa_offset 44
1523:/home/simulink/cFS_FreeRTOS_seL4/cfe/fsw/cfe-core/src/evs/cfe_evs_task.c **** 
1524:/home/simulink/cFS_FreeRTOS_seL4/cfe/fsw/cfe-core/src/evs/cfe_evs_task.c ****    /* Retreive application data */
1525:/home/simulink/cFS_FreeRTOS_seL4/cfe/fsw/cfe-core/src/evs/cfe_evs_task.c ****    Status = EVS_GetApplicationInfo(&AppID, LocalName);
 3645               	.loc 1 1525 0
 3646 1c00 200F      	move.l %sp,%d0
 3647 1c02 2F00      	move.l %d0,-(%sp)
 3648               	.cfi_def_cfa_offset 48
 3649 1c04 200F      	move.l %sp,%d0
 3650 1c06 0680 0000 	add.l #24,%d0
 3650      0018 
 3651 1c0c 2F00      	move.l %d0,-(%sp)
 3652               	.cfi_def_cfa_offset 52
 3653 1c0e 4EB9 0000 	jsr EVS_GetApplicationInfo
 3653      0000 
 3654 1c14 508F      	addq.l #8,%sp
 3655               	.cfi_def_cfa_offset 44
 3656 1c16 2F40 0024 	move.l %d0,36(%sp)
1526:/home/simulink/cFS_FreeRTOS_seL4/cfe/fsw/cfe-core/src/evs/cfe_evs_task.c **** 
1527:/home/simulink/cFS_FreeRTOS_seL4/cfe/fsw/cfe-core/src/evs/cfe_evs_task.c ****    if(Status == CFE_SUCCESS)
 3657               	.loc 1 1527 0
 3658 1c1a 4AAF 0024 	tst.l 36(%sp)
 3659 1c1e 6600 00B8 	jne .L210
1528:/home/simulink/cFS_FreeRTOS_seL4/cfe/fsw/cfe-core/src/evs/cfe_evs_task.c ****    {
1529:/home/simulink/cFS_FreeRTOS_seL4/cfe/fsw/cfe-core/src/evs/cfe_evs_task.c ****       AppDataPtr = &CFE_EVS_GlobalData.AppData[AppID];
 3660               	.loc 1 1529 0
 3661 1c22 202F 0014 	move.l 20(%sp),%d0
 3662 1c26 7246      	moveq #70,%d1
 3663 1c28 4C01 0800 	muls.l %d1,%d0
 3664 1c2c 2200      	move.l %d0,%d1
 3665 1c2e 0681 0000 	add.l #CFE_EVS_GlobalData,%d1
 3665      0000 
 3666 1c34 2F41 001C 	move.l %d1,28(%sp)
1530:/home/simulink/cFS_FreeRTOS_seL4/cfe/fsw/cfe-core/src/evs/cfe_evs_task.c **** 
68K GAS   			page 104


1531:/home/simulink/cFS_FreeRTOS_seL4/cfe/fsw/cfe-core/src/evs/cfe_evs_task.c ****       FilterPtr = EVS_FindEventID(CmdPtr->EventID, AppDataPtr->BinFilters);
 3667               	.loc 1 1531 0
 3668 1c38 202F 001C 	move.l 28(%sp),%d0
 3669 1c3c 206F 0020 	move.l 32(%sp),%a0
 3670 1c40 3228 0014 	move.w 20(%a0),%d1
 3671 1c44 3041      	move.w %d1,%a0
 3672 1c46 2F00      	move.l %d0,-(%sp)
 3673               	.cfi_def_cfa_offset 48
 3674 1c48 2F08      	move.l %a0,-(%sp)
 3675               	.cfi_def_cfa_offset 52
 3676 1c4a 4EB9 0000 	jsr EVS_FindEventID
 3676      0000 
 3677 1c50 508F      	addq.l #8,%sp
 3678               	.cfi_def_cfa_offset 44
 3679 1c52 2F40 0018 	move.l %d0,24(%sp)
1532:/home/simulink/cFS_FreeRTOS_seL4/cfe/fsw/cfe-core/src/evs/cfe_evs_task.c **** 
1533:/home/simulink/cFS_FreeRTOS_seL4/cfe/fsw/cfe-core/src/evs/cfe_evs_task.c ****       if(FilterPtr != NULL)
 3680               	.loc 1 1533 0
 3681 1c56 4AAF 0018 	tst.l 24(%sp)
 3682 1c5a 6744      	jeq .L211
1534:/home/simulink/cFS_FreeRTOS_seL4/cfe/fsw/cfe-core/src/evs/cfe_evs_task.c ****       {
1535:/home/simulink/cFS_FreeRTOS_seL4/cfe/fsw/cfe-core/src/evs/cfe_evs_task.c ****          FilterPtr->Count = 0;
 3683               	.loc 1 1535 0
 3684 1c5c 206F 0018 	move.l 24(%sp),%a0
 3685 1c60 4240      	clr.w %d0
 3686 1c62 3140 0004 	move.w %d0,4(%a0)
1536:/home/simulink/cFS_FreeRTOS_seL4/cfe/fsw/cfe-core/src/evs/cfe_evs_task.c **** 
1537:/home/simulink/cFS_FreeRTOS_seL4/cfe/fsw/cfe-core/src/evs/cfe_evs_task.c ****          EVS_SendEvent(CFE_EVS_RSTFILTER_EID, CFE_EVS_DEBUG,
1538:/home/simulink/cFS_FreeRTOS_seL4/cfe/fsw/cfe-core/src/evs/cfe_evs_task.c ****                            "Reset Filter Command Received with AppName = %s, EventID = 0x%08x",
1539:/home/simulink/cFS_FreeRTOS_seL4/cfe/fsw/cfe-core/src/evs/cfe_evs_task.c ****                            LocalName, CmdPtr->EventID);
 3687               	.loc 1 1539 0
 3688 1c66 206F 0020 	move.l 32(%sp),%a0
 3689 1c6a 3028 0014 	move.w 20(%a0),%d0
1537:/home/simulink/cFS_FreeRTOS_seL4/cfe/fsw/cfe-core/src/evs/cfe_evs_task.c ****                            "Reset Filter Command Received with AppName = %s, EventID = 0x%08x",
 3690               	.loc 1 1537 0
 3691 1c6e 3000      	move.w %d0,%d0
 3692 1c70 0280 0000 	and.l #65535,%d0
 3692      FFFF 
 3693 1c76 2F00      	move.l %d0,-(%sp)
 3694               	.cfi_def_cfa_offset 48
 3695 1c78 200F      	move.l %sp,%d0
 3696 1c7a 5880      	addq.l #4,%d0
 3697 1c7c 2F00      	move.l %d0,-(%sp)
 3698               	.cfi_def_cfa_offset 52
 3699 1c7e 4879 0000 	pea .LC45
 3699      0000 
 3700               	.cfi_def_cfa_offset 56
 3701 1c84 4878 0001 	pea 1.w
 3702               	.cfi_def_cfa_offset 60
 3703 1c88 4878 001C 	pea 28.w
 3704               	.cfi_def_cfa_offset 64
 3705 1c8c 4EB9 0000 	jsr EVS_SendEvent
 3705      0000 
 3706 1c92 4FEF 0014 	lea (20,%sp),%sp
 3707               	.cfi_def_cfa_offset 44
1540:/home/simulink/cFS_FreeRTOS_seL4/cfe/fsw/cfe-core/src/evs/cfe_evs_task.c **** 
1541:/home/simulink/cFS_FreeRTOS_seL4/cfe/fsw/cfe-core/src/evs/cfe_evs_task.c ****          Status = TRUE;
68K GAS   			page 105


 3708               	.loc 1 1541 0
 3709 1c96 7201      	moveq #1,%d1
 3710 1c98 2F41 0024 	move.l %d1,36(%sp)
 3711 1c9c 6000 00D0 	jra .L213
 3712               	.L211:
1542:/home/simulink/cFS_FreeRTOS_seL4/cfe/fsw/cfe-core/src/evs/cfe_evs_task.c ****       }
1543:/home/simulink/cFS_FreeRTOS_seL4/cfe/fsw/cfe-core/src/evs/cfe_evs_task.c ****       else
1544:/home/simulink/cFS_FreeRTOS_seL4/cfe/fsw/cfe-core/src/evs/cfe_evs_task.c ****       {
1545:/home/simulink/cFS_FreeRTOS_seL4/cfe/fsw/cfe-core/src/evs/cfe_evs_task.c ****          EVS_SendEvent(CFE_EVS_ERR_EVTIDNOREGS_EID, CFE_EVS_ERROR,
1546:/home/simulink/cFS_FreeRTOS_seL4/cfe/fsw/cfe-core/src/evs/cfe_evs_task.c ****                            "%s Event ID %d not registered for filtering: CC = %lu",
1547:/home/simulink/cFS_FreeRTOS_seL4/cfe/fsw/cfe-core/src/evs/cfe_evs_task.c ****                            LocalName, (int)CmdPtr->EventID, (long unsigned int)CFE_EVS_RESET_FILTER
 3713               	.loc 1 1547 0
 3714 1ca0 206F 0020 	move.l 32(%sp),%a0
 3715 1ca4 3028 0014 	move.w 20(%a0),%d0
1545:/home/simulink/cFS_FreeRTOS_seL4/cfe/fsw/cfe-core/src/evs/cfe_evs_task.c ****                            "%s Event ID %d not registered for filtering: CC = %lu",
 3716               	.loc 1 1545 0
 3717 1ca8 3000      	move.w %d0,%d0
 3718 1caa 0280 0000 	and.l #65535,%d0
 3718      FFFF 
 3719 1cb0 4878 000D 	pea 13.w
 3720               	.cfi_def_cfa_offset 48
 3721 1cb4 2F00      	move.l %d0,-(%sp)
 3722               	.cfi_def_cfa_offset 52
 3723 1cb6 200F      	move.l %sp,%d0
 3724 1cb8 5080      	addq.l #8,%d0
 3725 1cba 2F00      	move.l %d0,-(%sp)
 3726               	.cfi_def_cfa_offset 56
 3727 1cbc 4879 0000 	pea .LC46
 3727      0000 
 3728               	.cfi_def_cfa_offset 60
 3729 1cc2 4878 0003 	pea 3.w
 3730               	.cfi_def_cfa_offset 64
 3731 1cc6 4878 0006 	pea 6.w
 3732               	.cfi_def_cfa_offset 68
 3733 1cca 4EB9 0000 	jsr EVS_SendEvent
 3733      0000 
 3734 1cd0 4FEF 0018 	lea (24,%sp),%sp
 3735               	.cfi_def_cfa_offset 44
 3736 1cd4 6000 0098 	jra .L213
 3737               	.L210:
1548:/home/simulink/cFS_FreeRTOS_seL4/cfe/fsw/cfe-core/src/evs/cfe_evs_task.c ****       }
1549:/home/simulink/cFS_FreeRTOS_seL4/cfe/fsw/cfe-core/src/evs/cfe_evs_task.c ****    }
1550:/home/simulink/cFS_FreeRTOS_seL4/cfe/fsw/cfe-core/src/evs/cfe_evs_task.c ****    else if(Status == CFE_EVS_APP_NOT_REGISTERED)
 3738               	.loc 1 1550 0
 3739 1cd8 203C C200 	move.l #-1040187390,%d0
 3739      0002 
 3740 1cde B0AF 0024 	cmp.l 36(%sp),%d0
 3741 1ce2 6628      	jne .L214
1551:/home/simulink/cFS_FreeRTOS_seL4/cfe/fsw/cfe-core/src/evs/cfe_evs_task.c ****    {
1552:/home/simulink/cFS_FreeRTOS_seL4/cfe/fsw/cfe-core/src/evs/cfe_evs_task.c ****       EVS_SendEvent(CFE_EVS_ERR_APPNOREGS_EID, CFE_EVS_ERROR,
 3742               	.loc 1 1552 0
 3743 1ce4 4878 000D 	pea 13.w
 3744               	.cfi_def_cfa_offset 48
 3745 1ce8 200F      	move.l %sp,%d0
 3746 1cea 5880      	addq.l #4,%d0
 3747 1cec 2F00      	move.l %d0,-(%sp)
 3748               	.cfi_def_cfa_offset 52
68K GAS   			page 106


 3749 1cee 4879 0000 	pea .LC27
 3749      0000 
 3750               	.cfi_def_cfa_offset 56
 3751 1cf4 4878 0003 	pea 3.w
 3752               	.cfi_def_cfa_offset 60
 3753 1cf8 4878 0007 	pea 7.w
 3754               	.cfi_def_cfa_offset 64
 3755 1cfc 4EB9 0000 	jsr EVS_SendEvent
 3755      0000 
 3756 1d02 4FEF 0014 	lea (20,%sp),%sp
 3757               	.cfi_def_cfa_offset 44
1553:/home/simulink/cFS_FreeRTOS_seL4/cfe/fsw/cfe-core/src/evs/cfe_evs_task.c ****                         "%s not registered with EVS: CC = %lu",
1554:/home/simulink/cFS_FreeRTOS_seL4/cfe/fsw/cfe-core/src/evs/cfe_evs_task.c ****                         LocalName, (long unsigned int)CFE_EVS_RESET_FILTER_CC);
1555:/home/simulink/cFS_FreeRTOS_seL4/cfe/fsw/cfe-core/src/evs/cfe_evs_task.c ****       Status = FALSE;
 3758               	.loc 1 1555 0
 3759 1d06 42AF 0024 	clr.l 36(%sp)
 3760 1d0a 6062      	jra .L213
 3761               	.L214:
1556:/home/simulink/cFS_FreeRTOS_seL4/cfe/fsw/cfe-core/src/evs/cfe_evs_task.c ****    }
1557:/home/simulink/cFS_FreeRTOS_seL4/cfe/fsw/cfe-core/src/evs/cfe_evs_task.c ****    else if(Status == CFE_EVS_APP_ILLEGAL_APP_ID)
 3762               	.loc 1 1557 0
 3763 1d0c 223C C200 	move.l #-1040187389,%d1
 3763      0003 
 3764 1d12 B2AF 0024 	cmp.l 36(%sp),%d1
 3765 1d16 6630      	jne .L215
1558:/home/simulink/cFS_FreeRTOS_seL4/cfe/fsw/cfe-core/src/evs/cfe_evs_task.c ****    {
1559:/home/simulink/cFS_FreeRTOS_seL4/cfe/fsw/cfe-core/src/evs/cfe_evs_task.c ****       EVS_SendEvent(CFE_EVS_ERR_ILLAPPIDRANGE_EID, CFE_EVS_ERROR,
 3766               	.loc 1 1559 0
 3767 1d18 202F 0014 	move.l 20(%sp),%d0
 3768 1d1c 2200      	move.l %d0,%d1
 3769 1d1e 4878 000D 	pea 13.w
 3770               	.cfi_def_cfa_offset 48
 3771 1d22 200F      	move.l %sp,%d0
 3772 1d24 5880      	addq.l #4,%d0
 3773 1d26 2F00      	move.l %d0,-(%sp)
 3774               	.cfi_def_cfa_offset 52
 3775 1d28 2F01      	move.l %d1,-(%sp)
 3776               	.cfi_def_cfa_offset 56
 3777 1d2a 4879 0000 	pea .LC28
 3777      0000 
 3778               	.cfi_def_cfa_offset 60
 3779 1d30 4878 0003 	pea 3.w
 3780               	.cfi_def_cfa_offset 64
 3781 1d34 4878 0008 	pea 8.w
 3782               	.cfi_def_cfa_offset 68
 3783 1d38 4EB9 0000 	jsr EVS_SendEvent
 3783      0000 
 3784 1d3e 4FEF 0018 	lea (24,%sp),%sp
 3785               	.cfi_def_cfa_offset 44
1560:/home/simulink/cFS_FreeRTOS_seL4/cfe/fsw/cfe-core/src/evs/cfe_evs_task.c ****                         "Illegal application ID %d retrieved for %s: CC = %lu",
1561:/home/simulink/cFS_FreeRTOS_seL4/cfe/fsw/cfe-core/src/evs/cfe_evs_task.c ****                         (int)AppID, LocalName, (long unsigned int)CFE_EVS_RESET_FILTER_CC);
1562:/home/simulink/cFS_FreeRTOS_seL4/cfe/fsw/cfe-core/src/evs/cfe_evs_task.c ****       Status = FALSE;
 3786               	.loc 1 1562 0
 3787 1d42 42AF 0024 	clr.l 36(%sp)
 3788 1d46 6026      	jra .L213
 3789               	.L215:
1563:/home/simulink/cFS_FreeRTOS_seL4/cfe/fsw/cfe-core/src/evs/cfe_evs_task.c ****    }
68K GAS   			page 107


1564:/home/simulink/cFS_FreeRTOS_seL4/cfe/fsw/cfe-core/src/evs/cfe_evs_task.c ****    else
1565:/home/simulink/cFS_FreeRTOS_seL4/cfe/fsw/cfe-core/src/evs/cfe_evs_task.c ****    {
1566:/home/simulink/cFS_FreeRTOS_seL4/cfe/fsw/cfe-core/src/evs/cfe_evs_task.c ****       EVS_SendEvent(CFE_EVS_ERR_NOAPPIDFOUND_EID, CFE_EVS_ERROR,
 3790               	.loc 1 1566 0
 3791 1d48 4878 000D 	pea 13.w
 3792               	.cfi_def_cfa_offset 48
 3793 1d4c 200F      	move.l %sp,%d0
 3794 1d4e 5880      	addq.l #4,%d0
 3795 1d50 2F00      	move.l %d0,-(%sp)
 3796               	.cfi_def_cfa_offset 52
 3797 1d52 4879 0000 	pea .LC29
 3797      0000 
 3798               	.cfi_def_cfa_offset 56
 3799 1d58 4878 0003 	pea 3.w
 3800               	.cfi_def_cfa_offset 60
 3801 1d5c 4878 0009 	pea 9.w
 3802               	.cfi_def_cfa_offset 64
 3803 1d60 4EB9 0000 	jsr EVS_SendEvent
 3803      0000 
 3804 1d66 4FEF 0014 	lea (20,%sp),%sp
 3805               	.cfi_def_cfa_offset 44
1567:/home/simulink/cFS_FreeRTOS_seL4/cfe/fsw/cfe-core/src/evs/cfe_evs_task.c ****                         "Unable to retrieve application ID for %s: CC = %lu",
1568:/home/simulink/cFS_FreeRTOS_seL4/cfe/fsw/cfe-core/src/evs/cfe_evs_task.c ****                         LocalName, (long unsigned int)CFE_EVS_RESET_FILTER_CC);
1569:/home/simulink/cFS_FreeRTOS_seL4/cfe/fsw/cfe-core/src/evs/cfe_evs_task.c ****       Status = FALSE;
 3806               	.loc 1 1569 0
 3807 1d6a 42AF 0024 	clr.l 36(%sp)
 3808               	.L213:
1570:/home/simulink/cFS_FreeRTOS_seL4/cfe/fsw/cfe-core/src/evs/cfe_evs_task.c ****    }
1571:/home/simulink/cFS_FreeRTOS_seL4/cfe/fsw/cfe-core/src/evs/cfe_evs_task.c **** 
1572:/home/simulink/cFS_FreeRTOS_seL4/cfe/fsw/cfe-core/src/evs/cfe_evs_task.c ****    return (boolean)Status;
 3809               	.loc 1 1572 0
 3810 1d6e 202F 0024 	move.l 36(%sp),%d0
 3811 1d72 1000      	move.b %d0,%d0
1573:/home/simulink/cFS_FreeRTOS_seL4/cfe/fsw/cfe-core/src/evs/cfe_evs_task.c **** 
1574:/home/simulink/cFS_FreeRTOS_seL4/cfe/fsw/cfe-core/src/evs/cfe_evs_task.c **** } /* End CFE_EVS_ResetFilterCmd */
 3812               	.loc 1 1574 0
 3813 1d74 4FEF 0028 	lea (40,%sp),%sp
 3814 1d78 4E75      	rts
 3815               	.cfi_endproc
 3816               	.LFE79:
 3817               	.sizeCFE_EVS_ResetFilterCmd, .-CFE_EVS_ResetFilterCmd
 3818               	.section.rodata
 3819               	.LC47:
 3820 0994 5265 7365 	.string"Reset All Filters Command Received with AppName = %s"
 3820      7420 416C 
 3820      6C20 4669 
 3820      6C74 6572 
 3820      7320 436F 
 3821               	.text
 3822               	.align2
 3823               	.globlCFE_EVS_ResetAllFiltersCmd
 3824               	.typeCFE_EVS_ResetAllFiltersCmd, @function
 3825               	CFE_EVS_ResetAllFiltersCmd:
 3826               	.LFB80:
1575:/home/simulink/cFS_FreeRTOS_seL4/cfe/fsw/cfe-core/src/evs/cfe_evs_task.c **** 
1576:/home/simulink/cFS_FreeRTOS_seL4/cfe/fsw/cfe-core/src/evs/cfe_evs_task.c **** 
1577:/home/simulink/cFS_FreeRTOS_seL4/cfe/fsw/cfe-core/src/evs/cfe_evs_task.c **** /*
68K GAS   			page 108


1578:/home/simulink/cFS_FreeRTOS_seL4/cfe/fsw/cfe-core/src/evs/cfe_evs_task.c **** **             Function Prologue
1579:/home/simulink/cFS_FreeRTOS_seL4/cfe/fsw/cfe-core/src/evs/cfe_evs_task.c **** **
1580:/home/simulink/cFS_FreeRTOS_seL4/cfe/fsw/cfe-core/src/evs/cfe_evs_task.c **** ** Function Name:      CFE_EVS_ResetAllFiltersCmd
1581:/home/simulink/cFS_FreeRTOS_seL4/cfe/fsw/cfe-core/src/evs/cfe_evs_task.c **** **
1582:/home/simulink/cFS_FreeRTOS_seL4/cfe/fsw/cfe-core/src/evs/cfe_evs_task.c **** ** Purpose:  This routine sets all application event filter counters to zero for the given
1583:/home/simulink/cFS_FreeRTOS_seL4/cfe/fsw/cfe-core/src/evs/cfe_evs_task.c **** **           application identifier
1584:/home/simulink/cFS_FreeRTOS_seL4/cfe/fsw/cfe-core/src/evs/cfe_evs_task.c **** **
1585:/home/simulink/cFS_FreeRTOS_seL4/cfe/fsw/cfe-core/src/evs/cfe_evs_task.c **** ** Assumptions and Notes:
1586:/home/simulink/cFS_FreeRTOS_seL4/cfe/fsw/cfe-core/src/evs/cfe_evs_task.c **** **
1587:/home/simulink/cFS_FreeRTOS_seL4/cfe/fsw/cfe-core/src/evs/cfe_evs_task.c **** */
1588:/home/simulink/cFS_FreeRTOS_seL4/cfe/fsw/cfe-core/src/evs/cfe_evs_task.c **** boolean CFE_EVS_ResetAllFiltersCmd (const CFE_SB_MsgPayloadPtr_t Payload)
1589:/home/simulink/cFS_FreeRTOS_seL4/cfe/fsw/cfe-core/src/evs/cfe_evs_task.c **** {
 3827               	.loc 1 1589 0
 3828               	.cfi_startproc
 3829 1d7a 4FEF FFDC 	lea (-36,%sp),%sp
 3830               	.cfi_def_cfa_offset 40
 3831 1d7e 2F02      	move.l %d2,-(%sp)
 3832               	.cfi_def_cfa_offset 44
 3833               	.cfi_offset 2, -44
1590:/home/simulink/cFS_FreeRTOS_seL4/cfe/fsw/cfe-core/src/evs/cfe_evs_task.c ****    uint32                    AppID  = CFE_EVS_UNDEF_APPID;
 3834               	.loc 1 1590 0
 3835 1d80 70FF      	moveq #-1,%d0
 3836 1d82 2F40 0018 	move.l %d0,24(%sp)
1591:/home/simulink/cFS_FreeRTOS_seL4/cfe/fsw/cfe-core/src/evs/cfe_evs_task.c ****    const CFE_EVS_AppNameCmd_Payload_t *CmdPtr = (const CFE_EVS_AppNameCmd_Payload_t *)Payload;
 3837               	.loc 1 1591 0
 3838 1d86 2F6F 002C 	move.l 44(%sp),28(%sp)
 3838      001C 
1592:/home/simulink/cFS_FreeRTOS_seL4/cfe/fsw/cfe-core/src/evs/cfe_evs_task.c ****    int32                     Status;
1593:/home/simulink/cFS_FreeRTOS_seL4/cfe/fsw/cfe-core/src/evs/cfe_evs_task.c ****    uint32                    i;
1594:/home/simulink/cFS_FreeRTOS_seL4/cfe/fsw/cfe-core/src/evs/cfe_evs_task.c ****    char                      LocalName[OS_MAX_API_NAME];
1595:/home/simulink/cFS_FreeRTOS_seL4/cfe/fsw/cfe-core/src/evs/cfe_evs_task.c **** 
1596:/home/simulink/cFS_FreeRTOS_seL4/cfe/fsw/cfe-core/src/evs/cfe_evs_task.c ****    /*
1597:/home/simulink/cFS_FreeRTOS_seL4/cfe/fsw/cfe-core/src/evs/cfe_evs_task.c ****     * Althgouh EVS_GetApplicationInfo() does not require a null terminated argument,
1598:/home/simulink/cFS_FreeRTOS_seL4/cfe/fsw/cfe-core/src/evs/cfe_evs_task.c ****     * the value is passed to EVS_SendEvent which does require termination (normal C string)
1599:/home/simulink/cFS_FreeRTOS_seL4/cfe/fsw/cfe-core/src/evs/cfe_evs_task.c ****     */
1600:/home/simulink/cFS_FreeRTOS_seL4/cfe/fsw/cfe-core/src/evs/cfe_evs_task.c ****    CFE_SB_MessageStringGet(LocalName, (char *)CmdPtr->AppName, NULL, OS_MAX_API_NAME, sizeof(CmdPtr
 3839               	.loc 1 1600 0
 3840 1d8c 202F 001C 	move.l 28(%sp),%d0
 3841 1d90 4878 0014 	pea 20.w
 3842               	.cfi_def_cfa_offset 48
 3843 1d94 4878 0014 	pea 20.w
 3844               	.cfi_def_cfa_offset 52
 3845 1d98 42A7      	clr.l -(%sp)
 3846               	.cfi_def_cfa_offset 56
 3847 1d9a 2F00      	move.l %d0,-(%sp)
 3848               	.cfi_def_cfa_offset 60
 3849 1d9c 200F      	move.l %sp,%d0
 3850 1d9e 0680 0000 	add.l #20,%d0
 3850      0014 
 3851 1da4 2F00      	move.l %d0,-(%sp)
 3852               	.cfi_def_cfa_offset 64
 3853 1da6 4EB9 0000 	jsr CFE_SB_MessageStringGet
 3853      0000 
 3854 1dac 4FEF 0014 	lea (20,%sp),%sp
 3855               	.cfi_def_cfa_offset 44
1601:/home/simulink/cFS_FreeRTOS_seL4/cfe/fsw/cfe-core/src/evs/cfe_evs_task.c **** 
1602:/home/simulink/cFS_FreeRTOS_seL4/cfe/fsw/cfe-core/src/evs/cfe_evs_task.c ****    /* Retreive application data */
68K GAS   			page 109


1603:/home/simulink/cFS_FreeRTOS_seL4/cfe/fsw/cfe-core/src/evs/cfe_evs_task.c ****    Status = EVS_GetApplicationInfo(&AppID, LocalName);
 3856               	.loc 1 1603 0
 3857 1db0 200F      	move.l %sp,%d0
 3858 1db2 5880      	addq.l #4,%d0
 3859 1db4 2F00      	move.l %d0,-(%sp)
 3860               	.cfi_def_cfa_offset 48
 3861 1db6 200F      	move.l %sp,%d0
 3862 1db8 0680 0000 	add.l #28,%d0
 3862      001C 
 3863 1dbe 2F00      	move.l %d0,-(%sp)
 3864               	.cfi_def_cfa_offset 52
 3865 1dc0 4EB9 0000 	jsr EVS_GetApplicationInfo
 3865      0000 
 3866 1dc6 508F      	addq.l #8,%sp
 3867               	.cfi_def_cfa_offset 44
 3868 1dc8 2F40 0024 	move.l %d0,36(%sp)
1604:/home/simulink/cFS_FreeRTOS_seL4/cfe/fsw/cfe-core/src/evs/cfe_evs_task.c **** 
1605:/home/simulink/cFS_FreeRTOS_seL4/cfe/fsw/cfe-core/src/evs/cfe_evs_task.c ****    if(Status == CFE_SUCCESS)
 3869               	.loc 1 1605 0
 3870 1dcc 4AAF 0024 	tst.l 36(%sp)
 3871 1dd0 6658      	jne .L218
1606:/home/simulink/cFS_FreeRTOS_seL4/cfe/fsw/cfe-core/src/evs/cfe_evs_task.c ****    {
1607:/home/simulink/cFS_FreeRTOS_seL4/cfe/fsw/cfe-core/src/evs/cfe_evs_task.c ****       for(i=0; i<CFE_EVS_MAX_EVENT_FILTERS; i++)
 3872               	.loc 1 1607 0
 3873 1dd2 42AF 0020 	clr.l 32(%sp)
 3874 1dd6 6022      	jra .L219
 3875               	.L220:
1608:/home/simulink/cFS_FreeRTOS_seL4/cfe/fsw/cfe-core/src/evs/cfe_evs_task.c ****       {
1609:/home/simulink/cFS_FreeRTOS_seL4/cfe/fsw/cfe-core/src/evs/cfe_evs_task.c ****          CFE_EVS_GlobalData.AppData[AppID].BinFilters[i].Count = 0;
 3876               	.loc 1 1609 0 discriminator 3
 3877 1dd8 222F 0018 	move.l 24(%sp),%d1
 3878 1ddc 202F 0020 	move.l 32(%sp),%d0
 3879 1de0 2400      	move.l %d0,%d2
 3880 1de2 E78A      	lsl.l #3,%d2
 3881 1de4 7046      	moveq #70,%d0
 3882 1de6 4C01 0800 	muls.l %d1,%d0
 3883 1dea D082      	add.l %d2,%d0
 3884 1dec 2040      	move.l %d0,%a0
 3885 1dee D1FC 0000 	add.l #CFE_EVS_GlobalData+4,%a0
 3885      0000 
 3886 1df4 4250      	clr.w (%a0)
1607:/home/simulink/cFS_FreeRTOS_seL4/cfe/fsw/cfe-core/src/evs/cfe_evs_task.c ****       {
 3887               	.loc 1 1607 0 discriminator 3
 3888 1df6 52AF 0020 	addq.l #1,32(%sp)
 3889               	.L219:
1607:/home/simulink/cFS_FreeRTOS_seL4/cfe/fsw/cfe-core/src/evs/cfe_evs_task.c ****       {
 3890               	.loc 1 1607 0 is_stmt 0 discriminator 1
 3891 1dfa 7007      	moveq #7,%d0
 3892 1dfc B0AF 0020 	cmp.l 32(%sp),%d0
 3893 1e00 64D6      	jcc .L220
1610:/home/simulink/cFS_FreeRTOS_seL4/cfe/fsw/cfe-core/src/evs/cfe_evs_task.c ****       }
1611:/home/simulink/cFS_FreeRTOS_seL4/cfe/fsw/cfe-core/src/evs/cfe_evs_task.c **** 
1612:/home/simulink/cFS_FreeRTOS_seL4/cfe/fsw/cfe-core/src/evs/cfe_evs_task.c ****       EVS_SendEvent(CFE_EVS_RSTALLFILTER_EID, CFE_EVS_DEBUG,
 3894               	.loc 1 1612 0 is_stmt 1
 3895 1e02 200F      	move.l %sp,%d0
 3896 1e04 5880      	addq.l #4,%d0
 3897 1e06 2F00      	move.l %d0,-(%sp)
68K GAS   			page 110


 3898               	.cfi_def_cfa_offset 48
 3899 1e08 4879 0000 	pea .LC47
 3899      0000 
 3900               	.cfi_def_cfa_offset 52
 3901 1e0e 4878 0001 	pea 1.w
 3902               	.cfi_def_cfa_offset 56
 3903 1e12 4878 001D 	pea 29.w
 3904               	.cfi_def_cfa_offset 60
 3905 1e16 4EB9 0000 	jsr EVS_SendEvent
 3905      0000 
 3906 1e1c 4FEF 0010 	lea (16,%sp),%sp
 3907               	.cfi_def_cfa_offset 44
1613:/home/simulink/cFS_FreeRTOS_seL4/cfe/fsw/cfe-core/src/evs/cfe_evs_task.c ****                         "Reset All Filters Command Received with AppName = %s",
1614:/home/simulink/cFS_FreeRTOS_seL4/cfe/fsw/cfe-core/src/evs/cfe_evs_task.c ****                         LocalName);
1615:/home/simulink/cFS_FreeRTOS_seL4/cfe/fsw/cfe-core/src/evs/cfe_evs_task.c **** 
1616:/home/simulink/cFS_FreeRTOS_seL4/cfe/fsw/cfe-core/src/evs/cfe_evs_task.c ****       Status = TRUE;
 3908               	.loc 1 1616 0
 3909 1e20 7001      	moveq #1,%d0
 3910 1e22 2F40 0024 	move.l %d0,36(%sp)
 3911 1e26 6000 0098 	jra .L221
 3912               	.L218:
1617:/home/simulink/cFS_FreeRTOS_seL4/cfe/fsw/cfe-core/src/evs/cfe_evs_task.c ****    }
1618:/home/simulink/cFS_FreeRTOS_seL4/cfe/fsw/cfe-core/src/evs/cfe_evs_task.c ****    else if(Status == CFE_EVS_APP_NOT_REGISTERED)
 3913               	.loc 1 1618 0
 3914 1e2a 203C C200 	move.l #-1040187390,%d0
 3914      0002 
 3915 1e30 B0AF 0024 	cmp.l 36(%sp),%d0
 3916 1e34 6628      	jne .L222
1619:/home/simulink/cFS_FreeRTOS_seL4/cfe/fsw/cfe-core/src/evs/cfe_evs_task.c ****    {
1620:/home/simulink/cFS_FreeRTOS_seL4/cfe/fsw/cfe-core/src/evs/cfe_evs_task.c ****       EVS_SendEvent(CFE_EVS_ERR_APPNOREGS_EID, CFE_EVS_ERROR,
 3917               	.loc 1 1620 0
 3918 1e36 4878 000E 	pea 14.w
 3919               	.cfi_def_cfa_offset 48
 3920 1e3a 200F      	move.l %sp,%d0
 3921 1e3c 5080      	addq.l #8,%d0
 3922 1e3e 2F00      	move.l %d0,-(%sp)
 3923               	.cfi_def_cfa_offset 52
 3924 1e40 4879 0000 	pea .LC27
 3924      0000 
 3925               	.cfi_def_cfa_offset 56
 3926 1e46 4878 0003 	pea 3.w
 3927               	.cfi_def_cfa_offset 60
 3928 1e4a 4878 0007 	pea 7.w
 3929               	.cfi_def_cfa_offset 64
 3930 1e4e 4EB9 0000 	jsr EVS_SendEvent
 3930      0000 
 3931 1e54 4FEF 0014 	lea (20,%sp),%sp
 3932               	.cfi_def_cfa_offset 44
1621:/home/simulink/cFS_FreeRTOS_seL4/cfe/fsw/cfe-core/src/evs/cfe_evs_task.c ****                         "%s not registered with EVS: CC = %lu",
1622:/home/simulink/cFS_FreeRTOS_seL4/cfe/fsw/cfe-core/src/evs/cfe_evs_task.c ****                         LocalName, (long unsigned int)CFE_EVS_RESET_ALL_FILTERS_CC);
1623:/home/simulink/cFS_FreeRTOS_seL4/cfe/fsw/cfe-core/src/evs/cfe_evs_task.c ****       Status = FALSE;
 3933               	.loc 1 1623 0
 3934 1e58 42AF 0024 	clr.l 36(%sp)
 3935 1e5c 6062      	jra .L221
 3936               	.L222:
1624:/home/simulink/cFS_FreeRTOS_seL4/cfe/fsw/cfe-core/src/evs/cfe_evs_task.c ****    }
1625:/home/simulink/cFS_FreeRTOS_seL4/cfe/fsw/cfe-core/src/evs/cfe_evs_task.c ****    else if(Status == CFE_EVS_APP_ILLEGAL_APP_ID)
68K GAS   			page 111


 3937               	.loc 1 1625 0
 3938 1e5e 203C C200 	move.l #-1040187389,%d0
 3938      0003 
 3939 1e64 B0AF 0024 	cmp.l 36(%sp),%d0
 3940 1e68 6630      	jne .L223
1626:/home/simulink/cFS_FreeRTOS_seL4/cfe/fsw/cfe-core/src/evs/cfe_evs_task.c ****    {
1627:/home/simulink/cFS_FreeRTOS_seL4/cfe/fsw/cfe-core/src/evs/cfe_evs_task.c ****       EVS_SendEvent(CFE_EVS_ERR_ILLAPPIDRANGE_EID, CFE_EVS_ERROR,
 3941               	.loc 1 1627 0
 3942 1e6a 202F 0018 	move.l 24(%sp),%d0
 3943 1e6e 2200      	move.l %d0,%d1
 3944 1e70 4878 000E 	pea 14.w
 3945               	.cfi_def_cfa_offset 48
 3946 1e74 200F      	move.l %sp,%d0
 3947 1e76 5080      	addq.l #8,%d0
 3948 1e78 2F00      	move.l %d0,-(%sp)
 3949               	.cfi_def_cfa_offset 52
 3950 1e7a 2F01      	move.l %d1,-(%sp)
 3951               	.cfi_def_cfa_offset 56
 3952 1e7c 4879 0000 	pea .LC28
 3952      0000 
 3953               	.cfi_def_cfa_offset 60
 3954 1e82 4878 0003 	pea 3.w
 3955               	.cfi_def_cfa_offset 64
 3956 1e86 4878 0008 	pea 8.w
 3957               	.cfi_def_cfa_offset 68
 3958 1e8a 4EB9 0000 	jsr EVS_SendEvent
 3958      0000 
 3959 1e90 4FEF 0018 	lea (24,%sp),%sp
 3960               	.cfi_def_cfa_offset 44
1628:/home/simulink/cFS_FreeRTOS_seL4/cfe/fsw/cfe-core/src/evs/cfe_evs_task.c ****                         "Illegal application ID %d retrieved for %s: CC = %lu",
1629:/home/simulink/cFS_FreeRTOS_seL4/cfe/fsw/cfe-core/src/evs/cfe_evs_task.c ****                         (int)AppID, LocalName, (long unsigned int)CFE_EVS_RESET_ALL_FILTERS_CC);
1630:/home/simulink/cFS_FreeRTOS_seL4/cfe/fsw/cfe-core/src/evs/cfe_evs_task.c ****       Status = FALSE;
 3961               	.loc 1 1630 0
 3962 1e94 42AF 0024 	clr.l 36(%sp)
 3963 1e98 6026      	jra .L221
 3964               	.L223:
1631:/home/simulink/cFS_FreeRTOS_seL4/cfe/fsw/cfe-core/src/evs/cfe_evs_task.c ****    }
1632:/home/simulink/cFS_FreeRTOS_seL4/cfe/fsw/cfe-core/src/evs/cfe_evs_task.c ****    else
1633:/home/simulink/cFS_FreeRTOS_seL4/cfe/fsw/cfe-core/src/evs/cfe_evs_task.c ****    {
1634:/home/simulink/cFS_FreeRTOS_seL4/cfe/fsw/cfe-core/src/evs/cfe_evs_task.c ****       EVS_SendEvent(CFE_EVS_ERR_NOAPPIDFOUND_EID, CFE_EVS_ERROR,
 3965               	.loc 1 1634 0
 3966 1e9a 4878 000E 	pea 14.w
 3967               	.cfi_def_cfa_offset 48
 3968 1e9e 200F      	move.l %sp,%d0
 3969 1ea0 5080      	addq.l #8,%d0
 3970 1ea2 2F00      	move.l %d0,-(%sp)
 3971               	.cfi_def_cfa_offset 52
 3972 1ea4 4879 0000 	pea .LC29
 3972      0000 
 3973               	.cfi_def_cfa_offset 56
 3974 1eaa 4878 0003 	pea 3.w
 3975               	.cfi_def_cfa_offset 60
 3976 1eae 4878 0009 	pea 9.w
 3977               	.cfi_def_cfa_offset 64
 3978 1eb2 4EB9 0000 	jsr EVS_SendEvent
 3978      0000 
 3979 1eb8 4FEF 0014 	lea (20,%sp),%sp
68K GAS   			page 112


 3980               	.cfi_def_cfa_offset 44
1635:/home/simulink/cFS_FreeRTOS_seL4/cfe/fsw/cfe-core/src/evs/cfe_evs_task.c ****                         "Unable to retrieve application ID for %s: CC = %lu",
1636:/home/simulink/cFS_FreeRTOS_seL4/cfe/fsw/cfe-core/src/evs/cfe_evs_task.c ****                         LocalName, (long unsigned int)CFE_EVS_RESET_ALL_FILTERS_CC);
1637:/home/simulink/cFS_FreeRTOS_seL4/cfe/fsw/cfe-core/src/evs/cfe_evs_task.c ****       Status = FALSE;
 3981               	.loc 1 1637 0
 3982 1ebc 42AF 0024 	clr.l 36(%sp)
 3983               	.L221:
1638:/home/simulink/cFS_FreeRTOS_seL4/cfe/fsw/cfe-core/src/evs/cfe_evs_task.c ****    }
1639:/home/simulink/cFS_FreeRTOS_seL4/cfe/fsw/cfe-core/src/evs/cfe_evs_task.c **** 
1640:/home/simulink/cFS_FreeRTOS_seL4/cfe/fsw/cfe-core/src/evs/cfe_evs_task.c ****    return (boolean)Status;
 3984               	.loc 1 1640 0
 3985 1ec0 202F 0024 	move.l 36(%sp),%d0
 3986 1ec4 1000      	move.b %d0,%d0
1641:/home/simulink/cFS_FreeRTOS_seL4/cfe/fsw/cfe-core/src/evs/cfe_evs_task.c **** 
1642:/home/simulink/cFS_FreeRTOS_seL4/cfe/fsw/cfe-core/src/evs/cfe_evs_task.c **** } /* End CFE_EVS_ResetAllFiltersCmd */
 3987               	.loc 1 1642 0
 3988 1ec6 241F      	move.l (%sp)+,%d2
 3989 1ec8 4FEF 0024 	lea (36,%sp),%sp
 3990 1ecc 4E75      	rts
 3991               	.cfi_endproc
 3992               	.LFE80:
 3993               	.sizeCFE_EVS_ResetAllFiltersCmd, .-CFE_EVS_ResetAllFiltersCmd
 3994               	.section.rodata
 3995               	.LC48:
 3996 09c9 4164 6420 	.string"Add Filter Command:AppName = %s, EventID = 0x%08x is already registered for filtering"
 3996      4669 6C74 
 3996      6572 2043 
 3996      6F6D 6D61 
 3996      6E64 3A41 
 3997               	.LC49:
 3998 0a1f 4164 6420 	.string"Add Filter Command Received with AppName = %s, EventID = 0x%08x, Mask = 0x%04x"
 3998      4669 6C74 
 3998      6572 2043 
 3998      6F6D 6D61 
 3998      6E64 2052 
 3999               	.LC50:
 4000 0a6e 4164 6420 	.string"Add Filter Command: number of registered filters has reached max = %d"
 4000      4669 6C74 
 4000      6572 2043 
 4000      6F6D 6D61 
 4000      6E64 3A20 
 4001               	.text
 4002               	.align2
 4003               	.globlCFE_EVS_AddEventFilterCmd
 4004               	.typeCFE_EVS_AddEventFilterCmd, @function
 4005               	CFE_EVS_AddEventFilterCmd:
 4006               	.LFB81:
1643:/home/simulink/cFS_FreeRTOS_seL4/cfe/fsw/cfe-core/src/evs/cfe_evs_task.c **** 
1644:/home/simulink/cFS_FreeRTOS_seL4/cfe/fsw/cfe-core/src/evs/cfe_evs_task.c **** /*
1645:/home/simulink/cFS_FreeRTOS_seL4/cfe/fsw/cfe-core/src/evs/cfe_evs_task.c **** **             Function Prologue
1646:/home/simulink/cFS_FreeRTOS_seL4/cfe/fsw/cfe-core/src/evs/cfe_evs_task.c **** **
1647:/home/simulink/cFS_FreeRTOS_seL4/cfe/fsw/cfe-core/src/evs/cfe_evs_task.c **** ** Function Name:      CFE_EVS_AddEventFilterCmd
1648:/home/simulink/cFS_FreeRTOS_seL4/cfe/fsw/cfe-core/src/evs/cfe_evs_task.c **** **
1649:/home/simulink/cFS_FreeRTOS_seL4/cfe/fsw/cfe-core/src/evs/cfe_evs_task.c **** ** Purpose:  This routine adds the given event filter for the given application
1650:/home/simulink/cFS_FreeRTOS_seL4/cfe/fsw/cfe-core/src/evs/cfe_evs_task.c **** **           identifier and event identifier.
1651:/home/simulink/cFS_FreeRTOS_seL4/cfe/fsw/cfe-core/src/evs/cfe_evs_task.c **** **
1652:/home/simulink/cFS_FreeRTOS_seL4/cfe/fsw/cfe-core/src/evs/cfe_evs_task.c **** ** Assumptions and Notes:
68K GAS   			page 113


1653:/home/simulink/cFS_FreeRTOS_seL4/cfe/fsw/cfe-core/src/evs/cfe_evs_task.c **** **
1654:/home/simulink/cFS_FreeRTOS_seL4/cfe/fsw/cfe-core/src/evs/cfe_evs_task.c **** */
1655:/home/simulink/cFS_FreeRTOS_seL4/cfe/fsw/cfe-core/src/evs/cfe_evs_task.c **** boolean CFE_EVS_AddEventFilterCmd (const CFE_SB_MsgPayloadPtr_t Payload)
1656:/home/simulink/cFS_FreeRTOS_seL4/cfe/fsw/cfe-core/src/evs/cfe_evs_task.c **** {
 4007               	.loc 1 1656 0
 4008               	.cfi_startproc
 4009 1ece 4FEF FFD8 	lea (-40,%sp),%sp
 4010               	.cfi_def_cfa_offset 44
1657:/home/simulink/cFS_FreeRTOS_seL4/cfe/fsw/cfe-core/src/evs/cfe_evs_task.c ****    const CFE_EVS_AppNameEventIDMaskCmd_Payload_t *CmdPtr = (const CFE_EVS_AppNameEventIDMaskCmd_Pay
 4011               	.loc 1 1657 0
 4012 1ed2 2F6F 002C 	move.l 44(%sp),32(%sp)
 4012      0020 
1658:/home/simulink/cFS_FreeRTOS_seL4/cfe/fsw/cfe-core/src/evs/cfe_evs_task.c ****    EVS_BinFilter_t     *FilterPtr;
1659:/home/simulink/cFS_FreeRTOS_seL4/cfe/fsw/cfe-core/src/evs/cfe_evs_task.c ****    uint32               AppID = CFE_EVS_UNDEF_APPID;
 4013               	.loc 1 1659 0
 4014 1ed8 70FF      	moveq #-1,%d0
 4015 1eda 2F40 0014 	move.l %d0,20(%sp)
1660:/home/simulink/cFS_FreeRTOS_seL4/cfe/fsw/cfe-core/src/evs/cfe_evs_task.c ****    int32                Status;
1661:/home/simulink/cFS_FreeRTOS_seL4/cfe/fsw/cfe-core/src/evs/cfe_evs_task.c ****    EVS_AppData_t       *AppDataPtr;
1662:/home/simulink/cFS_FreeRTOS_seL4/cfe/fsw/cfe-core/src/evs/cfe_evs_task.c ****    char                 LocalName[OS_MAX_API_NAME];
1663:/home/simulink/cFS_FreeRTOS_seL4/cfe/fsw/cfe-core/src/evs/cfe_evs_task.c **** 
1664:/home/simulink/cFS_FreeRTOS_seL4/cfe/fsw/cfe-core/src/evs/cfe_evs_task.c ****    /*
1665:/home/simulink/cFS_FreeRTOS_seL4/cfe/fsw/cfe-core/src/evs/cfe_evs_task.c ****     * Althgouh EVS_GetApplicationInfo() does not require a null terminated argument,
1666:/home/simulink/cFS_FreeRTOS_seL4/cfe/fsw/cfe-core/src/evs/cfe_evs_task.c ****     * the value is passed to EVS_SendEvent which does require termination (normal C string)
1667:/home/simulink/cFS_FreeRTOS_seL4/cfe/fsw/cfe-core/src/evs/cfe_evs_task.c ****     */
1668:/home/simulink/cFS_FreeRTOS_seL4/cfe/fsw/cfe-core/src/evs/cfe_evs_task.c ****    CFE_SB_MessageStringGet(LocalName, (char *)CmdPtr->AppName, NULL, OS_MAX_API_NAME, sizeof(CmdPtr
 4016               	.loc 1 1668 0
 4017 1ede 202F 0020 	move.l 32(%sp),%d0
 4018 1ee2 4878 0014 	pea 20.w
 4019               	.cfi_def_cfa_offset 48
 4020 1ee6 4878 0014 	pea 20.w
 4021               	.cfi_def_cfa_offset 52
 4022 1eea 42A7      	clr.l -(%sp)
 4023               	.cfi_def_cfa_offset 56
 4024 1eec 2F00      	move.l %d0,-(%sp)
 4025               	.cfi_def_cfa_offset 60
 4026 1eee 200F      	move.l %sp,%d0
 4027 1ef0 0680 0000 	add.l #16,%d0
 4027      0010 
 4028 1ef6 2F00      	move.l %d0,-(%sp)
 4029               	.cfi_def_cfa_offset 64
 4030 1ef8 4EB9 0000 	jsr CFE_SB_MessageStringGet
 4030      0000 
 4031 1efe 4FEF 0014 	lea (20,%sp),%sp
 4032               	.cfi_def_cfa_offset 44
1669:/home/simulink/cFS_FreeRTOS_seL4/cfe/fsw/cfe-core/src/evs/cfe_evs_task.c **** 
1670:/home/simulink/cFS_FreeRTOS_seL4/cfe/fsw/cfe-core/src/evs/cfe_evs_task.c ****    /* Retreive application data */
1671:/home/simulink/cFS_FreeRTOS_seL4/cfe/fsw/cfe-core/src/evs/cfe_evs_task.c ****    Status = EVS_GetApplicationInfo(&AppID, LocalName);
 4033               	.loc 1 1671 0
 4034 1f02 200F      	move.l %sp,%d0
 4035 1f04 2F00      	move.l %d0,-(%sp)
 4036               	.cfi_def_cfa_offset 48
 4037 1f06 200F      	move.l %sp,%d0
 4038 1f08 0680 0000 	add.l #24,%d0
 4038      0018 
 4039 1f0e 2F00      	move.l %d0,-(%sp)
 4040               	.cfi_def_cfa_offset 52
68K GAS   			page 114


 4041 1f10 4EB9 0000 	jsr EVS_GetApplicationInfo
 4041      0000 
 4042 1f16 508F      	addq.l #8,%sp
 4043               	.cfi_def_cfa_offset 44
 4044 1f18 2F40 0024 	move.l %d0,36(%sp)
1672:/home/simulink/cFS_FreeRTOS_seL4/cfe/fsw/cfe-core/src/evs/cfe_evs_task.c **** 
1673:/home/simulink/cFS_FreeRTOS_seL4/cfe/fsw/cfe-core/src/evs/cfe_evs_task.c ****    if(Status == CFE_SUCCESS)
 4045               	.loc 1 1673 0
 4046 1f1c 4AAF 0024 	tst.l 36(%sp)
 4047 1f20 6600 0124 	jne .L226
1674:/home/simulink/cFS_FreeRTOS_seL4/cfe/fsw/cfe-core/src/evs/cfe_evs_task.c ****    {
1675:/home/simulink/cFS_FreeRTOS_seL4/cfe/fsw/cfe-core/src/evs/cfe_evs_task.c ****       AppDataPtr = &CFE_EVS_GlobalData.AppData[AppID];
 4048               	.loc 1 1675 0
 4049 1f24 202F 0014 	move.l 20(%sp),%d0
 4050 1f28 7246      	moveq #70,%d1
 4051 1f2a 4C01 0800 	muls.l %d1,%d0
 4052 1f2e 2200      	move.l %d0,%d1
 4053 1f30 0681 0000 	add.l #CFE_EVS_GlobalData,%d1
 4053      0000 
 4054 1f36 2F41 001C 	move.l %d1,28(%sp)
1676:/home/simulink/cFS_FreeRTOS_seL4/cfe/fsw/cfe-core/src/evs/cfe_evs_task.c **** 
1677:/home/simulink/cFS_FreeRTOS_seL4/cfe/fsw/cfe-core/src/evs/cfe_evs_task.c ****       /* Check to see if this event is already registered for filtering */
1678:/home/simulink/cFS_FreeRTOS_seL4/cfe/fsw/cfe-core/src/evs/cfe_evs_task.c ****       FilterPtr = EVS_FindEventID(CmdPtr->EventID, AppDataPtr->BinFilters);
 4055               	.loc 1 1678 0
 4056 1f3a 202F 001C 	move.l 28(%sp),%d0
 4057 1f3e 206F 0020 	move.l 32(%sp),%a0
 4058 1f42 3228 0014 	move.w 20(%a0),%d1
 4059 1f46 3041      	move.w %d1,%a0
 4060 1f48 2F00      	move.l %d0,-(%sp)
 4061               	.cfi_def_cfa_offset 48
 4062 1f4a 2F08      	move.l %a0,-(%sp)
 4063               	.cfi_def_cfa_offset 52
 4064 1f4c 4EB9 0000 	jsr EVS_FindEventID
 4064      0000 
 4065 1f52 508F      	addq.l #8,%sp
 4066               	.cfi_def_cfa_offset 44
 4067 1f54 2F40 0018 	move.l %d0,24(%sp)
1679:/home/simulink/cFS_FreeRTOS_seL4/cfe/fsw/cfe-core/src/evs/cfe_evs_task.c **** 
1680:/home/simulink/cFS_FreeRTOS_seL4/cfe/fsw/cfe-core/src/evs/cfe_evs_task.c ****       /* FilterPtr != NULL means that this Event ID was found as already being registered */
1681:/home/simulink/cFS_FreeRTOS_seL4/cfe/fsw/cfe-core/src/evs/cfe_evs_task.c ****       if (FilterPtr != NULL)
 4068               	.loc 1 1681 0
 4069 1f58 4AAF 0018 	tst.l 24(%sp)
 4070 1f5c 6738      	jeq .L227
1682:/home/simulink/cFS_FreeRTOS_seL4/cfe/fsw/cfe-core/src/evs/cfe_evs_task.c ****       {
1683:/home/simulink/cFS_FreeRTOS_seL4/cfe/fsw/cfe-core/src/evs/cfe_evs_task.c ****           EVS_SendEvent(CFE_EVS_EVT_FILTERED_EID, CFE_EVS_ERROR,
1684:/home/simulink/cFS_FreeRTOS_seL4/cfe/fsw/cfe-core/src/evs/cfe_evs_task.c ****                       "Add Filter Command:AppName = %s, EventID = 0x%08x is already registered for 
1685:/home/simulink/cFS_FreeRTOS_seL4/cfe/fsw/cfe-core/src/evs/cfe_evs_task.c ****                       LocalName, CmdPtr->EventID);
 4071               	.loc 1 1685 0
 4072 1f5e 206F 0020 	move.l 32(%sp),%a0
 4073 1f62 3028 0014 	move.w 20(%a0),%d0
1683:/home/simulink/cFS_FreeRTOS_seL4/cfe/fsw/cfe-core/src/evs/cfe_evs_task.c ****                       "Add Filter Command:AppName = %s, EventID = 0x%08x is already registered for 
 4074               	.loc 1 1683 0
 4075 1f66 3000      	move.w %d0,%d0
 4076 1f68 0280 0000 	and.l #65535,%d0
 4076      FFFF 
 4077 1f6e 2F00      	move.l %d0,-(%sp)
 4078               	.cfi_def_cfa_offset 48
68K GAS   			page 115


 4079 1f70 200F      	move.l %sp,%d0
 4080 1f72 5880      	addq.l #4,%d0
 4081 1f74 2F00      	move.l %d0,-(%sp)
 4082               	.cfi_def_cfa_offset 52
 4083 1f76 4879 0000 	pea .LC48
 4083      0000 
 4084               	.cfi_def_cfa_offset 56
 4085 1f7c 4878 0003 	pea 3.w
 4086               	.cfi_def_cfa_offset 60
 4087 1f80 4878 0025 	pea 37.w
 4088               	.cfi_def_cfa_offset 64
 4089 1f84 4EB9 0000 	jsr EVS_SendEvent
 4089      0000 
 4090 1f8a 4FEF 0014 	lea (20,%sp),%sp
 4091               	.cfi_def_cfa_offset 44
1686:/home/simulink/cFS_FreeRTOS_seL4/cfe/fsw/cfe-core/src/evs/cfe_evs_task.c ****           Status = FALSE;
 4092               	.loc 1 1686 0
 4093 1f8e 42AF 0024 	clr.l 36(%sp)
 4094 1f92 6000 0148 	jra .L230
 4095               	.L227:
1687:/home/simulink/cFS_FreeRTOS_seL4/cfe/fsw/cfe-core/src/evs/cfe_evs_task.c ****       }
1688:/home/simulink/cFS_FreeRTOS_seL4/cfe/fsw/cfe-core/src/evs/cfe_evs_task.c ****       else
1689:/home/simulink/cFS_FreeRTOS_seL4/cfe/fsw/cfe-core/src/evs/cfe_evs_task.c ****       {
1690:/home/simulink/cFS_FreeRTOS_seL4/cfe/fsw/cfe-core/src/evs/cfe_evs_task.c ****           /* now check to see if there is a free slot */
1691:/home/simulink/cFS_FreeRTOS_seL4/cfe/fsw/cfe-core/src/evs/cfe_evs_task.c ****            FilterPtr = EVS_FindEventID(CFE_EVS_FREE_SLOT, AppDataPtr->BinFilters);
 4096               	.loc 1 1691 0
 4097 1f96 202F 001C 	move.l 28(%sp),%d0
 4098 1f9a 2F00      	move.l %d0,-(%sp)
 4099               	.cfi_def_cfa_offset 48
 4100 1f9c 4878 FFFF 	pea -1.w
 4101               	.cfi_def_cfa_offset 52
 4102 1fa0 4EB9 0000 	jsr EVS_FindEventID
 4102      0000 
 4103 1fa6 508F      	addq.l #8,%sp
 4104               	.cfi_def_cfa_offset 44
 4105 1fa8 2F40 0018 	move.l %d0,24(%sp)
1692:/home/simulink/cFS_FreeRTOS_seL4/cfe/fsw/cfe-core/src/evs/cfe_evs_task.c **** 
1693:/home/simulink/cFS_FreeRTOS_seL4/cfe/fsw/cfe-core/src/evs/cfe_evs_task.c ****             if (FilterPtr != NULL)
 4106               	.loc 1 1693 0
 4107 1fac 4AAF 0018 	tst.l 24(%sp)
 4108 1fb0 6770      	jeq .L229
1694:/home/simulink/cFS_FreeRTOS_seL4/cfe/fsw/cfe-core/src/evs/cfe_evs_task.c ****             {
1695:/home/simulink/cFS_FreeRTOS_seL4/cfe/fsw/cfe-core/src/evs/cfe_evs_task.c ****                /* Add Filter Contents */
1696:/home/simulink/cFS_FreeRTOS_seL4/cfe/fsw/cfe-core/src/evs/cfe_evs_task.c ****                FilterPtr->EventID = CmdPtr->EventID;
 4109               	.loc 1 1696 0
 4110 1fb2 206F 0020 	move.l 32(%sp),%a0
 4111 1fb6 3028 0014 	move.w 20(%a0),%d0
 4112 1fba 206F 0018 	move.l 24(%sp),%a0
 4113 1fbe 3080      	move.w %d0,(%a0)
1697:/home/simulink/cFS_FreeRTOS_seL4/cfe/fsw/cfe-core/src/evs/cfe_evs_task.c ****                FilterPtr->Mask = CmdPtr->Mask;
 4114               	.loc 1 1697 0
 4115 1fc0 206F 0020 	move.l 32(%sp),%a0
 4116 1fc4 3028 0016 	move.w 22(%a0),%d0
 4117 1fc8 206F 0018 	move.l 24(%sp),%a0
 4118 1fcc 3140 0002 	move.w %d0,2(%a0)
1698:/home/simulink/cFS_FreeRTOS_seL4/cfe/fsw/cfe-core/src/evs/cfe_evs_task.c ****                FilterPtr->Count = 0;
 4119               	.loc 1 1698 0
68K GAS   			page 116


 4120 1fd0 206F 0018 	move.l 24(%sp),%a0
 4121 1fd4 4240      	clr.w %d0
 4122 1fd6 3140 0004 	move.w %d0,4(%a0)
1699:/home/simulink/cFS_FreeRTOS_seL4/cfe/fsw/cfe-core/src/evs/cfe_evs_task.c **** 
1700:/home/simulink/cFS_FreeRTOS_seL4/cfe/fsw/cfe-core/src/evs/cfe_evs_task.c ****                EVS_SendEvent(CFE_EVS_ADDFILTER_EID, CFE_EVS_DEBUG,
1701:/home/simulink/cFS_FreeRTOS_seL4/cfe/fsw/cfe-core/src/evs/cfe_evs_task.c ****                                  "Add Filter Command Received with AppName = %s, EventID = 0x%08x, 
1702:/home/simulink/cFS_FreeRTOS_seL4/cfe/fsw/cfe-core/src/evs/cfe_evs_task.c ****                                  LocalName, CmdPtr->EventID, CmdPtr->Mask);
 4123               	.loc 1 1702 0
 4124 1fda 206F 0020 	move.l 32(%sp),%a0
 4125 1fde 3028 0016 	move.w 22(%a0),%d0
1700:/home/simulink/cFS_FreeRTOS_seL4/cfe/fsw/cfe-core/src/evs/cfe_evs_task.c ****                                  "Add Filter Command Received with AppName = %s, EventID = 0x%08x, 
 4126               	.loc 1 1700 0
 4127 1fe2 4281      	clr.l %d1
 4128 1fe4 3200      	move.w %d0,%d1
 4129               	.loc 1 1702 0
 4130 1fe6 206F 0020 	move.l 32(%sp),%a0
 4131 1fea 3028 0014 	move.w 20(%a0),%d0
1700:/home/simulink/cFS_FreeRTOS_seL4/cfe/fsw/cfe-core/src/evs/cfe_evs_task.c ****                                  "Add Filter Command Received with AppName = %s, EventID = 0x%08x, 
 4132               	.loc 1 1700 0
 4133 1fee 3000      	move.w %d0,%d0
 4134 1ff0 0280 0000 	and.l #65535,%d0
 4134      FFFF 
 4135 1ff6 2F01      	move.l %d1,-(%sp)
 4136               	.cfi_def_cfa_offset 48
 4137 1ff8 2F00      	move.l %d0,-(%sp)
 4138               	.cfi_def_cfa_offset 52
 4139 1ffa 200F      	move.l %sp,%d0
 4140 1ffc 5080      	addq.l #8,%d0
 4141 1ffe 2F00      	move.l %d0,-(%sp)
 4142               	.cfi_def_cfa_offset 56
 4143 2000 4879 0000 	pea .LC49
 4143      0000 
 4144               	.cfi_def_cfa_offset 60
 4145 2006 4878 0001 	pea 1.w
 4146               	.cfi_def_cfa_offset 64
 4147 200a 4878 001E 	pea 30.w
 4148               	.cfi_def_cfa_offset 68
 4149 200e 4EB9 0000 	jsr EVS_SendEvent
 4149      0000 
 4150 2014 4FEF 0018 	lea (24,%sp),%sp
 4151               	.cfi_def_cfa_offset 44
1703:/home/simulink/cFS_FreeRTOS_seL4/cfe/fsw/cfe-core/src/evs/cfe_evs_task.c **** 
1704:/home/simulink/cFS_FreeRTOS_seL4/cfe/fsw/cfe-core/src/evs/cfe_evs_task.c ****                Status = TRUE;
 4152               	.loc 1 1704 0
 4153 2018 7201      	moveq #1,%d1
 4154 201a 2F41 0024 	move.l %d1,36(%sp)
 4155 201e 6000 00BC 	jra .L230
 4156               	.L229:
1705:/home/simulink/cFS_FreeRTOS_seL4/cfe/fsw/cfe-core/src/evs/cfe_evs_task.c ****             }
1706:/home/simulink/cFS_FreeRTOS_seL4/cfe/fsw/cfe-core/src/evs/cfe_evs_task.c ****             else
1707:/home/simulink/cFS_FreeRTOS_seL4/cfe/fsw/cfe-core/src/evs/cfe_evs_task.c ****             {
1708:/home/simulink/cFS_FreeRTOS_seL4/cfe/fsw/cfe-core/src/evs/cfe_evs_task.c ****                EVS_SendEvent(CFE_EVS_ERR_MAXREGSFILTER_EID, CFE_EVS_ERROR,
 4157               	.loc 1 1708 0
 4158 2022 4878 0008 	pea 8.w
 4159               	.cfi_def_cfa_offset 48
 4160 2026 4879 0000 	pea .LC50
 4160      0000 
68K GAS   			page 117


 4161               	.cfi_def_cfa_offset 52
 4162 202c 4878 0003 	pea 3.w
 4163               	.cfi_def_cfa_offset 56
 4164 2030 4878 000B 	pea 11.w
 4165               	.cfi_def_cfa_offset 60
 4166 2034 4EB9 0000 	jsr EVS_SendEvent
 4166      0000 
 4167 203a 4FEF 0010 	lea (16,%sp),%sp
 4168               	.cfi_def_cfa_offset 44
1709:/home/simulink/cFS_FreeRTOS_seL4/cfe/fsw/cfe-core/src/evs/cfe_evs_task.c ****                                  "Add Filter Command: number of registered filters has reached max 
1710:/home/simulink/cFS_FreeRTOS_seL4/cfe/fsw/cfe-core/src/evs/cfe_evs_task.c ****                                  CFE_EVS_MAX_EVENT_FILTERS);
1711:/home/simulink/cFS_FreeRTOS_seL4/cfe/fsw/cfe-core/src/evs/cfe_evs_task.c **** 
1712:/home/simulink/cFS_FreeRTOS_seL4/cfe/fsw/cfe-core/src/evs/cfe_evs_task.c ****                Status = FALSE;
 4169               	.loc 1 1712 0
 4170 203e 42AF 0024 	clr.l 36(%sp)
 4171 2042 6000 0098 	jra .L230
 4172               	.L226:
1713:/home/simulink/cFS_FreeRTOS_seL4/cfe/fsw/cfe-core/src/evs/cfe_evs_task.c ****             }
1714:/home/simulink/cFS_FreeRTOS_seL4/cfe/fsw/cfe-core/src/evs/cfe_evs_task.c ****       }/* end else*/
1715:/home/simulink/cFS_FreeRTOS_seL4/cfe/fsw/cfe-core/src/evs/cfe_evs_task.c ****    } /* end if (Status == CFE_SUCCESS) */
1716:/home/simulink/cFS_FreeRTOS_seL4/cfe/fsw/cfe-core/src/evs/cfe_evs_task.c **** 
1717:/home/simulink/cFS_FreeRTOS_seL4/cfe/fsw/cfe-core/src/evs/cfe_evs_task.c ****    else if(Status == CFE_EVS_APP_NOT_REGISTERED)
 4173               	.loc 1 1717 0
 4174 2046 203C C200 	move.l #-1040187390,%d0
 4174      0002 
 4175 204c B0AF 0024 	cmp.l 36(%sp),%d0
 4176 2050 6628      	jne .L231
1718:/home/simulink/cFS_FreeRTOS_seL4/cfe/fsw/cfe-core/src/evs/cfe_evs_task.c ****    {
1719:/home/simulink/cFS_FreeRTOS_seL4/cfe/fsw/cfe-core/src/evs/cfe_evs_task.c ****       EVS_SendEvent(CFE_EVS_ERR_APPNOREGS_EID, CFE_EVS_ERROR,
 4177               	.loc 1 1719 0
 4178 2052 4878 000F 	pea 15.w
 4179               	.cfi_def_cfa_offset 48
 4180 2056 200F      	move.l %sp,%d0
 4181 2058 5880      	addq.l #4,%d0
 4182 205a 2F00      	move.l %d0,-(%sp)
 4183               	.cfi_def_cfa_offset 52
 4184 205c 4879 0000 	pea .LC27
 4184      0000 
 4185               	.cfi_def_cfa_offset 56
 4186 2062 4878 0003 	pea 3.w
 4187               	.cfi_def_cfa_offset 60
 4188 2066 4878 0007 	pea 7.w
 4189               	.cfi_def_cfa_offset 64
 4190 206a 4EB9 0000 	jsr EVS_SendEvent
 4190      0000 
 4191 2070 4FEF 0014 	lea (20,%sp),%sp
 4192               	.cfi_def_cfa_offset 44
1720:/home/simulink/cFS_FreeRTOS_seL4/cfe/fsw/cfe-core/src/evs/cfe_evs_task.c ****                         "%s not registered with EVS: CC = %lu",
1721:/home/simulink/cFS_FreeRTOS_seL4/cfe/fsw/cfe-core/src/evs/cfe_evs_task.c ****                         LocalName, (long unsigned int)CFE_EVS_ADD_EVENT_FILTER_CC);
1722:/home/simulink/cFS_FreeRTOS_seL4/cfe/fsw/cfe-core/src/evs/cfe_evs_task.c ****       Status = FALSE;
 4193               	.loc 1 1722 0
 4194 2074 42AF 0024 	clr.l 36(%sp)
 4195 2078 6062      	jra .L230
 4196               	.L231:
1723:/home/simulink/cFS_FreeRTOS_seL4/cfe/fsw/cfe-core/src/evs/cfe_evs_task.c ****    }
1724:/home/simulink/cFS_FreeRTOS_seL4/cfe/fsw/cfe-core/src/evs/cfe_evs_task.c ****    else if(Status == CFE_EVS_APP_ILLEGAL_APP_ID)
 4197               	.loc 1 1724 0
68K GAS   			page 118


 4198 207a 223C C200 	move.l #-1040187389,%d1
 4198      0003 
 4199 2080 B2AF 0024 	cmp.l 36(%sp),%d1
 4200 2084 6630      	jne .L232
1725:/home/simulink/cFS_FreeRTOS_seL4/cfe/fsw/cfe-core/src/evs/cfe_evs_task.c ****    {
1726:/home/simulink/cFS_FreeRTOS_seL4/cfe/fsw/cfe-core/src/evs/cfe_evs_task.c ****       EVS_SendEvent(CFE_EVS_ERR_ILLAPPIDRANGE_EID, CFE_EVS_ERROR,
 4201               	.loc 1 1726 0
 4202 2086 202F 0014 	move.l 20(%sp),%d0
 4203 208a 2200      	move.l %d0,%d1
 4204 208c 4878 000F 	pea 15.w
 4205               	.cfi_def_cfa_offset 48
 4206 2090 200F      	move.l %sp,%d0
 4207 2092 5880      	addq.l #4,%d0
 4208 2094 2F00      	move.l %d0,-(%sp)
 4209               	.cfi_def_cfa_offset 52
 4210 2096 2F01      	move.l %d1,-(%sp)
 4211               	.cfi_def_cfa_offset 56
 4212 2098 4879 0000 	pea .LC28
 4212      0000 
 4213               	.cfi_def_cfa_offset 60
 4214 209e 4878 0003 	pea 3.w
 4215               	.cfi_def_cfa_offset 64
 4216 20a2 4878 0008 	pea 8.w
 4217               	.cfi_def_cfa_offset 68
 4218 20a6 4EB9 0000 	jsr EVS_SendEvent
 4218      0000 
 4219 20ac 4FEF 0018 	lea (24,%sp),%sp
 4220               	.cfi_def_cfa_offset 44
1727:/home/simulink/cFS_FreeRTOS_seL4/cfe/fsw/cfe-core/src/evs/cfe_evs_task.c ****                         "Illegal application ID %d retrieved for %s: CC = %lu",
1728:/home/simulink/cFS_FreeRTOS_seL4/cfe/fsw/cfe-core/src/evs/cfe_evs_task.c ****                         (int)AppID, LocalName, (long unsigned int)CFE_EVS_ADD_EVENT_FILTER_CC);
1729:/home/simulink/cFS_FreeRTOS_seL4/cfe/fsw/cfe-core/src/evs/cfe_evs_task.c ****       Status = FALSE;
 4221               	.loc 1 1729 0
 4222 20b0 42AF 0024 	clr.l 36(%sp)
 4223 20b4 6026      	jra .L230
 4224               	.L232:
1730:/home/simulink/cFS_FreeRTOS_seL4/cfe/fsw/cfe-core/src/evs/cfe_evs_task.c ****    }
1731:/home/simulink/cFS_FreeRTOS_seL4/cfe/fsw/cfe-core/src/evs/cfe_evs_task.c ****    else
1732:/home/simulink/cFS_FreeRTOS_seL4/cfe/fsw/cfe-core/src/evs/cfe_evs_task.c ****    {
1733:/home/simulink/cFS_FreeRTOS_seL4/cfe/fsw/cfe-core/src/evs/cfe_evs_task.c ****       EVS_SendEvent(CFE_EVS_ERR_NOAPPIDFOUND_EID, CFE_EVS_ERROR,
 4225               	.loc 1 1733 0
 4226 20b6 4878 000F 	pea 15.w
 4227               	.cfi_def_cfa_offset 48
 4228 20ba 200F      	move.l %sp,%d0
 4229 20bc 5880      	addq.l #4,%d0
 4230 20be 2F00      	move.l %d0,-(%sp)
 4231               	.cfi_def_cfa_offset 52
 4232 20c0 4879 0000 	pea .LC29
 4232      0000 
 4233               	.cfi_def_cfa_offset 56
 4234 20c6 4878 0003 	pea 3.w
 4235               	.cfi_def_cfa_offset 60
 4236 20ca 4878 0009 	pea 9.w
 4237               	.cfi_def_cfa_offset 64
 4238 20ce 4EB9 0000 	jsr EVS_SendEvent
 4238      0000 
 4239 20d4 4FEF 0014 	lea (20,%sp),%sp
 4240               	.cfi_def_cfa_offset 44
68K GAS   			page 119


1734:/home/simulink/cFS_FreeRTOS_seL4/cfe/fsw/cfe-core/src/evs/cfe_evs_task.c ****                         "Unable to retrieve application ID for %s: CC = %lu",
1735:/home/simulink/cFS_FreeRTOS_seL4/cfe/fsw/cfe-core/src/evs/cfe_evs_task.c ****                         LocalName,(long unsigned int)CFE_EVS_ADD_EVENT_FILTER_CC);
1736:/home/simulink/cFS_FreeRTOS_seL4/cfe/fsw/cfe-core/src/evs/cfe_evs_task.c ****       Status = FALSE;
 4241               	.loc 1 1736 0
 4242 20d8 42AF 0024 	clr.l 36(%sp)
 4243               	.L230:
1737:/home/simulink/cFS_FreeRTOS_seL4/cfe/fsw/cfe-core/src/evs/cfe_evs_task.c ****    }
1738:/home/simulink/cFS_FreeRTOS_seL4/cfe/fsw/cfe-core/src/evs/cfe_evs_task.c **** 
1739:/home/simulink/cFS_FreeRTOS_seL4/cfe/fsw/cfe-core/src/evs/cfe_evs_task.c ****    return (boolean)Status;
 4244               	.loc 1 1739 0
 4245 20dc 202F 0024 	move.l 36(%sp),%d0
 4246 20e0 1000      	move.b %d0,%d0
1740:/home/simulink/cFS_FreeRTOS_seL4/cfe/fsw/cfe-core/src/evs/cfe_evs_task.c **** 
1741:/home/simulink/cFS_FreeRTOS_seL4/cfe/fsw/cfe-core/src/evs/cfe_evs_task.c **** } /* CFE_End EVS_AddEventFilterCmd */
 4247               	.loc 1 1741 0
 4248 20e2 4FEF 0028 	lea (40,%sp),%sp
 4249 20e6 4E75      	rts
 4250               	.cfi_endproc
 4251               	.LFE81:
 4252               	.sizeCFE_EVS_AddEventFilterCmd, .-CFE_EVS_AddEventFilterCmd
 4253               	.section.rodata
 4254               	.LC51:
 4255 0ab4 4465 6C65 	.string"Delete Filter Command Received with AppName = %s, EventID = 0x%08x"
 4255      7465 2046 
 4255      696C 7465 
 4255      7220 436F 
 4255      6D6D 616E 
 4256               	.text
 4257               	.align2
 4258               	.globlCFE_EVS_DeleteEventFilterCmd
 4259               	.typeCFE_EVS_DeleteEventFilterCmd, @function
 4260               	CFE_EVS_DeleteEventFilterCmd:
 4261               	.LFB82:
1742:/home/simulink/cFS_FreeRTOS_seL4/cfe/fsw/cfe-core/src/evs/cfe_evs_task.c **** 
1743:/home/simulink/cFS_FreeRTOS_seL4/cfe/fsw/cfe-core/src/evs/cfe_evs_task.c **** /*
1744:/home/simulink/cFS_FreeRTOS_seL4/cfe/fsw/cfe-core/src/evs/cfe_evs_task.c **** **             Function Prologue
1745:/home/simulink/cFS_FreeRTOS_seL4/cfe/fsw/cfe-core/src/evs/cfe_evs_task.c **** **
1746:/home/simulink/cFS_FreeRTOS_seL4/cfe/fsw/cfe-core/src/evs/cfe_evs_task.c **** ** Function Name:      CFE_EVS_DeleteEventFilterCmd
1747:/home/simulink/cFS_FreeRTOS_seL4/cfe/fsw/cfe-core/src/evs/cfe_evs_task.c **** **
1748:/home/simulink/cFS_FreeRTOS_seL4/cfe/fsw/cfe-core/src/evs/cfe_evs_task.c **** ** Purpose:  This routine deletes the event filter for the given application
1749:/home/simulink/cFS_FreeRTOS_seL4/cfe/fsw/cfe-core/src/evs/cfe_evs_task.c **** **           identifer and event identifier
1750:/home/simulink/cFS_FreeRTOS_seL4/cfe/fsw/cfe-core/src/evs/cfe_evs_task.c **** **
1751:/home/simulink/cFS_FreeRTOS_seL4/cfe/fsw/cfe-core/src/evs/cfe_evs_task.c **** ** Assumptions and Notes:
1752:/home/simulink/cFS_FreeRTOS_seL4/cfe/fsw/cfe-core/src/evs/cfe_evs_task.c **** **
1753:/home/simulink/cFS_FreeRTOS_seL4/cfe/fsw/cfe-core/src/evs/cfe_evs_task.c **** */
1754:/home/simulink/cFS_FreeRTOS_seL4/cfe/fsw/cfe-core/src/evs/cfe_evs_task.c **** boolean CFE_EVS_DeleteEventFilterCmd (const CFE_SB_MsgPayloadPtr_t Payload)
1755:/home/simulink/cFS_FreeRTOS_seL4/cfe/fsw/cfe-core/src/evs/cfe_evs_task.c **** {
 4262               	.loc 1 1755 0
 4263               	.cfi_startproc
 4264 20e8 4FEF FFD8 	lea (-40,%sp),%sp
 4265               	.cfi_def_cfa_offset 44
1756:/home/simulink/cFS_FreeRTOS_seL4/cfe/fsw/cfe-core/src/evs/cfe_evs_task.c ****    const CFE_EVS_AppNameEventIDCmd_Payload_t *CmdPtr = (const CFE_EVS_AppNameEventIDCmd_Payload_t *
 4266               	.loc 1 1756 0
 4267 20ec 2F6F 002C 	move.l 44(%sp),32(%sp)
 4267      0020 
1757:/home/simulink/cFS_FreeRTOS_seL4/cfe/fsw/cfe-core/src/evs/cfe_evs_task.c ****    EVS_BinFilter_t     *FilterPtr;
1758:/home/simulink/cFS_FreeRTOS_seL4/cfe/fsw/cfe-core/src/evs/cfe_evs_task.c ****    uint32               AppID = CFE_EVS_UNDEF_APPID;
68K GAS   			page 120


 4268               	.loc 1 1758 0
 4269 20f2 70FF      	moveq #-1,%d0
 4270 20f4 2F40 0014 	move.l %d0,20(%sp)
1759:/home/simulink/cFS_FreeRTOS_seL4/cfe/fsw/cfe-core/src/evs/cfe_evs_task.c ****    int32                Status;
1760:/home/simulink/cFS_FreeRTOS_seL4/cfe/fsw/cfe-core/src/evs/cfe_evs_task.c ****    EVS_AppData_t       *AppDataPtr;
1761:/home/simulink/cFS_FreeRTOS_seL4/cfe/fsw/cfe-core/src/evs/cfe_evs_task.c ****    char                 LocalName[OS_MAX_API_NAME];
1762:/home/simulink/cFS_FreeRTOS_seL4/cfe/fsw/cfe-core/src/evs/cfe_evs_task.c **** 
1763:/home/simulink/cFS_FreeRTOS_seL4/cfe/fsw/cfe-core/src/evs/cfe_evs_task.c ****    /*
1764:/home/simulink/cFS_FreeRTOS_seL4/cfe/fsw/cfe-core/src/evs/cfe_evs_task.c ****     * Althgouh EVS_GetApplicationInfo() does not require a null terminated argument,
1765:/home/simulink/cFS_FreeRTOS_seL4/cfe/fsw/cfe-core/src/evs/cfe_evs_task.c ****     * the value is passed to EVS_SendEvent which does require termination (normal C string)
1766:/home/simulink/cFS_FreeRTOS_seL4/cfe/fsw/cfe-core/src/evs/cfe_evs_task.c ****     */
1767:/home/simulink/cFS_FreeRTOS_seL4/cfe/fsw/cfe-core/src/evs/cfe_evs_task.c ****    CFE_SB_MessageStringGet(LocalName, (char *)CmdPtr->AppName, NULL, OS_MAX_API_NAME, sizeof(CmdPtr
 4271               	.loc 1 1767 0
 4272 20f8 202F 0020 	move.l 32(%sp),%d0
 4273 20fc 4878 0014 	pea 20.w
 4274               	.cfi_def_cfa_offset 48
 4275 2100 4878 0014 	pea 20.w
 4276               	.cfi_def_cfa_offset 52
 4277 2104 42A7      	clr.l -(%sp)
 4278               	.cfi_def_cfa_offset 56
 4279 2106 2F00      	move.l %d0,-(%sp)
 4280               	.cfi_def_cfa_offset 60
 4281 2108 200F      	move.l %sp,%d0
 4282 210a 0680 0000 	add.l #16,%d0
 4282      0010 
 4283 2110 2F00      	move.l %d0,-(%sp)
 4284               	.cfi_def_cfa_offset 64
 4285 2112 4EB9 0000 	jsr CFE_SB_MessageStringGet
 4285      0000 
 4286 2118 4FEF 0014 	lea (20,%sp),%sp
 4287               	.cfi_def_cfa_offset 44
1768:/home/simulink/cFS_FreeRTOS_seL4/cfe/fsw/cfe-core/src/evs/cfe_evs_task.c **** 
1769:/home/simulink/cFS_FreeRTOS_seL4/cfe/fsw/cfe-core/src/evs/cfe_evs_task.c ****    /* Retreive application data */
1770:/home/simulink/cFS_FreeRTOS_seL4/cfe/fsw/cfe-core/src/evs/cfe_evs_task.c ****    Status = EVS_GetApplicationInfo(&AppID, LocalName);
 4288               	.loc 1 1770 0
 4289 211c 200F      	move.l %sp,%d0
 4290 211e 2F00      	move.l %d0,-(%sp)
 4291               	.cfi_def_cfa_offset 48
 4292 2120 200F      	move.l %sp,%d0
 4293 2122 0680 0000 	add.l #24,%d0
 4293      0018 
 4294 2128 2F00      	move.l %d0,-(%sp)
 4295               	.cfi_def_cfa_offset 52
 4296 212a 4EB9 0000 	jsr EVS_GetApplicationInfo
 4296      0000 
 4297 2130 508F      	addq.l #8,%sp
 4298               	.cfi_def_cfa_offset 44
 4299 2132 2F40 0024 	move.l %d0,36(%sp)
1771:/home/simulink/cFS_FreeRTOS_seL4/cfe/fsw/cfe-core/src/evs/cfe_evs_task.c **** 
1772:/home/simulink/cFS_FreeRTOS_seL4/cfe/fsw/cfe-core/src/evs/cfe_evs_task.c ****    if(Status == CFE_SUCCESS)
 4300               	.loc 1 1772 0
 4301 2136 4AAF 0024 	tst.l 36(%sp)
 4302 213a 6600 00CE 	jne .L235
1773:/home/simulink/cFS_FreeRTOS_seL4/cfe/fsw/cfe-core/src/evs/cfe_evs_task.c ****    {
1774:/home/simulink/cFS_FreeRTOS_seL4/cfe/fsw/cfe-core/src/evs/cfe_evs_task.c ****       AppDataPtr = &CFE_EVS_GlobalData.AppData[AppID];
 4303               	.loc 1 1774 0
 4304 213e 202F 0014 	move.l 20(%sp),%d0
68K GAS   			page 121


 4305 2142 7246      	moveq #70,%d1
 4306 2144 4C01 0800 	muls.l %d1,%d0
 4307 2148 2200      	move.l %d0,%d1
 4308 214a 0681 0000 	add.l #CFE_EVS_GlobalData,%d1
 4308      0000 
 4309 2150 2F41 001C 	move.l %d1,28(%sp)
1775:/home/simulink/cFS_FreeRTOS_seL4/cfe/fsw/cfe-core/src/evs/cfe_evs_task.c **** 
1776:/home/simulink/cFS_FreeRTOS_seL4/cfe/fsw/cfe-core/src/evs/cfe_evs_task.c ****       FilterPtr = EVS_FindEventID(CmdPtr->EventID, AppDataPtr->BinFilters);
 4310               	.loc 1 1776 0
 4311 2154 202F 001C 	move.l 28(%sp),%d0
 4312 2158 206F 0020 	move.l 32(%sp),%a0
 4313 215c 3228 0014 	move.w 20(%a0),%d1
 4314 2160 3041      	move.w %d1,%a0
 4315 2162 2F00      	move.l %d0,-(%sp)
 4316               	.cfi_def_cfa_offset 48
 4317 2164 2F08      	move.l %a0,-(%sp)
 4318               	.cfi_def_cfa_offset 52
 4319 2166 4EB9 0000 	jsr EVS_FindEventID
 4319      0000 
 4320 216c 508F      	addq.l #8,%sp
 4321               	.cfi_def_cfa_offset 44
 4322 216e 2F40 0018 	move.l %d0,24(%sp)
1777:/home/simulink/cFS_FreeRTOS_seL4/cfe/fsw/cfe-core/src/evs/cfe_evs_task.c **** 
1778:/home/simulink/cFS_FreeRTOS_seL4/cfe/fsw/cfe-core/src/evs/cfe_evs_task.c ****       if(FilterPtr != NULL)
 4323               	.loc 1 1778 0
 4324 2172 4AAF 0018 	tst.l 24(%sp)
 4325 2176 6756      	jeq .L236
1779:/home/simulink/cFS_FreeRTOS_seL4/cfe/fsw/cfe-core/src/evs/cfe_evs_task.c ****       {
1780:/home/simulink/cFS_FreeRTOS_seL4/cfe/fsw/cfe-core/src/evs/cfe_evs_task.c ****          /* Clear Filter Contents */
1781:/home/simulink/cFS_FreeRTOS_seL4/cfe/fsw/cfe-core/src/evs/cfe_evs_task.c ****          FilterPtr->EventID = CFE_EVS_FREE_SLOT;
 4326               	.loc 1 1781 0
 4327 2178 206F 0018 	move.l 24(%sp),%a0
 4328 217c 30BC FFFF 	move.w #-1,(%a0)
1782:/home/simulink/cFS_FreeRTOS_seL4/cfe/fsw/cfe-core/src/evs/cfe_evs_task.c ****          FilterPtr->Mask = CFE_EVS_NO_MASK;
 4329               	.loc 1 1782 0
 4330 2180 206F 0018 	move.l 24(%sp),%a0
 4331 2184 4240      	clr.w %d0
 4332 2186 3140 0002 	move.w %d0,2(%a0)
1783:/home/simulink/cFS_FreeRTOS_seL4/cfe/fsw/cfe-core/src/evs/cfe_evs_task.c ****          FilterPtr->Count = 0;
 4333               	.loc 1 1783 0
 4334 218a 206F 0018 	move.l 24(%sp),%a0
 4335 218e 4241      	clr.w %d1
 4336 2190 3141 0004 	move.w %d1,4(%a0)
1784:/home/simulink/cFS_FreeRTOS_seL4/cfe/fsw/cfe-core/src/evs/cfe_evs_task.c **** 
1785:/home/simulink/cFS_FreeRTOS_seL4/cfe/fsw/cfe-core/src/evs/cfe_evs_task.c ****          EVS_SendEvent(CFE_EVS_DELFILTER_EID, CFE_EVS_DEBUG,
1786:/home/simulink/cFS_FreeRTOS_seL4/cfe/fsw/cfe-core/src/evs/cfe_evs_task.c ****                            "Delete Filter Command Received with AppName = %s, EventID = 0x%08x",
1787:/home/simulink/cFS_FreeRTOS_seL4/cfe/fsw/cfe-core/src/evs/cfe_evs_task.c ****                            LocalName, CmdPtr->EventID);
 4337               	.loc 1 1787 0
 4338 2194 206F 0020 	move.l 32(%sp),%a0
 4339 2198 3028 0014 	move.w 20(%a0),%d0
1785:/home/simulink/cFS_FreeRTOS_seL4/cfe/fsw/cfe-core/src/evs/cfe_evs_task.c ****                            "Delete Filter Command Received with AppName = %s, EventID = 0x%08x",
 4340               	.loc 1 1785 0
 4341 219c 3000      	move.w %d0,%d0
 4342 219e 0280 0000 	and.l #65535,%d0
 4342      FFFF 
 4343 21a4 2F00      	move.l %d0,-(%sp)
 4344               	.cfi_def_cfa_offset 48
68K GAS   			page 122


 4345 21a6 200F      	move.l %sp,%d0
 4346 21a8 5880      	addq.l #4,%d0
 4347 21aa 2F00      	move.l %d0,-(%sp)
 4348               	.cfi_def_cfa_offset 52
 4349 21ac 4879 0000 	pea .LC51
 4349      0000 
 4350               	.cfi_def_cfa_offset 56
 4351 21b2 4878 0001 	pea 1.w
 4352               	.cfi_def_cfa_offset 60
 4353 21b6 4878 001F 	pea 31.w
 4354               	.cfi_def_cfa_offset 64
 4355 21ba 4EB9 0000 	jsr EVS_SendEvent
 4355      0000 
 4356 21c0 4FEF 0014 	lea (20,%sp),%sp
 4357               	.cfi_def_cfa_offset 44
1788:/home/simulink/cFS_FreeRTOS_seL4/cfe/fsw/cfe-core/src/evs/cfe_evs_task.c **** 
1789:/home/simulink/cFS_FreeRTOS_seL4/cfe/fsw/cfe-core/src/evs/cfe_evs_task.c ****          Status = TRUE;
 4358               	.loc 1 1789 0
 4359 21c4 7001      	moveq #1,%d0
 4360 21c6 2F40 0024 	move.l %d0,36(%sp)
 4361 21ca 6000 00D4 	jra .L238
 4362               	.L236:
1790:/home/simulink/cFS_FreeRTOS_seL4/cfe/fsw/cfe-core/src/evs/cfe_evs_task.c ****       }
1791:/home/simulink/cFS_FreeRTOS_seL4/cfe/fsw/cfe-core/src/evs/cfe_evs_task.c ****       else
1792:/home/simulink/cFS_FreeRTOS_seL4/cfe/fsw/cfe-core/src/evs/cfe_evs_task.c ****       {
1793:/home/simulink/cFS_FreeRTOS_seL4/cfe/fsw/cfe-core/src/evs/cfe_evs_task.c ****          EVS_SendEvent(CFE_EVS_ERR_EVTIDNOREGS_EID, CFE_EVS_ERROR,
1794:/home/simulink/cFS_FreeRTOS_seL4/cfe/fsw/cfe-core/src/evs/cfe_evs_task.c ****                            "%s Event ID %d not registered for filtering: CC = %lu",
1795:/home/simulink/cFS_FreeRTOS_seL4/cfe/fsw/cfe-core/src/evs/cfe_evs_task.c ****                            LocalName, (int)CmdPtr->EventID, (long unsigned int)CFE_EVS_DELETE_EVENT
 4363               	.loc 1 1795 0
 4364 21ce 206F 0020 	move.l 32(%sp),%a0
 4365 21d2 3028 0014 	move.w 20(%a0),%d0
1793:/home/simulink/cFS_FreeRTOS_seL4/cfe/fsw/cfe-core/src/evs/cfe_evs_task.c ****                            "%s Event ID %d not registered for filtering: CC = %lu",
 4366               	.loc 1 1793 0
 4367 21d6 3000      	move.w %d0,%d0
 4368 21d8 0280 0000 	and.l #65535,%d0
 4368      FFFF 
 4369 21de 4878 0010 	pea 16.w
 4370               	.cfi_def_cfa_offset 48
 4371 21e2 2F00      	move.l %d0,-(%sp)
 4372               	.cfi_def_cfa_offset 52
 4373 21e4 200F      	move.l %sp,%d0
 4374 21e6 5080      	addq.l #8,%d0
 4375 21e8 2F00      	move.l %d0,-(%sp)
 4376               	.cfi_def_cfa_offset 56
 4377 21ea 4879 0000 	pea .LC46
 4377      0000 
 4378               	.cfi_def_cfa_offset 60
 4379 21f0 4878 0003 	pea 3.w
 4380               	.cfi_def_cfa_offset 64
 4381 21f4 4878 0006 	pea 6.w
 4382               	.cfi_def_cfa_offset 68
 4383 21f8 4EB9 0000 	jsr EVS_SendEvent
 4383      0000 
 4384 21fe 4FEF 0018 	lea (24,%sp),%sp
 4385               	.cfi_def_cfa_offset 44
1796:/home/simulink/cFS_FreeRTOS_seL4/cfe/fsw/cfe-core/src/evs/cfe_evs_task.c ****          Status = FALSE;
 4386               	.loc 1 1796 0
68K GAS   			page 123


 4387 2202 42AF 0024 	clr.l 36(%sp)
 4388 2206 6000 0098 	jra .L238
 4389               	.L235:
1797:/home/simulink/cFS_FreeRTOS_seL4/cfe/fsw/cfe-core/src/evs/cfe_evs_task.c ****       }
1798:/home/simulink/cFS_FreeRTOS_seL4/cfe/fsw/cfe-core/src/evs/cfe_evs_task.c ****    }
1799:/home/simulink/cFS_FreeRTOS_seL4/cfe/fsw/cfe-core/src/evs/cfe_evs_task.c ****    else if(Status == CFE_EVS_APP_NOT_REGISTERED)
 4390               	.loc 1 1799 0
 4391 220a 223C C200 	move.l #-1040187390,%d1
 4391      0002 
 4392 2210 B2AF 0024 	cmp.l 36(%sp),%d1
 4393 2214 6628      	jne .L239
1800:/home/simulink/cFS_FreeRTOS_seL4/cfe/fsw/cfe-core/src/evs/cfe_evs_task.c ****    {
1801:/home/simulink/cFS_FreeRTOS_seL4/cfe/fsw/cfe-core/src/evs/cfe_evs_task.c ****       EVS_SendEvent(CFE_EVS_ERR_APPNOREGS_EID, CFE_EVS_ERROR,
 4394               	.loc 1 1801 0
 4395 2216 4878 0010 	pea 16.w
 4396               	.cfi_def_cfa_offset 48
 4397 221a 200F      	move.l %sp,%d0
 4398 221c 5880      	addq.l #4,%d0
 4399 221e 2F00      	move.l %d0,-(%sp)
 4400               	.cfi_def_cfa_offset 52
 4401 2220 4879 0000 	pea .LC27
 4401      0000 
 4402               	.cfi_def_cfa_offset 56
 4403 2226 4878 0003 	pea 3.w
 4404               	.cfi_def_cfa_offset 60
 4405 222a 4878 0007 	pea 7.w
 4406               	.cfi_def_cfa_offset 64
 4407 222e 4EB9 0000 	jsr EVS_SendEvent
 4407      0000 
 4408 2234 4FEF 0014 	lea (20,%sp),%sp
 4409               	.cfi_def_cfa_offset 44
1802:/home/simulink/cFS_FreeRTOS_seL4/cfe/fsw/cfe-core/src/evs/cfe_evs_task.c ****                         "%s not registered with EVS: CC = %lu",
1803:/home/simulink/cFS_FreeRTOS_seL4/cfe/fsw/cfe-core/src/evs/cfe_evs_task.c ****                         LocalName, (long unsigned int)CFE_EVS_DELETE_EVENT_FILTER_CC);
1804:/home/simulink/cFS_FreeRTOS_seL4/cfe/fsw/cfe-core/src/evs/cfe_evs_task.c ****       Status = FALSE;
 4410               	.loc 1 1804 0
 4411 2238 42AF 0024 	clr.l 36(%sp)
 4412 223c 6062      	jra .L238
 4413               	.L239:
1805:/home/simulink/cFS_FreeRTOS_seL4/cfe/fsw/cfe-core/src/evs/cfe_evs_task.c ****    }
1806:/home/simulink/cFS_FreeRTOS_seL4/cfe/fsw/cfe-core/src/evs/cfe_evs_task.c ****    else if(Status == CFE_EVS_APP_ILLEGAL_APP_ID)
 4414               	.loc 1 1806 0
 4415 223e 203C C200 	move.l #-1040187389,%d0
 4415      0003 
 4416 2244 B0AF 0024 	cmp.l 36(%sp),%d0
 4417 2248 6630      	jne .L240
1807:/home/simulink/cFS_FreeRTOS_seL4/cfe/fsw/cfe-core/src/evs/cfe_evs_task.c ****    {
1808:/home/simulink/cFS_FreeRTOS_seL4/cfe/fsw/cfe-core/src/evs/cfe_evs_task.c ****       EVS_SendEvent(CFE_EVS_ERR_ILLAPPIDRANGE_EID, CFE_EVS_ERROR,
 4418               	.loc 1 1808 0
 4419 224a 202F 0014 	move.l 20(%sp),%d0
 4420 224e 2200      	move.l %d0,%d1
 4421 2250 4878 0010 	pea 16.w
 4422               	.cfi_def_cfa_offset 48
 4423 2254 200F      	move.l %sp,%d0
 4424 2256 5880      	addq.l #4,%d0
 4425 2258 2F00      	move.l %d0,-(%sp)
 4426               	.cfi_def_cfa_offset 52
 4427 225a 2F01      	move.l %d1,-(%sp)
68K GAS   			page 124


 4428               	.cfi_def_cfa_offset 56
 4429 225c 4879 0000 	pea .LC28
 4429      0000 
 4430               	.cfi_def_cfa_offset 60
 4431 2262 4878 0003 	pea 3.w
 4432               	.cfi_def_cfa_offset 64
 4433 2266 4878 0008 	pea 8.w
 4434               	.cfi_def_cfa_offset 68
 4435 226a 4EB9 0000 	jsr EVS_SendEvent
 4435      0000 
 4436 2270 4FEF 0018 	lea (24,%sp),%sp
 4437               	.cfi_def_cfa_offset 44
1809:/home/simulink/cFS_FreeRTOS_seL4/cfe/fsw/cfe-core/src/evs/cfe_evs_task.c ****                         "Illegal application ID %d retrieved for %s: CC = %lu",
1810:/home/simulink/cFS_FreeRTOS_seL4/cfe/fsw/cfe-core/src/evs/cfe_evs_task.c ****                         (int)AppID, LocalName, (long unsigned int)CFE_EVS_DELETE_EVENT_FILTER_CC);
1811:/home/simulink/cFS_FreeRTOS_seL4/cfe/fsw/cfe-core/src/evs/cfe_evs_task.c ****       Status = FALSE;
 4438               	.loc 1 1811 0
 4439 2274 42AF 0024 	clr.l 36(%sp)
 4440 2278 6026      	jra .L238
 4441               	.L240:
1812:/home/simulink/cFS_FreeRTOS_seL4/cfe/fsw/cfe-core/src/evs/cfe_evs_task.c ****    }
1813:/home/simulink/cFS_FreeRTOS_seL4/cfe/fsw/cfe-core/src/evs/cfe_evs_task.c ****    else
1814:/home/simulink/cFS_FreeRTOS_seL4/cfe/fsw/cfe-core/src/evs/cfe_evs_task.c ****    {
1815:/home/simulink/cFS_FreeRTOS_seL4/cfe/fsw/cfe-core/src/evs/cfe_evs_task.c ****       EVS_SendEvent(CFE_EVS_ERR_NOAPPIDFOUND_EID, CFE_EVS_ERROR,
 4442               	.loc 1 1815 0
 4443 227a 4878 0010 	pea 16.w
 4444               	.cfi_def_cfa_offset 48
 4445 227e 200F      	move.l %sp,%d0
 4446 2280 5880      	addq.l #4,%d0
 4447 2282 2F00      	move.l %d0,-(%sp)
 4448               	.cfi_def_cfa_offset 52
 4449 2284 4879 0000 	pea .LC29
 4449      0000 
 4450               	.cfi_def_cfa_offset 56
 4451 228a 4878 0003 	pea 3.w
 4452               	.cfi_def_cfa_offset 60
 4453 228e 4878 0009 	pea 9.w
 4454               	.cfi_def_cfa_offset 64
 4455 2292 4EB9 0000 	jsr EVS_SendEvent
 4455      0000 
 4456 2298 4FEF 0014 	lea (20,%sp),%sp
 4457               	.cfi_def_cfa_offset 44
1816:/home/simulink/cFS_FreeRTOS_seL4/cfe/fsw/cfe-core/src/evs/cfe_evs_task.c ****                         "Unable to retrieve application ID for %s: CC = %lu",
1817:/home/simulink/cFS_FreeRTOS_seL4/cfe/fsw/cfe-core/src/evs/cfe_evs_task.c ****                         LocalName, (long unsigned int)CFE_EVS_DELETE_EVENT_FILTER_CC);
1818:/home/simulink/cFS_FreeRTOS_seL4/cfe/fsw/cfe-core/src/evs/cfe_evs_task.c ****       Status = FALSE;
 4458               	.loc 1 1818 0
 4459 229c 42AF 0024 	clr.l 36(%sp)
 4460               	.L238:
1819:/home/simulink/cFS_FreeRTOS_seL4/cfe/fsw/cfe-core/src/evs/cfe_evs_task.c ****    }
1820:/home/simulink/cFS_FreeRTOS_seL4/cfe/fsw/cfe-core/src/evs/cfe_evs_task.c **** 
1821:/home/simulink/cFS_FreeRTOS_seL4/cfe/fsw/cfe-core/src/evs/cfe_evs_task.c ****    return (boolean)Status;
 4461               	.loc 1 1821 0
 4462 22a0 202F 0024 	move.l 36(%sp),%d0
 4463 22a4 1000      	move.b %d0,%d0
1822:/home/simulink/cFS_FreeRTOS_seL4/cfe/fsw/cfe-core/src/evs/cfe_evs_task.c **** 
1823:/home/simulink/cFS_FreeRTOS_seL4/cfe/fsw/cfe-core/src/evs/cfe_evs_task.c **** } /* End EVS_DeleteEventFilterCmd */
 4464               	.loc 1 1823 0
 4465 22a6 4FEF 0028 	lea (40,%sp),%sp
68K GAS   			page 125


 4466 22aa 4E75      	rts
 4467               	.cfi_endproc
 4468               	.LFE82:
 4469               	.sizeCFE_EVS_DeleteEventFilterCmd, .-CFE_EVS_DeleteEventFilterCmd
 4470               	.section.rodata
 4471               	.LC52:
 4472 0af7 2F72 616D 	.string"/ram/cfe_evs_app.dat"
 4472      2F63 6665 
 4472      5F65 7673 
 4472      5F61 7070 
 4472      2E64 6174 
 4473               	.LC53:
 4474 0b0c 5772 6974 	.string"Write App Data Command Error: OS_creat = 0x%08X, filename = %s"
 4474      6520 4170 
 4474      7020 4461 
 4474      7461 2043 
 4474      6F6D 6D61 
 4475               	.LC54:
 4476 0b4b 4556 5320 	.string"EVS Application Data File"
 4476      4170 706C 
 4476      6963 6174 
 4476      696F 6E20 
 4476      4461 7461 
 4477               	.LC55:
 4478 0b65 5772 6974 	.string"Write App Data Command Error: OS_write = 0x%08X, filename = %s"
 4478      6520 4170 
 4478      7020 4461 
 4478      7461 2043 
 4478      6F6D 6D61 
 4479               	.LC56:
 4480 0ba4 5772 6974 	.string"Write App Data Command: %d application data entries written to %s"
 4480      6520 4170 
 4480      7020 4461 
 4480      7461 2043 
 4480      6F6D 6D61 
 4481               	.text
 4482               	.align2
 4483               	.globlCFE_EVS_WriteAppDataCmd
 4484               	.typeCFE_EVS_WriteAppDataCmd, @function
 4485               	CFE_EVS_WriteAppDataCmd:
 4486               	.LFB83:
1824:/home/simulink/cFS_FreeRTOS_seL4/cfe/fsw/cfe-core/src/evs/cfe_evs_task.c **** 
1825:/home/simulink/cFS_FreeRTOS_seL4/cfe/fsw/cfe-core/src/evs/cfe_evs_task.c **** 
1826:/home/simulink/cFS_FreeRTOS_seL4/cfe/fsw/cfe-core/src/evs/cfe_evs_task.c **** /*
1827:/home/simulink/cFS_FreeRTOS_seL4/cfe/fsw/cfe-core/src/evs/cfe_evs_task.c **** **             Function Prologue
1828:/home/simulink/cFS_FreeRTOS_seL4/cfe/fsw/cfe-core/src/evs/cfe_evs_task.c **** **
1829:/home/simulink/cFS_FreeRTOS_seL4/cfe/fsw/cfe-core/src/evs/cfe_evs_task.c **** ** Function Name:      CFE_EVS_WriteAppDataCmd
1830:/home/simulink/cFS_FreeRTOS_seL4/cfe/fsw/cfe-core/src/evs/cfe_evs_task.c **** **
1831:/home/simulink/cFS_FreeRTOS_seL4/cfe/fsw/cfe-core/src/evs/cfe_evs_task.c **** ** Purpose:  This routine writes all application data to a file for all applications that
1832:/home/simulink/cFS_FreeRTOS_seL4/cfe/fsw/cfe-core/src/evs/cfe_evs_task.c **** **           have registered with the EVS.  The application data includes the Application ID,
1833:/home/simulink/cFS_FreeRTOS_seL4/cfe/fsw/cfe-core/src/evs/cfe_evs_task.c **** **           Active Flag, Event Count, Event Types Active Flag, and Filter Data.
1834:/home/simulink/cFS_FreeRTOS_seL4/cfe/fsw/cfe-core/src/evs/cfe_evs_task.c **** **
1835:/home/simulink/cFS_FreeRTOS_seL4/cfe/fsw/cfe-core/src/evs/cfe_evs_task.c **** ** Assumptions and Notes:
1836:/home/simulink/cFS_FreeRTOS_seL4/cfe/fsw/cfe-core/src/evs/cfe_evs_task.c **** **
1837:/home/simulink/cFS_FreeRTOS_seL4/cfe/fsw/cfe-core/src/evs/cfe_evs_task.c **** */
1838:/home/simulink/cFS_FreeRTOS_seL4/cfe/fsw/cfe-core/src/evs/cfe_evs_task.c **** boolean CFE_EVS_WriteAppDataCmd ( const CFE_SB_MsgPayloadPtr_t Payload )
1839:/home/simulink/cFS_FreeRTOS_seL4/cfe/fsw/cfe-core/src/evs/cfe_evs_task.c **** {
68K GAS   			page 126


 4487               	.loc 1 1839 0
 4488               	.cfi_startproc
 4489 22ac 4FEF FF64 	lea (-156,%sp),%sp
 4490               	.cfi_def_cfa_offset 160
1840:/home/simulink/cFS_FreeRTOS_seL4/cfe/fsw/cfe-core/src/evs/cfe_evs_task.c ****    boolean                           Result = FALSE;
 4491               	.loc 1 1840 0
 4492 22b0 4200      	clr.b %d0
 4493 22b2 1F40 009B 	move.b %d0,155(%sp)
1841:/home/simulink/cFS_FreeRTOS_seL4/cfe/fsw/cfe-core/src/evs/cfe_evs_task.c ****    int32                             FileHandle;
1842:/home/simulink/cFS_FreeRTOS_seL4/cfe/fsw/cfe-core/src/evs/cfe_evs_task.c ****    int32                             BytesWritten;
1843:/home/simulink/cFS_FreeRTOS_seL4/cfe/fsw/cfe-core/src/evs/cfe_evs_task.c ****    uint32                            EntryCount = 0;
 4494               	.loc 1 1843 0
 4495 22b6 42AF 0094 	clr.l 148(%sp)
1844:/home/simulink/cFS_FreeRTOS_seL4/cfe/fsw/cfe-core/src/evs/cfe_evs_task.c ****    uint32                            i;
1845:/home/simulink/cFS_FreeRTOS_seL4/cfe/fsw/cfe-core/src/evs/cfe_evs_task.c ****    static CFE_EVS_AppDataFile_t      AppDataFile;
1846:/home/simulink/cFS_FreeRTOS_seL4/cfe/fsw/cfe-core/src/evs/cfe_evs_task.c ****    CFE_FS_Header_t                   FileHdr;
1847:/home/simulink/cFS_FreeRTOS_seL4/cfe/fsw/cfe-core/src/evs/cfe_evs_task.c ****    EVS_AppData_t                    *AppDataPtr;
1848:/home/simulink/cFS_FreeRTOS_seL4/cfe/fsw/cfe-core/src/evs/cfe_evs_task.c ****    const CFE_EVS_AppDataCmd_Payload_t *CmdPtr = (const CFE_EVS_AppDataCmd_Payload_t *)Payload;
 4496               	.loc 1 1848 0
 4497 22ba 2F6F 00A0 	move.l 160(%sp),140(%sp)
 4497      008C 
1849:/home/simulink/cFS_FreeRTOS_seL4/cfe/fsw/cfe-core/src/evs/cfe_evs_task.c ****    char                              LocalName[OS_MAX_PATH_LEN];
1850:/home/simulink/cFS_FreeRTOS_seL4/cfe/fsw/cfe-core/src/evs/cfe_evs_task.c **** 
1851:/home/simulink/cFS_FreeRTOS_seL4/cfe/fsw/cfe-core/src/evs/cfe_evs_task.c ****    /* Copy the commanded filename into local buffer to ensure size limitation and to allow for modi
1852:/home/simulink/cFS_FreeRTOS_seL4/cfe/fsw/cfe-core/src/evs/cfe_evs_task.c ****    CFE_SB_MessageStringGet(LocalName, CmdPtr->AppDataFilename, CFE_EVS_DEFAULT_APP_DATA_FILE,
 4498               	.loc 1 1852 0
 4499 22c0 202F 008C 	move.l 140(%sp),%d0
 4500 22c4 4878 0040 	pea 64.w
 4501               	.cfi_def_cfa_offset 164
 4502 22c8 4878 0040 	pea 64.w
 4503               	.cfi_def_cfa_offset 168
 4504 22cc 4879 0000 	pea .LC52
 4504      0000 
 4505               	.cfi_def_cfa_offset 172
 4506 22d2 2F00      	move.l %d0,-(%sp)
 4507               	.cfi_def_cfa_offset 176
 4508 22d4 200F      	move.l %sp,%d0
 4509 22d6 0680 0000 	add.l #16,%d0
 4509      0010 
 4510 22dc 2F00      	move.l %d0,-(%sp)
 4511               	.cfi_def_cfa_offset 180
 4512 22de 4EB9 0000 	jsr CFE_SB_MessageStringGet
 4512      0000 
 4513 22e4 4FEF 0014 	lea (20,%sp),%sp
 4514               	.cfi_def_cfa_offset 160
1853:/home/simulink/cFS_FreeRTOS_seL4/cfe/fsw/cfe-core/src/evs/cfe_evs_task.c ****            OS_MAX_PATH_LEN, sizeof(CmdPtr->AppDataFilename));
1854:/home/simulink/cFS_FreeRTOS_seL4/cfe/fsw/cfe-core/src/evs/cfe_evs_task.c **** 
1855:/home/simulink/cFS_FreeRTOS_seL4/cfe/fsw/cfe-core/src/evs/cfe_evs_task.c ****    /* Create Application Data File */
1856:/home/simulink/cFS_FreeRTOS_seL4/cfe/fsw/cfe-core/src/evs/cfe_evs_task.c ****    FileHandle = OS_creat(LocalName, OS_WRITE_ONLY);
 4515               	.loc 1 1856 0
 4516 22e8 4878 0001 	pea 1.w
 4517               	.cfi_def_cfa_offset 164
 4518 22ec 200F      	move.l %sp,%d0
 4519 22ee 5880      	addq.l #4,%d0
 4520 22f0 2F00      	move.l %d0,-(%sp)
 4521               	.cfi_def_cfa_offset 168
 4522 22f2 4EB9 0000 	jsr OS_creat
68K GAS   			page 127


 4522      0000 
 4523 22f8 508F      	addq.l #8,%sp
 4524               	.cfi_def_cfa_offset 160
 4525 22fa 2F40 0088 	move.l %d0,136(%sp)
1857:/home/simulink/cFS_FreeRTOS_seL4/cfe/fsw/cfe-core/src/evs/cfe_evs_task.c **** 
1858:/home/simulink/cFS_FreeRTOS_seL4/cfe/fsw/cfe-core/src/evs/cfe_evs_task.c ****    if (FileHandle < OS_FS_SUCCESS)
 4526               	.loc 1 1858 0
 4527 22fe 4AAF 0088 	tst.l 136(%sp)
 4528 2302 6C26      	jge .L243
1859:/home/simulink/cFS_FreeRTOS_seL4/cfe/fsw/cfe-core/src/evs/cfe_evs_task.c ****    {
1860:/home/simulink/cFS_FreeRTOS_seL4/cfe/fsw/cfe-core/src/evs/cfe_evs_task.c ****       EVS_SendEvent(CFE_EVS_ERR_CRDATFILE_EID, CFE_EVS_ERROR,
 4529               	.loc 1 1860 0
 4530 2304 222F 0088 	move.l 136(%sp),%d1
 4531 2308 200F      	move.l %sp,%d0
 4532 230a 2F00      	move.l %d0,-(%sp)
 4533               	.cfi_def_cfa_offset 164
 4534 230c 2F01      	move.l %d1,-(%sp)
 4535               	.cfi_def_cfa_offset 168
 4536 230e 4879 0000 	pea .LC53
 4536      0000 
 4537               	.cfi_def_cfa_offset 172
 4538 2314 4878 0003 	pea 3.w
 4539               	.cfi_def_cfa_offset 176
 4540 2318 4878 000D 	pea 13.w
 4541               	.cfi_def_cfa_offset 180
 4542 231c 4EB9 0000 	jsr EVS_SendEvent
 4542      0000 
 4543 2322 4FEF 0014 	lea (20,%sp),%sp
 4544               	.cfi_def_cfa_offset 160
 4545 2326 6000 018E 	jra .L244
 4546               	.L243:
1861:/home/simulink/cFS_FreeRTOS_seL4/cfe/fsw/cfe-core/src/evs/cfe_evs_task.c ****                    "Write App Data Command Error: OS_creat = 0x%08X, filename = %s",
1862:/home/simulink/cFS_FreeRTOS_seL4/cfe/fsw/cfe-core/src/evs/cfe_evs_task.c ****                     (unsigned int)FileHandle, LocalName);
1863:/home/simulink/cFS_FreeRTOS_seL4/cfe/fsw/cfe-core/src/evs/cfe_evs_task.c ****    }
1864:/home/simulink/cFS_FreeRTOS_seL4/cfe/fsw/cfe-core/src/evs/cfe_evs_task.c ****    else
1865:/home/simulink/cFS_FreeRTOS_seL4/cfe/fsw/cfe-core/src/evs/cfe_evs_task.c ****    {
1866:/home/simulink/cFS_FreeRTOS_seL4/cfe/fsw/cfe-core/src/evs/cfe_evs_task.c ****       /* Initialize cFE file header */
1867:/home/simulink/cFS_FreeRTOS_seL4/cfe/fsw/cfe-core/src/evs/cfe_evs_task.c ****       CFE_FS_InitHeader(&FileHdr, "EVS Application Data File", CFE_FS_EVS_APPDATA_SUBTYPE);
 4547               	.loc 1 1867 0
 4548 232a 4878 000F 	pea 15.w
 4549               	.cfi_def_cfa_offset 164
 4550 232e 4879 0000 	pea .LC54
 4550      0000 
 4551               	.cfi_def_cfa_offset 168
 4552 2334 200F      	move.l %sp,%d0
 4553 2336 0680 0000 	add.l #72,%d0
 4553      0048 
 4554 233c 2F00      	move.l %d0,-(%sp)
 4555               	.cfi_def_cfa_offset 172
 4556 233e 4EB9 0000 	jsr CFE_FS_InitHeader
 4556      0000 
 4557 2344 4FEF 000C 	lea (12,%sp),%sp
 4558               	.cfi_def_cfa_offset 160
1868:/home/simulink/cFS_FreeRTOS_seL4/cfe/fsw/cfe-core/src/evs/cfe_evs_task.c **** 
1869:/home/simulink/cFS_FreeRTOS_seL4/cfe/fsw/cfe-core/src/evs/cfe_evs_task.c ****       /* Write cFE file header to the App File */
1870:/home/simulink/cFS_FreeRTOS_seL4/cfe/fsw/cfe-core/src/evs/cfe_evs_task.c ****       BytesWritten = CFE_FS_WriteHeader(FileHandle, &FileHdr);
 4559               	.loc 1 1870 0
68K GAS   			page 128


 4560 2348 200F      	move.l %sp,%d0
 4561 234a 0680 0000 	add.l #64,%d0
 4561      0040 
 4562 2350 2F00      	move.l %d0,-(%sp)
 4563               	.cfi_def_cfa_offset 164
 4564 2352 2F2F 008C 	move.l 140(%sp),-(%sp)
 4565               	.cfi_def_cfa_offset 168
 4566 2356 4EB9 0000 	jsr CFE_FS_WriteHeader
 4566      0000 
 4567 235c 508F      	addq.l #8,%sp
 4568               	.cfi_def_cfa_offset 160
 4569 235e 2F40 0084 	move.l %d0,132(%sp)
1871:/home/simulink/cFS_FreeRTOS_seL4/cfe/fsw/cfe-core/src/evs/cfe_evs_task.c **** 
1872:/home/simulink/cFS_FreeRTOS_seL4/cfe/fsw/cfe-core/src/evs/cfe_evs_task.c ****       if (BytesWritten == sizeof(CFE_FS_Header_t))
 4570               	.loc 1 1872 0
 4571 2362 7240      	moveq #64,%d1
 4572 2364 B2AF 0084 	cmp.l 132(%sp),%d1
 4573 2368 6600 0140 	jne .L245
1873:/home/simulink/cFS_FreeRTOS_seL4/cfe/fsw/cfe-core/src/evs/cfe_evs_task.c ****       {
1874:/home/simulink/cFS_FreeRTOS_seL4/cfe/fsw/cfe-core/src/evs/cfe_evs_task.c ****          for (i = 0; i < CFE_ES_MAX_APPLICATIONS; i++)
 4574               	.loc 1 1874 0
 4575 236c 42AF 0090 	clr.l 144(%sp)
 4576 2370 6000 0100 	jra .L246
 4577               	.L250:
1875:/home/simulink/cFS_FreeRTOS_seL4/cfe/fsw/cfe-core/src/evs/cfe_evs_task.c ****          {
1876:/home/simulink/cFS_FreeRTOS_seL4/cfe/fsw/cfe-core/src/evs/cfe_evs_task.c ****             /* Only have data for apps that are registered */
1877:/home/simulink/cFS_FreeRTOS_seL4/cfe/fsw/cfe-core/src/evs/cfe_evs_task.c ****             if (CFE_EVS_GlobalData.AppData[i].RegisterFlag == TRUE)
 4578               	.loc 1 1877 0
 4579 2374 202F 0090 	move.l 144(%sp),%d0
 4580 2378 7246      	moveq #70,%d1
 4581 237a 4C01 0800 	muls.l %d1,%d0
 4582 237e 41F9 0000 	lea CFE_EVS_GlobalData+68,%a0
 4582      0000 
 4583 2384 3030 0800 	move.w (%a0,%d0.l),%d0
 4584 2388 3000      	move.w %d0,%d0
 4585 238a 0280 0000 	and.l #65535,%d0
 4585      FFFF 
 4586 2390 7201      	moveq #1,%d1
 4587 2392 B280      	cmp.l %d0,%d1
 4588 2394 6600 00D8 	jne .L247
1878:/home/simulink/cFS_FreeRTOS_seL4/cfe/fsw/cfe-core/src/evs/cfe_evs_task.c ****             {
1879:/home/simulink/cFS_FreeRTOS_seL4/cfe/fsw/cfe-core/src/evs/cfe_evs_task.c ****                AppDataPtr = &CFE_EVS_GlobalData.AppData[i];
 4589               	.loc 1 1879 0
 4590 2398 202F 0090 	move.l 144(%sp),%d0
 4591 239c 7246      	moveq #70,%d1
 4592 239e 4C01 0800 	muls.l %d1,%d0
 4593 23a2 2200      	move.l %d0,%d1
 4594 23a4 0681 0000 	add.l #CFE_EVS_GlobalData,%d1
 4594      0000 
 4595 23aa 2F41 0080 	move.l %d1,128(%sp)
1880:/home/simulink/cFS_FreeRTOS_seL4/cfe/fsw/cfe-core/src/evs/cfe_evs_task.c **** 
1881:/home/simulink/cFS_FreeRTOS_seL4/cfe/fsw/cfe-core/src/evs/cfe_evs_task.c ****                /* Clear application file data record */
1882:/home/simulink/cFS_FreeRTOS_seL4/cfe/fsw/cfe-core/src/evs/cfe_evs_task.c ****                CFE_PSP_MemSet(&AppDataFile, 0, sizeof(CFE_EVS_AppDataFile_t));
 4596               	.loc 1 1882 0
 4597 23ae 4878 0058 	pea 88.w
 4598               	.cfi_def_cfa_offset 164
 4599 23b2 42A7      	clr.l -(%sp)
68K GAS   			page 129


 4600               	.cfi_def_cfa_offset 168
 4601 23b4 4879 0000 	pea AppDataFile.5637
 4601      0000 
 4602               	.cfi_def_cfa_offset 172
 4603 23ba 4EB9 0000 	jsr CFE_PSP_MemSet
 4603      0000 
 4604 23c0 4FEF 000C 	lea (12,%sp),%sp
 4605               	.cfi_def_cfa_offset 160
1883:/home/simulink/cFS_FreeRTOS_seL4/cfe/fsw/cfe-core/src/evs/cfe_evs_task.c **** 
1884:/home/simulink/cFS_FreeRTOS_seL4/cfe/fsw/cfe-core/src/evs/cfe_evs_task.c ****                /* Copy application data to application file data record */
1885:/home/simulink/cFS_FreeRTOS_seL4/cfe/fsw/cfe-core/src/evs/cfe_evs_task.c ****                CFE_ES_GetAppName(AppDataFile.AppName, i, OS_MAX_API_NAME);
 4606               	.loc 1 1885 0
 4607 23c4 4878 0014 	pea 20.w
 4608               	.cfi_def_cfa_offset 164
 4609 23c8 2F2F 0094 	move.l 148(%sp),-(%sp)
 4610               	.cfi_def_cfa_offset 168
 4611 23cc 4879 0000 	pea AppDataFile.5637
 4611      0000 
 4612               	.cfi_def_cfa_offset 172
 4613 23d2 4EB9 0000 	jsr CFE_ES_GetAppName
 4613      0000 
 4614 23d8 4FEF 000C 	lea (12,%sp),%sp
 4615               	.cfi_def_cfa_offset 160
1886:/home/simulink/cFS_FreeRTOS_seL4/cfe/fsw/cfe-core/src/evs/cfe_evs_task.c ****                AppDataFile.ActiveFlag = AppDataPtr->ActiveFlag;
 4616               	.loc 1 1886 0
 4617 23dc 206F 0080 	move.l 128(%sp),%a0
 4618 23e0 1028 0040 	move.b 64(%a0),%d0
 4619 23e4 13C0 0000 	move.b %d0,AppDataFile.5637+20
 4619      0000 
1887:/home/simulink/cFS_FreeRTOS_seL4/cfe/fsw/cfe-core/src/evs/cfe_evs_task.c ****                AppDataFile.EventCount = AppDataPtr->EventCount;
 4620               	.loc 1 1887 0
 4621 23ea 206F 0080 	move.l 128(%sp),%a0
 4622 23ee 3028 0042 	move.w 66(%a0),%d0
 4623 23f2 33C0 0000 	move.w %d0,AppDataFile.5637+22
 4623      0000 
1888:/home/simulink/cFS_FreeRTOS_seL4/cfe/fsw/cfe-core/src/evs/cfe_evs_task.c ****                AppDataFile.EventTypesActiveFlag = AppDataPtr->EventTypesActiveFlag;
 4624               	.loc 1 1888 0
 4625 23f8 206F 0080 	move.l 128(%sp),%a0
 4626 23fc 1028 0041 	move.b 65(%a0),%d0
 4627 2400 13C0 0000 	move.b %d0,AppDataFile.5637+21
 4627      0000 
1889:/home/simulink/cFS_FreeRTOS_seL4/cfe/fsw/cfe-core/src/evs/cfe_evs_task.c **** 
1890:/home/simulink/cFS_FreeRTOS_seL4/cfe/fsw/cfe-core/src/evs/cfe_evs_task.c ****                /* Copy application filter data to application file data record */
1891:/home/simulink/cFS_FreeRTOS_seL4/cfe/fsw/cfe-core/src/evs/cfe_evs_task.c ****                CFE_PSP_MemCpy(AppDataFile.Filters, AppDataPtr->BinFilters,
 4628               	.loc 1 1891 0
 4629 2406 202F 0080 	move.l 128(%sp),%d0
 4630 240a 4878 0040 	pea 64.w
 4631               	.cfi_def_cfa_offset 164
 4632 240e 2F00      	move.l %d0,-(%sp)
 4633               	.cfi_def_cfa_offset 168
 4634 2410 4879 0000 	pea AppDataFile.5637+24
 4634      0000 
 4635               	.cfi_def_cfa_offset 172
 4636 2416 4EB9 0000 	jsr CFE_PSP_MemCpy
 4636      0000 
 4637 241c 4FEF 000C 	lea (12,%sp),%sp
 4638               	.cfi_def_cfa_offset 160
68K GAS   			page 130


1892:/home/simulink/cFS_FreeRTOS_seL4/cfe/fsw/cfe-core/src/evs/cfe_evs_task.c ****                               CFE_EVS_MAX_EVENT_FILTERS * sizeof(EVS_BinFilter_t));
1893:/home/simulink/cFS_FreeRTOS_seL4/cfe/fsw/cfe-core/src/evs/cfe_evs_task.c **** 
1894:/home/simulink/cFS_FreeRTOS_seL4/cfe/fsw/cfe-core/src/evs/cfe_evs_task.c ****                /* Write application data record to file */
1895:/home/simulink/cFS_FreeRTOS_seL4/cfe/fsw/cfe-core/src/evs/cfe_evs_task.c ****                BytesWritten = OS_write(FileHandle, &AppDataFile, sizeof(CFE_EVS_AppDataFile_t));
 4639               	.loc 1 1895 0
 4640 2420 4878 0058 	pea 88.w
 4641               	.cfi_def_cfa_offset 164
 4642 2424 4879 0000 	pea AppDataFile.5637
 4642      0000 
 4643               	.cfi_def_cfa_offset 168
 4644 242a 2F2F 0090 	move.l 144(%sp),-(%sp)
 4645               	.cfi_def_cfa_offset 172
 4646 242e 4EB9 0000 	jsr OS_write
 4646      0000 
 4647 2434 4FEF 000C 	lea (12,%sp),%sp
 4648               	.cfi_def_cfa_offset 160
 4649 2438 2F40 0084 	move.l %d0,132(%sp)
1896:/home/simulink/cFS_FreeRTOS_seL4/cfe/fsw/cfe-core/src/evs/cfe_evs_task.c **** 
1897:/home/simulink/cFS_FreeRTOS_seL4/cfe/fsw/cfe-core/src/evs/cfe_evs_task.c ****                if (BytesWritten == sizeof(CFE_EVS_AppDataFile_t))
 4650               	.loc 1 1897 0
 4651 243c 7058      	moveq #88,%d0
 4652 243e B0AF 0084 	cmp.l 132(%sp),%d0
 4653 2442 6606      	jne .L248
1898:/home/simulink/cFS_FreeRTOS_seL4/cfe/fsw/cfe-core/src/evs/cfe_evs_task.c ****                {
1899:/home/simulink/cFS_FreeRTOS_seL4/cfe/fsw/cfe-core/src/evs/cfe_evs_task.c ****                   EntryCount++;
 4654               	.loc 1 1899 0
 4655 2444 52AF 0094 	addq.l #1,148(%sp)
 4656 2448 6024      	jra .L247
 4657               	.L248:
1900:/home/simulink/cFS_FreeRTOS_seL4/cfe/fsw/cfe-core/src/evs/cfe_evs_task.c ****                }
1901:/home/simulink/cFS_FreeRTOS_seL4/cfe/fsw/cfe-core/src/evs/cfe_evs_task.c ****                else
1902:/home/simulink/cFS_FreeRTOS_seL4/cfe/fsw/cfe-core/src/evs/cfe_evs_task.c ****                {
1903:/home/simulink/cFS_FreeRTOS_seL4/cfe/fsw/cfe-core/src/evs/cfe_evs_task.c ****                   EVS_SendEvent(CFE_EVS_ERR_WRDATFILE_EID, CFE_EVS_ERROR,
 4658               	.loc 1 1903 0
 4659 244a 222F 0084 	move.l 132(%sp),%d1
 4660 244e 200F      	move.l %sp,%d0
 4661 2450 2F00      	move.l %d0,-(%sp)
 4662               	.cfi_def_cfa_offset 164
 4663 2452 2F01      	move.l %d1,-(%sp)
 4664               	.cfi_def_cfa_offset 168
 4665 2454 4879 0000 	pea .LC55
 4665      0000 
 4666               	.cfi_def_cfa_offset 172
 4667 245a 4878 0003 	pea 3.w
 4668               	.cfi_def_cfa_offset 176
 4669 245e 4878 000C 	pea 12.w
 4670               	.cfi_def_cfa_offset 180
 4671 2462 4EB9 0000 	jsr EVS_SendEvent
 4671      0000 
 4672 2468 4FEF 0014 	lea (20,%sp),%sp
 4673               	.cfi_def_cfa_offset 160
1904:/home/simulink/cFS_FreeRTOS_seL4/cfe/fsw/cfe-core/src/evs/cfe_evs_task.c ****                                "Write App Data Command Error: OS_write = 0x%08X, filename = %s",
1905:/home/simulink/cFS_FreeRTOS_seL4/cfe/fsw/cfe-core/src/evs/cfe_evs_task.c ****                                 (unsigned int)BytesWritten, LocalName);
1906:/home/simulink/cFS_FreeRTOS_seL4/cfe/fsw/cfe-core/src/evs/cfe_evs_task.c ****                   break;
 4674               	.loc 1 1906 0
 4675 246c 600E      	jra .L249
 4676               	.L247:
68K GAS   			page 131


1874:/home/simulink/cFS_FreeRTOS_seL4/cfe/fsw/cfe-core/src/evs/cfe_evs_task.c ****          {
 4677               	.loc 1 1874 0 discriminator 2
 4678 246e 52AF 0090 	addq.l #1,144(%sp)
 4679               	.L246:
1874:/home/simulink/cFS_FreeRTOS_seL4/cfe/fsw/cfe-core/src/evs/cfe_evs_task.c ****          {
 4680               	.loc 1 1874 0 is_stmt 0 discriminator 1
 4681 2472 721F      	moveq #31,%d1
 4682 2474 B2AF 0090 	cmp.l 144(%sp),%d1
 4683 2478 6400 FEFA 	jcc .L250
 4684               	.L249:
1907:/home/simulink/cFS_FreeRTOS_seL4/cfe/fsw/cfe-core/src/evs/cfe_evs_task.c ****                }
1908:/home/simulink/cFS_FreeRTOS_seL4/cfe/fsw/cfe-core/src/evs/cfe_evs_task.c ****             }
1909:/home/simulink/cFS_FreeRTOS_seL4/cfe/fsw/cfe-core/src/evs/cfe_evs_task.c ****          }
1910:/home/simulink/cFS_FreeRTOS_seL4/cfe/fsw/cfe-core/src/evs/cfe_evs_task.c **** 
1911:/home/simulink/cFS_FreeRTOS_seL4/cfe/fsw/cfe-core/src/evs/cfe_evs_task.c ****          /* Process command handler success result */
1912:/home/simulink/cFS_FreeRTOS_seL4/cfe/fsw/cfe-core/src/evs/cfe_evs_task.c ****          if (i == CFE_ES_MAX_APPLICATIONS)
 4685               	.loc 1 1912 0 is_stmt 1
 4686 247c 7020      	moveq #32,%d0
 4687 247e B0AF 0090 	cmp.l 144(%sp),%d0
 4688 2482 6626      	jne .L245
1913:/home/simulink/cFS_FreeRTOS_seL4/cfe/fsw/cfe-core/src/evs/cfe_evs_task.c ****          {
1914:/home/simulink/cFS_FreeRTOS_seL4/cfe/fsw/cfe-core/src/evs/cfe_evs_task.c ****             EVS_SendEvent(CFE_EVS_WRDAT_EID, CFE_EVS_DEBUG,
 4689               	.loc 1 1914 0
 4690 2484 200F      	move.l %sp,%d0
 4691 2486 2F00      	move.l %d0,-(%sp)
 4692               	.cfi_def_cfa_offset 164
 4693 2488 2F2F 0098 	move.l 152(%sp),-(%sp)
 4694               	.cfi_def_cfa_offset 168
 4695 248c 4879 0000 	pea .LC56
 4695      0000 
 4696               	.cfi_def_cfa_offset 172
 4697 2492 4878 0001 	pea 1.w
 4698               	.cfi_def_cfa_offset 176
 4699 2496 4878 0020 	pea 32.w
 4700               	.cfi_def_cfa_offset 180
 4701 249a 4EB9 0000 	jsr EVS_SendEvent
 4701      0000 
 4702 24a0 4FEF 0014 	lea (20,%sp),%sp
 4703               	.cfi_def_cfa_offset 160
1915:/home/simulink/cFS_FreeRTOS_seL4/cfe/fsw/cfe-core/src/evs/cfe_evs_task.c ****                          "Write App Data Command: %d application data entries written to %s",
1916:/home/simulink/cFS_FreeRTOS_seL4/cfe/fsw/cfe-core/src/evs/cfe_evs_task.c ****                           EntryCount, LocalName);
1917:/home/simulink/cFS_FreeRTOS_seL4/cfe/fsw/cfe-core/src/evs/cfe_evs_task.c ****             Result = TRUE;
 4704               	.loc 1 1917 0
 4705 24a4 7201      	moveq #1,%d1
 4706 24a6 1F41 009B 	move.b %d1,155(%sp)
 4707               	.L245:
1918:/home/simulink/cFS_FreeRTOS_seL4/cfe/fsw/cfe-core/src/evs/cfe_evs_task.c ****          }
1919:/home/simulink/cFS_FreeRTOS_seL4/cfe/fsw/cfe-core/src/evs/cfe_evs_task.c ****       }
1920:/home/simulink/cFS_FreeRTOS_seL4/cfe/fsw/cfe-core/src/evs/cfe_evs_task.c **** 
1921:/home/simulink/cFS_FreeRTOS_seL4/cfe/fsw/cfe-core/src/evs/cfe_evs_task.c ****       OS_close(FileHandle);
 4708               	.loc 1 1921 0
 4709 24aa 2F2F 0088 	move.l 136(%sp),-(%sp)
 4710               	.cfi_def_cfa_offset 164
 4711 24ae 4EB9 0000 	jsr OS_close
 4711      0000 
 4712 24b4 588F      	addq.l #4,%sp
 4713               	.cfi_def_cfa_offset 160
68K GAS   			page 132


 4714               	.L244:
1922:/home/simulink/cFS_FreeRTOS_seL4/cfe/fsw/cfe-core/src/evs/cfe_evs_task.c ****    }
1923:/home/simulink/cFS_FreeRTOS_seL4/cfe/fsw/cfe-core/src/evs/cfe_evs_task.c **** 
1924:/home/simulink/cFS_FreeRTOS_seL4/cfe/fsw/cfe-core/src/evs/cfe_evs_task.c ****    return(Result);
 4715               	.loc 1 1924 0
 4716 24b6 102F 009B 	move.b 155(%sp),%d0
1925:/home/simulink/cFS_FreeRTOS_seL4/cfe/fsw/cfe-core/src/evs/cfe_evs_task.c **** 
1926:/home/simulink/cFS_FreeRTOS_seL4/cfe/fsw/cfe-core/src/evs/cfe_evs_task.c **** } /* CFE_End EVS_WriteAppDataCmd */
 4717               	.loc 1 1926 0
 4718 24ba 4FEF 009C 	lea (156,%sp),%sp
 4719 24be 4E75      	rts
 4720               	.cfi_endproc
 4721               	.LFE83:
 4722               	.sizeCFE_EVS_WriteAppDataCmd, .-CFE_EVS_WriteAppDataCmd
 4723               	.localAppDataFile.5637
 4724               	.commAppDataFile.5637,88,2
 4725               	.Letext0:
 4726               	.file 2 "/home/simulink/cFS_FreeRTOS_seL4/osal/src/os/inc/common_types.h"
 4727               	.file 3 "/home/simulink/development/rtems/5/m68k-rtems5/include/machine/_default_types.h"
 4728               	.file 4 "/home/simulink/development/rtems/5/m68k-rtems5/include/machine/_types.h"
 4729               	.file 5 "/home/simulink/development/rtems/5/m68k-rtems5/include/sys/lock.h"
 4730               	.file 6 "/home/simulink/development/rtems/5/m68k-rtems5/include/sys/_types.h"
 4731               	.file 7 "/home/simulink/development/rtems/5/lib/gcc/m68k-rtems5/7.3.0/include/stddef.h"
 4732               	.file 8 "/home/simulink/development/rtems/5/m68k-rtems5/include/sys/reent.h"
 4733               	.file 9 "/home/simulink/development/rtems/5/m68k-rtems5/include/stdlib.h"
 4734               	.file 10 "/home/simulink/development/rtems/5/m68k-rtems5/include/time.h"
 4735               	.file 11 "/home/simulink/cFS_FreeRTOS_seL4/cfe/fsw/cfe-core/src/inc/cfe_time.h"
 4736               	.file 12 "/home/simulink/cFS_FreeRTOS_seL4/cfe/fsw/cfe-core/src/inc/ccsds.h"
 4737               	.file 13 "/home/simulink/cFS_FreeRTOS_seL4/cfe/fsw/cfe-core/src/inc/cfe_sb.h"
 4738               	.file 14 "/home/simulink/cFS_FreeRTOS_seL4/cfe/fsw/cfe-core/src/inc/cfe_evs_msg.h"
 4739               	.file 15 "/home/simulink/cFS_FreeRTOS_seL4/cfe/fsw/cfe-core/src/inc/cfe_fs.h"
 4740               	.file 16 "/home/simulink/cFS_FreeRTOS_seL4/cfe/fsw/cfe-core/src/inc/private/cfe_evs_log_typedef.h"
 4741               	.file 17 "/home/simulink/cFS_FreeRTOS_seL4/cfe/fsw/cfe-core/src/evs/cfe_evs_task.h"
 4742               	.file 18 "/home/simulink/cFS_FreeRTOS_seL4/cfe/fsw/cfe-core/src/inc/private/cfe_es_erlog_typedef.h"
 4743               	.file 19 "/home/simulink/cFS_FreeRTOS_seL4/cfe/fsw/cfe-core/src/inc/private/cfe_es_perfdata_typedef.h"
 4744               	.file 20 "/home/simulink/cFS_FreeRTOS_seL4/cfe/fsw/cfe-core/src/inc/private/cfe_es_resetdata_typedef.h"
 4745               	.section.debug_info,"",@progbits
 4746               	.Ldebug_info0:
 4747 0000 0000 1E7E 	.long0x1e7e
 4748 0004 0004      	.word0x4
 4749 0006 0000 0000 	.long.Ldebug_abbrev0
 4750 000a 04        	.byte0x4
 4751 000b 01        	.uleb128 0x1
 4752 000c 0000 0000 	.long.LASF345
 4753 0010 0C        	.byte0xc
 4754 0011 0000 0000 	.long.LASF346
 4755 0015 0000 0000 	.long.LASF347
 4756 0019 0000 0000 	.long.Ltext0
 4757 001d 0000 24C0 	.long.Letext0-.Ltext0
 4758 0021 0000 0000 	.long.Ldebug_line0
 4759 0025 02        	.uleb128 0x2
 4760 0026 0000 0000 	.long.LASF2
 4761 002a 02        	.byte0x2
 4762 002b E6        	.byte0xe6
 4763 002c 0000 0030 	.long0x30
 4764 0030 03        	.uleb128 0x3
 4765 0031 01        	.byte0x1
68K GAS   			page 133


 4766 0032 08        	.byte0x8
 4767 0033 0000 0000 	.long.LASF0
 4768 0037 03        	.uleb128 0x3
 4769 0038 01        	.byte0x1
 4770 0039 06        	.byte0x6
 4771 003a 0000 0000 	.long.LASF1
 4772 003e 02        	.uleb128 0x2
 4773 003f 0000 0000 	.long.LASF3
 4774 0043 02        	.byte0x2
 4775 0044 E8        	.byte0xe8
 4776 0045 0000 0049 	.long0x49
 4777 0049 03        	.uleb128 0x3
 4778 004a 02        	.byte0x2
 4779 004b 05        	.byte0x5
 4780 004c 0000 0000 	.long.LASF4
 4781 0050 02        	.uleb128 0x2
 4782 0051 0000 0000 	.long.LASF5
 4783 0055 02        	.byte0x2
 4784 0056 E9        	.byte0xe9
 4785 0057 0000 005B 	.long0x5b
 4786 005b 03        	.uleb128 0x3
 4787 005c 04        	.byte0x4
 4788 005d 05        	.byte0x5
 4789 005e 0000 0000 	.long.LASF6
 4790 0062 03        	.uleb128 0x3
 4791 0063 08        	.byte0x8
 4792 0064 05        	.byte0x5
 4793 0065 0000 0000 	.long.LASF7
 4794 0069 02        	.uleb128 0x2
 4795 006a 0000 0000 	.long.LASF8
 4796 006e 02        	.byte0x2
 4797 006f EB        	.byte0xeb
 4798 0070 0000 0030 	.long0x30
 4799 0074 02        	.uleb128 0x2
 4800 0075 0000 0000 	.long.LASF9
 4801 0079 02        	.byte0x2
 4802 007a EC        	.byte0xec
 4803 007b 0000 007F 	.long0x7f
 4804 007f 03        	.uleb128 0x3
 4805 0080 02        	.byte0x2
 4806 0081 07        	.byte0x7
 4807 0082 0000 0000 	.long.LASF10
 4808 0086 02        	.uleb128 0x2
 4809 0087 0000 0000 	.long.LASF11
 4810 008b 02        	.byte0x2
 4811 008c ED        	.byte0xed
 4812 008d 0000 0091 	.long0x91
 4813 0091 03        	.uleb128 0x3
 4814 0092 04        	.byte0x4
 4815 0093 07        	.byte0x7
 4816 0094 0000 0000 	.long.LASF12
 4817 0098 03        	.uleb128 0x3
 4818 0099 08        	.byte0x8
 4819 009a 07        	.byte0x7
 4820 009b 0000 0000 	.long.LASF13
 4821 009f 02        	.uleb128 0x2
 4822 00a0 0000 0000 	.long.LASF14
68K GAS   			page 134


 4823 00a4 02        	.byte0x2
 4824 00a5 F0        	.byte0xf0
 4825 00a6 0000 0091 	.long0x91
 4826 00aa 04        	.uleb128 0x4
 4827 00ab 0000 0000 	.long.LASF15
 4828 00af 02        	.byte0x2
 4829 00b0 0131      	.word0x131
 4830 00b2 0000 0025 	.long0x25
 4831 00b6 03        	.uleb128 0x3
 4832 00b7 01        	.byte0x1
 4833 00b8 06        	.byte0x6
 4834 00b9 0000 0000 	.long.LASF16
 4835 00bd 05        	.uleb128 0x5
 4836 00be 0000 00B6 	.long0xb6
 4837 00c2 06        	.uleb128 0x6
 4838 00c3 0000 00B6 	.long0xb6
 4839 00c7 0000 00D2 	.long0xd2
 4840 00cb 07        	.uleb128 0x7
 4841 00cc 0000 0091 	.long0x91
 4842 00d0 13        	.byte0x13
 4843 00d1 00        	.byte0
 4844 00d2 08        	.uleb128 0x8
 4845 00d3 04        	.byte0x4
 4846 00d4 02        	.uleb128 0x2
 4847 00d5 0000 0000 	.long.LASF17
 4848 00d9 03        	.byte0x3
 4849 00da 67        	.byte0x67
 4850 00db 0000 0062 	.long0x62
 4851 00df 03        	.uleb128 0x3
 4852 00e0 08        	.byte0x8
 4853 00e1 04        	.byte0x4
 4854 00e2 0000 0000 	.long.LASF18
 4855 00e6 02        	.uleb128 0x2
 4856 00e7 0000 0000 	.long.LASF19
 4857 00eb 04        	.byte0x4
 4858 00ec 10        	.byte0x10
 4859 00ed 0000 00D4 	.long0xd4
 4860 00f1 02        	.uleb128 0x2
 4861 00f2 0000 0000 	.long.LASF20
 4862 00f6 04        	.byte0x4
 4863 00f7 16        	.byte0x16
 4864 00f8 0000 00E6 	.long0xe6
 4865 00fc 09        	.uleb128 0x9
 4866 00fd 04        	.byte0x4
 4867 00fe 05        	.byte0x5
 4868 00ff 696E 7400 	.string"int"
 4869 0103 0A        	.uleb128 0xa
 4870 0104 0000 0000 	.long.LASF24
 4871 0108 08        	.byte0x8
 4872 0109 05        	.byte0x5
 4873 010a 28        	.byte0x28
 4874 010b 0000 0128 	.long0x128
 4875 010f 0B        	.uleb128 0xb
 4876 0110 0000 0000 	.long.LASF21
 4877 0114 05        	.byte0x5
 4878 0115 29        	.byte0x29
 4879 0116 0000 0128 	.long0x128
68K GAS   			page 135


 4880 011a 00        	.byte0
 4881 011b 0B        	.uleb128 0xb
 4882 011c 0000 0000 	.long.LASF22
 4883 0120 05        	.byte0x5
 4884 0121 2A        	.byte0x2a
 4885 0122 0000 0128 	.long0x128
 4886 0126 04        	.byte0x4
 4887 0127 00        	.byte0
 4888 0128 03        	.uleb128 0x3
 4889 0129 04        	.byte0x4
 4890 012a 07        	.byte0x7
 4891 012b 0000 0000 	.long.LASF23
 4892 012f 0A        	.uleb128 0xa
 4893 0130 0000 0000 	.long.LASF25
 4894 0134 14        	.byte0x14
 4895 0135 05        	.byte0x5
 4896 0136 2D        	.byte0x2d
 4897 0137 0000 016C 	.long0x16c
 4898 013b 0B        	.uleb128 0xb
 4899 013c 0000 0000 	.long.LASF26
 4900 0140 05        	.byte0x5
 4901 0141 2E        	.byte0x2e
 4902 0142 0000 0103 	.long0x103
 4903 0146 00        	.byte0
 4904 0147 0B        	.uleb128 0xb
 4905 0148 0000 0000 	.long.LASF27
 4906 014c 05        	.byte0x5
 4907 014d 2F        	.byte0x2f
 4908 014e 0000 0171 	.long0x171
 4909 0152 08        	.byte0x8
 4910 0153 0B        	.uleb128 0xb
 4911 0154 0000 0000 	.long.LASF28
 4912 0158 05        	.byte0x5
 4913 0159 30        	.byte0x30
 4914 015a 0000 017C 	.long0x17c
 4915 015e 0C        	.byte0xc
 4916 015f 0B        	.uleb128 0xb
 4917 0160 0000 0000 	.long.LASF29
 4918 0164 05        	.byte0x5
 4919 0165 31        	.byte0x31
 4920 0166 0000 0182 	.long0x182
 4921 016a 10        	.byte0x10
 4922 016b 00        	.byte0
 4923 016c 0C        	.uleb128 0xc
 4924 016d 0000 0000 	.long.LASF30
 4925 0171 0D        	.uleb128 0xd
 4926 0172 04        	.byte0x4
 4927 0173 0000 016C 	.long0x16c
 4928 0177 0C        	.uleb128 0xc
 4929 0178 0000 0000 	.long.LASF31
 4930 017c 0D        	.uleb128 0xd
 4931 017d 04        	.byte0x4
 4932 017e 0000 0177 	.long0x177
 4933 0182 0D        	.uleb128 0xd
 4934 0183 04        	.byte0x4
 4935 0184 0000 00BD 	.long0xbd
 4936 0188 0A        	.uleb128 0xa
68K GAS   			page 136


 4937 0189 0000 0000 	.long.LASF32
 4938 018d 14        	.byte0x14
 4939 018e 05        	.byte0x5
 4940 018f 34        	.byte0x34
 4941 0190 0000 01A1 	.long0x1a1
 4942 0194 0B        	.uleb128 0xb
 4943 0195 0000 0000 	.long.LASF33
 4944 0199 05        	.byte0x5
 4945 019a 35        	.byte0x35
 4946 019b 0000 012F 	.long0x12f
 4947 019f 00        	.byte0
 4948 01a0 00        	.byte0
 4949 01a1 0A        	.uleb128 0xa
 4950 01a2 0000 0000 	.long.LASF34
 4951 01a6 18        	.byte0x18
 4952 01a7 05        	.byte0x5
 4953 01a8 38        	.byte0x38
 4954 01a9 0000 01C6 	.long0x1c6
 4955 01ad 0B        	.uleb128 0xb
 4956 01ae 0000 0000 	.long.LASF35
 4957 01b2 05        	.byte0x5
 4958 01b3 39        	.byte0x39
 4959 01b4 0000 0188 	.long0x188
 4960 01b8 00        	.byte0
 4961 01b9 0B        	.uleb128 0xb
 4962 01ba 0000 0000 	.long.LASF36
 4963 01be 05        	.byte0x5
 4964 01bf 3A        	.byte0x3a
 4965 01c0 0000 0128 	.long0x128
 4966 01c4 14        	.byte0x14
 4967 01c5 00        	.byte0
 4968 01c6 04        	.uleb128 0x4
 4969 01c7 0000 0000 	.long.LASF37
 4970 01cb 05        	.byte0x5
 4971 01cc 0171      	.word0x171
 4972 01ce 0000 01A1 	.long0x1a1
 4973 01d2 02        	.uleb128 0x2
 4974 01d3 0000 0000 	.long.LASF38
 4975 01d7 06        	.byte0x6
 4976 01d8 91        	.byte0x91
 4977 01d9 0000 005B 	.long0x5b
 4978 01dd 04        	.uleb128 0x4
 4979 01de 0000 0000 	.long.LASF39
 4980 01e2 07        	.byte0x7
 4981 01e3 0165      	.word0x165
 4982 01e5 0000 0128 	.long0x128
 4983 01e9 0E        	.uleb128 0xe
 4984 01ea 04        	.byte0x4
 4985 01eb 06        	.byte0x6
 4986 01ec A6        	.byte0xa6
 4987 01ed 0000 0208 	.long0x208
 4988 01f1 0F        	.uleb128 0xf
 4989 01f2 0000 0000 	.long.LASF40
 4990 01f6 06        	.byte0x6
 4991 01f7 A8        	.byte0xa8
 4992 01f8 0000 01DD 	.long0x1dd
 4993 01fc 0F        	.uleb128 0xf
68K GAS   			page 137


 4994 01fd 0000 0000 	.long.LASF41
 4995 0201 06        	.byte0x6
 4996 0202 A9        	.byte0xa9
 4997 0203 0000 0208 	.long0x208
 4998 0207 00        	.byte0
 4999 0208 06        	.uleb128 0x6
 5000 0209 0000 0030 	.long0x30
 5001 020d 0000 0218 	.long0x218
 5002 0211 07        	.uleb128 0x7
 5003 0212 0000 0091 	.long0x91
 5004 0216 03        	.byte0x3
 5005 0217 00        	.byte0
 5006 0218 10        	.uleb128 0x10
 5007 0219 08        	.byte0x8
 5008 021a 06        	.byte0x6
 5009 021b A3        	.byte0xa3
 5010 021c 0000 0239 	.long0x239
 5011 0220 0B        	.uleb128 0xb
 5012 0221 0000 0000 	.long.LASF42
 5013 0225 06        	.byte0x6
 5014 0226 A5        	.byte0xa5
 5015 0227 0000 00FC 	.long0xfc
 5016 022b 00        	.byte0
 5017 022c 0B        	.uleb128 0xb
 5018 022d 0000 0000 	.long.LASF43
 5019 0231 06        	.byte0x6
 5020 0232 AA        	.byte0xaa
 5021 0233 0000 01E9 	.long0x1e9
 5022 0237 04        	.byte0x4
 5023 0238 00        	.byte0
 5024 0239 02        	.uleb128 0x2
 5025 023a 0000 0000 	.long.LASF44
 5026 023e 06        	.byte0x6
 5027 023f AB        	.byte0xab
 5028 0240 0000 0218 	.long0x218
 5029 0244 02        	.uleb128 0x2
 5030 0245 0000 0000 	.long.LASF45
 5031 0249 06        	.byte0x6
 5032 024a AF        	.byte0xaf
 5033 024b 0000 01C6 	.long0x1c6
 5034 024f 02        	.uleb128 0x2
 5035 0250 0000 0000 	.long.LASF46
 5036 0254 08        	.byte0x8
 5037 0255 16        	.byte0x16
 5038 0256 0000 0091 	.long0x91
 5039 025a 0A        	.uleb128 0xa
 5040 025b 0000 0000 	.long.LASF47
 5041 025f 18        	.byte0x18
 5042 0260 08        	.byte0x8
 5043 0261 2F        	.byte0x2f
 5044 0262 0000 02AD 	.long0x2ad
 5045 0266 0B        	.uleb128 0xb
 5046 0267 0000 0000 	.long.LASF48
 5047 026b 08        	.byte0x8
 5048 026c 31        	.byte0x31
 5049 026d 0000 02AD 	.long0x2ad
 5050 0271 00        	.byte0
68K GAS   			page 138


 5051 0272 11        	.uleb128 0x11
 5052 0273 5F6B 00   	.string"_k"
 5053 0276 08        	.byte0x8
 5054 0277 32        	.byte0x32
 5055 0278 0000 00FC 	.long0xfc
 5056 027c 04        	.byte0x4
 5057 027d 0B        	.uleb128 0xb
 5058 027e 0000 0000 	.long.LASF49
 5059 0282 08        	.byte0x8
 5060 0283 32        	.byte0x32
 5061 0284 0000 00FC 	.long0xfc
 5062 0288 08        	.byte0x8
 5063 0289 0B        	.uleb128 0xb
 5064 028a 0000 0000 	.long.LASF50
 5065 028e 08        	.byte0x8
 5066 028f 32        	.byte0x32
 5067 0290 0000 00FC 	.long0xfc
 5068 0294 0C        	.byte0xc
 5069 0295 0B        	.uleb128 0xb
 5070 0296 0000 0000 	.long.LASF51
 5071 029a 08        	.byte0x8
 5072 029b 32        	.byte0x32
 5073 029c 0000 00FC 	.long0xfc
 5074 02a0 10        	.byte0x10
 5075 02a1 11        	.uleb128 0x11
 5076 02a2 5F78 00   	.string"_x"
 5077 02a5 08        	.byte0x8
 5078 02a6 33        	.byte0x33
 5079 02a7 0000 02B3 	.long0x2b3
 5080 02ab 14        	.byte0x14
 5081 02ac 00        	.byte0
 5082 02ad 0D        	.uleb128 0xd
 5083 02ae 04        	.byte0x4
 5084 02af 0000 025A 	.long0x25a
 5085 02b3 06        	.uleb128 0x6
 5086 02b4 0000 024F 	.long0x24f
 5087 02b8 0000 02C3 	.long0x2c3
 5088 02bc 07        	.uleb128 0x7
 5089 02bd 0000 0091 	.long0x91
 5090 02c1 00        	.byte0
 5091 02c2 00        	.byte0
 5092 02c3 0A        	.uleb128 0xa
 5093 02c4 0000 0000 	.long.LASF52
 5094 02c8 24        	.byte0x24
 5095 02c9 08        	.byte0x8
 5096 02ca 37        	.byte0x37
 5097 02cb 0000 033C 	.long0x33c
 5098 02cf 0B        	.uleb128 0xb
 5099 02d0 0000 0000 	.long.LASF53
 5100 02d4 08        	.byte0x8
 5101 02d5 39        	.byte0x39
 5102 02d6 0000 00FC 	.long0xfc
 5103 02da 00        	.byte0
 5104 02db 0B        	.uleb128 0xb
 5105 02dc 0000 0000 	.long.LASF54
 5106 02e0 08        	.byte0x8
 5107 02e1 3A        	.byte0x3a
68K GAS   			page 139


 5108 02e2 0000 00FC 	.long0xfc
 5109 02e6 04        	.byte0x4
 5110 02e7 0B        	.uleb128 0xb
 5111 02e8 0000 0000 	.long.LASF55
 5112 02ec 08        	.byte0x8
 5113 02ed 3B        	.byte0x3b
 5114 02ee 0000 00FC 	.long0xfc
 5115 02f2 08        	.byte0x8
 5116 02f3 0B        	.uleb128 0xb
 5117 02f4 0000 0000 	.long.LASF56
 5118 02f8 08        	.byte0x8
 5119 02f9 3C        	.byte0x3c
 5120 02fa 0000 00FC 	.long0xfc
 5121 02fe 0C        	.byte0xc
 5122 02ff 0B        	.uleb128 0xb
 5123 0300 0000 0000 	.long.LASF57
 5124 0304 08        	.byte0x8
 5125 0305 3D        	.byte0x3d
 5126 0306 0000 00FC 	.long0xfc
 5127 030a 10        	.byte0x10
 5128 030b 0B        	.uleb128 0xb
 5129 030c 0000 0000 	.long.LASF58
 5130 0310 08        	.byte0x8
 5131 0311 3E        	.byte0x3e
 5132 0312 0000 00FC 	.long0xfc
 5133 0316 14        	.byte0x14
 5134 0317 0B        	.uleb128 0xb
 5135 0318 0000 0000 	.long.LASF59
 5136 031c 08        	.byte0x8
 5137 031d 3F        	.byte0x3f
 5138 031e 0000 00FC 	.long0xfc
 5139 0322 18        	.byte0x18
 5140 0323 0B        	.uleb128 0xb
 5141 0324 0000 0000 	.long.LASF60
 5142 0328 08        	.byte0x8
 5143 0329 40        	.byte0x40
 5144 032a 0000 00FC 	.long0xfc
 5145 032e 1C        	.byte0x1c
 5146 032f 0B        	.uleb128 0xb
 5147 0330 0000 0000 	.long.LASF61
 5148 0334 08        	.byte0x8
 5149 0335 41        	.byte0x41
 5150 0336 0000 00FC 	.long0xfc
 5151 033a 20        	.byte0x20
 5152 033b 00        	.byte0
 5153 033c 12        	.uleb128 0x12
 5154 033d 0000 0000 	.long.LASF62
 5155 0341 0108      	.word0x108
 5156 0343 08        	.byte0x8
 5157 0344 4A        	.byte0x4a
 5158 0345 0000 037C 	.long0x37c
 5159 0349 0B        	.uleb128 0xb
 5160 034a 0000 0000 	.long.LASF63
 5161 034e 08        	.byte0x8
 5162 034f 4B        	.byte0x4b
 5163 0350 0000 037C 	.long0x37c
 5164 0354 00        	.byte0
68K GAS   			page 140


 5165 0355 0B        	.uleb128 0xb
 5166 0356 0000 0000 	.long.LASF64
 5167 035a 08        	.byte0x8
 5168 035b 4C        	.byte0x4c
 5169 035c 0000 037C 	.long0x37c
 5170 0360 80        	.byte0x80
 5171 0361 13        	.uleb128 0x13
 5172 0362 0000 0000 	.long.LASF65
 5173 0366 08        	.byte0x8
 5174 0367 4E        	.byte0x4e
 5175 0368 0000 024F 	.long0x24f
 5176 036c 0100      	.word0x100
 5177 036e 13        	.uleb128 0x13
 5178 036f 0000 0000 	.long.LASF66
 5179 0373 08        	.byte0x8
 5180 0374 51        	.byte0x51
 5181 0375 0000 024F 	.long0x24f
 5182 0379 0104      	.word0x104
 5183 037b 00        	.byte0
 5184 037c 06        	.uleb128 0x6
 5185 037d 0000 00D2 	.long0xd2
 5186 0381 0000 038C 	.long0x38c
 5187 0385 07        	.uleb128 0x7
 5188 0386 0000 0091 	.long0x91
 5189 038a 1F        	.byte0x1f
 5190 038b 00        	.byte0
 5191 038c 12        	.uleb128 0x12
 5192 038d 0000 0000 	.long.LASF67
 5193 0391 0190      	.word0x190
 5194 0393 08        	.byte0x8
 5195 0394 5D        	.byte0x5d
 5196 0395 0000 03CA 	.long0x3ca
 5197 0399 0B        	.uleb128 0xb
 5198 039a 0000 0000 	.long.LASF48
 5199 039e 08        	.byte0x8
 5200 039f 5E        	.byte0x5e
 5201 03a0 0000 03CA 	.long0x3ca
 5202 03a4 00        	.byte0
 5203 03a5 0B        	.uleb128 0xb
 5204 03a6 0000 0000 	.long.LASF68
 5205 03aa 08        	.byte0x8
 5206 03ab 5F        	.byte0x5f
 5207 03ac 0000 00FC 	.long0xfc
 5208 03b0 04        	.byte0x4
 5209 03b1 0B        	.uleb128 0xb
 5210 03b2 0000 0000 	.long.LASF69
 5211 03b6 08        	.byte0x8
 5212 03b7 61        	.byte0x61
 5213 03b8 0000 03D0 	.long0x3d0
 5214 03bc 08        	.byte0x8
 5215 03bd 0B        	.uleb128 0xb
 5216 03be 0000 0000 	.long.LASF62
 5217 03c2 08        	.byte0x8
 5218 03c3 62        	.byte0x62
 5219 03c4 0000 033C 	.long0x33c
 5220 03c8 88        	.byte0x88
 5221 03c9 00        	.byte0
68K GAS   			page 141


 5222 03ca 0D        	.uleb128 0xd
 5223 03cb 04        	.byte0x4
 5224 03cc 0000 038C 	.long0x38c
 5225 03d0 06        	.uleb128 0x6
 5226 03d1 0000 03E0 	.long0x3e0
 5227 03d5 0000 03E0 	.long0x3e0
 5228 03d9 07        	.uleb128 0x7
 5229 03da 0000 0091 	.long0x91
 5230 03de 1F        	.byte0x1f
 5231 03df 00        	.byte0
 5232 03e0 0D        	.uleb128 0xd
 5233 03e1 04        	.byte0x4
 5234 03e2 0000 03E6 	.long0x3e6
 5235 03e6 14        	.uleb128 0x14
 5236 03e7 0A        	.uleb128 0xa
 5237 03e8 0000 0000 	.long.LASF70
 5238 03ec 08        	.byte0x8
 5239 03ed 08        	.byte0x8
 5240 03ee 75        	.byte0x75
 5241 03ef 0000 040C 	.long0x40c
 5242 03f3 0B        	.uleb128 0xb
 5243 03f4 0000 0000 	.long.LASF71
 5244 03f8 08        	.byte0x8
 5245 03f9 76        	.byte0x76
 5246 03fa 0000 040C 	.long0x40c
 5247 03fe 00        	.byte0
 5248 03ff 0B        	.uleb128 0xb
 5249 0400 0000 0000 	.long.LASF72
 5250 0404 08        	.byte0x8
 5251 0405 77        	.byte0x77
 5252 0406 0000 00FC 	.long0xfc
 5253 040a 04        	.byte0x4
 5254 040b 00        	.byte0
 5255 040c 0D        	.uleb128 0xd
 5256 040d 04        	.byte0x4
 5257 040e 0000 0030 	.long0x30
 5258 0412 0A        	.uleb128 0xa
 5259 0413 0000 0000 	.long.LASF73
 5260 0417 80        	.byte0x80
 5261 0418 08        	.byte0x8
 5262 0419 B5        	.byte0xb5
 5263 041a 0000 053C 	.long0x53c
 5264 041e 11        	.uleb128 0x11
 5265 041f 5F70 00   	.string"_p"
 5266 0422 08        	.byte0x8
 5267 0423 B6        	.byte0xb6
 5268 0424 0000 040C 	.long0x40c
 5269 0428 00        	.byte0
 5270 0429 11        	.uleb128 0x11
 5271 042a 5F72 00   	.string"_r"
 5272 042d 08        	.byte0x8
 5273 042e B7        	.byte0xb7
 5274 042f 0000 00FC 	.long0xfc
 5275 0433 04        	.byte0x4
 5276 0434 11        	.uleb128 0x11
 5277 0435 5F77 00   	.string"_w"
 5278 0438 08        	.byte0x8
68K GAS   			page 142


 5279 0439 B8        	.byte0xb8
 5280 043a 0000 00FC 	.long0xfc
 5281 043e 08        	.byte0x8
 5282 043f 0B        	.uleb128 0xb
 5283 0440 0000 0000 	.long.LASF74
 5284 0444 08        	.byte0x8
 5285 0445 B9        	.byte0xb9
 5286 0446 0000 0049 	.long0x49
 5287 044a 0C        	.byte0xc
 5288 044b 0B        	.uleb128 0xb
 5289 044c 0000 0000 	.long.LASF75
 5290 0450 08        	.byte0x8
 5291 0451 BA        	.byte0xba
 5292 0452 0000 0049 	.long0x49
 5293 0456 0E        	.byte0xe
 5294 0457 11        	.uleb128 0x11
 5295 0458 5F62 6600 	.string"_bf"
 5296 045c 08        	.byte0x8
 5297 045d BB        	.byte0xbb
 5298 045e 0000 03E7 	.long0x3e7
 5299 0462 10        	.byte0x10
 5300 0463 0B        	.uleb128 0xb
 5301 0464 0000 0000 	.long.LASF76
 5302 0468 08        	.byte0x8
 5303 0469 BC        	.byte0xbc
 5304 046a 0000 00FC 	.long0xfc
 5305 046e 18        	.byte0x18
 5306 046f 0B        	.uleb128 0xb
 5307 0470 0000 0000 	.long.LASF77
 5308 0474 08        	.byte0x8
 5309 0475 C3        	.byte0xc3
 5310 0476 0000 00D2 	.long0xd2
 5311 047a 1C        	.byte0x1c
 5312 047b 0B        	.uleb128 0xb
 5313 047c 0000 0000 	.long.LASF78
 5314 0480 08        	.byte0x8
 5315 0481 C5        	.byte0xc5
 5316 0482 0000 0673 	.long0x673
 5317 0486 20        	.byte0x20
 5318 0487 0B        	.uleb128 0xb
 5319 0488 0000 0000 	.long.LASF79
 5320 048c 08        	.byte0x8
 5321 048d C7        	.byte0xc7
 5322 048e 0000 0697 	.long0x697
 5323 0492 24        	.byte0x24
 5324 0493 0B        	.uleb128 0xb
 5325 0494 0000 0000 	.long.LASF80
 5326 0498 08        	.byte0x8
 5327 0499 CA        	.byte0xca
 5328 049a 0000 06BB 	.long0x6bb
 5329 049e 28        	.byte0x28
 5330 049f 0B        	.uleb128 0xb
 5331 04a0 0000 0000 	.long.LASF81
 5332 04a4 08        	.byte0x8
 5333 04a5 CB        	.byte0xcb
 5334 04a6 0000 06D5 	.long0x6d5
 5335 04aa 2C        	.byte0x2c
68K GAS   			page 143


 5336 04ab 11        	.uleb128 0x11
 5337 04ac 5F75 6200 	.string"_ub"
 5338 04b0 08        	.byte0x8
 5339 04b1 CE        	.byte0xce
 5340 04b2 0000 03E7 	.long0x3e7
 5341 04b6 30        	.byte0x30
 5342 04b7 11        	.uleb128 0x11
 5343 04b8 5F75 7000 	.string"_up"
 5344 04bc 08        	.byte0x8
 5345 04bd CF        	.byte0xcf
 5346 04be 0000 040C 	.long0x40c
 5347 04c2 38        	.byte0x38
 5348 04c3 11        	.uleb128 0x11
 5349 04c4 5F75 7200 	.string"_ur"
 5350 04c8 08        	.byte0x8
 5351 04c9 D0        	.byte0xd0
 5352 04ca 0000 00FC 	.long0xfc
 5353 04ce 3C        	.byte0x3c
 5354 04cf 0B        	.uleb128 0xb
 5355 04d0 0000 0000 	.long.LASF82
 5356 04d4 08        	.byte0x8
 5357 04d5 D3        	.byte0xd3
 5358 04d6 0000 06DB 	.long0x6db
 5359 04da 40        	.byte0x40
 5360 04db 0B        	.uleb128 0xb
 5361 04dc 0000 0000 	.long.LASF83
 5362 04e0 08        	.byte0x8
 5363 04e1 D4        	.byte0xd4
 5364 04e2 0000 06EB 	.long0x6eb
 5365 04e6 43        	.byte0x43
 5366 04e7 11        	.uleb128 0x11
 5367 04e8 5F6C 6200 	.string"_lb"
 5368 04ec 08        	.byte0x8
 5369 04ed D7        	.byte0xd7
 5370 04ee 0000 03E7 	.long0x3e7
 5371 04f2 44        	.byte0x44
 5372 04f3 0B        	.uleb128 0xb
 5373 04f4 0000 0000 	.long.LASF84
 5374 04f8 08        	.byte0x8
 5375 04f9 DA        	.byte0xda
 5376 04fa 0000 00FC 	.long0xfc
 5377 04fe 4C        	.byte0x4c
 5378 04ff 0B        	.uleb128 0xb
 5379 0500 0000 0000 	.long.LASF85
 5380 0504 08        	.byte0x8
 5381 0505 DB        	.byte0xdb
 5382 0506 0000 00E6 	.long0xe6
 5383 050a 50        	.byte0x50
 5384 050b 0B        	.uleb128 0xb
 5385 050c 0000 0000 	.long.LASF86
 5386 0510 08        	.byte0x8
 5387 0511 DE        	.byte0xde
 5388 0512 0000 055A 	.long0x55a
 5389 0516 58        	.byte0x58
 5390 0517 0B        	.uleb128 0xb
 5391 0518 0000 0000 	.long.LASF87
 5392 051c 08        	.byte0x8
68K GAS   			page 144


 5393 051d E2        	.byte0xe2
 5394 051e 0000 0244 	.long0x244
 5395 0522 5C        	.byte0x5c
 5396 0523 0B        	.uleb128 0xb
 5397 0524 0000 0000 	.long.LASF88
 5398 0528 08        	.byte0x8
 5399 0529 E4        	.byte0xe4
 5400 052a 0000 0239 	.long0x239
 5401 052e 74        	.byte0x74
 5402 052f 0B        	.uleb128 0xb
 5403 0530 0000 0000 	.long.LASF89
 5404 0534 08        	.byte0x8
 5405 0535 E5        	.byte0xe5
 5406 0536 0000 00FC 	.long0xfc
 5407 053a 7C        	.byte0x7c
 5408 053b 00        	.byte0
 5409 053c 15        	.uleb128 0x15
 5410 053d 0000 01D2 	.long0x1d2
 5411 0541 0000 055A 	.long0x55a
 5412 0545 16        	.uleb128 0x16
 5413 0546 0000 055A 	.long0x55a
 5414 054a 16        	.uleb128 0x16
 5415 054b 0000 00D2 	.long0xd2
 5416 054f 16        	.uleb128 0x16
 5417 0550 0000 066D 	.long0x66d
 5418 0554 16        	.uleb128 0x16
 5419 0555 0000 00FC 	.long0xfc
 5420 0559 00        	.byte0
 5421 055a 0D        	.uleb128 0xd
 5422 055b 04        	.byte0x4
 5423 055c 0000 0565 	.long0x565
 5424 0560 05        	.uleb128 0x5
 5425 0561 0000 055A 	.long0x55a
 5426 0565 17        	.uleb128 0x17
 5427 0566 0000 0000 	.long.LASF90
 5428 056a 0158      	.word0x158
 5429 056c 08        	.byte0x8
 5430 056d 0239      	.word0x239
 5431 056f 0000 066D 	.long0x66d
 5432 0573 18        	.uleb128 0x18
 5433 0574 0000 0000 	.long.LASF91
 5434 0578 08        	.byte0x8
 5435 0579 023B      	.word0x23b
 5436 057b 0000 00FC 	.long0xfc
 5437 057f 00        	.byte0
 5438 0580 18        	.uleb128 0x18
 5439 0581 0000 0000 	.long.LASF92
 5440 0585 08        	.byte0x8
 5441 0586 0240      	.word0x240
 5442 0588 0000 0742 	.long0x742
 5443 058c 04        	.byte0x4
 5444 058d 18        	.uleb128 0x18
 5445 058e 0000 0000 	.long.LASF93
 5446 0592 08        	.byte0x8
 5447 0593 0240      	.word0x240
 5448 0595 0000 0742 	.long0x742
 5449 0599 08        	.byte0x8
68K GAS   			page 145


 5450 059a 18        	.uleb128 0x18
 5451 059b 0000 0000 	.long.LASF94
 5452 059f 08        	.byte0x8
 5453 05a0 0240      	.word0x240
 5454 05a2 0000 0742 	.long0x742
 5455 05a6 0C        	.byte0xc
 5456 05a7 18        	.uleb128 0x18
 5457 05a8 0000 0000 	.long.LASF95
 5458 05ac 08        	.byte0x8
 5459 05ad 0242      	.word0x242
 5460 05af 0000 00FC 	.long0xfc
 5461 05b3 10        	.byte0x10
 5462 05b4 18        	.uleb128 0x18
 5463 05b5 0000 0000 	.long.LASF96
 5464 05b9 08        	.byte0x8
 5465 05ba 0243      	.word0x243
 5466 05bc 0000 0924 	.long0x924
 5467 05c0 14        	.byte0x14
 5468 05c1 18        	.uleb128 0x18
 5469 05c2 0000 0000 	.long.LASF97
 5470 05c6 08        	.byte0x8
 5471 05c7 0246      	.word0x246
 5472 05c9 0000 00FC 	.long0xfc
 5473 05cd 30        	.byte0x30
 5474 05ce 18        	.uleb128 0x18
 5475 05cf 0000 0000 	.long.LASF98
 5476 05d3 08        	.byte0x8
 5477 05d4 0247      	.word0x247
 5478 05d6 0000 0939 	.long0x939
 5479 05da 34        	.byte0x34
 5480 05db 18        	.uleb128 0x18
 5481 05dc 0000 0000 	.long.LASF99
 5482 05e0 08        	.byte0x8
 5483 05e1 0249      	.word0x249
 5484 05e3 0000 00FC 	.long0xfc
 5485 05e7 38        	.byte0x38
 5486 05e8 18        	.uleb128 0x18
 5487 05e9 0000 0000 	.long.LASF100
 5488 05ed 08        	.byte0x8
 5489 05ee 024B      	.word0x24b
 5490 05f0 0000 094A 	.long0x94a
 5491 05f4 3C        	.byte0x3c
 5492 05f5 18        	.uleb128 0x18
 5493 05f6 0000 0000 	.long.LASF101
 5494 05fa 08        	.byte0x8
 5495 05fb 024E      	.word0x24e
 5496 05fd 0000 02AD 	.long0x2ad
 5497 0601 40        	.byte0x40
 5498 0602 18        	.uleb128 0x18
 5499 0603 0000 0000 	.long.LASF102
 5500 0607 08        	.byte0x8
 5501 0608 024F      	.word0x24f
 5502 060a 0000 00FC 	.long0xfc
 5503 060e 44        	.byte0x44
 5504 060f 18        	.uleb128 0x18
 5505 0610 0000 0000 	.long.LASF103
 5506 0614 08        	.byte0x8
68K GAS   			page 146


 5507 0615 0250      	.word0x250
 5508 0617 0000 02AD 	.long0x2ad
 5509 061b 48        	.byte0x48
 5510 061c 18        	.uleb128 0x18
 5511 061d 0000 0000 	.long.LASF104
 5512 0621 08        	.byte0x8
 5513 0622 0251      	.word0x251
 5514 0624 0000 0950 	.long0x950
 5515 0628 4C        	.byte0x4c
 5516 0629 18        	.uleb128 0x18
 5517 062a 0000 0000 	.long.LASF105
 5518 062e 08        	.byte0x8
 5519 062f 0254      	.word0x254
 5520 0631 0000 00FC 	.long0xfc
 5521 0635 50        	.byte0x50
 5522 0636 18        	.uleb128 0x18
 5523 0637 0000 0000 	.long.LASF106
 5524 063b 08        	.byte0x8
 5525 063c 0255      	.word0x255
 5526 063e 0000 066D 	.long0x66d
 5527 0642 54        	.byte0x54
 5528 0643 18        	.uleb128 0x18
 5529 0644 0000 0000 	.long.LASF107
 5530 0648 08        	.byte0x8
 5531 0649 0278      	.word0x278
 5532 064b 0000 0902 	.long0x902
 5533 064f 58        	.byte0x58
 5534 0650 19        	.uleb128 0x19
 5535 0651 0000 0000 	.long.LASF108
 5536 0655 08        	.byte0x8
 5537 0656 0281      	.word0x281
 5538 0658 0000 0961 	.long0x961
 5539 065c 0148      	.word0x148
 5540 065e 19        	.uleb128 0x19
 5541 065f 0000 0000 	.long.LASF109
 5542 0663 08        	.byte0x8
 5543 0664 0286      	.word0x286
 5544 0666 0000 0707 	.long0x707
 5545 066a 014C      	.word0x14c
 5546 066c 00        	.byte0
 5547 066d 0D        	.uleb128 0xd
 5548 066e 04        	.byte0x4
 5549 066f 0000 00B6 	.long0xb6
 5550 0673 0D        	.uleb128 0xd
 5551 0674 04        	.byte0x4
 5552 0675 0000 053C 	.long0x53c
 5553 0679 15        	.uleb128 0x15
 5554 067a 0000 01D2 	.long0x1d2
 5555 067e 0000 0697 	.long0x697
 5556 0682 16        	.uleb128 0x16
 5557 0683 0000 055A 	.long0x55a
 5558 0687 16        	.uleb128 0x16
 5559 0688 0000 00D2 	.long0xd2
 5560 068c 16        	.uleb128 0x16
 5561 068d 0000 0182 	.long0x182
 5562 0691 16        	.uleb128 0x16
 5563 0692 0000 00FC 	.long0xfc
68K GAS   			page 147


 5564 0696 00        	.byte0
 5565 0697 0D        	.uleb128 0xd
 5566 0698 04        	.byte0x4
 5567 0699 0000 0679 	.long0x679
 5568 069d 15        	.uleb128 0x15
 5569 069e 0000 00F1 	.long0xf1
 5570 06a2 0000 06BB 	.long0x6bb
 5571 06a6 16        	.uleb128 0x16
 5572 06a7 0000 055A 	.long0x55a
 5573 06ab 16        	.uleb128 0x16
 5574 06ac 0000 00D2 	.long0xd2
 5575 06b0 16        	.uleb128 0x16
 5576 06b1 0000 00F1 	.long0xf1
 5577 06b5 16        	.uleb128 0x16
 5578 06b6 0000 00FC 	.long0xfc
 5579 06ba 00        	.byte0
 5580 06bb 0D        	.uleb128 0xd
 5581 06bc 04        	.byte0x4
 5582 06bd 0000 069D 	.long0x69d
 5583 06c1 15        	.uleb128 0x15
 5584 06c2 0000 00FC 	.long0xfc
 5585 06c6 0000 06D5 	.long0x6d5
 5586 06ca 16        	.uleb128 0x16
 5587 06cb 0000 055A 	.long0x55a
 5588 06cf 16        	.uleb128 0x16
 5589 06d0 0000 00D2 	.long0xd2
 5590 06d4 00        	.byte0
 5591 06d5 0D        	.uleb128 0xd
 5592 06d6 04        	.byte0x4
 5593 06d7 0000 06C1 	.long0x6c1
 5594 06db 06        	.uleb128 0x6
 5595 06dc 0000 0030 	.long0x30
 5596 06e0 0000 06EB 	.long0x6eb
 5597 06e4 07        	.uleb128 0x7
 5598 06e5 0000 0091 	.long0x91
 5599 06e9 02        	.byte0x2
 5600 06ea 00        	.byte0
 5601 06eb 06        	.uleb128 0x6
 5602 06ec 0000 0030 	.long0x30
 5603 06f0 0000 06FB 	.long0x6fb
 5604 06f4 07        	.uleb128 0x7
 5605 06f5 0000 0091 	.long0x91
 5606 06f9 00        	.byte0
 5607 06fa 00        	.byte0
 5608 06fb 04        	.uleb128 0x4
 5609 06fc 0000 0000 	.long.LASF110
 5610 0700 08        	.byte0x8
 5611 0701 011F      	.word0x11f
 5612 0703 0000 0412 	.long0x412
 5613 0707 1A        	.uleb128 0x1a
 5614 0708 0000 0000 	.long.LASF111
 5615 070c 0C        	.byte0xc
 5616 070d 08        	.byte0x8
 5617 070e 0123      	.word0x123
 5618 0710 0000 073C 	.long0x73c
 5619 0714 18        	.uleb128 0x18
 5620 0715 0000 0000 	.long.LASF48
68K GAS   			page 148


 5621 0719 08        	.byte0x8
 5622 071a 0125      	.word0x125
 5623 071c 0000 073C 	.long0x73c
 5624 0720 00        	.byte0
 5625 0721 18        	.uleb128 0x18
 5626 0722 0000 0000 	.long.LASF112
 5627 0726 08        	.byte0x8
 5628 0727 0126      	.word0x126
 5629 0729 0000 00FC 	.long0xfc
 5630 072d 04        	.byte0x4
 5631 072e 18        	.uleb128 0x18
 5632 072f 0000 0000 	.long.LASF113
 5633 0733 08        	.byte0x8
 5634 0734 0127      	.word0x127
 5635 0736 0000 0742 	.long0x742
 5636 073a 08        	.byte0x8
 5637 073b 00        	.byte0
 5638 073c 0D        	.uleb128 0xd
 5639 073d 04        	.byte0x4
 5640 073e 0000 0707 	.long0x707
 5641 0742 0D        	.uleb128 0xd
 5642 0743 04        	.byte0x4
 5643 0744 0000 06FB 	.long0x6fb
 5644 0748 1A        	.uleb128 0x1a
 5645 0749 0000 0000 	.long.LASF114
 5646 074d 0E        	.byte0xe
 5647 074e 08        	.byte0x8
 5648 074f 013F      	.word0x13f
 5649 0751 0000 077D 	.long0x77d
 5650 0755 18        	.uleb128 0x18
 5651 0756 0000 0000 	.long.LASF115
 5652 075a 08        	.byte0x8
 5653 075b 0140      	.word0x140
 5654 075d 0000 077D 	.long0x77d
 5655 0761 00        	.byte0
 5656 0762 18        	.uleb128 0x18
 5657 0763 0000 0000 	.long.LASF116
 5658 0767 08        	.byte0x8
 5659 0768 0141      	.word0x141
 5660 076a 0000 077D 	.long0x77d
 5661 076e 06        	.byte0x6
 5662 076f 18        	.uleb128 0x18
 5663 0770 0000 0000 	.long.LASF117
 5664 0774 08        	.byte0x8
 5665 0775 0142      	.word0x142
 5666 0777 0000 007F 	.long0x7f
 5667 077b 0C        	.byte0xc
 5668 077c 00        	.byte0
 5669 077d 06        	.uleb128 0x6
 5670 077e 0000 007F 	.long0x7f
 5671 0782 0000 078D 	.long0x78d
 5672 0786 07        	.uleb128 0x7
 5673 0787 0000 0091 	.long0x91
 5674 078b 02        	.byte0x2
 5675 078c 00        	.byte0
 5676 078d 1B        	.uleb128 0x1b
 5677 078e CC        	.byte0xcc
68K GAS   			page 149


 5678 078f 08        	.byte0x8
 5679 0790 0259      	.word0x259
 5680 0792 0000 088E 	.long0x88e
 5681 0796 18        	.uleb128 0x18
 5682 0797 0000 0000 	.long.LASF118
 5683 079b 08        	.byte0x8
 5684 079c 025B      	.word0x25b
 5685 079e 0000 0128 	.long0x128
 5686 07a2 00        	.byte0
 5687 07a3 18        	.uleb128 0x18
 5688 07a4 0000 0000 	.long.LASF119
 5689 07a8 08        	.byte0x8
 5690 07a9 025C      	.word0x25c
 5691 07ab 0000 066D 	.long0x66d
 5692 07af 04        	.byte0x4
 5693 07b0 18        	.uleb128 0x18
 5694 07b1 0000 0000 	.long.LASF120
 5695 07b5 08        	.byte0x8
 5696 07b6 025D      	.word0x25d
 5697 07b8 0000 088E 	.long0x88e
 5698 07bc 08        	.byte0x8
 5699 07bd 18        	.uleb128 0x18
 5700 07be 0000 0000 	.long.LASF121
 5701 07c2 08        	.byte0x8
 5702 07c3 025E      	.word0x25e
 5703 07c5 0000 02C3 	.long0x2c3
 5704 07c9 24        	.byte0x24
 5705 07ca 18        	.uleb128 0x18
 5706 07cb 0000 0000 	.long.LASF122
 5707 07cf 08        	.byte0x8
 5708 07d0 025F      	.word0x25f
 5709 07d2 0000 00FC 	.long0xfc
 5710 07d6 48        	.byte0x48
 5711 07d7 18        	.uleb128 0x18
 5712 07d8 0000 0000 	.long.LASF123
 5713 07dc 08        	.byte0x8
 5714 07dd 0260      	.word0x260
 5715 07df 0000 0098 	.long0x98
 5716 07e3 4C        	.byte0x4c
 5717 07e4 18        	.uleb128 0x18
 5718 07e5 0000 0000 	.long.LASF124
 5719 07e9 08        	.byte0x8
 5720 07ea 0261      	.word0x261
 5721 07ec 0000 0748 	.long0x748
 5722 07f0 54        	.byte0x54
 5723 07f1 18        	.uleb128 0x18
 5724 07f2 0000 0000 	.long.LASF125
 5725 07f6 08        	.byte0x8
 5726 07f7 0262      	.word0x262
 5727 07f9 0000 0239 	.long0x239
 5728 07fd 64        	.byte0x64
 5729 07fe 18        	.uleb128 0x18
 5730 07ff 0000 0000 	.long.LASF126
 5731 0803 08        	.byte0x8
 5732 0804 0263      	.word0x263
 5733 0806 0000 0239 	.long0x239
 5734 080a 6C        	.byte0x6c
68K GAS   			page 150


 5735 080b 18        	.uleb128 0x18
 5736 080c 0000 0000 	.long.LASF127
 5737 0810 08        	.byte0x8
 5738 0811 0264      	.word0x264
 5739 0813 0000 0239 	.long0x239
 5740 0817 74        	.byte0x74
 5741 0818 18        	.uleb128 0x18
 5742 0819 0000 0000 	.long.LASF128
 5743 081d 08        	.byte0x8
 5744 081e 0265      	.word0x265
 5745 0820 0000 089E 	.long0x89e
 5746 0824 7C        	.byte0x7c
 5747 0825 18        	.uleb128 0x18
 5748 0826 0000 0000 	.long.LASF129
 5749 082a 08        	.byte0x8
 5750 082b 0266      	.word0x266
 5751 082d 0000 08AE 	.long0x8ae
 5752 0831 84        	.byte0x84
 5753 0832 18        	.uleb128 0x18
 5754 0833 0000 0000 	.long.LASF130
 5755 0837 08        	.byte0x8
 5756 0838 0267      	.word0x267
 5757 083a 0000 00FC 	.long0xfc
 5758 083e 9C        	.byte0x9c
 5759 083f 18        	.uleb128 0x18
 5760 0840 0000 0000 	.long.LASF131
 5761 0844 08        	.byte0x8
 5762 0845 0268      	.word0x268
 5763 0847 0000 0239 	.long0x239
 5764 084b A0        	.byte0xa0
 5765 084c 18        	.uleb128 0x18
 5766 084d 0000 0000 	.long.LASF132
 5767 0851 08        	.byte0x8
 5768 0852 0269      	.word0x269
 5769 0854 0000 0239 	.long0x239
 5770 0858 A8        	.byte0xa8
 5771 0859 18        	.uleb128 0x18
 5772 085a 0000 0000 	.long.LASF133
 5773 085e 08        	.byte0x8
 5774 085f 026A      	.word0x26a
 5775 0861 0000 0239 	.long0x239
 5776 0865 B0        	.byte0xb0
 5777 0866 18        	.uleb128 0x18
 5778 0867 0000 0000 	.long.LASF134
 5779 086b 08        	.byte0x8
 5780 086c 026B      	.word0x26b
 5781 086e 0000 0239 	.long0x239
 5782 0872 B8        	.byte0xb8
 5783 0873 18        	.uleb128 0x18
 5784 0874 0000 0000 	.long.LASF135
 5785 0878 08        	.byte0x8
 5786 0879 026C      	.word0x26c
 5787 087b 0000 0239 	.long0x239
 5788 087f C0        	.byte0xc0
 5789 0880 18        	.uleb128 0x18
 5790 0881 0000 0000 	.long.LASF136
 5791 0885 08        	.byte0x8
68K GAS   			page 151


 5792 0886 026D      	.word0x26d
 5793 0888 0000 00FC 	.long0xfc
 5794 088c C8        	.byte0xc8
 5795 088d 00        	.byte0
 5796 088e 06        	.uleb128 0x6
 5797 088f 0000 00B6 	.long0xb6
 5798 0893 0000 089E 	.long0x89e
 5799 0897 07        	.uleb128 0x7
 5800 0898 0000 0091 	.long0x91
 5801 089c 19        	.byte0x19
 5802 089d 00        	.byte0
 5803 089e 06        	.uleb128 0x6
 5804 089f 0000 00B6 	.long0xb6
 5805 08a3 0000 08AE 	.long0x8ae
 5806 08a7 07        	.uleb128 0x7
 5807 08a8 0000 0091 	.long0x91
 5808 08ac 07        	.byte0x7
 5809 08ad 00        	.byte0
 5810 08ae 06        	.uleb128 0x6
 5811 08af 0000 00B6 	.long0xb6
 5812 08b3 0000 08BE 	.long0x8be
 5813 08b7 07        	.uleb128 0x7
 5814 08b8 0000 0091 	.long0x91
 5815 08bc 17        	.byte0x17
 5816 08bd 00        	.byte0
 5817 08be 1B        	.uleb128 0x1b
 5818 08bf F0        	.byte0xf0
 5819 08c0 08        	.byte0x8
 5820 08c1 0272      	.word0x272
 5821 08c3 0000 08E2 	.long0x8e2
 5822 08c7 18        	.uleb128 0x18
 5823 08c8 0000 0000 	.long.LASF137
 5824 08cc 08        	.byte0x8
 5825 08cd 0275      	.word0x275
 5826 08cf 0000 08E2 	.long0x8e2
 5827 08d3 00        	.byte0
 5828 08d4 18        	.uleb128 0x18
 5829 08d5 0000 0000 	.long.LASF138
 5830 08d9 08        	.byte0x8
 5831 08da 0276      	.word0x276
 5832 08dc 0000 08F2 	.long0x8f2
 5833 08e0 78        	.byte0x78
 5834 08e1 00        	.byte0
 5835 08e2 06        	.uleb128 0x6
 5836 08e3 0000 040C 	.long0x40c
 5837 08e7 0000 08F2 	.long0x8f2
 5838 08eb 07        	.uleb128 0x7
 5839 08ec 0000 0091 	.long0x91
 5840 08f0 1D        	.byte0x1d
 5841 08f1 00        	.byte0
 5842 08f2 06        	.uleb128 0x6
 5843 08f3 0000 0128 	.long0x128
 5844 08f7 0000 0902 	.long0x902
 5845 08fb 07        	.uleb128 0x7
 5846 08fc 0000 0091 	.long0x91
 5847 0900 1D        	.byte0x1d
 5848 0901 00        	.byte0
68K GAS   			page 152


 5849 0902 1C        	.uleb128 0x1c
 5850 0903 F0        	.byte0xf0
 5851 0904 08        	.byte0x8
 5852 0905 0257      	.word0x257
 5853 0907 0000 0924 	.long0x924
 5854 090b 1D        	.uleb128 0x1d
 5855 090c 0000 0000 	.long.LASF90
 5856 0910 08        	.byte0x8
 5857 0911 026E      	.word0x26e
 5858 0913 0000 078D 	.long0x78d
 5859 0917 1D        	.uleb128 0x1d
 5860 0918 0000 0000 	.long.LASF139
 5861 091c 08        	.byte0x8
 5862 091d 0277      	.word0x277
 5863 091f 0000 08BE 	.long0x8be
 5864 0923 00        	.byte0
 5865 0924 06        	.uleb128 0x6
 5866 0925 0000 00B6 	.long0xb6
 5867 0929 0000 0934 	.long0x934
 5868 092d 07        	.uleb128 0x7
 5869 092e 0000 0091 	.long0x91
 5870 0932 18        	.byte0x18
 5871 0933 00        	.byte0
 5872 0934 0C        	.uleb128 0xc
 5873 0935 0000 0000 	.long.LASF140
 5874 0939 0D        	.uleb128 0xd
 5875 093a 04        	.byte0x4
 5876 093b 0000 0934 	.long0x934
 5877 093f 1E        	.uleb128 0x1e
 5878 0940 0000 094A 	.long0x94a
 5879 0944 16        	.uleb128 0x16
 5880 0945 0000 055A 	.long0x55a
 5881 0949 00        	.byte0
 5882 094a 0D        	.uleb128 0xd
 5883 094b 04        	.byte0x4
 5884 094c 0000 093F 	.long0x93f
 5885 0950 0D        	.uleb128 0xd
 5886 0951 04        	.byte0x4
 5887 0952 0000 02AD 	.long0x2ad
 5888 0956 1E        	.uleb128 0x1e
 5889 0957 0000 0961 	.long0x961
 5890 095b 16        	.uleb128 0x16
 5891 095c 0000 00FC 	.long0xfc
 5892 0960 00        	.byte0
 5893 0961 0D        	.uleb128 0xd
 5894 0962 04        	.byte0x4
 5895 0963 0000 0967 	.long0x967
 5896 0967 0D        	.uleb128 0xd
 5897 0968 04        	.byte0x4
 5898 0969 0000 0956 	.long0x956
 5899 096d 06        	.uleb128 0x6
 5900 096e 0000 06FB 	.long0x6fb
 5901 0972 0000 097D 	.long0x97d
 5902 0976 07        	.uleb128 0x7
 5903 0977 0000 0091 	.long0x91
 5904 097b 02        	.byte0x2
 5905 097c 00        	.byte0
68K GAS   			page 153


 5906 097d 1F        	.uleb128 0x1f
 5907 097e 0000 0000 	.long.LASF141
 5908 0982 08        	.byte0x8
 5909 0983 028D      	.word0x28d
 5910 0985 0000 096D 	.long0x96d
 5911 0989 1F        	.uleb128 0x1f
 5912 098a 0000 0000 	.long.LASF142
 5913 098e 08        	.byte0x8
 5914 098f 0307      	.word0x307
 5915 0991 0000 055A 	.long0x55a
 5916 0995 1F        	.uleb128 0x1f
 5917 0996 0000 0000 	.long.LASF143
 5918 099a 08        	.byte0x8
 5919 099b 0308      	.word0x308
 5920 099d 0000 0560 	.long0x560
 5921 09a1 1F        	.uleb128 0x1f
 5922 09a2 0000 0000 	.long.LASF144
 5923 09a6 08        	.byte0x8
 5924 09a7 031A      	.word0x31a
 5925 09a9 0000 03CA 	.long0x3ca
 5926 09ad 20        	.uleb128 0x20
 5927 09ae 0000 0000 	.long.LASF145
 5928 09b2 09        	.byte0x9
 5929 09b3 63        	.byte0x63
 5930 09b4 0000 066D 	.long0x66d
 5931 09b8 20        	.uleb128 0x20
 5932 09b9 0000 0000 	.long.LASF146
 5933 09bd 0A        	.byte0xa
 5934 09be 9A        	.byte0x9a
 5935 09bf 0000 005B 	.long0x5b
 5936 09c3 20        	.uleb128 0x20
 5937 09c4 0000 0000 	.long.LASF147
 5938 09c8 0A        	.byte0xa
 5939 09c9 9B        	.byte0x9b
 5940 09ca 0000 00FC 	.long0xfc
 5941 09ce 06        	.uleb128 0x6
 5942 09cf 0000 066D 	.long0x66d
 5943 09d3 0000 09DE 	.long0x9de
 5944 09d7 07        	.uleb128 0x7
 5945 09d8 0000 0091 	.long0x91
 5946 09dc 01        	.byte0x1
 5947 09dd 00        	.byte0
 5948 09de 20        	.uleb128 0x20
 5949 09df 0000 0000 	.long.LASF148
 5950 09e3 0A        	.byte0xa
 5951 09e4 9E        	.byte0x9e
 5952 09e5 0000 09CE 	.long0x9ce
 5953 09e9 06        	.uleb128 0x6
 5954 09ea 0000 00B6 	.long0xb6
 5955 09ee 0000 09F9 	.long0x9f9
 5956 09f2 07        	.uleb128 0x7
 5957 09f3 0000 0091 	.long0x91
 5958 09f7 1F        	.byte0x1f
 5959 09f8 00        	.byte0
 5960 09f9 06        	.uleb128 0x6
 5961 09fa 0000 00B6 	.long0xb6
 5962 09fe 0000 0A09 	.long0xa09
68K GAS   			page 154


 5963 0a02 07        	.uleb128 0x7
 5964 0a03 0000 0091 	.long0x91
 5965 0a07 3F        	.byte0x3f
 5966 0a08 00        	.byte0
 5967 0a09 10        	.uleb128 0x10
 5968 0a0a 08        	.byte0x8
 5969 0a0b 0B        	.byte0xb
 5970 0a0c 4D        	.byte0x4d
 5971 0a0d 0000 0A2A 	.long0xa2a
 5972 0a11 0B        	.uleb128 0xb
 5973 0a12 0000 0000 	.long.LASF149
 5974 0a16 0B        	.byte0xb
 5975 0a17 4F        	.byte0x4f
 5976 0a18 0000 0086 	.long0x86
 5977 0a1c 00        	.byte0
 5978 0a1d 0B        	.uleb128 0xb
 5979 0a1e 0000 0000 	.long.LASF150
 5980 0a22 0B        	.byte0xb
 5981 0a23 50        	.byte0x50
 5982 0a24 0000 0086 	.long0x86
 5983 0a28 04        	.byte0x4
 5984 0a29 00        	.byte0
 5985 0a2a 02        	.uleb128 0x2
 5986 0a2b 0000 0000 	.long.LASF151
 5987 0a2f 0B        	.byte0xb
 5988 0a30 51        	.byte0x51
 5989 0a31 0000 0A09 	.long0xa09
 5990 0a35 10        	.uleb128 0x10
 5991 0a36 20        	.byte0x20
 5992 0a37 0B        	.byte0xb
 5993 0a38 92        	.byte0x92
 5994 0a39 0000 0A86 	.long0xa86
 5995 0a3d 0B        	.uleb128 0xb
 5996 0a3e 0000 0000 	.long.LASF152
 5997 0a42 0B        	.byte0xb
 5998 0a43 94        	.byte0x94
 5999 0a44 0000 0086 	.long0x86
 6000 0a48 00        	.byte0
 6001 0a49 0B        	.uleb128 0xb
 6002 0a4a 0000 0000 	.long.LASF153
 6003 0a4e 0B        	.byte0xb
 6004 0a4f 95        	.byte0x95
 6005 0a50 0000 003E 	.long0x3e
 6006 0a54 04        	.byte0x4
 6007 0a55 0B        	.uleb128 0xb
 6008 0a56 0000 0000 	.long.LASF154
 6009 0a5a 0B        	.byte0xb
 6010 0a5b 96        	.byte0x96
 6011 0a5c 0000 0074 	.long0x74
 6012 0a60 06        	.byte0x6
 6013 0a61 0B        	.uleb128 0xb
 6014 0a62 0000 0000 	.long.LASF155
 6015 0a66 0B        	.byte0xb
 6016 0a67 97        	.byte0x97
 6017 0a68 0000 0A2A 	.long0xa2a
 6018 0a6c 08        	.byte0x8
 6019 0a6d 0B        	.uleb128 0xb
68K GAS   			page 155


 6020 0a6e 0000 0000 	.long.LASF156
 6021 0a72 0B        	.byte0xb
 6022 0a73 98        	.byte0x98
 6023 0a74 0000 0A2A 	.long0xa2a
 6024 0a78 10        	.byte0x10
 6025 0a79 0B        	.uleb128 0xb
 6026 0a7a 0000 0000 	.long.LASF157
 6027 0a7e 0B        	.byte0xb
 6028 0a7f 99        	.byte0x99
 6029 0a80 0000 0A2A 	.long0xa2a
 6030 0a84 18        	.byte0x18
 6031 0a85 00        	.byte0
 6032 0a86 02        	.uleb128 0x2
 6033 0a87 0000 0000 	.long.LASF158
 6034 0a8b 0B        	.byte0xb
 6035 0a8c 9B        	.byte0x9b
 6036 0a8d 0000 0A35 	.long0xa35
 6037 0a91 06        	.uleb128 0x6
 6038 0a92 0000 0086 	.long0x86
 6039 0a96 0000 0AA1 	.long0xaa1
 6040 0a9a 07        	.uleb128 0x7
 6041 0a9b 0000 0091 	.long0x91
 6042 0a9f 1F        	.byte0x1f
 6043 0aa0 00        	.byte0
 6044 0aa1 10        	.uleb128 0x10
 6045 0aa2 06        	.byte0x6
 6046 0aa3 0C        	.byte0xc
 6047 0aa4 58        	.byte0x58
 6048 0aa5 0000 0ACE 	.long0xace
 6049 0aa9 0B        	.uleb128 0xb
 6050 0aaa 0000 0000 	.long.LASF159
 6051 0aae 0C        	.byte0xc
 6052 0aaf 5A        	.byte0x5a
 6053 0ab0 0000 0ACE 	.long0xace
 6054 0ab4 00        	.byte0
 6055 0ab5 0B        	.uleb128 0xb
 6056 0ab6 0000 0000 	.long.LASF160
 6057 0aba 0C        	.byte0xc
 6058 0abb 61        	.byte0x61
 6059 0abc 0000 0ACE 	.long0xace
 6060 0ac0 02        	.byte0x2
 6061 0ac1 0B        	.uleb128 0xb
 6062 0ac2 0000 0000 	.long.LASF161
 6063 0ac6 0C        	.byte0xc
 6064 0ac7 66        	.byte0x66
 6065 0ac8 0000 0ACE 	.long0xace
 6066 0acc 04        	.byte0x4
 6067 0acd 00        	.byte0
 6068 0ace 06        	.uleb128 0x6
 6069 0acf 0000 0069 	.long0x69
 6070 0ad3 0000 0ADE 	.long0xade
 6071 0ad7 07        	.uleb128 0x7
 6072 0ad8 0000 0091 	.long0x91
 6073 0adc 01        	.byte0x1
 6074 0add 00        	.byte0
 6075 0ade 02        	.uleb128 0x2
 6076 0adf 0000 0000 	.long.LASF162
68K GAS   			page 156


 6077 0ae3 0C        	.byte0xc
 6078 0ae4 6A        	.byte0x6a
 6079 0ae5 0000 0AA1 	.long0xaa1
 6080 0ae9 06        	.uleb128 0x6
 6081 0aea 0000 0069 	.long0x69
 6082 0aee 0000 0AF9 	.long0xaf9
 6083 0af2 07        	.uleb128 0x7
 6084 0af3 0000 0091 	.long0x91
 6085 0af7 05        	.byte0x5
 6086 0af8 00        	.byte0
 6087 0af9 0E        	.uleb128 0xe
 6088 0afa 08        	.byte0x8
 6089 0afb 0D        	.byte0xd
 6090 0afc 75        	.byte0x75
 6091 0afd 0000 0B23 	.long0xb23
 6092 0b01 21        	.uleb128 0x21
 6093 0b02 4864 7200 	.string"Hdr"
 6094 0b06 0D        	.byte0xd
 6095 0b07 76        	.byte0x76
 6096 0b08 0000 0ADE 	.long0xade
 6097 0b0c 0F        	.uleb128 0xf
 6098 0b0d 0000 0000 	.long.LASF163
 6099 0b11 0D        	.byte0xd
 6100 0b12 77        	.byte0x77
 6101 0b13 0000 0086 	.long0x86
 6102 0b17 0F        	.uleb128 0xf
 6103 0b18 0000 0000 	.long.LASF164
 6104 0b1c 0D        	.byte0xd
 6105 0b1d 78        	.byte0x78
 6106 0b1e 0000 0AE9 	.long0xae9
 6107 0b22 00        	.byte0
 6108 0b23 02        	.uleb128 0x2
 6109 0b24 0000 0000 	.long.LASF165
 6110 0b28 0D        	.byte0xd
 6111 0b29 79        	.byte0x79
 6112 0b2a 0000 0AF9 	.long0xaf9
 6113 0b2e 02        	.uleb128 0x2
 6114 0b2f 0000 0000 	.long.LASF166
 6115 0b33 0D        	.byte0xd
 6116 0b34 98        	.byte0x98
 6117 0b35 0000 0069 	.long0x69
 6118 0b39 02        	.uleb128 0x2
 6119 0b3a 0000 0000 	.long.LASF167
 6120 0b3e 0D        	.byte0xd
 6121 0b3f 9E        	.byte0x9e
 6122 0b40 0000 0074 	.long0x74
 6123 0b44 02        	.uleb128 0x2
 6124 0b45 0000 0000 	.long.LASF168
 6125 0b49 0D        	.byte0xd
 6126 0b4a A1        	.byte0xa1
 6127 0b4b 0000 0B4F 	.long0xb4f
 6128 0b4f 0D        	.uleb128 0xd
 6129 0b50 04        	.byte0x4
 6130 0b51 0000 0B23 	.long0xb23
 6131 0b55 02        	.uleb128 0x2
 6132 0b56 0000 0000 	.long.LASF169
 6133 0b5a 0D        	.byte0xd
68K GAS   			page 157


 6134 0b5b A4        	.byte0xa4
 6135 0b5c 0000 0B65 	.long0xb65
 6136 0b60 05        	.uleb128 0x5
 6137 0b61 0000 0B55 	.long0xb55
 6138 0b65 0D        	.uleb128 0xd
 6139 0b66 04        	.byte0x4
 6140 0b67 0000 0069 	.long0x69
 6141 0b6b 10        	.uleb128 0x10
 6142 0b6c 02        	.byte0x2
 6143 0b6d 0D        	.byte0xd
 6144 0b6e B1        	.byte0xb1
 6145 0b6f 0000 0B8C 	.long0xb8c
 6146 0b73 0B        	.uleb128 0xb
 6147 0b74 0000 0000 	.long.LASF170
 6148 0b78 0D        	.byte0xd
 6149 0b79 B2        	.byte0xb2
 6150 0b7a 0000 0069 	.long0x69
 6151 0b7e 00        	.byte0
 6152 0b7f 0B        	.uleb128 0xb
 6153 0b80 0000 0000 	.long.LASF171
 6154 0b84 0D        	.byte0xd
 6155 0b85 B3        	.byte0xb3
 6156 0b86 0000 0069 	.long0x69
 6157 0b8a 01        	.byte0x1
 6158 0b8b 00        	.byte0
 6159 0b8c 02        	.uleb128 0x2
 6160 0b8d 0000 0000 	.long.LASF172
 6161 0b91 0D        	.byte0xd
 6162 0b92 B4        	.byte0xb4
 6163 0b93 0000 0B6B 	.long0xb6b
 6164 0b97 20        	.uleb128 0x20
 6165 0b98 0000 0000 	.long.LASF173
 6166 0b9c 0D        	.byte0xd
 6167 0b9d B6        	.byte0xb6
 6168 0b9e 0000 0B8C 	.long0xb8c
 6169 0ba2 1B        	.uleb128 0x1b
 6170 0ba3 40        	.byte0x40
 6171 0ba4 0E        	.byte0xe
 6172 0ba5 03CE      	.word0x3ce
 6173 0ba7 0000 0BB9 	.long0xbb9
 6174 0bab 18        	.uleb128 0x18
 6175 0bac 0000 0000 	.long.LASF174
 6176 0bb0 0E        	.byte0xe
 6177 0bb1 03CF      	.word0x3cf
 6178 0bb3 0000 09F9 	.long0x9f9
 6179 0bb7 00        	.byte0
 6180 0bb8 00        	.byte0
 6181 0bb9 04        	.uleb128 0x4
 6182 0bba 0000 0000 	.long.LASF175
 6183 0bbe 0E        	.byte0xe
 6184 0bbf 03D0      	.word0x3d0
 6185 0bc1 0000 0BA2 	.long0xba2
 6186 0bc5 05        	.uleb128 0x5
 6187 0bc6 0000 0BB9 	.long0xbb9
 6188 0bca 1B        	.uleb128 0x1b
 6189 0bcb 02        	.byte0x2
 6190 0bcc 0E        	.byte0xe
68K GAS   			page 158


 6191 0bcd 03DD      	.word0x3dd
 6192 0bcf 0000 0BEE 	.long0xbee
 6193 0bd3 18        	.uleb128 0x18
 6194 0bd4 0000 0000 	.long.LASF176
 6195 0bd8 0E        	.byte0xe
 6196 0bd9 03DE      	.word0x3de
 6197 0bdb 0000 0069 	.long0x69
 6198 0bdf 00        	.byte0
 6199 0be0 18        	.uleb128 0x18
 6200 0be1 0000 0000 	.long.LASF177
 6201 0be5 0E        	.byte0xe
 6202 0be6 03DF      	.word0x3df
 6203 0be8 0000 0069 	.long0x69
 6204 0bec 01        	.byte0x1
 6205 0bed 00        	.byte0
 6206 0bee 04        	.uleb128 0x4
 6207 0bef 0000 0000 	.long.LASF178
 6208 0bf3 0E        	.byte0xe
 6209 0bf4 03E0      	.word0x3e0
 6210 0bf6 0000 0BCA 	.long0xbca
 6211 0bfa 05        	.uleb128 0x5
 6212 0bfb 0000 0BEE 	.long0xbee
 6213 0bff 1B        	.uleb128 0x1b
 6214 0c00 02        	.byte0x2
 6215 0c01 0E        	.byte0xe
 6216 0c02 03EE      	.word0x3ee
 6217 0c04 0000 0C23 	.long0xc23
 6218 0c08 18        	.uleb128 0x18
 6219 0c09 0000 0000 	.long.LASF179
 6220 0c0d 0E        	.byte0xe
 6221 0c0e 03EF      	.word0x3ef
 6222 0c10 0000 0069 	.long0x69
 6223 0c14 00        	.byte0
 6224 0c15 18        	.uleb128 0x18
 6225 0c16 0000 0000 	.long.LASF177
 6226 0c1a 0E        	.byte0xe
 6227 0c1b 03F0      	.word0x3f0
 6228 0c1d 0000 0069 	.long0x69
 6229 0c21 01        	.byte0x1
 6230 0c22 00        	.byte0
 6231 0c23 04        	.uleb128 0x4
 6232 0c24 0000 0000 	.long.LASF180
 6233 0c28 0E        	.byte0xe
 6234 0c29 03F1      	.word0x3f1
 6235 0c2b 0000 0BFF 	.long0xbff
 6236 0c2f 05        	.uleb128 0x5
 6237 0c30 0000 0C23 	.long0xc23
 6238 0c34 1B        	.uleb128 0x1b
 6239 0c35 14        	.byte0x14
 6240 0c36 0E        	.byte0xe
 6241 0c37 03FF      	.word0x3ff
 6242 0c39 0000 0C4B 	.long0xc4b
 6243 0c3d 18        	.uleb128 0x18
 6244 0c3e 0000 0000 	.long.LASF181
 6245 0c42 0E        	.byte0xe
 6246 0c43 0400      	.word0x400
 6247 0c45 0000 00C2 	.long0xc2
68K GAS   			page 159


 6248 0c49 00        	.byte0
 6249 0c4a 00        	.byte0
 6250 0c4b 04        	.uleb128 0x4
 6251 0c4c 0000 0000 	.long.LASF182
 6252 0c50 0E        	.byte0xe
 6253 0c51 0401      	.word0x401
 6254 0c53 0000 0C34 	.long0xc34
 6255 0c57 05        	.uleb128 0x5
 6256 0c58 0000 0C4B 	.long0xc4b
 6257 0c5c 1B        	.uleb128 0x1b
 6258 0c5d 16        	.byte0x16
 6259 0c5e 0E        	.byte0xe
 6260 0c5f 040E      	.word0x40e
 6261 0c61 0000 0C80 	.long0xc80
 6262 0c65 18        	.uleb128 0x18
 6263 0c66 0000 0000 	.long.LASF181
 6264 0c6a 0E        	.byte0xe
 6265 0c6b 040F      	.word0x40f
 6266 0c6d 0000 00C2 	.long0xc2
 6267 0c71 00        	.byte0
 6268 0c72 18        	.uleb128 0x18
 6269 0c73 0000 0000 	.long.LASF183
 6270 0c77 0E        	.byte0xe
 6271 0c78 0410      	.word0x410
 6272 0c7a 0000 0074 	.long0x74
 6273 0c7e 14        	.byte0x14
 6274 0c7f 00        	.byte0
 6275 0c80 04        	.uleb128 0x4
 6276 0c81 0000 0000 	.long.LASF184
 6277 0c85 0E        	.byte0xe
 6278 0c86 0411      	.word0x411
 6279 0c88 0000 0C5C 	.long0xc5c
 6280 0c8c 05        	.uleb128 0x5
 6281 0c8d 0000 0C80 	.long0xc80
 6282 0c91 1B        	.uleb128 0x1b
 6283 0c92 16        	.byte0x16
 6284 0c93 0E        	.byte0xe
 6285 0c94 041E      	.word0x41e
 6286 0c96 0000 0CC2 	.long0xcc2
 6287 0c9a 18        	.uleb128 0x18
 6288 0c9b 0000 0000 	.long.LASF181
 6289 0c9f 0E        	.byte0xe
 6290 0ca0 041F      	.word0x41f
 6291 0ca2 0000 00C2 	.long0xc2
 6292 0ca6 00        	.byte0
 6293 0ca7 18        	.uleb128 0x18
 6294 0ca8 0000 0000 	.long.LASF179
 6295 0cac 0E        	.byte0xe
 6296 0cad 0420      	.word0x420
 6297 0caf 0000 0069 	.long0x69
 6298 0cb3 14        	.byte0x14
 6299 0cb4 18        	.uleb128 0x18
 6300 0cb5 0000 0000 	.long.LASF177
 6301 0cb9 0E        	.byte0xe
 6302 0cba 0421      	.word0x421
 6303 0cbc 0000 0069 	.long0x69
 6304 0cc0 15        	.byte0x15
68K GAS   			page 160


 6305 0cc1 00        	.byte0
 6306 0cc2 04        	.uleb128 0x4
 6307 0cc3 0000 0000 	.long.LASF185
 6308 0cc7 0E        	.byte0xe
 6309 0cc8 0422      	.word0x422
 6310 0cca 0000 0C91 	.long0xc91
 6311 0cce 05        	.uleb128 0x5
 6312 0ccf 0000 0CC2 	.long0xcc2
 6313 0cd3 1B        	.uleb128 0x1b
 6314 0cd4 18        	.byte0x18
 6315 0cd5 0E        	.byte0xe
 6316 0cd6 0430      	.word0x430
 6317 0cd8 0000 0D04 	.long0xd04
 6318 0cdc 18        	.uleb128 0x18
 6319 0cdd 0000 0000 	.long.LASF181
 6320 0ce1 0E        	.byte0xe
 6321 0ce2 0431      	.word0x431
 6322 0ce4 0000 00C2 	.long0xc2
 6323 0ce8 00        	.byte0
 6324 0ce9 18        	.uleb128 0x18
 6325 0cea 0000 0000 	.long.LASF183
 6326 0cee 0E        	.byte0xe
 6327 0cef 0432      	.word0x432
 6328 0cf1 0000 0074 	.long0x74
 6329 0cf5 14        	.byte0x14
 6330 0cf6 18        	.uleb128 0x18
 6331 0cf7 0000 0000 	.long.LASF186
 6332 0cfb 0E        	.byte0xe
 6333 0cfc 0433      	.word0x433
 6334 0cfe 0000 0074 	.long0x74
 6335 0d02 16        	.byte0x16
 6336 0d03 00        	.byte0
 6337 0d04 04        	.uleb128 0x4
 6338 0d05 0000 0000 	.long.LASF187
 6339 0d09 0E        	.byte0xe
 6340 0d0a 0434      	.word0x434
 6341 0d0c 0000 0CD3 	.long0xcd3
 6342 0d10 05        	.uleb128 0x5
 6343 0d11 0000 0D04 	.long0xd04
 6344 0d15 1B        	.uleb128 0x1b
 6345 0d16 08        	.byte0x8
 6346 0d17 0E        	.byte0xe
 6347 0d18 043F      	.word0x43f
 6348 0d1a 0000 0D53 	.long0xd53
 6349 0d1e 18        	.uleb128 0x18
 6350 0d1f 0000 0000 	.long.LASF188
 6351 0d23 0E        	.byte0xe
 6352 0d24 0440      	.word0x440
 6353 0d26 0000 0086 	.long0x86
 6354 0d2a 00        	.byte0
 6355 0d2b 18        	.uleb128 0x18
 6356 0d2c 0000 0000 	.long.LASF189
 6357 0d30 0E        	.byte0xe
 6358 0d31 0442      	.word0x442
 6359 0d33 0000 0074 	.long0x74
 6360 0d37 04        	.byte0x4
 6361 0d38 18        	.uleb128 0x18
68K GAS   			page 161


 6362 0d39 0000 0000 	.long.LASF190
 6363 0d3d 0E        	.byte0xe
 6364 0d3e 0444      	.word0x444
 6365 0d40 0000 0069 	.long0x69
 6366 0d44 06        	.byte0x6
 6367 0d45 18        	.uleb128 0x18
 6368 0d46 0000 0000 	.long.LASF191
 6369 0d4a 0E        	.byte0xe
 6370 0d4b 0446      	.word0x446
 6371 0d4d 0000 0069 	.long0x69
 6372 0d51 07        	.byte0x7
 6373 0d52 00        	.byte0
 6374 0d53 04        	.uleb128 0x4
 6375 0d54 0000 0000 	.long.LASF192
 6376 0d58 0E        	.byte0xe
 6377 0d59 0449      	.word0x449
 6378 0d5b 0000 0D15 	.long0xd15
 6379 0d5f 22        	.uleb128 0x22
 6380 0d60 0110      	.word0x110
 6381 0d62 0E        	.byte0xe
 6382 0d63 044F      	.word0x44f
 6383 0d65 0000 0E2D 	.long0xe2d
 6384 0d69 18        	.uleb128 0x18
 6385 0d6a 0000 0000 	.long.LASF193
 6386 0d6e 0E        	.byte0xe
 6387 0d6f 0450      	.word0x450
 6388 0d71 0000 0069 	.long0x69
 6389 0d75 00        	.byte0
 6390 0d76 18        	.uleb128 0x18
 6391 0d77 0000 0000 	.long.LASF194
 6392 0d7b 0E        	.byte0xe
 6393 0d7c 0452      	.word0x452
 6394 0d7e 0000 0069 	.long0x69
 6395 0d82 01        	.byte0x1
 6396 0d83 18        	.uleb128 0x18
 6397 0d84 0000 0000 	.long.LASF195
 6398 0d88 0E        	.byte0xe
 6399 0d89 0454      	.word0x454
 6400 0d8b 0000 0069 	.long0x69
 6401 0d8f 02        	.byte0x2
 6402 0d90 18        	.uleb128 0x18
 6403 0d91 0000 0000 	.long.LASF196
 6404 0d95 0E        	.byte0xe
 6405 0d96 0456      	.word0x456
 6406 0d98 0000 0069 	.long0x69
 6407 0d9c 03        	.byte0x3
 6408 0d9d 18        	.uleb128 0x18
 6409 0d9e 0000 0000 	.long.LASF197
 6410 0da2 0E        	.byte0xe
 6411 0da3 0459      	.word0x459
 6412 0da5 0000 0069 	.long0x69
 6413 0da9 04        	.byte0x4
 6414 0daa 18        	.uleb128 0x18
 6415 0dab 0000 0000 	.long.LASF198
 6416 0daf 0E        	.byte0xe
 6417 0db0 045B      	.word0x45b
 6418 0db2 0000 0069 	.long0x69
68K GAS   			page 162


 6419 0db6 05        	.byte0x5
 6420 0db7 18        	.uleb128 0x18
 6421 0db8 0000 0000 	.long.LASF199
 6422 0dbc 0E        	.byte0xe
 6423 0dbd 045D      	.word0x45d
 6424 0dbf 0000 0069 	.long0x69
 6425 0dc3 06        	.byte0x6
 6426 0dc4 18        	.uleb128 0x18
 6427 0dc5 0000 0000 	.long.LASF200
 6428 0dc9 0E        	.byte0xe
 6429 0dca 045F      	.word0x45f
 6430 0dcc 0000 0069 	.long0x69
 6431 0dd0 07        	.byte0x7
 6432 0dd1 18        	.uleb128 0x18
 6433 0dd2 0000 0000 	.long.LASF201
 6434 0dd6 0E        	.byte0xe
 6435 0dd7 0462      	.word0x462
 6436 0dd9 0000 0074 	.long0x74
 6437 0ddd 08        	.byte0x8
 6438 0dde 18        	.uleb128 0x18
 6439 0ddf 0000 0000 	.long.LASF202
 6440 0de3 0E        	.byte0xe
 6441 0de4 0464      	.word0x464
 6442 0de6 0000 0074 	.long0x74
 6443 0dea 0A        	.byte0xa
 6444 0deb 18        	.uleb128 0x18
 6445 0dec 0000 0000 	.long.LASF203
 6446 0df0 0E        	.byte0xe
 6447 0df1 0467      	.word0x467
 6448 0df3 0000 0069 	.long0x69
 6449 0df7 0C        	.byte0xc
 6450 0df8 18        	.uleb128 0x18
 6451 0df9 0000 0000 	.long.LASF204
 6452 0dfd 0E        	.byte0xe
 6453 0dfe 0469      	.word0x469
 6454 0e00 0000 0069 	.long0x69
 6455 0e04 0D        	.byte0xd
 6456 0e05 18        	.uleb128 0x18
 6457 0e06 0000 0000 	.long.LASF205
 6458 0e0a 0E        	.byte0xe
 6459 0e0b 046B      	.word0x46b
 6460 0e0d 0000 0069 	.long0x69
 6461 0e11 0E        	.byte0xe
 6462 0e12 18        	.uleb128 0x18
 6463 0e13 0000 0000 	.long.LASF206
 6464 0e17 0E        	.byte0xe
 6465 0e18 046D      	.word0x46d
 6466 0e1a 0000 0069 	.long0x69
 6467 0e1e 0F        	.byte0xf
 6468 0e1f 18        	.uleb128 0x18
 6469 0e20 0000 0000 	.long.LASF207
 6470 0e24 0E        	.byte0xe
 6471 0e25 0470      	.word0x470
 6472 0e27 0000 0E2D 	.long0xe2d
 6473 0e2b 10        	.byte0x10
 6474 0e2c 00        	.byte0
 6475 0e2d 06        	.uleb128 0x6
68K GAS   			page 163


 6476 0e2e 0000 0D53 	.long0xd53
 6477 0e32 0000 0E3D 	.long0xe3d
 6478 0e36 07        	.uleb128 0x7
 6479 0e37 0000 0091 	.long0x91
 6480 0e3b 1F        	.byte0x1f
 6481 0e3c 00        	.byte0
 6482 0e3d 04        	.uleb128 0x4
 6483 0e3e 0000 0000 	.long.LASF208
 6484 0e42 0E        	.byte0xe
 6485 0e43 0473      	.word0x473
 6486 0e45 0000 0D5F 	.long0xd5f
 6487 0e49 22        	.uleb128 0x22
 6488 0e4a 011C      	.word0x11c
 6489 0e4c 0E        	.byte0xe
 6490 0e4d 0475      	.word0x475
 6491 0e4f 0000 0E6E 	.long0xe6e
 6492 0e53 18        	.uleb128 0x18
 6493 0e54 0000 0000 	.long.LASF209
 6494 0e58 0E        	.byte0xe
 6495 0e59 0476      	.word0x476
 6496 0e5b 0000 0E6E 	.long0xe6e
 6497 0e5f 00        	.byte0
 6498 0e60 18        	.uleb128 0x18
 6499 0e61 0000 0000 	.long.LASF210
 6500 0e65 0E        	.byte0xe
 6501 0e66 0477      	.word0x477
 6502 0e68 0000 0E3D 	.long0xe3d
 6503 0e6c 0C        	.byte0xc
 6504 0e6d 00        	.byte0
 6505 0e6e 06        	.uleb128 0x6
 6506 0e6f 0000 0069 	.long0x69
 6507 0e73 0000 0E7E 	.long0xe7e
 6508 0e77 07        	.uleb128 0x7
 6509 0e78 0000 0091 	.long0x91
 6510 0e7c 0B        	.byte0xb
 6511 0e7d 00        	.byte0
 6512 0e7e 04        	.uleb128 0x4
 6513 0e7f 0000 0000 	.long.LASF211
 6514 0e83 0E        	.byte0xe
 6515 0e84 0478      	.word0x478
 6516 0e86 0000 0E49 	.long0xe49
 6517 0e8a 1B        	.uleb128 0x1b
 6518 0e8b 20        	.byte0x20
 6519 0e8c 0E        	.byte0xe
 6520 0e8d 047C      	.word0x47c
 6521 0e8f 0000 0ED5 	.long0xed5
 6522 0e93 18        	.uleb128 0x18
 6523 0e94 0000 0000 	.long.LASF181
 6524 0e98 0E        	.byte0xe
 6525 0e99 047D      	.word0x47d
 6526 0e9b 0000 00C2 	.long0xc2
 6527 0e9f 00        	.byte0
 6528 0ea0 18        	.uleb128 0x18
 6529 0ea1 0000 0000 	.long.LASF183
 6530 0ea5 0E        	.byte0xe
 6531 0ea6 047F      	.word0x47f
 6532 0ea8 0000 0074 	.long0x74
68K GAS   			page 164


 6533 0eac 14        	.byte0x14
 6534 0ead 18        	.uleb128 0x18
 6535 0eae 0000 0000 	.long.LASF212
 6536 0eb2 0E        	.byte0xe
 6537 0eb3 0481      	.word0x481
 6538 0eb5 0000 0074 	.long0x74
 6539 0eb9 16        	.byte0x16
 6540 0eba 18        	.uleb128 0x18
 6541 0ebb 0000 0000 	.long.LASF213
 6542 0ebf 0E        	.byte0xe
 6543 0ec0 0483      	.word0x483
 6544 0ec2 0000 0086 	.long0x86
 6545 0ec6 18        	.byte0x18
 6546 0ec7 18        	.uleb128 0x18
 6547 0ec8 0000 0000 	.long.LASF214
 6548 0ecc 0E        	.byte0xe
 6549 0ecd 0485      	.word0x485
 6550 0ecf 0000 0086 	.long0x86
 6551 0ed3 1C        	.byte0x1c
 6552 0ed4 00        	.byte0
 6553 0ed5 04        	.uleb128 0x4
 6554 0ed6 0000 0000 	.long.LASF215
 6555 0eda 0E        	.byte0xe
 6556 0edb 0488      	.word0x488
 6557 0edd 0000 0E8A 	.long0xe8a
 6558 0ee1 1B        	.uleb128 0x1b
 6559 0ee2 9C        	.byte0x9c
 6560 0ee3 0E        	.byte0xe
 6561 0ee4 048E      	.word0x48e
 6562 0ee6 0000 0F1F 	.long0xf1f
 6563 0eea 18        	.uleb128 0x18
 6564 0eeb 0000 0000 	.long.LASF216
 6565 0eef 0E        	.byte0xe
 6566 0ef0 048F      	.word0x48f
 6567 0ef2 0000 0ED5 	.long0xed5
 6568 0ef6 00        	.byte0
 6569 0ef7 18        	.uleb128 0x18
 6570 0ef8 0000 0000 	.long.LASF217
 6571 0efc 0E        	.byte0xe
 6572 0efd 0490      	.word0x490
 6573 0eff 0000 0F1F 	.long0xf1f
 6574 0f03 20        	.byte0x20
 6575 0f04 18        	.uleb128 0x18
 6576 0f05 0000 0000 	.long.LASF204
 6577 0f09 0E        	.byte0xe
 6578 0f0a 0492      	.word0x492
 6579 0f0c 0000 0069 	.long0x69
 6580 0f10 9A        	.byte0x9a
 6581 0f11 18        	.uleb128 0x18
 6582 0f12 0000 0000 	.long.LASF205
 6583 0f16 0E        	.byte0xe
 6584 0f17 0494      	.word0x494
 6585 0f19 0000 0069 	.long0x69
 6586 0f1d 9B        	.byte0x9b
 6587 0f1e 00        	.byte0
 6588 0f1f 06        	.uleb128 0x6
 6589 0f20 0000 00B6 	.long0xb6
68K GAS   			page 165


 6590 0f24 0000 0F2F 	.long0xf2f
 6591 0f28 07        	.uleb128 0x7
 6592 0f29 0000 0091 	.long0x91
 6593 0f2d 79        	.byte0x79
 6594 0f2e 00        	.byte0
 6595 0f2f 04        	.uleb128 0x4
 6596 0f30 0000 0000 	.long.LASF218
 6597 0f34 0E        	.byte0xe
 6598 0f35 0496      	.word0x496
 6599 0f37 0000 0EE1 	.long0xee1
 6600 0f3b 1B        	.uleb128 0x1b
 6601 0f3c A8        	.byte0xa8
 6602 0f3d 0E        	.byte0xe
 6603 0f3e 0498      	.word0x498
 6604 0f40 0000 0F5F 	.long0xf5f
 6605 0f44 18        	.uleb128 0x18
 6606 0f45 0000 0000 	.long.LASF209
 6607 0f49 0E        	.byte0xe
 6608 0f4a 0499      	.word0x499
 6609 0f4c 0000 0E6E 	.long0xe6e
 6610 0f50 00        	.byte0
 6611 0f51 18        	.uleb128 0x18
 6612 0f52 0000 0000 	.long.LASF210
 6613 0f56 0E        	.byte0xe
 6614 0f57 049A      	.word0x49a
 6615 0f59 0000 0F2F 	.long0xf2f
 6616 0f5d 0C        	.byte0xc
 6617 0f5e 00        	.byte0
 6618 0f5f 04        	.uleb128 0x4
 6619 0f60 0000 0000 	.long.LASF219
 6620 0f64 0E        	.byte0xe
 6621 0f65 049B      	.word0x49b
 6622 0f67 0000 0F3B 	.long0xf3b
 6623 0f6b 10        	.uleb128 0x10
 6624 0f6c 40        	.byte0x40
 6625 0f6d 0F        	.byte0xf
 6626 0f6e 8B        	.byte0x8b
 6627 0f6f 0000 0FE0 	.long0xfe0
 6628 0f73 0B        	.uleb128 0xb
 6629 0f74 0000 0000 	.long.LASF220
 6630 0f78 0F        	.byte0xf
 6631 0f79 8D        	.byte0x8d
 6632 0f7a 0000 0086 	.long0x86
 6633 0f7e 00        	.byte0
 6634 0f7f 0B        	.uleb128 0xb
 6635 0f80 0000 0000 	.long.LASF221
 6636 0f84 0F        	.byte0xf
 6637 0f85 8E        	.byte0x8e
 6638 0f86 0000 0086 	.long0x86
 6639 0f8a 04        	.byte0x4
 6640 0f8b 0B        	.uleb128 0xb
 6641 0f8c 0000 0000 	.long.LASF161
 6642 0f90 0F        	.byte0xf
 6643 0f91 91        	.byte0x91
 6644 0f92 0000 0086 	.long0x86
 6645 0f96 08        	.byte0x8
 6646 0f97 0B        	.uleb128 0xb
68K GAS   			page 166


 6647 0f98 0000 0000 	.long.LASF213
 6648 0f9c 0F        	.byte0xf
 6649 0f9d 92        	.byte0x92
 6650 0f9e 0000 0086 	.long0x86
 6651 0fa2 0C        	.byte0xc
 6652 0fa3 0B        	.uleb128 0xb
 6653 0fa4 0000 0000 	.long.LASF214
 6654 0fa8 0F        	.byte0xf
 6655 0fa9 93        	.byte0x93
 6656 0faa 0000 0086 	.long0x86
 6657 0fae 10        	.byte0x10
 6658 0faf 0B        	.uleb128 0xb
 6659 0fb0 0000 0000 	.long.LASF222
 6660 0fb4 0F        	.byte0xf
 6661 0fb5 94        	.byte0x94
 6662 0fb6 0000 0086 	.long0x86
 6663 0fba 14        	.byte0x14
 6664 0fbb 0B        	.uleb128 0xb
 6665 0fbc 0000 0000 	.long.LASF223
 6666 0fc0 0F        	.byte0xf
 6667 0fc1 96        	.byte0x96
 6668 0fc2 0000 0086 	.long0x86
 6669 0fc6 18        	.byte0x18
 6670 0fc7 0B        	.uleb128 0xb
 6671 0fc8 0000 0000 	.long.LASF224
 6672 0fcc 0F        	.byte0xf
 6673 0fcd 97        	.byte0x97
 6674 0fce 0000 0086 	.long0x86
 6675 0fd2 1C        	.byte0x1c
 6676 0fd3 0B        	.uleb128 0xb
 6677 0fd4 0000 0000 	.long.LASF225
 6678 0fd8 0F        	.byte0xf
 6679 0fd9 99        	.byte0x99
 6680 0fda 0000 09E9 	.long0x9e9
 6681 0fde 20        	.byte0x20
 6682 0fdf 00        	.byte0
 6683 0fe0 02        	.uleb128 0x2
 6684 0fe1 0000 0000 	.long.LASF226
 6685 0fe5 0F        	.byte0xf
 6686 0fe6 9B        	.byte0x9b
 6687 0fe7 0000 0F6B 	.long0xf6b
 6688 0feb 23        	.uleb128 0x23
 6689 0fec 0D28      	.word0xd28
 6690 0fee 10        	.byte0x10
 6691 0fef 1F        	.byte0x1f
 6692 0ff0 0000 103D 	.long0x103d
 6693 0ff4 0B        	.uleb128 0xb
 6694 0ff5 0000 0000 	.long.LASF227
 6695 0ff9 10        	.byte0x10
 6696 0ffa 20        	.byte0x20
 6697 0ffb 0000 0074 	.long0x74
 6698 0fff 00        	.byte0
 6699 1000 0B        	.uleb128 0xb
 6700 1001 0000 0000 	.long.LASF228
 6701 1005 10        	.byte0x10
 6702 1006 21        	.byte0x21
 6703 1007 0000 0074 	.long0x74
68K GAS   			page 167


 6704 100b 02        	.byte0x2
 6705 100c 0B        	.uleb128 0xb
 6706 100d 0000 0000 	.long.LASF199
 6707 1011 10        	.byte0x10
 6708 1012 22        	.byte0x22
 6709 1013 0000 0069 	.long0x69
 6710 1017 04        	.byte0x4
 6711 1018 0B        	.uleb128 0xb
 6712 1019 0000 0000 	.long.LASF200
 6713 101d 10        	.byte0x10
 6714 101e 23        	.byte0x23
 6715 101f 0000 0069 	.long0x69
 6716 1023 05        	.byte0x5
 6717 1024 0B        	.uleb128 0xb
 6718 1025 0000 0000 	.long.LASF202
 6719 1029 10        	.byte0x10
 6720 102a 24        	.byte0x24
 6721 102b 0000 0074 	.long0x74
 6722 102f 06        	.byte0x6
 6723 1030 0B        	.uleb128 0xb
 6724 1031 0000 0000 	.long.LASF229
 6725 1035 10        	.byte0x10
 6726 1036 25        	.byte0x25
 6727 1037 0000 103D 	.long0x103d
 6728 103b 08        	.byte0x8
 6729 103c 00        	.byte0
 6730 103d 06        	.uleb128 0x6
 6731 103e 0000 0F5F 	.long0xf5f
 6732 1042 0000 104D 	.long0x104d
 6733 1046 07        	.uleb128 0x7
 6734 1047 0000 0091 	.long0x91
 6735 104b 13        	.byte0x13
 6736 104c 00        	.byte0
 6737 104d 02        	.uleb128 0x2
 6738 104e 0000 0000 	.long.LASF230
 6739 1052 10        	.byte0x10
 6740 1053 27        	.byte0x27
 6741 1054 0000 0FEB 	.long0xfeb
 6742 1058 10        	.uleb128 0x10
 6743 1059 08        	.byte0x8
 6744 105a 11        	.byte0x11
 6745 105b 77        	.byte0x77
 6746 105c 0000 1091 	.long0x1091
 6747 1060 0B        	.uleb128 0xb
 6748 1061 0000 0000 	.long.LASF183
 6749 1065 11        	.byte0x11
 6750 1066 79        	.byte0x79
 6751 1067 0000 003E 	.long0x3e
 6752 106b 00        	.byte0
 6753 106c 0B        	.uleb128 0xb
 6754 106d 0000 0000 	.long.LASF186
 6755 1071 11        	.byte0x11
 6756 1072 7A        	.byte0x7a
 6757 1073 0000 0074 	.long0x74
 6758 1077 02        	.byte0x2
 6759 1078 0B        	.uleb128 0xb
 6760 1079 0000 0000 	.long.LASF231
68K GAS   			page 168


 6761 107d 11        	.byte0x11
 6762 107e 7B        	.byte0x7b
 6763 107f 0000 0074 	.long0x74
 6764 1083 04        	.byte0x4
 6765 1084 0B        	.uleb128 0xb
 6766 1085 0000 0000 	.long.LASF191
 6767 1089 11        	.byte0x11
 6768 108a 7C        	.byte0x7c
 6769 108b 0000 0074 	.long0x74
 6770 108f 06        	.byte0x6
 6771 1090 00        	.byte0
 6772 1091 02        	.uleb128 0x2
 6773 1092 0000 0000 	.long.LASF232
 6774 1096 11        	.byte0x11
 6775 1097 7E        	.byte0x7e
 6776 1098 0000 1058 	.long0x1058
 6777 109c 10        	.uleb128 0x10
 6778 109d 46        	.byte0x46
 6779 109e 11        	.byte0x11
 6780 109f 81        	.byte0x81
 6781 10a0 0000 10E1 	.long0x10e1
 6782 10a4 0B        	.uleb128 0xb
 6783 10a5 0000 0000 	.long.LASF233
 6784 10a9 11        	.byte0x11
 6785 10aa 83        	.byte0x83
 6786 10ab 0000 10E1 	.long0x10e1
 6787 10af 00        	.byte0
 6788 10b0 0B        	.uleb128 0xb
 6789 10b1 0000 0000 	.long.LASF234
 6790 10b5 11        	.byte0x11
 6791 10b6 85        	.byte0x85
 6792 10b7 0000 0069 	.long0x69
 6793 10bb 40        	.byte0x40
 6794 10bc 0B        	.uleb128 0xb
 6795 10bd 0000 0000 	.long.LASF235
 6796 10c1 11        	.byte0x11
 6797 10c2 86        	.byte0x86
 6798 10c3 0000 0069 	.long0x69
 6799 10c7 41        	.byte0x41
 6800 10c8 0B        	.uleb128 0xb
 6801 10c9 0000 0000 	.long.LASF236
 6802 10cd 11        	.byte0x11
 6803 10ce 87        	.byte0x87
 6804 10cf 0000 0074 	.long0x74
 6805 10d3 42        	.byte0x42
 6806 10d4 0B        	.uleb128 0xb
 6807 10d5 0000 0000 	.long.LASF237
 6808 10d9 11        	.byte0x11
 6809 10da 88        	.byte0x88
 6810 10db 0000 0074 	.long0x74
 6811 10df 44        	.byte0x44
 6812 10e0 00        	.byte0
 6813 10e1 06        	.uleb128 0x6
 6814 10e2 0000 1091 	.long0x1091
 6815 10e6 0000 10F1 	.long0x10f1
 6816 10ea 07        	.uleb128 0x7
 6817 10eb 0000 0091 	.long0x91
68K GAS   			page 169


 6818 10ef 07        	.byte0x7
 6819 10f0 00        	.byte0
 6820 10f1 02        	.uleb128 0x2
 6821 10f2 0000 0000 	.long.LASF238
 6822 10f6 11        	.byte0x11
 6823 10f7 8A        	.byte0x8a
 6824 10f8 0000 109C 	.long0x109c
 6825 10fc 10        	.uleb128 0x10
 6826 10fd 58        	.byte0x58
 6827 10fe 11        	.byte0x11
 6828 10ff 8D        	.byte0x8d
 6829 1100 0000 1141 	.long0x1141
 6830 1104 0B        	.uleb128 0xb
 6831 1105 0000 0000 	.long.LASF181
 6832 1109 11        	.byte0x11
 6833 110a 8E        	.byte0x8e
 6834 110b 0000 00C2 	.long0xc2
 6835 110f 00        	.byte0
 6836 1110 0B        	.uleb128 0xb
 6837 1111 0000 0000 	.long.LASF234
 6838 1115 11        	.byte0x11
 6839 1116 8F        	.byte0x8f
 6840 1117 0000 0069 	.long0x69
 6841 111b 14        	.byte0x14
 6842 111c 0B        	.uleb128 0xb
 6843 111d 0000 0000 	.long.LASF235
 6844 1121 11        	.byte0x11
 6845 1122 90        	.byte0x90
 6846 1123 0000 0069 	.long0x69
 6847 1127 15        	.byte0x15
 6848 1128 0B        	.uleb128 0xb
 6849 1129 0000 0000 	.long.LASF236
 6850 112d 11        	.byte0x11
 6851 112e 91        	.byte0x91
 6852 112f 0000 0074 	.long0x74
 6853 1133 16        	.byte0x16
 6854 1134 0B        	.uleb128 0xb
 6855 1135 0000 0000 	.long.LASF239
 6856 1139 11        	.byte0x11
 6857 113a 92        	.byte0x92
 6858 113b 0000 10E1 	.long0x10e1
 6859 113f 18        	.byte0x18
 6860 1140 00        	.byte0
 6861 1141 02        	.uleb128 0x2
 6862 1142 0000 0000 	.long.LASF240
 6863 1146 11        	.byte0x11
 6864 1147 94        	.byte0x94
 6865 1148 0000 10FC 	.long0x10fc
 6866 114c 23        	.uleb128 0x23
 6867 114d 09EC      	.word0x9ec
 6868 114f 11        	.byte0x11
 6869 1150 98        	.byte0x98
 6870 1151 0000 11A3 	.long0x11a3
 6871 1155 0B        	.uleb128 0xb
 6872 1156 0000 0000 	.long.LASF207
 6873 115a 11        	.byte0x11
 6874 115b 9A        	.byte0x9a
68K GAS   			page 170


 6875 115c 0000 11A3 	.long0x11a3
 6876 1160 00        	.byte0
 6877 1161 13        	.uleb128 0x13
 6878 1162 0000 0000 	.long.LASF241
 6879 1166 11        	.byte0x11
 6880 1167 9C        	.byte0x9c
 6881 1168 0000 11B3 	.long0x11b3
 6882 116c 08C0      	.word0x8c0
 6883 116e 13        	.uleb128 0x13
 6884 116f 0000 0000 	.long.LASF242
 6885 1173 11        	.byte0x11
 6886 1174 A2        	.byte0xa2
 6887 1175 0000 0E7E 	.long0xe7e
 6888 1179 08C4      	.word0x8c4
 6889 117b 13        	.uleb128 0x13
 6890 117c 0000 0000 	.long.LASF243
 6891 1180 11        	.byte0x11
 6892 1181 A3        	.byte0xa3
 6893 1182 0000 0B2E 	.long0xb2e
 6894 1186 09E0      	.word0x9e0
 6895 1188 13        	.uleb128 0x13
 6896 1189 0000 0000 	.long.LASF244
 6897 118d 11        	.byte0x11
 6898 118e A4        	.byte0xa4
 6899 118f 0000 0086 	.long0x86
 6900 1193 09E4      	.word0x9e4
 6901 1195 13        	.uleb128 0x13
 6902 1196 0000 0000 	.long.LASF245
 6903 119a 11        	.byte0x11
 6904 119b A5        	.byte0xa5
 6905 119c 0000 0086 	.long0x86
 6906 11a0 09E8      	.word0x9e8
 6907 11a2 00        	.byte0
 6908 11a3 06        	.uleb128 0x6
 6909 11a4 0000 10F1 	.long0x10f1
 6910 11a8 0000 11B3 	.long0x11b3
 6911 11ac 07        	.uleb128 0x7
 6912 11ad 0000 0091 	.long0x91
 6913 11b1 1F        	.byte0x1f
 6914 11b2 00        	.byte0
 6915 11b3 0D        	.uleb128 0xd
 6916 11b4 04        	.byte0x4
 6917 11b5 0000 104D 	.long0x104d
 6918 11b9 02        	.uleb128 0x2
 6919 11ba 0000 0000 	.long.LASF246
 6920 11be 11        	.byte0x11
 6921 11bf A7        	.byte0xa7
 6922 11c0 0000 114C 	.long0x114c
 6923 11c4 20        	.uleb128 0x20
 6924 11c5 0000 0000 	.long.LASF247
 6925 11c9 11        	.byte0x11
 6926 11ca AC        	.byte0xac
 6927 11cb 0000 11B9 	.long0x11b9
 6928 11cf 10        	.uleb128 0x10
 6929 11d0 10        	.byte0x10
 6930 11d1 12        	.byte0x12
 6931 11d2 1E        	.byte0x1e
68K GAS   			page 171


 6932 11d3 0000 1208 	.long0x1208
 6933 11d7 0B        	.uleb128 0xb
 6934 11d8 0000 0000 	.long.LASF248
 6935 11dc 12        	.byte0x12
 6936 11dd 20        	.byte0x20
 6937 11de 0000 0086 	.long0x86
 6938 11e2 00        	.byte0
 6939 11e3 0B        	.uleb128 0xb
 6940 11e4 0000 0000 	.long.LASF249
 6941 11e8 12        	.byte0x12
 6942 11e9 21        	.byte0x21
 6943 11ea 0000 0086 	.long0x86
 6944 11ee 04        	.byte0x4
 6945 11ef 0B        	.uleb128 0xb
 6946 11f0 0000 0000 	.long.LASF250
 6947 11f4 12        	.byte0x12
 6948 11f5 22        	.byte0x22
 6949 11f6 0000 0086 	.long0x86
 6950 11fa 08        	.byte0x8
 6951 11fb 0B        	.uleb128 0xb
 6952 11fc 0000 0000 	.long.LASF251
 6953 1200 12        	.byte0x12
 6954 1201 23        	.byte0x23
 6955 1202 0000 0086 	.long0x86
 6956 1206 0C        	.byte0xc
 6957 1207 00        	.byte0
 6958 1208 02        	.uleb128 0x2
 6959 1209 0000 0000 	.long.LASF252
 6960 120d 12        	.byte0x12
 6961 120e 25        	.byte0x25
 6962 120f 0000 11CF 	.long0x11cf
 6963 1213 23        	.uleb128 0x23
 6964 1214 0108      	.word0x108
 6965 1216 12        	.byte0x12
 6966 1217 2A        	.byte0x2a
 6967 1218 0000 12AD 	.long0x12ad
 6968 121c 0B        	.uleb128 0xb
 6969 121d 0000 0000 	.long.LASF253
 6970 1221 12        	.byte0x12
 6971 1222 2C        	.byte0x2c
 6972 1223 0000 0086 	.long0x86
 6973 1227 00        	.byte0
 6974 1228 0B        	.uleb128 0xb
 6975 1229 0000 0000 	.long.LASF254
 6976 122d 12        	.byte0x12
 6977 122e 2D        	.byte0x2d
 6978 122f 0000 0086 	.long0x86
 6979 1233 04        	.byte0x4
 6980 1234 0B        	.uleb128 0xb
 6981 1235 0000 0000 	.long.LASF255
 6982 1239 12        	.byte0x12
 6983 123a 2E        	.byte0x2e
 6984 123b 0000 0086 	.long0x86
 6985 123f 08        	.byte0x8
 6986 1240 0B        	.uleb128 0xb
 6987 1241 0000 0000 	.long.LASF256
 6988 1245 12        	.byte0x12
68K GAS   			page 172


 6989 1246 2F        	.byte0x2f
 6990 1247 0000 0086 	.long0x86
 6991 124b 0C        	.byte0xc
 6992 124c 0B        	.uleb128 0xb
 6993 124d 0000 0000 	.long.LASF257
 6994 1251 12        	.byte0x12
 6995 1252 30        	.byte0x30
 6996 1253 0000 0086 	.long0x86
 6997 1257 10        	.byte0x10
 6998 1258 0B        	.uleb128 0xb
 6999 1259 0000 0000 	.long.LASF258
 7000 125d 12        	.byte0x12
 7001 125e 31        	.byte0x31
 7002 125f 0000 0086 	.long0x86
 7003 1263 14        	.byte0x14
 7004 1264 0B        	.uleb128 0xb
 7005 1265 0000 0000 	.long.LASF259
 7006 1269 12        	.byte0x12
 7007 126a 32        	.byte0x32
 7008 126b 0000 1208 	.long0x1208
 7009 126f 18        	.byte0x18
 7010 1270 0B        	.uleb128 0xb
 7011 1271 0000 0000 	.long.LASF260
 7012 1275 12        	.byte0x12
 7013 1276 33        	.byte0x33
 7014 1277 0000 0A2A 	.long0xa2a
 7015 127b 28        	.byte0x28
 7016 127c 0B        	.uleb128 0xb
 7017 127d 0000 0000 	.long.LASF225
 7018 1281 12        	.byte0x12
 7019 1282 34        	.byte0x34
 7020 1283 0000 12AD 	.long0x12ad
 7021 1287 30        	.byte0x30
 7022 1288 0B        	.uleb128 0xb
 7023 1289 0000 0000 	.long.LASF261
 7024 128d 12        	.byte0x12
 7025 128e 35        	.byte0x35
 7026 128f 0000 0086 	.long0x86
 7027 1293 80        	.byte0x80
 7028 1294 0B        	.uleb128 0xb
 7029 1295 0000 0000 	.long.LASF188
 7030 1299 12        	.byte0x12
 7031 129a 36        	.byte0x36
 7032 129b 0000 0086 	.long0x86
 7033 129f 84        	.byte0x84
 7034 12a0 0B        	.uleb128 0xb
 7035 12a1 0000 0000 	.long.LASF262
 7036 12a5 12        	.byte0x12
 7037 12a6 37        	.byte0x37
 7038 12a7 0000 0A91 	.long0xa91
 7039 12ab 88        	.byte0x88
 7040 12ac 00        	.byte0
 7041 12ad 06        	.uleb128 0x6
 7042 12ae 0000 00B6 	.long0xb6
 7043 12b2 0000 12BD 	.long0x12bd
 7044 12b6 07        	.uleb128 0x7
 7045 12b7 0000 0091 	.long0x91
68K GAS   			page 173


 7046 12bb 4F        	.byte0x4f
 7047 12bc 00        	.byte0
 7048 12bd 02        	.uleb128 0x2
 7049 12be 0000 0000 	.long.LASF263
 7050 12c2 12        	.byte0x12
 7051 12c3 38        	.byte0x38
 7052 12c4 0000 1213 	.long0x1213
 7053 12c8 10        	.uleb128 0x10
 7054 12c9 0C        	.byte0xc
 7055 12ca 13        	.byte0x13
 7056 12cb 1D        	.byte0x1d
 7057 12cc 0000 12F5 	.long0x12f5
 7058 12d0 0B        	.uleb128 0xb
 7059 12d1 0000 0000 	.long.LASF264
 7060 12d5 13        	.byte0x13
 7061 12d6 1E        	.byte0x1e
 7062 12d7 0000 0086 	.long0x86
 7063 12db 00        	.byte0
 7064 12dc 0B        	.uleb128 0xb
 7065 12dd 0000 0000 	.long.LASF265
 7066 12e1 13        	.byte0x13
 7067 12e2 1F        	.byte0x1f
 7068 12e3 0000 0086 	.long0x86
 7069 12e7 04        	.byte0x4
 7070 12e8 0B        	.uleb128 0xb
 7071 12e9 0000 0000 	.long.LASF266
 7072 12ed 13        	.byte0x13
 7073 12ee 20        	.byte0x20
 7074 12ef 0000 0086 	.long0x86
 7075 12f3 08        	.byte0x8
 7076 12f4 00        	.byte0
 7077 12f5 02        	.uleb128 0x2
 7078 12f6 0000 0000 	.long.LASF267
 7079 12fa 13        	.byte0x13
 7080 12fb 21        	.byte0x21
 7081 12fc 0000 12C8 	.long0x12c8
 7082 1300 10        	.uleb128 0x10
 7083 1301 4C        	.byte0x4c
 7084 1302 13        	.byte0x13
 7085 1303 23        	.byte0x23
 7086 1304 0000 13BD 	.long0x13bd
 7087 1308 0B        	.uleb128 0xb
 7088 1309 0000 0000 	.long.LASF268
 7089 130d 13        	.byte0x13
 7090 130e 24        	.byte0x24
 7091 130f 0000 0069 	.long0x69
 7092 1313 00        	.byte0
 7093 1314 0B        	.uleb128 0xb
 7094 1315 0000 0000 	.long.LASF269
 7095 1319 13        	.byte0x13
 7096 131a 25        	.byte0x25
 7097 131b 0000 0069 	.long0x69
 7098 131f 01        	.byte0x1
 7099 1320 0B        	.uleb128 0xb
 7100 1321 0000 0000 	.long.LASF177
 7101 1325 13        	.byte0x13
 7102 1326 26        	.byte0x26
68K GAS   			page 174


 7103 1327 0000 0ACE 	.long0xace
 7104 132b 02        	.byte0x2
 7105 132c 0B        	.uleb128 0xb
 7106 132d 0000 0000 	.long.LASF270
 7107 1331 13        	.byte0x13
 7108 1332 27        	.byte0x27
 7109 1333 0000 0086 	.long0x86
 7110 1337 04        	.byte0x4
 7111 1338 0B        	.uleb128 0xb
 7112 1339 0000 0000 	.long.LASF271
 7113 133d 13        	.byte0x13
 7114 133e 28        	.byte0x28
 7115 133f 0000 0086 	.long0x86
 7116 1343 08        	.byte0x8
 7117 1344 0B        	.uleb128 0xb
 7118 1345 0000 0000 	.long.LASF272
 7119 1349 13        	.byte0x13
 7120 134a 29        	.byte0x29
 7121 134b 0000 0086 	.long0x86
 7122 134f 0C        	.byte0xc
 7123 1350 0B        	.uleb128 0xb
 7124 1351 0000 0000 	.long.LASF176
 7125 1355 13        	.byte0x13
 7126 1356 2A        	.byte0x2a
 7127 1357 0000 0086 	.long0x86
 7128 135b 10        	.byte0x10
 7129 135c 0B        	.uleb128 0xb
 7130 135d 0000 0000 	.long.LASF273
 7131 1361 13        	.byte0x13
 7132 1362 2B        	.byte0x2b
 7133 1363 0000 0086 	.long0x86
 7134 1367 14        	.byte0x14
 7135 1368 0B        	.uleb128 0xb
 7136 1369 0000 0000 	.long.LASF274
 7137 136d 13        	.byte0x13
 7138 136e 2C        	.byte0x2c
 7139 136f 0000 0086 	.long0x86
 7140 1373 18        	.byte0x18
 7141 1374 0B        	.uleb128 0xb
 7142 1375 0000 0000 	.long.LASF275
 7143 1379 13        	.byte0x13
 7144 137a 2D        	.byte0x2d
 7145 137b 0000 0086 	.long0x86
 7146 137f 1C        	.byte0x1c
 7147 1380 0B        	.uleb128 0xb
 7148 1381 0000 0000 	.long.LASF276
 7149 1385 13        	.byte0x13
 7150 1386 2E        	.byte0x2e
 7151 1387 0000 0086 	.long0x86
 7152 138b 20        	.byte0x20
 7153 138c 0B        	.uleb128 0xb
 7154 138d 0000 0000 	.long.LASF277
 7155 1391 13        	.byte0x13
 7156 1392 2F        	.byte0x2f
 7157 1393 0000 0086 	.long0x86
 7158 1397 24        	.byte0x24
 7159 1398 0B        	.uleb128 0xb
68K GAS   			page 175


 7160 1399 0000 0000 	.long.LASF278
 7161 139d 13        	.byte0x13
 7162 139e 30        	.byte0x30
 7163 139f 0000 0086 	.long0x86
 7164 13a3 28        	.byte0x28
 7165 13a4 0B        	.uleb128 0xb
 7166 13a5 0000 0000 	.long.LASF279
 7167 13a9 13        	.byte0x13
 7168 13aa 31        	.byte0x31
 7169 13ab 0000 13BD 	.long0x13bd
 7170 13af 2C        	.byte0x2c
 7171 13b0 0B        	.uleb128 0xb
 7172 13b1 0000 0000 	.long.LASF280
 7173 13b5 13        	.byte0x13
 7174 13b6 32        	.byte0x32
 7175 13b7 0000 13BD 	.long0x13bd
 7176 13bb 3C        	.byte0x3c
 7177 13bc 00        	.byte0
 7178 13bd 06        	.uleb128 0x6
 7179 13be 0000 0086 	.long0x86
 7180 13c2 0000 13CD 	.long0x13cd
 7181 13c6 07        	.uleb128 0x7
 7182 13c7 0000 0091 	.long0x91
 7183 13cb 03        	.byte0x3
 7184 13cc 00        	.byte0
 7185 13cd 02        	.uleb128 0x2
 7186 13ce 0000 0000 	.long.LASF281
 7187 13d2 13        	.byte0x13
 7188 13d3 33        	.byte0x33
 7189 13d4 0000 1300 	.long0x1300
 7190 13d8 24        	.uleb128 0x24
 7191 13d9 0001 D50C 	.long0x1d50c
 7192 13dd 13        	.byte0x13
 7193 13de 35        	.byte0x35
 7194 13df 0000 13FC 	.long0x13fc
 7195 13e3 0B        	.uleb128 0xb
 7196 13e4 0000 0000 	.long.LASF282
 7197 13e8 13        	.byte0x13
 7198 13e9 36        	.byte0x36
 7199 13ea 0000 13CD 	.long0x13cd
 7200 13ee 00        	.byte0
 7201 13ef 0B        	.uleb128 0xb
 7202 13f0 0000 0000 	.long.LASF283
 7203 13f4 13        	.byte0x13
 7204 13f5 37        	.byte0x37
 7205 13f6 0000 13FC 	.long0x13fc
 7206 13fa 4C        	.byte0x4c
 7207 13fb 00        	.byte0
 7208 13fc 06        	.uleb128 0x6
 7209 13fd 0000 12F5 	.long0x12f5
 7210 1401 0000 140D 	.long0x140d
 7211 1405 25        	.uleb128 0x25
 7212 1406 0000 0091 	.long0x91
 7213 140a 270F      	.word0x270f
 7214 140c 00        	.byte0
 7215 140d 02        	.uleb128 0x2
 7216 140e 0000 0000 	.long.LASF284
68K GAS   			page 176


 7217 1412 13        	.byte0x13
 7218 1413 38        	.byte0x38
 7219 1414 0000 13D8 	.long0x13d8
 7220 1418 10        	.uleb128 0x10
 7221 1419 18        	.byte0x18
 7222 141a 14        	.byte0x14
 7223 141b 23        	.byte0x23
 7224 141c 0000 1469 	.long0x1469
 7225 1420 0B        	.uleb128 0xb
 7226 1421 0000 0000 	.long.LASF254
 7227 1425 14        	.byte0x14
 7228 1426 25        	.byte0x25
 7229 1427 0000 0086 	.long0x86
 7230 142b 00        	.byte0
 7231 142c 0B        	.uleb128 0xb
 7232 142d 0000 0000 	.long.LASF255
 7233 1431 14        	.byte0x14
 7234 1432 26        	.byte0x26
 7235 1433 0000 0086 	.long0x86
 7236 1437 04        	.byte0x4
 7237 1438 0B        	.uleb128 0xb
 7238 1439 0000 0000 	.long.LASF256
 7239 143d 14        	.byte0x14
 7240 143e 27        	.byte0x27
 7241 143f 0000 0086 	.long0x86
 7242 1443 08        	.byte0x8
 7243 1444 0B        	.uleb128 0xb
 7244 1445 0000 0000 	.long.LASF285
 7245 1449 14        	.byte0x14
 7246 144a 28        	.byte0x28
 7247 144b 0000 0086 	.long0x86
 7248 144f 0C        	.byte0xc
 7249 1450 0B        	.uleb128 0xb
 7250 1451 0000 0000 	.long.LASF257
 7251 1455 14        	.byte0x14
 7252 1456 29        	.byte0x29
 7253 1457 0000 0086 	.long0x86
 7254 145b 10        	.byte0x10
 7255 145c 0B        	.uleb128 0xb
 7256 145d 0000 0000 	.long.LASF258
 7257 1461 14        	.byte0x14
 7258 1462 2A        	.byte0x2a
 7259 1463 0000 0086 	.long0x86
 7260 1467 14        	.byte0x14
 7261 1468 00        	.byte0
 7262 1469 02        	.uleb128 0x2
 7263 146a 0000 0000 	.long.LASF286
 7264 146e 14        	.byte0x14
 7265 146f 2B        	.byte0x2b
 7266 1470 0000 1418 	.long0x1418
 7267 1474 24        	.uleb128 0x24
 7268 1475 0002 0324 	.long0x20324
 7269 1479 14        	.byte0x14
 7270 147a 33        	.byte0x33
 7271 147b 0000 1521 	.long0x1521
 7272 147f 0B        	.uleb128 0xb
 7273 1480 0000 0000 	.long.LASF287
68K GAS   			page 177


 7274 1484 14        	.byte0x14
 7275 1485 38        	.byte0x38
 7276 1486 0000 1521 	.long0x1521
 7277 148a 00        	.byte0
 7278 148b 13        	.uleb128 0x13
 7279 148c 0000 0000 	.long.LASF288
 7280 1490 14        	.byte0x14
 7281 1491 39        	.byte0x39
 7282 1492 0000 0086 	.long0x86
 7283 1496 14A0      	.word0x14a0
 7284 1498 13        	.uleb128 0x13
 7285 1499 0000 0000 	.long.LASF289
 7286 149d 14        	.byte0x14
 7287 149e 3A        	.byte0x3a
 7288 149f 0000 0086 	.long0x86
 7289 14a3 14A4      	.word0x14a4
 7290 14a5 13        	.uleb128 0x13
 7291 14a6 0000 0000 	.long.LASF251
 7292 14aa 14        	.byte0x14
 7293 14ab 3B        	.byte0x3b
 7294 14ac 0000 0086 	.long0x86
 7295 14b0 14A8      	.word0x14a8
 7296 14b2 13        	.uleb128 0x13
 7297 14b3 0000 0000 	.long.LASF290
 7298 14b7 14        	.byte0x14
 7299 14b8 40        	.byte0x40
 7300 14b9 0000 1531 	.long0x1531
 7301 14bd 14AC      	.word0x14ac
 7302 14bf 13        	.uleb128 0x13
 7303 14c0 0000 0000 	.long.LASF291
 7304 14c4 14        	.byte0x14
 7305 14c5 41        	.byte0x41
 7306 14c6 0000 0086 	.long0x86
 7307 14ca 20AC      	.word0x20ac
 7308 14cc 13        	.uleb128 0x13
 7309 14cd 0000 0000 	.long.LASF292
 7310 14d1 14        	.byte0x14
 7311 14d2 42        	.byte0x42
 7312 14d3 0000 0086 	.long0x86
 7313 14d7 20B0      	.word0x20b0
 7314 14d9 13        	.uleb128 0x13
 7315 14da 0000 0000 	.long.LASF293
 7316 14de 14        	.byte0x14
 7317 14df 43        	.byte0x43
 7318 14e0 0000 0086 	.long0x86
 7319 14e4 20B4      	.word0x20b4
 7320 14e6 13        	.uleb128 0x13
 7321 14e7 0000 0000 	.long.LASF294
 7322 14eb 14        	.byte0x14
 7323 14ec 48        	.byte0x48
 7324 14ed 0000 140D 	.long0x140d
 7325 14f1 20B8      	.word0x20b8
 7326 14f3 26        	.uleb128 0x26
 7327 14f4 0000 0000 	.long.LASF295
 7328 14f8 14        	.byte0x14
 7329 14f9 4D        	.byte0x4d
 7330 14fa 0000 1469 	.long0x1469
68K GAS   			page 178


 7331 14fe 0001 F5C4 	.long0x1f5c4
 7332 1502 26        	.uleb128 0x26
 7333 1503 0000 0000 	.long.LASF296
 7334 1507 14        	.byte0x14
 7335 1508 53        	.byte0x53
 7336 1509 0000 0A86 	.long0xa86
 7337 150d 0001 F5DC 	.long0x1f5dc
 7338 1511 26        	.uleb128 0x26
 7339 1512 0000 0000 	.long.LASF297
 7340 1516 14        	.byte0x14
 7341 1517 59        	.byte0x59
 7342 1518 0000 104D 	.long0x104d
 7343 151c 0001 F5FC 	.long0x1f5fc
 7344 1520 00        	.byte0
 7345 1521 06        	.uleb128 0x6
 7346 1522 0000 12BD 	.long0x12bd
 7347 1526 0000 1531 	.long0x1531
 7348 152a 07        	.uleb128 0x7
 7349 152b 0000 0091 	.long0x91
 7350 152f 13        	.byte0x13
 7351 1530 00        	.byte0
 7352 1531 06        	.uleb128 0x6
 7353 1532 0000 00B6 	.long0xb6
 7354 1536 0000 1542 	.long0x1542
 7355 153a 25        	.uleb128 0x25
 7356 153b 0000 0091 	.long0x91
 7357 153f 0BFF      	.word0xbff
 7358 1541 00        	.byte0
 7359 1542 02        	.uleb128 0x2
 7360 1543 0000 0000 	.long.LASF298
 7361 1547 14        	.byte0x14
 7362 1548 5C        	.byte0x5c
 7363 1549 0000 1474 	.long0x1474
 7364 154d 27        	.uleb128 0x27
 7365 154e 0000 11C4 	.long0x11c4
 7366 1552 01        	.byte0x1
 7367 1553 85        	.byte0x85
 7368 1554 05        	.uleb128 0x5
 7369 1555 03        	.byte0x3
 7370 1556 0000 0000 	.longCFE_EVS_GlobalData
 7371 155a 28        	.uleb128 0x28
 7372 155b 0000 0000 	.long.LASF308
 7373 155f 01        	.byte0x1
 7374 1560 072E      	.word0x72e
 7375 1562 0000 00AA 	.long0xaa
 7376 1566 0000 0000 	.long.LFB83
 7377 156a 0000 0214 	.long.LFE83-.LFB83
 7378 156e 01        	.uleb128 0x1
 7379 156f 9C        	.byte0x9c
 7380 1570 0000 161D 	.long0x161d
 7381 1574 29        	.uleb128 0x29
 7382 1575 0000 0000 	.long.LASF210
 7383 1579 01        	.byte0x1
 7384 157a 072E      	.word0x72e
 7385 157c 0000 0B60 	.long0xb60
 7386 1580 02        	.uleb128 0x2
 7387 1581 91        	.byte0x91
68K GAS   			page 179


 7388 1582 00        	.sleb128 0
 7389 1583 2A        	.uleb128 0x2a
 7390 1584 0000 0000 	.long.LASF299
 7391 1588 01        	.byte0x1
 7392 1589 0730      	.word0x730
 7393 158b 0000 00AA 	.long0xaa
 7394 158f 02        	.uleb128 0x2
 7395 1590 91        	.byte0x91
 7396 1591 7B        	.sleb128 -5
 7397 1592 2A        	.uleb128 0x2a
 7398 1593 0000 0000 	.long.LASF300
 7399 1597 01        	.byte0x1
 7400 1598 0731      	.word0x731
 7401 159a 0000 0050 	.long0x50
 7402 159e 02        	.uleb128 0x2
 7403 159f 91        	.byte0x91
 7404 15a0 68        	.sleb128 -24
 7405 15a1 2A        	.uleb128 0x2a
 7406 15a2 0000 0000 	.long.LASF301
 7407 15a6 01        	.byte0x1
 7408 15a7 0732      	.word0x732
 7409 15a9 0000 0050 	.long0x50
 7410 15ad 02        	.uleb128 0x2
 7411 15ae 91        	.byte0x91
 7412 15af 64        	.sleb128 -28
 7413 15b0 2A        	.uleb128 0x2a
 7414 15b1 0000 0000 	.long.LASF302
 7415 15b5 01        	.byte0x1
 7416 15b6 0733      	.word0x733
 7417 15b8 0000 0086 	.long0x86
 7418 15bc 02        	.uleb128 0x2
 7419 15bd 91        	.byte0x91
 7420 15be 74        	.sleb128 -12
 7421 15bf 2B        	.uleb128 0x2b
 7422 15c0 6900      	.string"i"
 7423 15c2 01        	.byte0x1
 7424 15c3 0734      	.word0x734
 7425 15c5 0000 0086 	.long0x86
 7426 15c9 02        	.uleb128 0x2
 7427 15ca 91        	.byte0x91
 7428 15cb 70        	.sleb128 -16
 7429 15cc 2A        	.uleb128 0x2a
 7430 15cd 0000 0000 	.long.LASF303
 7431 15d1 01        	.byte0x1
 7432 15d2 0735      	.word0x735
 7433 15d4 0000 1141 	.long0x1141
 7434 15d8 05        	.uleb128 0x5
 7435 15d9 03        	.byte0x3
 7436 15da 0000 0000 	.longAppDataFile.5637
 7437 15de 2A        	.uleb128 0x2a
 7438 15df 0000 0000 	.long.LASF304
 7439 15e3 01        	.byte0x1
 7440 15e4 0736      	.word0x736
 7441 15e6 0000 0FE0 	.long0xfe0
 7442 15ea 03        	.uleb128 0x3
 7443 15eb 91        	.byte0x91
 7444 15ec A07F      	.sleb128 -96
68K GAS   			page 180


 7445 15ee 2A        	.uleb128 0x2a
 7446 15ef 0000 0000 	.long.LASF305
 7447 15f3 01        	.byte0x1
 7448 15f4 0737      	.word0x737
 7449 15f6 0000 161D 	.long0x161d
 7450 15fa 02        	.uleb128 0x2
 7451 15fb 91        	.byte0x91
 7452 15fc 60        	.sleb128 -32
 7453 15fd 2A        	.uleb128 0x2a
 7454 15fe 0000 0000 	.long.LASF306
 7455 1602 01        	.byte0x1
 7456 1603 0738      	.word0x738
 7457 1605 0000 1623 	.long0x1623
 7458 1609 02        	.uleb128 0x2
 7459 160a 91        	.byte0x91
 7460 160b 6C        	.sleb128 -20
 7461 160c 2A        	.uleb128 0x2a
 7462 160d 0000 0000 	.long.LASF307
 7463 1611 01        	.byte0x1
 7464 1612 0739      	.word0x739
 7465 1614 0000 09F9 	.long0x9f9
 7466 1618 03        	.uleb128 0x3
 7467 1619 91        	.byte0x91
 7468 161a E07E      	.sleb128 -160
 7469 161c 00        	.byte0
 7470 161d 0D        	.uleb128 0xd
 7471 161e 04        	.byte0x4
 7472 161f 0000 10F1 	.long0x10f1
 7473 1623 0D        	.uleb128 0xd
 7474 1624 04        	.byte0x4
 7475 1625 0000 0BC5 	.long0xbc5
 7476 1629 28        	.uleb128 0x28
 7477 162a 0000 0000 	.long.LASF309
 7478 162e 01        	.byte0x1
 7479 162f 06DA      	.word0x6da
 7480 1631 0000 00AA 	.long0xaa
 7481 1635 0000 0000 	.long.LFB82
 7482 1639 0000 01C4 	.long.LFE82-.LFB82
 7483 163d 01        	.uleb128 0x1
 7484 163e 9C        	.byte0x9c
 7485 163f 0000 16AD 	.long0x16ad
 7486 1643 29        	.uleb128 0x29
 7487 1644 0000 0000 	.long.LASF210
 7488 1648 01        	.byte0x1
 7489 1649 06DA      	.word0x6da
 7490 164b 0000 0B60 	.long0xb60
 7491 164f 02        	.uleb128 0x2
 7492 1650 91        	.byte0x91
 7493 1651 00        	.sleb128 0
 7494 1652 2A        	.uleb128 0x2a
 7495 1653 0000 0000 	.long.LASF306
 7496 1657 01        	.byte0x1
 7497 1658 06DC      	.word0x6dc
 7498 165a 0000 16AD 	.long0x16ad
 7499 165e 02        	.uleb128 0x2
 7500 165f 91        	.byte0x91
 7501 1660 74        	.sleb128 -12
68K GAS   			page 181


 7502 1661 2A        	.uleb128 0x2a
 7503 1662 0000 0000 	.long.LASF310
 7504 1666 01        	.byte0x1
 7505 1667 06DD      	.word0x6dd
 7506 1669 0000 16B3 	.long0x16b3
 7507 166d 02        	.uleb128 0x2
 7508 166e 91        	.byte0x91
 7509 166f 6C        	.sleb128 -20
 7510 1670 2A        	.uleb128 0x2a
 7511 1671 0000 0000 	.long.LASF188
 7512 1675 01        	.byte0x1
 7513 1676 06DE      	.word0x6de
 7514 1678 0000 0086 	.long0x86
 7515 167c 02        	.uleb128 0x2
 7516 167d 91        	.byte0x91
 7517 167e 68        	.sleb128 -24
 7518 167f 2A        	.uleb128 0x2a
 7519 1680 0000 0000 	.long.LASF311
 7520 1684 01        	.byte0x1
 7521 1685 06DF      	.word0x6df
 7522 1687 0000 0050 	.long0x50
 7523 168b 02        	.uleb128 0x2
 7524 168c 91        	.byte0x91
 7525 168d 78        	.sleb128 -8
 7526 168e 2A        	.uleb128 0x2a
 7527 168f 0000 0000 	.long.LASF305
 7528 1693 01        	.byte0x1
 7529 1694 06E0      	.word0x6e0
 7530 1696 0000 161D 	.long0x161d
 7531 169a 02        	.uleb128 0x2
 7532 169b 91        	.byte0x91
 7533 169c 70        	.sleb128 -16
 7534 169d 2A        	.uleb128 0x2a
 7535 169e 0000 0000 	.long.LASF307
 7536 16a2 01        	.byte0x1
 7537 16a3 06E1      	.word0x6e1
 7538 16a5 0000 00C2 	.long0xc2
 7539 16a9 02        	.uleb128 0x2
 7540 16aa 91        	.byte0x91
 7541 16ab 54        	.sleb128 -44
 7542 16ac 00        	.byte0
 7543 16ad 0D        	.uleb128 0xd
 7544 16ae 04        	.byte0x4
 7545 16af 0000 0C8C 	.long0xc8c
 7546 16b3 0D        	.uleb128 0xd
 7547 16b4 04        	.byte0x4
 7548 16b5 0000 1091 	.long0x1091
 7549 16b9 28        	.uleb128 0x28
 7550 16ba 0000 0000 	.long.LASF312
 7551 16be 01        	.byte0x1
 7552 16bf 0677      	.word0x677
 7553 16c1 0000 00AA 	.long0xaa
 7554 16c5 0000 0000 	.long.LFB81
 7555 16c9 0000 021A 	.long.LFE81-.LFB81
 7556 16cd 01        	.uleb128 0x1
 7557 16ce 9C        	.byte0x9c
 7558 16cf 0000 173D 	.long0x173d
68K GAS   			page 182


 7559 16d3 29        	.uleb128 0x29
 7560 16d4 0000 0000 	.long.LASF210
 7561 16d8 01        	.byte0x1
 7562 16d9 0677      	.word0x677
 7563 16db 0000 0B60 	.long0xb60
 7564 16df 02        	.uleb128 0x2
 7565 16e0 91        	.byte0x91
 7566 16e1 00        	.sleb128 0
 7567 16e2 2A        	.uleb128 0x2a
 7568 16e3 0000 0000 	.long.LASF306
 7569 16e7 01        	.byte0x1
 7570 16e8 0679      	.word0x679
 7571 16ea 0000 173D 	.long0x173d
 7572 16ee 02        	.uleb128 0x2
 7573 16ef 91        	.byte0x91
 7574 16f0 74        	.sleb128 -12
 7575 16f1 2A        	.uleb128 0x2a
 7576 16f2 0000 0000 	.long.LASF310
 7577 16f6 01        	.byte0x1
 7578 16f7 067A      	.word0x67a
 7579 16f9 0000 16B3 	.long0x16b3
 7580 16fd 02        	.uleb128 0x2
 7581 16fe 91        	.byte0x91
 7582 16ff 6C        	.sleb128 -20
 7583 1700 2A        	.uleb128 0x2a
 7584 1701 0000 0000 	.long.LASF188
 7585 1705 01        	.byte0x1
 7586 1706 067B      	.word0x67b
 7587 1708 0000 0086 	.long0x86
 7588 170c 02        	.uleb128 0x2
 7589 170d 91        	.byte0x91
 7590 170e 68        	.sleb128 -24
 7591 170f 2A        	.uleb128 0x2a
 7592 1710 0000 0000 	.long.LASF311
 7593 1714 01        	.byte0x1
 7594 1715 067C      	.word0x67c
 7595 1717 0000 0050 	.long0x50
 7596 171b 02        	.uleb128 0x2
 7597 171c 91        	.byte0x91
 7598 171d 78        	.sleb128 -8
 7599 171e 2A        	.uleb128 0x2a
 7600 171f 0000 0000 	.long.LASF305
 7601 1723 01        	.byte0x1
 7602 1724 067D      	.word0x67d
 7603 1726 0000 161D 	.long0x161d
 7604 172a 02        	.uleb128 0x2
 7605 172b 91        	.byte0x91
 7606 172c 70        	.sleb128 -16
 7607 172d 2A        	.uleb128 0x2a
 7608 172e 0000 0000 	.long.LASF307
 7609 1732 01        	.byte0x1
 7610 1733 067E      	.word0x67e
 7611 1735 0000 00C2 	.long0xc2
 7612 1739 02        	.uleb128 0x2
 7613 173a 91        	.byte0x91
 7614 173b 54        	.sleb128 -44
 7615 173c 00        	.byte0
68K GAS   			page 183


 7616 173d 0D        	.uleb128 0xd
 7617 173e 04        	.byte0x4
 7618 173f 0000 0D10 	.long0xd10
 7619 1743 28        	.uleb128 0x28
 7620 1744 0000 0000 	.long.LASF313
 7621 1748 01        	.byte0x1
 7622 1749 0634      	.word0x634
 7623 174b 0000 00AA 	.long0xaa
 7624 174f 0000 0000 	.long.LFB80
 7625 1753 0000 0154 	.long.LFE80-.LFB80
 7626 1757 01        	.uleb128 0x1
 7627 1758 9C        	.byte0x9c
 7628 1759 0000 17B6 	.long0x17b6
 7629 175d 29        	.uleb128 0x29
 7630 175e 0000 0000 	.long.LASF210
 7631 1762 01        	.byte0x1
 7632 1763 0634      	.word0x634
 7633 1765 0000 0B60 	.long0xb60
 7634 1769 02        	.uleb128 0x2
 7635 176a 91        	.byte0x91
 7636 176b 00        	.sleb128 0
 7637 176c 2A        	.uleb128 0x2a
 7638 176d 0000 0000 	.long.LASF188
 7639 1771 01        	.byte0x1
 7640 1772 0636      	.word0x636
 7641 1774 0000 0086 	.long0x86
 7642 1778 02        	.uleb128 0x2
 7643 1779 91        	.byte0x91
 7644 177a 6C        	.sleb128 -20
 7645 177b 2A        	.uleb128 0x2a
 7646 177c 0000 0000 	.long.LASF306
 7647 1780 01        	.byte0x1
 7648 1781 0637      	.word0x637
 7649 1783 0000 17B6 	.long0x17b6
 7650 1787 02        	.uleb128 0x2
 7651 1788 91        	.byte0x91
 7652 1789 70        	.sleb128 -16
 7653 178a 2A        	.uleb128 0x2a
 7654 178b 0000 0000 	.long.LASF311
 7655 178f 01        	.byte0x1
 7656 1790 0638      	.word0x638
 7657 1792 0000 0050 	.long0x50
 7658 1796 02        	.uleb128 0x2
 7659 1797 91        	.byte0x91
 7660 1798 78        	.sleb128 -8
 7661 1799 2B        	.uleb128 0x2b
 7662 179a 6900      	.string"i"
 7663 179c 01        	.byte0x1
 7664 179d 0639      	.word0x639
 7665 179f 0000 0086 	.long0x86
 7666 17a3 02        	.uleb128 0x2
 7667 17a4 91        	.byte0x91
 7668 17a5 74        	.sleb128 -12
 7669 17a6 2A        	.uleb128 0x2a
 7670 17a7 0000 0000 	.long.LASF307
 7671 17ab 01        	.byte0x1
 7672 17ac 063A      	.word0x63a
68K GAS   			page 184


 7673 17ae 0000 00C2 	.long0xc2
 7674 17b2 02        	.uleb128 0x2
 7675 17b3 91        	.byte0x91
 7676 17b4 58        	.sleb128 -40
 7677 17b5 00        	.byte0
 7678 17b6 0D        	.uleb128 0xd
 7679 17b7 04        	.byte0x4
 7680 17b8 0000 0C57 	.long0xc57
 7681 17bc 28        	.uleb128 0x28
 7682 17bd 0000 0000 	.long.LASF314
 7683 17c1 01        	.byte0x1
 7684 17c2 05E5      	.word0x5e5
 7685 17c4 0000 00AA 	.long0xaa
 7686 17c8 0000 0000 	.long.LFB79
 7687 17cc 0000 01AE 	.long.LFE79-.LFB79
 7688 17d0 01        	.uleb128 0x1
 7689 17d1 9C        	.byte0x9c
 7690 17d2 0000 1840 	.long0x1840
 7691 17d6 29        	.uleb128 0x29
 7692 17d7 0000 0000 	.long.LASF210
 7693 17db 01        	.byte0x1
 7694 17dc 05E5      	.word0x5e5
 7695 17de 0000 0B60 	.long0xb60
 7696 17e2 02        	.uleb128 0x2
 7697 17e3 91        	.byte0x91
 7698 17e4 00        	.sleb128 0
 7699 17e5 2A        	.uleb128 0x2a
 7700 17e6 0000 0000 	.long.LASF306
 7701 17ea 01        	.byte0x1
 7702 17eb 05E7      	.word0x5e7
 7703 17ed 0000 16AD 	.long0x16ad
 7704 17f1 02        	.uleb128 0x2
 7705 17f2 91        	.byte0x91
 7706 17f3 74        	.sleb128 -12
 7707 17f4 2A        	.uleb128 0x2a
 7708 17f5 0000 0000 	.long.LASF310
 7709 17f9 01        	.byte0x1
 7710 17fa 05E8      	.word0x5e8
 7711 17fc 0000 16B3 	.long0x16b3
 7712 1800 02        	.uleb128 0x2
 7713 1801 91        	.byte0x91
 7714 1802 6C        	.sleb128 -20
 7715 1803 2A        	.uleb128 0x2a
 7716 1804 0000 0000 	.long.LASF188
 7717 1808 01        	.byte0x1
 7718 1809 05E9      	.word0x5e9
 7719 180b 0000 0086 	.long0x86
 7720 180f 02        	.uleb128 0x2
 7721 1810 91        	.byte0x91
 7722 1811 68        	.sleb128 -24
 7723 1812 2A        	.uleb128 0x2a
 7724 1813 0000 0000 	.long.LASF311
 7725 1817 01        	.byte0x1
 7726 1818 05EA      	.word0x5ea
 7727 181a 0000 0050 	.long0x50
 7728 181e 02        	.uleb128 0x2
 7729 181f 91        	.byte0x91
68K GAS   			page 185


 7730 1820 78        	.sleb128 -8
 7731 1821 2A        	.uleb128 0x2a
 7732 1822 0000 0000 	.long.LASF305
 7733 1826 01        	.byte0x1
 7734 1827 05EB      	.word0x5eb
 7735 1829 0000 161D 	.long0x161d
 7736 182d 02        	.uleb128 0x2
 7737 182e 91        	.byte0x91
 7738 182f 70        	.sleb128 -16
 7739 1830 2A        	.uleb128 0x2a
 7740 1831 0000 0000 	.long.LASF307
 7741 1835 01        	.byte0x1
 7742 1836 05EC      	.word0x5ec
 7743 1838 0000 00C2 	.long0xc2
 7744 183c 02        	.uleb128 0x2
 7745 183d 91        	.byte0x91
 7746 183e 54        	.sleb128 -44
 7747 183f 00        	.byte0
 7748 1840 28        	.uleb128 0x28
 7749 1841 0000 0000 	.long.LASF315
 7750 1845 01        	.byte0x1
 7751 1846 05A5      	.word0x5a5
 7752 1848 0000 00AA 	.long0xaa
 7753 184c 0000 0000 	.long.LFB78
 7754 1850 0000 0132 	.long.LFE78-.LFB78
 7755 1854 01        	.uleb128 0x1
 7756 1855 9C        	.byte0x9c
 7757 1856 0000 18A6 	.long0x18a6
 7758 185a 29        	.uleb128 0x29
 7759 185b 0000 0000 	.long.LASF210
 7760 185f 01        	.byte0x1
 7761 1860 05A5      	.word0x5a5
 7762 1862 0000 0B60 	.long0xb60
 7763 1866 02        	.uleb128 0x2
 7764 1867 91        	.byte0x91
 7765 1868 00        	.sleb128 0
 7766 1869 2A        	.uleb128 0x2a
 7767 186a 0000 0000 	.long.LASF188
 7768 186e 01        	.byte0x1
 7769 186f 05A7      	.word0x5a7
 7770 1871 0000 0086 	.long0x86
 7771 1875 02        	.uleb128 0x2
 7772 1876 91        	.byte0x91
 7773 1877 70        	.sleb128 -16
 7774 1878 2A        	.uleb128 0x2a
 7775 1879 0000 0000 	.long.LASF306
 7776 187d 01        	.byte0x1
 7777 187e 05A8      	.word0x5a8
 7778 1880 0000 17B6 	.long0x17b6
 7779 1884 02        	.uleb128 0x2
 7780 1885 91        	.byte0x91
 7781 1886 74        	.sleb128 -12
 7782 1887 2A        	.uleb128 0x2a
 7783 1888 0000 0000 	.long.LASF311
 7784 188c 01        	.byte0x1
 7785 188d 05A9      	.word0x5a9
 7786 188f 0000 0050 	.long0x50
68K GAS   			page 186


 7787 1893 02        	.uleb128 0x2
 7788 1894 91        	.byte0x91
 7789 1895 78        	.sleb128 -8
 7790 1896 2A        	.uleb128 0x2a
 7791 1897 0000 0000 	.long.LASF307
 7792 189b 01        	.byte0x1
 7793 189c 05AA      	.word0x5aa
 7794 189e 0000 00C2 	.long0xc2
 7795 18a2 02        	.uleb128 0x2
 7796 18a3 91        	.byte0x91
 7797 18a4 5C        	.sleb128 -36
 7798 18a5 00        	.byte0
 7799 18a6 28        	.uleb128 0x28
 7800 18a7 0000 0000 	.long.LASF316
 7801 18ab 01        	.byte0x1
 7802 18ac 0565      	.word0x565
 7803 18ae 0000 00AA 	.long0xaa
 7804 18b2 0000 0000 	.long.LFB77
 7805 18b6 0000 0138 	.long.LFE77-.LFB77
 7806 18ba 01        	.uleb128 0x1
 7807 18bb 9C        	.byte0x9c
 7808 18bc 0000 190C 	.long0x190c
 7809 18c0 29        	.uleb128 0x29
 7810 18c1 0000 0000 	.long.LASF210
 7811 18c5 01        	.byte0x1
 7812 18c6 0565      	.word0x565
 7813 18c8 0000 0B60 	.long0xb60
 7814 18cc 02        	.uleb128 0x2
 7815 18cd 91        	.byte0x91
 7816 18ce 00        	.sleb128 0
 7817 18cf 2A        	.uleb128 0x2a
 7818 18d0 0000 0000 	.long.LASF188
 7819 18d4 01        	.byte0x1
 7820 18d5 0567      	.word0x567
 7821 18d7 0000 0086 	.long0x86
 7822 18db 02        	.uleb128 0x2
 7823 18dc 91        	.byte0x91
 7824 18dd 70        	.sleb128 -16
 7825 18de 2A        	.uleb128 0x2a
 7826 18df 0000 0000 	.long.LASF306
 7827 18e3 01        	.byte0x1
 7828 18e4 0568      	.word0x568
 7829 18e6 0000 17B6 	.long0x17b6
 7830 18ea 02        	.uleb128 0x2
 7831 18eb 91        	.byte0x91
 7832 18ec 74        	.sleb128 -12
 7833 18ed 2A        	.uleb128 0x2a
 7834 18ee 0000 0000 	.long.LASF311
 7835 18f2 01        	.byte0x1
 7836 18f3 0569      	.word0x569
 7837 18f5 0000 0050 	.long0x50
 7838 18f9 02        	.uleb128 0x2
 7839 18fa 91        	.byte0x91
 7840 18fb 78        	.sleb128 -8
 7841 18fc 2A        	.uleb128 0x2a
 7842 18fd 0000 0000 	.long.LASF307
 7843 1901 01        	.byte0x1
68K GAS   			page 187


 7844 1902 056A      	.word0x56a
 7845 1904 0000 00C2 	.long0xc2
 7846 1908 02        	.uleb128 0x2
 7847 1909 91        	.byte0x91
 7848 190a 5C        	.sleb128 -36
 7849 190b 00        	.byte0
 7850 190c 28        	.uleb128 0x28
 7851 190d 0000 0000 	.long.LASF317
 7852 1911 01        	.byte0x1
 7853 1912 0526      	.word0x526
 7854 1914 0000 00AA 	.long0xaa
 7855 1918 0000 0000 	.long.LFB76
 7856 191c 0000 0132 	.long.LFE76-.LFB76
 7857 1920 01        	.uleb128 0x1
 7858 1921 9C        	.byte0x9c
 7859 1922 0000 1972 	.long0x1972
 7860 1926 29        	.uleb128 0x29
 7861 1927 0000 0000 	.long.LASF210
 7862 192b 01        	.byte0x1
 7863 192c 0526      	.word0x526
 7864 192e 0000 0B60 	.long0xb60
 7865 1932 02        	.uleb128 0x2
 7866 1933 91        	.byte0x91
 7867 1934 00        	.sleb128 0
 7868 1935 2A        	.uleb128 0x2a
 7869 1936 0000 0000 	.long.LASF188
 7870 193a 01        	.byte0x1
 7871 193b 0528      	.word0x528
 7872 193d 0000 0086 	.long0x86
 7873 1941 02        	.uleb128 0x2
 7874 1942 91        	.byte0x91
 7875 1943 70        	.sleb128 -16
 7876 1944 2A        	.uleb128 0x2a
 7877 1945 0000 0000 	.long.LASF306
 7878 1949 01        	.byte0x1
 7879 194a 0529      	.word0x529
 7880 194c 0000 17B6 	.long0x17b6
 7881 1950 02        	.uleb128 0x2
 7882 1951 91        	.byte0x91
 7883 1952 74        	.sleb128 -12
 7884 1953 2A        	.uleb128 0x2a
 7885 1954 0000 0000 	.long.LASF311
 7886 1958 01        	.byte0x1
 7887 1959 052A      	.word0x52a
 7888 195b 0000 0050 	.long0x50
 7889 195f 02        	.uleb128 0x2
 7890 1960 91        	.byte0x91
 7891 1961 78        	.sleb128 -8
 7892 1962 2A        	.uleb128 0x2a
 7893 1963 0000 0000 	.long.LASF307
 7894 1967 01        	.byte0x1
 7895 1968 052B      	.word0x52b
 7896 196a 0000 00C2 	.long0xc2
 7897 196e 02        	.uleb128 0x2
 7898 196f 91        	.byte0x91
 7899 1970 5C        	.sleb128 -36
 7900 1971 00        	.byte0
68K GAS   			page 188


 7901 1972 28        	.uleb128 0x28
 7902 1973 0000 0000 	.long.LASF318
 7903 1977 01        	.byte0x1
 7904 1978 04D9      	.word0x4d9
 7905 197a 0000 00AA 	.long0xaa
 7906 197e 0000 0000 	.long.LFB75
 7907 1982 0000 01B2 	.long.LFE75-.LFB75
 7908 1986 01        	.uleb128 0x1
 7909 1987 9C        	.byte0x9c
 7910 1988 0000 19D8 	.long0x19d8
 7911 198c 29        	.uleb128 0x29
 7912 198d 0000 0000 	.long.LASF210
 7913 1991 01        	.byte0x1
 7914 1992 04D9      	.word0x4d9
 7915 1994 0000 0B60 	.long0xb60
 7916 1998 02        	.uleb128 0x2
 7917 1999 91        	.byte0x91
 7918 199a 00        	.sleb128 0
 7919 199b 2A        	.uleb128 0x2a
 7920 199c 0000 0000 	.long.LASF188
 7921 19a0 01        	.byte0x1
 7922 19a1 04DB      	.word0x4db
 7923 19a3 0000 0086 	.long0x86
 7924 19a7 02        	.uleb128 0x2
 7925 19a8 91        	.byte0x91
 7926 19a9 70        	.sleb128 -16
 7927 19aa 2A        	.uleb128 0x2a
 7928 19ab 0000 0000 	.long.LASF306
 7929 19af 01        	.byte0x1
 7930 19b0 04DC      	.word0x4dc
 7931 19b2 0000 19D8 	.long0x19d8
 7932 19b6 02        	.uleb128 0x2
 7933 19b7 91        	.byte0x91
 7934 19b8 74        	.sleb128 -12
 7935 19b9 2A        	.uleb128 0x2a
 7936 19ba 0000 0000 	.long.LASF311
 7937 19be 01        	.byte0x1
 7938 19bf 04DD      	.word0x4dd
 7939 19c1 0000 0050 	.long0x50
 7940 19c5 02        	.uleb128 0x2
 7941 19c6 91        	.byte0x91
 7942 19c7 78        	.sleb128 -8
 7943 19c8 2A        	.uleb128 0x2a
 7944 19c9 0000 0000 	.long.LASF307
 7945 19cd 01        	.byte0x1
 7946 19ce 04DE      	.word0x4de
 7947 19d0 0000 00C2 	.long0xc2
 7948 19d4 02        	.uleb128 0x2
 7949 19d5 91        	.byte0x91
 7950 19d6 5C        	.sleb128 -36
 7951 19d7 00        	.byte0
 7952 19d8 0D        	.uleb128 0xd
 7953 19d9 04        	.byte0x4
 7954 19da 0000 0CCE 	.long0xcce
 7955 19de 28        	.uleb128 0x28
 7956 19df 0000 0000 	.long.LASF319
 7957 19e3 01        	.byte0x1
68K GAS   			page 189


 7958 19e4 048B      	.word0x48b
 7959 19e6 0000 00AA 	.long0xaa
 7960 19ea 0000 0000 	.long.LFB74
 7961 19ee 0000 01B2 	.long.LFE74-.LFB74
 7962 19f2 01        	.uleb128 0x1
 7963 19f3 9C        	.byte0x9c
 7964 19f4 0000 1A44 	.long0x1a44
 7965 19f8 29        	.uleb128 0x29
 7966 19f9 0000 0000 	.long.LASF210
 7967 19fd 01        	.byte0x1
 7968 19fe 048B      	.word0x48b
 7969 1a00 0000 0B60 	.long0xb60
 7970 1a04 02        	.uleb128 0x2
 7971 1a05 91        	.byte0x91
 7972 1a06 00        	.sleb128 0
 7973 1a07 2A        	.uleb128 0x2a
 7974 1a08 0000 0000 	.long.LASF306
 7975 1a0c 01        	.byte0x1
 7976 1a0d 048D      	.word0x48d
 7977 1a0f 0000 19D8 	.long0x19d8
 7978 1a13 02        	.uleb128 0x2
 7979 1a14 91        	.byte0x91
 7980 1a15 74        	.sleb128 -12
 7981 1a16 2A        	.uleb128 0x2a
 7982 1a17 0000 0000 	.long.LASF188
 7983 1a1b 01        	.byte0x1
 7984 1a1c 048E      	.word0x48e
 7985 1a1e 0000 0086 	.long0x86
 7986 1a22 02        	.uleb128 0x2
 7987 1a23 91        	.byte0x91
 7988 1a24 70        	.sleb128 -16
 7989 1a25 2A        	.uleb128 0x2a
 7990 1a26 0000 0000 	.long.LASF311
 7991 1a2a 01        	.byte0x1
 7992 1a2b 048F      	.word0x48f
 7993 1a2d 0000 0050 	.long0x50
 7994 1a31 02        	.uleb128 0x2
 7995 1a32 91        	.byte0x91
 7996 1a33 78        	.sleb128 -8
 7997 1a34 2A        	.uleb128 0x2a
 7998 1a35 0000 0000 	.long.LASF307
 7999 1a39 01        	.byte0x1
 8000 1a3a 0490      	.word0x490
 8001 1a3c 0000 00C2 	.long0xc2
 8002 1a40 02        	.uleb128 0x2
 8003 1a41 91        	.byte0x91
 8004 1a42 5C        	.sleb128 -36
 8005 1a43 00        	.byte0
 8006 1a44 28        	.uleb128 0x28
 8007 1a45 0000 0000 	.long.LASF320
 8008 1a49 01        	.byte0x1
 8009 1a4a 0467      	.word0x467
 8010 1a4c 0000 00AA 	.long0xaa
 8011 1a50 0000 0000 	.long.LFB73
 8012 1a54 0000 008C 	.long.LFE73-.LFB73
 8013 1a58 01        	.uleb128 0x1
 8014 1a59 9C        	.byte0x9c
68K GAS   			page 190


 8015 1a5a 0000 1A8C 	.long0x1a8c
 8016 1a5e 29        	.uleb128 0x29
 8017 1a5f 0000 0000 	.long.LASF210
 8018 1a63 01        	.byte0x1
 8019 1a64 0467      	.word0x467
 8020 1a66 0000 0B60 	.long0xb60
 8021 1a6a 02        	.uleb128 0x2
 8022 1a6b 91        	.byte0x91
 8023 1a6c 00        	.sleb128 0
 8024 1a6d 2A        	.uleb128 0x2a
 8025 1a6e 0000 0000 	.long.LASF306
 8026 1a72 01        	.byte0x1
 8027 1a73 0469      	.word0x469
 8028 1a75 0000 1A8C 	.long0x1a8c
 8029 1a79 02        	.uleb128 0x2
 8030 1a7a 91        	.byte0x91
 8031 1a7b 74        	.sleb128 -12
 8032 1a7c 2A        	.uleb128 0x2a
 8033 1a7d 0000 0000 	.long.LASF311
 8034 1a81 01        	.byte0x1
 8035 1a82 046A      	.word0x46a
 8036 1a84 0000 00AA 	.long0xaa
 8037 1a88 02        	.uleb128 0x2
 8038 1a89 91        	.byte0x91
 8039 1a8a 7B        	.sleb128 -5
 8040 1a8b 00        	.byte0
 8041 1a8c 0D        	.uleb128 0xd
 8042 1a8d 04        	.byte0x4
 8043 1a8e 0000 0BFA 	.long0xbfa
 8044 1a92 28        	.uleb128 0x28
 8045 1a93 0000 0000 	.long.LASF321
 8046 1a97 01        	.byte0x1
 8047 1a98 0435      	.word0x435
 8048 1a9a 0000 00AA 	.long0xaa
 8049 1a9e 0000 0000 	.long.LFB72
 8050 1aa2 0000 00D8 	.long.LFE72-.LFB72
 8051 1aa6 01        	.uleb128 0x1
 8052 1aa7 9C        	.byte0x9c
 8053 1aa8 0000 1AE7 	.long0x1ae7
 8054 1aac 29        	.uleb128 0x29
 8055 1aad 0000 0000 	.long.LASF210
 8056 1ab1 01        	.byte0x1
 8057 1ab2 0435      	.word0x435
 8058 1ab4 0000 0B60 	.long0xb60
 8059 1ab8 02        	.uleb128 0x2
 8060 1ab9 91        	.byte0x91
 8061 1aba 00        	.sleb128 0
 8062 1abb 2B        	.uleb128 0x2b
 8063 1abc 6900      	.string"i"
 8064 1abe 01        	.byte0x1
 8065 1abf 0437      	.word0x437
 8066 1ac1 0000 0086 	.long0x86
 8067 1ac5 02        	.uleb128 0x2
 8068 1ac6 91        	.byte0x91
 8069 1ac7 78        	.sleb128 -8
 8070 1ac8 2A        	.uleb128 0x2a
 8071 1ac9 0000 0000 	.long.LASF306
68K GAS   			page 191


 8072 1acd 01        	.byte0x1
 8073 1ace 0438      	.word0x438
 8074 1ad0 0000 1AE7 	.long0x1ae7
 8075 1ad4 02        	.uleb128 0x2
 8076 1ad5 91        	.byte0x91
 8077 1ad6 70        	.sleb128 -16
 8078 1ad7 2A        	.uleb128 0x2a
 8079 1ad8 0000 0000 	.long.LASF322
 8080 1adc 01        	.byte0x1
 8081 1add 0439      	.word0x439
 8082 1adf 0000 00AA 	.long0xaa
 8083 1ae3 02        	.uleb128 0x2
 8084 1ae4 91        	.byte0x91
 8085 1ae5 77        	.sleb128 -9
 8086 1ae6 00        	.byte0
 8087 1ae7 0D        	.uleb128 0xd
 8088 1ae8 04        	.byte0x4
 8089 1ae9 0000 0C2F 	.long0xc2f
 8090 1aed 28        	.uleb128 0x28
 8091 1aee 0000 0000 	.long.LASF323
 8092 1af2 01        	.byte0x1
 8093 1af3 0402      	.word0x402
 8094 1af5 0000 00AA 	.long0xaa
 8095 1af9 0000 0000 	.long.LFB71
 8096 1afd 0000 00D8 	.long.LFE71-.LFB71
 8097 1b01 01        	.uleb128 0x1
 8098 1b02 9C        	.byte0x9c
 8099 1b03 0000 1B42 	.long0x1b42
 8100 1b07 29        	.uleb128 0x29
 8101 1b08 0000 0000 	.long.LASF210
 8102 1b0c 01        	.byte0x1
 8103 1b0d 0402      	.word0x402
 8104 1b0f 0000 0B60 	.long0xb60
 8105 1b13 02        	.uleb128 0x2
 8106 1b14 91        	.byte0x91
 8107 1b15 00        	.sleb128 0
 8108 1b16 2B        	.uleb128 0x2b
 8109 1b17 6900      	.string"i"
 8110 1b19 01        	.byte0x1
 8111 1b1a 0404      	.word0x404
 8112 1b1c 0000 0086 	.long0x86
 8113 1b20 02        	.uleb128 0x2
 8114 1b21 91        	.byte0x91
 8115 1b22 78        	.sleb128 -8
 8116 1b23 2A        	.uleb128 0x2a
 8117 1b24 0000 0000 	.long.LASF306
 8118 1b28 01        	.byte0x1
 8119 1b29 0405      	.word0x405
 8120 1b2b 0000 1AE7 	.long0x1ae7
 8121 1b2f 02        	.uleb128 0x2
 8122 1b30 91        	.byte0x91
 8123 1b31 70        	.sleb128 -16
 8124 1b32 2A        	.uleb128 0x2a
 8125 1b33 0000 0000 	.long.LASF322
 8126 1b37 01        	.byte0x1
 8127 1b38 0406      	.word0x406
 8128 1b3a 0000 00AA 	.long0xaa
68K GAS   			page 192


 8129 1b3e 02        	.uleb128 0x2
 8130 1b3f 91        	.byte0x91
 8131 1b40 77        	.sleb128 -9
 8132 1b41 00        	.byte0
 8133 1b42 28        	.uleb128 0x28
 8134 1b43 0000 0000 	.long.LASF324
 8135 1b47 01        	.byte0x1
 8136 1b48 03C7      	.word0x3c7
 8137 1b4a 0000 00AA 	.long0xaa
 8138 1b4e 0000 0000 	.long.LFB70
 8139 1b52 0000 0120 	.long.LFE70-.LFB70
 8140 1b56 01        	.uleb128 0x1
 8141 1b57 9C        	.byte0x9c
 8142 1b58 0000 1B8A 	.long0x1b8a
 8143 1b5c 29        	.uleb128 0x29
 8144 1b5d 0000 0000 	.long.LASF210
 8145 1b61 01        	.byte0x1
 8146 1b62 03C7      	.word0x3c7
 8147 1b64 0000 0B60 	.long0xb60
 8148 1b68 02        	.uleb128 0x2
 8149 1b69 91        	.byte0x91
 8150 1b6a 00        	.sleb128 0
 8151 1b6b 2A        	.uleb128 0x2a
 8152 1b6c 0000 0000 	.long.LASF306
 8153 1b70 01        	.byte0x1
 8154 1b71 03CA      	.word0x3ca
 8155 1b73 0000 1AE7 	.long0x1ae7
 8156 1b77 02        	.uleb128 0x2
 8157 1b78 91        	.byte0x91
 8158 1b79 74        	.sleb128 -12
 8159 1b7a 2A        	.uleb128 0x2a
 8160 1b7b 0000 0000 	.long.LASF322
 8161 1b7f 01        	.byte0x1
 8162 1b80 03CB      	.word0x3cb
 8163 1b82 0000 00AA 	.long0xaa
 8164 1b86 02        	.uleb128 0x2
 8165 1b87 91        	.byte0x91
 8166 1b88 7B        	.sleb128 -5
 8167 1b89 00        	.byte0
 8168 1b8a 28        	.uleb128 0x28
 8169 1b8b 0000 0000 	.long.LASF325
 8170 1b8f 01        	.byte0x1
 8171 1b90 038F      	.word0x38f
 8172 1b92 0000 00AA 	.long0xaa
 8173 1b96 0000 0000 	.long.LFB69
 8174 1b9a 0000 0120 	.long.LFE69-.LFB69
 8175 1b9e 01        	.uleb128 0x1
 8176 1b9f 9C        	.byte0x9c
 8177 1ba0 0000 1BD2 	.long0x1bd2
 8178 1ba4 29        	.uleb128 0x29
 8179 1ba5 0000 0000 	.long.LASF210
 8180 1ba9 01        	.byte0x1
 8181 1baa 038F      	.word0x38f
 8182 1bac 0000 0B60 	.long0xb60
 8183 1bb0 02        	.uleb128 0x2
 8184 1bb1 91        	.byte0x91
 8185 1bb2 00        	.sleb128 0
68K GAS   			page 193


 8186 1bb3 2A        	.uleb128 0x2a
 8187 1bb4 0000 0000 	.long.LASF306
 8188 1bb8 01        	.byte0x1
 8189 1bb9 0391      	.word0x391
 8190 1bbb 0000 1AE7 	.long0x1ae7
 8191 1bbf 02        	.uleb128 0x2
 8192 1bc0 91        	.byte0x91
 8193 1bc1 74        	.sleb128 -12
 8194 1bc2 2A        	.uleb128 0x2a
 8195 1bc3 0000 0000 	.long.LASF322
 8196 1bc7 01        	.byte0x1
 8197 1bc8 0392      	.word0x392
 8198 1bca 0000 00AA 	.long0xaa
 8199 1bce 02        	.uleb128 0x2
 8200 1bcf 91        	.byte0x91
 8201 1bd0 7B        	.sleb128 -5
 8202 1bd1 00        	.byte0
 8203 1bd2 28        	.uleb128 0x28
 8204 1bd3 0000 0000 	.long.LASF326
 8205 1bd7 01        	.byte0x1
 8206 1bd8 033C      	.word0x33c
 8207 1bda 0000 00AA 	.long0xaa
 8208 1bde 0000 0000 	.long.LFB68
 8209 1be2 0000 01C6 	.long.LFE68-.LFB68
 8210 1be6 01        	.uleb128 0x1
 8211 1be7 9C        	.byte0x9c
 8212 1be8 0000 1C56 	.long0x1c56
 8213 1bec 29        	.uleb128 0x29
 8214 1bed 0000 0000 	.long.LASF210
 8215 1bf1 01        	.byte0x1
 8216 1bf2 033C      	.word0x33c
 8217 1bf4 0000 0B60 	.long0xb60
 8218 1bf8 02        	.uleb128 0x2
 8219 1bf9 91        	.byte0x91
 8220 1bfa 00        	.sleb128 0
 8221 1bfb 2A        	.uleb128 0x2a
 8222 1bfc 0000 0000 	.long.LASF306
 8223 1c00 01        	.byte0x1
 8224 1c01 033E      	.word0x33e
 8225 1c03 0000 173D 	.long0x173d
 8226 1c07 02        	.uleb128 0x2
 8227 1c08 91        	.byte0x91
 8228 1c09 74        	.sleb128 -12
 8229 1c0a 2A        	.uleb128 0x2a
 8230 1c0b 0000 0000 	.long.LASF310
 8231 1c0f 01        	.byte0x1
 8232 1c10 033F      	.word0x33f
 8233 1c12 0000 16B3 	.long0x16b3
 8234 1c16 02        	.uleb128 0x2
 8235 1c17 91        	.byte0x91
 8236 1c18 6C        	.sleb128 -20
 8237 1c19 2A        	.uleb128 0x2a
 8238 1c1a 0000 0000 	.long.LASF188
 8239 1c1e 01        	.byte0x1
 8240 1c1f 0340      	.word0x340
 8241 1c21 0000 0086 	.long0x86
 8242 1c25 02        	.uleb128 0x2
68K GAS   			page 194


 8243 1c26 91        	.byte0x91
 8244 1c27 68        	.sleb128 -24
 8245 1c28 2A        	.uleb128 0x2a
 8246 1c29 0000 0000 	.long.LASF311
 8247 1c2d 01        	.byte0x1
 8248 1c2e 0341      	.word0x341
 8249 1c30 0000 0050 	.long0x50
 8250 1c34 02        	.uleb128 0x2
 8251 1c35 91        	.byte0x91
 8252 1c36 78        	.sleb128 -8
 8253 1c37 2A        	.uleb128 0x2a
 8254 1c38 0000 0000 	.long.LASF305
 8255 1c3c 01        	.byte0x1
 8256 1c3d 0342      	.word0x342
 8257 1c3f 0000 161D 	.long0x161d
 8258 1c43 02        	.uleb128 0x2
 8259 1c44 91        	.byte0x91
 8260 1c45 70        	.sleb128 -16
 8261 1c46 2A        	.uleb128 0x2a
 8262 1c47 0000 0000 	.long.LASF307
 8263 1c4b 01        	.byte0x1
 8264 1c4c 0343      	.word0x343
 8265 1c4e 0000 00C2 	.long0xc2
 8266 1c52 02        	.uleb128 0x2
 8267 1c53 91        	.byte0x91
 8268 1c54 54        	.sleb128 -44
 8269 1c55 00        	.byte0
 8270 1c56 2C        	.uleb128 0x2c
 8271 1c57 0000 0000 	.long.LASF348
 8272 1c5b 01        	.byte0x1
 8273 1c5c 0321      	.word0x321
 8274 1c5e 0000 0000 	.long.LFB67
 8275 1c62 0000 0044 	.long.LFE67-.LFB67
 8276 1c66 01        	.uleb128 0x1
 8277 1c67 9C        	.byte0x9c
 8278 1c68 2D        	.uleb128 0x2d
 8279 1c69 0000 0000 	.long.LASF333
 8280 1c6d 01        	.byte0x1
 8281 1c6e 02EE      	.word0x2ee
 8282 1c70 0000 0000 	.long.LFB66
 8283 1c74 0000 0154 	.long.LFE66-.LFB66
 8284 1c78 01        	.uleb128 0x1
 8285 1c79 9C        	.byte0x9c
 8286 1c7a 0000 1C99 	.long0x1c99
 8287 1c7e 2B        	.uleb128 0x2b
 8288 1c7f 6900      	.string"i"
 8289 1c81 01        	.byte0x1
 8290 1c82 02F0      	.word0x2f0
 8291 1c84 0000 0086 	.long0x86
 8292 1c88 02        	.uleb128 0x2
 8293 1c89 91        	.byte0x91
 8294 1c8a 78        	.sleb128 -8
 8295 1c8b 2B        	.uleb128 0x2b
 8296 1c8c 6A00      	.string"j"
 8297 1c8e 01        	.byte0x1
 8298 1c8f 02F0      	.word0x2f0
 8299 1c91 0000 0086 	.long0x86
68K GAS   			page 195


 8300 1c95 02        	.uleb128 0x2
 8301 1c96 91        	.byte0x91
 8302 1c97 74        	.sleb128 -12
 8303 1c98 00        	.byte0
 8304 1c99 28        	.uleb128 0x28
 8305 1c9a 0000 0000 	.long.LASF327
 8306 1c9e 01        	.byte0x1
 8307 1c9f 02CD      	.word0x2cd
 8308 1ca1 0000 00AA 	.long0xaa
 8309 1ca5 0000 0000 	.long.LFB65
 8310 1ca9 0000 00A4 	.long.LFE65-.LFB65
 8311 1cad 01        	.uleb128 0x1
 8312 1cae 9C        	.byte0x9c
 8313 1caf 0000 1D18 	.long0x1d18
 8314 1cb3 2E        	.uleb128 0x2e
 8315 1cb4 4D73 6700 	.string"Msg"
 8316 1cb8 01        	.byte0x1
 8317 1cb9 02CD      	.word0x2cd
 8318 1cbb 0000 0B44 	.long0xb44
 8319 1cbf 02        	.uleb128 0x2
 8320 1cc0 91        	.byte0x91
 8321 1cc1 00        	.sleb128 0
 8322 1cc2 29        	.uleb128 0x29
 8323 1cc3 0000 0000 	.long.LASF328
 8324 1cc7 01        	.byte0x1
 8325 1cc8 02CD      	.word0x2cd
 8326 1cca 0000 0074 	.long0x74
 8327 1cce 02        	.uleb128 0x2
 8328 1ccf 91        	.byte0x91
 8329 1cd0 70        	.sleb128 -16
 8330 1cd1 2A        	.uleb128 0x2a
 8331 1cd2 0000 0000 	.long.LASF329
 8332 1cd6 01        	.byte0x1
 8333 1cd7 02CF      	.word0x2cf
 8334 1cd9 0000 00AA 	.long0xaa
 8335 1cdd 02        	.uleb128 0x2
 8336 1cde 91        	.byte0x91
 8337 1cdf 7B        	.sleb128 -5
 8338 1ce0 2A        	.uleb128 0x2a
 8339 1ce1 0000 0000 	.long.LASF330
 8340 1ce5 01        	.byte0x1
 8341 1ce6 02D0      	.word0x2d0
 8342 1ce8 0000 0074 	.long0x74
 8343 1cec 02        	.uleb128 0x2
 8344 1ced 91        	.byte0x91
 8345 1cee 78        	.sleb128 -8
 8346 1cef 2F        	.uleb128 0x2f
 8347 1cf0 0000 0000 	.long.LBB2
 8348 1cf4 0000 005E 	.long.LBE2-.LBB2
 8349 1cf8 2A        	.uleb128 0x2a
 8350 1cf9 0000 0000 	.long.LASF331
 8351 1cfd 01        	.byte0x1
 8352 1cfe 02D7      	.word0x2d7
 8353 1d00 0000 0B39 	.long0xb39
 8354 1d04 02        	.uleb128 0x2
 8355 1d05 91        	.byte0x91
 8356 1d06 76        	.sleb128 -10
68K GAS   			page 196


 8357 1d07 2A        	.uleb128 0x2a
 8358 1d08 0000 0000 	.long.LASF332
 8359 1d0c 01        	.byte0x1
 8360 1d0d 02D8      	.word0x2d8
 8361 1d0f 0000 0074 	.long0x74
 8362 1d13 02        	.uleb128 0x2
 8363 1d14 91        	.byte0x91
 8364 1d15 74        	.sleb128 -12
 8365 1d16 00        	.byte0
 8366 1d17 00        	.byte0
 8367 1d18 2D        	.uleb128 0x2d
 8368 1d19 0000 0000 	.long.LASF334
 8369 1d1d 01        	.byte0x1
 8370 1d1e 01E0      	.word0x1e0
 8371 1d20 0000 0000 	.long.LFB64
 8372 1d24 0000 0632 	.long.LFE64-.LFB64
 8373 1d28 01        	.uleb128 0x1
 8374 1d29 9C        	.byte0x9c
 8375 1d2a 0000 1D5C 	.long0x1d5c
 8376 1d2e 29        	.uleb128 0x29
 8377 1d2f 0000 0000 	.long.LASF335
 8378 1d33 01        	.byte0x1
 8379 1d34 01E0      	.word0x1e0
 8380 1d36 0000 0B44 	.long0xb44
 8381 1d3a 02        	.uleb128 0x2
 8382 1d3b 91        	.byte0x91
 8383 1d3c 00        	.sleb128 0
 8384 1d3d 2A        	.uleb128 0x2a
 8385 1d3e 0000 0000 	.long.LASF336
 8386 1d42 01        	.byte0x1
 8387 1d43 01E2      	.word0x1e2
 8388 1d45 0000 00AA 	.long0xaa
 8389 1d49 02        	.uleb128 0x2
 8390 1d4a 91        	.byte0x91
 8391 1d4b 7B        	.sleb128 -5
 8392 1d4c 2A        	.uleb128 0x2a
 8393 1d4d 0000 0000 	.long.LASF210
 8394 1d51 01        	.byte0x1
 8395 1d52 01E3      	.word0x1e3
 8396 1d54 0000 0B55 	.long0xb55
 8397 1d58 02        	.uleb128 0x2
 8398 1d59 91        	.byte0x91
 8399 1d5a 74        	.sleb128 -12
 8400 1d5b 00        	.byte0
 8401 1d5c 2D        	.uleb128 0x2d
 8402 1d5d 0000 0000 	.long.LASF337
 8403 1d61 01        	.byte0x1
 8404 1d62 01B8      	.word0x1b8
 8405 1d64 0000 0000 	.long.LFB63
 8406 1d68 0000 0080 	.long.LFE63-.LFB63
 8407 1d6c 01        	.uleb128 0x1
 8408 1d6d 9C        	.byte0x9c
 8409 1d6e 0000 1D82 	.long0x1d82
 8410 1d72 29        	.uleb128 0x29
 8411 1d73 0000 0000 	.long.LASF335
 8412 1d77 01        	.byte0x1
 8413 1d78 01B8      	.word0x1b8
68K GAS   			page 197


 8414 1d7a 0000 0B44 	.long0xb44
 8415 1d7e 02        	.uleb128 0x2
 8416 1d7f 91        	.byte0x91
 8417 1d80 00        	.sleb128 0
 8418 1d81 00        	.byte0
 8419 1d82 28        	.uleb128 0x28
 8420 1d83 0000 0000 	.long.LASF338
 8421 1d87 01        	.byte0x1
 8422 1d88 016C      	.word0x16c
 8423 1d8a 0000 0050 	.long0x50
 8424 1d8e 0000 0000 	.long.LFB62
 8425 1d92 0000 01A4 	.long.LFE62-.LFB62
 8426 1d96 01        	.uleb128 0x1
 8427 1d97 9C        	.byte0x9c
 8428 1d98 0000 1DBB 	.long0x1dbb
 8429 1d9c 2A        	.uleb128 0x2a
 8430 1d9d 0000 0000 	.long.LASF311
 8431 1da1 01        	.byte0x1
 8432 1da2 016E      	.word0x16e
 8433 1da4 0000 0050 	.long0x50
 8434 1da8 02        	.uleb128 0x2
 8435 1da9 91        	.byte0x91
 8436 1daa 78        	.sleb128 -8
 8437 1dab 2A        	.uleb128 0x2a
 8438 1dac 0000 0000 	.long.LASF188
 8439 1db0 01        	.byte0x1
 8440 1db1 016F      	.word0x16f
 8441 1db3 0000 0086 	.long0x86
 8442 1db7 02        	.uleb128 0x2
 8443 1db8 91        	.byte0x91
 8444 1db9 74        	.sleb128 -12
 8445 1dba 00        	.byte0
 8446 1dbb 2D        	.uleb128 0x2d
 8447 1dbc 0000 0000 	.long.LASF339
 8448 1dc0 01        	.byte0x1
 8449 1dc1 0129      	.word0x129
 8450 1dc3 0000 0000 	.long.LFB61
 8451 1dc7 0000 00EA 	.long.LFE61-.LFB61
 8452 1dcb 01        	.uleb128 0x1
 8453 1dcc 9C        	.byte0x9c
 8454 1dcd 0000 1DF0 	.long0x1df0
 8455 1dd1 2A        	.uleb128 0x2a
 8456 1dd2 0000 0000 	.long.LASF311
 8457 1dd6 01        	.byte0x1
 8458 1dd7 012B      	.word0x12b
 8459 1dd9 0000 0050 	.long0x50
 8460 1ddd 02        	.uleb128 0x2
 8461 1dde 91        	.byte0x91
 8462 1ddf 78        	.sleb128 -8
 8463 1de0 2A        	.uleb128 0x2a
 8464 1de1 0000 0000 	.long.LASF335
 8465 1de5 01        	.byte0x1
 8466 1de6 012C      	.word0x12c
 8467 1de8 0000 0B44 	.long0xb44
 8468 1dec 02        	.uleb128 0x2
 8469 1ded 91        	.byte0x91
 8470 1dee 74        	.sleb128 -12
68K GAS   			page 198


 8471 1def 00        	.byte0
 8472 1df0 28        	.uleb128 0x28
 8473 1df1 0000 0000 	.long.LASF340
 8474 1df5 01        	.byte0x1
 8475 1df6 010D      	.word0x10d
 8476 1df8 0000 0050 	.long0x50
 8477 1dfc 0000 0000 	.long.LFB60
 8478 1e00 0000 005E 	.long.LFE60-.LFB60
 8479 1e04 01        	.uleb128 0x1
 8480 1e05 9C        	.byte0x9c
 8481 1e06 0000 1E29 	.long0x1e29
 8482 1e0a 29        	.uleb128 0x29
 8483 1e0b 0000 0000 	.long.LASF188
 8484 1e0f 01        	.byte0x1
 8485 1e10 010D      	.word0x10d
 8486 1e12 0000 0086 	.long0x86
 8487 1e16 02        	.uleb128 0x2
 8488 1e17 91        	.byte0x91
 8489 1e18 00        	.sleb128 0
 8490 1e19 2A        	.uleb128 0x2a
 8491 1e1a 0000 0000 	.long.LASF311
 8492 1e1e 01        	.byte0x1
 8493 1e1f 010F      	.word0x10f
 8494 1e21 0000 0050 	.long0x50
 8495 1e25 02        	.uleb128 0x2
 8496 1e26 91        	.byte0x91
 8497 1e27 78        	.sleb128 -8
 8498 1e28 00        	.byte0
 8499 1e29 30        	.uleb128 0x30
 8500 1e2a 0000 0000 	.long.LASF341
 8501 1e2e 01        	.byte0x1
 8502 1e2f 9F        	.byte0x9f
 8503 1e30 0000 0050 	.long0x50
 8504 1e34 0000 0000 	.long.LFB59
 8505 1e38 0000 02B0 	.long.LFE59-.LFB59
 8506 1e3c 01        	.uleb128 0x1
 8507 1e3d 9C        	.byte0x9c
 8508 1e3e 0000 1E7B 	.long0x1e7b
 8509 1e42 31        	.uleb128 0x31
 8510 1e43 0000 0000 	.long.LASF311
 8511 1e47 01        	.byte0x1
 8512 1e48 A4        	.byte0xa4
 8513 1e49 0000 0050 	.long0x50
 8514 1e4d 02        	.uleb128 0x2
 8515 1e4e 91        	.byte0x91
 8516 1e4f 74        	.sleb128 -12
 8517 1e50 31        	.uleb128 0x31
 8518 1e51 0000 0000 	.long.LASF342
 8519 1e55 01        	.byte0x1
 8520 1e56 A5        	.byte0xa5
 8521 1e57 0000 0086 	.long0x86
 8522 1e5b 02        	.uleb128 0x2
 8523 1e5c 91        	.byte0x91
 8524 1e5d 70        	.sleb128 -16
 8525 1e5e 31        	.uleb128 0x31
 8526 1e5f 0000 0000 	.long.LASF343
 8527 1e63 01        	.byte0x1
68K GAS   			page 199


 8528 1e64 A6        	.byte0xa6
 8529 1e65 0000 009F 	.long0x9f
 8530 1e69 02        	.uleb128 0x2
 8531 1e6a 91        	.byte0x91
 8532 1e6b 6C        	.sleb128 -20
 8533 1e6c 31        	.uleb128 0x31
 8534 1e6d 0000 0000 	.long.LASF344
 8535 1e71 01        	.byte0x1
 8536 1e72 A7        	.byte0xa7
 8537 1e73 0000 1E7B 	.long0x1e7b
 8538 1e77 02        	.uleb128 0x2
 8539 1e78 91        	.byte0x91
 8540 1e79 78        	.sleb128 -8
 8541 1e7a 00        	.byte0
 8542 1e7b 0D        	.uleb128 0xd
 8543 1e7c 04        	.byte0x4
 8544 1e7d 0000 1542 	.long0x1542
 8545 1e81 00        	.byte0
 8546               	.section.debug_abbrev,"",@progbits
 8547               	.Ldebug_abbrev0:
 8548 0000 01        	.uleb128 0x1
 8549 0001 11        	.uleb128 0x11
 8550 0002 01        	.byte0x1
 8551 0003 25        	.uleb128 0x25
 8552 0004 0E        	.uleb128 0xe
 8553 0005 13        	.uleb128 0x13
 8554 0006 0B        	.uleb128 0xb
 8555 0007 03        	.uleb128 0x3
 8556 0008 0E        	.uleb128 0xe
 8557 0009 1B        	.uleb128 0x1b
 8558 000a 0E        	.uleb128 0xe
 8559 000b 11        	.uleb128 0x11
 8560 000c 01        	.uleb128 0x1
 8561 000d 12        	.uleb128 0x12
 8562 000e 06        	.uleb128 0x6
 8563 000f 10        	.uleb128 0x10
 8564 0010 17        	.uleb128 0x17
 8565 0011 00        	.byte0
 8566 0012 00        	.byte0
 8567 0013 02        	.uleb128 0x2
 8568 0014 16        	.uleb128 0x16
 8569 0015 00        	.byte0
 8570 0016 03        	.uleb128 0x3
 8571 0017 0E        	.uleb128 0xe
 8572 0018 3A        	.uleb128 0x3a
 8573 0019 0B        	.uleb128 0xb
 8574 001a 3B        	.uleb128 0x3b
 8575 001b 0B        	.uleb128 0xb
 8576 001c 49        	.uleb128 0x49
 8577 001d 13        	.uleb128 0x13
 8578 001e 00        	.byte0
 8579 001f 00        	.byte0
 8580 0020 03        	.uleb128 0x3
 8581 0021 24        	.uleb128 0x24
 8582 0022 00        	.byte0
 8583 0023 0B        	.uleb128 0xb
 8584 0024 0B        	.uleb128 0xb
68K GAS   			page 200


 8585 0025 3E        	.uleb128 0x3e
 8586 0026 0B        	.uleb128 0xb
 8587 0027 03        	.uleb128 0x3
 8588 0028 0E        	.uleb128 0xe
 8589 0029 00        	.byte0
 8590 002a 00        	.byte0
 8591 002b 04        	.uleb128 0x4
 8592 002c 16        	.uleb128 0x16
 8593 002d 00        	.byte0
 8594 002e 03        	.uleb128 0x3
 8595 002f 0E        	.uleb128 0xe
 8596 0030 3A        	.uleb128 0x3a
 8597 0031 0B        	.uleb128 0xb
 8598 0032 3B        	.uleb128 0x3b
 8599 0033 05        	.uleb128 0x5
 8600 0034 49        	.uleb128 0x49
 8601 0035 13        	.uleb128 0x13
 8602 0036 00        	.byte0
 8603 0037 00        	.byte0
 8604 0038 05        	.uleb128 0x5
 8605 0039 26        	.uleb128 0x26
 8606 003a 00        	.byte0
 8607 003b 49        	.uleb128 0x49
 8608 003c 13        	.uleb128 0x13
 8609 003d 00        	.byte0
 8610 003e 00        	.byte0
 8611 003f 06        	.uleb128 0x6
 8612 0040 01        	.uleb128 0x1
 8613 0041 01        	.byte0x1
 8614 0042 49        	.uleb128 0x49
 8615 0043 13        	.uleb128 0x13
 8616 0044 01        	.uleb128 0x1
 8617 0045 13        	.uleb128 0x13
 8618 0046 00        	.byte0
 8619 0047 00        	.byte0
 8620 0048 07        	.uleb128 0x7
 8621 0049 21        	.uleb128 0x21
 8622 004a 00        	.byte0
 8623 004b 49        	.uleb128 0x49
 8624 004c 13        	.uleb128 0x13
 8625 004d 2F        	.uleb128 0x2f
 8626 004e 0B        	.uleb128 0xb
 8627 004f 00        	.byte0
 8628 0050 00        	.byte0
 8629 0051 08        	.uleb128 0x8
 8630 0052 0F        	.uleb128 0xf
 8631 0053 00        	.byte0
 8632 0054 0B        	.uleb128 0xb
 8633 0055 0B        	.uleb128 0xb
 8634 0056 00        	.byte0
 8635 0057 00        	.byte0
 8636 0058 09        	.uleb128 0x9
 8637 0059 24        	.uleb128 0x24
 8638 005a 00        	.byte0
 8639 005b 0B        	.uleb128 0xb
 8640 005c 0B        	.uleb128 0xb
 8641 005d 3E        	.uleb128 0x3e
68K GAS   			page 201


 8642 005e 0B        	.uleb128 0xb
 8643 005f 03        	.uleb128 0x3
 8644 0060 08        	.uleb128 0x8
 8645 0061 00        	.byte0
 8646 0062 00        	.byte0
 8647 0063 0A        	.uleb128 0xa
 8648 0064 13        	.uleb128 0x13
 8649 0065 01        	.byte0x1
 8650 0066 03        	.uleb128 0x3
 8651 0067 0E        	.uleb128 0xe
 8652 0068 0B        	.uleb128 0xb
 8653 0069 0B        	.uleb128 0xb
 8654 006a 3A        	.uleb128 0x3a
 8655 006b 0B        	.uleb128 0xb
 8656 006c 3B        	.uleb128 0x3b
 8657 006d 0B        	.uleb128 0xb
 8658 006e 01        	.uleb128 0x1
 8659 006f 13        	.uleb128 0x13
 8660 0070 00        	.byte0
 8661 0071 00        	.byte0
 8662 0072 0B        	.uleb128 0xb
 8663 0073 0D        	.uleb128 0xd
 8664 0074 00        	.byte0
 8665 0075 03        	.uleb128 0x3
 8666 0076 0E        	.uleb128 0xe
 8667 0077 3A        	.uleb128 0x3a
 8668 0078 0B        	.uleb128 0xb
 8669 0079 3B        	.uleb128 0x3b
 8670 007a 0B        	.uleb128 0xb
 8671 007b 49        	.uleb128 0x49
 8672 007c 13        	.uleb128 0x13
 8673 007d 38        	.uleb128 0x38
 8674 007e 0B        	.uleb128 0xb
 8675 007f 00        	.byte0
 8676 0080 00        	.byte0
 8677 0081 0C        	.uleb128 0xc
 8678 0082 13        	.uleb128 0x13
 8679 0083 00        	.byte0
 8680 0084 03        	.uleb128 0x3
 8681 0085 0E        	.uleb128 0xe
 8682 0086 3C        	.uleb128 0x3c
 8683 0087 19        	.uleb128 0x19
 8684 0088 00        	.byte0
 8685 0089 00        	.byte0
 8686 008a 0D        	.uleb128 0xd
 8687 008b 0F        	.uleb128 0xf
 8688 008c 00        	.byte0
 8689 008d 0B        	.uleb128 0xb
 8690 008e 0B        	.uleb128 0xb
 8691 008f 49        	.uleb128 0x49
 8692 0090 13        	.uleb128 0x13
 8693 0091 00        	.byte0
 8694 0092 00        	.byte0
 8695 0093 0E        	.uleb128 0xe
 8696 0094 17        	.uleb128 0x17
 8697 0095 01        	.byte0x1
 8698 0096 0B        	.uleb128 0xb
68K GAS   			page 202


 8699 0097 0B        	.uleb128 0xb
 8700 0098 3A        	.uleb128 0x3a
 8701 0099 0B        	.uleb128 0xb
 8702 009a 3B        	.uleb128 0x3b
 8703 009b 0B        	.uleb128 0xb
 8704 009c 01        	.uleb128 0x1
 8705 009d 13        	.uleb128 0x13
 8706 009e 00        	.byte0
 8707 009f 00        	.byte0
 8708 00a0 0F        	.uleb128 0xf
 8709 00a1 0D        	.uleb128 0xd
 8710 00a2 00        	.byte0
 8711 00a3 03        	.uleb128 0x3
 8712 00a4 0E        	.uleb128 0xe
 8713 00a5 3A        	.uleb128 0x3a
 8714 00a6 0B        	.uleb128 0xb
 8715 00a7 3B        	.uleb128 0x3b
 8716 00a8 0B        	.uleb128 0xb
 8717 00a9 49        	.uleb128 0x49
 8718 00aa 13        	.uleb128 0x13
 8719 00ab 00        	.byte0
 8720 00ac 00        	.byte0
 8721 00ad 10        	.uleb128 0x10
 8722 00ae 13        	.uleb128 0x13
 8723 00af 01        	.byte0x1
 8724 00b0 0B        	.uleb128 0xb
 8725 00b1 0B        	.uleb128 0xb
 8726 00b2 3A        	.uleb128 0x3a
 8727 00b3 0B        	.uleb128 0xb
 8728 00b4 3B        	.uleb128 0x3b
 8729 00b5 0B        	.uleb128 0xb
 8730 00b6 01        	.uleb128 0x1
 8731 00b7 13        	.uleb128 0x13
 8732 00b8 00        	.byte0
 8733 00b9 00        	.byte0
 8734 00ba 11        	.uleb128 0x11
 8735 00bb 0D        	.uleb128 0xd
 8736 00bc 00        	.byte0
 8737 00bd 03        	.uleb128 0x3
 8738 00be 08        	.uleb128 0x8
 8739 00bf 3A        	.uleb128 0x3a
 8740 00c0 0B        	.uleb128 0xb
 8741 00c1 3B        	.uleb128 0x3b
 8742 00c2 0B        	.uleb128 0xb
 8743 00c3 49        	.uleb128 0x49
 8744 00c4 13        	.uleb128 0x13
 8745 00c5 38        	.uleb128 0x38
 8746 00c6 0B        	.uleb128 0xb
 8747 00c7 00        	.byte0
 8748 00c8 00        	.byte0
 8749 00c9 12        	.uleb128 0x12
 8750 00ca 13        	.uleb128 0x13
 8751 00cb 01        	.byte0x1
 8752 00cc 03        	.uleb128 0x3
 8753 00cd 0E        	.uleb128 0xe
 8754 00ce 0B        	.uleb128 0xb
 8755 00cf 05        	.uleb128 0x5
68K GAS   			page 203


 8756 00d0 3A        	.uleb128 0x3a
 8757 00d1 0B        	.uleb128 0xb
 8758 00d2 3B        	.uleb128 0x3b
 8759 00d3 0B        	.uleb128 0xb
 8760 00d4 01        	.uleb128 0x1
 8761 00d5 13        	.uleb128 0x13
 8762 00d6 00        	.byte0
 8763 00d7 00        	.byte0
 8764 00d8 13        	.uleb128 0x13
 8765 00d9 0D        	.uleb128 0xd
 8766 00da 00        	.byte0
 8767 00db 03        	.uleb128 0x3
 8768 00dc 0E        	.uleb128 0xe
 8769 00dd 3A        	.uleb128 0x3a
 8770 00de 0B        	.uleb128 0xb
 8771 00df 3B        	.uleb128 0x3b
 8772 00e0 0B        	.uleb128 0xb
 8773 00e1 49        	.uleb128 0x49
 8774 00e2 13        	.uleb128 0x13
 8775 00e3 38        	.uleb128 0x38
 8776 00e4 05        	.uleb128 0x5
 8777 00e5 00        	.byte0
 8778 00e6 00        	.byte0
 8779 00e7 14        	.uleb128 0x14
 8780 00e8 15        	.uleb128 0x15
 8781 00e9 00        	.byte0
 8782 00ea 27        	.uleb128 0x27
 8783 00eb 19        	.uleb128 0x19
 8784 00ec 00        	.byte0
 8785 00ed 00        	.byte0
 8786 00ee 15        	.uleb128 0x15
 8787 00ef 15        	.uleb128 0x15
 8788 00f0 01        	.byte0x1
 8789 00f1 27        	.uleb128 0x27
 8790 00f2 19        	.uleb128 0x19
 8791 00f3 49        	.uleb128 0x49
 8792 00f4 13        	.uleb128 0x13
 8793 00f5 01        	.uleb128 0x1
 8794 00f6 13        	.uleb128 0x13
 8795 00f7 00        	.byte0
 8796 00f8 00        	.byte0
 8797 00f9 16        	.uleb128 0x16
 8798 00fa 05        	.uleb128 0x5
 8799 00fb 00        	.byte0
 8800 00fc 49        	.uleb128 0x49
 8801 00fd 13        	.uleb128 0x13
 8802 00fe 00        	.byte0
 8803 00ff 00        	.byte0
 8804 0100 17        	.uleb128 0x17
 8805 0101 13        	.uleb128 0x13
 8806 0102 01        	.byte0x1
 8807 0103 03        	.uleb128 0x3
 8808 0104 0E        	.uleb128 0xe
 8809 0105 0B        	.uleb128 0xb
 8810 0106 05        	.uleb128 0x5
 8811 0107 3A        	.uleb128 0x3a
 8812 0108 0B        	.uleb128 0xb
68K GAS   			page 204


 8813 0109 3B        	.uleb128 0x3b
 8814 010a 05        	.uleb128 0x5
 8815 010b 01        	.uleb128 0x1
 8816 010c 13        	.uleb128 0x13
 8817 010d 00        	.byte0
 8818 010e 00        	.byte0
 8819 010f 18        	.uleb128 0x18
 8820 0110 0D        	.uleb128 0xd
 8821 0111 00        	.byte0
 8822 0112 03        	.uleb128 0x3
 8823 0113 0E        	.uleb128 0xe
 8824 0114 3A        	.uleb128 0x3a
 8825 0115 0B        	.uleb128 0xb
 8826 0116 3B        	.uleb128 0x3b
 8827 0117 05        	.uleb128 0x5
 8828 0118 49        	.uleb128 0x49
 8829 0119 13        	.uleb128 0x13
 8830 011a 38        	.uleb128 0x38
 8831 011b 0B        	.uleb128 0xb
 8832 011c 00        	.byte0
 8833 011d 00        	.byte0
 8834 011e 19        	.uleb128 0x19
 8835 011f 0D        	.uleb128 0xd
 8836 0120 00        	.byte0
 8837 0121 03        	.uleb128 0x3
 8838 0122 0E        	.uleb128 0xe
 8839 0123 3A        	.uleb128 0x3a
 8840 0124 0B        	.uleb128 0xb
 8841 0125 3B        	.uleb128 0x3b
 8842 0126 05        	.uleb128 0x5
 8843 0127 49        	.uleb128 0x49
 8844 0128 13        	.uleb128 0x13
 8845 0129 38        	.uleb128 0x38
 8846 012a 05        	.uleb128 0x5
 8847 012b 00        	.byte0
 8848 012c 00        	.byte0
 8849 012d 1A        	.uleb128 0x1a
 8850 012e 13        	.uleb128 0x13
 8851 012f 01        	.byte0x1
 8852 0130 03        	.uleb128 0x3
 8853 0131 0E        	.uleb128 0xe
 8854 0132 0B        	.uleb128 0xb
 8855 0133 0B        	.uleb128 0xb
 8856 0134 3A        	.uleb128 0x3a
 8857 0135 0B        	.uleb128 0xb
 8858 0136 3B        	.uleb128 0x3b
 8859 0137 05        	.uleb128 0x5
 8860 0138 01        	.uleb128 0x1
 8861 0139 13        	.uleb128 0x13
 8862 013a 00        	.byte0
 8863 013b 00        	.byte0
 8864 013c 1B        	.uleb128 0x1b
 8865 013d 13        	.uleb128 0x13
 8866 013e 01        	.byte0x1
 8867 013f 0B        	.uleb128 0xb
 8868 0140 0B        	.uleb128 0xb
 8869 0141 3A        	.uleb128 0x3a
68K GAS   			page 205


 8870 0142 0B        	.uleb128 0xb
 8871 0143 3B        	.uleb128 0x3b
 8872 0144 05        	.uleb128 0x5
 8873 0145 01        	.uleb128 0x1
 8874 0146 13        	.uleb128 0x13
 8875 0147 00        	.byte0
 8876 0148 00        	.byte0
 8877 0149 1C        	.uleb128 0x1c
 8878 014a 17        	.uleb128 0x17
 8879 014b 01        	.byte0x1
 8880 014c 0B        	.uleb128 0xb
 8881 014d 0B        	.uleb128 0xb
 8882 014e 3A        	.uleb128 0x3a
 8883 014f 0B        	.uleb128 0xb
 8884 0150 3B        	.uleb128 0x3b
 8885 0151 05        	.uleb128 0x5
 8886 0152 01        	.uleb128 0x1
 8887 0153 13        	.uleb128 0x13
 8888 0154 00        	.byte0
 8889 0155 00        	.byte0
 8890 0156 1D        	.uleb128 0x1d
 8891 0157 0D        	.uleb128 0xd
 8892 0158 00        	.byte0
 8893 0159 03        	.uleb128 0x3
 8894 015a 0E        	.uleb128 0xe
 8895 015b 3A        	.uleb128 0x3a
 8896 015c 0B        	.uleb128 0xb
 8897 015d 3B        	.uleb128 0x3b
 8898 015e 05        	.uleb128 0x5
 8899 015f 49        	.uleb128 0x49
 8900 0160 13        	.uleb128 0x13
 8901 0161 00        	.byte0
 8902 0162 00        	.byte0
 8903 0163 1E        	.uleb128 0x1e
 8904 0164 15        	.uleb128 0x15
 8905 0165 01        	.byte0x1
 8906 0166 27        	.uleb128 0x27
 8907 0167 19        	.uleb128 0x19
 8908 0168 01        	.uleb128 0x1
 8909 0169 13        	.uleb128 0x13
 8910 016a 00        	.byte0
 8911 016b 00        	.byte0
 8912 016c 1F        	.uleb128 0x1f
 8913 016d 34        	.uleb128 0x34
 8914 016e 00        	.byte0
 8915 016f 03        	.uleb128 0x3
 8916 0170 0E        	.uleb128 0xe
 8917 0171 3A        	.uleb128 0x3a
 8918 0172 0B        	.uleb128 0xb
 8919 0173 3B        	.uleb128 0x3b
 8920 0174 05        	.uleb128 0x5
 8921 0175 49        	.uleb128 0x49
 8922 0176 13        	.uleb128 0x13
 8923 0177 3F        	.uleb128 0x3f
 8924 0178 19        	.uleb128 0x19
 8925 0179 3C        	.uleb128 0x3c
 8926 017a 19        	.uleb128 0x19
68K GAS   			page 206


 8927 017b 00        	.byte0
 8928 017c 00        	.byte0
 8929 017d 20        	.uleb128 0x20
 8930 017e 34        	.uleb128 0x34
 8931 017f 00        	.byte0
 8932 0180 03        	.uleb128 0x3
 8933 0181 0E        	.uleb128 0xe
 8934 0182 3A        	.uleb128 0x3a
 8935 0183 0B        	.uleb128 0xb
 8936 0184 3B        	.uleb128 0x3b
 8937 0185 0B        	.uleb128 0xb
 8938 0186 49        	.uleb128 0x49
 8939 0187 13        	.uleb128 0x13
 8940 0188 3F        	.uleb128 0x3f
 8941 0189 19        	.uleb128 0x19
 8942 018a 3C        	.uleb128 0x3c
 8943 018b 19        	.uleb128 0x19
 8944 018c 00        	.byte0
 8945 018d 00        	.byte0
 8946 018e 21        	.uleb128 0x21
 8947 018f 0D        	.uleb128 0xd
 8948 0190 00        	.byte0
 8949 0191 03        	.uleb128 0x3
 8950 0192 08        	.uleb128 0x8
 8951 0193 3A        	.uleb128 0x3a
 8952 0194 0B        	.uleb128 0xb
 8953 0195 3B        	.uleb128 0x3b
 8954 0196 0B        	.uleb128 0xb
 8955 0197 49        	.uleb128 0x49
 8956 0198 13        	.uleb128 0x13
 8957 0199 00        	.byte0
 8958 019a 00        	.byte0
 8959 019b 22        	.uleb128 0x22
 8960 019c 13        	.uleb128 0x13
 8961 019d 01        	.byte0x1
 8962 019e 0B        	.uleb128 0xb
 8963 019f 05        	.uleb128 0x5
 8964 01a0 3A        	.uleb128 0x3a
 8965 01a1 0B        	.uleb128 0xb
 8966 01a2 3B        	.uleb128 0x3b
 8967 01a3 05        	.uleb128 0x5
 8968 01a4 01        	.uleb128 0x1
 8969 01a5 13        	.uleb128 0x13
 8970 01a6 00        	.byte0
 8971 01a7 00        	.byte0
 8972 01a8 23        	.uleb128 0x23
 8973 01a9 13        	.uleb128 0x13
 8974 01aa 01        	.byte0x1
 8975 01ab 0B        	.uleb128 0xb
 8976 01ac 05        	.uleb128 0x5
 8977 01ad 3A        	.uleb128 0x3a
 8978 01ae 0B        	.uleb128 0xb
 8979 01af 3B        	.uleb128 0x3b
 8980 01b0 0B        	.uleb128 0xb
 8981 01b1 01        	.uleb128 0x1
 8982 01b2 13        	.uleb128 0x13
 8983 01b3 00        	.byte0
68K GAS   			page 207


 8984 01b4 00        	.byte0
 8985 01b5 24        	.uleb128 0x24
 8986 01b6 13        	.uleb128 0x13
 8987 01b7 01        	.byte0x1
 8988 01b8 0B        	.uleb128 0xb
 8989 01b9 06        	.uleb128 0x6
 8990 01ba 3A        	.uleb128 0x3a
 8991 01bb 0B        	.uleb128 0xb
 8992 01bc 3B        	.uleb128 0x3b
 8993 01bd 0B        	.uleb128 0xb
 8994 01be 01        	.uleb128 0x1
 8995 01bf 13        	.uleb128 0x13
 8996 01c0 00        	.byte0
 8997 01c1 00        	.byte0
 8998 01c2 25        	.uleb128 0x25
 8999 01c3 21        	.uleb128 0x21
 9000 01c4 00        	.byte0
 9001 01c5 49        	.uleb128 0x49
 9002 01c6 13        	.uleb128 0x13
 9003 01c7 2F        	.uleb128 0x2f
 9004 01c8 05        	.uleb128 0x5
 9005 01c9 00        	.byte0
 9006 01ca 00        	.byte0
 9007 01cb 26        	.uleb128 0x26
 9008 01cc 0D        	.uleb128 0xd
 9009 01cd 00        	.byte0
 9010 01ce 03        	.uleb128 0x3
 9011 01cf 0E        	.uleb128 0xe
 9012 01d0 3A        	.uleb128 0x3a
 9013 01d1 0B        	.uleb128 0xb
 9014 01d2 3B        	.uleb128 0x3b
 9015 01d3 0B        	.uleb128 0xb
 9016 01d4 49        	.uleb128 0x49
 9017 01d5 13        	.uleb128 0x13
 9018 01d6 38        	.uleb128 0x38
 9019 01d7 06        	.uleb128 0x6
 9020 01d8 00        	.byte0
 9021 01d9 00        	.byte0
 9022 01da 27        	.uleb128 0x27
 9023 01db 34        	.uleb128 0x34
 9024 01dc 00        	.byte0
 9025 01dd 47        	.uleb128 0x47
 9026 01de 13        	.uleb128 0x13
 9027 01df 3A        	.uleb128 0x3a
 9028 01e0 0B        	.uleb128 0xb
 9029 01e1 3B        	.uleb128 0x3b
 9030 01e2 0B        	.uleb128 0xb
 9031 01e3 02        	.uleb128 0x2
 9032 01e4 18        	.uleb128 0x18
 9033 01e5 00        	.byte0
 9034 01e6 00        	.byte0
 9035 01e7 28        	.uleb128 0x28
 9036 01e8 2E        	.uleb128 0x2e
 9037 01e9 01        	.byte0x1
 9038 01ea 3F        	.uleb128 0x3f
 9039 01eb 19        	.uleb128 0x19
 9040 01ec 03        	.uleb128 0x3
68K GAS   			page 208


 9041 01ed 0E        	.uleb128 0xe
 9042 01ee 3A        	.uleb128 0x3a
 9043 01ef 0B        	.uleb128 0xb
 9044 01f0 3B        	.uleb128 0x3b
 9045 01f1 05        	.uleb128 0x5
 9046 01f2 27        	.uleb128 0x27
 9047 01f3 19        	.uleb128 0x19
 9048 01f4 49        	.uleb128 0x49
 9049 01f5 13        	.uleb128 0x13
 9050 01f6 11        	.uleb128 0x11
 9051 01f7 01        	.uleb128 0x1
 9052 01f8 12        	.uleb128 0x12
 9053 01f9 06        	.uleb128 0x6
 9054 01fa 40        	.uleb128 0x40
 9055 01fb 18        	.uleb128 0x18
 9056 01fc 9642      	.uleb128 0x2116
 9057 01fe 19        	.uleb128 0x19
 9058 01ff 01        	.uleb128 0x1
 9059 0200 13        	.uleb128 0x13
 9060 0201 00        	.byte0
 9061 0202 00        	.byte0
 9062 0203 29        	.uleb128 0x29
 9063 0204 05        	.uleb128 0x5
 9064 0205 00        	.byte0
 9065 0206 03        	.uleb128 0x3
 9066 0207 0E        	.uleb128 0xe
 9067 0208 3A        	.uleb128 0x3a
 9068 0209 0B        	.uleb128 0xb
 9069 020a 3B        	.uleb128 0x3b
 9070 020b 05        	.uleb128 0x5
 9071 020c 49        	.uleb128 0x49
 9072 020d 13        	.uleb128 0x13
 9073 020e 02        	.uleb128 0x2
 9074 020f 18        	.uleb128 0x18
 9075 0210 00        	.byte0
 9076 0211 00        	.byte0
 9077 0212 2A        	.uleb128 0x2a
 9078 0213 34        	.uleb128 0x34
 9079 0214 00        	.byte0
 9080 0215 03        	.uleb128 0x3
 9081 0216 0E        	.uleb128 0xe
 9082 0217 3A        	.uleb128 0x3a
 9083 0218 0B        	.uleb128 0xb
 9084 0219 3B        	.uleb128 0x3b
 9085 021a 05        	.uleb128 0x5
 9086 021b 49        	.uleb128 0x49
 9087 021c 13        	.uleb128 0x13
 9088 021d 02        	.uleb128 0x2
 9089 021e 18        	.uleb128 0x18
 9090 021f 00        	.byte0
 9091 0220 00        	.byte0
 9092 0221 2B        	.uleb128 0x2b
 9093 0222 34        	.uleb128 0x34
 9094 0223 00        	.byte0
 9095 0224 03        	.uleb128 0x3
 9096 0225 08        	.uleb128 0x8
 9097 0226 3A        	.uleb128 0x3a
68K GAS   			page 209


 9098 0227 0B        	.uleb128 0xb
 9099 0228 3B        	.uleb128 0x3b
 9100 0229 05        	.uleb128 0x5
 9101 022a 49        	.uleb128 0x49
 9102 022b 13        	.uleb128 0x13
 9103 022c 02        	.uleb128 0x2
 9104 022d 18        	.uleb128 0x18
 9105 022e 00        	.byte0
 9106 022f 00        	.byte0
 9107 0230 2C        	.uleb128 0x2c
 9108 0231 2E        	.uleb128 0x2e
 9109 0232 00        	.byte0
 9110 0233 3F        	.uleb128 0x3f
 9111 0234 19        	.uleb128 0x19
 9112 0235 03        	.uleb128 0x3
 9113 0236 0E        	.uleb128 0xe
 9114 0237 3A        	.uleb128 0x3a
 9115 0238 0B        	.uleb128 0xb
 9116 0239 3B        	.uleb128 0x3b
 9117 023a 05        	.uleb128 0x5
 9118 023b 27        	.uleb128 0x27
 9119 023c 19        	.uleb128 0x19
 9120 023d 11        	.uleb128 0x11
 9121 023e 01        	.uleb128 0x1
 9122 023f 12        	.uleb128 0x12
 9123 0240 06        	.uleb128 0x6
 9124 0241 40        	.uleb128 0x40
 9125 0242 18        	.uleb128 0x18
 9126 0243 9642      	.uleb128 0x2116
 9127 0245 19        	.uleb128 0x19
 9128 0246 00        	.byte0
 9129 0247 00        	.byte0
 9130 0248 2D        	.uleb128 0x2d
 9131 0249 2E        	.uleb128 0x2e
 9132 024a 01        	.byte0x1
 9133 024b 3F        	.uleb128 0x3f
 9134 024c 19        	.uleb128 0x19
 9135 024d 03        	.uleb128 0x3
 9136 024e 0E        	.uleb128 0xe
 9137 024f 3A        	.uleb128 0x3a
 9138 0250 0B        	.uleb128 0xb
 9139 0251 3B        	.uleb128 0x3b
 9140 0252 05        	.uleb128 0x5
 9141 0253 27        	.uleb128 0x27
 9142 0254 19        	.uleb128 0x19
 9143 0255 11        	.uleb128 0x11
 9144 0256 01        	.uleb128 0x1
 9145 0257 12        	.uleb128 0x12
 9146 0258 06        	.uleb128 0x6
 9147 0259 40        	.uleb128 0x40
 9148 025a 18        	.uleb128 0x18
 9149 025b 9642      	.uleb128 0x2116
 9150 025d 19        	.uleb128 0x19
 9151 025e 01        	.uleb128 0x1
 9152 025f 13        	.uleb128 0x13
 9153 0260 00        	.byte0
 9154 0261 00        	.byte0
68K GAS   			page 210


 9155 0262 2E        	.uleb128 0x2e
 9156 0263 05        	.uleb128 0x5
 9157 0264 00        	.byte0
 9158 0265 03        	.uleb128 0x3
 9159 0266 08        	.uleb128 0x8
 9160 0267 3A        	.uleb128 0x3a
 9161 0268 0B        	.uleb128 0xb
 9162 0269 3B        	.uleb128 0x3b
 9163 026a 05        	.uleb128 0x5
 9164 026b 49        	.uleb128 0x49
 9165 026c 13        	.uleb128 0x13
 9166 026d 02        	.uleb128 0x2
 9167 026e 18        	.uleb128 0x18
 9168 026f 00        	.byte0
 9169 0270 00        	.byte0
 9170 0271 2F        	.uleb128 0x2f
 9171 0272 0B        	.uleb128 0xb
 9172 0273 01        	.byte0x1
 9173 0274 11        	.uleb128 0x11
 9174 0275 01        	.uleb128 0x1
 9175 0276 12        	.uleb128 0x12
 9176 0277 06        	.uleb128 0x6
 9177 0278 00        	.byte0
 9178 0279 00        	.byte0
 9179 027a 30        	.uleb128 0x30
 9180 027b 2E        	.uleb128 0x2e
 9181 027c 01        	.byte0x1
 9182 027d 3F        	.uleb128 0x3f
 9183 027e 19        	.uleb128 0x19
 9184 027f 03        	.uleb128 0x3
 9185 0280 0E        	.uleb128 0xe
 9186 0281 3A        	.uleb128 0x3a
 9187 0282 0B        	.uleb128 0xb
 9188 0283 3B        	.uleb128 0x3b
 9189 0284 0B        	.uleb128 0xb
 9190 0285 27        	.uleb128 0x27
 9191 0286 19        	.uleb128 0x19
 9192 0287 49        	.uleb128 0x49
 9193 0288 13        	.uleb128 0x13
 9194 0289 11        	.uleb128 0x11
 9195 028a 01        	.uleb128 0x1
 9196 028b 12        	.uleb128 0x12
 9197 028c 06        	.uleb128 0x6
 9198 028d 40        	.uleb128 0x40
 9199 028e 18        	.uleb128 0x18
 9200 028f 9642      	.uleb128 0x2116
 9201 0291 19        	.uleb128 0x19
 9202 0292 01        	.uleb128 0x1
 9203 0293 13        	.uleb128 0x13
 9204 0294 00        	.byte0
 9205 0295 00        	.byte0
 9206 0296 31        	.uleb128 0x31
 9207 0297 34        	.uleb128 0x34
 9208 0298 00        	.byte0
 9209 0299 03        	.uleb128 0x3
 9210 029a 0E        	.uleb128 0xe
 9211 029b 3A        	.uleb128 0x3a
68K GAS   			page 211


 9212 029c 0B        	.uleb128 0xb
 9213 029d 3B        	.uleb128 0x3b
 9214 029e 0B        	.uleb128 0xb
 9215 029f 49        	.uleb128 0x49
 9216 02a0 13        	.uleb128 0x13
 9217 02a1 02        	.uleb128 0x2
 9218 02a2 18        	.uleb128 0x18
 9219 02a3 00        	.byte0
 9220 02a4 00        	.byte0
 9221 02a5 00        	.byte0
 9222               	.section.debug_aranges,"",@progbits
 9223 0000 0000 001C 	.long0x1c
 9224 0004 0002      	.word0x2
 9225 0006 0000 0000 	.long.Ldebug_info0
 9226 000a 04        	.byte0x4
 9227 000b 00        	.byte0
 9228 000c 0000      	.word0
 9229 000e 0000      	.word0
 9230 0010 0000 0000 	.long.Ltext0
 9231 0014 0000 24C0 	.long.Letext0-.Ltext0
 9232 0018 0000 0000 	.long0
 9233 001c 0000 0000 	.long0
 9234               	.section.debug_line,"",@progbits
 9235               	.Ldebug_line0:
 9236 0000 0000 071B 	.section.debug_str,"MS",@progbits,1
 9236      0002 0000 
 9236      0339 0201 
 9236      FB0E 0D00 
 9236      0101 0101 
 9237               	.LASF38:
 9238 0000 5F73 7369 	.string"_ssize_t"
 9238      7A65 5F74 
 9238      00
 9239               	.LASF304:
 9240 0009 4669 6C65 	.string"FileHdr"
 9240      4864 7200 
 9241               	.LASF140:
 9242 0011 5F5F 6C6F 	.string"__locale_t"
 9242      6361 6C65 
 9242      5F74 00
 9243               	.LASF43:
 9244 001c 5F5F 7661 	.string"__value"
 9244      6C75 6500 
 9245               	.LASF141:
 9246 0024 5F5F 7366 	.string"__sf"
 9246      00
 9247               	.LASF226:
 9248 0029 4346 455F 	.string"CFE_FS_Header_t"
 9248      4653 5F48 
 9248      6561 6465 
 9248      725F 7400 
 9249               	.LASF162:
 9250 0039 4343 5344 	.string"CCSDS_PriHdr_t"
 9250      535F 5072 
 9250      6948 6472 
 9250      5F74 00
 9251               	.LASF78:
68K GAS   			page 212


 9252 0048 5F72 6561 	.string"_read"
 9252      6400 
 9253               	.LASF308:
 9254 004e 4346 455F 	.string"CFE_EVS_WriteAppDataCmd"
 9254      4556 535F 
 9254      5772 6974 
 9254      6541 7070 
 9254      4461 7461 
 9255               	.LASF79:
 9256 0066 5F77 7269 	.string"_write"
 9256      7465 00
 9257               	.LASF280:
 9258 006d 5472 6967 	.string"TriggerMask"
 9258      6765 724D 
 9258      6173 6B00 
 9259               	.LASF159:
 9260 0079 5374 7265 	.string"StreamId"
 9260      616D 4964 
 9260      00
 9261               	.LASF120:
 9262 0082 5F61 7363 	.string"_asctime_buf"
 9262      7469 6D65 
 9262      5F62 7566 
 9262      00
 9263               	.LASF105:
 9264 008f 5F63 7674 	.string"_cvtlen"
 9264      6C65 6E00 
 9265               	.LASF32:
 9266 0097 5F4D 7574 	.string"_Mutex_Control"
 9266      6578 5F43 
 9266      6F6E 7472 
 9266      6F6C 00
 9267               	.LASF267:
 9268 00a6 4346 455F 	.string"CFE_ES_PerfDataEntry_t"
 9268      4553 5F50 
 9268      6572 6644 
 9268      6174 6145 
 9268      6E74 7279 
 9269               	.LASF144:
 9270 00bd 5F67 6C6F 	.string"_global_atexit"
 9270      6261 6C5F 
 9270      6174 6578 
 9270      6974 00
 9271               	.LASF11:
 9272 00cc 7569 6E74 	.string"uint32"
 9272      3332 00
 9273               	.LASF139:
 9274 00d3 5F75 6E75 	.string"_unused"
 9274      7365 6400 
 9275               	.LASF52:
 9276 00db 5F5F 746D 	.string"__tm"
 9276      00
 9277               	.LASF135:
 9278 00e0 5F77 6373 	.string"_wcsrtombs_state"
 9278      7274 6F6D 
 9278      6273 5F73 
 9278      7461 7465 
68K GAS   			page 213


 9278      00
 9279               	.LASF83:
 9280 00f1 5F6E 6275 	.string"_nbuf"
 9280      6600 
 9281               	.LASF53:
 9282 00f7 5F5F 746D 	.string"__tm_sec"
 9282      5F73 6563 
 9282      00
 9283               	.LASF31:
 9284 0100 5F54 6872 	.string"_Thread_Control"
 9284      6561 645F 
 9284      436F 6E74 
 9284      726F 6C00 
 9285               	.LASF128:
 9286 0110 5F6C 3634 	.string"_l64a_buf"
 9286      615F 6275 
 9286      6600 
 9287               	.LASF296:
 9288 011a 5469 6D65 	.string"TimeResetVars"
 9288      5265 7365 
 9288      7456 6172 
 9288      7300 
 9289               	.LASF92:
 9290 0128 5F73 7464 	.string"_stdin"
 9290      696E 00
 9291               	.LASF188:
 9292 012f 4170 7049 	.string"AppID"
 9292      4400 
 9293               	.LASF283:
 9294 0135 4461 7461 	.string"DataBuffer"
 9294      4275 6666 
 9294      6572 00
 9295               	.LASF293:
 9296 0140 5379 7374 	.string"SystemLogEntryNum"
 9296      656D 4C6F 
 9296      6745 6E74 
 9296      7279 4E75 
 9296      6D00 
 9297               	.LASF80:
 9298 0152 5F73 6565 	.string"_seek"
 9298      6B00 
 9299               	.LASF331:
 9300 0158 4D65 7373 	.string"MessageID"
 9300      6167 6549 
 9300      4400 
 9301               	.LASF252:
 9302 0162 4346 455F 	.string"CFE_ES_DebugVariables_t"
 9302      4553 5F44 
 9302      6562 7567 
 9302      5661 7269 
 9302      6162 6C65 
 9303               	.LASF116:
 9304 017a 5F6D 756C 	.string"_mult"
 9304      7400 
 9305               	.LASF261:
 9306 0180 436F 6E74 	.string"ContextSize"
 9306      6578 7453 
68K GAS   			page 214


 9306      697A 6500 
 9307               	.LASF298:
 9308 018c 4346 455F 	.string"CFE_ES_ResetData_t"
 9308      4553 5F52 
 9308      6573 6574 
 9308      4461 7461 
 9308      5F74 00
 9309               	.LASF214:
 9310 019f 5072 6F63 	.string"ProcessorID"
 9310      6573 736F 
 9310      7249 4400 
 9311               	.LASF270:
 9312 01ab 5469 6D65 	.string"TimerTicksPerSecond"
 9312      7254 6963 
 9312      6B73 5065 
 9312      7253 6563 
 9312      6F6E 6400 
 9313               	.LASF233:
 9314 01bf 4269 6E46 	.string"BinFilters"
 9314      696C 7465 
 9314      7273 00
 9315               	.LASF317:
 9316 01ca 4346 455F 	.string"CFE_EVS_EnableAppEventsCmd"
 9316      4556 535F 
 9316      456E 6162 
 9316      6C65 4170 
 9316      7045 7665 
 9317               	.LASF40:
 9318 01e5 5F5F 7763 	.string"__wch"
 9318      6800 
 9319               	.LASF198:
 9320 01eb 4F75 7470 	.string"OutputPort"
 9320      7574 506F 
 9320      7274 00
 9321               	.LASF301:
 9322 01f6 4279 7465 	.string"BytesWritten"
 9322      7357 7269 
 9322      7474 656E 
 9322      00
 9323               	.LASF75:
 9324 0203 5F66 696C 	.string"_file"
 9324      6500 
 9325               	.LASF156:
 9326 0209 4375 7272 	.string"CurrentSTCF"
 9326      656E 7453 
 9326      5443 4600 
 9327               	.LASF62:
 9328 0215 5F6F 6E5F 	.string"_on_exit_args"
 9328      6578 6974 
 9328      5F61 7267 
 9328      7300 
 9329               	.LASF333:
 9330 0223 4346 455F 	.string"CFE_EVS_ReportHousekeepingCmd"
 9330      4556 535F 
 9330      5265 706F 
 9330      7274 486F 
 9330      7573 656B 
68K GAS   			page 215


 9331               	.LASF269:
 9332 0241 456E 6469 	.string"Endian"
 9332      616E 00
 9333               	.LASF194:
 9334 0248 436F 6D6D 	.string"CommandErrCounter"
 9334      616E 6445 
 9334      7272 436F 
 9334      756E 7465 
 9334      7200 
 9335               	.LASF178:
 9336 025a 4346 455F 	.string"CFE_EVS_ModeCmd_Payload_t"
 9336      4556 535F 
 9336      4D6F 6465 
 9336      436D 645F 
 9336      5061 796C 
 9337               	.LASF204:
 9338 0274 5370 6172 	.string"Spare1"
 9338      6531 00
 9339               	.LASF205:
 9340 027b 5370 6172 	.string"Spare2"
 9340      6532 00
 9341               	.LASF206:
 9342 0282 5370 6172 	.string"Spare3"
 9342      6533 00
 9343               	.LASF131:
 9344 0289 5F6D 6272 	.string"_mbrlen_state"
 9344      6C65 6E5F 
 9344      7374 6174 
 9344      6500 
 9345               	.LASF6:
 9346 0297 6C6F 6E67 	.string"long int"
 9346      2069 6E74 
 9346      00
 9347               	.LASF142:
 9348 02a0 5F69 6D70 	.string"_impure_ptr"
 9348      7572 655F 
 9348      7074 7200 
 9349               	.LASF322:
 9350 02ac 5265 7475 	.string"ReturnCode"
 9350      726E 436F 
 9350      6465 00
 9351               	.LASF102:
 9352 02b7 5F72 6573 	.string"_result_k"
 9352      756C 745F 
 9352      6B00 
 9353               	.LASF337:
 9354 02c1 4346 455F 	.string"CFE_EVS_ProcessCommandPacket"
 9354      4556 535F 
 9354      5072 6F63 
 9354      6573 7343 
 9354      6F6D 6D61 
 9355               	.LASF72:
 9356 02de 5F73 697A 	.string"_size"
 9356      6500 
 9357               	.LASF190:
 9358 02e4 4170 7045 	.string"AppEnableStatus"
 9358      6E61 626C 
68K GAS   			page 216


 9358      6553 7461 
 9358      7475 7300 
 9359               	.LASF224:
 9360 02f4 5469 6D65 	.string"TimeSubSeconds"
 9360      5375 6253 
 9360      6563 6F6E 
 9360      6473 00
 9361               	.LASF121:
 9362 0303 5F6C 6F63 	.string"_localtime_buf"
 9362      616C 7469 
 9362      6D65 5F62 
 9362      7566 00
 9363               	.LASF277:
 9364 0312 496E 7661 	.string"InvalidMarkerReported"
 9364      6C69 644D 
 9364      6172 6B65 
 9364      7252 6570 
 9364      6F72 7465 
 9365               	.LASF170:
 9366 0328 5072 696F 	.string"Priority"
 9366      7269 7479 
 9366      00
 9367               	.LASF197:
 9368 0331 556E 7265 	.string"UnregisteredAppCounter"
 9368      6769 7374 
 9368      6572 6564 
 9368      4170 7043 
 9368      6F75 6E74 
 9369               	.LASF57:
 9370 0348 5F5F 746D 	.string"__tm_mon"
 9370      5F6D 6F6E 
 9370      00
 9371               	.LASF278:
 9372 0351 4669 6C74 	.string"FilterTriggerMaskSize"
 9372      6572 5472 
 9372      6967 6765 
 9372      724D 6173 
 9372      6B53 697A 
 9373               	.LASF158:
 9374 0367 4346 455F 	.string"CFE_TIME_ResetVars_t"
 9374      5449 4D45 
 9374      5F52 6573 
 9374      6574 5661 
 9374      7273 5F74 
 9375               	.LASF330:
 9376 037c 4163 7475 	.string"ActualLength"
 9376      616C 4C65 
 9376      6E67 7468 
 9376      00
 9377               	.LASF299:
 9378 0389 5265 7375 	.string"Result"
 9378      6C74 00
 9379               	.LASF209:
 9380 0390 546C 6D48 	.string"TlmHeader"
 9380      6561 6465 
 9380      7200 
 9381               	.LASF259:
68K GAS   			page 217


 9382 039a 4465 6275 	.string"DebugVars"
 9382      6756 6172 
 9382      7300 
 9383               	.LASF342:
 9384 03a4 7265 7365 	.string"resetAreaSize"
 9384      7441 7265 
 9384      6153 697A 
 9384      6500 
 9385               	.LASF339:
 9386 03b2 4346 455F 	.string"CFE_EVS_TaskMain"
 9386      4556 535F 
 9386      5461 736B 
 9386      4D61 696E 
 9386      00
 9387               	.LASF118:
 9388 03c3 5F75 6E75 	.string"_unused_rand"
 9388      7365 645F 
 9388      7261 6E64 
 9388      00
 9389               	.LASF1:
 9390 03d0 7369 676E 	.string"signed char"
 9390      6564 2063 
 9390      6861 7200 
 9391               	.LASF15:
 9392 03dc 626F 6F6C 	.string"boolean"
 9392      6561 6E00 
 9393               	.LASF165:
 9394 03e4 4346 455F 	.string"CFE_SB_Msg_t"
 9394      5342 5F4D 
 9394      7367 5F74 
 9394      00
 9395               	.LASF284:
 9396 03f1 4346 455F 	.string"CFE_ES_PerfData_t"
 9396      4553 5F50 
 9396      6572 6644 
 9396      6174 615F 
 9396      7400 
 9397               	.LASF210:
 9398 0403 5061 796C 	.string"Payload"
 9398      6F61 6400 
 9399               	.LASF30:
 9400 040b 5F54 6872 	.string"_Thread_queue_Heads"
 9400      6561 645F 
 9400      7175 6575 
 9400      655F 4865 
 9400      6164 7300 
 9401               	.LASF264:
 9402 041f 4461 7461 	.string"Data"
 9402      00
 9403               	.LASF232:
 9404 0424 4556 535F 	.string"EVS_BinFilter_t"
 9404      4269 6E46 
 9404      696C 7465 
 9404      725F 7400 
 9405               	.LASF0:
 9406 0434 756E 7369 	.string"unsigned char"
 9406      676E 6564 
68K GAS   			page 218


 9406      2063 6861 
 9406      7200 
 9407               	.LASF327:
 9408 0442 4346 455F 	.string"CFE_EVS_VerifyCmdLength"
 9408      4556 535F 
 9408      5665 7269 
 9408      6679 436D 
 9408      644C 656E 
 9409               	.LASF97:
 9410 045a 5F75 6E73 	.string"_unspecified_locale_info"
 9410      7065 6369 
 9410      6669 6564 
 9410      5F6C 6F63 
 9410      616C 655F 
 9411               	.LASF329:
 9412 0473 7265 7375 	.string"result"
 9412      6C74 00
 9413               	.LASF90:
 9414 047a 5F72 6565 	.string"_reent"
 9414      6E74 00
 9415               	.LASF143:
 9416 0481 5F67 6C6F 	.string"_global_impure_ptr"
 9416      6261 6C5F 
 9416      696D 7075 
 9416      7265 5F70 
 9416      7472 00
 9417               	.LASF189:
 9418 0494 4170 704D 	.string"AppMessageSentCounter"
 9418      6573 7361 
 9418      6765 5365 
 9418      6E74 436F 
 9418      756E 7465 
 9419               	.LASF250:
 9420 04aa 5072 696E 	.string"PrintfEnabledFlag"
 9420      7466 456E 
 9420      6162 6C65 
 9420      6446 6C61 
 9420      6700 
 9421               	.LASF211:
 9422 04bc 4346 455F 	.string"CFE_EVS_TlmPkt_t"
 9422      4556 535F 
 9422      546C 6D50 
 9422      6B74 5F74 
 9422      00
 9423               	.LASF346:
 9424 04cd 2F68 6F6D 	.string"/home/simulink/cFS_FreeRTOS_seL4/cfe/fsw/cfe-core/src/evs/cfe_evs_task.c"
 9424      652F 7369 
 9424      6D75 6C69 
 9424      6E6B 2F63 
 9424      4653 5F46 
 9425               	.LASF25:
 9426 0516 5F54 6872 	.string"_Thread_queue_Queue"
 9426      6561 645F 
 9426      7175 6575 
 9426      655F 5175 
 9426      6575 6500 
 9427               	.LASF16:
68K GAS   			page 219


 9428 052a 6368 6172 	.string"char"
 9428      00
 9429               	.LASF314:
 9430 052f 4346 455F 	.string"CFE_EVS_ResetFilterCmd"
 9430      4556 535F 
 9430      5265 7365 
 9430      7446 696C 
 9430      7465 7243 
 9431               	.LASF69:
 9432 0546 5F66 6E73 	.string"_fns"
 9432      00
 9433               	.LASF81:
 9434 054b 5F63 6C6F 	.string"_close"
 9434      7365 00
 9435               	.LASF326:
 9436 0552 4346 455F 	.string"CFE_EVS_SetFilterMaskCmd"
 9436      4556 535F 
 9436      5365 7446 
 9436      696C 7465 
 9436      724D 6173 
 9437               	.LASF238:
 9438 056b 4556 535F 	.string"EVS_AppData_t"
 9438      4170 7044 
 9438      6174 615F 
 9438      7400 
 9439               	.LASF14:
 9440 0579 6370 7561 	.string"cpuaddr"
 9440      6464 7200 
 9441               	.LASF320:
 9442 0581 4346 455F 	.string"CFE_EVS_SetEventFormatModeCmd"
 9442      4556 535F 
 9442      5365 7445 
 9442      7665 6E74 
 9442      466F 726D 
 9443               	.LASF247:
 9444 059f 4346 455F 	.string"CFE_EVS_GlobalData"
 9444      4556 535F 
 9444      476C 6F62 
 9444      616C 4461 
 9444      7461 00
 9445               	.LASF24:
 9446 05b2 5F54 6963 	.string"_Ticket_lock_Control"
 9446      6B65 745F 
 9446      6C6F 636B 
 9446      5F43 6F6E 
 9446      7472 6F6C 
 9447               	.LASF149:
 9448 05c7 5365 636F 	.string"Seconds"
 9448      6E64 7300 
 9449               	.LASF305:
 9450 05cf 4170 7044 	.string"AppDataPtr"
 9450      6174 6150 
 9450      7472 00
 9451               	.LASF163:
 9452 05da 4477 6F72 	.string"Dword"
 9452      6400 
 9453               	.LASF287:
68K GAS   			page 220


 9454 05e0 4552 4C6F 	.string"ERLog"
 9454      6700 
 9455               	.LASF28:
 9456 05e6 5F6F 776E 	.string"_owner"
 9456      6572 00
 9457               	.LASF334:
 9458 05ed 4346 455F 	.string"CFE_EVS_ProcessGroundCommand"
 9458      4556 535F 
 9458      5072 6F63 
 9458      6573 7347 
 9458      726F 756E 
 9459               	.LASF306:
 9460 060a 436D 6450 	.string"CmdPtr"
 9460      7472 00
 9461               	.LASF297:
 9462 0611 4556 535F 	.string"EVS_Log"
 9462      4C6F 6700 
 9463               	.LASF186:
 9464 0619 4D61 736B 	.string"Mask"
 9464      00
 9465               	.LASF288:
 9466 061e 4552 4C6F 	.string"ERLogIndex"
 9466      6749 6E64 
 9466      6578 00
 9467               	.LASF347:
 9468 0629 2F68 6F6D 	.string"/home/simulink/cFS_FreeRTOS_seL4/build/cpu1/cfe/evs"
 9468      652F 7369 
 9468      6D75 6C69 
 9468      6E6B 2F63 
 9468      4653 5F46 
 9469               	.LASF282:
 9470 065d 4D65 7461 	.string"MetaData"
 9470      4461 7461 
 9470      00
 9471               	.LASF245:
 9472 0666 4556 535F 	.string"EVS_AppID"
 9472      4170 7049 
 9472      4400 
 9473               	.LASF251:
 9474 0670 4C61 7374 	.string"LastAppId"
 9474      4170 7049 
 9474      6400 
 9475               	.LASF199:
 9476 067a 4C6F 6746 	.string"LogFullFlag"
 9476      756C 6C46 
 9476      6C61 6700 
 9477               	.LASF179:
 9478 0686 4269 744D 	.string"BitMask"
 9478      6173 6B00 
 9479               	.LASF148:
 9480 068e 5F74 7A6E 	.string"_tzname"
 9480      616D 6500 
 9481               	.LASF36:
 9482 0696 5F6E 6573 	.string"_nest_level"
 9482      745F 6C65 
 9482      7665 6C00 
 9483               	.LASF154:
68K GAS   			page 221


 9484 06a2 436C 6F63 	.string"ClockSignal"
 9484      6B53 6967 
 9484      6E61 6C00 
 9485               	.LASF290:
 9486 06ae 5379 7374 	.string"SystemLog"
 9486      656D 4C6F 
 9486      6700 
 9487               	.LASF318:
 9488 06b8 4346 455F 	.string"CFE_EVS_DisableAppEventTypesCmd"
 9488      4556 535F 
 9488      4469 7361 
 9488      626C 6541 
 9488      7070 4576 
 9489               	.LASF77:
 9490 06d8 5F63 6F6F 	.string"_cookie"
 9490      6B69 6500 
 9491               	.LASF234:
 9492 06e0 4163 7469 	.string"ActiveFlag"
 9492      7665 466C 
 9492      6167 00
 9493               	.LASF51:
 9494 06eb 5F77 6473 	.string"_wds"
 9494      00
 9495               	.LASF316:
 9496 06f0 4346 455F 	.string"CFE_EVS_DisableAppEventsCmd"
 9496      4556 535F 
 9496      4469 7361 
 9496      626C 6541 
 9496      7070 4576 
 9497               	.LASF108:
 9498 070c 5F73 6967 	.string"_sig_func"
 9498      5F66 756E 
 9498      6300 
 9499               	.LASF220:
 9500 0716 436F 6E74 	.string"ContentType"
 9500      656E 7454 
 9500      7970 6500 
 9501               	.LASF85:
 9502 0722 5F6F 6666 	.string"_offset"
 9502      7365 7400 
 9503               	.LASF343:
 9504 072a 7265 7365 	.string"resetAreaAddr"
 9504      7441 7265 
 9504      6141 6464 
 9504      7200 
 9505               	.LASF106:
 9506 0738 5F63 7674 	.string"_cvtbuf"
 9506      6275 6600 
 9507               	.LASF21:
 9508 0740 5F6E 6578 	.string"_next_ticket"
 9508      745F 7469 
 9508      636B 6574 
 9508      00
 9509               	.LASF344:
 9510 074d 4346 455F 	.string"CFE_EVS_ResetDataPtr"
 9510      4556 535F 
 9510      5265 7365 
68K GAS   			page 222


 9510      7444 6174 
 9510      6150 7472 
 9511               	.LASF292:
 9512 0762 5379 7374 	.string"SystemLogMode"
 9512      656D 4C6F 
 9512      674D 6F64 
 9512      6500 
 9513               	.LASF103:
 9514 0770 5F70 3573 	.string"_p5s"
 9514      00
 9515               	.LASF12:
 9516 0775 6C6F 6E67 	.string"long unsigned int"
 9516      2075 6E73 
 9516      6967 6E65 
 9516      6420 696E 
 9516      7400 
 9517               	.LASF265:
 9518 0787 5469 6D65 	.string"TimerUpper32"
 9518      7255 7070 
 9518      6572 3332 
 9518      00
 9519               	.LASF73:
 9520 0794 5F5F 7346 	.string"__sFILE"
 9520      494C 4500 
 9521               	.LASF99:
 9522 079c 5F5F 7364 	.string"__sdidinit"
 9522      6964 696E 
 9522      6974 00
 9523               	.LASF89:
 9524 07a7 5F66 6C61 	.string"_flags2"
 9524      6773 3200 
 9525               	.LASF258:
 9526 07af 4D61 7850 	.string"MaxProcessorResetCount"
 9526      726F 6365 
 9526      7373 6F72 
 9526      5265 7365 
 9526      7443 6F75 
 9527               	.LASF37:
 9528 07c6 5F4C 4F43 	.string"_LOCK_RECURSIVE_T"
 9528      4B5F 5245 
 9528      4355 5253 
 9528      4956 455F 
 9528      5400 
 9529               	.LASF228:
 9530 07d8 4C6F 6743 	.string"LogCount"
 9530      6F75 6E74 
 9530      00
 9531               	.LASF91:
 9532 07e1 5F65 7272 	.string"_errno"
 9532      6E6F 00
 9533               	.LASF157:
 9534 07e8 4375 7272 	.string"CurrentDelay"
 9534      656E 7444 
 9534      656C 6179 
 9534      00
 9535               	.LASF129:
 9536 07f5 5F73 6967 	.string"_signal_buf"
68K GAS   			page 223


 9536      6E61 6C5F 
 9536      6275 6600 
 9537               	.LASF243:
 9538 0801 4556 535F 	.string"EVS_CommandPipe"
 9538      436F 6D6D 
 9538      616E 6450 
 9538      6970 6500 
 9539               	.LASF217:
 9540 0811 4D65 7373 	.string"Message"
 9540      6167 6500 
 9541               	.LASF307:
 9542 0819 4C6F 6361 	.string"LocalName"
 9542      6C4E 616D 
 9542      6500 
 9543               	.LASF47:
 9544 0823 5F42 6967 	.string"_Bigint"
 9544      696E 7400 
 9545               	.LASF313:
 9546 082b 4346 455F 	.string"CFE_EVS_ResetAllFiltersCmd"
 9546      4556 535F 
 9546      5265 7365 
 9546      7441 6C6C 
 9546      4669 6C74 
 9547               	.LASF242:
 9548 0846 4556 535F 	.string"EVS_TlmPkt"
 9548      546C 6D50 
 9548      6B74 00
 9549               	.LASF49:
 9550 0851 5F6D 6178 	.string"_maxwds"
 9550      7764 7300 
 9551               	.LASF100:
 9552 0859 5F5F 636C 	.string"__cleanup"
 9552      6561 6E75 
 9552      7000 
 9553               	.LASF200:
 9554 0863 4C6F 674D 	.string"LogMode"
 9554      6F64 6500 
 9555               	.LASF240:
 9556 086b 4346 455F 	.string"CFE_EVS_AppDataFile_t"
 9556      4556 535F 
 9556      4170 7044 
 9556      6174 6146 
 9556      696C 655F 
 9557               	.LASF311:
 9558 0881 5374 6174 	.string"Status"
 9558      7573 00
 9559               	.LASF153:
 9560 0888 4C65 6170 	.string"LeapSeconds"
 9560      5365 636F 
 9560      6E64 7300 
 9561               	.LASF216:
 9562 0894 5061 636B 	.string"PacketID"
 9562      6574 4944 
 9562      00
 9563               	.LASF310:
 9564 089d 4669 6C74 	.string"FilterPtr"
 9564      6572 5074 
68K GAS   			page 224


 9564      7200 
 9565               	.LASF96:
 9566 08a7 5F65 6D65 	.string"_emergency"
 9566      7267 656E 
 9566      6379 00
 9567               	.LASF219:
 9568 08b2 4346 455F 	.string"CFE_EVS_Packet_t"
 9568      4556 535F 
 9568      5061 636B 
 9568      6574 5F74 
 9568      00
 9569               	.LASF7:
 9570 08c3 6C6F 6E67 	.string"long long int"
 9570      206C 6F6E 
 9570      6720 696E 
 9570      7400 
 9571               	.LASF268:
 9572 08d1 5665 7273 	.string"Version"
 9572      696F 6E00 
 9573               	.LASF180:
 9574 08d9 4346 455F 	.string"CFE_EVS_BitMaskCmd_Payload_t"
 9574      4556 535F 
 9574      4269 744D 
 9574      6173 6B43 
 9574      6D64 5F50 
 9575               	.LASF237:
 9576 08f6 5265 6769 	.string"RegisterFlag"
 9576      7374 6572 
 9576      466C 6167 
 9576      00
 9577               	.LASF336:
 9578 0903 5661 6C69 	.string"Valid"
 9578      6400 
 9579               	.LASF112:
 9580 0909 5F6E 696F 	.string"_niobs"
 9580      6273 00
 9581               	.LASF231:
 9582 0910 436F 756E 	.string"Count"
 9582      7400 
 9583               	.LASF289:
 9584 0916 4552 4C6F 	.string"ERLogEntries"
 9584      6745 6E74 
 9584      7269 6573 
 9584      00
 9585               	.LASF109:
 9586 0923 5F5F 7367 	.string"__sglue"
 9586      6C75 6500 
 9587               	.LASF271:
 9588 092b 5469 6D65 	.string"TimerLow32Rollover"
 9588      724C 6F77 
 9588      3332 526F 
 9588      6C6C 6F76 
 9588      6572 00
 9589               	.LASF138:
 9590 093e 5F6E 6D61 	.string"_nmalloc"
 9590      6C6C 6F63 
 9590      00
68K GAS   			page 225


 9591               	.LASF122:
 9592 0947 5F67 616D 	.string"_gamma_signgam"
 9592      6D61 5F73 
 9592      6967 6E67 
 9592      616D 00
 9593               	.LASF328:
 9594 0956 4578 7065 	.string"ExpectedLength"
 9594      6374 6564 
 9594      4C65 6E67 
 9594      7468 00
 9595               	.LASF104:
 9596 0965 5F66 7265 	.string"_freelist"
 9596      656C 6973 
 9596      7400 
 9597               	.LASF113:
 9598 096f 5F69 6F62 	.string"_iobs"
 9598      7300 
 9599               	.LASF303:
 9600 0975 4170 7044 	.string"AppDataFile"
 9600      6174 6146 
 9600      696C 6500 
 9601               	.LASF111:
 9602 0981 5F67 6C75 	.string"_glue"
 9602      6500 
 9603               	.LASF50:
 9604 0987 5F73 6967 	.string"_sign"
 9604      6E00 
 9605               	.LASF315:
 9606 098d 4346 455F 	.string"CFE_EVS_ResetAppEventCounterCmd"
 9606      4556 535F 
 9606      5265 7365 
 9606      7441 7070 
 9606      4576 656E 
 9607               	.LASF175:
 9608 09ad 4346 455F 	.string"CFE_EVS_AppDataCmd_Payload_t"
 9608      4556 535F 
 9608      4170 7044 
 9608      6174 6143 
 9608      6D64 5F50 
 9609               	.LASF281:
 9610 09ca 4346 455F 	.string"CFE_ES_PerfMetaData_t"
 9610      4553 5F50 
 9610      6572 664D 
 9610      6574 6144 
 9610      6174 615F 
 9611               	.LASF182:
 9612 09e0 4346 455F 	.string"CFE_EVS_AppNameCmd_Payload_t"
 9612      4556 535F 
 9612      4170 704E 
 9612      616D 6543 
 9612      6D64 5F50 
 9613               	.LASF229:
 9614 09fd 4C6F 6745 	.string"LogEntry"
 9614      6E74 7279 
 9614      00
 9615               	.LASF23:
 9616 0a06 756E 7369 	.string"unsigned int"
68K GAS   			page 226


 9616      676E 6564 
 9616      2069 6E74 
 9616      00
 9617               	.LASF146:
 9618 0a13 5F74 696D 	.string"_timezone"
 9618      657A 6F6E 
 9618      6500 
 9619               	.LASF256:
 9620 0a1d 426F 6F74 	.string"BootSource"
 9620      536F 7572 
 9620      6365 00
 9621               	.LASF136:
 9622 0a28 5F68 5F65 	.string"_h_errno"
 9622      7272 6E6F 
 9622      00
 9623               	.LASF300:
 9624 0a31 4669 6C65 	.string"FileHandle"
 9624      4861 6E64 
 9624      6C65 00
 9625               	.LASF294:
 9626 0a3c 5065 7266 	.string"Perf"
 9626      00
 9627               	.LASF236:
 9628 0a41 4576 656E 	.string"EventCount"
 9628      7443 6F75 
 9628      6E74 00
 9629               	.LASF223:
 9630 0a4c 5469 6D65 	.string"TimeSeconds"
 9630      5365 636F 
 9630      6E64 7300 
 9631               	.LASF134:
 9632 0a58 5F77 6372 	.string"_wcrtomb_state"
 9632      746F 6D62 
 9632      5F73 7461 
 9632      7465 00
 9633               	.LASF244:
 9634 0a67 4556 535F 	.string"EVS_SharedDataMutexID"
 9634      5368 6172 
 9634      6564 4461 
 9634      7461 4D75 
 9634      7465 7849 
 9635               	.LASF56:
 9636 0a7d 5F5F 746D 	.string"__tm_mday"
 9636      5F6D 6461 
 9636      7900 
 9637               	.LASF107:
 9638 0a87 5F6E 6577 	.string"_new"
 9638      00
 9639               	.LASF29:
 9640 0a8c 5F6E 616D 	.string"_name"
 9640      6500 
 9641               	.LASF82:
 9642 0a92 5F75 6275 	.string"_ubuf"
 9642      6600 
 9643               	.LASF171:
 9644 0a98 5265 6C69 	.string"Reliability"
 9644      6162 696C 
68K GAS   			page 227


 9644      6974 7900 
 9645               	.LASF94:
 9646 0aa4 5F73 7464 	.string"_stderr"
 9646      6572 7200 
 9647               	.LASF246:
 9648 0aac 4346 455F 	.string"CFE_EVS_GlobalData_t"
 9648      4556 535F 
 9648      476C 6F62 
 9648      616C 4461 
 9648      7461 5F74 
 9649               	.LASF127:
 9650 0ac1 5F77 6374 	.string"_wctomb_state"
 9650      6F6D 625F 
 9650      7374 6174 
 9650      6500 
 9651               	.LASF88:
 9652 0acf 5F6D 6273 	.string"_mbstate"
 9652      7461 7465 
 9652      00
 9653               	.LASF123:
 9654 0ad8 5F72 616E 	.string"_rand_next"
 9654      645F 6E65 
 9654      7874 00
 9655               	.LASF74:
 9656 0ae3 5F66 6C61 	.string"_flags"
 9656      6773 00
 9657               	.LASF67:
 9658 0aea 5F61 7465 	.string"_atexit"
 9658      7869 7400 
 9659               	.LASF150:
 9660 0af2 5375 6273 	.string"Subseconds"
 9660      6563 6F6E 
 9660      6473 00
 9661               	.LASF235:
 9662 0afd 4576 656E 	.string"EventTypesActiveFlag"
 9662      7454 7970 
 9662      6573 4163 
 9662      7469 7665 
 9662      466C 6167 
 9663               	.LASF309:
 9664 0b12 4346 455F 	.string"CFE_EVS_DeleteEventFilterCmd"
 9664      4556 535F 
 9664      4465 6C65 
 9664      7465 4576 
 9664      656E 7446 
 9665               	.LASF42:
 9666 0b2f 5F5F 636F 	.string"__count"
 9666      756E 7400 
 9667               	.LASF177:
 9668 0b37 5370 6172 	.string"Spare"
 9668      6500 
 9669               	.LASF59:
 9670 0b3d 5F5F 746D 	.string"__tm_wday"
 9670      5F77 6461 
 9670      7900 
 9671               	.LASF164:
 9672 0b47 4279 7465 	.string"Byte"
68K GAS   			page 228


 9672      00
 9673               	.LASF18:
 9674 0b4c 6C6F 6E67 	.string"long double"
 9674      2064 6F75 
 9674      626C 6500 
 9675               	.LASF191:
 9676 0b58 5061 6464 	.string"Padding"
 9676      696E 6700 
 9677               	.LASF60:
 9678 0b60 5F5F 746D 	.string"__tm_yday"
 9678      5F79 6461 
 9678      7900 
 9679               	.LASF184:
 9680 0b6a 4346 455F 	.string"CFE_EVS_AppNameEventIDCmd_Payload_t"
 9680      4556 535F 
 9680      4170 704E 
 9680      616D 6545 
 9680      7665 6E74 
 9681               	.LASF34:
 9682 0b8e 5F4D 7574 	.string"_Mutex_recursive_Control"
 9682      6578 5F72 
 9682      6563 7572 
 9682      7369 7665 
 9682      5F43 6F6E 
 9683               	.LASF176:
 9684 0ba7 4D6F 6465 	.string"Mode"
 9684      00
 9685               	.LASF27:
 9686 0bac 5F68 6561 	.string"_heads"
 9686      6473 00
 9687               	.LASF115:
 9688 0bb3 5F73 6565 	.string"_seed"
 9688      6400 
 9689               	.LASF33:
 9690 0bb9 5F51 7565 	.string"_Queue"
 9690      7565 00
 9691               	.LASF332:
 9692 0bc0 436F 6D6D 	.string"CommandCode"
 9692      616E 6443 
 9692      6F64 6500 
 9693               	.LASF207:
 9694 0bcc 4170 7044 	.string"AppData"
 9694      6174 6100 
 9695               	.LASF285:
 9696 0bd4 4553 5F43 	.string"ES_CausedReset"
 9696      6175 7365 
 9696      6452 6573 
 9696      6574 00
 9697               	.LASF20:
 9698 0be3 5F66 706F 	.string"_fpos_t"
 9698      735F 7400 
 9699               	.LASF203:
 9700 0beb 4C6F 6745 	.string"LogEnabled"
 9700      6E61 626C 
 9700      6564 00
 9701               	.LASF41:
 9702 0bf6 5F5F 7763 	.string"__wchb"
68K GAS   			page 229


 9702      6862 00
 9703               	.LASF126:
 9704 0bfd 5F6D 6274 	.string"_mbtowc_state"
 9704      6F77 635F 
 9704      7374 6174 
 9704      6500 
 9705               	.LASF335:
 9706 0c0b 4556 535F 	.string"EVS_MsgPtr"
 9706      4D73 6750 
 9706      7472 00
 9707               	.LASF13:
 9708 0c16 6C6F 6E67 	.string"long long unsigned int"
 9708      206C 6F6E 
 9708      6720 756E 
 9708      7369 676E 
 9708      6564 2069 
 9709               	.LASF241:
 9710 0c2d 4556 535F 	.string"EVS_LogPtr"
 9710      4C6F 6750 
 9710      7472 00
 9711               	.LASF187:
 9712 0c38 4346 455F 	.string"CFE_EVS_AppNameEventIDMaskCmd_Payload_t"
 9712      4556 535F 
 9712      4170 704E 
 9712      616D 6545 
 9712      7665 6E74 
 9713               	.LASF323:
 9714 0c60 4346 455F 	.string"CFE_EVS_EnableEventTypesCmd"
 9714      4556 535F 
 9714      456E 6162 
 9714      6C65 4576 
 9714      656E 7454 
 9715               	.LASF64:
 9716 0c7c 5F64 736F 	.string"_dso_handle"
 9716      5F68 616E 
 9716      646C 6500 
 9717               	.LASF114:
 9718 0c88 5F72 616E 	.string"_rand48"
 9718      6434 3800 
 9719               	.LASF167:
 9720 0c90 4346 455F 	.string"CFE_SB_MsgId_t"
 9720      5342 5F4D 
 9720      7367 4964 
 9720      5F74 00
 9721               	.LASF93:
 9722 0c9f 5F73 7464 	.string"_stdout"
 9722      6F75 7400 
 9723               	.LASF272:
 9724 0ca7 5374 6174 	.string"State"
 9724      6500 
 9725               	.LASF325:
 9726 0cad 4346 455F 	.string"CFE_EVS_EnablePortsCmd"
 9726      4556 535F 
 9726      456E 6162 
 9726      6C65 506F 
 9726      7274 7343 
 9727               	.LASF84:
68K GAS   			page 230


 9728 0cc4 5F62 6C6B 	.string"_blksize"
 9728      7369 7A65 
 9728      00
 9729               	.LASF266:
 9730 0ccd 5469 6D65 	.string"TimerLower32"
 9730      724C 6F77 
 9730      6572 3332 
 9730      00
 9731               	.LASF71:
 9732 0cda 5F62 6173 	.string"_base"
 9732      6500 
 9733               	.LASF276:
 9734 0ce0 4461 7461 	.string"DataCount"
 9734      436F 756E 
 9734      7400 
 9735               	.LASF119:
 9736 0cea 5F73 7472 	.string"_strtok_last"
 9736      746F 6B5F 
 9736      6C61 7374 
 9736      00
 9737               	.LASF286:
 9738 0cf7 4346 455F 	.string"CFE_ES_ResetVariables_t"
 9738      4553 5F52 
 9738      6573 6574 
 9738      5661 7269 
 9738      6162 6C65 
 9739               	.LASF132:
 9740 0d0f 5F6D 6272 	.string"_mbrtowc_state"
 9740      746F 7763 
 9740      5F73 7461 
 9740      7465 00
 9741               	.LASF279:
 9742 0d1e 4669 6C74 	.string"FilterMask"
 9742      6572 4D61 
 9742      736B 00
 9743               	.LASF254:
 9744 0d29 5265 7365 	.string"ResetType"
 9744      7454 7970 
 9744      6500 
 9745               	.LASF155:
 9746 0d33 4375 7272 	.string"CurrentMET"
 9746      656E 744D 
 9746      4554 00
 9747               	.LASF45:
 9748 0d3e 5F66 6C6F 	.string"_flock_t"
 9748      636B 5F74 
 9748      00
 9749               	.LASF110:
 9750 0d47 5F5F 4649 	.string"__FILE"
 9750      4C45 00
 9751               	.LASF208:
 9752 0d4e 4346 455F 	.string"CFE_EVS_TlmPkt_Payload_t"
 9752      4556 535F 
 9752      546C 6D50 
 9752      6B74 5F50 
 9752      6179 6C6F 
 9753               	.LASF87:
68K GAS   			page 231


 9754 0d67 5F6C 6F63 	.string"_lock"
 9754      6B00 
 9755               	.LASF44:
 9756 0d6d 5F6D 6273 	.string"_mbstate_t"
 9756      7461 7465 
 9756      5F74 00
 9757               	.LASF124:
 9758 0d78 5F72 3438 	.string"_r48"
 9758      00
 9759               	.LASF161:
 9760 0d7d 4C65 6E67 	.string"Length"
 9760      7468 00
 9761               	.LASF39:
 9762 0d84 7769 6E74 	.string"wint_t"
 9762      5F74 00
 9763               	.LASF2:
 9764 0d8b 6F73 616C 	.string"osalbool"
 9764      626F 6F6C 
 9764      00
 9765               	.LASF48:
 9766 0d94 5F6E 6578 	.string"_next"
 9766      7400 
 9767               	.LASF86:
 9768 0d9a 5F64 6174 	.string"_data"
 9768      6100 
 9769               	.LASF248:
 9770 0da0 4465 6275 	.string"DebugFlag"
 9770      6746 6C61 
 9770      6700 
 9771               	.LASF255:
 9772 0daa 5265 7365 	.string"ResetSubtype"
 9772      7453 7562 
 9772      7479 7065 
 9772      00
 9773               	.LASF196:
 9774 0db7 4D65 7373 	.string"MessageTruncCounter"
 9774      6167 6554 
 9774      7275 6E63 
 9774      436F 756E 
 9774      7465 7200 
 9775               	.LASF173:
 9776 0dcb 4346 455F 	.string"CFE_SB_Default_Qos"
 9776      5342 5F44 
 9776      6566 6175 
 9776      6C74 5F51 
 9776      6F73 00
 9777               	.LASF273:
 9778 0dde 5472 6967 	.string"TriggerCount"
 9778      6765 7243 
 9778      6F75 6E74 
 9778      00
 9779               	.LASF166:
 9780 0deb 4346 455F 	.string"CFE_SB_PipeId_t"
 9780      5342 5F50 
 9780      6970 6549 
 9780      645F 7400 
 9781               	.LASF152:
68K GAS   			page 232


 9782 0dfb 5369 676E 	.string"Signature"
 9782      6174 7572 
 9782      6500 
 9783               	.LASF291:
 9784 0e05 5379 7374 	.string"SystemLogIndex"
 9784      656D 4C6F 
 9784      6749 6E64 
 9784      6578 00
 9785               	.LASF35:
 9786 0e14 5F4D 7574 	.string"_Mutex"
 9786      6578 00
 9787               	.LASF275:
 9788 0e1b 4461 7461 	.string"DataEnd"
 9788      456E 6400 
 9789               	.LASF185:
 9790 0e23 4346 455F 	.string"CFE_EVS_AppNameBitMaskCmd_Payload_t"
 9790      4556 535F 
 9790      4170 704E 
 9790      616D 6542 
 9790      6974 4D61 
 9791               	.LASF340:
 9792 0e47 4346 455F 	.string"CFE_EVS_CleanUpApp"
 9792      4556 535F 
 9792      436C 6561 
 9792      6E55 7041 
 9792      7070 00
 9793               	.LASF169:
 9794 0e5a 4346 455F 	.string"CFE_SB_MsgPayloadPtr_t"
 9794      5342 5F4D 
 9794      7367 5061 
 9794      796C 6F61 
 9794      6450 7472 
 9795               	.LASF257:
 9796 0e71 5072 6F63 	.string"ProcessorResetCount"
 9796      6573 736F 
 9796      7252 6573 
 9796      6574 436F 
 9796      756E 7400 
 9797               	.LASF193:
 9798 0e85 436F 6D6D 	.string"CommandCounter"
 9798      616E 6443 
 9798      6F75 6E74 
 9798      6572 00
 9799               	.LASF338:
 9800 0e94 4346 455F 	.string"CFE_EVS_TaskInit"
 9800      4556 535F 
 9800      5461 736B 
 9800      496E 6974 
 9800      00
 9801               	.LASF8:
 9802 0ea5 7569 6E74 	.string"uint8"
 9802      3800 
 9803               	.LASF181:
 9804 0eab 4170 704E 	.string"AppName"
 9804      616D 6500 
 9805               	.LASF227:
 9806 0eb3 4E65 7874 	.string"Next"
68K GAS   			page 233


 9806      00
 9807               	.LASF348:
 9808 0eb8 4346 455F 	.string"CFE_EVS_ResetCountersCmd"
 9808      4556 535F 
 9808      5265 7365 
 9808      7443 6F75 
 9808      6E74 6572 
 9809               	.LASF202:
 9810 0ed1 4C6F 674F 	.string"LogOverflowCounter"
 9810      7665 7266 
 9810      6C6F 7743 
 9810      6F75 6E74 
 9810      6572 00
 9811               	.LASF125:
 9812 0ee4 5F6D 626C 	.string"_mblen_state"
 9812      656E 5F73 
 9812      7461 7465 
 9812      00
 9813               	.LASF4:
 9814 0ef1 7368 6F72 	.string"short int"
 9814      7420 696E 
 9814      7400 
 9815               	.LASF212:
 9816 0efb 4576 656E 	.string"EventType"
 9816      7454 7970 
 9816      6500 
 9817               	.LASF341:
 9818 0f05 4346 455F 	.string"CFE_EVS_EarlyInit"
 9818      4556 535F 
 9818      4561 726C 
 9818      7949 6E69 
 9818      7400 
 9819               	.LASF145:
 9820 0f17 7375 626F 	.string"suboptarg"
 9820      7074 6172 
 9820      6700 
 9821               	.LASF65:
 9822 0f21 5F66 6E74 	.string"_fntypes"
 9822      7970 6573 
 9822      00
 9823               	.LASF58:
 9824 0f2a 5F5F 746D 	.string"__tm_year"
 9824      5F79 6561 
 9824      7200 
 9825               	.LASF183:
 9826 0f34 4576 656E 	.string"EventID"
 9826      7449 4400 
 9827               	.LASF312:
 9828 0f3c 4346 455F 	.string"CFE_EVS_AddEventFilterCmd"
 9828      4556 535F 
 9828      4164 6445 
 9828      7665 6E74 
 9828      4669 6C74 
 9829               	.LASF76:
 9830 0f56 5F6C 6266 	.string"_lbfsize"
 9830      7369 7A65 
 9830      00
68K GAS   			page 234


 9831               	.LASF95:
 9832 0f5f 5F69 6E63 	.string"_inc"
 9832      00
 9833               	.LASF68:
 9834 0f64 5F69 6E64 	.string"_ind"
 9834      00
 9835               	.LASF17:
 9836 0f69 5F5F 696E 	.string"__int64_t"
 9836      7436 345F 
 9836      7400 
 9837               	.LASF274:
 9838 0f73 4461 7461 	.string"DataStart"
 9838      5374 6172 
 9838      7400 
 9839               	.LASF3:
 9840 0f7d 696E 7431 	.string"int16"
 9840      3600 
 9841               	.LASF70:
 9842 0f83 5F5F 7362 	.string"__sbuf"
 9842      7566 00
 9843               	.LASF66:
 9844 0f8a 5F69 735F 	.string"_is_cxa"
 9844      6378 6100 
 9845               	.LASF151:
 9846 0f92 4346 455F 	.string"CFE_TIME_SysTime_t"
 9846      5449 4D45 
 9846      5F53 7973 
 9846      5469 6D65 
 9846      5F74 00
 9847               	.LASF137:
 9848 0fa5 5F6E 6578 	.string"_nextf"
 9848      7466 00
 9849               	.LASF260:
 9850 0fac 5469 6D65 	.string"TimeCode"
 9850      436F 6465 
 9850      00
 9851               	.LASF263:
 9852 0fb5 4346 455F 	.string"CFE_ES_ERLog_t"
 9852      4553 5F45 
 9852      524C 6F67 
 9852      5F74 00
 9853               	.LASF201:
 9854 0fc4 4D65 7373 	.string"MessageSendCounter"
 9854      6167 6553 
 9854      656E 6443 
 9854      6F75 6E74 
 9854      6572 00
 9855               	.LASF221:
 9856 0fd7 5375 6254 	.string"SubType"
 9856      7970 6500 
 9857               	.LASF218:
 9858 0fdf 4346 455F 	.string"CFE_EVS_Packet_Payload_t"
 9858      4556 535F 
 9858      5061 636B 
 9858      6574 5F50 
 9858      6179 6C6F 
 9859               	.LASF239:
68K GAS   			page 235


 9860 0ff8 4669 6C74 	.string"Filters"
 9860      6572 7300 
 9861               	.LASF98:
 9862 1000 5F6C 6F63 	.string"_locale"
 9862      616C 6500 
 9863               	.LASF46:
 9864 1008 5F5F 554C 	.string"__ULong"
 9864      6F6E 6700 
 9865               	.LASF174:
 9866 1010 4170 7044 	.string"AppDataFilename"
 9866      6174 6146 
 9866      696C 656E 
 9866      616D 6500 
 9867               	.LASF225:
 9868 1020 4465 7363 	.string"Description"
 9868      7269 7074 
 9868      696F 6E00 
 9869               	.LASF101:
 9870 102c 5F72 6573 	.string"_result"
 9870      756C 7400 
 9871               	.LASF26:
 9872 1034 5F4C 6F63 	.string"_Lock"
 9872      6B00 
 9873               	.LASF22:
 9874 103a 5F6E 6F77 	.string"_now_serving"
 9874      5F73 6572 
 9874      7669 6E67 
 9874      00
 9875               	.LASF19:
 9876 1047 5F6F 6666 	.string"_off_t"
 9876      5F74 00
 9877               	.LASF302:
 9878 104e 456E 7472 	.string"EntryCount"
 9878      7943 6F75 
 9878      6E74 00
 9879               	.LASF117:
 9880 1059 5F61 6464 	.string"_add"
 9880      00
 9881               	.LASF345:
 9882 105e 474E 5520 	.string"GNU C11 7.3.0 20180125 (RTEMS 5, RSB d2b25d131d55adcb38219f2cd8cbec2436ee78ab, Newlib 3.0.0) -malign-int -mcpu=528x -g -O0 -fomit-frame-pointer"
 9882      4331 3120 
 9882      372E 332E 
 9882      3020 3230 
 9882      3138 3031 
 9883               	.LASF10:
 9884 10ee 7368 6F72 	.string"short unsigned int"
 9884      7420 756E 
 9884      7369 676E 
 9884      6564 2069 
 9884      6E74 00
 9885               	.LASF55:
 9886 1101 5F5F 746D 	.string"__tm_hour"
 9886      5F68 6F75 
 9886      7200 
 9887               	.LASF253:
 9888 110b 4C6F 6745 	.string"LogEntryType"
 9888      6E74 7279 
68K GAS   			page 236


 9888      5479 7065 
 9888      00
 9889               	.LASF319:
 9890 1118 4346 455F 	.string"CFE_EVS_EnableAppEventTypesCmd"
 9890      4556 535F 
 9890      456E 6162 
 9890      6C65 4170 
 9890      7045 7665 
 9891               	.LASF213:
 9892 1137 5370 6163 	.string"SpacecraftID"
 9892      6563 7261 
 9892      6674 4944 
 9892      00
 9893               	.LASF222:
 9894 1144 4170 706C 	.string"ApplicationID"
 9894      6963 6174 
 9894      696F 6E49 
 9894      4400 
 9895               	.LASF5:
 9896 1152 696E 7433 	.string"int32"
 9896      3200 
 9897               	.LASF160:
 9898 1158 5365 7175 	.string"Sequence"
 9898      656E 6365 
 9898      00
 9899               	.LASF133:
 9900 1161 5F6D 6273 	.string"_mbsrtowcs_state"
 9900      7274 6F77 
 9900      6373 5F73 
 9900      7461 7465 
 9900      00
 9901               	.LASF321:
 9902 1172 4346 455F 	.string"CFE_EVS_DisableEventTypesCmd"
 9902      4556 535F 
 9902      4469 7361 
 9902      626C 6545 
 9902      7665 6E74 
 9903               	.LASF215:
 9904 118f 4346 455F 	.string"CFE_EVS_PacketID_t"
 9904      4556 535F 
 9904      5061 636B 
 9904      6574 4944 
 9904      5F74 00
 9905               	.LASF195:
 9906 11a2 4D65 7373 	.string"MessageFormatMode"
 9906      6167 6546 
 9906      6F72 6D61 
 9906      744D 6F64 
 9906      6500 
 9907               	.LASF63:
 9908 11b4 5F66 6E61 	.string"_fnargs"
 9908      7267 7300 
 9909               	.LASF61:
 9910 11bc 5F5F 746D 	.string"__tm_isdst"
 9910      5F69 7364 
 9910      7374 00
 9911               	.LASF230:
68K GAS   			page 237


 9912 11c7 4346 455F 	.string"CFE_EVS_Log_t"
 9912      4556 535F 
 9912      4C6F 675F 
 9912      7400 
 9913               	.LASF262:
 9914 11d5 436F 6E74 	.string"Context"
 9914      6578 7400 
 9915               	.LASF249:
 9916 11dd 5761 7463 	.string"WatchdogWriteFlag"
 9916      6864 6F67 
 9916      5772 6974 
 9916      6546 6C61 
 9916      6700 
 9917               	.LASF147:
 9918 11ef 5F64 6179 	.string"_daylight"
 9918      6C69 6768 
 9918      7400 
 9919               	.LASF168:
 9920 11f9 4346 455F 	.string"CFE_SB_MsgPtr_t"
 9920      5342 5F4D 
 9920      7367 5074 
 9920      725F 7400 
 9921               	.LASF54:
 9922 1209 5F5F 746D 	.string"__tm_min"
 9922      5F6D 696E 
 9922      00
 9923               	.LASF295:
 9924 1212 5265 7365 	.string"ResetVars"
 9924      7456 6172 
 9924      7300 
 9925               	.LASF9:
 9926 121c 7569 6E74 	.string"uint16"
 9926      3136 00
 9927               	.LASF130:
 9928 1223 5F67 6574 	.string"_getdate_err"
 9928      6461 7465 
 9928      5F65 7272 
 9928      00
 9929               	.LASF192:
 9930 1230 4346 455F 	.string"CFE_EVS_AppTlmData_t"
 9930      4556 535F 
 9930      4170 7054 
 9930      6C6D 4461 
 9930      7461 5F74 
 9931               	.LASF172:
 9932 1245 4346 455F 	.string"CFE_SB_Qos_t"
 9932      5342 5F51 
 9932      6F73 5F74 
 9932      00
 9933               	.LASF324:
 9934 1252 4346 455F 	.string"CFE_EVS_DisablePortsCmd"
 9934      4556 535F 
 9934      4469 7361 
 9934      626C 6550 
 9934      6F72 7473 
 9935               	.ident"GCC: (GNU) 7.3.0 20180125 (RTEMS 5, RSB d2b25d131d55adcb38219f2cd8cbec2436ee78ab, Newlib 3.0.0)"
68K GAS   			page 238


DEFINED SYMBOLS
                            *ABS*:0000000000000000 cfe_evs_task.c
                            *COM*:00000000000009ec CFE_EVS_GlobalData
    {standard input}:26     .text:0000000000000000 CFE_EVS_EarlyInit
    {standard input}:335    .text:00000000000002b0 CFE_EVS_CleanUpApp
    {standard input}:394    .text:000000000000030e CFE_EVS_TaskMain
    {standard input}:541    .text:00000000000003f8 CFE_EVS_TaskInit
    {standard input}:749    .text:000000000000059c CFE_EVS_ProcessCommandPacket
    {standard input}:831    .text:000000000000061c CFE_EVS_ProcessGroundCommand
    {standard input}:1698   .text:0000000000000cf2 CFE_EVS_ReportHousekeepingCmd
    {standard input}:1607   .text:0000000000000c4e CFE_EVS_VerifyCmdLength
    {standard input}:1836   .text:0000000000000e46 CFE_EVS_ResetCountersCmd
    {standard input}:2399   .text:0000000000001290 CFE_EVS_EnableEventTypesCmd
    {standard input}:2516   .text:0000000000001368 CFE_EVS_DisableEventTypesCmd
    {standard input}:2635   .text:0000000000001440 CFE_EVS_SetEventFormatModeCmd
    {standard input}:2719   .text:00000000000014cc CFE_EVS_EnableAppEventTypesCmd
    {standard input}:2932   .text:000000000000167e CFE_EVS_DisableAppEventTypesCmd
    {standard input}:3143   .text:0000000000001830 CFE_EVS_EnableAppEventsCmd
    {standard input}:3300   .text:0000000000001962 CFE_EVS_DisableAppEventsCmd
    {standard input}:3460   .text:0000000000001a9a CFE_EVS_ResetAppEventCounterCmd
    {standard input}:1886   .text:0000000000000e8a CFE_EVS_SetFilterMaskCmd
    {standard input}:2107   .text:0000000000001050 CFE_EVS_EnablePortsCmd
    {standard input}:2253   .text:0000000000001170 CFE_EVS_DisablePortsCmd
    {standard input}:3617   .text:0000000000001bcc CFE_EVS_ResetFilterCmd
    {standard input}:3825   .text:0000000000001d7a CFE_EVS_ResetAllFiltersCmd
    {standard input}:4005   .text:0000000000001ece CFE_EVS_AddEventFilterCmd
    {standard input}:4260   .text:00000000000020e8 CFE_EVS_DeleteEventFilterCmd
    {standard input}:4485   .text:00000000000022ac CFE_EVS_WriteAppDataCmd
    {standard input}:4724   .bss:0000000000000000 AppDataFile.5637

UNDEFINED SYMBOLS
CFE_PSP_MemSet
CFE_SB_InitMsg
CFE_PSP_GetResetArea
CFE_ES_WriteToSysLog
OS_MutSemCreate
CFE_ES_GetResetType
EVS_ClearLog
CFE_ES_PerfLogAdd
CFE_ES_ExitApp
CFE_ES_WaitForStartupSync
CFE_ES_IncrementTaskCounter
CFE_SB_RcvMsg
CFE_ES_RegisterApp
EVS_GetAppID
CFE_EVS_Register
CFE_SB_CreatePipe
CFE_SB_Default_Qos
CFE_SB_SubscribeEx
EVS_SendEvent
CFE_SB_GetMsgId
CFE_SB_GetCmdCode
CFE_EVS_SetLoggingModeCmd
CFE_EVS_WriteLogFileCmd
CFE_SB_GetTotalMsgLength
CFE_SB_TimeStampMsg
CFE_SB_SendMsg
68K GAS   			page 239


CFE_SB_MessageStringGet
EVS_GetApplicationInfo
EVS_FindEventID
EVS_EnableTypes
EVS_DisableTypes
OS_creat
CFE_FS_InitHeader
CFE_FS_WriteHeader
CFE_ES_GetAppName
CFE_PSP_MemCpy
OS_write
OS_close
