68K GAS   			page 1


   1               	
   2               	.file"cfe_time_api.c"
   3               	.text
   4               	.Ltext0:
   5               	.cfi_sections.debug_frame
   6               	.align2
   7               	.globlCFE_TIME_GetTime
   8               	.typeCFE_TIME_GetTime, @function
   9               	CFE_TIME_GetTime:
  10               	.LFB59:
  11               	.file 1 "/home/simulink/cFS_FreeRTOS_seL4/cfe/fsw/cfe-core/src/time/cfe_time_api.c"
   1:/home/simulink/cFS_FreeRTOS_seL4/cfe/fsw/cfe-core/src/time/cfe_time_api.c **** /*
   2:/home/simulink/cFS_FreeRTOS_seL4/cfe/fsw/cfe-core/src/time/cfe_time_api.c **** ** $Id: cfe_time_api.c 1.7 2012/01/13 12:21:34GMT-05:00 acudmore Exp  $
   3:/home/simulink/cFS_FreeRTOS_seL4/cfe/fsw/cfe-core/src/time/cfe_time_api.c **** **
   4:/home/simulink/cFS_FreeRTOS_seL4/cfe/fsw/cfe-core/src/time/cfe_time_api.c **** **
   5:/home/simulink/cFS_FreeRTOS_seL4/cfe/fsw/cfe-core/src/time/cfe_time_api.c **** **      Copyright (c) 2004-2012, United States government as represented by the 
   6:/home/simulink/cFS_FreeRTOS_seL4/cfe/fsw/cfe-core/src/time/cfe_time_api.c **** **      administrator of the National Aeronautics Space Administration.  
   7:/home/simulink/cFS_FreeRTOS_seL4/cfe/fsw/cfe-core/src/time/cfe_time_api.c **** **      All rights reserved. This software(cFE) was created at NASA's Goddard 
   8:/home/simulink/cFS_FreeRTOS_seL4/cfe/fsw/cfe-core/src/time/cfe_time_api.c **** **      Space Flight Center pursuant to government contracts.
   9:/home/simulink/cFS_FreeRTOS_seL4/cfe/fsw/cfe-core/src/time/cfe_time_api.c **** **
  10:/home/simulink/cFS_FreeRTOS_seL4/cfe/fsw/cfe-core/src/time/cfe_time_api.c **** **      This is governed by the NASA Open Source Agreement and may be used, 
  11:/home/simulink/cFS_FreeRTOS_seL4/cfe/fsw/cfe-core/src/time/cfe_time_api.c **** **      distributed and modified only pursuant to the terms of that agreement.
  12:/home/simulink/cFS_FreeRTOS_seL4/cfe/fsw/cfe-core/src/time/cfe_time_api.c **** ** 
  13:/home/simulink/cFS_FreeRTOS_seL4/cfe/fsw/cfe-core/src/time/cfe_time_api.c **** **
  14:/home/simulink/cFS_FreeRTOS_seL4/cfe/fsw/cfe-core/src/time/cfe_time_api.c **** **
  15:/home/simulink/cFS_FreeRTOS_seL4/cfe/fsw/cfe-core/src/time/cfe_time_api.c **** ** Purpose:  cFE Time Services (TIME) library API source file
  16:/home/simulink/cFS_FreeRTOS_seL4/cfe/fsw/cfe-core/src/time/cfe_time_api.c **** **
  17:/home/simulink/cFS_FreeRTOS_seL4/cfe/fsw/cfe-core/src/time/cfe_time_api.c **** ** Author:   S.Walling/Microtel
  18:/home/simulink/cFS_FreeRTOS_seL4/cfe/fsw/cfe-core/src/time/cfe_time_api.c **** **
  19:/home/simulink/cFS_FreeRTOS_seL4/cfe/fsw/cfe-core/src/time/cfe_time_api.c **** ** Notes:    Partially derived from SDO source code
  20:/home/simulink/cFS_FreeRTOS_seL4/cfe/fsw/cfe-core/src/time/cfe_time_api.c **** **
  21:/home/simulink/cFS_FreeRTOS_seL4/cfe/fsw/cfe-core/src/time/cfe_time_api.c **** ** $Log: cfe_time_api.c  $
  22:/home/simulink/cFS_FreeRTOS_seL4/cfe/fsw/cfe-core/src/time/cfe_time_api.c **** ** Revision 1.7 2012/01/13 12:21:34GMT-05:00 acudmore 
  23:/home/simulink/cFS_FreeRTOS_seL4/cfe/fsw/cfe-core/src/time/cfe_time_api.c **** ** Changed license text to reflect open source
  24:/home/simulink/cFS_FreeRTOS_seL4/cfe/fsw/cfe-core/src/time/cfe_time_api.c **** ** Revision 1.6 2011/11/30 15:10:03EST jmdagost 
  25:/home/simulink/cFS_FreeRTOS_seL4/cfe/fsw/cfe-core/src/time/cfe_time_api.c **** ** Replaced ifdef/ifndef preprocessor tests with if...==TRUE/if...!=TRUE tests
  26:/home/simulink/cFS_FreeRTOS_seL4/cfe/fsw/cfe-core/src/time/cfe_time_api.c **** ** Revision 1.5 2010/10/25 15:00:06EDT jmdagost 
  27:/home/simulink/cFS_FreeRTOS_seL4/cfe/fsw/cfe-core/src/time/cfe_time_api.c **** ** Corrected bad apostrophe in prologue.
  28:/home/simulink/cFS_FreeRTOS_seL4/cfe/fsw/cfe-core/src/time/cfe_time_api.c **** ** Revision 1.4 2010/10/04 15:16:32EDT jmdagost 
  29:/home/simulink/cFS_FreeRTOS_seL4/cfe/fsw/cfe-core/src/time/cfe_time_api.c **** ** Cleaned up copyright symbol.
  30:/home/simulink/cFS_FreeRTOS_seL4/cfe/fsw/cfe-core/src/time/cfe_time_api.c **** ** Revision 1.3 2009/06/10 09:23:03EDT acudmore 
  31:/home/simulink/cFS_FreeRTOS_seL4/cfe/fsw/cfe-core/src/time/cfe_time_api.c **** ** Changed OS_Mem* and OS_BSP* calls to CFE_PSP_* calls
  32:/home/simulink/cFS_FreeRTOS_seL4/cfe/fsw/cfe-core/src/time/cfe_time_api.c **** ** Revision 1.2 2008/08/06 22:42:27EDT dkobe 
  33:/home/simulink/cFS_FreeRTOS_seL4/cfe/fsw/cfe-core/src/time/cfe_time_api.c **** ** Added CFE_TIME_RegisterSynchCallback, CFE_TIME_UnregisterSynchCallback and CFE_TIME_CleanUpApp
  34:/home/simulink/cFS_FreeRTOS_seL4/cfe/fsw/cfe-core/src/time/cfe_time_api.c **** ** Revision 1.1 2008/04/17 08:05:38EDT ruperera 
  35:/home/simulink/cFS_FreeRTOS_seL4/cfe/fsw/cfe-core/src/time/cfe_time_api.c **** ** Initial revision
  36:/home/simulink/cFS_FreeRTOS_seL4/cfe/fsw/cfe-core/src/time/cfe_time_api.c **** ** Member added to project c:/MKSDATA/MKS-REPOSITORY/MKS-CFE-PROJECT/fsw/cfe-core/src/time/project.
  37:/home/simulink/cFS_FreeRTOS_seL4/cfe/fsw/cfe-core/src/time/cfe_time_api.c **** ** Revision 1.9 2007/03/07 10:54:24EST njyanchik 
  38:/home/simulink/cFS_FreeRTOS_seL4/cfe/fsw/cfe-core/src/time/cfe_time_api.c **** ** I added a IsToneGood bit to the information that CFE_TIME_GetClockInfo function returns. The dec
  39:/home/simulink/cFS_FreeRTOS_seL4/cfe/fsw/cfe-core/src/time/cfe_time_api.c **** ** 1 second after the previous one, it is still considered good, otherwise, the tone is not good.
  40:/home/simulink/cFS_FreeRTOS_seL4/cfe/fsw/cfe-core/src/time/cfe_time_api.c **** ** Revision 1.8 2007/03/07 10:43:47EST njyanchik 
  41:/home/simulink/cFS_FreeRTOS_seL4/cfe/fsw/cfe-core/src/time/cfe_time_api.c **** ** I made a new API called CFE_TIME_GetClockInfo that is functionally equivilant to CFE_TIME_GetSta
  42:/home/simulink/cFS_FreeRTOS_seL4/cfe/fsw/cfe-core/src/time/cfe_time_api.c **** ** will get changed in a future DCR (3191).
  43:/home/simulink/cFS_FreeRTOS_seL4/cfe/fsw/cfe-core/src/time/cfe_time_api.c **** ** Revision 1.7 2006/07/28 10:17:12EDT njyanchik 
  44:/home/simulink/cFS_FreeRTOS_seL4/cfe/fsw/cfe-core/src/time/cfe_time_api.c **** ** Fix of LDRA errors
  45:/home/simulink/cFS_FreeRTOS_seL4/cfe/fsw/cfe-core/src/time/cfe_time_api.c **** ** Revision 1.6 2006/06/08 14:15:50EDT njyanchik 
  46:/home/simulink/cFS_FreeRTOS_seL4/cfe/fsw/cfe-core/src/time/cfe_time_api.c **** ** I added the appropriate legal headers to all of the time files
68K GAS   			page 2


  47:/home/simulink/cFS_FreeRTOS_seL4/cfe/fsw/cfe-core/src/time/cfe_time_api.c **** ** Revision 1.5 2006/05/18 13:34:22EDT njyanchik 
  48:/home/simulink/cFS_FreeRTOS_seL4/cfe/fsw/cfe-core/src/time/cfe_time_api.c **** ** The conversions between microsecs and sub secs left 999999 us as 0xFFFFE000 subseconds,
  49:/home/simulink/cFS_FreeRTOS_seL4/cfe/fsw/cfe-core/src/time/cfe_time_api.c **** ** when 0xFFFFF000 is expected, causing the additions in the frequency to be off. Tthis change
  50:/home/simulink/cFS_FreeRTOS_seL4/cfe/fsw/cfe-core/src/time/cfe_time_api.c **** ** adds an extra factor that bumps the output so that 999999 meets 0xFFFFF000.
  51:/home/simulink/cFS_FreeRTOS_seL4/cfe/fsw/cfe-core/src/time/cfe_time_api.c **** ** Revision 1.4 2006/05/04 09:29:02EDT njyanchik 
  52:/home/simulink/cFS_FreeRTOS_seL4/cfe/fsw/cfe-core/src/time/cfe_time_api.c **** ** Added MET to default spacecraft time conversion
  53:/home/simulink/cFS_FreeRTOS_seL4/cfe/fsw/cfe-core/src/time/cfe_time_api.c **** ** API is CFE_TIME_SysTime_t CFE_TIME_MET2SCTime (CFE_TIME_SysTime_t METTime)
  54:/home/simulink/cFS_FreeRTOS_seL4/cfe/fsw/cfe-core/src/time/cfe_time_api.c **** ** Revision 1.3 2006/01/27 07:51:19EST njyanchik 
  55:/home/simulink/cFS_FreeRTOS_seL4/cfe/fsw/cfe-core/src/time/cfe_time_api.c **** ** modified CFE_TIME_Sub2MicroSecs to stop drift. If the Subseconds % 0x4000000 != 0 then we
  56:/home/simulink/cFS_FreeRTOS_seL4/cfe/fsw/cfe-core/src/time/cfe_time_api.c **** **  will need to add 1 to the result. This will prevent the drift. Also, added in a check that prev
  57:/home/simulink/cFS_FreeRTOS_seL4/cfe/fsw/cfe-core/src/time/cfe_time_api.c **** ** the number of microseconds from ever getting to 1000000.
  58:/home/simulink/cFS_FreeRTOS_seL4/cfe/fsw/cfe-core/src/time/cfe_time_api.c **** ** Revision 1.2 2005/07/21 15:28:30EDT lswalling 
  59:/home/simulink/cFS_FreeRTOS_seL4/cfe/fsw/cfe-core/src/time/cfe_time_api.c **** ** Add Time print API function
  60:/home/simulink/cFS_FreeRTOS_seL4/cfe/fsw/cfe-core/src/time/cfe_time_api.c **** ** Revision 1.1 2005/06/09 10:57:56EDT rperera 
  61:/home/simulink/cFS_FreeRTOS_seL4/cfe/fsw/cfe-core/src/time/cfe_time_api.c **** ** Initial revision
  62:/home/simulink/cFS_FreeRTOS_seL4/cfe/fsw/cfe-core/src/time/cfe_time_api.c **** ** Member added to project d:/mksdata/MKS-CFE-REPOSITORY/cfe-core/time/project.pj
  63:/home/simulink/cFS_FreeRTOS_seL4/cfe/fsw/cfe-core/src/time/cfe_time_api.c **** */
  64:/home/simulink/cFS_FreeRTOS_seL4/cfe/fsw/cfe-core/src/time/cfe_time_api.c **** 
  65:/home/simulink/cFS_FreeRTOS_seL4/cfe/fsw/cfe-core/src/time/cfe_time_api.c **** 
  66:/home/simulink/cFS_FreeRTOS_seL4/cfe/fsw/cfe-core/src/time/cfe_time_api.c **** /*
  67:/home/simulink/cFS_FreeRTOS_seL4/cfe/fsw/cfe-core/src/time/cfe_time_api.c **** ** Required header files...
  68:/home/simulink/cFS_FreeRTOS_seL4/cfe/fsw/cfe-core/src/time/cfe_time_api.c **** */
  69:/home/simulink/cFS_FreeRTOS_seL4/cfe/fsw/cfe-core/src/time/cfe_time_api.c **** #include "cfe_time_utils.h"
  70:/home/simulink/cFS_FreeRTOS_seL4/cfe/fsw/cfe-core/src/time/cfe_time_api.c **** 
  71:/home/simulink/cFS_FreeRTOS_seL4/cfe/fsw/cfe-core/src/time/cfe_time_api.c **** /* * * * * * * * * * * * * * * * * * * * * * * * * * * * * * * * * * * * * */
  72:/home/simulink/cFS_FreeRTOS_seL4/cfe/fsw/cfe-core/src/time/cfe_time_api.c **** /*                                                                         */
  73:/home/simulink/cFS_FreeRTOS_seL4/cfe/fsw/cfe-core/src/time/cfe_time_api.c **** /* CFE_TIME_GetTime() -- get time in default format (TAI vs UTC)           */
  74:/home/simulink/cFS_FreeRTOS_seL4/cfe/fsw/cfe-core/src/time/cfe_time_api.c **** /*                                                                         */
  75:/home/simulink/cFS_FreeRTOS_seL4/cfe/fsw/cfe-core/src/time/cfe_time_api.c **** /* * * * * * * * * * * * * * * * * * * * * * * * * * * * * * * * * * * * * */
  76:/home/simulink/cFS_FreeRTOS_seL4/cfe/fsw/cfe-core/src/time/cfe_time_api.c **** 
  77:/home/simulink/cFS_FreeRTOS_seL4/cfe/fsw/cfe-core/src/time/cfe_time_api.c **** CFE_TIME_SysTime_t   CFE_TIME_GetTime(void)
  78:/home/simulink/cFS_FreeRTOS_seL4/cfe/fsw/cfe-core/src/time/cfe_time_api.c **** {
  12               	.loc 1 78 0
  13               	.cfi_startproc
  14 0000 518F      	subq.l #8,%sp
  15               	.cfi_def_cfa_offset 12
  79:/home/simulink/cFS_FreeRTOS_seL4/cfe/fsw/cfe-core/src/time/cfe_time_api.c ****     CFE_TIME_SysTime_t CurrentTime;
  80:/home/simulink/cFS_FreeRTOS_seL4/cfe/fsw/cfe-core/src/time/cfe_time_api.c **** 
  81:/home/simulink/cFS_FreeRTOS_seL4/cfe/fsw/cfe-core/src/time/cfe_time_api.c **** #if (CFE_TIME_CFG_DEFAULT_TAI == TRUE)
  82:/home/simulink/cFS_FreeRTOS_seL4/cfe/fsw/cfe-core/src/time/cfe_time_api.c **** 
  83:/home/simulink/cFS_FreeRTOS_seL4/cfe/fsw/cfe-core/src/time/cfe_time_api.c ****     CurrentTime = CFE_TIME_GetTAI();
  16               	.loc 1 83 0
  17 0002 4EB9 0000 	jsr CFE_TIME_GetTAI
  17      0000 
  18 0008 2E80      	move.l %d0,(%sp)
  19 000a 2F41 0004 	move.l %d1,4(%sp)
  84:/home/simulink/cFS_FreeRTOS_seL4/cfe/fsw/cfe-core/src/time/cfe_time_api.c **** 
  85:/home/simulink/cFS_FreeRTOS_seL4/cfe/fsw/cfe-core/src/time/cfe_time_api.c **** #else
  86:/home/simulink/cFS_FreeRTOS_seL4/cfe/fsw/cfe-core/src/time/cfe_time_api.c **** 
  87:/home/simulink/cFS_FreeRTOS_seL4/cfe/fsw/cfe-core/src/time/cfe_time_api.c ****     CurrentTime = CFE_TIME_GetUTC();
  88:/home/simulink/cFS_FreeRTOS_seL4/cfe/fsw/cfe-core/src/time/cfe_time_api.c **** 
  89:/home/simulink/cFS_FreeRTOS_seL4/cfe/fsw/cfe-core/src/time/cfe_time_api.c **** #endif
  90:/home/simulink/cFS_FreeRTOS_seL4/cfe/fsw/cfe-core/src/time/cfe_time_api.c **** 
  91:/home/simulink/cFS_FreeRTOS_seL4/cfe/fsw/cfe-core/src/time/cfe_time_api.c ****     return(CurrentTime);
  20               	.loc 1 91 0
  21 000e 2017      	move.l (%sp),%d0
  22 0010 222F 0004 	move.l 4(%sp),%d1
68K GAS   			page 3


  92:/home/simulink/cFS_FreeRTOS_seL4/cfe/fsw/cfe-core/src/time/cfe_time_api.c **** 
  93:/home/simulink/cFS_FreeRTOS_seL4/cfe/fsw/cfe-core/src/time/cfe_time_api.c **** } /* End of CFE_TIME_GetTime() */
  23               	.loc 1 93 0
  24 0014 508F      	addq.l #8,%sp
  25 0016 4E75      	rts
  26               	.cfi_endproc
  27               	.LFE59:
  28               	.sizeCFE_TIME_GetTime, .-CFE_TIME_GetTime
  29               	.align2
  30               	.globlCFE_TIME_GetTAI
  31               	.typeCFE_TIME_GetTAI, @function
  32               	CFE_TIME_GetTAI:
  33               	.LFB60:
  94:/home/simulink/cFS_FreeRTOS_seL4/cfe/fsw/cfe-core/src/time/cfe_time_api.c **** 
  95:/home/simulink/cFS_FreeRTOS_seL4/cfe/fsw/cfe-core/src/time/cfe_time_api.c **** 
  96:/home/simulink/cFS_FreeRTOS_seL4/cfe/fsw/cfe-core/src/time/cfe_time_api.c **** /* * * * * * * * * * * * * * * * * * * * * * * * * * * * * * * * * * * * * */
  97:/home/simulink/cFS_FreeRTOS_seL4/cfe/fsw/cfe-core/src/time/cfe_time_api.c **** /*                                                                         */
  98:/home/simulink/cFS_FreeRTOS_seL4/cfe/fsw/cfe-core/src/time/cfe_time_api.c **** /* CFE_TIME_GetTAI() -- get time in TAI format (TAI vs UTC)                */
  99:/home/simulink/cFS_FreeRTOS_seL4/cfe/fsw/cfe-core/src/time/cfe_time_api.c **** /*                                                                         */
 100:/home/simulink/cFS_FreeRTOS_seL4/cfe/fsw/cfe-core/src/time/cfe_time_api.c **** /* * * * * * * * * * * * * * * * * * * * * * * * * * * * * * * * * * * * * */
 101:/home/simulink/cFS_FreeRTOS_seL4/cfe/fsw/cfe-core/src/time/cfe_time_api.c **** 
 102:/home/simulink/cFS_FreeRTOS_seL4/cfe/fsw/cfe-core/src/time/cfe_time_api.c **** CFE_TIME_SysTime_t   CFE_TIME_GetTAI(void)
 103:/home/simulink/cFS_FreeRTOS_seL4/cfe/fsw/cfe-core/src/time/cfe_time_api.c **** {
  34               	.loc 1 103 0
  35               	.cfi_startproc
  36 0018 4FEF FFB8 	lea (-72,%sp),%sp
  37               	.cfi_def_cfa_offset 76
 104:/home/simulink/cFS_FreeRTOS_seL4/cfe/fsw/cfe-core/src/time/cfe_time_api.c ****     CFE_TIME_Reference_t Reference;
 105:/home/simulink/cFS_FreeRTOS_seL4/cfe/fsw/cfe-core/src/time/cfe_time_api.c ****     CFE_TIME_SysTime_t tai;
 106:/home/simulink/cFS_FreeRTOS_seL4/cfe/fsw/cfe-core/src/time/cfe_time_api.c **** 
 107:/home/simulink/cFS_FreeRTOS_seL4/cfe/fsw/cfe-core/src/time/cfe_time_api.c ****     /* Zero out the Reference variable because we pass it into
 108:/home/simulink/cFS_FreeRTOS_seL4/cfe/fsw/cfe-core/src/time/cfe_time_api.c ****      * a function before using it
 109:/home/simulink/cFS_FreeRTOS_seL4/cfe/fsw/cfe-core/src/time/cfe_time_api.c ****      * */
 110:/home/simulink/cFS_FreeRTOS_seL4/cfe/fsw/cfe-core/src/time/cfe_time_api.c ****     CFE_PSP_MemSet(&Reference, 0 , sizeof(CFE_TIME_Reference_t));
  38               	.loc 1 110 0
  39 001c 4878 0040 	pea 64.w
  40               	.cfi_def_cfa_offset 80
  41 0020 42A7      	clr.l -(%sp)
  42               	.cfi_def_cfa_offset 84
  43 0022 200F      	move.l %sp,%d0
  44 0024 0680 0000 	add.l #16,%d0
  44      0010 
  45 002a 2F00      	move.l %d0,-(%sp)
  46               	.cfi_def_cfa_offset 88
  47 002c 4EB9 0000 	jsr CFE_PSP_MemSet
  47      0000 
  48 0032 4FEF 000C 	lea (12,%sp),%sp
  49               	.cfi_def_cfa_offset 76
 111:/home/simulink/cFS_FreeRTOS_seL4/cfe/fsw/cfe-core/src/time/cfe_time_api.c ****     
 112:/home/simulink/cFS_FreeRTOS_seL4/cfe/fsw/cfe-core/src/time/cfe_time_api.c ****     /*
 113:/home/simulink/cFS_FreeRTOS_seL4/cfe/fsw/cfe-core/src/time/cfe_time_api.c ****     ** Get reference time values (local time, time at tone, etc.)...
 114:/home/simulink/cFS_FreeRTOS_seL4/cfe/fsw/cfe-core/src/time/cfe_time_api.c ****     */
 115:/home/simulink/cFS_FreeRTOS_seL4/cfe/fsw/cfe-core/src/time/cfe_time_api.c ****     CFE_TIME_GetReference(&Reference);
  50               	.loc 1 115 0
  51 0036 200F      	move.l %sp,%d0
  52 0038 5080      	addq.l #8,%d0
  53 003a 2F00      	move.l %d0,-(%sp)
68K GAS   			page 4


  54               	.cfi_def_cfa_offset 80
  55 003c 4EB9 0000 	jsr CFE_TIME_GetReference
  55      0000 
  56 0042 588F      	addq.l #4,%sp
  57               	.cfi_def_cfa_offset 76
 116:/home/simulink/cFS_FreeRTOS_seL4/cfe/fsw/cfe-core/src/time/cfe_time_api.c **** 
 117:/home/simulink/cFS_FreeRTOS_seL4/cfe/fsw/cfe-core/src/time/cfe_time_api.c ****     /*
 118:/home/simulink/cFS_FreeRTOS_seL4/cfe/fsw/cfe-core/src/time/cfe_time_api.c ****     ** Calculate current TAI...
 119:/home/simulink/cFS_FreeRTOS_seL4/cfe/fsw/cfe-core/src/time/cfe_time_api.c ****     */
 120:/home/simulink/cFS_FreeRTOS_seL4/cfe/fsw/cfe-core/src/time/cfe_time_api.c ****     tai = CFE_TIME_CalculateTAI(&Reference);
  58               	.loc 1 120 0
  59 0044 200F      	move.l %sp,%d0
  60 0046 5080      	addq.l #8,%d0
  61 0048 2F00      	move.l %d0,-(%sp)
  62               	.cfi_def_cfa_offset 80
  63 004a 4EB9 0000 	jsr CFE_TIME_CalculateTAI
  63      0000 
  64 0050 588F      	addq.l #4,%sp
  65               	.cfi_def_cfa_offset 76
  66 0052 2E80      	move.l %d0,(%sp)
  67 0054 2F41 0004 	move.l %d1,4(%sp)
 121:/home/simulink/cFS_FreeRTOS_seL4/cfe/fsw/cfe-core/src/time/cfe_time_api.c **** 
 122:/home/simulink/cFS_FreeRTOS_seL4/cfe/fsw/cfe-core/src/time/cfe_time_api.c ****     return(tai);
  68               	.loc 1 122 0
  69 0058 2017      	move.l (%sp),%d0
  70 005a 222F 0004 	move.l 4(%sp),%d1
 123:/home/simulink/cFS_FreeRTOS_seL4/cfe/fsw/cfe-core/src/time/cfe_time_api.c **** 
 124:/home/simulink/cFS_FreeRTOS_seL4/cfe/fsw/cfe-core/src/time/cfe_time_api.c **** } /* End of CFE_TIME_GetTAI() */
  71               	.loc 1 124 0
  72 005e 4FEF 0048 	lea (72,%sp),%sp
  73 0062 4E75      	rts
  74               	.cfi_endproc
  75               	.LFE60:
  76               	.sizeCFE_TIME_GetTAI, .-CFE_TIME_GetTAI
  77               	.align2
  78               	.globlCFE_TIME_GetUTC
  79               	.typeCFE_TIME_GetUTC, @function
  80               	CFE_TIME_GetUTC:
  81               	.LFB61:
 125:/home/simulink/cFS_FreeRTOS_seL4/cfe/fsw/cfe-core/src/time/cfe_time_api.c **** 
 126:/home/simulink/cFS_FreeRTOS_seL4/cfe/fsw/cfe-core/src/time/cfe_time_api.c **** 
 127:/home/simulink/cFS_FreeRTOS_seL4/cfe/fsw/cfe-core/src/time/cfe_time_api.c **** /* * * * * * * * * * * * * * * * * * * * * * * * * * * * * * * * * * * * * */
 128:/home/simulink/cFS_FreeRTOS_seL4/cfe/fsw/cfe-core/src/time/cfe_time_api.c **** /*                                                                         */
 129:/home/simulink/cFS_FreeRTOS_seL4/cfe/fsw/cfe-core/src/time/cfe_time_api.c **** /* CFE_TIME_GetUTC() -- get time in UTC format (TAI vs UTC)                */
 130:/home/simulink/cFS_FreeRTOS_seL4/cfe/fsw/cfe-core/src/time/cfe_time_api.c **** /*                                                                         */
 131:/home/simulink/cFS_FreeRTOS_seL4/cfe/fsw/cfe-core/src/time/cfe_time_api.c **** /* * * * * * * * * * * * * * * * * * * * * * * * * * * * * * * * * * * * * */
 132:/home/simulink/cFS_FreeRTOS_seL4/cfe/fsw/cfe-core/src/time/cfe_time_api.c **** 
 133:/home/simulink/cFS_FreeRTOS_seL4/cfe/fsw/cfe-core/src/time/cfe_time_api.c **** CFE_TIME_SysTime_t   CFE_TIME_GetUTC(void)
 134:/home/simulink/cFS_FreeRTOS_seL4/cfe/fsw/cfe-core/src/time/cfe_time_api.c **** {
  82               	.loc 1 134 0
  83               	.cfi_startproc
  84 0064 4FEF FFB8 	lea (-72,%sp),%sp
  85               	.cfi_def_cfa_offset 76
 135:/home/simulink/cFS_FreeRTOS_seL4/cfe/fsw/cfe-core/src/time/cfe_time_api.c ****     CFE_TIME_Reference_t Reference;
 136:/home/simulink/cFS_FreeRTOS_seL4/cfe/fsw/cfe-core/src/time/cfe_time_api.c ****     CFE_TIME_SysTime_t utc;
 137:/home/simulink/cFS_FreeRTOS_seL4/cfe/fsw/cfe-core/src/time/cfe_time_api.c **** 
 138:/home/simulink/cFS_FreeRTOS_seL4/cfe/fsw/cfe-core/src/time/cfe_time_api.c ****     /* Zero out the Reference variable because we pass it into
68K GAS   			page 5


 139:/home/simulink/cFS_FreeRTOS_seL4/cfe/fsw/cfe-core/src/time/cfe_time_api.c ****      * a function before using it
 140:/home/simulink/cFS_FreeRTOS_seL4/cfe/fsw/cfe-core/src/time/cfe_time_api.c ****      * */
 141:/home/simulink/cFS_FreeRTOS_seL4/cfe/fsw/cfe-core/src/time/cfe_time_api.c ****     CFE_PSP_MemSet(&Reference, 0 , sizeof(CFE_TIME_Reference_t));
  86               	.loc 1 141 0
  87 0068 4878 0040 	pea 64.w
  88               	.cfi_def_cfa_offset 80
  89 006c 42A7      	clr.l -(%sp)
  90               	.cfi_def_cfa_offset 84
  91 006e 200F      	move.l %sp,%d0
  92 0070 0680 0000 	add.l #16,%d0
  92      0010 
  93 0076 2F00      	move.l %d0,-(%sp)
  94               	.cfi_def_cfa_offset 88
  95 0078 4EB9 0000 	jsr CFE_PSP_MemSet
  95      0000 
  96 007e 4FEF 000C 	lea (12,%sp),%sp
  97               	.cfi_def_cfa_offset 76
 142:/home/simulink/cFS_FreeRTOS_seL4/cfe/fsw/cfe-core/src/time/cfe_time_api.c ****     /*
 143:/home/simulink/cFS_FreeRTOS_seL4/cfe/fsw/cfe-core/src/time/cfe_time_api.c ****     ** Get reference time values (local time, time at tone, etc.)...
 144:/home/simulink/cFS_FreeRTOS_seL4/cfe/fsw/cfe-core/src/time/cfe_time_api.c ****     */
 145:/home/simulink/cFS_FreeRTOS_seL4/cfe/fsw/cfe-core/src/time/cfe_time_api.c ****     CFE_TIME_GetReference(&Reference);
  98               	.loc 1 145 0
  99 0082 200F      	move.l %sp,%d0
 100 0084 5080      	addq.l #8,%d0
 101 0086 2F00      	move.l %d0,-(%sp)
 102               	.cfi_def_cfa_offset 80
 103 0088 4EB9 0000 	jsr CFE_TIME_GetReference
 103      0000 
 104 008e 588F      	addq.l #4,%sp
 105               	.cfi_def_cfa_offset 76
 146:/home/simulink/cFS_FreeRTOS_seL4/cfe/fsw/cfe-core/src/time/cfe_time_api.c **** 
 147:/home/simulink/cFS_FreeRTOS_seL4/cfe/fsw/cfe-core/src/time/cfe_time_api.c ****     /*
 148:/home/simulink/cFS_FreeRTOS_seL4/cfe/fsw/cfe-core/src/time/cfe_time_api.c ****     ** Calculate current UTC...
 149:/home/simulink/cFS_FreeRTOS_seL4/cfe/fsw/cfe-core/src/time/cfe_time_api.c ****     */
 150:/home/simulink/cFS_FreeRTOS_seL4/cfe/fsw/cfe-core/src/time/cfe_time_api.c ****     utc = CFE_TIME_CalculateUTC(&Reference);
 106               	.loc 1 150 0
 107 0090 200F      	move.l %sp,%d0
 108 0092 5080      	addq.l #8,%d0
 109 0094 2F00      	move.l %d0,-(%sp)
 110               	.cfi_def_cfa_offset 80
 111 0096 4EB9 0000 	jsr CFE_TIME_CalculateUTC
 111      0000 
 112 009c 588F      	addq.l #4,%sp
 113               	.cfi_def_cfa_offset 76
 114 009e 2E80      	move.l %d0,(%sp)
 115 00a0 2F41 0004 	move.l %d1,4(%sp)
 151:/home/simulink/cFS_FreeRTOS_seL4/cfe/fsw/cfe-core/src/time/cfe_time_api.c **** 
 152:/home/simulink/cFS_FreeRTOS_seL4/cfe/fsw/cfe-core/src/time/cfe_time_api.c ****     return(utc);
 116               	.loc 1 152 0
 117 00a4 2017      	move.l (%sp),%d0
 118 00a6 222F 0004 	move.l 4(%sp),%d1
 153:/home/simulink/cFS_FreeRTOS_seL4/cfe/fsw/cfe-core/src/time/cfe_time_api.c **** 
 154:/home/simulink/cFS_FreeRTOS_seL4/cfe/fsw/cfe-core/src/time/cfe_time_api.c **** } /* End of CFE_TIME_GetUTC() */
 119               	.loc 1 154 0
 120 00aa 4FEF 0048 	lea (72,%sp),%sp
 121 00ae 4E75      	rts
 122               	.cfi_endproc
68K GAS   			page 6


 123               	.LFE61:
 124               	.sizeCFE_TIME_GetUTC, .-CFE_TIME_GetUTC
 125               	.align2
 126               	.globlCFE_TIME_MET2SCTime
 127               	.typeCFE_TIME_MET2SCTime, @function
 128               	CFE_TIME_MET2SCTime:
 129               	.LFB62:
 155:/home/simulink/cFS_FreeRTOS_seL4/cfe/fsw/cfe-core/src/time/cfe_time_api.c **** 
 156:/home/simulink/cFS_FreeRTOS_seL4/cfe/fsw/cfe-core/src/time/cfe_time_api.c **** /* * * * * * * * * * * * * * * * * * * * * * * * * * * * * * * * * * * * * */
 157:/home/simulink/cFS_FreeRTOS_seL4/cfe/fsw/cfe-core/src/time/cfe_time_api.c **** /*                                                                         */
 158:/home/simulink/cFS_FreeRTOS_seL4/cfe/fsw/cfe-core/src/time/cfe_time_api.c **** /* CFE_TIME_METtoSCTime() -- convert MET Time to default spacecraft time   */
 159:/home/simulink/cFS_FreeRTOS_seL4/cfe/fsw/cfe-core/src/time/cfe_time_api.c **** /*                                                                         */
 160:/home/simulink/cFS_FreeRTOS_seL4/cfe/fsw/cfe-core/src/time/cfe_time_api.c **** /* * * * * * * * * * * * * * * * * * * * * * * * * * * * * * * * * * * * * */
 161:/home/simulink/cFS_FreeRTOS_seL4/cfe/fsw/cfe-core/src/time/cfe_time_api.c **** 
 162:/home/simulink/cFS_FreeRTOS_seL4/cfe/fsw/cfe-core/src/time/cfe_time_api.c **** CFE_TIME_SysTime_t CFE_TIME_MET2SCTime (CFE_TIME_SysTime_t METTime)
 163:/home/simulink/cFS_FreeRTOS_seL4/cfe/fsw/cfe-core/src/time/cfe_time_api.c **** {
 130               	.loc 1 163 0
 131               	.cfi_startproc
 132 00b0 4FEF FFE8 	lea (-24,%sp),%sp
 133               	.cfi_def_cfa_offset 28
 164:/home/simulink/cFS_FreeRTOS_seL4/cfe/fsw/cfe-core/src/time/cfe_time_api.c **** 
 165:/home/simulink/cFS_FreeRTOS_seL4/cfe/fsw/cfe-core/src/time/cfe_time_api.c ****     CFE_TIME_SysTime_t STCF;
 166:/home/simulink/cFS_FreeRTOS_seL4/cfe/fsw/cfe-core/src/time/cfe_time_api.c ****     CFE_TIME_SysTime_t TIATime;
 167:/home/simulink/cFS_FreeRTOS_seL4/cfe/fsw/cfe-core/src/time/cfe_time_api.c ****     CFE_TIME_SysTime_t ReturnTime;
 168:/home/simulink/cFS_FreeRTOS_seL4/cfe/fsw/cfe-core/src/time/cfe_time_api.c **** #if (CFE_TIME_CFG_DEFAULT_TAI != TRUE)
 169:/home/simulink/cFS_FreeRTOS_seL4/cfe/fsw/cfe-core/src/time/cfe_time_api.c ****     CFE_TIME_SysTime_t LeapSecsAsSysTime;
 170:/home/simulink/cFS_FreeRTOS_seL4/cfe/fsw/cfe-core/src/time/cfe_time_api.c **** #endif
 171:/home/simulink/cFS_FreeRTOS_seL4/cfe/fsw/cfe-core/src/time/cfe_time_api.c ****     
 172:/home/simulink/cFS_FreeRTOS_seL4/cfe/fsw/cfe-core/src/time/cfe_time_api.c ****     STCF = CFE_TIME_GetSTCF();
 134               	.loc 1 172 0
 135 00b4 4EB9 0000 	jsr CFE_TIME_GetSTCF
 135      0000 
 136 00ba 2F40 0010 	move.l %d0,16(%sp)
 137 00be 2F41 0014 	move.l %d1,20(%sp)
 173:/home/simulink/cFS_FreeRTOS_seL4/cfe/fsw/cfe-core/src/time/cfe_time_api.c **** 
 174:/home/simulink/cFS_FreeRTOS_seL4/cfe/fsw/cfe-core/src/time/cfe_time_api.c ****     /* TIA = MET + STCF */
 175:/home/simulink/cFS_FreeRTOS_seL4/cfe/fsw/cfe-core/src/time/cfe_time_api.c ****     TIATime = CFE_TIME_Add(METTime, STCF);
 138               	.loc 1 175 0
 139 00c2 2F2F 0014 	move.l 20(%sp),-(%sp)
 140 00c6 2F2F 0014 	move.l 20(%sp),-(%sp)
 141               	.cfi_def_cfa_offset 36
 142 00ca 2F2F 0028 	move.l 40(%sp),-(%sp)
 143 00ce 2F2F 0028 	move.l 40(%sp),-(%sp)
 144               	.cfi_def_cfa_offset 44
 145 00d2 4EB9 0000 	jsr CFE_TIME_Add
 145      0000 
 146 00d8 4FEF 0010 	lea (16,%sp),%sp
 147               	.cfi_def_cfa_offset 28
 148 00dc 2F40 0008 	move.l %d0,8(%sp)
 149 00e0 2F41 000C 	move.l %d1,12(%sp)
 176:/home/simulink/cFS_FreeRTOS_seL4/cfe/fsw/cfe-core/src/time/cfe_time_api.c **** 
 177:/home/simulink/cFS_FreeRTOS_seL4/cfe/fsw/cfe-core/src/time/cfe_time_api.c **** #if (CFE_TIME_CFG_DEFAULT_TAI == TRUE)
 178:/home/simulink/cFS_FreeRTOS_seL4/cfe/fsw/cfe-core/src/time/cfe_time_api.c **** 
 179:/home/simulink/cFS_FreeRTOS_seL4/cfe/fsw/cfe-core/src/time/cfe_time_api.c ****     ReturnTime = TIATime;
 150               	.loc 1 179 0
 151 00e4 202F 0008 	move.l 8(%sp),%d0
 152 00e8 222F 000C 	move.l 12(%sp),%d1
68K GAS   			page 7


 153 00ec 2E80      	move.l %d0,(%sp)
 154 00ee 2F41 0004 	move.l %d1,4(%sp)
 180:/home/simulink/cFS_FreeRTOS_seL4/cfe/fsw/cfe-core/src/time/cfe_time_api.c **** 
 181:/home/simulink/cFS_FreeRTOS_seL4/cfe/fsw/cfe-core/src/time/cfe_time_api.c **** #else
 182:/home/simulink/cFS_FreeRTOS_seL4/cfe/fsw/cfe-core/src/time/cfe_time_api.c **** 
 183:/home/simulink/cFS_FreeRTOS_seL4/cfe/fsw/cfe-core/src/time/cfe_time_api.c ****     /* Put leap seconds in correct format */
 184:/home/simulink/cFS_FreeRTOS_seL4/cfe/fsw/cfe-core/src/time/cfe_time_api.c ****     LeapSecsAsSysTime.Seconds       = CFE_TIME_GetLeapSeconds();
 185:/home/simulink/cFS_FreeRTOS_seL4/cfe/fsw/cfe-core/src/time/cfe_time_api.c ****     LeapSecsAsSysTime.Subseconds    = 0;
 186:/home/simulink/cFS_FreeRTOS_seL4/cfe/fsw/cfe-core/src/time/cfe_time_api.c ****     
 187:/home/simulink/cFS_FreeRTOS_seL4/cfe/fsw/cfe-core/src/time/cfe_time_api.c ****     /* UTC Time = TIA Time - Leap Seconds */
 188:/home/simulink/cFS_FreeRTOS_seL4/cfe/fsw/cfe-core/src/time/cfe_time_api.c ****     ReturnTime = CFE_TIME_Subtract(TIATime, LeapSecsAsSysTime);
 189:/home/simulink/cFS_FreeRTOS_seL4/cfe/fsw/cfe-core/src/time/cfe_time_api.c **** 
 190:/home/simulink/cFS_FreeRTOS_seL4/cfe/fsw/cfe-core/src/time/cfe_time_api.c **** #endif
 191:/home/simulink/cFS_FreeRTOS_seL4/cfe/fsw/cfe-core/src/time/cfe_time_api.c **** 
 192:/home/simulink/cFS_FreeRTOS_seL4/cfe/fsw/cfe-core/src/time/cfe_time_api.c ****     return (ReturnTime);
 155               	.loc 1 192 0
 156 00f2 2017      	move.l (%sp),%d0
 157 00f4 222F 0004 	move.l 4(%sp),%d1
 193:/home/simulink/cFS_FreeRTOS_seL4/cfe/fsw/cfe-core/src/time/cfe_time_api.c **** }/* end CFE_TIME_MET2SCTime() */
 158               	.loc 1 193 0
 159 00f8 4FEF 0018 	lea (24,%sp),%sp
 160 00fc 4E75      	rts
 161               	.cfi_endproc
 162               	.LFE62:
 163               	.sizeCFE_TIME_MET2SCTime, .-CFE_TIME_MET2SCTime
 164               	.align2
 165               	.globlCFE_TIME_GetClockState
 166               	.typeCFE_TIME_GetClockState, @function
 167               	CFE_TIME_GetClockState:
 168               	.LFB63:
 194:/home/simulink/cFS_FreeRTOS_seL4/cfe/fsw/cfe-core/src/time/cfe_time_api.c **** 
 195:/home/simulink/cFS_FreeRTOS_seL4/cfe/fsw/cfe-core/src/time/cfe_time_api.c **** /* * * * * * * * * * * * * * * * * * * * * * * * * * * * * * * * * * * * * */
 196:/home/simulink/cFS_FreeRTOS_seL4/cfe/fsw/cfe-core/src/time/cfe_time_api.c **** /*                                                                         */
 197:/home/simulink/cFS_FreeRTOS_seL4/cfe/fsw/cfe-core/src/time/cfe_time_api.c **** /* CFE_TIME_GetClockState() -- get time data (status)                      */
 198:/home/simulink/cFS_FreeRTOS_seL4/cfe/fsw/cfe-core/src/time/cfe_time_api.c **** /*                                                                         */
 199:/home/simulink/cFS_FreeRTOS_seL4/cfe/fsw/cfe-core/src/time/cfe_time_api.c **** /* * * * * * * * * * * * * * * * * * * * * * * * * * * * * * * * * * * * * */
 200:/home/simulink/cFS_FreeRTOS_seL4/cfe/fsw/cfe-core/src/time/cfe_time_api.c **** 
 201:/home/simulink/cFS_FreeRTOS_seL4/cfe/fsw/cfe-core/src/time/cfe_time_api.c **** CFE_TIME_ClockState_t   CFE_TIME_GetClockState(void)
 202:/home/simulink/cFS_FreeRTOS_seL4/cfe/fsw/cfe-core/src/time/cfe_time_api.c **** {
 169               	.loc 1 202 0
 170               	.cfi_startproc
 171 00fe 4FEF FFBC 	lea (-68,%sp),%sp
 172               	.cfi_def_cfa_offset 72
 203:/home/simulink/cFS_FreeRTOS_seL4/cfe/fsw/cfe-core/src/time/cfe_time_api.c ****     CFE_TIME_Reference_t Reference;
 204:/home/simulink/cFS_FreeRTOS_seL4/cfe/fsw/cfe-core/src/time/cfe_time_api.c ****     CFE_TIME_ClockState_t state;
 205:/home/simulink/cFS_FreeRTOS_seL4/cfe/fsw/cfe-core/src/time/cfe_time_api.c ****     
 206:/home/simulink/cFS_FreeRTOS_seL4/cfe/fsw/cfe-core/src/time/cfe_time_api.c ****     /* Zero out the Reference variable because we pass it into
 207:/home/simulink/cFS_FreeRTOS_seL4/cfe/fsw/cfe-core/src/time/cfe_time_api.c ****      * a function before using it
 208:/home/simulink/cFS_FreeRTOS_seL4/cfe/fsw/cfe-core/src/time/cfe_time_api.c ****      * */
 209:/home/simulink/cFS_FreeRTOS_seL4/cfe/fsw/cfe-core/src/time/cfe_time_api.c ****     CFE_PSP_MemSet(&Reference, 0 , sizeof(CFE_TIME_Reference_t));
 173               	.loc 1 209 0
 174 0102 4878 0040 	pea 64.w
 175               	.cfi_def_cfa_offset 76
 176 0106 42A7      	clr.l -(%sp)
 177               	.cfi_def_cfa_offset 80
 178 0108 200F      	move.l %sp,%d0
 179 010a 5080      	addq.l #8,%d0
68K GAS   			page 8


 180 010c 2F00      	move.l %d0,-(%sp)
 181               	.cfi_def_cfa_offset 84
 182 010e 4EB9 0000 	jsr CFE_PSP_MemSet
 182      0000 
 183 0114 4FEF 000C 	lea (12,%sp),%sp
 184               	.cfi_def_cfa_offset 72
 210:/home/simulink/cFS_FreeRTOS_seL4/cfe/fsw/cfe-core/src/time/cfe_time_api.c ****     /*
 211:/home/simulink/cFS_FreeRTOS_seL4/cfe/fsw/cfe-core/src/time/cfe_time_api.c ****     ** Get reference time values (local time, time at tone, etc.)...
 212:/home/simulink/cFS_FreeRTOS_seL4/cfe/fsw/cfe-core/src/time/cfe_time_api.c ****     */
 213:/home/simulink/cFS_FreeRTOS_seL4/cfe/fsw/cfe-core/src/time/cfe_time_api.c ****     CFE_TIME_GetReference(&Reference);
 185               	.loc 1 213 0
 186 0118 200F      	move.l %sp,%d0
 187 011a 2F00      	move.l %d0,-(%sp)
 188               	.cfi_def_cfa_offset 76
 189 011c 4EB9 0000 	jsr CFE_TIME_GetReference
 189      0000 
 190 0122 588F      	addq.l #4,%sp
 191               	.cfi_def_cfa_offset 72
 214:/home/simulink/cFS_FreeRTOS_seL4/cfe/fsw/cfe-core/src/time/cfe_time_api.c **** 
 215:/home/simulink/cFS_FreeRTOS_seL4/cfe/fsw/cfe-core/src/time/cfe_time_api.c ****     /*
 216:/home/simulink/cFS_FreeRTOS_seL4/cfe/fsw/cfe-core/src/time/cfe_time_api.c ****     ** Determine the current clock state...
 217:/home/simulink/cFS_FreeRTOS_seL4/cfe/fsw/cfe-core/src/time/cfe_time_api.c ****     */
 218:/home/simulink/cFS_FreeRTOS_seL4/cfe/fsw/cfe-core/src/time/cfe_time_api.c ****     state = (CFE_TIME_ClockState_t) CFE_TIME_CalculateState(&Reference);
 192               	.loc 1 218 0
 193 0124 200F      	move.l %sp,%d0
 194 0126 2F00      	move.l %d0,-(%sp)
 195               	.cfi_def_cfa_offset 76
 196 0128 4EB9 0000 	jsr CFE_TIME_CalculateState
 196      0000 
 197 012e 588F      	addq.l #4,%sp
 198               	.cfi_def_cfa_offset 72
 199 0130 3040      	move.w %d0,%a0
 200 0132 2F48 0040 	move.l %a0,64(%sp)
 219:/home/simulink/cFS_FreeRTOS_seL4/cfe/fsw/cfe-core/src/time/cfe_time_api.c **** 
 220:/home/simulink/cFS_FreeRTOS_seL4/cfe/fsw/cfe-core/src/time/cfe_time_api.c ****     return(state);
 201               	.loc 1 220 0
 202 0136 202F 0040 	move.l 64(%sp),%d0
 221:/home/simulink/cFS_FreeRTOS_seL4/cfe/fsw/cfe-core/src/time/cfe_time_api.c **** 
 222:/home/simulink/cFS_FreeRTOS_seL4/cfe/fsw/cfe-core/src/time/cfe_time_api.c **** } /* End of CFE_TIME_GetClockState() */
 203               	.loc 1 222 0
 204 013a 4FEF 0044 	lea (68,%sp),%sp
 205 013e 4E75      	rts
 206               	.cfi_endproc
 207               	.LFE63:
 208               	.sizeCFE_TIME_GetClockState, .-CFE_TIME_GetClockState
 209               	.align2
 210               	.globlCFE_TIME_GetClockInfo
 211               	.typeCFE_TIME_GetClockInfo, @function
 212               	CFE_TIME_GetClockInfo:
 213               	.LFB64:
 223:/home/simulink/cFS_FreeRTOS_seL4/cfe/fsw/cfe-core/src/time/cfe_time_api.c **** 
 224:/home/simulink/cFS_FreeRTOS_seL4/cfe/fsw/cfe-core/src/time/cfe_time_api.c **** /* * * * * * * * * * * * * * * * * * * * * * * * * * * * * * * * * */
 225:/home/simulink/cFS_FreeRTOS_seL4/cfe/fsw/cfe-core/src/time/cfe_time_api.c **** /*                                                                 */
 226:/home/simulink/cFS_FreeRTOS_seL4/cfe/fsw/cfe-core/src/time/cfe_time_api.c **** /* CFE_TIME_GetClockInfo() -- Convert state data to flag values    */
 227:/home/simulink/cFS_FreeRTOS_seL4/cfe/fsw/cfe-core/src/time/cfe_time_api.c **** /*                                                                 */
 228:/home/simulink/cFS_FreeRTOS_seL4/cfe/fsw/cfe-core/src/time/cfe_time_api.c **** /* * * * * * * * * * * * * * * * * * * * * * * * * * * * * * * * * */
 229:/home/simulink/cFS_FreeRTOS_seL4/cfe/fsw/cfe-core/src/time/cfe_time_api.c **** 
68K GAS   			page 9


 230:/home/simulink/cFS_FreeRTOS_seL4/cfe/fsw/cfe-core/src/time/cfe_time_api.c **** uint16 CFE_TIME_GetClockInfo(void)
 231:/home/simulink/cFS_FreeRTOS_seL4/cfe/fsw/cfe-core/src/time/cfe_time_api.c **** {
 214               	.loc 1 231 0
 215               	.cfi_startproc
 216 0140 598F      	subq.l #4,%sp
 217               	.cfi_def_cfa_offset 8
 232:/home/simulink/cFS_FreeRTOS_seL4/cfe/fsw/cfe-core/src/time/cfe_time_api.c ****     uint16 StateFlags = 0;
 218               	.loc 1 232 0
 219 0142 4240      	clr.w %d0
 220 0144 3F40 0002 	move.w %d0,2(%sp)
 233:/home/simulink/cFS_FreeRTOS_seL4/cfe/fsw/cfe-core/src/time/cfe_time_api.c **** 
 234:/home/simulink/cFS_FreeRTOS_seL4/cfe/fsw/cfe-core/src/time/cfe_time_api.c ****     /*
 235:/home/simulink/cFS_FreeRTOS_seL4/cfe/fsw/cfe-core/src/time/cfe_time_api.c ****     ** Spacecraft time has been set...
 236:/home/simulink/cFS_FreeRTOS_seL4/cfe/fsw/cfe-core/src/time/cfe_time_api.c ****     */
 237:/home/simulink/cFS_FreeRTOS_seL4/cfe/fsw/cfe-core/src/time/cfe_time_api.c ****     if (CFE_TIME_TaskData.ClockSetState == CFE_TIME_WAS_SET)
 221               	.loc 1 237 0
 222 0148 3039 0000 	move.w CFE_TIME_TaskData+320,%d0
 222      0000 
 223 014e 3040      	move.w %d0,%a0
 224 0150 7201      	moveq #1,%d1
 225 0152 B288      	cmp.l %a0,%d1
 226 0154 660E      	jne .L12
 238:/home/simulink/cFS_FreeRTOS_seL4/cfe/fsw/cfe-core/src/time/cfe_time_api.c ****     {
 239:/home/simulink/cFS_FreeRTOS_seL4/cfe/fsw/cfe-core/src/time/cfe_time_api.c ****         StateFlags |= CFE_TIME_FLAG_CLKSET;
 227               	.loc 1 239 0
 228 0156 302F 0002 	move.w 2(%sp),%d0
 229 015a 0080 FFFF 	or.l #-32768,%d0
 229      8000 
 230 0160 3F40 0002 	move.w %d0,2(%sp)
 231               	.L12:
 240:/home/simulink/cFS_FreeRTOS_seL4/cfe/fsw/cfe-core/src/time/cfe_time_api.c ****     }
 241:/home/simulink/cFS_FreeRTOS_seL4/cfe/fsw/cfe-core/src/time/cfe_time_api.c ****     /*
 242:/home/simulink/cFS_FreeRTOS_seL4/cfe/fsw/cfe-core/src/time/cfe_time_api.c ****     ** This instance of Time Service is in FLYWHEEL mode...
 243:/home/simulink/cFS_FreeRTOS_seL4/cfe/fsw/cfe-core/src/time/cfe_time_api.c ****     */
 244:/home/simulink/cFS_FreeRTOS_seL4/cfe/fsw/cfe-core/src/time/cfe_time_api.c ****     if (CFE_TIME_TaskData.ClockFlyState == CFE_TIME_IS_FLY)
 232               	.loc 1 244 0
 233 0164 3039 0000 	move.w CFE_TIME_TaskData+322,%d0
 233      0000 
 234 016a 3040      	move.w %d0,%a0
 235 016c 7001      	moveq #1,%d0
 236 016e B088      	cmp.l %a0,%d0
 237 0170 660C      	jne .L13
 245:/home/simulink/cFS_FreeRTOS_seL4/cfe/fsw/cfe-core/src/time/cfe_time_api.c ****     {
 246:/home/simulink/cFS_FreeRTOS_seL4/cfe/fsw/cfe-core/src/time/cfe_time_api.c ****         StateFlags |= CFE_TIME_FLAG_FLYING;
 238               	.loc 1 246 0
 239 0172 302F 0002 	move.w 2(%sp),%d0
 240 0176 08C0 000E 	bset #14,%d0
 241 017a 3F40 0002 	move.w %d0,2(%sp)
 242               	.L13:
 247:/home/simulink/cFS_FreeRTOS_seL4/cfe/fsw/cfe-core/src/time/cfe_time_api.c ****     }
 248:/home/simulink/cFS_FreeRTOS_seL4/cfe/fsw/cfe-core/src/time/cfe_time_api.c ****     /*
 249:/home/simulink/cFS_FreeRTOS_seL4/cfe/fsw/cfe-core/src/time/cfe_time_api.c ****     ** Clock source set to "internal"...
 250:/home/simulink/cFS_FreeRTOS_seL4/cfe/fsw/cfe-core/src/time/cfe_time_api.c ****     */
 251:/home/simulink/cFS_FreeRTOS_seL4/cfe/fsw/cfe-core/src/time/cfe_time_api.c ****     if (CFE_TIME_TaskData.ClockSource == CFE_TIME_USE_INTERN)
 243               	.loc 1 251 0
 244 017e 3039 0000 	move.w CFE_TIME_TaskData+324,%d0
 244      0000 
68K GAS   			page 10


 245 0184 3040      	move.w %d0,%a0
 246 0186 7201      	moveq #1,%d1
 247 0188 B288      	cmp.l %a0,%d1
 248 018a 660C      	jne .L14
 252:/home/simulink/cFS_FreeRTOS_seL4/cfe/fsw/cfe-core/src/time/cfe_time_api.c ****     {
 253:/home/simulink/cFS_FreeRTOS_seL4/cfe/fsw/cfe-core/src/time/cfe_time_api.c ****         StateFlags |= CFE_TIME_FLAG_SRCINT;
 249               	.loc 1 253 0
 250 018c 302F 0002 	move.w 2(%sp),%d0
 251 0190 08C0 000D 	bset #13,%d0
 252 0194 3F40 0002 	move.w %d0,2(%sp)
 253               	.L14:
 254:/home/simulink/cFS_FreeRTOS_seL4/cfe/fsw/cfe-core/src/time/cfe_time_api.c ****     }
 255:/home/simulink/cFS_FreeRTOS_seL4/cfe/fsw/cfe-core/src/time/cfe_time_api.c ****     /*
 256:/home/simulink/cFS_FreeRTOS_seL4/cfe/fsw/cfe-core/src/time/cfe_time_api.c ****     ** Clock signal set to "primary"...
 257:/home/simulink/cFS_FreeRTOS_seL4/cfe/fsw/cfe-core/src/time/cfe_time_api.c ****     */
 258:/home/simulink/cFS_FreeRTOS_seL4/cfe/fsw/cfe-core/src/time/cfe_time_api.c ****     if (CFE_TIME_TaskData.ClockSignal == CFE_TIME_TONE_PRI)
 254               	.loc 1 258 0
 255 0198 3039 0000 	move.w CFE_TIME_TaskData+326,%d0
 255      0000 
 256 019e 3040      	move.w %d0,%a0
 257 01a0 7001      	moveq #1,%d0
 258 01a2 B088      	cmp.l %a0,%d0
 259 01a4 660C      	jne .L15
 259:/home/simulink/cFS_FreeRTOS_seL4/cfe/fsw/cfe-core/src/time/cfe_time_api.c ****     {
 260:/home/simulink/cFS_FreeRTOS_seL4/cfe/fsw/cfe-core/src/time/cfe_time_api.c ****         StateFlags |= CFE_TIME_FLAG_SIGPRI;
 260               	.loc 1 260 0
 261 01a6 302F 0002 	move.w 2(%sp),%d0
 262 01aa 08C0 000C 	bset #12,%d0
 263 01ae 3F40 0002 	move.w %d0,2(%sp)
 264               	.L15:
 261:/home/simulink/cFS_FreeRTOS_seL4/cfe/fsw/cfe-core/src/time/cfe_time_api.c ****     }
 262:/home/simulink/cFS_FreeRTOS_seL4/cfe/fsw/cfe-core/src/time/cfe_time_api.c ****     /*
 263:/home/simulink/cFS_FreeRTOS_seL4/cfe/fsw/cfe-core/src/time/cfe_time_api.c ****     ** Time Server is in FLYWHEEL mode...
 264:/home/simulink/cFS_FreeRTOS_seL4/cfe/fsw/cfe-core/src/time/cfe_time_api.c ****     */
 265:/home/simulink/cFS_FreeRTOS_seL4/cfe/fsw/cfe-core/src/time/cfe_time_api.c ****     if (CFE_TIME_TaskData.ServerFlyState == CFE_TIME_IS_FLY)
 265               	.loc 1 265 0
 266 01b2 3039 0000 	move.w CFE_TIME_TaskData+328,%d0
 266      0000 
 267 01b8 3040      	move.w %d0,%a0
 268 01ba 7201      	moveq #1,%d1
 269 01bc B288      	cmp.l %a0,%d1
 270 01be 660C      	jne .L16
 266:/home/simulink/cFS_FreeRTOS_seL4/cfe/fsw/cfe-core/src/time/cfe_time_api.c ****     {
 267:/home/simulink/cFS_FreeRTOS_seL4/cfe/fsw/cfe-core/src/time/cfe_time_api.c ****         StateFlags |= CFE_TIME_FLAG_SRVFLY;
 271               	.loc 1 267 0
 272 01c0 302F 0002 	move.w 2(%sp),%d0
 273 01c4 08C0 000B 	bset #11,%d0
 274 01c8 3F40 0002 	move.w %d0,2(%sp)
 275               	.L16:
 268:/home/simulink/cFS_FreeRTOS_seL4/cfe/fsw/cfe-core/src/time/cfe_time_api.c ****     }
 269:/home/simulink/cFS_FreeRTOS_seL4/cfe/fsw/cfe-core/src/time/cfe_time_api.c ****     /*
 270:/home/simulink/cFS_FreeRTOS_seL4/cfe/fsw/cfe-core/src/time/cfe_time_api.c ****     ** This instance of Time Services commanded into FLYWHEEL...
 271:/home/simulink/cFS_FreeRTOS_seL4/cfe/fsw/cfe-core/src/time/cfe_time_api.c ****     */
 272:/home/simulink/cFS_FreeRTOS_seL4/cfe/fsw/cfe-core/src/time/cfe_time_api.c ****     if (CFE_TIME_TaskData.Forced2Fly)
 276               	.loc 1 272 0
 277 01cc 1039 0000 	move.b CFE_TIME_TaskData+460,%d0
 277      0000 
68K GAS   			page 11


 278 01d2 4A00      	tst.b %d0
 279 01d4 670C      	jeq .L17
 273:/home/simulink/cFS_FreeRTOS_seL4/cfe/fsw/cfe-core/src/time/cfe_time_api.c ****     {
 274:/home/simulink/cFS_FreeRTOS_seL4/cfe/fsw/cfe-core/src/time/cfe_time_api.c ****         StateFlags |= CFE_TIME_FLAG_CMDFLY;
 280               	.loc 1 274 0
 281 01d6 302F 0002 	move.w 2(%sp),%d0
 282 01da 08C0 000A 	bset #10,%d0
 283 01de 3F40 0002 	move.w %d0,2(%sp)
 284               	.L17:
 275:/home/simulink/cFS_FreeRTOS_seL4/cfe/fsw/cfe-core/src/time/cfe_time_api.c ****     }
 276:/home/simulink/cFS_FreeRTOS_seL4/cfe/fsw/cfe-core/src/time/cfe_time_api.c ****     /*
 277:/home/simulink/cFS_FreeRTOS_seL4/cfe/fsw/cfe-core/src/time/cfe_time_api.c ****     ** One time STCF adjustment direction...
 278:/home/simulink/cFS_FreeRTOS_seL4/cfe/fsw/cfe-core/src/time/cfe_time_api.c ****     */
 279:/home/simulink/cFS_FreeRTOS_seL4/cfe/fsw/cfe-core/src/time/cfe_time_api.c ****     if (CFE_TIME_TaskData.OneTimeDirection == CFE_TIME_ADD_ADJUST)
 285               	.loc 1 279 0
 286 01e2 3039 0000 	move.w CFE_TIME_TaskData+368,%d0
 286      0000 
 287 01e8 3040      	move.w %d0,%a0
 288 01ea 7001      	moveq #1,%d0
 289 01ec B088      	cmp.l %a0,%d0
 290 01ee 660C      	jne .L18
 280:/home/simulink/cFS_FreeRTOS_seL4/cfe/fsw/cfe-core/src/time/cfe_time_api.c ****     {
 281:/home/simulink/cFS_FreeRTOS_seL4/cfe/fsw/cfe-core/src/time/cfe_time_api.c ****         StateFlags |= CFE_TIME_FLAG_ADDADJ;
 291               	.loc 1 281 0
 292 01f0 302F 0002 	move.w 2(%sp),%d0
 293 01f4 08C0 0009 	bset #9,%d0
 294 01f8 3F40 0002 	move.w %d0,2(%sp)
 295               	.L18:
 282:/home/simulink/cFS_FreeRTOS_seL4/cfe/fsw/cfe-core/src/time/cfe_time_api.c ****     }
 283:/home/simulink/cFS_FreeRTOS_seL4/cfe/fsw/cfe-core/src/time/cfe_time_api.c ****     /*
 284:/home/simulink/cFS_FreeRTOS_seL4/cfe/fsw/cfe-core/src/time/cfe_time_api.c ****     ** 1 Hz STCF adjustment direction...
 285:/home/simulink/cFS_FreeRTOS_seL4/cfe/fsw/cfe-core/src/time/cfe_time_api.c ****     */
 286:/home/simulink/cFS_FreeRTOS_seL4/cfe/fsw/cfe-core/src/time/cfe_time_api.c ****     if (CFE_TIME_TaskData.OneHzDirection == CFE_TIME_ADD_ADJUST)
 296               	.loc 1 286 0
 297 01fc 3039 0000 	move.w CFE_TIME_TaskData+370,%d0
 297      0000 
 298 0202 3040      	move.w %d0,%a0
 299 0204 7201      	moveq #1,%d1
 300 0206 B288      	cmp.l %a0,%d1
 301 0208 660C      	jne .L19
 287:/home/simulink/cFS_FreeRTOS_seL4/cfe/fsw/cfe-core/src/time/cfe_time_api.c ****     {
 288:/home/simulink/cFS_FreeRTOS_seL4/cfe/fsw/cfe-core/src/time/cfe_time_api.c ****         StateFlags |= CFE_TIME_FLAG_ADD1HZ;
 302               	.loc 1 288 0
 303 020a 302F 0002 	move.w 2(%sp),%d0
 304 020e 08C0 0008 	bset #8,%d0
 305 0212 3F40 0002 	move.w %d0,2(%sp)
 306               	.L19:
 289:/home/simulink/cFS_FreeRTOS_seL4/cfe/fsw/cfe-core/src/time/cfe_time_api.c ****     }
 290:/home/simulink/cFS_FreeRTOS_seL4/cfe/fsw/cfe-core/src/time/cfe_time_api.c ****     /*
 291:/home/simulink/cFS_FreeRTOS_seL4/cfe/fsw/cfe-core/src/time/cfe_time_api.c ****     ** Time Client Latency adjustment direction...
 292:/home/simulink/cFS_FreeRTOS_seL4/cfe/fsw/cfe-core/src/time/cfe_time_api.c ****     */
 293:/home/simulink/cFS_FreeRTOS_seL4/cfe/fsw/cfe-core/src/time/cfe_time_api.c ****     if (CFE_TIME_TaskData.DelayDirection == CFE_TIME_ADD_ADJUST)
 307               	.loc 1 293 0
 308 0216 3039 0000 	move.w CFE_TIME_TaskData+372,%d0
 308      0000 
 309 021c 3040      	move.w %d0,%a0
 310 021e 7001      	moveq #1,%d0
68K GAS   			page 12


 311 0220 B088      	cmp.l %a0,%d0
 312 0222 660C      	jne .L20
 294:/home/simulink/cFS_FreeRTOS_seL4/cfe/fsw/cfe-core/src/time/cfe_time_api.c ****     {
 295:/home/simulink/cFS_FreeRTOS_seL4/cfe/fsw/cfe-core/src/time/cfe_time_api.c ****         StateFlags |= CFE_TIME_FLAG_ADDTCL;
 313               	.loc 1 295 0
 314 0224 302F 0002 	move.w 2(%sp),%d0
 315 0228 08C0 0007 	bset #7,%d0
 316 022c 3F40 0002 	move.w %d0,2(%sp)
 317               	.L20:
 296:/home/simulink/cFS_FreeRTOS_seL4/cfe/fsw/cfe-core/src/time/cfe_time_api.c ****     }
 297:/home/simulink/cFS_FreeRTOS_seL4/cfe/fsw/cfe-core/src/time/cfe_time_api.c ****     /*
 298:/home/simulink/cFS_FreeRTOS_seL4/cfe/fsw/cfe-core/src/time/cfe_time_api.c ****     ** This instance of Time Service is a "server"...
 299:/home/simulink/cFS_FreeRTOS_seL4/cfe/fsw/cfe-core/src/time/cfe_time_api.c ****     */
 300:/home/simulink/cFS_FreeRTOS_seL4/cfe/fsw/cfe-core/src/time/cfe_time_api.c ****     #if (CFE_TIME_CFG_SERVER == TRUE)
 301:/home/simulink/cFS_FreeRTOS_seL4/cfe/fsw/cfe-core/src/time/cfe_time_api.c ****     StateFlags |= CFE_TIME_FLAG_SERVER;
 318               	.loc 1 301 0
 319 0230 302F 0002 	move.w 2(%sp),%d0
 320 0234 7240      	moveq #64,%d1
 321 0236 8081      	or.l %d1,%d0
 322 0238 3F40 0002 	move.w %d0,2(%sp)
 302:/home/simulink/cFS_FreeRTOS_seL4/cfe/fsw/cfe-core/src/time/cfe_time_api.c ****     #endif
 303:/home/simulink/cFS_FreeRTOS_seL4/cfe/fsw/cfe-core/src/time/cfe_time_api.c **** 
 304:/home/simulink/cFS_FreeRTOS_seL4/cfe/fsw/cfe-core/src/time/cfe_time_api.c ****     /* 
 305:/home/simulink/cFS_FreeRTOS_seL4/cfe/fsw/cfe-core/src/time/cfe_time_api.c ****     ** The tone is good 
 306:/home/simulink/cFS_FreeRTOS_seL4/cfe/fsw/cfe-core/src/time/cfe_time_api.c ****     */
 307:/home/simulink/cFS_FreeRTOS_seL4/cfe/fsw/cfe-core/src/time/cfe_time_api.c ****     if (CFE_TIME_TaskData.IsToneGood == TRUE)
 323               	.loc 1 307 0
 324 023c 1039 0000 	move.b CFE_TIME_TaskData+462,%d0
 324      0000 
 325 0242 1000      	move.b %d0,%d0
 326 0244 0280 0000 	and.l #255,%d0
 326      00FF 
 327 024a 7201      	moveq #1,%d1
 328 024c B280      	cmp.l %d0,%d1
 329 024e 660C      	jne .L21
 308:/home/simulink/cFS_FreeRTOS_seL4/cfe/fsw/cfe-core/src/time/cfe_time_api.c ****     {
 309:/home/simulink/cFS_FreeRTOS_seL4/cfe/fsw/cfe-core/src/time/cfe_time_api.c ****         StateFlags |= CFE_TIME_FLAG_GDTONE;
 330               	.loc 1 309 0
 331 0250 302F 0002 	move.w 2(%sp),%d0
 332 0254 7220      	moveq #32,%d1
 333 0256 8081      	or.l %d1,%d0
 334 0258 3F40 0002 	move.w %d0,2(%sp)
 335               	.L21:
 310:/home/simulink/cFS_FreeRTOS_seL4/cfe/fsw/cfe-core/src/time/cfe_time_api.c ****     }   
 311:/home/simulink/cFS_FreeRTOS_seL4/cfe/fsw/cfe-core/src/time/cfe_time_api.c **** 
 312:/home/simulink/cFS_FreeRTOS_seL4/cfe/fsw/cfe-core/src/time/cfe_time_api.c ****     return(StateFlags);
 336               	.loc 1 312 0
 337 025c 302F 0002 	move.w 2(%sp),%d0
 313:/home/simulink/cFS_FreeRTOS_seL4/cfe/fsw/cfe-core/src/time/cfe_time_api.c **** 
 314:/home/simulink/cFS_FreeRTOS_seL4/cfe/fsw/cfe-core/src/time/cfe_time_api.c **** } /* End of CFE_TIME_GetClockInfo() */
 338               	.loc 1 314 0
 339 0260 588F      	addq.l #4,%sp
 340 0262 4E75      	rts
 341               	.cfi_endproc
 342               	.LFE64:
 343               	.sizeCFE_TIME_GetClockInfo, .-CFE_TIME_GetClockInfo
 344               	.align2
68K GAS   			page 13


 345               	.globlCFE_TIME_GetLeapSeconds
 346               	.typeCFE_TIME_GetLeapSeconds, @function
 347               	CFE_TIME_GetLeapSeconds:
 348               	.LFB65:
 315:/home/simulink/cFS_FreeRTOS_seL4/cfe/fsw/cfe-core/src/time/cfe_time_api.c **** 
 316:/home/simulink/cFS_FreeRTOS_seL4/cfe/fsw/cfe-core/src/time/cfe_time_api.c **** 
 317:/home/simulink/cFS_FreeRTOS_seL4/cfe/fsw/cfe-core/src/time/cfe_time_api.c **** /* * * * * * * * * * * * * * * * * * * * * * * * * * * * * * * * * * * * * */
 318:/home/simulink/cFS_FreeRTOS_seL4/cfe/fsw/cfe-core/src/time/cfe_time_api.c **** /*                                                                         */
 319:/home/simulink/cFS_FreeRTOS_seL4/cfe/fsw/cfe-core/src/time/cfe_time_api.c **** /* CFE_TIME_GetLeapSeconds() -- get time data (leap seconds)               */
 320:/home/simulink/cFS_FreeRTOS_seL4/cfe/fsw/cfe-core/src/time/cfe_time_api.c **** /*                                                                         */
 321:/home/simulink/cFS_FreeRTOS_seL4/cfe/fsw/cfe-core/src/time/cfe_time_api.c **** /* * * * * * * * * * * * * * * * * * * * * * * * * * * * * * * * * * * * * */
 322:/home/simulink/cFS_FreeRTOS_seL4/cfe/fsw/cfe-core/src/time/cfe_time_api.c **** 
 323:/home/simulink/cFS_FreeRTOS_seL4/cfe/fsw/cfe-core/src/time/cfe_time_api.c **** int16   CFE_TIME_GetLeapSeconds(void)
 324:/home/simulink/cFS_FreeRTOS_seL4/cfe/fsw/cfe-core/src/time/cfe_time_api.c **** {
 349               	.loc 1 324 0
 350               	.cfi_startproc
 351 0264 4FEF FFC0 	lea (-64,%sp),%sp
 352               	.cfi_def_cfa_offset 68
 325:/home/simulink/cFS_FreeRTOS_seL4/cfe/fsw/cfe-core/src/time/cfe_time_api.c ****     CFE_TIME_Reference_t Reference;
 326:/home/simulink/cFS_FreeRTOS_seL4/cfe/fsw/cfe-core/src/time/cfe_time_api.c **** 
 327:/home/simulink/cFS_FreeRTOS_seL4/cfe/fsw/cfe-core/src/time/cfe_time_api.c ****     /* Zero out the Reference variable because we pass it into
 328:/home/simulink/cFS_FreeRTOS_seL4/cfe/fsw/cfe-core/src/time/cfe_time_api.c ****      * a function before using it
 329:/home/simulink/cFS_FreeRTOS_seL4/cfe/fsw/cfe-core/src/time/cfe_time_api.c ****      * */
 330:/home/simulink/cFS_FreeRTOS_seL4/cfe/fsw/cfe-core/src/time/cfe_time_api.c ****     CFE_PSP_MemSet(&Reference, 0 , sizeof(CFE_TIME_Reference_t));
 353               	.loc 1 330 0
 354 0268 4878 0040 	pea 64.w
 355               	.cfi_def_cfa_offset 72
 356 026c 42A7      	clr.l -(%sp)
 357               	.cfi_def_cfa_offset 76
 358 026e 200F      	move.l %sp,%d0
 359 0270 5080      	addq.l #8,%d0
 360 0272 2F00      	move.l %d0,-(%sp)
 361               	.cfi_def_cfa_offset 80
 362 0274 4EB9 0000 	jsr CFE_PSP_MemSet
 362      0000 
 363 027a 4FEF 000C 	lea (12,%sp),%sp
 364               	.cfi_def_cfa_offset 68
 331:/home/simulink/cFS_FreeRTOS_seL4/cfe/fsw/cfe-core/src/time/cfe_time_api.c **** 
 332:/home/simulink/cFS_FreeRTOS_seL4/cfe/fsw/cfe-core/src/time/cfe_time_api.c ****     /*
 333:/home/simulink/cFS_FreeRTOS_seL4/cfe/fsw/cfe-core/src/time/cfe_time_api.c ****     ** Get reference time values (local time, time at tone, etc.)...
 334:/home/simulink/cFS_FreeRTOS_seL4/cfe/fsw/cfe-core/src/time/cfe_time_api.c ****     */
 335:/home/simulink/cFS_FreeRTOS_seL4/cfe/fsw/cfe-core/src/time/cfe_time_api.c ****     CFE_TIME_GetReference(&Reference);
 365               	.loc 1 335 0
 366 027e 200F      	move.l %sp,%d0
 367 0280 2F00      	move.l %d0,-(%sp)
 368               	.cfi_def_cfa_offset 72
 369 0282 4EB9 0000 	jsr CFE_TIME_GetReference
 369      0000 
 370 0288 588F      	addq.l #4,%sp
 371               	.cfi_def_cfa_offset 68
 336:/home/simulink/cFS_FreeRTOS_seL4/cfe/fsw/cfe-core/src/time/cfe_time_api.c **** 
 337:/home/simulink/cFS_FreeRTOS_seL4/cfe/fsw/cfe-core/src/time/cfe_time_api.c ****     return(Reference.AtToneLeaps);
 372               	.loc 1 337 0
 373 028a 302F 0010 	move.w 16(%sp),%d0
 338:/home/simulink/cFS_FreeRTOS_seL4/cfe/fsw/cfe-core/src/time/cfe_time_api.c **** 
 339:/home/simulink/cFS_FreeRTOS_seL4/cfe/fsw/cfe-core/src/time/cfe_time_api.c **** } /* End of CFE_TIME_GetLeapSeconds() */
 374               	.loc 1 339 0
68K GAS   			page 14


 375 028e 4FEF 0040 	lea (64,%sp),%sp
 376 0292 4E75      	rts
 377               	.cfi_endproc
 378               	.LFE65:
 379               	.sizeCFE_TIME_GetLeapSeconds, .-CFE_TIME_GetLeapSeconds
 380               	.align2
 381               	.globlCFE_TIME_GetSTCF
 382               	.typeCFE_TIME_GetSTCF, @function
 383               	CFE_TIME_GetSTCF:
 384               	.LFB66:
 340:/home/simulink/cFS_FreeRTOS_seL4/cfe/fsw/cfe-core/src/time/cfe_time_api.c **** 
 341:/home/simulink/cFS_FreeRTOS_seL4/cfe/fsw/cfe-core/src/time/cfe_time_api.c **** 
 342:/home/simulink/cFS_FreeRTOS_seL4/cfe/fsw/cfe-core/src/time/cfe_time_api.c **** /* * * * * * * * * * * * * * * * * * * * * * * * * * * * * * * * * * * * * */
 343:/home/simulink/cFS_FreeRTOS_seL4/cfe/fsw/cfe-core/src/time/cfe_time_api.c **** /*                                                                         */
 344:/home/simulink/cFS_FreeRTOS_seL4/cfe/fsw/cfe-core/src/time/cfe_time_api.c **** /* CFE_TIME_GetSTCF() -- get time data (Spacecraft Time Correlation Factor)*/
 345:/home/simulink/cFS_FreeRTOS_seL4/cfe/fsw/cfe-core/src/time/cfe_time_api.c **** /*                                                                         */
 346:/home/simulink/cFS_FreeRTOS_seL4/cfe/fsw/cfe-core/src/time/cfe_time_api.c **** /* * * * * * * * * * * * * * * * * * * * * * * * * * * * * * * * * * * * * */
 347:/home/simulink/cFS_FreeRTOS_seL4/cfe/fsw/cfe-core/src/time/cfe_time_api.c **** 
 348:/home/simulink/cFS_FreeRTOS_seL4/cfe/fsw/cfe-core/src/time/cfe_time_api.c **** CFE_TIME_SysTime_t   CFE_TIME_GetSTCF(void)
 349:/home/simulink/cFS_FreeRTOS_seL4/cfe/fsw/cfe-core/src/time/cfe_time_api.c **** {
 385               	.loc 1 349 0
 386               	.cfi_startproc
 387 0294 4FEF FFC0 	lea (-64,%sp),%sp
 388               	.cfi_def_cfa_offset 68
 350:/home/simulink/cFS_FreeRTOS_seL4/cfe/fsw/cfe-core/src/time/cfe_time_api.c ****     CFE_TIME_Reference_t Reference;
 351:/home/simulink/cFS_FreeRTOS_seL4/cfe/fsw/cfe-core/src/time/cfe_time_api.c ****     
 352:/home/simulink/cFS_FreeRTOS_seL4/cfe/fsw/cfe-core/src/time/cfe_time_api.c ****     /* Zero out the Reference variable because we pass it into
 353:/home/simulink/cFS_FreeRTOS_seL4/cfe/fsw/cfe-core/src/time/cfe_time_api.c ****      * a function before using it
 354:/home/simulink/cFS_FreeRTOS_seL4/cfe/fsw/cfe-core/src/time/cfe_time_api.c ****      * */
 355:/home/simulink/cFS_FreeRTOS_seL4/cfe/fsw/cfe-core/src/time/cfe_time_api.c ****     CFE_PSP_MemSet(&Reference, 0 , sizeof(CFE_TIME_Reference_t));
 389               	.loc 1 355 0
 390 0298 4878 0040 	pea 64.w
 391               	.cfi_def_cfa_offset 72
 392 029c 42A7      	clr.l -(%sp)
 393               	.cfi_def_cfa_offset 76
 394 029e 200F      	move.l %sp,%d0
 395 02a0 5080      	addq.l #8,%d0
 396 02a2 2F00      	move.l %d0,-(%sp)
 397               	.cfi_def_cfa_offset 80
 398 02a4 4EB9 0000 	jsr CFE_PSP_MemSet
 398      0000 
 399 02aa 4FEF 000C 	lea (12,%sp),%sp
 400               	.cfi_def_cfa_offset 68
 356:/home/simulink/cFS_FreeRTOS_seL4/cfe/fsw/cfe-core/src/time/cfe_time_api.c ****     
 357:/home/simulink/cFS_FreeRTOS_seL4/cfe/fsw/cfe-core/src/time/cfe_time_api.c ****     /*
 358:/home/simulink/cFS_FreeRTOS_seL4/cfe/fsw/cfe-core/src/time/cfe_time_api.c ****     ** Get reference time values (local time, time at tone, etc.)...
 359:/home/simulink/cFS_FreeRTOS_seL4/cfe/fsw/cfe-core/src/time/cfe_time_api.c ****     */
 360:/home/simulink/cFS_FreeRTOS_seL4/cfe/fsw/cfe-core/src/time/cfe_time_api.c ****     CFE_TIME_GetReference(&Reference);
 401               	.loc 1 360 0
 402 02ae 200F      	move.l %sp,%d0
 403 02b0 2F00      	move.l %d0,-(%sp)
 404               	.cfi_def_cfa_offset 72
 405 02b2 4EB9 0000 	jsr CFE_TIME_GetReference
 405      0000 
 406 02b8 588F      	addq.l #4,%sp
 407               	.cfi_def_cfa_offset 68
 361:/home/simulink/cFS_FreeRTOS_seL4/cfe/fsw/cfe-core/src/time/cfe_time_api.c **** 
68K GAS   			page 15


 362:/home/simulink/cFS_FreeRTOS_seL4/cfe/fsw/cfe-core/src/time/cfe_time_api.c ****     return(Reference.AtToneSTCF);
 408               	.loc 1 362 0
 409 02ba 202F 0008 	move.l 8(%sp),%d0
 410 02be 222F 000C 	move.l 12(%sp),%d1
 363:/home/simulink/cFS_FreeRTOS_seL4/cfe/fsw/cfe-core/src/time/cfe_time_api.c **** 
 364:/home/simulink/cFS_FreeRTOS_seL4/cfe/fsw/cfe-core/src/time/cfe_time_api.c **** } /* End of CFE_TIME_GetSTCF() */
 411               	.loc 1 364 0
 412 02c2 4FEF 0040 	lea (64,%sp),%sp
 413 02c6 4E75      	rts
 414               	.cfi_endproc
 415               	.LFE66:
 416               	.sizeCFE_TIME_GetSTCF, .-CFE_TIME_GetSTCF
 417               	.align2
 418               	.globlCFE_TIME_GetMET
 419               	.typeCFE_TIME_GetMET, @function
 420               	CFE_TIME_GetMET:
 421               	.LFB67:
 365:/home/simulink/cFS_FreeRTOS_seL4/cfe/fsw/cfe-core/src/time/cfe_time_api.c **** 
 366:/home/simulink/cFS_FreeRTOS_seL4/cfe/fsw/cfe-core/src/time/cfe_time_api.c **** 
 367:/home/simulink/cFS_FreeRTOS_seL4/cfe/fsw/cfe-core/src/time/cfe_time_api.c **** /* * * * * * * * * * * * * * * * * * * * * * * * * * * * * * * * * * * * * */
 368:/home/simulink/cFS_FreeRTOS_seL4/cfe/fsw/cfe-core/src/time/cfe_time_api.c **** /*                                                                         */
 369:/home/simulink/cFS_FreeRTOS_seL4/cfe/fsw/cfe-core/src/time/cfe_time_api.c **** /* CFE_TIME_GetMET() -- get time data (Mission Elapsed Timer)              */
 370:/home/simulink/cFS_FreeRTOS_seL4/cfe/fsw/cfe-core/src/time/cfe_time_api.c **** /*                                                                         */
 371:/home/simulink/cFS_FreeRTOS_seL4/cfe/fsw/cfe-core/src/time/cfe_time_api.c **** /* * * * * * * * * * * * * * * * * * * * * * * * * * * * * * * * * * * * * */
 372:/home/simulink/cFS_FreeRTOS_seL4/cfe/fsw/cfe-core/src/time/cfe_time_api.c **** 
 373:/home/simulink/cFS_FreeRTOS_seL4/cfe/fsw/cfe-core/src/time/cfe_time_api.c **** CFE_TIME_SysTime_t   CFE_TIME_GetMET(void)
 374:/home/simulink/cFS_FreeRTOS_seL4/cfe/fsw/cfe-core/src/time/cfe_time_api.c **** {
 422               	.loc 1 374 0
 423               	.cfi_startproc
 424 02c8 4FEF FFC0 	lea (-64,%sp),%sp
 425               	.cfi_def_cfa_offset 68
 375:/home/simulink/cFS_FreeRTOS_seL4/cfe/fsw/cfe-core/src/time/cfe_time_api.c ****     CFE_TIME_Reference_t Reference;
 376:/home/simulink/cFS_FreeRTOS_seL4/cfe/fsw/cfe-core/src/time/cfe_time_api.c ****     
 377:/home/simulink/cFS_FreeRTOS_seL4/cfe/fsw/cfe-core/src/time/cfe_time_api.c ****      /* Zero out the Reference variable because we pass it into
 378:/home/simulink/cFS_FreeRTOS_seL4/cfe/fsw/cfe-core/src/time/cfe_time_api.c ****      * a function before using it
 379:/home/simulink/cFS_FreeRTOS_seL4/cfe/fsw/cfe-core/src/time/cfe_time_api.c ****      */
 380:/home/simulink/cFS_FreeRTOS_seL4/cfe/fsw/cfe-core/src/time/cfe_time_api.c ****     CFE_PSP_MemSet(&Reference, 0 , sizeof(CFE_TIME_Reference_t));
 426               	.loc 1 380 0
 427 02cc 4878 0040 	pea 64.w
 428               	.cfi_def_cfa_offset 72
 429 02d0 42A7      	clr.l -(%sp)
 430               	.cfi_def_cfa_offset 76
 431 02d2 200F      	move.l %sp,%d0
 432 02d4 5080      	addq.l #8,%d0
 433 02d6 2F00      	move.l %d0,-(%sp)
 434               	.cfi_def_cfa_offset 80
 435 02d8 4EB9 0000 	jsr CFE_PSP_MemSet
 435      0000 
 436 02de 4FEF 000C 	lea (12,%sp),%sp
 437               	.cfi_def_cfa_offset 68
 381:/home/simulink/cFS_FreeRTOS_seL4/cfe/fsw/cfe-core/src/time/cfe_time_api.c **** 
 382:/home/simulink/cFS_FreeRTOS_seL4/cfe/fsw/cfe-core/src/time/cfe_time_api.c **** 
 383:/home/simulink/cFS_FreeRTOS_seL4/cfe/fsw/cfe-core/src/time/cfe_time_api.c ****     /*
 384:/home/simulink/cFS_FreeRTOS_seL4/cfe/fsw/cfe-core/src/time/cfe_time_api.c ****     ** Get reference time values (local time, time at tone, etc.)...
 385:/home/simulink/cFS_FreeRTOS_seL4/cfe/fsw/cfe-core/src/time/cfe_time_api.c ****     */
 386:/home/simulink/cFS_FreeRTOS_seL4/cfe/fsw/cfe-core/src/time/cfe_time_api.c ****     CFE_TIME_GetReference(&Reference);
 438               	.loc 1 386 0
68K GAS   			page 16


 439 02e2 200F      	move.l %sp,%d0
 440 02e4 2F00      	move.l %d0,-(%sp)
 441               	.cfi_def_cfa_offset 72
 442 02e6 4EB9 0000 	jsr CFE_TIME_GetReference
 442      0000 
 443 02ec 588F      	addq.l #4,%sp
 444               	.cfi_def_cfa_offset 68
 387:/home/simulink/cFS_FreeRTOS_seL4/cfe/fsw/cfe-core/src/time/cfe_time_api.c **** 
 388:/home/simulink/cFS_FreeRTOS_seL4/cfe/fsw/cfe-core/src/time/cfe_time_api.c ****     return(Reference.CurrentMET);
 445               	.loc 1 388 0
 446 02ee 202F 0038 	move.l 56(%sp),%d0
 447 02f2 222F 003C 	move.l 60(%sp),%d1
 389:/home/simulink/cFS_FreeRTOS_seL4/cfe/fsw/cfe-core/src/time/cfe_time_api.c **** 
 390:/home/simulink/cFS_FreeRTOS_seL4/cfe/fsw/cfe-core/src/time/cfe_time_api.c **** } /* End of CFE_TIME_GetMET() */
 448               	.loc 1 390 0
 449 02f6 4FEF 0040 	lea (64,%sp),%sp
 450 02fa 4E75      	rts
 451               	.cfi_endproc
 452               	.LFE67:
 453               	.sizeCFE_TIME_GetMET, .-CFE_TIME_GetMET
 454               	.align2
 455               	.globlCFE_TIME_GetMETseconds
 456               	.typeCFE_TIME_GetMETseconds, @function
 457               	CFE_TIME_GetMETseconds:
 458               	.LFB68:
 391:/home/simulink/cFS_FreeRTOS_seL4/cfe/fsw/cfe-core/src/time/cfe_time_api.c **** 
 392:/home/simulink/cFS_FreeRTOS_seL4/cfe/fsw/cfe-core/src/time/cfe_time_api.c **** 
 393:/home/simulink/cFS_FreeRTOS_seL4/cfe/fsw/cfe-core/src/time/cfe_time_api.c **** /* * * * * * * * * * * * * * * * * * * * * * * * * * * * * * * * * * * * * */
 394:/home/simulink/cFS_FreeRTOS_seL4/cfe/fsw/cfe-core/src/time/cfe_time_api.c **** /*                                                                         */
 395:/home/simulink/cFS_FreeRTOS_seL4/cfe/fsw/cfe-core/src/time/cfe_time_api.c **** /* CFE_TIME_GetMETseconds() -- get time data (seconds portion of MET)      */
 396:/home/simulink/cFS_FreeRTOS_seL4/cfe/fsw/cfe-core/src/time/cfe_time_api.c **** /*                                                                         */
 397:/home/simulink/cFS_FreeRTOS_seL4/cfe/fsw/cfe-core/src/time/cfe_time_api.c **** /* * * * * * * * * * * * * * * * * * * * * * * * * * * * * * * * * * * * * */
 398:/home/simulink/cFS_FreeRTOS_seL4/cfe/fsw/cfe-core/src/time/cfe_time_api.c **** 
 399:/home/simulink/cFS_FreeRTOS_seL4/cfe/fsw/cfe-core/src/time/cfe_time_api.c **** uint32   CFE_TIME_GetMETseconds(void)
 400:/home/simulink/cFS_FreeRTOS_seL4/cfe/fsw/cfe-core/src/time/cfe_time_api.c **** {
 459               	.loc 1 400 0
 460               	.cfi_startproc
 461 02fc 4FEF FFC0 	lea (-64,%sp),%sp
 462               	.cfi_def_cfa_offset 68
 401:/home/simulink/cFS_FreeRTOS_seL4/cfe/fsw/cfe-core/src/time/cfe_time_api.c ****     CFE_TIME_Reference_t Reference;
 402:/home/simulink/cFS_FreeRTOS_seL4/cfe/fsw/cfe-core/src/time/cfe_time_api.c **** 
 403:/home/simulink/cFS_FreeRTOS_seL4/cfe/fsw/cfe-core/src/time/cfe_time_api.c ****     /* Zero out the Reference variable because we pass it into
 404:/home/simulink/cFS_FreeRTOS_seL4/cfe/fsw/cfe-core/src/time/cfe_time_api.c ****      * a function before using it
 405:/home/simulink/cFS_FreeRTOS_seL4/cfe/fsw/cfe-core/src/time/cfe_time_api.c ****      * */
 406:/home/simulink/cFS_FreeRTOS_seL4/cfe/fsw/cfe-core/src/time/cfe_time_api.c ****     CFE_PSP_MemSet(&Reference, 0 , sizeof(CFE_TIME_Reference_t));
 463               	.loc 1 406 0
 464 0300 4878 0040 	pea 64.w
 465               	.cfi_def_cfa_offset 72
 466 0304 42A7      	clr.l -(%sp)
 467               	.cfi_def_cfa_offset 76
 468 0306 200F      	move.l %sp,%d0
 469 0308 5080      	addq.l #8,%d0
 470 030a 2F00      	move.l %d0,-(%sp)
 471               	.cfi_def_cfa_offset 80
 472 030c 4EB9 0000 	jsr CFE_PSP_MemSet
 472      0000 
 473 0312 4FEF 000C 	lea (12,%sp),%sp
68K GAS   			page 17


 474               	.cfi_def_cfa_offset 68
 407:/home/simulink/cFS_FreeRTOS_seL4/cfe/fsw/cfe-core/src/time/cfe_time_api.c **** 
 408:/home/simulink/cFS_FreeRTOS_seL4/cfe/fsw/cfe-core/src/time/cfe_time_api.c ****     
 409:/home/simulink/cFS_FreeRTOS_seL4/cfe/fsw/cfe-core/src/time/cfe_time_api.c ****     /*
 410:/home/simulink/cFS_FreeRTOS_seL4/cfe/fsw/cfe-core/src/time/cfe_time_api.c ****     ** Get reference time values (local time, time at tone, etc.)...
 411:/home/simulink/cFS_FreeRTOS_seL4/cfe/fsw/cfe-core/src/time/cfe_time_api.c ****     */
 412:/home/simulink/cFS_FreeRTOS_seL4/cfe/fsw/cfe-core/src/time/cfe_time_api.c ****     CFE_TIME_GetReference(&Reference);
 475               	.loc 1 412 0
 476 0316 200F      	move.l %sp,%d0
 477 0318 2F00      	move.l %d0,-(%sp)
 478               	.cfi_def_cfa_offset 72
 479 031a 4EB9 0000 	jsr CFE_TIME_GetReference
 479      0000 
 480 0320 588F      	addq.l #4,%sp
 481               	.cfi_def_cfa_offset 68
 413:/home/simulink/cFS_FreeRTOS_seL4/cfe/fsw/cfe-core/src/time/cfe_time_api.c **** 
 414:/home/simulink/cFS_FreeRTOS_seL4/cfe/fsw/cfe-core/src/time/cfe_time_api.c ****     return(Reference.CurrentMET.Seconds);
 482               	.loc 1 414 0
 483 0322 202F 0038 	move.l 56(%sp),%d0
 415:/home/simulink/cFS_FreeRTOS_seL4/cfe/fsw/cfe-core/src/time/cfe_time_api.c **** 
 416:/home/simulink/cFS_FreeRTOS_seL4/cfe/fsw/cfe-core/src/time/cfe_time_api.c **** } /* End of CFE_TIME_GetMETseconds() */
 484               	.loc 1 416 0
 485 0326 4FEF 0040 	lea (64,%sp),%sp
 486 032a 4E75      	rts
 487               	.cfi_endproc
 488               	.LFE68:
 489               	.sizeCFE_TIME_GetMETseconds, .-CFE_TIME_GetMETseconds
 490               	.align2
 491               	.globlCFE_TIME_GetMETsubsecs
 492               	.typeCFE_TIME_GetMETsubsecs, @function
 493               	CFE_TIME_GetMETsubsecs:
 494               	.LFB69:
 417:/home/simulink/cFS_FreeRTOS_seL4/cfe/fsw/cfe-core/src/time/cfe_time_api.c **** 
 418:/home/simulink/cFS_FreeRTOS_seL4/cfe/fsw/cfe-core/src/time/cfe_time_api.c **** 
 419:/home/simulink/cFS_FreeRTOS_seL4/cfe/fsw/cfe-core/src/time/cfe_time_api.c **** /* * * * * * * * * * * * * * * * * * * * * * * * * * * * * * * * * * * * * */
 420:/home/simulink/cFS_FreeRTOS_seL4/cfe/fsw/cfe-core/src/time/cfe_time_api.c **** /*                                                                         */
 421:/home/simulink/cFS_FreeRTOS_seL4/cfe/fsw/cfe-core/src/time/cfe_time_api.c **** /* CFE_TIME_GetMETsubsecs() -- get time data (sub-seconds portion of MET)  */
 422:/home/simulink/cFS_FreeRTOS_seL4/cfe/fsw/cfe-core/src/time/cfe_time_api.c **** /*                                                                         */
 423:/home/simulink/cFS_FreeRTOS_seL4/cfe/fsw/cfe-core/src/time/cfe_time_api.c **** /* * * * * * * * * * * * * * * * * * * * * * * * * * * * * * * * * * * * * */
 424:/home/simulink/cFS_FreeRTOS_seL4/cfe/fsw/cfe-core/src/time/cfe_time_api.c **** 
 425:/home/simulink/cFS_FreeRTOS_seL4/cfe/fsw/cfe-core/src/time/cfe_time_api.c **** uint32   CFE_TIME_GetMETsubsecs(void)
 426:/home/simulink/cFS_FreeRTOS_seL4/cfe/fsw/cfe-core/src/time/cfe_time_api.c **** {
 495               	.loc 1 426 0
 496               	.cfi_startproc
 497 032c 4FEF FFC0 	lea (-64,%sp),%sp
 498               	.cfi_def_cfa_offset 68
 427:/home/simulink/cFS_FreeRTOS_seL4/cfe/fsw/cfe-core/src/time/cfe_time_api.c ****     CFE_TIME_Reference_t Reference;
 428:/home/simulink/cFS_FreeRTOS_seL4/cfe/fsw/cfe-core/src/time/cfe_time_api.c **** 
 429:/home/simulink/cFS_FreeRTOS_seL4/cfe/fsw/cfe-core/src/time/cfe_time_api.c ****     /* Zero out the Reference variable because we pass it into
 430:/home/simulink/cFS_FreeRTOS_seL4/cfe/fsw/cfe-core/src/time/cfe_time_api.c ****      * a function before using it
 431:/home/simulink/cFS_FreeRTOS_seL4/cfe/fsw/cfe-core/src/time/cfe_time_api.c ****      * */
 432:/home/simulink/cFS_FreeRTOS_seL4/cfe/fsw/cfe-core/src/time/cfe_time_api.c ****     CFE_PSP_MemSet(&Reference, 0 , sizeof(CFE_TIME_Reference_t));
 499               	.loc 1 432 0
 500 0330 4878 0040 	pea 64.w
 501               	.cfi_def_cfa_offset 72
 502 0334 42A7      	clr.l -(%sp)
 503               	.cfi_def_cfa_offset 76
68K GAS   			page 18


 504 0336 200F      	move.l %sp,%d0
 505 0338 5080      	addq.l #8,%d0
 506 033a 2F00      	move.l %d0,-(%sp)
 507               	.cfi_def_cfa_offset 80
 508 033c 4EB9 0000 	jsr CFE_PSP_MemSet
 508      0000 
 509 0342 4FEF 000C 	lea (12,%sp),%sp
 510               	.cfi_def_cfa_offset 68
 433:/home/simulink/cFS_FreeRTOS_seL4/cfe/fsw/cfe-core/src/time/cfe_time_api.c ****     
 434:/home/simulink/cFS_FreeRTOS_seL4/cfe/fsw/cfe-core/src/time/cfe_time_api.c ****     /*
 435:/home/simulink/cFS_FreeRTOS_seL4/cfe/fsw/cfe-core/src/time/cfe_time_api.c ****     ** Get reference time values (local time, time at tone, etc.)...
 436:/home/simulink/cFS_FreeRTOS_seL4/cfe/fsw/cfe-core/src/time/cfe_time_api.c ****     */
 437:/home/simulink/cFS_FreeRTOS_seL4/cfe/fsw/cfe-core/src/time/cfe_time_api.c ****     CFE_TIME_GetReference(&Reference);
 511               	.loc 1 437 0
 512 0346 200F      	move.l %sp,%d0
 513 0348 2F00      	move.l %d0,-(%sp)
 514               	.cfi_def_cfa_offset 72
 515 034a 4EB9 0000 	jsr CFE_TIME_GetReference
 515      0000 
 516 0350 588F      	addq.l #4,%sp
 517               	.cfi_def_cfa_offset 68
 438:/home/simulink/cFS_FreeRTOS_seL4/cfe/fsw/cfe-core/src/time/cfe_time_api.c **** 
 439:/home/simulink/cFS_FreeRTOS_seL4/cfe/fsw/cfe-core/src/time/cfe_time_api.c ****     return(Reference.CurrentMET.Subseconds);
 518               	.loc 1 439 0
 519 0352 202F 003C 	move.l 60(%sp),%d0
 440:/home/simulink/cFS_FreeRTOS_seL4/cfe/fsw/cfe-core/src/time/cfe_time_api.c **** 
 441:/home/simulink/cFS_FreeRTOS_seL4/cfe/fsw/cfe-core/src/time/cfe_time_api.c **** } /* End of CFE_TIME_GetMETsubsecs() */
 520               	.loc 1 441 0
 521 0356 4FEF 0040 	lea (64,%sp),%sp
 522 035a 4E75      	rts
 523               	.cfi_endproc
 524               	.LFE69:
 525               	.sizeCFE_TIME_GetMETsubsecs, .-CFE_TIME_GetMETsubsecs
 526               	.align2
 527               	.globlCFE_TIME_Add
 528               	.typeCFE_TIME_Add, @function
 529               	CFE_TIME_Add:
 530               	.LFB70:
 442:/home/simulink/cFS_FreeRTOS_seL4/cfe/fsw/cfe-core/src/time/cfe_time_api.c **** 
 443:/home/simulink/cFS_FreeRTOS_seL4/cfe/fsw/cfe-core/src/time/cfe_time_api.c **** 
 444:/home/simulink/cFS_FreeRTOS_seL4/cfe/fsw/cfe-core/src/time/cfe_time_api.c **** /* * * * * * * * * * * * * * * * * * * * * * * * * * * * * * * * * * * * * */
 445:/home/simulink/cFS_FreeRTOS_seL4/cfe/fsw/cfe-core/src/time/cfe_time_api.c **** /*                                                                         */
 446:/home/simulink/cFS_FreeRTOS_seL4/cfe/fsw/cfe-core/src/time/cfe_time_api.c **** /* CFE_TIME_Add() -- add two CFE_TIME_SysTime_t values                     */
 447:/home/simulink/cFS_FreeRTOS_seL4/cfe/fsw/cfe-core/src/time/cfe_time_api.c **** /*                                                                         */
 448:/home/simulink/cFS_FreeRTOS_seL4/cfe/fsw/cfe-core/src/time/cfe_time_api.c **** /*   result = time1 + time2                                                */
 449:/home/simulink/cFS_FreeRTOS_seL4/cfe/fsw/cfe-core/src/time/cfe_time_api.c **** /*                                                                         */
 450:/home/simulink/cFS_FreeRTOS_seL4/cfe/fsw/cfe-core/src/time/cfe_time_api.c **** /* * * * * * * * * * * * * * * * * * * * * * * * * * * * * * * * * * * * * */
 451:/home/simulink/cFS_FreeRTOS_seL4/cfe/fsw/cfe-core/src/time/cfe_time_api.c **** 
 452:/home/simulink/cFS_FreeRTOS_seL4/cfe/fsw/cfe-core/src/time/cfe_time_api.c **** CFE_TIME_SysTime_t  CFE_TIME_Add(CFE_TIME_SysTime_t Time1, CFE_TIME_SysTime_t Time2)
 453:/home/simulink/cFS_FreeRTOS_seL4/cfe/fsw/cfe-core/src/time/cfe_time_api.c **** {
 531               	.loc 1 453 0
 532               	.cfi_startproc
 533 035c 518F      	subq.l #8,%sp
 534               	.cfi_def_cfa_offset 12
 454:/home/simulink/cFS_FreeRTOS_seL4/cfe/fsw/cfe-core/src/time/cfe_time_api.c ****     CFE_TIME_SysTime_t Result;
 455:/home/simulink/cFS_FreeRTOS_seL4/cfe/fsw/cfe-core/src/time/cfe_time_api.c **** 
 456:/home/simulink/cFS_FreeRTOS_seL4/cfe/fsw/cfe-core/src/time/cfe_time_api.c ****     Result.Subseconds = Time1.Subseconds + Time2.Subseconds;
68K GAS   			page 19


 535               	.loc 1 456 0
 536 035e 222F 0010 	move.l 16(%sp),%d1
 537 0362 202F 0018 	move.l 24(%sp),%d0
 538 0366 D081      	add.l %d1,%d0
 539 0368 2F40 0004 	move.l %d0,4(%sp)
 457:/home/simulink/cFS_FreeRTOS_seL4/cfe/fsw/cfe-core/src/time/cfe_time_api.c **** 
 458:/home/simulink/cFS_FreeRTOS_seL4/cfe/fsw/cfe-core/src/time/cfe_time_api.c ****     /*
 459:/home/simulink/cFS_FreeRTOS_seL4/cfe/fsw/cfe-core/src/time/cfe_time_api.c ****     ** Check for sub-seconds roll-over
 460:/home/simulink/cFS_FreeRTOS_seL4/cfe/fsw/cfe-core/src/time/cfe_time_api.c ****     */
 461:/home/simulink/cFS_FreeRTOS_seL4/cfe/fsw/cfe-core/src/time/cfe_time_api.c ****     if (Result.Subseconds < Time1.Subseconds)
 540               	.loc 1 461 0
 541 036c 222F 0004 	move.l 4(%sp),%d1
 542 0370 202F 0010 	move.l 16(%sp),%d0
 543 0374 B081      	cmp.l %d1,%d0
 544 0376 6310      	jls .L34
 462:/home/simulink/cFS_FreeRTOS_seL4/cfe/fsw/cfe-core/src/time/cfe_time_api.c ****     {
 463:/home/simulink/cFS_FreeRTOS_seL4/cfe/fsw/cfe-core/src/time/cfe_time_api.c ****         Result.Seconds = (Time1.Seconds + Time2.Seconds) + 1;
 545               	.loc 1 463 0
 546 0378 222F 000C 	move.l 12(%sp),%d1
 547 037c 202F 0014 	move.l 20(%sp),%d0
 548 0380 D081      	add.l %d1,%d0
 549 0382 5280      	addq.l #1,%d0
 550 0384 2E80      	move.l %d0,(%sp)
 551 0386 600C      	jra .L35
 552               	.L34:
 464:/home/simulink/cFS_FreeRTOS_seL4/cfe/fsw/cfe-core/src/time/cfe_time_api.c ****     }
 465:/home/simulink/cFS_FreeRTOS_seL4/cfe/fsw/cfe-core/src/time/cfe_time_api.c ****     else
 466:/home/simulink/cFS_FreeRTOS_seL4/cfe/fsw/cfe-core/src/time/cfe_time_api.c ****     {
 467:/home/simulink/cFS_FreeRTOS_seL4/cfe/fsw/cfe-core/src/time/cfe_time_api.c ****         Result.Seconds = Time1.Seconds + Time2.Seconds;
 553               	.loc 1 467 0
 554 0388 222F 000C 	move.l 12(%sp),%d1
 555 038c 202F 0014 	move.l 20(%sp),%d0
 556 0390 D081      	add.l %d1,%d0
 557 0392 2E80      	move.l %d0,(%sp)
 558               	.L35:
 468:/home/simulink/cFS_FreeRTOS_seL4/cfe/fsw/cfe-core/src/time/cfe_time_api.c ****     }
 469:/home/simulink/cFS_FreeRTOS_seL4/cfe/fsw/cfe-core/src/time/cfe_time_api.c **** 
 470:/home/simulink/cFS_FreeRTOS_seL4/cfe/fsw/cfe-core/src/time/cfe_time_api.c ****     return(Result);
 559               	.loc 1 470 0
 560 0394 2017      	move.l (%sp),%d0
 561 0396 222F 0004 	move.l 4(%sp),%d1
 471:/home/simulink/cFS_FreeRTOS_seL4/cfe/fsw/cfe-core/src/time/cfe_time_api.c **** 
 472:/home/simulink/cFS_FreeRTOS_seL4/cfe/fsw/cfe-core/src/time/cfe_time_api.c **** } /* End of CFE_TIME_Add() */
 562               	.loc 1 472 0
 563 039a 508F      	addq.l #8,%sp
 564 039c 4E75      	rts
 565               	.cfi_endproc
 566               	.LFE70:
 567               	.sizeCFE_TIME_Add, .-CFE_TIME_Add
 568               	.align2
 569               	.globlCFE_TIME_Subtract
 570               	.typeCFE_TIME_Subtract, @function
 571               	CFE_TIME_Subtract:
 572               	.LFB71:
 473:/home/simulink/cFS_FreeRTOS_seL4/cfe/fsw/cfe-core/src/time/cfe_time_api.c **** 
 474:/home/simulink/cFS_FreeRTOS_seL4/cfe/fsw/cfe-core/src/time/cfe_time_api.c **** 
 475:/home/simulink/cFS_FreeRTOS_seL4/cfe/fsw/cfe-core/src/time/cfe_time_api.c **** /* * * * * * * * * * * * * * * * * * * * * * * * * * * * * * * * * * * * * */
68K GAS   			page 20


 476:/home/simulink/cFS_FreeRTOS_seL4/cfe/fsw/cfe-core/src/time/cfe_time_api.c **** /*                                                                         */
 477:/home/simulink/cFS_FreeRTOS_seL4/cfe/fsw/cfe-core/src/time/cfe_time_api.c **** /* CFE_TIME_Subtract() -- subtract a CFE_TIME_SysTime_t value from another */
 478:/home/simulink/cFS_FreeRTOS_seL4/cfe/fsw/cfe-core/src/time/cfe_time_api.c **** /*                                                                         */
 479:/home/simulink/cFS_FreeRTOS_seL4/cfe/fsw/cfe-core/src/time/cfe_time_api.c **** /*   result = time1 - time2                                                */
 480:/home/simulink/cFS_FreeRTOS_seL4/cfe/fsw/cfe-core/src/time/cfe_time_api.c **** /*                                                                         */
 481:/home/simulink/cFS_FreeRTOS_seL4/cfe/fsw/cfe-core/src/time/cfe_time_api.c **** /* * * * * * * * * * * * * * * * * * * * * * * * * * * * * * * * * * * * * */
 482:/home/simulink/cFS_FreeRTOS_seL4/cfe/fsw/cfe-core/src/time/cfe_time_api.c **** 
 483:/home/simulink/cFS_FreeRTOS_seL4/cfe/fsw/cfe-core/src/time/cfe_time_api.c **** CFE_TIME_SysTime_t  CFE_TIME_Subtract(CFE_TIME_SysTime_t Time1, CFE_TIME_SysTime_t Time2)
 484:/home/simulink/cFS_FreeRTOS_seL4/cfe/fsw/cfe-core/src/time/cfe_time_api.c **** {
 573               	.loc 1 484 0
 574               	.cfi_startproc
 575 039e 518F      	subq.l #8,%sp
 576               	.cfi_def_cfa_offset 12
 577 03a0 2F02      	move.l %d2,-(%sp)
 578               	.cfi_def_cfa_offset 16
 579               	.cfi_offset 2, -16
 485:/home/simulink/cFS_FreeRTOS_seL4/cfe/fsw/cfe-core/src/time/cfe_time_api.c ****     CFE_TIME_SysTime_t Result;
 486:/home/simulink/cFS_FreeRTOS_seL4/cfe/fsw/cfe-core/src/time/cfe_time_api.c **** 
 487:/home/simulink/cFS_FreeRTOS_seL4/cfe/fsw/cfe-core/src/time/cfe_time_api.c ****     Result.Subseconds = Time1.Subseconds - Time2.Subseconds;
 580               	.loc 1 487 0
 581 03a2 222F 0014 	move.l 20(%sp),%d1
 582 03a6 202F 001C 	move.l 28(%sp),%d0
 583 03aa 2401      	move.l %d1,%d2
 584 03ac 9480      	sub.l %d0,%d2
 585 03ae 2002      	move.l %d2,%d0
 586 03b0 2F40 0008 	move.l %d0,8(%sp)
 488:/home/simulink/cFS_FreeRTOS_seL4/cfe/fsw/cfe-core/src/time/cfe_time_api.c **** 
 489:/home/simulink/cFS_FreeRTOS_seL4/cfe/fsw/cfe-core/src/time/cfe_time_api.c ****     if (Result.Subseconds > Time1.Subseconds)
 587               	.loc 1 489 0
 588 03b4 222F 0008 	move.l 8(%sp),%d1
 589 03b8 202F 0014 	move.l 20(%sp),%d0
 590 03bc B081      	cmp.l %d1,%d0
 591 03be 6416      	jcc .L38
 490:/home/simulink/cFS_FreeRTOS_seL4/cfe/fsw/cfe-core/src/time/cfe_time_api.c ****     {
 491:/home/simulink/cFS_FreeRTOS_seL4/cfe/fsw/cfe-core/src/time/cfe_time_api.c ****         Result.Seconds = (Time1.Seconds - Time2.Seconds) - 1;
 592               	.loc 1 491 0
 593 03c0 222F 0010 	move.l 16(%sp),%d1
 594 03c4 202F 0018 	move.l 24(%sp),%d0
 595 03c8 2401      	move.l %d1,%d2
 596 03ca 9480      	sub.l %d0,%d2
 597 03cc 2002      	move.l %d2,%d0
 598 03ce 5380      	subq.l #1,%d0
 599 03d0 2F40 0004 	move.l %d0,4(%sp)
 600 03d4 6012      	jra .L39
 601               	.L38:
 492:/home/simulink/cFS_FreeRTOS_seL4/cfe/fsw/cfe-core/src/time/cfe_time_api.c ****     }
 493:/home/simulink/cFS_FreeRTOS_seL4/cfe/fsw/cfe-core/src/time/cfe_time_api.c ****     else
 494:/home/simulink/cFS_FreeRTOS_seL4/cfe/fsw/cfe-core/src/time/cfe_time_api.c ****     {
 495:/home/simulink/cFS_FreeRTOS_seL4/cfe/fsw/cfe-core/src/time/cfe_time_api.c ****         Result.Seconds = Time1.Seconds - Time2.Seconds;
 602               	.loc 1 495 0
 603 03d6 222F 0010 	move.l 16(%sp),%d1
 604 03da 202F 0018 	move.l 24(%sp),%d0
 605 03de 2401      	move.l %d1,%d2
 606 03e0 9480      	sub.l %d0,%d2
 607 03e2 2002      	move.l %d2,%d0
 608 03e4 2F40 0004 	move.l %d0,4(%sp)
 609               	.L39:
68K GAS   			page 21


 496:/home/simulink/cFS_FreeRTOS_seL4/cfe/fsw/cfe-core/src/time/cfe_time_api.c ****     }
 497:/home/simulink/cFS_FreeRTOS_seL4/cfe/fsw/cfe-core/src/time/cfe_time_api.c **** 
 498:/home/simulink/cFS_FreeRTOS_seL4/cfe/fsw/cfe-core/src/time/cfe_time_api.c ****     return(Result);
 610               	.loc 1 498 0
 611 03e8 202F 0004 	move.l 4(%sp),%d0
 612 03ec 222F 0008 	move.l 8(%sp),%d1
 499:/home/simulink/cFS_FreeRTOS_seL4/cfe/fsw/cfe-core/src/time/cfe_time_api.c **** 
 500:/home/simulink/cFS_FreeRTOS_seL4/cfe/fsw/cfe-core/src/time/cfe_time_api.c **** } /* End of CFE_TIME_Subtract() */
 613               	.loc 1 500 0
 614 03f0 241F      	move.l (%sp)+,%d2
 615 03f2 508F      	addq.l #8,%sp
 616 03f4 4E75      	rts
 617               	.cfi_endproc
 618               	.LFE71:
 619               	.sizeCFE_TIME_Subtract, .-CFE_TIME_Subtract
 620               	.align2
 621               	.globlCFE_TIME_Compare
 622               	.typeCFE_TIME_Compare, @function
 623               	CFE_TIME_Compare:
 624               	.LFB72:
 501:/home/simulink/cFS_FreeRTOS_seL4/cfe/fsw/cfe-core/src/time/cfe_time_api.c **** 
 502:/home/simulink/cFS_FreeRTOS_seL4/cfe/fsw/cfe-core/src/time/cfe_time_api.c **** 
 503:/home/simulink/cFS_FreeRTOS_seL4/cfe/fsw/cfe-core/src/time/cfe_time_api.c **** /* * * * * * * * * * * * * * * * * * * * * * * * * * * * * * * * * * * * * */
 504:/home/simulink/cFS_FreeRTOS_seL4/cfe/fsw/cfe-core/src/time/cfe_time_api.c **** /*                                                                         */
 505:/home/simulink/cFS_FreeRTOS_seL4/cfe/fsw/cfe-core/src/time/cfe_time_api.c **** /* CFE_TIME_Compare() -- compare two CFE_TIME_SysTime_t values             */
 506:/home/simulink/cFS_FreeRTOS_seL4/cfe/fsw/cfe-core/src/time/cfe_time_api.c **** /*                                                                         */
 507:/home/simulink/cFS_FreeRTOS_seL4/cfe/fsw/cfe-core/src/time/cfe_time_api.c **** /* * * * * * * * * * * * * * * * * * * * * * * * * * * * * * * * * * * * * */
 508:/home/simulink/cFS_FreeRTOS_seL4/cfe/fsw/cfe-core/src/time/cfe_time_api.c **** 
 509:/home/simulink/cFS_FreeRTOS_seL4/cfe/fsw/cfe-core/src/time/cfe_time_api.c **** CFE_TIME_Compare_t  CFE_TIME_Compare(CFE_TIME_SysTime_t TimeA, CFE_TIME_SysTime_t TimeB)
 510:/home/simulink/cFS_FreeRTOS_seL4/cfe/fsw/cfe-core/src/time/cfe_time_api.c **** {
 625               	.loc 1 510 0
 626               	.cfi_startproc
 627 03f6 598F      	subq.l #4,%sp
 628               	.cfi_def_cfa_offset 8
 629 03f8 2F02      	move.l %d2,-(%sp)
 630               	.cfi_def_cfa_offset 12
 631               	.cfi_offset 2, -12
 511:/home/simulink/cFS_FreeRTOS_seL4/cfe/fsw/cfe-core/src/time/cfe_time_api.c ****     CFE_TIME_Compare_t Result;
 512:/home/simulink/cFS_FreeRTOS_seL4/cfe/fsw/cfe-core/src/time/cfe_time_api.c **** 
 513:/home/simulink/cFS_FreeRTOS_seL4/cfe/fsw/cfe-core/src/time/cfe_time_api.c ****     if (TimeA.Seconds > TimeB.Seconds)
 632               	.loc 1 513 0
 633 03fa 222F 000C 	move.l 12(%sp),%d1
 634 03fe 202F 0014 	move.l 20(%sp),%d0
 635 0402 B081      	cmp.l %d1,%d0
 636 0404 6426      	jcc .L42
 514:/home/simulink/cFS_FreeRTOS_seL4/cfe/fsw/cfe-core/src/time/cfe_time_api.c ****     {
 515:/home/simulink/cFS_FreeRTOS_seL4/cfe/fsw/cfe-core/src/time/cfe_time_api.c ****         /*
 516:/home/simulink/cFS_FreeRTOS_seL4/cfe/fsw/cfe-core/src/time/cfe_time_api.c ****         ** Assume rollover if difference is too large...
 517:/home/simulink/cFS_FreeRTOS_seL4/cfe/fsw/cfe-core/src/time/cfe_time_api.c ****         */
 518:/home/simulink/cFS_FreeRTOS_seL4/cfe/fsw/cfe-core/src/time/cfe_time_api.c ****         if ((TimeA.Seconds - TimeB.Seconds) > CFE_TIME_NEGATIVE)
 637               	.loc 1 518 0
 638 0406 222F 000C 	move.l 12(%sp),%d1
 639 040a 202F 0014 	move.l 20(%sp),%d0
 640 040e 2401      	move.l %d1,%d2
 641 0410 9480      	sub.l %d0,%d2
 642 0412 2002      	move.l %d2,%d0
 643 0414 0C80 8000 	cmp.l #-2147483648,%d0
68K GAS   			page 22


 643      0000 
 644 041a 6308      	jls .L43
 519:/home/simulink/cFS_FreeRTOS_seL4/cfe/fsw/cfe-core/src/time/cfe_time_api.c ****         {
 520:/home/simulink/cFS_FreeRTOS_seL4/cfe/fsw/cfe-core/src/time/cfe_time_api.c ****             Result = CFE_TIME_A_LT_B;
 645               	.loc 1 520 0
 646 041c 70FF      	moveq #-1,%d0
 647 041e 2F40 0004 	move.l %d0,4(%sp)
 648 0422 6066      	jra .L45
 649               	.L43:
 521:/home/simulink/cFS_FreeRTOS_seL4/cfe/fsw/cfe-core/src/time/cfe_time_api.c ****         }
 522:/home/simulink/cFS_FreeRTOS_seL4/cfe/fsw/cfe-core/src/time/cfe_time_api.c ****         else
 523:/home/simulink/cFS_FreeRTOS_seL4/cfe/fsw/cfe-core/src/time/cfe_time_api.c ****         {
 524:/home/simulink/cFS_FreeRTOS_seL4/cfe/fsw/cfe-core/src/time/cfe_time_api.c ****             Result = CFE_TIME_A_GT_B;
 650               	.loc 1 524 0
 651 0424 7401      	moveq #1,%d2
 652 0426 2F42 0004 	move.l %d2,4(%sp)
 653 042a 605E      	jra .L45
 654               	.L42:
 525:/home/simulink/cFS_FreeRTOS_seL4/cfe/fsw/cfe-core/src/time/cfe_time_api.c ****         }
 526:/home/simulink/cFS_FreeRTOS_seL4/cfe/fsw/cfe-core/src/time/cfe_time_api.c ****     }
 527:/home/simulink/cFS_FreeRTOS_seL4/cfe/fsw/cfe-core/src/time/cfe_time_api.c ****     else if (TimeA.Seconds < TimeB.Seconds)
 655               	.loc 1 527 0
 656 042c 222F 000C 	move.l 12(%sp),%d1
 657 0430 202F 0014 	move.l 20(%sp),%d0
 658 0434 B081      	cmp.l %d1,%d0
 659 0436 6326      	jls .L46
 528:/home/simulink/cFS_FreeRTOS_seL4/cfe/fsw/cfe-core/src/time/cfe_time_api.c ****     {
 529:/home/simulink/cFS_FreeRTOS_seL4/cfe/fsw/cfe-core/src/time/cfe_time_api.c ****         /*
 530:/home/simulink/cFS_FreeRTOS_seL4/cfe/fsw/cfe-core/src/time/cfe_time_api.c ****         ** Assume rollover if difference is too large...
 531:/home/simulink/cFS_FreeRTOS_seL4/cfe/fsw/cfe-core/src/time/cfe_time_api.c ****         */
 532:/home/simulink/cFS_FreeRTOS_seL4/cfe/fsw/cfe-core/src/time/cfe_time_api.c ****         if ((TimeB.Seconds - TimeA.Seconds) > CFE_TIME_NEGATIVE)
 660               	.loc 1 532 0
 661 0438 222F 0014 	move.l 20(%sp),%d1
 662 043c 202F 000C 	move.l 12(%sp),%d0
 663 0440 2401      	move.l %d1,%d2
 664 0442 9480      	sub.l %d0,%d2
 665 0444 2002      	move.l %d2,%d0
 666 0446 0C80 8000 	cmp.l #-2147483648,%d0
 666      0000 
 667 044c 6308      	jls .L47
 533:/home/simulink/cFS_FreeRTOS_seL4/cfe/fsw/cfe-core/src/time/cfe_time_api.c ****         {
 534:/home/simulink/cFS_FreeRTOS_seL4/cfe/fsw/cfe-core/src/time/cfe_time_api.c ****             Result = CFE_TIME_A_GT_B;
 668               	.loc 1 534 0
 669 044e 7001      	moveq #1,%d0
 670 0450 2F40 0004 	move.l %d0,4(%sp)
 671 0454 6034      	jra .L45
 672               	.L47:
 535:/home/simulink/cFS_FreeRTOS_seL4/cfe/fsw/cfe-core/src/time/cfe_time_api.c ****         }
 536:/home/simulink/cFS_FreeRTOS_seL4/cfe/fsw/cfe-core/src/time/cfe_time_api.c ****         else
 537:/home/simulink/cFS_FreeRTOS_seL4/cfe/fsw/cfe-core/src/time/cfe_time_api.c ****         {
 538:/home/simulink/cFS_FreeRTOS_seL4/cfe/fsw/cfe-core/src/time/cfe_time_api.c ****             Result = CFE_TIME_A_LT_B;
 673               	.loc 1 538 0
 674 0456 74FF      	moveq #-1,%d2
 675 0458 2F42 0004 	move.l %d2,4(%sp)
 676 045c 602C      	jra .L45
 677               	.L46:
 539:/home/simulink/cFS_FreeRTOS_seL4/cfe/fsw/cfe-core/src/time/cfe_time_api.c ****         }
68K GAS   			page 23


 540:/home/simulink/cFS_FreeRTOS_seL4/cfe/fsw/cfe-core/src/time/cfe_time_api.c ****     }
 541:/home/simulink/cFS_FreeRTOS_seL4/cfe/fsw/cfe-core/src/time/cfe_time_api.c ****     else
 542:/home/simulink/cFS_FreeRTOS_seL4/cfe/fsw/cfe-core/src/time/cfe_time_api.c ****     {
 543:/home/simulink/cFS_FreeRTOS_seL4/cfe/fsw/cfe-core/src/time/cfe_time_api.c ****         /*
 544:/home/simulink/cFS_FreeRTOS_seL4/cfe/fsw/cfe-core/src/time/cfe_time_api.c ****         ** Seconds are equal, check sub-seconds
 545:/home/simulink/cFS_FreeRTOS_seL4/cfe/fsw/cfe-core/src/time/cfe_time_api.c ****         */
 546:/home/simulink/cFS_FreeRTOS_seL4/cfe/fsw/cfe-core/src/time/cfe_time_api.c ****         if (TimeA.Subseconds > TimeB.Subseconds)
 678               	.loc 1 546 0
 679 045e 222F 0010 	move.l 16(%sp),%d1
 680 0462 202F 0018 	move.l 24(%sp),%d0
 681 0466 B081      	cmp.l %d1,%d0
 682 0468 6408      	jcc .L49
 547:/home/simulink/cFS_FreeRTOS_seL4/cfe/fsw/cfe-core/src/time/cfe_time_api.c ****         {
 548:/home/simulink/cFS_FreeRTOS_seL4/cfe/fsw/cfe-core/src/time/cfe_time_api.c ****             Result = CFE_TIME_A_GT_B;
 683               	.loc 1 548 0
 684 046a 7001      	moveq #1,%d0
 685 046c 2F40 0004 	move.l %d0,4(%sp)
 686 0470 6018      	jra .L45
 687               	.L49:
 549:/home/simulink/cFS_FreeRTOS_seL4/cfe/fsw/cfe-core/src/time/cfe_time_api.c ****         }
 550:/home/simulink/cFS_FreeRTOS_seL4/cfe/fsw/cfe-core/src/time/cfe_time_api.c ****         else if (TimeA.Subseconds < TimeB.Subseconds)
 688               	.loc 1 550 0
 689 0472 222F 0010 	move.l 16(%sp),%d1
 690 0476 202F 0018 	move.l 24(%sp),%d0
 691 047a B081      	cmp.l %d1,%d0
 692 047c 6308      	jls .L50
 551:/home/simulink/cFS_FreeRTOS_seL4/cfe/fsw/cfe-core/src/time/cfe_time_api.c ****         {
 552:/home/simulink/cFS_FreeRTOS_seL4/cfe/fsw/cfe-core/src/time/cfe_time_api.c ****             Result = CFE_TIME_A_LT_B;
 693               	.loc 1 552 0
 694 047e 74FF      	moveq #-1,%d2
 695 0480 2F42 0004 	move.l %d2,4(%sp)
 696 0484 6004      	jra .L45
 697               	.L50:
 553:/home/simulink/cFS_FreeRTOS_seL4/cfe/fsw/cfe-core/src/time/cfe_time_api.c ****         }
 554:/home/simulink/cFS_FreeRTOS_seL4/cfe/fsw/cfe-core/src/time/cfe_time_api.c ****         else
 555:/home/simulink/cFS_FreeRTOS_seL4/cfe/fsw/cfe-core/src/time/cfe_time_api.c ****         {
 556:/home/simulink/cFS_FreeRTOS_seL4/cfe/fsw/cfe-core/src/time/cfe_time_api.c ****             Result = CFE_TIME_EQUAL;
 698               	.loc 1 556 0
 699 0486 42AF 0004 	clr.l 4(%sp)
 700               	.L45:
 557:/home/simulink/cFS_FreeRTOS_seL4/cfe/fsw/cfe-core/src/time/cfe_time_api.c ****         }
 558:/home/simulink/cFS_FreeRTOS_seL4/cfe/fsw/cfe-core/src/time/cfe_time_api.c ****     }
 559:/home/simulink/cFS_FreeRTOS_seL4/cfe/fsw/cfe-core/src/time/cfe_time_api.c **** 
 560:/home/simulink/cFS_FreeRTOS_seL4/cfe/fsw/cfe-core/src/time/cfe_time_api.c ****     return(Result);
 701               	.loc 1 560 0
 702 048a 202F 0004 	move.l 4(%sp),%d0
 561:/home/simulink/cFS_FreeRTOS_seL4/cfe/fsw/cfe-core/src/time/cfe_time_api.c **** 
 562:/home/simulink/cFS_FreeRTOS_seL4/cfe/fsw/cfe-core/src/time/cfe_time_api.c **** } /* End of CFE_TIME_Compare() */
 703               	.loc 1 562 0
 704 048e 241F      	move.l (%sp)+,%d2
 705 0490 588F      	addq.l #4,%sp
 706 0492 4E75      	rts
 707               	.cfi_endproc
 708               	.LFE72:
 709               	.sizeCFE_TIME_Compare, .-CFE_TIME_Compare
 710               	.align2
 711               	.globlCFE_TIME_Sub2MicroSecs
68K GAS   			page 24


 712               	.typeCFE_TIME_Sub2MicroSecs, @function
 713               	CFE_TIME_Sub2MicroSecs:
 714               	.LFB73:
 563:/home/simulink/cFS_FreeRTOS_seL4/cfe/fsw/cfe-core/src/time/cfe_time_api.c **** 
 564:/home/simulink/cFS_FreeRTOS_seL4/cfe/fsw/cfe-core/src/time/cfe_time_api.c **** 
 565:/home/simulink/cFS_FreeRTOS_seL4/cfe/fsw/cfe-core/src/time/cfe_time_api.c **** /* * * * * * * * * * * * * * * * * * * * * * * * * * * * * * * * * * * * * */
 566:/home/simulink/cFS_FreeRTOS_seL4/cfe/fsw/cfe-core/src/time/cfe_time_api.c **** /*                                                                         */
 567:/home/simulink/cFS_FreeRTOS_seL4/cfe/fsw/cfe-core/src/time/cfe_time_api.c **** /* CFE_TIME_Sub2MicroSecs() -- convert sub-seconds to micro-seconds        */
 568:/home/simulink/cFS_FreeRTOS_seL4/cfe/fsw/cfe-core/src/time/cfe_time_api.c **** /*                                                                         */
 569:/home/simulink/cFS_FreeRTOS_seL4/cfe/fsw/cfe-core/src/time/cfe_time_api.c **** /* * * * * * * * * * * * * * * * * * * * * * * * * * * * * * * * * * * * * */
 570:/home/simulink/cFS_FreeRTOS_seL4/cfe/fsw/cfe-core/src/time/cfe_time_api.c **** 
 571:/home/simulink/cFS_FreeRTOS_seL4/cfe/fsw/cfe-core/src/time/cfe_time_api.c **** uint32  CFE_TIME_Sub2MicroSecs(uint32 SubSeconds)
 572:/home/simulink/cFS_FreeRTOS_seL4/cfe/fsw/cfe-core/src/time/cfe_time_api.c **** {
 715               	.loc 1 572 0
 716               	.cfi_startproc
 717 0494 598F      	subq.l #4,%sp
 718               	.cfi_def_cfa_offset 8
 573:/home/simulink/cFS_FreeRTOS_seL4/cfe/fsw/cfe-core/src/time/cfe_time_api.c ****     uint32 MicroSeconds;
 574:/home/simulink/cFS_FreeRTOS_seL4/cfe/fsw/cfe-core/src/time/cfe_time_api.c **** 	
 575:/home/simulink/cFS_FreeRTOS_seL4/cfe/fsw/cfe-core/src/time/cfe_time_api.c ****     /* 0xffffdf00 subseconds = 999999 microseconds, so anything greater 
 576:/home/simulink/cFS_FreeRTOS_seL4/cfe/fsw/cfe-core/src/time/cfe_time_api.c ****      * than that we set to 999999 microseconds, so it doesn't get to
 577:/home/simulink/cFS_FreeRTOS_seL4/cfe/fsw/cfe-core/src/time/cfe_time_api.c ****      * a million microseconds */
 578:/home/simulink/cFS_FreeRTOS_seL4/cfe/fsw/cfe-core/src/time/cfe_time_api.c ****     
 579:/home/simulink/cFS_FreeRTOS_seL4/cfe/fsw/cfe-core/src/time/cfe_time_api.c **** 	if (SubSeconds > 0xffffdf00)
 719               	.loc 1 579 0
 720 0496 203C FFFF 	move.l #-8448,%d0
 720      DF00 
 721 049c B0AF 0008 	cmp.l 8(%sp),%d0
 722 04a0 6408      	jcc .L53
 580:/home/simulink/cFS_FreeRTOS_seL4/cfe/fsw/cfe-core/src/time/cfe_time_api.c **** 	{
 581:/home/simulink/cFS_FreeRTOS_seL4/cfe/fsw/cfe-core/src/time/cfe_time_api.c **** 			MicroSeconds = 999999;
 723               	.loc 1 581 0
 724 04a2 2EBC 000F 	move.l #999999,(%sp)
 724      423F 
 725 04a8 6036      	jra .L54
 726               	.L53:
 582:/home/simulink/cFS_FreeRTOS_seL4/cfe/fsw/cfe-core/src/time/cfe_time_api.c **** 	}
 583:/home/simulink/cFS_FreeRTOS_seL4/cfe/fsw/cfe-core/src/time/cfe_time_api.c ****     else
 584:/home/simulink/cFS_FreeRTOS_seL4/cfe/fsw/cfe-core/src/time/cfe_time_api.c ****     {
 585:/home/simulink/cFS_FreeRTOS_seL4/cfe/fsw/cfe-core/src/time/cfe_time_api.c ****         /*
 586:/home/simulink/cFS_FreeRTOS_seL4/cfe/fsw/cfe-core/src/time/cfe_time_api.c ****         **  Convert a 1/2^32 clock tick count to a microseconds count
 587:/home/simulink/cFS_FreeRTOS_seL4/cfe/fsw/cfe-core/src/time/cfe_time_api.c ****         **
 588:/home/simulink/cFS_FreeRTOS_seL4/cfe/fsw/cfe-core/src/time/cfe_time_api.c ****         **  Conversion factor is  ( ( 2 ** -32 ) / ( 10 ** -6 ) ).
 589:/home/simulink/cFS_FreeRTOS_seL4/cfe/fsw/cfe-core/src/time/cfe_time_api.c ****         **
 590:/home/simulink/cFS_FreeRTOS_seL4/cfe/fsw/cfe-core/src/time/cfe_time_api.c ****         **  Logic is as follows:
 591:/home/simulink/cFS_FreeRTOS_seL4/cfe/fsw/cfe-core/src/time/cfe_time_api.c ****         **    x * ( ( 2 ** -32 ) / ( 10 ** -6 ) )
 592:/home/simulink/cFS_FreeRTOS_seL4/cfe/fsw/cfe-core/src/time/cfe_time_api.c ****         **  = x * ( ( 10 ** 6  ) / (  2 ** 32 ) )
 593:/home/simulink/cFS_FreeRTOS_seL4/cfe/fsw/cfe-core/src/time/cfe_time_api.c ****         **  = x * ( ( 5 ** 6 ) ( 2 ** 6 ) / ( 2 ** 26 ) ( 2 ** 6) )
 594:/home/simulink/cFS_FreeRTOS_seL4/cfe/fsw/cfe-core/src/time/cfe_time_api.c ****         **  = x * ( ( 5 ** 6 ) / ( 2 ** 26 ) )
 595:/home/simulink/cFS_FreeRTOS_seL4/cfe/fsw/cfe-core/src/time/cfe_time_api.c ****         **  = x * ( ( 5 ** 3 ) ( 5 ** 3 ) / ( 2 ** 7 ) ( 2 ** 7 ) (2 ** 12) )
 596:/home/simulink/cFS_FreeRTOS_seL4/cfe/fsw/cfe-core/src/time/cfe_time_api.c ****         **
 597:/home/simulink/cFS_FreeRTOS_seL4/cfe/fsw/cfe-core/src/time/cfe_time_api.c ****         **  C code equivalent:
 598:/home/simulink/cFS_FreeRTOS_seL4/cfe/fsw/cfe-core/src/time/cfe_time_api.c ****         **  = ( ( ( ( ( x >> 7) * 125) >> 7) * 125) >> 12 )
 599:/home/simulink/cFS_FreeRTOS_seL4/cfe/fsw/cfe-core/src/time/cfe_time_api.c ****         */   
 600:/home/simulink/cFS_FreeRTOS_seL4/cfe/fsw/cfe-core/src/time/cfe_time_api.c **** 
 601:/home/simulink/cFS_FreeRTOS_seL4/cfe/fsw/cfe-core/src/time/cfe_time_api.c ****     	MicroSeconds = (((((SubSeconds >> 7) * 125) >> 7) * 125) >> 12);
 727               	.loc 1 601 0
68K GAS   			page 25


 728 04aa 202F 0008 	move.l 8(%sp),%d0
 729 04ae EE88      	lsr.l #7,%d0
 730 04b0 727D      	moveq #125,%d1
 731 04b2 4C01 0800 	muls.l %d1,%d0
 732 04b6 EE88      	lsr.l #7,%d0
 733 04b8 727D      	moveq #125,%d1
 734 04ba 4C01 0800 	muls.l %d1,%d0
 735 04be 720C      	moveq #12,%d1
 736 04c0 E2A8      	lsr.l %d1,%d0
 737 04c2 2E80      	move.l %d0,(%sp)
 602:/home/simulink/cFS_FreeRTOS_seL4/cfe/fsw/cfe-core/src/time/cfe_time_api.c ****     
 603:/home/simulink/cFS_FreeRTOS_seL4/cfe/fsw/cfe-core/src/time/cfe_time_api.c **** 
 604:/home/simulink/cFS_FreeRTOS_seL4/cfe/fsw/cfe-core/src/time/cfe_time_api.c ****         /* if the Subseconds % 0x4000000 != 0 then we will need to
 605:/home/simulink/cFS_FreeRTOS_seL4/cfe/fsw/cfe-core/src/time/cfe_time_api.c ****          * add 1 to the result. the & is a faster way of doing the % */  
 606:/home/simulink/cFS_FreeRTOS_seL4/cfe/fsw/cfe-core/src/time/cfe_time_api.c **** 	    if ((SubSeconds & 0x3ffffff) != 0)
 738               	.loc 1 606 0
 739 04c4 202F 0008 	move.l 8(%sp),%d0
 740 04c8 0280 03FF 	and.l #67108863,%d0
 740      FFFF 
 741 04ce 4A80      	tst.l %d0
 742 04d0 6702      	jeq .L55
 607:/home/simulink/cFS_FreeRTOS_seL4/cfe/fsw/cfe-core/src/time/cfe_time_api.c ****     	{
 608:/home/simulink/cFS_FreeRTOS_seL4/cfe/fsw/cfe-core/src/time/cfe_time_api.c **** 	    	MicroSeconds++;
 743               	.loc 1 608 0
 744 04d2 5297      	addq.l #1,(%sp)
 745               	.L55:
 609:/home/simulink/cFS_FreeRTOS_seL4/cfe/fsw/cfe-core/src/time/cfe_time_api.c ****     	}
 610:/home/simulink/cFS_FreeRTOS_seL4/cfe/fsw/cfe-core/src/time/cfe_time_api.c ****     
 611:/home/simulink/cFS_FreeRTOS_seL4/cfe/fsw/cfe-core/src/time/cfe_time_api.c ****         /* In the Micro2SubSecs conversion, we added an extra anomaly
 612:/home/simulink/cFS_FreeRTOS_seL4/cfe/fsw/cfe-core/src/time/cfe_time_api.c ****          * to get the subseconds to bump up against the end point,
 613:/home/simulink/cFS_FreeRTOS_seL4/cfe/fsw/cfe-core/src/time/cfe_time_api.c ****          * 0xFFFFF000. This must be accounted for here. Since we bumped
 614:/home/simulink/cFS_FreeRTOS_seL4/cfe/fsw/cfe-core/src/time/cfe_time_api.c ****          * at the half way mark, we must "unbump" at the same mark 
 615:/home/simulink/cFS_FreeRTOS_seL4/cfe/fsw/cfe-core/src/time/cfe_time_api.c ****          */
 616:/home/simulink/cFS_FreeRTOS_seL4/cfe/fsw/cfe-core/src/time/cfe_time_api.c ****         if (MicroSeconds > 500000)
 746               	.loc 1 616 0
 747 04d4 203C 0007 	move.l #500000,%d0
 747      A120 
 748 04da B097      	cmp.l (%sp),%d0
 749 04dc 6402      	jcc .L54
 617:/home/simulink/cFS_FreeRTOS_seL4/cfe/fsw/cfe-core/src/time/cfe_time_api.c ****         {
 618:/home/simulink/cFS_FreeRTOS_seL4/cfe/fsw/cfe-core/src/time/cfe_time_api.c ****             MicroSeconds --;
 750               	.loc 1 618 0
 751 04de 5397      	subq.l #1,(%sp)
 752               	.L54:
 619:/home/simulink/cFS_FreeRTOS_seL4/cfe/fsw/cfe-core/src/time/cfe_time_api.c ****         }
 620:/home/simulink/cFS_FreeRTOS_seL4/cfe/fsw/cfe-core/src/time/cfe_time_api.c ****         
 621:/home/simulink/cFS_FreeRTOS_seL4/cfe/fsw/cfe-core/src/time/cfe_time_api.c ****     } /* end else */
 622:/home/simulink/cFS_FreeRTOS_seL4/cfe/fsw/cfe-core/src/time/cfe_time_api.c ****     
 623:/home/simulink/cFS_FreeRTOS_seL4/cfe/fsw/cfe-core/src/time/cfe_time_api.c ****     return(MicroSeconds);
 753               	.loc 1 623 0
 754 04e0 2017      	move.l (%sp),%d0
 624:/home/simulink/cFS_FreeRTOS_seL4/cfe/fsw/cfe-core/src/time/cfe_time_api.c **** 
 625:/home/simulink/cFS_FreeRTOS_seL4/cfe/fsw/cfe-core/src/time/cfe_time_api.c **** } /* End of CFE_TIME_Sub2MicroSecs() */
 755               	.loc 1 625 0
 756 04e2 588F      	addq.l #4,%sp
 757 04e4 4E75      	rts
 758               	.cfi_endproc
68K GAS   			page 26


 759               	.LFE73:
 760               	.sizeCFE_TIME_Sub2MicroSecs, .-CFE_TIME_Sub2MicroSecs
 761               	.align2
 762               	.globlCFE_TIME_Micro2SubSecs
 763               	.typeCFE_TIME_Micro2SubSecs, @function
 764               	CFE_TIME_Micro2SubSecs:
 765               	.LFB74:
 626:/home/simulink/cFS_FreeRTOS_seL4/cfe/fsw/cfe-core/src/time/cfe_time_api.c **** 
 627:/home/simulink/cFS_FreeRTOS_seL4/cfe/fsw/cfe-core/src/time/cfe_time_api.c **** 
 628:/home/simulink/cFS_FreeRTOS_seL4/cfe/fsw/cfe-core/src/time/cfe_time_api.c **** /* * * * * * * * * * * * * * * * * * * * * * * * * * * * * * * * * * * * * */
 629:/home/simulink/cFS_FreeRTOS_seL4/cfe/fsw/cfe-core/src/time/cfe_time_api.c **** /*                                                                         */
 630:/home/simulink/cFS_FreeRTOS_seL4/cfe/fsw/cfe-core/src/time/cfe_time_api.c **** /* CFE_TIME_Micro2SubSecs() -- convert micro-seconds to sub-seconds        */
 631:/home/simulink/cFS_FreeRTOS_seL4/cfe/fsw/cfe-core/src/time/cfe_time_api.c **** /*                                                                         */
 632:/home/simulink/cFS_FreeRTOS_seL4/cfe/fsw/cfe-core/src/time/cfe_time_api.c **** /* * * * * * * * * * * * * * * * * * * * * * * * * * * * * * * * * * * * * */
 633:/home/simulink/cFS_FreeRTOS_seL4/cfe/fsw/cfe-core/src/time/cfe_time_api.c **** 
 634:/home/simulink/cFS_FreeRTOS_seL4/cfe/fsw/cfe-core/src/time/cfe_time_api.c **** uint32  CFE_TIME_Micro2SubSecs(uint32 MicroSeconds)
 635:/home/simulink/cFS_FreeRTOS_seL4/cfe/fsw/cfe-core/src/time/cfe_time_api.c **** {
 766               	.loc 1 635 0
 767               	.cfi_startproc
 768 04e6 598F      	subq.l #4,%sp
 769               	.cfi_def_cfa_offset 8
 770 04e8 2F02      	move.l %d2,-(%sp)
 771               	.cfi_def_cfa_offset 12
 772               	.cfi_offset 2, -12
 636:/home/simulink/cFS_FreeRTOS_seL4/cfe/fsw/cfe-core/src/time/cfe_time_api.c ****     uint32 SubSeconds;
 637:/home/simulink/cFS_FreeRTOS_seL4/cfe/fsw/cfe-core/src/time/cfe_time_api.c **** 
 638:/home/simulink/cFS_FreeRTOS_seL4/cfe/fsw/cfe-core/src/time/cfe_time_api.c ****     /*
 639:/home/simulink/cFS_FreeRTOS_seL4/cfe/fsw/cfe-core/src/time/cfe_time_api.c ****     ** Conversion amount must be less than one second
 640:/home/simulink/cFS_FreeRTOS_seL4/cfe/fsw/cfe-core/src/time/cfe_time_api.c ****     */
 641:/home/simulink/cFS_FreeRTOS_seL4/cfe/fsw/cfe-core/src/time/cfe_time_api.c ****     if (MicroSeconds > 999999)
 773               	.loc 1 641 0
 774 04ea 203C 000F 	move.l #999999,%d0
 774      423F 
 775 04f0 B0AF 000C 	cmp.l 12(%sp),%d0
 776 04f4 6408      	jcc .L58
 642:/home/simulink/cFS_FreeRTOS_seL4/cfe/fsw/cfe-core/src/time/cfe_time_api.c ****     {
 643:/home/simulink/cFS_FreeRTOS_seL4/cfe/fsw/cfe-core/src/time/cfe_time_api.c ****         SubSeconds = 0xFFFFFFFF;
 777               	.loc 1 643 0
 778 04f6 72FF      	moveq #-1,%d1
 779 04f8 2F41 0004 	move.l %d1,4(%sp)
 780 04fc 6040      	jra .L59
 781               	.L58:
 644:/home/simulink/cFS_FreeRTOS_seL4/cfe/fsw/cfe-core/src/time/cfe_time_api.c ****     }
 645:/home/simulink/cFS_FreeRTOS_seL4/cfe/fsw/cfe-core/src/time/cfe_time_api.c ****     else
 646:/home/simulink/cFS_FreeRTOS_seL4/cfe/fsw/cfe-core/src/time/cfe_time_api.c ****     {
 647:/home/simulink/cFS_FreeRTOS_seL4/cfe/fsw/cfe-core/src/time/cfe_time_api.c ****     /*
 648:/home/simulink/cFS_FreeRTOS_seL4/cfe/fsw/cfe-core/src/time/cfe_time_api.c ****     **  Convert micro-seconds count to sub-seconds (1/2^32) count
 649:/home/simulink/cFS_FreeRTOS_seL4/cfe/fsw/cfe-core/src/time/cfe_time_api.c ****     **
 650:/home/simulink/cFS_FreeRTOS_seL4/cfe/fsw/cfe-core/src/time/cfe_time_api.c ****     **  Conversion factor is  ( ( 10 ** -6 ) / ( 2 ** -20 ).
 651:/home/simulink/cFS_FreeRTOS_seL4/cfe/fsw/cfe-core/src/time/cfe_time_api.c ****     **
 652:/home/simulink/cFS_FreeRTOS_seL4/cfe/fsw/cfe-core/src/time/cfe_time_api.c ****     **  Logic is as follows:
 653:/home/simulink/cFS_FreeRTOS_seL4/cfe/fsw/cfe-core/src/time/cfe_time_api.c ****     **    x * ( ( 10 ** -6 ) / ( 2 ** -32 ) )
 654:/home/simulink/cFS_FreeRTOS_seL4/cfe/fsw/cfe-core/src/time/cfe_time_api.c ****     **  = x * ( ( 2 ** 32 ) / ( 10 ** 6 ) )
 655:/home/simulink/cFS_FreeRTOS_seL4/cfe/fsw/cfe-core/src/time/cfe_time_api.c ****     **  = x * ( ( ( 2 ** 26 ) ( 2 ** 6) ) / ( ( 5 ** 6 ) ( 2 ** 6 ) ) )
 656:/home/simulink/cFS_FreeRTOS_seL4/cfe/fsw/cfe-core/src/time/cfe_time_api.c ****     **  = x * ( ( 2 ** 26 ) / ( 5 ** 6 ) )
 657:/home/simulink/cFS_FreeRTOS_seL4/cfe/fsw/cfe-core/src/time/cfe_time_api.c ****     **  = x * ( ( ( 2 ** 11) ( 2 ** 3) (2 ** 12) ) / ( 5( 5 ** 5 ) ) )
 658:/home/simulink/cFS_FreeRTOS_seL4/cfe/fsw/cfe-core/src/time/cfe_time_api.c ****     **  = x * ( ( ( ( ( 2 ** 11 ) / 5 ) * ( 2 ** 3 ) ) / ( 5 ** 5 ) ) * (2 ** 12) )
68K GAS   			page 27


 659:/home/simulink/cFS_FreeRTOS_seL4/cfe/fsw/cfe-core/src/time/cfe_time_api.c ****     **
 660:/home/simulink/cFS_FreeRTOS_seL4/cfe/fsw/cfe-core/src/time/cfe_time_api.c ****     **  C code equivalent:
 661:/home/simulink/cFS_FreeRTOS_seL4/cfe/fsw/cfe-core/src/time/cfe_time_api.c ****     **  = ( ( ( ( ( x << 11 ) / 5 ) << 3 ) / 3125 ) << 12 )
 662:/home/simulink/cFS_FreeRTOS_seL4/cfe/fsw/cfe-core/src/time/cfe_time_api.c ****     **
 663:/home/simulink/cFS_FreeRTOS_seL4/cfe/fsw/cfe-core/src/time/cfe_time_api.c ****     **  Conversion factor was reduced and factored accordingly
 664:/home/simulink/cFS_FreeRTOS_seL4/cfe/fsw/cfe-core/src/time/cfe_time_api.c ****     **  to minimize precision loss and register overflow.
 665:/home/simulink/cFS_FreeRTOS_seL4/cfe/fsw/cfe-core/src/time/cfe_time_api.c ****     */
 666:/home/simulink/cFS_FreeRTOS_seL4/cfe/fsw/cfe-core/src/time/cfe_time_api.c ****         SubSeconds = ( ( ( ( MicroSeconds << 11 ) / 5 ) << 3 ) / 3125 ) << 12;
 782               	.loc 1 666 0
 783 04fe 202F 000C 	move.l 12(%sp),%d0
 784 0502 740B      	moveq #11,%d2
 785 0504 E5A8      	lsl.l %d2,%d0
 786 0506 7405      	moveq #5,%d2
 787 0508 4C42 0001 	remu.l %d2,%d1:%d0
 788 050c 4C42 0000 	divu.l %d2,%d0
 789 0510 E788      	lsl.l #3,%d0
 790 0512 243C 0000 	move.l #3125,%d2
 790      0C35 
 791 0518 4C42 0001 	remu.l %d2,%d1:%d0
 792 051c 4C42 0000 	divu.l %d2,%d0
 793 0520 720C      	moveq #12,%d1
 794 0522 E3A8      	lsl.l %d1,%d0
 795 0524 2F40 0004 	move.l %d0,4(%sp)
 667:/home/simulink/cFS_FreeRTOS_seL4/cfe/fsw/cfe-core/src/time/cfe_time_api.c **** 
 668:/home/simulink/cFS_FreeRTOS_seL4/cfe/fsw/cfe-core/src/time/cfe_time_api.c ****         /* To get the SubSeconds to "bump up" against 0xFFFFF000 when 
 669:/home/simulink/cFS_FreeRTOS_seL4/cfe/fsw/cfe-core/src/time/cfe_time_api.c ****          * MicroSeconds = 9999999, we add in another anomaly to the 
 670:/home/simulink/cFS_FreeRTOS_seL4/cfe/fsw/cfe-core/src/time/cfe_time_api.c ****          * conversion at the half-way point  (500000 us). This will bump
 671:/home/simulink/cFS_FreeRTOS_seL4/cfe/fsw/cfe-core/src/time/cfe_time_api.c ****          * all of the subseconds up by 0x1000, so 999999 us == 0xFFFFF00,
 672:/home/simulink/cFS_FreeRTOS_seL4/cfe/fsw/cfe-core/src/time/cfe_time_api.c ****          * 999998 == 0xFFFFE000, etc. This extra anomaly is accounted for
 673:/home/simulink/cFS_FreeRTOS_seL4/cfe/fsw/cfe-core/src/time/cfe_time_api.c ****          * in the Sub2MicroSecs conversion as well.
 674:/home/simulink/cFS_FreeRTOS_seL4/cfe/fsw/cfe-core/src/time/cfe_time_api.c ****          */
 675:/home/simulink/cFS_FreeRTOS_seL4/cfe/fsw/cfe-core/src/time/cfe_time_api.c ****         
 676:/home/simulink/cFS_FreeRTOS_seL4/cfe/fsw/cfe-core/src/time/cfe_time_api.c ****         if (SubSeconds > 0x80001000)
 796               	.loc 1 676 0
 797 0528 243C 8000 	move.l #-2147479552,%d2
 797      1000 
 798 052e B4AF 0004 	cmp.l 4(%sp),%d2
 799 0532 640A      	jcc .L59
 677:/home/simulink/cFS_FreeRTOS_seL4/cfe/fsw/cfe-core/src/time/cfe_time_api.c ****         {
 678:/home/simulink/cFS_FreeRTOS_seL4/cfe/fsw/cfe-core/src/time/cfe_time_api.c ****            SubSeconds += 0x1000;
 800               	.loc 1 678 0
 801 0534 203C 0000 	move.l #4096,%d0
 801      1000 
 802 053a D1AF 0004 	add.l %d0,4(%sp)
 803               	.L59:
 679:/home/simulink/cFS_FreeRTOS_seL4/cfe/fsw/cfe-core/src/time/cfe_time_api.c ****         }
 680:/home/simulink/cFS_FreeRTOS_seL4/cfe/fsw/cfe-core/src/time/cfe_time_api.c **** 
 681:/home/simulink/cFS_FreeRTOS_seL4/cfe/fsw/cfe-core/src/time/cfe_time_api.c ****     }
 682:/home/simulink/cFS_FreeRTOS_seL4/cfe/fsw/cfe-core/src/time/cfe_time_api.c **** 
 683:/home/simulink/cFS_FreeRTOS_seL4/cfe/fsw/cfe-core/src/time/cfe_time_api.c ****     return(SubSeconds);
 804               	.loc 1 683 0
 805 053e 202F 0004 	move.l 4(%sp),%d0
 684:/home/simulink/cFS_FreeRTOS_seL4/cfe/fsw/cfe-core/src/time/cfe_time_api.c **** 
 685:/home/simulink/cFS_FreeRTOS_seL4/cfe/fsw/cfe-core/src/time/cfe_time_api.c **** } /* End of CFE_TIME_Micro2SubSecs() */
 806               	.loc 1 685 0
 807 0542 241F      	move.l (%sp)+,%d2
 808 0544 588F      	addq.l #4,%sp
68K GAS   			page 28


 809 0546 4E75      	rts
 810               	.cfi_endproc
 811               	.LFE74:
 812               	.sizeCFE_TIME_Micro2SubSecs, .-CFE_TIME_Micro2SubSecs
 813               	.align2
 814               	.globlCFE_TIME_CFE2FSSeconds
 815               	.typeCFE_TIME_CFE2FSSeconds, @function
 816               	CFE_TIME_CFE2FSSeconds:
 817               	.LFB75:
 686:/home/simulink/cFS_FreeRTOS_seL4/cfe/fsw/cfe-core/src/time/cfe_time_api.c **** 
 687:/home/simulink/cFS_FreeRTOS_seL4/cfe/fsw/cfe-core/src/time/cfe_time_api.c **** 
 688:/home/simulink/cFS_FreeRTOS_seL4/cfe/fsw/cfe-core/src/time/cfe_time_api.c **** /* * * * * * * * * * * * * * * * * * * * * * * * * * * * * * * * * * * * * */
 689:/home/simulink/cFS_FreeRTOS_seL4/cfe/fsw/cfe-core/src/time/cfe_time_api.c **** /*                                                                         */
 690:/home/simulink/cFS_FreeRTOS_seL4/cfe/fsw/cfe-core/src/time/cfe_time_api.c **** /* CFE_TIME_CFE2FSSeconds() --  convert cFE seconds to file system seconds */
 691:/home/simulink/cFS_FreeRTOS_seL4/cfe/fsw/cfe-core/src/time/cfe_time_api.c **** /*                                                                         */
 692:/home/simulink/cFS_FreeRTOS_seL4/cfe/fsw/cfe-core/src/time/cfe_time_api.c **** /* * * * * * * * * * * * * * * * * * * * * * * * * * * * * * * * * * * * * */
 693:/home/simulink/cFS_FreeRTOS_seL4/cfe/fsw/cfe-core/src/time/cfe_time_api.c **** 
 694:/home/simulink/cFS_FreeRTOS_seL4/cfe/fsw/cfe-core/src/time/cfe_time_api.c **** uint32 CFE_TIME_CFE2FSSeconds(uint32 SecondsCFE)
 695:/home/simulink/cFS_FreeRTOS_seL4/cfe/fsw/cfe-core/src/time/cfe_time_api.c **** {
 818               	.loc 1 695 0
 819               	.cfi_startproc
 820 0548 518F      	subq.l #8,%sp
 821               	.cfi_def_cfa_offset 12
 696:/home/simulink/cFS_FreeRTOS_seL4/cfe/fsw/cfe-core/src/time/cfe_time_api.c ****     /*
 697:/home/simulink/cFS_FreeRTOS_seL4/cfe/fsw/cfe-core/src/time/cfe_time_api.c ****     ** Using a signed integer allows the factor to be negative...
 698:/home/simulink/cFS_FreeRTOS_seL4/cfe/fsw/cfe-core/src/time/cfe_time_api.c ****     */
 699:/home/simulink/cFS_FreeRTOS_seL4/cfe/fsw/cfe-core/src/time/cfe_time_api.c ****     int32 ConvertFactor = CFE_TIME_FS_FACTOR;
 822               	.loc 1 699 0
 823 054a 2EBC 2F07 	move.l #789004800,(%sp)
 823      4200 
 700:/home/simulink/cFS_FreeRTOS_seL4/cfe/fsw/cfe-core/src/time/cfe_time_api.c **** 
 701:/home/simulink/cFS_FreeRTOS_seL4/cfe/fsw/cfe-core/src/time/cfe_time_api.c ****     /*
 702:/home/simulink/cFS_FreeRTOS_seL4/cfe/fsw/cfe-core/src/time/cfe_time_api.c ****     ** File system time = cFE time + conversion factor...
 703:/home/simulink/cFS_FreeRTOS_seL4/cfe/fsw/cfe-core/src/time/cfe_time_api.c ****     */
 704:/home/simulink/cFS_FreeRTOS_seL4/cfe/fsw/cfe-core/src/time/cfe_time_api.c ****     uint32 SecondsFS = SecondsCFE + (uint32) ConvertFactor;
 824               	.loc 1 704 0
 825 0550 2017      	move.l (%sp),%d0
 826 0552 222F 000C 	move.l 12(%sp),%d1
 827 0556 D280      	add.l %d0,%d1
 828 0558 2F41 0004 	move.l %d1,4(%sp)
 705:/home/simulink/cFS_FreeRTOS_seL4/cfe/fsw/cfe-core/src/time/cfe_time_api.c **** 
 706:/home/simulink/cFS_FreeRTOS_seL4/cfe/fsw/cfe-core/src/time/cfe_time_api.c ****     /*
 707:/home/simulink/cFS_FreeRTOS_seL4/cfe/fsw/cfe-core/src/time/cfe_time_api.c ****     ** Prevent file system time from going below zero...
 708:/home/simulink/cFS_FreeRTOS_seL4/cfe/fsw/cfe-core/src/time/cfe_time_api.c ****     */
 709:/home/simulink/cFS_FreeRTOS_seL4/cfe/fsw/cfe-core/src/time/cfe_time_api.c ****     if (ConvertFactor < 0)
 829               	.loc 1 709 0
 830 055c 4A97      	tst.l (%sp)
 831 055e 6C0E      	jge .L62
 710:/home/simulink/cFS_FreeRTOS_seL4/cfe/fsw/cfe-core/src/time/cfe_time_api.c ****     {
 711:/home/simulink/cFS_FreeRTOS_seL4/cfe/fsw/cfe-core/src/time/cfe_time_api.c ****         if (-ConvertFactor > SecondsCFE)
 832               	.loc 1 711 0
 833 0560 2017      	move.l (%sp),%d0
 834 0562 4480      	neg.l %d0
 835 0564 B0AF 000C 	cmp.l 12(%sp),%d0
 836 0568 6304      	jls .L62
 712:/home/simulink/cFS_FreeRTOS_seL4/cfe/fsw/cfe-core/src/time/cfe_time_api.c ****         {
 713:/home/simulink/cFS_FreeRTOS_seL4/cfe/fsw/cfe-core/src/time/cfe_time_api.c ****             SecondsFS = 0;
68K GAS   			page 29


 837               	.loc 1 713 0
 838 056a 42AF 0004 	clr.l 4(%sp)
 839               	.L62:
 714:/home/simulink/cFS_FreeRTOS_seL4/cfe/fsw/cfe-core/src/time/cfe_time_api.c ****         }
 715:/home/simulink/cFS_FreeRTOS_seL4/cfe/fsw/cfe-core/src/time/cfe_time_api.c ****     }
 716:/home/simulink/cFS_FreeRTOS_seL4/cfe/fsw/cfe-core/src/time/cfe_time_api.c **** 
 717:/home/simulink/cFS_FreeRTOS_seL4/cfe/fsw/cfe-core/src/time/cfe_time_api.c ****     return(SecondsFS);
 840               	.loc 1 717 0
 841 056e 202F 0004 	move.l 4(%sp),%d0
 718:/home/simulink/cFS_FreeRTOS_seL4/cfe/fsw/cfe-core/src/time/cfe_time_api.c **** 
 719:/home/simulink/cFS_FreeRTOS_seL4/cfe/fsw/cfe-core/src/time/cfe_time_api.c **** } /* End of CFE_TIME_CFE2FSSeconds() */
 842               	.loc 1 719 0
 843 0572 508F      	addq.l #8,%sp
 844 0574 4E75      	rts
 845               	.cfi_endproc
 846               	.LFE75:
 847               	.sizeCFE_TIME_CFE2FSSeconds, .-CFE_TIME_CFE2FSSeconds
 848               	.align2
 849               	.globlCFE_TIME_FS2CFESeconds
 850               	.typeCFE_TIME_FS2CFESeconds, @function
 851               	CFE_TIME_FS2CFESeconds:
 852               	.LFB76:
 720:/home/simulink/cFS_FreeRTOS_seL4/cfe/fsw/cfe-core/src/time/cfe_time_api.c **** 
 721:/home/simulink/cFS_FreeRTOS_seL4/cfe/fsw/cfe-core/src/time/cfe_time_api.c **** 
 722:/home/simulink/cFS_FreeRTOS_seL4/cfe/fsw/cfe-core/src/time/cfe_time_api.c **** /* * * * * * * * * * * * * * * * * * * * * * * * * * * * * * * * * * * * * */
 723:/home/simulink/cFS_FreeRTOS_seL4/cfe/fsw/cfe-core/src/time/cfe_time_api.c **** /*                                                                         */
 724:/home/simulink/cFS_FreeRTOS_seL4/cfe/fsw/cfe-core/src/time/cfe_time_api.c **** /* CFE_TIME_FS2CFESeconds() --  convert file system seconds to cFE seconds */
 725:/home/simulink/cFS_FreeRTOS_seL4/cfe/fsw/cfe-core/src/time/cfe_time_api.c **** /*                                                                         */
 726:/home/simulink/cFS_FreeRTOS_seL4/cfe/fsw/cfe-core/src/time/cfe_time_api.c **** /* * * * * * * * * * * * * * * * * * * * * * * * * * * * * * * * * * * * * */
 727:/home/simulink/cFS_FreeRTOS_seL4/cfe/fsw/cfe-core/src/time/cfe_time_api.c **** 
 728:/home/simulink/cFS_FreeRTOS_seL4/cfe/fsw/cfe-core/src/time/cfe_time_api.c **** uint32 CFE_TIME_FS2CFESeconds(uint32 SecondsFS)
 729:/home/simulink/cFS_FreeRTOS_seL4/cfe/fsw/cfe-core/src/time/cfe_time_api.c **** {
 853               	.loc 1 729 0
 854               	.cfi_startproc
 855 0576 518F      	subq.l #8,%sp
 856               	.cfi_def_cfa_offset 12
 730:/home/simulink/cFS_FreeRTOS_seL4/cfe/fsw/cfe-core/src/time/cfe_time_api.c ****     /*
 731:/home/simulink/cFS_FreeRTOS_seL4/cfe/fsw/cfe-core/src/time/cfe_time_api.c ****     ** Using a signed integer allows the factor to be negative...
 732:/home/simulink/cFS_FreeRTOS_seL4/cfe/fsw/cfe-core/src/time/cfe_time_api.c ****     */
 733:/home/simulink/cFS_FreeRTOS_seL4/cfe/fsw/cfe-core/src/time/cfe_time_api.c ****     int32 ConvertFactor = CFE_TIME_FS_FACTOR;
 857               	.loc 1 733 0
 858 0578 2EBC 2F07 	move.l #789004800,(%sp)
 858      4200 
 734:/home/simulink/cFS_FreeRTOS_seL4/cfe/fsw/cfe-core/src/time/cfe_time_api.c **** 
 735:/home/simulink/cFS_FreeRTOS_seL4/cfe/fsw/cfe-core/src/time/cfe_time_api.c ****     /*
 736:/home/simulink/cFS_FreeRTOS_seL4/cfe/fsw/cfe-core/src/time/cfe_time_api.c ****     ** cFE time = file system time - conversion factor...
 737:/home/simulink/cFS_FreeRTOS_seL4/cfe/fsw/cfe-core/src/time/cfe_time_api.c ****     */
 738:/home/simulink/cFS_FreeRTOS_seL4/cfe/fsw/cfe-core/src/time/cfe_time_api.c ****     uint32 SecondsCFE = SecondsFS - (uint32) ConvertFactor;
 859               	.loc 1 738 0
 860 057e 2017      	move.l (%sp),%d0
 861 0580 222F 000C 	move.l 12(%sp),%d1
 862 0584 9280      	sub.l %d0,%d1
 863 0586 2F41 0004 	move.l %d1,4(%sp)
 739:/home/simulink/cFS_FreeRTOS_seL4/cfe/fsw/cfe-core/src/time/cfe_time_api.c **** 
 740:/home/simulink/cFS_FreeRTOS_seL4/cfe/fsw/cfe-core/src/time/cfe_time_api.c ****     /*
 741:/home/simulink/cFS_FreeRTOS_seL4/cfe/fsw/cfe-core/src/time/cfe_time_api.c ****     ** Prevent cFE time from going below zero...
 742:/home/simulink/cFS_FreeRTOS_seL4/cfe/fsw/cfe-core/src/time/cfe_time_api.c ****     */
68K GAS   			page 30


 743:/home/simulink/cFS_FreeRTOS_seL4/cfe/fsw/cfe-core/src/time/cfe_time_api.c ****     if (ConvertFactor > SecondsFS)
 864               	.loc 1 743 0
 865 058a 2017      	move.l (%sp),%d0
 866 058c B0AF 000C 	cmp.l 12(%sp),%d0
 867 0590 6304      	jls .L65
 744:/home/simulink/cFS_FreeRTOS_seL4/cfe/fsw/cfe-core/src/time/cfe_time_api.c ****     {
 745:/home/simulink/cFS_FreeRTOS_seL4/cfe/fsw/cfe-core/src/time/cfe_time_api.c ****         SecondsCFE = 0;
 868               	.loc 1 745 0
 869 0592 42AF 0004 	clr.l 4(%sp)
 870               	.L65:
 746:/home/simulink/cFS_FreeRTOS_seL4/cfe/fsw/cfe-core/src/time/cfe_time_api.c ****     }
 747:/home/simulink/cFS_FreeRTOS_seL4/cfe/fsw/cfe-core/src/time/cfe_time_api.c **** 
 748:/home/simulink/cFS_FreeRTOS_seL4/cfe/fsw/cfe-core/src/time/cfe_time_api.c ****     return(SecondsCFE);
 871               	.loc 1 748 0
 872 0596 202F 0004 	move.l 4(%sp),%d0
 749:/home/simulink/cFS_FreeRTOS_seL4/cfe/fsw/cfe-core/src/time/cfe_time_api.c **** 
 750:/home/simulink/cFS_FreeRTOS_seL4/cfe/fsw/cfe-core/src/time/cfe_time_api.c **** } /* End of CFE_TIME_FS2CFESeconds() */
 873               	.loc 1 750 0
 874 059a 508F      	addq.l #8,%sp
 875 059c 4E75      	rts
 876               	.cfi_endproc
 877               	.LFE76:
 878               	.sizeCFE_TIME_FS2CFESeconds, .-CFE_TIME_FS2CFESeconds
 879               	.align2
 880               	.globlCFE_TIME_Print
 881               	.typeCFE_TIME_Print, @function
 882               	CFE_TIME_Print:
 883               	.LFB77:
 751:/home/simulink/cFS_FreeRTOS_seL4/cfe/fsw/cfe-core/src/time/cfe_time_api.c **** 
 752:/home/simulink/cFS_FreeRTOS_seL4/cfe/fsw/cfe-core/src/time/cfe_time_api.c **** 
 753:/home/simulink/cFS_FreeRTOS_seL4/cfe/fsw/cfe-core/src/time/cfe_time_api.c **** /* * * * * * * * * * * * * * * * * * * * * * * * * * * * * * * * * * * * * */
 754:/home/simulink/cFS_FreeRTOS_seL4/cfe/fsw/cfe-core/src/time/cfe_time_api.c **** /*                                                                         */
 755:/home/simulink/cFS_FreeRTOS_seL4/cfe/fsw/cfe-core/src/time/cfe_time_api.c **** /* CFE_TIME_Print() --  create text string representing date and time      */
 756:/home/simulink/cFS_FreeRTOS_seL4/cfe/fsw/cfe-core/src/time/cfe_time_api.c **** /*                                                                         */
 757:/home/simulink/cFS_FreeRTOS_seL4/cfe/fsw/cfe-core/src/time/cfe_time_api.c **** /* Notes:                                                                  */
 758:/home/simulink/cFS_FreeRTOS_seL4/cfe/fsw/cfe-core/src/time/cfe_time_api.c **** /*                                                                         */
 759:/home/simulink/cFS_FreeRTOS_seL4/cfe/fsw/cfe-core/src/time/cfe_time_api.c **** /*  1) The value of the time argument is simply added to the configuration */
 760:/home/simulink/cFS_FreeRTOS_seL4/cfe/fsw/cfe-core/src/time/cfe_time_api.c **** /*     definitions for the ground epoch and converted into a fixed length  */
 761:/home/simulink/cFS_FreeRTOS_seL4/cfe/fsw/cfe-core/src/time/cfe_time_api.c **** /*     string in the buffer provided by the caller.                        */
 762:/home/simulink/cFS_FreeRTOS_seL4/cfe/fsw/cfe-core/src/time/cfe_time_api.c **** /*                                                                         */
 763:/home/simulink/cFS_FreeRTOS_seL4/cfe/fsw/cfe-core/src/time/cfe_time_api.c **** /*  2) A loss of data during the string conversion will occur if the       */
 764:/home/simulink/cFS_FreeRTOS_seL4/cfe/fsw/cfe-core/src/time/cfe_time_api.c **** /*     computed year exceeds 9999.  However, a year that large would       */
 765:/home/simulink/cFS_FreeRTOS_seL4/cfe/fsw/cfe-core/src/time/cfe_time_api.c **** /*     require an unrealistic definition for the ground epoch since        */
 766:/home/simulink/cFS_FreeRTOS_seL4/cfe/fsw/cfe-core/src/time/cfe_time_api.c **** /*     the maximum amount of time represented by a CFE_TIME_SysTime        */
 767:/home/simulink/cFS_FreeRTOS_seL4/cfe/fsw/cfe-core/src/time/cfe_time_api.c **** /*     structure is approximately 136 years.                               */
 768:/home/simulink/cFS_FreeRTOS_seL4/cfe/fsw/cfe-core/src/time/cfe_time_api.c **** /*                                                                         */
 769:/home/simulink/cFS_FreeRTOS_seL4/cfe/fsw/cfe-core/src/time/cfe_time_api.c **** /* * * * * * * * * * * * * * * * * * * * * * * * * * * * * * * * * * * * * */
 770:/home/simulink/cFS_FreeRTOS_seL4/cfe/fsw/cfe-core/src/time/cfe_time_api.c **** 
 771:/home/simulink/cFS_FreeRTOS_seL4/cfe/fsw/cfe-core/src/time/cfe_time_api.c **** void CFE_TIME_Print(char *PrintBuffer, CFE_TIME_SysTime_t TimeToPrint)
 772:/home/simulink/cFS_FreeRTOS_seL4/cfe/fsw/cfe-core/src/time/cfe_time_api.c **** {
 884               	.loc 1 772 0
 885               	.cfi_startproc
 886 059e 4FEF FFE0 	lea (-32,%sp),%sp
 887               	.cfi_def_cfa_offset 36
 888 05a2 2F02      	move.l %d2,-(%sp)
 889               	.cfi_def_cfa_offset 40
 890               	.cfi_offset 2, -40
68K GAS   			page 31


 773:/home/simulink/cFS_FreeRTOS_seL4/cfe/fsw/cfe-core/src/time/cfe_time_api.c ****     uint32 NumberOfYears;
 774:/home/simulink/cFS_FreeRTOS_seL4/cfe/fsw/cfe-core/src/time/cfe_time_api.c ****     uint32 NumberOfDays;
 775:/home/simulink/cFS_FreeRTOS_seL4/cfe/fsw/cfe-core/src/time/cfe_time_api.c ****     uint32 NumberOfHours;
 776:/home/simulink/cFS_FreeRTOS_seL4/cfe/fsw/cfe-core/src/time/cfe_time_api.c ****     uint32 NumberOfMinutes;
 777:/home/simulink/cFS_FreeRTOS_seL4/cfe/fsw/cfe-core/src/time/cfe_time_api.c ****     uint32 NumberOfSeconds;
 778:/home/simulink/cFS_FreeRTOS_seL4/cfe/fsw/cfe-core/src/time/cfe_time_api.c ****     uint32 NumberOfMicros;
 779:/home/simulink/cFS_FreeRTOS_seL4/cfe/fsw/cfe-core/src/time/cfe_time_api.c ****     uint32 DaysInThisYear;
 780:/home/simulink/cFS_FreeRTOS_seL4/cfe/fsw/cfe-core/src/time/cfe_time_api.c **** 
 781:/home/simulink/cFS_FreeRTOS_seL4/cfe/fsw/cfe-core/src/time/cfe_time_api.c ****     boolean StillCountingYears = TRUE;
 891               	.loc 1 781 0
 892 05a4 7001      	moveq #1,%d0
 893 05a6 1F40 000F 	move.b %d0,15(%sp)
 782:/home/simulink/cFS_FreeRTOS_seL4/cfe/fsw/cfe-core/src/time/cfe_time_api.c **** 
 783:/home/simulink/cFS_FreeRTOS_seL4/cfe/fsw/cfe-core/src/time/cfe_time_api.c ****     /*
 784:/home/simulink/cFS_FreeRTOS_seL4/cfe/fsw/cfe-core/src/time/cfe_time_api.c ****     ** Convert the cFE time (offset from epoch) into calendar time...
 785:/home/simulink/cFS_FreeRTOS_seL4/cfe/fsw/cfe-core/src/time/cfe_time_api.c ****     */
 786:/home/simulink/cFS_FreeRTOS_seL4/cfe/fsw/cfe-core/src/time/cfe_time_api.c ****     NumberOfMinutes = (TimeToPrint.Seconds / 60) + CFE_TIME_EPOCH_MINUTE;
 894               	.loc 1 786 0
 895 05aa 202F 002C 	move.l 44(%sp),%d0
 896 05ae 743C      	moveq #60,%d2
 897 05b0 4C42 0001 	remu.l %d2,%d1:%d0
 898 05b4 4C42 0000 	divu.l %d2,%d0
 899 05b8 2F40 0018 	move.l %d0,24(%sp)
 787:/home/simulink/cFS_FreeRTOS_seL4/cfe/fsw/cfe-core/src/time/cfe_time_api.c ****     NumberOfSeconds = (TimeToPrint.Seconds % 60) + CFE_TIME_EPOCH_SECOND;
 900               	.loc 1 787 0
 901 05bc 222F 002C 	move.l 44(%sp),%d1
 902 05c0 743C      	moveq #60,%d2
 903 05c2 4C42 1000 	remu.l %d2,%d0:%d1
 904 05c6 4C42 1001 	divu.l %d2,%d1
 905 05ca 2F40 0014 	move.l %d0,20(%sp)
 788:/home/simulink/cFS_FreeRTOS_seL4/cfe/fsw/cfe-core/src/time/cfe_time_api.c **** 
 789:/home/simulink/cFS_FreeRTOS_seL4/cfe/fsw/cfe-core/src/time/cfe_time_api.c ****     /*
 790:/home/simulink/cFS_FreeRTOS_seL4/cfe/fsw/cfe-core/src/time/cfe_time_api.c ****     ** Adding the epoch "seconds" after computing the minutes avoids
 791:/home/simulink/cFS_FreeRTOS_seL4/cfe/fsw/cfe-core/src/time/cfe_time_api.c ****     **    overflow problems when the input time value (seconds) is
 792:/home/simulink/cFS_FreeRTOS_seL4/cfe/fsw/cfe-core/src/time/cfe_time_api.c ****     **    at, or near, 0xFFFFFFFF...
 793:/home/simulink/cFS_FreeRTOS_seL4/cfe/fsw/cfe-core/src/time/cfe_time_api.c ****     */
 794:/home/simulink/cFS_FreeRTOS_seL4/cfe/fsw/cfe-core/src/time/cfe_time_api.c ****     while (NumberOfSeconds >= 60)
 906               	.loc 1 794 0
 907 05ce 600A      	jra .L68
 908               	.L69:
 795:/home/simulink/cFS_FreeRTOS_seL4/cfe/fsw/cfe-core/src/time/cfe_time_api.c ****     {
 796:/home/simulink/cFS_FreeRTOS_seL4/cfe/fsw/cfe-core/src/time/cfe_time_api.c ****         NumberOfMinutes++;
 909               	.loc 1 796 0
 910 05d0 52AF 0018 	addq.l #1,24(%sp)
 797:/home/simulink/cFS_FreeRTOS_seL4/cfe/fsw/cfe-core/src/time/cfe_time_api.c ****         NumberOfSeconds -= 60;
 911               	.loc 1 797 0
 912 05d4 70C4      	moveq #-60,%d0
 913 05d6 D1AF 0014 	add.l %d0,20(%sp)
 914               	.L68:
 794:/home/simulink/cFS_FreeRTOS_seL4/cfe/fsw/cfe-core/src/time/cfe_time_api.c ****     {
 915               	.loc 1 794 0
 916 05da 723B      	moveq #59,%d1
 917 05dc B2AF 0014 	cmp.l 20(%sp),%d1
 918 05e0 65EE      	jcs .L69
 798:/home/simulink/cFS_FreeRTOS_seL4/cfe/fsw/cfe-core/src/time/cfe_time_api.c ****     }
 799:/home/simulink/cFS_FreeRTOS_seL4/cfe/fsw/cfe-core/src/time/cfe_time_api.c **** 
 800:/home/simulink/cFS_FreeRTOS_seL4/cfe/fsw/cfe-core/src/time/cfe_time_api.c ****     /*
68K GAS   			page 32


 801:/home/simulink/cFS_FreeRTOS_seL4/cfe/fsw/cfe-core/src/time/cfe_time_api.c ****     ** Compute the years/days/hours/minutes...
 802:/home/simulink/cFS_FreeRTOS_seL4/cfe/fsw/cfe-core/src/time/cfe_time_api.c ****     */
 803:/home/simulink/cFS_FreeRTOS_seL4/cfe/fsw/cfe-core/src/time/cfe_time_api.c ****     NumberOfHours   = (NumberOfMinutes / 60) + CFE_TIME_EPOCH_HOUR;
 919               	.loc 1 803 0
 920 05e2 202F 0018 	move.l 24(%sp),%d0
 921 05e6 743C      	moveq #60,%d2
 922 05e8 4C42 0001 	remu.l %d2,%d1:%d0
 923 05ec 4C42 0000 	divu.l %d2,%d0
 924 05f0 2F40 0008 	move.l %d0,8(%sp)
 804:/home/simulink/cFS_FreeRTOS_seL4/cfe/fsw/cfe-core/src/time/cfe_time_api.c ****     NumberOfMinutes = (NumberOfMinutes % 60);
 925               	.loc 1 804 0
 926 05f4 222F 0018 	move.l 24(%sp),%d1
 927 05f8 743C      	moveq #60,%d2
 928 05fa 4C42 1000 	remu.l %d2,%d0:%d1
 929 05fe 4C42 1001 	divu.l %d2,%d1
 930 0602 2F40 0018 	move.l %d0,24(%sp)
 805:/home/simulink/cFS_FreeRTOS_seL4/cfe/fsw/cfe-core/src/time/cfe_time_api.c **** 
 806:/home/simulink/cFS_FreeRTOS_seL4/cfe/fsw/cfe-core/src/time/cfe_time_api.c ****     /*
 807:/home/simulink/cFS_FreeRTOS_seL4/cfe/fsw/cfe-core/src/time/cfe_time_api.c ****     ** Unlike hours and minutes, epoch days are counted as Jan 1 = day 1...
 808:/home/simulink/cFS_FreeRTOS_seL4/cfe/fsw/cfe-core/src/time/cfe_time_api.c ****     */
 809:/home/simulink/cFS_FreeRTOS_seL4/cfe/fsw/cfe-core/src/time/cfe_time_api.c ****     NumberOfDays  = (NumberOfHours / 24) + (CFE_TIME_EPOCH_DAY - 1);
 931               	.loc 1 809 0
 932 0606 202F 0008 	move.l 8(%sp),%d0
 933 060a 7418      	moveq #24,%d2
 934 060c 4C42 0001 	remu.l %d2,%d1:%d0
 935 0610 4C42 0000 	divu.l %d2,%d0
 936 0614 2F40 001C 	move.l %d0,28(%sp)
 810:/home/simulink/cFS_FreeRTOS_seL4/cfe/fsw/cfe-core/src/time/cfe_time_api.c ****     NumberOfHours = (NumberOfHours % 24);
 937               	.loc 1 810 0
 938 0618 222F 0008 	move.l 8(%sp),%d1
 939 061c 7418      	moveq #24,%d2
 940 061e 4C42 1000 	remu.l %d2,%d0:%d1
 941 0622 4C42 1001 	divu.l %d2,%d1
 942 0626 2F40 0008 	move.l %d0,8(%sp)
 811:/home/simulink/cFS_FreeRTOS_seL4/cfe/fsw/cfe-core/src/time/cfe_time_api.c **** 
 812:/home/simulink/cFS_FreeRTOS_seL4/cfe/fsw/cfe-core/src/time/cfe_time_api.c ****     NumberOfYears = CFE_TIME_EPOCH_YEAR;
 943               	.loc 1 812 0
 944 062a 203C 0000 	move.l #1980,%d0
 944      07BC 
 945 0630 2F40 0020 	move.l %d0,32(%sp)
 813:/home/simulink/cFS_FreeRTOS_seL4/cfe/fsw/cfe-core/src/time/cfe_time_api.c **** 
 814:/home/simulink/cFS_FreeRTOS_seL4/cfe/fsw/cfe-core/src/time/cfe_time_api.c ****     /*
 815:/home/simulink/cFS_FreeRTOS_seL4/cfe/fsw/cfe-core/src/time/cfe_time_api.c ****     ** Convert total number of days into years and remainder days...
 816:/home/simulink/cFS_FreeRTOS_seL4/cfe/fsw/cfe-core/src/time/cfe_time_api.c ****     */
 817:/home/simulink/cFS_FreeRTOS_seL4/cfe/fsw/cfe-core/src/time/cfe_time_api.c ****     while (StillCountingYears)
 946               	.loc 1 817 0
 947 0634 6070      	jra .L70
 948               	.L74:
 818:/home/simulink/cFS_FreeRTOS_seL4/cfe/fsw/cfe-core/src/time/cfe_time_api.c ****     {
 819:/home/simulink/cFS_FreeRTOS_seL4/cfe/fsw/cfe-core/src/time/cfe_time_api.c ****         /*
 820:/home/simulink/cFS_FreeRTOS_seL4/cfe/fsw/cfe-core/src/time/cfe_time_api.c ****         ** Set number of days in this year (leap year?)...
 821:/home/simulink/cFS_FreeRTOS_seL4/cfe/fsw/cfe-core/src/time/cfe_time_api.c ****         */
 822:/home/simulink/cFS_FreeRTOS_seL4/cfe/fsw/cfe-core/src/time/cfe_time_api.c ****         DaysInThisYear = 365;
 949               	.loc 1 822 0
 950 0636 223C 0000 	move.l #365,%d1
 950      016D 
 951 063c 2F41 0010 	move.l %d1,16(%sp)
68K GAS   			page 33


 823:/home/simulink/cFS_FreeRTOS_seL4/cfe/fsw/cfe-core/src/time/cfe_time_api.c **** 
 824:/home/simulink/cFS_FreeRTOS_seL4/cfe/fsw/cfe-core/src/time/cfe_time_api.c ****         if ((NumberOfYears % 4) == 0)
 952               	.loc 1 824 0
 953 0640 7003      	moveq #3,%d0
 954 0642 C0AF 0020 	and.l 32(%sp),%d0
 955 0646 4A80      	tst.l %d0
 956 0648 663E      	jne .L71
 825:/home/simulink/cFS_FreeRTOS_seL4/cfe/fsw/cfe-core/src/time/cfe_time_api.c ****         {
 826:/home/simulink/cFS_FreeRTOS_seL4/cfe/fsw/cfe-core/src/time/cfe_time_api.c ****             if ((NumberOfYears % 100) != 0)
 957               	.loc 1 826 0
 958 064a 222F 0020 	move.l 32(%sp),%d1
 959 064e 7464      	moveq #100,%d2
 960 0650 4C42 1000 	remu.l %d2,%d0:%d1
 961 0654 4C42 1001 	divu.l %d2,%d1
 962 0658 4A80      	tst.l %d0
 963 065a 670C      	jeq .L72
 827:/home/simulink/cFS_FreeRTOS_seL4/cfe/fsw/cfe-core/src/time/cfe_time_api.c ****             {
 828:/home/simulink/cFS_FreeRTOS_seL4/cfe/fsw/cfe-core/src/time/cfe_time_api.c ****                 DaysInThisYear = 366;
 964               	.loc 1 828 0
 965 065c 203C 0000 	move.l #366,%d0
 965      016E 
 966 0662 2F40 0010 	move.l %d0,16(%sp)
 967 0666 6020      	jra .L71
 968               	.L72:
 829:/home/simulink/cFS_FreeRTOS_seL4/cfe/fsw/cfe-core/src/time/cfe_time_api.c ****             }
 830:/home/simulink/cFS_FreeRTOS_seL4/cfe/fsw/cfe-core/src/time/cfe_time_api.c ****             else if ((NumberOfYears % 400) == 0)
 969               	.loc 1 830 0
 970 0668 222F 0020 	move.l 32(%sp),%d1
 971 066c 243C 0000 	move.l #400,%d2
 971      0190 
 972 0672 4C42 1000 	remu.l %d2,%d0:%d1
 973 0676 4C42 1001 	divu.l %d2,%d1
 974 067a 4A80      	tst.l %d0
 975 067c 660A      	jne .L71
 831:/home/simulink/cFS_FreeRTOS_seL4/cfe/fsw/cfe-core/src/time/cfe_time_api.c ****             {
 832:/home/simulink/cFS_FreeRTOS_seL4/cfe/fsw/cfe-core/src/time/cfe_time_api.c ****                 DaysInThisYear = 366;
 976               	.loc 1 832 0
 977 067e 203C 0000 	move.l #366,%d0
 977      016E 
 978 0684 2F40 0010 	move.l %d0,16(%sp)
 979               	.L71:
 833:/home/simulink/cFS_FreeRTOS_seL4/cfe/fsw/cfe-core/src/time/cfe_time_api.c ****             }
 834:/home/simulink/cFS_FreeRTOS_seL4/cfe/fsw/cfe-core/src/time/cfe_time_api.c ****             else
 835:/home/simulink/cFS_FreeRTOS_seL4/cfe/fsw/cfe-core/src/time/cfe_time_api.c ****             {
 836:/home/simulink/cFS_FreeRTOS_seL4/cfe/fsw/cfe-core/src/time/cfe_time_api.c ****                 /* Do Nothing. Non-leap year. */ 
 837:/home/simulink/cFS_FreeRTOS_seL4/cfe/fsw/cfe-core/src/time/cfe_time_api.c ****             }
 838:/home/simulink/cFS_FreeRTOS_seL4/cfe/fsw/cfe-core/src/time/cfe_time_api.c ****         }
 839:/home/simulink/cFS_FreeRTOS_seL4/cfe/fsw/cfe-core/src/time/cfe_time_api.c **** 
 840:/home/simulink/cFS_FreeRTOS_seL4/cfe/fsw/cfe-core/src/time/cfe_time_api.c ****         /*
 841:/home/simulink/cFS_FreeRTOS_seL4/cfe/fsw/cfe-core/src/time/cfe_time_api.c ****         ** When we have less than a years worth of days, we're done...
 842:/home/simulink/cFS_FreeRTOS_seL4/cfe/fsw/cfe-core/src/time/cfe_time_api.c ****         */
 843:/home/simulink/cFS_FreeRTOS_seL4/cfe/fsw/cfe-core/src/time/cfe_time_api.c ****         if (NumberOfDays < DaysInThisYear)
 980               	.loc 1 843 0
 981 0688 222F 0010 	move.l 16(%sp),%d1
 982 068c B2AF 001C 	cmp.l 28(%sp),%d1
 983 0690 6308      	jls .L73
 844:/home/simulink/cFS_FreeRTOS_seL4/cfe/fsw/cfe-core/src/time/cfe_time_api.c ****         {
68K GAS   			page 34


 845:/home/simulink/cFS_FreeRTOS_seL4/cfe/fsw/cfe-core/src/time/cfe_time_api.c ****             StillCountingYears = FALSE;
 984               	.loc 1 845 0
 985 0692 4202      	clr.b %d2
 986 0694 1F42 000F 	move.b %d2,15(%sp)
 987 0698 600C      	jra .L70
 988               	.L73:
 846:/home/simulink/cFS_FreeRTOS_seL4/cfe/fsw/cfe-core/src/time/cfe_time_api.c ****         }
 847:/home/simulink/cFS_FreeRTOS_seL4/cfe/fsw/cfe-core/src/time/cfe_time_api.c ****         else
 848:/home/simulink/cFS_FreeRTOS_seL4/cfe/fsw/cfe-core/src/time/cfe_time_api.c ****         {
 849:/home/simulink/cFS_FreeRTOS_seL4/cfe/fsw/cfe-core/src/time/cfe_time_api.c ****             /*
 850:/home/simulink/cFS_FreeRTOS_seL4/cfe/fsw/cfe-core/src/time/cfe_time_api.c ****             ** Add a year and remove the number of days in that year...
 851:/home/simulink/cFS_FreeRTOS_seL4/cfe/fsw/cfe-core/src/time/cfe_time_api.c ****             */
 852:/home/simulink/cFS_FreeRTOS_seL4/cfe/fsw/cfe-core/src/time/cfe_time_api.c ****             NumberOfYears++;
 989               	.loc 1 852 0
 990 069a 52AF 0020 	addq.l #1,32(%sp)
 853:/home/simulink/cFS_FreeRTOS_seL4/cfe/fsw/cfe-core/src/time/cfe_time_api.c ****             NumberOfDays -= DaysInThisYear;
 991               	.loc 1 853 0
 992 069e 202F 0010 	move.l 16(%sp),%d0
 993 06a2 91AF 001C 	sub.l %d0,28(%sp)
 994               	.L70:
 817:/home/simulink/cFS_FreeRTOS_seL4/cfe/fsw/cfe-core/src/time/cfe_time_api.c ****     {
 995               	.loc 1 817 0
 996 06a6 4A2F 000F 	tst.b 15(%sp)
 997 06aa 668A      	jne .L74
 854:/home/simulink/cFS_FreeRTOS_seL4/cfe/fsw/cfe-core/src/time/cfe_time_api.c ****         }
 855:/home/simulink/cFS_FreeRTOS_seL4/cfe/fsw/cfe-core/src/time/cfe_time_api.c ****     }
 856:/home/simulink/cFS_FreeRTOS_seL4/cfe/fsw/cfe-core/src/time/cfe_time_api.c **** 
 857:/home/simulink/cFS_FreeRTOS_seL4/cfe/fsw/cfe-core/src/time/cfe_time_api.c ****     /*
 858:/home/simulink/cFS_FreeRTOS_seL4/cfe/fsw/cfe-core/src/time/cfe_time_api.c ****     ** Unlike hours and minutes, days are displayed as Jan 1 = day 1...
 859:/home/simulink/cFS_FreeRTOS_seL4/cfe/fsw/cfe-core/src/time/cfe_time_api.c ****     */
 860:/home/simulink/cFS_FreeRTOS_seL4/cfe/fsw/cfe-core/src/time/cfe_time_api.c ****     NumberOfDays++;
 998               	.loc 1 860 0
 999 06ac 52AF 001C 	addq.l #1,28(%sp)
 861:/home/simulink/cFS_FreeRTOS_seL4/cfe/fsw/cfe-core/src/time/cfe_time_api.c **** 
 862:/home/simulink/cFS_FreeRTOS_seL4/cfe/fsw/cfe-core/src/time/cfe_time_api.c ****     /*
 863:/home/simulink/cFS_FreeRTOS_seL4/cfe/fsw/cfe-core/src/time/cfe_time_api.c ****     ** After computing microseconds, convert to 5 digits from 6 digits...
 864:/home/simulink/cFS_FreeRTOS_seL4/cfe/fsw/cfe-core/src/time/cfe_time_api.c ****     */
 865:/home/simulink/cFS_FreeRTOS_seL4/cfe/fsw/cfe-core/src/time/cfe_time_api.c ****     NumberOfMicros = CFE_TIME_Sub2MicroSecs(TimeToPrint.Subseconds) / 10;
 1000               	.loc 1 865 0
 1001 06b0 202F 0030 	move.l 48(%sp),%d0
 1002 06b4 2F00      	move.l %d0,-(%sp)
 1003               	.cfi_def_cfa_offset 44
 1004 06b6 4EB9 0000 	jsr CFE_TIME_Sub2MicroSecs
 1004      0000 
 1005 06bc 588F      	addq.l #4,%sp
 1006               	.cfi_def_cfa_offset 40
 1007 06be 740A      	moveq #10,%d2
 1008 06c0 4C42 0001 	remu.l %d2,%d1:%d0
 1009 06c4 4C42 0000 	divu.l %d2,%d0
 1010 06c8 2F40 0004 	move.l %d0,4(%sp)
 866:/home/simulink/cFS_FreeRTOS_seL4/cfe/fsw/cfe-core/src/time/cfe_time_api.c **** 
 867:/home/simulink/cFS_FreeRTOS_seL4/cfe/fsw/cfe-core/src/time/cfe_time_api.c ****     /*
 868:/home/simulink/cFS_FreeRTOS_seL4/cfe/fsw/cfe-core/src/time/cfe_time_api.c ****     ** Build formatted output string (yyyy-ddd-hh:mm:ss.xxxxx)...
 869:/home/simulink/cFS_FreeRTOS_seL4/cfe/fsw/cfe-core/src/time/cfe_time_api.c ****     */
 870:/home/simulink/cFS_FreeRTOS_seL4/cfe/fsw/cfe-core/src/time/cfe_time_api.c ****     *PrintBuffer++ = '0' + (char) (NumberOfYears / 1000); NumberOfYears = NumberOfYears % 1000;
 1011               	.loc 1 870 0
 1012 06cc 202F 0020 	move.l 32(%sp),%d0
68K GAS   			page 35


 1013 06d0 243C 0000 	move.l #1000,%d2
 1013      03E8 
 1014 06d6 4C42 0001 	remu.l %d2,%d1:%d0
 1015 06da 4C42 0000 	divu.l %d2,%d0
 1016 06de 1000      	move.b %d0,%d0
 1017 06e0 0680 0000 	add.l #48,%d0
 1017      0030 
 1018 06e6 1000      	move.b %d0,%d0
 1019 06e8 206F 0028 	move.l 40(%sp),%a0
 1020 06ec 2208      	move.l %a0,%d1
 1021 06ee 5281      	addq.l #1,%d1
 1022 06f0 2F41 0028 	move.l %d1,40(%sp)
 1023 06f4 1080      	move.b %d0,(%a0)
 1024 06f6 222F 0020 	move.l 32(%sp),%d1
 1025 06fa 243C 0000 	move.l #1000,%d2
 1025      03E8 
 1026 0700 4C42 1000 	remu.l %d2,%d0:%d1
 1027 0704 4C42 1001 	divu.l %d2,%d1
 1028 0708 2F40 0020 	move.l %d0,32(%sp)
 871:/home/simulink/cFS_FreeRTOS_seL4/cfe/fsw/cfe-core/src/time/cfe_time_api.c ****     *PrintBuffer++ = '0' + (char) (NumberOfYears / 100);  NumberOfYears = NumberOfYears % 100;
 1029               	.loc 1 871 0
 1030 070c 202F 0020 	move.l 32(%sp),%d0
 1031 0710 7464      	moveq #100,%d2
 1032 0712 4C42 0001 	remu.l %d2,%d1:%d0
 1033 0716 4C42 0000 	divu.l %d2,%d0
 1034 071a 1000      	move.b %d0,%d0
 1035 071c 0680 0000 	add.l #48,%d0
 1035      0030 
 1036 0722 1000      	move.b %d0,%d0
 1037 0724 206F 0028 	move.l 40(%sp),%a0
 1038 0728 2208      	move.l %a0,%d1
 1039 072a 5281      	addq.l #1,%d1
 1040 072c 2F41 0028 	move.l %d1,40(%sp)
 1041 0730 1080      	move.b %d0,(%a0)
 1042 0732 222F 0020 	move.l 32(%sp),%d1
 1043 0736 7464      	moveq #100,%d2
 1044 0738 4C42 1000 	remu.l %d2,%d0:%d1
 1045 073c 4C42 1001 	divu.l %d2,%d1
 1046 0740 2F40 0020 	move.l %d0,32(%sp)
 872:/home/simulink/cFS_FreeRTOS_seL4/cfe/fsw/cfe-core/src/time/cfe_time_api.c ****     *PrintBuffer++ = '0' + (char) (NumberOfYears / 10);
 1047               	.loc 1 872 0
 1048 0744 202F 0020 	move.l 32(%sp),%d0
 1049 0748 740A      	moveq #10,%d2
 1050 074a 4C42 0001 	remu.l %d2,%d1:%d0
 1051 074e 4C42 0000 	divu.l %d2,%d0
 1052 0752 1000      	move.b %d0,%d0
 1053 0754 0680 0000 	add.l #48,%d0
 1053      0030 
 1054 075a 1000      	move.b %d0,%d0
 1055 075c 206F 0028 	move.l 40(%sp),%a0
 1056 0760 2208      	move.l %a0,%d1
 1057 0762 5281      	addq.l #1,%d1
 1058 0764 2F41 0028 	move.l %d1,40(%sp)
 1059 0768 1080      	move.b %d0,(%a0)
 873:/home/simulink/cFS_FreeRTOS_seL4/cfe/fsw/cfe-core/src/time/cfe_time_api.c ****     *PrintBuffer++ = '0' + (char) (NumberOfYears % 10);
 1060               	.loc 1 873 0
 1061 076a 222F 0020 	move.l 32(%sp),%d1
68K GAS   			page 36


 1062 076e 740A      	moveq #10,%d2
 1063 0770 4C42 1000 	remu.l %d2,%d0:%d1
 1064 0774 4C42 1001 	divu.l %d2,%d1
 1065 0778 1000      	move.b %d0,%d0
 1066 077a 0680 0000 	add.l #48,%d0
 1066      0030 
 1067 0780 1000      	move.b %d0,%d0
 1068 0782 206F 0028 	move.l 40(%sp),%a0
 1069 0786 2208      	move.l %a0,%d1
 1070 0788 5281      	addq.l #1,%d1
 1071 078a 2F41 0028 	move.l %d1,40(%sp)
 1072 078e 1080      	move.b %d0,(%a0)
 874:/home/simulink/cFS_FreeRTOS_seL4/cfe/fsw/cfe-core/src/time/cfe_time_api.c ****     *PrintBuffer++ = '-';
 1073               	.loc 1 874 0
 1074 0790 206F 0028 	move.l 40(%sp),%a0
 1075 0794 2408      	move.l %a0,%d2
 1076 0796 5282      	addq.l #1,%d2
 1077 0798 2F42 0028 	move.l %d2,40(%sp)
 1078 079c 10BC 002D 	move.b #45,(%a0)
 875:/home/simulink/cFS_FreeRTOS_seL4/cfe/fsw/cfe-core/src/time/cfe_time_api.c **** 
 876:/home/simulink/cFS_FreeRTOS_seL4/cfe/fsw/cfe-core/src/time/cfe_time_api.c ****     *PrintBuffer++ = '0' + (char) (NumberOfDays / 100); NumberOfDays = NumberOfDays % 100;
 1079               	.loc 1 876 0
 1080 07a0 202F 001C 	move.l 28(%sp),%d0
 1081 07a4 7464      	moveq #100,%d2
 1082 07a6 4C42 0001 	remu.l %d2,%d1:%d0
 1083 07aa 4C42 0000 	divu.l %d2,%d0
 1084 07ae 1000      	move.b %d0,%d0
 1085 07b0 0680 0000 	add.l #48,%d0
 1085      0030 
 1086 07b6 1000      	move.b %d0,%d0
 1087 07b8 206F 0028 	move.l 40(%sp),%a0
 1088 07bc 2208      	move.l %a0,%d1
 1089 07be 5281      	addq.l #1,%d1
 1090 07c0 2F41 0028 	move.l %d1,40(%sp)
 1091 07c4 1080      	move.b %d0,(%a0)
 1092 07c6 222F 001C 	move.l 28(%sp),%d1
 1093 07ca 7464      	moveq #100,%d2
 1094 07cc 4C42 1000 	remu.l %d2,%d0:%d1
 1095 07d0 4C42 1001 	divu.l %d2,%d1
 1096 07d4 2F40 001C 	move.l %d0,28(%sp)
 877:/home/simulink/cFS_FreeRTOS_seL4/cfe/fsw/cfe-core/src/time/cfe_time_api.c ****     *PrintBuffer++ = '0' + (char) (NumberOfDays / 10);
 1097               	.loc 1 877 0
 1098 07d8 202F 001C 	move.l 28(%sp),%d0
 1099 07dc 740A      	moveq #10,%d2
 1100 07de 4C42 0001 	remu.l %d2,%d1:%d0
 1101 07e2 4C42 0000 	divu.l %d2,%d0
 1102 07e6 1000      	move.b %d0,%d0
 1103 07e8 0680 0000 	add.l #48,%d0
 1103      0030 
 1104 07ee 1000      	move.b %d0,%d0
 1105 07f0 206F 0028 	move.l 40(%sp),%a0
 1106 07f4 2208      	move.l %a0,%d1
 1107 07f6 5281      	addq.l #1,%d1
 1108 07f8 2F41 0028 	move.l %d1,40(%sp)
 1109 07fc 1080      	move.b %d0,(%a0)
 878:/home/simulink/cFS_FreeRTOS_seL4/cfe/fsw/cfe-core/src/time/cfe_time_api.c ****     *PrintBuffer++ = '0' + (char) (NumberOfDays % 10);
 1110               	.loc 1 878 0
68K GAS   			page 37


 1111 07fe 222F 001C 	move.l 28(%sp),%d1
 1112 0802 740A      	moveq #10,%d2
 1113 0804 4C42 1000 	remu.l %d2,%d0:%d1
 1114 0808 4C42 1001 	divu.l %d2,%d1
 1115 080c 1000      	move.b %d0,%d0
 1116 080e 0680 0000 	add.l #48,%d0
 1116      0030 
 1117 0814 1000      	move.b %d0,%d0
 1118 0816 206F 0028 	move.l 40(%sp),%a0
 1119 081a 2208      	move.l %a0,%d1
 1120 081c 5281      	addq.l #1,%d1
 1121 081e 2F41 0028 	move.l %d1,40(%sp)
 1122 0822 1080      	move.b %d0,(%a0)
 879:/home/simulink/cFS_FreeRTOS_seL4/cfe/fsw/cfe-core/src/time/cfe_time_api.c ****     *PrintBuffer++ = '-';
 1123               	.loc 1 879 0
 1124 0824 206F 0028 	move.l 40(%sp),%a0
 1125 0828 2408      	move.l %a0,%d2
 1126 082a 5282      	addq.l #1,%d2
 1127 082c 2F42 0028 	move.l %d2,40(%sp)
 1128 0830 10BC 002D 	move.b #45,(%a0)
 880:/home/simulink/cFS_FreeRTOS_seL4/cfe/fsw/cfe-core/src/time/cfe_time_api.c **** 
 881:/home/simulink/cFS_FreeRTOS_seL4/cfe/fsw/cfe-core/src/time/cfe_time_api.c ****     *PrintBuffer++ = '0' + (char) (NumberOfHours / 10);
 1129               	.loc 1 881 0
 1130 0834 202F 0008 	move.l 8(%sp),%d0
 1131 0838 740A      	moveq #10,%d2
 1132 083a 4C42 0001 	remu.l %d2,%d1:%d0
 1133 083e 4C42 0000 	divu.l %d2,%d0
 1134 0842 1000      	move.b %d0,%d0
 1135 0844 0680 0000 	add.l #48,%d0
 1135      0030 
 1136 084a 1000      	move.b %d0,%d0
 1137 084c 206F 0028 	move.l 40(%sp),%a0
 1138 0850 2208      	move.l %a0,%d1
 1139 0852 5281      	addq.l #1,%d1
 1140 0854 2F41 0028 	move.l %d1,40(%sp)
 1141 0858 1080      	move.b %d0,(%a0)
 882:/home/simulink/cFS_FreeRTOS_seL4/cfe/fsw/cfe-core/src/time/cfe_time_api.c ****     *PrintBuffer++ = '0' + (char) (NumberOfHours % 10);
 1142               	.loc 1 882 0
 1143 085a 222F 0008 	move.l 8(%sp),%d1
 1144 085e 740A      	moveq #10,%d2
 1145 0860 4C42 1000 	remu.l %d2,%d0:%d1
 1146 0864 4C42 1001 	divu.l %d2,%d1
 1147 0868 1000      	move.b %d0,%d0
 1148 086a 0680 0000 	add.l #48,%d0
 1148      0030 
 1149 0870 1000      	move.b %d0,%d0
 1150 0872 206F 0028 	move.l 40(%sp),%a0
 1151 0876 2208      	move.l %a0,%d1
 1152 0878 5281      	addq.l #1,%d1
 1153 087a 2F41 0028 	move.l %d1,40(%sp)
 1154 087e 1080      	move.b %d0,(%a0)
 883:/home/simulink/cFS_FreeRTOS_seL4/cfe/fsw/cfe-core/src/time/cfe_time_api.c ****     *PrintBuffer++ = ':';
 1155               	.loc 1 883 0
 1156 0880 206F 0028 	move.l 40(%sp),%a0
 1157 0884 2408      	move.l %a0,%d2
 1158 0886 5282      	addq.l #1,%d2
 1159 0888 2F42 0028 	move.l %d2,40(%sp)
68K GAS   			page 38


 1160 088c 10BC 003A 	move.b #58,(%a0)
 884:/home/simulink/cFS_FreeRTOS_seL4/cfe/fsw/cfe-core/src/time/cfe_time_api.c **** 
 885:/home/simulink/cFS_FreeRTOS_seL4/cfe/fsw/cfe-core/src/time/cfe_time_api.c ****     *PrintBuffer++ = '0' + (char) (NumberOfMinutes / 10);
 1161               	.loc 1 885 0
 1162 0890 202F 0018 	move.l 24(%sp),%d0
 1163 0894 740A      	moveq #10,%d2
 1164 0896 4C42 0001 	remu.l %d2,%d1:%d0
 1165 089a 4C42 0000 	divu.l %d2,%d0
 1166 089e 1000      	move.b %d0,%d0
 1167 08a0 0680 0000 	add.l #48,%d0
 1167      0030 
 1168 08a6 1000      	move.b %d0,%d0
 1169 08a8 206F 0028 	move.l 40(%sp),%a0
 1170 08ac 2208      	move.l %a0,%d1
 1171 08ae 5281      	addq.l #1,%d1
 1172 08b0 2F41 0028 	move.l %d1,40(%sp)
 1173 08b4 1080      	move.b %d0,(%a0)
 886:/home/simulink/cFS_FreeRTOS_seL4/cfe/fsw/cfe-core/src/time/cfe_time_api.c ****     *PrintBuffer++ = '0' + (char) (NumberOfMinutes % 10);
 1174               	.loc 1 886 0
 1175 08b6 222F 0018 	move.l 24(%sp),%d1
 1176 08ba 740A      	moveq #10,%d2
 1177 08bc 4C42 1000 	remu.l %d2,%d0:%d1
 1178 08c0 4C42 1001 	divu.l %d2,%d1
 1179 08c4 1000      	move.b %d0,%d0
 1180 08c6 0680 0000 	add.l #48,%d0
 1180      0030 
 1181 08cc 1000      	move.b %d0,%d0
 1182 08ce 206F 0028 	move.l 40(%sp),%a0
 1183 08d2 2208      	move.l %a0,%d1
 1184 08d4 5281      	addq.l #1,%d1
 1185 08d6 2F41 0028 	move.l %d1,40(%sp)
 1186 08da 1080      	move.b %d0,(%a0)
 887:/home/simulink/cFS_FreeRTOS_seL4/cfe/fsw/cfe-core/src/time/cfe_time_api.c ****     *PrintBuffer++ = ':';
 1187               	.loc 1 887 0
 1188 08dc 206F 0028 	move.l 40(%sp),%a0
 1189 08e0 2408      	move.l %a0,%d2
 1190 08e2 5282      	addq.l #1,%d2
 1191 08e4 2F42 0028 	move.l %d2,40(%sp)
 1192 08e8 10BC 003A 	move.b #58,(%a0)
 888:/home/simulink/cFS_FreeRTOS_seL4/cfe/fsw/cfe-core/src/time/cfe_time_api.c **** 
 889:/home/simulink/cFS_FreeRTOS_seL4/cfe/fsw/cfe-core/src/time/cfe_time_api.c ****     *PrintBuffer++ = '0' + (char) (NumberOfSeconds / 10);
 1193               	.loc 1 889 0
 1194 08ec 202F 0014 	move.l 20(%sp),%d0
 1195 08f0 740A      	moveq #10,%d2
 1196 08f2 4C42 0001 	remu.l %d2,%d1:%d0
 1197 08f6 4C42 0000 	divu.l %d2,%d0
 1198 08fa 1000      	move.b %d0,%d0
 1199 08fc 0680 0000 	add.l #48,%d0
 1199      0030 
 1200 0902 1000      	move.b %d0,%d0
 1201 0904 206F 0028 	move.l 40(%sp),%a0
 1202 0908 2208      	move.l %a0,%d1
 1203 090a 5281      	addq.l #1,%d1
 1204 090c 2F41 0028 	move.l %d1,40(%sp)
 1205 0910 1080      	move.b %d0,(%a0)
 890:/home/simulink/cFS_FreeRTOS_seL4/cfe/fsw/cfe-core/src/time/cfe_time_api.c ****     *PrintBuffer++ = '0' + (char) (NumberOfSeconds % 10);
 1206               	.loc 1 890 0
68K GAS   			page 39


 1207 0912 222F 0014 	move.l 20(%sp),%d1
 1208 0916 740A      	moveq #10,%d2
 1209 0918 4C42 1000 	remu.l %d2,%d0:%d1
 1210 091c 4C42 1001 	divu.l %d2,%d1
 1211 0920 1000      	move.b %d0,%d0
 1212 0922 0680 0000 	add.l #48,%d0
 1212      0030 
 1213 0928 1000      	move.b %d0,%d0
 1214 092a 206F 0028 	move.l 40(%sp),%a0
 1215 092e 2208      	move.l %a0,%d1
 1216 0930 5281      	addq.l #1,%d1
 1217 0932 2F41 0028 	move.l %d1,40(%sp)
 1218 0936 1080      	move.b %d0,(%a0)
 891:/home/simulink/cFS_FreeRTOS_seL4/cfe/fsw/cfe-core/src/time/cfe_time_api.c ****     *PrintBuffer++ = '.';
 1219               	.loc 1 891 0
 1220 0938 206F 0028 	move.l 40(%sp),%a0
 1221 093c 2408      	move.l %a0,%d2
 1222 093e 5282      	addq.l #1,%d2
 1223 0940 2F42 0028 	move.l %d2,40(%sp)
 1224 0944 10BC 002E 	move.b #46,(%a0)
 892:/home/simulink/cFS_FreeRTOS_seL4/cfe/fsw/cfe-core/src/time/cfe_time_api.c **** 
 893:/home/simulink/cFS_FreeRTOS_seL4/cfe/fsw/cfe-core/src/time/cfe_time_api.c ****     *PrintBuffer++ = '0' + (char) (NumberOfMicros / 10000); NumberOfMicros = NumberOfMicros % 10000
 1225               	.loc 1 893 0
 1226 0948 202F 0004 	move.l 4(%sp),%d0
 1227 094c 243C 0000 	move.l #10000,%d2
 1227      2710 
 1228 0952 4C42 0001 	remu.l %d2,%d1:%d0
 1229 0956 4C42 0000 	divu.l %d2,%d0
 1230 095a 1000      	move.b %d0,%d0
 1231 095c 0680 0000 	add.l #48,%d0
 1231      0030 
 1232 0962 1000      	move.b %d0,%d0
 1233 0964 206F 0028 	move.l 40(%sp),%a0
 1234 0968 2208      	move.l %a0,%d1
 1235 096a 5281      	addq.l #1,%d1
 1236 096c 2F41 0028 	move.l %d1,40(%sp)
 1237 0970 1080      	move.b %d0,(%a0)
 1238 0972 222F 0004 	move.l 4(%sp),%d1
 1239 0976 243C 0000 	move.l #10000,%d2
 1239      2710 
 1240 097c 4C42 1000 	remu.l %d2,%d0:%d1
 1241 0980 4C42 1001 	divu.l %d2,%d1
 1242 0984 2F40 0004 	move.l %d0,4(%sp)
 894:/home/simulink/cFS_FreeRTOS_seL4/cfe/fsw/cfe-core/src/time/cfe_time_api.c ****     *PrintBuffer++ = '0' + (char) (NumberOfMicros / 1000);  NumberOfMicros = NumberOfMicros % 1000;
 1243               	.loc 1 894 0
 1244 0988 202F 0004 	move.l 4(%sp),%d0
 1245 098c 243C 0000 	move.l #1000,%d2
 1245      03E8 
 1246 0992 4C42 0001 	remu.l %d2,%d1:%d0
 1247 0996 4C42 0000 	divu.l %d2,%d0
 1248 099a 1000      	move.b %d0,%d0
 1249 099c 0680 0000 	add.l #48,%d0
 1249      0030 
 1250 09a2 1000      	move.b %d0,%d0
 1251 09a4 206F 0028 	move.l 40(%sp),%a0
 1252 09a8 2208      	move.l %a0,%d1
 1253 09aa 5281      	addq.l #1,%d1
68K GAS   			page 40


 1254 09ac 2F41 0028 	move.l %d1,40(%sp)
 1255 09b0 1080      	move.b %d0,(%a0)
 1256 09b2 222F 0004 	move.l 4(%sp),%d1
 1257 09b6 243C 0000 	move.l #1000,%d2
 1257      03E8 
 1258 09bc 4C42 1000 	remu.l %d2,%d0:%d1
 1259 09c0 4C42 1001 	divu.l %d2,%d1
 1260 09c4 2F40 0004 	move.l %d0,4(%sp)
 895:/home/simulink/cFS_FreeRTOS_seL4/cfe/fsw/cfe-core/src/time/cfe_time_api.c ****     *PrintBuffer++ = '0' + (char) (NumberOfMicros / 100);   NumberOfMicros = NumberOfMicros % 100;
 1261               	.loc 1 895 0
 1262 09c8 202F 0004 	move.l 4(%sp),%d0
 1263 09cc 7464      	moveq #100,%d2
 1264 09ce 4C42 0001 	remu.l %d2,%d1:%d0
 1265 09d2 4C42 0000 	divu.l %d2,%d0
 1266 09d6 1000      	move.b %d0,%d0
 1267 09d8 0680 0000 	add.l #48,%d0
 1267      0030 
 1268 09de 1000      	move.b %d0,%d0
 1269 09e0 206F 0028 	move.l 40(%sp),%a0
 1270 09e4 2208      	move.l %a0,%d1
 1271 09e6 5281      	addq.l #1,%d1
 1272 09e8 2F41 0028 	move.l %d1,40(%sp)
 1273 09ec 1080      	move.b %d0,(%a0)
 1274 09ee 222F 0004 	move.l 4(%sp),%d1
 1275 09f2 7464      	moveq #100,%d2
 1276 09f4 4C42 1000 	remu.l %d2,%d0:%d1
 1277 09f8 4C42 1001 	divu.l %d2,%d1
 1278 09fc 2F40 0004 	move.l %d0,4(%sp)
 896:/home/simulink/cFS_FreeRTOS_seL4/cfe/fsw/cfe-core/src/time/cfe_time_api.c ****     *PrintBuffer++ = '0' + (char) (NumberOfMicros / 10);
 1279               	.loc 1 896 0
 1280 0a00 202F 0004 	move.l 4(%sp),%d0
 1281 0a04 740A      	moveq #10,%d2
 1282 0a06 4C42 0001 	remu.l %d2,%d1:%d0
 1283 0a0a 4C42 0000 	divu.l %d2,%d0
 1284 0a0e 1000      	move.b %d0,%d0
 1285 0a10 0680 0000 	add.l #48,%d0
 1285      0030 
 1286 0a16 1000      	move.b %d0,%d0
 1287 0a18 206F 0028 	move.l 40(%sp),%a0
 1288 0a1c 2208      	move.l %a0,%d1
 1289 0a1e 5281      	addq.l #1,%d1
 1290 0a20 2F41 0028 	move.l %d1,40(%sp)
 1291 0a24 1080      	move.b %d0,(%a0)
 897:/home/simulink/cFS_FreeRTOS_seL4/cfe/fsw/cfe-core/src/time/cfe_time_api.c ****     *PrintBuffer++ = '0' + (char) (NumberOfMicros % 10);
 1292               	.loc 1 897 0
 1293 0a26 222F 0004 	move.l 4(%sp),%d1
 1294 0a2a 740A      	moveq #10,%d2
 1295 0a2c 4C42 1000 	remu.l %d2,%d0:%d1
 1296 0a30 4C42 1001 	divu.l %d2,%d1
 1297 0a34 1000      	move.b %d0,%d0
 1298 0a36 0680 0000 	add.l #48,%d0
 1298      0030 
 1299 0a3c 1000      	move.b %d0,%d0
 1300 0a3e 206F 0028 	move.l 40(%sp),%a0
 1301 0a42 2208      	move.l %a0,%d1
 1302 0a44 5281      	addq.l #1,%d1
 1303 0a46 2F41 0028 	move.l %d1,40(%sp)
68K GAS   			page 41


 1304 0a4a 1080      	move.b %d0,(%a0)
 898:/home/simulink/cFS_FreeRTOS_seL4/cfe/fsw/cfe-core/src/time/cfe_time_api.c ****     *PrintBuffer++ = '\0';
 1305               	.loc 1 898 0
 1306 0a4c 206F 0028 	move.l 40(%sp),%a0
 1307 0a50 2408      	move.l %a0,%d2
 1308 0a52 5282      	addq.l #1,%d2
 1309 0a54 2F42 0028 	move.l %d2,40(%sp)
 1310 0a58 4210      	clr.b (%a0)
 899:/home/simulink/cFS_FreeRTOS_seL4/cfe/fsw/cfe-core/src/time/cfe_time_api.c **** 
 900:/home/simulink/cFS_FreeRTOS_seL4/cfe/fsw/cfe-core/src/time/cfe_time_api.c ****     return;
 1311               	.loc 1 900 0
 1312 0a5a 4E71      	nop
 901:/home/simulink/cFS_FreeRTOS_seL4/cfe/fsw/cfe-core/src/time/cfe_time_api.c **** 
 902:/home/simulink/cFS_FreeRTOS_seL4/cfe/fsw/cfe-core/src/time/cfe_time_api.c **** } /* End of CFE_TIME_Print() */
 1313               	.loc 1 902 0
 1314 0a5c 241F      	move.l (%sp)+,%d2
 1315 0a5e 4FEF 0020 	lea (32,%sp),%sp
 1316 0a62 4E75      	rts
 1317               	.cfi_endproc
 1318               	.LFE77:
 1319               	.sizeCFE_TIME_Print, .-CFE_TIME_Print
 1320               	.align2
 1321               	.globlCFE_TIME_ExternalTone
 1322               	.typeCFE_TIME_ExternalTone, @function
 1323               	CFE_TIME_ExternalTone:
 1324               	.LFB78:
 903:/home/simulink/cFS_FreeRTOS_seL4/cfe/fsw/cfe-core/src/time/cfe_time_api.c **** 
 904:/home/simulink/cFS_FreeRTOS_seL4/cfe/fsw/cfe-core/src/time/cfe_time_api.c **** 
 905:/home/simulink/cFS_FreeRTOS_seL4/cfe/fsw/cfe-core/src/time/cfe_time_api.c **** /* * * * * * * * * * * * * * * * * * * * * * * * * * * * * * * * * * * * * */
 906:/home/simulink/cFS_FreeRTOS_seL4/cfe/fsw/cfe-core/src/time/cfe_time_api.c **** /*                                                                         */
 907:/home/simulink/cFS_FreeRTOS_seL4/cfe/fsw/cfe-core/src/time/cfe_time_api.c **** /* CFE_TIME_ExternalTone() --  external tone signal was detected           */
 908:/home/simulink/cFS_FreeRTOS_seL4/cfe/fsw/cfe-core/src/time/cfe_time_api.c **** /*                                                                         */
 909:/home/simulink/cFS_FreeRTOS_seL4/cfe/fsw/cfe-core/src/time/cfe_time_api.c **** /* * * * * * * * * * * * * * * * * * * * * * * * * * * * * * * * * * * * * */
 910:/home/simulink/cFS_FreeRTOS_seL4/cfe/fsw/cfe-core/src/time/cfe_time_api.c **** 
 911:/home/simulink/cFS_FreeRTOS_seL4/cfe/fsw/cfe-core/src/time/cfe_time_api.c **** void CFE_TIME_ExternalTone(void)
 912:/home/simulink/cFS_FreeRTOS_seL4/cfe/fsw/cfe-core/src/time/cfe_time_api.c **** {
 1325               	.loc 1 912 0
 1326               	.cfi_startproc
 913:/home/simulink/cFS_FreeRTOS_seL4/cfe/fsw/cfe-core/src/time/cfe_time_api.c ****     /*
 914:/home/simulink/cFS_FreeRTOS_seL4/cfe/fsw/cfe-core/src/time/cfe_time_api.c ****     ** Call tone signal ISR (OK if called from non-ISR context)...
 915:/home/simulink/cFS_FreeRTOS_seL4/cfe/fsw/cfe-core/src/time/cfe_time_api.c ****     */
 916:/home/simulink/cFS_FreeRTOS_seL4/cfe/fsw/cfe-core/src/time/cfe_time_api.c ****     CFE_TIME_Tone1HzISR();
 1327               	.loc 1 916 0
 1328 0a64 4EB9 0000 	jsr CFE_TIME_Tone1HzISR
 1328      0000 
 917:/home/simulink/cFS_FreeRTOS_seL4/cfe/fsw/cfe-core/src/time/cfe_time_api.c **** 
 918:/home/simulink/cFS_FreeRTOS_seL4/cfe/fsw/cfe-core/src/time/cfe_time_api.c ****     return;
 1329               	.loc 1 918 0
 1330 0a6a 4E71      	nop
 919:/home/simulink/cFS_FreeRTOS_seL4/cfe/fsw/cfe-core/src/time/cfe_time_api.c **** 
 920:/home/simulink/cFS_FreeRTOS_seL4/cfe/fsw/cfe-core/src/time/cfe_time_api.c **** } /* End of CFE_TIME_ExternalTone() */
 1331               	.loc 1 920 0
 1332 0a6c 4E75      	rts
 1333               	.cfi_endproc
 1334               	.LFE78:
 1335               	.sizeCFE_TIME_ExternalTone, .-CFE_TIME_ExternalTone
 1336               	.align2
68K GAS   			page 42


 1337               	.globlCFE_TIME_RegisterSynchCallback
 1338               	.typeCFE_TIME_RegisterSynchCallback, @function
 1339               	CFE_TIME_RegisterSynchCallback:
 1340               	.LFB79:
 921:/home/simulink/cFS_FreeRTOS_seL4/cfe/fsw/cfe-core/src/time/cfe_time_api.c **** 
 922:/home/simulink/cFS_FreeRTOS_seL4/cfe/fsw/cfe-core/src/time/cfe_time_api.c **** 
 923:/home/simulink/cFS_FreeRTOS_seL4/cfe/fsw/cfe-core/src/time/cfe_time_api.c **** /* * * * * * * * * * * * * * * * * * * * * * * * * * * * * * * * * * * * * */
 924:/home/simulink/cFS_FreeRTOS_seL4/cfe/fsw/cfe-core/src/time/cfe_time_api.c **** /*                                                                         */
 925:/home/simulink/cFS_FreeRTOS_seL4/cfe/fsw/cfe-core/src/time/cfe_time_api.c **** /* CFE_TIME_RegisterSynchCallback() --  register synch callback func       */
 926:/home/simulink/cFS_FreeRTOS_seL4/cfe/fsw/cfe-core/src/time/cfe_time_api.c **** /*                                                                         */
 927:/home/simulink/cFS_FreeRTOS_seL4/cfe/fsw/cfe-core/src/time/cfe_time_api.c **** /* * * * * * * * * * * * * * * * * * * * * * * * * * * * * * * * * * * * * */
 928:/home/simulink/cFS_FreeRTOS_seL4/cfe/fsw/cfe-core/src/time/cfe_time_api.c **** 
 929:/home/simulink/cFS_FreeRTOS_seL4/cfe/fsw/cfe-core/src/time/cfe_time_api.c **** int32  CFE_TIME_RegisterSynchCallback(CFE_TIME_SynchCallbackPtr_t CallbackFuncPtr)   
 930:/home/simulink/cFS_FreeRTOS_seL4/cfe/fsw/cfe-core/src/time/cfe_time_api.c **** {
 1341               	.loc 1 930 0
 1342               	.cfi_startproc
 1343 0a6e 518F      	subq.l #8,%sp
 1344               	.cfi_def_cfa_offset 12
 931:/home/simulink/cFS_FreeRTOS_seL4/cfe/fsw/cfe-core/src/time/cfe_time_api.c ****     int32  Status = CFE_SUCCESS;
 1345               	.loc 1 931 0
 1346 0a70 42AF 0004 	clr.l 4(%sp)
 932:/home/simulink/cFS_FreeRTOS_seL4/cfe/fsw/cfe-core/src/time/cfe_time_api.c ****     uint32 i = 0;
 1347               	.loc 1 932 0
 1348 0a74 4297      	clr.l (%sp)
 933:/home/simulink/cFS_FreeRTOS_seL4/cfe/fsw/cfe-core/src/time/cfe_time_api.c **** 
 934:/home/simulink/cFS_FreeRTOS_seL4/cfe/fsw/cfe-core/src/time/cfe_time_api.c ****     while ((i<CFE_TIME_MAX_NUM_SYNCH_FUNCS) && (CFE_TIME_TaskData.SynchCallback[i].Ptr != NULL))
 1349               	.loc 1 934 0
 1350 0a76 6002      	jra .L79
 1351               	.L81:
 935:/home/simulink/cFS_FreeRTOS_seL4/cfe/fsw/cfe-core/src/time/cfe_time_api.c ****     {
 936:/home/simulink/cFS_FreeRTOS_seL4/cfe/fsw/cfe-core/src/time/cfe_time_api.c ****         i++;
 1352               	.loc 1 936 0
 1353 0a78 5297      	addq.l #1,(%sp)
 1354               	.L79:
 934:/home/simulink/cFS_FreeRTOS_seL4/cfe/fsw/cfe-core/src/time/cfe_time_api.c ****     {
 1355               	.loc 1 934 0
 1356 0a7a 7003      	moveq #3,%d0
 1357 0a7c B097      	cmp.l (%sp),%d0
 1358 0a7e 6512      	jcs .L80
 934:/home/simulink/cFS_FreeRTOS_seL4/cfe/fsw/cfe-core/src/time/cfe_time_api.c ****     {
 1359               	.loc 1 934 0 is_stmt 0 discriminator 1
 1360 0a80 2017      	move.l (%sp),%d0
 1361 0a82 E788      	lsl.l #3,%d0
 1362 0a84 41F9 0000 	lea CFE_TIME_TaskData+556,%a0
 1362      0000 
 1363 0a8a 2030 0800 	move.l (%a0,%d0.l),%d0
 1364 0a8e 4A80      	tst.l %d0
 1365 0a90 66E6      	jne .L81
 1366               	.L80:
 937:/home/simulink/cFS_FreeRTOS_seL4/cfe/fsw/cfe-core/src/time/cfe_time_api.c ****     }
 938:/home/simulink/cFS_FreeRTOS_seL4/cfe/fsw/cfe-core/src/time/cfe_time_api.c ****     
 939:/home/simulink/cFS_FreeRTOS_seL4/cfe/fsw/cfe-core/src/time/cfe_time_api.c ****     if (i<CFE_TIME_MAX_NUM_SYNCH_FUNCS)
 1367               	.loc 1 939 0 is_stmt 1
 1368 0a92 7003      	moveq #3,%d0
 1369 0a94 B097      	cmp.l (%sp),%d0
 1370 0a96 6538      	jcs .L82
 940:/home/simulink/cFS_FreeRTOS_seL4/cfe/fsw/cfe-core/src/time/cfe_time_api.c ****     {
68K GAS   			page 43


 941:/home/simulink/cFS_FreeRTOS_seL4/cfe/fsw/cfe-core/src/time/cfe_time_api.c ****         Status = CFE_ES_GetAppID(&CFE_TIME_TaskData.SynchCallback[i].App);
 1371               	.loc 1 941 0
 1372 0a98 2017      	move.l (%sp),%d0
 1373 0a9a 0680 0000 	add.l #69,%d0
 1373      0045 
 1374 0aa0 E788      	lsl.l #3,%d0
 1375 0aa2 0680 0000 	add.l #CFE_TIME_TaskData,%d0
 1375      0000 
 1376 0aa8 2F00      	move.l %d0,-(%sp)
 1377               	.cfi_def_cfa_offset 16
 1378 0aaa 4EB9 0000 	jsr CFE_ES_GetAppID
 1378      0000 
 1379 0ab0 588F      	addq.l #4,%sp
 1380               	.cfi_def_cfa_offset 12
 1381 0ab2 2F40 0004 	move.l %d0,4(%sp)
 942:/home/simulink/cFS_FreeRTOS_seL4/cfe/fsw/cfe-core/src/time/cfe_time_api.c ****         if (Status == CFE_SUCCESS)
 1382               	.loc 1 942 0
 1383 0ab6 4AAF 0004 	tst.l 4(%sp)
 1384 0aba 661E      	jne .L84
 943:/home/simulink/cFS_FreeRTOS_seL4/cfe/fsw/cfe-core/src/time/cfe_time_api.c ****         {
 944:/home/simulink/cFS_FreeRTOS_seL4/cfe/fsw/cfe-core/src/time/cfe_time_api.c ****             CFE_TIME_TaskData.SynchCallback[i].Ptr = CallbackFuncPtr;
 1385               	.loc 1 944 0
 1386 0abc 2017      	move.l (%sp),%d0
 1387 0abe E788      	lsl.l #3,%d0
 1388 0ac0 41F9 0000 	lea CFE_TIME_TaskData+556,%a0
 1388      0000 
 1389 0ac6 43EF 000C 	lea (12,%sp),%a1
 1390 0aca 2191 0800 	move.l (%a1),(%a0,%d0.l)
 1391 0ace 600A      	jra .L84
 1392               	.L82:
 945:/home/simulink/cFS_FreeRTOS_seL4/cfe/fsw/cfe-core/src/time/cfe_time_api.c ****         }
 946:/home/simulink/cFS_FreeRTOS_seL4/cfe/fsw/cfe-core/src/time/cfe_time_api.c ****     }
 947:/home/simulink/cFS_FreeRTOS_seL4/cfe/fsw/cfe-core/src/time/cfe_time_api.c ****     else
 948:/home/simulink/cFS_FreeRTOS_seL4/cfe/fsw/cfe-core/src/time/cfe_time_api.c ****     {
 949:/home/simulink/cFS_FreeRTOS_seL4/cfe/fsw/cfe-core/src/time/cfe_time_api.c ****         Status = CFE_TIME_TOO_MANY_SYNCH_CALLBACKS;
 1393               	.loc 1 949 0
 1394 0ad0 203C CE00 	move.l #-838860797,%d0
 1394      0003 
 1395 0ad6 2F40 0004 	move.l %d0,4(%sp)
 1396               	.L84:
 950:/home/simulink/cFS_FreeRTOS_seL4/cfe/fsw/cfe-core/src/time/cfe_time_api.c ****     }
 951:/home/simulink/cFS_FreeRTOS_seL4/cfe/fsw/cfe-core/src/time/cfe_time_api.c ****     
 952:/home/simulink/cFS_FreeRTOS_seL4/cfe/fsw/cfe-core/src/time/cfe_time_api.c ****     return Status;
 1397               	.loc 1 952 0
 1398 0ada 202F 0004 	move.l 4(%sp),%d0
 953:/home/simulink/cFS_FreeRTOS_seL4/cfe/fsw/cfe-core/src/time/cfe_time_api.c **** } /* End of CFE_TIME_RegisterSynchCallback() */
 1399               	.loc 1 953 0
 1400 0ade 508F      	addq.l #8,%sp
 1401 0ae0 4E75      	rts
 1402               	.cfi_endproc
 1403               	.LFE79:
 1404               	.sizeCFE_TIME_RegisterSynchCallback, .-CFE_TIME_RegisterSynchCallback
 1405               	.align2
 1406               	.globlCFE_TIME_UnregisterSynchCallback
 1407               	.typeCFE_TIME_UnregisterSynchCallback, @function
 1408               	CFE_TIME_UnregisterSynchCallback:
 1409               	.LFB80:
68K GAS   			page 44


 954:/home/simulink/cFS_FreeRTOS_seL4/cfe/fsw/cfe-core/src/time/cfe_time_api.c **** 
 955:/home/simulink/cFS_FreeRTOS_seL4/cfe/fsw/cfe-core/src/time/cfe_time_api.c **** 
 956:/home/simulink/cFS_FreeRTOS_seL4/cfe/fsw/cfe-core/src/time/cfe_time_api.c **** /* * * * * * * * * * * * * * * * * * * * * * * * * * * * * * * * * * * * * */
 957:/home/simulink/cFS_FreeRTOS_seL4/cfe/fsw/cfe-core/src/time/cfe_time_api.c **** /*                                                                         */
 958:/home/simulink/cFS_FreeRTOS_seL4/cfe/fsw/cfe-core/src/time/cfe_time_api.c **** /* CFE_TIME_UnregisterSynchCallback() --  unregister synch callback func   */
 959:/home/simulink/cFS_FreeRTOS_seL4/cfe/fsw/cfe-core/src/time/cfe_time_api.c **** /*                                                                         */
 960:/home/simulink/cFS_FreeRTOS_seL4/cfe/fsw/cfe-core/src/time/cfe_time_api.c **** /* * * * * * * * * * * * * * * * * * * * * * * * * * * * * * * * * * * * * */
 961:/home/simulink/cFS_FreeRTOS_seL4/cfe/fsw/cfe-core/src/time/cfe_time_api.c **** 
 962:/home/simulink/cFS_FreeRTOS_seL4/cfe/fsw/cfe-core/src/time/cfe_time_api.c **** int32  CFE_TIME_UnregisterSynchCallback(CFE_TIME_SynchCallbackPtr_t CallbackFuncPtr)   
 963:/home/simulink/cFS_FreeRTOS_seL4/cfe/fsw/cfe-core/src/time/cfe_time_api.c **** {
 1410               	.loc 1 963 0
 1411               	.cfi_startproc
 1412 0ae2 4FEF FFF4 	lea (-12,%sp),%sp
 1413               	.cfi_def_cfa_offset 16
 964:/home/simulink/cFS_FreeRTOS_seL4/cfe/fsw/cfe-core/src/time/cfe_time_api.c ****     int32  Status = CFE_SUCCESS;
 1414               	.loc 1 964 0
 1415 0ae6 42AF 0008 	clr.l 8(%sp)
 965:/home/simulink/cFS_FreeRTOS_seL4/cfe/fsw/cfe-core/src/time/cfe_time_api.c ****     uint32 i = 0;
 1416               	.loc 1 965 0
 1417 0aea 42AF 0004 	clr.l 4(%sp)
 966:/home/simulink/cFS_FreeRTOS_seL4/cfe/fsw/cfe-core/src/time/cfe_time_api.c ****     uint32 AppId;
 967:/home/simulink/cFS_FreeRTOS_seL4/cfe/fsw/cfe-core/src/time/cfe_time_api.c ****     
 968:/home/simulink/cFS_FreeRTOS_seL4/cfe/fsw/cfe-core/src/time/cfe_time_api.c ****     Status = CFE_ES_GetAppID(&AppId);
 1418               	.loc 1 968 0
 1419 0aee 200F      	move.l %sp,%d0
 1420 0af0 2F00      	move.l %d0,-(%sp)
 1421               	.cfi_def_cfa_offset 20
 1422 0af2 4EB9 0000 	jsr CFE_ES_GetAppID
 1422      0000 
 1423 0af8 588F      	addq.l #4,%sp
 1424               	.cfi_def_cfa_offset 16
 1425 0afa 2F40 0008 	move.l %d0,8(%sp)
 969:/home/simulink/cFS_FreeRTOS_seL4/cfe/fsw/cfe-core/src/time/cfe_time_api.c ****     
 970:/home/simulink/cFS_FreeRTOS_seL4/cfe/fsw/cfe-core/src/time/cfe_time_api.c ****     if (Status == CFE_SUCCESS)
 1426               	.loc 1 970 0
 1427 0afe 4AAF 0008 	tst.l 8(%sp)
 1428 0b02 667E      	jne .L87
 971:/home/simulink/cFS_FreeRTOS_seL4/cfe/fsw/cfe-core/src/time/cfe_time_api.c ****     {
 972:/home/simulink/cFS_FreeRTOS_seL4/cfe/fsw/cfe-core/src/time/cfe_time_api.c ****         while (i<CFE_TIME_MAX_NUM_SYNCH_FUNCS) 
 1429               	.loc 1 972 0
 1430 0b04 6036      	jra .L88
 1431               	.L91:
 973:/home/simulink/cFS_FreeRTOS_seL4/cfe/fsw/cfe-core/src/time/cfe_time_api.c ****         {
 974:/home/simulink/cFS_FreeRTOS_seL4/cfe/fsw/cfe-core/src/time/cfe_time_api.c ****             if ((CFE_TIME_TaskData.SynchCallback[i].App == AppId) &&
 1432               	.loc 1 974 0
 1433 0b06 202F 0004 	move.l 4(%sp),%d0
 1434 0b0a 0680 0000 	add.l #69,%d0
 1434      0045 
 1435 0b10 E788      	lsl.l #3,%d0
 1436 0b12 41F9 0000 	lea CFE_TIME_TaskData,%a0
 1436      0000 
 1437 0b18 2230 0800 	move.l (%a0,%d0.l),%d1
 1438 0b1c 2017      	move.l (%sp),%d0
 1439 0b1e B081      	cmp.l %d1,%d0
 1440 0b20 6616      	jne .L89
 975:/home/simulink/cFS_FreeRTOS_seL4/cfe/fsw/cfe-core/src/time/cfe_time_api.c ****                 (CFE_TIME_TaskData.SynchCallback[i].Ptr == CallbackFuncPtr))
 1441               	.loc 1 975 0 discriminator 1
68K GAS   			page 45


 1442 0b22 202F 0004 	move.l 4(%sp),%d0
 1443 0b26 E788      	lsl.l #3,%d0
 1444 0b28 41F9 0000 	lea CFE_TIME_TaskData+556,%a0
 1444      0000 
 1445 0b2e 2030 0800 	move.l (%a0,%d0.l),%d0
 974:/home/simulink/cFS_FreeRTOS_seL4/cfe/fsw/cfe-core/src/time/cfe_time_api.c ****                 (CFE_TIME_TaskData.SynchCallback[i].Ptr == CallbackFuncPtr))
 1446               	.loc 1 974 0 discriminator 1
 1447 0b32 B0AF 0010 	cmp.l 16(%sp),%d0
 1448 0b36 670E      	jeq .L94
 1449               	.L89:
 976:/home/simulink/cFS_FreeRTOS_seL4/cfe/fsw/cfe-core/src/time/cfe_time_api.c ****             {
 977:/home/simulink/cFS_FreeRTOS_seL4/cfe/fsw/cfe-core/src/time/cfe_time_api.c ****                 break;
 978:/home/simulink/cFS_FreeRTOS_seL4/cfe/fsw/cfe-core/src/time/cfe_time_api.c ****             }
 979:/home/simulink/cFS_FreeRTOS_seL4/cfe/fsw/cfe-core/src/time/cfe_time_api.c ****             
 980:/home/simulink/cFS_FreeRTOS_seL4/cfe/fsw/cfe-core/src/time/cfe_time_api.c ****             i++;
 1450               	.loc 1 980 0
 1451 0b38 52AF 0004 	addq.l #1,4(%sp)
 1452               	.L88:
 972:/home/simulink/cFS_FreeRTOS_seL4/cfe/fsw/cfe-core/src/time/cfe_time_api.c ****         {
 1453               	.loc 1 972 0
 1454 0b3c 7003      	moveq #3,%d0
 1455 0b3e B0AF 0004 	cmp.l 4(%sp),%d0
 1456 0b42 64C2      	jcc .L91
 1457 0b44 6002      	jra .L90
 1458               	.L94:
 977:/home/simulink/cFS_FreeRTOS_seL4/cfe/fsw/cfe-core/src/time/cfe_time_api.c ****             }
 1459               	.loc 1 977 0
 1460 0b46 4E71      	nop
 1461               	.L90:
 981:/home/simulink/cFS_FreeRTOS_seL4/cfe/fsw/cfe-core/src/time/cfe_time_api.c ****         }
 982:/home/simulink/cFS_FreeRTOS_seL4/cfe/fsw/cfe-core/src/time/cfe_time_api.c ****         
 983:/home/simulink/cFS_FreeRTOS_seL4/cfe/fsw/cfe-core/src/time/cfe_time_api.c ****         if (i<CFE_TIME_MAX_NUM_SYNCH_FUNCS)
 1462               	.loc 1 983 0
 1463 0b48 7003      	moveq #3,%d0
 1464 0b4a B0AF 0004 	cmp.l 4(%sp),%d0
 1465 0b4e 6528      	jcs .L92
 984:/home/simulink/cFS_FreeRTOS_seL4/cfe/fsw/cfe-core/src/time/cfe_time_api.c ****         {
 985:/home/simulink/cFS_FreeRTOS_seL4/cfe/fsw/cfe-core/src/time/cfe_time_api.c ****             CFE_TIME_TaskData.SynchCallback[i].App = 0;
 1466               	.loc 1 985 0
 1467 0b50 202F 0004 	move.l 4(%sp),%d0
 1468 0b54 0680 0000 	add.l #69,%d0
 1468      0045 
 1469 0b5a E788      	lsl.l #3,%d0
 1470 0b5c 41F9 0000 	lea CFE_TIME_TaskData,%a0
 1470      0000 
 1471 0b62 42B0 0800 	clr.l (%a0,%d0.l)
 986:/home/simulink/cFS_FreeRTOS_seL4/cfe/fsw/cfe-core/src/time/cfe_time_api.c ****             CFE_TIME_TaskData.SynchCallback[i].Ptr = NULL;
 1472               	.loc 1 986 0
 1473 0b66 202F 0004 	move.l 4(%sp),%d0
 1474 0b6a E788      	lsl.l #3,%d0
 1475 0b6c 41F9 0000 	lea CFE_TIME_TaskData+556,%a0
 1475      0000 
 1476 0b72 42B0 0800 	clr.l (%a0,%d0.l)
 1477 0b76 600A      	jra .L87
 1478               	.L92:
 987:/home/simulink/cFS_FreeRTOS_seL4/cfe/fsw/cfe-core/src/time/cfe_time_api.c ****         }
 988:/home/simulink/cFS_FreeRTOS_seL4/cfe/fsw/cfe-core/src/time/cfe_time_api.c ****         else
68K GAS   			page 46


 989:/home/simulink/cFS_FreeRTOS_seL4/cfe/fsw/cfe-core/src/time/cfe_time_api.c ****         {
 990:/home/simulink/cFS_FreeRTOS_seL4/cfe/fsw/cfe-core/src/time/cfe_time_api.c ****             Status = CFE_TIME_CALLBACK_NOT_REGISTERED;
 1479               	.loc 1 990 0
 1480 0b78 203C CE00 	move.l #-838860796,%d0
 1480      0004 
 1481 0b7e 2F40 0008 	move.l %d0,8(%sp)
 1482               	.L87:
 991:/home/simulink/cFS_FreeRTOS_seL4/cfe/fsw/cfe-core/src/time/cfe_time_api.c ****         }
 992:/home/simulink/cFS_FreeRTOS_seL4/cfe/fsw/cfe-core/src/time/cfe_time_api.c ****             
 993:/home/simulink/cFS_FreeRTOS_seL4/cfe/fsw/cfe-core/src/time/cfe_time_api.c ****     }
 994:/home/simulink/cFS_FreeRTOS_seL4/cfe/fsw/cfe-core/src/time/cfe_time_api.c ****     
 995:/home/simulink/cFS_FreeRTOS_seL4/cfe/fsw/cfe-core/src/time/cfe_time_api.c ****     return Status;
 1483               	.loc 1 995 0
 1484 0b82 202F 0008 	move.l 8(%sp),%d0
 996:/home/simulink/cFS_FreeRTOS_seL4/cfe/fsw/cfe-core/src/time/cfe_time_api.c **** } /* End of CFE_TIME_UnregisterSynchCallback() */
 1485               	.loc 1 996 0
 1486 0b86 4FEF 000C 	lea (12,%sp),%sp
 1487 0b8a 4E75      	rts
 1488               	.cfi_endproc
 1489               	.LFE80:
 1490               	.sizeCFE_TIME_UnregisterSynchCallback, .-CFE_TIME_UnregisterSynchCallback
 1491               	.Letext0:
 1492               	.file 2 "/home/simulink/cFS_FreeRTOS_seL4/osal/src/os/inc/common_types.h"
 1493               	.file 3 "/home/simulink/development/rtems/5/m68k-rtems5/include/machine/_default_types.h"
 1494               	.file 4 "/home/simulink/development/rtems/5/m68k-rtems5/include/machine/_types.h"
 1495               	.file 5 "/home/simulink/development/rtems/5/m68k-rtems5/include/sys/lock.h"
 1496               	.file 6 "/home/simulink/development/rtems/5/m68k-rtems5/include/sys/_types.h"
 1497               	.file 7 "/home/simulink/development/rtems/5/lib/gcc/m68k-rtems5/7.3.0/include/stddef.h"
 1498               	.file 8 "/home/simulink/development/rtems/5/m68k-rtems5/include/sys/reent.h"
 1499               	.file 9 "/home/simulink/development/rtems/5/m68k-rtems5/include/stdlib.h"
 1500               	.file 10 "/home/simulink/development/rtems/5/m68k-rtems5/include/time.h"
 1501               	.file 11 "/home/simulink/cFS_FreeRTOS_seL4/cfe/fsw/cfe-core/src/inc/cfe_time.h"
 1502               	.file 12 "/home/simulink/cFS_FreeRTOS_seL4/cfe/fsw/cfe-core/src/inc/ccsds.h"
 1503               	.file 13 "/home/simulink/cFS_FreeRTOS_seL4/cfe/fsw/cfe-core/src/inc/cfe_sb.h"
 1504               	.file 14 "/home/simulink/cFS_FreeRTOS_seL4/cfe/fsw/cfe-core/src/inc/cfe_time_msg.h"
 1505               	.file 15 "/home/simulink/cFS_FreeRTOS_seL4/cfe/fsw/cfe-core/src/time/cfe_time_utils.h"
 1506               	.section.debug_info,"",@progbits
 1507               	.Ldebug_info0:
 1508 0000 0000 1900 	.long0x1900
 1509 0004 0004      	.word0x4
 1510 0006 0000 0000 	.long.Ldebug_abbrev0
 1511 000a 04        	.byte0x4
 1512 000b 01        	.uleb128 0x1
 1513 000c 0000 0000 	.long.LASF318
 1514 0010 0C        	.byte0xc
 1515 0011 0000 0000 	.long.LASF319
 1516 0015 0000 0000 	.long.LASF320
 1517 0019 0000 0000 	.long.Ltext0
 1518 001d 0000 0B8C 	.long.Letext0-.Ltext0
 1519 0021 0000 0000 	.long.Ldebug_line0
 1520 0025 02        	.uleb128 0x2
 1521 0026 0000 0000 	.long.LASF2
 1522 002a 02        	.byte0x2
 1523 002b E6        	.byte0xe6
 1524 002c 0000 0030 	.long0x30
 1525 0030 03        	.uleb128 0x3
 1526 0031 01        	.byte0x1
68K GAS   			page 47


 1527 0032 08        	.byte0x8
 1528 0033 0000 0000 	.long.LASF0
 1529 0037 03        	.uleb128 0x3
 1530 0038 01        	.byte0x1
 1531 0039 06        	.byte0x6
 1532 003a 0000 0000 	.long.LASF1
 1533 003e 02        	.uleb128 0x2
 1534 003f 0000 0000 	.long.LASF3
 1535 0043 02        	.byte0x2
 1536 0044 E8        	.byte0xe8
 1537 0045 0000 0049 	.long0x49
 1538 0049 03        	.uleb128 0x3
 1539 004a 02        	.byte0x2
 1540 004b 05        	.byte0x5
 1541 004c 0000 0000 	.long.LASF4
 1542 0050 02        	.uleb128 0x2
 1543 0051 0000 0000 	.long.LASF5
 1544 0055 02        	.byte0x2
 1545 0056 E9        	.byte0xe9
 1546 0057 0000 005B 	.long0x5b
 1547 005b 03        	.uleb128 0x3
 1548 005c 04        	.byte0x4
 1549 005d 05        	.byte0x5
 1550 005e 0000 0000 	.long.LASF6
 1551 0062 03        	.uleb128 0x3
 1552 0063 08        	.byte0x8
 1553 0064 05        	.byte0x5
 1554 0065 0000 0000 	.long.LASF7
 1555 0069 02        	.uleb128 0x2
 1556 006a 0000 0000 	.long.LASF8
 1557 006e 02        	.byte0x2
 1558 006f EB        	.byte0xeb
 1559 0070 0000 0030 	.long0x30
 1560 0074 02        	.uleb128 0x2
 1561 0075 0000 0000 	.long.LASF9
 1562 0079 02        	.byte0x2
 1563 007a EC        	.byte0xec
 1564 007b 0000 007F 	.long0x7f
 1565 007f 03        	.uleb128 0x3
 1566 0080 02        	.byte0x2
 1567 0081 07        	.byte0x7
 1568 0082 0000 0000 	.long.LASF10
 1569 0086 02        	.uleb128 0x2
 1570 0087 0000 0000 	.long.LASF11
 1571 008b 02        	.byte0x2
 1572 008c ED        	.byte0xed
 1573 008d 0000 0091 	.long0x91
 1574 0091 03        	.uleb128 0x3
 1575 0092 04        	.byte0x4
 1576 0093 07        	.byte0x7
 1577 0094 0000 0000 	.long.LASF12
 1578 0098 03        	.uleb128 0x3
 1579 0099 08        	.byte0x8
 1580 009a 07        	.byte0x7
 1581 009b 0000 0000 	.long.LASF13
 1582 009f 04        	.uleb128 0x4
 1583 00a0 0000 0000 	.long.LASF14
68K GAS   			page 48


 1584 00a4 02        	.byte0x2
 1585 00a5 0131      	.word0x131
 1586 00a7 0000 0025 	.long0x25
 1587 00ab 03        	.uleb128 0x3
 1588 00ac 01        	.byte0x1
 1589 00ad 06        	.byte0x6
 1590 00ae 0000 0000 	.long.LASF15
 1591 00b2 05        	.uleb128 0x5
 1592 00b3 0000 00AB 	.long0xab
 1593 00b7 06        	.uleb128 0x6
 1594 00b8 04        	.byte0x4
 1595 00b9 02        	.uleb128 0x2
 1596 00ba 0000 0000 	.long.LASF16
 1597 00be 03        	.byte0x3
 1598 00bf 67        	.byte0x67
 1599 00c0 0000 0062 	.long0x62
 1600 00c4 03        	.uleb128 0x3
 1601 00c5 08        	.byte0x8
 1602 00c6 04        	.byte0x4
 1603 00c7 0000 0000 	.long.LASF17
 1604 00cb 02        	.uleb128 0x2
 1605 00cc 0000 0000 	.long.LASF18
 1606 00d0 04        	.byte0x4
 1607 00d1 10        	.byte0x10
 1608 00d2 0000 00B9 	.long0xb9
 1609 00d6 02        	.uleb128 0x2
 1610 00d7 0000 0000 	.long.LASF19
 1611 00db 04        	.byte0x4
 1612 00dc 16        	.byte0x16
 1613 00dd 0000 00CB 	.long0xcb
 1614 00e1 07        	.uleb128 0x7
 1615 00e2 04        	.byte0x4
 1616 00e3 05        	.byte0x5
 1617 00e4 696E 7400 	.string"int"
 1618 00e8 08        	.uleb128 0x8
 1619 00e9 0000 0000 	.long.LASF23
 1620 00ed 08        	.byte0x8
 1621 00ee 05        	.byte0x5
 1622 00ef 28        	.byte0x28
 1623 00f0 0000 010D 	.long0x10d
 1624 00f4 09        	.uleb128 0x9
 1625 00f5 0000 0000 	.long.LASF20
 1626 00f9 05        	.byte0x5
 1627 00fa 29        	.byte0x29
 1628 00fb 0000 010D 	.long0x10d
 1629 00ff 00        	.byte0
 1630 0100 09        	.uleb128 0x9
 1631 0101 0000 0000 	.long.LASF21
 1632 0105 05        	.byte0x5
 1633 0106 2A        	.byte0x2a
 1634 0107 0000 010D 	.long0x10d
 1635 010b 04        	.byte0x4
 1636 010c 00        	.byte0
 1637 010d 03        	.uleb128 0x3
 1638 010e 04        	.byte0x4
 1639 010f 07        	.byte0x7
 1640 0110 0000 0000 	.long.LASF22
68K GAS   			page 49


 1641 0114 08        	.uleb128 0x8
 1642 0115 0000 0000 	.long.LASF24
 1643 0119 14        	.byte0x14
 1644 011a 05        	.byte0x5
 1645 011b 2D        	.byte0x2d
 1646 011c 0000 0151 	.long0x151
 1647 0120 09        	.uleb128 0x9
 1648 0121 0000 0000 	.long.LASF25
 1649 0125 05        	.byte0x5
 1650 0126 2E        	.byte0x2e
 1651 0127 0000 00E8 	.long0xe8
 1652 012b 00        	.byte0
 1653 012c 09        	.uleb128 0x9
 1654 012d 0000 0000 	.long.LASF26
 1655 0131 05        	.byte0x5
 1656 0132 2F        	.byte0x2f
 1657 0133 0000 0156 	.long0x156
 1658 0137 08        	.byte0x8
 1659 0138 09        	.uleb128 0x9
 1660 0139 0000 0000 	.long.LASF27
 1661 013d 05        	.byte0x5
 1662 013e 30        	.byte0x30
 1663 013f 0000 0161 	.long0x161
 1664 0143 0C        	.byte0xc
 1665 0144 09        	.uleb128 0x9
 1666 0145 0000 0000 	.long.LASF28
 1667 0149 05        	.byte0x5
 1668 014a 31        	.byte0x31
 1669 014b 0000 0167 	.long0x167
 1670 014f 10        	.byte0x10
 1671 0150 00        	.byte0
 1672 0151 0A        	.uleb128 0xa
 1673 0152 0000 0000 	.long.LASF29
 1674 0156 0B        	.uleb128 0xb
 1675 0157 04        	.byte0x4
 1676 0158 0000 0151 	.long0x151
 1677 015c 0A        	.uleb128 0xa
 1678 015d 0000 0000 	.long.LASF30
 1679 0161 0B        	.uleb128 0xb
 1680 0162 04        	.byte0x4
 1681 0163 0000 015C 	.long0x15c
 1682 0167 0B        	.uleb128 0xb
 1683 0168 04        	.byte0x4
 1684 0169 0000 00B2 	.long0xb2
 1685 016d 08        	.uleb128 0x8
 1686 016e 0000 0000 	.long.LASF31
 1687 0172 14        	.byte0x14
 1688 0173 05        	.byte0x5
 1689 0174 34        	.byte0x34
 1690 0175 0000 0186 	.long0x186
 1691 0179 09        	.uleb128 0x9
 1692 017a 0000 0000 	.long.LASF32
 1693 017e 05        	.byte0x5
 1694 017f 35        	.byte0x35
 1695 0180 0000 0114 	.long0x114
 1696 0184 00        	.byte0
 1697 0185 00        	.byte0
68K GAS   			page 50


 1698 0186 08        	.uleb128 0x8
 1699 0187 0000 0000 	.long.LASF33
 1700 018b 18        	.byte0x18
 1701 018c 05        	.byte0x5
 1702 018d 38        	.byte0x38
 1703 018e 0000 01AB 	.long0x1ab
 1704 0192 09        	.uleb128 0x9
 1705 0193 0000 0000 	.long.LASF34
 1706 0197 05        	.byte0x5
 1707 0198 39        	.byte0x39
 1708 0199 0000 016D 	.long0x16d
 1709 019d 00        	.byte0
 1710 019e 09        	.uleb128 0x9
 1711 019f 0000 0000 	.long.LASF35
 1712 01a3 05        	.byte0x5
 1713 01a4 3A        	.byte0x3a
 1714 01a5 0000 010D 	.long0x10d
 1715 01a9 14        	.byte0x14
 1716 01aa 00        	.byte0
 1717 01ab 04        	.uleb128 0x4
 1718 01ac 0000 0000 	.long.LASF36
 1719 01b0 05        	.byte0x5
 1720 01b1 0171      	.word0x171
 1721 01b3 0000 0186 	.long0x186
 1722 01b7 02        	.uleb128 0x2
 1723 01b8 0000 0000 	.long.LASF37
 1724 01bc 06        	.byte0x6
 1725 01bd 91        	.byte0x91
 1726 01be 0000 005B 	.long0x5b
 1727 01c2 04        	.uleb128 0x4
 1728 01c3 0000 0000 	.long.LASF38
 1729 01c7 07        	.byte0x7
 1730 01c8 0165      	.word0x165
 1731 01ca 0000 010D 	.long0x10d
 1732 01ce 0C        	.uleb128 0xc
 1733 01cf 04        	.byte0x4
 1734 01d0 06        	.byte0x6
 1735 01d1 A6        	.byte0xa6
 1736 01d2 0000 01ED 	.long0x1ed
 1737 01d6 0D        	.uleb128 0xd
 1738 01d7 0000 0000 	.long.LASF39
 1739 01db 06        	.byte0x6
 1740 01dc A8        	.byte0xa8
 1741 01dd 0000 01C2 	.long0x1c2
 1742 01e1 0D        	.uleb128 0xd
 1743 01e2 0000 0000 	.long.LASF40
 1744 01e6 06        	.byte0x6
 1745 01e7 A9        	.byte0xa9
 1746 01e8 0000 01ED 	.long0x1ed
 1747 01ec 00        	.byte0
 1748 01ed 0E        	.uleb128 0xe
 1749 01ee 0000 0030 	.long0x30
 1750 01f2 0000 01FD 	.long0x1fd
 1751 01f6 0F        	.uleb128 0xf
 1752 01f7 0000 0091 	.long0x91
 1753 01fb 03        	.byte0x3
 1754 01fc 00        	.byte0
68K GAS   			page 51


 1755 01fd 10        	.uleb128 0x10
 1756 01fe 08        	.byte0x8
 1757 01ff 06        	.byte0x6
 1758 0200 A3        	.byte0xa3
 1759 0201 0000 021E 	.long0x21e
 1760 0205 09        	.uleb128 0x9
 1761 0206 0000 0000 	.long.LASF41
 1762 020a 06        	.byte0x6
 1763 020b A5        	.byte0xa5
 1764 020c 0000 00E1 	.long0xe1
 1765 0210 00        	.byte0
 1766 0211 09        	.uleb128 0x9
 1767 0212 0000 0000 	.long.LASF42
 1768 0216 06        	.byte0x6
 1769 0217 AA        	.byte0xaa
 1770 0218 0000 01CE 	.long0x1ce
 1771 021c 04        	.byte0x4
 1772 021d 00        	.byte0
 1773 021e 02        	.uleb128 0x2
 1774 021f 0000 0000 	.long.LASF43
 1775 0223 06        	.byte0x6
 1776 0224 AB        	.byte0xab
 1777 0225 0000 01FD 	.long0x1fd
 1778 0229 02        	.uleb128 0x2
 1779 022a 0000 0000 	.long.LASF44
 1780 022e 06        	.byte0x6
 1781 022f AF        	.byte0xaf
 1782 0230 0000 01AB 	.long0x1ab
 1783 0234 02        	.uleb128 0x2
 1784 0235 0000 0000 	.long.LASF45
 1785 0239 08        	.byte0x8
 1786 023a 16        	.byte0x16
 1787 023b 0000 0091 	.long0x91
 1788 023f 08        	.uleb128 0x8
 1789 0240 0000 0000 	.long.LASF46
 1790 0244 18        	.byte0x18
 1791 0245 08        	.byte0x8
 1792 0246 2F        	.byte0x2f
 1793 0247 0000 0292 	.long0x292
 1794 024b 09        	.uleb128 0x9
 1795 024c 0000 0000 	.long.LASF47
 1796 0250 08        	.byte0x8
 1797 0251 31        	.byte0x31
 1798 0252 0000 0292 	.long0x292
 1799 0256 00        	.byte0
 1800 0257 11        	.uleb128 0x11
 1801 0258 5F6B 00   	.string"_k"
 1802 025b 08        	.byte0x8
 1803 025c 32        	.byte0x32
 1804 025d 0000 00E1 	.long0xe1
 1805 0261 04        	.byte0x4
 1806 0262 09        	.uleb128 0x9
 1807 0263 0000 0000 	.long.LASF48
 1808 0267 08        	.byte0x8
 1809 0268 32        	.byte0x32
 1810 0269 0000 00E1 	.long0xe1
 1811 026d 08        	.byte0x8
68K GAS   			page 52


 1812 026e 09        	.uleb128 0x9
 1813 026f 0000 0000 	.long.LASF49
 1814 0273 08        	.byte0x8
 1815 0274 32        	.byte0x32
 1816 0275 0000 00E1 	.long0xe1
 1817 0279 0C        	.byte0xc
 1818 027a 09        	.uleb128 0x9
 1819 027b 0000 0000 	.long.LASF50
 1820 027f 08        	.byte0x8
 1821 0280 32        	.byte0x32
 1822 0281 0000 00E1 	.long0xe1
 1823 0285 10        	.byte0x10
 1824 0286 11        	.uleb128 0x11
 1825 0287 5F78 00   	.string"_x"
 1826 028a 08        	.byte0x8
 1827 028b 33        	.byte0x33
 1828 028c 0000 0298 	.long0x298
 1829 0290 14        	.byte0x14
 1830 0291 00        	.byte0
 1831 0292 0B        	.uleb128 0xb
 1832 0293 04        	.byte0x4
 1833 0294 0000 023F 	.long0x23f
 1834 0298 0E        	.uleb128 0xe
 1835 0299 0000 0234 	.long0x234
 1836 029d 0000 02A8 	.long0x2a8
 1837 02a1 0F        	.uleb128 0xf
 1838 02a2 0000 0091 	.long0x91
 1839 02a6 00        	.byte0
 1840 02a7 00        	.byte0
 1841 02a8 08        	.uleb128 0x8
 1842 02a9 0000 0000 	.long.LASF51
 1843 02ad 24        	.byte0x24
 1844 02ae 08        	.byte0x8
 1845 02af 37        	.byte0x37
 1846 02b0 0000 0321 	.long0x321
 1847 02b4 09        	.uleb128 0x9
 1848 02b5 0000 0000 	.long.LASF52
 1849 02b9 08        	.byte0x8
 1850 02ba 39        	.byte0x39
 1851 02bb 0000 00E1 	.long0xe1
 1852 02bf 00        	.byte0
 1853 02c0 09        	.uleb128 0x9
 1854 02c1 0000 0000 	.long.LASF53
 1855 02c5 08        	.byte0x8
 1856 02c6 3A        	.byte0x3a
 1857 02c7 0000 00E1 	.long0xe1
 1858 02cb 04        	.byte0x4
 1859 02cc 09        	.uleb128 0x9
 1860 02cd 0000 0000 	.long.LASF54
 1861 02d1 08        	.byte0x8
 1862 02d2 3B        	.byte0x3b
 1863 02d3 0000 00E1 	.long0xe1
 1864 02d7 08        	.byte0x8
 1865 02d8 09        	.uleb128 0x9
 1866 02d9 0000 0000 	.long.LASF55
 1867 02dd 08        	.byte0x8
 1868 02de 3C        	.byte0x3c
68K GAS   			page 53


 1869 02df 0000 00E1 	.long0xe1
 1870 02e3 0C        	.byte0xc
 1871 02e4 09        	.uleb128 0x9
 1872 02e5 0000 0000 	.long.LASF56
 1873 02e9 08        	.byte0x8
 1874 02ea 3D        	.byte0x3d
 1875 02eb 0000 00E1 	.long0xe1
 1876 02ef 10        	.byte0x10
 1877 02f0 09        	.uleb128 0x9
 1878 02f1 0000 0000 	.long.LASF57
 1879 02f5 08        	.byte0x8
 1880 02f6 3E        	.byte0x3e
 1881 02f7 0000 00E1 	.long0xe1
 1882 02fb 14        	.byte0x14
 1883 02fc 09        	.uleb128 0x9
 1884 02fd 0000 0000 	.long.LASF58
 1885 0301 08        	.byte0x8
 1886 0302 3F        	.byte0x3f
 1887 0303 0000 00E1 	.long0xe1
 1888 0307 18        	.byte0x18
 1889 0308 09        	.uleb128 0x9
 1890 0309 0000 0000 	.long.LASF59
 1891 030d 08        	.byte0x8
 1892 030e 40        	.byte0x40
 1893 030f 0000 00E1 	.long0xe1
 1894 0313 1C        	.byte0x1c
 1895 0314 09        	.uleb128 0x9
 1896 0315 0000 0000 	.long.LASF60
 1897 0319 08        	.byte0x8
 1898 031a 41        	.byte0x41
 1899 031b 0000 00E1 	.long0xe1
 1900 031f 20        	.byte0x20
 1901 0320 00        	.byte0
 1902 0321 12        	.uleb128 0x12
 1903 0322 0000 0000 	.long.LASF61
 1904 0326 0108      	.word0x108
 1905 0328 08        	.byte0x8
 1906 0329 4A        	.byte0x4a
 1907 032a 0000 0361 	.long0x361
 1908 032e 09        	.uleb128 0x9
 1909 032f 0000 0000 	.long.LASF62
 1910 0333 08        	.byte0x8
 1911 0334 4B        	.byte0x4b
 1912 0335 0000 0361 	.long0x361
 1913 0339 00        	.byte0
 1914 033a 09        	.uleb128 0x9
 1915 033b 0000 0000 	.long.LASF63
 1916 033f 08        	.byte0x8
 1917 0340 4C        	.byte0x4c
 1918 0341 0000 0361 	.long0x361
 1919 0345 80        	.byte0x80
 1920 0346 13        	.uleb128 0x13
 1921 0347 0000 0000 	.long.LASF64
 1922 034b 08        	.byte0x8
 1923 034c 4E        	.byte0x4e
 1924 034d 0000 0234 	.long0x234
 1925 0351 0100      	.word0x100
68K GAS   			page 54


 1926 0353 13        	.uleb128 0x13
 1927 0354 0000 0000 	.long.LASF65
 1928 0358 08        	.byte0x8
 1929 0359 51        	.byte0x51
 1930 035a 0000 0234 	.long0x234
 1931 035e 0104      	.word0x104
 1932 0360 00        	.byte0
 1933 0361 0E        	.uleb128 0xe
 1934 0362 0000 00B7 	.long0xb7
 1935 0366 0000 0371 	.long0x371
 1936 036a 0F        	.uleb128 0xf
 1937 036b 0000 0091 	.long0x91
 1938 036f 1F        	.byte0x1f
 1939 0370 00        	.byte0
 1940 0371 12        	.uleb128 0x12
 1941 0372 0000 0000 	.long.LASF66
 1942 0376 0190      	.word0x190
 1943 0378 08        	.byte0x8
 1944 0379 5D        	.byte0x5d
 1945 037a 0000 03AF 	.long0x3af
 1946 037e 09        	.uleb128 0x9
 1947 037f 0000 0000 	.long.LASF47
 1948 0383 08        	.byte0x8
 1949 0384 5E        	.byte0x5e
 1950 0385 0000 03AF 	.long0x3af
 1951 0389 00        	.byte0
 1952 038a 09        	.uleb128 0x9
 1953 038b 0000 0000 	.long.LASF67
 1954 038f 08        	.byte0x8
 1955 0390 5F        	.byte0x5f
 1956 0391 0000 00E1 	.long0xe1
 1957 0395 04        	.byte0x4
 1958 0396 09        	.uleb128 0x9
 1959 0397 0000 0000 	.long.LASF68
 1960 039b 08        	.byte0x8
 1961 039c 61        	.byte0x61
 1962 039d 0000 03B5 	.long0x3b5
 1963 03a1 08        	.byte0x8
 1964 03a2 09        	.uleb128 0x9
 1965 03a3 0000 0000 	.long.LASF61
 1966 03a7 08        	.byte0x8
 1967 03a8 62        	.byte0x62
 1968 03a9 0000 0321 	.long0x321
 1969 03ad 88        	.byte0x88
 1970 03ae 00        	.byte0
 1971 03af 0B        	.uleb128 0xb
 1972 03b0 04        	.byte0x4
 1973 03b1 0000 0371 	.long0x371
 1974 03b5 0E        	.uleb128 0xe
 1975 03b6 0000 03C5 	.long0x3c5
 1976 03ba 0000 03C5 	.long0x3c5
 1977 03be 0F        	.uleb128 0xf
 1978 03bf 0000 0091 	.long0x91
 1979 03c3 1F        	.byte0x1f
 1980 03c4 00        	.byte0
 1981 03c5 0B        	.uleb128 0xb
 1982 03c6 04        	.byte0x4
68K GAS   			page 55


 1983 03c7 0000 03CB 	.long0x3cb
 1984 03cb 14        	.uleb128 0x14
 1985 03cc 08        	.uleb128 0x8
 1986 03cd 0000 0000 	.long.LASF69
 1987 03d1 08        	.byte0x8
 1988 03d2 08        	.byte0x8
 1989 03d3 75        	.byte0x75
 1990 03d4 0000 03F1 	.long0x3f1
 1991 03d8 09        	.uleb128 0x9
 1992 03d9 0000 0000 	.long.LASF70
 1993 03dd 08        	.byte0x8
 1994 03de 76        	.byte0x76
 1995 03df 0000 03F1 	.long0x3f1
 1996 03e3 00        	.byte0
 1997 03e4 09        	.uleb128 0x9
 1998 03e5 0000 0000 	.long.LASF71
 1999 03e9 08        	.byte0x8
 2000 03ea 77        	.byte0x77
 2001 03eb 0000 00E1 	.long0xe1
 2002 03ef 04        	.byte0x4
 2003 03f0 00        	.byte0
 2004 03f1 0B        	.uleb128 0xb
 2005 03f2 04        	.byte0x4
 2006 03f3 0000 0030 	.long0x30
 2007 03f7 08        	.uleb128 0x8
 2008 03f8 0000 0000 	.long.LASF72
 2009 03fc 80        	.byte0x80
 2010 03fd 08        	.byte0x8
 2011 03fe B5        	.byte0xb5
 2012 03ff 0000 0521 	.long0x521
 2013 0403 11        	.uleb128 0x11
 2014 0404 5F70 00   	.string"_p"
 2015 0407 08        	.byte0x8
 2016 0408 B6        	.byte0xb6
 2017 0409 0000 03F1 	.long0x3f1
 2018 040d 00        	.byte0
 2019 040e 11        	.uleb128 0x11
 2020 040f 5F72 00   	.string"_r"
 2021 0412 08        	.byte0x8
 2022 0413 B7        	.byte0xb7
 2023 0414 0000 00E1 	.long0xe1
 2024 0418 04        	.byte0x4
 2025 0419 11        	.uleb128 0x11
 2026 041a 5F77 00   	.string"_w"
 2027 041d 08        	.byte0x8
 2028 041e B8        	.byte0xb8
 2029 041f 0000 00E1 	.long0xe1
 2030 0423 08        	.byte0x8
 2031 0424 09        	.uleb128 0x9
 2032 0425 0000 0000 	.long.LASF73
 2033 0429 08        	.byte0x8
 2034 042a B9        	.byte0xb9
 2035 042b 0000 0049 	.long0x49
 2036 042f 0C        	.byte0xc
 2037 0430 09        	.uleb128 0x9
 2038 0431 0000 0000 	.long.LASF74
 2039 0435 08        	.byte0x8
68K GAS   			page 56


 2040 0436 BA        	.byte0xba
 2041 0437 0000 0049 	.long0x49
 2042 043b 0E        	.byte0xe
 2043 043c 11        	.uleb128 0x11
 2044 043d 5F62 6600 	.string"_bf"
 2045 0441 08        	.byte0x8
 2046 0442 BB        	.byte0xbb
 2047 0443 0000 03CC 	.long0x3cc
 2048 0447 10        	.byte0x10
 2049 0448 09        	.uleb128 0x9
 2050 0449 0000 0000 	.long.LASF75
 2051 044d 08        	.byte0x8
 2052 044e BC        	.byte0xbc
 2053 044f 0000 00E1 	.long0xe1
 2054 0453 18        	.byte0x18
 2055 0454 09        	.uleb128 0x9
 2056 0455 0000 0000 	.long.LASF76
 2057 0459 08        	.byte0x8
 2058 045a C3        	.byte0xc3
 2059 045b 0000 00B7 	.long0xb7
 2060 045f 1C        	.byte0x1c
 2061 0460 09        	.uleb128 0x9
 2062 0461 0000 0000 	.long.LASF77
 2063 0465 08        	.byte0x8
 2064 0466 C5        	.byte0xc5
 2065 0467 0000 0658 	.long0x658
 2066 046b 20        	.byte0x20
 2067 046c 09        	.uleb128 0x9
 2068 046d 0000 0000 	.long.LASF78
 2069 0471 08        	.byte0x8
 2070 0472 C7        	.byte0xc7
 2071 0473 0000 067C 	.long0x67c
 2072 0477 24        	.byte0x24
 2073 0478 09        	.uleb128 0x9
 2074 0479 0000 0000 	.long.LASF79
 2075 047d 08        	.byte0x8
 2076 047e CA        	.byte0xca
 2077 047f 0000 06A0 	.long0x6a0
 2078 0483 28        	.byte0x28
 2079 0484 09        	.uleb128 0x9
 2080 0485 0000 0000 	.long.LASF80
 2081 0489 08        	.byte0x8
 2082 048a CB        	.byte0xcb
 2083 048b 0000 06BA 	.long0x6ba
 2084 048f 2C        	.byte0x2c
 2085 0490 11        	.uleb128 0x11
 2086 0491 5F75 6200 	.string"_ub"
 2087 0495 08        	.byte0x8
 2088 0496 CE        	.byte0xce
 2089 0497 0000 03CC 	.long0x3cc
 2090 049b 30        	.byte0x30
 2091 049c 11        	.uleb128 0x11
 2092 049d 5F75 7000 	.string"_up"
 2093 04a1 08        	.byte0x8
 2094 04a2 CF        	.byte0xcf
 2095 04a3 0000 03F1 	.long0x3f1
 2096 04a7 38        	.byte0x38
68K GAS   			page 57


 2097 04a8 11        	.uleb128 0x11
 2098 04a9 5F75 7200 	.string"_ur"
 2099 04ad 08        	.byte0x8
 2100 04ae D0        	.byte0xd0
 2101 04af 0000 00E1 	.long0xe1
 2102 04b3 3C        	.byte0x3c
 2103 04b4 09        	.uleb128 0x9
 2104 04b5 0000 0000 	.long.LASF81
 2105 04b9 08        	.byte0x8
 2106 04ba D3        	.byte0xd3
 2107 04bb 0000 06C0 	.long0x6c0
 2108 04bf 40        	.byte0x40
 2109 04c0 09        	.uleb128 0x9
 2110 04c1 0000 0000 	.long.LASF82
 2111 04c5 08        	.byte0x8
 2112 04c6 D4        	.byte0xd4
 2113 04c7 0000 06D0 	.long0x6d0
 2114 04cb 43        	.byte0x43
 2115 04cc 11        	.uleb128 0x11
 2116 04cd 5F6C 6200 	.string"_lb"
 2117 04d1 08        	.byte0x8
 2118 04d2 D7        	.byte0xd7
 2119 04d3 0000 03CC 	.long0x3cc
 2120 04d7 44        	.byte0x44
 2121 04d8 09        	.uleb128 0x9
 2122 04d9 0000 0000 	.long.LASF83
 2123 04dd 08        	.byte0x8
 2124 04de DA        	.byte0xda
 2125 04df 0000 00E1 	.long0xe1
 2126 04e3 4C        	.byte0x4c
 2127 04e4 09        	.uleb128 0x9
 2128 04e5 0000 0000 	.long.LASF84
 2129 04e9 08        	.byte0x8
 2130 04ea DB        	.byte0xdb
 2131 04eb 0000 00CB 	.long0xcb
 2132 04ef 50        	.byte0x50
 2133 04f0 09        	.uleb128 0x9
 2134 04f1 0000 0000 	.long.LASF85
 2135 04f5 08        	.byte0x8
 2136 04f6 DE        	.byte0xde
 2137 04f7 0000 053F 	.long0x53f
 2138 04fb 58        	.byte0x58
 2139 04fc 09        	.uleb128 0x9
 2140 04fd 0000 0000 	.long.LASF86
 2141 0501 08        	.byte0x8
 2142 0502 E2        	.byte0xe2
 2143 0503 0000 0229 	.long0x229
 2144 0507 5C        	.byte0x5c
 2145 0508 09        	.uleb128 0x9
 2146 0509 0000 0000 	.long.LASF87
 2147 050d 08        	.byte0x8
 2148 050e E4        	.byte0xe4
 2149 050f 0000 021E 	.long0x21e
 2150 0513 74        	.byte0x74
 2151 0514 09        	.uleb128 0x9
 2152 0515 0000 0000 	.long.LASF88
 2153 0519 08        	.byte0x8
68K GAS   			page 58


 2154 051a E5        	.byte0xe5
 2155 051b 0000 00E1 	.long0xe1
 2156 051f 7C        	.byte0x7c
 2157 0520 00        	.byte0
 2158 0521 15        	.uleb128 0x15
 2159 0522 0000 01B7 	.long0x1b7
 2160 0526 0000 053F 	.long0x53f
 2161 052a 16        	.uleb128 0x16
 2162 052b 0000 053F 	.long0x53f
 2163 052f 16        	.uleb128 0x16
 2164 0530 0000 00B7 	.long0xb7
 2165 0534 16        	.uleb128 0x16
 2166 0535 0000 0652 	.long0x652
 2167 0539 16        	.uleb128 0x16
 2168 053a 0000 00E1 	.long0xe1
 2169 053e 00        	.byte0
 2170 053f 0B        	.uleb128 0xb
 2171 0540 04        	.byte0x4
 2172 0541 0000 054A 	.long0x54a
 2173 0545 05        	.uleb128 0x5
 2174 0546 0000 053F 	.long0x53f
 2175 054a 17        	.uleb128 0x17
 2176 054b 0000 0000 	.long.LASF89
 2177 054f 0158      	.word0x158
 2178 0551 08        	.byte0x8
 2179 0552 0239      	.word0x239
 2180 0554 0000 0652 	.long0x652
 2181 0558 18        	.uleb128 0x18
 2182 0559 0000 0000 	.long.LASF90
 2183 055d 08        	.byte0x8
 2184 055e 023B      	.word0x23b
 2185 0560 0000 00E1 	.long0xe1
 2186 0564 00        	.byte0
 2187 0565 18        	.uleb128 0x18
 2188 0566 0000 0000 	.long.LASF91
 2189 056a 08        	.byte0x8
 2190 056b 0240      	.word0x240
 2191 056d 0000 0727 	.long0x727
 2192 0571 04        	.byte0x4
 2193 0572 18        	.uleb128 0x18
 2194 0573 0000 0000 	.long.LASF92
 2195 0577 08        	.byte0x8
 2196 0578 0240      	.word0x240
 2197 057a 0000 0727 	.long0x727
 2198 057e 08        	.byte0x8
 2199 057f 18        	.uleb128 0x18
 2200 0580 0000 0000 	.long.LASF93
 2201 0584 08        	.byte0x8
 2202 0585 0240      	.word0x240
 2203 0587 0000 0727 	.long0x727
 2204 058b 0C        	.byte0xc
 2205 058c 18        	.uleb128 0x18
 2206 058d 0000 0000 	.long.LASF94
 2207 0591 08        	.byte0x8
 2208 0592 0242      	.word0x242
 2209 0594 0000 00E1 	.long0xe1
 2210 0598 10        	.byte0x10
68K GAS   			page 59


 2211 0599 18        	.uleb128 0x18
 2212 059a 0000 0000 	.long.LASF95
 2213 059e 08        	.byte0x8
 2214 059f 0243      	.word0x243
 2215 05a1 0000 0909 	.long0x909
 2216 05a5 14        	.byte0x14
 2217 05a6 18        	.uleb128 0x18
 2218 05a7 0000 0000 	.long.LASF96
 2219 05ab 08        	.byte0x8
 2220 05ac 0246      	.word0x246
 2221 05ae 0000 00E1 	.long0xe1
 2222 05b2 30        	.byte0x30
 2223 05b3 18        	.uleb128 0x18
 2224 05b4 0000 0000 	.long.LASF97
 2225 05b8 08        	.byte0x8
 2226 05b9 0247      	.word0x247
 2227 05bb 0000 091E 	.long0x91e
 2228 05bf 34        	.byte0x34
 2229 05c0 18        	.uleb128 0x18
 2230 05c1 0000 0000 	.long.LASF98
 2231 05c5 08        	.byte0x8
 2232 05c6 0249      	.word0x249
 2233 05c8 0000 00E1 	.long0xe1
 2234 05cc 38        	.byte0x38
 2235 05cd 18        	.uleb128 0x18
 2236 05ce 0000 0000 	.long.LASF99
 2237 05d2 08        	.byte0x8
 2238 05d3 024B      	.word0x24b
 2239 05d5 0000 092F 	.long0x92f
 2240 05d9 3C        	.byte0x3c
 2241 05da 18        	.uleb128 0x18
 2242 05db 0000 0000 	.long.LASF100
 2243 05df 08        	.byte0x8
 2244 05e0 024E      	.word0x24e
 2245 05e2 0000 0292 	.long0x292
 2246 05e6 40        	.byte0x40
 2247 05e7 18        	.uleb128 0x18
 2248 05e8 0000 0000 	.long.LASF101
 2249 05ec 08        	.byte0x8
 2250 05ed 024F      	.word0x24f
 2251 05ef 0000 00E1 	.long0xe1
 2252 05f3 44        	.byte0x44
 2253 05f4 18        	.uleb128 0x18
 2254 05f5 0000 0000 	.long.LASF102
 2255 05f9 08        	.byte0x8
 2256 05fa 0250      	.word0x250
 2257 05fc 0000 0292 	.long0x292
 2258 0600 48        	.byte0x48
 2259 0601 18        	.uleb128 0x18
 2260 0602 0000 0000 	.long.LASF103
 2261 0606 08        	.byte0x8
 2262 0607 0251      	.word0x251
 2263 0609 0000 0935 	.long0x935
 2264 060d 4C        	.byte0x4c
 2265 060e 18        	.uleb128 0x18
 2266 060f 0000 0000 	.long.LASF104
 2267 0613 08        	.byte0x8
68K GAS   			page 60


 2268 0614 0254      	.word0x254
 2269 0616 0000 00E1 	.long0xe1
 2270 061a 50        	.byte0x50
 2271 061b 18        	.uleb128 0x18
 2272 061c 0000 0000 	.long.LASF105
 2273 0620 08        	.byte0x8
 2274 0621 0255      	.word0x255
 2275 0623 0000 0652 	.long0x652
 2276 0627 54        	.byte0x54
 2277 0628 18        	.uleb128 0x18
 2278 0629 0000 0000 	.long.LASF106
 2279 062d 08        	.byte0x8
 2280 062e 0278      	.word0x278
 2281 0630 0000 08E7 	.long0x8e7
 2282 0634 58        	.byte0x58
 2283 0635 19        	.uleb128 0x19
 2284 0636 0000 0000 	.long.LASF107
 2285 063a 08        	.byte0x8
 2286 063b 0281      	.word0x281
 2287 063d 0000 0946 	.long0x946
 2288 0641 0148      	.word0x148
 2289 0643 19        	.uleb128 0x19
 2290 0644 0000 0000 	.long.LASF108
 2291 0648 08        	.byte0x8
 2292 0649 0286      	.word0x286
 2293 064b 0000 06EC 	.long0x6ec
 2294 064f 014C      	.word0x14c
 2295 0651 00        	.byte0
 2296 0652 0B        	.uleb128 0xb
 2297 0653 04        	.byte0x4
 2298 0654 0000 00AB 	.long0xab
 2299 0658 0B        	.uleb128 0xb
 2300 0659 04        	.byte0x4
 2301 065a 0000 0521 	.long0x521
 2302 065e 15        	.uleb128 0x15
 2303 065f 0000 01B7 	.long0x1b7
 2304 0663 0000 067C 	.long0x67c
 2305 0667 16        	.uleb128 0x16
 2306 0668 0000 053F 	.long0x53f
 2307 066c 16        	.uleb128 0x16
 2308 066d 0000 00B7 	.long0xb7
 2309 0671 16        	.uleb128 0x16
 2310 0672 0000 0167 	.long0x167
 2311 0676 16        	.uleb128 0x16
 2312 0677 0000 00E1 	.long0xe1
 2313 067b 00        	.byte0
 2314 067c 0B        	.uleb128 0xb
 2315 067d 04        	.byte0x4
 2316 067e 0000 065E 	.long0x65e
 2317 0682 15        	.uleb128 0x15
 2318 0683 0000 00D6 	.long0xd6
 2319 0687 0000 06A0 	.long0x6a0
 2320 068b 16        	.uleb128 0x16
 2321 068c 0000 053F 	.long0x53f
 2322 0690 16        	.uleb128 0x16
 2323 0691 0000 00B7 	.long0xb7
 2324 0695 16        	.uleb128 0x16
68K GAS   			page 61


 2325 0696 0000 00D6 	.long0xd6
 2326 069a 16        	.uleb128 0x16
 2327 069b 0000 00E1 	.long0xe1
 2328 069f 00        	.byte0
 2329 06a0 0B        	.uleb128 0xb
 2330 06a1 04        	.byte0x4
 2331 06a2 0000 0682 	.long0x682
 2332 06a6 15        	.uleb128 0x15
 2333 06a7 0000 00E1 	.long0xe1
 2334 06ab 0000 06BA 	.long0x6ba
 2335 06af 16        	.uleb128 0x16
 2336 06b0 0000 053F 	.long0x53f
 2337 06b4 16        	.uleb128 0x16
 2338 06b5 0000 00B7 	.long0xb7
 2339 06b9 00        	.byte0
 2340 06ba 0B        	.uleb128 0xb
 2341 06bb 04        	.byte0x4
 2342 06bc 0000 06A6 	.long0x6a6
 2343 06c0 0E        	.uleb128 0xe
 2344 06c1 0000 0030 	.long0x30
 2345 06c5 0000 06D0 	.long0x6d0
 2346 06c9 0F        	.uleb128 0xf
 2347 06ca 0000 0091 	.long0x91
 2348 06ce 02        	.byte0x2
 2349 06cf 00        	.byte0
 2350 06d0 0E        	.uleb128 0xe
 2351 06d1 0000 0030 	.long0x30
 2352 06d5 0000 06E0 	.long0x6e0
 2353 06d9 0F        	.uleb128 0xf
 2354 06da 0000 0091 	.long0x91
 2355 06de 00        	.byte0
 2356 06df 00        	.byte0
 2357 06e0 04        	.uleb128 0x4
 2358 06e1 0000 0000 	.long.LASF109
 2359 06e5 08        	.byte0x8
 2360 06e6 011F      	.word0x11f
 2361 06e8 0000 03F7 	.long0x3f7
 2362 06ec 1A        	.uleb128 0x1a
 2363 06ed 0000 0000 	.long.LASF110
 2364 06f1 0C        	.byte0xc
 2365 06f2 08        	.byte0x8
 2366 06f3 0123      	.word0x123
 2367 06f5 0000 0721 	.long0x721
 2368 06f9 18        	.uleb128 0x18
 2369 06fa 0000 0000 	.long.LASF47
 2370 06fe 08        	.byte0x8
 2371 06ff 0125      	.word0x125
 2372 0701 0000 0721 	.long0x721
 2373 0705 00        	.byte0
 2374 0706 18        	.uleb128 0x18
 2375 0707 0000 0000 	.long.LASF111
 2376 070b 08        	.byte0x8
 2377 070c 0126      	.word0x126
 2378 070e 0000 00E1 	.long0xe1
 2379 0712 04        	.byte0x4
 2380 0713 18        	.uleb128 0x18
 2381 0714 0000 0000 	.long.LASF112
68K GAS   			page 62


 2382 0718 08        	.byte0x8
 2383 0719 0127      	.word0x127
 2384 071b 0000 0727 	.long0x727
 2385 071f 08        	.byte0x8
 2386 0720 00        	.byte0
 2387 0721 0B        	.uleb128 0xb
 2388 0722 04        	.byte0x4
 2389 0723 0000 06EC 	.long0x6ec
 2390 0727 0B        	.uleb128 0xb
 2391 0728 04        	.byte0x4
 2392 0729 0000 06E0 	.long0x6e0
 2393 072d 1A        	.uleb128 0x1a
 2394 072e 0000 0000 	.long.LASF113
 2395 0732 0E        	.byte0xe
 2396 0733 08        	.byte0x8
 2397 0734 013F      	.word0x13f
 2398 0736 0000 0762 	.long0x762
 2399 073a 18        	.uleb128 0x18
 2400 073b 0000 0000 	.long.LASF114
 2401 073f 08        	.byte0x8
 2402 0740 0140      	.word0x140
 2403 0742 0000 0762 	.long0x762
 2404 0746 00        	.byte0
 2405 0747 18        	.uleb128 0x18
 2406 0748 0000 0000 	.long.LASF115
 2407 074c 08        	.byte0x8
 2408 074d 0141      	.word0x141
 2409 074f 0000 0762 	.long0x762
 2410 0753 06        	.byte0x6
 2411 0754 18        	.uleb128 0x18
 2412 0755 0000 0000 	.long.LASF116
 2413 0759 08        	.byte0x8
 2414 075a 0142      	.word0x142
 2415 075c 0000 007F 	.long0x7f
 2416 0760 0C        	.byte0xc
 2417 0761 00        	.byte0
 2418 0762 0E        	.uleb128 0xe
 2419 0763 0000 007F 	.long0x7f
 2420 0767 0000 0772 	.long0x772
 2421 076b 0F        	.uleb128 0xf
 2422 076c 0000 0091 	.long0x91
 2423 0770 02        	.byte0x2
 2424 0771 00        	.byte0
 2425 0772 1B        	.uleb128 0x1b
 2426 0773 CC        	.byte0xcc
 2427 0774 08        	.byte0x8
 2428 0775 0259      	.word0x259
 2429 0777 0000 0873 	.long0x873
 2430 077b 18        	.uleb128 0x18
 2431 077c 0000 0000 	.long.LASF117
 2432 0780 08        	.byte0x8
 2433 0781 025B      	.word0x25b
 2434 0783 0000 010D 	.long0x10d
 2435 0787 00        	.byte0
 2436 0788 18        	.uleb128 0x18
 2437 0789 0000 0000 	.long.LASF118
 2438 078d 08        	.byte0x8
68K GAS   			page 63


 2439 078e 025C      	.word0x25c
 2440 0790 0000 0652 	.long0x652
 2441 0794 04        	.byte0x4
 2442 0795 18        	.uleb128 0x18
 2443 0796 0000 0000 	.long.LASF119
 2444 079a 08        	.byte0x8
 2445 079b 025D      	.word0x25d
 2446 079d 0000 0873 	.long0x873
 2447 07a1 08        	.byte0x8
 2448 07a2 18        	.uleb128 0x18
 2449 07a3 0000 0000 	.long.LASF120
 2450 07a7 08        	.byte0x8
 2451 07a8 025E      	.word0x25e
 2452 07aa 0000 02A8 	.long0x2a8
 2453 07ae 24        	.byte0x24
 2454 07af 18        	.uleb128 0x18
 2455 07b0 0000 0000 	.long.LASF121
 2456 07b4 08        	.byte0x8
 2457 07b5 025F      	.word0x25f
 2458 07b7 0000 00E1 	.long0xe1
 2459 07bb 48        	.byte0x48
 2460 07bc 18        	.uleb128 0x18
 2461 07bd 0000 0000 	.long.LASF122
 2462 07c1 08        	.byte0x8
 2463 07c2 0260      	.word0x260
 2464 07c4 0000 0098 	.long0x98
 2465 07c8 4C        	.byte0x4c
 2466 07c9 18        	.uleb128 0x18
 2467 07ca 0000 0000 	.long.LASF123
 2468 07ce 08        	.byte0x8
 2469 07cf 0261      	.word0x261
 2470 07d1 0000 072D 	.long0x72d
 2471 07d5 54        	.byte0x54
 2472 07d6 18        	.uleb128 0x18
 2473 07d7 0000 0000 	.long.LASF124
 2474 07db 08        	.byte0x8
 2475 07dc 0262      	.word0x262
 2476 07de 0000 021E 	.long0x21e
 2477 07e2 64        	.byte0x64
 2478 07e3 18        	.uleb128 0x18
 2479 07e4 0000 0000 	.long.LASF125
 2480 07e8 08        	.byte0x8
 2481 07e9 0263      	.word0x263
 2482 07eb 0000 021E 	.long0x21e
 2483 07ef 6C        	.byte0x6c
 2484 07f0 18        	.uleb128 0x18
 2485 07f1 0000 0000 	.long.LASF126
 2486 07f5 08        	.byte0x8
 2487 07f6 0264      	.word0x264
 2488 07f8 0000 021E 	.long0x21e
 2489 07fc 74        	.byte0x74
 2490 07fd 18        	.uleb128 0x18
 2491 07fe 0000 0000 	.long.LASF127
 2492 0802 08        	.byte0x8
 2493 0803 0265      	.word0x265
 2494 0805 0000 0883 	.long0x883
 2495 0809 7C        	.byte0x7c
68K GAS   			page 64


 2496 080a 18        	.uleb128 0x18
 2497 080b 0000 0000 	.long.LASF128
 2498 080f 08        	.byte0x8
 2499 0810 0266      	.word0x266
 2500 0812 0000 0893 	.long0x893
 2501 0816 84        	.byte0x84
 2502 0817 18        	.uleb128 0x18
 2503 0818 0000 0000 	.long.LASF129
 2504 081c 08        	.byte0x8
 2505 081d 0267      	.word0x267
 2506 081f 0000 00E1 	.long0xe1
 2507 0823 9C        	.byte0x9c
 2508 0824 18        	.uleb128 0x18
 2509 0825 0000 0000 	.long.LASF130
 2510 0829 08        	.byte0x8
 2511 082a 0268      	.word0x268
 2512 082c 0000 021E 	.long0x21e
 2513 0830 A0        	.byte0xa0
 2514 0831 18        	.uleb128 0x18
 2515 0832 0000 0000 	.long.LASF131
 2516 0836 08        	.byte0x8
 2517 0837 0269      	.word0x269
 2518 0839 0000 021E 	.long0x21e
 2519 083d A8        	.byte0xa8
 2520 083e 18        	.uleb128 0x18
 2521 083f 0000 0000 	.long.LASF132
 2522 0843 08        	.byte0x8
 2523 0844 026A      	.word0x26a
 2524 0846 0000 021E 	.long0x21e
 2525 084a B0        	.byte0xb0
 2526 084b 18        	.uleb128 0x18
 2527 084c 0000 0000 	.long.LASF133
 2528 0850 08        	.byte0x8
 2529 0851 026B      	.word0x26b
 2530 0853 0000 021E 	.long0x21e
 2531 0857 B8        	.byte0xb8
 2532 0858 18        	.uleb128 0x18
 2533 0859 0000 0000 	.long.LASF134
 2534 085d 08        	.byte0x8
 2535 085e 026C      	.word0x26c
 2536 0860 0000 021E 	.long0x21e
 2537 0864 C0        	.byte0xc0
 2538 0865 18        	.uleb128 0x18
 2539 0866 0000 0000 	.long.LASF135
 2540 086a 08        	.byte0x8
 2541 086b 026D      	.word0x26d
 2542 086d 0000 00E1 	.long0xe1
 2543 0871 C8        	.byte0xc8
 2544 0872 00        	.byte0
 2545 0873 0E        	.uleb128 0xe
 2546 0874 0000 00AB 	.long0xab
 2547 0878 0000 0883 	.long0x883
 2548 087c 0F        	.uleb128 0xf
 2549 087d 0000 0091 	.long0x91
 2550 0881 19        	.byte0x19
 2551 0882 00        	.byte0
 2552 0883 0E        	.uleb128 0xe
68K GAS   			page 65


 2553 0884 0000 00AB 	.long0xab
 2554 0888 0000 0893 	.long0x893
 2555 088c 0F        	.uleb128 0xf
 2556 088d 0000 0091 	.long0x91
 2557 0891 07        	.byte0x7
 2558 0892 00        	.byte0
 2559 0893 0E        	.uleb128 0xe
 2560 0894 0000 00AB 	.long0xab
 2561 0898 0000 08A3 	.long0x8a3
 2562 089c 0F        	.uleb128 0xf
 2563 089d 0000 0091 	.long0x91
 2564 08a1 17        	.byte0x17
 2565 08a2 00        	.byte0
 2566 08a3 1B        	.uleb128 0x1b
 2567 08a4 F0        	.byte0xf0
 2568 08a5 08        	.byte0x8
 2569 08a6 0272      	.word0x272
 2570 08a8 0000 08C7 	.long0x8c7
 2571 08ac 18        	.uleb128 0x18
 2572 08ad 0000 0000 	.long.LASF136
 2573 08b1 08        	.byte0x8
 2574 08b2 0275      	.word0x275
 2575 08b4 0000 08C7 	.long0x8c7
 2576 08b8 00        	.byte0
 2577 08b9 18        	.uleb128 0x18
 2578 08ba 0000 0000 	.long.LASF137
 2579 08be 08        	.byte0x8
 2580 08bf 0276      	.word0x276
 2581 08c1 0000 08D7 	.long0x8d7
 2582 08c5 78        	.byte0x78
 2583 08c6 00        	.byte0
 2584 08c7 0E        	.uleb128 0xe
 2585 08c8 0000 03F1 	.long0x3f1
 2586 08cc 0000 08D7 	.long0x8d7
 2587 08d0 0F        	.uleb128 0xf
 2588 08d1 0000 0091 	.long0x91
 2589 08d5 1D        	.byte0x1d
 2590 08d6 00        	.byte0
 2591 08d7 0E        	.uleb128 0xe
 2592 08d8 0000 010D 	.long0x10d
 2593 08dc 0000 08E7 	.long0x8e7
 2594 08e0 0F        	.uleb128 0xf
 2595 08e1 0000 0091 	.long0x91
 2596 08e5 1D        	.byte0x1d
 2597 08e6 00        	.byte0
 2598 08e7 1C        	.uleb128 0x1c
 2599 08e8 F0        	.byte0xf0
 2600 08e9 08        	.byte0x8
 2601 08ea 0257      	.word0x257
 2602 08ec 0000 0909 	.long0x909
 2603 08f0 1D        	.uleb128 0x1d
 2604 08f1 0000 0000 	.long.LASF89
 2605 08f5 08        	.byte0x8
 2606 08f6 026E      	.word0x26e
 2607 08f8 0000 0772 	.long0x772
 2608 08fc 1D        	.uleb128 0x1d
 2609 08fd 0000 0000 	.long.LASF138
68K GAS   			page 66


 2610 0901 08        	.byte0x8
 2611 0902 0277      	.word0x277
 2612 0904 0000 08A3 	.long0x8a3
 2613 0908 00        	.byte0
 2614 0909 0E        	.uleb128 0xe
 2615 090a 0000 00AB 	.long0xab
 2616 090e 0000 0919 	.long0x919
 2617 0912 0F        	.uleb128 0xf
 2618 0913 0000 0091 	.long0x91
 2619 0917 18        	.byte0x18
 2620 0918 00        	.byte0
 2621 0919 0A        	.uleb128 0xa
 2622 091a 0000 0000 	.long.LASF139
 2623 091e 0B        	.uleb128 0xb
 2624 091f 04        	.byte0x4
 2625 0920 0000 0919 	.long0x919
 2626 0924 1E        	.uleb128 0x1e
 2627 0925 0000 092F 	.long0x92f
 2628 0929 16        	.uleb128 0x16
 2629 092a 0000 053F 	.long0x53f
 2630 092e 00        	.byte0
 2631 092f 0B        	.uleb128 0xb
 2632 0930 04        	.byte0x4
 2633 0931 0000 0924 	.long0x924
 2634 0935 0B        	.uleb128 0xb
 2635 0936 04        	.byte0x4
 2636 0937 0000 0292 	.long0x292
 2637 093b 1E        	.uleb128 0x1e
 2638 093c 0000 0946 	.long0x946
 2639 0940 16        	.uleb128 0x16
 2640 0941 0000 00E1 	.long0xe1
 2641 0945 00        	.byte0
 2642 0946 0B        	.uleb128 0xb
 2643 0947 04        	.byte0x4
 2644 0948 0000 094C 	.long0x94c
 2645 094c 0B        	.uleb128 0xb
 2646 094d 04        	.byte0x4
 2647 094e 0000 093B 	.long0x93b
 2648 0952 0E        	.uleb128 0xe
 2649 0953 0000 06E0 	.long0x6e0
 2650 0957 0000 0962 	.long0x962
 2651 095b 0F        	.uleb128 0xf
 2652 095c 0000 0091 	.long0x91
 2653 0960 02        	.byte0x2
 2654 0961 00        	.byte0
 2655 0962 1F        	.uleb128 0x1f
 2656 0963 0000 0000 	.long.LASF140
 2657 0967 08        	.byte0x8
 2658 0968 028D      	.word0x28d
 2659 096a 0000 0952 	.long0x952
 2660 096e 1F        	.uleb128 0x1f
 2661 096f 0000 0000 	.long.LASF141
 2662 0973 08        	.byte0x8
 2663 0974 0307      	.word0x307
 2664 0976 0000 053F 	.long0x53f
 2665 097a 1F        	.uleb128 0x1f
 2666 097b 0000 0000 	.long.LASF142
68K GAS   			page 67


 2667 097f 08        	.byte0x8
 2668 0980 0308      	.word0x308
 2669 0982 0000 0545 	.long0x545
 2670 0986 1F        	.uleb128 0x1f
 2671 0987 0000 0000 	.long.LASF143
 2672 098b 08        	.byte0x8
 2673 098c 031A      	.word0x31a
 2674 098e 0000 03AF 	.long0x3af
 2675 0992 20        	.uleb128 0x20
 2676 0993 0000 0000 	.long.LASF144
 2677 0997 09        	.byte0x9
 2678 0998 63        	.byte0x63
 2679 0999 0000 0652 	.long0x652
 2680 099d 20        	.uleb128 0x20
 2681 099e 0000 0000 	.long.LASF145
 2682 09a2 0A        	.byte0xa
 2683 09a3 9A        	.byte0x9a
 2684 09a4 0000 005B 	.long0x5b
 2685 09a8 20        	.uleb128 0x20
 2686 09a9 0000 0000 	.long.LASF146
 2687 09ad 0A        	.byte0xa
 2688 09ae 9B        	.byte0x9b
 2689 09af 0000 00E1 	.long0xe1
 2690 09b3 0E        	.uleb128 0xe
 2691 09b4 0000 0652 	.long0x652
 2692 09b8 0000 09C3 	.long0x9c3
 2693 09bc 0F        	.uleb128 0xf
 2694 09bd 0000 0091 	.long0x91
 2695 09c1 01        	.byte0x1
 2696 09c2 00        	.byte0
 2697 09c3 20        	.uleb128 0x20
 2698 09c4 0000 0000 	.long.LASF147
 2699 09c8 0A        	.byte0xa
 2700 09c9 9E        	.byte0x9e
 2701 09ca 0000 09B3 	.long0x9b3
 2702 09ce 0B        	.uleb128 0xb
 2703 09cf 04        	.byte0x4
 2704 09d0 0000 09D4 	.long0x9d4
 2705 09d4 21        	.uleb128 0x21
 2706 09d5 0000 0050 	.long0x50
 2707 09d9 10        	.uleb128 0x10
 2708 09da 08        	.byte0x8
 2709 09db 0B        	.byte0xb
 2710 09dc 4D        	.byte0x4d
 2711 09dd 0000 09FA 	.long0x9fa
 2712 09e1 09        	.uleb128 0x9
 2713 09e2 0000 0000 	.long.LASF148
 2714 09e6 0B        	.byte0xb
 2715 09e7 4F        	.byte0x4f
 2716 09e8 0000 0086 	.long0x86
 2717 09ec 00        	.byte0
 2718 09ed 09        	.uleb128 0x9
 2719 09ee 0000 0000 	.long.LASF149
 2720 09f2 0B        	.byte0xb
 2721 09f3 50        	.byte0x50
 2722 09f4 0000 0086 	.long0x86
 2723 09f8 04        	.byte0x4
68K GAS   			page 68


 2724 09f9 00        	.byte0
 2725 09fa 02        	.uleb128 0x2
 2726 09fb 0000 0000 	.long.LASF150
 2727 09ff 0B        	.byte0xb
 2728 0a00 51        	.byte0x51
 2729 0a01 0000 09D9 	.long0x9d9
 2730 0a05 22        	.uleb128 0x22
 2731 0a06 05        	.byte0x5
 2732 0a07 04        	.byte0x4
 2733 0a08 0000 00E1 	.long0xe1
 2734 0a0c 0B        	.byte0xb
 2735 0a0d 65        	.byte0x65
 2736 0a0e 0000 0A25 	.long0xa25
 2737 0a12 23        	.uleb128 0x23
 2738 0a13 0000 0000 	.long.LASF151
 2739 0a17 7F        	.sleb128 -1
 2740 0a18 24        	.uleb128 0x24
 2741 0a19 0000 0000 	.long.LASF152
 2742 0a1d 00        	.byte0
 2743 0a1e 24        	.uleb128 0x24
 2744 0a1f 0000 0000 	.long.LASF153
 2745 0a23 01        	.byte0x1
 2746 0a24 00        	.byte0
 2747 0a25 02        	.uleb128 0x2
 2748 0a26 0000 0000 	.long.LASF154
 2749 0a2a 0B        	.byte0xb
 2750 0a2b 73        	.byte0x73
 2751 0a2c 0000 0A05 	.long0xa05
 2752 0a30 22        	.uleb128 0x22
 2753 0a31 05        	.byte0x5
 2754 0a32 04        	.byte0x4
 2755 0a33 0000 00E1 	.long0xe1
 2756 0a37 0B        	.byte0xb
 2757 0a38 81        	.byte0x81
 2758 0a39 0000 0A50 	.long0xa50
 2759 0a3d 23        	.uleb128 0x23
 2760 0a3e 0000 0000 	.long.LASF155
 2761 0a42 7F        	.sleb128 -1
 2762 0a43 24        	.uleb128 0x24
 2763 0a44 0000 0000 	.long.LASF156
 2764 0a48 00        	.byte0
 2765 0a49 24        	.uleb128 0x24
 2766 0a4a 0000 0000 	.long.LASF157
 2767 0a4e 01        	.byte0x1
 2768 0a4f 00        	.byte0
 2769 0a50 02        	.uleb128 0x2
 2770 0a51 0000 0000 	.long.LASF158
 2771 0a55 0B        	.byte0xb
 2772 0a56 85        	.byte0x85
 2773 0a57 0000 0A30 	.long0xa30
 2774 0a5b 02        	.uleb128 0x2
 2775 0a5c 0000 0000 	.long.LASF159
 2776 0a60 0B        	.byte0xb
 2777 0a61 A5        	.byte0xa5
 2778 0a62 0000 09CE 	.long0x9ce
 2779 0a66 10        	.uleb128 0x10
 2780 0a67 06        	.byte0x6
68K GAS   			page 69


 2781 0a68 0C        	.byte0xc
 2782 0a69 58        	.byte0x58
 2783 0a6a 0000 0A93 	.long0xa93
 2784 0a6e 09        	.uleb128 0x9
 2785 0a6f 0000 0000 	.long.LASF160
 2786 0a73 0C        	.byte0xc
 2787 0a74 5A        	.byte0x5a
 2788 0a75 0000 0A93 	.long0xa93
 2789 0a79 00        	.byte0
 2790 0a7a 09        	.uleb128 0x9
 2791 0a7b 0000 0000 	.long.LASF161
 2792 0a7f 0C        	.byte0xc
 2793 0a80 61        	.byte0x61
 2794 0a81 0000 0A93 	.long0xa93
 2795 0a85 02        	.byte0x2
 2796 0a86 09        	.uleb128 0x9
 2797 0a87 0000 0000 	.long.LASF162
 2798 0a8b 0C        	.byte0xc
 2799 0a8c 66        	.byte0x66
 2800 0a8d 0000 0A93 	.long0xa93
 2801 0a91 04        	.byte0x4
 2802 0a92 00        	.byte0
 2803 0a93 0E        	.uleb128 0xe
 2804 0a94 0000 0069 	.long0x69
 2805 0a98 0000 0AA3 	.long0xaa3
 2806 0a9c 0F        	.uleb128 0xf
 2807 0a9d 0000 0091 	.long0x91
 2808 0aa1 01        	.byte0x1
 2809 0aa2 00        	.byte0
 2810 0aa3 02        	.uleb128 0x2
 2811 0aa4 0000 0000 	.long.LASF163
 2812 0aa8 0C        	.byte0xc
 2813 0aa9 6A        	.byte0x6a
 2814 0aaa 0000 0A66 	.long0xa66
 2815 0aae 0E        	.uleb128 0xe
 2816 0aaf 0000 0069 	.long0x69
 2817 0ab3 0000 0ABE 	.long0xabe
 2818 0ab7 0F        	.uleb128 0xf
 2819 0ab8 0000 0091 	.long0x91
 2820 0abc 05        	.byte0x5
 2821 0abd 00        	.byte0
 2822 0abe 0C        	.uleb128 0xc
 2823 0abf 08        	.byte0x8
 2824 0ac0 0D        	.byte0xd
 2825 0ac1 75        	.byte0x75
 2826 0ac2 0000 0AE8 	.long0xae8
 2827 0ac6 25        	.uleb128 0x25
 2828 0ac7 4864 7200 	.string"Hdr"
 2829 0acb 0D        	.byte0xd
 2830 0acc 76        	.byte0x76
 2831 0acd 0000 0AA3 	.long0xaa3
 2832 0ad1 0D        	.uleb128 0xd
 2833 0ad2 0000 0000 	.long.LASF164
 2834 0ad6 0D        	.byte0xd
 2835 0ad7 77        	.byte0x77
 2836 0ad8 0000 0086 	.long0x86
 2837 0adc 0D        	.uleb128 0xd
68K GAS   			page 70


 2838 0add 0000 0000 	.long.LASF165
 2839 0ae1 0D        	.byte0xd
 2840 0ae2 78        	.byte0x78
 2841 0ae3 0000 0AAE 	.long0xaae
 2842 0ae7 00        	.byte0
 2843 0ae8 02        	.uleb128 0x2
 2844 0ae9 0000 0000 	.long.LASF166
 2845 0aed 0D        	.byte0xd
 2846 0aee 79        	.byte0x79
 2847 0aef 0000 0ABE 	.long0xabe
 2848 0af3 02        	.uleb128 0x2
 2849 0af4 0000 0000 	.long.LASF167
 2850 0af8 0D        	.byte0xd
 2851 0af9 98        	.byte0x98
 2852 0afa 0000 0069 	.long0x69
 2853 0afe 02        	.uleb128 0x2
 2854 0aff 0000 0000 	.long.LASF168
 2855 0b03 0D        	.byte0xd
 2856 0b04 A1        	.byte0xa1
 2857 0b05 0000 0B09 	.long0xb09
 2858 0b09 0B        	.uleb128 0xb
 2859 0b0a 04        	.byte0x4
 2860 0b0b 0000 0AE8 	.long0xae8
 2861 0b0f 10        	.uleb128 0x10
 2862 0b10 02        	.byte0x2
 2863 0b11 0D        	.byte0xd
 2864 0b12 B1        	.byte0xb1
 2865 0b13 0000 0B30 	.long0xb30
 2866 0b17 09        	.uleb128 0x9
 2867 0b18 0000 0000 	.long.LASF169
 2868 0b1c 0D        	.byte0xd
 2869 0b1d B2        	.byte0xb2
 2870 0b1e 0000 0069 	.long0x69
 2871 0b22 00        	.byte0
 2872 0b23 09        	.uleb128 0x9
 2873 0b24 0000 0000 	.long.LASF170
 2874 0b28 0D        	.byte0xd
 2875 0b29 B3        	.byte0xb3
 2876 0b2a 0000 0069 	.long0x69
 2877 0b2e 01        	.byte0x1
 2878 0b2f 00        	.byte0
 2879 0b30 02        	.uleb128 0x2
 2880 0b31 0000 0000 	.long.LASF171
 2881 0b35 0D        	.byte0xd
 2882 0b36 B4        	.byte0xb4
 2883 0b37 0000 0B0F 	.long0xb0f
 2884 0b3b 20        	.uleb128 0x20
 2885 0b3c 0000 0000 	.long.LASF172
 2886 0b40 0D        	.byte0xd
 2887 0b41 B6        	.byte0xb6
 2888 0b42 0000 0B30 	.long0xb30
 2889 0b46 0E        	.uleb128 0xe
 2890 0b47 0000 0069 	.long0x69
 2891 0b4b 0000 0B56 	.long0xb56
 2892 0b4f 0F        	.uleb128 0xf
 2893 0b50 0000 0091 	.long0x91
 2894 0b54 07        	.byte0x7
68K GAS   			page 71


 2895 0b55 00        	.byte0
 2896 0b56 0E        	.uleb128 0xe
 2897 0b57 0000 0069 	.long0x69
 2898 0b5b 0000 0B66 	.long0xb66
 2899 0b5f 0F        	.uleb128 0xf
 2900 0b60 0000 0091 	.long0x91
 2901 0b64 0B        	.byte0xb
 2902 0b65 00        	.byte0
 2903 0b66 1B        	.uleb128 0x1b
 2904 0b67 08        	.byte0x8
 2905 0b68 0E        	.byte0xe
 2906 0b69 038B      	.word0x38b
 2907 0b6b 0000 0B7D 	.long0xb7d
 2908 0b6f 18        	.uleb128 0x18
 2909 0b70 0000 0000 	.long.LASF173
 2910 0b74 0E        	.byte0xe
 2911 0b75 038D      	.word0x38d
 2912 0b77 0000 0B46 	.long0xb46
 2913 0b7b 00        	.byte0
 2914 0b7c 00        	.byte0
 2915 0b7d 04        	.uleb128 0x4
 2916 0b7e 0000 0000 	.long.LASF174
 2917 0b82 0E        	.byte0xe
 2918 0b83 038F      	.word0x38f
 2919 0b85 0000 0B66 	.long0xb66
 2920 0b89 1B        	.uleb128 0x1b
 2921 0b8a 08        	.byte0x8
 2922 0b8b 0E        	.byte0xe
 2923 0b8c 0395      	.word0x395
 2924 0b8e 0000 0BA0 	.long0xba0
 2925 0b92 18        	.uleb128 0x18
 2926 0b93 0000 0000 	.long.LASF173
 2927 0b97 0E        	.byte0xe
 2928 0b98 0397      	.word0x397
 2929 0b9a 0000 0B46 	.long0xb46
 2930 0b9e 00        	.byte0
 2931 0b9f 00        	.byte0
 2932 0ba0 04        	.uleb128 0x4
 2933 0ba1 0000 0000 	.long.LASF175
 2934 0ba5 0E        	.byte0xe
 2935 0ba6 0399      	.word0x399
 2936 0ba8 0000 0B89 	.long0xb89
 2937 0bac 1B        	.uleb128 0x1b
 2938 0bad 08        	.byte0x8
 2939 0bae 0E        	.byte0xe
 2940 0baf 039F      	.word0x39f
 2941 0bb1 0000 0BC3 	.long0xbc3
 2942 0bb5 18        	.uleb128 0x18
 2943 0bb6 0000 0000 	.long.LASF173
 2944 0bba 0E        	.byte0xe
 2945 0bbb 03A1      	.word0x3a1
 2946 0bbd 0000 0B46 	.long0xb46
 2947 0bc1 00        	.byte0
 2948 0bc2 00        	.byte0
 2949 0bc3 04        	.uleb128 0x4
 2950 0bc4 0000 0000 	.long.LASF176
 2951 0bc8 0E        	.byte0xe
68K GAS   			page 72


 2952 0bc9 03A3      	.word0x3a3
 2953 0bcb 0000 0BAC 	.long0xbac
 2954 0bcf 1B        	.uleb128 0x1b
 2955 0bd0 14        	.byte0x14
 2956 0bd1 0E        	.byte0xe
 2957 0bd2 03A9      	.word0x3a9
 2958 0bd4 0000 0C0D 	.long0xc0d
 2959 0bd8 18        	.uleb128 0x18
 2960 0bd9 0000 0000 	.long.LASF177
 2961 0bdd 0E        	.byte0xe
 2962 0bde 03AB      	.word0x3ab
 2963 0be0 0000 09FA 	.long0x9fa
 2964 0be4 00        	.byte0
 2965 0be5 18        	.uleb128 0x18
 2966 0be6 0000 0000 	.long.LASF178
 2967 0bea 0E        	.byte0xe
 2968 0beb 03AC      	.word0x3ac
 2969 0bed 0000 09FA 	.long0x9fa
 2970 0bf1 08        	.byte0x8
 2971 0bf2 18        	.uleb128 0x18
 2972 0bf3 0000 0000 	.long.LASF179
 2973 0bf7 0E        	.byte0xe
 2974 0bf8 03AD      	.word0x3ad
 2975 0bfa 0000 003E 	.long0x3e
 2976 0bfe 10        	.byte0x10
 2977 0bff 18        	.uleb128 0x18
 2978 0c00 0000 0000 	.long.LASF180
 2979 0c04 0E        	.byte0xe
 2980 0c05 03AE      	.word0x3ae
 2981 0c07 0000 003E 	.long0x3e
 2982 0c0b 12        	.byte0x12
 2983 0c0c 00        	.byte0
 2984 0c0d 04        	.uleb128 0x4
 2985 0c0e 0000 0000 	.long.LASF181
 2986 0c12 0E        	.byte0xe
 2987 0c13 03AF      	.word0x3af
 2988 0c15 0000 0BCF 	.long0xbcf
 2989 0c19 1B        	.uleb128 0x1b
 2990 0c1a 1C        	.byte0x1c
 2991 0c1b 0E        	.byte0xe
 2992 0c1c 03B1      	.word0x3b1
 2993 0c1e 0000 0C3D 	.long0xc3d
 2994 0c22 18        	.uleb128 0x18
 2995 0c23 0000 0000 	.long.LASF173
 2996 0c27 0E        	.byte0xe
 2997 0c28 03B3      	.word0x3b3
 2998 0c2a 0000 0B46 	.long0xb46
 2999 0c2e 00        	.byte0
 3000 0c2f 18        	.uleb128 0x18
 3001 0c30 0000 0000 	.long.LASF182
 3002 0c34 0E        	.byte0xe
 3003 0c35 03B4      	.word0x3b4
 3004 0c37 0000 0C0D 	.long0xc0d
 3005 0c3b 08        	.byte0x8
 3006 0c3c 00        	.byte0
 3007 0c3d 04        	.uleb128 0x4
 3008 0c3e 0000 0000 	.long.LASF183
68K GAS   			page 73


 3009 0c42 0E        	.byte0xe
 3010 0c43 03B5      	.word0x3b5
 3011 0c45 0000 0C19 	.long0xc19
 3012 0c49 1B        	.uleb128 0x1b
 3013 0c4a 20        	.byte0x20
 3014 0c4b 0E        	.byte0xe
 3015 0c4c 03BD      	.word0x3bd
 3016 0c4e 0000 0CE2 	.long0xce2
 3017 0c52 18        	.uleb128 0x18
 3018 0c53 0000 0000 	.long.LASF184
 3019 0c57 0E        	.byte0xe
 3020 0c58 03C2      	.word0x3c2
 3021 0c5a 0000 0069 	.long0x69
 3022 0c5e 00        	.byte0
 3023 0c5f 18        	.uleb128 0x18
 3024 0c60 0000 0000 	.long.LASF185
 3025 0c64 0E        	.byte0xe
 3026 0c65 03C4      	.word0x3c4
 3027 0c67 0000 0069 	.long0x69
 3028 0c6b 01        	.byte0x1
 3029 0c6c 18        	.uleb128 0x18
 3030 0c6d 0000 0000 	.long.LASF186
 3031 0c71 0E        	.byte0xe
 3032 0c72 03CA      	.word0x3ca
 3033 0c74 0000 0074 	.long0x74
 3034 0c78 02        	.byte0x2
 3035 0c79 18        	.uleb128 0x18
 3036 0c7a 0000 0000 	.long.LASF187
 3037 0c7e 0E        	.byte0xe
 3038 0c7f 03CC      	.word0x3cc
 3039 0c81 0000 003E 	.long0x3e
 3040 0c85 04        	.byte0x4
 3041 0c86 18        	.uleb128 0x18
 3042 0c87 0000 0000 	.long.LASF188
 3043 0c8b 0E        	.byte0xe
 3044 0c8c 03D2      	.word0x3d2
 3045 0c8e 0000 003E 	.long0x3e
 3046 0c92 06        	.byte0x6
 3047 0c93 18        	.uleb128 0x18
 3048 0c94 0000 0000 	.long.LASF189
 3049 0c98 0E        	.byte0xe
 3050 0c99 03D8      	.word0x3d8
 3051 0c9b 0000 0086 	.long0x86
 3052 0c9f 08        	.byte0x8
 3053 0ca0 18        	.uleb128 0x18
 3054 0ca1 0000 0000 	.long.LASF190
 3055 0ca5 0E        	.byte0xe
 3056 0ca6 03DA      	.word0x3da
 3057 0ca8 0000 0086 	.long0x86
 3058 0cac 0C        	.byte0xc
 3059 0cad 18        	.uleb128 0x18
 3060 0cae 0000 0000 	.long.LASF191
 3061 0cb2 0E        	.byte0xe
 3062 0cb3 03DD      	.word0x3dd
 3063 0cb5 0000 0086 	.long0x86
 3064 0cb9 10        	.byte0x10
 3065 0cba 18        	.uleb128 0x18
68K GAS   			page 74


 3066 0cbb 0000 0000 	.long.LASF192
 3067 0cbf 0E        	.byte0xe
 3068 0cc0 03DF      	.word0x3df
 3069 0cc2 0000 0086 	.long0x86
 3070 0cc6 14        	.byte0x14
 3071 0cc7 18        	.uleb128 0x18
 3072 0cc8 0000 0000 	.long.LASF193
 3073 0ccc 0E        	.byte0xe
 3074 0ccd 03E6      	.word0x3e6
 3075 0ccf 0000 0086 	.long0x86
 3076 0cd3 18        	.byte0x18
 3077 0cd4 18        	.uleb128 0x18
 3078 0cd5 0000 0000 	.long.LASF194
 3079 0cd9 0E        	.byte0xe
 3080 0cda 03E8      	.word0x3e8
 3081 0cdc 0000 0086 	.long0x86
 3082 0ce0 1C        	.byte0x1c
 3083 0ce1 00        	.byte0
 3084 0ce2 04        	.uleb128 0x4
 3085 0ce3 0000 0000 	.long.LASF195
 3086 0ce7 0E        	.byte0xe
 3087 0ce8 03F6      	.word0x3f6
 3088 0cea 0000 0C49 	.long0xc49
 3089 0cee 1B        	.uleb128 0x1b
 3090 0cef 2C        	.byte0x2c
 3091 0cf0 0E        	.byte0xe
 3092 0cf1 03F8      	.word0x3f8
 3093 0cf3 0000 0D12 	.long0xd12
 3094 0cf7 18        	.uleb128 0x18
 3095 0cf8 0000 0000 	.long.LASF196
 3096 0cfc 0E        	.byte0xe
 3097 0cfd 03FA      	.word0x3fa
 3098 0cff 0000 0B56 	.long0xb56
 3099 0d03 00        	.byte0
 3100 0d04 18        	.uleb128 0x18
 3101 0d05 0000 0000 	.long.LASF182
 3102 0d09 0E        	.byte0xe
 3103 0d0a 03FB      	.word0x3fb
 3104 0d0c 0000 0CE2 	.long0xce2
 3105 0d10 0C        	.byte0xc
 3106 0d11 00        	.byte0
 3107 0d12 04        	.uleb128 0x4
 3108 0d13 0000 0000 	.long.LASF197
 3109 0d17 0E        	.byte0xe
 3110 0d18 03FC      	.word0x3fc
 3111 0d1a 0000 0CEE 	.long0xcee
 3112 0d1e 1B        	.uleb128 0x1b
 3113 0d1f C8        	.byte0xc8
 3114 0d20 0E        	.byte0xe
 3115 0d21 0404      	.word0x404
 3116 0d23 0000 0F4A 	.long0xf4a
 3117 0d27 18        	.uleb128 0x18
 3118 0d28 0000 0000 	.long.LASF177
 3119 0d2c 0E        	.byte0xe
 3120 0d2d 0409      	.word0x409
 3121 0d2f 0000 09FA 	.long0x9fa
 3122 0d33 00        	.byte0
68K GAS   			page 75


 3123 0d34 18        	.uleb128 0x18
 3124 0d35 0000 0000 	.long.LASF178
 3125 0d39 0E        	.byte0xe
 3126 0d3a 040B      	.word0x40b
 3127 0d3c 0000 09FA 	.long0x9fa
 3128 0d40 08        	.byte0x8
 3129 0d41 18        	.uleb128 0x18
 3130 0d42 0000 0000 	.long.LASF198
 3131 0d46 0E        	.byte0xe
 3132 0d47 040D      	.word0x40d
 3133 0d49 0000 09FA 	.long0x9fa
 3134 0d4d 10        	.byte0x10
 3135 0d4e 18        	.uleb128 0x18
 3136 0d4f 0000 0000 	.long.LASF199
 3137 0d53 0E        	.byte0xe
 3138 0d54 040F      	.word0x40f
 3139 0d56 0000 09FA 	.long0x9fa
 3140 0d5a 18        	.byte0x18
 3141 0d5b 18        	.uleb128 0x18
 3142 0d5c 0000 0000 	.long.LASF179
 3143 0d60 0E        	.byte0xe
 3144 0d61 0412      	.word0x412
 3145 0d63 0000 003E 	.long0x3e
 3146 0d67 20        	.byte0x20
 3147 0d68 18        	.uleb128 0x18
 3148 0d69 0000 0000 	.long.LASF187
 3149 0d6d 0E        	.byte0xe
 3150 0d6e 0414      	.word0x414
 3151 0d70 0000 003E 	.long0x3e
 3152 0d74 22        	.byte0x22
 3153 0d75 18        	.uleb128 0x18
 3154 0d76 0000 0000 	.long.LASF200
 3155 0d7a 0E        	.byte0xe
 3156 0d7b 041A      	.word0x41a
 3157 0d7d 0000 09FA 	.long0x9fa
 3158 0d81 24        	.byte0x24
 3159 0d82 18        	.uleb128 0x18
 3160 0d83 0000 0000 	.long.LASF201
 3161 0d87 0E        	.byte0xe
 3162 0d88 041C      	.word0x41c
 3163 0d8a 0000 09FA 	.long0x9fa
 3164 0d8e 2C        	.byte0x2c
 3165 0d8f 18        	.uleb128 0x18
 3166 0d90 0000 0000 	.long.LASF202
 3167 0d94 0E        	.byte0xe
 3168 0d95 041E      	.word0x41e
 3169 0d97 0000 09FA 	.long0x9fa
 3170 0d9b 34        	.byte0x34
 3171 0d9c 18        	.uleb128 0x18
 3172 0d9d 0000 0000 	.long.LASF203
 3173 0da1 0E        	.byte0xe
 3174 0da2 0420      	.word0x420
 3175 0da4 0000 09FA 	.long0x9fa
 3176 0da8 3C        	.byte0x3c
 3177 0da9 18        	.uleb128 0x18
 3178 0daa 0000 0000 	.long.LASF204
 3179 0dae 0E        	.byte0xe
68K GAS   			page 76


 3180 0daf 0422      	.word0x422
 3181 0db1 0000 09FA 	.long0x9fa
 3182 0db5 44        	.byte0x44
 3183 0db6 18        	.uleb128 0x18
 3184 0db7 0000 0000 	.long.LASF205
 3185 0dbb 0E        	.byte0xe
 3186 0dbc 0428      	.word0x428
 3187 0dbe 0000 003E 	.long0x3e
 3188 0dc2 4C        	.byte0x4c
 3189 0dc3 18        	.uleb128 0x18
 3190 0dc4 0000 0000 	.long.LASF206
 3191 0dc8 0E        	.byte0xe
 3192 0dc9 042A      	.word0x42a
 3193 0dcb 0000 003E 	.long0x3e
 3194 0dcf 4E        	.byte0x4e
 3195 0dd0 18        	.uleb128 0x18
 3196 0dd1 0000 0000 	.long.LASF207
 3197 0dd5 0E        	.byte0xe
 3198 0dd6 042C      	.word0x42c
 3199 0dd8 0000 003E 	.long0x3e
 3200 0ddc 50        	.byte0x50
 3201 0ddd 18        	.uleb128 0x18
 3202 0dde 0000 0000 	.long.LASF208
 3203 0de2 0E        	.byte0xe
 3204 0de3 042E      	.word0x42e
 3205 0de5 0000 003E 	.long0x3e
 3206 0de9 52        	.byte0x52
 3207 0dea 18        	.uleb128 0x18
 3208 0deb 0000 0000 	.long.LASF209
 3209 0def 0E        	.byte0xe
 3210 0df0 0430      	.word0x430
 3211 0df2 0000 003E 	.long0x3e
 3212 0df6 54        	.byte0x54
 3213 0df7 18        	.uleb128 0x18
 3214 0df8 0000 0000 	.long.LASF210
 3215 0dfc 0E        	.byte0xe
 3216 0dfd 0432      	.word0x432
 3217 0dff 0000 003E 	.long0x3e
 3218 0e03 56        	.byte0x56
 3219 0e04 18        	.uleb128 0x18
 3220 0e05 0000 0000 	.long.LASF186
 3221 0e09 0E        	.byte0xe
 3222 0e0a 0438      	.word0x438
 3223 0e0c 0000 0074 	.long0x74
 3224 0e10 58        	.byte0x58
 3225 0e11 18        	.uleb128 0x18
 3226 0e12 0000 0000 	.long.LASF211
 3227 0e16 0E        	.byte0xe
 3228 0e17 043E      	.word0x43e
 3229 0e19 0000 003E 	.long0x3e
 3230 0e1d 5A        	.byte0x5a
 3231 0e1e 18        	.uleb128 0x18
 3232 0e1f 0000 0000 	.long.LASF212
 3233 0e23 0E        	.byte0xe
 3234 0e24 0440      	.word0x440
 3235 0e26 0000 003E 	.long0x3e
 3236 0e2a 5C        	.byte0x5c
68K GAS   			page 77


 3237 0e2b 18        	.uleb128 0x18
 3238 0e2c 0000 0000 	.long.LASF213
 3239 0e30 0E        	.byte0xe
 3240 0e31 0442      	.word0x442
 3241 0e33 0000 003E 	.long0x3e
 3242 0e37 5E        	.byte0x5e
 3243 0e38 18        	.uleb128 0x18
 3244 0e39 0000 0000 	.long.LASF214
 3245 0e3d 0E        	.byte0xe
 3246 0e3e 0448      	.word0x448
 3247 0e40 0000 09FA 	.long0x9fa
 3248 0e44 60        	.byte0x60
 3249 0e45 18        	.uleb128 0x18
 3250 0e46 0000 0000 	.long.LASF215
 3251 0e4a 0E        	.byte0xe
 3252 0e4b 044A      	.word0x44a
 3253 0e4d 0000 09FA 	.long0x9fa
 3254 0e51 68        	.byte0x68
 3255 0e52 18        	.uleb128 0x18
 3256 0e53 0000 0000 	.long.LASF216
 3257 0e57 0E        	.byte0xe
 3258 0e58 0450      	.word0x450
 3259 0e5a 0000 09FA 	.long0x9fa
 3260 0e5e 70        	.byte0x70
 3261 0e5f 18        	.uleb128 0x18
 3262 0e60 0000 0000 	.long.LASF217
 3263 0e64 0E        	.byte0xe
 3264 0e65 0452      	.word0x452
 3265 0e67 0000 09FA 	.long0x9fa
 3266 0e6b 78        	.byte0x78
 3267 0e6c 18        	.uleb128 0x18
 3268 0e6d 0000 0000 	.long.LASF218
 3269 0e71 0E        	.byte0xe
 3270 0e72 0458      	.word0x458
 3271 0e74 0000 0086 	.long0x86
 3272 0e78 80        	.byte0x80
 3273 0e79 18        	.uleb128 0x18
 3274 0e7a 0000 0000 	.long.LASF219
 3275 0e7e 0E        	.byte0xe
 3276 0e7f 045A      	.word0x45a
 3277 0e81 0000 0086 	.long0x86
 3278 0e85 84        	.byte0x84
 3279 0e86 18        	.uleb128 0x18
 3280 0e87 0000 0000 	.long.LASF220
 3281 0e8b 0E        	.byte0xe
 3282 0e8c 045C      	.word0x45c
 3283 0e8e 0000 0086 	.long0x86
 3284 0e92 88        	.byte0x88
 3285 0e93 18        	.uleb128 0x18
 3286 0e94 0000 0000 	.long.LASF221
 3287 0e98 0E        	.byte0xe
 3288 0e99 045E      	.word0x45e
 3289 0e9b 0000 0086 	.long0x86
 3290 0e9f 8C        	.byte0x8c
 3291 0ea0 18        	.uleb128 0x18
 3292 0ea1 0000 0000 	.long.LASF222
 3293 0ea5 0E        	.byte0xe
68K GAS   			page 78


 3294 0ea6 0460      	.word0x460
 3295 0ea8 0000 0086 	.long0x86
 3296 0eac 90        	.byte0x90
 3297 0ead 18        	.uleb128 0x18
 3298 0eae 0000 0000 	.long.LASF223
 3299 0eb2 0E        	.byte0xe
 3300 0eb3 0462      	.word0x462
 3301 0eb5 0000 0086 	.long0x86
 3302 0eb9 94        	.byte0x94
 3303 0eba 18        	.uleb128 0x18
 3304 0ebb 0000 0000 	.long.LASF224
 3305 0ebf 0E        	.byte0xe
 3306 0ec0 0464      	.word0x464
 3307 0ec2 0000 0086 	.long0x86
 3308 0ec6 98        	.byte0x98
 3309 0ec7 18        	.uleb128 0x18
 3310 0ec8 0000 0000 	.long.LASF225
 3311 0ecc 0E        	.byte0xe
 3312 0ecd 0466      	.word0x466
 3313 0ecf 0000 0086 	.long0x86
 3314 0ed3 9C        	.byte0x9c
 3315 0ed4 18        	.uleb128 0x18
 3316 0ed5 0000 0000 	.long.LASF226
 3317 0ed9 0E        	.byte0xe
 3318 0eda 0468      	.word0x468
 3319 0edc 0000 0086 	.long0x86
 3320 0ee0 A0        	.byte0xa0
 3321 0ee1 18        	.uleb128 0x18
 3322 0ee2 0000 0000 	.long.LASF227
 3323 0ee6 0E        	.byte0xe
 3324 0ee7 046A      	.word0x46a
 3325 0ee9 0000 0086 	.long0x86
 3326 0eed A4        	.byte0xa4
 3327 0eee 18        	.uleb128 0x18
 3328 0eef 0000 0000 	.long.LASF228
 3329 0ef3 0E        	.byte0xe
 3330 0ef4 0470      	.word0x470
 3331 0ef6 0000 0086 	.long0x86
 3332 0efa A8        	.byte0xa8
 3333 0efb 18        	.uleb128 0x18
 3334 0efc 0000 0000 	.long.LASF229
 3335 0f00 0E        	.byte0xe
 3336 0f01 047C      	.word0x47c
 3337 0f03 0000 0086 	.long0x86
 3338 0f07 AC        	.byte0xac
 3339 0f08 18        	.uleb128 0x18
 3340 0f09 0000 0000 	.long.LASF230
 3341 0f0d 0E        	.byte0xe
 3342 0f0e 047E      	.word0x47e
 3343 0f10 0000 0086 	.long0x86
 3344 0f14 B0        	.byte0xb0
 3345 0f15 18        	.uleb128 0x18
 3346 0f16 0000 0000 	.long.LASF231
 3347 0f1a 0E        	.byte0xe
 3348 0f1b 0484      	.word0x484
 3349 0f1d 0000 09FA 	.long0x9fa
 3350 0f21 B4        	.byte0xb4
68K GAS   			page 79


 3351 0f22 18        	.uleb128 0x18
 3352 0f23 0000 0000 	.long.LASF232
 3353 0f27 0E        	.byte0xe
 3354 0f28 048A      	.word0x48a
 3355 0f2a 0000 0086 	.long0x86
 3356 0f2e BC        	.byte0xbc
 3357 0f2f 18        	.uleb128 0x18
 3358 0f30 0000 0000 	.long.LASF233
 3359 0f34 0E        	.byte0xe
 3360 0f35 048C      	.word0x48c
 3361 0f37 0000 0086 	.long0x86
 3362 0f3b C0        	.byte0xc0
 3363 0f3c 18        	.uleb128 0x18
 3364 0f3d 0000 0000 	.long.LASF234
 3365 0f41 0E        	.byte0xe
 3366 0f42 0492      	.word0x492
 3367 0f44 0000 0086 	.long0x86
 3368 0f48 C4        	.byte0xc4
 3369 0f49 00        	.byte0
 3370 0f4a 04        	.uleb128 0x4
 3371 0f4b 0000 0000 	.long.LASF235
 3372 0f4f 0E        	.byte0xe
 3373 0f50 0494      	.word0x494
 3374 0f52 0000 0D1E 	.long0xd1e
 3375 0f56 1B        	.uleb128 0x1b
 3376 0f57 D4        	.byte0xd4
 3377 0f58 0E        	.byte0xe
 3378 0f59 0496      	.word0x496
 3379 0f5b 0000 0F7A 	.long0xf7a
 3380 0f5f 18        	.uleb128 0x18
 3381 0f60 0000 0000 	.long.LASF196
 3382 0f64 0E        	.byte0xe
 3383 0f65 0498      	.word0x498
 3384 0f67 0000 0B56 	.long0xb56
 3385 0f6b 00        	.byte0
 3386 0f6c 18        	.uleb128 0x18
 3387 0f6d 0000 0000 	.long.LASF182
 3388 0f71 0E        	.byte0xe
 3389 0f72 0499      	.word0x499
 3390 0f74 0000 0F4A 	.long0xf4a
 3391 0f78 0C        	.byte0xc
 3392 0f79 00        	.byte0
 3393 0f7a 04        	.uleb128 0x4
 3394 0f7b 0000 0000 	.long.LASF236
 3395 0f7f 0E        	.byte0xe
 3396 0f80 049A      	.word0x49a
 3397 0f82 0000 0F56 	.long0xf56
 3398 0f86 10        	.uleb128 0x10
 3399 0f87 40        	.byte0x40
 3400 0f88 0F        	.byte0xf
 3401 0f89 7D        	.byte0x7d
 3402 0f8a 0000 1007 	.long0x1007
 3403 0f8e 09        	.uleb128 0x9
 3404 0f8f 0000 0000 	.long.LASF177
 3405 0f93 0F        	.byte0xf
 3406 0f94 80        	.byte0x80
 3407 0f95 0000 09FA 	.long0x9fa
68K GAS   			page 80


 3408 0f99 00        	.byte0
 3409 0f9a 09        	.uleb128 0x9
 3410 0f9b 0000 0000 	.long.LASF178
 3411 0f9f 0F        	.byte0xf
 3412 0fa0 81        	.byte0x81
 3413 0fa1 0000 09FA 	.long0x9fa
 3414 0fa5 08        	.byte0x8
 3415 0fa6 09        	.uleb128 0x9
 3416 0fa7 0000 0000 	.long.LASF179
 3417 0fab 0F        	.byte0xf
 3418 0fac 82        	.byte0x82
 3419 0fad 0000 003E 	.long0x3e
 3420 0fb1 10        	.byte0x10
 3421 0fb2 09        	.uleb128 0x9
 3422 0fb3 0000 0000 	.long.LASF205
 3423 0fb7 0F        	.byte0xf
 3424 0fb8 83        	.byte0x83
 3425 0fb9 0000 003E 	.long0x3e
 3426 0fbd 12        	.byte0x12
 3427 0fbe 09        	.uleb128 0x9
 3428 0fbf 0000 0000 	.long.LASF206
 3429 0fc3 0F        	.byte0xf
 3430 0fc4 84        	.byte0x84
 3431 0fc5 0000 003E 	.long0x3e
 3432 0fc9 14        	.byte0x14
 3433 0fca 09        	.uleb128 0x9
 3434 0fcb 0000 0000 	.long.LASF198
 3435 0fcf 0F        	.byte0xf
 3436 0fd0 85        	.byte0x85
 3437 0fd1 0000 09FA 	.long0x9fa
 3438 0fd5 18        	.byte0x18
 3439 0fd6 09        	.uleb128 0x9
 3440 0fd7 0000 0000 	.long.LASF199
 3441 0fdb 0F        	.byte0xf
 3442 0fdc 86        	.byte0x86
 3443 0fdd 0000 09FA 	.long0x9fa
 3444 0fe1 20        	.byte0x20
 3445 0fe2 09        	.uleb128 0x9
 3446 0fe3 0000 0000 	.long.LASF201
 3447 0fe7 0F        	.byte0xf
 3448 0fe8 87        	.byte0x87
 3449 0fe9 0000 09FA 	.long0x9fa
 3450 0fed 28        	.byte0x28
 3451 0fee 09        	.uleb128 0x9
 3452 0fef 0000 0000 	.long.LASF200
 3453 0ff3 0F        	.byte0xf
 3454 0ff4 88        	.byte0x88
 3455 0ff5 0000 09FA 	.long0x9fa
 3456 0ff9 30        	.byte0x30
 3457 0ffa 09        	.uleb128 0x9
 3458 0ffb 0000 0000 	.long.LASF202
 3459 0fff 0F        	.byte0xf
 3460 1000 89        	.byte0x89
 3461 1001 0000 09FA 	.long0x9fa
 3462 1005 38        	.byte0x38
 3463 1006 00        	.byte0
 3464 1007 02        	.uleb128 0x2
68K GAS   			page 81


 3465 1008 0000 0000 	.long.LASF237
 3466 100c 0F        	.byte0xf
 3467 100d 8B        	.byte0x8b
 3468 100e 0000 0F86 	.long0xf86
 3469 1012 10        	.uleb128 0x10
 3470 1013 08        	.byte0x8
 3471 1014 0F        	.byte0xf
 3472 1015 90        	.byte0x90
 3473 1016 0000 1033 	.long0x1033
 3474 101a 11        	.uleb128 0x11
 3475 101b 4170 7000 	.string"App"
 3476 101f 0F        	.byte0xf
 3477 1020 92        	.byte0x92
 3478 1021 0000 0086 	.long0x86
 3479 1025 00        	.byte0
 3480 1026 11        	.uleb128 0x11
 3481 1027 5074 7200 	.string"Ptr"
 3482 102b 0F        	.byte0xf
 3483 102c 93        	.byte0x93
 3484 102d 0000 0A5B 	.long0xa5b
 3485 1031 04        	.byte0x4
 3486 1032 00        	.byte0
 3487 1033 02        	.uleb128 0x2
 3488 1034 0000 0000 	.long.LASF238
 3489 1038 0F        	.byte0xf
 3490 1039 94        	.byte0x94
 3491 103a 0000 1012 	.long0x1012
 3492 103e 26        	.uleb128 0x26
 3493 103f 0248      	.word0x248
 3494 1041 0F        	.byte0xf
 3495 1042 9B        	.byte0x9b
 3496 1043 0000 137B 	.long0x137b
 3497 1047 09        	.uleb128 0x9
 3498 1048 0000 0000 	.long.LASF184
 3499 104c 0F        	.byte0xf
 3500 104d A0        	.byte0xa0
 3501 104e 0000 0069 	.long0x69
 3502 1052 00        	.byte0
 3503 1053 09        	.uleb128 0x9
 3504 1054 0000 0000 	.long.LASF185
 3505 1058 0F        	.byte0xf
 3506 1059 A1        	.byte0xa1
 3507 105a 0000 0069 	.long0x69
 3508 105e 01        	.byte0x1
 3509 105f 09        	.uleb128 0x9
 3510 1060 0000 0000 	.long.LASF239
 3511 1064 0F        	.byte0xf
 3512 1065 A6        	.byte0xa6
 3513 1066 0000 0D12 	.long0xd12
 3514 106a 04        	.byte0x4
 3515 106b 09        	.uleb128 0x9
 3516 106c 0000 0000 	.long.LASF240
 3517 1070 0F        	.byte0xf
 3518 1071 A7        	.byte0xa7
 3519 1072 0000 0F7A 	.long0xf7a
 3520 1076 30        	.byte0x30
 3521 1077 13        	.uleb128 0x13
68K GAS   			page 82


 3522 1078 0000 0000 	.long.LASF241
 3523 107c 0F        	.byte0xf
 3524 107d AC        	.byte0xac
 3525 107e 0000 0AFE 	.long0xafe
 3526 1082 0104      	.word0x104
 3527 1084 13        	.uleb128 0x13
 3528 1085 0000 0000 	.long.LASF242
 3529 1089 0F        	.byte0xf
 3530 108a AD        	.byte0xad
 3531 108b 0000 0AF3 	.long0xaf3
 3532 108f 0108      	.word0x108
 3533 1091 13        	.uleb128 0x13
 3534 1092 0000 0000 	.long.LASF243
 3535 1096 0F        	.byte0xf
 3536 1097 B2        	.byte0xb2
 3537 1098 0000 137B 	.long0x137b
 3538 109c 0109      	.word0x109
 3539 109e 13        	.uleb128 0x13
 3540 109f 0000 0000 	.long.LASF244
 3541 10a3 0F        	.byte0xf
 3542 10a4 B3        	.byte0xb3
 3543 10a5 0000 0074 	.long0x74
 3544 10a9 011A      	.word0x11a
 3545 10ab 13        	.uleb128 0x13
 3546 10ac 0000 0000 	.long.LASF177
 3547 10b0 0F        	.byte0xf
 3548 10b1 B8        	.byte0xb8
 3549 10b2 0000 09FA 	.long0x9fa
 3550 10b6 011C      	.word0x11c
 3551 10b8 13        	.uleb128 0x13
 3552 10b9 0000 0000 	.long.LASF178
 3553 10bd 0F        	.byte0xf
 3554 10be B9        	.byte0xb9
 3555 10bf 0000 09FA 	.long0x9fa
 3556 10c3 0124      	.word0x124
 3557 10c5 13        	.uleb128 0x13
 3558 10c6 0000 0000 	.long.LASF179
 3559 10ca 0F        	.byte0xf
 3560 10cb BA        	.byte0xba
 3561 10cc 0000 003E 	.long0x3e
 3562 10d0 012C      	.word0x12c
 3563 10d2 13        	.uleb128 0x13
 3564 10d3 0000 0000 	.long.LASF198
 3565 10d7 0F        	.byte0xf
 3566 10d8 BB        	.byte0xbb
 3567 10d9 0000 09FA 	.long0x9fa
 3568 10dd 0130      	.word0x130
 3569 10df 13        	.uleb128 0x13
 3570 10e0 0000 0000 	.long.LASF199
 3571 10e4 0F        	.byte0xf
 3572 10e5 BC        	.byte0xbc
 3573 10e6 0000 09FA 	.long0x9fa
 3574 10ea 0138      	.word0x138
 3575 10ec 13        	.uleb128 0x13
 3576 10ed 0000 0000 	.long.LASF205
 3577 10f1 0F        	.byte0xf
 3578 10f2 C0        	.byte0xc0
68K GAS   			page 83


 3579 10f3 0000 003E 	.long0x3e
 3580 10f7 0140      	.word0x140
 3581 10f9 13        	.uleb128 0x13
 3582 10fa 0000 0000 	.long.LASF206
 3583 10fe 0F        	.byte0xf
 3584 10ff C1        	.byte0xc1
 3585 1100 0000 003E 	.long0x3e
 3586 1104 0142      	.word0x142
 3587 1106 13        	.uleb128 0x13
 3588 1107 0000 0000 	.long.LASF207
 3589 110b 0F        	.byte0xf
 3590 110c C2        	.byte0xc2
 3591 110d 0000 003E 	.long0x3e
 3592 1111 0144      	.word0x144
 3593 1113 13        	.uleb128 0x13
 3594 1114 0000 0000 	.long.LASF208
 3595 1118 0F        	.byte0xf
 3596 1119 C3        	.byte0xc3
 3597 111a 0000 003E 	.long0x3e
 3598 111e 0146      	.word0x146
 3599 1120 13        	.uleb128 0x13
 3600 1121 0000 0000 	.long.LASF209
 3601 1125 0F        	.byte0xf
 3602 1126 C4        	.byte0xc4
 3603 1127 0000 003E 	.long0x3e
 3604 112b 0148      	.word0x148
 3605 112d 13        	.uleb128 0x13
 3606 112e 0000 0000 	.long.LASF245
 3607 1132 0F        	.byte0xf
 3608 1133 C9        	.byte0xc9
 3609 1134 0000 09FA 	.long0x9fa
 3610 1138 014C      	.word0x14c
 3611 113a 13        	.uleb128 0x13
 3612 113b 0000 0000 	.long.LASF246
 3613 113f 0F        	.byte0xf
 3614 1140 CA        	.byte0xca
 3615 1141 0000 09FA 	.long0x9fa
 3616 1145 0154      	.word0x154
 3617 1147 13        	.uleb128 0x13
 3618 1148 0000 0000 	.long.LASF247
 3619 114c 0F        	.byte0xf
 3620 114d CB        	.byte0xcb
 3621 114e 0000 003E 	.long0x3e
 3622 1152 015C      	.word0x15c
 3623 1154 13        	.uleb128 0x13
 3624 1155 0000 0000 	.long.LASF248
 3625 1159 0F        	.byte0xf
 3626 115a CC        	.byte0xcc
 3627 115b 0000 003E 	.long0x3e
 3628 115f 015E      	.word0x15e
 3629 1161 13        	.uleb128 0x13
 3630 1162 0000 0000 	.long.LASF214
 3631 1166 0F        	.byte0xf
 3632 1167 D1        	.byte0xd1
 3633 1168 0000 09FA 	.long0x9fa
 3634 116c 0160      	.word0x160
 3635 116e 13        	.uleb128 0x13
68K GAS   			page 84


 3636 116f 0000 0000 	.long.LASF215
 3637 1173 0F        	.byte0xf
 3638 1174 D2        	.byte0xd2
 3639 1175 0000 09FA 	.long0x9fa
 3640 1179 0168      	.word0x168
 3641 117b 13        	.uleb128 0x13
 3642 117c 0000 0000 	.long.LASF211
 3643 1180 0F        	.byte0xf
 3644 1181 D4        	.byte0xd4
 3645 1182 0000 003E 	.long0x3e
 3646 1186 0170      	.word0x170
 3647 1188 13        	.uleb128 0x13
 3648 1189 0000 0000 	.long.LASF212
 3649 118d 0F        	.byte0xf
 3650 118e D5        	.byte0xd5
 3651 118f 0000 003E 	.long0x3e
 3652 1193 0172      	.word0x172
 3653 1195 13        	.uleb128 0x13
 3654 1196 0000 0000 	.long.LASF213
 3655 119a 0F        	.byte0xf
 3656 119b D6        	.byte0xd6
 3657 119c 0000 003E 	.long0x3e
 3658 11a0 0174      	.word0x174
 3659 11a2 13        	.uleb128 0x13
 3660 11a3 0000 0000 	.long.LASF216
 3661 11a7 0F        	.byte0xf
 3662 11a8 DB        	.byte0xdb
 3663 11a9 0000 09FA 	.long0x9fa
 3664 11ad 0178      	.word0x178
 3665 11af 13        	.uleb128 0x13
 3666 11b0 0000 0000 	.long.LASF217
 3667 11b4 0F        	.byte0xf
 3668 11b5 DC        	.byte0xdc
 3669 11b6 0000 09FA 	.long0x9fa
 3670 11ba 0180      	.word0x180
 3671 11bc 13        	.uleb128 0x13
 3672 11bd 0000 0000 	.long.LASF218
 3673 11c1 0F        	.byte0xf
 3674 11c2 E1        	.byte0xe1
 3675 11c3 0000 0086 	.long0x86
 3676 11c7 0188      	.word0x188
 3677 11c9 13        	.uleb128 0x13
 3678 11ca 0000 0000 	.long.LASF219
 3679 11ce 0F        	.byte0xf
 3680 11cf E2        	.byte0xe2
 3681 11d0 0000 0086 	.long0x86
 3682 11d4 018C      	.word0x18c
 3683 11d6 13        	.uleb128 0x13
 3684 11d7 0000 0000 	.long.LASF220
 3685 11db 0F        	.byte0xf
 3686 11dc E3        	.byte0xe3
 3687 11dd 0000 0086 	.long0x86
 3688 11e1 0190      	.word0x190
 3689 11e3 13        	.uleb128 0x13
 3690 11e4 0000 0000 	.long.LASF221
 3691 11e8 0F        	.byte0xf
 3692 11e9 E4        	.byte0xe4
68K GAS   			page 85


 3693 11ea 0000 0086 	.long0x86
 3694 11ee 0194      	.word0x194
 3695 11f0 13        	.uleb128 0x13
 3696 11f1 0000 0000 	.long.LASF222
 3697 11f5 0F        	.byte0xf
 3698 11f6 E5        	.byte0xe5
 3699 11f7 0000 0086 	.long0x86
 3700 11fb 0198      	.word0x198
 3701 11fd 13        	.uleb128 0x13
 3702 11fe 0000 0000 	.long.LASF223
 3703 1202 0F        	.byte0xf
 3704 1203 E6        	.byte0xe6
 3705 1204 0000 0086 	.long0x86
 3706 1208 019C      	.word0x19c
 3707 120a 13        	.uleb128 0x13
 3708 120b 0000 0000 	.long.LASF224
 3709 120f 0F        	.byte0xf
 3710 1210 E7        	.byte0xe7
 3711 1211 0000 0086 	.long0x86
 3712 1215 01A0      	.word0x1a0
 3713 1217 13        	.uleb128 0x13
 3714 1218 0000 0000 	.long.LASF228
 3715 121c 0F        	.byte0xf
 3716 121d E8        	.byte0xe8
 3717 121e 0000 0086 	.long0x86
 3718 1222 01A4      	.word0x1a4
 3719 1224 13        	.uleb128 0x13
 3720 1225 0000 0000 	.long.LASF225
 3721 1229 0F        	.byte0xf
 3722 122a E9        	.byte0xe9
 3723 122b 0000 0086 	.long0x86
 3724 122f 01A8      	.word0x1a8
 3725 1231 13        	.uleb128 0x13
 3726 1232 0000 0000 	.long.LASF226
 3727 1236 0F        	.byte0xf
 3728 1237 EA        	.byte0xea
 3729 1238 0000 0086 	.long0x86
 3730 123c 01AC      	.word0x1ac
 3731 123e 13        	.uleb128 0x13
 3732 123f 0000 0000 	.long.LASF227
 3733 1243 0F        	.byte0xf
 3734 1244 EB        	.byte0xeb
 3735 1245 0000 0086 	.long0x86
 3736 1249 01B0      	.word0x1b0
 3737 124b 13        	.uleb128 0x13
 3738 124c 0000 0000 	.long.LASF249
 3739 1250 0F        	.byte0xf
 3740 1251 EC        	.byte0xec
 3741 1252 0000 0086 	.long0x86
 3742 1256 01B4      	.word0x1b4
 3743 1258 13        	.uleb128 0x13
 3744 1259 0000 0000 	.long.LASF250
 3745 125d 0F        	.byte0xf
 3746 125e ED        	.byte0xed
 3747 125f 0000 0086 	.long0x86
 3748 1263 01B8      	.word0x1b8
 3749 1265 13        	.uleb128 0x13
68K GAS   			page 86


 3750 1266 0000 0000 	.long.LASF229
 3751 126a 0F        	.byte0xf
 3752 126b F8        	.byte0xf8
 3753 126c 0000 0086 	.long0x86
 3754 1270 01BC      	.word0x1bc
 3755 1272 13        	.uleb128 0x13
 3756 1273 0000 0000 	.long.LASF230
 3757 1277 0F        	.byte0xf
 3758 1278 F9        	.byte0xf9
 3759 1279 0000 0086 	.long0x86
 3760 127d 01C0      	.word0x1c0
 3761 127f 13        	.uleb128 0x13
 3762 1280 0000 0000 	.long.LASF231
 3763 1284 0F        	.byte0xf
 3764 1285 FE        	.byte0xfe
 3765 1286 0000 09FA 	.long0x9fa
 3766 128a 01C4      	.word0x1c4
 3767 128c 19        	.uleb128 0x19
 3768 128d 0000 0000 	.long.LASF210
 3769 1291 0F        	.byte0xf
 3770 1292 0103      	.word0x103
 3771 1294 0000 009F 	.long0x9f
 3772 1298 01CC      	.word0x1cc
 3773 129a 19        	.uleb128 0x19
 3774 129b 0000 0000 	.long.LASF251
 3775 129f 0F        	.byte0xf
 3776 12a0 010A      	.word0x10a
 3777 12a2 0000 009F 	.long0x9f
 3778 12a6 01CD      	.word0x1cd
 3779 12a8 19        	.uleb128 0x19
 3780 12a9 0000 0000 	.long.LASF252
 3781 12ad 0F        	.byte0xf
 3782 12ae 010B      	.word0x10b
 3783 12b0 0000 009F 	.long0x9f
 3784 12b4 01CE      	.word0x1ce
 3785 12b6 19        	.uleb128 0x19
 3786 12b7 0000 0000 	.long.LASF253
 3787 12bb 0F        	.byte0xf
 3788 12bc 0110      	.word0x110
 3789 12be 0000 009F 	.long0x9f
 3790 12c2 01CF      	.word0x1cf
 3791 12c4 19        	.uleb128 0x19
 3792 12c5 0000 0000 	.long.LASF254
 3793 12c9 0F        	.byte0xf
 3794 12ca 0116      	.word0x116
 3795 12cc 0000 0B7D 	.long0xb7d
 3796 12d0 01D0      	.word0x1d0
 3797 12d2 19        	.uleb128 0x19
 3798 12d3 0000 0000 	.long.LASF255
 3799 12d7 0F        	.byte0xf
 3800 12d8 011C      	.word0x11c
 3801 12da 0000 0BC3 	.long0xbc3
 3802 12de 01D8      	.word0x1d8
 3803 12e0 19        	.uleb128 0x19
 3804 12e1 0000 0000 	.long.LASF256
 3805 12e5 0F        	.byte0xf
 3806 12e6 011D      	.word0x11d
68K GAS   			page 87


 3807 12e8 0000 0C3D 	.long0xc3d
 3808 12ec 01E0      	.word0x1e0
 3809 12ee 19        	.uleb128 0x19
 3810 12ef 0000 0000 	.long.LASF257
 3811 12f3 0F        	.byte0xf
 3812 12f4 011E      	.word0x11e
 3813 12f6 0000 0BA0 	.long0xba0
 3814 12fa 01FC      	.word0x1fc
 3815 12fc 19        	.uleb128 0x19
 3816 12fd 0000 0000 	.long.LASF258
 3817 1301 0F        	.byte0xf
 3818 1302 0123      	.word0x123
 3819 1304 0000 0086 	.long0x86
 3820 1308 0204      	.word0x204
 3821 130a 19        	.uleb128 0x19
 3822 130b 0000 0000 	.long.LASF259
 3823 130f 0F        	.byte0xf
 3824 1310 0124      	.word0x124
 3825 1312 0000 0086 	.long0x86
 3826 1316 0208      	.word0x208
 3827 1318 19        	.uleb128 0x19
 3828 1319 0000 0000 	.long.LASF260
 3829 131d 0F        	.byte0xf
 3830 131e 0128      	.word0x128
 3831 1320 0000 0086 	.long0x86
 3832 1324 020C      	.word0x20c
 3833 1326 19        	.uleb128 0x19
 3834 1327 0000 0000 	.long.LASF261
 3835 132b 0F        	.byte0xf
 3836 132c 0129      	.word0x129
 3837 132e 0000 0086 	.long0x86
 3838 1332 0210      	.word0x210
 3839 1334 19        	.uleb128 0x19
 3840 1335 0000 0000 	.long.LASF262
 3841 1339 0F        	.byte0xf
 3842 133a 012F      	.word0x12f
 3843 133c 0000 09FA 	.long0x9fa
 3844 1340 0214      	.word0x214
 3845 1342 19        	.uleb128 0x19
 3846 1343 0000 0000 	.long.LASF232
 3847 1347 0F        	.byte0xf
 3848 1348 0134      	.word0x134
 3849 134a 0000 0086 	.long0x86
 3850 134e 021C      	.word0x21c
 3851 1350 19        	.uleb128 0x19
 3852 1351 0000 0000 	.long.LASF233
 3853 1355 0F        	.byte0xf
 3854 1356 0135      	.word0x135
 3855 1358 0000 0086 	.long0x86
 3856 135c 0220      	.word0x220
 3857 135e 19        	.uleb128 0x19
 3858 135f 0000 0000 	.long.LASF234
 3859 1363 0F        	.byte0xf
 3860 1364 013A      	.word0x13a
 3861 1366 0000 0086 	.long0x86
 3862 136a 0224      	.word0x224
 3863 136c 19        	.uleb128 0x19
68K GAS   			page 88


 3864 136d 0000 0000 	.long.LASF263
 3865 1371 0F        	.byte0xf
 3866 1372 013F      	.word0x13f
 3867 1374 0000 138B 	.long0x138b
 3868 1378 0228      	.word0x228
 3869 137a 00        	.byte0
 3870 137b 0E        	.uleb128 0xe
 3871 137c 0000 00AB 	.long0xab
 3872 1380 0000 138B 	.long0x138b
 3873 1384 0F        	.uleb128 0xf
 3874 1385 0000 0091 	.long0x91
 3875 1389 0F        	.byte0xf
 3876 138a 00        	.byte0
 3877 138b 0E        	.uleb128 0xe
 3878 138c 0000 1033 	.long0x1033
 3879 1390 0000 139B 	.long0x139b
 3880 1394 0F        	.uleb128 0xf
 3881 1395 0000 0091 	.long0x91
 3882 1399 03        	.byte0x3
 3883 139a 00        	.byte0
 3884 139b 04        	.uleb128 0x4
 3885 139c 0000 0000 	.long.LASF264
 3886 13a0 0F        	.byte0xf
 3887 13a1 0141      	.word0x141
 3888 13a3 0000 103E 	.long0x103e
 3889 13a7 1F        	.uleb128 0x1f
 3890 13a8 0000 0000 	.long.LASF265
 3891 13ac 0F        	.byte0xf
 3892 13ad 0146      	.word0x146
 3893 13af 0000 139B 	.long0x139b
 3894 13b3 27        	.uleb128 0x27
 3895 13b4 0000 0000 	.long.LASF268
 3896 13b8 01        	.byte0x1
 3897 13b9 03C2      	.word0x3c2
 3898 13bb 0000 0050 	.long0x50
 3899 13bf 0000 0000 	.long.LFB80
 3900 13c3 0000 00AA 	.long.LFE80-.LFB80
 3901 13c7 01        	.uleb128 0x1
 3902 13c8 9C        	.byte0x9c
 3903 13c9 0000 1408 	.long0x1408
 3904 13cd 28        	.uleb128 0x28
 3905 13ce 0000 0000 	.long.LASF270
 3906 13d2 01        	.byte0x1
 3907 13d3 03C2      	.word0x3c2
 3908 13d5 0000 0A5B 	.long0xa5b
 3909 13d9 02        	.uleb128 0x2
 3910 13da 91        	.byte0x91
 3911 13db 00        	.sleb128 0
 3912 13dc 29        	.uleb128 0x29
 3913 13dd 0000 0000 	.long.LASF266
 3914 13e1 01        	.byte0x1
 3915 13e2 03C4      	.word0x3c4
 3916 13e4 0000 0050 	.long0x50
 3917 13e8 02        	.uleb128 0x2
 3918 13e9 91        	.byte0x91
 3919 13ea 78        	.sleb128 -8
 3920 13eb 2A        	.uleb128 0x2a
68K GAS   			page 89


 3921 13ec 6900      	.string"i"
 3922 13ee 01        	.byte0x1
 3923 13ef 03C5      	.word0x3c5
 3924 13f1 0000 0086 	.long0x86
 3925 13f5 02        	.uleb128 0x2
 3926 13f6 91        	.byte0x91
 3927 13f7 74        	.sleb128 -12
 3928 13f8 29        	.uleb128 0x29
 3929 13f9 0000 0000 	.long.LASF267
 3930 13fd 01        	.byte0x1
 3931 13fe 03C6      	.word0x3c6
 3932 1400 0000 0086 	.long0x86
 3933 1404 02        	.uleb128 0x2
 3934 1405 91        	.byte0x91
 3935 1406 70        	.sleb128 -16
 3936 1407 00        	.byte0
 3937 1408 27        	.uleb128 0x27
 3938 1409 0000 0000 	.long.LASF269
 3939 140d 01        	.byte0x1
 3940 140e 03A1      	.word0x3a1
 3941 1410 0000 0050 	.long0x50
 3942 1414 0000 0000 	.long.LFB79
 3943 1418 0000 0074 	.long.LFE79-.LFB79
 3944 141c 01        	.uleb128 0x1
 3945 141d 9C        	.byte0x9c
 3946 141e 0000 144E 	.long0x144e
 3947 1422 28        	.uleb128 0x28
 3948 1423 0000 0000 	.long.LASF270
 3949 1427 01        	.byte0x1
 3950 1428 03A1      	.word0x3a1
 3951 142a 0000 0A5B 	.long0xa5b
 3952 142e 02        	.uleb128 0x2
 3953 142f 91        	.byte0x91
 3954 1430 00        	.sleb128 0
 3955 1431 29        	.uleb128 0x29
 3956 1432 0000 0000 	.long.LASF266
 3957 1436 01        	.byte0x1
 3958 1437 03A3      	.word0x3a3
 3959 1439 0000 0050 	.long0x50
 3960 143d 02        	.uleb128 0x2
 3961 143e 91        	.byte0x91
 3962 143f 78        	.sleb128 -8
 3963 1440 2A        	.uleb128 0x2a
 3964 1441 6900      	.string"i"
 3965 1443 01        	.byte0x1
 3966 1444 03A4      	.word0x3a4
 3967 1446 0000 0086 	.long0x86
 3968 144a 02        	.uleb128 0x2
 3969 144b 91        	.byte0x91
 3970 144c 74        	.sleb128 -12
 3971 144d 00        	.byte0
 3972 144e 2B        	.uleb128 0x2b
 3973 144f 0000 0000 	.long.LASF321
 3974 1453 01        	.byte0x1
 3975 1454 038F      	.word0x38f
 3976 1456 0000 0000 	.long.LFB78
 3977 145a 0000 000A 	.long.LFE78-.LFB78
68K GAS   			page 90


 3978 145e 01        	.uleb128 0x1
 3979 145f 9C        	.byte0x9c
 3980 1460 2C        	.uleb128 0x2c
 3981 1461 0000 0000 	.long.LASF315
 3982 1465 01        	.byte0x1
 3983 1466 0303      	.word0x303
 3984 1468 0000 0000 	.long.LFB77
 3985 146c 0000 04C6 	.long.LFE77-.LFB77
 3986 1470 01        	.uleb128 0x1
 3987 1471 9C        	.byte0x9c
 3988 1472 0000 150D 	.long0x150d
 3989 1476 28        	.uleb128 0x28
 3990 1477 0000 0000 	.long.LASF271
 3991 147b 01        	.byte0x1
 3992 147c 0303      	.word0x303
 3993 147e 0000 0652 	.long0x652
 3994 1482 02        	.uleb128 0x2
 3995 1483 91        	.byte0x91
 3996 1484 00        	.sleb128 0
 3997 1485 28        	.uleb128 0x28
 3998 1486 0000 0000 	.long.LASF272
 3999 148a 01        	.byte0x1
 4000 148b 0303      	.word0x303
 4001 148d 0000 09FA 	.long0x9fa
 4002 1491 02        	.uleb128 0x2
 4003 1492 91        	.byte0x91
 4004 1493 04        	.sleb128 4
 4005 1494 29        	.uleb128 0x29
 4006 1495 0000 0000 	.long.LASF273
 4007 1499 01        	.byte0x1
 4008 149a 0305      	.word0x305
 4009 149c 0000 0086 	.long0x86
 4010 14a0 02        	.uleb128 0x2
 4011 14a1 91        	.byte0x91
 4012 14a2 78        	.sleb128 -8
 4013 14a3 29        	.uleb128 0x29
 4014 14a4 0000 0000 	.long.LASF274
 4015 14a8 01        	.byte0x1
 4016 14a9 0306      	.word0x306
 4017 14ab 0000 0086 	.long0x86
 4018 14af 02        	.uleb128 0x2
 4019 14b0 91        	.byte0x91
 4020 14b1 74        	.sleb128 -12
 4021 14b2 29        	.uleb128 0x29
 4022 14b3 0000 0000 	.long.LASF275
 4023 14b7 01        	.byte0x1
 4024 14b8 0307      	.word0x307
 4025 14ba 0000 0086 	.long0x86
 4026 14be 02        	.uleb128 0x2
 4027 14bf 91        	.byte0x91
 4028 14c0 60        	.sleb128 -32
 4029 14c1 29        	.uleb128 0x29
 4030 14c2 0000 0000 	.long.LASF276
 4031 14c6 01        	.byte0x1
 4032 14c7 0308      	.word0x308
 4033 14c9 0000 0086 	.long0x86
 4034 14cd 02        	.uleb128 0x2
68K GAS   			page 91


 4035 14ce 91        	.byte0x91
 4036 14cf 70        	.sleb128 -16
 4037 14d0 29        	.uleb128 0x29
 4038 14d1 0000 0000 	.long.LASF277
 4039 14d5 01        	.byte0x1
 4040 14d6 0309      	.word0x309
 4041 14d8 0000 0086 	.long0x86
 4042 14dc 02        	.uleb128 0x2
 4043 14dd 91        	.byte0x91
 4044 14de 6C        	.sleb128 -20
 4045 14df 29        	.uleb128 0x29
 4046 14e0 0000 0000 	.long.LASF278
 4047 14e4 01        	.byte0x1
 4048 14e5 030A      	.word0x30a
 4049 14e7 0000 0086 	.long0x86
 4050 14eb 02        	.uleb128 0x2
 4051 14ec 91        	.byte0x91
 4052 14ed 5C        	.sleb128 -36
 4053 14ee 29        	.uleb128 0x29
 4054 14ef 0000 0000 	.long.LASF279
 4055 14f3 01        	.byte0x1
 4056 14f4 030B      	.word0x30b
 4057 14f6 0000 0086 	.long0x86
 4058 14fa 02        	.uleb128 0x2
 4059 14fb 91        	.byte0x91
 4060 14fc 68        	.sleb128 -24
 4061 14fd 29        	.uleb128 0x29
 4062 14fe 0000 0000 	.long.LASF280
 4063 1502 01        	.byte0x1
 4064 1503 030D      	.word0x30d
 4065 1505 0000 009F 	.long0x9f
 4066 1509 02        	.uleb128 0x2
 4067 150a 91        	.byte0x91
 4068 150b 67        	.sleb128 -25
 4069 150c 00        	.byte0
 4070 150d 2D        	.uleb128 0x2d
 4071 150e 0000 0000 	.long.LASF281
 4072 1512 01        	.byte0x1
 4073 1513 02D8      	.word0x2d8
 4074 1515 0000 0086 	.long0x86
 4075 1519 0000 0000 	.long.LFB76
 4076 151d 0000 0028 	.long.LFE76-.LFB76
 4077 1521 01        	.uleb128 0x1
 4078 1522 9C        	.byte0x9c
 4079 1523 0000 1555 	.long0x1555
 4080 1527 28        	.uleb128 0x28
 4081 1528 0000 0000 	.long.LASF282
 4082 152c 01        	.byte0x1
 4083 152d 02D8      	.word0x2d8
 4084 152f 0000 0086 	.long0x86
 4085 1533 02        	.uleb128 0x2
 4086 1534 91        	.byte0x91
 4087 1535 00        	.sleb128 0
 4088 1536 29        	.uleb128 0x29
 4089 1537 0000 0000 	.long.LASF283
 4090 153b 01        	.byte0x1
 4091 153c 02DD      	.word0x2dd
68K GAS   			page 92


 4092 153e 0000 0050 	.long0x50
 4093 1542 02        	.uleb128 0x2
 4094 1543 91        	.byte0x91
 4095 1544 74        	.sleb128 -12
 4096 1545 29        	.uleb128 0x29
 4097 1546 0000 0000 	.long.LASF284
 4098 154a 01        	.byte0x1
 4099 154b 02E2      	.word0x2e2
 4100 154d 0000 0086 	.long0x86
 4101 1551 02        	.uleb128 0x2
 4102 1552 91        	.byte0x91
 4103 1553 78        	.sleb128 -8
 4104 1554 00        	.byte0
 4105 1555 2D        	.uleb128 0x2d
 4106 1556 0000 0000 	.long.LASF285
 4107 155a 01        	.byte0x1
 4108 155b 02B6      	.word0x2b6
 4109 155d 0000 0086 	.long0x86
 4110 1561 0000 0000 	.long.LFB75
 4111 1565 0000 002E 	.long.LFE75-.LFB75
 4112 1569 01        	.uleb128 0x1
 4113 156a 9C        	.byte0x9c
 4114 156b 0000 159D 	.long0x159d
 4115 156f 28        	.uleb128 0x28
 4116 1570 0000 0000 	.long.LASF284
 4117 1574 01        	.byte0x1
 4118 1575 02B6      	.word0x2b6
 4119 1577 0000 0086 	.long0x86
 4120 157b 02        	.uleb128 0x2
 4121 157c 91        	.byte0x91
 4122 157d 00        	.sleb128 0
 4123 157e 29        	.uleb128 0x29
 4124 157f 0000 0000 	.long.LASF283
 4125 1583 01        	.byte0x1
 4126 1584 02BB      	.word0x2bb
 4127 1586 0000 0050 	.long0x50
 4128 158a 02        	.uleb128 0x2
 4129 158b 91        	.byte0x91
 4130 158c 74        	.sleb128 -12
 4131 158d 29        	.uleb128 0x29
 4132 158e 0000 0000 	.long.LASF282
 4133 1592 01        	.byte0x1
 4134 1593 02C0      	.word0x2c0
 4135 1595 0000 0086 	.long0x86
 4136 1599 02        	.uleb128 0x2
 4137 159a 91        	.byte0x91
 4138 159b 78        	.sleb128 -8
 4139 159c 00        	.byte0
 4140 159d 2D        	.uleb128 0x2d
 4141 159e 0000 0000 	.long.LASF286
 4142 15a2 01        	.byte0x1
 4143 15a3 027A      	.word0x27a
 4144 15a5 0000 0086 	.long0x86
 4145 15a9 0000 0000 	.long.LFB74
 4146 15ad 0000 0062 	.long.LFE74-.LFB74
 4147 15b1 01        	.uleb128 0x1
 4148 15b2 9C        	.byte0x9c
68K GAS   			page 93


 4149 15b3 0000 15D6 	.long0x15d6
 4150 15b7 28        	.uleb128 0x28
 4151 15b8 0000 0000 	.long.LASF287
 4152 15bc 01        	.byte0x1
 4153 15bd 027A      	.word0x27a
 4154 15bf 0000 0086 	.long0x86
 4155 15c3 02        	.uleb128 0x2
 4156 15c4 91        	.byte0x91
 4157 15c5 00        	.sleb128 0
 4158 15c6 29        	.uleb128 0x29
 4159 15c7 0000 0000 	.long.LASF288
 4160 15cb 01        	.byte0x1
 4161 15cc 027C      	.word0x27c
 4162 15ce 0000 0086 	.long0x86
 4163 15d2 02        	.uleb128 0x2
 4164 15d3 91        	.byte0x91
 4165 15d4 78        	.sleb128 -8
 4166 15d5 00        	.byte0
 4167 15d6 2D        	.uleb128 0x2d
 4168 15d7 0000 0000 	.long.LASF289
 4169 15db 01        	.byte0x1
 4170 15dc 023B      	.word0x23b
 4171 15de 0000 0086 	.long0x86
 4172 15e2 0000 0000 	.long.LFB73
 4173 15e6 0000 0052 	.long.LFE73-.LFB73
 4174 15ea 01        	.uleb128 0x1
 4175 15eb 9C        	.byte0x9c
 4176 15ec 0000 160F 	.long0x160f
 4177 15f0 28        	.uleb128 0x28
 4178 15f1 0000 0000 	.long.LASF288
 4179 15f5 01        	.byte0x1
 4180 15f6 023B      	.word0x23b
 4181 15f8 0000 0086 	.long0x86
 4182 15fc 02        	.uleb128 0x2
 4183 15fd 91        	.byte0x91
 4184 15fe 00        	.sleb128 0
 4185 15ff 29        	.uleb128 0x29
 4186 1600 0000 0000 	.long.LASF287
 4187 1604 01        	.byte0x1
 4188 1605 023D      	.word0x23d
 4189 1607 0000 0086 	.long0x86
 4190 160b 02        	.uleb128 0x2
 4191 160c 91        	.byte0x91
 4192 160d 78        	.sleb128 -8
 4193 160e 00        	.byte0
 4194 160f 2D        	.uleb128 0x2d
 4195 1610 0000 0000 	.long.LASF290
 4196 1614 01        	.byte0x1
 4197 1615 01FD      	.word0x1fd
 4198 1617 0000 0A50 	.long0xa50
 4199 161b 0000 0000 	.long.LFB72
 4200 161f 0000 009E 	.long.LFE72-.LFB72
 4201 1623 01        	.uleb128 0x1
 4202 1624 9C        	.byte0x9c
 4203 1625 0000 1657 	.long0x1657
 4204 1629 28        	.uleb128 0x28
 4205 162a 0000 0000 	.long.LASF291
68K GAS   			page 94


 4206 162e 01        	.byte0x1
 4207 162f 01FD      	.word0x1fd
 4208 1631 0000 09FA 	.long0x9fa
 4209 1635 02        	.uleb128 0x2
 4210 1636 91        	.byte0x91
 4211 1637 00        	.sleb128 0
 4212 1638 28        	.uleb128 0x28
 4213 1639 0000 0000 	.long.LASF292
 4214 163d 01        	.byte0x1
 4215 163e 01FD      	.word0x1fd
 4216 1640 0000 09FA 	.long0x9fa
 4217 1644 02        	.uleb128 0x2
 4218 1645 91        	.byte0x91
 4219 1646 08        	.sleb128 8
 4220 1647 29        	.uleb128 0x29
 4221 1648 0000 0000 	.long.LASF293
 4222 164c 01        	.byte0x1
 4223 164d 01FF      	.word0x1ff
 4224 164f 0000 0A50 	.long0xa50
 4225 1653 02        	.uleb128 0x2
 4226 1654 91        	.byte0x91
 4227 1655 78        	.sleb128 -8
 4228 1656 00        	.byte0
 4229 1657 2D        	.uleb128 0x2d
 4230 1658 0000 0000 	.long.LASF294
 4231 165c 01        	.byte0x1
 4232 165d 01E3      	.word0x1e3
 4233 165f 0000 09FA 	.long0x9fa
 4234 1663 0000 0000 	.long.LFB71
 4235 1667 0000 0058 	.long.LFE71-.LFB71
 4236 166b 01        	.uleb128 0x1
 4237 166c 9C        	.byte0x9c
 4238 166d 0000 169F 	.long0x169f
 4239 1671 28        	.uleb128 0x28
 4240 1672 0000 0000 	.long.LASF295
 4241 1676 01        	.byte0x1
 4242 1677 01E3      	.word0x1e3
 4243 1679 0000 09FA 	.long0x9fa
 4244 167d 02        	.uleb128 0x2
 4245 167e 91        	.byte0x91
 4246 167f 00        	.sleb128 0
 4247 1680 28        	.uleb128 0x28
 4248 1681 0000 0000 	.long.LASF296
 4249 1685 01        	.byte0x1
 4250 1686 01E3      	.word0x1e3
 4251 1688 0000 09FA 	.long0x9fa
 4252 168c 02        	.uleb128 0x2
 4253 168d 91        	.byte0x91
 4254 168e 08        	.sleb128 8
 4255 168f 29        	.uleb128 0x29
 4256 1690 0000 0000 	.long.LASF293
 4257 1694 01        	.byte0x1
 4258 1695 01E5      	.word0x1e5
 4259 1697 0000 09FA 	.long0x9fa
 4260 169b 02        	.uleb128 0x2
 4261 169c 91        	.byte0x91
 4262 169d 74        	.sleb128 -12
68K GAS   			page 95


 4263 169e 00        	.byte0
 4264 169f 2D        	.uleb128 0x2d
 4265 16a0 0000 0000 	.long.LASF297
 4266 16a4 01        	.byte0x1
 4267 16a5 01C4      	.word0x1c4
 4268 16a7 0000 09FA 	.long0x9fa
 4269 16ab 0000 0000 	.long.LFB70
 4270 16af 0000 0042 	.long.LFE70-.LFB70
 4271 16b3 01        	.uleb128 0x1
 4272 16b4 9C        	.byte0x9c
 4273 16b5 0000 16E7 	.long0x16e7
 4274 16b9 28        	.uleb128 0x28
 4275 16ba 0000 0000 	.long.LASF295
 4276 16be 01        	.byte0x1
 4277 16bf 01C4      	.word0x1c4
 4278 16c1 0000 09FA 	.long0x9fa
 4279 16c5 02        	.uleb128 0x2
 4280 16c6 91        	.byte0x91
 4281 16c7 00        	.sleb128 0
 4282 16c8 28        	.uleb128 0x28
 4283 16c9 0000 0000 	.long.LASF296
 4284 16cd 01        	.byte0x1
 4285 16ce 01C4      	.word0x1c4
 4286 16d0 0000 09FA 	.long0x9fa
 4287 16d4 02        	.uleb128 0x2
 4288 16d5 91        	.byte0x91
 4289 16d6 08        	.sleb128 8
 4290 16d7 29        	.uleb128 0x29
 4291 16d8 0000 0000 	.long.LASF293
 4292 16dc 01        	.byte0x1
 4293 16dd 01C6      	.word0x1c6
 4294 16df 0000 09FA 	.long0x9fa
 4295 16e3 02        	.uleb128 0x2
 4296 16e4 91        	.byte0x91
 4297 16e5 74        	.sleb128 -12
 4298 16e6 00        	.byte0
 4299 16e7 27        	.uleb128 0x27
 4300 16e8 0000 0000 	.long.LASF298
 4301 16ec 01        	.byte0x1
 4302 16ed 01A9      	.word0x1a9
 4303 16ef 0000 0086 	.long0x86
 4304 16f3 0000 0000 	.long.LFB69
 4305 16f7 0000 0030 	.long.LFE69-.LFB69
 4306 16fb 01        	.uleb128 0x1
 4307 16fc 9C        	.byte0x9c
 4308 16fd 0000 1712 	.long0x1712
 4309 1701 29        	.uleb128 0x29
 4310 1702 0000 0000 	.long.LASF299
 4311 1706 01        	.byte0x1
 4312 1707 01AB      	.word0x1ab
 4313 1709 0000 1007 	.long0x1007
 4314 170d 03        	.uleb128 0x3
 4315 170e 91        	.byte0x91
 4316 170f BC7F      	.sleb128 -68
 4317 1711 00        	.byte0
 4318 1712 27        	.uleb128 0x27
 4319 1713 0000 0000 	.long.LASF300
68K GAS   			page 96


 4320 1717 01        	.byte0x1
 4321 1718 018F      	.word0x18f
 4322 171a 0000 0086 	.long0x86
 4323 171e 0000 0000 	.long.LFB68
 4324 1722 0000 0030 	.long.LFE68-.LFB68
 4325 1726 01        	.uleb128 0x1
 4326 1727 9C        	.byte0x9c
 4327 1728 0000 173D 	.long0x173d
 4328 172c 29        	.uleb128 0x29
 4329 172d 0000 0000 	.long.LASF299
 4330 1731 01        	.byte0x1
 4331 1732 0191      	.word0x191
 4332 1734 0000 1007 	.long0x1007
 4333 1738 03        	.uleb128 0x3
 4334 1739 91        	.byte0x91
 4335 173a BC7F      	.sleb128 -68
 4336 173c 00        	.byte0
 4337 173d 27        	.uleb128 0x27
 4338 173e 0000 0000 	.long.LASF301
 4339 1742 01        	.byte0x1
 4340 1743 0175      	.word0x175
 4341 1745 0000 09FA 	.long0x9fa
 4342 1749 0000 0000 	.long.LFB67
 4343 174d 0000 0034 	.long.LFE67-.LFB67
 4344 1751 01        	.uleb128 0x1
 4345 1752 9C        	.byte0x9c
 4346 1753 0000 1768 	.long0x1768
 4347 1757 29        	.uleb128 0x29
 4348 1758 0000 0000 	.long.LASF299
 4349 175c 01        	.byte0x1
 4350 175d 0177      	.word0x177
 4351 175f 0000 1007 	.long0x1007
 4352 1763 03        	.uleb128 0x3
 4353 1764 91        	.byte0x91
 4354 1765 BC7F      	.sleb128 -68
 4355 1767 00        	.byte0
 4356 1768 27        	.uleb128 0x27
 4357 1769 0000 0000 	.long.LASF302
 4358 176d 01        	.byte0x1
 4359 176e 015C      	.word0x15c
 4360 1770 0000 09FA 	.long0x9fa
 4361 1774 0000 0000 	.long.LFB66
 4362 1778 0000 0034 	.long.LFE66-.LFB66
 4363 177c 01        	.uleb128 0x1
 4364 177d 9C        	.byte0x9c
 4365 177e 0000 1793 	.long0x1793
 4366 1782 29        	.uleb128 0x29
 4367 1783 0000 0000 	.long.LASF299
 4368 1787 01        	.byte0x1
 4369 1788 015E      	.word0x15e
 4370 178a 0000 1007 	.long0x1007
 4371 178e 03        	.uleb128 0x3
 4372 178f 91        	.byte0x91
 4373 1790 BC7F      	.sleb128 -68
 4374 1792 00        	.byte0
 4375 1793 27        	.uleb128 0x27
 4376 1794 0000 0000 	.long.LASF303
68K GAS   			page 97


 4377 1798 01        	.byte0x1
 4378 1799 0143      	.word0x143
 4379 179b 0000 003E 	.long0x3e
 4380 179f 0000 0000 	.long.LFB65
 4381 17a3 0000 0030 	.long.LFE65-.LFB65
 4382 17a7 01        	.uleb128 0x1
 4383 17a8 9C        	.byte0x9c
 4384 17a9 0000 17BE 	.long0x17be
 4385 17ad 29        	.uleb128 0x29
 4386 17ae 0000 0000 	.long.LASF299
 4387 17b2 01        	.byte0x1
 4388 17b3 0145      	.word0x145
 4389 17b5 0000 1007 	.long0x1007
 4390 17b9 03        	.uleb128 0x3
 4391 17ba 91        	.byte0x91
 4392 17bb BC7F      	.sleb128 -68
 4393 17bd 00        	.byte0
 4394 17be 2E        	.uleb128 0x2e
 4395 17bf 0000 0000 	.long.LASF304
 4396 17c3 01        	.byte0x1
 4397 17c4 E6        	.byte0xe6
 4398 17c5 0000 0074 	.long0x74
 4399 17c9 0000 0000 	.long.LFB64
 4400 17cd 0000 0124 	.long.LFE64-.LFB64
 4401 17d1 01        	.uleb128 0x1
 4402 17d2 9C        	.byte0x9c
 4403 17d3 0000 17E6 	.long0x17e6
 4404 17d7 2F        	.uleb128 0x2f
 4405 17d8 0000 0000 	.long.LASF305
 4406 17dc 01        	.byte0x1
 4407 17dd E8        	.byte0xe8
 4408 17de 0000 0074 	.long0x74
 4409 17e2 02        	.uleb128 0x2
 4410 17e3 91        	.byte0x91
 4411 17e4 7A        	.sleb128 -6
 4412 17e5 00        	.byte0
 4413 17e6 30        	.uleb128 0x30
 4414 17e7 0000 0000 	.long.LASF306
 4415 17eb 01        	.byte0x1
 4416 17ec C9        	.byte0xc9
 4417 17ed 0000 0A25 	.long0xa25
 4418 17f1 0000 0000 	.long.LFB63
 4419 17f5 0000 0042 	.long.LFE63-.LFB63
 4420 17f9 01        	.uleb128 0x1
 4421 17fa 9C        	.byte0x9c
 4422 17fb 0000 181D 	.long0x181d
 4423 17ff 2F        	.uleb128 0x2f
 4424 1800 0000 0000 	.long.LASF299
 4425 1804 01        	.byte0x1
 4426 1805 CB        	.byte0xcb
 4427 1806 0000 1007 	.long0x1007
 4428 180a 03        	.uleb128 0x3
 4429 180b 91        	.byte0x91
 4430 180c B87F      	.sleb128 -72
 4431 180e 2F        	.uleb128 0x2f
 4432 180f 0000 0000 	.long.LASF307
 4433 1813 01        	.byte0x1
68K GAS   			page 98


 4434 1814 CC        	.byte0xcc
 4435 1815 0000 0A25 	.long0xa25
 4436 1819 02        	.uleb128 0x2
 4437 181a 91        	.byte0x91
 4438 181b 78        	.sleb128 -8
 4439 181c 00        	.byte0
 4440 181d 30        	.uleb128 0x30
 4441 181e 0000 0000 	.long.LASF308
 4442 1822 01        	.byte0x1
 4443 1823 A2        	.byte0xa2
 4444 1824 0000 09FA 	.long0x9fa
 4445 1828 0000 0000 	.long.LFB62
 4446 182c 0000 004E 	.long.LFE62-.LFB62
 4447 1830 01        	.uleb128 0x1
 4448 1831 9C        	.byte0x9c
 4449 1832 0000 186F 	.long0x186f
 4450 1836 31        	.uleb128 0x31
 4451 1837 0000 0000 	.long.LASF309
 4452 183b 01        	.byte0x1
 4453 183c A2        	.byte0xa2
 4454 183d 0000 09FA 	.long0x9fa
 4455 1841 02        	.uleb128 0x2
 4456 1842 91        	.byte0x91
 4457 1843 00        	.sleb128 0
 4458 1844 2F        	.uleb128 0x2f
 4459 1845 0000 0000 	.long.LASF310
 4460 1849 01        	.byte0x1
 4461 184a A5        	.byte0xa5
 4462 184b 0000 09FA 	.long0x9fa
 4463 184f 02        	.uleb128 0x2
 4464 1850 91        	.byte0x91
 4465 1851 74        	.sleb128 -12
 4466 1852 2F        	.uleb128 0x2f
 4467 1853 0000 0000 	.long.LASF311
 4468 1857 01        	.byte0x1
 4469 1858 A6        	.byte0xa6
 4470 1859 0000 09FA 	.long0x9fa
 4471 185d 02        	.uleb128 0x2
 4472 185e 91        	.byte0x91
 4473 185f 6C        	.sleb128 -20
 4474 1860 2F        	.uleb128 0x2f
 4475 1861 0000 0000 	.long.LASF312
 4476 1865 01        	.byte0x1
 4477 1866 A7        	.byte0xa7
 4478 1867 0000 09FA 	.long0x9fa
 4479 186b 02        	.uleb128 0x2
 4480 186c 91        	.byte0x91
 4481 186d 64        	.sleb128 -28
 4482 186e 00        	.byte0
 4483 186f 30        	.uleb128 0x30
 4484 1870 0000 0000 	.long.LASF313
 4485 1874 01        	.byte0x1
 4486 1875 85        	.byte0x85
 4487 1876 0000 09FA 	.long0x9fa
 4488 187a 0000 0000 	.long.LFB61
 4489 187e 0000 004C 	.long.LFE61-.LFB61
 4490 1882 01        	.uleb128 0x1
68K GAS   			page 99


 4491 1883 9C        	.byte0x9c
 4492 1884 0000 18A7 	.long0x18a7
 4493 1888 2F        	.uleb128 0x2f
 4494 1889 0000 0000 	.long.LASF299
 4495 188d 01        	.byte0x1
 4496 188e 87        	.byte0x87
 4497 188f 0000 1007 	.long0x1007
 4498 1893 03        	.uleb128 0x3
 4499 1894 91        	.byte0x91
 4500 1895 BC7F      	.sleb128 -68
 4501 1897 32        	.uleb128 0x32
 4502 1898 7574 6300 	.string"utc"
 4503 189c 01        	.byte0x1
 4504 189d 88        	.byte0x88
 4505 189e 0000 09FA 	.long0x9fa
 4506 18a2 03        	.uleb128 0x3
 4507 18a3 91        	.byte0x91
 4508 18a4 B47F      	.sleb128 -76
 4509 18a6 00        	.byte0
 4510 18a7 30        	.uleb128 0x30
 4511 18a8 0000 0000 	.long.LASF314
 4512 18ac 01        	.byte0x1
 4513 18ad 66        	.byte0x66
 4514 18ae 0000 09FA 	.long0x9fa
 4515 18b2 0000 0000 	.long.LFB60
 4516 18b6 0000 004C 	.long.LFE60-.LFB60
 4517 18ba 01        	.uleb128 0x1
 4518 18bb 9C        	.byte0x9c
 4519 18bc 0000 18DF 	.long0x18df
 4520 18c0 2F        	.uleb128 0x2f
 4521 18c1 0000 0000 	.long.LASF299
 4522 18c5 01        	.byte0x1
 4523 18c6 68        	.byte0x68
 4524 18c7 0000 1007 	.long0x1007
 4525 18cb 03        	.uleb128 0x3
 4526 18cc 91        	.byte0x91
 4527 18cd BC7F      	.sleb128 -68
 4528 18cf 32        	.uleb128 0x32
 4529 18d0 7461 6900 	.string"tai"
 4530 18d4 01        	.byte0x1
 4531 18d5 69        	.byte0x69
 4532 18d6 0000 09FA 	.long0x9fa
 4533 18da 03        	.uleb128 0x3
 4534 18db 91        	.byte0x91
 4535 18dc B47F      	.sleb128 -76
 4536 18de 00        	.byte0
 4537 18df 33        	.uleb128 0x33
 4538 18e0 0000 0000 	.long.LASF316
 4539 18e4 01        	.byte0x1
 4540 18e5 4D        	.byte0x4d
 4541 18e6 0000 09FA 	.long0x9fa
 4542 18ea 0000 0000 	.long.LFB59
 4543 18ee 0000 0018 	.long.LFE59-.LFB59
 4544 18f2 01        	.uleb128 0x1
 4545 18f3 9C        	.byte0x9c
 4546 18f4 2F        	.uleb128 0x2f
 4547 18f5 0000 0000 	.long.LASF317
68K GAS   			page 100


 4548 18f9 01        	.byte0x1
 4549 18fa 4F        	.byte0x4f
 4550 18fb 0000 09FA 	.long0x9fa
 4551 18ff 02        	.uleb128 0x2
 4552 1900 91        	.byte0x91
 4553 1901 74        	.sleb128 -12
 4554 1902 00        	.byte0
 4555 1903 00        	.byte0
 4556               	.section.debug_abbrev,"",@progbits
 4557               	.Ldebug_abbrev0:
 4558 0000 01        	.uleb128 0x1
 4559 0001 11        	.uleb128 0x11
 4560 0002 01        	.byte0x1
 4561 0003 25        	.uleb128 0x25
 4562 0004 0E        	.uleb128 0xe
 4563 0005 13        	.uleb128 0x13
 4564 0006 0B        	.uleb128 0xb
 4565 0007 03        	.uleb128 0x3
 4566 0008 0E        	.uleb128 0xe
 4567 0009 1B        	.uleb128 0x1b
 4568 000a 0E        	.uleb128 0xe
 4569 000b 11        	.uleb128 0x11
 4570 000c 01        	.uleb128 0x1
 4571 000d 12        	.uleb128 0x12
 4572 000e 06        	.uleb128 0x6
 4573 000f 10        	.uleb128 0x10
 4574 0010 17        	.uleb128 0x17
 4575 0011 00        	.byte0
 4576 0012 00        	.byte0
 4577 0013 02        	.uleb128 0x2
 4578 0014 16        	.uleb128 0x16
 4579 0015 00        	.byte0
 4580 0016 03        	.uleb128 0x3
 4581 0017 0E        	.uleb128 0xe
 4582 0018 3A        	.uleb128 0x3a
 4583 0019 0B        	.uleb128 0xb
 4584 001a 3B        	.uleb128 0x3b
 4585 001b 0B        	.uleb128 0xb
 4586 001c 49        	.uleb128 0x49
 4587 001d 13        	.uleb128 0x13
 4588 001e 00        	.byte0
 4589 001f 00        	.byte0
 4590 0020 03        	.uleb128 0x3
 4591 0021 24        	.uleb128 0x24
 4592 0022 00        	.byte0
 4593 0023 0B        	.uleb128 0xb
 4594 0024 0B        	.uleb128 0xb
 4595 0025 3E        	.uleb128 0x3e
 4596 0026 0B        	.uleb128 0xb
 4597 0027 03        	.uleb128 0x3
 4598 0028 0E        	.uleb128 0xe
 4599 0029 00        	.byte0
 4600 002a 00        	.byte0
 4601 002b 04        	.uleb128 0x4
 4602 002c 16        	.uleb128 0x16
 4603 002d 00        	.byte0
 4604 002e 03        	.uleb128 0x3
68K GAS   			page 101


 4605 002f 0E        	.uleb128 0xe
 4606 0030 3A        	.uleb128 0x3a
 4607 0031 0B        	.uleb128 0xb
 4608 0032 3B        	.uleb128 0x3b
 4609 0033 05        	.uleb128 0x5
 4610 0034 49        	.uleb128 0x49
 4611 0035 13        	.uleb128 0x13
 4612 0036 00        	.byte0
 4613 0037 00        	.byte0
 4614 0038 05        	.uleb128 0x5
 4615 0039 26        	.uleb128 0x26
 4616 003a 00        	.byte0
 4617 003b 49        	.uleb128 0x49
 4618 003c 13        	.uleb128 0x13
 4619 003d 00        	.byte0
 4620 003e 00        	.byte0
 4621 003f 06        	.uleb128 0x6
 4622 0040 0F        	.uleb128 0xf
 4623 0041 00        	.byte0
 4624 0042 0B        	.uleb128 0xb
 4625 0043 0B        	.uleb128 0xb
 4626 0044 00        	.byte0
 4627 0045 00        	.byte0
 4628 0046 07        	.uleb128 0x7
 4629 0047 24        	.uleb128 0x24
 4630 0048 00        	.byte0
 4631 0049 0B        	.uleb128 0xb
 4632 004a 0B        	.uleb128 0xb
 4633 004b 3E        	.uleb128 0x3e
 4634 004c 0B        	.uleb128 0xb
 4635 004d 03        	.uleb128 0x3
 4636 004e 08        	.uleb128 0x8
 4637 004f 00        	.byte0
 4638 0050 00        	.byte0
 4639 0051 08        	.uleb128 0x8
 4640 0052 13        	.uleb128 0x13
 4641 0053 01        	.byte0x1
 4642 0054 03        	.uleb128 0x3
 4643 0055 0E        	.uleb128 0xe
 4644 0056 0B        	.uleb128 0xb
 4645 0057 0B        	.uleb128 0xb
 4646 0058 3A        	.uleb128 0x3a
 4647 0059 0B        	.uleb128 0xb
 4648 005a 3B        	.uleb128 0x3b
 4649 005b 0B        	.uleb128 0xb
 4650 005c 01        	.uleb128 0x1
 4651 005d 13        	.uleb128 0x13
 4652 005e 00        	.byte0
 4653 005f 00        	.byte0
 4654 0060 09        	.uleb128 0x9
 4655 0061 0D        	.uleb128 0xd
 4656 0062 00        	.byte0
 4657 0063 03        	.uleb128 0x3
 4658 0064 0E        	.uleb128 0xe
 4659 0065 3A        	.uleb128 0x3a
 4660 0066 0B        	.uleb128 0xb
 4661 0067 3B        	.uleb128 0x3b
68K GAS   			page 102


 4662 0068 0B        	.uleb128 0xb
 4663 0069 49        	.uleb128 0x49
 4664 006a 13        	.uleb128 0x13
 4665 006b 38        	.uleb128 0x38
 4666 006c 0B        	.uleb128 0xb
 4667 006d 00        	.byte0
 4668 006e 00        	.byte0
 4669 006f 0A        	.uleb128 0xa
 4670 0070 13        	.uleb128 0x13
 4671 0071 00        	.byte0
 4672 0072 03        	.uleb128 0x3
 4673 0073 0E        	.uleb128 0xe
 4674 0074 3C        	.uleb128 0x3c
 4675 0075 19        	.uleb128 0x19
 4676 0076 00        	.byte0
 4677 0077 00        	.byte0
 4678 0078 0B        	.uleb128 0xb
 4679 0079 0F        	.uleb128 0xf
 4680 007a 00        	.byte0
 4681 007b 0B        	.uleb128 0xb
 4682 007c 0B        	.uleb128 0xb
 4683 007d 49        	.uleb128 0x49
 4684 007e 13        	.uleb128 0x13
 4685 007f 00        	.byte0
 4686 0080 00        	.byte0
 4687 0081 0C        	.uleb128 0xc
 4688 0082 17        	.uleb128 0x17
 4689 0083 01        	.byte0x1
 4690 0084 0B        	.uleb128 0xb
 4691 0085 0B        	.uleb128 0xb
 4692 0086 3A        	.uleb128 0x3a
 4693 0087 0B        	.uleb128 0xb
 4694 0088 3B        	.uleb128 0x3b
 4695 0089 0B        	.uleb128 0xb
 4696 008a 01        	.uleb128 0x1
 4697 008b 13        	.uleb128 0x13
 4698 008c 00        	.byte0
 4699 008d 00        	.byte0
 4700 008e 0D        	.uleb128 0xd
 4701 008f 0D        	.uleb128 0xd
 4702 0090 00        	.byte0
 4703 0091 03        	.uleb128 0x3
 4704 0092 0E        	.uleb128 0xe
 4705 0093 3A        	.uleb128 0x3a
 4706 0094 0B        	.uleb128 0xb
 4707 0095 3B        	.uleb128 0x3b
 4708 0096 0B        	.uleb128 0xb
 4709 0097 49        	.uleb128 0x49
 4710 0098 13        	.uleb128 0x13
 4711 0099 00        	.byte0
 4712 009a 00        	.byte0
 4713 009b 0E        	.uleb128 0xe
 4714 009c 01        	.uleb128 0x1
 4715 009d 01        	.byte0x1
 4716 009e 49        	.uleb128 0x49
 4717 009f 13        	.uleb128 0x13
 4718 00a0 01        	.uleb128 0x1
68K GAS   			page 103


 4719 00a1 13        	.uleb128 0x13
 4720 00a2 00        	.byte0
 4721 00a3 00        	.byte0
 4722 00a4 0F        	.uleb128 0xf
 4723 00a5 21        	.uleb128 0x21
 4724 00a6 00        	.byte0
 4725 00a7 49        	.uleb128 0x49
 4726 00a8 13        	.uleb128 0x13
 4727 00a9 2F        	.uleb128 0x2f
 4728 00aa 0B        	.uleb128 0xb
 4729 00ab 00        	.byte0
 4730 00ac 00        	.byte0
 4731 00ad 10        	.uleb128 0x10
 4732 00ae 13        	.uleb128 0x13
 4733 00af 01        	.byte0x1
 4734 00b0 0B        	.uleb128 0xb
 4735 00b1 0B        	.uleb128 0xb
 4736 00b2 3A        	.uleb128 0x3a
 4737 00b3 0B        	.uleb128 0xb
 4738 00b4 3B        	.uleb128 0x3b
 4739 00b5 0B        	.uleb128 0xb
 4740 00b6 01        	.uleb128 0x1
 4741 00b7 13        	.uleb128 0x13
 4742 00b8 00        	.byte0
 4743 00b9 00        	.byte0
 4744 00ba 11        	.uleb128 0x11
 4745 00bb 0D        	.uleb128 0xd
 4746 00bc 00        	.byte0
 4747 00bd 03        	.uleb128 0x3
 4748 00be 08        	.uleb128 0x8
 4749 00bf 3A        	.uleb128 0x3a
 4750 00c0 0B        	.uleb128 0xb
 4751 00c1 3B        	.uleb128 0x3b
 4752 00c2 0B        	.uleb128 0xb
 4753 00c3 49        	.uleb128 0x49
 4754 00c4 13        	.uleb128 0x13
 4755 00c5 38        	.uleb128 0x38
 4756 00c6 0B        	.uleb128 0xb
 4757 00c7 00        	.byte0
 4758 00c8 00        	.byte0
 4759 00c9 12        	.uleb128 0x12
 4760 00ca 13        	.uleb128 0x13
 4761 00cb 01        	.byte0x1
 4762 00cc 03        	.uleb128 0x3
 4763 00cd 0E        	.uleb128 0xe
 4764 00ce 0B        	.uleb128 0xb
 4765 00cf 05        	.uleb128 0x5
 4766 00d0 3A        	.uleb128 0x3a
 4767 00d1 0B        	.uleb128 0xb
 4768 00d2 3B        	.uleb128 0x3b
 4769 00d3 0B        	.uleb128 0xb
 4770 00d4 01        	.uleb128 0x1
 4771 00d5 13        	.uleb128 0x13
 4772 00d6 00        	.byte0
 4773 00d7 00        	.byte0
 4774 00d8 13        	.uleb128 0x13
 4775 00d9 0D        	.uleb128 0xd
68K GAS   			page 104


 4776 00da 00        	.byte0
 4777 00db 03        	.uleb128 0x3
 4778 00dc 0E        	.uleb128 0xe
 4779 00dd 3A        	.uleb128 0x3a
 4780 00de 0B        	.uleb128 0xb
 4781 00df 3B        	.uleb128 0x3b
 4782 00e0 0B        	.uleb128 0xb
 4783 00e1 49        	.uleb128 0x49
 4784 00e2 13        	.uleb128 0x13
 4785 00e3 38        	.uleb128 0x38
 4786 00e4 05        	.uleb128 0x5
 4787 00e5 00        	.byte0
 4788 00e6 00        	.byte0
 4789 00e7 14        	.uleb128 0x14
 4790 00e8 15        	.uleb128 0x15
 4791 00e9 00        	.byte0
 4792 00ea 27        	.uleb128 0x27
 4793 00eb 19        	.uleb128 0x19
 4794 00ec 00        	.byte0
 4795 00ed 00        	.byte0
 4796 00ee 15        	.uleb128 0x15
 4797 00ef 15        	.uleb128 0x15
 4798 00f0 01        	.byte0x1
 4799 00f1 27        	.uleb128 0x27
 4800 00f2 19        	.uleb128 0x19
 4801 00f3 49        	.uleb128 0x49
 4802 00f4 13        	.uleb128 0x13
 4803 00f5 01        	.uleb128 0x1
 4804 00f6 13        	.uleb128 0x13
 4805 00f7 00        	.byte0
 4806 00f8 00        	.byte0
 4807 00f9 16        	.uleb128 0x16
 4808 00fa 05        	.uleb128 0x5
 4809 00fb 00        	.byte0
 4810 00fc 49        	.uleb128 0x49
 4811 00fd 13        	.uleb128 0x13
 4812 00fe 00        	.byte0
 4813 00ff 00        	.byte0
 4814 0100 17        	.uleb128 0x17
 4815 0101 13        	.uleb128 0x13
 4816 0102 01        	.byte0x1
 4817 0103 03        	.uleb128 0x3
 4818 0104 0E        	.uleb128 0xe
 4819 0105 0B        	.uleb128 0xb
 4820 0106 05        	.uleb128 0x5
 4821 0107 3A        	.uleb128 0x3a
 4822 0108 0B        	.uleb128 0xb
 4823 0109 3B        	.uleb128 0x3b
 4824 010a 05        	.uleb128 0x5
 4825 010b 01        	.uleb128 0x1
 4826 010c 13        	.uleb128 0x13
 4827 010d 00        	.byte0
 4828 010e 00        	.byte0
 4829 010f 18        	.uleb128 0x18
 4830 0110 0D        	.uleb128 0xd
 4831 0111 00        	.byte0
 4832 0112 03        	.uleb128 0x3
68K GAS   			page 105


 4833 0113 0E        	.uleb128 0xe
 4834 0114 3A        	.uleb128 0x3a
 4835 0115 0B        	.uleb128 0xb
 4836 0116 3B        	.uleb128 0x3b
 4837 0117 05        	.uleb128 0x5
 4838 0118 49        	.uleb128 0x49
 4839 0119 13        	.uleb128 0x13
 4840 011a 38        	.uleb128 0x38
 4841 011b 0B        	.uleb128 0xb
 4842 011c 00        	.byte0
 4843 011d 00        	.byte0
 4844 011e 19        	.uleb128 0x19
 4845 011f 0D        	.uleb128 0xd
 4846 0120 00        	.byte0
 4847 0121 03        	.uleb128 0x3
 4848 0122 0E        	.uleb128 0xe
 4849 0123 3A        	.uleb128 0x3a
 4850 0124 0B        	.uleb128 0xb
 4851 0125 3B        	.uleb128 0x3b
 4852 0126 05        	.uleb128 0x5
 4853 0127 49        	.uleb128 0x49
 4854 0128 13        	.uleb128 0x13
 4855 0129 38        	.uleb128 0x38
 4856 012a 05        	.uleb128 0x5
 4857 012b 00        	.byte0
 4858 012c 00        	.byte0
 4859 012d 1A        	.uleb128 0x1a
 4860 012e 13        	.uleb128 0x13
 4861 012f 01        	.byte0x1
 4862 0130 03        	.uleb128 0x3
 4863 0131 0E        	.uleb128 0xe
 4864 0132 0B        	.uleb128 0xb
 4865 0133 0B        	.uleb128 0xb
 4866 0134 3A        	.uleb128 0x3a
 4867 0135 0B        	.uleb128 0xb
 4868 0136 3B        	.uleb128 0x3b
 4869 0137 05        	.uleb128 0x5
 4870 0138 01        	.uleb128 0x1
 4871 0139 13        	.uleb128 0x13
 4872 013a 00        	.byte0
 4873 013b 00        	.byte0
 4874 013c 1B        	.uleb128 0x1b
 4875 013d 13        	.uleb128 0x13
 4876 013e 01        	.byte0x1
 4877 013f 0B        	.uleb128 0xb
 4878 0140 0B        	.uleb128 0xb
 4879 0141 3A        	.uleb128 0x3a
 4880 0142 0B        	.uleb128 0xb
 4881 0143 3B        	.uleb128 0x3b
 4882 0144 05        	.uleb128 0x5
 4883 0145 01        	.uleb128 0x1
 4884 0146 13        	.uleb128 0x13
 4885 0147 00        	.byte0
 4886 0148 00        	.byte0
 4887 0149 1C        	.uleb128 0x1c
 4888 014a 17        	.uleb128 0x17
 4889 014b 01        	.byte0x1
68K GAS   			page 106


 4890 014c 0B        	.uleb128 0xb
 4891 014d 0B        	.uleb128 0xb
 4892 014e 3A        	.uleb128 0x3a
 4893 014f 0B        	.uleb128 0xb
 4894 0150 3B        	.uleb128 0x3b
 4895 0151 05        	.uleb128 0x5
 4896 0152 01        	.uleb128 0x1
 4897 0153 13        	.uleb128 0x13
 4898 0154 00        	.byte0
 4899 0155 00        	.byte0
 4900 0156 1D        	.uleb128 0x1d
 4901 0157 0D        	.uleb128 0xd
 4902 0158 00        	.byte0
 4903 0159 03        	.uleb128 0x3
 4904 015a 0E        	.uleb128 0xe
 4905 015b 3A        	.uleb128 0x3a
 4906 015c 0B        	.uleb128 0xb
 4907 015d 3B        	.uleb128 0x3b
 4908 015e 05        	.uleb128 0x5
 4909 015f 49        	.uleb128 0x49
 4910 0160 13        	.uleb128 0x13
 4911 0161 00        	.byte0
 4912 0162 00        	.byte0
 4913 0163 1E        	.uleb128 0x1e
 4914 0164 15        	.uleb128 0x15
 4915 0165 01        	.byte0x1
 4916 0166 27        	.uleb128 0x27
 4917 0167 19        	.uleb128 0x19
 4918 0168 01        	.uleb128 0x1
 4919 0169 13        	.uleb128 0x13
 4920 016a 00        	.byte0
 4921 016b 00        	.byte0
 4922 016c 1F        	.uleb128 0x1f
 4923 016d 34        	.uleb128 0x34
 4924 016e 00        	.byte0
 4925 016f 03        	.uleb128 0x3
 4926 0170 0E        	.uleb128 0xe
 4927 0171 3A        	.uleb128 0x3a
 4928 0172 0B        	.uleb128 0xb
 4929 0173 3B        	.uleb128 0x3b
 4930 0174 05        	.uleb128 0x5
 4931 0175 49        	.uleb128 0x49
 4932 0176 13        	.uleb128 0x13
 4933 0177 3F        	.uleb128 0x3f
 4934 0178 19        	.uleb128 0x19
 4935 0179 3C        	.uleb128 0x3c
 4936 017a 19        	.uleb128 0x19
 4937 017b 00        	.byte0
 4938 017c 00        	.byte0
 4939 017d 20        	.uleb128 0x20
 4940 017e 34        	.uleb128 0x34
 4941 017f 00        	.byte0
 4942 0180 03        	.uleb128 0x3
 4943 0181 0E        	.uleb128 0xe
 4944 0182 3A        	.uleb128 0x3a
 4945 0183 0B        	.uleb128 0xb
 4946 0184 3B        	.uleb128 0x3b
68K GAS   			page 107


 4947 0185 0B        	.uleb128 0xb
 4948 0186 49        	.uleb128 0x49
 4949 0187 13        	.uleb128 0x13
 4950 0188 3F        	.uleb128 0x3f
 4951 0189 19        	.uleb128 0x19
 4952 018a 3C        	.uleb128 0x3c
 4953 018b 19        	.uleb128 0x19
 4954 018c 00        	.byte0
 4955 018d 00        	.byte0
 4956 018e 21        	.uleb128 0x21
 4957 018f 15        	.uleb128 0x15
 4958 0190 00        	.byte0
 4959 0191 27        	.uleb128 0x27
 4960 0192 19        	.uleb128 0x19
 4961 0193 49        	.uleb128 0x49
 4962 0194 13        	.uleb128 0x13
 4963 0195 00        	.byte0
 4964 0196 00        	.byte0
 4965 0197 22        	.uleb128 0x22
 4966 0198 04        	.uleb128 0x4
 4967 0199 01        	.byte0x1
 4968 019a 3E        	.uleb128 0x3e
 4969 019b 0B        	.uleb128 0xb
 4970 019c 0B        	.uleb128 0xb
 4971 019d 0B        	.uleb128 0xb
 4972 019e 49        	.uleb128 0x49
 4973 019f 13        	.uleb128 0x13
 4974 01a0 3A        	.uleb128 0x3a
 4975 01a1 0B        	.uleb128 0xb
 4976 01a2 3B        	.uleb128 0x3b
 4977 01a3 0B        	.uleb128 0xb
 4978 01a4 01        	.uleb128 0x1
 4979 01a5 13        	.uleb128 0x13
 4980 01a6 00        	.byte0
 4981 01a7 00        	.byte0
 4982 01a8 23        	.uleb128 0x23
 4983 01a9 28        	.uleb128 0x28
 4984 01aa 00        	.byte0
 4985 01ab 03        	.uleb128 0x3
 4986 01ac 0E        	.uleb128 0xe
 4987 01ad 1C        	.uleb128 0x1c
 4988 01ae 0D        	.uleb128 0xd
 4989 01af 00        	.byte0
 4990 01b0 00        	.byte0
 4991 01b1 24        	.uleb128 0x24
 4992 01b2 28        	.uleb128 0x28
 4993 01b3 00        	.byte0
 4994 01b4 03        	.uleb128 0x3
 4995 01b5 0E        	.uleb128 0xe
 4996 01b6 1C        	.uleb128 0x1c
 4997 01b7 0B        	.uleb128 0xb
 4998 01b8 00        	.byte0
 4999 01b9 00        	.byte0
 5000 01ba 25        	.uleb128 0x25
 5001 01bb 0D        	.uleb128 0xd
 5002 01bc 00        	.byte0
 5003 01bd 03        	.uleb128 0x3
68K GAS   			page 108


 5004 01be 08        	.uleb128 0x8
 5005 01bf 3A        	.uleb128 0x3a
 5006 01c0 0B        	.uleb128 0xb
 5007 01c1 3B        	.uleb128 0x3b
 5008 01c2 0B        	.uleb128 0xb
 5009 01c3 49        	.uleb128 0x49
 5010 01c4 13        	.uleb128 0x13
 5011 01c5 00        	.byte0
 5012 01c6 00        	.byte0
 5013 01c7 26        	.uleb128 0x26
 5014 01c8 13        	.uleb128 0x13
 5015 01c9 01        	.byte0x1
 5016 01ca 0B        	.uleb128 0xb
 5017 01cb 05        	.uleb128 0x5
 5018 01cc 3A        	.uleb128 0x3a
 5019 01cd 0B        	.uleb128 0xb
 5020 01ce 3B        	.uleb128 0x3b
 5021 01cf 0B        	.uleb128 0xb
 5022 01d0 01        	.uleb128 0x1
 5023 01d1 13        	.uleb128 0x13
 5024 01d2 00        	.byte0
 5025 01d3 00        	.byte0
 5026 01d4 27        	.uleb128 0x27
 5027 01d5 2E        	.uleb128 0x2e
 5028 01d6 01        	.byte0x1
 5029 01d7 3F        	.uleb128 0x3f
 5030 01d8 19        	.uleb128 0x19
 5031 01d9 03        	.uleb128 0x3
 5032 01da 0E        	.uleb128 0xe
 5033 01db 3A        	.uleb128 0x3a
 5034 01dc 0B        	.uleb128 0xb
 5035 01dd 3B        	.uleb128 0x3b
 5036 01de 05        	.uleb128 0x5
 5037 01df 27        	.uleb128 0x27
 5038 01e0 19        	.uleb128 0x19
 5039 01e1 49        	.uleb128 0x49
 5040 01e2 13        	.uleb128 0x13
 5041 01e3 11        	.uleb128 0x11
 5042 01e4 01        	.uleb128 0x1
 5043 01e5 12        	.uleb128 0x12
 5044 01e6 06        	.uleb128 0x6
 5045 01e7 40        	.uleb128 0x40
 5046 01e8 18        	.uleb128 0x18
 5047 01e9 9642      	.uleb128 0x2116
 5048 01eb 19        	.uleb128 0x19
 5049 01ec 01        	.uleb128 0x1
 5050 01ed 13        	.uleb128 0x13
 5051 01ee 00        	.byte0
 5052 01ef 00        	.byte0
 5053 01f0 28        	.uleb128 0x28
 5054 01f1 05        	.uleb128 0x5
 5055 01f2 00        	.byte0
 5056 01f3 03        	.uleb128 0x3
 5057 01f4 0E        	.uleb128 0xe
 5058 01f5 3A        	.uleb128 0x3a
 5059 01f6 0B        	.uleb128 0xb
 5060 01f7 3B        	.uleb128 0x3b
68K GAS   			page 109


 5061 01f8 05        	.uleb128 0x5
 5062 01f9 49        	.uleb128 0x49
 5063 01fa 13        	.uleb128 0x13
 5064 01fb 02        	.uleb128 0x2
 5065 01fc 18        	.uleb128 0x18
 5066 01fd 00        	.byte0
 5067 01fe 00        	.byte0
 5068 01ff 29        	.uleb128 0x29
 5069 0200 34        	.uleb128 0x34
 5070 0201 00        	.byte0
 5071 0202 03        	.uleb128 0x3
 5072 0203 0E        	.uleb128 0xe
 5073 0204 3A        	.uleb128 0x3a
 5074 0205 0B        	.uleb128 0xb
 5075 0206 3B        	.uleb128 0x3b
 5076 0207 05        	.uleb128 0x5
 5077 0208 49        	.uleb128 0x49
 5078 0209 13        	.uleb128 0x13
 5079 020a 02        	.uleb128 0x2
 5080 020b 18        	.uleb128 0x18
 5081 020c 00        	.byte0
 5082 020d 00        	.byte0
 5083 020e 2A        	.uleb128 0x2a
 5084 020f 34        	.uleb128 0x34
 5085 0210 00        	.byte0
 5086 0211 03        	.uleb128 0x3
 5087 0212 08        	.uleb128 0x8
 5088 0213 3A        	.uleb128 0x3a
 5089 0214 0B        	.uleb128 0xb
 5090 0215 3B        	.uleb128 0x3b
 5091 0216 05        	.uleb128 0x5
 5092 0217 49        	.uleb128 0x49
 5093 0218 13        	.uleb128 0x13
 5094 0219 02        	.uleb128 0x2
 5095 021a 18        	.uleb128 0x18
 5096 021b 00        	.byte0
 5097 021c 00        	.byte0
 5098 021d 2B        	.uleb128 0x2b
 5099 021e 2E        	.uleb128 0x2e
 5100 021f 00        	.byte0
 5101 0220 3F        	.uleb128 0x3f
 5102 0221 19        	.uleb128 0x19
 5103 0222 03        	.uleb128 0x3
 5104 0223 0E        	.uleb128 0xe
 5105 0224 3A        	.uleb128 0x3a
 5106 0225 0B        	.uleb128 0xb
 5107 0226 3B        	.uleb128 0x3b
 5108 0227 05        	.uleb128 0x5
 5109 0228 27        	.uleb128 0x27
 5110 0229 19        	.uleb128 0x19
 5111 022a 11        	.uleb128 0x11
 5112 022b 01        	.uleb128 0x1
 5113 022c 12        	.uleb128 0x12
 5114 022d 06        	.uleb128 0x6
 5115 022e 40        	.uleb128 0x40
 5116 022f 18        	.uleb128 0x18
 5117 0230 9642      	.uleb128 0x2116
68K GAS   			page 110


 5118 0232 19        	.uleb128 0x19
 5119 0233 00        	.byte0
 5120 0234 00        	.byte0
 5121 0235 2C        	.uleb128 0x2c
 5122 0236 2E        	.uleb128 0x2e
 5123 0237 01        	.byte0x1
 5124 0238 3F        	.uleb128 0x3f
 5125 0239 19        	.uleb128 0x19
 5126 023a 03        	.uleb128 0x3
 5127 023b 0E        	.uleb128 0xe
 5128 023c 3A        	.uleb128 0x3a
 5129 023d 0B        	.uleb128 0xb
 5130 023e 3B        	.uleb128 0x3b
 5131 023f 05        	.uleb128 0x5
 5132 0240 27        	.uleb128 0x27
 5133 0241 19        	.uleb128 0x19
 5134 0242 11        	.uleb128 0x11
 5135 0243 01        	.uleb128 0x1
 5136 0244 12        	.uleb128 0x12
 5137 0245 06        	.uleb128 0x6
 5138 0246 40        	.uleb128 0x40
 5139 0247 18        	.uleb128 0x18
 5140 0248 9642      	.uleb128 0x2116
 5141 024a 19        	.uleb128 0x19
 5142 024b 01        	.uleb128 0x1
 5143 024c 13        	.uleb128 0x13
 5144 024d 00        	.byte0
 5145 024e 00        	.byte0
 5146 024f 2D        	.uleb128 0x2d
 5147 0250 2E        	.uleb128 0x2e
 5148 0251 01        	.byte0x1
 5149 0252 3F        	.uleb128 0x3f
 5150 0253 19        	.uleb128 0x19
 5151 0254 03        	.uleb128 0x3
 5152 0255 0E        	.uleb128 0xe
 5153 0256 3A        	.uleb128 0x3a
 5154 0257 0B        	.uleb128 0xb
 5155 0258 3B        	.uleb128 0x3b
 5156 0259 05        	.uleb128 0x5
 5157 025a 27        	.uleb128 0x27
 5158 025b 19        	.uleb128 0x19
 5159 025c 49        	.uleb128 0x49
 5160 025d 13        	.uleb128 0x13
 5161 025e 11        	.uleb128 0x11
 5162 025f 01        	.uleb128 0x1
 5163 0260 12        	.uleb128 0x12
 5164 0261 06        	.uleb128 0x6
 5165 0262 40        	.uleb128 0x40
 5166 0263 18        	.uleb128 0x18
 5167 0264 9742      	.uleb128 0x2117
 5168 0266 19        	.uleb128 0x19
 5169 0267 01        	.uleb128 0x1
 5170 0268 13        	.uleb128 0x13
 5171 0269 00        	.byte0
 5172 026a 00        	.byte0
 5173 026b 2E        	.uleb128 0x2e
 5174 026c 2E        	.uleb128 0x2e
68K GAS   			page 111


 5175 026d 01        	.byte0x1
 5176 026e 3F        	.uleb128 0x3f
 5177 026f 19        	.uleb128 0x19
 5178 0270 03        	.uleb128 0x3
 5179 0271 0E        	.uleb128 0xe
 5180 0272 3A        	.uleb128 0x3a
 5181 0273 0B        	.uleb128 0xb
 5182 0274 3B        	.uleb128 0x3b
 5183 0275 0B        	.uleb128 0xb
 5184 0276 27        	.uleb128 0x27
 5185 0277 19        	.uleb128 0x19
 5186 0278 49        	.uleb128 0x49
 5187 0279 13        	.uleb128 0x13
 5188 027a 11        	.uleb128 0x11
 5189 027b 01        	.uleb128 0x1
 5190 027c 12        	.uleb128 0x12
 5191 027d 06        	.uleb128 0x6
 5192 027e 40        	.uleb128 0x40
 5193 027f 18        	.uleb128 0x18
 5194 0280 9742      	.uleb128 0x2117
 5195 0282 19        	.uleb128 0x19
 5196 0283 01        	.uleb128 0x1
 5197 0284 13        	.uleb128 0x13
 5198 0285 00        	.byte0
 5199 0286 00        	.byte0
 5200 0287 2F        	.uleb128 0x2f
 5201 0288 34        	.uleb128 0x34
 5202 0289 00        	.byte0
 5203 028a 03        	.uleb128 0x3
 5204 028b 0E        	.uleb128 0xe
 5205 028c 3A        	.uleb128 0x3a
 5206 028d 0B        	.uleb128 0xb
 5207 028e 3B        	.uleb128 0x3b
 5208 028f 0B        	.uleb128 0xb
 5209 0290 49        	.uleb128 0x49
 5210 0291 13        	.uleb128 0x13
 5211 0292 02        	.uleb128 0x2
 5212 0293 18        	.uleb128 0x18
 5213 0294 00        	.byte0
 5214 0295 00        	.byte0
 5215 0296 30        	.uleb128 0x30
 5216 0297 2E        	.uleb128 0x2e
 5217 0298 01        	.byte0x1
 5218 0299 3F        	.uleb128 0x3f
 5219 029a 19        	.uleb128 0x19
 5220 029b 03        	.uleb128 0x3
 5221 029c 0E        	.uleb128 0xe
 5222 029d 3A        	.uleb128 0x3a
 5223 029e 0B        	.uleb128 0xb
 5224 029f 3B        	.uleb128 0x3b
 5225 02a0 0B        	.uleb128 0xb
 5226 02a1 27        	.uleb128 0x27
 5227 02a2 19        	.uleb128 0x19
 5228 02a3 49        	.uleb128 0x49
 5229 02a4 13        	.uleb128 0x13
 5230 02a5 11        	.uleb128 0x11
 5231 02a6 01        	.uleb128 0x1
68K GAS   			page 112


 5232 02a7 12        	.uleb128 0x12
 5233 02a8 06        	.uleb128 0x6
 5234 02a9 40        	.uleb128 0x40
 5235 02aa 18        	.uleb128 0x18
 5236 02ab 9642      	.uleb128 0x2116
 5237 02ad 19        	.uleb128 0x19
 5238 02ae 01        	.uleb128 0x1
 5239 02af 13        	.uleb128 0x13
 5240 02b0 00        	.byte0
 5241 02b1 00        	.byte0
 5242 02b2 31        	.uleb128 0x31
 5243 02b3 05        	.uleb128 0x5
 5244 02b4 00        	.byte0
 5245 02b5 03        	.uleb128 0x3
 5246 02b6 0E        	.uleb128 0xe
 5247 02b7 3A        	.uleb128 0x3a
 5248 02b8 0B        	.uleb128 0xb
 5249 02b9 3B        	.uleb128 0x3b
 5250 02ba 0B        	.uleb128 0xb
 5251 02bb 49        	.uleb128 0x49
 5252 02bc 13        	.uleb128 0x13
 5253 02bd 02        	.uleb128 0x2
 5254 02be 18        	.uleb128 0x18
 5255 02bf 00        	.byte0
 5256 02c0 00        	.byte0
 5257 02c1 32        	.uleb128 0x32
 5258 02c2 34        	.uleb128 0x34
 5259 02c3 00        	.byte0
 5260 02c4 03        	.uleb128 0x3
 5261 02c5 08        	.uleb128 0x8
 5262 02c6 3A        	.uleb128 0x3a
 5263 02c7 0B        	.uleb128 0xb
 5264 02c8 3B        	.uleb128 0x3b
 5265 02c9 0B        	.uleb128 0xb
 5266 02ca 49        	.uleb128 0x49
 5267 02cb 13        	.uleb128 0x13
 5268 02cc 02        	.uleb128 0x2
 5269 02cd 18        	.uleb128 0x18
 5270 02ce 00        	.byte0
 5271 02cf 00        	.byte0
 5272 02d0 33        	.uleb128 0x33
 5273 02d1 2E        	.uleb128 0x2e
 5274 02d2 01        	.byte0x1
 5275 02d3 3F        	.uleb128 0x3f
 5276 02d4 19        	.uleb128 0x19
 5277 02d5 03        	.uleb128 0x3
 5278 02d6 0E        	.uleb128 0xe
 5279 02d7 3A        	.uleb128 0x3a
 5280 02d8 0B        	.uleb128 0xb
 5281 02d9 3B        	.uleb128 0x3b
 5282 02da 0B        	.uleb128 0xb
 5283 02db 27        	.uleb128 0x27
 5284 02dc 19        	.uleb128 0x19
 5285 02dd 49        	.uleb128 0x49
 5286 02de 13        	.uleb128 0x13
 5287 02df 11        	.uleb128 0x11
 5288 02e0 01        	.uleb128 0x1
68K GAS   			page 113


 5289 02e1 12        	.uleb128 0x12
 5290 02e2 06        	.uleb128 0x6
 5291 02e3 40        	.uleb128 0x40
 5292 02e4 18        	.uleb128 0x18
 5293 02e5 9642      	.uleb128 0x2116
 5294 02e7 19        	.uleb128 0x19
 5295 02e8 00        	.byte0
 5296 02e9 00        	.byte0
 5297 02ea 00        	.byte0
 5298               	.section.debug_aranges,"",@progbits
 5299 0000 0000 001C 	.long0x1c
 5300 0004 0002      	.word0x2
 5301 0006 0000 0000 	.long.Ldebug_info0
 5302 000a 04        	.byte0x4
 5303 000b 00        	.byte0
 5304 000c 0000      	.word0
 5305 000e 0000      	.word0
 5306 0010 0000 0000 	.long.Ltext0
 5307 0014 0000 0B8C 	.long.Letext0-.Ltext0
 5308 0018 0000 0000 	.long0
 5309 001c 0000 0000 	.long0
 5310               	.section.debug_line,"",@progbits
 5311               	.Ldebug_line0:
 5312 0000 0000 03DE 	.section.debug_str,"MS",@progbits,1
 5312      0002 0000 
 5312      0281 0201 
 5312      FB0E 0D00 
 5312      0101 0101 
 5313               	.LASF152:
 5314 0000 4346 455F 	.string"CFE_TIME_VALID"
 5314      5449 4D45 
 5314      5F56 414C 
 5314      4944 00
 5315               	.LASF277:
 5316 000f 4E75 6D62 	.string"NumberOfSeconds"
 5316      6572 4F66 
 5316      5365 636F 
 5316      6E64 7300 
 5317               	.LASF37:
 5318 001f 5F73 7369 	.string"_ssize_t"
 5318      7A65 5F74 
 5318      00
 5319               	.LASF279:
 5320 0028 4461 7973 	.string"DaysInThisYear"
 5320      496E 5468 
 5320      6973 5965 
 5320      6172 00
 5321               	.LASF278:
 5322 0037 4E75 6D62 	.string"NumberOfMicros"
 5322      6572 4F66 
 5322      4D69 6372 
 5322      6F73 00
 5323               	.LASF139:
 5324 0046 5F5F 6C6F 	.string"__locale_t"
 5324      6361 6C65 
 5324      5F74 00
 5325               	.LASF42:
68K GAS   			page 114


 5326 0051 5F5F 7661 	.string"__value"
 5326      6C75 6500 
 5327               	.LASF140:
 5328 0059 5F5F 7366 	.string"__sf"
 5328      00
 5329               	.LASF200:
 5330 005e 5469 6D65 	.string"TimeSinceTone"
 5330      5369 6E63 
 5330      6554 6F6E 
 5330      6500 
 5331               	.LASF163:
 5332 006c 4343 5344 	.string"CCSDS_PriHdr_t"
 5332      535F 5072 
 5332      6948 6472 
 5332      5F74 00
 5333               	.LASF77:
 5334 007b 5F72 6561 	.string"_read"
 5334      6400 
 5335               	.LASF247:
 5336 0081 5065 6E64 	.string"PendingLeaps"
 5336      696E 674C 
 5336      6561 7073 
 5336      00
 5337               	.LASF215:
 5338 008e 4F6E 6548 	.string"OneHzAdjust"
 5338      7A41 646A 
 5338      7573 7400 
 5339               	.LASF78:
 5340 009a 5F77 7269 	.string"_write"
 5340      7465 00
 5341               	.LASF160:
 5342 00a1 5374 7265 	.string"StreamId"
 5342      616D 4964 
 5342      00
 5343               	.LASF119:
 5344 00aa 5F61 7363 	.string"_asctime_buf"
 5344      7469 6D65 
 5344      5F62 7566 
 5344      00
 5345               	.LASF241:
 5346 00b7 4D73 6750 	.string"MsgPtr"
 5346      7472 00
 5347               	.LASF104:
 5348 00be 5F63 7674 	.string"_cvtlen"
 5348      6C65 6E00 
 5349               	.LASF151:
 5350 00c6 4346 455F 	.string"CFE_TIME_INVALID"
 5350      5449 4D45 
 5350      5F49 4E56 
 5350      414C 4944 
 5350      00
 5351               	.LASF184:
 5352 00d7 436D 6443 	.string"CmdCounter"
 5352      6F75 6E74 
 5352      6572 00
 5353               	.LASF31:
 5354 00e2 5F4D 7574 	.string"_Mutex_Control"
68K GAS   			page 115


 5354      6578 5F43 
 5354      6F6E 7472 
 5354      6F6C 00
 5355               	.LASF258:
 5356 00f1 4C6F 6361 	.string"LocalSemaphore"
 5356      6C53 656D 
 5356      6170 686F 
 5356      7265 00
 5357               	.LASF143:
 5358 0100 5F67 6C6F 	.string"_global_atexit"
 5358      6261 6C5F 
 5358      6174 6578 
 5358      6974 00
 5359               	.LASF244:
 5360 010f 5069 7065 	.string"PipeDepth"
 5360      4465 7074 
 5360      6800 
 5361               	.LASF11:
 5362 0119 7569 6E74 	.string"uint32"
 5362      3332 00
 5363               	.LASF138:
 5364 0120 5F75 6E75 	.string"_unused"
 5364      7365 6400 
 5365               	.LASF51:
 5366 0128 5F5F 746D 	.string"__tm"
 5366      00
 5367               	.LASF134:
 5368 012d 5F77 6373 	.string"_wcsrtombs_state"
 5368      7274 6F6D 
 5368      6273 5F73 
 5368      7461 7465 
 5368      00
 5369               	.LASF82:
 5370 013e 5F6E 6275 	.string"_nbuf"
 5370      6600 
 5371               	.LASF52:
 5372 0144 5F5F 746D 	.string"__tm_sec"
 5372      5F73 6563 
 5372      00
 5373               	.LASF30:
 5374 014d 5F54 6872 	.string"_Thread_Control"
 5374      6561 645F 
 5374      436F 6E74 
 5374      726F 6C00 
 5375               	.LASF127:
 5376 015d 5F6C 3634 	.string"_l64a_buf"
 5376      615F 6275 
 5376      6600 
 5377               	.LASF211:
 5378 0167 4F6E 6554 	.string"OneTimeDirection"
 5378      696D 6544 
 5378      6972 6563 
 5378      7469 6F6E 
 5378      00
 5379               	.LASF276:
 5380 0178 4E75 6D62 	.string"NumberOfMinutes"
 5380      6572 4F66 
68K GAS   			page 116


 5380      4D69 6E75 
 5380      7465 7300 
 5381               	.LASF290:
 5382 0188 4346 455F 	.string"CFE_TIME_Compare"
 5382      5449 4D45 
 5382      5F43 6F6D 
 5382      7061 7265 
 5382      00
 5383               	.LASF307:
 5384 0199 7374 6174 	.string"state"
 5384      6500 
 5385               	.LASF91:
 5386 019f 5F73 7464 	.string"_stdin"
 5386      696E 00
 5387               	.LASF79:
 5388 01a6 5F73 6565 	.string"_seek"
 5388      6B00 
 5389               	.LASF308:
 5390 01ac 4346 455F 	.string"CFE_TIME_MET2SCTime"
 5390      5449 4D45 
 5390      5F4D 4554 
 5390      3253 4354 
 5390      696D 6500 
 5391               	.LASF263:
 5392 01c0 5379 6E63 	.string"SynchCallback"
 5392      6843 616C 
 5392      6C62 6163 
 5392      6B00 
 5393               	.LASF115:
 5394 01ce 5F6D 756C 	.string"_mult"
 5394      7400 
 5395               	.LASF311:
 5396 01d4 5449 4154 	.string"TIATime"
 5396      696D 6500 
 5397               	.LASF186:
 5398 01dc 436C 6F63 	.string"ClockStateFlags"
 5398      6B53 7461 
 5398      7465 466C 
 5398      6167 7300 
 5399               	.LASF39:
 5400 01ec 5F5F 7763 	.string"__wch"
 5400      6800 
 5401               	.LASF198:
 5402 01f2 4174 546F 	.string"AtToneDelay"
 5402      6E65 4465 
 5402      6C61 7900 
 5403               	.LASF74:
 5404 01fe 5F66 696C 	.string"_file"
 5404      6500 
 5405               	.LASF297:
 5406 0204 4346 455F 	.string"CFE_TIME_Add"
 5406      5449 4D45 
 5406      5F41 6464 
 5406      00
 5407               	.LASF61:
 5408 0211 5F6F 6E5F 	.string"_on_exit_args"
 5408      6578 6974 
68K GAS   			page 117


 5408      5F61 7267 
 5408      7300 
 5409               	.LASF301:
 5410 021f 4346 455F 	.string"CFE_TIME_GetMET"
 5410      5449 4D45 
 5410      5F47 6574 
 5410      4D45 5400 
 5411               	.LASF214:
 5412 022f 4F6E 6554 	.string"OneTimeAdjust"
 5412      696D 6541 
 5412      646A 7573 
 5412      7400 
 5413               	.LASF310:
 5414 023d 5354 4346 	.string"STCF"
 5414      00
 5415               	.LASF130:
 5416 0242 5F6D 6272 	.string"_mbrlen_state"
 5416      6C65 6E5F 
 5416      7374 6174 
 5416      6500 
 5417               	.LASF6:
 5418 0250 6C6F 6E67 	.string"long int"
 5418      2069 6E74 
 5418      00
 5419               	.LASF193:
 5420 0259 5365 636F 	.string"Seconds1HzAdj"
 5420      6E64 7331 
 5420      487A 4164 
 5420      6A00 
 5421               	.LASF141:
 5422 0267 5F69 6D70 	.string"_impure_ptr"
 5422      7572 655F 
 5422      7074 7200 
 5423               	.LASF101:
 5424 0273 5F72 6573 	.string"_result_k"
 5424      756C 745F 
 5424      6B00 
 5425               	.LASF179:
 5426 027d 4174 546F 	.string"AtToneLeaps"
 5426      6E65 4C65 
 5426      6170 7300 
 5427               	.LASF71:
 5428 0289 5F73 697A 	.string"_size"
 5428      6500 
 5429               	.LASF120:
 5430 028f 5F6C 6F63 	.string"_localtime_buf"
 5430      616C 7469 
 5430      6D65 5F62 
 5430      7566 00
 5431               	.LASF231:
 5432 029e 4D61 784C 	.string"MaxLocalClock"
 5432      6F63 616C 
 5432      436C 6F63 
 5432      6B00 
 5433               	.LASF169:
 5434 02ac 5072 696F 	.string"Priority"
 5434      7269 7479 
68K GAS   			page 118


 5434      00
 5435               	.LASF172:
 5436 02b5 4346 455F 	.string"CFE_SB_Default_Qos"
 5436      5342 5F44 
 5436      6566 6175 
 5436      6C74 5F51 
 5436      6F73 00
 5437               	.LASF56:
 5438 02c8 5F5F 746D 	.string"__tm_mon"
 5438      5F6D 6F6E 
 5438      00
 5439               	.LASF203:
 5440 02d1 4375 7272 	.string"CurrentTAI"
 5440      656E 7454 
 5440      4149 00
 5441               	.LASF245:
 5442 02dc 5065 6E64 	.string"PendingMET"
 5442      696E 674D 
 5442      4554 00
 5443               	.LASF243:
 5444 02e7 5069 7065 	.string"PipeName"
 5444      4E61 6D65 
 5444      00
 5445               	.LASF293:
 5446 02f0 5265 7375 	.string"Result"
 5446      6C74 00
 5447               	.LASF196:
 5448 02f7 546C 6D48 	.string"TlmHeader"
 5448      6561 6465 
 5448      7200 
 5449               	.LASF265:
 5450 0301 4346 455F 	.string"CFE_TIME_TaskData"
 5450      5449 4D45 
 5450      5F54 6173 
 5450      6B44 6174 
 5450      6100 
 5451               	.LASF191:
 5452 0313 5365 636F 	.string"SecondsSTCF"
 5452      6E64 7353 
 5452      5443 4600 
 5453               	.LASF117:
 5454 031f 5F75 6E75 	.string"_unused_rand"
 5454      7365 645F 
 5454      7261 6E64 
 5454      00
 5455               	.LASF1:
 5456 032c 7369 676E 	.string"signed char"
 5456      6564 2063 
 5456      6861 7200 
 5457               	.LASF187:
 5458 0338 436C 6F63 	.string"ClockStateAPI"
 5458      6B53 7461 
 5458      7465 4150 
 5458      4900 
 5459               	.LASF14:
 5460 0346 626F 6F6C 	.string"boolean"
 5460      6561 6E00 
68K GAS   			page 119


 5461               	.LASF166:
 5462 034e 4346 455F 	.string"CFE_SB_Msg_t"
 5462      5342 5F4D 
 5462      7367 5F74 
 5462      00
 5463               	.LASF182:
 5464 035b 5061 796C 	.string"Payload"
 5464      6F61 6400 
 5465               	.LASF29:
 5466 0363 5F54 6872 	.string"_Thread_queue_Heads"
 5466      6561 645F 
 5466      7175 6575 
 5466      655F 4865 
 5466      6164 7300 
 5467               	.LASF302:
 5468 0377 4346 455F 	.string"CFE_TIME_GetSTCF"
 5468      5449 4D45 
 5468      5F47 6574 
 5468      5354 4346 
 5468      00
 5469               	.LASF0:
 5470 0388 756E 7369 	.string"unsigned char"
 5470      676E 6564 
 5470      2063 6861 
 5470      7200 
 5471               	.LASF260:
 5472 0396 4C6F 6361 	.string"LocalTaskID"
 5472      6C54 6173 
 5472      6B49 4400 
 5473               	.LASF313:
 5474 03a2 4346 455F 	.string"CFE_TIME_GetUTC"
 5474      5449 4D45 
 5474      5F47 6574 
 5474      5554 4300 
 5475               	.LASF96:
 5476 03b2 5F75 6E73 	.string"_unspecified_locale_info"
 5476      7065 6369 
 5476      6669 6564 
 5476      5F6C 6F63 
 5476      616C 655F 
 5477               	.LASF89:
 5478 03cb 5F72 6565 	.string"_reent"
 5478      6E74 00
 5479               	.LASF142:
 5480 03d2 5F67 6C6F 	.string"_global_impure_ptr"
 5480      6261 6C5F 
 5480      696D 7075 
 5480      7265 5F70 
 5480      7472 00
 5481               	.LASF235:
 5482 03e5 4346 455F 	.string"CFE_TIME_DiagPacket_Payload_t"
 5482      5449 4D45 
 5482      5F44 6961 
 5482      6750 6163 
 5482      6B65 745F 
 5483               	.LASF157:
 5484 0403 4346 455F 	.string"CFE_TIME_A_GT_B"
68K GAS   			page 120


 5484      5449 4D45 
 5484      5F41 5F47 
 5484      545F 4200 
 5485               	.LASF216:
 5486 0413 546F 6E65 	.string"ToneSignalLatch"
 5486      5369 676E 
 5486      616C 4C61 
 5486      7463 6800 
 5487               	.LASF286:
 5488 0423 4346 455F 	.string"CFE_TIME_Micro2SubSecs"
 5488      5449 4D45 
 5488      5F4D 6963 
 5488      726F 3253 
 5488      7562 5365 
 5489               	.LASF317:
 5490 043a 4375 7272 	.string"CurrentTime"
 5490      656E 7454 
 5490      696D 6500 
 5491               	.LASF24:
 5492 0446 5F54 6872 	.string"_Thread_queue_Queue"
 5492      6561 645F 
 5492      7175 6575 
 5492      655F 5175 
 5492      6575 6500 
 5493               	.LASF176:
 5494 045a 4346 455F 	.string"CFE_TIME_FakeToneCmd_t"
 5494      5449 4D45 
 5494      5F46 616B 
 5494      6554 6F6E 
 5494      6543 6D64 
 5495               	.LASF15:
 5496 0471 6368 6172 	.string"char"
 5496      00
 5497               	.LASF68:
 5498 0476 5F66 6E73 	.string"_fns"
 5498      00
 5499               	.LASF153:
 5500 047b 4346 455F 	.string"CFE_TIME_FLYWHEEL"
 5500      5449 4D45 
 5500      5F46 4C59 
 5500      5748 4545 
 5500      4C00 
 5501               	.LASF80:
 5502 048d 5F63 6C6F 	.string"_close"
 5502      7365 00
 5503               	.LASF156:
 5504 0494 4346 455F 	.string"CFE_TIME_EQUAL"
 5504      5449 4D45 
 5504      5F45 5155 
 5504      414C 00
 5505               	.LASF190:
 5506 04a3 5375 6273 	.string"SubsecsMET"
 5506      6563 734D 
 5506      4554 00
 5507               	.LASF303:
 5508 04ae 4346 455F 	.string"CFE_TIME_GetLeapSeconds"
 5508      5449 4D45 
68K GAS   			page 121


 5508      5F47 6574 
 5508      4C65 6170 
 5508      5365 636F 
 5509               	.LASF264:
 5510 04c6 4346 455F 	.string"CFE_TIME_TaskData_t"
 5510      5449 4D45 
 5510      5F54 6173 
 5510      6B44 6174 
 5510      615F 7400 
 5511               	.LASF220:
 5512 04da 546F 6E65 	.string"ToneSignalCount"
 5512      5369 676E 
 5512      616C 436F 
 5512      756E 7400 
 5513               	.LASF270:
 5514 04ea 4361 6C6C 	.string"CallbackFuncPtr"
 5514      6261 636B 
 5514      4675 6E63 
 5514      5074 7200 
 5515               	.LASF249:
 5516 04fa 496E 7465 	.string"InternalCount"
 5516      726E 616C 
 5516      436F 756E 
 5516      7400 
 5517               	.LASF23:
 5518 0508 5F54 6963 	.string"_Ticket_lock_Control"
 5518      6B65 745F 
 5518      6C6F 636B 
 5518      5F43 6F6E 
 5518      7472 6F6C 
 5519               	.LASF173:
 5520 051d 436D 6448 	.string"CmdHeader"
 5520      6561 6465 
 5520      7200 
 5521               	.LASF148:
 5522 0527 5365 636F 	.string"Seconds"
 5522      6E64 7300 
 5523               	.LASF164:
 5524 052f 4477 6F72 	.string"Dword"
 5524      6400 
 5525               	.LASF262:
 5526 0535 4D61 7844 	.string"MaxDelta"
 5526      656C 7461 
 5526      00
 5527               	.LASF225:
 5528 053e 5665 7273 	.string"VersionCount"
 5528      696F 6E43 
 5528      6F75 6E74 
 5528      00
 5529               	.LASF280:
 5530 054b 5374 696C 	.string"StillCountingYears"
 5530      6C43 6F75 
 5530      6E74 696E 
 5530      6759 6561 
 5530      7273 00
 5531               	.LASF27:
 5532 055e 5F6F 776E 	.string"_owner"
68K GAS   			page 122


 5532      6572 00
 5533               	.LASF242:
 5534 0565 436D 6450 	.string"CmdPipe"
 5534      6970 6500 
 5535               	.LASF287:
 5536 056d 4D69 6372 	.string"MicroSeconds"
 5536      6F53 6563 
 5536      6F6E 6473 
 5536      00
 5537               	.LASF233:
 5538 057a 546F 6E65 	.string"ToneUnderLimit"
 5538      556E 6465 
 5538      724C 696D 
 5538      6974 00
 5539               	.LASF177:
 5540 0589 4174 546F 	.string"AtToneMET"
 5540      6E65 4D45 
 5540      5400 
 5541               	.LASF226:
 5542 0593 4C6F 6361 	.string"LocalIntCount"
 5542      6C49 6E74 
 5542      436F 756E 
 5542      7400 
 5543               	.LASF185:
 5544 05a1 4572 7243 	.string"ErrCounter"
 5544      6F75 6E74 
 5544      6572 00
 5545               	.LASF299:
 5546 05ac 5265 6665 	.string"Reference"
 5546      7265 6E63 
 5546      6500 
 5547               	.LASF224:
 5548 05b6 546F 6E65 	.string"ToneTaskCount"
 5548      5461 736B 
 5548      436F 756E 
 5548      7400 
 5549               	.LASF147:
 5550 05c4 5F74 7A6E 	.string"_tzname"
 5550      616D 6500 
 5551               	.LASF35:
 5552 05cc 5F6E 6573 	.string"_nest_level"
 5552      745F 6C65 
 5552      7665 6C00 
 5553               	.LASF208:
 5554 05d8 436C 6F63 	.string"ClockSignal"
 5554      6B53 6967 
 5554      6E61 6C00 
 5555               	.LASF316:
 5556 05e4 4346 455F 	.string"CFE_TIME_GetTime"
 5556      5449 4D45 
 5556      5F47 6574 
 5556      5469 6D65 
 5556      00
 5557               	.LASF76:
 5558 05f5 5F63 6F6F 	.string"_cookie"
 5558      6B69 6500 
 5559               	.LASF304:
68K GAS   			page 123


 5560 05fd 4346 455F 	.string"CFE_TIME_GetClockInfo"
 5560      5449 4D45 
 5560      5F47 6574 
 5560      436C 6F63 
 5560      6B49 6E66 
 5561               	.LASF50:
 5562 0613 5F77 6473 	.string"_wds"
 5562      00
 5563               	.LASF207:
 5564 0618 436C 6F63 	.string"ClockSource"
 5564      6B53 6F75 
 5564      7263 6500 
 5565               	.LASF206:
 5566 0624 436C 6F63 	.string"ClockFlyState"
 5566      6B46 6C79 
 5566      5374 6174 
 5566      6500 
 5567               	.LASF288:
 5568 0632 5375 6253 	.string"SubSeconds"
 5568      6563 6F6E 
 5568      6473 00
 5569               	.LASF107:
 5570 063d 5F73 6967 	.string"_sig_func"
 5570      5F66 756E 
 5570      6300 
 5571               	.LASF84:
 5572 0647 5F6F 6666 	.string"_offset"
 5572      7365 7400 
 5573               	.LASF105:
 5574 064f 5F63 7674 	.string"_cvtbuf"
 5574      6275 6600 
 5575               	.LASF232:
 5576 0657 546F 6E65 	.string"ToneOverLimit"
 5576      4F76 6572 
 5576      4C69 6D69 
 5576      7400 
 5577               	.LASF20:
 5578 0665 5F6E 6578 	.string"_next_ticket"
 5578      745F 7469 
 5578      636B 6574 
 5578      00
 5579               	.LASF274:
 5580 0672 4E75 6D62 	.string"NumberOfDays"
 5580      6572 4F66 
 5580      4461 7973 
 5580      00
 5581               	.LASF292:
 5582 067f 5469 6D65 	.string"TimeB"
 5582      4200 
 5583               	.LASF159:
 5584 0685 4346 455F 	.string"CFE_TIME_SynchCallbackPtr_t"
 5584      5449 4D45 
 5584      5F53 796E 
 5584      6368 4361 
 5584      6C6C 6261 
 5585               	.LASF154:
 5586 06a1 4346 455F 	.string"CFE_TIME_ClockState_t"
68K GAS   			page 124


 5586      5449 4D45 
 5586      5F43 6C6F 
 5586      636B 5374 
 5586      6174 655F 
 5587               	.LASF314:
 5588 06b7 4346 455F 	.string"CFE_TIME_GetTAI"
 5588      5449 4D45 
 5588      5F47 6574 
 5588      5441 4900 
 5589               	.LASF102:
 5590 06c7 5F70 3573 	.string"_p5s"
 5590      00
 5591               	.LASF12:
 5592 06cc 6C6F 6E67 	.string"long unsigned int"
 5592      2075 6E73 
 5592      6967 6E65 
 5592      6420 696E 
 5592      7400 
 5593               	.LASF256:
 5594 06de 546F 6E65 	.string"ToneDataCmd"
 5594      4461 7461 
 5594      436D 6400 
 5595               	.LASF267:
 5596 06ea 4170 7049 	.string"AppId"
 5596      6400 
 5597               	.LASF281:
 5598 06f0 4346 455F 	.string"CFE_TIME_FS2CFESeconds"
 5598      5449 4D45 
 5598      5F46 5332 
 5598      4346 4553 
 5598      6563 6F6E 
 5599               	.LASF72:
 5600 0707 5F5F 7346 	.string"__sFILE"
 5600      494C 4500 
 5601               	.LASF98:
 5602 070f 5F5F 7364 	.string"__sdidinit"
 5602      6964 696E 
 5602      6974 00
 5603               	.LASF88:
 5604 071a 5F66 6C61 	.string"_flags2"
 5604      6773 3200 
 5605               	.LASF275:
 5606 0722 4E75 6D62 	.string"NumberOfHours"
 5606      6572 4F66 
 5606      486F 7572 
 5606      7300 
 5607               	.LASF178:
 5608 0730 4174 546F 	.string"AtToneSTCF"
 5608      6E65 5354 
 5608      4346 00
 5609               	.LASF36:
 5610 073b 5F4C 4F43 	.string"_LOCK_RECURSIVE_T"
 5610      4B5F 5245 
 5610      4355 5253 
 5610      4956 455F 
 5610      5400 
 5611               	.LASF194:
68K GAS   			page 125


 5612 074d 5375 6273 	.string"Subsecs1HzAdj"
 5612      6563 7331 
 5612      487A 4164 
 5612      6A00 
 5613               	.LASF90:
 5614 075b 5F65 7272 	.string"_errno"
 5614      6E6F 00
 5615               	.LASF128:
 5616 0762 5F73 6967 	.string"_signal_buf"
 5616      6E61 6C5F 
 5616      6275 6600 
 5617               	.LASF46:
 5618 076e 5F42 6967 	.string"_Bigint"
 5618      696E 7400 
 5619               	.LASF246:
 5620 0776 5065 6E64 	.string"PendingSTCF"
 5620      696E 6753 
 5620      5443 4600 
 5621               	.LASF48:
 5622 0782 5F6D 6178 	.string"_maxwds"
 5622      7764 7300 
 5623               	.LASF99:
 5624 078a 5F5F 636C 	.string"__cleanup"
 5624      6561 6E75 
 5624      7000 
 5625               	.LASF259:
 5626 0794 546F 6E65 	.string"ToneSemaphore"
 5626      5365 6D61 
 5626      7068 6F72 
 5626      6500 
 5627               	.LASF238:
 5628 07a2 4346 455F 	.string"CFE_TIME_SynchCallbackRegEntry_t"
 5628      5449 4D45 
 5628      5F53 796E 
 5628      6368 4361 
 5628      6C6C 6261 
 5629               	.LASF266:
 5630 07c3 5374 6174 	.string"Status"
 5630      7573 00
 5631               	.LASF188:
 5632 07ca 4C65 6170 	.string"LeapSeconds"
 5632      5365 636F 
 5632      6E64 7300 
 5633               	.LASF95:
 5634 07d6 5F65 6D65 	.string"_emergency"
 5634      7267 656E 
 5634      6379 00
 5635               	.LASF7:
 5636 07e1 6C6F 6E67 	.string"long long int"
 5636      206C 6F6E 
 5636      6720 696E 
 5636      7400 
 5637               	.LASF183:
 5638 07ef 4346 455F 	.string"CFE_TIME_ToneDataCmd_t"
 5638      5449 4D45 
 5638      5F54 6F6E 
 5638      6544 6174 
68K GAS   			page 126


 5638      6143 6D64 
 5639               	.LASF218:
 5640 0806 546F 6E65 	.string"ToneMatchCount"
 5640      4D61 7463 
 5640      6843 6F75 
 5640      6E74 00
 5641               	.LASF111:
 5642 0815 5F6E 696F 	.string"_niobs"
 5642      6273 00
 5643               	.LASF257:
 5644 081c 546F 6E65 	.string"ToneSignalCmd"
 5644      5369 676E 
 5644      616C 436D 
 5644      6400 
 5645               	.LASF108:
 5646 082a 5F5F 7367 	.string"__sglue"
 5646      6C75 6500 
 5647               	.LASF209:
 5648 0832 5365 7276 	.string"ServerFlyState"
 5648      6572 466C 
 5648      7953 7461 
 5648      7465 00
 5649               	.LASF137:
 5650 0841 5F6E 6D61 	.string"_nmalloc"
 5650      6C6C 6F63 
 5650      00
 5651               	.LASF121:
 5652 084a 5F67 616D 	.string"_gamma_signgam"
 5652      6D61 5F73 
 5652      6967 6E67 
 5652      616D 00
 5653               	.LASF103:
 5654 0859 5F66 7265 	.string"_freelist"
 5654      656C 6973 
 5654      7400 
 5655               	.LASF112:
 5656 0863 5F69 6F62 	.string"_iobs"
 5656      7300 
 5657               	.LASF174:
 5658 0869 4346 455F 	.string"CFE_TIME_1HzCmd_t"
 5658      5449 4D45 
 5658      5F31 487A 
 5658      436D 645F 
 5658      7400 
 5659               	.LASF110:
 5660 087b 5F67 6C75 	.string"_glue"
 5660      6500 
 5661               	.LASF49:
 5662 0881 5F73 6967 	.string"_sign"
 5662      6E00 
 5663               	.LASF272:
 5664 0887 5469 6D65 	.string"TimeToPrint"
 5664      546F 5072 
 5664      696E 7400 
 5665               	.LASF228:
 5666 0893 5669 7274 	.string"VirtualMET"
 5666      7561 6C4D 
68K GAS   			page 127


 5666      4554 00
 5667               	.LASF22:
 5668 089e 756E 7369 	.string"unsigned int"
 5668      676E 6564 
 5668      2069 6E74 
 5668      00
 5669               	.LASF145:
 5670 08ab 5F74 696D 	.string"_timezone"
 5670      657A 6F6E 
 5670      6500 
 5671               	.LASF135:
 5672 08b5 5F68 5F65 	.string"_h_errno"
 5672      7272 6E6F 
 5672      00
 5673               	.LASF133:
 5674 08be 5F77 6372 	.string"_wcrtomb_state"
 5674      746F 6D62 
 5674      5F73 7461 
 5674      7465 00
 5675               	.LASF251:
 5676 08cd 4175 746F 	.string"AutoStartFly"
 5676      5374 6172 
 5676      7446 6C79 
 5676      00
 5677               	.LASF55:
 5678 08da 5F5F 746D 	.string"__tm_mday"
 5678      5F6D 6461 
 5678      7900 
 5679               	.LASF106:
 5680 08e4 5F6E 6577 	.string"_new"
 5680      00
 5681               	.LASF28:
 5682 08e9 5F6E 616D 	.string"_name"
 5682      6500 
 5683               	.LASF81:
 5684 08ef 5F75 6275 	.string"_ubuf"
 5684      6600 
 5685               	.LASF170:
 5686 08f5 5265 6C69 	.string"Reliability"
 5686      6162 696C 
 5686      6974 7900 
 5687               	.LASF93:
 5688 0901 5F73 7464 	.string"_stderr"
 5688      6572 7200 
 5689               	.LASF126:
 5690 0909 5F77 6374 	.string"_wctomb_state"
 5690      6F6D 625F 
 5690      7374 6174 
 5690      6500 
 5691               	.LASF87:
 5692 0917 5F6D 6273 	.string"_mbstate"
 5692      7461 7465 
 5692      00
 5693               	.LASF122:
 5694 0920 5F72 616E 	.string"_rand_next"
 5694      645F 6E65 
 5694      7874 00
68K GAS   			page 128


 5695               	.LASF73:
 5696 092b 5F66 6C61 	.string"_flags"
 5696      6773 00
 5697               	.LASF66:
 5698 0932 5F61 7465 	.string"_atexit"
 5698      7869 7400 
 5699               	.LASF149:
 5700 093a 5375 6273 	.string"Subseconds"
 5700      6563 6F6E 
 5700      6473 00
 5701               	.LASF195:
 5702 0945 4346 455F 	.string"CFE_TIME_HkPacket_Payload_t"
 5702      5449 4D45 
 5702      5F48 6B50 
 5702      6163 6B65 
 5702      745F 5061 
 5703               	.LASF41:
 5704 0961 5F5F 636F 	.string"__count"
 5704      756E 7400 
 5705               	.LASF253:
 5706 0969 5370 6172 	.string"Spare"
 5706      6500 
 5707               	.LASF197:
 5708 096f 4346 455F 	.string"CFE_TIME_HkPacket_t"
 5708      5449 4D45 
 5708      5F48 6B50 
 5708      6163 6B65 
 5708      745F 7400 
 5709               	.LASF175:
 5710 0983 4346 455F 	.string"CFE_TIME_ToneSignalCmd_t"
 5710      5449 4D45 
 5710      5F54 6F6E 
 5710      6553 6967 
 5710      6E61 6C43 
 5711               	.LASF58:
 5712 099c 5F5F 746D 	.string"__tm_wday"
 5712      5F77 6461 
 5712      7900 
 5713               	.LASF283:
 5714 09a6 436F 6E76 	.string"ConvertFactor"
 5714      6572 7446 
 5714      6163 746F 
 5714      7200 
 5715               	.LASF248:
 5716 09b4 5065 6E64 	.string"PendingState"
 5716      696E 6753 
 5716      7461 7465 
 5716      00
 5717               	.LASF165:
 5718 09c1 4279 7465 	.string"Byte"
 5718      00
 5719               	.LASF17:
 5720 09c6 6C6F 6E67 	.string"long double"
 5720      2064 6F75 
 5720      626C 6500 
 5721               	.LASF59:
 5722 09d2 5F5F 746D 	.string"__tm_yday"
68K GAS   			page 129


 5722      5F79 6461 
 5722      7900 
 5723               	.LASF237:
 5724 09dc 4346 455F 	.string"CFE_TIME_Reference_t"
 5724      5449 4D45 
 5724      5F52 6566 
 5724      6572 656E 
 5724      6365 5F74 
 5725               	.LASF33:
 5726 09f1 5F4D 7574 	.string"_Mutex_recursive_Control"
 5726      6578 5F72 
 5726      6563 7572 
 5726      7369 7665 
 5726      5F43 6F6E 
 5727               	.LASF26:
 5728 0a0a 5F68 6561 	.string"_heads"
 5728      6473 00
 5729               	.LASF114:
 5730 0a11 5F73 6565 	.string"_seed"
 5730      6400 
 5731               	.LASF298:
 5732 0a17 4346 455F 	.string"CFE_TIME_GetMETsubsecs"
 5732      5449 4D45 
 5732      5F47 6574 
 5732      4D45 5473 
 5732      7562 7365 
 5733               	.LASF32:
 5734 0a2e 5F51 7565 	.string"_Queue"
 5734      7565 00
 5735               	.LASF236:
 5736 0a35 4346 455F 	.string"CFE_TIME_DiagPacket_t"
 5736      5449 4D45 
 5736      5F44 6961 
 5736      6750 6163 
 5736      6B65 745F 
 5737               	.LASF254:
 5738 0a4b 4C6F 6361 	.string"Local1HzCmd"
 5738      6C31 487A 
 5738      436D 6400 
 5739               	.LASF19:
 5740 0a57 5F66 706F 	.string"_fpos_t"
 5740      735F 7400 
 5741               	.LASF40:
 5742 0a5f 5F5F 7763 	.string"__wchb"
 5742      6862 00
 5743               	.LASF125:
 5744 0a66 5F6D 6274 	.string"_mbtowc_state"
 5744      6F77 635F 
 5744      7374 6174 
 5744      6500 
 5745               	.LASF219:
 5746 0a74 546F 6E65 	.string"ToneMatchErrors"
 5746      4D61 7463 
 5746      6845 7272 
 5746      6F72 7300 
 5747               	.LASF13:
 5748 0a84 6C6F 6E67 	.string"long long unsigned int"
68K GAS   			page 130


 5748      206C 6F6E 
 5748      6720 756E 
 5748      7369 676E 
 5748      6564 2069 
 5749               	.LASF217:
 5750 0a9b 546F 6E65 	.string"ToneDataLatch"
 5750      4461 7461 
 5750      4C61 7463 
 5750      6800 
 5751               	.LASF285:
 5752 0aa9 4346 455F 	.string"CFE_TIME_CFE2FSSeconds"
 5752      5449 4D45 
 5752      5F43 4645 
 5752      3246 5353 
 5752      6563 6F6E 
 5753               	.LASF282:
 5754 0ac0 5365 636F 	.string"SecondsFS"
 5754      6E64 7346 
 5754      5300 
 5755               	.LASF63:
 5756 0aca 5F64 736F 	.string"_dso_handle"
 5756      5F68 616E 
 5756      646C 6500 
 5757               	.LASF113:
 5758 0ad6 5F72 616E 	.string"_rand48"
 5758      6434 3800 
 5759               	.LASF309:
 5760 0ade 4D45 5454 	.string"METTime"
 5760      696D 6500 
 5761               	.LASF92:
 5762 0ae6 5F73 7464 	.string"_stdout"
 5762      6F75 7400 
 5763               	.LASF273:
 5764 0aee 4E75 6D62 	.string"NumberOfYears"
 5764      6572 4F66 
 5764      5965 6172 
 5764      7300 
 5765               	.LASF268:
 5766 0afc 4346 455F 	.string"CFE_TIME_UnregisterSynchCallback"
 5766      5449 4D45 
 5766      5F55 6E72 
 5766      6567 6973 
 5766      7465 7253 
 5767               	.LASF83:
 5768 0b1d 5F62 6C6B 	.string"_blksize"
 5768      7369 7A65 
 5768      00
 5769               	.LASF70:
 5770 0b26 5F62 6173 	.string"_base"
 5770      6500 
 5771               	.LASF221:
 5772 0b2c 546F 6E65 	.string"ToneDataCount"
 5772      4461 7461 
 5772      436F 756E 
 5772      7400 
 5773               	.LASF118:
 5774 0b3a 5F73 7472 	.string"_strtok_last"
68K GAS   			page 131


 5774      746F 6B5F 
 5774      6C61 7374 
 5774      00
 5775               	.LASF131:
 5776 0b47 5F6D 6272 	.string"_mbrtowc_state"
 5776      746F 7763 
 5776      5F73 7461 
 5776      7465 00
 5777               	.LASF202:
 5778 0b56 4375 7272 	.string"CurrentMET"
 5778      656E 744D 
 5778      4554 00
 5779               	.LASF44:
 5780 0b61 5F66 6C6F 	.string"_flock_t"
 5780      636B 5F74 
 5780      00
 5781               	.LASF227:
 5782 0b6a 4C6F 6361 	.string"LocalTaskCount"
 5782      6C54 6173 
 5782      6B43 6F75 
 5782      6E74 00
 5783               	.LASF109:
 5784 0b79 5F5F 4649 	.string"__FILE"
 5784      4C45 00
 5785               	.LASF86:
 5786 0b80 5F6C 6F63 	.string"_lock"
 5786      6B00 
 5787               	.LASF43:
 5788 0b86 5F6D 6273 	.string"_mbstate_t"
 5788      7461 7465 
 5788      5F74 00
 5789               	.LASF223:
 5790 0b91 546F 6E65 	.string"ToneIntErrors"
 5790      496E 7445 
 5790      7272 6F72 
 5790      7300 
 5791               	.LASF123:
 5792 0b9f 5F72 3438 	.string"_r48"
 5792      00
 5793               	.LASF162:
 5794 0ba4 4C65 6E67 	.string"Length"
 5794      7468 00
 5795               	.LASF38:
 5796 0bab 7769 6E74 	.string"wint_t"
 5796      5F74 00
 5797               	.LASF2:
 5798 0bb2 6F73 616C 	.string"osalbool"
 5798      626F 6F6C 
 5798      00
 5799               	.LASF47:
 5800 0bbb 5F6E 6578 	.string"_next"
 5800      7400 
 5801               	.LASF85:
 5802 0bc1 5F64 6174 	.string"_data"
 5802      6100 
 5803               	.LASF181:
 5804 0bc7 4346 455F 	.string"CFE_TIME_ToneDataCmd_Payload_t"
68K GAS   			page 132


 5804      5449 4D45 
 5804      5F54 6F6E 
 5804      6544 6174 
 5804      6143 6D64 
 5805               	.LASF294:
 5806 0be6 4346 455F 	.string"CFE_TIME_Subtract"
 5806      5449 4D45 
 5806      5F53 7562 
 5806      7472 6163 
 5806      7400 
 5807               	.LASF315:
 5808 0bf8 4346 455F 	.string"CFE_TIME_Print"
 5808      5449 4D45 
 5808      5F50 7269 
 5808      6E74 00
 5809               	.LASF180:
 5810 0c07 4174 546F 	.string"AtToneState"
 5810      6E65 5374 
 5810      6174 6500 
 5811               	.LASF252:
 5812 0c13 4973 546F 	.string"IsToneGood"
 5812      6E65 476F 
 5812      6F64 00
 5813               	.LASF261:
 5814 0c1e 546F 6E65 	.string"ToneTaskID"
 5814      5461 736B 
 5814      4944 00
 5815               	.LASF155:
 5816 0c29 4346 455F 	.string"CFE_TIME_A_LT_B"
 5816      5449 4D45 
 5816      5F41 5F4C 
 5816      545F 4200 
 5817               	.LASF167:
 5818 0c39 4346 455F 	.string"CFE_SB_PipeId_t"
 5818      5342 5F50 
 5818      6970 6549 
 5818      645F 7400 
 5819               	.LASF230:
 5820 0c49 4D61 7845 	.string"MaxElapsed"
 5820      6C61 7073 
 5820      6564 00
 5821               	.LASF34:
 5822 0c54 5F4D 7574 	.string"_Mutex"
 5822      6578 00
 5823               	.LASF222:
 5824 0c5b 546F 6E65 	.string"ToneIntCount"
 5824      496E 7443 
 5824      6F75 6E74 
 5824      00
 5825               	.LASF8:
 5826 0c68 7569 6E74 	.string"uint8"
 5826      3800 
 5827               	.LASF320:
 5828 0c6e 2F68 6F6D 	.string"/home/simulink/cFS_FreeRTOS_seL4/build/cpu1/cfe/time"
 5828      652F 7369 
 5828      6D75 6C69 
 5828      6E6B 2F63 
68K GAS   			page 133


 5828      4653 5F46 
 5829               	.LASF124:
 5830 0ca3 5F6D 626C 	.string"_mblen_state"
 5830      656E 5F73 
 5830      7461 7465 
 5830      00
 5831               	.LASF4:
 5832 0cb0 7368 6F72 	.string"short int"
 5832      7420 696E 
 5832      7400 
 5833               	.LASF234:
 5834 0cba 4461 7461 	.string"DataStoreStatus"
 5834      5374 6F72 
 5834      6553 7461 
 5834      7475 7300 
 5835               	.LASF271:
 5836 0cca 5072 696E 	.string"PrintBuffer"
 5836      7442 7566 
 5836      6665 7200 
 5837               	.LASF144:
 5838 0cd6 7375 626F 	.string"suboptarg"
 5838      7074 6172 
 5838      6700 
 5839               	.LASF204:
 5840 0ce0 4375 7272 	.string"CurrentUTC"
 5840      656E 7455 
 5840      5443 00
 5841               	.LASF319:
 5842 0ceb 2F68 6F6D 	.string"/home/simulink/cFS_FreeRTOS_seL4/cfe/fsw/cfe-core/src/time/cfe_time_api.c"
 5842      652F 7369 
 5842      6D75 6C69 
 5842      6E6B 2F63 
 5842      4653 5F46 
 5843               	.LASF64:
 5844 0d35 5F66 6E74 	.string"_fntypes"
 5844      7970 6573 
 5844      00
 5845               	.LASF57:
 5846 0d3e 5F5F 746D 	.string"__tm_year"
 5846      5F79 6561 
 5846      7200 
 5847               	.LASF250:
 5848 0d48 4578 7465 	.string"ExternalCount"
 5848      726E 616C 
 5848      436F 756E 
 5848      7400 
 5849               	.LASF201:
 5850 0d56 4375 7272 	.string"CurrentLatch"
 5850      656E 744C 
 5850      6174 6368 
 5850      00
 5851               	.LASF300:
 5852 0d63 4346 455F 	.string"CFE_TIME_GetMETseconds"
 5852      5449 4D45 
 5852      5F47 6574 
 5852      4D45 5473 
 5852      6563 6F6E 
68K GAS   			page 134


 5853               	.LASF75:
 5854 0d7a 5F6C 6266 	.string"_lbfsize"
 5854      7369 7A65 
 5854      00
 5855               	.LASF94:
 5856 0d83 5F69 6E63 	.string"_inc"
 5856      00
 5857               	.LASF67:
 5858 0d88 5F69 6E64 	.string"_ind"
 5858      00
 5859               	.LASF229:
 5860 0d8d 4D69 6E45 	.string"MinElapsed"
 5860      6C61 7073 
 5860      6564 00
 5861               	.LASF16:
 5862 0d98 5F5F 696E 	.string"__int64_t"
 5862      7436 345F 
 5862      7400 
 5863               	.LASF3:
 5864 0da2 696E 7431 	.string"int16"
 5864      3600 
 5865               	.LASF69:
 5866 0da8 5F5F 7362 	.string"__sbuf"
 5866      7566 00
 5867               	.LASF65:
 5868 0daf 5F69 735F 	.string"_is_cxa"
 5868      6378 6100 
 5869               	.LASF150:
 5870 0db7 4346 455F 	.string"CFE_TIME_SysTime_t"
 5870      5449 4D45 
 5870      5F53 7973 
 5870      5469 6D65 
 5870      5F74 00
 5871               	.LASF136:
 5872 0dca 5F6E 6578 	.string"_nextf"
 5872      7466 00
 5873               	.LASF189:
 5874 0dd1 5365 636F 	.string"SecondsMET"
 5874      6E64 734D 
 5874      4554 00
 5875               	.LASF306:
 5876 0ddc 4346 455F 	.string"CFE_TIME_GetClockState"
 5876      5449 4D45 
 5876      5F47 6574 
 5876      436C 6F63 
 5876      6B53 7461 
 5877               	.LASF205:
 5878 0df3 436C 6F63 	.string"ClockSetState"
 5878      6B53 6574 
 5878      5374 6174 
 5878      6500 
 5879               	.LASF284:
 5880 0e01 5365 636F 	.string"SecondsCFE"
 5880      6E64 7343 
 5880      4645 00
 5881               	.LASF97:
 5882 0e0c 5F6C 6F63 	.string"_locale"
68K GAS   			page 135


 5882      616C 6500 
 5883               	.LASF45:
 5884 0e14 5F5F 554C 	.string"__ULong"
 5884      6F6E 6700 
 5885               	.LASF210:
 5886 0e1c 466F 7263 	.string"Forced2Fly"
 5886      6564 3246 
 5886      6C79 00
 5887               	.LASF295:
 5888 0e27 5469 6D65 	.string"Time1"
 5888      3100 
 5889               	.LASF296:
 5890 0e2d 5469 6D65 	.string"Time2"
 5890      3200 
 5891               	.LASF291:
 5892 0e33 5469 6D65 	.string"TimeA"
 5892      4100 
 5893               	.LASF100:
 5894 0e39 5F72 6573 	.string"_result"
 5894      756C 7400 
 5895               	.LASF25:
 5896 0e41 5F4C 6F63 	.string"_Lock"
 5896      6B00 
 5897               	.LASF21:
 5898 0e47 5F6E 6F77 	.string"_now_serving"
 5898      5F73 6572 
 5898      7669 6E67 
 5898      00
 5899               	.LASF212:
 5900 0e54 4F6E 6548 	.string"OneHzDirection"
 5900      7A44 6972 
 5900      6563 7469 
 5900      6F6E 00
 5901               	.LASF240:
 5902 0e63 4469 6167 	.string"DiagPacket"
 5902      5061 636B 
 5902      6574 00
 5903               	.LASF192:
 5904 0e6e 5375 6273 	.string"SubsecsSTCF"
 5904      6563 7353 
 5904      5443 4600 
 5905               	.LASF239:
 5906 0e7a 486B 5061 	.string"HkPacket"
 5906      636B 6574 
 5906      00
 5907               	.LASF18:
 5908 0e83 5F6F 6666 	.string"_off_t"
 5908      5F74 00
 5909               	.LASF116:
 5910 0e8a 5F61 6464 	.string"_add"
 5910      00
 5911               	.LASF318:
 5912 0e8f 474E 5520 	.string"GNU C11 7.3.0 20180125 (RTEMS 5, RSB d2b25d131d55adcb38219f2cd8cbec2436ee78ab, Newlib 3.0.0) -malign-int -mcpu=528x -g -O0 -fomit-frame-pointer"
 5912      4331 3120 
 5912      372E 332E 
 5912      3020 3230 
 5912      3138 3031 
68K GAS   			page 136


 5913               	.LASF10:
 5914 0f1f 7368 6F72 	.string"short unsigned int"
 5914      7420 756E 
 5914      7369 676E 
 5914      6564 2069 
 5914      6E74 00
 5915               	.LASF54:
 5916 0f32 5F5F 746D 	.string"__tm_hour"
 5916      5F68 6F75 
 5916      7200 
 5917               	.LASF255:
 5918 0f3c 4661 6B65 	.string"FakeToneCmd"
 5918      546F 6E65 
 5918      436D 6400 
 5919               	.LASF5:
 5920 0f48 696E 7433 	.string"int32"
 5920      3200 
 5921               	.LASF161:
 5922 0f4e 5365 7175 	.string"Sequence"
 5922      656E 6365 
 5922      00
 5923               	.LASF132:
 5924 0f57 5F6D 6273 	.string"_mbsrtowcs_state"
 5924      7274 6F77 
 5924      6373 5F73 
 5924      7461 7465 
 5924      00
 5925               	.LASF305:
 5926 0f68 5374 6174 	.string"StateFlags"
 5926      6546 6C61 
 5926      6773 00
 5927               	.LASF312:
 5928 0f73 5265 7475 	.string"ReturnTime"
 5928      726E 5469 
 5928      6D65 00
 5929               	.LASF158:
 5930 0f7e 4346 455F 	.string"CFE_TIME_Compare_t"
 5930      5449 4D45 
 5930      5F43 6F6D 
 5930      7061 7265 
 5930      5F74 00
 5931               	.LASF269:
 5932 0f91 4346 455F 	.string"CFE_TIME_RegisterSynchCallback"
 5932      5449 4D45 
 5932      5F52 6567 
 5932      6973 7465 
 5932      7253 796E 
 5933               	.LASF62:
 5934 0fb0 5F66 6E61 	.string"_fnargs"
 5934      7267 7300 
 5935               	.LASF60:
 5936 0fb8 5F5F 746D 	.string"__tm_isdst"
 5936      5F69 7364 
 5936      7374 00
 5937               	.LASF321:
 5938 0fc3 4346 455F 	.string"CFE_TIME_ExternalTone"
 5938      5449 4D45 
68K GAS   			page 137


 5938      5F45 7874 
 5938      6572 6E61 
 5938      6C54 6F6E 
 5939               	.LASF213:
 5940 0fd9 4465 6C61 	.string"DelayDirection"
 5940      7944 6972 
 5940      6563 7469 
 5940      6F6E 00
 5941               	.LASF146:
 5942 0fe8 5F64 6179 	.string"_daylight"
 5942      6C69 6768 
 5942      7400 
 5943               	.LASF168:
 5944 0ff2 4346 455F 	.string"CFE_SB_MsgPtr_t"
 5944      5342 5F4D 
 5944      7367 5074 
 5944      725F 7400 
 5945               	.LASF53:
 5946 1002 5F5F 746D 	.string"__tm_min"
 5946      5F6D 696E 
 5946      00
 5947               	.LASF9:
 5948 100b 7569 6E74 	.string"uint16"
 5948      3136 00
 5949               	.LASF129:
 5950 1012 5F67 6574 	.string"_getdate_err"
 5950      6461 7465 
 5950      5F65 7272 
 5950      00
 5951               	.LASF171:
 5952 101f 4346 455F 	.string"CFE_SB_Qos_t"
 5952      5342 5F51 
 5952      6F73 5F74 
 5952      00
 5953               	.LASF289:
 5954 102c 4346 455F 	.string"CFE_TIME_Sub2MicroSecs"
 5954      5449 4D45 
 5954      5F53 7562 
 5954      324D 6963 
 5954      726F 5365 
 5955               	.LASF199:
 5956 1043 4174 546F 	.string"AtToneLatch"
 5956      6E65 4C61 
 5956      7463 6800 
 5957               	.ident"GCC: (GNU) 7.3.0 20180125 (RTEMS 5, RSB d2b25d131d55adcb38219f2cd8cbec2436ee78ab, Newlib 3.0.0)"
68K GAS   			page 138


DEFINED SYMBOLS
                            *ABS*:0000000000000000 cfe_time_api.c
    {standard input}:9      .text:0000000000000000 CFE_TIME_GetTime
    {standard input}:32     .text:0000000000000018 CFE_TIME_GetTAI
    {standard input}:80     .text:0000000000000064 CFE_TIME_GetUTC
    {standard input}:128    .text:00000000000000b0 CFE_TIME_MET2SCTime
    {standard input}:383    .text:0000000000000294 CFE_TIME_GetSTCF
    {standard input}:529    .text:000000000000035c CFE_TIME_Add
    {standard input}:167    .text:00000000000000fe CFE_TIME_GetClockState
    {standard input}:212    .text:0000000000000140 CFE_TIME_GetClockInfo
    {standard input}:347    .text:0000000000000264 CFE_TIME_GetLeapSeconds
    {standard input}:420    .text:00000000000002c8 CFE_TIME_GetMET
    {standard input}:457    .text:00000000000002fc CFE_TIME_GetMETseconds
    {standard input}:493    .text:000000000000032c CFE_TIME_GetMETsubsecs
    {standard input}:571    .text:000000000000039e CFE_TIME_Subtract
    {standard input}:623    .text:00000000000003f6 CFE_TIME_Compare
    {standard input}:713    .text:0000000000000494 CFE_TIME_Sub2MicroSecs
    {standard input}:764    .text:00000000000004e6 CFE_TIME_Micro2SubSecs
    {standard input}:816    .text:0000000000000548 CFE_TIME_CFE2FSSeconds
    {standard input}:851    .text:0000000000000576 CFE_TIME_FS2CFESeconds
    {standard input}:882    .text:000000000000059e CFE_TIME_Print
    {standard input}:1323   .text:0000000000000a64 CFE_TIME_ExternalTone
    {standard input}:1339   .text:0000000000000a6e CFE_TIME_RegisterSynchCallback
    {standard input}:1408   .text:0000000000000ae2 CFE_TIME_UnregisterSynchCallback

UNDEFINED SYMBOLS
CFE_PSP_MemSet
CFE_TIME_GetReference
CFE_TIME_CalculateTAI
CFE_TIME_CalculateUTC
CFE_TIME_CalculateState
CFE_TIME_TaskData
CFE_TIME_Tone1HzISR
CFE_ES_GetAppID
