68K GAS   			page 1


   1               	
   2               	.file"cfe_time_utils.c"
   3               	.text
   4               	.Ltext0:
   5               	.cfi_sections.debug_frame
   6               	.align2
   7               	.globlCFE_TIME_LatchClock
   8               	.typeCFE_TIME_LatchClock, @function
   9               	CFE_TIME_LatchClock:
  10               	.LFB59:
  11               	.file 1 "/home/simulink/cFS_FreeRTOS_seL4/cfe/fsw/cfe-core/src/time/cfe_time_utils.c"
   1:/home/simulink/cFS_FreeRTOS_seL4/cfe/fsw/cfe-core/src/time/cfe_time_utils.c **** /*
   2:/home/simulink/cFS_FreeRTOS_seL4/cfe/fsw/cfe-core/src/time/cfe_time_utils.c **** ** $Id: cfe_time_utils.c 1.10 2012/10/01 16:37:48GMT-05:00 aschoeni Exp  $
   3:/home/simulink/cFS_FreeRTOS_seL4/cfe/fsw/cfe-core/src/time/cfe_time_utils.c **** **
   4:/home/simulink/cFS_FreeRTOS_seL4/cfe/fsw/cfe-core/src/time/cfe_time_utils.c **** **
   5:/home/simulink/cFS_FreeRTOS_seL4/cfe/fsw/cfe-core/src/time/cfe_time_utils.c **** **      Copyright (c) 2004-2012, United States government as represented by the 
   6:/home/simulink/cFS_FreeRTOS_seL4/cfe/fsw/cfe-core/src/time/cfe_time_utils.c **** **      administrator of the National Aeronautics Space Administration.  
   7:/home/simulink/cFS_FreeRTOS_seL4/cfe/fsw/cfe-core/src/time/cfe_time_utils.c **** **      All rights reserved. This software(cFE) was created at NASA's Goddard 
   8:/home/simulink/cFS_FreeRTOS_seL4/cfe/fsw/cfe-core/src/time/cfe_time_utils.c **** **      Space Flight Center pursuant to government contracts.
   9:/home/simulink/cFS_FreeRTOS_seL4/cfe/fsw/cfe-core/src/time/cfe_time_utils.c **** **
  10:/home/simulink/cFS_FreeRTOS_seL4/cfe/fsw/cfe-core/src/time/cfe_time_utils.c **** **      This is governed by the NASA Open Source Agreement and may be used, 
  11:/home/simulink/cFS_FreeRTOS_seL4/cfe/fsw/cfe-core/src/time/cfe_time_utils.c **** **      distributed and modified only pursuant to the terms of that agreement.
  12:/home/simulink/cFS_FreeRTOS_seL4/cfe/fsw/cfe-core/src/time/cfe_time_utils.c **** ** 
  13:/home/simulink/cFS_FreeRTOS_seL4/cfe/fsw/cfe-core/src/time/cfe_time_utils.c **** **
  14:/home/simulink/cFS_FreeRTOS_seL4/cfe/fsw/cfe-core/src/time/cfe_time_utils.c **** **
  15:/home/simulink/cFS_FreeRTOS_seL4/cfe/fsw/cfe-core/src/time/cfe_time_utils.c **** **
  16:/home/simulink/cFS_FreeRTOS_seL4/cfe/fsw/cfe-core/src/time/cfe_time_utils.c **** ** Purpose:  cFE Time Services (TIME) library utilities source file
  17:/home/simulink/cFS_FreeRTOS_seL4/cfe/fsw/cfe-core/src/time/cfe_time_utils.c **** **
  18:/home/simulink/cFS_FreeRTOS_seL4/cfe/fsw/cfe-core/src/time/cfe_time_utils.c **** ** Author:   S.Walling/Microtel
  19:/home/simulink/cFS_FreeRTOS_seL4/cfe/fsw/cfe-core/src/time/cfe_time_utils.c **** **
  20:/home/simulink/cFS_FreeRTOS_seL4/cfe/fsw/cfe-core/src/time/cfe_time_utils.c **** ** Notes:
  21:/home/simulink/cFS_FreeRTOS_seL4/cfe/fsw/cfe-core/src/time/cfe_time_utils.c **** **
  22:/home/simulink/cFS_FreeRTOS_seL4/cfe/fsw/cfe-core/src/time/cfe_time_utils.c **** ** $Log: cfe_time_utils.c  $
  23:/home/simulink/cFS_FreeRTOS_seL4/cfe/fsw/cfe-core/src/time/cfe_time_utils.c **** ** Revision 1.10 2012/10/01 16:37:48GMT-05:00 aschoeni 
  24:/home/simulink/cFS_FreeRTOS_seL4/cfe/fsw/cfe-core/src/time/cfe_time_utils.c **** ** removed relative path in include (handle in makefile)
  25:/home/simulink/cFS_FreeRTOS_seL4/cfe/fsw/cfe-core/src/time/cfe_time_utils.c **** ** Revision 1.9 2012/01/13 12:21:36EST acudmore 
  26:/home/simulink/cFS_FreeRTOS_seL4/cfe/fsw/cfe-core/src/time/cfe_time_utils.c **** ** Changed license text to reflect open source
  27:/home/simulink/cFS_FreeRTOS_seL4/cfe/fsw/cfe-core/src/time/cfe_time_utils.c **** ** Revision 1.8 2011/12/07 19:20:04EST aschoeni 
  28:/home/simulink/cFS_FreeRTOS_seL4/cfe/fsw/cfe-core/src/time/cfe_time_utils.c **** ** Removed returns for TIME and SB for cleaning up apps
  29:/home/simulink/cFS_FreeRTOS_seL4/cfe/fsw/cfe-core/src/time/cfe_time_utils.c **** ** Revision 1.7 2011/11/30 15:10:06EST jmdagost 
  30:/home/simulink/cFS_FreeRTOS_seL4/cfe/fsw/cfe-core/src/time/cfe_time_utils.c **** ** Replaced ifdef/ifndef preprocessor tests with if...==TRUE/if...!=TRUE tests
  31:/home/simulink/cFS_FreeRTOS_seL4/cfe/fsw/cfe-core/src/time/cfe_time_utils.c **** ** Revision 1.6 2011/01/18 16:05:51EST lwalling 
  32:/home/simulink/cFS_FreeRTOS_seL4/cfe/fsw/cfe-core/src/time/cfe_time_utils.c **** ** Make sending 1hz command packet a configuration option
  33:/home/simulink/cFS_FreeRTOS_seL4/cfe/fsw/cfe-core/src/time/cfe_time_utils.c **** ** Revision 1.5 2010/10/25 15:00:06EDT jmdagost 
  34:/home/simulink/cFS_FreeRTOS_seL4/cfe/fsw/cfe-core/src/time/cfe_time_utils.c **** ** Corrected bad apostrophe in prologue.
  35:/home/simulink/cFS_FreeRTOS_seL4/cfe/fsw/cfe-core/src/time/cfe_time_utils.c **** ** Revision 1.4 2010/10/04 15:16:16EDT jmdagost 
  36:/home/simulink/cFS_FreeRTOS_seL4/cfe/fsw/cfe-core/src/time/cfe_time_utils.c **** ** Cleaned up copyright symbol.
  37:/home/simulink/cFS_FreeRTOS_seL4/cfe/fsw/cfe-core/src/time/cfe_time_utils.c **** ** Revision 1.3 2009/06/10 09:23:10EDT acudmore 
  38:/home/simulink/cFS_FreeRTOS_seL4/cfe/fsw/cfe-core/src/time/cfe_time_utils.c **** ** Changed OS_Mem* and OS_BSP* calls to CFE_PSP_* calls
  39:/home/simulink/cFS_FreeRTOS_seL4/cfe/fsw/cfe-core/src/time/cfe_time_utils.c **** ** Revision 1.2 2008/08/06 22:42:26EDT dkobe 
  40:/home/simulink/cFS_FreeRTOS_seL4/cfe/fsw/cfe-core/src/time/cfe_time_utils.c **** ** Added CFE_TIME_RegisterSynchCallback, CFE_TIME_UnregisterSynchCallback and CFE_TIME_CleanUpApp
  41:/home/simulink/cFS_FreeRTOS_seL4/cfe/fsw/cfe-core/src/time/cfe_time_utils.c **** ** Revision 1.1 2008/04/17 08:05:39EDT ruperera 
  42:/home/simulink/cFS_FreeRTOS_seL4/cfe/fsw/cfe-core/src/time/cfe_time_utils.c **** ** Initial revision
  43:/home/simulink/cFS_FreeRTOS_seL4/cfe/fsw/cfe-core/src/time/cfe_time_utils.c **** ** Member added to project c:/MKSDATA/MKS-REPOSITORY/MKS-CFE-PROJECT/fsw/cfe-core/src/time/project.
  44:/home/simulink/cFS_FreeRTOS_seL4/cfe/fsw/cfe-core/src/time/cfe_time_utils.c **** ** Revision 1.16 2007/04/27 12:31:06EDT njyanchik 
  45:/home/simulink/cFS_FreeRTOS_seL4/cfe/fsw/cfe-core/src/time/cfe_time_utils.c **** ** I changed EVS and TIME to not have a telemetry counter for SB pipe reads in the main loop. 
  46:/home/simulink/cFS_FreeRTOS_seL4/cfe/fsw/cfe-core/src/time/cfe_time_utils.c **** ** Instead, I have added a syslog message to state the problem
68K GAS   			page 2


  47:/home/simulink/cFS_FreeRTOS_seL4/cfe/fsw/cfe-core/src/time/cfe_time_utils.c **** ** Revision 1.15 2007/04/24 08:59:05EDT njyanchik 
  48:/home/simulink/cFS_FreeRTOS_seL4/cfe/fsw/cfe-core/src/time/cfe_time_utils.c **** ** I added the changes tha LRO requested. They are specified in the DCR text.
  49:/home/simulink/cFS_FreeRTOS_seL4/cfe/fsw/cfe-core/src/time/cfe_time_utils.c **** ** Revision 1.14 2007/04/11 11:02:10EDT njyanchik 
  50:/home/simulink/cFS_FreeRTOS_seL4/cfe/fsw/cfe-core/src/time/cfe_time_utils.c **** ** Remove the TaskDelay in the main loop for TIME. I also addeda counterin telemtry that will
  51:/home/simulink/cFS_FreeRTOS_seL4/cfe/fsw/cfe-core/src/time/cfe_time_utils.c **** ** notify the ground of an error in reading the command pipe.
  52:/home/simulink/cFS_FreeRTOS_seL4/cfe/fsw/cfe-core/src/time/cfe_time_utils.c **** ** Revision 1.13 2007/04/04 08:14:54EDT njyanchik 
  53:/home/simulink/cFS_FreeRTOS_seL4/cfe/fsw/cfe-core/src/time/cfe_time_utils.c **** ** In DCR 3190, two API's were changed in the OSAL for locking out interrupts. This change package
  54:/home/simulink/cFS_FreeRTOS_seL4/cfe/fsw/cfe-core/src/time/cfe_time_utils.c **** ** changes TIME's and ES's use of those APIs
  55:/home/simulink/cFS_FreeRTOS_seL4/cfe/fsw/cfe-core/src/time/cfe_time_utils.c **** ** Revision 1.12 2007/03/15 11:16:47EST njyanchik 
  56:/home/simulink/cFS_FreeRTOS_seL4/cfe/fsw/cfe-core/src/time/cfe_time_utils.c **** ** I changed the interrupt enable/disable pair to use a lock key that records the previous state
  57:/home/simulink/cFS_FreeRTOS_seL4/cfe/fsw/cfe-core/src/time/cfe_time_utils.c **** ** of the interrupts before disabling, and then use that key to re-enable the interrupts.
  58:/home/simulink/cFS_FreeRTOS_seL4/cfe/fsw/cfe-core/src/time/cfe_time_utils.c **** ** The CFE core applications that use this pair were also fixed for this API change.
  59:/home/simulink/cFS_FreeRTOS_seL4/cfe/fsw/cfe-core/src/time/cfe_time_utils.c **** ** Revision 1.11 2006/11/01 11:33:20EST njyanchik 
  60:/home/simulink/cFS_FreeRTOS_seL4/cfe/fsw/cfe-core/src/time/cfe_time_utils.c **** ** This change removes any references to the CDS in TIME. TIME now uses  the ES
  61:/home/simulink/cFS_FreeRTOS_seL4/cfe/fsw/cfe-core/src/time/cfe_time_utils.c **** ** Reset Area to store its critial variables. this was due to an issue of trying to call
  62:/home/simulink/cFS_FreeRTOS_seL4/cfe/fsw/cfe-core/src/time/cfe_time_utils.c **** ** CDS functions before apps were registered (in the EarlyInit call).
  63:/home/simulink/cFS_FreeRTOS_seL4/cfe/fsw/cfe-core/src/time/cfe_time_utils.c **** ** Revision 1.10 2006/10/30 14:09:29GMT-05:00 njyanchik 
  64:/home/simulink/cFS_FreeRTOS_seL4/cfe/fsw/cfe-core/src/time/cfe_time_utils.c **** ** I changed TIME to use the new ES_CDS implementation. This involved using the 
  65:/home/simulink/cFS_FreeRTOS_seL4/cfe/fsw/cfe-core/src/time/cfe_time_utils.c **** ** new functions, as well as modifying the CFE_TIME_TaskData structure as well as
  66:/home/simulink/cFS_FreeRTOS_seL4/cfe/fsw/cfe-core/src/time/cfe_time_utils.c **** ** the CFE_TIME_DiagPacket structure. They both made reference to the address
  67:/home/simulink/cFS_FreeRTOS_seL4/cfe/fsw/cfe-core/src/time/cfe_time_utils.c **** ** of the TIME CDS (the old implementation). Now they both use the new
  68:/home/simulink/cFS_FreeRTOS_seL4/cfe/fsw/cfe-core/src/time/cfe_time_utils.c **** ** CFE_ES_CDSHandle_t. Also, the Unit Test for Time was updated. No new paths
  69:/home/simulink/cFS_FreeRTOS_seL4/cfe/fsw/cfe-core/src/time/cfe_time_utils.c **** ** through the code were created, but since return codes from the CDS functions
  70:/home/simulink/cFS_FreeRTOS_seL4/cfe/fsw/cfe-core/src/time/cfe_time_utils.c **** ** changed, there needed to be updates to the UT.
  71:/home/simulink/cFS_FreeRTOS_seL4/cfe/fsw/cfe-core/src/time/cfe_time_utils.c **** ** Revision 1.9 2006/10/30 12:36:01GMT-05:00 dlkobe 
  72:/home/simulink/cFS_FreeRTOS_seL4/cfe/fsw/cfe-core/src/time/cfe_time_utils.c **** */
  73:/home/simulink/cFS_FreeRTOS_seL4/cfe/fsw/cfe-core/src/time/cfe_time_utils.c **** 
  74:/home/simulink/cFS_FreeRTOS_seL4/cfe/fsw/cfe-core/src/time/cfe_time_utils.c **** /*
  75:/home/simulink/cFS_FreeRTOS_seL4/cfe/fsw/cfe-core/src/time/cfe_time_utils.c **** ** Required header files...
  76:/home/simulink/cFS_FreeRTOS_seL4/cfe/fsw/cfe-core/src/time/cfe_time_utils.c **** */
  77:/home/simulink/cFS_FreeRTOS_seL4/cfe/fsw/cfe-core/src/time/cfe_time_utils.c **** #include "cfe_time_utils.h"
  78:/home/simulink/cFS_FreeRTOS_seL4/cfe/fsw/cfe-core/src/time/cfe_time_utils.c **** 
  79:/home/simulink/cFS_FreeRTOS_seL4/cfe/fsw/cfe-core/src/time/cfe_time_utils.c **** #include "private/cfe_es_resetdata_typedef.h"
  80:/home/simulink/cFS_FreeRTOS_seL4/cfe/fsw/cfe-core/src/time/cfe_time_utils.c **** 
  81:/home/simulink/cFS_FreeRTOS_seL4/cfe/fsw/cfe-core/src/time/cfe_time_utils.c **** #include <string.h>
  82:/home/simulink/cFS_FreeRTOS_seL4/cfe/fsw/cfe-core/src/time/cfe_time_utils.c **** 
  83:/home/simulink/cFS_FreeRTOS_seL4/cfe/fsw/cfe-core/src/time/cfe_time_utils.c **** 
  84:/home/simulink/cFS_FreeRTOS_seL4/cfe/fsw/cfe-core/src/time/cfe_time_utils.c **** 
  85:/home/simulink/cFS_FreeRTOS_seL4/cfe/fsw/cfe-core/src/time/cfe_time_utils.c **** /* * * * * * * * * * * * * * * * * * * * * * * * * * * * * * * * * */
  86:/home/simulink/cFS_FreeRTOS_seL4/cfe/fsw/cfe-core/src/time/cfe_time_utils.c **** /*                                                                 */
  87:/home/simulink/cFS_FreeRTOS_seL4/cfe/fsw/cfe-core/src/time/cfe_time_utils.c **** /* CFE_TIME_LatchClock() -- query local clock                      */
  88:/home/simulink/cFS_FreeRTOS_seL4/cfe/fsw/cfe-core/src/time/cfe_time_utils.c **** /*                                                                 */
  89:/home/simulink/cFS_FreeRTOS_seL4/cfe/fsw/cfe-core/src/time/cfe_time_utils.c **** /* * * * * * * * * * * * * * * * * * * * * * * * * * * * * * * * * */
  90:/home/simulink/cFS_FreeRTOS_seL4/cfe/fsw/cfe-core/src/time/cfe_time_utils.c **** 
  91:/home/simulink/cFS_FreeRTOS_seL4/cfe/fsw/cfe-core/src/time/cfe_time_utils.c **** CFE_TIME_SysTime_t CFE_TIME_LatchClock(void)
  92:/home/simulink/cFS_FreeRTOS_seL4/cfe/fsw/cfe-core/src/time/cfe_time_utils.c **** {
  12               	.loc 1 92 0
  13               	.cfi_startproc
  14 0000 4FEF FFF0 	lea (-16,%sp),%sp
  15               	.cfi_def_cfa_offset 20
  93:/home/simulink/cFS_FreeRTOS_seL4/cfe/fsw/cfe-core/src/time/cfe_time_utils.c ****     CFE_TIME_SysTime_t LatchTime;
  94:/home/simulink/cFS_FreeRTOS_seL4/cfe/fsw/cfe-core/src/time/cfe_time_utils.c ****     OS_time_t LocalTime;
  95:/home/simulink/cFS_FreeRTOS_seL4/cfe/fsw/cfe-core/src/time/cfe_time_utils.c **** 
  96:/home/simulink/cFS_FreeRTOS_seL4/cfe/fsw/cfe-core/src/time/cfe_time_utils.c ****     /*
  97:/home/simulink/cFS_FreeRTOS_seL4/cfe/fsw/cfe-core/src/time/cfe_time_utils.c ****     ** Get time in O/S format (seconds : microseconds)...
  98:/home/simulink/cFS_FreeRTOS_seL4/cfe/fsw/cfe-core/src/time/cfe_time_utils.c ****     */
  99:/home/simulink/cFS_FreeRTOS_seL4/cfe/fsw/cfe-core/src/time/cfe_time_utils.c ****     CFE_PSP_GetTime(&LocalTime);
68K GAS   			page 3


  16               	.loc 1 99 0
  17 0004 200F      	move.l %sp,%d0
  18 0006 2F00      	move.l %d0,-(%sp)
  19               	.cfi_def_cfa_offset 24
  20 0008 4EB9 0000 	jsr CFE_PSP_GetTime
  20      0000 
  21 000e 588F      	addq.l #4,%sp
  22               	.cfi_def_cfa_offset 20
 100:/home/simulink/cFS_FreeRTOS_seL4/cfe/fsw/cfe-core/src/time/cfe_time_utils.c **** 
 101:/home/simulink/cFS_FreeRTOS_seL4/cfe/fsw/cfe-core/src/time/cfe_time_utils.c ****     /*
 102:/home/simulink/cFS_FreeRTOS_seL4/cfe/fsw/cfe-core/src/time/cfe_time_utils.c ****     ** Convert time to cFE format (seconds : 1/2^32 subseconds)...
 103:/home/simulink/cFS_FreeRTOS_seL4/cfe/fsw/cfe-core/src/time/cfe_time_utils.c ****     */
 104:/home/simulink/cFS_FreeRTOS_seL4/cfe/fsw/cfe-core/src/time/cfe_time_utils.c ****     LatchTime.Seconds = LocalTime.seconds;
  23               	.loc 1 104 0
  24 0010 2017      	move.l (%sp),%d0
  25 0012 2F40 0008 	move.l %d0,8(%sp)
 105:/home/simulink/cFS_FreeRTOS_seL4/cfe/fsw/cfe-core/src/time/cfe_time_utils.c ****     LatchTime.Subseconds = CFE_TIME_Micro2SubSecs(LocalTime.microsecs);
  26               	.loc 1 105 0
  27 0016 202F 0004 	move.l 4(%sp),%d0
  28 001a 2F00      	move.l %d0,-(%sp)
  29               	.cfi_def_cfa_offset 24
  30 001c 4EB9 0000 	jsr CFE_TIME_Micro2SubSecs
  30      0000 
  31 0022 588F      	addq.l #4,%sp
  32               	.cfi_def_cfa_offset 20
  33 0024 2F40 000C 	move.l %d0,12(%sp)
 106:/home/simulink/cFS_FreeRTOS_seL4/cfe/fsw/cfe-core/src/time/cfe_time_utils.c **** 
 107:/home/simulink/cFS_FreeRTOS_seL4/cfe/fsw/cfe-core/src/time/cfe_time_utils.c ****     return(LatchTime);
  34               	.loc 1 107 0
  35 0028 202F 0008 	move.l 8(%sp),%d0
  36 002c 222F 000C 	move.l 12(%sp),%d1
 108:/home/simulink/cFS_FreeRTOS_seL4/cfe/fsw/cfe-core/src/time/cfe_time_utils.c **** 
 109:/home/simulink/cFS_FreeRTOS_seL4/cfe/fsw/cfe-core/src/time/cfe_time_utils.c **** } /* End of CFE_TIME_LatchClock() */
  37               	.loc 1 109 0
  38 0030 4FEF 0010 	lea (16,%sp),%sp
  39 0034 4E75      	rts
  40               	.cfi_endproc
  41               	.LFE59:
  42               	.sizeCFE_TIME_LatchClock, .-CFE_TIME_LatchClock
  43               	.align2
  44               	.globlCFE_TIME_QueryResetVars
  45               	.typeCFE_TIME_QueryResetVars, @function
  46               	CFE_TIME_QueryResetVars:
  47               	.LFB60:
 110:/home/simulink/cFS_FreeRTOS_seL4/cfe/fsw/cfe-core/src/time/cfe_time_utils.c **** 
 111:/home/simulink/cFS_FreeRTOS_seL4/cfe/fsw/cfe-core/src/time/cfe_time_utils.c **** 
 112:/home/simulink/cFS_FreeRTOS_seL4/cfe/fsw/cfe-core/src/time/cfe_time_utils.c **** /* * * * * * * * * * * * * * * * * * * * * * * * * * * * * * * * * */
 113:/home/simulink/cFS_FreeRTOS_seL4/cfe/fsw/cfe-core/src/time/cfe_time_utils.c **** /*                                                                 */
 114:/home/simulink/cFS_FreeRTOS_seL4/cfe/fsw/cfe-core/src/time/cfe_time_utils.c **** /* CFE_TIME_QueryResetVars() -- query contents of Reset Variables  */
 115:/home/simulink/cFS_FreeRTOS_seL4/cfe/fsw/cfe-core/src/time/cfe_time_utils.c **** /*                                                                 */
 116:/home/simulink/cFS_FreeRTOS_seL4/cfe/fsw/cfe-core/src/time/cfe_time_utils.c **** /* * * * * * * * * * * * * * * * * * * * * * * * * * * * * * * * * */
 117:/home/simulink/cFS_FreeRTOS_seL4/cfe/fsw/cfe-core/src/time/cfe_time_utils.c **** 
 118:/home/simulink/cFS_FreeRTOS_seL4/cfe/fsw/cfe-core/src/time/cfe_time_utils.c **** void CFE_TIME_QueryResetVars(void)
 119:/home/simulink/cFS_FreeRTOS_seL4/cfe/fsw/cfe-core/src/time/cfe_time_utils.c **** {
  48               	.loc 1 119 0
  49               	.cfi_startproc
  50 0036 4FEF FFC8 	lea (-56,%sp),%sp
68K GAS   			page 4


  51               	.cfi_def_cfa_offset 60
 120:/home/simulink/cFS_FreeRTOS_seL4/cfe/fsw/cfe-core/src/time/cfe_time_utils.c **** 
 121:/home/simulink/cFS_FreeRTOS_seL4/cfe/fsw/cfe-core/src/time/cfe_time_utils.c ****     CFE_TIME_ResetVars_t LocalResetVars;
 122:/home/simulink/cFS_FreeRTOS_seL4/cfe/fsw/cfe-core/src/time/cfe_time_utils.c ****     uint32 DefSubsMET;
 123:/home/simulink/cFS_FreeRTOS_seL4/cfe/fsw/cfe-core/src/time/cfe_time_utils.c ****     uint32 DefSubsSTCF;
 124:/home/simulink/cFS_FreeRTOS_seL4/cfe/fsw/cfe-core/src/time/cfe_time_utils.c ****     int32 status;
 125:/home/simulink/cFS_FreeRTOS_seL4/cfe/fsw/cfe-core/src/time/cfe_time_utils.c ****     
 126:/home/simulink/cFS_FreeRTOS_seL4/cfe/fsw/cfe-core/src/time/cfe_time_utils.c ****     uint32 resetAreaSize;
 127:/home/simulink/cFS_FreeRTOS_seL4/cfe/fsw/cfe-core/src/time/cfe_time_utils.c ****     cpuaddr resetAreaAddr;
 128:/home/simulink/cFS_FreeRTOS_seL4/cfe/fsw/cfe-core/src/time/cfe_time_utils.c ****     CFE_ES_ResetData_t  *CFE_TIME_ResetDataPtr;
 129:/home/simulink/cFS_FreeRTOS_seL4/cfe/fsw/cfe-core/src/time/cfe_time_utils.c ****    
 130:/home/simulink/cFS_FreeRTOS_seL4/cfe/fsw/cfe-core/src/time/cfe_time_utils.c ****     /*
 131:/home/simulink/cFS_FreeRTOS_seL4/cfe/fsw/cfe-core/src/time/cfe_time_utils.c ****     ** Get the pointer to the Reset area from the BSP
 132:/home/simulink/cFS_FreeRTOS_seL4/cfe/fsw/cfe-core/src/time/cfe_time_utils.c ****     */
 133:/home/simulink/cFS_FreeRTOS_seL4/cfe/fsw/cfe-core/src/time/cfe_time_utils.c ****     status = CFE_PSP_GetResetArea (&(resetAreaAddr), &(resetAreaSize));
  52               	.loc 1 133 0
  53 003a 200F      	move.l %sp,%d0
  54 003c 5880      	addq.l #4,%d0
  55 003e 2F00      	move.l %d0,-(%sp)
  56               	.cfi_def_cfa_offset 64
  57 0040 200F      	move.l %sp,%d0
  58 0042 5880      	addq.l #4,%d0
  59 0044 2F00      	move.l %d0,-(%sp)
  60               	.cfi_def_cfa_offset 68
  61 0046 4EB9 0000 	jsr CFE_PSP_GetResetArea
  61      0000 
  62 004c 508F      	addq.l #8,%sp
  63               	.cfi_def_cfa_offset 60
  64 004e 2F40 0034 	move.l %d0,52(%sp)
 134:/home/simulink/cFS_FreeRTOS_seL4/cfe/fsw/cfe-core/src/time/cfe_time_utils.c ****       
 135:/home/simulink/cFS_FreeRTOS_seL4/cfe/fsw/cfe-core/src/time/cfe_time_utils.c ****     if (status != CFE_PSP_SUCCESS)
  65               	.loc 1 135 0
  66 0052 4AAF 0034 	tst.l 52(%sp)
  67 0056 670C      	jeq .L4
 136:/home/simulink/cFS_FreeRTOS_seL4/cfe/fsw/cfe-core/src/time/cfe_time_utils.c ****     {
 137:/home/simulink/cFS_FreeRTOS_seL4/cfe/fsw/cfe-core/src/time/cfe_time_utils.c ****         /* There is something wrong with the Reset Area */
 138:/home/simulink/cFS_FreeRTOS_seL4/cfe/fsw/cfe-core/src/time/cfe_time_utils.c ****         CFE_TIME_TaskData.DataStoreStatus = CFE_TIME_RESET_AREA_BAD;
  68               	.loc 1 138 0
  69 0058 7002      	moveq #2,%d0
  70 005a 23C0 0000 	move.l %d0,CFE_TIME_TaskData+548
  70      0000 
  71 0060 6000 00DC 	jra .L5
  72               	.L4:
 139:/home/simulink/cFS_FreeRTOS_seL4/cfe/fsw/cfe-core/src/time/cfe_time_utils.c ****     }
 140:/home/simulink/cFS_FreeRTOS_seL4/cfe/fsw/cfe-core/src/time/cfe_time_utils.c ****     
 141:/home/simulink/cFS_FreeRTOS_seL4/cfe/fsw/cfe-core/src/time/cfe_time_utils.c ****     else
 142:/home/simulink/cFS_FreeRTOS_seL4/cfe/fsw/cfe-core/src/time/cfe_time_utils.c ****     {
 143:/home/simulink/cFS_FreeRTOS_seL4/cfe/fsw/cfe-core/src/time/cfe_time_utils.c ****         CFE_TIME_ResetDataPtr = (CFE_ES_ResetData_t *)resetAreaAddr;
  73               	.loc 1 143 0
  74 0064 2017      	move.l (%sp),%d0
  75 0066 2F40 0030 	move.l %d0,48(%sp)
 144:/home/simulink/cFS_FreeRTOS_seL4/cfe/fsw/cfe-core/src/time/cfe_time_utils.c ****         
 145:/home/simulink/cFS_FreeRTOS_seL4/cfe/fsw/cfe-core/src/time/cfe_time_utils.c ****         /* Get the structure from the Reset Area */
 146:/home/simulink/cFS_FreeRTOS_seL4/cfe/fsw/cfe-core/src/time/cfe_time_utils.c ****         LocalResetVars = CFE_TIME_ResetDataPtr -> TimeResetVars;
  76               	.loc 1 146 0
  77 006a 222F 0030 	move.l 48(%sp),%d1
  78 006e 203C 0001 	move.l #128476,%d0
68K GAS   			page 5


  78      F5DC 
  79 0074 2241      	move.l %d1,%a1
  80 0076 D3C0      	add.l %d0,%a1
  81 0078 41EF 0008 	lea (8,%sp),%a0
  82 007c 2091      	move.l (%a1),(%a0)
  83 007e 5888      	addq.l #4,%a0
  84 0080 5889      	addq.l #4,%a1
  85 0082 2091      	move.l (%a1),(%a0)
  86 0084 5888      	addq.l #4,%a0
  87 0086 5889      	addq.l #4,%a1
  88 0088 2091      	move.l (%a1),(%a0)
  89 008a 5888      	addq.l #4,%a0
  90 008c 5889      	addq.l #4,%a1
  91 008e 2091      	move.l (%a1),(%a0)
  92 0090 5888      	addq.l #4,%a0
  93 0092 5889      	addq.l #4,%a1
  94 0094 2091      	move.l (%a1),(%a0)
  95 0096 5888      	addq.l #4,%a0
  96 0098 5889      	addq.l #4,%a1
  97 009a 2091      	move.l (%a1),(%a0)
  98 009c 5888      	addq.l #4,%a0
  99 009e 5889      	addq.l #4,%a1
 100 00a0 2091      	move.l (%a1),(%a0)
 101 00a2 5888      	addq.l #4,%a0
 102 00a4 5889      	addq.l #4,%a1
 103 00a6 2091      	move.l (%a1),(%a0)
 104 00a8 5888      	addq.l #4,%a0
 105 00aa 5889      	addq.l #4,%a1
 147:/home/simulink/cFS_FreeRTOS_seL4/cfe/fsw/cfe-core/src/time/cfe_time_utils.c **** 
 148:/home/simulink/cFS_FreeRTOS_seL4/cfe/fsw/cfe-core/src/time/cfe_time_utils.c ****         /*
 149:/home/simulink/cFS_FreeRTOS_seL4/cfe/fsw/cfe-core/src/time/cfe_time_utils.c ****         ** Verify TIME data signature and clock signal selection...
 150:/home/simulink/cFS_FreeRTOS_seL4/cfe/fsw/cfe-core/src/time/cfe_time_utils.c ****         **    (other data fields have no verifiable limits)
 151:/home/simulink/cFS_FreeRTOS_seL4/cfe/fsw/cfe-core/src/time/cfe_time_utils.c ****         */
 152:/home/simulink/cFS_FreeRTOS_seL4/cfe/fsw/cfe-core/src/time/cfe_time_utils.c ****         if ((LocalResetVars.Signature == CFE_TIME_RESET_SIGNATURE) &&
 106               	.loc 1 152 0
 107 00ac 202F 0008 	move.l 8(%sp),%d0
 108 00b0 0C80 A5A5 	cmp.l #-1515890086,%d0
 108      5A5A 
 109 00b6 667E      	jne .L6
 153:/home/simulink/cFS_FreeRTOS_seL4/cfe/fsw/cfe-core/src/time/cfe_time_utils.c ****             ((LocalResetVars.ClockSignal == CFE_TIME_TONE_PRI) ||
 110               	.loc 1 153 0 discriminator 1
 111 00b8 302F 000E 	move.w 14(%sp),%d0
 152:/home/simulink/cFS_FreeRTOS_seL4/cfe/fsw/cfe-core/src/time/cfe_time_utils.c ****             ((LocalResetVars.ClockSignal == CFE_TIME_TONE_PRI) ||
 112               	.loc 1 152 0 discriminator 1
 113 00bc 3000      	move.w %d0,%d0
 114 00be 0280 0000 	and.l #65535,%d0
 114      FFFF 
 115 00c4 7201      	moveq #1,%d1
 116 00c6 B280      	cmp.l %d0,%d1
 117 00c8 6712      	jeq .L7
 154:/home/simulink/cFS_FreeRTOS_seL4/cfe/fsw/cfe-core/src/time/cfe_time_utils.c ****             (LocalResetVars.ClockSignal == CFE_TIME_TONE_RED)))
 118               	.loc 1 154 0
 119 00ca 302F 000E 	move.w 14(%sp),%d0
 153:/home/simulink/cFS_FreeRTOS_seL4/cfe/fsw/cfe-core/src/time/cfe_time_utils.c ****             ((LocalResetVars.ClockSignal == CFE_TIME_TONE_PRI) ||
 120               	.loc 1 153 0
 121 00ce 3000      	move.w %d0,%d0
 122 00d0 0280 0000 	and.l #65535,%d0
68K GAS   			page 6


 122      FFFF 
 123 00d6 7202      	moveq #2,%d1
 124 00d8 B280      	cmp.l %d0,%d1
 125 00da 665A      	jne .L6
 126               	.L7:
 155:/home/simulink/cFS_FreeRTOS_seL4/cfe/fsw/cfe-core/src/time/cfe_time_utils.c ****         {
 156:/home/simulink/cFS_FreeRTOS_seL4/cfe/fsw/cfe-core/src/time/cfe_time_utils.c ****             /*
 157:/home/simulink/cFS_FreeRTOS_seL4/cfe/fsw/cfe-core/src/time/cfe_time_utils.c ****             ** Initialize TIME to valid  Reset Area values...
 158:/home/simulink/cFS_FreeRTOS_seL4/cfe/fsw/cfe-core/src/time/cfe_time_utils.c ****             */
 159:/home/simulink/cFS_FreeRTOS_seL4/cfe/fsw/cfe-core/src/time/cfe_time_utils.c ****             CFE_TIME_TaskData.AtToneMET    = LocalResetVars.CurrentMET;
 127               	.loc 1 159 0
 128 00dc 202F 0010 	move.l 16(%sp),%d0
 129 00e0 222F 0014 	move.l 20(%sp),%d1
 130 00e4 23C0 0000 	move.l %d0,CFE_TIME_TaskData+284
 130      0000 
 131 00ea 23C1 0000 	move.l %d1,CFE_TIME_TaskData+288
 131      0000 
 160:/home/simulink/cFS_FreeRTOS_seL4/cfe/fsw/cfe-core/src/time/cfe_time_utils.c ****             CFE_TIME_TaskData.AtToneSTCF   = LocalResetVars.CurrentSTCF;
 132               	.loc 1 160 0
 133 00f0 202F 0018 	move.l 24(%sp),%d0
 134 00f4 222F 001C 	move.l 28(%sp),%d1
 135 00f8 23C0 0000 	move.l %d0,CFE_TIME_TaskData+292
 135      0000 
 136 00fe 23C1 0000 	move.l %d1,CFE_TIME_TaskData+296
 136      0000 
 161:/home/simulink/cFS_FreeRTOS_seL4/cfe/fsw/cfe-core/src/time/cfe_time_utils.c ****             CFE_TIME_TaskData.AtToneDelay  = LocalResetVars.CurrentDelay;
 137               	.loc 1 161 0
 138 0104 202F 0020 	move.l 32(%sp),%d0
 139 0108 222F 0024 	move.l 36(%sp),%d1
 140 010c 23C0 0000 	move.l %d0,CFE_TIME_TaskData+304
 140      0000 
 141 0112 23C1 0000 	move.l %d1,CFE_TIME_TaskData+308
 141      0000 
 162:/home/simulink/cFS_FreeRTOS_seL4/cfe/fsw/cfe-core/src/time/cfe_time_utils.c ****             CFE_TIME_TaskData.AtToneLeaps  = LocalResetVars.LeapSeconds;
 142               	.loc 1 162 0
 143 0118 302F 000C 	move.w 12(%sp),%d0
 144 011c 33C0 0000 	move.w %d0,CFE_TIME_TaskData+300
 144      0000 
 163:/home/simulink/cFS_FreeRTOS_seL4/cfe/fsw/cfe-core/src/time/cfe_time_utils.c ****             CFE_TIME_TaskData.ClockSignal  = LocalResetVars.ClockSignal;
 145               	.loc 1 163 0
 146 0122 302F 000E 	move.w 14(%sp),%d0
 147 0126 33C0 0000 	move.w %d0,CFE_TIME_TaskData+326
 147      0000 
 164:/home/simulink/cFS_FreeRTOS_seL4/cfe/fsw/cfe-core/src/time/cfe_time_utils.c **** 
 165:/home/simulink/cFS_FreeRTOS_seL4/cfe/fsw/cfe-core/src/time/cfe_time_utils.c ****             CFE_TIME_TaskData.DataStoreStatus  = CFE_TIME_RESET_AREA_EXISTING;
 148               	.loc 1 165 0
 149 012c 7204      	moveq #4,%d1
 150 012e 23C1 0000 	move.l %d1,CFE_TIME_TaskData+548
 150      0000 
 151 0134 6008      	jra .L5
 152               	.L6:
 166:/home/simulink/cFS_FreeRTOS_seL4/cfe/fsw/cfe-core/src/time/cfe_time_utils.c ****         }    
 167:/home/simulink/cFS_FreeRTOS_seL4/cfe/fsw/cfe-core/src/time/cfe_time_utils.c ****         else
 168:/home/simulink/cFS_FreeRTOS_seL4/cfe/fsw/cfe-core/src/time/cfe_time_utils.c ****         {   
 169:/home/simulink/cFS_FreeRTOS_seL4/cfe/fsw/cfe-core/src/time/cfe_time_utils.c ****             /*
 170:/home/simulink/cFS_FreeRTOS_seL4/cfe/fsw/cfe-core/src/time/cfe_time_utils.c ****             ** We got a blank area from the reset variables
 171:/home/simulink/cFS_FreeRTOS_seL4/cfe/fsw/cfe-core/src/time/cfe_time_utils.c ****             */
68K GAS   			page 7


 172:/home/simulink/cFS_FreeRTOS_seL4/cfe/fsw/cfe-core/src/time/cfe_time_utils.c ****             CFE_TIME_TaskData.DataStoreStatus  = CFE_TIME_RESET_AREA_NEW;
 153               	.loc 1 172 0
 154 0136 7003      	moveq #3,%d0
 155 0138 23C0 0000 	move.l %d0,CFE_TIME_TaskData+548
 155      0000 
 156               	.L5:
 173:/home/simulink/cFS_FreeRTOS_seL4/cfe/fsw/cfe-core/src/time/cfe_time_utils.c ****         }
 174:/home/simulink/cFS_FreeRTOS_seL4/cfe/fsw/cfe-core/src/time/cfe_time_utils.c **** 
 175:/home/simulink/cFS_FreeRTOS_seL4/cfe/fsw/cfe-core/src/time/cfe_time_utils.c ****     }
 176:/home/simulink/cFS_FreeRTOS_seL4/cfe/fsw/cfe-core/src/time/cfe_time_utils.c ****     /*
 177:/home/simulink/cFS_FreeRTOS_seL4/cfe/fsw/cfe-core/src/time/cfe_time_utils.c ****     ** Initialize TIME to default values if no valid Reset data...
 178:/home/simulink/cFS_FreeRTOS_seL4/cfe/fsw/cfe-core/src/time/cfe_time_utils.c ****     */
 179:/home/simulink/cFS_FreeRTOS_seL4/cfe/fsw/cfe-core/src/time/cfe_time_utils.c ****     if (CFE_TIME_TaskData.DataStoreStatus != CFE_TIME_RESET_AREA_EXISTING)
 157               	.loc 1 179 0
 158 013e 2039 0000 	move.l CFE_TIME_TaskData+548,%d0
 158      0000 
 159 0144 7204      	moveq #4,%d1
 160 0146 B280      	cmp.l %d0,%d1
 161 0148 6764      	jeq .L10
 180:/home/simulink/cFS_FreeRTOS_seL4/cfe/fsw/cfe-core/src/time/cfe_time_utils.c ****     {
 181:/home/simulink/cFS_FreeRTOS_seL4/cfe/fsw/cfe-core/src/time/cfe_time_utils.c ****         DefSubsMET  = CFE_TIME_Micro2SubSecs(CFE_TIME_DEF_MET_SUBS);
 162               	.loc 1 181 0
 163 014a 42A7      	clr.l -(%sp)
 164               	.cfi_def_cfa_offset 64
 165 014c 4EB9 0000 	jsr CFE_TIME_Micro2SubSecs
 165      0000 
 166 0152 588F      	addq.l #4,%sp
 167               	.cfi_def_cfa_offset 60
 168 0154 2F40 002C 	move.l %d0,44(%sp)
 182:/home/simulink/cFS_FreeRTOS_seL4/cfe/fsw/cfe-core/src/time/cfe_time_utils.c ****         DefSubsSTCF = CFE_TIME_Micro2SubSecs(CFE_TIME_DEF_STCF_SUBS);
 169               	.loc 1 182 0
 170 0158 42A7      	clr.l -(%sp)
 171               	.cfi_def_cfa_offset 64
 172 015a 4EB9 0000 	jsr CFE_TIME_Micro2SubSecs
 172      0000 
 173 0160 588F      	addq.l #4,%sp
 174               	.cfi_def_cfa_offset 60
 175 0162 2F40 0028 	move.l %d0,40(%sp)
 183:/home/simulink/cFS_FreeRTOS_seL4/cfe/fsw/cfe-core/src/time/cfe_time_utils.c **** 
 184:/home/simulink/cFS_FreeRTOS_seL4/cfe/fsw/cfe-core/src/time/cfe_time_utils.c ****         CFE_TIME_TaskData.AtToneMET.Seconds      = CFE_TIME_DEF_MET_SECS;
 176               	.loc 1 184 0
 177 0166 307C 03E8 	move.w #1000,%a0
 178 016a 23C8 0000 	move.l %a0,CFE_TIME_TaskData+284
 178      0000 
 185:/home/simulink/cFS_FreeRTOS_seL4/cfe/fsw/cfe-core/src/time/cfe_time_utils.c ****         CFE_TIME_TaskData.AtToneMET.Subseconds   = DefSubsMET;
 179               	.loc 1 185 0
 180 0170 41EF 002C 	lea (44,%sp),%a0
 181 0174 23D0 0000 	move.l (%a0),CFE_TIME_TaskData+288
 181      0000 
 186:/home/simulink/cFS_FreeRTOS_seL4/cfe/fsw/cfe-core/src/time/cfe_time_utils.c ****         CFE_TIME_TaskData.AtToneSTCF.Seconds     = CFE_TIME_DEF_STCF_SECS;
 182               	.loc 1 186 0
 183 017a 203C 000F 	move.l #1000000,%d0
 183      4240 
 184 0180 23C0 0000 	move.l %d0,CFE_TIME_TaskData+292
 184      0000 
 187:/home/simulink/cFS_FreeRTOS_seL4/cfe/fsw/cfe-core/src/time/cfe_time_utils.c ****         CFE_TIME_TaskData.AtToneSTCF.Subseconds  = DefSubsSTCF;
 185               	.loc 1 187 0
68K GAS   			page 8


 186 0186 41EF 0028 	lea (40,%sp),%a0
 187 018a 23D0 0000 	move.l (%a0),CFE_TIME_TaskData+296
 187      0000 
 188:/home/simulink/cFS_FreeRTOS_seL4/cfe/fsw/cfe-core/src/time/cfe_time_utils.c ****         CFE_TIME_TaskData.AtToneLeaps            = CFE_TIME_DEF_LEAPS;
 188               	.loc 1 188 0
 189 0190 7020      	moveq #32,%d0
 190 0192 33C0 0000 	move.w %d0,CFE_TIME_TaskData+300
 190      0000 
 189:/home/simulink/cFS_FreeRTOS_seL4/cfe/fsw/cfe-core/src/time/cfe_time_utils.c ****         CFE_TIME_TaskData.ClockSignal            = CFE_TIME_TONE_PRI;
 191               	.loc 1 189 0
 192 0198 7201      	moveq #1,%d1
 193 019a 33C1 0000 	move.w %d1,CFE_TIME_TaskData+326
 193      0000 
 190:/home/simulink/cFS_FreeRTOS_seL4/cfe/fsw/cfe-core/src/time/cfe_time_utils.c ****         CFE_TIME_TaskData.AtToneDelay.Seconds    = 0;
 194               	.loc 1 190 0
 195 01a0 42B9 0000 	clr.l CFE_TIME_TaskData+304
 195      0000 
 191:/home/simulink/cFS_FreeRTOS_seL4/cfe/fsw/cfe-core/src/time/cfe_time_utils.c ****         CFE_TIME_TaskData.AtToneDelay.Subseconds = 0;
 196               	.loc 1 191 0
 197 01a6 42B9 0000 	clr.l CFE_TIME_TaskData+308
 197      0000 
 192:/home/simulink/cFS_FreeRTOS_seL4/cfe/fsw/cfe-core/src/time/cfe_time_utils.c ****     }
 193:/home/simulink/cFS_FreeRTOS_seL4/cfe/fsw/cfe-core/src/time/cfe_time_utils.c ****     
 194:/home/simulink/cFS_FreeRTOS_seL4/cfe/fsw/cfe-core/src/time/cfe_time_utils.c ****     return;
 198               	.loc 1 194 0
 199 01ac 4E71      	nop
 200               	.L10:
 201 01ae 4E71      	nop
 195:/home/simulink/cFS_FreeRTOS_seL4/cfe/fsw/cfe-core/src/time/cfe_time_utils.c **** 
 196:/home/simulink/cFS_FreeRTOS_seL4/cfe/fsw/cfe-core/src/time/cfe_time_utils.c **** } /* End of CFE_TIME_QueryResetVars() */
 202               	.loc 1 196 0
 203 01b0 4FEF 0038 	lea (56,%sp),%sp
 204 01b4 4E75      	rts
 205               	.cfi_endproc
 206               	.LFE60:
 207               	.sizeCFE_TIME_QueryResetVars, .-CFE_TIME_QueryResetVars
 208               	.align2
 209               	.globlCFE_TIME_UpdateResetVars
 210               	.typeCFE_TIME_UpdateResetVars, @function
 211               	CFE_TIME_UpdateResetVars:
 212               	.LFB61:
 197:/home/simulink/cFS_FreeRTOS_seL4/cfe/fsw/cfe-core/src/time/cfe_time_utils.c **** 
 198:/home/simulink/cFS_FreeRTOS_seL4/cfe/fsw/cfe-core/src/time/cfe_time_utils.c **** 
 199:/home/simulink/cFS_FreeRTOS_seL4/cfe/fsw/cfe-core/src/time/cfe_time_utils.c **** /* * * * * * * * * * * * * * * * * * * * * * * * * * * * * * * * * */
 200:/home/simulink/cFS_FreeRTOS_seL4/cfe/fsw/cfe-core/src/time/cfe_time_utils.c **** /*                                                                 */
 201:/home/simulink/cFS_FreeRTOS_seL4/cfe/fsw/cfe-core/src/time/cfe_time_utils.c **** /* CFE_TIME_UpdateResetVars() -- update contents of Reset Variables*/
 202:/home/simulink/cFS_FreeRTOS_seL4/cfe/fsw/cfe-core/src/time/cfe_time_utils.c **** /*                                                                 */
 203:/home/simulink/cFS_FreeRTOS_seL4/cfe/fsw/cfe-core/src/time/cfe_time_utils.c **** /* * * * * * * * * * * * * * * * * * * * * * * * * * * * * * * * * */
 204:/home/simulink/cFS_FreeRTOS_seL4/cfe/fsw/cfe-core/src/time/cfe_time_utils.c **** 
 205:/home/simulink/cFS_FreeRTOS_seL4/cfe/fsw/cfe-core/src/time/cfe_time_utils.c **** void CFE_TIME_UpdateResetVars(const CFE_TIME_Reference_t *Reference)
 206:/home/simulink/cFS_FreeRTOS_seL4/cfe/fsw/cfe-core/src/time/cfe_time_utils.c **** {
 213               	.loc 1 206 0
 214               	.cfi_startproc
 215 01b6 4FEF FFD4 	lea (-44,%sp),%sp
 216               	.cfi_def_cfa_offset 48
 207:/home/simulink/cFS_FreeRTOS_seL4/cfe/fsw/cfe-core/src/time/cfe_time_utils.c ****     CFE_TIME_ResetVars_t LocalResetVars;
 208:/home/simulink/cFS_FreeRTOS_seL4/cfe/fsw/cfe-core/src/time/cfe_time_utils.c ****     uint32 resetAreaSize;
68K GAS   			page 9


 209:/home/simulink/cFS_FreeRTOS_seL4/cfe/fsw/cfe-core/src/time/cfe_time_utils.c ****     cpuaddr resetAreaAddr;
 210:/home/simulink/cFS_FreeRTOS_seL4/cfe/fsw/cfe-core/src/time/cfe_time_utils.c ****     CFE_ES_ResetData_t  *CFE_TIME_ResetDataPtr;
 211:/home/simulink/cFS_FreeRTOS_seL4/cfe/fsw/cfe-core/src/time/cfe_time_utils.c ****     /*
 212:/home/simulink/cFS_FreeRTOS_seL4/cfe/fsw/cfe-core/src/time/cfe_time_utils.c ****     ** Update the data only if our Reset Area is valid...
 213:/home/simulink/cFS_FreeRTOS_seL4/cfe/fsw/cfe-core/src/time/cfe_time_utils.c ****     */
 214:/home/simulink/cFS_FreeRTOS_seL4/cfe/fsw/cfe-core/src/time/cfe_time_utils.c ****     if (CFE_TIME_TaskData.DataStoreStatus != CFE_TIME_RESET_AREA_ERROR)
 217               	.loc 1 214 0
 218 01ba 2039 0000 	move.l CFE_TIME_TaskData+548,%d0
 218      0000 
 219 01c0 7201      	moveq #1,%d1
 220 01c2 B280      	cmp.l %d0,%d1
 221 01c4 6700 00C0 	jeq .L14
 215:/home/simulink/cFS_FreeRTOS_seL4/cfe/fsw/cfe-core/src/time/cfe_time_utils.c ****     {
 216:/home/simulink/cFS_FreeRTOS_seL4/cfe/fsw/cfe-core/src/time/cfe_time_utils.c ****    
 217:/home/simulink/cFS_FreeRTOS_seL4/cfe/fsw/cfe-core/src/time/cfe_time_utils.c ****         /* Store all of our critical variables to a ResetVars_t
 218:/home/simulink/cFS_FreeRTOS_seL4/cfe/fsw/cfe-core/src/time/cfe_time_utils.c ****          * then copy that to the Reset Area */
 219:/home/simulink/cFS_FreeRTOS_seL4/cfe/fsw/cfe-core/src/time/cfe_time_utils.c ****         LocalResetVars.Signature = CFE_TIME_RESET_SIGNATURE;
 222               	.loc 1 219 0
 223 01c8 203C A5A5 	move.l #-1515890086,%d0
 223      5A5A 
 224 01ce 2F40 0008 	move.l %d0,8(%sp)
 220:/home/simulink/cFS_FreeRTOS_seL4/cfe/fsw/cfe-core/src/time/cfe_time_utils.c **** 
 221:/home/simulink/cFS_FreeRTOS_seL4/cfe/fsw/cfe-core/src/time/cfe_time_utils.c ****         LocalResetVars.CurrentMET   = Reference->CurrentMET;
 225               	.loc 1 221 0
 226 01d2 206F 0030 	move.l 48(%sp),%a0
 227 01d6 2028 0038 	move.l 56(%a0),%d0
 228 01da 2228 003C 	move.l 60(%a0),%d1
 229 01de 2F40 0010 	move.l %d0,16(%sp)
 230 01e2 2F41 0014 	move.l %d1,20(%sp)
 222:/home/simulink/cFS_FreeRTOS_seL4/cfe/fsw/cfe-core/src/time/cfe_time_utils.c ****         LocalResetVars.CurrentSTCF  = Reference->AtToneSTCF;
 231               	.loc 1 222 0
 232 01e6 206F 0030 	move.l 48(%sp),%a0
 233 01ea 2028 0008 	move.l 8(%a0),%d0
 234 01ee 2228 000C 	move.l 12(%a0),%d1
 235 01f2 2F40 0018 	move.l %d0,24(%sp)
 236 01f6 2F41 001C 	move.l %d1,28(%sp)
 223:/home/simulink/cFS_FreeRTOS_seL4/cfe/fsw/cfe-core/src/time/cfe_time_utils.c ****         LocalResetVars.CurrentDelay = Reference->AtToneDelay;
 237               	.loc 1 223 0
 238 01fa 206F 0030 	move.l 48(%sp),%a0
 239 01fe 2028 0018 	move.l 24(%a0),%d0
 240 0202 2228 001C 	move.l 28(%a0),%d1
 241 0206 2F40 0020 	move.l %d0,32(%sp)
 242 020a 2F41 0024 	move.l %d1,36(%sp)
 224:/home/simulink/cFS_FreeRTOS_seL4/cfe/fsw/cfe-core/src/time/cfe_time_utils.c ****         LocalResetVars.LeapSeconds  = Reference->AtToneLeaps;
 243               	.loc 1 224 0
 244 020e 206F 0030 	move.l 48(%sp),%a0
 245 0212 3028 0010 	move.w 16(%a0),%d0
 246 0216 3F40 000C 	move.w %d0,12(%sp)
 225:/home/simulink/cFS_FreeRTOS_seL4/cfe/fsw/cfe-core/src/time/cfe_time_utils.c **** 
 226:/home/simulink/cFS_FreeRTOS_seL4/cfe/fsw/cfe-core/src/time/cfe_time_utils.c ****         LocalResetVars.ClockSignal  = CFE_TIME_TaskData.ClockSignal;
 247               	.loc 1 226 0
 248 021a 3039 0000 	move.w CFE_TIME_TaskData+326,%d0
 248      0000 
 249 0220 3F40 000E 	move.w %d0,14(%sp)
 227:/home/simulink/cFS_FreeRTOS_seL4/cfe/fsw/cfe-core/src/time/cfe_time_utils.c ****    
 228:/home/simulink/cFS_FreeRTOS_seL4/cfe/fsw/cfe-core/src/time/cfe_time_utils.c ****         /*
 229:/home/simulink/cFS_FreeRTOS_seL4/cfe/fsw/cfe-core/src/time/cfe_time_utils.c ****         ** Get the pointer to the Reset area from the BSP
68K GAS   			page 10


 230:/home/simulink/cFS_FreeRTOS_seL4/cfe/fsw/cfe-core/src/time/cfe_time_utils.c ****         */
 231:/home/simulink/cFS_FreeRTOS_seL4/cfe/fsw/cfe-core/src/time/cfe_time_utils.c ****         if (CFE_PSP_GetResetArea (&(resetAreaAddr), &(resetAreaSize)) == CFE_PSP_SUCCESS)
 250               	.loc 1 231 0
 251 0224 200F      	move.l %sp,%d0
 252 0226 5880      	addq.l #4,%d0
 253 0228 2F00      	move.l %d0,-(%sp)
 254               	.cfi_def_cfa_offset 52
 255 022a 200F      	move.l %sp,%d0
 256 022c 5880      	addq.l #4,%d0
 257 022e 2F00      	move.l %d0,-(%sp)
 258               	.cfi_def_cfa_offset 56
 259 0230 4EB9 0000 	jsr CFE_PSP_GetResetArea
 259      0000 
 260 0236 508F      	addq.l #8,%sp
 261               	.cfi_def_cfa_offset 48
 262 0238 4A80      	tst.l %d0
 263 023a 664A      	jne .L14
 232:/home/simulink/cFS_FreeRTOS_seL4/cfe/fsw/cfe-core/src/time/cfe_time_utils.c ****         {
 233:/home/simulink/cFS_FreeRTOS_seL4/cfe/fsw/cfe-core/src/time/cfe_time_utils.c ****            CFE_TIME_ResetDataPtr = (CFE_ES_ResetData_t *)resetAreaAddr;
 264               	.loc 1 233 0
 265 023c 2017      	move.l (%sp),%d0
 266 023e 2F40 0028 	move.l %d0,40(%sp)
 234:/home/simulink/cFS_FreeRTOS_seL4/cfe/fsw/cfe-core/src/time/cfe_time_utils.c ****            CFE_TIME_ResetDataPtr -> TimeResetVars = LocalResetVars;
 267               	.loc 1 234 0
 268 0242 222F 0028 	move.l 40(%sp),%d1
 269 0246 203C 0001 	move.l #128476,%d0
 269      F5DC 
 270 024c 41EF 0008 	lea (8,%sp),%a0
 271 0250 2241      	move.l %d1,%a1
 272 0252 D3C0      	add.l %d0,%a1
 273 0254 2290      	move.l (%a0),(%a1)
 274 0256 5889      	addq.l #4,%a1
 275 0258 5888      	addq.l #4,%a0
 276 025a 2290      	move.l (%a0),(%a1)
 277 025c 5889      	addq.l #4,%a1
 278 025e 5888      	addq.l #4,%a0
 279 0260 2290      	move.l (%a0),(%a1)
 280 0262 5889      	addq.l #4,%a1
 281 0264 5888      	addq.l #4,%a0
 282 0266 2290      	move.l (%a0),(%a1)
 283 0268 5889      	addq.l #4,%a1
 284 026a 5888      	addq.l #4,%a0
 285 026c 2290      	move.l (%a0),(%a1)
 286 026e 5889      	addq.l #4,%a1
 287 0270 5888      	addq.l #4,%a0
 288 0272 2290      	move.l (%a0),(%a1)
 289 0274 5889      	addq.l #4,%a1
 290 0276 5888      	addq.l #4,%a0
 291 0278 2290      	move.l (%a0),(%a1)
 292 027a 5889      	addq.l #4,%a1
 293 027c 5888      	addq.l #4,%a0
 294 027e 2290      	move.l (%a0),(%a1)
 295 0280 5889      	addq.l #4,%a1
 296 0282 5888      	addq.l #4,%a0
 235:/home/simulink/cFS_FreeRTOS_seL4/cfe/fsw/cfe-core/src/time/cfe_time_utils.c ****         }
 236:/home/simulink/cFS_FreeRTOS_seL4/cfe/fsw/cfe-core/src/time/cfe_time_utils.c ****     }
 237:/home/simulink/cFS_FreeRTOS_seL4/cfe/fsw/cfe-core/src/time/cfe_time_utils.c **** 
68K GAS   			page 11


 238:/home/simulink/cFS_FreeRTOS_seL4/cfe/fsw/cfe-core/src/time/cfe_time_utils.c ****     return;
 297               	.loc 1 238 0
 298 0284 4E71      	nop
 299               	.L14:
 300 0286 4E71      	nop
 239:/home/simulink/cFS_FreeRTOS_seL4/cfe/fsw/cfe-core/src/time/cfe_time_utils.c **** 
 240:/home/simulink/cFS_FreeRTOS_seL4/cfe/fsw/cfe-core/src/time/cfe_time_utils.c **** } /* End of CFE_TIME_UpdateResetVars() */
 301               	.loc 1 240 0
 302 0288 4FEF 002C 	lea (44,%sp),%sp
 303 028c 4E75      	rts
 304               	.cfi_endproc
 305               	.LFE61:
 306               	.sizeCFE_TIME_UpdateResetVars, .-CFE_TIME_UpdateResetVars
 307               	.align2
 308               	.globlCFE_TIME_InitData
 309               	.typeCFE_TIME_InitData, @function
 310               	CFE_TIME_InitData:
 311               	.LFB62:
 241:/home/simulink/cFS_FreeRTOS_seL4/cfe/fsw/cfe-core/src/time/cfe_time_utils.c **** 
 242:/home/simulink/cFS_FreeRTOS_seL4/cfe/fsw/cfe-core/src/time/cfe_time_utils.c **** 
 243:/home/simulink/cFS_FreeRTOS_seL4/cfe/fsw/cfe-core/src/time/cfe_time_utils.c **** /* * * * * * * * * * * * * * * * * * * * * * * * * * * * * * * * * */
 244:/home/simulink/cFS_FreeRTOS_seL4/cfe/fsw/cfe-core/src/time/cfe_time_utils.c **** /*                                                                 */
 245:/home/simulink/cFS_FreeRTOS_seL4/cfe/fsw/cfe-core/src/time/cfe_time_utils.c **** /* CFE_TIME_InitData() -- initialize global time task data         */
 246:/home/simulink/cFS_FreeRTOS_seL4/cfe/fsw/cfe-core/src/time/cfe_time_utils.c **** /*                                                                 */
 247:/home/simulink/cFS_FreeRTOS_seL4/cfe/fsw/cfe-core/src/time/cfe_time_utils.c **** /* * * * * * * * * * * * * * * * * * * * * * * * * * * * * * * * * */
 248:/home/simulink/cFS_FreeRTOS_seL4/cfe/fsw/cfe-core/src/time/cfe_time_utils.c **** 
 249:/home/simulink/cFS_FreeRTOS_seL4/cfe/fsw/cfe-core/src/time/cfe_time_utils.c **** void CFE_TIME_InitData(void)
 250:/home/simulink/cFS_FreeRTOS_seL4/cfe/fsw/cfe-core/src/time/cfe_time_utils.c **** {
 312               	.loc 1 250 0
 313               	.cfi_startproc
 314 028e 598F      	subq.l #4,%sp
 315               	.cfi_def_cfa_offset 8
 251:/home/simulink/cFS_FreeRTOS_seL4/cfe/fsw/cfe-core/src/time/cfe_time_utils.c ****     uint32  i = 0;
 316               	.loc 1 251 0
 317 0290 4297      	clr.l (%sp)
 252:/home/simulink/cFS_FreeRTOS_seL4/cfe/fsw/cfe-core/src/time/cfe_time_utils.c ****     
 253:/home/simulink/cFS_FreeRTOS_seL4/cfe/fsw/cfe-core/src/time/cfe_time_utils.c ****     /*
 254:/home/simulink/cFS_FreeRTOS_seL4/cfe/fsw/cfe-core/src/time/cfe_time_utils.c ****     ** Initialize task command execution counters...
 255:/home/simulink/cFS_FreeRTOS_seL4/cfe/fsw/cfe-core/src/time/cfe_time_utils.c ****     */
 256:/home/simulink/cFS_FreeRTOS_seL4/cfe/fsw/cfe-core/src/time/cfe_time_utils.c ****     CFE_TIME_TaskData.CmdCounter = 0;
 318               	.loc 1 256 0
 319 0292 4200      	clr.b %d0
 320 0294 13C0 0000 	move.b %d0,CFE_TIME_TaskData
 320      0000 
 257:/home/simulink/cFS_FreeRTOS_seL4/cfe/fsw/cfe-core/src/time/cfe_time_utils.c ****     CFE_TIME_TaskData.ErrCounter = 0;
 321               	.loc 1 257 0
 322 029a 4200      	clr.b %d0
 323 029c 13C0 0000 	move.b %d0,CFE_TIME_TaskData+1
 323      0000 
 258:/home/simulink/cFS_FreeRTOS_seL4/cfe/fsw/cfe-core/src/time/cfe_time_utils.c **** 
 259:/home/simulink/cFS_FreeRTOS_seL4/cfe/fsw/cfe-core/src/time/cfe_time_utils.c ****     /*
 260:/home/simulink/cFS_FreeRTOS_seL4/cfe/fsw/cfe-core/src/time/cfe_time_utils.c ****     ** Initialize task configuration data...
 261:/home/simulink/cFS_FreeRTOS_seL4/cfe/fsw/cfe-core/src/time/cfe_time_utils.c ****     */
 262:/home/simulink/cFS_FreeRTOS_seL4/cfe/fsw/cfe-core/src/time/cfe_time_utils.c ****     strcpy(CFE_TIME_TaskData.PipeName, CFE_TIME_TASK_PIPE_NAME);
 324               	.loc 1 262 0
 325 02a2 41F9 0000 	lea CFE_TIME_TaskData+265,%a0
 325      0000 
68K GAS   			page 12


 326 02a8 20BC 5449 	move.l #1414090053,(%a0)
 326      4D45 
 327 02ae 5888      	addq.l #4,%a0
 328 02b0 20BC 5F43 	move.l #1598246212,(%a0)
 328      4D44 
 329 02b6 5888      	addq.l #4,%a0
 330 02b8 20BC 5F50 	move.l #1599097168,(%a0)
 330      4950 
 331 02be 5888      	addq.l #4,%a0
 332 02c0 30BC 4500 	move.w #17664,(%a0)
 333 02c4 5488      	addq.l #2,%a0
 263:/home/simulink/cFS_FreeRTOS_seL4/cfe/fsw/cfe-core/src/time/cfe_time_utils.c ****     CFE_TIME_TaskData.PipeDepth = CFE_TIME_TASK_PIPE_DEPTH;
 334               	.loc 1 263 0
 335 02c6 700C      	moveq #12,%d0
 336 02c8 33C0 0000 	move.w %d0,CFE_TIME_TaskData+282
 336      0000 
 264:/home/simulink/cFS_FreeRTOS_seL4/cfe/fsw/cfe-core/src/time/cfe_time_utils.c ****     
 265:/home/simulink/cFS_FreeRTOS_seL4/cfe/fsw/cfe-core/src/time/cfe_time_utils.c ****     /*
 266:/home/simulink/cFS_FreeRTOS_seL4/cfe/fsw/cfe-core/src/time/cfe_time_utils.c ****     ** Try to get values used to compute time from Reset Area...
 267:/home/simulink/cFS_FreeRTOS_seL4/cfe/fsw/cfe-core/src/time/cfe_time_utils.c ****     */
 268:/home/simulink/cFS_FreeRTOS_seL4/cfe/fsw/cfe-core/src/time/cfe_time_utils.c ****     CFE_TIME_QueryResetVars();
 337               	.loc 1 268 0
 338 02ce 4EB9 0000 	jsr CFE_TIME_QueryResetVars
 338      0000 
 269:/home/simulink/cFS_FreeRTOS_seL4/cfe/fsw/cfe-core/src/time/cfe_time_utils.c **** 
 270:/home/simulink/cFS_FreeRTOS_seL4/cfe/fsw/cfe-core/src/time/cfe_time_utils.c ****     /*
 271:/home/simulink/cFS_FreeRTOS_seL4/cfe/fsw/cfe-core/src/time/cfe_time_utils.c ****     ** Remaining data values used to compute time...
 272:/home/simulink/cFS_FreeRTOS_seL4/cfe/fsw/cfe-core/src/time/cfe_time_utils.c ****     */
 273:/home/simulink/cFS_FreeRTOS_seL4/cfe/fsw/cfe-core/src/time/cfe_time_utils.c ****     CFE_TIME_TaskData.AtToneLatch = CFE_TIME_LatchClock();
 339               	.loc 1 273 0
 340 02d4 4EB9 0000 	jsr CFE_TIME_LatchClock
 340      0000 
 341 02da 23C0 0000 	move.l %d0,CFE_TIME_TaskData+312
 341      0000 
 342 02e0 23C1 0000 	move.l %d1,CFE_TIME_TaskData+316
 342      0000 
 274:/home/simulink/cFS_FreeRTOS_seL4/cfe/fsw/cfe-core/src/time/cfe_time_utils.c **** 
 275:/home/simulink/cFS_FreeRTOS_seL4/cfe/fsw/cfe-core/src/time/cfe_time_utils.c ****     /*
 276:/home/simulink/cFS_FreeRTOS_seL4/cfe/fsw/cfe-core/src/time/cfe_time_utils.c ****     ** Data values used to define the current clock state...
 277:/home/simulink/cFS_FreeRTOS_seL4/cfe/fsw/cfe-core/src/time/cfe_time_utils.c ****     */
 278:/home/simulink/cFS_FreeRTOS_seL4/cfe/fsw/cfe-core/src/time/cfe_time_utils.c ****     CFE_TIME_TaskData.ClockSetState  = CFE_TIME_NOT_SET;
 343               	.loc 1 278 0
 344 02e6 4240      	clr.w %d0
 345 02e8 33C0 0000 	move.w %d0,CFE_TIME_TaskData+320
 345      0000 
 279:/home/simulink/cFS_FreeRTOS_seL4/cfe/fsw/cfe-core/src/time/cfe_time_utils.c ****     CFE_TIME_TaskData.ClockFlyState  = CFE_TIME_IS_FLY;
 346               	.loc 1 279 0
 347 02ee 7001      	moveq #1,%d0
 348 02f0 33C0 0000 	move.w %d0,CFE_TIME_TaskData+322
 348      0000 
 280:/home/simulink/cFS_FreeRTOS_seL4/cfe/fsw/cfe-core/src/time/cfe_time_utils.c **** 
 281:/home/simulink/cFS_FreeRTOS_seL4/cfe/fsw/cfe-core/src/time/cfe_time_utils.c **** #if (CFE_TIME_CFG_SOURCE == TRUE)
 282:/home/simulink/cFS_FreeRTOS_seL4/cfe/fsw/cfe-core/src/time/cfe_time_utils.c ****     CFE_TIME_TaskData.ClockSource    = CFE_TIME_USE_EXTERN;
 283:/home/simulink/cFS_FreeRTOS_seL4/cfe/fsw/cfe-core/src/time/cfe_time_utils.c **** #else
 284:/home/simulink/cFS_FreeRTOS_seL4/cfe/fsw/cfe-core/src/time/cfe_time_utils.c ****     CFE_TIME_TaskData.ClockSource    = CFE_TIME_USE_INTERN;
 349               	.loc 1 284 0
 350 02f6 7001      	moveq #1,%d0
68K GAS   			page 13


 351 02f8 33C0 0000 	move.w %d0,CFE_TIME_TaskData+324
 351      0000 
 285:/home/simulink/cFS_FreeRTOS_seL4/cfe/fsw/cfe-core/src/time/cfe_time_utils.c **** #endif
 286:/home/simulink/cFS_FreeRTOS_seL4/cfe/fsw/cfe-core/src/time/cfe_time_utils.c ****     CFE_TIME_TaskData.ServerFlyState = CFE_TIME_IS_FLY;
 352               	.loc 1 286 0
 353 02fe 7001      	moveq #1,%d0
 354 0300 33C0 0000 	move.w %d0,CFE_TIME_TaskData+328
 354      0000 
 287:/home/simulink/cFS_FreeRTOS_seL4/cfe/fsw/cfe-core/src/time/cfe_time_utils.c **** 
 288:/home/simulink/cFS_FreeRTOS_seL4/cfe/fsw/cfe-core/src/time/cfe_time_utils.c ****     /*
 289:/home/simulink/cFS_FreeRTOS_seL4/cfe/fsw/cfe-core/src/time/cfe_time_utils.c ****     ** Pending data values (from "time at tone" command data packet)...
 290:/home/simulink/cFS_FreeRTOS_seL4/cfe/fsw/cfe-core/src/time/cfe_time_utils.c ****     */
 291:/home/simulink/cFS_FreeRTOS_seL4/cfe/fsw/cfe-core/src/time/cfe_time_utils.c ****     CFE_TIME_TaskData.PendingMET.Seconds     = 0;
 355               	.loc 1 291 0
 356 0306 42B9 0000 	clr.l CFE_TIME_TaskData+332
 356      0000 
 292:/home/simulink/cFS_FreeRTOS_seL4/cfe/fsw/cfe-core/src/time/cfe_time_utils.c ****     CFE_TIME_TaskData.PendingMET.Subseconds  = 0;
 357               	.loc 1 292 0
 358 030c 42B9 0000 	clr.l CFE_TIME_TaskData+336
 358      0000 
 293:/home/simulink/cFS_FreeRTOS_seL4/cfe/fsw/cfe-core/src/time/cfe_time_utils.c ****     CFE_TIME_TaskData.PendingSTCF.Seconds    = 0;
 359               	.loc 1 293 0
 360 0312 42B9 0000 	clr.l CFE_TIME_TaskData+340
 360      0000 
 294:/home/simulink/cFS_FreeRTOS_seL4/cfe/fsw/cfe-core/src/time/cfe_time_utils.c ****     CFE_TIME_TaskData.PendingSTCF.Subseconds = 0;
 361               	.loc 1 294 0
 362 0318 42B9 0000 	clr.l CFE_TIME_TaskData+344
 362      0000 
 295:/home/simulink/cFS_FreeRTOS_seL4/cfe/fsw/cfe-core/src/time/cfe_time_utils.c ****     CFE_TIME_TaskData.PendingLeaps           = 0;
 363               	.loc 1 295 0
 364 031e 4240      	clr.w %d0
 365 0320 33C0 0000 	move.w %d0,CFE_TIME_TaskData+348
 365      0000 
 296:/home/simulink/cFS_FreeRTOS_seL4/cfe/fsw/cfe-core/src/time/cfe_time_utils.c ****     CFE_TIME_TaskData.PendingState           = CFE_TIME_INVALID;
 366               	.loc 1 296 0
 367 0326 70FF      	moveq #-1,%d0
 368 0328 33C0 0000 	move.w %d0,CFE_TIME_TaskData+350
 368      0000 
 297:/home/simulink/cFS_FreeRTOS_seL4/cfe/fsw/cfe-core/src/time/cfe_time_utils.c **** 
 298:/home/simulink/cFS_FreeRTOS_seL4/cfe/fsw/cfe-core/src/time/cfe_time_utils.c ****     /*
 299:/home/simulink/cFS_FreeRTOS_seL4/cfe/fsw/cfe-core/src/time/cfe_time_utils.c ****     ** STCF adjustment values...
 300:/home/simulink/cFS_FreeRTOS_seL4/cfe/fsw/cfe-core/src/time/cfe_time_utils.c ****     */
 301:/home/simulink/cFS_FreeRTOS_seL4/cfe/fsw/cfe-core/src/time/cfe_time_utils.c ****     CFE_TIME_TaskData.OneTimeAdjust.Seconds    = 0;
 369               	.loc 1 301 0
 370 032e 42B9 0000 	clr.l CFE_TIME_TaskData+352
 370      0000 
 302:/home/simulink/cFS_FreeRTOS_seL4/cfe/fsw/cfe-core/src/time/cfe_time_utils.c ****     CFE_TIME_TaskData.OneTimeAdjust.Subseconds = 0;
 371               	.loc 1 302 0
 372 0334 42B9 0000 	clr.l CFE_TIME_TaskData+356
 372      0000 
 303:/home/simulink/cFS_FreeRTOS_seL4/cfe/fsw/cfe-core/src/time/cfe_time_utils.c ****     CFE_TIME_TaskData.OneHzAdjust.Seconds      = 0;
 373               	.loc 1 303 0
 374 033a 42B9 0000 	clr.l CFE_TIME_TaskData+360
 374      0000 
 304:/home/simulink/cFS_FreeRTOS_seL4/cfe/fsw/cfe-core/src/time/cfe_time_utils.c ****     CFE_TIME_TaskData.OneHzAdjust.Subseconds   = 0;
 375               	.loc 1 304 0
 376 0340 42B9 0000 	clr.l CFE_TIME_TaskData+364
68K GAS   			page 14


 376      0000 
 305:/home/simulink/cFS_FreeRTOS_seL4/cfe/fsw/cfe-core/src/time/cfe_time_utils.c **** 
 306:/home/simulink/cFS_FreeRTOS_seL4/cfe/fsw/cfe-core/src/time/cfe_time_utils.c ****     CFE_TIME_TaskData.OneTimeDirection = CFE_TIME_ADD_ADJUST;
 377               	.loc 1 306 0
 378 0346 7001      	moveq #1,%d0
 379 0348 33C0 0000 	move.w %d0,CFE_TIME_TaskData+368
 379      0000 
 307:/home/simulink/cFS_FreeRTOS_seL4/cfe/fsw/cfe-core/src/time/cfe_time_utils.c ****     CFE_TIME_TaskData.OneHzDirection   = CFE_TIME_ADD_ADJUST;
 380               	.loc 1 307 0
 381 034e 7001      	moveq #1,%d0
 382 0350 33C0 0000 	move.w %d0,CFE_TIME_TaskData+370
 382      0000 
 308:/home/simulink/cFS_FreeRTOS_seL4/cfe/fsw/cfe-core/src/time/cfe_time_utils.c ****     CFE_TIME_TaskData.DelayDirection   = CFE_TIME_ADD_ADJUST;
 383               	.loc 1 308 0
 384 0356 7001      	moveq #1,%d0
 385 0358 33C0 0000 	move.w %d0,CFE_TIME_TaskData+372
 385      0000 
 309:/home/simulink/cFS_FreeRTOS_seL4/cfe/fsw/cfe-core/src/time/cfe_time_utils.c **** 
 310:/home/simulink/cFS_FreeRTOS_seL4/cfe/fsw/cfe-core/src/time/cfe_time_utils.c ****     /*
 311:/home/simulink/cFS_FreeRTOS_seL4/cfe/fsw/cfe-core/src/time/cfe_time_utils.c ****     ** Local clock latch values...
 312:/home/simulink/cFS_FreeRTOS_seL4/cfe/fsw/cfe-core/src/time/cfe_time_utils.c ****     */
 313:/home/simulink/cFS_FreeRTOS_seL4/cfe/fsw/cfe-core/src/time/cfe_time_utils.c ****     CFE_TIME_TaskData.ToneSignalLatch.Seconds    = 0;
 386               	.loc 1 313 0
 387 035e 42B9 0000 	clr.l CFE_TIME_TaskData+376
 387      0000 
 314:/home/simulink/cFS_FreeRTOS_seL4/cfe/fsw/cfe-core/src/time/cfe_time_utils.c ****     CFE_TIME_TaskData.ToneSignalLatch.Subseconds = 0;
 388               	.loc 1 314 0
 389 0364 42B9 0000 	clr.l CFE_TIME_TaskData+380
 389      0000 
 315:/home/simulink/cFS_FreeRTOS_seL4/cfe/fsw/cfe-core/src/time/cfe_time_utils.c ****     CFE_TIME_TaskData.ToneDataLatch.Seconds      = 0;
 390               	.loc 1 315 0
 391 036a 42B9 0000 	clr.l CFE_TIME_TaskData+384
 391      0000 
 316:/home/simulink/cFS_FreeRTOS_seL4/cfe/fsw/cfe-core/src/time/cfe_time_utils.c ****     CFE_TIME_TaskData.ToneDataLatch.Subseconds   = 0;
 392               	.loc 1 316 0
 393 0370 42B9 0000 	clr.l CFE_TIME_TaskData+388
 393      0000 
 317:/home/simulink/cFS_FreeRTOS_seL4/cfe/fsw/cfe-core/src/time/cfe_time_utils.c **** 
 318:/home/simulink/cFS_FreeRTOS_seL4/cfe/fsw/cfe-core/src/time/cfe_time_utils.c ****     /*
 319:/home/simulink/cFS_FreeRTOS_seL4/cfe/fsw/cfe-core/src/time/cfe_time_utils.c ****     ** Miscellaneous counters...
 320:/home/simulink/cFS_FreeRTOS_seL4/cfe/fsw/cfe-core/src/time/cfe_time_utils.c ****     */
 321:/home/simulink/cFS_FreeRTOS_seL4/cfe/fsw/cfe-core/src/time/cfe_time_utils.c ****     CFE_TIME_TaskData.ToneMatchCount  = 0;
 394               	.loc 1 321 0
 395 0376 42B9 0000 	clr.l CFE_TIME_TaskData+392
 395      0000 
 322:/home/simulink/cFS_FreeRTOS_seL4/cfe/fsw/cfe-core/src/time/cfe_time_utils.c ****     CFE_TIME_TaskData.ToneMatchErrors = 0;
 396               	.loc 1 322 0
 397 037c 42B9 0000 	clr.l CFE_TIME_TaskData+396
 397      0000 
 323:/home/simulink/cFS_FreeRTOS_seL4/cfe/fsw/cfe-core/src/time/cfe_time_utils.c ****     CFE_TIME_TaskData.ToneSignalCount = 0;
 398               	.loc 1 323 0
 399 0382 42B9 0000 	clr.l CFE_TIME_TaskData+400
 399      0000 
 324:/home/simulink/cFS_FreeRTOS_seL4/cfe/fsw/cfe-core/src/time/cfe_time_utils.c ****     CFE_TIME_TaskData.ToneDataCount   = 0;
 400               	.loc 1 324 0
 401 0388 42B9 0000 	clr.l CFE_TIME_TaskData+404
 401      0000 
68K GAS   			page 15


 325:/home/simulink/cFS_FreeRTOS_seL4/cfe/fsw/cfe-core/src/time/cfe_time_utils.c ****     CFE_TIME_TaskData.ToneIntCount    = 0;
 402               	.loc 1 325 0
 403 038e 42B9 0000 	clr.l CFE_TIME_TaskData+408
 403      0000 
 326:/home/simulink/cFS_FreeRTOS_seL4/cfe/fsw/cfe-core/src/time/cfe_time_utils.c ****     CFE_TIME_TaskData.ToneIntErrors   = 0;
 404               	.loc 1 326 0
 405 0394 42B9 0000 	clr.l CFE_TIME_TaskData+412
 405      0000 
 327:/home/simulink/cFS_FreeRTOS_seL4/cfe/fsw/cfe-core/src/time/cfe_time_utils.c ****     CFE_TIME_TaskData.ToneTaskCount   = 0;
 406               	.loc 1 327 0
 407 039a 42B9 0000 	clr.l CFE_TIME_TaskData+416
 407      0000 
 328:/home/simulink/cFS_FreeRTOS_seL4/cfe/fsw/cfe-core/src/time/cfe_time_utils.c ****     CFE_TIME_TaskData.VirtualMET      = CFE_TIME_TaskData.AtToneMET.Seconds;
 408               	.loc 1 328 0
 409 03a0 2039 0000 	move.l CFE_TIME_TaskData+284,%d0
 409      0000 
 410 03a6 23C0 0000 	move.l %d0,CFE_TIME_TaskData+420
 410      0000 
 329:/home/simulink/cFS_FreeRTOS_seL4/cfe/fsw/cfe-core/src/time/cfe_time_utils.c ****     CFE_TIME_TaskData.VersionCount    = 0;
 411               	.loc 1 329 0
 412 03ac 42B9 0000 	clr.l CFE_TIME_TaskData+424
 412      0000 
 330:/home/simulink/cFS_FreeRTOS_seL4/cfe/fsw/cfe-core/src/time/cfe_time_utils.c ****     CFE_TIME_TaskData.LocalIntCount   = 0;
 413               	.loc 1 330 0
 414 03b2 42B9 0000 	clr.l CFE_TIME_TaskData+428
 414      0000 
 331:/home/simulink/cFS_FreeRTOS_seL4/cfe/fsw/cfe-core/src/time/cfe_time_utils.c ****     CFE_TIME_TaskData.LocalTaskCount  = 0;
 415               	.loc 1 331 0
 416 03b8 42B9 0000 	clr.l CFE_TIME_TaskData+432
 416      0000 
 332:/home/simulink/cFS_FreeRTOS_seL4/cfe/fsw/cfe-core/src/time/cfe_time_utils.c ****     CFE_TIME_TaskData.InternalCount   = 0;
 417               	.loc 1 332 0
 418 03be 42B9 0000 	clr.l CFE_TIME_TaskData+436
 418      0000 
 333:/home/simulink/cFS_FreeRTOS_seL4/cfe/fsw/cfe-core/src/time/cfe_time_utils.c ****     CFE_TIME_TaskData.ExternalCount   = 0;
 419               	.loc 1 333 0
 420 03c4 42B9 0000 	clr.l CFE_TIME_TaskData+440
 420      0000 
 334:/home/simulink/cFS_FreeRTOS_seL4/cfe/fsw/cfe-core/src/time/cfe_time_utils.c **** 
 335:/home/simulink/cFS_FreeRTOS_seL4/cfe/fsw/cfe-core/src/time/cfe_time_utils.c ****     /*
 336:/home/simulink/cFS_FreeRTOS_seL4/cfe/fsw/cfe-core/src/time/cfe_time_utils.c ****     ** Time window verification values...
 337:/home/simulink/cFS_FreeRTOS_seL4/cfe/fsw/cfe-core/src/time/cfe_time_utils.c ****     */
 338:/home/simulink/cFS_FreeRTOS_seL4/cfe/fsw/cfe-core/src/time/cfe_time_utils.c ****     CFE_TIME_TaskData.MinElapsed = CFE_TIME_Micro2SubSecs(CFE_TIME_MIN_ELAPSED);
 421               	.loc 1 338 0
 422 03ca 42A7      	clr.l -(%sp)
 423               	.cfi_def_cfa_offset 12
 424 03cc 4EB9 0000 	jsr CFE_TIME_Micro2SubSecs
 424      0000 
 425 03d2 588F      	addq.l #4,%sp
 426               	.cfi_def_cfa_offset 8
 427 03d4 23C0 0000 	move.l %d0,CFE_TIME_TaskData+444
 427      0000 
 339:/home/simulink/cFS_FreeRTOS_seL4/cfe/fsw/cfe-core/src/time/cfe_time_utils.c ****     CFE_TIME_TaskData.MaxElapsed = CFE_TIME_Micro2SubSecs(CFE_TIME_MAX_ELAPSED);
 428               	.loc 1 339 0
 429 03da 2F3C 0003 	move.l #200000,-(%sp)
 429      0D40 
 430               	.cfi_def_cfa_offset 12
68K GAS   			page 16


 431 03e0 4EB9 0000 	jsr CFE_TIME_Micro2SubSecs
 431      0000 
 432 03e6 588F      	addq.l #4,%sp
 433               	.cfi_def_cfa_offset 8
 434 03e8 23C0 0000 	move.l %d0,CFE_TIME_TaskData+448
 434      0000 
 340:/home/simulink/cFS_FreeRTOS_seL4/cfe/fsw/cfe-core/src/time/cfe_time_utils.c **** 
 341:/home/simulink/cFS_FreeRTOS_seL4/cfe/fsw/cfe-core/src/time/cfe_time_utils.c ****     /*
 342:/home/simulink/cFS_FreeRTOS_seL4/cfe/fsw/cfe-core/src/time/cfe_time_utils.c ****     ** Range checking for external time source data...
 343:/home/simulink/cFS_FreeRTOS_seL4/cfe/fsw/cfe-core/src/time/cfe_time_utils.c ****     */
 344:/home/simulink/cFS_FreeRTOS_seL4/cfe/fsw/cfe-core/src/time/cfe_time_utils.c ****     #if (CFE_TIME_CFG_SOURCE == TRUE)
 345:/home/simulink/cFS_FreeRTOS_seL4/cfe/fsw/cfe-core/src/time/cfe_time_utils.c ****     CFE_TIME_TaskData.MaxDelta.Seconds    = CFE_TIME_MAX_DELTA_SECS;
 346:/home/simulink/cFS_FreeRTOS_seL4/cfe/fsw/cfe-core/src/time/cfe_time_utils.c ****     CFE_TIME_TaskData.MaxDelta.Subseconds = CFE_TIME_Micro2SubSecs(CFE_TIME_MAX_DELTA_SUBS);
 347:/home/simulink/cFS_FreeRTOS_seL4/cfe/fsw/cfe-core/src/time/cfe_time_utils.c ****     #else
 348:/home/simulink/cFS_FreeRTOS_seL4/cfe/fsw/cfe-core/src/time/cfe_time_utils.c ****     CFE_TIME_TaskData.MaxDelta.Seconds    = 0;
 435               	.loc 1 348 0
 436 03ee 42B9 0000 	clr.l CFE_TIME_TaskData+532
 436      0000 
 349:/home/simulink/cFS_FreeRTOS_seL4/cfe/fsw/cfe-core/src/time/cfe_time_utils.c ****     CFE_TIME_TaskData.MaxDelta.Subseconds = 0;
 437               	.loc 1 349 0
 438 03f4 42B9 0000 	clr.l CFE_TIME_TaskData+536
 438      0000 
 350:/home/simulink/cFS_FreeRTOS_seL4/cfe/fsw/cfe-core/src/time/cfe_time_utils.c ****     #endif
 351:/home/simulink/cFS_FreeRTOS_seL4/cfe/fsw/cfe-core/src/time/cfe_time_utils.c **** 
 352:/home/simulink/cFS_FreeRTOS_seL4/cfe/fsw/cfe-core/src/time/cfe_time_utils.c ****     /*
 353:/home/simulink/cFS_FreeRTOS_seL4/cfe/fsw/cfe-core/src/time/cfe_time_utils.c ****     ** Maximum local clock value (before roll-over)...
 354:/home/simulink/cFS_FreeRTOS_seL4/cfe/fsw/cfe-core/src/time/cfe_time_utils.c ****     */
 355:/home/simulink/cFS_FreeRTOS_seL4/cfe/fsw/cfe-core/src/time/cfe_time_utils.c ****     CFE_TIME_TaskData.MaxLocalClock.Seconds    = CFE_TIME_MAX_LOCAL_SECS;
 439               	.loc 1 355 0
 440 03fa 701B      	moveq #27,%d0
 441 03fc 23C0 0000 	move.l %d0,CFE_TIME_TaskData+452
 441      0000 
 356:/home/simulink/cFS_FreeRTOS_seL4/cfe/fsw/cfe-core/src/time/cfe_time_utils.c ****     CFE_TIME_TaskData.MaxLocalClock.Subseconds = CFE_TIME_MAX_LOCAL_SUBS;
 442               	.loc 1 356 0
 443 0402 42B9 0000 	clr.l CFE_TIME_TaskData+456
 443      0000 
 357:/home/simulink/cFS_FreeRTOS_seL4/cfe/fsw/cfe-core/src/time/cfe_time_utils.c **** 
 358:/home/simulink/cFS_FreeRTOS_seL4/cfe/fsw/cfe-core/src/time/cfe_time_utils.c ****     /*
 359:/home/simulink/cFS_FreeRTOS_seL4/cfe/fsw/cfe-core/src/time/cfe_time_utils.c ****     ** Range limits for time between tone signal interrupts...
 360:/home/simulink/cFS_FreeRTOS_seL4/cfe/fsw/cfe-core/src/time/cfe_time_utils.c ****     */
 361:/home/simulink/cFS_FreeRTOS_seL4/cfe/fsw/cfe-core/src/time/cfe_time_utils.c ****     CFE_TIME_TaskData.ToneOverLimit  = CFE_TIME_Micro2SubSecs(CFE_TIME_CFG_TONE_LIMIT);
 444               	.loc 1 361 0
 445 0408 4878 4E20 	pea 20000.w
 446               	.cfi_def_cfa_offset 12
 447 040c 4EB9 0000 	jsr CFE_TIME_Micro2SubSecs
 447      0000 
 448 0412 588F      	addq.l #4,%sp
 449               	.cfi_def_cfa_offset 8
 450 0414 23C0 0000 	move.l %d0,CFE_TIME_TaskData+540
 450      0000 
 362:/home/simulink/cFS_FreeRTOS_seL4/cfe/fsw/cfe-core/src/time/cfe_time_utils.c ****     CFE_TIME_TaskData.ToneUnderLimit = CFE_TIME_Micro2SubSecs((1000000 - CFE_TIME_CFG_TONE_LIMIT));
 451               	.loc 1 362 0
 452 041a 2F3C 000E 	move.l #980000,-(%sp)
 452      F420 
 453               	.cfi_def_cfa_offset 12
 454 0420 4EB9 0000 	jsr CFE_TIME_Micro2SubSecs
 454      0000 
68K GAS   			page 17


 455 0426 588F      	addq.l #4,%sp
 456               	.cfi_def_cfa_offset 8
 457 0428 23C0 0000 	move.l %d0,CFE_TIME_TaskData+544
 457      0000 
 363:/home/simulink/cFS_FreeRTOS_seL4/cfe/fsw/cfe-core/src/time/cfe_time_utils.c **** 
 364:/home/simulink/cFS_FreeRTOS_seL4/cfe/fsw/cfe-core/src/time/cfe_time_utils.c ****     /*
 365:/home/simulink/cFS_FreeRTOS_seL4/cfe/fsw/cfe-core/src/time/cfe_time_utils.c ****     ** Clock state has been commanded into (CFE_TIME_FLYWHEEL)...
 366:/home/simulink/cFS_FreeRTOS_seL4/cfe/fsw/cfe-core/src/time/cfe_time_utils.c ****     */
 367:/home/simulink/cFS_FreeRTOS_seL4/cfe/fsw/cfe-core/src/time/cfe_time_utils.c ****     CFE_TIME_TaskData.Forced2Fly = FALSE;
 458               	.loc 1 367 0
 459 042e 4200      	clr.b %d0
 460 0430 13C0 0000 	move.b %d0,CFE_TIME_TaskData+460
 460      0000 
 368:/home/simulink/cFS_FreeRTOS_seL4/cfe/fsw/cfe-core/src/time/cfe_time_utils.c **** 
 369:/home/simulink/cFS_FreeRTOS_seL4/cfe/fsw/cfe-core/src/time/cfe_time_utils.c ****     /*
 370:/home/simulink/cFS_FreeRTOS_seL4/cfe/fsw/cfe-core/src/time/cfe_time_utils.c ****     ** Clock state has just transitioned into (CFE_TIME_FLYWHEEL)...
 371:/home/simulink/cFS_FreeRTOS_seL4/cfe/fsw/cfe-core/src/time/cfe_time_utils.c ****     */
 372:/home/simulink/cFS_FreeRTOS_seL4/cfe/fsw/cfe-core/src/time/cfe_time_utils.c ****     CFE_TIME_TaskData.AutoStartFly = FALSE;
 461               	.loc 1 372 0
 462 0436 4200      	clr.b %d0
 463 0438 13C0 0000 	move.b %d0,CFE_TIME_TaskData+461
 463      0000 
 373:/home/simulink/cFS_FreeRTOS_seL4/cfe/fsw/cfe-core/src/time/cfe_time_utils.c ****     
 374:/home/simulink/cFS_FreeRTOS_seL4/cfe/fsw/cfe-core/src/time/cfe_time_utils.c ****     /*
 375:/home/simulink/cFS_FreeRTOS_seL4/cfe/fsw/cfe-core/src/time/cfe_time_utils.c ****     ** Clear the Synch Callback Registry of any garbage
 376:/home/simulink/cFS_FreeRTOS_seL4/cfe/fsw/cfe-core/src/time/cfe_time_utils.c ****     */
 377:/home/simulink/cFS_FreeRTOS_seL4/cfe/fsw/cfe-core/src/time/cfe_time_utils.c ****     for (i=0; i<CFE_TIME_MAX_NUM_SYNCH_FUNCS; i++)
 464               	.loc 1 377 0
 465 043e 4297      	clr.l (%sp)
 466 0440 6024      	jra .L16
 467               	.L17:
 378:/home/simulink/cFS_FreeRTOS_seL4/cfe/fsw/cfe-core/src/time/cfe_time_utils.c ****     {
 379:/home/simulink/cFS_FreeRTOS_seL4/cfe/fsw/cfe-core/src/time/cfe_time_utils.c ****         CFE_TIME_TaskData.SynchCallback[i].Ptr = NULL;
 468               	.loc 1 379 0 discriminator 3
 469 0442 2017      	move.l (%sp),%d0
 470 0444 E788      	lsl.l #3,%d0
 471 0446 41F9 0000 	lea CFE_TIME_TaskData+556,%a0
 471      0000 
 472 044c 42B0 0800 	clr.l (%a0,%d0.l)
 380:/home/simulink/cFS_FreeRTOS_seL4/cfe/fsw/cfe-core/src/time/cfe_time_utils.c ****         CFE_TIME_TaskData.SynchCallback[i].App = 0;
 473               	.loc 1 380 0 discriminator 3
 474 0450 2017      	move.l (%sp),%d0
 475 0452 0680 0000 	add.l #69,%d0
 475      0045 
 476 0458 E788      	lsl.l #3,%d0
 477 045a 41F9 0000 	lea CFE_TIME_TaskData,%a0
 477      0000 
 478 0460 42B0 0800 	clr.l (%a0,%d0.l)
 377:/home/simulink/cFS_FreeRTOS_seL4/cfe/fsw/cfe-core/src/time/cfe_time_utils.c ****     {
 479               	.loc 1 377 0 discriminator 3
 480 0464 5297      	addq.l #1,(%sp)
 481               	.L16:
 377:/home/simulink/cFS_FreeRTOS_seL4/cfe/fsw/cfe-core/src/time/cfe_time_utils.c ****     {
 482               	.loc 1 377 0 is_stmt 0 discriminator 1
 483 0466 7003      	moveq #3,%d0
 484 0468 B097      	cmp.l (%sp),%d0
 485 046a 64D6      	jcc .L17
68K GAS   			page 18


 381:/home/simulink/cFS_FreeRTOS_seL4/cfe/fsw/cfe-core/src/time/cfe_time_utils.c ****     }
 382:/home/simulink/cFS_FreeRTOS_seL4/cfe/fsw/cfe-core/src/time/cfe_time_utils.c **** 
 383:/home/simulink/cFS_FreeRTOS_seL4/cfe/fsw/cfe-core/src/time/cfe_time_utils.c ****     /*
 384:/home/simulink/cFS_FreeRTOS_seL4/cfe/fsw/cfe-core/src/time/cfe_time_utils.c ****     ** Initialize housekeeping packet (clear user data area)...
 385:/home/simulink/cFS_FreeRTOS_seL4/cfe/fsw/cfe-core/src/time/cfe_time_utils.c ****     */
 386:/home/simulink/cFS_FreeRTOS_seL4/cfe/fsw/cfe-core/src/time/cfe_time_utils.c ****     CFE_SB_InitMsg(&CFE_TIME_TaskData.HkPacket,
 486               	.loc 1 386 0 is_stmt 1
 487 046c 4878 0001 	pea 1.w
 488               	.cfi_def_cfa_offset 12
 489 0470 4878 002C 	pea 44.w
 490               	.cfi_def_cfa_offset 16
 491 0474 4878 0805 	pea 2053.w
 492               	.cfi_def_cfa_offset 20
 493 0478 4879 0000 	pea CFE_TIME_TaskData+4
 493      0000 
 494               	.cfi_def_cfa_offset 24
 495 047e 4EB9 0000 	jsr CFE_SB_InitMsg
 495      0000 
 496 0484 4FEF 0010 	lea (16,%sp),%sp
 497               	.cfi_def_cfa_offset 8
 387:/home/simulink/cFS_FreeRTOS_seL4/cfe/fsw/cfe-core/src/time/cfe_time_utils.c ****                     CFE_TIME_HK_TLM_MID,
 388:/home/simulink/cFS_FreeRTOS_seL4/cfe/fsw/cfe-core/src/time/cfe_time_utils.c ****                     sizeof(CFE_TIME_HkPacket_t), TRUE);
 389:/home/simulink/cFS_FreeRTOS_seL4/cfe/fsw/cfe-core/src/time/cfe_time_utils.c **** 
 390:/home/simulink/cFS_FreeRTOS_seL4/cfe/fsw/cfe-core/src/time/cfe_time_utils.c ****     /*
 391:/home/simulink/cFS_FreeRTOS_seL4/cfe/fsw/cfe-core/src/time/cfe_time_utils.c ****     ** Initialize diagnostic packet (clear user data area)...
 392:/home/simulink/cFS_FreeRTOS_seL4/cfe/fsw/cfe-core/src/time/cfe_time_utils.c ****     */
 393:/home/simulink/cFS_FreeRTOS_seL4/cfe/fsw/cfe-core/src/time/cfe_time_utils.c ****     CFE_SB_InitMsg(&CFE_TIME_TaskData.DiagPacket,
 498               	.loc 1 393 0
 499 0488 4878 0001 	pea 1.w
 500               	.cfi_def_cfa_offset 12
 501 048c 4878 00D4 	pea 212.w
 502               	.cfi_def_cfa_offset 16
 503 0490 4878 0806 	pea 2054.w
 504               	.cfi_def_cfa_offset 20
 505 0494 4879 0000 	pea CFE_TIME_TaskData+48
 505      0000 
 506               	.cfi_def_cfa_offset 24
 507 049a 4EB9 0000 	jsr CFE_SB_InitMsg
 507      0000 
 508 04a0 4FEF 0010 	lea (16,%sp),%sp
 509               	.cfi_def_cfa_offset 8
 394:/home/simulink/cFS_FreeRTOS_seL4/cfe/fsw/cfe-core/src/time/cfe_time_utils.c ****                     CFE_TIME_DIAG_TLM_MID,
 395:/home/simulink/cFS_FreeRTOS_seL4/cfe/fsw/cfe-core/src/time/cfe_time_utils.c ****                     sizeof(CFE_TIME_DiagPacket_t), TRUE);
 396:/home/simulink/cFS_FreeRTOS_seL4/cfe/fsw/cfe-core/src/time/cfe_time_utils.c **** 
 397:/home/simulink/cFS_FreeRTOS_seL4/cfe/fsw/cfe-core/src/time/cfe_time_utils.c ****     /*
 398:/home/simulink/cFS_FreeRTOS_seL4/cfe/fsw/cfe-core/src/time/cfe_time_utils.c ****     ** Initialize "time at the tone" signal command packet...
 399:/home/simulink/cFS_FreeRTOS_seL4/cfe/fsw/cfe-core/src/time/cfe_time_utils.c ****     */
 400:/home/simulink/cFS_FreeRTOS_seL4/cfe/fsw/cfe-core/src/time/cfe_time_utils.c ****     CFE_SB_InitMsg(&CFE_TIME_TaskData.ToneSignalCmd,
 510               	.loc 1 400 0
 511 04a4 4878 0001 	pea 1.w
 512               	.cfi_def_cfa_offset 12
 513 04a8 4878 0008 	pea 8.w
 514               	.cfi_def_cfa_offset 16
 515 04ac 4878 1810 	pea 6160.w
 516               	.cfi_def_cfa_offset 20
 517 04b0 4879 0000 	pea CFE_TIME_TaskData+508
 517      0000 
68K GAS   			page 19


 518               	.cfi_def_cfa_offset 24
 519 04b6 4EB9 0000 	jsr CFE_SB_InitMsg
 519      0000 
 520 04bc 4FEF 0010 	lea (16,%sp),%sp
 521               	.cfi_def_cfa_offset 8
 401:/home/simulink/cFS_FreeRTOS_seL4/cfe/fsw/cfe-core/src/time/cfe_time_utils.c ****                     CFE_TIME_TONE_CMD_MID,
 402:/home/simulink/cFS_FreeRTOS_seL4/cfe/fsw/cfe-core/src/time/cfe_time_utils.c ****                     sizeof(CFE_TIME_ToneSignalCmd_t), TRUE);
 403:/home/simulink/cFS_FreeRTOS_seL4/cfe/fsw/cfe-core/src/time/cfe_time_utils.c **** 
 404:/home/simulink/cFS_FreeRTOS_seL4/cfe/fsw/cfe-core/src/time/cfe_time_utils.c ****     /*
 405:/home/simulink/cFS_FreeRTOS_seL4/cfe/fsw/cfe-core/src/time/cfe_time_utils.c ****     ** Initialize "time at the tone" data command packet...
 406:/home/simulink/cFS_FreeRTOS_seL4/cfe/fsw/cfe-core/src/time/cfe_time_utils.c ****     */
 407:/home/simulink/cFS_FreeRTOS_seL4/cfe/fsw/cfe-core/src/time/cfe_time_utils.c ****     #if (CFE_TIME_CFG_SERVER == TRUE)
 408:/home/simulink/cFS_FreeRTOS_seL4/cfe/fsw/cfe-core/src/time/cfe_time_utils.c ****     CFE_SB_InitMsg(&CFE_TIME_TaskData.ToneDataCmd,
 522               	.loc 1 408 0
 523 04c0 4878 0001 	pea 1.w
 524               	.cfi_def_cfa_offset 12
 525 04c4 4878 001C 	pea 28.w
 526               	.cfi_def_cfa_offset 16
 527 04c8 4878 1860 	pea 6240.w
 528               	.cfi_def_cfa_offset 20
 529 04cc 4879 0000 	pea CFE_TIME_TaskData+480
 529      0000 
 530               	.cfi_def_cfa_offset 24
 531 04d2 4EB9 0000 	jsr CFE_SB_InitMsg
 531      0000 
 532 04d8 4FEF 0010 	lea (16,%sp),%sp
 533               	.cfi_def_cfa_offset 8
 409:/home/simulink/cFS_FreeRTOS_seL4/cfe/fsw/cfe-core/src/time/cfe_time_utils.c ****                     CFE_TIME_DATA_CMD_MID,
 410:/home/simulink/cFS_FreeRTOS_seL4/cfe/fsw/cfe-core/src/time/cfe_time_utils.c ****                     sizeof(CFE_TIME_ToneDataCmd_t), TRUE);
 411:/home/simulink/cFS_FreeRTOS_seL4/cfe/fsw/cfe-core/src/time/cfe_time_utils.c ****     #endif
 412:/home/simulink/cFS_FreeRTOS_seL4/cfe/fsw/cfe-core/src/time/cfe_time_utils.c **** 
 413:/home/simulink/cFS_FreeRTOS_seL4/cfe/fsw/cfe-core/src/time/cfe_time_utils.c ****     /*
 414:/home/simulink/cFS_FreeRTOS_seL4/cfe/fsw/cfe-core/src/time/cfe_time_utils.c ****     ** Initialize simulated tone signal (time server only)...
 415:/home/simulink/cFS_FreeRTOS_seL4/cfe/fsw/cfe-core/src/time/cfe_time_utils.c ****     */
 416:/home/simulink/cFS_FreeRTOS_seL4/cfe/fsw/cfe-core/src/time/cfe_time_utils.c ****     #if (CFE_TIME_CFG_SERVER == TRUE)
 417:/home/simulink/cFS_FreeRTOS_seL4/cfe/fsw/cfe-core/src/time/cfe_time_utils.c ****       #if (CFE_TIME_CFG_FAKE_TONE == TRUE)
 418:/home/simulink/cFS_FreeRTOS_seL4/cfe/fsw/cfe-core/src/time/cfe_time_utils.c ****     CFE_SB_InitMsg(&CFE_TIME_TaskData.FakeToneCmd,
 534               	.loc 1 418 0
 535 04dc 4878 0001 	pea 1.w
 536               	.cfi_def_cfa_offset 12
 537 04e0 4878 0008 	pea 8.w
 538               	.cfi_def_cfa_offset 16
 539 04e4 4878 1861 	pea 6241.w
 540               	.cfi_def_cfa_offset 20
 541 04e8 4879 0000 	pea CFE_TIME_TaskData+472
 541      0000 
 542               	.cfi_def_cfa_offset 24
 543 04ee 4EB9 0000 	jsr CFE_SB_InitMsg
 543      0000 
 544 04f4 4FEF 0010 	lea (16,%sp),%sp
 545               	.cfi_def_cfa_offset 8
 419:/home/simulink/cFS_FreeRTOS_seL4/cfe/fsw/cfe-core/src/time/cfe_time_utils.c ****                     CFE_TIME_FAKE_CMD_MID,
 420:/home/simulink/cFS_FreeRTOS_seL4/cfe/fsw/cfe-core/src/time/cfe_time_utils.c ****                     sizeof(CFE_TIME_FakeToneCmd_t), TRUE);
 421:/home/simulink/cFS_FreeRTOS_seL4/cfe/fsw/cfe-core/src/time/cfe_time_utils.c ****       #endif
 422:/home/simulink/cFS_FreeRTOS_seL4/cfe/fsw/cfe-core/src/time/cfe_time_utils.c ****     #endif
 423:/home/simulink/cFS_FreeRTOS_seL4/cfe/fsw/cfe-core/src/time/cfe_time_utils.c **** 
 424:/home/simulink/cFS_FreeRTOS_seL4/cfe/fsw/cfe-core/src/time/cfe_time_utils.c ****     /*
68K GAS   			page 20


 425:/home/simulink/cFS_FreeRTOS_seL4/cfe/fsw/cfe-core/src/time/cfe_time_utils.c ****     ** Initialize local 1Hz "wake-up" command packet (optional)...
 426:/home/simulink/cFS_FreeRTOS_seL4/cfe/fsw/cfe-core/src/time/cfe_time_utils.c ****     */
 427:/home/simulink/cFS_FreeRTOS_seL4/cfe/fsw/cfe-core/src/time/cfe_time_utils.c ****     #if (CFE_TIME_ENA_1HZ_CMD_PKT == TRUE)
 428:/home/simulink/cFS_FreeRTOS_seL4/cfe/fsw/cfe-core/src/time/cfe_time_utils.c ****     CFE_SB_InitMsg(&CFE_TIME_TaskData.Local1HzCmd,
 546               	.loc 1 428 0
 547 04f8 4878 0001 	pea 1.w
 548               	.cfi_def_cfa_offset 12
 549 04fc 4878 0008 	pea 8.w
 550               	.cfi_def_cfa_offset 16
 551 0500 4878 1811 	pea 6161.w
 552               	.cfi_def_cfa_offset 20
 553 0504 4879 0000 	pea CFE_TIME_TaskData+464
 553      0000 
 554               	.cfi_def_cfa_offset 24
 555 050a 4EB9 0000 	jsr CFE_SB_InitMsg
 555      0000 
 556 0510 4FEF 0010 	lea (16,%sp),%sp
 557               	.cfi_def_cfa_offset 8
 429:/home/simulink/cFS_FreeRTOS_seL4/cfe/fsw/cfe-core/src/time/cfe_time_utils.c ****                     CFE_TIME_1HZ_CMD_MID,
 430:/home/simulink/cFS_FreeRTOS_seL4/cfe/fsw/cfe-core/src/time/cfe_time_utils.c ****                     sizeof(CFE_TIME_1HzCmd_t), TRUE);
 431:/home/simulink/cFS_FreeRTOS_seL4/cfe/fsw/cfe-core/src/time/cfe_time_utils.c ****     #endif
 432:/home/simulink/cFS_FreeRTOS_seL4/cfe/fsw/cfe-core/src/time/cfe_time_utils.c **** 
 433:/home/simulink/cFS_FreeRTOS_seL4/cfe/fsw/cfe-core/src/time/cfe_time_utils.c ****     return;
 558               	.loc 1 433 0
 559 0514 4E71      	nop
 434:/home/simulink/cFS_FreeRTOS_seL4/cfe/fsw/cfe-core/src/time/cfe_time_utils.c **** 
 435:/home/simulink/cFS_FreeRTOS_seL4/cfe/fsw/cfe-core/src/time/cfe_time_utils.c **** } /* End of CFE_TIME_InitData() */
 560               	.loc 1 435 0
 561 0516 588F      	addq.l #4,%sp
 562 0518 4E75      	rts
 563               	.cfi_endproc
 564               	.LFE62:
 565               	.sizeCFE_TIME_InitData, .-CFE_TIME_InitData
 566               	.align2
 567               	.globlCFE_TIME_GetStateFlags
 568               	.typeCFE_TIME_GetStateFlags, @function
 569               	CFE_TIME_GetStateFlags:
 570               	.LFB63:
 436:/home/simulink/cFS_FreeRTOS_seL4/cfe/fsw/cfe-core/src/time/cfe_time_utils.c **** 
 437:/home/simulink/cFS_FreeRTOS_seL4/cfe/fsw/cfe-core/src/time/cfe_time_utils.c **** 
 438:/home/simulink/cFS_FreeRTOS_seL4/cfe/fsw/cfe-core/src/time/cfe_time_utils.c **** /* * * * * * * * * * * * * * * * * * * * * * * * * * * * * * * * * */
 439:/home/simulink/cFS_FreeRTOS_seL4/cfe/fsw/cfe-core/src/time/cfe_time_utils.c **** /*                                                                 */
 440:/home/simulink/cFS_FreeRTOS_seL4/cfe/fsw/cfe-core/src/time/cfe_time_utils.c **** /* CFE_TIME_GetStateFlags() -- Convert state data to flag values   */
 441:/home/simulink/cFS_FreeRTOS_seL4/cfe/fsw/cfe-core/src/time/cfe_time_utils.c **** /*                                                                 */
 442:/home/simulink/cFS_FreeRTOS_seL4/cfe/fsw/cfe-core/src/time/cfe_time_utils.c **** /* * * * * * * * * * * * * * * * * * * * * * * * * * * * * * * * * */
 443:/home/simulink/cFS_FreeRTOS_seL4/cfe/fsw/cfe-core/src/time/cfe_time_utils.c **** 
 444:/home/simulink/cFS_FreeRTOS_seL4/cfe/fsw/cfe-core/src/time/cfe_time_utils.c **** uint16 CFE_TIME_GetStateFlags(void)
 445:/home/simulink/cFS_FreeRTOS_seL4/cfe/fsw/cfe-core/src/time/cfe_time_utils.c **** {
 571               	.loc 1 445 0
 572               	.cfi_startproc
 573 051a 598F      	subq.l #4,%sp
 574               	.cfi_def_cfa_offset 8
 446:/home/simulink/cFS_FreeRTOS_seL4/cfe/fsw/cfe-core/src/time/cfe_time_utils.c ****     uint16 StateFlags = 0;
 575               	.loc 1 446 0
 576 051c 4240      	clr.w %d0
 577 051e 3F40 0002 	move.w %d0,2(%sp)
 447:/home/simulink/cFS_FreeRTOS_seL4/cfe/fsw/cfe-core/src/time/cfe_time_utils.c **** 
68K GAS   			page 21


 448:/home/simulink/cFS_FreeRTOS_seL4/cfe/fsw/cfe-core/src/time/cfe_time_utils.c ****     /*
 449:/home/simulink/cFS_FreeRTOS_seL4/cfe/fsw/cfe-core/src/time/cfe_time_utils.c ****     ** Spacecraft time has been set...
 450:/home/simulink/cFS_FreeRTOS_seL4/cfe/fsw/cfe-core/src/time/cfe_time_utils.c ****     */
 451:/home/simulink/cFS_FreeRTOS_seL4/cfe/fsw/cfe-core/src/time/cfe_time_utils.c ****     if (CFE_TIME_TaskData.ClockSetState == CFE_TIME_WAS_SET)
 578               	.loc 1 451 0
 579 0522 3039 0000 	move.w CFE_TIME_TaskData+320,%d0
 579      0000 
 580 0528 3040      	move.w %d0,%a0
 581 052a 7201      	moveq #1,%d1
 582 052c B288      	cmp.l %a0,%d1
 583 052e 660E      	jne .L20
 452:/home/simulink/cFS_FreeRTOS_seL4/cfe/fsw/cfe-core/src/time/cfe_time_utils.c ****     {
 453:/home/simulink/cFS_FreeRTOS_seL4/cfe/fsw/cfe-core/src/time/cfe_time_utils.c ****         StateFlags |= CFE_TIME_FLAG_CLKSET;
 584               	.loc 1 453 0
 585 0530 302F 0002 	move.w 2(%sp),%d0
 586 0534 0080 FFFF 	or.l #-32768,%d0
 586      8000 
 587 053a 3F40 0002 	move.w %d0,2(%sp)
 588               	.L20:
 454:/home/simulink/cFS_FreeRTOS_seL4/cfe/fsw/cfe-core/src/time/cfe_time_utils.c ****     }
 455:/home/simulink/cFS_FreeRTOS_seL4/cfe/fsw/cfe-core/src/time/cfe_time_utils.c ****     /*
 456:/home/simulink/cFS_FreeRTOS_seL4/cfe/fsw/cfe-core/src/time/cfe_time_utils.c ****     ** This instance of Time Service is in FLYWHEEL mode...
 457:/home/simulink/cFS_FreeRTOS_seL4/cfe/fsw/cfe-core/src/time/cfe_time_utils.c ****     */
 458:/home/simulink/cFS_FreeRTOS_seL4/cfe/fsw/cfe-core/src/time/cfe_time_utils.c ****     if (CFE_TIME_TaskData.ClockFlyState == CFE_TIME_IS_FLY)
 589               	.loc 1 458 0
 590 053e 3039 0000 	move.w CFE_TIME_TaskData+322,%d0
 590      0000 
 591 0544 3040      	move.w %d0,%a0
 592 0546 7001      	moveq #1,%d0
 593 0548 B088      	cmp.l %a0,%d0
 594 054a 660C      	jne .L21
 459:/home/simulink/cFS_FreeRTOS_seL4/cfe/fsw/cfe-core/src/time/cfe_time_utils.c ****     {
 460:/home/simulink/cFS_FreeRTOS_seL4/cfe/fsw/cfe-core/src/time/cfe_time_utils.c ****         StateFlags |= CFE_TIME_FLAG_FLYING;
 595               	.loc 1 460 0
 596 054c 302F 0002 	move.w 2(%sp),%d0
 597 0550 08C0 000E 	bset #14,%d0
 598 0554 3F40 0002 	move.w %d0,2(%sp)
 599               	.L21:
 461:/home/simulink/cFS_FreeRTOS_seL4/cfe/fsw/cfe-core/src/time/cfe_time_utils.c ****     }
 462:/home/simulink/cFS_FreeRTOS_seL4/cfe/fsw/cfe-core/src/time/cfe_time_utils.c ****     /*
 463:/home/simulink/cFS_FreeRTOS_seL4/cfe/fsw/cfe-core/src/time/cfe_time_utils.c ****     ** Clock source set to "internal"...
 464:/home/simulink/cFS_FreeRTOS_seL4/cfe/fsw/cfe-core/src/time/cfe_time_utils.c ****     */
 465:/home/simulink/cFS_FreeRTOS_seL4/cfe/fsw/cfe-core/src/time/cfe_time_utils.c ****     if (CFE_TIME_TaskData.ClockSource == CFE_TIME_USE_INTERN)
 600               	.loc 1 465 0
 601 0558 3039 0000 	move.w CFE_TIME_TaskData+324,%d0
 601      0000 
 602 055e 3040      	move.w %d0,%a0
 603 0560 7201      	moveq #1,%d1
 604 0562 B288      	cmp.l %a0,%d1
 605 0564 660C      	jne .L22
 466:/home/simulink/cFS_FreeRTOS_seL4/cfe/fsw/cfe-core/src/time/cfe_time_utils.c ****     {
 467:/home/simulink/cFS_FreeRTOS_seL4/cfe/fsw/cfe-core/src/time/cfe_time_utils.c ****         StateFlags |= CFE_TIME_FLAG_SRCINT;
 606               	.loc 1 467 0
 607 0566 302F 0002 	move.w 2(%sp),%d0
 608 056a 08C0 000D 	bset #13,%d0
 609 056e 3F40 0002 	move.w %d0,2(%sp)
 610               	.L22:
68K GAS   			page 22


 468:/home/simulink/cFS_FreeRTOS_seL4/cfe/fsw/cfe-core/src/time/cfe_time_utils.c ****     }
 469:/home/simulink/cFS_FreeRTOS_seL4/cfe/fsw/cfe-core/src/time/cfe_time_utils.c ****     /*
 470:/home/simulink/cFS_FreeRTOS_seL4/cfe/fsw/cfe-core/src/time/cfe_time_utils.c ****     ** Clock signal set to "primary"...
 471:/home/simulink/cFS_FreeRTOS_seL4/cfe/fsw/cfe-core/src/time/cfe_time_utils.c ****     */
 472:/home/simulink/cFS_FreeRTOS_seL4/cfe/fsw/cfe-core/src/time/cfe_time_utils.c ****     if (CFE_TIME_TaskData.ClockSignal == CFE_TIME_TONE_PRI)
 611               	.loc 1 472 0
 612 0572 3039 0000 	move.w CFE_TIME_TaskData+326,%d0
 612      0000 
 613 0578 3040      	move.w %d0,%a0
 614 057a 7001      	moveq #1,%d0
 615 057c B088      	cmp.l %a0,%d0
 616 057e 660C      	jne .L23
 473:/home/simulink/cFS_FreeRTOS_seL4/cfe/fsw/cfe-core/src/time/cfe_time_utils.c ****     {
 474:/home/simulink/cFS_FreeRTOS_seL4/cfe/fsw/cfe-core/src/time/cfe_time_utils.c ****         StateFlags |= CFE_TIME_FLAG_SIGPRI;
 617               	.loc 1 474 0
 618 0580 302F 0002 	move.w 2(%sp),%d0
 619 0584 08C0 000C 	bset #12,%d0
 620 0588 3F40 0002 	move.w %d0,2(%sp)
 621               	.L23:
 475:/home/simulink/cFS_FreeRTOS_seL4/cfe/fsw/cfe-core/src/time/cfe_time_utils.c ****     }
 476:/home/simulink/cFS_FreeRTOS_seL4/cfe/fsw/cfe-core/src/time/cfe_time_utils.c ****     /*
 477:/home/simulink/cFS_FreeRTOS_seL4/cfe/fsw/cfe-core/src/time/cfe_time_utils.c ****     ** Time Server is in FLYWHEEL mode...
 478:/home/simulink/cFS_FreeRTOS_seL4/cfe/fsw/cfe-core/src/time/cfe_time_utils.c ****     */
 479:/home/simulink/cFS_FreeRTOS_seL4/cfe/fsw/cfe-core/src/time/cfe_time_utils.c ****     if (CFE_TIME_TaskData.ServerFlyState == CFE_TIME_IS_FLY)
 622               	.loc 1 479 0
 623 058c 3039 0000 	move.w CFE_TIME_TaskData+328,%d0
 623      0000 
 624 0592 3040      	move.w %d0,%a0
 625 0594 7201      	moveq #1,%d1
 626 0596 B288      	cmp.l %a0,%d1
 627 0598 660C      	jne .L24
 480:/home/simulink/cFS_FreeRTOS_seL4/cfe/fsw/cfe-core/src/time/cfe_time_utils.c ****     {
 481:/home/simulink/cFS_FreeRTOS_seL4/cfe/fsw/cfe-core/src/time/cfe_time_utils.c ****         StateFlags |= CFE_TIME_FLAG_SRVFLY;
 628               	.loc 1 481 0
 629 059a 302F 0002 	move.w 2(%sp),%d0
 630 059e 08C0 000B 	bset #11,%d0
 631 05a2 3F40 0002 	move.w %d0,2(%sp)
 632               	.L24:
 482:/home/simulink/cFS_FreeRTOS_seL4/cfe/fsw/cfe-core/src/time/cfe_time_utils.c ****     }
 483:/home/simulink/cFS_FreeRTOS_seL4/cfe/fsw/cfe-core/src/time/cfe_time_utils.c ****     /*
 484:/home/simulink/cFS_FreeRTOS_seL4/cfe/fsw/cfe-core/src/time/cfe_time_utils.c ****     ** This instance of Time Services commanded into FLYWHEEL...
 485:/home/simulink/cFS_FreeRTOS_seL4/cfe/fsw/cfe-core/src/time/cfe_time_utils.c ****     */
 486:/home/simulink/cFS_FreeRTOS_seL4/cfe/fsw/cfe-core/src/time/cfe_time_utils.c ****     if (CFE_TIME_TaskData.Forced2Fly)
 633               	.loc 1 486 0
 634 05a6 1039 0000 	move.b CFE_TIME_TaskData+460,%d0
 634      0000 
 635 05ac 4A00      	tst.b %d0
 636 05ae 670C      	jeq .L25
 487:/home/simulink/cFS_FreeRTOS_seL4/cfe/fsw/cfe-core/src/time/cfe_time_utils.c ****     {
 488:/home/simulink/cFS_FreeRTOS_seL4/cfe/fsw/cfe-core/src/time/cfe_time_utils.c ****         StateFlags |= CFE_TIME_FLAG_CMDFLY;
 637               	.loc 1 488 0
 638 05b0 302F 0002 	move.w 2(%sp),%d0
 639 05b4 08C0 000A 	bset #10,%d0
 640 05b8 3F40 0002 	move.w %d0,2(%sp)
 641               	.L25:
 489:/home/simulink/cFS_FreeRTOS_seL4/cfe/fsw/cfe-core/src/time/cfe_time_utils.c ****     }
 490:/home/simulink/cFS_FreeRTOS_seL4/cfe/fsw/cfe-core/src/time/cfe_time_utils.c ****     /*
68K GAS   			page 23


 491:/home/simulink/cFS_FreeRTOS_seL4/cfe/fsw/cfe-core/src/time/cfe_time_utils.c ****     ** One time STCF adjustment direction...
 492:/home/simulink/cFS_FreeRTOS_seL4/cfe/fsw/cfe-core/src/time/cfe_time_utils.c ****     */
 493:/home/simulink/cFS_FreeRTOS_seL4/cfe/fsw/cfe-core/src/time/cfe_time_utils.c ****     if (CFE_TIME_TaskData.OneTimeDirection == CFE_TIME_ADD_ADJUST)
 642               	.loc 1 493 0
 643 05bc 3039 0000 	move.w CFE_TIME_TaskData+368,%d0
 643      0000 
 644 05c2 3040      	move.w %d0,%a0
 645 05c4 7001      	moveq #1,%d0
 646 05c6 B088      	cmp.l %a0,%d0
 647 05c8 660C      	jne .L26
 494:/home/simulink/cFS_FreeRTOS_seL4/cfe/fsw/cfe-core/src/time/cfe_time_utils.c ****     {
 495:/home/simulink/cFS_FreeRTOS_seL4/cfe/fsw/cfe-core/src/time/cfe_time_utils.c ****         StateFlags |= CFE_TIME_FLAG_ADDADJ;
 648               	.loc 1 495 0
 649 05ca 302F 0002 	move.w 2(%sp),%d0
 650 05ce 08C0 0009 	bset #9,%d0
 651 05d2 3F40 0002 	move.w %d0,2(%sp)
 652               	.L26:
 496:/home/simulink/cFS_FreeRTOS_seL4/cfe/fsw/cfe-core/src/time/cfe_time_utils.c ****     }
 497:/home/simulink/cFS_FreeRTOS_seL4/cfe/fsw/cfe-core/src/time/cfe_time_utils.c ****     /*
 498:/home/simulink/cFS_FreeRTOS_seL4/cfe/fsw/cfe-core/src/time/cfe_time_utils.c ****     ** 1 Hz STCF adjustment direction...
 499:/home/simulink/cFS_FreeRTOS_seL4/cfe/fsw/cfe-core/src/time/cfe_time_utils.c ****     */
 500:/home/simulink/cFS_FreeRTOS_seL4/cfe/fsw/cfe-core/src/time/cfe_time_utils.c ****     if (CFE_TIME_TaskData.OneHzDirection == CFE_TIME_ADD_ADJUST)
 653               	.loc 1 500 0
 654 05d6 3039 0000 	move.w CFE_TIME_TaskData+370,%d0
 654      0000 
 655 05dc 3040      	move.w %d0,%a0
 656 05de 7201      	moveq #1,%d1
 657 05e0 B288      	cmp.l %a0,%d1
 658 05e2 660C      	jne .L27
 501:/home/simulink/cFS_FreeRTOS_seL4/cfe/fsw/cfe-core/src/time/cfe_time_utils.c ****     {
 502:/home/simulink/cFS_FreeRTOS_seL4/cfe/fsw/cfe-core/src/time/cfe_time_utils.c ****         StateFlags |= CFE_TIME_FLAG_ADD1HZ;
 659               	.loc 1 502 0
 660 05e4 302F 0002 	move.w 2(%sp),%d0
 661 05e8 08C0 0008 	bset #8,%d0
 662 05ec 3F40 0002 	move.w %d0,2(%sp)
 663               	.L27:
 503:/home/simulink/cFS_FreeRTOS_seL4/cfe/fsw/cfe-core/src/time/cfe_time_utils.c ****     }
 504:/home/simulink/cFS_FreeRTOS_seL4/cfe/fsw/cfe-core/src/time/cfe_time_utils.c ****     /*
 505:/home/simulink/cFS_FreeRTOS_seL4/cfe/fsw/cfe-core/src/time/cfe_time_utils.c ****     ** Time Client Latency adjustment direction...
 506:/home/simulink/cFS_FreeRTOS_seL4/cfe/fsw/cfe-core/src/time/cfe_time_utils.c ****     */
 507:/home/simulink/cFS_FreeRTOS_seL4/cfe/fsw/cfe-core/src/time/cfe_time_utils.c ****     if (CFE_TIME_TaskData.DelayDirection == CFE_TIME_ADD_ADJUST)
 664               	.loc 1 507 0
 665 05f0 3039 0000 	move.w CFE_TIME_TaskData+372,%d0
 665      0000 
 666 05f6 3040      	move.w %d0,%a0
 667 05f8 7001      	moveq #1,%d0
 668 05fa B088      	cmp.l %a0,%d0
 669 05fc 660C      	jne .L28
 508:/home/simulink/cFS_FreeRTOS_seL4/cfe/fsw/cfe-core/src/time/cfe_time_utils.c ****     {
 509:/home/simulink/cFS_FreeRTOS_seL4/cfe/fsw/cfe-core/src/time/cfe_time_utils.c ****         StateFlags |= CFE_TIME_FLAG_ADDTCL;
 670               	.loc 1 509 0
 671 05fe 302F 0002 	move.w 2(%sp),%d0
 672 0602 08C0 0007 	bset #7,%d0
 673 0606 3F40 0002 	move.w %d0,2(%sp)
 674               	.L28:
 510:/home/simulink/cFS_FreeRTOS_seL4/cfe/fsw/cfe-core/src/time/cfe_time_utils.c ****     }
 511:/home/simulink/cFS_FreeRTOS_seL4/cfe/fsw/cfe-core/src/time/cfe_time_utils.c ****     /*
68K GAS   			page 24


 512:/home/simulink/cFS_FreeRTOS_seL4/cfe/fsw/cfe-core/src/time/cfe_time_utils.c ****     ** This instance of Time Service is a "server"...
 513:/home/simulink/cFS_FreeRTOS_seL4/cfe/fsw/cfe-core/src/time/cfe_time_utils.c ****     */
 514:/home/simulink/cFS_FreeRTOS_seL4/cfe/fsw/cfe-core/src/time/cfe_time_utils.c ****     #if (CFE_TIME_CFG_SERVER == TRUE)
 515:/home/simulink/cFS_FreeRTOS_seL4/cfe/fsw/cfe-core/src/time/cfe_time_utils.c ****     StateFlags |= CFE_TIME_FLAG_SERVER;
 675               	.loc 1 515 0
 676 060a 302F 0002 	move.w 2(%sp),%d0
 677 060e 7240      	moveq #64,%d1
 678 0610 8081      	or.l %d1,%d0
 679 0612 3F40 0002 	move.w %d0,2(%sp)
 516:/home/simulink/cFS_FreeRTOS_seL4/cfe/fsw/cfe-core/src/time/cfe_time_utils.c ****     #endif
 517:/home/simulink/cFS_FreeRTOS_seL4/cfe/fsw/cfe-core/src/time/cfe_time_utils.c **** 
 518:/home/simulink/cFS_FreeRTOS_seL4/cfe/fsw/cfe-core/src/time/cfe_time_utils.c ****     return(StateFlags);
 680               	.loc 1 518 0
 681 0616 302F 0002 	move.w 2(%sp),%d0
 519:/home/simulink/cFS_FreeRTOS_seL4/cfe/fsw/cfe-core/src/time/cfe_time_utils.c **** 
 520:/home/simulink/cFS_FreeRTOS_seL4/cfe/fsw/cfe-core/src/time/cfe_time_utils.c **** } /* End of CFE_TIME_GetStateFlags() */
 682               	.loc 1 520 0
 683 061a 588F      	addq.l #4,%sp
 684 061c 4E75      	rts
 685               	.cfi_endproc
 686               	.LFE63:
 687               	.sizeCFE_TIME_GetStateFlags, .-CFE_TIME_GetStateFlags
 688               	.align2
 689               	.globlCFE_TIME_GetHkData
 690               	.typeCFE_TIME_GetHkData, @function
 691               	CFE_TIME_GetHkData:
 692               	.LFB64:
 521:/home/simulink/cFS_FreeRTOS_seL4/cfe/fsw/cfe-core/src/time/cfe_time_utils.c **** 
 522:/home/simulink/cFS_FreeRTOS_seL4/cfe/fsw/cfe-core/src/time/cfe_time_utils.c **** 
 523:/home/simulink/cFS_FreeRTOS_seL4/cfe/fsw/cfe-core/src/time/cfe_time_utils.c **** /* * * * * * * * * * * * * * * * * * * * * * * * * * * * * * * * * */
 524:/home/simulink/cFS_FreeRTOS_seL4/cfe/fsw/cfe-core/src/time/cfe_time_utils.c **** /*                                                                 */
 525:/home/simulink/cFS_FreeRTOS_seL4/cfe/fsw/cfe-core/src/time/cfe_time_utils.c **** /* CFE_TIME_GetHkData() -- Report local housekeeping data          */
 526:/home/simulink/cFS_FreeRTOS_seL4/cfe/fsw/cfe-core/src/time/cfe_time_utils.c **** /*                                                                 */
 527:/home/simulink/cFS_FreeRTOS_seL4/cfe/fsw/cfe-core/src/time/cfe_time_utils.c **** /* * * * * * * * * * * * * * * * * * * * * * * * * * * * * * * * * */
 528:/home/simulink/cFS_FreeRTOS_seL4/cfe/fsw/cfe-core/src/time/cfe_time_utils.c **** 
 529:/home/simulink/cFS_FreeRTOS_seL4/cfe/fsw/cfe-core/src/time/cfe_time_utils.c **** void CFE_TIME_GetHkData(const CFE_TIME_Reference_t *Reference)
 530:/home/simulink/cFS_FreeRTOS_seL4/cfe/fsw/cfe-core/src/time/cfe_time_utils.c **** {
 693               	.loc 1 530 0
 694               	.cfi_startproc
 531:/home/simulink/cFS_FreeRTOS_seL4/cfe/fsw/cfe-core/src/time/cfe_time_utils.c **** 
 532:/home/simulink/cFS_FreeRTOS_seL4/cfe/fsw/cfe-core/src/time/cfe_time_utils.c ****     /*
 533:/home/simulink/cFS_FreeRTOS_seL4/cfe/fsw/cfe-core/src/time/cfe_time_utils.c ****     ** Get command execution counters...
 534:/home/simulink/cFS_FreeRTOS_seL4/cfe/fsw/cfe-core/src/time/cfe_time_utils.c ****     */
 535:/home/simulink/cFS_FreeRTOS_seL4/cfe/fsw/cfe-core/src/time/cfe_time_utils.c ****     CFE_TIME_TaskData.HkPacket.Payload.CmdCounter = CFE_TIME_TaskData.CmdCounter;
 695               	.loc 1 535 0
 696 061e 1039 0000 	move.b CFE_TIME_TaskData,%d0
 696      0000 
 697 0624 13C0 0000 	move.b %d0,CFE_TIME_TaskData+16
 697      0000 
 536:/home/simulink/cFS_FreeRTOS_seL4/cfe/fsw/cfe-core/src/time/cfe_time_utils.c ****     CFE_TIME_TaskData.HkPacket.Payload.ErrCounter = CFE_TIME_TaskData.ErrCounter;
 698               	.loc 1 536 0
 699 062a 1039 0000 	move.b CFE_TIME_TaskData+1,%d0
 699      0000 
 700 0630 13C0 0000 	move.b %d0,CFE_TIME_TaskData+17
 700      0000 
 537:/home/simulink/cFS_FreeRTOS_seL4/cfe/fsw/cfe-core/src/time/cfe_time_utils.c **** 
 538:/home/simulink/cFS_FreeRTOS_seL4/cfe/fsw/cfe-core/src/time/cfe_time_utils.c ****     /*
68K GAS   			page 25


 539:/home/simulink/cFS_FreeRTOS_seL4/cfe/fsw/cfe-core/src/time/cfe_time_utils.c ****     ** Current "as calculated" clock state...
 540:/home/simulink/cFS_FreeRTOS_seL4/cfe/fsw/cfe-core/src/time/cfe_time_utils.c ****     */
 541:/home/simulink/cFS_FreeRTOS_seL4/cfe/fsw/cfe-core/src/time/cfe_time_utils.c ****     CFE_TIME_TaskData.HkPacket.Payload.ClockStateAPI = (int16) CFE_TIME_CalculateState(Reference);
 701               	.loc 1 541 0
 702 0636 2F2F 0004 	move.l 4(%sp),-(%sp)
 703               	.cfi_def_cfa_offset 8
 704 063a 4EB9 0000 	jsr CFE_TIME_CalculateState
 704      0000 
 705 0640 588F      	addq.l #4,%sp
 706               	.cfi_def_cfa_offset 4
 707 0642 33C0 0000 	move.w %d0,CFE_TIME_TaskData+20
 707      0000 
 542:/home/simulink/cFS_FreeRTOS_seL4/cfe/fsw/cfe-core/src/time/cfe_time_utils.c **** 
 543:/home/simulink/cFS_FreeRTOS_seL4/cfe/fsw/cfe-core/src/time/cfe_time_utils.c ****     /*
 544:/home/simulink/cFS_FreeRTOS_seL4/cfe/fsw/cfe-core/src/time/cfe_time_utils.c ****     ** Current clock state flags...
 545:/home/simulink/cFS_FreeRTOS_seL4/cfe/fsw/cfe-core/src/time/cfe_time_utils.c ****     */
 546:/home/simulink/cFS_FreeRTOS_seL4/cfe/fsw/cfe-core/src/time/cfe_time_utils.c ****     CFE_TIME_TaskData.HkPacket.Payload.ClockStateFlags = CFE_TIME_GetStateFlags();
 708               	.loc 1 546 0
 709 0648 4EB9 0000 	jsr CFE_TIME_GetStateFlags
 709      0000 
 710 064e 33C0 0000 	move.w %d0,CFE_TIME_TaskData+18
 710      0000 
 547:/home/simulink/cFS_FreeRTOS_seL4/cfe/fsw/cfe-core/src/time/cfe_time_utils.c **** 
 548:/home/simulink/cFS_FreeRTOS_seL4/cfe/fsw/cfe-core/src/time/cfe_time_utils.c ****     /*
 549:/home/simulink/cFS_FreeRTOS_seL4/cfe/fsw/cfe-core/src/time/cfe_time_utils.c ****     ** Leap Seconds...
 550:/home/simulink/cFS_FreeRTOS_seL4/cfe/fsw/cfe-core/src/time/cfe_time_utils.c ****     */
 551:/home/simulink/cFS_FreeRTOS_seL4/cfe/fsw/cfe-core/src/time/cfe_time_utils.c ****     CFE_TIME_TaskData.HkPacket.Payload.LeapSeconds = Reference->AtToneLeaps;
 711               	.loc 1 551 0
 712 0654 206F 0004 	move.l 4(%sp),%a0
 713 0658 3028 0010 	move.w 16(%a0),%d0
 714 065c 33C0 0000 	move.w %d0,CFE_TIME_TaskData+22
 714      0000 
 552:/home/simulink/cFS_FreeRTOS_seL4/cfe/fsw/cfe-core/src/time/cfe_time_utils.c **** 
 553:/home/simulink/cFS_FreeRTOS_seL4/cfe/fsw/cfe-core/src/time/cfe_time_utils.c ****     /*
 554:/home/simulink/cFS_FreeRTOS_seL4/cfe/fsw/cfe-core/src/time/cfe_time_utils.c ****     ** Current MET and STCF time values...
 555:/home/simulink/cFS_FreeRTOS_seL4/cfe/fsw/cfe-core/src/time/cfe_time_utils.c ****     */
 556:/home/simulink/cFS_FreeRTOS_seL4/cfe/fsw/cfe-core/src/time/cfe_time_utils.c ****     CFE_TIME_TaskData.HkPacket.Payload.SecondsMET = Reference->CurrentMET.Seconds;
 715               	.loc 1 556 0
 716 0662 206F 0004 	move.l 4(%sp),%a0
 717 0666 2028 0038 	move.l 56(%a0),%d0
 718 066a 23C0 0000 	move.l %d0,CFE_TIME_TaskData+24
 718      0000 
 557:/home/simulink/cFS_FreeRTOS_seL4/cfe/fsw/cfe-core/src/time/cfe_time_utils.c ****     CFE_TIME_TaskData.HkPacket.Payload.SubsecsMET = Reference->CurrentMET.Subseconds;
 719               	.loc 1 557 0
 720 0670 206F 0004 	move.l 4(%sp),%a0
 721 0674 2028 003C 	move.l 60(%a0),%d0
 722 0678 23C0 0000 	move.l %d0,CFE_TIME_TaskData+28
 722      0000 
 558:/home/simulink/cFS_FreeRTOS_seL4/cfe/fsw/cfe-core/src/time/cfe_time_utils.c **** 
 559:/home/simulink/cFS_FreeRTOS_seL4/cfe/fsw/cfe-core/src/time/cfe_time_utils.c ****     CFE_TIME_TaskData.HkPacket.Payload.SecondsSTCF = Reference->AtToneSTCF.Seconds;
 723               	.loc 1 559 0
 724 067e 206F 0004 	move.l 4(%sp),%a0
 725 0682 2028 0008 	move.l 8(%a0),%d0
 726 0686 23C0 0000 	move.l %d0,CFE_TIME_TaskData+32
 726      0000 
 560:/home/simulink/cFS_FreeRTOS_seL4/cfe/fsw/cfe-core/src/time/cfe_time_utils.c ****     CFE_TIME_TaskData.HkPacket.Payload.SubsecsSTCF = Reference->AtToneSTCF.Subseconds;
 727               	.loc 1 560 0
68K GAS   			page 26


 728 068c 206F 0004 	move.l 4(%sp),%a0
 729 0690 2028 000C 	move.l 12(%a0),%d0
 730 0694 23C0 0000 	move.l %d0,CFE_TIME_TaskData+36
 730      0000 
 561:/home/simulink/cFS_FreeRTOS_seL4/cfe/fsw/cfe-core/src/time/cfe_time_utils.c **** 
 562:/home/simulink/cFS_FreeRTOS_seL4/cfe/fsw/cfe-core/src/time/cfe_time_utils.c ****     /*
 563:/home/simulink/cFS_FreeRTOS_seL4/cfe/fsw/cfe-core/src/time/cfe_time_utils.c ****     ** 1Hz STCF adjustment values (server only)...
 564:/home/simulink/cFS_FreeRTOS_seL4/cfe/fsw/cfe-core/src/time/cfe_time_utils.c ****     */
 565:/home/simulink/cFS_FreeRTOS_seL4/cfe/fsw/cfe-core/src/time/cfe_time_utils.c ****     #if (CFE_TIME_CFG_SERVER == TRUE)
 566:/home/simulink/cFS_FreeRTOS_seL4/cfe/fsw/cfe-core/src/time/cfe_time_utils.c ****     CFE_TIME_TaskData.HkPacket.Payload.Seconds1HzAdj = CFE_TIME_TaskData.OneHzAdjust.Seconds;
 731               	.loc 1 566 0
 732 069a 2039 0000 	move.l CFE_TIME_TaskData+360,%d0
 732      0000 
 733 06a0 23C0 0000 	move.l %d0,CFE_TIME_TaskData+40
 733      0000 
 567:/home/simulink/cFS_FreeRTOS_seL4/cfe/fsw/cfe-core/src/time/cfe_time_utils.c ****     CFE_TIME_TaskData.HkPacket.Payload.Subsecs1HzAdj = CFE_TIME_TaskData.OneHzAdjust.Subseconds;
 734               	.loc 1 567 0
 735 06a6 2039 0000 	move.l CFE_TIME_TaskData+364,%d0
 735      0000 
 736 06ac 23C0 0000 	move.l %d0,CFE_TIME_TaskData+44
 736      0000 
 568:/home/simulink/cFS_FreeRTOS_seL4/cfe/fsw/cfe-core/src/time/cfe_time_utils.c ****     #endif
 569:/home/simulink/cFS_FreeRTOS_seL4/cfe/fsw/cfe-core/src/time/cfe_time_utils.c **** 
 570:/home/simulink/cFS_FreeRTOS_seL4/cfe/fsw/cfe-core/src/time/cfe_time_utils.c ****     /*
 571:/home/simulink/cFS_FreeRTOS_seL4/cfe/fsw/cfe-core/src/time/cfe_time_utils.c ****     ** Time at tone delay values (client only)...
 572:/home/simulink/cFS_FreeRTOS_seL4/cfe/fsw/cfe-core/src/time/cfe_time_utils.c ****     */
 573:/home/simulink/cFS_FreeRTOS_seL4/cfe/fsw/cfe-core/src/time/cfe_time_utils.c ****     #if (CFE_TIME_CFG_CLIENT == TRUE)
 574:/home/simulink/cFS_FreeRTOS_seL4/cfe/fsw/cfe-core/src/time/cfe_time_utils.c ****     CFE_TIME_TaskData.HkPacket.Payload.SecondsDelay = CFE_TIME_TaskData.AtToneDelay.Seconds;
 575:/home/simulink/cFS_FreeRTOS_seL4/cfe/fsw/cfe-core/src/time/cfe_time_utils.c ****     CFE_TIME_TaskData.HkPacket.Payload.SubsecsDelay = CFE_TIME_TaskData.AtToneDelay.Subseconds;
 576:/home/simulink/cFS_FreeRTOS_seL4/cfe/fsw/cfe-core/src/time/cfe_time_utils.c ****     #endif
 577:/home/simulink/cFS_FreeRTOS_seL4/cfe/fsw/cfe-core/src/time/cfe_time_utils.c **** 
 578:/home/simulink/cFS_FreeRTOS_seL4/cfe/fsw/cfe-core/src/time/cfe_time_utils.c **** 
 579:/home/simulink/cFS_FreeRTOS_seL4/cfe/fsw/cfe-core/src/time/cfe_time_utils.c **** 
 580:/home/simulink/cFS_FreeRTOS_seL4/cfe/fsw/cfe-core/src/time/cfe_time_utils.c ****     return;
 737               	.loc 1 580 0
 738 06b2 4E71      	nop
 581:/home/simulink/cFS_FreeRTOS_seL4/cfe/fsw/cfe-core/src/time/cfe_time_utils.c **** 
 582:/home/simulink/cFS_FreeRTOS_seL4/cfe/fsw/cfe-core/src/time/cfe_time_utils.c **** } /* End of CFE_TIME_GetHkData() */
 739               	.loc 1 582 0
 740 06b4 4E75      	rts
 741               	.cfi_endproc
 742               	.LFE64:
 743               	.sizeCFE_TIME_GetHkData, .-CFE_TIME_GetHkData
 744               	.align2
 745               	.globlCFE_TIME_GetDiagData
 746               	.typeCFE_TIME_GetDiagData, @function
 747               	CFE_TIME_GetDiagData:
 748               	.LFB65:
 583:/home/simulink/cFS_FreeRTOS_seL4/cfe/fsw/cfe-core/src/time/cfe_time_utils.c **** 
 584:/home/simulink/cFS_FreeRTOS_seL4/cfe/fsw/cfe-core/src/time/cfe_time_utils.c **** 
 585:/home/simulink/cFS_FreeRTOS_seL4/cfe/fsw/cfe-core/src/time/cfe_time_utils.c **** /* * * * * * * * * * * * * * * * * * * * * * * * * * * * * * * * * */
 586:/home/simulink/cFS_FreeRTOS_seL4/cfe/fsw/cfe-core/src/time/cfe_time_utils.c **** /*                                                                 */
 587:/home/simulink/cFS_FreeRTOS_seL4/cfe/fsw/cfe-core/src/time/cfe_time_utils.c **** /* CFE_TIME_GetDiagData() -- Report diagnostics data               */
 588:/home/simulink/cFS_FreeRTOS_seL4/cfe/fsw/cfe-core/src/time/cfe_time_utils.c **** /*                                                                 */
 589:/home/simulink/cFS_FreeRTOS_seL4/cfe/fsw/cfe-core/src/time/cfe_time_utils.c **** /* * * * * * * * * * * * * * * * * * * * * * * * * * * * * * * * * */
 590:/home/simulink/cFS_FreeRTOS_seL4/cfe/fsw/cfe-core/src/time/cfe_time_utils.c **** 
 591:/home/simulink/cFS_FreeRTOS_seL4/cfe/fsw/cfe-core/src/time/cfe_time_utils.c **** void CFE_TIME_GetDiagData(void)
68K GAS   			page 27


 592:/home/simulink/cFS_FreeRTOS_seL4/cfe/fsw/cfe-core/src/time/cfe_time_utils.c **** {
 749               	.loc 1 592 0
 750               	.cfi_startproc
 751 06b6 4FEF FFB8 	lea (-72,%sp),%sp
 752               	.cfi_def_cfa_offset 76
 593:/home/simulink/cFS_FreeRTOS_seL4/cfe/fsw/cfe-core/src/time/cfe_time_utils.c ****     CFE_TIME_Reference_t Reference;
 594:/home/simulink/cFS_FreeRTOS_seL4/cfe/fsw/cfe-core/src/time/cfe_time_utils.c ****     CFE_TIME_SysTime_t TempTime;
 595:/home/simulink/cFS_FreeRTOS_seL4/cfe/fsw/cfe-core/src/time/cfe_time_utils.c **** 
 596:/home/simulink/cFS_FreeRTOS_seL4/cfe/fsw/cfe-core/src/time/cfe_time_utils.c ****     /*
 597:/home/simulink/cFS_FreeRTOS_seL4/cfe/fsw/cfe-core/src/time/cfe_time_utils.c ****     ** Get reference time values (local time, time at tone, etc.)...
 598:/home/simulink/cFS_FreeRTOS_seL4/cfe/fsw/cfe-core/src/time/cfe_time_utils.c ****     */
 599:/home/simulink/cFS_FreeRTOS_seL4/cfe/fsw/cfe-core/src/time/cfe_time_utils.c ****     CFE_TIME_GetReference(&Reference);
 753               	.loc 1 599 0
 754 06ba 200F      	move.l %sp,%d0
 755 06bc 5080      	addq.l #8,%d0
 756 06be 2F00      	move.l %d0,-(%sp)
 757               	.cfi_def_cfa_offset 80
 758 06c0 4EB9 0000 	jsr CFE_TIME_GetReference
 758      0000 
 759 06c6 588F      	addq.l #4,%sp
 760               	.cfi_def_cfa_offset 76
 600:/home/simulink/cFS_FreeRTOS_seL4/cfe/fsw/cfe-core/src/time/cfe_time_utils.c **** 
 601:/home/simulink/cFS_FreeRTOS_seL4/cfe/fsw/cfe-core/src/time/cfe_time_utils.c ****     CFE_TIME_Copy(&CFE_TIME_TaskData.DiagPacket.Payload.AtToneMET, &Reference.AtToneMET);
 761               	.loc 1 601 0
 762 06c8 202F 0008 	move.l 8(%sp),%d0
 763 06cc 23C0 0000 	move.l %d0,CFE_TIME_TaskData+60
 763      0000 
 764 06d2 202F 000C 	move.l 12(%sp),%d0
 765 06d6 23C0 0000 	move.l %d0,CFE_TIME_TaskData+64
 765      0000 
 602:/home/simulink/cFS_FreeRTOS_seL4/cfe/fsw/cfe-core/src/time/cfe_time_utils.c ****     CFE_TIME_Copy(&CFE_TIME_TaskData.DiagPacket.Payload.AtToneSTCF, &Reference.AtToneSTCF);
 766               	.loc 1 602 0
 767 06dc 202F 0010 	move.l 16(%sp),%d0
 768 06e0 23C0 0000 	move.l %d0,CFE_TIME_TaskData+68
 768      0000 
 769 06e6 202F 0014 	move.l 20(%sp),%d0
 770 06ea 23C0 0000 	move.l %d0,CFE_TIME_TaskData+72
 770      0000 
 603:/home/simulink/cFS_FreeRTOS_seL4/cfe/fsw/cfe-core/src/time/cfe_time_utils.c ****     CFE_TIME_Copy(&CFE_TIME_TaskData.DiagPacket.Payload.AtToneDelay, &Reference.AtToneDelay);
 771               	.loc 1 603 0
 772 06f0 202F 0020 	move.l 32(%sp),%d0
 773 06f4 23C0 0000 	move.l %d0,CFE_TIME_TaskData+76
 773      0000 
 774 06fa 202F 0024 	move.l 36(%sp),%d0
 775 06fe 23C0 0000 	move.l %d0,CFE_TIME_TaskData+80
 775      0000 
 604:/home/simulink/cFS_FreeRTOS_seL4/cfe/fsw/cfe-core/src/time/cfe_time_utils.c ****     CFE_TIME_Copy(&CFE_TIME_TaskData.DiagPacket.Payload.AtToneLatch, &Reference.AtToneLatch);
 776               	.loc 1 604 0
 777 0704 202F 0028 	move.l 40(%sp),%d0
 778 0708 23C0 0000 	move.l %d0,CFE_TIME_TaskData+84
 778      0000 
 779 070e 202F 002C 	move.l 44(%sp),%d0
 780 0712 23C0 0000 	move.l %d0,CFE_TIME_TaskData+88
 780      0000 
 605:/home/simulink/cFS_FreeRTOS_seL4/cfe/fsw/cfe-core/src/time/cfe_time_utils.c **** 
 606:/home/simulink/cFS_FreeRTOS_seL4/cfe/fsw/cfe-core/src/time/cfe_time_utils.c ****     CFE_TIME_TaskData.DiagPacket.Payload.AtToneLeaps   = Reference.AtToneLeaps;
 781               	.loc 1 606 0
68K GAS   			page 28


 782 0718 302F 0018 	move.w 24(%sp),%d0
 783 071c 33C0 0000 	move.w %d0,CFE_TIME_TaskData+92
 783      0000 
 607:/home/simulink/cFS_FreeRTOS_seL4/cfe/fsw/cfe-core/src/time/cfe_time_utils.c ****     CFE_TIME_TaskData.DiagPacket.Payload.ClockStateAPI = CFE_TIME_CalculateState(&Reference);
 784               	.loc 1 607 0
 785 0722 200F      	move.l %sp,%d0
 786 0724 5080      	addq.l #8,%d0
 787 0726 2F00      	move.l %d0,-(%sp)
 788               	.cfi_def_cfa_offset 80
 789 0728 4EB9 0000 	jsr CFE_TIME_CalculateState
 789      0000 
 790 072e 588F      	addq.l #4,%sp
 791               	.cfi_def_cfa_offset 76
 792 0730 33C0 0000 	move.w %d0,CFE_TIME_TaskData+94
 792      0000 
 608:/home/simulink/cFS_FreeRTOS_seL4/cfe/fsw/cfe-core/src/time/cfe_time_utils.c **** 
 609:/home/simulink/cFS_FreeRTOS_seL4/cfe/fsw/cfe-core/src/time/cfe_time_utils.c ****     /*
 610:/home/simulink/cFS_FreeRTOS_seL4/cfe/fsw/cfe-core/src/time/cfe_time_utils.c ****     ** Data values that reflect the time (right now)...
 611:/home/simulink/cFS_FreeRTOS_seL4/cfe/fsw/cfe-core/src/time/cfe_time_utils.c ****     */
 612:/home/simulink/cFS_FreeRTOS_seL4/cfe/fsw/cfe-core/src/time/cfe_time_utils.c ****     CFE_TIME_Copy(&CFE_TIME_TaskData.DiagPacket.Payload.TimeSinceTone, &Reference.TimeSinceTone);
 793               	.loc 1 612 0
 794 0736 202F 0038 	move.l 56(%sp),%d0
 795 073a 23C0 0000 	move.l %d0,CFE_TIME_TaskData+96
 795      0000 
 796 0740 202F 003C 	move.l 60(%sp),%d0
 797 0744 23C0 0000 	move.l %d0,CFE_TIME_TaskData+100
 797      0000 
 613:/home/simulink/cFS_FreeRTOS_seL4/cfe/fsw/cfe-core/src/time/cfe_time_utils.c ****     CFE_TIME_Copy(&CFE_TIME_TaskData.DiagPacket.Payload.CurrentLatch, &Reference.CurrentLatch);
 798               	.loc 1 613 0
 799 074a 202F 0030 	move.l 48(%sp),%d0
 800 074e 23C0 0000 	move.l %d0,CFE_TIME_TaskData+104
 800      0000 
 801 0754 202F 0034 	move.l 52(%sp),%d0
 802 0758 23C0 0000 	move.l %d0,CFE_TIME_TaskData+108
 802      0000 
 614:/home/simulink/cFS_FreeRTOS_seL4/cfe/fsw/cfe-core/src/time/cfe_time_utils.c ****     CFE_TIME_Copy(&CFE_TIME_TaskData.DiagPacket.Payload.CurrentMET, &Reference.CurrentMET);
 803               	.loc 1 614 0
 804 075e 202F 0040 	move.l 64(%sp),%d0
 805 0762 23C0 0000 	move.l %d0,CFE_TIME_TaskData+112
 805      0000 
 806 0768 202F 0044 	move.l 68(%sp),%d0
 807 076c 23C0 0000 	move.l %d0,CFE_TIME_TaskData+116
 807      0000 
 615:/home/simulink/cFS_FreeRTOS_seL4/cfe/fsw/cfe-core/src/time/cfe_time_utils.c ****     TempTime = CFE_TIME_CalculateTAI(&Reference);
 808               	.loc 1 615 0
 809 0772 200F      	move.l %sp,%d0
 810 0774 5080      	addq.l #8,%d0
 811 0776 2F00      	move.l %d0,-(%sp)
 812               	.cfi_def_cfa_offset 80
 813 0778 4EB9 0000 	jsr CFE_TIME_CalculateTAI
 813      0000 
 814 077e 588F      	addq.l #4,%sp
 815               	.cfi_def_cfa_offset 76
 816 0780 2E80      	move.l %d0,(%sp)
 817 0782 2F41 0004 	move.l %d1,4(%sp)
 616:/home/simulink/cFS_FreeRTOS_seL4/cfe/fsw/cfe-core/src/time/cfe_time_utils.c ****     CFE_TIME_Copy(&CFE_TIME_TaskData.DiagPacket.Payload.CurrentTAI, &TempTime);
 818               	.loc 1 616 0
68K GAS   			page 29


 819 0786 2017      	move.l (%sp),%d0
 820 0788 23C0 0000 	move.l %d0,CFE_TIME_TaskData+120
 820      0000 
 821 078e 202F 0004 	move.l 4(%sp),%d0
 822 0792 23C0 0000 	move.l %d0,CFE_TIME_TaskData+124
 822      0000 
 617:/home/simulink/cFS_FreeRTOS_seL4/cfe/fsw/cfe-core/src/time/cfe_time_utils.c ****     TempTime = CFE_TIME_CalculateUTC(&Reference);
 823               	.loc 1 617 0
 824 0798 200F      	move.l %sp,%d0
 825 079a 5080      	addq.l #8,%d0
 826 079c 2F00      	move.l %d0,-(%sp)
 827               	.cfi_def_cfa_offset 80
 828 079e 4EB9 0000 	jsr CFE_TIME_CalculateUTC
 828      0000 
 829 07a4 588F      	addq.l #4,%sp
 830               	.cfi_def_cfa_offset 76
 831 07a6 2E80      	move.l %d0,(%sp)
 832 07a8 2F41 0004 	move.l %d1,4(%sp)
 618:/home/simulink/cFS_FreeRTOS_seL4/cfe/fsw/cfe-core/src/time/cfe_time_utils.c ****     CFE_TIME_Copy(&CFE_TIME_TaskData.DiagPacket.Payload.CurrentUTC, &TempTime);
 833               	.loc 1 618 0
 834 07ac 2017      	move.l (%sp),%d0
 835 07ae 23C0 0000 	move.l %d0,CFE_TIME_TaskData+128
 835      0000 
 836 07b4 202F 0004 	move.l 4(%sp),%d0
 837 07b8 23C0 0000 	move.l %d0,CFE_TIME_TaskData+132
 837      0000 
 619:/home/simulink/cFS_FreeRTOS_seL4/cfe/fsw/cfe-core/src/time/cfe_time_utils.c **** 
 620:/home/simulink/cFS_FreeRTOS_seL4/cfe/fsw/cfe-core/src/time/cfe_time_utils.c ****     /*
 621:/home/simulink/cFS_FreeRTOS_seL4/cfe/fsw/cfe-core/src/time/cfe_time_utils.c ****     ** Data values used to define the current clock state...
 622:/home/simulink/cFS_FreeRTOS_seL4/cfe/fsw/cfe-core/src/time/cfe_time_utils.c ****     */
 623:/home/simulink/cFS_FreeRTOS_seL4/cfe/fsw/cfe-core/src/time/cfe_time_utils.c ****     CFE_TIME_TaskData.DiagPacket.Payload.ClockSetState  = Reference.ClockSetState;
 838               	.loc 1 623 0
 839 07be 302F 001A 	move.w 26(%sp),%d0
 840 07c2 33C0 0000 	move.w %d0,CFE_TIME_TaskData+136
 840      0000 
 624:/home/simulink/cFS_FreeRTOS_seL4/cfe/fsw/cfe-core/src/time/cfe_time_utils.c ****     CFE_TIME_TaskData.DiagPacket.Payload.ClockFlyState  = Reference.ClockFlyState;
 841               	.loc 1 624 0
 842 07c8 302F 001C 	move.w 28(%sp),%d0
 843 07cc 33C0 0000 	move.w %d0,CFE_TIME_TaskData+138
 843      0000 
 625:/home/simulink/cFS_FreeRTOS_seL4/cfe/fsw/cfe-core/src/time/cfe_time_utils.c ****     CFE_TIME_TaskData.DiagPacket.Payload.ClockSource    = CFE_TIME_TaskData.ClockSource;
 844               	.loc 1 625 0
 845 07d2 3039 0000 	move.w CFE_TIME_TaskData+324,%d0
 845      0000 
 846 07d8 33C0 0000 	move.w %d0,CFE_TIME_TaskData+140
 846      0000 
 626:/home/simulink/cFS_FreeRTOS_seL4/cfe/fsw/cfe-core/src/time/cfe_time_utils.c ****     CFE_TIME_TaskData.DiagPacket.Payload.ClockSignal    = CFE_TIME_TaskData.ClockSignal;
 847               	.loc 1 626 0
 848 07de 3039 0000 	move.w CFE_TIME_TaskData+326,%d0
 848      0000 
 849 07e4 33C0 0000 	move.w %d0,CFE_TIME_TaskData+142
 849      0000 
 627:/home/simulink/cFS_FreeRTOS_seL4/cfe/fsw/cfe-core/src/time/cfe_time_utils.c ****     CFE_TIME_TaskData.DiagPacket.Payload.ServerFlyState = CFE_TIME_TaskData.ServerFlyState;
 850               	.loc 1 627 0
 851 07ea 3039 0000 	move.w CFE_TIME_TaskData+328,%d0
 851      0000 
 852 07f0 33C0 0000 	move.w %d0,CFE_TIME_TaskData+144
68K GAS   			page 30


 852      0000 
 628:/home/simulink/cFS_FreeRTOS_seL4/cfe/fsw/cfe-core/src/time/cfe_time_utils.c ****     CFE_TIME_TaskData.DiagPacket.Payload.Forced2Fly     = (int16) CFE_TIME_TaskData.Forced2Fly;
 853               	.loc 1 628 0
 854 07f6 1039 0000 	move.b CFE_TIME_TaskData+460,%d0
 854      0000 
 855 07fc 1000      	move.b %d0,%d0
 856 07fe 0280 0000 	and.l #255,%d0
 856      00FF 
 857 0804 3000      	move.w %d0,%d0
 858 0806 33C0 0000 	move.w %d0,CFE_TIME_TaskData+146
 858      0000 
 629:/home/simulink/cFS_FreeRTOS_seL4/cfe/fsw/cfe-core/src/time/cfe_time_utils.c **** 
 630:/home/simulink/cFS_FreeRTOS_seL4/cfe/fsw/cfe-core/src/time/cfe_time_utils.c ****     /*
 631:/home/simulink/cFS_FreeRTOS_seL4/cfe/fsw/cfe-core/src/time/cfe_time_utils.c ****     ** Clock state flags...
 632:/home/simulink/cFS_FreeRTOS_seL4/cfe/fsw/cfe-core/src/time/cfe_time_utils.c ****     */
 633:/home/simulink/cFS_FreeRTOS_seL4/cfe/fsw/cfe-core/src/time/cfe_time_utils.c ****     CFE_TIME_TaskData.DiagPacket.Payload.ClockStateFlags = CFE_TIME_GetStateFlags();
 859               	.loc 1 633 0
 860 080c 4EB9 0000 	jsr CFE_TIME_GetStateFlags
 860      0000 
 861 0812 33C0 0000 	move.w %d0,CFE_TIME_TaskData+148
 861      0000 
 634:/home/simulink/cFS_FreeRTOS_seL4/cfe/fsw/cfe-core/src/time/cfe_time_utils.c **** 
 635:/home/simulink/cFS_FreeRTOS_seL4/cfe/fsw/cfe-core/src/time/cfe_time_utils.c ****     /*
 636:/home/simulink/cFS_FreeRTOS_seL4/cfe/fsw/cfe-core/src/time/cfe_time_utils.c ****     ** STCF adjustment direction values...
 637:/home/simulink/cFS_FreeRTOS_seL4/cfe/fsw/cfe-core/src/time/cfe_time_utils.c ****     */
 638:/home/simulink/cFS_FreeRTOS_seL4/cfe/fsw/cfe-core/src/time/cfe_time_utils.c ****     CFE_TIME_TaskData.DiagPacket.Payload.OneTimeDirection = CFE_TIME_TaskData.OneTimeDirection;
 862               	.loc 1 638 0
 863 0818 3039 0000 	move.w CFE_TIME_TaskData+368,%d0
 863      0000 
 864 081e 33C0 0000 	move.w %d0,CFE_TIME_TaskData+150
 864      0000 
 639:/home/simulink/cFS_FreeRTOS_seL4/cfe/fsw/cfe-core/src/time/cfe_time_utils.c ****     CFE_TIME_TaskData.DiagPacket.Payload.OneHzDirection   = CFE_TIME_TaskData.OneHzDirection;
 865               	.loc 1 639 0
 866 0824 3039 0000 	move.w CFE_TIME_TaskData+370,%d0
 866      0000 
 867 082a 33C0 0000 	move.w %d0,CFE_TIME_TaskData+152
 867      0000 
 640:/home/simulink/cFS_FreeRTOS_seL4/cfe/fsw/cfe-core/src/time/cfe_time_utils.c ****     CFE_TIME_TaskData.DiagPacket.Payload.DelayDirection   = CFE_TIME_TaskData.DelayDirection;
 868               	.loc 1 640 0
 869 0830 3039 0000 	move.w CFE_TIME_TaskData+372,%d0
 869      0000 
 870 0836 33C0 0000 	move.w %d0,CFE_TIME_TaskData+154
 870      0000 
 641:/home/simulink/cFS_FreeRTOS_seL4/cfe/fsw/cfe-core/src/time/cfe_time_utils.c **** 
 642:/home/simulink/cFS_FreeRTOS_seL4/cfe/fsw/cfe-core/src/time/cfe_time_utils.c ****     /*
 643:/home/simulink/cFS_FreeRTOS_seL4/cfe/fsw/cfe-core/src/time/cfe_time_utils.c ****     ** STCF adjustment values...
 644:/home/simulink/cFS_FreeRTOS_seL4/cfe/fsw/cfe-core/src/time/cfe_time_utils.c ****     */
 645:/home/simulink/cFS_FreeRTOS_seL4/cfe/fsw/cfe-core/src/time/cfe_time_utils.c ****     CFE_TIME_Copy(&CFE_TIME_TaskData.DiagPacket.Payload.OneTimeAdjust, &CFE_TIME_TaskData.OneTimeAd
 871               	.loc 1 645 0
 872 083c 2039 0000 	move.l CFE_TIME_TaskData+352,%d0
 872      0000 
 873 0842 23C0 0000 	move.l %d0,CFE_TIME_TaskData+156
 873      0000 
 874 0848 2039 0000 	move.l CFE_TIME_TaskData+356,%d0
 874      0000 
 875 084e 23C0 0000 	move.l %d0,CFE_TIME_TaskData+160
 875      0000 
68K GAS   			page 31


 646:/home/simulink/cFS_FreeRTOS_seL4/cfe/fsw/cfe-core/src/time/cfe_time_utils.c ****     CFE_TIME_Copy(&CFE_TIME_TaskData.DiagPacket.Payload.OneHzAdjust, &CFE_TIME_TaskData.OneHzAdjust
 876               	.loc 1 646 0
 877 0854 2039 0000 	move.l CFE_TIME_TaskData+360,%d0
 877      0000 
 878 085a 23C0 0000 	move.l %d0,CFE_TIME_TaskData+164
 878      0000 
 879 0860 2039 0000 	move.l CFE_TIME_TaskData+364,%d0
 879      0000 
 880 0866 23C0 0000 	move.l %d0,CFE_TIME_TaskData+168
 880      0000 
 647:/home/simulink/cFS_FreeRTOS_seL4/cfe/fsw/cfe-core/src/time/cfe_time_utils.c **** 
 648:/home/simulink/cFS_FreeRTOS_seL4/cfe/fsw/cfe-core/src/time/cfe_time_utils.c ****     /*
 649:/home/simulink/cFS_FreeRTOS_seL4/cfe/fsw/cfe-core/src/time/cfe_time_utils.c ****     ** Most recent local clock latch values...
 650:/home/simulink/cFS_FreeRTOS_seL4/cfe/fsw/cfe-core/src/time/cfe_time_utils.c ****     */
 651:/home/simulink/cFS_FreeRTOS_seL4/cfe/fsw/cfe-core/src/time/cfe_time_utils.c ****     CFE_TIME_Copy(&CFE_TIME_TaskData.DiagPacket.Payload.ToneSignalLatch, &CFE_TIME_TaskData.ToneSig
 881               	.loc 1 651 0
 882 086c 2039 0000 	move.l CFE_TIME_TaskData+376,%d0
 882      0000 
 883 0872 23C0 0000 	move.l %d0,CFE_TIME_TaskData+172
 883      0000 
 884 0878 2039 0000 	move.l CFE_TIME_TaskData+380,%d0
 884      0000 
 885 087e 23C0 0000 	move.l %d0,CFE_TIME_TaskData+176
 885      0000 
 652:/home/simulink/cFS_FreeRTOS_seL4/cfe/fsw/cfe-core/src/time/cfe_time_utils.c ****     CFE_TIME_Copy(&CFE_TIME_TaskData.DiagPacket.Payload.ToneDataLatch, &CFE_TIME_TaskData.ToneDataL
 886               	.loc 1 652 0
 887 0884 2039 0000 	move.l CFE_TIME_TaskData+384,%d0
 887      0000 
 888 088a 23C0 0000 	move.l %d0,CFE_TIME_TaskData+180
 888      0000 
 889 0890 2039 0000 	move.l CFE_TIME_TaskData+388,%d0
 889      0000 
 890 0896 23C0 0000 	move.l %d0,CFE_TIME_TaskData+184
 890      0000 
 653:/home/simulink/cFS_FreeRTOS_seL4/cfe/fsw/cfe-core/src/time/cfe_time_utils.c **** 
 654:/home/simulink/cFS_FreeRTOS_seL4/cfe/fsw/cfe-core/src/time/cfe_time_utils.c ****     /*
 655:/home/simulink/cFS_FreeRTOS_seL4/cfe/fsw/cfe-core/src/time/cfe_time_utils.c ****     ** Miscellaneous counters (subject to reset command)...
 656:/home/simulink/cFS_FreeRTOS_seL4/cfe/fsw/cfe-core/src/time/cfe_time_utils.c ****     */
 657:/home/simulink/cFS_FreeRTOS_seL4/cfe/fsw/cfe-core/src/time/cfe_time_utils.c ****     CFE_TIME_TaskData.DiagPacket.Payload.ToneMatchCount  = CFE_TIME_TaskData.ToneMatchCount;
 891               	.loc 1 657 0
 892 089c 2039 0000 	move.l CFE_TIME_TaskData+392,%d0
 892      0000 
 893 08a2 23C0 0000 	move.l %d0,CFE_TIME_TaskData+188
 893      0000 
 658:/home/simulink/cFS_FreeRTOS_seL4/cfe/fsw/cfe-core/src/time/cfe_time_utils.c ****     CFE_TIME_TaskData.DiagPacket.Payload.ToneMatchErrors = CFE_TIME_TaskData.ToneMatchErrors;
 894               	.loc 1 658 0
 895 08a8 2039 0000 	move.l CFE_TIME_TaskData+396,%d0
 895      0000 
 896 08ae 23C0 0000 	move.l %d0,CFE_TIME_TaskData+192
 896      0000 
 659:/home/simulink/cFS_FreeRTOS_seL4/cfe/fsw/cfe-core/src/time/cfe_time_utils.c ****     CFE_TIME_TaskData.DiagPacket.Payload.ToneSignalCount = CFE_TIME_TaskData.ToneSignalCount;
 897               	.loc 1 659 0
 898 08b4 2039 0000 	move.l CFE_TIME_TaskData+400,%d0
 898      0000 
 899 08ba 23C0 0000 	move.l %d0,CFE_TIME_TaskData+196
 899      0000 
 660:/home/simulink/cFS_FreeRTOS_seL4/cfe/fsw/cfe-core/src/time/cfe_time_utils.c ****     CFE_TIME_TaskData.DiagPacket.Payload.ToneDataCount   = CFE_TIME_TaskData.ToneDataCount;
68K GAS   			page 32


 900               	.loc 1 660 0
 901 08c0 2039 0000 	move.l CFE_TIME_TaskData+404,%d0
 901      0000 
 902 08c6 23C0 0000 	move.l %d0,CFE_TIME_TaskData+200
 902      0000 
 661:/home/simulink/cFS_FreeRTOS_seL4/cfe/fsw/cfe-core/src/time/cfe_time_utils.c ****     CFE_TIME_TaskData.DiagPacket.Payload.ToneIntCount    = CFE_TIME_TaskData.ToneIntCount;
 903               	.loc 1 661 0
 904 08cc 2039 0000 	move.l CFE_TIME_TaskData+408,%d0
 904      0000 
 905 08d2 23C0 0000 	move.l %d0,CFE_TIME_TaskData+204
 905      0000 
 662:/home/simulink/cFS_FreeRTOS_seL4/cfe/fsw/cfe-core/src/time/cfe_time_utils.c ****     CFE_TIME_TaskData.DiagPacket.Payload.ToneIntErrors   = CFE_TIME_TaskData.ToneIntErrors;
 906               	.loc 1 662 0
 907 08d8 2039 0000 	move.l CFE_TIME_TaskData+412,%d0
 907      0000 
 908 08de 23C0 0000 	move.l %d0,CFE_TIME_TaskData+208
 908      0000 
 663:/home/simulink/cFS_FreeRTOS_seL4/cfe/fsw/cfe-core/src/time/cfe_time_utils.c ****     CFE_TIME_TaskData.DiagPacket.Payload.ToneTaskCount   = CFE_TIME_TaskData.ToneTaskCount;
 909               	.loc 1 663 0
 910 08e4 2039 0000 	move.l CFE_TIME_TaskData+416,%d0
 910      0000 
 911 08ea 23C0 0000 	move.l %d0,CFE_TIME_TaskData+212
 911      0000 
 664:/home/simulink/cFS_FreeRTOS_seL4/cfe/fsw/cfe-core/src/time/cfe_time_utils.c ****     CFE_TIME_TaskData.DiagPacket.Payload.VersionCount    = CFE_TIME_TaskData.VersionCount;
 912               	.loc 1 664 0
 913 08f0 2039 0000 	move.l CFE_TIME_TaskData+424,%d0
 913      0000 
 914 08f6 23C0 0000 	move.l %d0,CFE_TIME_TaskData+216
 914      0000 
 665:/home/simulink/cFS_FreeRTOS_seL4/cfe/fsw/cfe-core/src/time/cfe_time_utils.c ****     CFE_TIME_TaskData.DiagPacket.Payload.LocalIntCount   = CFE_TIME_TaskData.LocalIntCount;
 915               	.loc 1 665 0
 916 08fc 2039 0000 	move.l CFE_TIME_TaskData+428,%d0
 916      0000 
 917 0902 23C0 0000 	move.l %d0,CFE_TIME_TaskData+220
 917      0000 
 666:/home/simulink/cFS_FreeRTOS_seL4/cfe/fsw/cfe-core/src/time/cfe_time_utils.c ****     CFE_TIME_TaskData.DiagPacket.Payload.LocalTaskCount  = CFE_TIME_TaskData.LocalTaskCount;
 918               	.loc 1 666 0
 919 0908 2039 0000 	move.l CFE_TIME_TaskData+432,%d0
 919      0000 
 920 090e 23C0 0000 	move.l %d0,CFE_TIME_TaskData+224
 920      0000 
 667:/home/simulink/cFS_FreeRTOS_seL4/cfe/fsw/cfe-core/src/time/cfe_time_utils.c **** 
 668:/home/simulink/cFS_FreeRTOS_seL4/cfe/fsw/cfe-core/src/time/cfe_time_utils.c ****     /*
 669:/home/simulink/cFS_FreeRTOS_seL4/cfe/fsw/cfe-core/src/time/cfe_time_utils.c ****     ** Miscellaneous counters (not subject to reset command)...
 670:/home/simulink/cFS_FreeRTOS_seL4/cfe/fsw/cfe-core/src/time/cfe_time_utils.c ****     */
 671:/home/simulink/cFS_FreeRTOS_seL4/cfe/fsw/cfe-core/src/time/cfe_time_utils.c ****     CFE_TIME_TaskData.DiagPacket.Payload.VirtualMET = CFE_TIME_TaskData.VirtualMET;
 921               	.loc 1 671 0
 922 0914 2039 0000 	move.l CFE_TIME_TaskData+420,%d0
 922      0000 
 923 091a 23C0 0000 	move.l %d0,CFE_TIME_TaskData+228
 923      0000 
 672:/home/simulink/cFS_FreeRTOS_seL4/cfe/fsw/cfe-core/src/time/cfe_time_utils.c **** 
 673:/home/simulink/cFS_FreeRTOS_seL4/cfe/fsw/cfe-core/src/time/cfe_time_utils.c ****     /*
 674:/home/simulink/cFS_FreeRTOS_seL4/cfe/fsw/cfe-core/src/time/cfe_time_utils.c ****     ** Time window verification values (converted from micro-secs)...
 675:/home/simulink/cFS_FreeRTOS_seL4/cfe/fsw/cfe-core/src/time/cfe_time_utils.c ****     **
 676:/home/simulink/cFS_FreeRTOS_seL4/cfe/fsw/cfe-core/src/time/cfe_time_utils.c ****     ** Regardless of whether the tone follows the time packet, or vice
 677:/home/simulink/cFS_FreeRTOS_seL4/cfe/fsw/cfe-core/src/time/cfe_time_utils.c ****     **    versa, these values define the acceptable window of time for
68K GAS   			page 33


 678:/home/simulink/cFS_FreeRTOS_seL4/cfe/fsw/cfe-core/src/time/cfe_time_utils.c ****     **    the second event to follow the first.  The minimum value may
 679:/home/simulink/cFS_FreeRTOS_seL4/cfe/fsw/cfe-core/src/time/cfe_time_utils.c ****     **    be as little as zero, and the maximum must be something less
 680:/home/simulink/cFS_FreeRTOS_seL4/cfe/fsw/cfe-core/src/time/cfe_time_utils.c ****     **    than a second.
 681:/home/simulink/cFS_FreeRTOS_seL4/cfe/fsw/cfe-core/src/time/cfe_time_utils.c ****     */
 682:/home/simulink/cFS_FreeRTOS_seL4/cfe/fsw/cfe-core/src/time/cfe_time_utils.c ****     CFE_TIME_TaskData.DiagPacket.Payload.MinElapsed = CFE_TIME_TaskData.MinElapsed;
 924               	.loc 1 682 0
 925 0920 2039 0000 	move.l CFE_TIME_TaskData+444,%d0
 925      0000 
 926 0926 23C0 0000 	move.l %d0,CFE_TIME_TaskData+232
 926      0000 
 683:/home/simulink/cFS_FreeRTOS_seL4/cfe/fsw/cfe-core/src/time/cfe_time_utils.c ****     CFE_TIME_TaskData.DiagPacket.Payload.MaxElapsed = CFE_TIME_TaskData.MaxElapsed;
 927               	.loc 1 683 0
 928 092c 2039 0000 	move.l CFE_TIME_TaskData+448,%d0
 928      0000 
 929 0932 23C0 0000 	move.l %d0,CFE_TIME_TaskData+236
 929      0000 
 684:/home/simulink/cFS_FreeRTOS_seL4/cfe/fsw/cfe-core/src/time/cfe_time_utils.c **** 
 685:/home/simulink/cFS_FreeRTOS_seL4/cfe/fsw/cfe-core/src/time/cfe_time_utils.c ****     /*
 686:/home/simulink/cFS_FreeRTOS_seL4/cfe/fsw/cfe-core/src/time/cfe_time_utils.c ****     ** Maximum local clock value (before roll-over)...
 687:/home/simulink/cFS_FreeRTOS_seL4/cfe/fsw/cfe-core/src/time/cfe_time_utils.c ****     */
 688:/home/simulink/cFS_FreeRTOS_seL4/cfe/fsw/cfe-core/src/time/cfe_time_utils.c ****     CFE_TIME_Copy(&CFE_TIME_TaskData.DiagPacket.Payload.MaxLocalClock, &CFE_TIME_TaskData.MaxLocalC
 930               	.loc 1 688 0
 931 0938 2039 0000 	move.l CFE_TIME_TaskData+452,%d0
 931      0000 
 932 093e 23C0 0000 	move.l %d0,CFE_TIME_TaskData+240
 932      0000 
 933 0944 2039 0000 	move.l CFE_TIME_TaskData+456,%d0
 933      0000 
 934 094a 23C0 0000 	move.l %d0,CFE_TIME_TaskData+244
 934      0000 
 689:/home/simulink/cFS_FreeRTOS_seL4/cfe/fsw/cfe-core/src/time/cfe_time_utils.c **** 
 690:/home/simulink/cFS_FreeRTOS_seL4/cfe/fsw/cfe-core/src/time/cfe_time_utils.c ****     /*
 691:/home/simulink/cFS_FreeRTOS_seL4/cfe/fsw/cfe-core/src/time/cfe_time_utils.c ****     ** Tone signal tolerance limits...
 692:/home/simulink/cFS_FreeRTOS_seL4/cfe/fsw/cfe-core/src/time/cfe_time_utils.c ****     */
 693:/home/simulink/cFS_FreeRTOS_seL4/cfe/fsw/cfe-core/src/time/cfe_time_utils.c ****     CFE_TIME_TaskData.DiagPacket.Payload.ToneOverLimit  = CFE_TIME_TaskData.ToneOverLimit;
 935               	.loc 1 693 0
 936 0950 2039 0000 	move.l CFE_TIME_TaskData+540,%d0
 936      0000 
 937 0956 23C0 0000 	move.l %d0,CFE_TIME_TaskData+248
 937      0000 
 694:/home/simulink/cFS_FreeRTOS_seL4/cfe/fsw/cfe-core/src/time/cfe_time_utils.c ****     CFE_TIME_TaskData.DiagPacket.Payload.ToneUnderLimit = CFE_TIME_TaskData.ToneUnderLimit;
 938               	.loc 1 694 0
 939 095c 2039 0000 	move.l CFE_TIME_TaskData+544,%d0
 939      0000 
 940 0962 23C0 0000 	move.l %d0,CFE_TIME_TaskData+252
 940      0000 
 695:/home/simulink/cFS_FreeRTOS_seL4/cfe/fsw/cfe-core/src/time/cfe_time_utils.c **** 
 696:/home/simulink/cFS_FreeRTOS_seL4/cfe/fsw/cfe-core/src/time/cfe_time_utils.c ****     /*
 697:/home/simulink/cFS_FreeRTOS_seL4/cfe/fsw/cfe-core/src/time/cfe_time_utils.c ****     ** Reset Area access status...
 698:/home/simulink/cFS_FreeRTOS_seL4/cfe/fsw/cfe-core/src/time/cfe_time_utils.c ****     */
 699:/home/simulink/cFS_FreeRTOS_seL4/cfe/fsw/cfe-core/src/time/cfe_time_utils.c ****     CFE_TIME_TaskData.DiagPacket.Payload.DataStoreStatus  = CFE_TIME_TaskData.DataStoreStatus;
 941               	.loc 1 699 0
 942 0968 2039 0000 	move.l CFE_TIME_TaskData+548,%d0
 942      0000 
 943 096e 23C0 0000 	move.l %d0,CFE_TIME_TaskData+256
 943      0000 
 700:/home/simulink/cFS_FreeRTOS_seL4/cfe/fsw/cfe-core/src/time/cfe_time_utils.c **** 
68K GAS   			page 34


 701:/home/simulink/cFS_FreeRTOS_seL4/cfe/fsw/cfe-core/src/time/cfe_time_utils.c ****     return;
 944               	.loc 1 701 0
 945 0974 4E71      	nop
 702:/home/simulink/cFS_FreeRTOS_seL4/cfe/fsw/cfe-core/src/time/cfe_time_utils.c **** 
 703:/home/simulink/cFS_FreeRTOS_seL4/cfe/fsw/cfe-core/src/time/cfe_time_utils.c **** } /* End of CFE_TIME_GetDiagData() */
 946               	.loc 1 703 0
 947 0976 4FEF 0048 	lea (72,%sp),%sp
 948 097a 4E75      	rts
 949               	.cfi_endproc
 950               	.LFE65:
 951               	.sizeCFE_TIME_GetDiagData, .-CFE_TIME_GetDiagData
 952               	.align2
 953               	.globlCFE_TIME_GetReference
 954               	.typeCFE_TIME_GetReference, @function
 955               	CFE_TIME_GetReference:
 956               	.LFB66:
 704:/home/simulink/cFS_FreeRTOS_seL4/cfe/fsw/cfe-core/src/time/cfe_time_utils.c **** 
 705:/home/simulink/cFS_FreeRTOS_seL4/cfe/fsw/cfe-core/src/time/cfe_time_utils.c **** 
 706:/home/simulink/cFS_FreeRTOS_seL4/cfe/fsw/cfe-core/src/time/cfe_time_utils.c **** /* * * * * * * * * * * * * * * * * * * * * * * * * * * * * * * * * */
 707:/home/simulink/cFS_FreeRTOS_seL4/cfe/fsw/cfe-core/src/time/cfe_time_utils.c **** /*                                                                 */
 708:/home/simulink/cFS_FreeRTOS_seL4/cfe/fsw/cfe-core/src/time/cfe_time_utils.c **** /* CFE_TIME_GetReference() -- get reference data (time at "tone")  */
 709:/home/simulink/cFS_FreeRTOS_seL4/cfe/fsw/cfe-core/src/time/cfe_time_utils.c **** /*                                                                 */
 710:/home/simulink/cFS_FreeRTOS_seL4/cfe/fsw/cfe-core/src/time/cfe_time_utils.c **** /* * * * * * * * * * * * * * * * * * * * * * * * * * * * * * * * * */
 711:/home/simulink/cFS_FreeRTOS_seL4/cfe/fsw/cfe-core/src/time/cfe_time_utils.c **** 
 712:/home/simulink/cFS_FreeRTOS_seL4/cfe/fsw/cfe-core/src/time/cfe_time_utils.c **** void CFE_TIME_GetReference(CFE_TIME_Reference_t *Reference)
 713:/home/simulink/cFS_FreeRTOS_seL4/cfe/fsw/cfe-core/src/time/cfe_time_utils.c **** {
 957               	.loc 1 713 0
 958               	.cfi_startproc
 959 097c 4FEF FFEC 	lea (-20,%sp),%sp
 960               	.cfi_def_cfa_offset 24
 961 0980 2F0A      	move.l %a2,-(%sp)
 962               	.cfi_def_cfa_offset 28
 963               	.cfi_offset 10, -28
 964               	.L35:
 714:/home/simulink/cFS_FreeRTOS_seL4/cfe/fsw/cfe-core/src/time/cfe_time_utils.c ****     CFE_TIME_SysTime_t TimeSinceTone;
 715:/home/simulink/cFS_FreeRTOS_seL4/cfe/fsw/cfe-core/src/time/cfe_time_utils.c ****     CFE_TIME_SysTime_t CurrentMET;
 716:/home/simulink/cFS_FreeRTOS_seL4/cfe/fsw/cfe-core/src/time/cfe_time_utils.c ****     uint32 VersionCount;
 717:/home/simulink/cFS_FreeRTOS_seL4/cfe/fsw/cfe-core/src/time/cfe_time_utils.c **** 
 718:/home/simulink/cFS_FreeRTOS_seL4/cfe/fsw/cfe-core/src/time/cfe_time_utils.c ****     /*
 719:/home/simulink/cFS_FreeRTOS_seL4/cfe/fsw/cfe-core/src/time/cfe_time_utils.c ****     ** VersionCount is incremented when reference data is modified...
 720:/home/simulink/cFS_FreeRTOS_seL4/cfe/fsw/cfe-core/src/time/cfe_time_utils.c ****     */
 721:/home/simulink/cFS_FreeRTOS_seL4/cfe/fsw/cfe-core/src/time/cfe_time_utils.c ****     do
 722:/home/simulink/cFS_FreeRTOS_seL4/cfe/fsw/cfe-core/src/time/cfe_time_utils.c ****     {
 723:/home/simulink/cFS_FreeRTOS_seL4/cfe/fsw/cfe-core/src/time/cfe_time_utils.c ****         VersionCount = CFE_TIME_TaskData.VersionCount;
 965               	.loc 1 723 0 discriminator 1
 966 0982 41F9 0000 	lea CFE_TIME_TaskData+424,%a0
 966      0000 
 967 0988 2F50 0014 	move.l (%a0),20(%sp)
 724:/home/simulink/cFS_FreeRTOS_seL4/cfe/fsw/cfe-core/src/time/cfe_time_utils.c **** 
 725:/home/simulink/cFS_FreeRTOS_seL4/cfe/fsw/cfe-core/src/time/cfe_time_utils.c ****         Reference->CurrentLatch = CFE_TIME_LatchClock();
 968               	.loc 1 725 0 discriminator 1
 969 098c 246F 001C 	move.l 28(%sp),%a2
 970 0990 4EB9 0000 	jsr CFE_TIME_LatchClock
 970      0000 
 971 0996 2540 0028 	move.l %d0,40(%a2)
 972 099a 2541 002C 	move.l %d1,44(%a2)
 726:/home/simulink/cFS_FreeRTOS_seL4/cfe/fsw/cfe-core/src/time/cfe_time_utils.c **** 
68K GAS   			page 35


 727:/home/simulink/cFS_FreeRTOS_seL4/cfe/fsw/cfe-core/src/time/cfe_time_utils.c ****         Reference->AtToneMET    = CFE_TIME_TaskData.AtToneMET;
 973               	.loc 1 727 0 discriminator 1
 974 099e 206F 001C 	move.l 28(%sp),%a0
 975 09a2 2039 0000 	move.l CFE_TIME_TaskData+284,%d0
 975      0000 
 976 09a8 2239 0000 	move.l CFE_TIME_TaskData+288,%d1
 976      0000 
 977 09ae 2080      	move.l %d0,(%a0)
 978 09b0 2141 0004 	move.l %d1,4(%a0)
 728:/home/simulink/cFS_FreeRTOS_seL4/cfe/fsw/cfe-core/src/time/cfe_time_utils.c ****         Reference->AtToneSTCF   = CFE_TIME_TaskData.AtToneSTCF;
 979               	.loc 1 728 0 discriminator 1
 980 09b4 206F 001C 	move.l 28(%sp),%a0
 981 09b8 2039 0000 	move.l CFE_TIME_TaskData+292,%d0
 981      0000 
 982 09be 2239 0000 	move.l CFE_TIME_TaskData+296,%d1
 982      0000 
 983 09c4 2140 0008 	move.l %d0,8(%a0)
 984 09c8 2141 000C 	move.l %d1,12(%a0)
 729:/home/simulink/cFS_FreeRTOS_seL4/cfe/fsw/cfe-core/src/time/cfe_time_utils.c ****         Reference->AtToneLeaps  = CFE_TIME_TaskData.AtToneLeaps;
 985               	.loc 1 729 0 discriminator 1
 986 09cc 3039 0000 	move.w CFE_TIME_TaskData+300,%d0
 986      0000 
 987 09d2 206F 001C 	move.l 28(%sp),%a0
 988 09d6 3140 0010 	move.w %d0,16(%a0)
 730:/home/simulink/cFS_FreeRTOS_seL4/cfe/fsw/cfe-core/src/time/cfe_time_utils.c ****         Reference->AtToneDelay  = CFE_TIME_TaskData.AtToneDelay;
 989               	.loc 1 730 0 discriminator 1
 990 09da 206F 001C 	move.l 28(%sp),%a0
 991 09de 2039 0000 	move.l CFE_TIME_TaskData+304,%d0
 991      0000 
 992 09e4 2239 0000 	move.l CFE_TIME_TaskData+308,%d1
 992      0000 
 993 09ea 2140 0018 	move.l %d0,24(%a0)
 994 09ee 2141 001C 	move.l %d1,28(%a0)
 731:/home/simulink/cFS_FreeRTOS_seL4/cfe/fsw/cfe-core/src/time/cfe_time_utils.c ****         Reference->AtToneLatch  = CFE_TIME_TaskData.AtToneLatch;
 995               	.loc 1 731 0 discriminator 1
 996 09f2 206F 001C 	move.l 28(%sp),%a0
 997 09f6 2039 0000 	move.l CFE_TIME_TaskData+312,%d0
 997      0000 
 998 09fc 2239 0000 	move.l CFE_TIME_TaskData+316,%d1
 998      0000 
 999 0a02 2140 0020 	move.l %d0,32(%a0)
 1000 0a06 2141 0024 	move.l %d1,36(%a0)
 732:/home/simulink/cFS_FreeRTOS_seL4/cfe/fsw/cfe-core/src/time/cfe_time_utils.c **** 
 733:/home/simulink/cFS_FreeRTOS_seL4/cfe/fsw/cfe-core/src/time/cfe_time_utils.c ****         Reference->ClockSetState  = CFE_TIME_TaskData.ClockSetState;
 1001               	.loc 1 733 0 discriminator 1
 1002 0a0a 3039 0000 	move.w CFE_TIME_TaskData+320,%d0
 1002      0000 
 1003 0a10 206F 001C 	move.l 28(%sp),%a0
 1004 0a14 3140 0012 	move.w %d0,18(%a0)
 734:/home/simulink/cFS_FreeRTOS_seL4/cfe/fsw/cfe-core/src/time/cfe_time_utils.c ****         Reference->ClockFlyState  = CFE_TIME_TaskData.ClockFlyState;
 1005               	.loc 1 734 0 discriminator 1
 1006 0a18 3039 0000 	move.w CFE_TIME_TaskData+322,%d0
 1006      0000 
 1007 0a1e 206F 001C 	move.l 28(%sp),%a0
 1008 0a22 3140 0014 	move.w %d0,20(%a0)
 735:/home/simulink/cFS_FreeRTOS_seL4/cfe/fsw/cfe-core/src/time/cfe_time_utils.c **** 
 736:/home/simulink/cFS_FreeRTOS_seL4/cfe/fsw/cfe-core/src/time/cfe_time_utils.c ****     } while (VersionCount != CFE_TIME_TaskData.VersionCount);
68K GAS   			page 36


 1009               	.loc 1 736 0 discriminator 1
 1010 0a26 2039 0000 	move.l CFE_TIME_TaskData+424,%d0
 1010      0000 
 1011 0a2c B0AF 0014 	cmp.l 20(%sp),%d0
 1012 0a30 6600 FF50 	jne .L35
 737:/home/simulink/cFS_FreeRTOS_seL4/cfe/fsw/cfe-core/src/time/cfe_time_utils.c **** 
 738:/home/simulink/cFS_FreeRTOS_seL4/cfe/fsw/cfe-core/src/time/cfe_time_utils.c ****     /*
 739:/home/simulink/cFS_FreeRTOS_seL4/cfe/fsw/cfe-core/src/time/cfe_time_utils.c ****     ** Compute the amount of time "since" the tone...
 740:/home/simulink/cFS_FreeRTOS_seL4/cfe/fsw/cfe-core/src/time/cfe_time_utils.c ****     */
 741:/home/simulink/cFS_FreeRTOS_seL4/cfe/fsw/cfe-core/src/time/cfe_time_utils.c ****     if (CFE_TIME_Compare(Reference->CurrentLatch, Reference->AtToneLatch) == CFE_TIME_A_LT_B)
 1013               	.loc 1 741 0
 1014 0a34 206F 001C 	move.l 28(%sp),%a0
 1015 0a38 2F28 0024 	move.l 36(%a0),-(%sp)
 1016 0a3c 2F28 0020 	move.l 32(%a0),-(%sp)
 1017               	.cfi_def_cfa_offset 36
 1018 0a40 206F 0024 	move.l 36(%sp),%a0
 1019 0a44 2F28 002C 	move.l 44(%a0),-(%sp)
 1020 0a48 2F28 0028 	move.l 40(%a0),-(%sp)
 1021               	.cfi_def_cfa_offset 44
 1022 0a4c 4EB9 0000 	jsr CFE_TIME_Compare
 1022      0000 
 1023 0a52 4FEF 0010 	lea (16,%sp),%sp
 1024               	.cfi_def_cfa_offset 28
 1025 0a56 72FF      	moveq #-1,%d1
 1026 0a58 B280      	cmp.l %d0,%d1
 1027 0a5a 6652      	jne .L36
 742:/home/simulink/cFS_FreeRTOS_seL4/cfe/fsw/cfe-core/src/time/cfe_time_utils.c ****     {
 743:/home/simulink/cFS_FreeRTOS_seL4/cfe/fsw/cfe-core/src/time/cfe_time_utils.c ****         /*
 744:/home/simulink/cFS_FreeRTOS_seL4/cfe/fsw/cfe-core/src/time/cfe_time_utils.c ****         ** Local clock has rolled over since last tone...
 745:/home/simulink/cFS_FreeRTOS_seL4/cfe/fsw/cfe-core/src/time/cfe_time_utils.c ****         */
 746:/home/simulink/cFS_FreeRTOS_seL4/cfe/fsw/cfe-core/src/time/cfe_time_utils.c ****         TimeSinceTone = CFE_TIME_Subtract(CFE_TIME_TaskData.MaxLocalClock, Reference->AtToneLatch);
 1028               	.loc 1 746 0
 1029 0a5c 206F 001C 	move.l 28(%sp),%a0
 1030 0a60 2F28 0024 	move.l 36(%a0),-(%sp)
 1031 0a64 2F28 0020 	move.l 32(%a0),-(%sp)
 1032               	.cfi_def_cfa_offset 36
 1033 0a68 2F39 0000 	move.l CFE_TIME_TaskData+456,-(%sp)
 1033      0000 
 1034 0a6e 2F39 0000 	move.l CFE_TIME_TaskData+452,-(%sp)
 1034      0000 
 1035               	.cfi_def_cfa_offset 44
 1036 0a74 4EB9 0000 	jsr CFE_TIME_Subtract
 1036      0000 
 1037 0a7a 4FEF 0010 	lea (16,%sp),%sp
 1038               	.cfi_def_cfa_offset 28
 1039 0a7e 2F40 000C 	move.l %d0,12(%sp)
 1040 0a82 2F41 0010 	move.l %d1,16(%sp)
 747:/home/simulink/cFS_FreeRTOS_seL4/cfe/fsw/cfe-core/src/time/cfe_time_utils.c ****         TimeSinceTone = CFE_TIME_Add(TimeSinceTone, Reference->CurrentLatch);
 1041               	.loc 1 747 0
 1042 0a86 206F 001C 	move.l 28(%sp),%a0
 1043 0a8a 2F28 002C 	move.l 44(%a0),-(%sp)
 1044 0a8e 2F28 0028 	move.l 40(%a0),-(%sp)
 1045               	.cfi_def_cfa_offset 36
 1046 0a92 2F2F 0018 	move.l 24(%sp),-(%sp)
 1047 0a96 2F2F 0018 	move.l 24(%sp),-(%sp)
 1048               	.cfi_def_cfa_offset 44
 1049 0a9a 4EB9 0000 	jsr CFE_TIME_Add
68K GAS   			page 37


 1049      0000 
 1050 0aa0 4FEF 0010 	lea (16,%sp),%sp
 1051               	.cfi_def_cfa_offset 28
 1052 0aa4 2F40 000C 	move.l %d0,12(%sp)
 1053 0aa8 2F41 0010 	move.l %d1,16(%sp)
 1054 0aac 602A      	jra .L37
 1055               	.L36:
 748:/home/simulink/cFS_FreeRTOS_seL4/cfe/fsw/cfe-core/src/time/cfe_time_utils.c ****     }
 749:/home/simulink/cFS_FreeRTOS_seL4/cfe/fsw/cfe-core/src/time/cfe_time_utils.c ****     else
 750:/home/simulink/cFS_FreeRTOS_seL4/cfe/fsw/cfe-core/src/time/cfe_time_utils.c ****     {
 751:/home/simulink/cFS_FreeRTOS_seL4/cfe/fsw/cfe-core/src/time/cfe_time_utils.c ****         /*
 752:/home/simulink/cFS_FreeRTOS_seL4/cfe/fsw/cfe-core/src/time/cfe_time_utils.c ****         ** Normal case -- local clock is greater than latch at tone...
 753:/home/simulink/cFS_FreeRTOS_seL4/cfe/fsw/cfe-core/src/time/cfe_time_utils.c ****         */
 754:/home/simulink/cFS_FreeRTOS_seL4/cfe/fsw/cfe-core/src/time/cfe_time_utils.c ****         TimeSinceTone = CFE_TIME_Subtract(Reference->CurrentLatch, Reference->AtToneLatch);
 1056               	.loc 1 754 0
 1057 0aae 206F 001C 	move.l 28(%sp),%a0
 1058 0ab2 2F28 0024 	move.l 36(%a0),-(%sp)
 1059 0ab6 2F28 0020 	move.l 32(%a0),-(%sp)
 1060               	.cfi_def_cfa_offset 36
 1061 0aba 206F 0024 	move.l 36(%sp),%a0
 1062 0abe 2F28 002C 	move.l 44(%a0),-(%sp)
 1063 0ac2 2F28 0028 	move.l 40(%a0),-(%sp)
 1064               	.cfi_def_cfa_offset 44
 1065 0ac6 4EB9 0000 	jsr CFE_TIME_Subtract
 1065      0000 
 1066 0acc 4FEF 0010 	lea (16,%sp),%sp
 1067               	.cfi_def_cfa_offset 28
 1068 0ad0 2F40 000C 	move.l %d0,12(%sp)
 1069 0ad4 2F41 0010 	move.l %d1,16(%sp)
 1070               	.L37:
 755:/home/simulink/cFS_FreeRTOS_seL4/cfe/fsw/cfe-core/src/time/cfe_time_utils.c ****     }
 756:/home/simulink/cFS_FreeRTOS_seL4/cfe/fsw/cfe-core/src/time/cfe_time_utils.c **** 
 757:/home/simulink/cFS_FreeRTOS_seL4/cfe/fsw/cfe-core/src/time/cfe_time_utils.c ****     Reference->TimeSinceTone = TimeSinceTone;
 1071               	.loc 1 757 0
 1072 0ad8 206F 001C 	move.l 28(%sp),%a0
 1073 0adc 202F 000C 	move.l 12(%sp),%d0
 1074 0ae0 222F 0010 	move.l 16(%sp),%d1
 1075 0ae4 2140 0030 	move.l %d0,48(%a0)
 1076 0ae8 2141 0034 	move.l %d1,52(%a0)
 758:/home/simulink/cFS_FreeRTOS_seL4/cfe/fsw/cfe-core/src/time/cfe_time_utils.c **** 
 759:/home/simulink/cFS_FreeRTOS_seL4/cfe/fsw/cfe-core/src/time/cfe_time_utils.c ****     /*
 760:/home/simulink/cFS_FreeRTOS_seL4/cfe/fsw/cfe-core/src/time/cfe_time_utils.c ****     ** Add in the MET at the tone...
 761:/home/simulink/cFS_FreeRTOS_seL4/cfe/fsw/cfe-core/src/time/cfe_time_utils.c ****     */
 762:/home/simulink/cFS_FreeRTOS_seL4/cfe/fsw/cfe-core/src/time/cfe_time_utils.c ****     CurrentMET = CFE_TIME_Add(TimeSinceTone, Reference->AtToneMET);
 1077               	.loc 1 762 0
 1078 0aec 206F 001C 	move.l 28(%sp),%a0
 1079 0af0 2F28 0004 	move.l 4(%a0),-(%sp)
 1080 0af4 2F10      	move.l (%a0),-(%sp)
 1081               	.cfi_def_cfa_offset 36
 1082 0af6 2F2F 0018 	move.l 24(%sp),-(%sp)
 1083 0afa 2F2F 0018 	move.l 24(%sp),-(%sp)
 1084               	.cfi_def_cfa_offset 44
 1085 0afe 4EB9 0000 	jsr CFE_TIME_Add
 1085      0000 
 1086 0b04 4FEF 0010 	lea (16,%sp),%sp
 1087               	.cfi_def_cfa_offset 28
 1088 0b08 2F40 0004 	move.l %d0,4(%sp)
68K GAS   			page 38


 1089 0b0c 2F41 0008 	move.l %d1,8(%sp)
 763:/home/simulink/cFS_FreeRTOS_seL4/cfe/fsw/cfe-core/src/time/cfe_time_utils.c **** 
 764:/home/simulink/cFS_FreeRTOS_seL4/cfe/fsw/cfe-core/src/time/cfe_time_utils.c **** 
 765:/home/simulink/cFS_FreeRTOS_seL4/cfe/fsw/cfe-core/src/time/cfe_time_utils.c ****     /*
 766:/home/simulink/cFS_FreeRTOS_seL4/cfe/fsw/cfe-core/src/time/cfe_time_utils.c ****     ** Synchronize "this" time client to the time server...
 767:/home/simulink/cFS_FreeRTOS_seL4/cfe/fsw/cfe-core/src/time/cfe_time_utils.c ****     */
 768:/home/simulink/cFS_FreeRTOS_seL4/cfe/fsw/cfe-core/src/time/cfe_time_utils.c ****     #if (CFE_TIME_CFG_CLIENT == TRUE)
 769:/home/simulink/cFS_FreeRTOS_seL4/cfe/fsw/cfe-core/src/time/cfe_time_utils.c ****     if (CFE_TIME_TaskData.DelayDirection == CFE_TIME_ADD_ADJUST)
 770:/home/simulink/cFS_FreeRTOS_seL4/cfe/fsw/cfe-core/src/time/cfe_time_utils.c ****     {
 771:/home/simulink/cFS_FreeRTOS_seL4/cfe/fsw/cfe-core/src/time/cfe_time_utils.c ****         CurrentMET = CFE_TIME_Add(CurrentMET, Reference->AtToneDelay);
 772:/home/simulink/cFS_FreeRTOS_seL4/cfe/fsw/cfe-core/src/time/cfe_time_utils.c ****     }
 773:/home/simulink/cFS_FreeRTOS_seL4/cfe/fsw/cfe-core/src/time/cfe_time_utils.c ****     else
 774:/home/simulink/cFS_FreeRTOS_seL4/cfe/fsw/cfe-core/src/time/cfe_time_utils.c ****     {
 775:/home/simulink/cFS_FreeRTOS_seL4/cfe/fsw/cfe-core/src/time/cfe_time_utils.c ****         CurrentMET = CFE_TIME_Subtract(CurrentMET, Reference->AtToneDelay);
 776:/home/simulink/cFS_FreeRTOS_seL4/cfe/fsw/cfe-core/src/time/cfe_time_utils.c ****     }
 777:/home/simulink/cFS_FreeRTOS_seL4/cfe/fsw/cfe-core/src/time/cfe_time_utils.c ****     #endif
 778:/home/simulink/cFS_FreeRTOS_seL4/cfe/fsw/cfe-core/src/time/cfe_time_utils.c **** 
 779:/home/simulink/cFS_FreeRTOS_seL4/cfe/fsw/cfe-core/src/time/cfe_time_utils.c ****     Reference->CurrentMET = CurrentMET;
 1090               	.loc 1 779 0
 1091 0b10 206F 001C 	move.l 28(%sp),%a0
 1092 0b14 202F 0004 	move.l 4(%sp),%d0
 1093 0b18 222F 0008 	move.l 8(%sp),%d1
 1094 0b1c 2140 0038 	move.l %d0,56(%a0)
 1095 0b20 2141 003C 	move.l %d1,60(%a0)
 780:/home/simulink/cFS_FreeRTOS_seL4/cfe/fsw/cfe-core/src/time/cfe_time_utils.c **** 
 781:/home/simulink/cFS_FreeRTOS_seL4/cfe/fsw/cfe-core/src/time/cfe_time_utils.c ****     return;
 1096               	.loc 1 781 0
 1097 0b24 4E71      	nop
 782:/home/simulink/cFS_FreeRTOS_seL4/cfe/fsw/cfe-core/src/time/cfe_time_utils.c **** 
 783:/home/simulink/cFS_FreeRTOS_seL4/cfe/fsw/cfe-core/src/time/cfe_time_utils.c **** } /* End of CFE_TIME_GetReference() */
 1098               	.loc 1 783 0
 1099 0b26 245F      	move.l (%sp)+,%a2
 1100 0b28 4FEF 0014 	lea (20,%sp),%sp
 1101 0b2c 4E75      	rts
 1102               	.cfi_endproc
 1103               	.LFE66:
 1104               	.sizeCFE_TIME_GetReference, .-CFE_TIME_GetReference
 1105               	.align2
 1106               	.globlCFE_TIME_CalculateTAI
 1107               	.typeCFE_TIME_CalculateTAI, @function
 1108               	CFE_TIME_CalculateTAI:
 1109               	.LFB67:
 784:/home/simulink/cFS_FreeRTOS_seL4/cfe/fsw/cfe-core/src/time/cfe_time_utils.c **** 
 785:/home/simulink/cFS_FreeRTOS_seL4/cfe/fsw/cfe-core/src/time/cfe_time_utils.c **** 
 786:/home/simulink/cFS_FreeRTOS_seL4/cfe/fsw/cfe-core/src/time/cfe_time_utils.c **** /* * * * * * * * * * * * * * * * * * * * * * * * * * * * * * * * * */
 787:/home/simulink/cFS_FreeRTOS_seL4/cfe/fsw/cfe-core/src/time/cfe_time_utils.c **** /*                                                                 */
 788:/home/simulink/cFS_FreeRTOS_seL4/cfe/fsw/cfe-core/src/time/cfe_time_utils.c **** /* CFE_TIME_CalculateTAI() -- calculate TAI from reference data    */
 789:/home/simulink/cFS_FreeRTOS_seL4/cfe/fsw/cfe-core/src/time/cfe_time_utils.c **** /*                                                                 */
 790:/home/simulink/cFS_FreeRTOS_seL4/cfe/fsw/cfe-core/src/time/cfe_time_utils.c **** /* * * * * * * * * * * * * * * * * * * * * * * * * * * * * * * * * */
 791:/home/simulink/cFS_FreeRTOS_seL4/cfe/fsw/cfe-core/src/time/cfe_time_utils.c **** 
 792:/home/simulink/cFS_FreeRTOS_seL4/cfe/fsw/cfe-core/src/time/cfe_time_utils.c **** CFE_TIME_SysTime_t CFE_TIME_CalculateTAI(const CFE_TIME_Reference_t *Reference)
 793:/home/simulink/cFS_FreeRTOS_seL4/cfe/fsw/cfe-core/src/time/cfe_time_utils.c **** {
 1110               	.loc 1 793 0
 1111               	.cfi_startproc
 1112 0b2e 518F      	subq.l #8,%sp
 1113               	.cfi_def_cfa_offset 12
 794:/home/simulink/cFS_FreeRTOS_seL4/cfe/fsw/cfe-core/src/time/cfe_time_utils.c ****     CFE_TIME_SysTime_t TimeAsTAI;
68K GAS   			page 39


 795:/home/simulink/cFS_FreeRTOS_seL4/cfe/fsw/cfe-core/src/time/cfe_time_utils.c **** 
 796:/home/simulink/cFS_FreeRTOS_seL4/cfe/fsw/cfe-core/src/time/cfe_time_utils.c ****     TimeAsTAI = CFE_TIME_Add(Reference->CurrentMET, Reference->AtToneSTCF);
 1114               	.loc 1 796 0
 1115 0b30 206F 000C 	move.l 12(%sp),%a0
 1116 0b34 2F28 000C 	move.l 12(%a0),-(%sp)
 1117 0b38 2F28 0008 	move.l 8(%a0),-(%sp)
 1118               	.cfi_def_cfa_offset 20
 1119 0b3c 206F 0014 	move.l 20(%sp),%a0
 1120 0b40 2F28 003C 	move.l 60(%a0),-(%sp)
 1121 0b44 2F28 0038 	move.l 56(%a0),-(%sp)
 1122               	.cfi_def_cfa_offset 28
 1123 0b48 4EB9 0000 	jsr CFE_TIME_Add
 1123      0000 
 1124 0b4e 4FEF 0010 	lea (16,%sp),%sp
 1125               	.cfi_def_cfa_offset 12
 1126 0b52 2E80      	move.l %d0,(%sp)
 1127 0b54 2F41 0004 	move.l %d1,4(%sp)
 797:/home/simulink/cFS_FreeRTOS_seL4/cfe/fsw/cfe-core/src/time/cfe_time_utils.c **** 
 798:/home/simulink/cFS_FreeRTOS_seL4/cfe/fsw/cfe-core/src/time/cfe_time_utils.c ****     return(TimeAsTAI);
 1128               	.loc 1 798 0
 1129 0b58 2017      	move.l (%sp),%d0
 1130 0b5a 222F 0004 	move.l 4(%sp),%d1
 799:/home/simulink/cFS_FreeRTOS_seL4/cfe/fsw/cfe-core/src/time/cfe_time_utils.c **** 
 800:/home/simulink/cFS_FreeRTOS_seL4/cfe/fsw/cfe-core/src/time/cfe_time_utils.c **** } /* End of CFE_TIME_CalculateTAI() */
 1131               	.loc 1 800 0
 1132 0b5e 508F      	addq.l #8,%sp
 1133 0b60 4E75      	rts
 1134               	.cfi_endproc
 1135               	.LFE67:
 1136               	.sizeCFE_TIME_CalculateTAI, .-CFE_TIME_CalculateTAI
 1137               	.align2
 1138               	.globlCFE_TIME_CalculateUTC
 1139               	.typeCFE_TIME_CalculateUTC, @function
 1140               	CFE_TIME_CalculateUTC:
 1141               	.LFB68:
 801:/home/simulink/cFS_FreeRTOS_seL4/cfe/fsw/cfe-core/src/time/cfe_time_utils.c **** 
 802:/home/simulink/cFS_FreeRTOS_seL4/cfe/fsw/cfe-core/src/time/cfe_time_utils.c **** 
 803:/home/simulink/cFS_FreeRTOS_seL4/cfe/fsw/cfe-core/src/time/cfe_time_utils.c **** /* * * * * * * * * * * * * * * * * * * * * * * * * * * * * * * * * */
 804:/home/simulink/cFS_FreeRTOS_seL4/cfe/fsw/cfe-core/src/time/cfe_time_utils.c **** /*                                                                 */
 805:/home/simulink/cFS_FreeRTOS_seL4/cfe/fsw/cfe-core/src/time/cfe_time_utils.c **** /* CFE_TIME_CalculateUTC() -- calculate UTC from reference data    */
 806:/home/simulink/cFS_FreeRTOS_seL4/cfe/fsw/cfe-core/src/time/cfe_time_utils.c **** /*                                                                 */
 807:/home/simulink/cFS_FreeRTOS_seL4/cfe/fsw/cfe-core/src/time/cfe_time_utils.c **** /* * * * * * * * * * * * * * * * * * * * * * * * * * * * * * * * * */
 808:/home/simulink/cFS_FreeRTOS_seL4/cfe/fsw/cfe-core/src/time/cfe_time_utils.c **** 
 809:/home/simulink/cFS_FreeRTOS_seL4/cfe/fsw/cfe-core/src/time/cfe_time_utils.c **** CFE_TIME_SysTime_t CFE_TIME_CalculateUTC(const CFE_TIME_Reference_t *Reference)
 810:/home/simulink/cFS_FreeRTOS_seL4/cfe/fsw/cfe-core/src/time/cfe_time_utils.c **** {
 1142               	.loc 1 810 0
 1143               	.cfi_startproc
 1144 0b62 518F      	subq.l #8,%sp
 1145               	.cfi_def_cfa_offset 12
 811:/home/simulink/cFS_FreeRTOS_seL4/cfe/fsw/cfe-core/src/time/cfe_time_utils.c ****     CFE_TIME_SysTime_t TimeAsUTC;
 812:/home/simulink/cFS_FreeRTOS_seL4/cfe/fsw/cfe-core/src/time/cfe_time_utils.c **** 
 813:/home/simulink/cFS_FreeRTOS_seL4/cfe/fsw/cfe-core/src/time/cfe_time_utils.c ****     TimeAsUTC = CFE_TIME_Add(Reference->CurrentMET, Reference->AtToneSTCF);
 1146               	.loc 1 813 0
 1147 0b64 206F 000C 	move.l 12(%sp),%a0
 1148 0b68 2F28 000C 	move.l 12(%a0),-(%sp)
 1149 0b6c 2F28 0008 	move.l 8(%a0),-(%sp)
 1150               	.cfi_def_cfa_offset 20
68K GAS   			page 40


 1151 0b70 206F 0014 	move.l 20(%sp),%a0
 1152 0b74 2F28 003C 	move.l 60(%a0),-(%sp)
 1153 0b78 2F28 0038 	move.l 56(%a0),-(%sp)
 1154               	.cfi_def_cfa_offset 28
 1155 0b7c 4EB9 0000 	jsr CFE_TIME_Add
 1155      0000 
 1156 0b82 4FEF 0010 	lea (16,%sp),%sp
 1157               	.cfi_def_cfa_offset 12
 1158 0b86 2E80      	move.l %d0,(%sp)
 1159 0b88 2F41 0004 	move.l %d1,4(%sp)
 814:/home/simulink/cFS_FreeRTOS_seL4/cfe/fsw/cfe-core/src/time/cfe_time_utils.c ****     TimeAsUTC.Seconds -= Reference->AtToneLeaps;
 1160               	.loc 1 814 0
 1161 0b8c 2217      	move.l (%sp),%d1
 1162 0b8e 206F 000C 	move.l 12(%sp),%a0
 1163 0b92 3028 0010 	move.w 16(%a0),%d0
 1164 0b96 3040      	move.w %d0,%a0
 1165 0b98 2001      	move.l %d1,%d0
 1166 0b9a 9088      	sub.l %a0,%d0
 1167 0b9c 2E80      	move.l %d0,(%sp)
 815:/home/simulink/cFS_FreeRTOS_seL4/cfe/fsw/cfe-core/src/time/cfe_time_utils.c **** 
 816:/home/simulink/cFS_FreeRTOS_seL4/cfe/fsw/cfe-core/src/time/cfe_time_utils.c ****     return(TimeAsUTC);
 1168               	.loc 1 816 0
 1169 0b9e 2017      	move.l (%sp),%d0
 1170 0ba0 222F 0004 	move.l 4(%sp),%d1
 817:/home/simulink/cFS_FreeRTOS_seL4/cfe/fsw/cfe-core/src/time/cfe_time_utils.c **** 
 818:/home/simulink/cFS_FreeRTOS_seL4/cfe/fsw/cfe-core/src/time/cfe_time_utils.c **** } /* End of CFE_TIME_CalculateUTC() */
 1171               	.loc 1 818 0
 1172 0ba4 508F      	addq.l #8,%sp
 1173 0ba6 4E75      	rts
 1174               	.cfi_endproc
 1175               	.LFE68:
 1176               	.sizeCFE_TIME_CalculateUTC, .-CFE_TIME_CalculateUTC
 1177               	.align2
 1178               	.globlCFE_TIME_CalculateState
 1179               	.typeCFE_TIME_CalculateState, @function
 1180               	CFE_TIME_CalculateState:
 1181               	.LFB69:
 819:/home/simulink/cFS_FreeRTOS_seL4/cfe/fsw/cfe-core/src/time/cfe_time_utils.c **** 
 820:/home/simulink/cFS_FreeRTOS_seL4/cfe/fsw/cfe-core/src/time/cfe_time_utils.c **** 
 821:/home/simulink/cFS_FreeRTOS_seL4/cfe/fsw/cfe-core/src/time/cfe_time_utils.c **** /* * * * * * * * * * * * * * * * * * * * * * * * * * * * * * * * * * * * * */
 822:/home/simulink/cFS_FreeRTOS_seL4/cfe/fsw/cfe-core/src/time/cfe_time_utils.c **** /*                                                                         */
 823:/home/simulink/cFS_FreeRTOS_seL4/cfe/fsw/cfe-core/src/time/cfe_time_utils.c **** /* CFE_TIME_CalculateState() -- determine current time state (per API)     */
 824:/home/simulink/cFS_FreeRTOS_seL4/cfe/fsw/cfe-core/src/time/cfe_time_utils.c **** /*                                                                         */
 825:/home/simulink/cFS_FreeRTOS_seL4/cfe/fsw/cfe-core/src/time/cfe_time_utils.c **** /* * * * * * * * * * * * * * * * * * * * * * * * * * * * * * * * * * * * * */
 826:/home/simulink/cFS_FreeRTOS_seL4/cfe/fsw/cfe-core/src/time/cfe_time_utils.c **** 
 827:/home/simulink/cFS_FreeRTOS_seL4/cfe/fsw/cfe-core/src/time/cfe_time_utils.c **** int16 CFE_TIME_CalculateState(const CFE_TIME_Reference_t *Reference)
 828:/home/simulink/cFS_FreeRTOS_seL4/cfe/fsw/cfe-core/src/time/cfe_time_utils.c **** {
 1182               	.loc 1 828 0
 1183               	.cfi_startproc
 1184 0ba8 598F      	subq.l #4,%sp
 1185               	.cfi_def_cfa_offset 8
 829:/home/simulink/cFS_FreeRTOS_seL4/cfe/fsw/cfe-core/src/time/cfe_time_utils.c ****     int16 ClockState;
 830:/home/simulink/cFS_FreeRTOS_seL4/cfe/fsw/cfe-core/src/time/cfe_time_utils.c **** 
 831:/home/simulink/cFS_FreeRTOS_seL4/cfe/fsw/cfe-core/src/time/cfe_time_utils.c ****     /*
 832:/home/simulink/cFS_FreeRTOS_seL4/cfe/fsw/cfe-core/src/time/cfe_time_utils.c ****     ** Determine the current clock state...
 833:/home/simulink/cFS_FreeRTOS_seL4/cfe/fsw/cfe-core/src/time/cfe_time_utils.c ****     */
 834:/home/simulink/cFS_FreeRTOS_seL4/cfe/fsw/cfe-core/src/time/cfe_time_utils.c ****     if (Reference->ClockSetState == CFE_TIME_WAS_SET)
68K GAS   			page 41


 1186               	.loc 1 834 0
 1187 0baa 206F 0008 	move.l 8(%sp),%a0
 1188 0bae 3028 0012 	move.w 18(%a0),%d0
 1189 0bb2 3040      	move.w %d0,%a0
 1190 0bb4 7001      	moveq #1,%d0
 1191 0bb6 B088      	cmp.l %a0,%d0
 1192 0bb8 661C      	jne .L44
 835:/home/simulink/cFS_FreeRTOS_seL4/cfe/fsw/cfe-core/src/time/cfe_time_utils.c ****     {
 836:/home/simulink/cFS_FreeRTOS_seL4/cfe/fsw/cfe-core/src/time/cfe_time_utils.c ****         if (Reference->ClockFlyState == CFE_TIME_NO_FLY)
 1193               	.loc 1 836 0
 1194 0bba 206F 0008 	move.l 8(%sp),%a0
 1195 0bbe 3028 0014 	move.w 20(%a0),%d0
 1196 0bc2 4A40      	tst.w %d0
 1197 0bc4 6608      	jne .L45
 837:/home/simulink/cFS_FreeRTOS_seL4/cfe/fsw/cfe-core/src/time/cfe_time_utils.c ****         {
 838:/home/simulink/cFS_FreeRTOS_seL4/cfe/fsw/cfe-core/src/time/cfe_time_utils.c ****             /*
 839:/home/simulink/cFS_FreeRTOS_seL4/cfe/fsw/cfe-core/src/time/cfe_time_utils.c ****             ** CFE_TIME_VALID = clock set and not fly-wheeling...
 840:/home/simulink/cFS_FreeRTOS_seL4/cfe/fsw/cfe-core/src/time/cfe_time_utils.c ****             */
 841:/home/simulink/cFS_FreeRTOS_seL4/cfe/fsw/cfe-core/src/time/cfe_time_utils.c ****             ClockState = CFE_TIME_VALID;
 1198               	.loc 1 841 0
 1199 0bc6 4240      	clr.w %d0
 1200 0bc8 3F40 0002 	move.w %d0,2(%sp)
 1201 0bcc 600E      	jra .L47
 1202               	.L45:
 842:/home/simulink/cFS_FreeRTOS_seL4/cfe/fsw/cfe-core/src/time/cfe_time_utils.c **** 
 843:/home/simulink/cFS_FreeRTOS_seL4/cfe/fsw/cfe-core/src/time/cfe_time_utils.c ****             /*
 844:/home/simulink/cFS_FreeRTOS_seL4/cfe/fsw/cfe-core/src/time/cfe_time_utils.c ****             ** If the server is fly-wheel then the client must also
 845:/home/simulink/cFS_FreeRTOS_seL4/cfe/fsw/cfe-core/src/time/cfe_time_utils.c ****             **    report fly-wheel (even if it is not)...
 846:/home/simulink/cFS_FreeRTOS_seL4/cfe/fsw/cfe-core/src/time/cfe_time_utils.c ****             */
 847:/home/simulink/cFS_FreeRTOS_seL4/cfe/fsw/cfe-core/src/time/cfe_time_utils.c ****             #if (CFE_TIME_CFG_CLIENT == TRUE)
 848:/home/simulink/cFS_FreeRTOS_seL4/cfe/fsw/cfe-core/src/time/cfe_time_utils.c ****             if (CFE_TIME_TaskData.ServerFlyState == CFE_TIME_IS_FLY)
 849:/home/simulink/cFS_FreeRTOS_seL4/cfe/fsw/cfe-core/src/time/cfe_time_utils.c ****             {
 850:/home/simulink/cFS_FreeRTOS_seL4/cfe/fsw/cfe-core/src/time/cfe_time_utils.c ****                 ClockState = CFE_TIME_FLYWHEEL;
 851:/home/simulink/cFS_FreeRTOS_seL4/cfe/fsw/cfe-core/src/time/cfe_time_utils.c ****             }
 852:/home/simulink/cFS_FreeRTOS_seL4/cfe/fsw/cfe-core/src/time/cfe_time_utils.c ****             #endif
 853:/home/simulink/cFS_FreeRTOS_seL4/cfe/fsw/cfe-core/src/time/cfe_time_utils.c ****         }
 854:/home/simulink/cFS_FreeRTOS_seL4/cfe/fsw/cfe-core/src/time/cfe_time_utils.c ****         else
 855:/home/simulink/cFS_FreeRTOS_seL4/cfe/fsw/cfe-core/src/time/cfe_time_utils.c ****         {
 856:/home/simulink/cFS_FreeRTOS_seL4/cfe/fsw/cfe-core/src/time/cfe_time_utils.c ****             /*
 857:/home/simulink/cFS_FreeRTOS_seL4/cfe/fsw/cfe-core/src/time/cfe_time_utils.c ****             ** CFE_TIME_FLYWHEEL = clock set and fly-wheeling...
 858:/home/simulink/cFS_FreeRTOS_seL4/cfe/fsw/cfe-core/src/time/cfe_time_utils.c ****             */
 859:/home/simulink/cFS_FreeRTOS_seL4/cfe/fsw/cfe-core/src/time/cfe_time_utils.c ****             ClockState = CFE_TIME_FLYWHEEL;
 1203               	.loc 1 859 0
 1204 0bce 7001      	moveq #1,%d0
 1205 0bd0 3F40 0002 	move.w %d0,2(%sp)
 1206 0bd4 6006      	jra .L47
 1207               	.L44:
 860:/home/simulink/cFS_FreeRTOS_seL4/cfe/fsw/cfe-core/src/time/cfe_time_utils.c ****         }
 861:/home/simulink/cFS_FreeRTOS_seL4/cfe/fsw/cfe-core/src/time/cfe_time_utils.c ****     }
 862:/home/simulink/cFS_FreeRTOS_seL4/cfe/fsw/cfe-core/src/time/cfe_time_utils.c ****     else
 863:/home/simulink/cFS_FreeRTOS_seL4/cfe/fsw/cfe-core/src/time/cfe_time_utils.c ****     {
 864:/home/simulink/cFS_FreeRTOS_seL4/cfe/fsw/cfe-core/src/time/cfe_time_utils.c ****         /*
 865:/home/simulink/cFS_FreeRTOS_seL4/cfe/fsw/cfe-core/src/time/cfe_time_utils.c ****         ** CFE_TIME_INVALID = clock not set...
 866:/home/simulink/cFS_FreeRTOS_seL4/cfe/fsw/cfe-core/src/time/cfe_time_utils.c ****         */
 867:/home/simulink/cFS_FreeRTOS_seL4/cfe/fsw/cfe-core/src/time/cfe_time_utils.c ****         ClockState = CFE_TIME_INVALID;
 1208               	.loc 1 867 0
 1209 0bd6 70FF      	moveq #-1,%d0
68K GAS   			page 42


 1210 0bd8 3F40 0002 	move.w %d0,2(%sp)
 1211               	.L47:
 868:/home/simulink/cFS_FreeRTOS_seL4/cfe/fsw/cfe-core/src/time/cfe_time_utils.c ****     }
 869:/home/simulink/cFS_FreeRTOS_seL4/cfe/fsw/cfe-core/src/time/cfe_time_utils.c **** 
 870:/home/simulink/cFS_FreeRTOS_seL4/cfe/fsw/cfe-core/src/time/cfe_time_utils.c **** 
 871:/home/simulink/cFS_FreeRTOS_seL4/cfe/fsw/cfe-core/src/time/cfe_time_utils.c ****     return(ClockState);
 1212               	.loc 1 871 0
 1213 0bdc 302F 0002 	move.w 2(%sp),%d0
 872:/home/simulink/cFS_FreeRTOS_seL4/cfe/fsw/cfe-core/src/time/cfe_time_utils.c **** 
 873:/home/simulink/cFS_FreeRTOS_seL4/cfe/fsw/cfe-core/src/time/cfe_time_utils.c **** } /* End of CFE_TIME_CalculateState() */
 1214               	.loc 1 873 0
 1215 0be0 588F      	addq.l #4,%sp
 1216 0be2 4E75      	rts
 1217               	.cfi_endproc
 1218               	.LFE69:
 1219               	.sizeCFE_TIME_CalculateState, .-CFE_TIME_CalculateState
 1220               	.align2
 1221               	.globlCFE_TIME_SetState
 1222               	.typeCFE_TIME_SetState, @function
 1223               	CFE_TIME_SetState:
 1224               	.LFB70:
 874:/home/simulink/cFS_FreeRTOS_seL4/cfe/fsw/cfe-core/src/time/cfe_time_utils.c **** 
 875:/home/simulink/cFS_FreeRTOS_seL4/cfe/fsw/cfe-core/src/time/cfe_time_utils.c **** 
 876:/home/simulink/cFS_FreeRTOS_seL4/cfe/fsw/cfe-core/src/time/cfe_time_utils.c **** /* * * * * * * * * * * * * * * * * * * * * * * * * * * * * * * * * */
 877:/home/simulink/cFS_FreeRTOS_seL4/cfe/fsw/cfe-core/src/time/cfe_time_utils.c **** /*                                                                 */
 878:/home/simulink/cFS_FreeRTOS_seL4/cfe/fsw/cfe-core/src/time/cfe_time_utils.c **** /* CFE_TIME_SetState() -- set clock state                          */
 879:/home/simulink/cFS_FreeRTOS_seL4/cfe/fsw/cfe-core/src/time/cfe_time_utils.c **** /*                                                                 */
 880:/home/simulink/cFS_FreeRTOS_seL4/cfe/fsw/cfe-core/src/time/cfe_time_utils.c **** /* * * * * * * * * * * * * * * * * * * * * * * * * * * * * * * * * */
 881:/home/simulink/cFS_FreeRTOS_seL4/cfe/fsw/cfe-core/src/time/cfe_time_utils.c **** 
 882:/home/simulink/cFS_FreeRTOS_seL4/cfe/fsw/cfe-core/src/time/cfe_time_utils.c **** void CFE_TIME_SetState(int16 NewState)
 883:/home/simulink/cFS_FreeRTOS_seL4/cfe/fsw/cfe-core/src/time/cfe_time_utils.c **** {
 1225               	.loc 1 883 0
 1226               	.cfi_startproc
 1227 0be4 518F      	subq.l #8,%sp
 1228               	.cfi_def_cfa_offset 12
 1229 0be6 202F 000C 	move.l 12(%sp),%d0
 1230 0bea 3000      	move.w %d0,%d0
 1231 0bec 3E80      	move.w %d0,(%sp)
 884:/home/simulink/cFS_FreeRTOS_seL4/cfe/fsw/cfe-core/src/time/cfe_time_utils.c ****     /*
 885:/home/simulink/cFS_FreeRTOS_seL4/cfe/fsw/cfe-core/src/time/cfe_time_utils.c ****     ** Ensure that change is made without interruption...
 886:/home/simulink/cFS_FreeRTOS_seL4/cfe/fsw/cfe-core/src/time/cfe_time_utils.c ****     */
 887:/home/simulink/cFS_FreeRTOS_seL4/cfe/fsw/cfe-core/src/time/cfe_time_utils.c ****     int32 IntFlags;
 888:/home/simulink/cFS_FreeRTOS_seL4/cfe/fsw/cfe-core/src/time/cfe_time_utils.c **** 
 889:/home/simulink/cFS_FreeRTOS_seL4/cfe/fsw/cfe-core/src/time/cfe_time_utils.c ****     IntFlags = OS_IntLock();
 1232               	.loc 1 889 0
 1233 0bee 4EB9 0000 	jsr OS_IntLock
 1233      0000 
 1234 0bf4 2F40 0004 	move.l %d0,4(%sp)
 890:/home/simulink/cFS_FreeRTOS_seL4/cfe/fsw/cfe-core/src/time/cfe_time_utils.c **** 
 891:/home/simulink/cFS_FreeRTOS_seL4/cfe/fsw/cfe-core/src/time/cfe_time_utils.c ****     /*
 892:/home/simulink/cFS_FreeRTOS_seL4/cfe/fsw/cfe-core/src/time/cfe_time_utils.c ****     ** If we get a command to set the clock to "flywheel" mode, then
 893:/home/simulink/cFS_FreeRTOS_seL4/cfe/fsw/cfe-core/src/time/cfe_time_utils.c ****     **    set a global flag so that we can choose to ignore time
 894:/home/simulink/cFS_FreeRTOS_seL4/cfe/fsw/cfe-core/src/time/cfe_time_utils.c ****     **    updates until we get another clock state command...
 895:/home/simulink/cFS_FreeRTOS_seL4/cfe/fsw/cfe-core/src/time/cfe_time_utils.c ****     */
 896:/home/simulink/cFS_FreeRTOS_seL4/cfe/fsw/cfe-core/src/time/cfe_time_utils.c ****     if (NewState == CFE_TIME_FLYWHEEL)
 1235               	.loc 1 896 0
 1236 0bf8 3057      	move.w (%sp),%a0
68K GAS   			page 43


 1237 0bfa 7001      	moveq #1,%d0
 1238 0bfc B088      	cmp.l %a0,%d0
 1239 0bfe 661A      	jne .L50
 897:/home/simulink/cFS_FreeRTOS_seL4/cfe/fsw/cfe-core/src/time/cfe_time_utils.c ****     {
 898:/home/simulink/cFS_FreeRTOS_seL4/cfe/fsw/cfe-core/src/time/cfe_time_utils.c ****         CFE_TIME_TaskData.Forced2Fly    = TRUE;
 1240               	.loc 1 898 0
 1241 0c00 7001      	moveq #1,%d0
 1242 0c02 13C0 0000 	move.b %d0,CFE_TIME_TaskData+460
 1242      0000 
 899:/home/simulink/cFS_FreeRTOS_seL4/cfe/fsw/cfe-core/src/time/cfe_time_utils.c ****         CFE_TIME_TaskData.ClockFlyState = CFE_TIME_IS_FLY;
 1243               	.loc 1 899 0
 1244 0c08 7001      	moveq #1,%d0
 1245 0c0a 33C0 0000 	move.w %d0,CFE_TIME_TaskData+322
 1245      0000 
 900:/home/simulink/cFS_FreeRTOS_seL4/cfe/fsw/cfe-core/src/time/cfe_time_utils.c ****         #if (CFE_TIME_CFG_SERVER == TRUE)
 901:/home/simulink/cFS_FreeRTOS_seL4/cfe/fsw/cfe-core/src/time/cfe_time_utils.c ****         CFE_TIME_TaskData.ServerFlyState = CFE_TIME_IS_FLY;
 1246               	.loc 1 901 0
 1247 0c10 7001      	moveq #1,%d0
 1248 0c12 33C0 0000 	move.w %d0,CFE_TIME_TaskData+328
 1248      0000 
 1249 0c18 6026      	jra .L51
 1250               	.L50:
 902:/home/simulink/cFS_FreeRTOS_seL4/cfe/fsw/cfe-core/src/time/cfe_time_utils.c ****         #endif
 903:/home/simulink/cFS_FreeRTOS_seL4/cfe/fsw/cfe-core/src/time/cfe_time_utils.c ****     }
 904:/home/simulink/cFS_FreeRTOS_seL4/cfe/fsw/cfe-core/src/time/cfe_time_utils.c ****     else if (NewState == CFE_TIME_VALID)
 1251               	.loc 1 904 0
 1252 0c1a 4A57      	tst.w (%sp)
 1253 0c1c 6612      	jne .L52
 905:/home/simulink/cFS_FreeRTOS_seL4/cfe/fsw/cfe-core/src/time/cfe_time_utils.c ****     {
 906:/home/simulink/cFS_FreeRTOS_seL4/cfe/fsw/cfe-core/src/time/cfe_time_utils.c ****         CFE_TIME_TaskData.Forced2Fly    = FALSE;
 1254               	.loc 1 906 0
 1255 0c1e 4200      	clr.b %d0
 1256 0c20 13C0 0000 	move.b %d0,CFE_TIME_TaskData+460
 1256      0000 
 907:/home/simulink/cFS_FreeRTOS_seL4/cfe/fsw/cfe-core/src/time/cfe_time_utils.c ****         CFE_TIME_TaskData.ClockSetState = CFE_TIME_WAS_SET;
 1257               	.loc 1 907 0
 1258 0c26 7001      	moveq #1,%d0
 1259 0c28 33C0 0000 	move.w %d0,CFE_TIME_TaskData+320
 1259      0000 
 1260 0c2e 6010      	jra .L51
 1261               	.L52:
 908:/home/simulink/cFS_FreeRTOS_seL4/cfe/fsw/cfe-core/src/time/cfe_time_utils.c ****     }
 909:/home/simulink/cFS_FreeRTOS_seL4/cfe/fsw/cfe-core/src/time/cfe_time_utils.c ****     else
 910:/home/simulink/cFS_FreeRTOS_seL4/cfe/fsw/cfe-core/src/time/cfe_time_utils.c ****     {
 911:/home/simulink/cFS_FreeRTOS_seL4/cfe/fsw/cfe-core/src/time/cfe_time_utils.c ****         CFE_TIME_TaskData.Forced2Fly    = FALSE;
 1262               	.loc 1 911 0
 1263 0c30 4200      	clr.b %d0
 1264 0c32 13C0 0000 	move.b %d0,CFE_TIME_TaskData+460
 1264      0000 
 912:/home/simulink/cFS_FreeRTOS_seL4/cfe/fsw/cfe-core/src/time/cfe_time_utils.c ****         CFE_TIME_TaskData.ClockSetState = CFE_TIME_NOT_SET;
 1265               	.loc 1 912 0
 1266 0c38 4240      	clr.w %d0
 1267 0c3a 33C0 0000 	move.w %d0,CFE_TIME_TaskData+320
 1267      0000 
 1268               	.L51:
 913:/home/simulink/cFS_FreeRTOS_seL4/cfe/fsw/cfe-core/src/time/cfe_time_utils.c ****     }
 914:/home/simulink/cFS_FreeRTOS_seL4/cfe/fsw/cfe-core/src/time/cfe_time_utils.c **** 
68K GAS   			page 44


 915:/home/simulink/cFS_FreeRTOS_seL4/cfe/fsw/cfe-core/src/time/cfe_time_utils.c ****     /*
 916:/home/simulink/cFS_FreeRTOS_seL4/cfe/fsw/cfe-core/src/time/cfe_time_utils.c ****     ** Time has changed, force anyone reading time to retry...
 917:/home/simulink/cFS_FreeRTOS_seL4/cfe/fsw/cfe-core/src/time/cfe_time_utils.c ****     */
 918:/home/simulink/cFS_FreeRTOS_seL4/cfe/fsw/cfe-core/src/time/cfe_time_utils.c ****     CFE_TIME_TaskData.VersionCount++;
 1269               	.loc 1 918 0
 1270 0c40 2039 0000 	move.l CFE_TIME_TaskData+424,%d0
 1270      0000 
 1271 0c46 5280      	addq.l #1,%d0
 1272 0c48 23C0 0000 	move.l %d0,CFE_TIME_TaskData+424
 1272      0000 
 919:/home/simulink/cFS_FreeRTOS_seL4/cfe/fsw/cfe-core/src/time/cfe_time_utils.c ****     OS_IntUnlock(IntFlags);
 1273               	.loc 1 919 0
 1274 0c4e 2F2F 0004 	move.l 4(%sp),-(%sp)
 1275               	.cfi_def_cfa_offset 16
 1276 0c52 4EB9 0000 	jsr OS_IntUnlock
 1276      0000 
 1277 0c58 588F      	addq.l #4,%sp
 1278               	.cfi_def_cfa_offset 12
 920:/home/simulink/cFS_FreeRTOS_seL4/cfe/fsw/cfe-core/src/time/cfe_time_utils.c **** 
 921:/home/simulink/cFS_FreeRTOS_seL4/cfe/fsw/cfe-core/src/time/cfe_time_utils.c ****     return;
 1279               	.loc 1 921 0
 1280 0c5a 4E71      	nop
 922:/home/simulink/cFS_FreeRTOS_seL4/cfe/fsw/cfe-core/src/time/cfe_time_utils.c **** 
 923:/home/simulink/cFS_FreeRTOS_seL4/cfe/fsw/cfe-core/src/time/cfe_time_utils.c **** } /* End of CFE_TIME_SetState() */
 1281               	.loc 1 923 0
 1282 0c5c 508F      	addq.l #8,%sp
 1283 0c5e 4E75      	rts
 1284               	.cfi_endproc
 1285               	.LFE70:
 1286               	.sizeCFE_TIME_SetState, .-CFE_TIME_SetState
 1287               	.align2
 1288               	.globlCFE_TIME_SetTime
 1289               	.typeCFE_TIME_SetTime, @function
 1290               	CFE_TIME_SetTime:
 1291               	.LFB71:
 924:/home/simulink/cFS_FreeRTOS_seL4/cfe/fsw/cfe-core/src/time/cfe_time_utils.c **** 
 925:/home/simulink/cFS_FreeRTOS_seL4/cfe/fsw/cfe-core/src/time/cfe_time_utils.c **** 
 926:/home/simulink/cFS_FreeRTOS_seL4/cfe/fsw/cfe-core/src/time/cfe_time_utils.c **** /* * * * * * * * * * * * * * * * * * * * * * * * * * * * * * * * * */
 927:/home/simulink/cFS_FreeRTOS_seL4/cfe/fsw/cfe-core/src/time/cfe_time_utils.c **** /*                                                                 */
 928:/home/simulink/cFS_FreeRTOS_seL4/cfe/fsw/cfe-core/src/time/cfe_time_utils.c **** /* CFE_TIME_SetSource() -- set clock source                        */
 929:/home/simulink/cFS_FreeRTOS_seL4/cfe/fsw/cfe-core/src/time/cfe_time_utils.c **** /*                                                                 */
 930:/home/simulink/cFS_FreeRTOS_seL4/cfe/fsw/cfe-core/src/time/cfe_time_utils.c **** /* * * * * * * * * * * * * * * * * * * * * * * * * * * * * * * * * */
 931:/home/simulink/cFS_FreeRTOS_seL4/cfe/fsw/cfe-core/src/time/cfe_time_utils.c **** 
 932:/home/simulink/cFS_FreeRTOS_seL4/cfe/fsw/cfe-core/src/time/cfe_time_utils.c **** #if (CFE_TIME_CFG_SOURCE == TRUE)
 933:/home/simulink/cFS_FreeRTOS_seL4/cfe/fsw/cfe-core/src/time/cfe_time_utils.c **** void CFE_TIME_SetSource(int16 NewSource)
 934:/home/simulink/cFS_FreeRTOS_seL4/cfe/fsw/cfe-core/src/time/cfe_time_utils.c **** {
 935:/home/simulink/cFS_FreeRTOS_seL4/cfe/fsw/cfe-core/src/time/cfe_time_utils.c ****     int32 IntFlags;
 936:/home/simulink/cFS_FreeRTOS_seL4/cfe/fsw/cfe-core/src/time/cfe_time_utils.c ****     /*
 937:/home/simulink/cFS_FreeRTOS_seL4/cfe/fsw/cfe-core/src/time/cfe_time_utils.c ****     ** Ensure that change is made without interruption...
 938:/home/simulink/cFS_FreeRTOS_seL4/cfe/fsw/cfe-core/src/time/cfe_time_utils.c ****     */
 939:/home/simulink/cFS_FreeRTOS_seL4/cfe/fsw/cfe-core/src/time/cfe_time_utils.c ****     IntFlags = OS_IntLock();
 940:/home/simulink/cFS_FreeRTOS_seL4/cfe/fsw/cfe-core/src/time/cfe_time_utils.c **** 
 941:/home/simulink/cFS_FreeRTOS_seL4/cfe/fsw/cfe-core/src/time/cfe_time_utils.c ****     CFE_TIME_TaskData.ClockSource = NewSource;
 942:/home/simulink/cFS_FreeRTOS_seL4/cfe/fsw/cfe-core/src/time/cfe_time_utils.c **** 
 943:/home/simulink/cFS_FreeRTOS_seL4/cfe/fsw/cfe-core/src/time/cfe_time_utils.c ****     /*
 944:/home/simulink/cFS_FreeRTOS_seL4/cfe/fsw/cfe-core/src/time/cfe_time_utils.c ****     ** Time has changed, force anyone reading time to retry...
 945:/home/simulink/cFS_FreeRTOS_seL4/cfe/fsw/cfe-core/src/time/cfe_time_utils.c ****     */
68K GAS   			page 45


 946:/home/simulink/cFS_FreeRTOS_seL4/cfe/fsw/cfe-core/src/time/cfe_time_utils.c ****     CFE_TIME_TaskData.VersionCount++;
 947:/home/simulink/cFS_FreeRTOS_seL4/cfe/fsw/cfe-core/src/time/cfe_time_utils.c ****     OS_IntUnlock(IntFlags);
 948:/home/simulink/cFS_FreeRTOS_seL4/cfe/fsw/cfe-core/src/time/cfe_time_utils.c **** 
 949:/home/simulink/cFS_FreeRTOS_seL4/cfe/fsw/cfe-core/src/time/cfe_time_utils.c ****     return;
 950:/home/simulink/cFS_FreeRTOS_seL4/cfe/fsw/cfe-core/src/time/cfe_time_utils.c **** 
 951:/home/simulink/cFS_FreeRTOS_seL4/cfe/fsw/cfe-core/src/time/cfe_time_utils.c **** } /* End of CFE_TIME_SetSource() */
 952:/home/simulink/cFS_FreeRTOS_seL4/cfe/fsw/cfe-core/src/time/cfe_time_utils.c **** #endif /* CFE_TIME_CFG_SOURCE */
 953:/home/simulink/cFS_FreeRTOS_seL4/cfe/fsw/cfe-core/src/time/cfe_time_utils.c **** 
 954:/home/simulink/cFS_FreeRTOS_seL4/cfe/fsw/cfe-core/src/time/cfe_time_utils.c **** 
 955:/home/simulink/cFS_FreeRTOS_seL4/cfe/fsw/cfe-core/src/time/cfe_time_utils.c **** /* * * * * * * * * * * * * * * * * * * * * * * * * * * * * * * * * */
 956:/home/simulink/cFS_FreeRTOS_seL4/cfe/fsw/cfe-core/src/time/cfe_time_utils.c **** /*                                                                 */
 957:/home/simulink/cFS_FreeRTOS_seL4/cfe/fsw/cfe-core/src/time/cfe_time_utils.c **** /* CFE_TIME_SetSignal() -- set tone signal (pri vs red)            */
 958:/home/simulink/cFS_FreeRTOS_seL4/cfe/fsw/cfe-core/src/time/cfe_time_utils.c **** /*                                                                 */
 959:/home/simulink/cFS_FreeRTOS_seL4/cfe/fsw/cfe-core/src/time/cfe_time_utils.c **** /* * * * * * * * * * * * * * * * * * * * * * * * * * * * * * * * * */
 960:/home/simulink/cFS_FreeRTOS_seL4/cfe/fsw/cfe-core/src/time/cfe_time_utils.c **** 
 961:/home/simulink/cFS_FreeRTOS_seL4/cfe/fsw/cfe-core/src/time/cfe_time_utils.c **** #if (CFE_TIME_CFG_SIGNAL == TRUE)
 962:/home/simulink/cFS_FreeRTOS_seL4/cfe/fsw/cfe-core/src/time/cfe_time_utils.c **** void CFE_TIME_SetSignal(int16 NewSignal)
 963:/home/simulink/cFS_FreeRTOS_seL4/cfe/fsw/cfe-core/src/time/cfe_time_utils.c **** {
 964:/home/simulink/cFS_FreeRTOS_seL4/cfe/fsw/cfe-core/src/time/cfe_time_utils.c ****     int32 IntFlags; 
 965:/home/simulink/cFS_FreeRTOS_seL4/cfe/fsw/cfe-core/src/time/cfe_time_utils.c ****     /*
 966:/home/simulink/cFS_FreeRTOS_seL4/cfe/fsw/cfe-core/src/time/cfe_time_utils.c ****     ** Select primary vs redundant tone interrupt signal...
 967:/home/simulink/cFS_FreeRTOS_seL4/cfe/fsw/cfe-core/src/time/cfe_time_utils.c ****     */
 968:/home/simulink/cFS_FreeRTOS_seL4/cfe/fsw/cfe-core/src/time/cfe_time_utils.c ****     OS_SelectTone(NewSignal);
 969:/home/simulink/cFS_FreeRTOS_seL4/cfe/fsw/cfe-core/src/time/cfe_time_utils.c **** 
 970:/home/simulink/cFS_FreeRTOS_seL4/cfe/fsw/cfe-core/src/time/cfe_time_utils.c ****     /*
 971:/home/simulink/cFS_FreeRTOS_seL4/cfe/fsw/cfe-core/src/time/cfe_time_utils.c ****     ** Ensure that change is made without interruption...
 972:/home/simulink/cFS_FreeRTOS_seL4/cfe/fsw/cfe-core/src/time/cfe_time_utils.c ****     */
 973:/home/simulink/cFS_FreeRTOS_seL4/cfe/fsw/cfe-core/src/time/cfe_time_utils.c ****     IntFlags = OS_IntLock();
 974:/home/simulink/cFS_FreeRTOS_seL4/cfe/fsw/cfe-core/src/time/cfe_time_utils.c **** 
 975:/home/simulink/cFS_FreeRTOS_seL4/cfe/fsw/cfe-core/src/time/cfe_time_utils.c ****     /*
 976:/home/simulink/cFS_FreeRTOS_seL4/cfe/fsw/cfe-core/src/time/cfe_time_utils.c ****     ** Maintain current tone signal selection for telemetry...
 977:/home/simulink/cFS_FreeRTOS_seL4/cfe/fsw/cfe-core/src/time/cfe_time_utils.c ****     */
 978:/home/simulink/cFS_FreeRTOS_seL4/cfe/fsw/cfe-core/src/time/cfe_time_utils.c ****     CFE_TIME_TaskData.ClockSignal = NewSignal;
 979:/home/simulink/cFS_FreeRTOS_seL4/cfe/fsw/cfe-core/src/time/cfe_time_utils.c **** 
 980:/home/simulink/cFS_FreeRTOS_seL4/cfe/fsw/cfe-core/src/time/cfe_time_utils.c ****     /*
 981:/home/simulink/cFS_FreeRTOS_seL4/cfe/fsw/cfe-core/src/time/cfe_time_utils.c ****     ** Time has changed, force anyone reading time to retry...
 982:/home/simulink/cFS_FreeRTOS_seL4/cfe/fsw/cfe-core/src/time/cfe_time_utils.c ****     */
 983:/home/simulink/cFS_FreeRTOS_seL4/cfe/fsw/cfe-core/src/time/cfe_time_utils.c ****     CFE_TIME_TaskData.VersionCount++;
 984:/home/simulink/cFS_FreeRTOS_seL4/cfe/fsw/cfe-core/src/time/cfe_time_utils.c ****     OS_IntUnlock(IntFlags);
 985:/home/simulink/cFS_FreeRTOS_seL4/cfe/fsw/cfe-core/src/time/cfe_time_utils.c **** 
 986:/home/simulink/cFS_FreeRTOS_seL4/cfe/fsw/cfe-core/src/time/cfe_time_utils.c ****     return;
 987:/home/simulink/cFS_FreeRTOS_seL4/cfe/fsw/cfe-core/src/time/cfe_time_utils.c **** 
 988:/home/simulink/cFS_FreeRTOS_seL4/cfe/fsw/cfe-core/src/time/cfe_time_utils.c **** } /* End of CFE_TIME_SetSignal() */
 989:/home/simulink/cFS_FreeRTOS_seL4/cfe/fsw/cfe-core/src/time/cfe_time_utils.c **** #endif /* CFE_TIME_CFG_SIGNAL */
 990:/home/simulink/cFS_FreeRTOS_seL4/cfe/fsw/cfe-core/src/time/cfe_time_utils.c **** 
 991:/home/simulink/cFS_FreeRTOS_seL4/cfe/fsw/cfe-core/src/time/cfe_time_utils.c **** 
 992:/home/simulink/cFS_FreeRTOS_seL4/cfe/fsw/cfe-core/src/time/cfe_time_utils.c **** /* * * * * * * * * * * * * * * * * * * * * * * * * * * * * * * * * */
 993:/home/simulink/cFS_FreeRTOS_seL4/cfe/fsw/cfe-core/src/time/cfe_time_utils.c **** /*                                                                 */
 994:/home/simulink/cFS_FreeRTOS_seL4/cfe/fsw/cfe-core/src/time/cfe_time_utils.c **** /* CFE_TIME_SetDelay() -- set tone delay (time client only)        */
 995:/home/simulink/cFS_FreeRTOS_seL4/cfe/fsw/cfe-core/src/time/cfe_time_utils.c **** /*                                                                 */
 996:/home/simulink/cFS_FreeRTOS_seL4/cfe/fsw/cfe-core/src/time/cfe_time_utils.c **** /* * * * * * * * * * * * * * * * * * * * * * * * * * * * * * * * * */
 997:/home/simulink/cFS_FreeRTOS_seL4/cfe/fsw/cfe-core/src/time/cfe_time_utils.c **** 
 998:/home/simulink/cFS_FreeRTOS_seL4/cfe/fsw/cfe-core/src/time/cfe_time_utils.c **** #if (CFE_TIME_CFG_CLIENT == TRUE)
 999:/home/simulink/cFS_FreeRTOS_seL4/cfe/fsw/cfe-core/src/time/cfe_time_utils.c **** void CFE_TIME_SetDelay(CFE_TIME_SysTime_t NewDelay, int16 Direction)
1000:/home/simulink/cFS_FreeRTOS_seL4/cfe/fsw/cfe-core/src/time/cfe_time_utils.c **** {
1001:/home/simulink/cFS_FreeRTOS_seL4/cfe/fsw/cfe-core/src/time/cfe_time_utils.c ****     int32 IntFlags;
1002:/home/simulink/cFS_FreeRTOS_seL4/cfe/fsw/cfe-core/src/time/cfe_time_utils.c ****     /*
68K GAS   			page 46


1003:/home/simulink/cFS_FreeRTOS_seL4/cfe/fsw/cfe-core/src/time/cfe_time_utils.c ****     ** Ensure that change is made without interruption...
1004:/home/simulink/cFS_FreeRTOS_seL4/cfe/fsw/cfe-core/src/time/cfe_time_utils.c ****     */
1005:/home/simulink/cFS_FreeRTOS_seL4/cfe/fsw/cfe-core/src/time/cfe_time_utils.c ****     IntFlags = OS_IntLock();
1006:/home/simulink/cFS_FreeRTOS_seL4/cfe/fsw/cfe-core/src/time/cfe_time_utils.c **** 
1007:/home/simulink/cFS_FreeRTOS_seL4/cfe/fsw/cfe-core/src/time/cfe_time_utils.c ****     CFE_TIME_TaskData.AtToneDelay = NewDelay;
1008:/home/simulink/cFS_FreeRTOS_seL4/cfe/fsw/cfe-core/src/time/cfe_time_utils.c ****     CFE_TIME_TaskData.DelayDirection = Direction;
1009:/home/simulink/cFS_FreeRTOS_seL4/cfe/fsw/cfe-core/src/time/cfe_time_utils.c **** 
1010:/home/simulink/cFS_FreeRTOS_seL4/cfe/fsw/cfe-core/src/time/cfe_time_utils.c ****     /*
1011:/home/simulink/cFS_FreeRTOS_seL4/cfe/fsw/cfe-core/src/time/cfe_time_utils.c ****     ** Time has changed, force anyone reading time to retry...
1012:/home/simulink/cFS_FreeRTOS_seL4/cfe/fsw/cfe-core/src/time/cfe_time_utils.c ****     */
1013:/home/simulink/cFS_FreeRTOS_seL4/cfe/fsw/cfe-core/src/time/cfe_time_utils.c ****     CFE_TIME_TaskData.VersionCount++;
1014:/home/simulink/cFS_FreeRTOS_seL4/cfe/fsw/cfe-core/src/time/cfe_time_utils.c ****     OS_IntUnlock(IntFlags);
1015:/home/simulink/cFS_FreeRTOS_seL4/cfe/fsw/cfe-core/src/time/cfe_time_utils.c **** 
1016:/home/simulink/cFS_FreeRTOS_seL4/cfe/fsw/cfe-core/src/time/cfe_time_utils.c ****     return;
1017:/home/simulink/cFS_FreeRTOS_seL4/cfe/fsw/cfe-core/src/time/cfe_time_utils.c **** 
1018:/home/simulink/cFS_FreeRTOS_seL4/cfe/fsw/cfe-core/src/time/cfe_time_utils.c **** } /* End of CFE_TIME_SetDelay() */
1019:/home/simulink/cFS_FreeRTOS_seL4/cfe/fsw/cfe-core/src/time/cfe_time_utils.c **** #endif /* CFE_TIME_CFG_CLIENT */
1020:/home/simulink/cFS_FreeRTOS_seL4/cfe/fsw/cfe-core/src/time/cfe_time_utils.c **** 
1021:/home/simulink/cFS_FreeRTOS_seL4/cfe/fsw/cfe-core/src/time/cfe_time_utils.c **** 
1022:/home/simulink/cFS_FreeRTOS_seL4/cfe/fsw/cfe-core/src/time/cfe_time_utils.c **** /* * * * * * * * * * * * * * * * * * * * * * * * * * * * * * * * * */
1023:/home/simulink/cFS_FreeRTOS_seL4/cfe/fsw/cfe-core/src/time/cfe_time_utils.c **** /*                                                                 */
1024:/home/simulink/cFS_FreeRTOS_seL4/cfe/fsw/cfe-core/src/time/cfe_time_utils.c **** /* CFE_TIME_SetTime() -- set time (time server only)               */
1025:/home/simulink/cFS_FreeRTOS_seL4/cfe/fsw/cfe-core/src/time/cfe_time_utils.c **** /*                                                                 */
1026:/home/simulink/cFS_FreeRTOS_seL4/cfe/fsw/cfe-core/src/time/cfe_time_utils.c **** /* * * * * * * * * * * * * * * * * * * * * * * * * * * * * * * * * */
1027:/home/simulink/cFS_FreeRTOS_seL4/cfe/fsw/cfe-core/src/time/cfe_time_utils.c **** 
1028:/home/simulink/cFS_FreeRTOS_seL4/cfe/fsw/cfe-core/src/time/cfe_time_utils.c **** #if (CFE_TIME_CFG_SERVER == TRUE)
1029:/home/simulink/cFS_FreeRTOS_seL4/cfe/fsw/cfe-core/src/time/cfe_time_utils.c **** void CFE_TIME_SetTime(CFE_TIME_SysTime_t NewTime)
1030:/home/simulink/cFS_FreeRTOS_seL4/cfe/fsw/cfe-core/src/time/cfe_time_utils.c **** {
 1292               	.loc 1 1030 0
 1293               	.cfi_startproc
 1294 0c60 4FEF FFB4 	lea (-76,%sp),%sp
 1295               	.cfi_def_cfa_offset 80
1031:/home/simulink/cFS_FreeRTOS_seL4/cfe/fsw/cfe-core/src/time/cfe_time_utils.c ****     int32 IntFlags; 
1032:/home/simulink/cFS_FreeRTOS_seL4/cfe/fsw/cfe-core/src/time/cfe_time_utils.c ****     /*
1033:/home/simulink/cFS_FreeRTOS_seL4/cfe/fsw/cfe-core/src/time/cfe_time_utils.c ****     ** The input to this function is a time value that includes MET
1034:/home/simulink/cFS_FreeRTOS_seL4/cfe/fsw/cfe-core/src/time/cfe_time_utils.c ****     **     and STCF.  If the default time format is UTC, the input
1035:/home/simulink/cFS_FreeRTOS_seL4/cfe/fsw/cfe-core/src/time/cfe_time_utils.c ****     **     time value has had leaps seconds removed from the total.
1036:/home/simulink/cFS_FreeRTOS_seL4/cfe/fsw/cfe-core/src/time/cfe_time_utils.c ****     */
1037:/home/simulink/cFS_FreeRTOS_seL4/cfe/fsw/cfe-core/src/time/cfe_time_utils.c ****     CFE_TIME_Reference_t Reference;
1038:/home/simulink/cFS_FreeRTOS_seL4/cfe/fsw/cfe-core/src/time/cfe_time_utils.c ****     CFE_TIME_SysTime_t NewSTCF;
1039:/home/simulink/cFS_FreeRTOS_seL4/cfe/fsw/cfe-core/src/time/cfe_time_utils.c **** 
1040:/home/simulink/cFS_FreeRTOS_seL4/cfe/fsw/cfe-core/src/time/cfe_time_utils.c ****     /*
1041:/home/simulink/cFS_FreeRTOS_seL4/cfe/fsw/cfe-core/src/time/cfe_time_utils.c ****     ** Get reference time values (local time, time at tone, etc.)...
1042:/home/simulink/cFS_FreeRTOS_seL4/cfe/fsw/cfe-core/src/time/cfe_time_utils.c ****     */
1043:/home/simulink/cFS_FreeRTOS_seL4/cfe/fsw/cfe-core/src/time/cfe_time_utils.c ****     CFE_TIME_GetReference(&Reference);
 1296               	.loc 1 1043 0
 1297 0c64 200F      	move.l %sp,%d0
 1298 0c66 5080      	addq.l #8,%d0
 1299 0c68 2F00      	move.l %d0,-(%sp)
 1300               	.cfi_def_cfa_offset 84
 1301 0c6a 4EB9 0000 	jsr CFE_TIME_GetReference
 1301      0000 
 1302 0c70 588F      	addq.l #4,%sp
 1303               	.cfi_def_cfa_offset 80
1044:/home/simulink/cFS_FreeRTOS_seL4/cfe/fsw/cfe-core/src/time/cfe_time_utils.c **** 
1045:/home/simulink/cFS_FreeRTOS_seL4/cfe/fsw/cfe-core/src/time/cfe_time_utils.c ****     /*
1046:/home/simulink/cFS_FreeRTOS_seL4/cfe/fsw/cfe-core/src/time/cfe_time_utils.c ****     ** Remove current MET from the new time value (leaves STCF)...
68K GAS   			page 47


1047:/home/simulink/cFS_FreeRTOS_seL4/cfe/fsw/cfe-core/src/time/cfe_time_utils.c ****     */
1048:/home/simulink/cFS_FreeRTOS_seL4/cfe/fsw/cfe-core/src/time/cfe_time_utils.c ****     NewSTCF = CFE_TIME_Subtract(NewTime, Reference.CurrentMET);
 1304               	.loc 1 1048 0
 1305 0c72 2F2F 0044 	move.l 68(%sp),-(%sp)
 1306 0c76 2F2F 0044 	move.l 68(%sp),-(%sp)
 1307               	.cfi_def_cfa_offset 88
 1308 0c7a 2F2F 005C 	move.l 92(%sp),-(%sp)
 1309 0c7e 2F2F 005C 	move.l 92(%sp),-(%sp)
 1310               	.cfi_def_cfa_offset 96
 1311 0c82 4EB9 0000 	jsr CFE_TIME_Subtract
 1311      0000 
 1312 0c88 4FEF 0010 	lea (16,%sp),%sp
 1313               	.cfi_def_cfa_offset 80
 1314 0c8c 2E80      	move.l %d0,(%sp)
 1315 0c8e 2F41 0004 	move.l %d1,4(%sp)
1049:/home/simulink/cFS_FreeRTOS_seL4/cfe/fsw/cfe-core/src/time/cfe_time_utils.c **** 
1050:/home/simulink/cFS_FreeRTOS_seL4/cfe/fsw/cfe-core/src/time/cfe_time_utils.c ****     /*
1051:/home/simulink/cFS_FreeRTOS_seL4/cfe/fsw/cfe-core/src/time/cfe_time_utils.c ****     ** Restore leap seconds if default time format is UTC...
1052:/home/simulink/cFS_FreeRTOS_seL4/cfe/fsw/cfe-core/src/time/cfe_time_utils.c ****     */
1053:/home/simulink/cFS_FreeRTOS_seL4/cfe/fsw/cfe-core/src/time/cfe_time_utils.c ****     #if (CFE_TIME_CFG_DEFAULT_UTC == TRUE)
1054:/home/simulink/cFS_FreeRTOS_seL4/cfe/fsw/cfe-core/src/time/cfe_time_utils.c ****     NewSTCF.Seconds += Reference.AtToneLeaps;
1055:/home/simulink/cFS_FreeRTOS_seL4/cfe/fsw/cfe-core/src/time/cfe_time_utils.c ****     #endif
1056:/home/simulink/cFS_FreeRTOS_seL4/cfe/fsw/cfe-core/src/time/cfe_time_utils.c **** 
1057:/home/simulink/cFS_FreeRTOS_seL4/cfe/fsw/cfe-core/src/time/cfe_time_utils.c ****     /*
1058:/home/simulink/cFS_FreeRTOS_seL4/cfe/fsw/cfe-core/src/time/cfe_time_utils.c ****     ** Ensure that change is made without interruption...
1059:/home/simulink/cFS_FreeRTOS_seL4/cfe/fsw/cfe-core/src/time/cfe_time_utils.c ****     */
1060:/home/simulink/cFS_FreeRTOS_seL4/cfe/fsw/cfe-core/src/time/cfe_time_utils.c ****     IntFlags = OS_IntLock();
 1316               	.loc 1 1060 0
 1317 0c92 4EB9 0000 	jsr OS_IntLock
 1317      0000 
 1318 0c98 2F40 0048 	move.l %d0,72(%sp)
1061:/home/simulink/cFS_FreeRTOS_seL4/cfe/fsw/cfe-core/src/time/cfe_time_utils.c **** 
1062:/home/simulink/cFS_FreeRTOS_seL4/cfe/fsw/cfe-core/src/time/cfe_time_utils.c ****     CFE_TIME_TaskData.AtToneSTCF = NewSTCF;
 1319               	.loc 1 1062 0
 1320 0c9c 2017      	move.l (%sp),%d0
 1321 0c9e 222F 0004 	move.l 4(%sp),%d1
 1322 0ca2 23C0 0000 	move.l %d0,CFE_TIME_TaskData+292
 1322      0000 
 1323 0ca8 23C1 0000 	move.l %d1,CFE_TIME_TaskData+296
 1323      0000 
1063:/home/simulink/cFS_FreeRTOS_seL4/cfe/fsw/cfe-core/src/time/cfe_time_utils.c **** 
1064:/home/simulink/cFS_FreeRTOS_seL4/cfe/fsw/cfe-core/src/time/cfe_time_utils.c ****     /*
1065:/home/simulink/cFS_FreeRTOS_seL4/cfe/fsw/cfe-core/src/time/cfe_time_utils.c ****     ** Time has changed, force anyone reading time to retry...
1066:/home/simulink/cFS_FreeRTOS_seL4/cfe/fsw/cfe-core/src/time/cfe_time_utils.c ****     */
1067:/home/simulink/cFS_FreeRTOS_seL4/cfe/fsw/cfe-core/src/time/cfe_time_utils.c ****     CFE_TIME_TaskData.VersionCount++;
 1324               	.loc 1 1067 0
 1325 0cae 2039 0000 	move.l CFE_TIME_TaskData+424,%d0
 1325      0000 
 1326 0cb4 5280      	addq.l #1,%d0
 1327 0cb6 23C0 0000 	move.l %d0,CFE_TIME_TaskData+424
 1327      0000 
1068:/home/simulink/cFS_FreeRTOS_seL4/cfe/fsw/cfe-core/src/time/cfe_time_utils.c ****     OS_IntUnlock(IntFlags);
 1328               	.loc 1 1068 0
 1329 0cbc 2F2F 0048 	move.l 72(%sp),-(%sp)
 1330               	.cfi_def_cfa_offset 84
 1331 0cc0 4EB9 0000 	jsr OS_IntUnlock
 1331      0000 
68K GAS   			page 48


 1332 0cc6 588F      	addq.l #4,%sp
 1333               	.cfi_def_cfa_offset 80
1069:/home/simulink/cFS_FreeRTOS_seL4/cfe/fsw/cfe-core/src/time/cfe_time_utils.c **** 
1070:/home/simulink/cFS_FreeRTOS_seL4/cfe/fsw/cfe-core/src/time/cfe_time_utils.c ****     return;
 1334               	.loc 1 1070 0
 1335 0cc8 4E71      	nop
1071:/home/simulink/cFS_FreeRTOS_seL4/cfe/fsw/cfe-core/src/time/cfe_time_utils.c **** 
1072:/home/simulink/cFS_FreeRTOS_seL4/cfe/fsw/cfe-core/src/time/cfe_time_utils.c **** } /* End of CFE_TIME_SetTime() */
 1336               	.loc 1 1072 0
 1337 0cca 4FEF 004C 	lea (76,%sp),%sp
 1338 0cce 4E75      	rts
 1339               	.cfi_endproc
 1340               	.LFE71:
 1341               	.sizeCFE_TIME_SetTime, .-CFE_TIME_SetTime
 1342               	.align2
 1343               	.globlCFE_TIME_SetMET
 1344               	.typeCFE_TIME_SetMET, @function
 1345               	CFE_TIME_SetMET:
 1346               	.LFB72:
1073:/home/simulink/cFS_FreeRTOS_seL4/cfe/fsw/cfe-core/src/time/cfe_time_utils.c **** #endif /* CFE_TIME_CFG_SERVER */
1074:/home/simulink/cFS_FreeRTOS_seL4/cfe/fsw/cfe-core/src/time/cfe_time_utils.c **** 
1075:/home/simulink/cFS_FreeRTOS_seL4/cfe/fsw/cfe-core/src/time/cfe_time_utils.c **** 
1076:/home/simulink/cFS_FreeRTOS_seL4/cfe/fsw/cfe-core/src/time/cfe_time_utils.c **** /* * * * * * * * * * * * * * * * * * * * * * * * * * * * * * * * * */
1077:/home/simulink/cFS_FreeRTOS_seL4/cfe/fsw/cfe-core/src/time/cfe_time_utils.c **** /*                                                                 */
1078:/home/simulink/cFS_FreeRTOS_seL4/cfe/fsw/cfe-core/src/time/cfe_time_utils.c **** /* CFE_TIME_SetMET() -- set MET (time server only)                 */
1079:/home/simulink/cFS_FreeRTOS_seL4/cfe/fsw/cfe-core/src/time/cfe_time_utils.c **** /*                                                                 */
1080:/home/simulink/cFS_FreeRTOS_seL4/cfe/fsw/cfe-core/src/time/cfe_time_utils.c **** /* Note: This command will not have lasting effect if configured   */
1081:/home/simulink/cFS_FreeRTOS_seL4/cfe/fsw/cfe-core/src/time/cfe_time_utils.c **** /*       to get external time of type MET.  Also, there cannot     */
1082:/home/simulink/cFS_FreeRTOS_seL4/cfe/fsw/cfe-core/src/time/cfe_time_utils.c **** /*       be a local h/w MET and an external MET since both would   */
1083:/home/simulink/cFS_FreeRTOS_seL4/cfe/fsw/cfe-core/src/time/cfe_time_utils.c **** /*       need to be synchronized to the same tone signal.          */
1084:/home/simulink/cFS_FreeRTOS_seL4/cfe/fsw/cfe-core/src/time/cfe_time_utils.c **** /*                                                                 */
1085:/home/simulink/cFS_FreeRTOS_seL4/cfe/fsw/cfe-core/src/time/cfe_time_utils.c **** /* * * * * * * * * * * * * * * * * * * * * * * * * * * * * * * * * */
1086:/home/simulink/cFS_FreeRTOS_seL4/cfe/fsw/cfe-core/src/time/cfe_time_utils.c **** 
1087:/home/simulink/cFS_FreeRTOS_seL4/cfe/fsw/cfe-core/src/time/cfe_time_utils.c **** #if (CFE_TIME_CFG_SERVER == TRUE)
1088:/home/simulink/cFS_FreeRTOS_seL4/cfe/fsw/cfe-core/src/time/cfe_time_utils.c **** void CFE_TIME_SetMET(CFE_TIME_SysTime_t NewMET)
1089:/home/simulink/cFS_FreeRTOS_seL4/cfe/fsw/cfe-core/src/time/cfe_time_utils.c **** {
 1347               	.loc 1 1089 0
 1348               	.cfi_startproc
 1349 0cd0 598F      	subq.l #4,%sp
 1350               	.cfi_def_cfa_offset 8
1090:/home/simulink/cFS_FreeRTOS_seL4/cfe/fsw/cfe-core/src/time/cfe_time_utils.c ****     int32 IntFlags;
1091:/home/simulink/cFS_FreeRTOS_seL4/cfe/fsw/cfe-core/src/time/cfe_time_utils.c ****     /*
1092:/home/simulink/cFS_FreeRTOS_seL4/cfe/fsw/cfe-core/src/time/cfe_time_utils.c ****     ** Ensure that change is made without interruption...
1093:/home/simulink/cFS_FreeRTOS_seL4/cfe/fsw/cfe-core/src/time/cfe_time_utils.c ****     */
1094:/home/simulink/cFS_FreeRTOS_seL4/cfe/fsw/cfe-core/src/time/cfe_time_utils.c ****     IntFlags = OS_IntLock();
 1351               	.loc 1 1094 0
 1352 0cd2 4EB9 0000 	jsr OS_IntLock
 1352      0000 
 1353 0cd8 2E80      	move.l %d0,(%sp)
1095:/home/simulink/cFS_FreeRTOS_seL4/cfe/fsw/cfe-core/src/time/cfe_time_utils.c **** 
1096:/home/simulink/cFS_FreeRTOS_seL4/cfe/fsw/cfe-core/src/time/cfe_time_utils.c ****     /*
1097:/home/simulink/cFS_FreeRTOS_seL4/cfe/fsw/cfe-core/src/time/cfe_time_utils.c ****     ** Update reference values used to compute current time...
1098:/home/simulink/cFS_FreeRTOS_seL4/cfe/fsw/cfe-core/src/time/cfe_time_utils.c ****     */
1099:/home/simulink/cFS_FreeRTOS_seL4/cfe/fsw/cfe-core/src/time/cfe_time_utils.c ****     CFE_TIME_TaskData.AtToneMET    = NewMET;
 1354               	.loc 1 1099 0
 1355 0cda 202F 0008 	move.l 8(%sp),%d0
 1356 0cde 222F 000C 	move.l 12(%sp),%d1
68K GAS   			page 49


 1357 0ce2 23C0 0000 	move.l %d0,CFE_TIME_TaskData+284
 1357      0000 
 1358 0ce8 23C1 0000 	move.l %d1,CFE_TIME_TaskData+288
 1358      0000 
1100:/home/simulink/cFS_FreeRTOS_seL4/cfe/fsw/cfe-core/src/time/cfe_time_utils.c ****     CFE_TIME_TaskData.VirtualMET   = NewMET.Seconds;
 1359               	.loc 1 1100 0
 1360 0cee 202F 0008 	move.l 8(%sp),%d0
 1361 0cf2 23C0 0000 	move.l %d0,CFE_TIME_TaskData+420
 1361      0000 
1101:/home/simulink/cFS_FreeRTOS_seL4/cfe/fsw/cfe-core/src/time/cfe_time_utils.c ****     CFE_TIME_TaskData.AtToneLatch  = CFE_TIME_LatchClock();
 1362               	.loc 1 1101 0
 1363 0cf8 4EB9 0000 	jsr CFE_TIME_LatchClock
 1363      0000 
 1364 0cfe 23C0 0000 	move.l %d0,CFE_TIME_TaskData+312
 1364      0000 
 1365 0d04 23C1 0000 	move.l %d1,CFE_TIME_TaskData+316
 1365      0000 
1102:/home/simulink/cFS_FreeRTOS_seL4/cfe/fsw/cfe-core/src/time/cfe_time_utils.c **** 
1103:/home/simulink/cFS_FreeRTOS_seL4/cfe/fsw/cfe-core/src/time/cfe_time_utils.c ****     /*
1104:/home/simulink/cFS_FreeRTOS_seL4/cfe/fsw/cfe-core/src/time/cfe_time_utils.c ****     ** Update h/w MET register...
1105:/home/simulink/cFS_FreeRTOS_seL4/cfe/fsw/cfe-core/src/time/cfe_time_utils.c ****     */
1106:/home/simulink/cFS_FreeRTOS_seL4/cfe/fsw/cfe-core/src/time/cfe_time_utils.c ****     #if (CFE_TIME_CFG_VIRTUAL != TRUE)
1107:/home/simulink/cFS_FreeRTOS_seL4/cfe/fsw/cfe-core/src/time/cfe_time_utils.c ****     OS_SetLocalMET(NewMET.Seconds);
1108:/home/simulink/cFS_FreeRTOS_seL4/cfe/fsw/cfe-core/src/time/cfe_time_utils.c ****     #endif
1109:/home/simulink/cFS_FreeRTOS_seL4/cfe/fsw/cfe-core/src/time/cfe_time_utils.c **** 
1110:/home/simulink/cFS_FreeRTOS_seL4/cfe/fsw/cfe-core/src/time/cfe_time_utils.c ****     /*
1111:/home/simulink/cFS_FreeRTOS_seL4/cfe/fsw/cfe-core/src/time/cfe_time_utils.c ****     ** Time has changed, force anyone reading time to retry...
1112:/home/simulink/cFS_FreeRTOS_seL4/cfe/fsw/cfe-core/src/time/cfe_time_utils.c ****     */
1113:/home/simulink/cFS_FreeRTOS_seL4/cfe/fsw/cfe-core/src/time/cfe_time_utils.c ****     CFE_TIME_TaskData.VersionCount++;
 1366               	.loc 1 1113 0
 1367 0d0a 2039 0000 	move.l CFE_TIME_TaskData+424,%d0
 1367      0000 
 1368 0d10 5280      	addq.l #1,%d0
 1369 0d12 23C0 0000 	move.l %d0,CFE_TIME_TaskData+424
 1369      0000 
1114:/home/simulink/cFS_FreeRTOS_seL4/cfe/fsw/cfe-core/src/time/cfe_time_utils.c ****     OS_IntUnlock(IntFlags);
 1370               	.loc 1 1114 0
 1371 0d18 2F17      	move.l (%sp),-(%sp)
 1372               	.cfi_def_cfa_offset 12
 1373 0d1a 4EB9 0000 	jsr OS_IntUnlock
 1373      0000 
 1374 0d20 588F      	addq.l #4,%sp
 1375               	.cfi_def_cfa_offset 8
1115:/home/simulink/cFS_FreeRTOS_seL4/cfe/fsw/cfe-core/src/time/cfe_time_utils.c **** 
1116:/home/simulink/cFS_FreeRTOS_seL4/cfe/fsw/cfe-core/src/time/cfe_time_utils.c ****     return;
 1376               	.loc 1 1116 0
 1377 0d22 4E71      	nop
1117:/home/simulink/cFS_FreeRTOS_seL4/cfe/fsw/cfe-core/src/time/cfe_time_utils.c **** 
1118:/home/simulink/cFS_FreeRTOS_seL4/cfe/fsw/cfe-core/src/time/cfe_time_utils.c **** } /* End of CFE_TIME_SetMET() */
 1378               	.loc 1 1118 0
 1379 0d24 588F      	addq.l #4,%sp
 1380 0d26 4E75      	rts
 1381               	.cfi_endproc
 1382               	.LFE72:
 1383               	.sizeCFE_TIME_SetMET, .-CFE_TIME_SetMET
 1384               	.align2
 1385               	.globlCFE_TIME_SetSTCF
68K GAS   			page 50


 1386               	.typeCFE_TIME_SetSTCF, @function
 1387               	CFE_TIME_SetSTCF:
 1388               	.LFB73:
1119:/home/simulink/cFS_FreeRTOS_seL4/cfe/fsw/cfe-core/src/time/cfe_time_utils.c **** #endif /* CFE_TIME_CFG_SERVER */
1120:/home/simulink/cFS_FreeRTOS_seL4/cfe/fsw/cfe-core/src/time/cfe_time_utils.c **** 
1121:/home/simulink/cFS_FreeRTOS_seL4/cfe/fsw/cfe-core/src/time/cfe_time_utils.c **** 
1122:/home/simulink/cFS_FreeRTOS_seL4/cfe/fsw/cfe-core/src/time/cfe_time_utils.c **** /* * * * * * * * * * * * * * * * * * * * * * * * * * * * * * * * * */
1123:/home/simulink/cFS_FreeRTOS_seL4/cfe/fsw/cfe-core/src/time/cfe_time_utils.c **** /*                                                                 */
1124:/home/simulink/cFS_FreeRTOS_seL4/cfe/fsw/cfe-core/src/time/cfe_time_utils.c **** /* CFE_TIME_SetSTCF() -- set STCF (time server only)               */
1125:/home/simulink/cFS_FreeRTOS_seL4/cfe/fsw/cfe-core/src/time/cfe_time_utils.c **** /*                                                                 */
1126:/home/simulink/cFS_FreeRTOS_seL4/cfe/fsw/cfe-core/src/time/cfe_time_utils.c **** /* * * * * * * * * * * * * * * * * * * * * * * * * * * * * * * * * */
1127:/home/simulink/cFS_FreeRTOS_seL4/cfe/fsw/cfe-core/src/time/cfe_time_utils.c **** 
1128:/home/simulink/cFS_FreeRTOS_seL4/cfe/fsw/cfe-core/src/time/cfe_time_utils.c **** #if (CFE_TIME_CFG_SERVER == TRUE)
1129:/home/simulink/cFS_FreeRTOS_seL4/cfe/fsw/cfe-core/src/time/cfe_time_utils.c **** void CFE_TIME_SetSTCF(CFE_TIME_SysTime_t NewSTCF)
1130:/home/simulink/cFS_FreeRTOS_seL4/cfe/fsw/cfe-core/src/time/cfe_time_utils.c **** {
 1389               	.loc 1 1130 0
 1390               	.cfi_startproc
 1391 0d28 598F      	subq.l #4,%sp
 1392               	.cfi_def_cfa_offset 8
1131:/home/simulink/cFS_FreeRTOS_seL4/cfe/fsw/cfe-core/src/time/cfe_time_utils.c ****     int32 IntFlags;
1132:/home/simulink/cFS_FreeRTOS_seL4/cfe/fsw/cfe-core/src/time/cfe_time_utils.c ****     /*
1133:/home/simulink/cFS_FreeRTOS_seL4/cfe/fsw/cfe-core/src/time/cfe_time_utils.c ****     ** Ensure that change is made without interruption...
1134:/home/simulink/cFS_FreeRTOS_seL4/cfe/fsw/cfe-core/src/time/cfe_time_utils.c ****     */
1135:/home/simulink/cFS_FreeRTOS_seL4/cfe/fsw/cfe-core/src/time/cfe_time_utils.c ****     IntFlags = OS_IntLock();
 1393               	.loc 1 1135 0
 1394 0d2a 4EB9 0000 	jsr OS_IntLock
 1394      0000 
 1395 0d30 2E80      	move.l %d0,(%sp)
1136:/home/simulink/cFS_FreeRTOS_seL4/cfe/fsw/cfe-core/src/time/cfe_time_utils.c **** 
1137:/home/simulink/cFS_FreeRTOS_seL4/cfe/fsw/cfe-core/src/time/cfe_time_utils.c ****     CFE_TIME_TaskData.AtToneSTCF = NewSTCF;
 1396               	.loc 1 1137 0
 1397 0d32 202F 0008 	move.l 8(%sp),%d0
 1398 0d36 222F 000C 	move.l 12(%sp),%d1
 1399 0d3a 23C0 0000 	move.l %d0,CFE_TIME_TaskData+292
 1399      0000 
 1400 0d40 23C1 0000 	move.l %d1,CFE_TIME_TaskData+296
 1400      0000 
1138:/home/simulink/cFS_FreeRTOS_seL4/cfe/fsw/cfe-core/src/time/cfe_time_utils.c **** 
1139:/home/simulink/cFS_FreeRTOS_seL4/cfe/fsw/cfe-core/src/time/cfe_time_utils.c ****     /*
1140:/home/simulink/cFS_FreeRTOS_seL4/cfe/fsw/cfe-core/src/time/cfe_time_utils.c ****     ** Time has changed, force anyone reading time to retry...
1141:/home/simulink/cFS_FreeRTOS_seL4/cfe/fsw/cfe-core/src/time/cfe_time_utils.c ****     */
1142:/home/simulink/cFS_FreeRTOS_seL4/cfe/fsw/cfe-core/src/time/cfe_time_utils.c ****     CFE_TIME_TaskData.VersionCount++;
 1401               	.loc 1 1142 0
 1402 0d46 2039 0000 	move.l CFE_TIME_TaskData+424,%d0
 1402      0000 
 1403 0d4c 5280      	addq.l #1,%d0
 1404 0d4e 23C0 0000 	move.l %d0,CFE_TIME_TaskData+424
 1404      0000 
1143:/home/simulink/cFS_FreeRTOS_seL4/cfe/fsw/cfe-core/src/time/cfe_time_utils.c ****     OS_IntUnlock(IntFlags);
 1405               	.loc 1 1143 0
 1406 0d54 2F17      	move.l (%sp),-(%sp)
 1407               	.cfi_def_cfa_offset 12
 1408 0d56 4EB9 0000 	jsr OS_IntUnlock
 1408      0000 
 1409 0d5c 588F      	addq.l #4,%sp
 1410               	.cfi_def_cfa_offset 8
1144:/home/simulink/cFS_FreeRTOS_seL4/cfe/fsw/cfe-core/src/time/cfe_time_utils.c **** 
68K GAS   			page 51


1145:/home/simulink/cFS_FreeRTOS_seL4/cfe/fsw/cfe-core/src/time/cfe_time_utils.c ****     return;
 1411               	.loc 1 1145 0
 1412 0d5e 4E71      	nop
1146:/home/simulink/cFS_FreeRTOS_seL4/cfe/fsw/cfe-core/src/time/cfe_time_utils.c **** 
1147:/home/simulink/cFS_FreeRTOS_seL4/cfe/fsw/cfe-core/src/time/cfe_time_utils.c **** } /* End of CFE_TIME_SetSTCF() */
 1413               	.loc 1 1147 0
 1414 0d60 588F      	addq.l #4,%sp
 1415 0d62 4E75      	rts
 1416               	.cfi_endproc
 1417               	.LFE73:
 1418               	.sizeCFE_TIME_SetSTCF, .-CFE_TIME_SetSTCF
 1419               	.align2
 1420               	.globlCFE_TIME_SetLeaps
 1421               	.typeCFE_TIME_SetLeaps, @function
 1422               	CFE_TIME_SetLeaps:
 1423               	.LFB74:
1148:/home/simulink/cFS_FreeRTOS_seL4/cfe/fsw/cfe-core/src/time/cfe_time_utils.c **** #endif /* CFE_TIME_CFG_SERVER */
1149:/home/simulink/cFS_FreeRTOS_seL4/cfe/fsw/cfe-core/src/time/cfe_time_utils.c **** 
1150:/home/simulink/cFS_FreeRTOS_seL4/cfe/fsw/cfe-core/src/time/cfe_time_utils.c **** 
1151:/home/simulink/cFS_FreeRTOS_seL4/cfe/fsw/cfe-core/src/time/cfe_time_utils.c **** /* * * * * * * * * * * * * * * * * * * * * * * * * * * * * * * * * */
1152:/home/simulink/cFS_FreeRTOS_seL4/cfe/fsw/cfe-core/src/time/cfe_time_utils.c **** /*                                                                 */
1153:/home/simulink/cFS_FreeRTOS_seL4/cfe/fsw/cfe-core/src/time/cfe_time_utils.c **** /* CFE_TIME_SetLeaps() -- set leap seconds (time server only)      */
1154:/home/simulink/cFS_FreeRTOS_seL4/cfe/fsw/cfe-core/src/time/cfe_time_utils.c **** /*                                                                 */
1155:/home/simulink/cFS_FreeRTOS_seL4/cfe/fsw/cfe-core/src/time/cfe_time_utils.c **** /* * * * * * * * * * * * * * * * * * * * * * * * * * * * * * * * * */
1156:/home/simulink/cFS_FreeRTOS_seL4/cfe/fsw/cfe-core/src/time/cfe_time_utils.c **** 
1157:/home/simulink/cFS_FreeRTOS_seL4/cfe/fsw/cfe-core/src/time/cfe_time_utils.c **** #if (CFE_TIME_CFG_SERVER == TRUE)
1158:/home/simulink/cFS_FreeRTOS_seL4/cfe/fsw/cfe-core/src/time/cfe_time_utils.c **** void CFE_TIME_SetLeaps(int16 NewLeaps)
1159:/home/simulink/cFS_FreeRTOS_seL4/cfe/fsw/cfe-core/src/time/cfe_time_utils.c **** {
 1424               	.loc 1 1159 0
 1425               	.cfi_startproc
 1426 0d64 518F      	subq.l #8,%sp
 1427               	.cfi_def_cfa_offset 12
 1428 0d66 202F 000C 	move.l 12(%sp),%d0
 1429 0d6a 3000      	move.w %d0,%d0
 1430 0d6c 3E80      	move.w %d0,(%sp)
1160:/home/simulink/cFS_FreeRTOS_seL4/cfe/fsw/cfe-core/src/time/cfe_time_utils.c ****     int32 IntFlags;
1161:/home/simulink/cFS_FreeRTOS_seL4/cfe/fsw/cfe-core/src/time/cfe_time_utils.c ****     /*
1162:/home/simulink/cFS_FreeRTOS_seL4/cfe/fsw/cfe-core/src/time/cfe_time_utils.c ****     ** Ensure that change is made without interruption...
1163:/home/simulink/cFS_FreeRTOS_seL4/cfe/fsw/cfe-core/src/time/cfe_time_utils.c ****     */
1164:/home/simulink/cFS_FreeRTOS_seL4/cfe/fsw/cfe-core/src/time/cfe_time_utils.c ****     IntFlags = OS_IntLock();
 1431               	.loc 1 1164 0
 1432 0d6e 4EB9 0000 	jsr OS_IntLock
 1432      0000 
 1433 0d74 2F40 0004 	move.l %d0,4(%sp)
1165:/home/simulink/cFS_FreeRTOS_seL4/cfe/fsw/cfe-core/src/time/cfe_time_utils.c **** 
1166:/home/simulink/cFS_FreeRTOS_seL4/cfe/fsw/cfe-core/src/time/cfe_time_utils.c ****     CFE_TIME_TaskData.AtToneLeaps = NewLeaps;
 1434               	.loc 1 1166 0
 1435 0d78 33D7 0000 	move.w (%sp),CFE_TIME_TaskData+300
 1435      0000 
1167:/home/simulink/cFS_FreeRTOS_seL4/cfe/fsw/cfe-core/src/time/cfe_time_utils.c **** 
1168:/home/simulink/cFS_FreeRTOS_seL4/cfe/fsw/cfe-core/src/time/cfe_time_utils.c ****     /*
1169:/home/simulink/cFS_FreeRTOS_seL4/cfe/fsw/cfe-core/src/time/cfe_time_utils.c ****     ** Time has changed, force anyone reading time to retry...
1170:/home/simulink/cFS_FreeRTOS_seL4/cfe/fsw/cfe-core/src/time/cfe_time_utils.c ****     */
1171:/home/simulink/cFS_FreeRTOS_seL4/cfe/fsw/cfe-core/src/time/cfe_time_utils.c ****     CFE_TIME_TaskData.VersionCount++;
 1436               	.loc 1 1171 0
 1437 0d7e 2039 0000 	move.l CFE_TIME_TaskData+424,%d0
 1437      0000 
68K GAS   			page 52


 1438 0d84 5280      	addq.l #1,%d0
 1439 0d86 23C0 0000 	move.l %d0,CFE_TIME_TaskData+424
 1439      0000 
1172:/home/simulink/cFS_FreeRTOS_seL4/cfe/fsw/cfe-core/src/time/cfe_time_utils.c ****     OS_IntUnlock(IntFlags);
 1440               	.loc 1 1172 0
 1441 0d8c 2F2F 0004 	move.l 4(%sp),-(%sp)
 1442               	.cfi_def_cfa_offset 16
 1443 0d90 4EB9 0000 	jsr OS_IntUnlock
 1443      0000 
 1444 0d96 588F      	addq.l #4,%sp
 1445               	.cfi_def_cfa_offset 12
1173:/home/simulink/cFS_FreeRTOS_seL4/cfe/fsw/cfe-core/src/time/cfe_time_utils.c **** 
1174:/home/simulink/cFS_FreeRTOS_seL4/cfe/fsw/cfe-core/src/time/cfe_time_utils.c ****     return;
 1446               	.loc 1 1174 0
 1447 0d98 4E71      	nop
1175:/home/simulink/cFS_FreeRTOS_seL4/cfe/fsw/cfe-core/src/time/cfe_time_utils.c **** 
1176:/home/simulink/cFS_FreeRTOS_seL4/cfe/fsw/cfe-core/src/time/cfe_time_utils.c **** } /* End of CFE_TIME_SetLeaps() */
 1448               	.loc 1 1176 0
 1449 0d9a 508F      	addq.l #8,%sp
 1450 0d9c 4E75      	rts
 1451               	.cfi_endproc
 1452               	.LFE74:
 1453               	.sizeCFE_TIME_SetLeaps, .-CFE_TIME_SetLeaps
 1454               	.align2
 1455               	.globlCFE_TIME_SetAdjust
 1456               	.typeCFE_TIME_SetAdjust, @function
 1457               	CFE_TIME_SetAdjust:
 1458               	.LFB75:
1177:/home/simulink/cFS_FreeRTOS_seL4/cfe/fsw/cfe-core/src/time/cfe_time_utils.c **** #endif /* CFE_TIME_CFG_SERVER */
1178:/home/simulink/cFS_FreeRTOS_seL4/cfe/fsw/cfe-core/src/time/cfe_time_utils.c **** 
1179:/home/simulink/cFS_FreeRTOS_seL4/cfe/fsw/cfe-core/src/time/cfe_time_utils.c **** 
1180:/home/simulink/cFS_FreeRTOS_seL4/cfe/fsw/cfe-core/src/time/cfe_time_utils.c **** /* * * * * * * * * * * * * * * * * * * * * * * * * * * * * * * * * */
1181:/home/simulink/cFS_FreeRTOS_seL4/cfe/fsw/cfe-core/src/time/cfe_time_utils.c **** /*                                                                 */
1182:/home/simulink/cFS_FreeRTOS_seL4/cfe/fsw/cfe-core/src/time/cfe_time_utils.c **** /* CFE_TIME_SetAdjust() -- one time STCF adjustment (server only)  */
1183:/home/simulink/cFS_FreeRTOS_seL4/cfe/fsw/cfe-core/src/time/cfe_time_utils.c **** /*                                                                 */
1184:/home/simulink/cFS_FreeRTOS_seL4/cfe/fsw/cfe-core/src/time/cfe_time_utils.c **** /* * * * * * * * * * * * * * * * * * * * * * * * * * * * * * * * * */
1185:/home/simulink/cFS_FreeRTOS_seL4/cfe/fsw/cfe-core/src/time/cfe_time_utils.c **** 
1186:/home/simulink/cFS_FreeRTOS_seL4/cfe/fsw/cfe-core/src/time/cfe_time_utils.c **** #if (CFE_TIME_CFG_SERVER == TRUE)
1187:/home/simulink/cFS_FreeRTOS_seL4/cfe/fsw/cfe-core/src/time/cfe_time_utils.c **** void CFE_TIME_SetAdjust(CFE_TIME_SysTime_t NewAdjust, int16 Direction)
1188:/home/simulink/cFS_FreeRTOS_seL4/cfe/fsw/cfe-core/src/time/cfe_time_utils.c **** {
 1459               	.loc 1 1188 0
 1460               	.cfi_startproc
 1461 0d9e 4FEF FFF0 	lea (-16,%sp),%sp
 1462               	.cfi_def_cfa_offset 20
 1463 0da2 202F 001C 	move.l 28(%sp),%d0
 1464 0da6 3000      	move.w %d0,%d0
 1465 0da8 3E80      	move.w %d0,(%sp)
1189:/home/simulink/cFS_FreeRTOS_seL4/cfe/fsw/cfe-core/src/time/cfe_time_utils.c ****     int32 IntFlags;
1190:/home/simulink/cFS_FreeRTOS_seL4/cfe/fsw/cfe-core/src/time/cfe_time_utils.c ****     CFE_TIME_SysTime_t NewSTCF;
1191:/home/simulink/cFS_FreeRTOS_seL4/cfe/fsw/cfe-core/src/time/cfe_time_utils.c **** 
1192:/home/simulink/cFS_FreeRTOS_seL4/cfe/fsw/cfe-core/src/time/cfe_time_utils.c ****     /*
1193:/home/simulink/cFS_FreeRTOS_seL4/cfe/fsw/cfe-core/src/time/cfe_time_utils.c ****     ** Ensure that change is made without interruption...
1194:/home/simulink/cFS_FreeRTOS_seL4/cfe/fsw/cfe-core/src/time/cfe_time_utils.c ****     */
1195:/home/simulink/cFS_FreeRTOS_seL4/cfe/fsw/cfe-core/src/time/cfe_time_utils.c ****     IntFlags = OS_IntLock();
 1466               	.loc 1 1195 0
 1467 0daa 4EB9 0000 	jsr OS_IntLock
 1467      0000 
68K GAS   			page 53


 1468 0db0 2F40 000C 	move.l %d0,12(%sp)
1196:/home/simulink/cFS_FreeRTOS_seL4/cfe/fsw/cfe-core/src/time/cfe_time_utils.c **** 
1197:/home/simulink/cFS_FreeRTOS_seL4/cfe/fsw/cfe-core/src/time/cfe_time_utils.c ****     CFE_TIME_TaskData.OneTimeAdjust    = NewAdjust;
 1469               	.loc 1 1197 0
 1470 0db4 202F 0014 	move.l 20(%sp),%d0
 1471 0db8 222F 0018 	move.l 24(%sp),%d1
 1472 0dbc 23C0 0000 	move.l %d0,CFE_TIME_TaskData+352
 1472      0000 
 1473 0dc2 23C1 0000 	move.l %d1,CFE_TIME_TaskData+356
 1473      0000 
1198:/home/simulink/cFS_FreeRTOS_seL4/cfe/fsw/cfe-core/src/time/cfe_time_utils.c ****     CFE_TIME_TaskData.OneTimeDirection = Direction;
 1474               	.loc 1 1198 0
 1475 0dc8 33D7 0000 	move.w (%sp),CFE_TIME_TaskData+368
 1475      0000 
1199:/home/simulink/cFS_FreeRTOS_seL4/cfe/fsw/cfe-core/src/time/cfe_time_utils.c **** 
1200:/home/simulink/cFS_FreeRTOS_seL4/cfe/fsw/cfe-core/src/time/cfe_time_utils.c ****     if (Direction == CFE_TIME_ADD_ADJUST)
 1476               	.loc 1 1200 0
 1477 0dce 3057      	move.w (%sp),%a0
 1478 0dd0 7201      	moveq #1,%d1
 1479 0dd2 B288      	cmp.l %a0,%d1
 1480 0dd4 6628      	jne .L63
1201:/home/simulink/cFS_FreeRTOS_seL4/cfe/fsw/cfe-core/src/time/cfe_time_utils.c ****     {
1202:/home/simulink/cFS_FreeRTOS_seL4/cfe/fsw/cfe-core/src/time/cfe_time_utils.c ****         NewSTCF = CFE_TIME_Add(CFE_TIME_TaskData.AtToneSTCF, NewAdjust);
 1481               	.loc 1 1202 0
 1482 0dd6 2F2F 0018 	move.l 24(%sp),-(%sp)
 1483 0dda 2F2F 0018 	move.l 24(%sp),-(%sp)
 1484               	.cfi_def_cfa_offset 28
 1485 0dde 2F39 0000 	move.l CFE_TIME_TaskData+296,-(%sp)
 1485      0000 
 1486 0de4 2F39 0000 	move.l CFE_TIME_TaskData+292,-(%sp)
 1486      0000 
 1487               	.cfi_def_cfa_offset 36
 1488 0dea 4EB9 0000 	jsr CFE_TIME_Add
 1488      0000 
 1489 0df0 4FEF 0010 	lea (16,%sp),%sp
 1490               	.cfi_def_cfa_offset 20
 1491 0df4 2F40 0004 	move.l %d0,4(%sp)
 1492 0df8 2F41 0008 	move.l %d1,8(%sp)
 1493 0dfc 6026      	jra .L64
 1494               	.L63:
1203:/home/simulink/cFS_FreeRTOS_seL4/cfe/fsw/cfe-core/src/time/cfe_time_utils.c ****     }
1204:/home/simulink/cFS_FreeRTOS_seL4/cfe/fsw/cfe-core/src/time/cfe_time_utils.c ****     else
1205:/home/simulink/cFS_FreeRTOS_seL4/cfe/fsw/cfe-core/src/time/cfe_time_utils.c ****     {
1206:/home/simulink/cFS_FreeRTOS_seL4/cfe/fsw/cfe-core/src/time/cfe_time_utils.c ****         NewSTCF = CFE_TIME_Subtract(CFE_TIME_TaskData.AtToneSTCF, NewAdjust);
 1495               	.loc 1 1206 0
 1496 0dfe 2F2F 0018 	move.l 24(%sp),-(%sp)
 1497 0e02 2F2F 0018 	move.l 24(%sp),-(%sp)
 1498               	.cfi_def_cfa_offset 28
 1499 0e06 2F39 0000 	move.l CFE_TIME_TaskData+296,-(%sp)
 1499      0000 
 1500 0e0c 2F39 0000 	move.l CFE_TIME_TaskData+292,-(%sp)
 1500      0000 
 1501               	.cfi_def_cfa_offset 36
 1502 0e12 4EB9 0000 	jsr CFE_TIME_Subtract
 1502      0000 
 1503 0e18 4FEF 0010 	lea (16,%sp),%sp
 1504               	.cfi_def_cfa_offset 20
68K GAS   			page 54


 1505 0e1c 2F40 0004 	move.l %d0,4(%sp)
 1506 0e20 2F41 0008 	move.l %d1,8(%sp)
 1507               	.L64:
1207:/home/simulink/cFS_FreeRTOS_seL4/cfe/fsw/cfe-core/src/time/cfe_time_utils.c ****     }
1208:/home/simulink/cFS_FreeRTOS_seL4/cfe/fsw/cfe-core/src/time/cfe_time_utils.c **** 
1209:/home/simulink/cFS_FreeRTOS_seL4/cfe/fsw/cfe-core/src/time/cfe_time_utils.c ****     CFE_TIME_TaskData.AtToneSTCF = NewSTCF;
 1508               	.loc 1 1209 0
 1509 0e24 202F 0004 	move.l 4(%sp),%d0
 1510 0e28 222F 0008 	move.l 8(%sp),%d1
 1511 0e2c 23C0 0000 	move.l %d0,CFE_TIME_TaskData+292
 1511      0000 
 1512 0e32 23C1 0000 	move.l %d1,CFE_TIME_TaskData+296
 1512      0000 
1210:/home/simulink/cFS_FreeRTOS_seL4/cfe/fsw/cfe-core/src/time/cfe_time_utils.c **** 
1211:/home/simulink/cFS_FreeRTOS_seL4/cfe/fsw/cfe-core/src/time/cfe_time_utils.c ****     /*
1212:/home/simulink/cFS_FreeRTOS_seL4/cfe/fsw/cfe-core/src/time/cfe_time_utils.c ****     ** Time has changed, force anyone reading time to retry...
1213:/home/simulink/cFS_FreeRTOS_seL4/cfe/fsw/cfe-core/src/time/cfe_time_utils.c ****     */
1214:/home/simulink/cFS_FreeRTOS_seL4/cfe/fsw/cfe-core/src/time/cfe_time_utils.c ****     CFE_TIME_TaskData.VersionCount++;
 1513               	.loc 1 1214 0
 1514 0e38 2039 0000 	move.l CFE_TIME_TaskData+424,%d0
 1514      0000 
 1515 0e3e 5280      	addq.l #1,%d0
 1516 0e40 23C0 0000 	move.l %d0,CFE_TIME_TaskData+424
 1516      0000 
1215:/home/simulink/cFS_FreeRTOS_seL4/cfe/fsw/cfe-core/src/time/cfe_time_utils.c ****     OS_IntUnlock(IntFlags);
 1517               	.loc 1 1215 0
 1518 0e46 2F2F 000C 	move.l 12(%sp),-(%sp)
 1519               	.cfi_def_cfa_offset 24
 1520 0e4a 4EB9 0000 	jsr OS_IntUnlock
 1520      0000 
 1521 0e50 588F      	addq.l #4,%sp
 1522               	.cfi_def_cfa_offset 20
1216:/home/simulink/cFS_FreeRTOS_seL4/cfe/fsw/cfe-core/src/time/cfe_time_utils.c **** 
1217:/home/simulink/cFS_FreeRTOS_seL4/cfe/fsw/cfe-core/src/time/cfe_time_utils.c ****     return;
 1523               	.loc 1 1217 0
 1524 0e52 4E71      	nop
1218:/home/simulink/cFS_FreeRTOS_seL4/cfe/fsw/cfe-core/src/time/cfe_time_utils.c **** 
1219:/home/simulink/cFS_FreeRTOS_seL4/cfe/fsw/cfe-core/src/time/cfe_time_utils.c **** } /* End of CFE_TIME_SetAdjust() */
 1525               	.loc 1 1219 0
 1526 0e54 4FEF 0010 	lea (16,%sp),%sp
 1527 0e58 4E75      	rts
 1528               	.cfi_endproc
 1529               	.LFE75:
 1530               	.sizeCFE_TIME_SetAdjust, .-CFE_TIME_SetAdjust
 1531               	.align2
 1532               	.globlCFE_TIME_Set1HzAdj
 1533               	.typeCFE_TIME_Set1HzAdj, @function
 1534               	CFE_TIME_Set1HzAdj:
 1535               	.LFB76:
1220:/home/simulink/cFS_FreeRTOS_seL4/cfe/fsw/cfe-core/src/time/cfe_time_utils.c **** #endif /* CFE_TIME_CFG_SERVER */
1221:/home/simulink/cFS_FreeRTOS_seL4/cfe/fsw/cfe-core/src/time/cfe_time_utils.c **** 
1222:/home/simulink/cFS_FreeRTOS_seL4/cfe/fsw/cfe-core/src/time/cfe_time_utils.c **** 
1223:/home/simulink/cFS_FreeRTOS_seL4/cfe/fsw/cfe-core/src/time/cfe_time_utils.c **** /* * * * * * * * * * * * * * * * * * * * * * * * * * * * * * * * * */
1224:/home/simulink/cFS_FreeRTOS_seL4/cfe/fsw/cfe-core/src/time/cfe_time_utils.c **** /*                                                                 */
1225:/home/simulink/cFS_FreeRTOS_seL4/cfe/fsw/cfe-core/src/time/cfe_time_utils.c **** /* CFE_TIME_Set1HzAdj() -- 1Hz STCF adjustment (time server only)  */
1226:/home/simulink/cFS_FreeRTOS_seL4/cfe/fsw/cfe-core/src/time/cfe_time_utils.c **** /*                                                                 */
1227:/home/simulink/cFS_FreeRTOS_seL4/cfe/fsw/cfe-core/src/time/cfe_time_utils.c **** /* * * * * * * * * * * * * * * * * * * * * * * * * * * * * * * * * */
68K GAS   			page 55


1228:/home/simulink/cFS_FreeRTOS_seL4/cfe/fsw/cfe-core/src/time/cfe_time_utils.c **** 
1229:/home/simulink/cFS_FreeRTOS_seL4/cfe/fsw/cfe-core/src/time/cfe_time_utils.c **** #if (CFE_TIME_CFG_SERVER == TRUE)
1230:/home/simulink/cFS_FreeRTOS_seL4/cfe/fsw/cfe-core/src/time/cfe_time_utils.c **** void CFE_TIME_Set1HzAdj(CFE_TIME_SysTime_t NewAdjust, int16 Direction)
1231:/home/simulink/cFS_FreeRTOS_seL4/cfe/fsw/cfe-core/src/time/cfe_time_utils.c **** {
 1536               	.loc 1 1231 0
 1537               	.cfi_startproc
 1538 0e5a 518F      	subq.l #8,%sp
 1539               	.cfi_def_cfa_offset 12
 1540 0e5c 202F 0014 	move.l 20(%sp),%d0
 1541 0e60 3000      	move.w %d0,%d0
 1542 0e62 3E80      	move.w %d0,(%sp)
1232:/home/simulink/cFS_FreeRTOS_seL4/cfe/fsw/cfe-core/src/time/cfe_time_utils.c ****     int32 IntFlags;
1233:/home/simulink/cFS_FreeRTOS_seL4/cfe/fsw/cfe-core/src/time/cfe_time_utils.c ****     /*
1234:/home/simulink/cFS_FreeRTOS_seL4/cfe/fsw/cfe-core/src/time/cfe_time_utils.c ****     ** Ensure that change is made without interruption...
1235:/home/simulink/cFS_FreeRTOS_seL4/cfe/fsw/cfe-core/src/time/cfe_time_utils.c ****     */
1236:/home/simulink/cFS_FreeRTOS_seL4/cfe/fsw/cfe-core/src/time/cfe_time_utils.c ****     IntFlags = OS_IntLock();
 1543               	.loc 1 1236 0
 1544 0e64 4EB9 0000 	jsr OS_IntLock
 1544      0000 
 1545 0e6a 2F40 0004 	move.l %d0,4(%sp)
1237:/home/simulink/cFS_FreeRTOS_seL4/cfe/fsw/cfe-core/src/time/cfe_time_utils.c **** 
1238:/home/simulink/cFS_FreeRTOS_seL4/cfe/fsw/cfe-core/src/time/cfe_time_utils.c ****     /*
1239:/home/simulink/cFS_FreeRTOS_seL4/cfe/fsw/cfe-core/src/time/cfe_time_utils.c ****     ** Store values for 1Hz adjustment...
1240:/home/simulink/cFS_FreeRTOS_seL4/cfe/fsw/cfe-core/src/time/cfe_time_utils.c ****     */
1241:/home/simulink/cFS_FreeRTOS_seL4/cfe/fsw/cfe-core/src/time/cfe_time_utils.c ****     CFE_TIME_TaskData.OneHzAdjust     = NewAdjust;
 1546               	.loc 1 1241 0
 1547 0e6e 202F 000C 	move.l 12(%sp),%d0
 1548 0e72 222F 0010 	move.l 16(%sp),%d1
 1549 0e76 23C0 0000 	move.l %d0,CFE_TIME_TaskData+360
 1549      0000 
 1550 0e7c 23C1 0000 	move.l %d1,CFE_TIME_TaskData+364
 1550      0000 
1242:/home/simulink/cFS_FreeRTOS_seL4/cfe/fsw/cfe-core/src/time/cfe_time_utils.c ****     CFE_TIME_TaskData.OneHzDirection  = Direction;
 1551               	.loc 1 1242 0
 1552 0e82 33D7 0000 	move.w (%sp),CFE_TIME_TaskData+370
 1552      0000 
1243:/home/simulink/cFS_FreeRTOS_seL4/cfe/fsw/cfe-core/src/time/cfe_time_utils.c **** 
1244:/home/simulink/cFS_FreeRTOS_seL4/cfe/fsw/cfe-core/src/time/cfe_time_utils.c ****     /*
1245:/home/simulink/cFS_FreeRTOS_seL4/cfe/fsw/cfe-core/src/time/cfe_time_utils.c ****     ** Time has changed, force anyone reading time to retry...
1246:/home/simulink/cFS_FreeRTOS_seL4/cfe/fsw/cfe-core/src/time/cfe_time_utils.c ****     */
1247:/home/simulink/cFS_FreeRTOS_seL4/cfe/fsw/cfe-core/src/time/cfe_time_utils.c ****     CFE_TIME_TaskData.VersionCount++;
 1553               	.loc 1 1247 0
 1554 0e88 2039 0000 	move.l CFE_TIME_TaskData+424,%d0
 1554      0000 
 1555 0e8e 5280      	addq.l #1,%d0
 1556 0e90 23C0 0000 	move.l %d0,CFE_TIME_TaskData+424
 1556      0000 
1248:/home/simulink/cFS_FreeRTOS_seL4/cfe/fsw/cfe-core/src/time/cfe_time_utils.c ****     OS_IntUnlock(IntFlags);
 1557               	.loc 1 1248 0
 1558 0e96 2F2F 0004 	move.l 4(%sp),-(%sp)
 1559               	.cfi_def_cfa_offset 16
 1560 0e9a 4EB9 0000 	jsr OS_IntUnlock
 1560      0000 
 1561 0ea0 588F      	addq.l #4,%sp
 1562               	.cfi_def_cfa_offset 12
1249:/home/simulink/cFS_FreeRTOS_seL4/cfe/fsw/cfe-core/src/time/cfe_time_utils.c **** 
1250:/home/simulink/cFS_FreeRTOS_seL4/cfe/fsw/cfe-core/src/time/cfe_time_utils.c ****     return;
68K GAS   			page 56


 1563               	.loc 1 1250 0
 1564 0ea2 4E71      	nop
1251:/home/simulink/cFS_FreeRTOS_seL4/cfe/fsw/cfe-core/src/time/cfe_time_utils.c **** 
1252:/home/simulink/cFS_FreeRTOS_seL4/cfe/fsw/cfe-core/src/time/cfe_time_utils.c **** } /* End of CFE_TIME_Set1HzAdj() */
 1565               	.loc 1 1252 0
 1566 0ea4 508F      	addq.l #8,%sp
 1567 0ea6 4E75      	rts
 1568               	.cfi_endproc
 1569               	.LFE76:
 1570               	.sizeCFE_TIME_Set1HzAdj, .-CFE_TIME_Set1HzAdj
 1571               	.align2
 1572               	.globlCFE_TIME_CleanUpApp
 1573               	.typeCFE_TIME_CleanUpApp, @function
 1574               	CFE_TIME_CleanUpApp:
 1575               	.LFB77:
1253:/home/simulink/cFS_FreeRTOS_seL4/cfe/fsw/cfe-core/src/time/cfe_time_utils.c **** #endif /* CFE_TIME_CFG_SERVER */
1254:/home/simulink/cFS_FreeRTOS_seL4/cfe/fsw/cfe-core/src/time/cfe_time_utils.c **** 
1255:/home/simulink/cFS_FreeRTOS_seL4/cfe/fsw/cfe-core/src/time/cfe_time_utils.c **** 
1256:/home/simulink/cFS_FreeRTOS_seL4/cfe/fsw/cfe-core/src/time/cfe_time_utils.c **** /* * * * * * * * * * * * * * * * * * * * * * * * * * * * * * * * * */
1257:/home/simulink/cFS_FreeRTOS_seL4/cfe/fsw/cfe-core/src/time/cfe_time_utils.c **** /*                                                                 */
1258:/home/simulink/cFS_FreeRTOS_seL4/cfe/fsw/cfe-core/src/time/cfe_time_utils.c **** /* CFE_TIME_CleanUpApp() -- Free resources associated with App     */
1259:/home/simulink/cFS_FreeRTOS_seL4/cfe/fsw/cfe-core/src/time/cfe_time_utils.c **** /*                                                                 */
1260:/home/simulink/cFS_FreeRTOS_seL4/cfe/fsw/cfe-core/src/time/cfe_time_utils.c **** /* * * * * * * * * * * * * * * * * * * * * * * * * * * * * * * * * */
1261:/home/simulink/cFS_FreeRTOS_seL4/cfe/fsw/cfe-core/src/time/cfe_time_utils.c **** 
1262:/home/simulink/cFS_FreeRTOS_seL4/cfe/fsw/cfe-core/src/time/cfe_time_utils.c **** int32 CFE_TIME_CleanUpApp(uint32 AppId)
1263:/home/simulink/cFS_FreeRTOS_seL4/cfe/fsw/cfe-core/src/time/cfe_time_utils.c **** {
 1576               	.loc 1 1263 0
 1577               	.cfi_startproc
 1578 0ea8 598F      	subq.l #4,%sp
 1579               	.cfi_def_cfa_offset 8
1264:/home/simulink/cFS_FreeRTOS_seL4/cfe/fsw/cfe-core/src/time/cfe_time_utils.c ****     uint32 i = 0;
 1580               	.loc 1 1264 0
 1581 0eaa 4297      	clr.l (%sp)
1265:/home/simulink/cFS_FreeRTOS_seL4/cfe/fsw/cfe-core/src/time/cfe_time_utils.c ****     
1266:/home/simulink/cFS_FreeRTOS_seL4/cfe/fsw/cfe-core/src/time/cfe_time_utils.c ****     while (i<CFE_TIME_MAX_NUM_SYNCH_FUNCS)
 1582               	.loc 1 1266 0
 1583 0eac 603E      	jra .L69
 1584               	.L71:
1267:/home/simulink/cFS_FreeRTOS_seL4/cfe/fsw/cfe-core/src/time/cfe_time_utils.c ****     {
1268:/home/simulink/cFS_FreeRTOS_seL4/cfe/fsw/cfe-core/src/time/cfe_time_utils.c ****         if (CFE_TIME_TaskData.SynchCallback[i].App == AppId)
 1585               	.loc 1 1268 0
 1586 0eae 2017      	move.l (%sp),%d0
 1587 0eb0 0680 0000 	add.l #69,%d0
 1587      0045 
 1588 0eb6 E788      	lsl.l #3,%d0
 1589 0eb8 41F9 0000 	lea CFE_TIME_TaskData,%a0
 1589      0000 
 1590 0ebe 2030 0800 	move.l (%a0,%d0.l),%d0
 1591 0ec2 B0AF 0008 	cmp.l 8(%sp),%d0
 1592 0ec6 6622      	jne .L70
1269:/home/simulink/cFS_FreeRTOS_seL4/cfe/fsw/cfe-core/src/time/cfe_time_utils.c ****         {
1270:/home/simulink/cFS_FreeRTOS_seL4/cfe/fsw/cfe-core/src/time/cfe_time_utils.c ****             CFE_TIME_TaskData.SynchCallback[i].App = 0;
 1593               	.loc 1 1270 0
 1594 0ec8 2017      	move.l (%sp),%d0
 1595 0eca 0680 0000 	add.l #69,%d0
 1595      0045 
 1596 0ed0 E788      	lsl.l #3,%d0
68K GAS   			page 57


 1597 0ed2 41F9 0000 	lea CFE_TIME_TaskData,%a0
 1597      0000 
 1598 0ed8 42B0 0800 	clr.l (%a0,%d0.l)
1271:/home/simulink/cFS_FreeRTOS_seL4/cfe/fsw/cfe-core/src/time/cfe_time_utils.c ****             CFE_TIME_TaskData.SynchCallback[i].Ptr = NULL;
 1599               	.loc 1 1271 0
 1600 0edc 2017      	move.l (%sp),%d0
 1601 0ede E788      	lsl.l #3,%d0
 1602 0ee0 41F9 0000 	lea CFE_TIME_TaskData+556,%a0
 1602      0000 
 1603 0ee6 42B0 0800 	clr.l (%a0,%d0.l)
 1604               	.L70:
1272:/home/simulink/cFS_FreeRTOS_seL4/cfe/fsw/cfe-core/src/time/cfe_time_utils.c ****         }
1273:/home/simulink/cFS_FreeRTOS_seL4/cfe/fsw/cfe-core/src/time/cfe_time_utils.c ****         
1274:/home/simulink/cFS_FreeRTOS_seL4/cfe/fsw/cfe-core/src/time/cfe_time_utils.c ****         i++;
 1605               	.loc 1 1274 0
 1606 0eea 5297      	addq.l #1,(%sp)
 1607               	.L69:
1266:/home/simulink/cFS_FreeRTOS_seL4/cfe/fsw/cfe-core/src/time/cfe_time_utils.c ****     {
 1608               	.loc 1 1266 0
 1609 0eec 7003      	moveq #3,%d0
 1610 0eee B097      	cmp.l (%sp),%d0
 1611 0ef0 64BC      	jcc .L71
1275:/home/simulink/cFS_FreeRTOS_seL4/cfe/fsw/cfe-core/src/time/cfe_time_utils.c ****     }
1276:/home/simulink/cFS_FreeRTOS_seL4/cfe/fsw/cfe-core/src/time/cfe_time_utils.c ****     
1277:/home/simulink/cFS_FreeRTOS_seL4/cfe/fsw/cfe-core/src/time/cfe_time_utils.c ****     return CFE_SUCCESS;
 1612               	.loc 1 1277 0
 1613 0ef2 4280      	clr.l %d0
1278:/home/simulink/cFS_FreeRTOS_seL4/cfe/fsw/cfe-core/src/time/cfe_time_utils.c **** }
 1614               	.loc 1 1278 0
 1615 0ef4 588F      	addq.l #4,%sp
 1616 0ef6 4E75      	rts
 1617               	.cfi_endproc
 1618               	.LFE77:
 1619               	.sizeCFE_TIME_CleanUpApp, .-CFE_TIME_CleanUpApp
 1620               	.Letext0:
 1621               	.file 2 "/home/simulink/cFS_FreeRTOS_seL4/osal/src/os/inc/common_types.h"
 1622               	.file 3 "/home/simulink/cFS_FreeRTOS_seL4/osal/src/os/inc/osapi-os-core.h"
 1623               	.file 4 "/home/simulink/development/rtems/5/m68k-rtems5/include/machine/_default_types.h"
 1624               	.file 5 "/home/simulink/development/rtems/5/m68k-rtems5/include/machine/_types.h"
 1625               	.file 6 "/home/simulink/development/rtems/5/m68k-rtems5/include/sys/lock.h"
 1626               	.file 7 "/home/simulink/development/rtems/5/m68k-rtems5/include/sys/_types.h"
 1627               	.file 8 "/home/simulink/development/rtems/5/lib/gcc/m68k-rtems5/7.3.0/include/stddef.h"
 1628               	.file 9 "/home/simulink/development/rtems/5/m68k-rtems5/include/sys/reent.h"
 1629               	.file 10 "/home/simulink/development/rtems/5/m68k-rtems5/include/stdlib.h"
 1630               	.file 11 "/home/simulink/development/rtems/5/m68k-rtems5/include/time.h"
 1631               	.file 12 "/home/simulink/cFS_FreeRTOS_seL4/cfe/fsw/cfe-core/src/inc/cfe_time.h"
 1632               	.file 13 "/home/simulink/cFS_FreeRTOS_seL4/cfe/fsw/cfe-core/src/inc/ccsds.h"
 1633               	.file 14 "/home/simulink/cFS_FreeRTOS_seL4/cfe/fsw/cfe-core/src/inc/cfe_sb.h"
 1634               	.file 15 "/home/simulink/cFS_FreeRTOS_seL4/cfe/fsw/cfe-core/src/inc/cfe_evs_msg.h"
 1635               	.file 16 "/home/simulink/cFS_FreeRTOS_seL4/cfe/fsw/cfe-core/src/inc/cfe_time_msg.h"
 1636               	.file 17 "/home/simulink/cFS_FreeRTOS_seL4/cfe/fsw/cfe-core/src/time/cfe_time_utils.h"
 1637               	.file 18 "/home/simulink/cFS_FreeRTOS_seL4/cfe/fsw/cfe-core/src/inc/private/cfe_es_erlog_typedef.h"
 1638               	.file 19 "/home/simulink/cFS_FreeRTOS_seL4/cfe/fsw/cfe-core/src/inc/private/cfe_es_perfdata_typedef.h"
 1639               	.file 20 "/home/simulink/cFS_FreeRTOS_seL4/cfe/fsw/cfe-core/src/inc/private/cfe_evs_log_typedef.h"
 1640               	.file 21 "/home/simulink/cFS_FreeRTOS_seL4/cfe/fsw/cfe-core/src/inc/private/cfe_es_resetdata_typedef.h"
 1641               	.section.debug_info,"",@progbits
 1642               	.Ldebug_info0:
68K GAS   			page 58


 1643 0000 0000 1DD4 	.long0x1dd4
 1644 0004 0004      	.word0x4
 1645 0006 0000 0000 	.long.Ldebug_abbrev0
 1646 000a 04        	.byte0x4
 1647 000b 01        	.uleb128 0x1
 1648 000c 0000 0000 	.long.LASF388
 1649 0010 0C        	.byte0xc
 1650 0011 0000 0000 	.long.LASF389
 1651 0015 0000 0000 	.long.LASF390
 1652 0019 0000 0000 	.long.Ltext0
 1653 001d 0000 0EF8 	.long.Letext0-.Ltext0
 1654 0021 0000 0000 	.long.Ldebug_line0
 1655 0025 02        	.uleb128 0x2
 1656 0026 0000 0000 	.long.LASF2
 1657 002a 02        	.byte0x2
 1658 002b E6        	.byte0xe6
 1659 002c 0000 0030 	.long0x30
 1660 0030 03        	.uleb128 0x3
 1661 0031 01        	.byte0x1
 1662 0032 08        	.byte0x8
 1663 0033 0000 0000 	.long.LASF0
 1664 0037 03        	.uleb128 0x3
 1665 0038 01        	.byte0x1
 1666 0039 06        	.byte0x6
 1667 003a 0000 0000 	.long.LASF1
 1668 003e 02        	.uleb128 0x2
 1669 003f 0000 0000 	.long.LASF3
 1670 0043 02        	.byte0x2
 1671 0044 E8        	.byte0xe8
 1672 0045 0000 0049 	.long0x49
 1673 0049 03        	.uleb128 0x3
 1674 004a 02        	.byte0x2
 1675 004b 05        	.byte0x5
 1676 004c 0000 0000 	.long.LASF4
 1677 0050 02        	.uleb128 0x2
 1678 0051 0000 0000 	.long.LASF5
 1679 0055 02        	.byte0x2
 1680 0056 E9        	.byte0xe9
 1681 0057 0000 005B 	.long0x5b
 1682 005b 03        	.uleb128 0x3
 1683 005c 04        	.byte0x4
 1684 005d 05        	.byte0x5
 1685 005e 0000 0000 	.long.LASF6
 1686 0062 03        	.uleb128 0x3
 1687 0063 08        	.byte0x8
 1688 0064 05        	.byte0x5
 1689 0065 0000 0000 	.long.LASF7
 1690 0069 02        	.uleb128 0x2
 1691 006a 0000 0000 	.long.LASF8
 1692 006e 02        	.byte0x2
 1693 006f EB        	.byte0xeb
 1694 0070 0000 0030 	.long0x30
 1695 0074 02        	.uleb128 0x2
 1696 0075 0000 0000 	.long.LASF9
 1697 0079 02        	.byte0x2
 1698 007a EC        	.byte0xec
 1699 007b 0000 007F 	.long0x7f
68K GAS   			page 59


 1700 007f 03        	.uleb128 0x3
 1701 0080 02        	.byte0x2
 1702 0081 07        	.byte0x7
 1703 0082 0000 0000 	.long.LASF10
 1704 0086 02        	.uleb128 0x2
 1705 0087 0000 0000 	.long.LASF11
 1706 008b 02        	.byte0x2
 1707 008c ED        	.byte0xed
 1708 008d 0000 0091 	.long0x91
 1709 0091 03        	.uleb128 0x3
 1710 0092 04        	.byte0x4
 1711 0093 07        	.byte0x7
 1712 0094 0000 0000 	.long.LASF12
 1713 0098 03        	.uleb128 0x3
 1714 0099 08        	.byte0x8
 1715 009a 07        	.byte0x7
 1716 009b 0000 0000 	.long.LASF13
 1717 009f 02        	.uleb128 0x2
 1718 00a0 0000 0000 	.long.LASF14
 1719 00a4 02        	.byte0x2
 1720 00a5 F0        	.byte0xf0
 1721 00a6 0000 0091 	.long0x91
 1722 00aa 04        	.uleb128 0x4
 1723 00ab 0000 0000 	.long.LASF15
 1724 00af 02        	.byte0x2
 1725 00b0 0131      	.word0x131
 1726 00b2 0000 0025 	.long0x25
 1727 00b6 03        	.uleb128 0x3
 1728 00b7 01        	.byte0x1
 1729 00b8 06        	.byte0x6
 1730 00b9 0000 0000 	.long.LASF16
 1731 00bd 05        	.uleb128 0x5
 1732 00be 0000 00B6 	.long0xb6
 1733 00c2 06        	.uleb128 0x6
 1734 00c3 0000 00B6 	.long0xb6
 1735 00c7 0000 00D2 	.long0xd2
 1736 00cb 07        	.uleb128 0x7
 1737 00cc 0000 0091 	.long0x91
 1738 00d0 13        	.byte0x13
 1739 00d1 00        	.byte0
 1740 00d2 08        	.uleb128 0x8
 1741 00d3 08        	.byte0x8
 1742 00d4 03        	.byte0x3
 1743 00d5 5F        	.byte0x5f
 1744 00d6 0000 00F3 	.long0xf3
 1745 00da 09        	.uleb128 0x9
 1746 00db 0000 0000 	.long.LASF17
 1747 00df 03        	.byte0x3
 1748 00e0 61        	.byte0x61
 1749 00e1 0000 0086 	.long0x86
 1750 00e5 00        	.byte0
 1751 00e6 09        	.uleb128 0x9
 1752 00e7 0000 0000 	.long.LASF18
 1753 00eb 03        	.byte0x3
 1754 00ec 62        	.byte0x62
 1755 00ed 0000 0086 	.long0x86
 1756 00f1 04        	.byte0x4
68K GAS   			page 60


 1757 00f2 00        	.byte0
 1758 00f3 02        	.uleb128 0x2
 1759 00f4 0000 0000 	.long.LASF19
 1760 00f8 03        	.byte0x3
 1761 00f9 63        	.byte0x63
 1762 00fa 0000 00D2 	.long0xd2
 1763 00fe 0A        	.uleb128 0xa
 1764 00ff 04        	.byte0x4
 1765 0100 02        	.uleb128 0x2
 1766 0101 0000 0000 	.long.LASF20
 1767 0105 04        	.byte0x4
 1768 0106 67        	.byte0x67
 1769 0107 0000 0062 	.long0x62
 1770 010b 03        	.uleb128 0x3
 1771 010c 08        	.byte0x8
 1772 010d 04        	.byte0x4
 1773 010e 0000 0000 	.long.LASF21
 1774 0112 02        	.uleb128 0x2
 1775 0113 0000 0000 	.long.LASF22
 1776 0117 05        	.byte0x5
 1777 0118 10        	.byte0x10
 1778 0119 0000 0100 	.long0x100
 1779 011d 02        	.uleb128 0x2
 1780 011e 0000 0000 	.long.LASF23
 1781 0122 05        	.byte0x5
 1782 0123 16        	.byte0x16
 1783 0124 0000 0112 	.long0x112
 1784 0128 0B        	.uleb128 0xb
 1785 0129 04        	.byte0x4
 1786 012a 05        	.byte0x5
 1787 012b 696E 7400 	.string"int"
 1788 012f 0C        	.uleb128 0xc
 1789 0130 0000 0000 	.long.LASF27
 1790 0134 08        	.byte0x8
 1791 0135 06        	.byte0x6
 1792 0136 28        	.byte0x28
 1793 0137 0000 0154 	.long0x154
 1794 013b 09        	.uleb128 0x9
 1795 013c 0000 0000 	.long.LASF24
 1796 0140 06        	.byte0x6
 1797 0141 29        	.byte0x29
 1798 0142 0000 0154 	.long0x154
 1799 0146 00        	.byte0
 1800 0147 09        	.uleb128 0x9
 1801 0148 0000 0000 	.long.LASF25
 1802 014c 06        	.byte0x6
 1803 014d 2A        	.byte0x2a
 1804 014e 0000 0154 	.long0x154
 1805 0152 04        	.byte0x4
 1806 0153 00        	.byte0
 1807 0154 03        	.uleb128 0x3
 1808 0155 04        	.byte0x4
 1809 0156 07        	.byte0x7
 1810 0157 0000 0000 	.long.LASF26
 1811 015b 0C        	.uleb128 0xc
 1812 015c 0000 0000 	.long.LASF28
 1813 0160 14        	.byte0x14
68K GAS   			page 61


 1814 0161 06        	.byte0x6
 1815 0162 2D        	.byte0x2d
 1816 0163 0000 0198 	.long0x198
 1817 0167 09        	.uleb128 0x9
 1818 0168 0000 0000 	.long.LASF29
 1819 016c 06        	.byte0x6
 1820 016d 2E        	.byte0x2e
 1821 016e 0000 012F 	.long0x12f
 1822 0172 00        	.byte0
 1823 0173 09        	.uleb128 0x9
 1824 0174 0000 0000 	.long.LASF30
 1825 0178 06        	.byte0x6
 1826 0179 2F        	.byte0x2f
 1827 017a 0000 019D 	.long0x19d
 1828 017e 08        	.byte0x8
 1829 017f 09        	.uleb128 0x9
 1830 0180 0000 0000 	.long.LASF31
 1831 0184 06        	.byte0x6
 1832 0185 30        	.byte0x30
 1833 0186 0000 01A8 	.long0x1a8
 1834 018a 0C        	.byte0xc
 1835 018b 09        	.uleb128 0x9
 1836 018c 0000 0000 	.long.LASF32
 1837 0190 06        	.byte0x6
 1838 0191 31        	.byte0x31
 1839 0192 0000 01AE 	.long0x1ae
 1840 0196 10        	.byte0x10
 1841 0197 00        	.byte0
 1842 0198 0D        	.uleb128 0xd
 1843 0199 0000 0000 	.long.LASF33
 1844 019d 0E        	.uleb128 0xe
 1845 019e 04        	.byte0x4
 1846 019f 0000 0198 	.long0x198
 1847 01a3 0D        	.uleb128 0xd
 1848 01a4 0000 0000 	.long.LASF34
 1849 01a8 0E        	.uleb128 0xe
 1850 01a9 04        	.byte0x4
 1851 01aa 0000 01A3 	.long0x1a3
 1852 01ae 0E        	.uleb128 0xe
 1853 01af 04        	.byte0x4
 1854 01b0 0000 00BD 	.long0xbd
 1855 01b4 0C        	.uleb128 0xc
 1856 01b5 0000 0000 	.long.LASF35
 1857 01b9 14        	.byte0x14
 1858 01ba 06        	.byte0x6
 1859 01bb 34        	.byte0x34
 1860 01bc 0000 01CD 	.long0x1cd
 1861 01c0 09        	.uleb128 0x9
 1862 01c1 0000 0000 	.long.LASF36
 1863 01c5 06        	.byte0x6
 1864 01c6 35        	.byte0x35
 1865 01c7 0000 015B 	.long0x15b
 1866 01cb 00        	.byte0
 1867 01cc 00        	.byte0
 1868 01cd 0C        	.uleb128 0xc
 1869 01ce 0000 0000 	.long.LASF37
 1870 01d2 18        	.byte0x18
68K GAS   			page 62


 1871 01d3 06        	.byte0x6
 1872 01d4 38        	.byte0x38
 1873 01d5 0000 01F2 	.long0x1f2
 1874 01d9 09        	.uleb128 0x9
 1875 01da 0000 0000 	.long.LASF38
 1876 01de 06        	.byte0x6
 1877 01df 39        	.byte0x39
 1878 01e0 0000 01B4 	.long0x1b4
 1879 01e4 00        	.byte0
 1880 01e5 09        	.uleb128 0x9
 1881 01e6 0000 0000 	.long.LASF39
 1882 01ea 06        	.byte0x6
 1883 01eb 3A        	.byte0x3a
 1884 01ec 0000 0154 	.long0x154
 1885 01f0 14        	.byte0x14
 1886 01f1 00        	.byte0
 1887 01f2 04        	.uleb128 0x4
 1888 01f3 0000 0000 	.long.LASF40
 1889 01f7 06        	.byte0x6
 1890 01f8 0171      	.word0x171
 1891 01fa 0000 01CD 	.long0x1cd
 1892 01fe 02        	.uleb128 0x2
 1893 01ff 0000 0000 	.long.LASF41
 1894 0203 07        	.byte0x7
 1895 0204 91        	.byte0x91
 1896 0205 0000 005B 	.long0x5b
 1897 0209 04        	.uleb128 0x4
 1898 020a 0000 0000 	.long.LASF42
 1899 020e 08        	.byte0x8
 1900 020f 0165      	.word0x165
 1901 0211 0000 0154 	.long0x154
 1902 0215 0F        	.uleb128 0xf
 1903 0216 04        	.byte0x4
 1904 0217 07        	.byte0x7
 1905 0218 A6        	.byte0xa6
 1906 0219 0000 0234 	.long0x234
 1907 021d 10        	.uleb128 0x10
 1908 021e 0000 0000 	.long.LASF43
 1909 0222 07        	.byte0x7
 1910 0223 A8        	.byte0xa8
 1911 0224 0000 0209 	.long0x209
 1912 0228 10        	.uleb128 0x10
 1913 0229 0000 0000 	.long.LASF44
 1914 022d 07        	.byte0x7
 1915 022e A9        	.byte0xa9
 1916 022f 0000 0234 	.long0x234
 1917 0233 00        	.byte0
 1918 0234 06        	.uleb128 0x6
 1919 0235 0000 0030 	.long0x30
 1920 0239 0000 0244 	.long0x244
 1921 023d 07        	.uleb128 0x7
 1922 023e 0000 0091 	.long0x91
 1923 0242 03        	.byte0x3
 1924 0243 00        	.byte0
 1925 0244 08        	.uleb128 0x8
 1926 0245 08        	.byte0x8
 1927 0246 07        	.byte0x7
68K GAS   			page 63


 1928 0247 A3        	.byte0xa3
 1929 0248 0000 0265 	.long0x265
 1930 024c 09        	.uleb128 0x9
 1931 024d 0000 0000 	.long.LASF45
 1932 0251 07        	.byte0x7
 1933 0252 A5        	.byte0xa5
 1934 0253 0000 0128 	.long0x128
 1935 0257 00        	.byte0
 1936 0258 09        	.uleb128 0x9
 1937 0259 0000 0000 	.long.LASF46
 1938 025d 07        	.byte0x7
 1939 025e AA        	.byte0xaa
 1940 025f 0000 0215 	.long0x215
 1941 0263 04        	.byte0x4
 1942 0264 00        	.byte0
 1943 0265 02        	.uleb128 0x2
 1944 0266 0000 0000 	.long.LASF47
 1945 026a 07        	.byte0x7
 1946 026b AB        	.byte0xab
 1947 026c 0000 0244 	.long0x244
 1948 0270 02        	.uleb128 0x2
 1949 0271 0000 0000 	.long.LASF48
 1950 0275 07        	.byte0x7
 1951 0276 AF        	.byte0xaf
 1952 0277 0000 01F2 	.long0x1f2
 1953 027b 02        	.uleb128 0x2
 1954 027c 0000 0000 	.long.LASF49
 1955 0280 09        	.byte0x9
 1956 0281 16        	.byte0x16
 1957 0282 0000 0091 	.long0x91
 1958 0286 0C        	.uleb128 0xc
 1959 0287 0000 0000 	.long.LASF50
 1960 028b 18        	.byte0x18
 1961 028c 09        	.byte0x9
 1962 028d 2F        	.byte0x2f
 1963 028e 0000 02D9 	.long0x2d9
 1964 0292 09        	.uleb128 0x9
 1965 0293 0000 0000 	.long.LASF51
 1966 0297 09        	.byte0x9
 1967 0298 31        	.byte0x31
 1968 0299 0000 02D9 	.long0x2d9
 1969 029d 00        	.byte0
 1970 029e 11        	.uleb128 0x11
 1971 029f 5F6B 00   	.string"_k"
 1972 02a2 09        	.byte0x9
 1973 02a3 32        	.byte0x32
 1974 02a4 0000 0128 	.long0x128
 1975 02a8 04        	.byte0x4
 1976 02a9 09        	.uleb128 0x9
 1977 02aa 0000 0000 	.long.LASF52
 1978 02ae 09        	.byte0x9
 1979 02af 32        	.byte0x32
 1980 02b0 0000 0128 	.long0x128
 1981 02b4 08        	.byte0x8
 1982 02b5 09        	.uleb128 0x9
 1983 02b6 0000 0000 	.long.LASF53
 1984 02ba 09        	.byte0x9
68K GAS   			page 64


 1985 02bb 32        	.byte0x32
 1986 02bc 0000 0128 	.long0x128
 1987 02c0 0C        	.byte0xc
 1988 02c1 09        	.uleb128 0x9
 1989 02c2 0000 0000 	.long.LASF54
 1990 02c6 09        	.byte0x9
 1991 02c7 32        	.byte0x32
 1992 02c8 0000 0128 	.long0x128
 1993 02cc 10        	.byte0x10
 1994 02cd 11        	.uleb128 0x11
 1995 02ce 5F78 00   	.string"_x"
 1996 02d1 09        	.byte0x9
 1997 02d2 33        	.byte0x33
 1998 02d3 0000 02DF 	.long0x2df
 1999 02d7 14        	.byte0x14
 2000 02d8 00        	.byte0
 2001 02d9 0E        	.uleb128 0xe
 2002 02da 04        	.byte0x4
 2003 02db 0000 0286 	.long0x286
 2004 02df 06        	.uleb128 0x6
 2005 02e0 0000 027B 	.long0x27b
 2006 02e4 0000 02EF 	.long0x2ef
 2007 02e8 07        	.uleb128 0x7
 2008 02e9 0000 0091 	.long0x91
 2009 02ed 00        	.byte0
 2010 02ee 00        	.byte0
 2011 02ef 0C        	.uleb128 0xc
 2012 02f0 0000 0000 	.long.LASF55
 2013 02f4 24        	.byte0x24
 2014 02f5 09        	.byte0x9
 2015 02f6 37        	.byte0x37
 2016 02f7 0000 0368 	.long0x368
 2017 02fb 09        	.uleb128 0x9
 2018 02fc 0000 0000 	.long.LASF56
 2019 0300 09        	.byte0x9
 2020 0301 39        	.byte0x39
 2021 0302 0000 0128 	.long0x128
 2022 0306 00        	.byte0
 2023 0307 09        	.uleb128 0x9
 2024 0308 0000 0000 	.long.LASF57
 2025 030c 09        	.byte0x9
 2026 030d 3A        	.byte0x3a
 2027 030e 0000 0128 	.long0x128
 2028 0312 04        	.byte0x4
 2029 0313 09        	.uleb128 0x9
 2030 0314 0000 0000 	.long.LASF58
 2031 0318 09        	.byte0x9
 2032 0319 3B        	.byte0x3b
 2033 031a 0000 0128 	.long0x128
 2034 031e 08        	.byte0x8
 2035 031f 09        	.uleb128 0x9
 2036 0320 0000 0000 	.long.LASF59
 2037 0324 09        	.byte0x9
 2038 0325 3C        	.byte0x3c
 2039 0326 0000 0128 	.long0x128
 2040 032a 0C        	.byte0xc
 2041 032b 09        	.uleb128 0x9
68K GAS   			page 65


 2042 032c 0000 0000 	.long.LASF60
 2043 0330 09        	.byte0x9
 2044 0331 3D        	.byte0x3d
 2045 0332 0000 0128 	.long0x128
 2046 0336 10        	.byte0x10
 2047 0337 09        	.uleb128 0x9
 2048 0338 0000 0000 	.long.LASF61
 2049 033c 09        	.byte0x9
 2050 033d 3E        	.byte0x3e
 2051 033e 0000 0128 	.long0x128
 2052 0342 14        	.byte0x14
 2053 0343 09        	.uleb128 0x9
 2054 0344 0000 0000 	.long.LASF62
 2055 0348 09        	.byte0x9
 2056 0349 3F        	.byte0x3f
 2057 034a 0000 0128 	.long0x128
 2058 034e 18        	.byte0x18
 2059 034f 09        	.uleb128 0x9
 2060 0350 0000 0000 	.long.LASF63
 2061 0354 09        	.byte0x9
 2062 0355 40        	.byte0x40
 2063 0356 0000 0128 	.long0x128
 2064 035a 1C        	.byte0x1c
 2065 035b 09        	.uleb128 0x9
 2066 035c 0000 0000 	.long.LASF64
 2067 0360 09        	.byte0x9
 2068 0361 41        	.byte0x41
 2069 0362 0000 0128 	.long0x128
 2070 0366 20        	.byte0x20
 2071 0367 00        	.byte0
 2072 0368 12        	.uleb128 0x12
 2073 0369 0000 0000 	.long.LASF65
 2074 036d 0108      	.word0x108
 2075 036f 09        	.byte0x9
 2076 0370 4A        	.byte0x4a
 2077 0371 0000 03A8 	.long0x3a8
 2078 0375 09        	.uleb128 0x9
 2079 0376 0000 0000 	.long.LASF66
 2080 037a 09        	.byte0x9
 2081 037b 4B        	.byte0x4b
 2082 037c 0000 03A8 	.long0x3a8
 2083 0380 00        	.byte0
 2084 0381 09        	.uleb128 0x9
 2085 0382 0000 0000 	.long.LASF67
 2086 0386 09        	.byte0x9
 2087 0387 4C        	.byte0x4c
 2088 0388 0000 03A8 	.long0x3a8
 2089 038c 80        	.byte0x80
 2090 038d 13        	.uleb128 0x13
 2091 038e 0000 0000 	.long.LASF68
 2092 0392 09        	.byte0x9
 2093 0393 4E        	.byte0x4e
 2094 0394 0000 027B 	.long0x27b
 2095 0398 0100      	.word0x100
 2096 039a 13        	.uleb128 0x13
 2097 039b 0000 0000 	.long.LASF69
 2098 039f 09        	.byte0x9
68K GAS   			page 66


 2099 03a0 51        	.byte0x51
 2100 03a1 0000 027B 	.long0x27b
 2101 03a5 0104      	.word0x104
 2102 03a7 00        	.byte0
 2103 03a8 06        	.uleb128 0x6
 2104 03a9 0000 00FE 	.long0xfe
 2105 03ad 0000 03B8 	.long0x3b8
 2106 03b1 07        	.uleb128 0x7
 2107 03b2 0000 0091 	.long0x91
 2108 03b6 1F        	.byte0x1f
 2109 03b7 00        	.byte0
 2110 03b8 12        	.uleb128 0x12
 2111 03b9 0000 0000 	.long.LASF70
 2112 03bd 0190      	.word0x190
 2113 03bf 09        	.byte0x9
 2114 03c0 5D        	.byte0x5d
 2115 03c1 0000 03F6 	.long0x3f6
 2116 03c5 09        	.uleb128 0x9
 2117 03c6 0000 0000 	.long.LASF51
 2118 03ca 09        	.byte0x9
 2119 03cb 5E        	.byte0x5e
 2120 03cc 0000 03F6 	.long0x3f6
 2121 03d0 00        	.byte0
 2122 03d1 09        	.uleb128 0x9
 2123 03d2 0000 0000 	.long.LASF71
 2124 03d6 09        	.byte0x9
 2125 03d7 5F        	.byte0x5f
 2126 03d8 0000 0128 	.long0x128
 2127 03dc 04        	.byte0x4
 2128 03dd 09        	.uleb128 0x9
 2129 03de 0000 0000 	.long.LASF72
 2130 03e2 09        	.byte0x9
 2131 03e3 61        	.byte0x61
 2132 03e4 0000 03FC 	.long0x3fc
 2133 03e8 08        	.byte0x8
 2134 03e9 09        	.uleb128 0x9
 2135 03ea 0000 0000 	.long.LASF65
 2136 03ee 09        	.byte0x9
 2137 03ef 62        	.byte0x62
 2138 03f0 0000 0368 	.long0x368
 2139 03f4 88        	.byte0x88
 2140 03f5 00        	.byte0
 2141 03f6 0E        	.uleb128 0xe
 2142 03f7 04        	.byte0x4
 2143 03f8 0000 03B8 	.long0x3b8
 2144 03fc 06        	.uleb128 0x6
 2145 03fd 0000 040C 	.long0x40c
 2146 0401 0000 040C 	.long0x40c
 2147 0405 07        	.uleb128 0x7
 2148 0406 0000 0091 	.long0x91
 2149 040a 1F        	.byte0x1f
 2150 040b 00        	.byte0
 2151 040c 0E        	.uleb128 0xe
 2152 040d 04        	.byte0x4
 2153 040e 0000 0412 	.long0x412
 2154 0412 14        	.uleb128 0x14
 2155 0413 0C        	.uleb128 0xc
68K GAS   			page 67


 2156 0414 0000 0000 	.long.LASF73
 2157 0418 08        	.byte0x8
 2158 0419 09        	.byte0x9
 2159 041a 75        	.byte0x75
 2160 041b 0000 0438 	.long0x438
 2161 041f 09        	.uleb128 0x9
 2162 0420 0000 0000 	.long.LASF74
 2163 0424 09        	.byte0x9
 2164 0425 76        	.byte0x76
 2165 0426 0000 0438 	.long0x438
 2166 042a 00        	.byte0
 2167 042b 09        	.uleb128 0x9
 2168 042c 0000 0000 	.long.LASF75
 2169 0430 09        	.byte0x9
 2170 0431 77        	.byte0x77
 2171 0432 0000 0128 	.long0x128
 2172 0436 04        	.byte0x4
 2173 0437 00        	.byte0
 2174 0438 0E        	.uleb128 0xe
 2175 0439 04        	.byte0x4
 2176 043a 0000 0030 	.long0x30
 2177 043e 0C        	.uleb128 0xc
 2178 043f 0000 0000 	.long.LASF76
 2179 0443 80        	.byte0x80
 2180 0444 09        	.byte0x9
 2181 0445 B5        	.byte0xb5
 2182 0446 0000 0568 	.long0x568
 2183 044a 11        	.uleb128 0x11
 2184 044b 5F70 00   	.string"_p"
 2185 044e 09        	.byte0x9
 2186 044f B6        	.byte0xb6
 2187 0450 0000 0438 	.long0x438
 2188 0454 00        	.byte0
 2189 0455 11        	.uleb128 0x11
 2190 0456 5F72 00   	.string"_r"
 2191 0459 09        	.byte0x9
 2192 045a B7        	.byte0xb7
 2193 045b 0000 0128 	.long0x128
 2194 045f 04        	.byte0x4
 2195 0460 11        	.uleb128 0x11
 2196 0461 5F77 00   	.string"_w"
 2197 0464 09        	.byte0x9
 2198 0465 B8        	.byte0xb8
 2199 0466 0000 0128 	.long0x128
 2200 046a 08        	.byte0x8
 2201 046b 09        	.uleb128 0x9
 2202 046c 0000 0000 	.long.LASF77
 2203 0470 09        	.byte0x9
 2204 0471 B9        	.byte0xb9
 2205 0472 0000 0049 	.long0x49
 2206 0476 0C        	.byte0xc
 2207 0477 09        	.uleb128 0x9
 2208 0478 0000 0000 	.long.LASF78
 2209 047c 09        	.byte0x9
 2210 047d BA        	.byte0xba
 2211 047e 0000 0049 	.long0x49
 2212 0482 0E        	.byte0xe
68K GAS   			page 68


 2213 0483 11        	.uleb128 0x11
 2214 0484 5F62 6600 	.string"_bf"
 2215 0488 09        	.byte0x9
 2216 0489 BB        	.byte0xbb
 2217 048a 0000 0413 	.long0x413
 2218 048e 10        	.byte0x10
 2219 048f 09        	.uleb128 0x9
 2220 0490 0000 0000 	.long.LASF79
 2221 0494 09        	.byte0x9
 2222 0495 BC        	.byte0xbc
 2223 0496 0000 0128 	.long0x128
 2224 049a 18        	.byte0x18
 2225 049b 09        	.uleb128 0x9
 2226 049c 0000 0000 	.long.LASF80
 2227 04a0 09        	.byte0x9
 2228 04a1 C3        	.byte0xc3
 2229 04a2 0000 00FE 	.long0xfe
 2230 04a6 1C        	.byte0x1c
 2231 04a7 09        	.uleb128 0x9
 2232 04a8 0000 0000 	.long.LASF81
 2233 04ac 09        	.byte0x9
 2234 04ad C5        	.byte0xc5
 2235 04ae 0000 069F 	.long0x69f
 2236 04b2 20        	.byte0x20
 2237 04b3 09        	.uleb128 0x9
 2238 04b4 0000 0000 	.long.LASF82
 2239 04b8 09        	.byte0x9
 2240 04b9 C7        	.byte0xc7
 2241 04ba 0000 06C3 	.long0x6c3
 2242 04be 24        	.byte0x24
 2243 04bf 09        	.uleb128 0x9
 2244 04c0 0000 0000 	.long.LASF83
 2245 04c4 09        	.byte0x9
 2246 04c5 CA        	.byte0xca
 2247 04c6 0000 06E7 	.long0x6e7
 2248 04ca 28        	.byte0x28
 2249 04cb 09        	.uleb128 0x9
 2250 04cc 0000 0000 	.long.LASF84
 2251 04d0 09        	.byte0x9
 2252 04d1 CB        	.byte0xcb
 2253 04d2 0000 0701 	.long0x701
 2254 04d6 2C        	.byte0x2c
 2255 04d7 11        	.uleb128 0x11
 2256 04d8 5F75 6200 	.string"_ub"
 2257 04dc 09        	.byte0x9
 2258 04dd CE        	.byte0xce
 2259 04de 0000 0413 	.long0x413
 2260 04e2 30        	.byte0x30
 2261 04e3 11        	.uleb128 0x11
 2262 04e4 5F75 7000 	.string"_up"
 2263 04e8 09        	.byte0x9
 2264 04e9 CF        	.byte0xcf
 2265 04ea 0000 0438 	.long0x438
 2266 04ee 38        	.byte0x38
 2267 04ef 11        	.uleb128 0x11
 2268 04f0 5F75 7200 	.string"_ur"
 2269 04f4 09        	.byte0x9
68K GAS   			page 69


 2270 04f5 D0        	.byte0xd0
 2271 04f6 0000 0128 	.long0x128
 2272 04fa 3C        	.byte0x3c
 2273 04fb 09        	.uleb128 0x9
 2274 04fc 0000 0000 	.long.LASF85
 2275 0500 09        	.byte0x9
 2276 0501 D3        	.byte0xd3
 2277 0502 0000 0707 	.long0x707
 2278 0506 40        	.byte0x40
 2279 0507 09        	.uleb128 0x9
 2280 0508 0000 0000 	.long.LASF86
 2281 050c 09        	.byte0x9
 2282 050d D4        	.byte0xd4
 2283 050e 0000 0717 	.long0x717
 2284 0512 43        	.byte0x43
 2285 0513 11        	.uleb128 0x11
 2286 0514 5F6C 6200 	.string"_lb"
 2287 0518 09        	.byte0x9
 2288 0519 D7        	.byte0xd7
 2289 051a 0000 0413 	.long0x413
 2290 051e 44        	.byte0x44
 2291 051f 09        	.uleb128 0x9
 2292 0520 0000 0000 	.long.LASF87
 2293 0524 09        	.byte0x9
 2294 0525 DA        	.byte0xda
 2295 0526 0000 0128 	.long0x128
 2296 052a 4C        	.byte0x4c
 2297 052b 09        	.uleb128 0x9
 2298 052c 0000 0000 	.long.LASF88
 2299 0530 09        	.byte0x9
 2300 0531 DB        	.byte0xdb
 2301 0532 0000 0112 	.long0x112
 2302 0536 50        	.byte0x50
 2303 0537 09        	.uleb128 0x9
 2304 0538 0000 0000 	.long.LASF89
 2305 053c 09        	.byte0x9
 2306 053d DE        	.byte0xde
 2307 053e 0000 0586 	.long0x586
 2308 0542 58        	.byte0x58
 2309 0543 09        	.uleb128 0x9
 2310 0544 0000 0000 	.long.LASF90
 2311 0548 09        	.byte0x9
 2312 0549 E2        	.byte0xe2
 2313 054a 0000 0270 	.long0x270
 2314 054e 5C        	.byte0x5c
 2315 054f 09        	.uleb128 0x9
 2316 0550 0000 0000 	.long.LASF91
 2317 0554 09        	.byte0x9
 2318 0555 E4        	.byte0xe4
 2319 0556 0000 0265 	.long0x265
 2320 055a 74        	.byte0x74
 2321 055b 09        	.uleb128 0x9
 2322 055c 0000 0000 	.long.LASF92
 2323 0560 09        	.byte0x9
 2324 0561 E5        	.byte0xe5
 2325 0562 0000 0128 	.long0x128
 2326 0566 7C        	.byte0x7c
68K GAS   			page 70


 2327 0567 00        	.byte0
 2328 0568 15        	.uleb128 0x15
 2329 0569 0000 01FE 	.long0x1fe
 2330 056d 0000 0586 	.long0x586
 2331 0571 16        	.uleb128 0x16
 2332 0572 0000 0586 	.long0x586
 2333 0576 16        	.uleb128 0x16
 2334 0577 0000 00FE 	.long0xfe
 2335 057b 16        	.uleb128 0x16
 2336 057c 0000 0699 	.long0x699
 2337 0580 16        	.uleb128 0x16
 2338 0581 0000 0128 	.long0x128
 2339 0585 00        	.byte0
 2340 0586 0E        	.uleb128 0xe
 2341 0587 04        	.byte0x4
 2342 0588 0000 0591 	.long0x591
 2343 058c 05        	.uleb128 0x5
 2344 058d 0000 0586 	.long0x586
 2345 0591 17        	.uleb128 0x17
 2346 0592 0000 0000 	.long.LASF93
 2347 0596 0158      	.word0x158
 2348 0598 09        	.byte0x9
 2349 0599 0239      	.word0x239
 2350 059b 0000 0699 	.long0x699
 2351 059f 18        	.uleb128 0x18
 2352 05a0 0000 0000 	.long.LASF94
 2353 05a4 09        	.byte0x9
 2354 05a5 023B      	.word0x23b
 2355 05a7 0000 0128 	.long0x128
 2356 05ab 00        	.byte0
 2357 05ac 18        	.uleb128 0x18
 2358 05ad 0000 0000 	.long.LASF95
 2359 05b1 09        	.byte0x9
 2360 05b2 0240      	.word0x240
 2361 05b4 0000 076E 	.long0x76e
 2362 05b8 04        	.byte0x4
 2363 05b9 18        	.uleb128 0x18
 2364 05ba 0000 0000 	.long.LASF96
 2365 05be 09        	.byte0x9
 2366 05bf 0240      	.word0x240
 2367 05c1 0000 076E 	.long0x76e
 2368 05c5 08        	.byte0x8
 2369 05c6 18        	.uleb128 0x18
 2370 05c7 0000 0000 	.long.LASF97
 2371 05cb 09        	.byte0x9
 2372 05cc 0240      	.word0x240
 2373 05ce 0000 076E 	.long0x76e
 2374 05d2 0C        	.byte0xc
 2375 05d3 18        	.uleb128 0x18
 2376 05d4 0000 0000 	.long.LASF98
 2377 05d8 09        	.byte0x9
 2378 05d9 0242      	.word0x242
 2379 05db 0000 0128 	.long0x128
 2380 05df 10        	.byte0x10
 2381 05e0 18        	.uleb128 0x18
 2382 05e1 0000 0000 	.long.LASF99
 2383 05e5 09        	.byte0x9
68K GAS   			page 71


 2384 05e6 0243      	.word0x243
 2385 05e8 0000 0950 	.long0x950
 2386 05ec 14        	.byte0x14
 2387 05ed 18        	.uleb128 0x18
 2388 05ee 0000 0000 	.long.LASF100
 2389 05f2 09        	.byte0x9
 2390 05f3 0246      	.word0x246
 2391 05f5 0000 0128 	.long0x128
 2392 05f9 30        	.byte0x30
 2393 05fa 18        	.uleb128 0x18
 2394 05fb 0000 0000 	.long.LASF101
 2395 05ff 09        	.byte0x9
 2396 0600 0247      	.word0x247
 2397 0602 0000 0965 	.long0x965
 2398 0606 34        	.byte0x34
 2399 0607 18        	.uleb128 0x18
 2400 0608 0000 0000 	.long.LASF102
 2401 060c 09        	.byte0x9
 2402 060d 0249      	.word0x249
 2403 060f 0000 0128 	.long0x128
 2404 0613 38        	.byte0x38
 2405 0614 18        	.uleb128 0x18
 2406 0615 0000 0000 	.long.LASF103
 2407 0619 09        	.byte0x9
 2408 061a 024B      	.word0x24b
 2409 061c 0000 0976 	.long0x976
 2410 0620 3C        	.byte0x3c
 2411 0621 18        	.uleb128 0x18
 2412 0622 0000 0000 	.long.LASF104
 2413 0626 09        	.byte0x9
 2414 0627 024E      	.word0x24e
 2415 0629 0000 02D9 	.long0x2d9
 2416 062d 40        	.byte0x40
 2417 062e 18        	.uleb128 0x18
 2418 062f 0000 0000 	.long.LASF105
 2419 0633 09        	.byte0x9
 2420 0634 024F      	.word0x24f
 2421 0636 0000 0128 	.long0x128
 2422 063a 44        	.byte0x44
 2423 063b 18        	.uleb128 0x18
 2424 063c 0000 0000 	.long.LASF106
 2425 0640 09        	.byte0x9
 2426 0641 0250      	.word0x250
 2427 0643 0000 02D9 	.long0x2d9
 2428 0647 48        	.byte0x48
 2429 0648 18        	.uleb128 0x18
 2430 0649 0000 0000 	.long.LASF107
 2431 064d 09        	.byte0x9
 2432 064e 0251      	.word0x251
 2433 0650 0000 097C 	.long0x97c
 2434 0654 4C        	.byte0x4c
 2435 0655 18        	.uleb128 0x18
 2436 0656 0000 0000 	.long.LASF108
 2437 065a 09        	.byte0x9
 2438 065b 0254      	.word0x254
 2439 065d 0000 0128 	.long0x128
 2440 0661 50        	.byte0x50
68K GAS   			page 72


 2441 0662 18        	.uleb128 0x18
 2442 0663 0000 0000 	.long.LASF109
 2443 0667 09        	.byte0x9
 2444 0668 0255      	.word0x255
 2445 066a 0000 0699 	.long0x699
 2446 066e 54        	.byte0x54
 2447 066f 18        	.uleb128 0x18
 2448 0670 0000 0000 	.long.LASF110
 2449 0674 09        	.byte0x9
 2450 0675 0278      	.word0x278
 2451 0677 0000 092E 	.long0x92e
 2452 067b 58        	.byte0x58
 2453 067c 19        	.uleb128 0x19
 2454 067d 0000 0000 	.long.LASF111
 2455 0681 09        	.byte0x9
 2456 0682 0281      	.word0x281
 2457 0684 0000 098D 	.long0x98d
 2458 0688 0148      	.word0x148
 2459 068a 19        	.uleb128 0x19
 2460 068b 0000 0000 	.long.LASF112
 2461 068f 09        	.byte0x9
 2462 0690 0286      	.word0x286
 2463 0692 0000 0733 	.long0x733
 2464 0696 014C      	.word0x14c
 2465 0698 00        	.byte0
 2466 0699 0E        	.uleb128 0xe
 2467 069a 04        	.byte0x4
 2468 069b 0000 00B6 	.long0xb6
 2469 069f 0E        	.uleb128 0xe
 2470 06a0 04        	.byte0x4
 2471 06a1 0000 0568 	.long0x568
 2472 06a5 15        	.uleb128 0x15
 2473 06a6 0000 01FE 	.long0x1fe
 2474 06aa 0000 06C3 	.long0x6c3
 2475 06ae 16        	.uleb128 0x16
 2476 06af 0000 0586 	.long0x586
 2477 06b3 16        	.uleb128 0x16
 2478 06b4 0000 00FE 	.long0xfe
 2479 06b8 16        	.uleb128 0x16
 2480 06b9 0000 01AE 	.long0x1ae
 2481 06bd 16        	.uleb128 0x16
 2482 06be 0000 0128 	.long0x128
 2483 06c2 00        	.byte0
 2484 06c3 0E        	.uleb128 0xe
 2485 06c4 04        	.byte0x4
 2486 06c5 0000 06A5 	.long0x6a5
 2487 06c9 15        	.uleb128 0x15
 2488 06ca 0000 011D 	.long0x11d
 2489 06ce 0000 06E7 	.long0x6e7
 2490 06d2 16        	.uleb128 0x16
 2491 06d3 0000 0586 	.long0x586
 2492 06d7 16        	.uleb128 0x16
 2493 06d8 0000 00FE 	.long0xfe
 2494 06dc 16        	.uleb128 0x16
 2495 06dd 0000 011D 	.long0x11d
 2496 06e1 16        	.uleb128 0x16
 2497 06e2 0000 0128 	.long0x128
68K GAS   			page 73


 2498 06e6 00        	.byte0
 2499 06e7 0E        	.uleb128 0xe
 2500 06e8 04        	.byte0x4
 2501 06e9 0000 06C9 	.long0x6c9
 2502 06ed 15        	.uleb128 0x15
 2503 06ee 0000 0128 	.long0x128
 2504 06f2 0000 0701 	.long0x701
 2505 06f6 16        	.uleb128 0x16
 2506 06f7 0000 0586 	.long0x586
 2507 06fb 16        	.uleb128 0x16
 2508 06fc 0000 00FE 	.long0xfe
 2509 0700 00        	.byte0
 2510 0701 0E        	.uleb128 0xe
 2511 0702 04        	.byte0x4
 2512 0703 0000 06ED 	.long0x6ed
 2513 0707 06        	.uleb128 0x6
 2514 0708 0000 0030 	.long0x30
 2515 070c 0000 0717 	.long0x717
 2516 0710 07        	.uleb128 0x7
 2517 0711 0000 0091 	.long0x91
 2518 0715 02        	.byte0x2
 2519 0716 00        	.byte0
 2520 0717 06        	.uleb128 0x6
 2521 0718 0000 0030 	.long0x30
 2522 071c 0000 0727 	.long0x727
 2523 0720 07        	.uleb128 0x7
 2524 0721 0000 0091 	.long0x91
 2525 0725 00        	.byte0
 2526 0726 00        	.byte0
 2527 0727 04        	.uleb128 0x4
 2528 0728 0000 0000 	.long.LASF113
 2529 072c 09        	.byte0x9
 2530 072d 011F      	.word0x11f
 2531 072f 0000 043E 	.long0x43e
 2532 0733 1A        	.uleb128 0x1a
 2533 0734 0000 0000 	.long.LASF114
 2534 0738 0C        	.byte0xc
 2535 0739 09        	.byte0x9
 2536 073a 0123      	.word0x123
 2537 073c 0000 0768 	.long0x768
 2538 0740 18        	.uleb128 0x18
 2539 0741 0000 0000 	.long.LASF51
 2540 0745 09        	.byte0x9
 2541 0746 0125      	.word0x125
 2542 0748 0000 0768 	.long0x768
 2543 074c 00        	.byte0
 2544 074d 18        	.uleb128 0x18
 2545 074e 0000 0000 	.long.LASF115
 2546 0752 09        	.byte0x9
 2547 0753 0126      	.word0x126
 2548 0755 0000 0128 	.long0x128
 2549 0759 04        	.byte0x4
 2550 075a 18        	.uleb128 0x18
 2551 075b 0000 0000 	.long.LASF116
 2552 075f 09        	.byte0x9
 2553 0760 0127      	.word0x127
 2554 0762 0000 076E 	.long0x76e
68K GAS   			page 74


 2555 0766 08        	.byte0x8
 2556 0767 00        	.byte0
 2557 0768 0E        	.uleb128 0xe
 2558 0769 04        	.byte0x4
 2559 076a 0000 0733 	.long0x733
 2560 076e 0E        	.uleb128 0xe
 2561 076f 04        	.byte0x4
 2562 0770 0000 0727 	.long0x727
 2563 0774 1A        	.uleb128 0x1a
 2564 0775 0000 0000 	.long.LASF117
 2565 0779 0E        	.byte0xe
 2566 077a 09        	.byte0x9
 2567 077b 013F      	.word0x13f
 2568 077d 0000 07A9 	.long0x7a9
 2569 0781 18        	.uleb128 0x18
 2570 0782 0000 0000 	.long.LASF118
 2571 0786 09        	.byte0x9
 2572 0787 0140      	.word0x140
 2573 0789 0000 07A9 	.long0x7a9
 2574 078d 00        	.byte0
 2575 078e 18        	.uleb128 0x18
 2576 078f 0000 0000 	.long.LASF119
 2577 0793 09        	.byte0x9
 2578 0794 0141      	.word0x141
 2579 0796 0000 07A9 	.long0x7a9
 2580 079a 06        	.byte0x6
 2581 079b 18        	.uleb128 0x18
 2582 079c 0000 0000 	.long.LASF120
 2583 07a0 09        	.byte0x9
 2584 07a1 0142      	.word0x142
 2585 07a3 0000 007F 	.long0x7f
 2586 07a7 0C        	.byte0xc
 2587 07a8 00        	.byte0
 2588 07a9 06        	.uleb128 0x6
 2589 07aa 0000 007F 	.long0x7f
 2590 07ae 0000 07B9 	.long0x7b9
 2591 07b2 07        	.uleb128 0x7
 2592 07b3 0000 0091 	.long0x91
 2593 07b7 02        	.byte0x2
 2594 07b8 00        	.byte0
 2595 07b9 1B        	.uleb128 0x1b
 2596 07ba CC        	.byte0xcc
 2597 07bb 09        	.byte0x9
 2598 07bc 0259      	.word0x259
 2599 07be 0000 08BA 	.long0x8ba
 2600 07c2 18        	.uleb128 0x18
 2601 07c3 0000 0000 	.long.LASF121
 2602 07c7 09        	.byte0x9
 2603 07c8 025B      	.word0x25b
 2604 07ca 0000 0154 	.long0x154
 2605 07ce 00        	.byte0
 2606 07cf 18        	.uleb128 0x18
 2607 07d0 0000 0000 	.long.LASF122
 2608 07d4 09        	.byte0x9
 2609 07d5 025C      	.word0x25c
 2610 07d7 0000 0699 	.long0x699
 2611 07db 04        	.byte0x4
68K GAS   			page 75


 2612 07dc 18        	.uleb128 0x18
 2613 07dd 0000 0000 	.long.LASF123
 2614 07e1 09        	.byte0x9
 2615 07e2 025D      	.word0x25d
 2616 07e4 0000 08BA 	.long0x8ba
 2617 07e8 08        	.byte0x8
 2618 07e9 18        	.uleb128 0x18
 2619 07ea 0000 0000 	.long.LASF124
 2620 07ee 09        	.byte0x9
 2621 07ef 025E      	.word0x25e
 2622 07f1 0000 02EF 	.long0x2ef
 2623 07f5 24        	.byte0x24
 2624 07f6 18        	.uleb128 0x18
 2625 07f7 0000 0000 	.long.LASF125
 2626 07fb 09        	.byte0x9
 2627 07fc 025F      	.word0x25f
 2628 07fe 0000 0128 	.long0x128
 2629 0802 48        	.byte0x48
 2630 0803 18        	.uleb128 0x18
 2631 0804 0000 0000 	.long.LASF126
 2632 0808 09        	.byte0x9
 2633 0809 0260      	.word0x260
 2634 080b 0000 0098 	.long0x98
 2635 080f 4C        	.byte0x4c
 2636 0810 18        	.uleb128 0x18
 2637 0811 0000 0000 	.long.LASF127
 2638 0815 09        	.byte0x9
 2639 0816 0261      	.word0x261
 2640 0818 0000 0774 	.long0x774
 2641 081c 54        	.byte0x54
 2642 081d 18        	.uleb128 0x18
 2643 081e 0000 0000 	.long.LASF128
 2644 0822 09        	.byte0x9
 2645 0823 0262      	.word0x262
 2646 0825 0000 0265 	.long0x265
 2647 0829 64        	.byte0x64
 2648 082a 18        	.uleb128 0x18
 2649 082b 0000 0000 	.long.LASF129
 2650 082f 09        	.byte0x9
 2651 0830 0263      	.word0x263
 2652 0832 0000 0265 	.long0x265
 2653 0836 6C        	.byte0x6c
 2654 0837 18        	.uleb128 0x18
 2655 0838 0000 0000 	.long.LASF130
 2656 083c 09        	.byte0x9
 2657 083d 0264      	.word0x264
 2658 083f 0000 0265 	.long0x265
 2659 0843 74        	.byte0x74
 2660 0844 18        	.uleb128 0x18
 2661 0845 0000 0000 	.long.LASF131
 2662 0849 09        	.byte0x9
 2663 084a 0265      	.word0x265
 2664 084c 0000 08CA 	.long0x8ca
 2665 0850 7C        	.byte0x7c
 2666 0851 18        	.uleb128 0x18
 2667 0852 0000 0000 	.long.LASF132
 2668 0856 09        	.byte0x9
68K GAS   			page 76


 2669 0857 0266      	.word0x266
 2670 0859 0000 08DA 	.long0x8da
 2671 085d 84        	.byte0x84
 2672 085e 18        	.uleb128 0x18
 2673 085f 0000 0000 	.long.LASF133
 2674 0863 09        	.byte0x9
 2675 0864 0267      	.word0x267
 2676 0866 0000 0128 	.long0x128
 2677 086a 9C        	.byte0x9c
 2678 086b 18        	.uleb128 0x18
 2679 086c 0000 0000 	.long.LASF134
 2680 0870 09        	.byte0x9
 2681 0871 0268      	.word0x268
 2682 0873 0000 0265 	.long0x265
 2683 0877 A0        	.byte0xa0
 2684 0878 18        	.uleb128 0x18
 2685 0879 0000 0000 	.long.LASF135
 2686 087d 09        	.byte0x9
 2687 087e 0269      	.word0x269
 2688 0880 0000 0265 	.long0x265
 2689 0884 A8        	.byte0xa8
 2690 0885 18        	.uleb128 0x18
 2691 0886 0000 0000 	.long.LASF136
 2692 088a 09        	.byte0x9
 2693 088b 026A      	.word0x26a
 2694 088d 0000 0265 	.long0x265
 2695 0891 B0        	.byte0xb0
 2696 0892 18        	.uleb128 0x18
 2697 0893 0000 0000 	.long.LASF137
 2698 0897 09        	.byte0x9
 2699 0898 026B      	.word0x26b
 2700 089a 0000 0265 	.long0x265
 2701 089e B8        	.byte0xb8
 2702 089f 18        	.uleb128 0x18
 2703 08a0 0000 0000 	.long.LASF138
 2704 08a4 09        	.byte0x9
 2705 08a5 026C      	.word0x26c
 2706 08a7 0000 0265 	.long0x265
 2707 08ab C0        	.byte0xc0
 2708 08ac 18        	.uleb128 0x18
 2709 08ad 0000 0000 	.long.LASF139
 2710 08b1 09        	.byte0x9
 2711 08b2 026D      	.word0x26d
 2712 08b4 0000 0128 	.long0x128
 2713 08b8 C8        	.byte0xc8
 2714 08b9 00        	.byte0
 2715 08ba 06        	.uleb128 0x6
 2716 08bb 0000 00B6 	.long0xb6
 2717 08bf 0000 08CA 	.long0x8ca
 2718 08c3 07        	.uleb128 0x7
 2719 08c4 0000 0091 	.long0x91
 2720 08c8 19        	.byte0x19
 2721 08c9 00        	.byte0
 2722 08ca 06        	.uleb128 0x6
 2723 08cb 0000 00B6 	.long0xb6
 2724 08cf 0000 08DA 	.long0x8da
 2725 08d3 07        	.uleb128 0x7
68K GAS   			page 77


 2726 08d4 0000 0091 	.long0x91
 2727 08d8 07        	.byte0x7
 2728 08d9 00        	.byte0
 2729 08da 06        	.uleb128 0x6
 2730 08db 0000 00B6 	.long0xb6
 2731 08df 0000 08EA 	.long0x8ea
 2732 08e3 07        	.uleb128 0x7
 2733 08e4 0000 0091 	.long0x91
 2734 08e8 17        	.byte0x17
 2735 08e9 00        	.byte0
 2736 08ea 1B        	.uleb128 0x1b
 2737 08eb F0        	.byte0xf0
 2738 08ec 09        	.byte0x9
 2739 08ed 0272      	.word0x272
 2740 08ef 0000 090E 	.long0x90e
 2741 08f3 18        	.uleb128 0x18
 2742 08f4 0000 0000 	.long.LASF140
 2743 08f8 09        	.byte0x9
 2744 08f9 0275      	.word0x275
 2745 08fb 0000 090E 	.long0x90e
 2746 08ff 00        	.byte0
 2747 0900 18        	.uleb128 0x18
 2748 0901 0000 0000 	.long.LASF141
 2749 0905 09        	.byte0x9
 2750 0906 0276      	.word0x276
 2751 0908 0000 091E 	.long0x91e
 2752 090c 78        	.byte0x78
 2753 090d 00        	.byte0
 2754 090e 06        	.uleb128 0x6
 2755 090f 0000 0438 	.long0x438
 2756 0913 0000 091E 	.long0x91e
 2757 0917 07        	.uleb128 0x7
 2758 0918 0000 0091 	.long0x91
 2759 091c 1D        	.byte0x1d
 2760 091d 00        	.byte0
 2761 091e 06        	.uleb128 0x6
 2762 091f 0000 0154 	.long0x154
 2763 0923 0000 092E 	.long0x92e
 2764 0927 07        	.uleb128 0x7
 2765 0928 0000 0091 	.long0x91
 2766 092c 1D        	.byte0x1d
 2767 092d 00        	.byte0
 2768 092e 1C        	.uleb128 0x1c
 2769 092f F0        	.byte0xf0
 2770 0930 09        	.byte0x9
 2771 0931 0257      	.word0x257
 2772 0933 0000 0950 	.long0x950
 2773 0937 1D        	.uleb128 0x1d
 2774 0938 0000 0000 	.long.LASF93
 2775 093c 09        	.byte0x9
 2776 093d 026E      	.word0x26e
 2777 093f 0000 07B9 	.long0x7b9
 2778 0943 1D        	.uleb128 0x1d
 2779 0944 0000 0000 	.long.LASF142
 2780 0948 09        	.byte0x9
 2781 0949 0277      	.word0x277
 2782 094b 0000 08EA 	.long0x8ea
68K GAS   			page 78


 2783 094f 00        	.byte0
 2784 0950 06        	.uleb128 0x6
 2785 0951 0000 00B6 	.long0xb6
 2786 0955 0000 0960 	.long0x960
 2787 0959 07        	.uleb128 0x7
 2788 095a 0000 0091 	.long0x91
 2789 095e 18        	.byte0x18
 2790 095f 00        	.byte0
 2791 0960 0D        	.uleb128 0xd
 2792 0961 0000 0000 	.long.LASF143
 2793 0965 0E        	.uleb128 0xe
 2794 0966 04        	.byte0x4
 2795 0967 0000 0960 	.long0x960
 2796 096b 1E        	.uleb128 0x1e
 2797 096c 0000 0976 	.long0x976
 2798 0970 16        	.uleb128 0x16
 2799 0971 0000 0586 	.long0x586
 2800 0975 00        	.byte0
 2801 0976 0E        	.uleb128 0xe
 2802 0977 04        	.byte0x4
 2803 0978 0000 096B 	.long0x96b
 2804 097c 0E        	.uleb128 0xe
 2805 097d 04        	.byte0x4
 2806 097e 0000 02D9 	.long0x2d9
 2807 0982 1E        	.uleb128 0x1e
 2808 0983 0000 098D 	.long0x98d
 2809 0987 16        	.uleb128 0x16
 2810 0988 0000 0128 	.long0x128
 2811 098c 00        	.byte0
 2812 098d 0E        	.uleb128 0xe
 2813 098e 04        	.byte0x4
 2814 098f 0000 0993 	.long0x993
 2815 0993 0E        	.uleb128 0xe
 2816 0994 04        	.byte0x4
 2817 0995 0000 0982 	.long0x982
 2818 0999 06        	.uleb128 0x6
 2819 099a 0000 0727 	.long0x727
 2820 099e 0000 09A9 	.long0x9a9
 2821 09a2 07        	.uleb128 0x7
 2822 09a3 0000 0091 	.long0x91
 2823 09a7 02        	.byte0x2
 2824 09a8 00        	.byte0
 2825 09a9 1F        	.uleb128 0x1f
 2826 09aa 0000 0000 	.long.LASF144
 2827 09ae 09        	.byte0x9
 2828 09af 028D      	.word0x28d
 2829 09b1 0000 0999 	.long0x999
 2830 09b5 1F        	.uleb128 0x1f
 2831 09b6 0000 0000 	.long.LASF145
 2832 09ba 09        	.byte0x9
 2833 09bb 0307      	.word0x307
 2834 09bd 0000 0586 	.long0x586
 2835 09c1 1F        	.uleb128 0x1f
 2836 09c2 0000 0000 	.long.LASF146
 2837 09c6 09        	.byte0x9
 2838 09c7 0308      	.word0x308
 2839 09c9 0000 058C 	.long0x58c
68K GAS   			page 79


 2840 09cd 1F        	.uleb128 0x1f
 2841 09ce 0000 0000 	.long.LASF147
 2842 09d2 09        	.byte0x9
 2843 09d3 031A      	.word0x31a
 2844 09d5 0000 03F6 	.long0x3f6
 2845 09d9 20        	.uleb128 0x20
 2846 09da 0000 0000 	.long.LASF148
 2847 09de 0A        	.byte0xa
 2848 09df 63        	.byte0x63
 2849 09e0 0000 0699 	.long0x699
 2850 09e4 20        	.uleb128 0x20
 2851 09e5 0000 0000 	.long.LASF149
 2852 09e9 0B        	.byte0xb
 2853 09ea 9A        	.byte0x9a
 2854 09eb 0000 005B 	.long0x5b
 2855 09ef 20        	.uleb128 0x20
 2856 09f0 0000 0000 	.long.LASF150
 2857 09f4 0B        	.byte0xb
 2858 09f5 9B        	.byte0x9b
 2859 09f6 0000 0128 	.long0x128
 2860 09fa 06        	.uleb128 0x6
 2861 09fb 0000 0699 	.long0x699
 2862 09ff 0000 0A0A 	.long0xa0a
 2863 0a03 07        	.uleb128 0x7
 2864 0a04 0000 0091 	.long0x91
 2865 0a08 01        	.byte0x1
 2866 0a09 00        	.byte0
 2867 0a0a 20        	.uleb128 0x20
 2868 0a0b 0000 0000 	.long.LASF151
 2869 0a0f 0B        	.byte0xb
 2870 0a10 9E        	.byte0x9e
 2871 0a11 0000 09FA 	.long0x9fa
 2872 0a15 0E        	.uleb128 0xe
 2873 0a16 04        	.byte0x4
 2874 0a17 0000 0A1B 	.long0xa1b
 2875 0a1b 21        	.uleb128 0x21
 2876 0a1c 0000 0050 	.long0x50
 2877 0a20 08        	.uleb128 0x8
 2878 0a21 08        	.byte0x8
 2879 0a22 0C        	.byte0xc
 2880 0a23 4D        	.byte0x4d
 2881 0a24 0000 0A41 	.long0xa41
 2882 0a28 09        	.uleb128 0x9
 2883 0a29 0000 0000 	.long.LASF152
 2884 0a2d 0C        	.byte0xc
 2885 0a2e 4F        	.byte0x4f
 2886 0a2f 0000 0086 	.long0x86
 2887 0a33 00        	.byte0
 2888 0a34 09        	.uleb128 0x9
 2889 0a35 0000 0000 	.long.LASF153
 2890 0a39 0C        	.byte0xc
 2891 0a3a 50        	.byte0x50
 2892 0a3b 0000 0086 	.long0x86
 2893 0a3f 04        	.byte0x4
 2894 0a40 00        	.byte0
 2895 0a41 02        	.uleb128 0x2
 2896 0a42 0000 0000 	.long.LASF154
68K GAS   			page 80


 2897 0a46 0C        	.byte0xc
 2898 0a47 51        	.byte0x51
 2899 0a48 0000 0A20 	.long0xa20
 2900 0a4c 22        	.uleb128 0x22
 2901 0a4d 05        	.byte0x5
 2902 0a4e 04        	.byte0x4
 2903 0a4f 0000 0128 	.long0x128
 2904 0a53 0C        	.byte0xc
 2905 0a54 65        	.byte0x65
 2906 0a55 0000 0A6C 	.long0xa6c
 2907 0a59 23        	.uleb128 0x23
 2908 0a5a 0000 0000 	.long.LASF155
 2909 0a5e 7F        	.sleb128 -1
 2910 0a5f 24        	.uleb128 0x24
 2911 0a60 0000 0000 	.long.LASF156
 2912 0a64 00        	.byte0
 2913 0a65 24        	.uleb128 0x24
 2914 0a66 0000 0000 	.long.LASF157
 2915 0a6a 01        	.byte0x1
 2916 0a6b 00        	.byte0
 2917 0a6c 22        	.uleb128 0x22
 2918 0a6d 05        	.byte0x5
 2919 0a6e 04        	.byte0x4
 2920 0a6f 0000 0128 	.long0x128
 2921 0a73 0C        	.byte0xc
 2922 0a74 81        	.byte0x81
 2923 0a75 0000 0A8C 	.long0xa8c
 2924 0a79 23        	.uleb128 0x23
 2925 0a7a 0000 0000 	.long.LASF158
 2926 0a7e 7F        	.sleb128 -1
 2927 0a7f 24        	.uleb128 0x24
 2928 0a80 0000 0000 	.long.LASF159
 2929 0a84 00        	.byte0
 2930 0a85 24        	.uleb128 0x24
 2931 0a86 0000 0000 	.long.LASF160
 2932 0a8a 01        	.byte0x1
 2933 0a8b 00        	.byte0
 2934 0a8c 08        	.uleb128 0x8
 2935 0a8d 20        	.byte0x20
 2936 0a8e 0C        	.byte0xc
 2937 0a8f 92        	.byte0x92
 2938 0a90 0000 0ADD 	.long0xadd
 2939 0a94 09        	.uleb128 0x9
 2940 0a95 0000 0000 	.long.LASF161
 2941 0a99 0C        	.byte0xc
 2942 0a9a 94        	.byte0x94
 2943 0a9b 0000 0086 	.long0x86
 2944 0a9f 00        	.byte0
 2945 0aa0 09        	.uleb128 0x9
 2946 0aa1 0000 0000 	.long.LASF162
 2947 0aa5 0C        	.byte0xc
 2948 0aa6 95        	.byte0x95
 2949 0aa7 0000 003E 	.long0x3e
 2950 0aab 04        	.byte0x4
 2951 0aac 09        	.uleb128 0x9
 2952 0aad 0000 0000 	.long.LASF163
 2953 0ab1 0C        	.byte0xc
68K GAS   			page 81


 2954 0ab2 96        	.byte0x96
 2955 0ab3 0000 0074 	.long0x74
 2956 0ab7 06        	.byte0x6
 2957 0ab8 09        	.uleb128 0x9
 2958 0ab9 0000 0000 	.long.LASF164
 2959 0abd 0C        	.byte0xc
 2960 0abe 97        	.byte0x97
 2961 0abf 0000 0A41 	.long0xa41
 2962 0ac3 08        	.byte0x8
 2963 0ac4 09        	.uleb128 0x9
 2964 0ac5 0000 0000 	.long.LASF165
 2965 0ac9 0C        	.byte0xc
 2966 0aca 98        	.byte0x98
 2967 0acb 0000 0A41 	.long0xa41
 2968 0acf 10        	.byte0x10
 2969 0ad0 09        	.uleb128 0x9
 2970 0ad1 0000 0000 	.long.LASF166
 2971 0ad5 0C        	.byte0xc
 2972 0ad6 99        	.byte0x99
 2973 0ad7 0000 0A41 	.long0xa41
 2974 0adb 18        	.byte0x18
 2975 0adc 00        	.byte0
 2976 0add 02        	.uleb128 0x2
 2977 0ade 0000 0000 	.long.LASF167
 2978 0ae2 0C        	.byte0xc
 2979 0ae3 9B        	.byte0x9b
 2980 0ae4 0000 0A8C 	.long0xa8c
 2981 0ae8 02        	.uleb128 0x2
 2982 0ae9 0000 0000 	.long.LASF168
 2983 0aed 0C        	.byte0xc
 2984 0aee A5        	.byte0xa5
 2985 0aef 0000 0A15 	.long0xa15
 2986 0af3 06        	.uleb128 0x6
 2987 0af4 0000 0086 	.long0x86
 2988 0af8 0000 0B03 	.long0xb03
 2989 0afc 07        	.uleb128 0x7
 2990 0afd 0000 0091 	.long0x91
 2991 0b01 1F        	.byte0x1f
 2992 0b02 00        	.byte0
 2993 0b03 08        	.uleb128 0x8
 2994 0b04 06        	.byte0x6
 2995 0b05 0D        	.byte0xd
 2996 0b06 58        	.byte0x58
 2997 0b07 0000 0B30 	.long0xb30
 2998 0b0b 09        	.uleb128 0x9
 2999 0b0c 0000 0000 	.long.LASF169
 3000 0b10 0D        	.byte0xd
 3001 0b11 5A        	.byte0x5a
 3002 0b12 0000 0B30 	.long0xb30
 3003 0b16 00        	.byte0
 3004 0b17 09        	.uleb128 0x9
 3005 0b18 0000 0000 	.long.LASF170
 3006 0b1c 0D        	.byte0xd
 3007 0b1d 61        	.byte0x61
 3008 0b1e 0000 0B30 	.long0xb30
 3009 0b22 02        	.byte0x2
 3010 0b23 09        	.uleb128 0x9
68K GAS   			page 82


 3011 0b24 0000 0000 	.long.LASF171
 3012 0b28 0D        	.byte0xd
 3013 0b29 66        	.byte0x66
 3014 0b2a 0000 0B30 	.long0xb30
 3015 0b2e 04        	.byte0x4
 3016 0b2f 00        	.byte0
 3017 0b30 06        	.uleb128 0x6
 3018 0b31 0000 0069 	.long0x69
 3019 0b35 0000 0B40 	.long0xb40
 3020 0b39 07        	.uleb128 0x7
 3021 0b3a 0000 0091 	.long0x91
 3022 0b3e 01        	.byte0x1
 3023 0b3f 00        	.byte0
 3024 0b40 02        	.uleb128 0x2
 3025 0b41 0000 0000 	.long.LASF172
 3026 0b45 0D        	.byte0xd
 3027 0b46 6A        	.byte0x6a
 3028 0b47 0000 0B03 	.long0xb03
 3029 0b4b 06        	.uleb128 0x6
 3030 0b4c 0000 0069 	.long0x69
 3031 0b50 0000 0B5B 	.long0xb5b
 3032 0b54 07        	.uleb128 0x7
 3033 0b55 0000 0091 	.long0x91
 3034 0b59 05        	.byte0x5
 3035 0b5a 00        	.byte0
 3036 0b5b 0F        	.uleb128 0xf
 3037 0b5c 08        	.byte0x8
 3038 0b5d 0E        	.byte0xe
 3039 0b5e 75        	.byte0x75
 3040 0b5f 0000 0B85 	.long0xb85
 3041 0b63 25        	.uleb128 0x25
 3042 0b64 4864 7200 	.string"Hdr"
 3043 0b68 0E        	.byte0xe
 3044 0b69 76        	.byte0x76
 3045 0b6a 0000 0B40 	.long0xb40
 3046 0b6e 10        	.uleb128 0x10
 3047 0b6f 0000 0000 	.long.LASF173
 3048 0b73 0E        	.byte0xe
 3049 0b74 77        	.byte0x77
 3050 0b75 0000 0086 	.long0x86
 3051 0b79 10        	.uleb128 0x10
 3052 0b7a 0000 0000 	.long.LASF174
 3053 0b7e 0E        	.byte0xe
 3054 0b7f 78        	.byte0x78
 3055 0b80 0000 0B4B 	.long0xb4b
 3056 0b84 00        	.byte0
 3057 0b85 02        	.uleb128 0x2
 3058 0b86 0000 0000 	.long.LASF175
 3059 0b8a 0E        	.byte0xe
 3060 0b8b 79        	.byte0x79
 3061 0b8c 0000 0B5B 	.long0xb5b
 3062 0b90 02        	.uleb128 0x2
 3063 0b91 0000 0000 	.long.LASF176
 3064 0b95 0E        	.byte0xe
 3065 0b96 98        	.byte0x98
 3066 0b97 0000 0069 	.long0x69
 3067 0b9b 02        	.uleb128 0x2
68K GAS   			page 83


 3068 0b9c 0000 0000 	.long.LASF177
 3069 0ba0 0E        	.byte0xe
 3070 0ba1 A1        	.byte0xa1
 3071 0ba2 0000 0BA6 	.long0xba6
 3072 0ba6 0E        	.uleb128 0xe
 3073 0ba7 04        	.byte0x4
 3074 0ba8 0000 0B85 	.long0xb85
 3075 0bac 08        	.uleb128 0x8
 3076 0bad 02        	.byte0x2
 3077 0bae 0E        	.byte0xe
 3078 0baf B1        	.byte0xb1
 3079 0bb0 0000 0BCD 	.long0xbcd
 3080 0bb4 09        	.uleb128 0x9
 3081 0bb5 0000 0000 	.long.LASF178
 3082 0bb9 0E        	.byte0xe
 3083 0bba B2        	.byte0xb2
 3084 0bbb 0000 0069 	.long0x69
 3085 0bbf 00        	.byte0
 3086 0bc0 09        	.uleb128 0x9
 3087 0bc1 0000 0000 	.long.LASF179
 3088 0bc5 0E        	.byte0xe
 3089 0bc6 B3        	.byte0xb3
 3090 0bc7 0000 0069 	.long0x69
 3091 0bcb 01        	.byte0x1
 3092 0bcc 00        	.byte0
 3093 0bcd 02        	.uleb128 0x2
 3094 0bce 0000 0000 	.long.LASF180
 3095 0bd2 0E        	.byte0xe
 3096 0bd3 B4        	.byte0xb4
 3097 0bd4 0000 0BAC 	.long0xbac
 3098 0bd8 20        	.uleb128 0x20
 3099 0bd9 0000 0000 	.long.LASF181
 3100 0bdd 0E        	.byte0xe
 3101 0bde B6        	.byte0xb6
 3102 0bdf 0000 0BCD 	.long0xbcd
 3103 0be3 06        	.uleb128 0x6
 3104 0be4 0000 0069 	.long0x69
 3105 0be8 0000 0BF3 	.long0xbf3
 3106 0bec 07        	.uleb128 0x7
 3107 0bed 0000 0091 	.long0x91
 3108 0bf1 07        	.byte0x7
 3109 0bf2 00        	.byte0
 3110 0bf3 06        	.uleb128 0x6
 3111 0bf4 0000 0069 	.long0x69
 3112 0bf8 0000 0C03 	.long0xc03
 3113 0bfc 07        	.uleb128 0x7
 3114 0bfd 0000 0091 	.long0x91
 3115 0c01 0B        	.byte0xb
 3116 0c02 00        	.byte0
 3117 0c03 1B        	.uleb128 0x1b
 3118 0c04 20        	.byte0x20
 3119 0c05 0F        	.byte0xf
 3120 0c06 047C      	.word0x47c
 3121 0c08 0000 0C4E 	.long0xc4e
 3122 0c0c 18        	.uleb128 0x18
 3123 0c0d 0000 0000 	.long.LASF182
 3124 0c11 0F        	.byte0xf
68K GAS   			page 84


 3125 0c12 047D      	.word0x47d
 3126 0c14 0000 00C2 	.long0xc2
 3127 0c18 00        	.byte0
 3128 0c19 18        	.uleb128 0x18
 3129 0c1a 0000 0000 	.long.LASF183
 3130 0c1e 0F        	.byte0xf
 3131 0c1f 047F      	.word0x47f
 3132 0c21 0000 0074 	.long0x74
 3133 0c25 14        	.byte0x14
 3134 0c26 18        	.uleb128 0x18
 3135 0c27 0000 0000 	.long.LASF184
 3136 0c2b 0F        	.byte0xf
 3137 0c2c 0481      	.word0x481
 3138 0c2e 0000 0074 	.long0x74
 3139 0c32 16        	.byte0x16
 3140 0c33 18        	.uleb128 0x18
 3141 0c34 0000 0000 	.long.LASF185
 3142 0c38 0F        	.byte0xf
 3143 0c39 0483      	.word0x483
 3144 0c3b 0000 0086 	.long0x86
 3145 0c3f 18        	.byte0x18
 3146 0c40 18        	.uleb128 0x18
 3147 0c41 0000 0000 	.long.LASF186
 3148 0c45 0F        	.byte0xf
 3149 0c46 0485      	.word0x485
 3150 0c48 0000 0086 	.long0x86
 3151 0c4c 1C        	.byte0x1c
 3152 0c4d 00        	.byte0
 3153 0c4e 04        	.uleb128 0x4
 3154 0c4f 0000 0000 	.long.LASF187
 3155 0c53 0F        	.byte0xf
 3156 0c54 0488      	.word0x488
 3157 0c56 0000 0C03 	.long0xc03
 3158 0c5a 1B        	.uleb128 0x1b
 3159 0c5b 9C        	.byte0x9c
 3160 0c5c 0F        	.byte0xf
 3161 0c5d 048E      	.word0x48e
 3162 0c5f 0000 0C98 	.long0xc98
 3163 0c63 18        	.uleb128 0x18
 3164 0c64 0000 0000 	.long.LASF188
 3165 0c68 0F        	.byte0xf
 3166 0c69 048F      	.word0x48f
 3167 0c6b 0000 0C4E 	.long0xc4e
 3168 0c6f 00        	.byte0
 3169 0c70 18        	.uleb128 0x18
 3170 0c71 0000 0000 	.long.LASF189
 3171 0c75 0F        	.byte0xf
 3172 0c76 0490      	.word0x490
 3173 0c78 0000 0C98 	.long0xc98
 3174 0c7c 20        	.byte0x20
 3175 0c7d 18        	.uleb128 0x18
 3176 0c7e 0000 0000 	.long.LASF190
 3177 0c82 0F        	.byte0xf
 3178 0c83 0492      	.word0x492
 3179 0c85 0000 0069 	.long0x69
 3180 0c89 9A        	.byte0x9a
 3181 0c8a 18        	.uleb128 0x18
68K GAS   			page 85


 3182 0c8b 0000 0000 	.long.LASF191
 3183 0c8f 0F        	.byte0xf
 3184 0c90 0494      	.word0x494
 3185 0c92 0000 0069 	.long0x69
 3186 0c96 9B        	.byte0x9b
 3187 0c97 00        	.byte0
 3188 0c98 06        	.uleb128 0x6
 3189 0c99 0000 00B6 	.long0xb6
 3190 0c9d 0000 0CA8 	.long0xca8
 3191 0ca1 07        	.uleb128 0x7
 3192 0ca2 0000 0091 	.long0x91
 3193 0ca6 79        	.byte0x79
 3194 0ca7 00        	.byte0
 3195 0ca8 04        	.uleb128 0x4
 3196 0ca9 0000 0000 	.long.LASF192
 3197 0cad 0F        	.byte0xf
 3198 0cae 0496      	.word0x496
 3199 0cb0 0000 0C5A 	.long0xc5a
 3200 0cb4 1B        	.uleb128 0x1b
 3201 0cb5 A8        	.byte0xa8
 3202 0cb6 0F        	.byte0xf
 3203 0cb7 0498      	.word0x498
 3204 0cb9 0000 0CD8 	.long0xcd8
 3205 0cbd 18        	.uleb128 0x18
 3206 0cbe 0000 0000 	.long.LASF193
 3207 0cc2 0F        	.byte0xf
 3208 0cc3 0499      	.word0x499
 3209 0cc5 0000 0BF3 	.long0xbf3
 3210 0cc9 00        	.byte0
 3211 0cca 18        	.uleb128 0x18
 3212 0ccb 0000 0000 	.long.LASF194
 3213 0ccf 0F        	.byte0xf
 3214 0cd0 049A      	.word0x49a
 3215 0cd2 0000 0CA8 	.long0xca8
 3216 0cd6 0C        	.byte0xc
 3217 0cd7 00        	.byte0
 3218 0cd8 04        	.uleb128 0x4
 3219 0cd9 0000 0000 	.long.LASF195
 3220 0cdd 0F        	.byte0xf
 3221 0cde 049B      	.word0x49b
 3222 0ce0 0000 0CB4 	.long0xcb4
 3223 0ce4 1B        	.uleb128 0x1b
 3224 0ce5 08        	.byte0x8
 3225 0ce6 10        	.byte0x10
 3226 0ce7 038B      	.word0x38b
 3227 0ce9 0000 0CFB 	.long0xcfb
 3228 0ced 18        	.uleb128 0x18
 3229 0cee 0000 0000 	.long.LASF196
 3230 0cf2 10        	.byte0x10
 3231 0cf3 038D      	.word0x38d
 3232 0cf5 0000 0BE3 	.long0xbe3
 3233 0cf9 00        	.byte0
 3234 0cfa 00        	.byte0
 3235 0cfb 04        	.uleb128 0x4
 3236 0cfc 0000 0000 	.long.LASF197
 3237 0d00 10        	.byte0x10
 3238 0d01 038F      	.word0x38f
68K GAS   			page 86


 3239 0d03 0000 0CE4 	.long0xce4
 3240 0d07 1B        	.uleb128 0x1b
 3241 0d08 08        	.byte0x8
 3242 0d09 10        	.byte0x10
 3243 0d0a 0395      	.word0x395
 3244 0d0c 0000 0D1E 	.long0xd1e
 3245 0d10 18        	.uleb128 0x18
 3246 0d11 0000 0000 	.long.LASF196
 3247 0d15 10        	.byte0x10
 3248 0d16 0397      	.word0x397
 3249 0d18 0000 0BE3 	.long0xbe3
 3250 0d1c 00        	.byte0
 3251 0d1d 00        	.byte0
 3252 0d1e 04        	.uleb128 0x4
 3253 0d1f 0000 0000 	.long.LASF198
 3254 0d23 10        	.byte0x10
 3255 0d24 0399      	.word0x399
 3256 0d26 0000 0D07 	.long0xd07
 3257 0d2a 1B        	.uleb128 0x1b
 3258 0d2b 08        	.byte0x8
 3259 0d2c 10        	.byte0x10
 3260 0d2d 039F      	.word0x39f
 3261 0d2f 0000 0D41 	.long0xd41
 3262 0d33 18        	.uleb128 0x18
 3263 0d34 0000 0000 	.long.LASF196
 3264 0d38 10        	.byte0x10
 3265 0d39 03A1      	.word0x3a1
 3266 0d3b 0000 0BE3 	.long0xbe3
 3267 0d3f 00        	.byte0
 3268 0d40 00        	.byte0
 3269 0d41 04        	.uleb128 0x4
 3270 0d42 0000 0000 	.long.LASF199
 3271 0d46 10        	.byte0x10
 3272 0d47 03A3      	.word0x3a3
 3273 0d49 0000 0D2A 	.long0xd2a
 3274 0d4d 1B        	.uleb128 0x1b
 3275 0d4e 14        	.byte0x14
 3276 0d4f 10        	.byte0x10
 3277 0d50 03A9      	.word0x3a9
 3278 0d52 0000 0D8B 	.long0xd8b
 3279 0d56 18        	.uleb128 0x18
 3280 0d57 0000 0000 	.long.LASF200
 3281 0d5b 10        	.byte0x10
 3282 0d5c 03AB      	.word0x3ab
 3283 0d5e 0000 0A41 	.long0xa41
 3284 0d62 00        	.byte0
 3285 0d63 18        	.uleb128 0x18
 3286 0d64 0000 0000 	.long.LASF201
 3287 0d68 10        	.byte0x10
 3288 0d69 03AC      	.word0x3ac
 3289 0d6b 0000 0A41 	.long0xa41
 3290 0d6f 08        	.byte0x8
 3291 0d70 18        	.uleb128 0x18
 3292 0d71 0000 0000 	.long.LASF202
 3293 0d75 10        	.byte0x10
 3294 0d76 03AD      	.word0x3ad
 3295 0d78 0000 003E 	.long0x3e
68K GAS   			page 87


 3296 0d7c 10        	.byte0x10
 3297 0d7d 18        	.uleb128 0x18
 3298 0d7e 0000 0000 	.long.LASF203
 3299 0d82 10        	.byte0x10
 3300 0d83 03AE      	.word0x3ae
 3301 0d85 0000 003E 	.long0x3e
 3302 0d89 12        	.byte0x12
 3303 0d8a 00        	.byte0
 3304 0d8b 04        	.uleb128 0x4
 3305 0d8c 0000 0000 	.long.LASF204
 3306 0d90 10        	.byte0x10
 3307 0d91 03AF      	.word0x3af
 3308 0d93 0000 0D4D 	.long0xd4d
 3309 0d97 1B        	.uleb128 0x1b
 3310 0d98 1C        	.byte0x1c
 3311 0d99 10        	.byte0x10
 3312 0d9a 03B1      	.word0x3b1
 3313 0d9c 0000 0DBB 	.long0xdbb
 3314 0da0 18        	.uleb128 0x18
 3315 0da1 0000 0000 	.long.LASF196
 3316 0da5 10        	.byte0x10
 3317 0da6 03B3      	.word0x3b3
 3318 0da8 0000 0BE3 	.long0xbe3
 3319 0dac 00        	.byte0
 3320 0dad 18        	.uleb128 0x18
 3321 0dae 0000 0000 	.long.LASF194
 3322 0db2 10        	.byte0x10
 3323 0db3 03B4      	.word0x3b4
 3324 0db5 0000 0D8B 	.long0xd8b
 3325 0db9 08        	.byte0x8
 3326 0dba 00        	.byte0
 3327 0dbb 04        	.uleb128 0x4
 3328 0dbc 0000 0000 	.long.LASF205
 3329 0dc0 10        	.byte0x10
 3330 0dc1 03B5      	.word0x3b5
 3331 0dc3 0000 0D97 	.long0xd97
 3332 0dc7 1B        	.uleb128 0x1b
 3333 0dc8 20        	.byte0x20
 3334 0dc9 10        	.byte0x10
 3335 0dca 03BD      	.word0x3bd
 3336 0dcc 0000 0E60 	.long0xe60
 3337 0dd0 18        	.uleb128 0x18
 3338 0dd1 0000 0000 	.long.LASF206
 3339 0dd5 10        	.byte0x10
 3340 0dd6 03C2      	.word0x3c2
 3341 0dd8 0000 0069 	.long0x69
 3342 0ddc 00        	.byte0
 3343 0ddd 18        	.uleb128 0x18
 3344 0dde 0000 0000 	.long.LASF207
 3345 0de2 10        	.byte0x10
 3346 0de3 03C4      	.word0x3c4
 3347 0de5 0000 0069 	.long0x69
 3348 0de9 01        	.byte0x1
 3349 0dea 18        	.uleb128 0x18
 3350 0deb 0000 0000 	.long.LASF208
 3351 0def 10        	.byte0x10
 3352 0df0 03CA      	.word0x3ca
68K GAS   			page 88


 3353 0df2 0000 0074 	.long0x74
 3354 0df6 02        	.byte0x2
 3355 0df7 18        	.uleb128 0x18
 3356 0df8 0000 0000 	.long.LASF209
 3357 0dfc 10        	.byte0x10
 3358 0dfd 03CC      	.word0x3cc
 3359 0dff 0000 003E 	.long0x3e
 3360 0e03 04        	.byte0x4
 3361 0e04 18        	.uleb128 0x18
 3362 0e05 0000 0000 	.long.LASF162
 3363 0e09 10        	.byte0x10
 3364 0e0a 03D2      	.word0x3d2
 3365 0e0c 0000 003E 	.long0x3e
 3366 0e10 06        	.byte0x6
 3367 0e11 18        	.uleb128 0x18
 3368 0e12 0000 0000 	.long.LASF210
 3369 0e16 10        	.byte0x10
 3370 0e17 03D8      	.word0x3d8
 3371 0e19 0000 0086 	.long0x86
 3372 0e1d 08        	.byte0x8
 3373 0e1e 18        	.uleb128 0x18
 3374 0e1f 0000 0000 	.long.LASF211
 3375 0e23 10        	.byte0x10
 3376 0e24 03DA      	.word0x3da
 3377 0e26 0000 0086 	.long0x86
 3378 0e2a 0C        	.byte0xc
 3379 0e2b 18        	.uleb128 0x18
 3380 0e2c 0000 0000 	.long.LASF212
 3381 0e30 10        	.byte0x10
 3382 0e31 03DD      	.word0x3dd
 3383 0e33 0000 0086 	.long0x86
 3384 0e37 10        	.byte0x10
 3385 0e38 18        	.uleb128 0x18
 3386 0e39 0000 0000 	.long.LASF213
 3387 0e3d 10        	.byte0x10
 3388 0e3e 03DF      	.word0x3df
 3389 0e40 0000 0086 	.long0x86
 3390 0e44 14        	.byte0x14
 3391 0e45 18        	.uleb128 0x18
 3392 0e46 0000 0000 	.long.LASF214
 3393 0e4a 10        	.byte0x10
 3394 0e4b 03E6      	.word0x3e6
 3395 0e4d 0000 0086 	.long0x86
 3396 0e51 18        	.byte0x18
 3397 0e52 18        	.uleb128 0x18
 3398 0e53 0000 0000 	.long.LASF215
 3399 0e57 10        	.byte0x10
 3400 0e58 03E8      	.word0x3e8
 3401 0e5a 0000 0086 	.long0x86
 3402 0e5e 1C        	.byte0x1c
 3403 0e5f 00        	.byte0
 3404 0e60 04        	.uleb128 0x4
 3405 0e61 0000 0000 	.long.LASF216
 3406 0e65 10        	.byte0x10
 3407 0e66 03F6      	.word0x3f6
 3408 0e68 0000 0DC7 	.long0xdc7
 3409 0e6c 1B        	.uleb128 0x1b
68K GAS   			page 89


 3410 0e6d 2C        	.byte0x2c
 3411 0e6e 10        	.byte0x10
 3412 0e6f 03F8      	.word0x3f8
 3413 0e71 0000 0E90 	.long0xe90
 3414 0e75 18        	.uleb128 0x18
 3415 0e76 0000 0000 	.long.LASF193
 3416 0e7a 10        	.byte0x10
 3417 0e7b 03FA      	.word0x3fa
 3418 0e7d 0000 0BF3 	.long0xbf3
 3419 0e81 00        	.byte0
 3420 0e82 18        	.uleb128 0x18
 3421 0e83 0000 0000 	.long.LASF194
 3422 0e87 10        	.byte0x10
 3423 0e88 03FB      	.word0x3fb
 3424 0e8a 0000 0E60 	.long0xe60
 3425 0e8e 0C        	.byte0xc
 3426 0e8f 00        	.byte0
 3427 0e90 04        	.uleb128 0x4
 3428 0e91 0000 0000 	.long.LASF217
 3429 0e95 10        	.byte0x10
 3430 0e96 03FC      	.word0x3fc
 3431 0e98 0000 0E6C 	.long0xe6c
 3432 0e9c 1B        	.uleb128 0x1b
 3433 0e9d C8        	.byte0xc8
 3434 0e9e 10        	.byte0x10
 3435 0e9f 0404      	.word0x404
 3436 0ea1 0000 10C8 	.long0x10c8
 3437 0ea5 18        	.uleb128 0x18
 3438 0ea6 0000 0000 	.long.LASF200
 3439 0eaa 10        	.byte0x10
 3440 0eab 0409      	.word0x409
 3441 0ead 0000 0A41 	.long0xa41
 3442 0eb1 00        	.byte0
 3443 0eb2 18        	.uleb128 0x18
 3444 0eb3 0000 0000 	.long.LASF201
 3445 0eb7 10        	.byte0x10
 3446 0eb8 040B      	.word0x40b
 3447 0eba 0000 0A41 	.long0xa41
 3448 0ebe 08        	.byte0x8
 3449 0ebf 18        	.uleb128 0x18
 3450 0ec0 0000 0000 	.long.LASF218
 3451 0ec4 10        	.byte0x10
 3452 0ec5 040D      	.word0x40d
 3453 0ec7 0000 0A41 	.long0xa41
 3454 0ecb 10        	.byte0x10
 3455 0ecc 18        	.uleb128 0x18
 3456 0ecd 0000 0000 	.long.LASF219
 3457 0ed1 10        	.byte0x10
 3458 0ed2 040F      	.word0x40f
 3459 0ed4 0000 0A41 	.long0xa41
 3460 0ed8 18        	.byte0x18
 3461 0ed9 18        	.uleb128 0x18
 3462 0eda 0000 0000 	.long.LASF202
 3463 0ede 10        	.byte0x10
 3464 0edf 0412      	.word0x412
 3465 0ee1 0000 003E 	.long0x3e
 3466 0ee5 20        	.byte0x20
68K GAS   			page 90


 3467 0ee6 18        	.uleb128 0x18
 3468 0ee7 0000 0000 	.long.LASF209
 3469 0eeb 10        	.byte0x10
 3470 0eec 0414      	.word0x414
 3471 0eee 0000 003E 	.long0x3e
 3472 0ef2 22        	.byte0x22
 3473 0ef3 18        	.uleb128 0x18
 3474 0ef4 0000 0000 	.long.LASF220
 3475 0ef8 10        	.byte0x10
 3476 0ef9 041A      	.word0x41a
 3477 0efb 0000 0A41 	.long0xa41
 3478 0eff 24        	.byte0x24
 3479 0f00 18        	.uleb128 0x18
 3480 0f01 0000 0000 	.long.LASF221
 3481 0f05 10        	.byte0x10
 3482 0f06 041C      	.word0x41c
 3483 0f08 0000 0A41 	.long0xa41
 3484 0f0c 2C        	.byte0x2c
 3485 0f0d 18        	.uleb128 0x18
 3486 0f0e 0000 0000 	.long.LASF164
 3487 0f12 10        	.byte0x10
 3488 0f13 041E      	.word0x41e
 3489 0f15 0000 0A41 	.long0xa41
 3490 0f19 34        	.byte0x34
 3491 0f1a 18        	.uleb128 0x18
 3492 0f1b 0000 0000 	.long.LASF222
 3493 0f1f 10        	.byte0x10
 3494 0f20 0420      	.word0x420
 3495 0f22 0000 0A41 	.long0xa41
 3496 0f26 3C        	.byte0x3c
 3497 0f27 18        	.uleb128 0x18
 3498 0f28 0000 0000 	.long.LASF223
 3499 0f2c 10        	.byte0x10
 3500 0f2d 0422      	.word0x422
 3501 0f2f 0000 0A41 	.long0xa41
 3502 0f33 44        	.byte0x44
 3503 0f34 18        	.uleb128 0x18
 3504 0f35 0000 0000 	.long.LASF224
 3505 0f39 10        	.byte0x10
 3506 0f3a 0428      	.word0x428
 3507 0f3c 0000 003E 	.long0x3e
 3508 0f40 4C        	.byte0x4c
 3509 0f41 18        	.uleb128 0x18
 3510 0f42 0000 0000 	.long.LASF225
 3511 0f46 10        	.byte0x10
 3512 0f47 042A      	.word0x42a
 3513 0f49 0000 003E 	.long0x3e
 3514 0f4d 4E        	.byte0x4e
 3515 0f4e 18        	.uleb128 0x18
 3516 0f4f 0000 0000 	.long.LASF226
 3517 0f53 10        	.byte0x10
 3518 0f54 042C      	.word0x42c
 3519 0f56 0000 003E 	.long0x3e
 3520 0f5a 50        	.byte0x50
 3521 0f5b 18        	.uleb128 0x18
 3522 0f5c 0000 0000 	.long.LASF163
 3523 0f60 10        	.byte0x10
68K GAS   			page 91


 3524 0f61 042E      	.word0x42e
 3525 0f63 0000 003E 	.long0x3e
 3526 0f67 52        	.byte0x52
 3527 0f68 18        	.uleb128 0x18
 3528 0f69 0000 0000 	.long.LASF227
 3529 0f6d 10        	.byte0x10
 3530 0f6e 0430      	.word0x430
 3531 0f70 0000 003E 	.long0x3e
 3532 0f74 54        	.byte0x54
 3533 0f75 18        	.uleb128 0x18
 3534 0f76 0000 0000 	.long.LASF228
 3535 0f7a 10        	.byte0x10
 3536 0f7b 0432      	.word0x432
 3537 0f7d 0000 003E 	.long0x3e
 3538 0f81 56        	.byte0x56
 3539 0f82 18        	.uleb128 0x18
 3540 0f83 0000 0000 	.long.LASF208
 3541 0f87 10        	.byte0x10
 3542 0f88 0438      	.word0x438
 3543 0f8a 0000 0074 	.long0x74
 3544 0f8e 58        	.byte0x58
 3545 0f8f 18        	.uleb128 0x18
 3546 0f90 0000 0000 	.long.LASF229
 3547 0f94 10        	.byte0x10
 3548 0f95 043E      	.word0x43e
 3549 0f97 0000 003E 	.long0x3e
 3550 0f9b 5A        	.byte0x5a
 3551 0f9c 18        	.uleb128 0x18
 3552 0f9d 0000 0000 	.long.LASF230
 3553 0fa1 10        	.byte0x10
 3554 0fa2 0440      	.word0x440
 3555 0fa4 0000 003E 	.long0x3e
 3556 0fa8 5C        	.byte0x5c
 3557 0fa9 18        	.uleb128 0x18
 3558 0faa 0000 0000 	.long.LASF231
 3559 0fae 10        	.byte0x10
 3560 0faf 0442      	.word0x442
 3561 0fb1 0000 003E 	.long0x3e
 3562 0fb5 5E        	.byte0x5e
 3563 0fb6 18        	.uleb128 0x18
 3564 0fb7 0000 0000 	.long.LASF232
 3565 0fbb 10        	.byte0x10
 3566 0fbc 0448      	.word0x448
 3567 0fbe 0000 0A41 	.long0xa41
 3568 0fc2 60        	.byte0x60
 3569 0fc3 18        	.uleb128 0x18
 3570 0fc4 0000 0000 	.long.LASF233
 3571 0fc8 10        	.byte0x10
 3572 0fc9 044A      	.word0x44a
 3573 0fcb 0000 0A41 	.long0xa41
 3574 0fcf 68        	.byte0x68
 3575 0fd0 18        	.uleb128 0x18
 3576 0fd1 0000 0000 	.long.LASF234
 3577 0fd5 10        	.byte0x10
 3578 0fd6 0450      	.word0x450
 3579 0fd8 0000 0A41 	.long0xa41
 3580 0fdc 70        	.byte0x70
68K GAS   			page 92


 3581 0fdd 18        	.uleb128 0x18
 3582 0fde 0000 0000 	.long.LASF235
 3583 0fe2 10        	.byte0x10
 3584 0fe3 0452      	.word0x452
 3585 0fe5 0000 0A41 	.long0xa41
 3586 0fe9 78        	.byte0x78
 3587 0fea 18        	.uleb128 0x18
 3588 0feb 0000 0000 	.long.LASF236
 3589 0fef 10        	.byte0x10
 3590 0ff0 0458      	.word0x458
 3591 0ff2 0000 0086 	.long0x86
 3592 0ff6 80        	.byte0x80
 3593 0ff7 18        	.uleb128 0x18
 3594 0ff8 0000 0000 	.long.LASF237
 3595 0ffc 10        	.byte0x10
 3596 0ffd 045A      	.word0x45a
 3597 0fff 0000 0086 	.long0x86
 3598 1003 84        	.byte0x84
 3599 1004 18        	.uleb128 0x18
 3600 1005 0000 0000 	.long.LASF238
 3601 1009 10        	.byte0x10
 3602 100a 045C      	.word0x45c
 3603 100c 0000 0086 	.long0x86
 3604 1010 88        	.byte0x88
 3605 1011 18        	.uleb128 0x18
 3606 1012 0000 0000 	.long.LASF239
 3607 1016 10        	.byte0x10
 3608 1017 045E      	.word0x45e
 3609 1019 0000 0086 	.long0x86
 3610 101d 8C        	.byte0x8c
 3611 101e 18        	.uleb128 0x18
 3612 101f 0000 0000 	.long.LASF240
 3613 1023 10        	.byte0x10
 3614 1024 0460      	.word0x460
 3615 1026 0000 0086 	.long0x86
 3616 102a 90        	.byte0x90
 3617 102b 18        	.uleb128 0x18
 3618 102c 0000 0000 	.long.LASF241
 3619 1030 10        	.byte0x10
 3620 1031 0462      	.word0x462
 3621 1033 0000 0086 	.long0x86
 3622 1037 94        	.byte0x94
 3623 1038 18        	.uleb128 0x18
 3624 1039 0000 0000 	.long.LASF242
 3625 103d 10        	.byte0x10
 3626 103e 0464      	.word0x464
 3627 1040 0000 0086 	.long0x86
 3628 1044 98        	.byte0x98
 3629 1045 18        	.uleb128 0x18
 3630 1046 0000 0000 	.long.LASF243
 3631 104a 10        	.byte0x10
 3632 104b 0466      	.word0x466
 3633 104d 0000 0086 	.long0x86
 3634 1051 9C        	.byte0x9c
 3635 1052 18        	.uleb128 0x18
 3636 1053 0000 0000 	.long.LASF244
 3637 1057 10        	.byte0x10
68K GAS   			page 93


 3638 1058 0468      	.word0x468
 3639 105a 0000 0086 	.long0x86
 3640 105e A0        	.byte0xa0
 3641 105f 18        	.uleb128 0x18
 3642 1060 0000 0000 	.long.LASF245
 3643 1064 10        	.byte0x10
 3644 1065 046A      	.word0x46a
 3645 1067 0000 0086 	.long0x86
 3646 106b A4        	.byte0xa4
 3647 106c 18        	.uleb128 0x18
 3648 106d 0000 0000 	.long.LASF246
 3649 1071 10        	.byte0x10
 3650 1072 0470      	.word0x470
 3651 1074 0000 0086 	.long0x86
 3652 1078 A8        	.byte0xa8
 3653 1079 18        	.uleb128 0x18
 3654 107a 0000 0000 	.long.LASF247
 3655 107e 10        	.byte0x10
 3656 107f 047C      	.word0x47c
 3657 1081 0000 0086 	.long0x86
 3658 1085 AC        	.byte0xac
 3659 1086 18        	.uleb128 0x18
 3660 1087 0000 0000 	.long.LASF248
 3661 108b 10        	.byte0x10
 3662 108c 047E      	.word0x47e
 3663 108e 0000 0086 	.long0x86
 3664 1092 B0        	.byte0xb0
 3665 1093 18        	.uleb128 0x18
 3666 1094 0000 0000 	.long.LASF249
 3667 1098 10        	.byte0x10
 3668 1099 0484      	.word0x484
 3669 109b 0000 0A41 	.long0xa41
 3670 109f B4        	.byte0xb4
 3671 10a0 18        	.uleb128 0x18
 3672 10a1 0000 0000 	.long.LASF250
 3673 10a5 10        	.byte0x10
 3674 10a6 048A      	.word0x48a
 3675 10a8 0000 0086 	.long0x86
 3676 10ac BC        	.byte0xbc
 3677 10ad 18        	.uleb128 0x18
 3678 10ae 0000 0000 	.long.LASF251
 3679 10b2 10        	.byte0x10
 3680 10b3 048C      	.word0x48c
 3681 10b5 0000 0086 	.long0x86
 3682 10b9 C0        	.byte0xc0
 3683 10ba 18        	.uleb128 0x18
 3684 10bb 0000 0000 	.long.LASF252
 3685 10bf 10        	.byte0x10
 3686 10c0 0492      	.word0x492
 3687 10c2 0000 0086 	.long0x86
 3688 10c6 C4        	.byte0xc4
 3689 10c7 00        	.byte0
 3690 10c8 04        	.uleb128 0x4
 3691 10c9 0000 0000 	.long.LASF253
 3692 10cd 10        	.byte0x10
 3693 10ce 0494      	.word0x494
 3694 10d0 0000 0E9C 	.long0xe9c
68K GAS   			page 94


 3695 10d4 1B        	.uleb128 0x1b
 3696 10d5 D4        	.byte0xd4
 3697 10d6 10        	.byte0x10
 3698 10d7 0496      	.word0x496
 3699 10d9 0000 10F8 	.long0x10f8
 3700 10dd 18        	.uleb128 0x18
 3701 10de 0000 0000 	.long.LASF193
 3702 10e2 10        	.byte0x10
 3703 10e3 0498      	.word0x498
 3704 10e5 0000 0BF3 	.long0xbf3
 3705 10e9 00        	.byte0
 3706 10ea 18        	.uleb128 0x18
 3707 10eb 0000 0000 	.long.LASF194
 3708 10ef 10        	.byte0x10
 3709 10f0 0499      	.word0x499
 3710 10f2 0000 10C8 	.long0x10c8
 3711 10f6 0C        	.byte0xc
 3712 10f7 00        	.byte0
 3713 10f8 04        	.uleb128 0x4
 3714 10f9 0000 0000 	.long.LASF254
 3715 10fd 10        	.byte0x10
 3716 10fe 049A      	.word0x49a
 3717 1100 0000 10D4 	.long0x10d4
 3718 1104 08        	.uleb128 0x8
 3719 1105 40        	.byte0x40
 3720 1106 11        	.byte0x11
 3721 1107 7D        	.byte0x7d
 3722 1108 0000 1185 	.long0x1185
 3723 110c 09        	.uleb128 0x9
 3724 110d 0000 0000 	.long.LASF200
 3725 1111 11        	.byte0x11
 3726 1112 80        	.byte0x80
 3727 1113 0000 0A41 	.long0xa41
 3728 1117 00        	.byte0
 3729 1118 09        	.uleb128 0x9
 3730 1119 0000 0000 	.long.LASF201
 3731 111d 11        	.byte0x11
 3732 111e 81        	.byte0x81
 3733 111f 0000 0A41 	.long0xa41
 3734 1123 08        	.byte0x8
 3735 1124 09        	.uleb128 0x9
 3736 1125 0000 0000 	.long.LASF202
 3737 1129 11        	.byte0x11
 3738 112a 82        	.byte0x82
 3739 112b 0000 003E 	.long0x3e
 3740 112f 10        	.byte0x10
 3741 1130 09        	.uleb128 0x9
 3742 1131 0000 0000 	.long.LASF224
 3743 1135 11        	.byte0x11
 3744 1136 83        	.byte0x83
 3745 1137 0000 003E 	.long0x3e
 3746 113b 12        	.byte0x12
 3747 113c 09        	.uleb128 0x9
 3748 113d 0000 0000 	.long.LASF225
 3749 1141 11        	.byte0x11
 3750 1142 84        	.byte0x84
 3751 1143 0000 003E 	.long0x3e
68K GAS   			page 95


 3752 1147 14        	.byte0x14
 3753 1148 09        	.uleb128 0x9
 3754 1149 0000 0000 	.long.LASF218
 3755 114d 11        	.byte0x11
 3756 114e 85        	.byte0x85
 3757 114f 0000 0A41 	.long0xa41
 3758 1153 18        	.byte0x18
 3759 1154 09        	.uleb128 0x9
 3760 1155 0000 0000 	.long.LASF219
 3761 1159 11        	.byte0x11
 3762 115a 86        	.byte0x86
 3763 115b 0000 0A41 	.long0xa41
 3764 115f 20        	.byte0x20
 3765 1160 09        	.uleb128 0x9
 3766 1161 0000 0000 	.long.LASF221
 3767 1165 11        	.byte0x11
 3768 1166 87        	.byte0x87
 3769 1167 0000 0A41 	.long0xa41
 3770 116b 28        	.byte0x28
 3771 116c 09        	.uleb128 0x9
 3772 116d 0000 0000 	.long.LASF220
 3773 1171 11        	.byte0x11
 3774 1172 88        	.byte0x88
 3775 1173 0000 0A41 	.long0xa41
 3776 1177 30        	.byte0x30
 3777 1178 09        	.uleb128 0x9
 3778 1179 0000 0000 	.long.LASF164
 3779 117d 11        	.byte0x11
 3780 117e 89        	.byte0x89
 3781 117f 0000 0A41 	.long0xa41
 3782 1183 38        	.byte0x38
 3783 1184 00        	.byte0
 3784 1185 02        	.uleb128 0x2
 3785 1186 0000 0000 	.long.LASF255
 3786 118a 11        	.byte0x11
 3787 118b 8B        	.byte0x8b
 3788 118c 0000 1104 	.long0x1104
 3789 1190 05        	.uleb128 0x5
 3790 1191 0000 1185 	.long0x1185
 3791 1195 08        	.uleb128 0x8
 3792 1196 08        	.byte0x8
 3793 1197 11        	.byte0x11
 3794 1198 90        	.byte0x90
 3795 1199 0000 11B6 	.long0x11b6
 3796 119d 11        	.uleb128 0x11
 3797 119e 4170 7000 	.string"App"
 3798 11a2 11        	.byte0x11
 3799 11a3 92        	.byte0x92
 3800 11a4 0000 0086 	.long0x86
 3801 11a8 00        	.byte0
 3802 11a9 11        	.uleb128 0x11
 3803 11aa 5074 7200 	.string"Ptr"
 3804 11ae 11        	.byte0x11
 3805 11af 93        	.byte0x93
 3806 11b0 0000 0AE8 	.long0xae8
 3807 11b4 04        	.byte0x4
 3808 11b5 00        	.byte0
68K GAS   			page 96


 3809 11b6 02        	.uleb128 0x2
 3810 11b7 0000 0000 	.long.LASF256
 3811 11bb 11        	.byte0x11
 3812 11bc 94        	.byte0x94
 3813 11bd 0000 1195 	.long0x1195
 3814 11c1 26        	.uleb128 0x26
 3815 11c2 0248      	.word0x248
 3816 11c4 11        	.byte0x11
 3817 11c5 9B        	.byte0x9b
 3818 11c6 0000 14FE 	.long0x14fe
 3819 11ca 09        	.uleb128 0x9
 3820 11cb 0000 0000 	.long.LASF206
 3821 11cf 11        	.byte0x11
 3822 11d0 A0        	.byte0xa0
 3823 11d1 0000 0069 	.long0x69
 3824 11d5 00        	.byte0
 3825 11d6 09        	.uleb128 0x9
 3826 11d7 0000 0000 	.long.LASF207
 3827 11db 11        	.byte0x11
 3828 11dc A1        	.byte0xa1
 3829 11dd 0000 0069 	.long0x69
 3830 11e1 01        	.byte0x1
 3831 11e2 09        	.uleb128 0x9
 3832 11e3 0000 0000 	.long.LASF257
 3833 11e7 11        	.byte0x11
 3834 11e8 A6        	.byte0xa6
 3835 11e9 0000 0E90 	.long0xe90
 3836 11ed 04        	.byte0x4
 3837 11ee 09        	.uleb128 0x9
 3838 11ef 0000 0000 	.long.LASF258
 3839 11f3 11        	.byte0x11
 3840 11f4 A7        	.byte0xa7
 3841 11f5 0000 10F8 	.long0x10f8
 3842 11f9 30        	.byte0x30
 3843 11fa 13        	.uleb128 0x13
 3844 11fb 0000 0000 	.long.LASF259
 3845 11ff 11        	.byte0x11
 3846 1200 AC        	.byte0xac
 3847 1201 0000 0B9B 	.long0xb9b
 3848 1205 0104      	.word0x104
 3849 1207 13        	.uleb128 0x13
 3850 1208 0000 0000 	.long.LASF260
 3851 120c 11        	.byte0x11
 3852 120d AD        	.byte0xad
 3853 120e 0000 0B90 	.long0xb90
 3854 1212 0108      	.word0x108
 3855 1214 13        	.uleb128 0x13
 3856 1215 0000 0000 	.long.LASF261
 3857 1219 11        	.byte0x11
 3858 121a B2        	.byte0xb2
 3859 121b 0000 14FE 	.long0x14fe
 3860 121f 0109      	.word0x109
 3861 1221 13        	.uleb128 0x13
 3862 1222 0000 0000 	.long.LASF262
 3863 1226 11        	.byte0x11
 3864 1227 B3        	.byte0xb3
 3865 1228 0000 0074 	.long0x74
68K GAS   			page 97


 3866 122c 011A      	.word0x11a
 3867 122e 13        	.uleb128 0x13
 3868 122f 0000 0000 	.long.LASF200
 3869 1233 11        	.byte0x11
 3870 1234 B8        	.byte0xb8
 3871 1235 0000 0A41 	.long0xa41
 3872 1239 011C      	.word0x11c
 3873 123b 13        	.uleb128 0x13
 3874 123c 0000 0000 	.long.LASF201
 3875 1240 11        	.byte0x11
 3876 1241 B9        	.byte0xb9
 3877 1242 0000 0A41 	.long0xa41
 3878 1246 0124      	.word0x124
 3879 1248 13        	.uleb128 0x13
 3880 1249 0000 0000 	.long.LASF202
 3881 124d 11        	.byte0x11
 3882 124e BA        	.byte0xba
 3883 124f 0000 003E 	.long0x3e
 3884 1253 012C      	.word0x12c
 3885 1255 13        	.uleb128 0x13
 3886 1256 0000 0000 	.long.LASF218
 3887 125a 11        	.byte0x11
 3888 125b BB        	.byte0xbb
 3889 125c 0000 0A41 	.long0xa41
 3890 1260 0130      	.word0x130
 3891 1262 13        	.uleb128 0x13
 3892 1263 0000 0000 	.long.LASF219
 3893 1267 11        	.byte0x11
 3894 1268 BC        	.byte0xbc
 3895 1269 0000 0A41 	.long0xa41
 3896 126d 0138      	.word0x138
 3897 126f 13        	.uleb128 0x13
 3898 1270 0000 0000 	.long.LASF224
 3899 1274 11        	.byte0x11
 3900 1275 C0        	.byte0xc0
 3901 1276 0000 003E 	.long0x3e
 3902 127a 0140      	.word0x140
 3903 127c 13        	.uleb128 0x13
 3904 127d 0000 0000 	.long.LASF225
 3905 1281 11        	.byte0x11
 3906 1282 C1        	.byte0xc1
 3907 1283 0000 003E 	.long0x3e
 3908 1287 0142      	.word0x142
 3909 1289 13        	.uleb128 0x13
 3910 128a 0000 0000 	.long.LASF226
 3911 128e 11        	.byte0x11
 3912 128f C2        	.byte0xc2
 3913 1290 0000 003E 	.long0x3e
 3914 1294 0144      	.word0x144
 3915 1296 13        	.uleb128 0x13
 3916 1297 0000 0000 	.long.LASF163
 3917 129b 11        	.byte0x11
 3918 129c C3        	.byte0xc3
 3919 129d 0000 003E 	.long0x3e
 3920 12a1 0146      	.word0x146
 3921 12a3 13        	.uleb128 0x13
 3922 12a4 0000 0000 	.long.LASF227
68K GAS   			page 98


 3923 12a8 11        	.byte0x11
 3924 12a9 C4        	.byte0xc4
 3925 12aa 0000 003E 	.long0x3e
 3926 12ae 0148      	.word0x148
 3927 12b0 13        	.uleb128 0x13
 3928 12b1 0000 0000 	.long.LASF263
 3929 12b5 11        	.byte0x11
 3930 12b6 C9        	.byte0xc9
 3931 12b7 0000 0A41 	.long0xa41
 3932 12bb 014C      	.word0x14c
 3933 12bd 13        	.uleb128 0x13
 3934 12be 0000 0000 	.long.LASF264
 3935 12c2 11        	.byte0x11
 3936 12c3 CA        	.byte0xca
 3937 12c4 0000 0A41 	.long0xa41
 3938 12c8 0154      	.word0x154
 3939 12ca 13        	.uleb128 0x13
 3940 12cb 0000 0000 	.long.LASF265
 3941 12cf 11        	.byte0x11
 3942 12d0 CB        	.byte0xcb
 3943 12d1 0000 003E 	.long0x3e
 3944 12d5 015C      	.word0x15c
 3945 12d7 13        	.uleb128 0x13
 3946 12d8 0000 0000 	.long.LASF266
 3947 12dc 11        	.byte0x11
 3948 12dd CC        	.byte0xcc
 3949 12de 0000 003E 	.long0x3e
 3950 12e2 015E      	.word0x15e
 3951 12e4 13        	.uleb128 0x13
 3952 12e5 0000 0000 	.long.LASF232
 3953 12e9 11        	.byte0x11
 3954 12ea D1        	.byte0xd1
 3955 12eb 0000 0A41 	.long0xa41
 3956 12ef 0160      	.word0x160
 3957 12f1 13        	.uleb128 0x13
 3958 12f2 0000 0000 	.long.LASF233
 3959 12f6 11        	.byte0x11
 3960 12f7 D2        	.byte0xd2
 3961 12f8 0000 0A41 	.long0xa41
 3962 12fc 0168      	.word0x168
 3963 12fe 13        	.uleb128 0x13
 3964 12ff 0000 0000 	.long.LASF229
 3965 1303 11        	.byte0x11
 3966 1304 D4        	.byte0xd4
 3967 1305 0000 003E 	.long0x3e
 3968 1309 0170      	.word0x170
 3969 130b 13        	.uleb128 0x13
 3970 130c 0000 0000 	.long.LASF230
 3971 1310 11        	.byte0x11
 3972 1311 D5        	.byte0xd5
 3973 1312 0000 003E 	.long0x3e
 3974 1316 0172      	.word0x172
 3975 1318 13        	.uleb128 0x13
 3976 1319 0000 0000 	.long.LASF231
 3977 131d 11        	.byte0x11
 3978 131e D6        	.byte0xd6
 3979 131f 0000 003E 	.long0x3e
68K GAS   			page 99


 3980 1323 0174      	.word0x174
 3981 1325 13        	.uleb128 0x13
 3982 1326 0000 0000 	.long.LASF234
 3983 132a 11        	.byte0x11
 3984 132b DB        	.byte0xdb
 3985 132c 0000 0A41 	.long0xa41
 3986 1330 0178      	.word0x178
 3987 1332 13        	.uleb128 0x13
 3988 1333 0000 0000 	.long.LASF235
 3989 1337 11        	.byte0x11
 3990 1338 DC        	.byte0xdc
 3991 1339 0000 0A41 	.long0xa41
 3992 133d 0180      	.word0x180
 3993 133f 13        	.uleb128 0x13
 3994 1340 0000 0000 	.long.LASF236
 3995 1344 11        	.byte0x11
 3996 1345 E1        	.byte0xe1
 3997 1346 0000 0086 	.long0x86
 3998 134a 0188      	.word0x188
 3999 134c 13        	.uleb128 0x13
 4000 134d 0000 0000 	.long.LASF237
 4001 1351 11        	.byte0x11
 4002 1352 E2        	.byte0xe2
 4003 1353 0000 0086 	.long0x86
 4004 1357 018C      	.word0x18c
 4005 1359 13        	.uleb128 0x13
 4006 135a 0000 0000 	.long.LASF238
 4007 135e 11        	.byte0x11
 4008 135f E3        	.byte0xe3
 4009 1360 0000 0086 	.long0x86
 4010 1364 0190      	.word0x190
 4011 1366 13        	.uleb128 0x13
 4012 1367 0000 0000 	.long.LASF239
 4013 136b 11        	.byte0x11
 4014 136c E4        	.byte0xe4
 4015 136d 0000 0086 	.long0x86
 4016 1371 0194      	.word0x194
 4017 1373 13        	.uleb128 0x13
 4018 1374 0000 0000 	.long.LASF240
 4019 1378 11        	.byte0x11
 4020 1379 E5        	.byte0xe5
 4021 137a 0000 0086 	.long0x86
 4022 137e 0198      	.word0x198
 4023 1380 13        	.uleb128 0x13
 4024 1381 0000 0000 	.long.LASF241
 4025 1385 11        	.byte0x11
 4026 1386 E6        	.byte0xe6
 4027 1387 0000 0086 	.long0x86
 4028 138b 019C      	.word0x19c
 4029 138d 13        	.uleb128 0x13
 4030 138e 0000 0000 	.long.LASF242
 4031 1392 11        	.byte0x11
 4032 1393 E7        	.byte0xe7
 4033 1394 0000 0086 	.long0x86
 4034 1398 01A0      	.word0x1a0
 4035 139a 13        	.uleb128 0x13
 4036 139b 0000 0000 	.long.LASF246
68K GAS   			page 100


 4037 139f 11        	.byte0x11
 4038 13a0 E8        	.byte0xe8
 4039 13a1 0000 0086 	.long0x86
 4040 13a5 01A4      	.word0x1a4
 4041 13a7 13        	.uleb128 0x13
 4042 13a8 0000 0000 	.long.LASF243
 4043 13ac 11        	.byte0x11
 4044 13ad E9        	.byte0xe9
 4045 13ae 0000 0086 	.long0x86
 4046 13b2 01A8      	.word0x1a8
 4047 13b4 13        	.uleb128 0x13
 4048 13b5 0000 0000 	.long.LASF244
 4049 13b9 11        	.byte0x11
 4050 13ba EA        	.byte0xea
 4051 13bb 0000 0086 	.long0x86
 4052 13bf 01AC      	.word0x1ac
 4053 13c1 13        	.uleb128 0x13
 4054 13c2 0000 0000 	.long.LASF245
 4055 13c6 11        	.byte0x11
 4056 13c7 EB        	.byte0xeb
 4057 13c8 0000 0086 	.long0x86
 4058 13cc 01B0      	.word0x1b0
 4059 13ce 13        	.uleb128 0x13
 4060 13cf 0000 0000 	.long.LASF267
 4061 13d3 11        	.byte0x11
 4062 13d4 EC        	.byte0xec
 4063 13d5 0000 0086 	.long0x86
 4064 13d9 01B4      	.word0x1b4
 4065 13db 13        	.uleb128 0x13
 4066 13dc 0000 0000 	.long.LASF268
 4067 13e0 11        	.byte0x11
 4068 13e1 ED        	.byte0xed
 4069 13e2 0000 0086 	.long0x86
 4070 13e6 01B8      	.word0x1b8
 4071 13e8 13        	.uleb128 0x13
 4072 13e9 0000 0000 	.long.LASF247
 4073 13ed 11        	.byte0x11
 4074 13ee F8        	.byte0xf8
 4075 13ef 0000 0086 	.long0x86
 4076 13f3 01BC      	.word0x1bc
 4077 13f5 13        	.uleb128 0x13
 4078 13f6 0000 0000 	.long.LASF248
 4079 13fa 11        	.byte0x11
 4080 13fb F9        	.byte0xf9
 4081 13fc 0000 0086 	.long0x86
 4082 1400 01C0      	.word0x1c0
 4083 1402 13        	.uleb128 0x13
 4084 1403 0000 0000 	.long.LASF249
 4085 1407 11        	.byte0x11
 4086 1408 FE        	.byte0xfe
 4087 1409 0000 0A41 	.long0xa41
 4088 140d 01C4      	.word0x1c4
 4089 140f 19        	.uleb128 0x19
 4090 1410 0000 0000 	.long.LASF228
 4091 1414 11        	.byte0x11
 4092 1415 0103      	.word0x103
 4093 1417 0000 00AA 	.long0xaa
68K GAS   			page 101


 4094 141b 01CC      	.word0x1cc
 4095 141d 19        	.uleb128 0x19
 4096 141e 0000 0000 	.long.LASF269
 4097 1422 11        	.byte0x11
 4098 1423 010A      	.word0x10a
 4099 1425 0000 00AA 	.long0xaa
 4100 1429 01CD      	.word0x1cd
 4101 142b 19        	.uleb128 0x19
 4102 142c 0000 0000 	.long.LASF270
 4103 1430 11        	.byte0x11
 4104 1431 010B      	.word0x10b
 4105 1433 0000 00AA 	.long0xaa
 4106 1437 01CE      	.word0x1ce
 4107 1439 19        	.uleb128 0x19
 4108 143a 0000 0000 	.long.LASF271
 4109 143e 11        	.byte0x11
 4110 143f 0110      	.word0x110
 4111 1441 0000 00AA 	.long0xaa
 4112 1445 01CF      	.word0x1cf
 4113 1447 19        	.uleb128 0x19
 4114 1448 0000 0000 	.long.LASF272
 4115 144c 11        	.byte0x11
 4116 144d 0116      	.word0x116
 4117 144f 0000 0CFB 	.long0xcfb
 4118 1453 01D0      	.word0x1d0
 4119 1455 19        	.uleb128 0x19
 4120 1456 0000 0000 	.long.LASF273
 4121 145a 11        	.byte0x11
 4122 145b 011C      	.word0x11c
 4123 145d 0000 0D41 	.long0xd41
 4124 1461 01D8      	.word0x1d8
 4125 1463 19        	.uleb128 0x19
 4126 1464 0000 0000 	.long.LASF274
 4127 1468 11        	.byte0x11
 4128 1469 011D      	.word0x11d
 4129 146b 0000 0DBB 	.long0xdbb
 4130 146f 01E0      	.word0x1e0
 4131 1471 19        	.uleb128 0x19
 4132 1472 0000 0000 	.long.LASF275
 4133 1476 11        	.byte0x11
 4134 1477 011E      	.word0x11e
 4135 1479 0000 0D1E 	.long0xd1e
 4136 147d 01FC      	.word0x1fc
 4137 147f 19        	.uleb128 0x19
 4138 1480 0000 0000 	.long.LASF276
 4139 1484 11        	.byte0x11
 4140 1485 0123      	.word0x123
 4141 1487 0000 0086 	.long0x86
 4142 148b 0204      	.word0x204
 4143 148d 19        	.uleb128 0x19
 4144 148e 0000 0000 	.long.LASF277
 4145 1492 11        	.byte0x11
 4146 1493 0124      	.word0x124
 4147 1495 0000 0086 	.long0x86
 4148 1499 0208      	.word0x208
 4149 149b 19        	.uleb128 0x19
 4150 149c 0000 0000 	.long.LASF278
68K GAS   			page 102


 4151 14a0 11        	.byte0x11
 4152 14a1 0128      	.word0x128
 4153 14a3 0000 0086 	.long0x86
 4154 14a7 020C      	.word0x20c
 4155 14a9 19        	.uleb128 0x19
 4156 14aa 0000 0000 	.long.LASF279
 4157 14ae 11        	.byte0x11
 4158 14af 0129      	.word0x129
 4159 14b1 0000 0086 	.long0x86
 4160 14b5 0210      	.word0x210
 4161 14b7 19        	.uleb128 0x19
 4162 14b8 0000 0000 	.long.LASF280
 4163 14bc 11        	.byte0x11
 4164 14bd 012F      	.word0x12f
 4165 14bf 0000 0A41 	.long0xa41
 4166 14c3 0214      	.word0x214
 4167 14c5 19        	.uleb128 0x19
 4168 14c6 0000 0000 	.long.LASF250
 4169 14ca 11        	.byte0x11
 4170 14cb 0134      	.word0x134
 4171 14cd 0000 0086 	.long0x86
 4172 14d1 021C      	.word0x21c
 4173 14d3 19        	.uleb128 0x19
 4174 14d4 0000 0000 	.long.LASF251
 4175 14d8 11        	.byte0x11
 4176 14d9 0135      	.word0x135
 4177 14db 0000 0086 	.long0x86
 4178 14df 0220      	.word0x220
 4179 14e1 19        	.uleb128 0x19
 4180 14e2 0000 0000 	.long.LASF252
 4181 14e6 11        	.byte0x11
 4182 14e7 013A      	.word0x13a
 4183 14e9 0000 0086 	.long0x86
 4184 14ed 0224      	.word0x224
 4185 14ef 19        	.uleb128 0x19
 4186 14f0 0000 0000 	.long.LASF281
 4187 14f4 11        	.byte0x11
 4188 14f5 013F      	.word0x13f
 4189 14f7 0000 150E 	.long0x150e
 4190 14fb 0228      	.word0x228
 4191 14fd 00        	.byte0
 4192 14fe 06        	.uleb128 0x6
 4193 14ff 0000 00B6 	.long0xb6
 4194 1503 0000 150E 	.long0x150e
 4195 1507 07        	.uleb128 0x7
 4196 1508 0000 0091 	.long0x91
 4197 150c 0F        	.byte0xf
 4198 150d 00        	.byte0
 4199 150e 06        	.uleb128 0x6
 4200 150f 0000 11B6 	.long0x11b6
 4201 1513 0000 151E 	.long0x151e
 4202 1517 07        	.uleb128 0x7
 4203 1518 0000 0091 	.long0x91
 4204 151c 03        	.byte0x3
 4205 151d 00        	.byte0
 4206 151e 04        	.uleb128 0x4
 4207 151f 0000 0000 	.long.LASF282
68K GAS   			page 103


 4208 1523 11        	.byte0x11
 4209 1524 0141      	.word0x141
 4210 1526 0000 11C1 	.long0x11c1
 4211 152a 1F        	.uleb128 0x1f
 4212 152b 0000 0000 	.long.LASF283
 4213 152f 11        	.byte0x11
 4214 1530 0146      	.word0x146
 4215 1532 0000 151E 	.long0x151e
 4216 1536 08        	.uleb128 0x8
 4217 1537 10        	.byte0x10
 4218 1538 12        	.byte0x12
 4219 1539 1E        	.byte0x1e
 4220 153a 0000 156F 	.long0x156f
 4221 153e 09        	.uleb128 0x9
 4222 153f 0000 0000 	.long.LASF284
 4223 1543 12        	.byte0x12
 4224 1544 20        	.byte0x20
 4225 1545 0000 0086 	.long0x86
 4226 1549 00        	.byte0
 4227 154a 09        	.uleb128 0x9
 4228 154b 0000 0000 	.long.LASF285
 4229 154f 12        	.byte0x12
 4230 1550 21        	.byte0x21
 4231 1551 0000 0086 	.long0x86
 4232 1555 04        	.byte0x4
 4233 1556 09        	.uleb128 0x9
 4234 1557 0000 0000 	.long.LASF286
 4235 155b 12        	.byte0x12
 4236 155c 22        	.byte0x22
 4237 155d 0000 0086 	.long0x86
 4238 1561 08        	.byte0x8
 4239 1562 09        	.uleb128 0x9
 4240 1563 0000 0000 	.long.LASF287
 4241 1567 12        	.byte0x12
 4242 1568 23        	.byte0x23
 4243 1569 0000 0086 	.long0x86
 4244 156d 0C        	.byte0xc
 4245 156e 00        	.byte0
 4246 156f 02        	.uleb128 0x2
 4247 1570 0000 0000 	.long.LASF288
 4248 1574 12        	.byte0x12
 4249 1575 25        	.byte0x25
 4250 1576 0000 1536 	.long0x1536
 4251 157a 26        	.uleb128 0x26
 4252 157b 0108      	.word0x108
 4253 157d 12        	.byte0x12
 4254 157e 2A        	.byte0x2a
 4255 157f 0000 1614 	.long0x1614
 4256 1583 09        	.uleb128 0x9
 4257 1584 0000 0000 	.long.LASF289
 4258 1588 12        	.byte0x12
 4259 1589 2C        	.byte0x2c
 4260 158a 0000 0086 	.long0x86
 4261 158e 00        	.byte0
 4262 158f 09        	.uleb128 0x9
 4263 1590 0000 0000 	.long.LASF290
 4264 1594 12        	.byte0x12
68K GAS   			page 104


 4265 1595 2D        	.byte0x2d
 4266 1596 0000 0086 	.long0x86
 4267 159a 04        	.byte0x4
 4268 159b 09        	.uleb128 0x9
 4269 159c 0000 0000 	.long.LASF291
 4270 15a0 12        	.byte0x12
 4271 15a1 2E        	.byte0x2e
 4272 15a2 0000 0086 	.long0x86
 4273 15a6 08        	.byte0x8
 4274 15a7 09        	.uleb128 0x9
 4275 15a8 0000 0000 	.long.LASF292
 4276 15ac 12        	.byte0x12
 4277 15ad 2F        	.byte0x2f
 4278 15ae 0000 0086 	.long0x86
 4279 15b2 0C        	.byte0xc
 4280 15b3 09        	.uleb128 0x9
 4281 15b4 0000 0000 	.long.LASF293
 4282 15b8 12        	.byte0x12
 4283 15b9 30        	.byte0x30
 4284 15ba 0000 0086 	.long0x86
 4285 15be 10        	.byte0x10
 4286 15bf 09        	.uleb128 0x9
 4287 15c0 0000 0000 	.long.LASF294
 4288 15c4 12        	.byte0x12
 4289 15c5 31        	.byte0x31
 4290 15c6 0000 0086 	.long0x86
 4291 15ca 14        	.byte0x14
 4292 15cb 09        	.uleb128 0x9
 4293 15cc 0000 0000 	.long.LASF295
 4294 15d0 12        	.byte0x12
 4295 15d1 32        	.byte0x32
 4296 15d2 0000 156F 	.long0x156f
 4297 15d6 18        	.byte0x18
 4298 15d7 09        	.uleb128 0x9
 4299 15d8 0000 0000 	.long.LASF296
 4300 15dc 12        	.byte0x12
 4301 15dd 33        	.byte0x33
 4302 15de 0000 0A41 	.long0xa41
 4303 15e2 28        	.byte0x28
 4304 15e3 09        	.uleb128 0x9
 4305 15e4 0000 0000 	.long.LASF297
 4306 15e8 12        	.byte0x12
 4307 15e9 34        	.byte0x34
 4308 15ea 0000 1614 	.long0x1614
 4309 15ee 30        	.byte0x30
 4310 15ef 09        	.uleb128 0x9
 4311 15f0 0000 0000 	.long.LASF298
 4312 15f4 12        	.byte0x12
 4313 15f5 35        	.byte0x35
 4314 15f6 0000 0086 	.long0x86
 4315 15fa 80        	.byte0x80
 4316 15fb 09        	.uleb128 0x9
 4317 15fc 0000 0000 	.long.LASF299
 4318 1600 12        	.byte0x12
 4319 1601 36        	.byte0x36
 4320 1602 0000 0086 	.long0x86
 4321 1606 84        	.byte0x84
68K GAS   			page 105


 4322 1607 09        	.uleb128 0x9
 4323 1608 0000 0000 	.long.LASF300
 4324 160c 12        	.byte0x12
 4325 160d 37        	.byte0x37
 4326 160e 0000 0AF3 	.long0xaf3
 4327 1612 88        	.byte0x88
 4328 1613 00        	.byte0
 4329 1614 06        	.uleb128 0x6
 4330 1615 0000 00B6 	.long0xb6
 4331 1619 0000 1624 	.long0x1624
 4332 161d 07        	.uleb128 0x7
 4333 161e 0000 0091 	.long0x91
 4334 1622 4F        	.byte0x4f
 4335 1623 00        	.byte0
 4336 1624 02        	.uleb128 0x2
 4337 1625 0000 0000 	.long.LASF301
 4338 1629 12        	.byte0x12
 4339 162a 38        	.byte0x38
 4340 162b 0000 157A 	.long0x157a
 4341 162f 08        	.uleb128 0x8
 4342 1630 0C        	.byte0xc
 4343 1631 13        	.byte0x13
 4344 1632 1D        	.byte0x1d
 4345 1633 0000 165C 	.long0x165c
 4346 1637 09        	.uleb128 0x9
 4347 1638 0000 0000 	.long.LASF302
 4348 163c 13        	.byte0x13
 4349 163d 1E        	.byte0x1e
 4350 163e 0000 0086 	.long0x86
 4351 1642 00        	.byte0
 4352 1643 09        	.uleb128 0x9
 4353 1644 0000 0000 	.long.LASF303
 4354 1648 13        	.byte0x13
 4355 1649 1F        	.byte0x1f
 4356 164a 0000 0086 	.long0x86
 4357 164e 04        	.byte0x4
 4358 164f 09        	.uleb128 0x9
 4359 1650 0000 0000 	.long.LASF304
 4360 1654 13        	.byte0x13
 4361 1655 20        	.byte0x20
 4362 1656 0000 0086 	.long0x86
 4363 165a 08        	.byte0x8
 4364 165b 00        	.byte0
 4365 165c 02        	.uleb128 0x2
 4366 165d 0000 0000 	.long.LASF305
 4367 1661 13        	.byte0x13
 4368 1662 21        	.byte0x21
 4369 1663 0000 162F 	.long0x162f
 4370 1667 08        	.uleb128 0x8
 4371 1668 4C        	.byte0x4c
 4372 1669 13        	.byte0x13
 4373 166a 23        	.byte0x23
 4374 166b 0000 1724 	.long0x1724
 4375 166f 09        	.uleb128 0x9
 4376 1670 0000 0000 	.long.LASF306
 4377 1674 13        	.byte0x13
 4378 1675 24        	.byte0x24
68K GAS   			page 106


 4379 1676 0000 0069 	.long0x69
 4380 167a 00        	.byte0
 4381 167b 09        	.uleb128 0x9
 4382 167c 0000 0000 	.long.LASF307
 4383 1680 13        	.byte0x13
 4384 1681 25        	.byte0x25
 4385 1682 0000 0069 	.long0x69
 4386 1686 01        	.byte0x1
 4387 1687 09        	.uleb128 0x9
 4388 1688 0000 0000 	.long.LASF271
 4389 168c 13        	.byte0x13
 4390 168d 26        	.byte0x26
 4391 168e 0000 0B30 	.long0xb30
 4392 1692 02        	.byte0x2
 4393 1693 09        	.uleb128 0x9
 4394 1694 0000 0000 	.long.LASF308
 4395 1698 13        	.byte0x13
 4396 1699 27        	.byte0x27
 4397 169a 0000 0086 	.long0x86
 4398 169e 04        	.byte0x4
 4399 169f 09        	.uleb128 0x9
 4400 16a0 0000 0000 	.long.LASF309
 4401 16a4 13        	.byte0x13
 4402 16a5 28        	.byte0x28
 4403 16a6 0000 0086 	.long0x86
 4404 16aa 08        	.byte0x8
 4405 16ab 09        	.uleb128 0x9
 4406 16ac 0000 0000 	.long.LASF310
 4407 16b0 13        	.byte0x13
 4408 16b1 29        	.byte0x29
 4409 16b2 0000 0086 	.long0x86
 4410 16b6 0C        	.byte0xc
 4411 16b7 09        	.uleb128 0x9
 4412 16b8 0000 0000 	.long.LASF311
 4413 16bc 13        	.byte0x13
 4414 16bd 2A        	.byte0x2a
 4415 16be 0000 0086 	.long0x86
 4416 16c2 10        	.byte0x10
 4417 16c3 09        	.uleb128 0x9
 4418 16c4 0000 0000 	.long.LASF312
 4419 16c8 13        	.byte0x13
 4420 16c9 2B        	.byte0x2b
 4421 16ca 0000 0086 	.long0x86
 4422 16ce 14        	.byte0x14
 4423 16cf 09        	.uleb128 0x9
 4424 16d0 0000 0000 	.long.LASF313
 4425 16d4 13        	.byte0x13
 4426 16d5 2C        	.byte0x2c
 4427 16d6 0000 0086 	.long0x86
 4428 16da 18        	.byte0x18
 4429 16db 09        	.uleb128 0x9
 4430 16dc 0000 0000 	.long.LASF314
 4431 16e0 13        	.byte0x13
 4432 16e1 2D        	.byte0x2d
 4433 16e2 0000 0086 	.long0x86
 4434 16e6 1C        	.byte0x1c
 4435 16e7 09        	.uleb128 0x9
68K GAS   			page 107


 4436 16e8 0000 0000 	.long.LASF315
 4437 16ec 13        	.byte0x13
 4438 16ed 2E        	.byte0x2e
 4439 16ee 0000 0086 	.long0x86
 4440 16f2 20        	.byte0x20
 4441 16f3 09        	.uleb128 0x9
 4442 16f4 0000 0000 	.long.LASF316
 4443 16f8 13        	.byte0x13
 4444 16f9 2F        	.byte0x2f
 4445 16fa 0000 0086 	.long0x86
 4446 16fe 24        	.byte0x24
 4447 16ff 09        	.uleb128 0x9
 4448 1700 0000 0000 	.long.LASF317
 4449 1704 13        	.byte0x13
 4450 1705 30        	.byte0x30
 4451 1706 0000 0086 	.long0x86
 4452 170a 28        	.byte0x28
 4453 170b 09        	.uleb128 0x9
 4454 170c 0000 0000 	.long.LASF318
 4455 1710 13        	.byte0x13
 4456 1711 31        	.byte0x31
 4457 1712 0000 1724 	.long0x1724
 4458 1716 2C        	.byte0x2c
 4459 1717 09        	.uleb128 0x9
 4460 1718 0000 0000 	.long.LASF319
 4461 171c 13        	.byte0x13
 4462 171d 32        	.byte0x32
 4463 171e 0000 1724 	.long0x1724
 4464 1722 3C        	.byte0x3c
 4465 1723 00        	.byte0
 4466 1724 06        	.uleb128 0x6
 4467 1725 0000 0086 	.long0x86
 4468 1729 0000 1734 	.long0x1734
 4469 172d 07        	.uleb128 0x7
 4470 172e 0000 0091 	.long0x91
 4471 1732 03        	.byte0x3
 4472 1733 00        	.byte0
 4473 1734 02        	.uleb128 0x2
 4474 1735 0000 0000 	.long.LASF320
 4475 1739 13        	.byte0x13
 4476 173a 33        	.byte0x33
 4477 173b 0000 1667 	.long0x1667
 4478 173f 27        	.uleb128 0x27
 4479 1740 0001 D50C 	.long0x1d50c
 4480 1744 13        	.byte0x13
 4481 1745 35        	.byte0x35
 4482 1746 0000 1763 	.long0x1763
 4483 174a 09        	.uleb128 0x9
 4484 174b 0000 0000 	.long.LASF321
 4485 174f 13        	.byte0x13
 4486 1750 36        	.byte0x36
 4487 1751 0000 1734 	.long0x1734
 4488 1755 00        	.byte0
 4489 1756 09        	.uleb128 0x9
 4490 1757 0000 0000 	.long.LASF322
 4491 175b 13        	.byte0x13
 4492 175c 37        	.byte0x37
68K GAS   			page 108


 4493 175d 0000 1763 	.long0x1763
 4494 1761 4C        	.byte0x4c
 4495 1762 00        	.byte0
 4496 1763 06        	.uleb128 0x6
 4497 1764 0000 165C 	.long0x165c
 4498 1768 0000 1774 	.long0x1774
 4499 176c 28        	.uleb128 0x28
 4500 176d 0000 0091 	.long0x91
 4501 1771 270F      	.word0x270f
 4502 1773 00        	.byte0
 4503 1774 02        	.uleb128 0x2
 4504 1775 0000 0000 	.long.LASF323
 4505 1779 13        	.byte0x13
 4506 177a 38        	.byte0x38
 4507 177b 0000 173F 	.long0x173f
 4508 177f 26        	.uleb128 0x26
 4509 1780 0D28      	.word0xd28
 4510 1782 14        	.byte0x14
 4511 1783 1F        	.byte0x1f
 4512 1784 0000 17D1 	.long0x17d1
 4513 1788 09        	.uleb128 0x9
 4514 1789 0000 0000 	.long.LASF324
 4515 178d 14        	.byte0x14
 4516 178e 20        	.byte0x20
 4517 178f 0000 0074 	.long0x74
 4518 1793 00        	.byte0
 4519 1794 09        	.uleb128 0x9
 4520 1795 0000 0000 	.long.LASF325
 4521 1799 14        	.byte0x14
 4522 179a 21        	.byte0x21
 4523 179b 0000 0074 	.long0x74
 4524 179f 02        	.byte0x2
 4525 17a0 09        	.uleb128 0x9
 4526 17a1 0000 0000 	.long.LASF326
 4527 17a5 14        	.byte0x14
 4528 17a6 22        	.byte0x22
 4529 17a7 0000 0069 	.long0x69
 4530 17ab 04        	.byte0x4
 4531 17ac 09        	.uleb128 0x9
 4532 17ad 0000 0000 	.long.LASF327
 4533 17b1 14        	.byte0x14
 4534 17b2 23        	.byte0x23
 4535 17b3 0000 0069 	.long0x69
 4536 17b7 05        	.byte0x5
 4537 17b8 09        	.uleb128 0x9
 4538 17b9 0000 0000 	.long.LASF328
 4539 17bd 14        	.byte0x14
 4540 17be 24        	.byte0x24
 4541 17bf 0000 0074 	.long0x74
 4542 17c3 06        	.byte0x6
 4543 17c4 09        	.uleb128 0x9
 4544 17c5 0000 0000 	.long.LASF329
 4545 17c9 14        	.byte0x14
 4546 17ca 25        	.byte0x25
 4547 17cb 0000 17D1 	.long0x17d1
 4548 17cf 08        	.byte0x8
 4549 17d0 00        	.byte0
68K GAS   			page 109


 4550 17d1 06        	.uleb128 0x6
 4551 17d2 0000 0CD8 	.long0xcd8
 4552 17d6 0000 17E1 	.long0x17e1
 4553 17da 07        	.uleb128 0x7
 4554 17db 0000 0091 	.long0x91
 4555 17df 13        	.byte0x13
 4556 17e0 00        	.byte0
 4557 17e1 02        	.uleb128 0x2
 4558 17e2 0000 0000 	.long.LASF330
 4559 17e6 14        	.byte0x14
 4560 17e7 27        	.byte0x27
 4561 17e8 0000 177F 	.long0x177f
 4562 17ec 08        	.uleb128 0x8
 4563 17ed 18        	.byte0x18
 4564 17ee 15        	.byte0x15
 4565 17ef 23        	.byte0x23
 4566 17f0 0000 183D 	.long0x183d
 4567 17f4 09        	.uleb128 0x9
 4568 17f5 0000 0000 	.long.LASF290
 4569 17f9 15        	.byte0x15
 4570 17fa 25        	.byte0x25
 4571 17fb 0000 0086 	.long0x86
 4572 17ff 00        	.byte0
 4573 1800 09        	.uleb128 0x9
 4574 1801 0000 0000 	.long.LASF291
 4575 1805 15        	.byte0x15
 4576 1806 26        	.byte0x26
 4577 1807 0000 0086 	.long0x86
 4578 180b 04        	.byte0x4
 4579 180c 09        	.uleb128 0x9
 4580 180d 0000 0000 	.long.LASF292
 4581 1811 15        	.byte0x15
 4582 1812 27        	.byte0x27
 4583 1813 0000 0086 	.long0x86
 4584 1817 08        	.byte0x8
 4585 1818 09        	.uleb128 0x9
 4586 1819 0000 0000 	.long.LASF331
 4587 181d 15        	.byte0x15
 4588 181e 28        	.byte0x28
 4589 181f 0000 0086 	.long0x86
 4590 1823 0C        	.byte0xc
 4591 1824 09        	.uleb128 0x9
 4592 1825 0000 0000 	.long.LASF293
 4593 1829 15        	.byte0x15
 4594 182a 29        	.byte0x29
 4595 182b 0000 0086 	.long0x86
 4596 182f 10        	.byte0x10
 4597 1830 09        	.uleb128 0x9
 4598 1831 0000 0000 	.long.LASF294
 4599 1835 15        	.byte0x15
 4600 1836 2A        	.byte0x2a
 4601 1837 0000 0086 	.long0x86
 4602 183b 14        	.byte0x14
 4603 183c 00        	.byte0
 4604 183d 02        	.uleb128 0x2
 4605 183e 0000 0000 	.long.LASF332
 4606 1842 15        	.byte0x15
68K GAS   			page 110


 4607 1843 2B        	.byte0x2b
 4608 1844 0000 17EC 	.long0x17ec
 4609 1848 27        	.uleb128 0x27
 4610 1849 0002 0324 	.long0x20324
 4611 184d 15        	.byte0x15
 4612 184e 33        	.byte0x33
 4613 184f 0000 18F5 	.long0x18f5
 4614 1853 09        	.uleb128 0x9
 4615 1854 0000 0000 	.long.LASF333
 4616 1858 15        	.byte0x15
 4617 1859 38        	.byte0x38
 4618 185a 0000 18F5 	.long0x18f5
 4619 185e 00        	.byte0
 4620 185f 13        	.uleb128 0x13
 4621 1860 0000 0000 	.long.LASF334
 4622 1864 15        	.byte0x15
 4623 1865 39        	.byte0x39
 4624 1866 0000 0086 	.long0x86
 4625 186a 14A0      	.word0x14a0
 4626 186c 13        	.uleb128 0x13
 4627 186d 0000 0000 	.long.LASF335
 4628 1871 15        	.byte0x15
 4629 1872 3A        	.byte0x3a
 4630 1873 0000 0086 	.long0x86
 4631 1877 14A4      	.word0x14a4
 4632 1879 13        	.uleb128 0x13
 4633 187a 0000 0000 	.long.LASF287
 4634 187e 15        	.byte0x15
 4635 187f 3B        	.byte0x3b
 4636 1880 0000 0086 	.long0x86
 4637 1884 14A8      	.word0x14a8
 4638 1886 13        	.uleb128 0x13
 4639 1887 0000 0000 	.long.LASF336
 4640 188b 15        	.byte0x15
 4641 188c 40        	.byte0x40
 4642 188d 0000 1905 	.long0x1905
 4643 1891 14AC      	.word0x14ac
 4644 1893 13        	.uleb128 0x13
 4645 1894 0000 0000 	.long.LASF337
 4646 1898 15        	.byte0x15
 4647 1899 41        	.byte0x41
 4648 189a 0000 0086 	.long0x86
 4649 189e 20AC      	.word0x20ac
 4650 18a0 13        	.uleb128 0x13
 4651 18a1 0000 0000 	.long.LASF338
 4652 18a5 15        	.byte0x15
 4653 18a6 42        	.byte0x42
 4654 18a7 0000 0086 	.long0x86
 4655 18ab 20B0      	.word0x20b0
 4656 18ad 13        	.uleb128 0x13
 4657 18ae 0000 0000 	.long.LASF339
 4658 18b2 15        	.byte0x15
 4659 18b3 43        	.byte0x43
 4660 18b4 0000 0086 	.long0x86
 4661 18b8 20B4      	.word0x20b4
 4662 18ba 13        	.uleb128 0x13
 4663 18bb 0000 0000 	.long.LASF340
68K GAS   			page 111


 4664 18bf 15        	.byte0x15
 4665 18c0 48        	.byte0x48
 4666 18c1 0000 1774 	.long0x1774
 4667 18c5 20B8      	.word0x20b8
 4668 18c7 29        	.uleb128 0x29
 4669 18c8 0000 0000 	.long.LASF341
 4670 18cc 15        	.byte0x15
 4671 18cd 4D        	.byte0x4d
 4672 18ce 0000 183D 	.long0x183d
 4673 18d2 0001 F5C4 	.long0x1f5c4
 4674 18d6 29        	.uleb128 0x29
 4675 18d7 0000 0000 	.long.LASF342
 4676 18db 15        	.byte0x15
 4677 18dc 53        	.byte0x53
 4678 18dd 0000 0ADD 	.long0xadd
 4679 18e1 0001 F5DC 	.long0x1f5dc
 4680 18e5 29        	.uleb128 0x29
 4681 18e6 0000 0000 	.long.LASF343
 4682 18ea 15        	.byte0x15
 4683 18eb 59        	.byte0x59
 4684 18ec 0000 17E1 	.long0x17e1
 4685 18f0 0001 F5FC 	.long0x1f5fc
 4686 18f4 00        	.byte0
 4687 18f5 06        	.uleb128 0x6
 4688 18f6 0000 1624 	.long0x1624
 4689 18fa 0000 1905 	.long0x1905
 4690 18fe 07        	.uleb128 0x7
 4691 18ff 0000 0091 	.long0x91
 4692 1903 13        	.byte0x13
 4693 1904 00        	.byte0
 4694 1905 06        	.uleb128 0x6
 4695 1906 0000 00B6 	.long0xb6
 4696 190a 0000 1916 	.long0x1916
 4697 190e 28        	.uleb128 0x28
 4698 190f 0000 0091 	.long0x91
 4699 1913 0BFF      	.word0xbff
 4700 1915 00        	.byte0
 4701 1916 02        	.uleb128 0x2
 4702 1917 0000 0000 	.long.LASF344
 4703 191b 15        	.byte0x15
 4704 191c 5C        	.byte0x5c
 4705 191d 0000 1848 	.long0x1848
 4706 1921 2A        	.uleb128 0x2a
 4707 1922 0000 0000 	.long.LASF362
 4708 1926 01        	.byte0x1
 4709 1927 04EE      	.word0x4ee
 4710 1929 0000 0050 	.long0x50
 4711 192d 0000 0000 	.long.LFB77
 4712 1931 0000 0050 	.long.LFE77-.LFB77
 4713 1935 01        	.uleb128 0x1
 4714 1936 9C        	.byte0x9c
 4715 1937 0000 1958 	.long0x1958
 4716 193b 2B        	.uleb128 0x2b
 4717 193c 0000 0000 	.long.LASF345
 4718 1940 01        	.byte0x1
 4719 1941 04EE      	.word0x4ee
 4720 1943 0000 0086 	.long0x86
68K GAS   			page 112


 4721 1947 02        	.uleb128 0x2
 4722 1948 91        	.byte0x91
 4723 1949 00        	.sleb128 0
 4724 194a 2C        	.uleb128 0x2c
 4725 194b 6900      	.string"i"
 4726 194d 01        	.byte0x1
 4727 194e 04F0      	.word0x4f0
 4728 1950 0000 0086 	.long0x86
 4729 1954 02        	.uleb128 0x2
 4730 1955 91        	.byte0x91
 4731 1956 78        	.sleb128 -8
 4732 1957 00        	.byte0
 4733 1958 2D        	.uleb128 0x2d
 4734 1959 0000 0000 	.long.LASF349
 4735 195d 01        	.byte0x1
 4736 195e 04CE      	.word0x4ce
 4737 1960 0000 0000 	.long.LFB76
 4738 1964 0000 004E 	.long.LFE76-.LFB76
 4739 1968 01        	.uleb128 0x1
 4740 1969 9C        	.byte0x9c
 4741 196a 0000 199C 	.long0x199c
 4742 196e 2B        	.uleb128 0x2b
 4743 196f 0000 0000 	.long.LASF346
 4744 1973 01        	.byte0x1
 4745 1974 04CE      	.word0x4ce
 4746 1976 0000 0A41 	.long0xa41
 4747 197a 02        	.uleb128 0x2
 4748 197b 91        	.byte0x91
 4749 197c 00        	.sleb128 0
 4750 197d 2B        	.uleb128 0x2b
 4751 197e 0000 0000 	.long.LASF347
 4752 1982 01        	.byte0x1
 4753 1983 04CE      	.word0x4ce
 4754 1985 0000 003E 	.long0x3e
 4755 1989 02        	.uleb128 0x2
 4756 198a 91        	.byte0x91
 4757 198b 74        	.sleb128 -12
 4758 198c 2E        	.uleb128 0x2e
 4759 198d 0000 0000 	.long.LASF348
 4760 1991 01        	.byte0x1
 4761 1992 04D0      	.word0x4d0
 4762 1994 0000 0050 	.long0x50
 4763 1998 02        	.uleb128 0x2
 4764 1999 91        	.byte0x91
 4765 199a 78        	.sleb128 -8
 4766 199b 00        	.byte0
 4767 199c 2D        	.uleb128 0x2d
 4768 199d 0000 0000 	.long.LASF350
 4769 19a1 01        	.byte0x1
 4770 19a2 04A3      	.word0x4a3
 4771 19a4 0000 0000 	.long.LFB75
 4772 19a8 0000 00BC 	.long.LFE75-.LFB75
 4773 19ac 01        	.uleb128 0x1
 4774 19ad 9C        	.byte0x9c
 4775 19ae 0000 19EF 	.long0x19ef
 4776 19b2 2B        	.uleb128 0x2b
 4777 19b3 0000 0000 	.long.LASF346
68K GAS   			page 113


 4778 19b7 01        	.byte0x1
 4779 19b8 04A3      	.word0x4a3
 4780 19ba 0000 0A41 	.long0xa41
 4781 19be 02        	.uleb128 0x2
 4782 19bf 91        	.byte0x91
 4783 19c0 00        	.sleb128 0
 4784 19c1 2B        	.uleb128 0x2b
 4785 19c2 0000 0000 	.long.LASF347
 4786 19c6 01        	.byte0x1
 4787 19c7 04A3      	.word0x4a3
 4788 19c9 0000 003E 	.long0x3e
 4789 19cd 02        	.uleb128 0x2
 4790 19ce 91        	.byte0x91
 4791 19cf 6C        	.sleb128 -20
 4792 19d0 2E        	.uleb128 0x2e
 4793 19d1 0000 0000 	.long.LASF348
 4794 19d5 01        	.byte0x1
 4795 19d6 04A5      	.word0x4a5
 4796 19d8 0000 0050 	.long0x50
 4797 19dc 02        	.uleb128 0x2
 4798 19dd 91        	.byte0x91
 4799 19de 78        	.sleb128 -8
 4800 19df 2E        	.uleb128 0x2e
 4801 19e0 0000 0000 	.long.LASF351
 4802 19e4 01        	.byte0x1
 4803 19e5 04A6      	.word0x4a6
 4804 19e7 0000 0A41 	.long0xa41
 4805 19eb 02        	.uleb128 0x2
 4806 19ec 91        	.byte0x91
 4807 19ed 70        	.sleb128 -16
 4808 19ee 00        	.byte0
 4809 19ef 2D        	.uleb128 0x2d
 4810 19f0 0000 0000 	.long.LASF352
 4811 19f4 01        	.byte0x1
 4812 19f5 0486      	.word0x486
 4813 19f7 0000 0000 	.long.LFB74
 4814 19fb 0000 003A 	.long.LFE74-.LFB74
 4815 19ff 01        	.uleb128 0x1
 4816 1a00 9C        	.byte0x9c
 4817 1a01 0000 1A24 	.long0x1a24
 4818 1a05 2B        	.uleb128 0x2b
 4819 1a06 0000 0000 	.long.LASF353
 4820 1a0a 01        	.byte0x1
 4821 1a0b 0486      	.word0x486
 4822 1a0d 0000 003E 	.long0x3e
 4823 1a11 02        	.uleb128 0x2
 4824 1a12 91        	.byte0x91
 4825 1a13 74        	.sleb128 -12
 4826 1a14 2E        	.uleb128 0x2e
 4827 1a15 0000 0000 	.long.LASF348
 4828 1a19 01        	.byte0x1
 4829 1a1a 0488      	.word0x488
 4830 1a1c 0000 0050 	.long0x50
 4831 1a20 02        	.uleb128 0x2
 4832 1a21 91        	.byte0x91
 4833 1a22 78        	.sleb128 -8
 4834 1a23 00        	.byte0
68K GAS   			page 114


 4835 1a24 2D        	.uleb128 0x2d
 4836 1a25 0000 0000 	.long.LASF354
 4837 1a29 01        	.byte0x1
 4838 1a2a 0469      	.word0x469
 4839 1a2c 0000 0000 	.long.LFB73
 4840 1a30 0000 003C 	.long.LFE73-.LFB73
 4841 1a34 01        	.uleb128 0x1
 4842 1a35 9C        	.byte0x9c
 4843 1a36 0000 1A59 	.long0x1a59
 4844 1a3a 2B        	.uleb128 0x2b
 4845 1a3b 0000 0000 	.long.LASF351
 4846 1a3f 01        	.byte0x1
 4847 1a40 0469      	.word0x469
 4848 1a42 0000 0A41 	.long0xa41
 4849 1a46 02        	.uleb128 0x2
 4850 1a47 91        	.byte0x91
 4851 1a48 00        	.sleb128 0
 4852 1a49 2E        	.uleb128 0x2e
 4853 1a4a 0000 0000 	.long.LASF348
 4854 1a4e 01        	.byte0x1
 4855 1a4f 046B      	.word0x46b
 4856 1a51 0000 0050 	.long0x50
 4857 1a55 02        	.uleb128 0x2
 4858 1a56 91        	.byte0x91
 4859 1a57 78        	.sleb128 -8
 4860 1a58 00        	.byte0
 4861 1a59 2D        	.uleb128 0x2d
 4862 1a5a 0000 0000 	.long.LASF355
 4863 1a5e 01        	.byte0x1
 4864 1a5f 0440      	.word0x440
 4865 1a61 0000 0000 	.long.LFB72
 4866 1a65 0000 0058 	.long.LFE72-.LFB72
 4867 1a69 01        	.uleb128 0x1
 4868 1a6a 9C        	.byte0x9c
 4869 1a6b 0000 1A8E 	.long0x1a8e
 4870 1a6f 2B        	.uleb128 0x2b
 4871 1a70 0000 0000 	.long.LASF356
 4872 1a74 01        	.byte0x1
 4873 1a75 0440      	.word0x440
 4874 1a77 0000 0A41 	.long0xa41
 4875 1a7b 02        	.uleb128 0x2
 4876 1a7c 91        	.byte0x91
 4877 1a7d 00        	.sleb128 0
 4878 1a7e 2E        	.uleb128 0x2e
 4879 1a7f 0000 0000 	.long.LASF348
 4880 1a83 01        	.byte0x1
 4881 1a84 0442      	.word0x442
 4882 1a86 0000 0050 	.long0x50
 4883 1a8a 02        	.uleb128 0x2
 4884 1a8b 91        	.byte0x91
 4885 1a8c 78        	.sleb128 -8
 4886 1a8d 00        	.byte0
 4887 1a8e 2D        	.uleb128 0x2d
 4888 1a8f 0000 0000 	.long.LASF357
 4889 1a93 01        	.byte0x1
 4890 1a94 0405      	.word0x405
 4891 1a96 0000 0000 	.long.LFB71
68K GAS   			page 115


 4892 1a9a 0000 0070 	.long.LFE71-.LFB71
 4893 1a9e 01        	.uleb128 0x1
 4894 1a9f 9C        	.byte0x9c
 4895 1aa0 0000 1AE3 	.long0x1ae3
 4896 1aa4 2B        	.uleb128 0x2b
 4897 1aa5 0000 0000 	.long.LASF358
 4898 1aa9 01        	.byte0x1
 4899 1aaa 0405      	.word0x405
 4900 1aac 0000 0A41 	.long0xa41
 4901 1ab0 02        	.uleb128 0x2
 4902 1ab1 91        	.byte0x91
 4903 1ab2 00        	.sleb128 0
 4904 1ab3 2E        	.uleb128 0x2e
 4905 1ab4 0000 0000 	.long.LASF348
 4906 1ab8 01        	.byte0x1
 4907 1ab9 0407      	.word0x407
 4908 1abb 0000 0050 	.long0x50
 4909 1abf 02        	.uleb128 0x2
 4910 1ac0 91        	.byte0x91
 4911 1ac1 78        	.sleb128 -8
 4912 1ac2 2E        	.uleb128 0x2e
 4913 1ac3 0000 0000 	.long.LASF359
 4914 1ac7 01        	.byte0x1
 4915 1ac8 040D      	.word0x40d
 4916 1aca 0000 1185 	.long0x1185
 4917 1ace 03        	.uleb128 0x3
 4918 1acf 91        	.byte0x91
 4919 1ad0 B87F      	.sleb128 -72
 4920 1ad2 2E        	.uleb128 0x2e
 4921 1ad3 0000 0000 	.long.LASF351
 4922 1ad7 01        	.byte0x1
 4923 1ad8 040E      	.word0x40e
 4924 1ada 0000 0A41 	.long0xa41
 4925 1ade 03        	.uleb128 0x3
 4926 1adf 91        	.byte0x91
 4927 1ae0 B07F      	.sleb128 -80
 4928 1ae2 00        	.byte0
 4929 1ae3 2D        	.uleb128 0x2d
 4930 1ae4 0000 0000 	.long.LASF360
 4931 1ae8 01        	.byte0x1
 4932 1ae9 0372      	.word0x372
 4933 1aeb 0000 0000 	.long.LFB70
 4934 1aef 0000 007C 	.long.LFE70-.LFB70
 4935 1af3 01        	.uleb128 0x1
 4936 1af4 9C        	.byte0x9c
 4937 1af5 0000 1B18 	.long0x1b18
 4938 1af9 2B        	.uleb128 0x2b
 4939 1afa 0000 0000 	.long.LASF361
 4940 1afe 01        	.byte0x1
 4941 1aff 0372      	.word0x372
 4942 1b01 0000 003E 	.long0x3e
 4943 1b05 02        	.uleb128 0x2
 4944 1b06 91        	.byte0x91
 4945 1b07 74        	.sleb128 -12
 4946 1b08 2E        	.uleb128 0x2e
 4947 1b09 0000 0000 	.long.LASF348
 4948 1b0d 01        	.byte0x1
68K GAS   			page 116


 4949 1b0e 0377      	.word0x377
 4950 1b10 0000 0050 	.long0x50
 4951 1b14 02        	.uleb128 0x2
 4952 1b15 91        	.byte0x91
 4953 1b16 78        	.sleb128 -8
 4954 1b17 00        	.byte0
 4955 1b18 2A        	.uleb128 0x2a
 4956 1b19 0000 0000 	.long.LASF363
 4957 1b1d 01        	.byte0x1
 4958 1b1e 033B      	.word0x33b
 4959 1b20 0000 003E 	.long0x3e
 4960 1b24 0000 0000 	.long.LFB69
 4961 1b28 0000 003C 	.long.LFE69-.LFB69
 4962 1b2c 01        	.uleb128 0x1
 4963 1b2d 9C        	.byte0x9c
 4964 1b2e 0000 1B51 	.long0x1b51
 4965 1b32 2B        	.uleb128 0x2b
 4966 1b33 0000 0000 	.long.LASF359
 4967 1b37 01        	.byte0x1
 4968 1b38 033B      	.word0x33b
 4969 1b3a 0000 1B51 	.long0x1b51
 4970 1b3e 02        	.uleb128 0x2
 4971 1b3f 91        	.byte0x91
 4972 1b40 00        	.sleb128 0
 4973 1b41 2E        	.uleb128 0x2e
 4974 1b42 0000 0000 	.long.LASF364
 4975 1b46 01        	.byte0x1
 4976 1b47 033D      	.word0x33d
 4977 1b49 0000 003E 	.long0x3e
 4978 1b4d 02        	.uleb128 0x2
 4979 1b4e 91        	.byte0x91
 4980 1b4f 7A        	.sleb128 -6
 4981 1b50 00        	.byte0
 4982 1b51 0E        	.uleb128 0xe
 4983 1b52 04        	.byte0x4
 4984 1b53 0000 1190 	.long0x1190
 4985 1b57 2F        	.uleb128 0x2f
 4986 1b58 0000 0000 	.long.LASF365
 4987 1b5c 01        	.byte0x1
 4988 1b5d 0329      	.word0x329
 4989 1b5f 0000 0A41 	.long0xa41
 4990 1b63 0000 0000 	.long.LFB68
 4991 1b67 0000 0046 	.long.LFE68-.LFB68
 4992 1b6b 01        	.uleb128 0x1
 4993 1b6c 9C        	.byte0x9c
 4994 1b6d 0000 1B90 	.long0x1b90
 4995 1b71 2B        	.uleb128 0x2b
 4996 1b72 0000 0000 	.long.LASF359
 4997 1b76 01        	.byte0x1
 4998 1b77 0329      	.word0x329
 4999 1b79 0000 1B51 	.long0x1b51
 5000 1b7d 02        	.uleb128 0x2
 5001 1b7e 91        	.byte0x91
 5002 1b7f 00        	.sleb128 0
 5003 1b80 2E        	.uleb128 0x2e
 5004 1b81 0000 0000 	.long.LASF366
 5005 1b85 01        	.byte0x1
68K GAS   			page 117


 5006 1b86 032B      	.word0x32b
 5007 1b88 0000 0A41 	.long0xa41
 5008 1b8c 02        	.uleb128 0x2
 5009 1b8d 91        	.byte0x91
 5010 1b8e 74        	.sleb128 -12
 5011 1b8f 00        	.byte0
 5012 1b90 2F        	.uleb128 0x2f
 5013 1b91 0000 0000 	.long.LASF367
 5014 1b95 01        	.byte0x1
 5015 1b96 0318      	.word0x318
 5016 1b98 0000 0A41 	.long0xa41
 5017 1b9c 0000 0000 	.long.LFB67
 5018 1ba0 0000 0034 	.long.LFE67-.LFB67
 5019 1ba4 01        	.uleb128 0x1
 5020 1ba5 9C        	.byte0x9c
 5021 1ba6 0000 1BC9 	.long0x1bc9
 5022 1baa 2B        	.uleb128 0x2b
 5023 1bab 0000 0000 	.long.LASF359
 5024 1baf 01        	.byte0x1
 5025 1bb0 0318      	.word0x318
 5026 1bb2 0000 1B51 	.long0x1b51
 5027 1bb6 02        	.uleb128 0x2
 5028 1bb7 91        	.byte0x91
 5029 1bb8 00        	.sleb128 0
 5030 1bb9 2E        	.uleb128 0x2e
 5031 1bba 0000 0000 	.long.LASF368
 5032 1bbe 01        	.byte0x1
 5033 1bbf 031A      	.word0x31a
 5034 1bc1 0000 0A41 	.long0xa41
 5035 1bc5 02        	.uleb128 0x2
 5036 1bc6 91        	.byte0x91
 5037 1bc7 74        	.sleb128 -12
 5038 1bc8 00        	.byte0
 5039 1bc9 2D        	.uleb128 0x2d
 5040 1bca 0000 0000 	.long.LASF369
 5041 1bce 01        	.byte0x1
 5042 1bcf 02C8      	.word0x2c8
 5043 1bd1 0000 0000 	.long.LFB66
 5044 1bd5 0000 01B2 	.long.LFE66-.LFB66
 5045 1bd9 01        	.uleb128 0x1
 5046 1bda 9C        	.byte0x9c
 5047 1bdb 0000 1C1C 	.long0x1c1c
 5048 1bdf 2B        	.uleb128 0x2b
 5049 1be0 0000 0000 	.long.LASF359
 5050 1be4 01        	.byte0x1
 5051 1be5 02C8      	.word0x2c8
 5052 1be7 0000 1C1C 	.long0x1c1c
 5053 1beb 02        	.uleb128 0x2
 5054 1bec 91        	.byte0x91
 5055 1bed 00        	.sleb128 0
 5056 1bee 2E        	.uleb128 0x2e
 5057 1bef 0000 0000 	.long.LASF220
 5058 1bf3 01        	.byte0x1
 5059 1bf4 02CA      	.word0x2ca
 5060 1bf6 0000 0A41 	.long0xa41
 5061 1bfa 02        	.uleb128 0x2
 5062 1bfb 91        	.byte0x91
68K GAS   			page 118


 5063 1bfc 70        	.sleb128 -16
 5064 1bfd 2E        	.uleb128 0x2e
 5065 1bfe 0000 0000 	.long.LASF164
 5066 1c02 01        	.byte0x1
 5067 1c03 02CB      	.word0x2cb
 5068 1c05 0000 0A41 	.long0xa41
 5069 1c09 02        	.uleb128 0x2
 5070 1c0a 91        	.byte0x91
 5071 1c0b 68        	.sleb128 -24
 5072 1c0c 2E        	.uleb128 0x2e
 5073 1c0d 0000 0000 	.long.LASF243
 5074 1c11 01        	.byte0x1
 5075 1c12 02CC      	.word0x2cc
 5076 1c14 0000 0086 	.long0x86
 5077 1c18 02        	.uleb128 0x2
 5078 1c19 91        	.byte0x91
 5079 1c1a 78        	.sleb128 -8
 5080 1c1b 00        	.byte0
 5081 1c1c 0E        	.uleb128 0xe
 5082 1c1d 04        	.byte0x4
 5083 1c1e 0000 1185 	.long0x1185
 5084 1c22 2D        	.uleb128 0x2d
 5085 1c23 0000 0000 	.long.LASF370
 5086 1c27 01        	.byte0x1
 5087 1c28 024F      	.word0x24f
 5088 1c2a 0000 0000 	.long.LFB65
 5089 1c2e 0000 02C6 	.long.LFE65-.LFB65
 5090 1c32 01        	.uleb128 0x1
 5091 1c33 9C        	.byte0x9c
 5092 1c34 0000 1C59 	.long0x1c59
 5093 1c38 2E        	.uleb128 0x2e
 5094 1c39 0000 0000 	.long.LASF359
 5095 1c3d 01        	.byte0x1
 5096 1c3e 0251      	.word0x251
 5097 1c40 0000 1185 	.long0x1185
 5098 1c44 03        	.uleb128 0x3
 5099 1c45 91        	.byte0x91
 5100 1c46 BC7F      	.sleb128 -68
 5101 1c48 2E        	.uleb128 0x2e
 5102 1c49 0000 0000 	.long.LASF371
 5103 1c4d 01        	.byte0x1
 5104 1c4e 0252      	.word0x252
 5105 1c50 0000 0A41 	.long0xa41
 5106 1c54 03        	.uleb128 0x3
 5107 1c55 91        	.byte0x91
 5108 1c56 B47F      	.sleb128 -76
 5109 1c58 00        	.byte0
 5110 1c59 2D        	.uleb128 0x2d
 5111 1c5a 0000 0000 	.long.LASF372
 5112 1c5e 01        	.byte0x1
 5113 1c5f 0211      	.word0x211
 5114 1c61 0000 0000 	.long.LFB64
 5115 1c65 0000 0098 	.long.LFE64-.LFB64
 5116 1c69 01        	.uleb128 0x1
 5117 1c6a 9C        	.byte0x9c
 5118 1c6b 0000 1C7F 	.long0x1c7f
 5119 1c6f 2B        	.uleb128 0x2b
68K GAS   			page 119


 5120 1c70 0000 0000 	.long.LASF359
 5121 1c74 01        	.byte0x1
 5122 1c75 0211      	.word0x211
 5123 1c77 0000 1B51 	.long0x1b51
 5124 1c7b 02        	.uleb128 0x2
 5125 1c7c 91        	.byte0x91
 5126 1c7d 00        	.sleb128 0
 5127 1c7e 00        	.byte0
 5128 1c7f 2A        	.uleb128 0x2a
 5129 1c80 0000 0000 	.long.LASF373
 5130 1c84 01        	.byte0x1
 5131 1c85 01BC      	.word0x1bc
 5132 1c87 0000 0074 	.long0x74
 5133 1c8b 0000 0000 	.long.LFB63
 5134 1c8f 0000 0104 	.long.LFE63-.LFB63
 5135 1c93 01        	.uleb128 0x1
 5136 1c94 9C        	.byte0x9c
 5137 1c95 0000 1CA9 	.long0x1ca9
 5138 1c99 2E        	.uleb128 0x2e
 5139 1c9a 0000 0000 	.long.LASF374
 5140 1c9e 01        	.byte0x1
 5141 1c9f 01BE      	.word0x1be
 5142 1ca1 0000 0074 	.long0x74
 5143 1ca5 02        	.uleb128 0x2
 5144 1ca6 91        	.byte0x91
 5145 1ca7 7A        	.sleb128 -6
 5146 1ca8 00        	.byte0
 5147 1ca9 30        	.uleb128 0x30
 5148 1caa 0000 0000 	.long.LASF375
 5149 1cae 01        	.byte0x1
 5150 1caf F9        	.byte0xf9
 5151 1cb0 0000 0000 	.long.LFB62
 5152 1cb4 0000 028C 	.long.LFE62-.LFB62
 5153 1cb8 01        	.uleb128 0x1
 5154 1cb9 9C        	.byte0x9c
 5155 1cba 0000 1CCB 	.long0x1ccb
 5156 1cbe 31        	.uleb128 0x31
 5157 1cbf 6900      	.string"i"
 5158 1cc1 01        	.byte0x1
 5159 1cc2 FB        	.byte0xfb
 5160 1cc3 0000 0086 	.long0x86
 5161 1cc7 02        	.uleb128 0x2
 5162 1cc8 91        	.byte0x91
 5163 1cc9 78        	.sleb128 -8
 5164 1cca 00        	.byte0
 5165 1ccb 30        	.uleb128 0x30
 5166 1ccc 0000 0000 	.long.LASF376
 5167 1cd0 01        	.byte0x1
 5168 1cd1 CD        	.byte0xcd
 5169 1cd2 0000 0000 	.long.LFB61
 5170 1cd6 0000 00D8 	.long.LFE61-.LFB61
 5171 1cda 01        	.uleb128 0x1
 5172 1cdb 9C        	.byte0x9c
 5173 1cdc 0000 1D27 	.long0x1d27
 5174 1ce0 32        	.uleb128 0x32
 5175 1ce1 0000 0000 	.long.LASF359
 5176 1ce5 01        	.byte0x1
68K GAS   			page 120


 5177 1ce6 CD        	.byte0xcd
 5178 1ce7 0000 1B51 	.long0x1b51
 5179 1ceb 02        	.uleb128 0x2
 5180 1cec 91        	.byte0x91
 5181 1ced 00        	.sleb128 0
 5182 1cee 33        	.uleb128 0x33
 5183 1cef 0000 0000 	.long.LASF377
 5184 1cf3 01        	.byte0x1
 5185 1cf4 CF        	.byte0xcf
 5186 1cf5 0000 0ADD 	.long0xadd
 5187 1cf9 02        	.uleb128 0x2
 5188 1cfa 91        	.byte0x91
 5189 1cfb 58        	.sleb128 -40
 5190 1cfc 33        	.uleb128 0x33
 5191 1cfd 0000 0000 	.long.LASF378
 5192 1d01 01        	.byte0x1
 5193 1d02 D0        	.byte0xd0
 5194 1d03 0000 0086 	.long0x86
 5195 1d07 02        	.uleb128 0x2
 5196 1d08 91        	.byte0x91
 5197 1d09 54        	.sleb128 -44
 5198 1d0a 33        	.uleb128 0x33
 5199 1d0b 0000 0000 	.long.LASF379
 5200 1d0f 01        	.byte0x1
 5201 1d10 D1        	.byte0xd1
 5202 1d11 0000 009F 	.long0x9f
 5203 1d15 02        	.uleb128 0x2
 5204 1d16 91        	.byte0x91
 5205 1d17 50        	.sleb128 -48
 5206 1d18 33        	.uleb128 0x33
 5207 1d19 0000 0000 	.long.LASF380
 5208 1d1d 01        	.byte0x1
 5209 1d1e D2        	.byte0xd2
 5210 1d1f 0000 1D27 	.long0x1d27
 5211 1d23 02        	.uleb128 0x2
 5212 1d24 91        	.byte0x91
 5213 1d25 78        	.sleb128 -8
 5214 1d26 00        	.byte0
 5215 1d27 0E        	.uleb128 0xe
 5216 1d28 04        	.byte0x4
 5217 1d29 0000 1916 	.long0x1916
 5218 1d2d 30        	.uleb128 0x30
 5219 1d2e 0000 0000 	.long.LASF381
 5220 1d32 01        	.byte0x1
 5221 1d33 76        	.byte0x76
 5222 1d34 0000 0000 	.long.LFB60
 5223 1d38 0000 0180 	.long.LFE60-.LFB60
 5224 1d3c 01        	.uleb128 0x1
 5225 1d3d 9C        	.byte0x9c
 5226 1d3e 0000 1DA5 	.long0x1da5
 5227 1d42 33        	.uleb128 0x33
 5228 1d43 0000 0000 	.long.LASF377
 5229 1d47 01        	.byte0x1
 5230 1d48 79        	.byte0x79
 5231 1d49 0000 0ADD 	.long0xadd
 5232 1d4d 02        	.uleb128 0x2
 5233 1d4e 91        	.byte0x91
68K GAS   			page 121


 5234 1d4f 4C        	.sleb128 -52
 5235 1d50 33        	.uleb128 0x33
 5236 1d51 0000 0000 	.long.LASF382
 5237 1d55 01        	.byte0x1
 5238 1d56 7A        	.byte0x7a
 5239 1d57 0000 0086 	.long0x86
 5240 1d5b 02        	.uleb128 0x2
 5241 1d5c 91        	.byte0x91
 5242 1d5d 70        	.sleb128 -16
 5243 1d5e 33        	.uleb128 0x33
 5244 1d5f 0000 0000 	.long.LASF383
 5245 1d63 01        	.byte0x1
 5246 1d64 7B        	.byte0x7b
 5247 1d65 0000 0086 	.long0x86
 5248 1d69 02        	.uleb128 0x2
 5249 1d6a 91        	.byte0x91
 5250 1d6b 6C        	.sleb128 -20
 5251 1d6c 33        	.uleb128 0x33
 5252 1d6d 0000 0000 	.long.LASF384
 5253 1d71 01        	.byte0x1
 5254 1d72 7C        	.byte0x7c
 5255 1d73 0000 0050 	.long0x50
 5256 1d77 02        	.uleb128 0x2
 5257 1d78 91        	.byte0x91
 5258 1d79 78        	.sleb128 -8
 5259 1d7a 33        	.uleb128 0x33
 5260 1d7b 0000 0000 	.long.LASF378
 5261 1d7f 01        	.byte0x1
 5262 1d80 7E        	.byte0x7e
 5263 1d81 0000 0086 	.long0x86
 5264 1d85 02        	.uleb128 0x2
 5265 1d86 91        	.byte0x91
 5266 1d87 48        	.sleb128 -56
 5267 1d88 33        	.uleb128 0x33
 5268 1d89 0000 0000 	.long.LASF379
 5269 1d8d 01        	.byte0x1
 5270 1d8e 7F        	.byte0x7f
 5271 1d8f 0000 009F 	.long0x9f
 5272 1d93 02        	.uleb128 0x2
 5273 1d94 91        	.byte0x91
 5274 1d95 44        	.sleb128 -60
 5275 1d96 33        	.uleb128 0x33
 5276 1d97 0000 0000 	.long.LASF380
 5277 1d9b 01        	.byte0x1
 5278 1d9c 80        	.byte0x80
 5279 1d9d 0000 1D27 	.long0x1d27
 5280 1da1 02        	.uleb128 0x2
 5281 1da2 91        	.byte0x91
 5282 1da3 74        	.sleb128 -12
 5283 1da4 00        	.byte0
 5284 1da5 34        	.uleb128 0x34
 5285 1da6 0000 0000 	.long.LASF385
 5286 1daa 01        	.byte0x1
 5287 1dab 5B        	.byte0x5b
 5288 1dac 0000 0A41 	.long0xa41
 5289 1db0 0000 0000 	.long.LFB59
 5290 1db4 0000 0036 	.long.LFE59-.LFB59
68K GAS   			page 122


 5291 1db8 01        	.uleb128 0x1
 5292 1db9 9C        	.byte0x9c
 5293 1dba 33        	.uleb128 0x33
 5294 1dbb 0000 0000 	.long.LASF386
 5295 1dbf 01        	.byte0x1
 5296 1dc0 5D        	.byte0x5d
 5297 1dc1 0000 0A41 	.long0xa41
 5298 1dc5 02        	.uleb128 0x2
 5299 1dc6 91        	.byte0x91
 5300 1dc7 74        	.sleb128 -12
 5301 1dc8 33        	.uleb128 0x33
 5302 1dc9 0000 0000 	.long.LASF387
 5303 1dcd 01        	.byte0x1
 5304 1dce 5E        	.byte0x5e
 5305 1dcf 0000 00F3 	.long0xf3
 5306 1dd3 02        	.uleb128 0x2
 5307 1dd4 91        	.byte0x91
 5308 1dd5 6C        	.sleb128 -20
 5309 1dd6 00        	.byte0
 5310 1dd7 00        	.byte0
 5311               	.section.debug_abbrev,"",@progbits
 5312               	.Ldebug_abbrev0:
 5313 0000 01        	.uleb128 0x1
 5314 0001 11        	.uleb128 0x11
 5315 0002 01        	.byte0x1
 5316 0003 25        	.uleb128 0x25
 5317 0004 0E        	.uleb128 0xe
 5318 0005 13        	.uleb128 0x13
 5319 0006 0B        	.uleb128 0xb
 5320 0007 03        	.uleb128 0x3
 5321 0008 0E        	.uleb128 0xe
 5322 0009 1B        	.uleb128 0x1b
 5323 000a 0E        	.uleb128 0xe
 5324 000b 11        	.uleb128 0x11
 5325 000c 01        	.uleb128 0x1
 5326 000d 12        	.uleb128 0x12
 5327 000e 06        	.uleb128 0x6
 5328 000f 10        	.uleb128 0x10
 5329 0010 17        	.uleb128 0x17
 5330 0011 00        	.byte0
 5331 0012 00        	.byte0
 5332 0013 02        	.uleb128 0x2
 5333 0014 16        	.uleb128 0x16
 5334 0015 00        	.byte0
 5335 0016 03        	.uleb128 0x3
 5336 0017 0E        	.uleb128 0xe
 5337 0018 3A        	.uleb128 0x3a
 5338 0019 0B        	.uleb128 0xb
 5339 001a 3B        	.uleb128 0x3b
 5340 001b 0B        	.uleb128 0xb
 5341 001c 49        	.uleb128 0x49
 5342 001d 13        	.uleb128 0x13
 5343 001e 00        	.byte0
 5344 001f 00        	.byte0
 5345 0020 03        	.uleb128 0x3
 5346 0021 24        	.uleb128 0x24
 5347 0022 00        	.byte0
68K GAS   			page 123


 5348 0023 0B        	.uleb128 0xb
 5349 0024 0B        	.uleb128 0xb
 5350 0025 3E        	.uleb128 0x3e
 5351 0026 0B        	.uleb128 0xb
 5352 0027 03        	.uleb128 0x3
 5353 0028 0E        	.uleb128 0xe
 5354 0029 00        	.byte0
 5355 002a 00        	.byte0
 5356 002b 04        	.uleb128 0x4
 5357 002c 16        	.uleb128 0x16
 5358 002d 00        	.byte0
 5359 002e 03        	.uleb128 0x3
 5360 002f 0E        	.uleb128 0xe
 5361 0030 3A        	.uleb128 0x3a
 5362 0031 0B        	.uleb128 0xb
 5363 0032 3B        	.uleb128 0x3b
 5364 0033 05        	.uleb128 0x5
 5365 0034 49        	.uleb128 0x49
 5366 0035 13        	.uleb128 0x13
 5367 0036 00        	.byte0
 5368 0037 00        	.byte0
 5369 0038 05        	.uleb128 0x5
 5370 0039 26        	.uleb128 0x26
 5371 003a 00        	.byte0
 5372 003b 49        	.uleb128 0x49
 5373 003c 13        	.uleb128 0x13
 5374 003d 00        	.byte0
 5375 003e 00        	.byte0
 5376 003f 06        	.uleb128 0x6
 5377 0040 01        	.uleb128 0x1
 5378 0041 01        	.byte0x1
 5379 0042 49        	.uleb128 0x49
 5380 0043 13        	.uleb128 0x13
 5381 0044 01        	.uleb128 0x1
 5382 0045 13        	.uleb128 0x13
 5383 0046 00        	.byte0
 5384 0047 00        	.byte0
 5385 0048 07        	.uleb128 0x7
 5386 0049 21        	.uleb128 0x21
 5387 004a 00        	.byte0
 5388 004b 49        	.uleb128 0x49
 5389 004c 13        	.uleb128 0x13
 5390 004d 2F        	.uleb128 0x2f
 5391 004e 0B        	.uleb128 0xb
 5392 004f 00        	.byte0
 5393 0050 00        	.byte0
 5394 0051 08        	.uleb128 0x8
 5395 0052 13        	.uleb128 0x13
 5396 0053 01        	.byte0x1
 5397 0054 0B        	.uleb128 0xb
 5398 0055 0B        	.uleb128 0xb
 5399 0056 3A        	.uleb128 0x3a
 5400 0057 0B        	.uleb128 0xb
 5401 0058 3B        	.uleb128 0x3b
 5402 0059 0B        	.uleb128 0xb
 5403 005a 01        	.uleb128 0x1
 5404 005b 13        	.uleb128 0x13
68K GAS   			page 124


 5405 005c 00        	.byte0
 5406 005d 00        	.byte0
 5407 005e 09        	.uleb128 0x9
 5408 005f 0D        	.uleb128 0xd
 5409 0060 00        	.byte0
 5410 0061 03        	.uleb128 0x3
 5411 0062 0E        	.uleb128 0xe
 5412 0063 3A        	.uleb128 0x3a
 5413 0064 0B        	.uleb128 0xb
 5414 0065 3B        	.uleb128 0x3b
 5415 0066 0B        	.uleb128 0xb
 5416 0067 49        	.uleb128 0x49
 5417 0068 13        	.uleb128 0x13
 5418 0069 38        	.uleb128 0x38
 5419 006a 0B        	.uleb128 0xb
 5420 006b 00        	.byte0
 5421 006c 00        	.byte0
 5422 006d 0A        	.uleb128 0xa
 5423 006e 0F        	.uleb128 0xf
 5424 006f 00        	.byte0
 5425 0070 0B        	.uleb128 0xb
 5426 0071 0B        	.uleb128 0xb
 5427 0072 00        	.byte0
 5428 0073 00        	.byte0
 5429 0074 0B        	.uleb128 0xb
 5430 0075 24        	.uleb128 0x24
 5431 0076 00        	.byte0
 5432 0077 0B        	.uleb128 0xb
 5433 0078 0B        	.uleb128 0xb
 5434 0079 3E        	.uleb128 0x3e
 5435 007a 0B        	.uleb128 0xb
 5436 007b 03        	.uleb128 0x3
 5437 007c 08        	.uleb128 0x8
 5438 007d 00        	.byte0
 5439 007e 00        	.byte0
 5440 007f 0C        	.uleb128 0xc
 5441 0080 13        	.uleb128 0x13
 5442 0081 01        	.byte0x1
 5443 0082 03        	.uleb128 0x3
 5444 0083 0E        	.uleb128 0xe
 5445 0084 0B        	.uleb128 0xb
 5446 0085 0B        	.uleb128 0xb
 5447 0086 3A        	.uleb128 0x3a
 5448 0087 0B        	.uleb128 0xb
 5449 0088 3B        	.uleb128 0x3b
 5450 0089 0B        	.uleb128 0xb
 5451 008a 01        	.uleb128 0x1
 5452 008b 13        	.uleb128 0x13
 5453 008c 00        	.byte0
 5454 008d 00        	.byte0
 5455 008e 0D        	.uleb128 0xd
 5456 008f 13        	.uleb128 0x13
 5457 0090 00        	.byte0
 5458 0091 03        	.uleb128 0x3
 5459 0092 0E        	.uleb128 0xe
 5460 0093 3C        	.uleb128 0x3c
 5461 0094 19        	.uleb128 0x19
68K GAS   			page 125


 5462 0095 00        	.byte0
 5463 0096 00        	.byte0
 5464 0097 0E        	.uleb128 0xe
 5465 0098 0F        	.uleb128 0xf
 5466 0099 00        	.byte0
 5467 009a 0B        	.uleb128 0xb
 5468 009b 0B        	.uleb128 0xb
 5469 009c 49        	.uleb128 0x49
 5470 009d 13        	.uleb128 0x13
 5471 009e 00        	.byte0
 5472 009f 00        	.byte0
 5473 00a0 0F        	.uleb128 0xf
 5474 00a1 17        	.uleb128 0x17
 5475 00a2 01        	.byte0x1
 5476 00a3 0B        	.uleb128 0xb
 5477 00a4 0B        	.uleb128 0xb
 5478 00a5 3A        	.uleb128 0x3a
 5479 00a6 0B        	.uleb128 0xb
 5480 00a7 3B        	.uleb128 0x3b
 5481 00a8 0B        	.uleb128 0xb
 5482 00a9 01        	.uleb128 0x1
 5483 00aa 13        	.uleb128 0x13
 5484 00ab 00        	.byte0
 5485 00ac 00        	.byte0
 5486 00ad 10        	.uleb128 0x10
 5487 00ae 0D        	.uleb128 0xd
 5488 00af 00        	.byte0
 5489 00b0 03        	.uleb128 0x3
 5490 00b1 0E        	.uleb128 0xe
 5491 00b2 3A        	.uleb128 0x3a
 5492 00b3 0B        	.uleb128 0xb
 5493 00b4 3B        	.uleb128 0x3b
 5494 00b5 0B        	.uleb128 0xb
 5495 00b6 49        	.uleb128 0x49
 5496 00b7 13        	.uleb128 0x13
 5497 00b8 00        	.byte0
 5498 00b9 00        	.byte0
 5499 00ba 11        	.uleb128 0x11
 5500 00bb 0D        	.uleb128 0xd
 5501 00bc 00        	.byte0
 5502 00bd 03        	.uleb128 0x3
 5503 00be 08        	.uleb128 0x8
 5504 00bf 3A        	.uleb128 0x3a
 5505 00c0 0B        	.uleb128 0xb
 5506 00c1 3B        	.uleb128 0x3b
 5507 00c2 0B        	.uleb128 0xb
 5508 00c3 49        	.uleb128 0x49
 5509 00c4 13        	.uleb128 0x13
 5510 00c5 38        	.uleb128 0x38
 5511 00c6 0B        	.uleb128 0xb
 5512 00c7 00        	.byte0
 5513 00c8 00        	.byte0
 5514 00c9 12        	.uleb128 0x12
 5515 00ca 13        	.uleb128 0x13
 5516 00cb 01        	.byte0x1
 5517 00cc 03        	.uleb128 0x3
 5518 00cd 0E        	.uleb128 0xe
68K GAS   			page 126


 5519 00ce 0B        	.uleb128 0xb
 5520 00cf 05        	.uleb128 0x5
 5521 00d0 3A        	.uleb128 0x3a
 5522 00d1 0B        	.uleb128 0xb
 5523 00d2 3B        	.uleb128 0x3b
 5524 00d3 0B        	.uleb128 0xb
 5525 00d4 01        	.uleb128 0x1
 5526 00d5 13        	.uleb128 0x13
 5527 00d6 00        	.byte0
 5528 00d7 00        	.byte0
 5529 00d8 13        	.uleb128 0x13
 5530 00d9 0D        	.uleb128 0xd
 5531 00da 00        	.byte0
 5532 00db 03        	.uleb128 0x3
 5533 00dc 0E        	.uleb128 0xe
 5534 00dd 3A        	.uleb128 0x3a
 5535 00de 0B        	.uleb128 0xb
 5536 00df 3B        	.uleb128 0x3b
 5537 00e0 0B        	.uleb128 0xb
 5538 00e1 49        	.uleb128 0x49
 5539 00e2 13        	.uleb128 0x13
 5540 00e3 38        	.uleb128 0x38
 5541 00e4 05        	.uleb128 0x5
 5542 00e5 00        	.byte0
 5543 00e6 00        	.byte0
 5544 00e7 14        	.uleb128 0x14
 5545 00e8 15        	.uleb128 0x15
 5546 00e9 00        	.byte0
 5547 00ea 27        	.uleb128 0x27
 5548 00eb 19        	.uleb128 0x19
 5549 00ec 00        	.byte0
 5550 00ed 00        	.byte0
 5551 00ee 15        	.uleb128 0x15
 5552 00ef 15        	.uleb128 0x15
 5553 00f0 01        	.byte0x1
 5554 00f1 27        	.uleb128 0x27
 5555 00f2 19        	.uleb128 0x19
 5556 00f3 49        	.uleb128 0x49
 5557 00f4 13        	.uleb128 0x13
 5558 00f5 01        	.uleb128 0x1
 5559 00f6 13        	.uleb128 0x13
 5560 00f7 00        	.byte0
 5561 00f8 00        	.byte0
 5562 00f9 16        	.uleb128 0x16
 5563 00fa 05        	.uleb128 0x5
 5564 00fb 00        	.byte0
 5565 00fc 49        	.uleb128 0x49
 5566 00fd 13        	.uleb128 0x13
 5567 00fe 00        	.byte0
 5568 00ff 00        	.byte0
 5569 0100 17        	.uleb128 0x17
 5570 0101 13        	.uleb128 0x13
 5571 0102 01        	.byte0x1
 5572 0103 03        	.uleb128 0x3
 5573 0104 0E        	.uleb128 0xe
 5574 0105 0B        	.uleb128 0xb
 5575 0106 05        	.uleb128 0x5
68K GAS   			page 127


 5576 0107 3A        	.uleb128 0x3a
 5577 0108 0B        	.uleb128 0xb
 5578 0109 3B        	.uleb128 0x3b
 5579 010a 05        	.uleb128 0x5
 5580 010b 01        	.uleb128 0x1
 5581 010c 13        	.uleb128 0x13
 5582 010d 00        	.byte0
 5583 010e 00        	.byte0
 5584 010f 18        	.uleb128 0x18
 5585 0110 0D        	.uleb128 0xd
 5586 0111 00        	.byte0
 5587 0112 03        	.uleb128 0x3
 5588 0113 0E        	.uleb128 0xe
 5589 0114 3A        	.uleb128 0x3a
 5590 0115 0B        	.uleb128 0xb
 5591 0116 3B        	.uleb128 0x3b
 5592 0117 05        	.uleb128 0x5
 5593 0118 49        	.uleb128 0x49
 5594 0119 13        	.uleb128 0x13
 5595 011a 38        	.uleb128 0x38
 5596 011b 0B        	.uleb128 0xb
 5597 011c 00        	.byte0
 5598 011d 00        	.byte0
 5599 011e 19        	.uleb128 0x19
 5600 011f 0D        	.uleb128 0xd
 5601 0120 00        	.byte0
 5602 0121 03        	.uleb128 0x3
 5603 0122 0E        	.uleb128 0xe
 5604 0123 3A        	.uleb128 0x3a
 5605 0124 0B        	.uleb128 0xb
 5606 0125 3B        	.uleb128 0x3b
 5607 0126 05        	.uleb128 0x5
 5608 0127 49        	.uleb128 0x49
 5609 0128 13        	.uleb128 0x13
 5610 0129 38        	.uleb128 0x38
 5611 012a 05        	.uleb128 0x5
 5612 012b 00        	.byte0
 5613 012c 00        	.byte0
 5614 012d 1A        	.uleb128 0x1a
 5615 012e 13        	.uleb128 0x13
 5616 012f 01        	.byte0x1
 5617 0130 03        	.uleb128 0x3
 5618 0131 0E        	.uleb128 0xe
 5619 0132 0B        	.uleb128 0xb
 5620 0133 0B        	.uleb128 0xb
 5621 0134 3A        	.uleb128 0x3a
 5622 0135 0B        	.uleb128 0xb
 5623 0136 3B        	.uleb128 0x3b
 5624 0137 05        	.uleb128 0x5
 5625 0138 01        	.uleb128 0x1
 5626 0139 13        	.uleb128 0x13
 5627 013a 00        	.byte0
 5628 013b 00        	.byte0
 5629 013c 1B        	.uleb128 0x1b
 5630 013d 13        	.uleb128 0x13
 5631 013e 01        	.byte0x1
 5632 013f 0B        	.uleb128 0xb
68K GAS   			page 128


 5633 0140 0B        	.uleb128 0xb
 5634 0141 3A        	.uleb128 0x3a
 5635 0142 0B        	.uleb128 0xb
 5636 0143 3B        	.uleb128 0x3b
 5637 0144 05        	.uleb128 0x5
 5638 0145 01        	.uleb128 0x1
 5639 0146 13        	.uleb128 0x13
 5640 0147 00        	.byte0
 5641 0148 00        	.byte0
 5642 0149 1C        	.uleb128 0x1c
 5643 014a 17        	.uleb128 0x17
 5644 014b 01        	.byte0x1
 5645 014c 0B        	.uleb128 0xb
 5646 014d 0B        	.uleb128 0xb
 5647 014e 3A        	.uleb128 0x3a
 5648 014f 0B        	.uleb128 0xb
 5649 0150 3B        	.uleb128 0x3b
 5650 0151 05        	.uleb128 0x5
 5651 0152 01        	.uleb128 0x1
 5652 0153 13        	.uleb128 0x13
 5653 0154 00        	.byte0
 5654 0155 00        	.byte0
 5655 0156 1D        	.uleb128 0x1d
 5656 0157 0D        	.uleb128 0xd
 5657 0158 00        	.byte0
 5658 0159 03        	.uleb128 0x3
 5659 015a 0E        	.uleb128 0xe
 5660 015b 3A        	.uleb128 0x3a
 5661 015c 0B        	.uleb128 0xb
 5662 015d 3B        	.uleb128 0x3b
 5663 015e 05        	.uleb128 0x5
 5664 015f 49        	.uleb128 0x49
 5665 0160 13        	.uleb128 0x13
 5666 0161 00        	.byte0
 5667 0162 00        	.byte0
 5668 0163 1E        	.uleb128 0x1e
 5669 0164 15        	.uleb128 0x15
 5670 0165 01        	.byte0x1
 5671 0166 27        	.uleb128 0x27
 5672 0167 19        	.uleb128 0x19
 5673 0168 01        	.uleb128 0x1
 5674 0169 13        	.uleb128 0x13
 5675 016a 00        	.byte0
 5676 016b 00        	.byte0
 5677 016c 1F        	.uleb128 0x1f
 5678 016d 34        	.uleb128 0x34
 5679 016e 00        	.byte0
 5680 016f 03        	.uleb128 0x3
 5681 0170 0E        	.uleb128 0xe
 5682 0171 3A        	.uleb128 0x3a
 5683 0172 0B        	.uleb128 0xb
 5684 0173 3B        	.uleb128 0x3b
 5685 0174 05        	.uleb128 0x5
 5686 0175 49        	.uleb128 0x49
 5687 0176 13        	.uleb128 0x13
 5688 0177 3F        	.uleb128 0x3f
 5689 0178 19        	.uleb128 0x19
68K GAS   			page 129


 5690 0179 3C        	.uleb128 0x3c
 5691 017a 19        	.uleb128 0x19
 5692 017b 00        	.byte0
 5693 017c 00        	.byte0
 5694 017d 20        	.uleb128 0x20
 5695 017e 34        	.uleb128 0x34
 5696 017f 00        	.byte0
 5697 0180 03        	.uleb128 0x3
 5698 0181 0E        	.uleb128 0xe
 5699 0182 3A        	.uleb128 0x3a
 5700 0183 0B        	.uleb128 0xb
 5701 0184 3B        	.uleb128 0x3b
 5702 0185 0B        	.uleb128 0xb
 5703 0186 49        	.uleb128 0x49
 5704 0187 13        	.uleb128 0x13
 5705 0188 3F        	.uleb128 0x3f
 5706 0189 19        	.uleb128 0x19
 5707 018a 3C        	.uleb128 0x3c
 5708 018b 19        	.uleb128 0x19
 5709 018c 00        	.byte0
 5710 018d 00        	.byte0
 5711 018e 21        	.uleb128 0x21
 5712 018f 15        	.uleb128 0x15
 5713 0190 00        	.byte0
 5714 0191 27        	.uleb128 0x27
 5715 0192 19        	.uleb128 0x19
 5716 0193 49        	.uleb128 0x49
 5717 0194 13        	.uleb128 0x13
 5718 0195 00        	.byte0
 5719 0196 00        	.byte0
 5720 0197 22        	.uleb128 0x22
 5721 0198 04        	.uleb128 0x4
 5722 0199 01        	.byte0x1
 5723 019a 3E        	.uleb128 0x3e
 5724 019b 0B        	.uleb128 0xb
 5725 019c 0B        	.uleb128 0xb
 5726 019d 0B        	.uleb128 0xb
 5727 019e 49        	.uleb128 0x49
 5728 019f 13        	.uleb128 0x13
 5729 01a0 3A        	.uleb128 0x3a
 5730 01a1 0B        	.uleb128 0xb
 5731 01a2 3B        	.uleb128 0x3b
 5732 01a3 0B        	.uleb128 0xb
 5733 01a4 01        	.uleb128 0x1
 5734 01a5 13        	.uleb128 0x13
 5735 01a6 00        	.byte0
 5736 01a7 00        	.byte0
 5737 01a8 23        	.uleb128 0x23
 5738 01a9 28        	.uleb128 0x28
 5739 01aa 00        	.byte0
 5740 01ab 03        	.uleb128 0x3
 5741 01ac 0E        	.uleb128 0xe
 5742 01ad 1C        	.uleb128 0x1c
 5743 01ae 0D        	.uleb128 0xd
 5744 01af 00        	.byte0
 5745 01b0 00        	.byte0
 5746 01b1 24        	.uleb128 0x24
68K GAS   			page 130


 5747 01b2 28        	.uleb128 0x28
 5748 01b3 00        	.byte0
 5749 01b4 03        	.uleb128 0x3
 5750 01b5 0E        	.uleb128 0xe
 5751 01b6 1C        	.uleb128 0x1c
 5752 01b7 0B        	.uleb128 0xb
 5753 01b8 00        	.byte0
 5754 01b9 00        	.byte0
 5755 01ba 25        	.uleb128 0x25
 5756 01bb 0D        	.uleb128 0xd
 5757 01bc 00        	.byte0
 5758 01bd 03        	.uleb128 0x3
 5759 01be 08        	.uleb128 0x8
 5760 01bf 3A        	.uleb128 0x3a
 5761 01c0 0B        	.uleb128 0xb
 5762 01c1 3B        	.uleb128 0x3b
 5763 01c2 0B        	.uleb128 0xb
 5764 01c3 49        	.uleb128 0x49
 5765 01c4 13        	.uleb128 0x13
 5766 01c5 00        	.byte0
 5767 01c6 00        	.byte0
 5768 01c7 26        	.uleb128 0x26
 5769 01c8 13        	.uleb128 0x13
 5770 01c9 01        	.byte0x1
 5771 01ca 0B        	.uleb128 0xb
 5772 01cb 05        	.uleb128 0x5
 5773 01cc 3A        	.uleb128 0x3a
 5774 01cd 0B        	.uleb128 0xb
 5775 01ce 3B        	.uleb128 0x3b
 5776 01cf 0B        	.uleb128 0xb
 5777 01d0 01        	.uleb128 0x1
 5778 01d1 13        	.uleb128 0x13
 5779 01d2 00        	.byte0
 5780 01d3 00        	.byte0
 5781 01d4 27        	.uleb128 0x27
 5782 01d5 13        	.uleb128 0x13
 5783 01d6 01        	.byte0x1
 5784 01d7 0B        	.uleb128 0xb
 5785 01d8 06        	.uleb128 0x6
 5786 01d9 3A        	.uleb128 0x3a
 5787 01da 0B        	.uleb128 0xb
 5788 01db 3B        	.uleb128 0x3b
 5789 01dc 0B        	.uleb128 0xb
 5790 01dd 01        	.uleb128 0x1
 5791 01de 13        	.uleb128 0x13
 5792 01df 00        	.byte0
 5793 01e0 00        	.byte0
 5794 01e1 28        	.uleb128 0x28
 5795 01e2 21        	.uleb128 0x21
 5796 01e3 00        	.byte0
 5797 01e4 49        	.uleb128 0x49
 5798 01e5 13        	.uleb128 0x13
 5799 01e6 2F        	.uleb128 0x2f
 5800 01e7 05        	.uleb128 0x5
 5801 01e8 00        	.byte0
 5802 01e9 00        	.byte0
 5803 01ea 29        	.uleb128 0x29
68K GAS   			page 131


 5804 01eb 0D        	.uleb128 0xd
 5805 01ec 00        	.byte0
 5806 01ed 03        	.uleb128 0x3
 5807 01ee 0E        	.uleb128 0xe
 5808 01ef 3A        	.uleb128 0x3a
 5809 01f0 0B        	.uleb128 0xb
 5810 01f1 3B        	.uleb128 0x3b
 5811 01f2 0B        	.uleb128 0xb
 5812 01f3 49        	.uleb128 0x49
 5813 01f4 13        	.uleb128 0x13
 5814 01f5 38        	.uleb128 0x38
 5815 01f6 06        	.uleb128 0x6
 5816 01f7 00        	.byte0
 5817 01f8 00        	.byte0
 5818 01f9 2A        	.uleb128 0x2a
 5819 01fa 2E        	.uleb128 0x2e
 5820 01fb 01        	.byte0x1
 5821 01fc 3F        	.uleb128 0x3f
 5822 01fd 19        	.uleb128 0x19
 5823 01fe 03        	.uleb128 0x3
 5824 01ff 0E        	.uleb128 0xe
 5825 0200 3A        	.uleb128 0x3a
 5826 0201 0B        	.uleb128 0xb
 5827 0202 3B        	.uleb128 0x3b
 5828 0203 05        	.uleb128 0x5
 5829 0204 27        	.uleb128 0x27
 5830 0205 19        	.uleb128 0x19
 5831 0206 49        	.uleb128 0x49
 5832 0207 13        	.uleb128 0x13
 5833 0208 11        	.uleb128 0x11
 5834 0209 01        	.uleb128 0x1
 5835 020a 12        	.uleb128 0x12
 5836 020b 06        	.uleb128 0x6
 5837 020c 40        	.uleb128 0x40
 5838 020d 18        	.uleb128 0x18
 5839 020e 9742      	.uleb128 0x2117
 5840 0210 19        	.uleb128 0x19
 5841 0211 01        	.uleb128 0x1
 5842 0212 13        	.uleb128 0x13
 5843 0213 00        	.byte0
 5844 0214 00        	.byte0
 5845 0215 2B        	.uleb128 0x2b
 5846 0216 05        	.uleb128 0x5
 5847 0217 00        	.byte0
 5848 0218 03        	.uleb128 0x3
 5849 0219 0E        	.uleb128 0xe
 5850 021a 3A        	.uleb128 0x3a
 5851 021b 0B        	.uleb128 0xb
 5852 021c 3B        	.uleb128 0x3b
 5853 021d 05        	.uleb128 0x5
 5854 021e 49        	.uleb128 0x49
 5855 021f 13        	.uleb128 0x13
 5856 0220 02        	.uleb128 0x2
 5857 0221 18        	.uleb128 0x18
 5858 0222 00        	.byte0
 5859 0223 00        	.byte0
 5860 0224 2C        	.uleb128 0x2c
68K GAS   			page 132


 5861 0225 34        	.uleb128 0x34
 5862 0226 00        	.byte0
 5863 0227 03        	.uleb128 0x3
 5864 0228 08        	.uleb128 0x8
 5865 0229 3A        	.uleb128 0x3a
 5866 022a 0B        	.uleb128 0xb
 5867 022b 3B        	.uleb128 0x3b
 5868 022c 05        	.uleb128 0x5
 5869 022d 49        	.uleb128 0x49
 5870 022e 13        	.uleb128 0x13
 5871 022f 02        	.uleb128 0x2
 5872 0230 18        	.uleb128 0x18
 5873 0231 00        	.byte0
 5874 0232 00        	.byte0
 5875 0233 2D        	.uleb128 0x2d
 5876 0234 2E        	.uleb128 0x2e
 5877 0235 01        	.byte0x1
 5878 0236 3F        	.uleb128 0x3f
 5879 0237 19        	.uleb128 0x19
 5880 0238 03        	.uleb128 0x3
 5881 0239 0E        	.uleb128 0xe
 5882 023a 3A        	.uleb128 0x3a
 5883 023b 0B        	.uleb128 0xb
 5884 023c 3B        	.uleb128 0x3b
 5885 023d 05        	.uleb128 0x5
 5886 023e 27        	.uleb128 0x27
 5887 023f 19        	.uleb128 0x19
 5888 0240 11        	.uleb128 0x11
 5889 0241 01        	.uleb128 0x1
 5890 0242 12        	.uleb128 0x12
 5891 0243 06        	.uleb128 0x6
 5892 0244 40        	.uleb128 0x40
 5893 0245 18        	.uleb128 0x18
 5894 0246 9642      	.uleb128 0x2116
 5895 0248 19        	.uleb128 0x19
 5896 0249 01        	.uleb128 0x1
 5897 024a 13        	.uleb128 0x13
 5898 024b 00        	.byte0
 5899 024c 00        	.byte0
 5900 024d 2E        	.uleb128 0x2e
 5901 024e 34        	.uleb128 0x34
 5902 024f 00        	.byte0
 5903 0250 03        	.uleb128 0x3
 5904 0251 0E        	.uleb128 0xe
 5905 0252 3A        	.uleb128 0x3a
 5906 0253 0B        	.uleb128 0xb
 5907 0254 3B        	.uleb128 0x3b
 5908 0255 05        	.uleb128 0x5
 5909 0256 49        	.uleb128 0x49
 5910 0257 13        	.uleb128 0x13
 5911 0258 02        	.uleb128 0x2
 5912 0259 18        	.uleb128 0x18
 5913 025a 00        	.byte0
 5914 025b 00        	.byte0
 5915 025c 2F        	.uleb128 0x2f
 5916 025d 2E        	.uleb128 0x2e
 5917 025e 01        	.byte0x1
68K GAS   			page 133


 5918 025f 3F        	.uleb128 0x3f
 5919 0260 19        	.uleb128 0x19
 5920 0261 03        	.uleb128 0x3
 5921 0262 0E        	.uleb128 0xe
 5922 0263 3A        	.uleb128 0x3a
 5923 0264 0B        	.uleb128 0xb
 5924 0265 3B        	.uleb128 0x3b
 5925 0266 05        	.uleb128 0x5
 5926 0267 27        	.uleb128 0x27
 5927 0268 19        	.uleb128 0x19
 5928 0269 49        	.uleb128 0x49
 5929 026a 13        	.uleb128 0x13
 5930 026b 11        	.uleb128 0x11
 5931 026c 01        	.uleb128 0x1
 5932 026d 12        	.uleb128 0x12
 5933 026e 06        	.uleb128 0x6
 5934 026f 40        	.uleb128 0x40
 5935 0270 18        	.uleb128 0x18
 5936 0271 9642      	.uleb128 0x2116
 5937 0273 19        	.uleb128 0x19
 5938 0274 01        	.uleb128 0x1
 5939 0275 13        	.uleb128 0x13
 5940 0276 00        	.byte0
 5941 0277 00        	.byte0
 5942 0278 30        	.uleb128 0x30
 5943 0279 2E        	.uleb128 0x2e
 5944 027a 01        	.byte0x1
 5945 027b 3F        	.uleb128 0x3f
 5946 027c 19        	.uleb128 0x19
 5947 027d 03        	.uleb128 0x3
 5948 027e 0E        	.uleb128 0xe
 5949 027f 3A        	.uleb128 0x3a
 5950 0280 0B        	.uleb128 0xb
 5951 0281 3B        	.uleb128 0x3b
 5952 0282 0B        	.uleb128 0xb
 5953 0283 27        	.uleb128 0x27
 5954 0284 19        	.uleb128 0x19
 5955 0285 11        	.uleb128 0x11
 5956 0286 01        	.uleb128 0x1
 5957 0287 12        	.uleb128 0x12
 5958 0288 06        	.uleb128 0x6
 5959 0289 40        	.uleb128 0x40
 5960 028a 18        	.uleb128 0x18
 5961 028b 9642      	.uleb128 0x2116
 5962 028d 19        	.uleb128 0x19
 5963 028e 01        	.uleb128 0x1
 5964 028f 13        	.uleb128 0x13
 5965 0290 00        	.byte0
 5966 0291 00        	.byte0
 5967 0292 31        	.uleb128 0x31
 5968 0293 34        	.uleb128 0x34
 5969 0294 00        	.byte0
 5970 0295 03        	.uleb128 0x3
 5971 0296 08        	.uleb128 0x8
 5972 0297 3A        	.uleb128 0x3a
 5973 0298 0B        	.uleb128 0xb
 5974 0299 3B        	.uleb128 0x3b
68K GAS   			page 134


 5975 029a 0B        	.uleb128 0xb
 5976 029b 49        	.uleb128 0x49
 5977 029c 13        	.uleb128 0x13
 5978 029d 02        	.uleb128 0x2
 5979 029e 18        	.uleb128 0x18
 5980 029f 00        	.byte0
 5981 02a0 00        	.byte0
 5982 02a1 32        	.uleb128 0x32
 5983 02a2 05        	.uleb128 0x5
 5984 02a3 00        	.byte0
 5985 02a4 03        	.uleb128 0x3
 5986 02a5 0E        	.uleb128 0xe
 5987 02a6 3A        	.uleb128 0x3a
 5988 02a7 0B        	.uleb128 0xb
 5989 02a8 3B        	.uleb128 0x3b
 5990 02a9 0B        	.uleb128 0xb
 5991 02aa 49        	.uleb128 0x49
 5992 02ab 13        	.uleb128 0x13
 5993 02ac 02        	.uleb128 0x2
 5994 02ad 18        	.uleb128 0x18
 5995 02ae 00        	.byte0
 5996 02af 00        	.byte0
 5997 02b0 33        	.uleb128 0x33
 5998 02b1 34        	.uleb128 0x34
 5999 02b2 00        	.byte0
 6000 02b3 03        	.uleb128 0x3
 6001 02b4 0E        	.uleb128 0xe
 6002 02b5 3A        	.uleb128 0x3a
 6003 02b6 0B        	.uleb128 0xb
 6004 02b7 3B        	.uleb128 0x3b
 6005 02b8 0B        	.uleb128 0xb
 6006 02b9 49        	.uleb128 0x49
 6007 02ba 13        	.uleb128 0x13
 6008 02bb 02        	.uleb128 0x2
 6009 02bc 18        	.uleb128 0x18
 6010 02bd 00        	.byte0
 6011 02be 00        	.byte0
 6012 02bf 34        	.uleb128 0x34
 6013 02c0 2E        	.uleb128 0x2e
 6014 02c1 01        	.byte0x1
 6015 02c2 3F        	.uleb128 0x3f
 6016 02c3 19        	.uleb128 0x19
 6017 02c4 03        	.uleb128 0x3
 6018 02c5 0E        	.uleb128 0xe
 6019 02c6 3A        	.uleb128 0x3a
 6020 02c7 0B        	.uleb128 0xb
 6021 02c8 3B        	.uleb128 0x3b
 6022 02c9 0B        	.uleb128 0xb
 6023 02ca 27        	.uleb128 0x27
 6024 02cb 19        	.uleb128 0x19
 6025 02cc 49        	.uleb128 0x49
 6026 02cd 13        	.uleb128 0x13
 6027 02ce 11        	.uleb128 0x11
 6028 02cf 01        	.uleb128 0x1
 6029 02d0 12        	.uleb128 0x12
 6030 02d1 06        	.uleb128 0x6
 6031 02d2 40        	.uleb128 0x40
68K GAS   			page 135


 6032 02d3 18        	.uleb128 0x18
 6033 02d4 9642      	.uleb128 0x2116
 6034 02d6 19        	.uleb128 0x19
 6035 02d7 00        	.byte0
 6036 02d8 00        	.byte0
 6037 02d9 00        	.byte0
 6038               	.section.debug_aranges,"",@progbits
 6039 0000 0000 001C 	.long0x1c
 6040 0004 0002      	.word0x2
 6041 0006 0000 0000 	.long.Ldebug_info0
 6042 000a 04        	.byte0x4
 6043 000b 00        	.byte0
 6044 000c 0000      	.word0
 6045 000e 0000      	.word0
 6046 0010 0000 0000 	.long.Ltext0
 6047 0014 0000 0EF8 	.long.Letext0-.Ltext0
 6048 0018 0000 0000 	.long0
 6049 001c 0000 0000 	.long0
 6050               	.section.debug_line,"",@progbits
 6051               	.Ldebug_line0:
 6052 0000 0000 0537 	.section.debug_str,"MS",@progbits,1
 6052      0002 0000 
 6052      0357 0201 
 6052      FB0E 0D00 
 6052      0101 0101 
 6053               	.LASF375:
 6054 0000 4346 455F 	.string"CFE_TIME_InitData"
 6054      5449 4D45 
 6054      5F49 6E69 
 6054      7444 6174 
 6054      6100 
 6055               	.LASF156:
 6056 0012 4346 455F 	.string"CFE_TIME_VALID"
 6056      5449 4D45 
 6056      5F56 414C 
 6056      4944 00
 6057               	.LASF347:
 6058 0021 4469 7265 	.string"Direction"
 6058      6374 696F 
 6058      6E00 
 6059               	.LASF41:
 6060 002b 5F73 7369 	.string"_ssize_t"
 6060      7A65 5F74 
 6060      00
 6061               	.LASF143:
 6062 0034 5F5F 6C6F 	.string"__locale_t"
 6062      6361 6C65 
 6062      5F74 00
 6063               	.LASF330:
 6064 003f 4346 455F 	.string"CFE_EVS_Log_t"
 6064      4556 535F 
 6064      4C6F 675F 
 6064      7400 
 6065               	.LASF46:
 6066 004d 5F5F 7661 	.string"__value"
 6066      6C75 6500 
 6067               	.LASF144:
68K GAS   			page 136


 6068 0055 5F5F 7366 	.string"__sf"
 6068      00
 6069               	.LASF220:
 6070 005a 5469 6D65 	.string"TimeSinceTone"
 6070      5369 6E63 
 6070      6554 6F6E 
 6070      6500 
 6071               	.LASF172:
 6072 0068 4343 5344 	.string"CCSDS_PriHdr_t"
 6072      535F 5072 
 6072      6948 6472 
 6072      5F74 00
 6073               	.LASF81:
 6074 0077 5F72 6561 	.string"_read"
 6074      6400 
 6075               	.LASF265:
 6076 007d 5065 6E64 	.string"PendingLeaps"
 6076      696E 674C 
 6076      6561 7073 
 6076      00
 6077               	.LASF233:
 6078 008a 4F6E 6548 	.string"OneHzAdjust"
 6078      7A41 646A 
 6078      7573 7400 
 6079               	.LASF82:
 6080 0096 5F77 7269 	.string"_write"
 6080      7465 00
 6081               	.LASF319:
 6082 009d 5472 6967 	.string"TriggerMask"
 6082      6765 724D 
 6082      6173 6B00 
 6083               	.LASF169:
 6084 00a9 5374 7265 	.string"StreamId"
 6084      616D 4964 
 6084      00
 6085               	.LASF123:
 6086 00b2 5F61 7363 	.string"_asctime_buf"
 6086      7469 6D65 
 6086      5F62 7566 
 6086      00
 6087               	.LASF259:
 6088 00bf 4D73 6750 	.string"MsgPtr"
 6088      7472 00
 6089               	.LASF108:
 6090 00c6 5F63 7674 	.string"_cvtlen"
 6090      6C65 6E00 
 6091               	.LASF155:
 6092 00ce 4346 455F 	.string"CFE_TIME_INVALID"
 6092      5449 4D45 
 6092      5F49 4E56 
 6092      414C 4944 
 6092      00
 6093               	.LASF206:
 6094 00df 436D 6443 	.string"CmdCounter"
 6094      6F75 6E74 
 6094      6572 00
 6095               	.LASF35:
68K GAS   			page 137


 6096 00ea 5F4D 7574 	.string"_Mutex_Control"
 6096      6578 5F43 
 6096      6F6E 7472 
 6096      6F6C 00
 6097               	.LASF276:
 6098 00f9 4C6F 6361 	.string"LocalSemaphore"
 6098      6C53 656D 
 6098      6170 686F 
 6098      7265 00
 6099               	.LASF147:
 6100 0108 5F67 6C6F 	.string"_global_atexit"
 6100      6261 6C5F 
 6100      6174 6578 
 6100      6974 00
 6101               	.LASF262:
 6102 0117 5069 7065 	.string"PipeDepth"
 6102      4465 7074 
 6102      6800 
 6103               	.LASF11:
 6104 0121 7569 6E74 	.string"uint32"
 6104      3332 00
 6105               	.LASF142:
 6106 0128 5F75 6E75 	.string"_unused"
 6106      7365 6400 
 6107               	.LASF55:
 6108 0130 5F5F 746D 	.string"__tm"
 6108      00
 6109               	.LASF138:
 6110 0135 5F77 6373 	.string"_wcsrtombs_state"
 6110      7274 6F6D 
 6110      6273 5F73 
 6110      7461 7465 
 6110      00
 6111               	.LASF86:
 6112 0146 5F6E 6275 	.string"_nbuf"
 6112      6600 
 6113               	.LASF56:
 6114 014c 5F5F 746D 	.string"__tm_sec"
 6114      5F73 6563 
 6114      00
 6115               	.LASF34:
 6116 0155 5F54 6872 	.string"_Thread_Control"
 6116      6561 645F 
 6116      436F 6E74 
 6116      726F 6C00 
 6117               	.LASF131:
 6118 0165 5F6C 3634 	.string"_l64a_buf"
 6118      615F 6275 
 6118      6600 
 6119               	.LASF342:
 6120 016f 5469 6D65 	.string"TimeResetVars"
 6120      5265 7365 
 6120      7456 6172 
 6120      7300 
 6121               	.LASF380:
 6122 017d 4346 455F 	.string"CFE_TIME_ResetDataPtr"
 6122      5449 4D45 
68K GAS   			page 138


 6122      5F52 6573 
 6122      6574 4461 
 6122      7461 5074 
 6123               	.LASF229:
 6124 0193 4F6E 6554 	.string"OneTimeDirection"
 6124      696D 6544 
 6124      6972 6563 
 6124      7469 6F6E 
 6124      00
 6125               	.LASF362:
 6126 01a4 4346 455F 	.string"CFE_TIME_CleanUpApp"
 6126      5449 4D45 
 6126      5F43 6C65 
 6126      616E 5570 
 6126      4170 7000 
 6127               	.LASF95:
 6128 01b8 5F73 7464 	.string"_stdin"
 6128      696E 00
 6129               	.LASF372:
 6130 01bf 4346 455F 	.string"CFE_TIME_GetHkData"
 6130      5449 4D45 
 6130      5F47 6574 
 6130      486B 4461 
 6130      7461 00
 6131               	.LASF299:
 6132 01d2 4170 7049 	.string"AppID"
 6132      4400 
 6133               	.LASF322:
 6134 01d8 4461 7461 	.string"DataBuffer"
 6134      4275 6666 
 6134      6572 00
 6135               	.LASF339:
 6136 01e3 5379 7374 	.string"SystemLogEntryNum"
 6136      656D 4C6F 
 6136      6745 6E74 
 6136      7279 4E75 
 6136      6D00 
 6137               	.LASF83:
 6138 01f5 5F73 6565 	.string"_seek"
 6138      6B00 
 6139               	.LASF281:
 6140 01fb 5379 6E63 	.string"SynchCallback"
 6140      6843 616C 
 6140      6C62 6163 
 6140      6B00 
 6141               	.LASF288:
 6142 0209 4346 455F 	.string"CFE_ES_DebugVariables_t"
 6142      4553 5F44 
 6142      6562 7567 
 6142      5661 7269 
 6142      6162 6C65 
 6143               	.LASF119:
 6144 0221 5F6D 756C 	.string"_mult"
 6144      7400 
 6145               	.LASF387:
 6146 0227 4C6F 6361 	.string"LocalTime"
 6146      6C54 696D 
68K GAS   			page 139


 6146      6500 
 6147               	.LASF298:
 6148 0231 436F 6E74 	.string"ContextSize"
 6148      6578 7453 
 6148      697A 6500 
 6149               	.LASF344:
 6150 023d 4346 455F 	.string"CFE_ES_ResetData_t"
 6150      4553 5F52 
 6150      6573 6574 
 6150      4461 7461 
 6150      5F74 00
 6151               	.LASF208:
 6152 0250 436C 6F63 	.string"ClockStateFlags"
 6152      6B53 7461 
 6152      7465 466C 
 6152      6167 7300 
 6153               	.LASF186:
 6154 0260 5072 6F63 	.string"ProcessorID"
 6154      6573 736F 
 6154      7249 4400 
 6155               	.LASF308:
 6156 026c 5469 6D65 	.string"TimerTicksPerSecond"
 6156      7254 6963 
 6156      6B73 5065 
 6156      7253 6563 
 6156      6F6E 6400 
 6157               	.LASF271:
 6158 0280 5370 6172 	.string"Spare"
 6158      6500 
 6159               	.LASF43:
 6160 0286 5F5F 7763 	.string"__wch"
 6160      6800 
 6161               	.LASF218:
 6162 028c 4174 546F 	.string"AtToneDelay"
 6162      6E65 4465 
 6162      6C61 7900 
 6163               	.LASF370:
 6164 0298 4346 455F 	.string"CFE_TIME_GetDiagData"
 6164      5449 4D45 
 6164      5F47 6574 
 6164      4469 6167 
 6164      4461 7461 
 6165               	.LASF78:
 6166 02ad 5F66 696C 	.string"_file"
 6166      6500 
 6167               	.LASF165:
 6168 02b3 4375 7272 	.string"CurrentSTCF"
 6168      656E 7453 
 6168      5443 4600 
 6169               	.LASF65:
 6170 02bf 5F6F 6E5F 	.string"_on_exit_args"
 6170      6578 6974 
 6170      5F61 7267 
 6170      7300 
 6171               	.LASF307:
 6172 02cd 456E 6469 	.string"Endian"
 6172      616E 00
68K GAS   			page 140


 6173               	.LASF190:
 6174 02d4 5370 6172 	.string"Spare1"
 6174      6531 00
 6175               	.LASF191:
 6176 02db 5370 6172 	.string"Spare2"
 6176      6532 00
 6177               	.LASF134:
 6178 02e2 5F6D 6272 	.string"_mbrlen_state"
 6178      6C65 6E5F 
 6178      7374 6174 
 6178      6500 
 6179               	.LASF6:
 6180 02f0 6C6F 6E67 	.string"long int"
 6180      2069 6E74 
 6180      00
 6181               	.LASF214:
 6182 02f9 5365 636F 	.string"Seconds1HzAdj"
 6182      6E64 7331 
 6182      487A 4164 
 6182      6A00 
 6183               	.LASF145:
 6184 0307 5F69 6D70 	.string"_impure_ptr"
 6184      7572 655F 
 6184      7074 7200 
 6185               	.LASF105:
 6186 0313 5F72 6573 	.string"_result_k"
 6186      756C 745F 
 6186      6B00 
 6187               	.LASF202:
 6188 031d 4174 546F 	.string"AtToneLeaps"
 6188      6E65 4C65 
 6188      6170 7300 
 6189               	.LASF75:
 6190 0329 5F73 697A 	.string"_size"
 6190      6500 
 6191               	.LASF124:
 6192 032f 5F6C 6F63 	.string"_localtime_buf"
 6192      616C 7469 
 6192      6D65 5F62 
 6192      7566 00
 6193               	.LASF249:
 6194 033e 4D61 784C 	.string"MaxLocalClock"
 6194      6F63 616C 
 6194      436C 6F63 
 6194      6B00 
 6195               	.LASF316:
 6196 034c 496E 7661 	.string"InvalidMarkerReported"
 6196      6C69 644D 
 6196      6172 6B65 
 6196      7252 6570 
 6196      6F72 7465 
 6197               	.LASF178:
 6198 0362 5072 696F 	.string"Priority"
 6198      7269 7479 
 6198      00
 6199               	.LASF181:
 6200 036b 4346 455F 	.string"CFE_SB_Default_Qos"
68K GAS   			page 141


 6200      5342 5F44 
 6200      6566 6175 
 6200      6C74 5F51 
 6200      6F73 00
 6201               	.LASF60:
 6202 037e 5F5F 746D 	.string"__tm_mon"
 6202      5F6D 6F6E 
 6202      00
 6203               	.LASF222:
 6204 0387 4375 7272 	.string"CurrentTAI"
 6204      656E 7454 
 6204      4149 00
 6205               	.LASF167:
 6206 0392 4346 455F 	.string"CFE_TIME_ResetVars_t"
 6206      5449 4D45 
 6206      5F52 6573 
 6206      6574 5661 
 6206      7273 5F74 
 6207               	.LASF263:
 6208 03a7 5065 6E64 	.string"PendingMET"
 6208      696E 674D 
 6208      4554 00
 6209               	.LASF261:
 6210 03b2 5069 7065 	.string"PipeName"
 6210      4E61 6D65 
 6210      00
 6211               	.LASF193:
 6212 03bb 546C 6D48 	.string"TlmHeader"
 6212      6561 6465 
 6212      7200 
 6213               	.LASF283:
 6214 03c5 4346 455F 	.string"CFE_TIME_TaskData"
 6214      5449 4D45 
 6214      5F54 6173 
 6214      6B44 6174 
 6214      6100 
 6215               	.LASF378:
 6216 03d7 7265 7365 	.string"resetAreaSize"
 6216      7441 7265 
 6216      6153 697A 
 6216      6500 
 6217               	.LASF212:
 6218 03e5 5365 636F 	.string"SecondsSTCF"
 6218      6E64 7353 
 6218      5443 4600 
 6219               	.LASF121:
 6220 03f1 5F75 6E75 	.string"_unused_rand"
 6220      7365 645F 
 6220      7261 6E64 
 6220      00
 6221               	.LASF1:
 6222 03fe 7369 676E 	.string"signed char"
 6222      6564 2063 
 6222      6861 7200 
 6223               	.LASF209:
 6224 040a 436C 6F63 	.string"ClockStateAPI"
 6224      6B53 7461 
68K GAS   			page 142


 6224      7465 4150 
 6224      4900 
 6225               	.LASF15:
 6226 0418 626F 6F6C 	.string"boolean"
 6226      6561 6E00 
 6227               	.LASF175:
 6228 0420 4346 455F 	.string"CFE_SB_Msg_t"
 6228      5342 5F4D 
 6228      7367 5F74 
 6228      00
 6229               	.LASF323:
 6230 042d 4346 455F 	.string"CFE_ES_PerfData_t"
 6230      4553 5F50 
 6230      6572 6644 
 6230      6174 615F 
 6230      7400 
 6231               	.LASF194:
 6232 043f 5061 796C 	.string"Payload"
 6232      6F61 6400 
 6233               	.LASF348:
 6234 0447 496E 7446 	.string"IntFlags"
 6234      6C61 6773 
 6234      00
 6235               	.LASF33:
 6236 0450 5F54 6872 	.string"_Thread_queue_Heads"
 6236      6561 645F 
 6236      7175 6575 
 6236      655F 4865 
 6236      6164 7300 
 6237               	.LASF346:
 6238 0464 4E65 7741 	.string"NewAdjust"
 6238      646A 7573 
 6238      7400 
 6239               	.LASF0:
 6240 046e 756E 7369 	.string"unsigned char"
 6240      676E 6564 
 6240      2063 6861 
 6240      7200 
 6241               	.LASF278:
 6242 047c 4C6F 6361 	.string"LocalTaskID"
 6242      6C54 6173 
 6242      6B49 4400 
 6243               	.LASF100:
 6244 0488 5F75 6E73 	.string"_unspecified_locale_info"
 6244      7065 6369 
 6244      6669 6564 
 6244      5F6C 6F63 
 6244      616C 655F 
 6245               	.LASF93:
 6246 04a1 5F72 6565 	.string"_reent"
 6246      6E74 00
 6247               	.LASF146:
 6248 04a8 5F67 6C6F 	.string"_global_impure_ptr"
 6248      6261 6C5F 
 6248      696D 7075 
 6248      7265 5F70 
 6248      7472 00
68K GAS   			page 143


 6249               	.LASF253:
 6250 04bb 4346 455F 	.string"CFE_TIME_DiagPacket_Payload_t"
 6250      5449 4D45 
 6250      5F44 6961 
 6250      6750 6163 
 6250      6B65 745F 
 6251               	.LASF160:
 6252 04d9 4346 455F 	.string"CFE_TIME_A_GT_B"
 6252      5449 4D45 
 6252      5F41 5F47 
 6252      545F 4200 
 6253               	.LASF286:
 6254 04e9 5072 696E 	.string"PrintfEnabledFlag"
 6254      7466 456E 
 6254      6162 6C65 
 6254      6446 6C61 
 6254      6700 
 6255               	.LASF385:
 6256 04fb 4346 455F 	.string"CFE_TIME_LatchClock"
 6256      5449 4D45 
 6256      5F4C 6174 
 6256      6368 436C 
 6256      6F63 6B00 
 6257               	.LASF234:
 6258 050f 546F 6E65 	.string"ToneSignalLatch"
 6258      5369 676E 
 6258      616C 4C61 
 6258      7463 6800 
 6259               	.LASF19:
 6260 051f 4F53 5F74 	.string"OS_time_t"
 6260      696D 655F 
 6260      7400 
 6261               	.LASF389:
 6262 0529 2F68 6F6D 	.string"/home/simulink/cFS_FreeRTOS_seL4/cfe/fsw/cfe-core/src/time/cfe_time_utils.c"
 6262      652F 7369 
 6262      6D75 6C69 
 6262      6E6B 2F63 
 6262      4653 5F46 
 6263               	.LASF28:
 6264 0575 5F54 6872 	.string"_Thread_queue_Queue"
 6264      6561 645F 
 6264      7175 6575 
 6264      655F 5175 
 6264      6575 6500 
 6265               	.LASF199:
 6266 0589 4346 455F 	.string"CFE_TIME_FakeToneCmd_t"
 6266      5449 4D45 
 6266      5F46 616B 
 6266      6554 6F6E 
 6266      6543 6D64 
 6267               	.LASF16:
 6268 05a0 6368 6172 	.string"char"
 6268      00
 6269               	.LASF232:
 6270 05a5 4F6E 6554 	.string"OneTimeAdjust"
 6270      696D 6541 
 6270      646A 7573 
68K GAS   			page 144


 6270      7400 
 6271               	.LASF72:
 6272 05b3 5F66 6E73 	.string"_fns"
 6272      00
 6273               	.LASF157:
 6274 05b8 4346 455F 	.string"CFE_TIME_FLYWHEEL"
 6274      5449 4D45 
 6274      5F46 4C59 
 6274      5748 4545 
 6274      4C00 
 6275               	.LASF84:
 6276 05ca 5F63 6C6F 	.string"_close"
 6276      7365 00
 6277               	.LASF159:
 6278 05d1 4346 455F 	.string"CFE_TIME_EQUAL"
 6278      5449 4D45 
 6278      5F45 5155 
 6278      414C 00
 6279               	.LASF373:
 6280 05e0 4346 455F 	.string"CFE_TIME_GetStateFlags"
 6280      5449 4D45 
 6280      5F47 6574 
 6280      5374 6174 
 6280      6546 6C61 
 6281               	.LASF357:
 6282 05f7 4346 455F 	.string"CFE_TIME_SetTime"
 6282      5449 4D45 
 6282      5F53 6574 
 6282      5469 6D65 
 6282      00
 6283               	.LASF14:
 6284 0608 6370 7561 	.string"cpuaddr"
 6284      6464 7200 
 6285               	.LASF238:
 6286 0610 546F 6E65 	.string"ToneSignalCount"
 6286      5369 676E 
 6286      616C 436F 
 6286      756E 7400 
 6287               	.LASF267:
 6288 0620 496E 7465 	.string"InternalCount"
 6288      726E 616C 
 6288      436F 756E 
 6288      7400 
 6289               	.LASF27:
 6290 062e 5F54 6963 	.string"_Ticket_lock_Control"
 6290      6B65 745F 
 6290      6C6F 636B 
 6290      5F43 6F6E 
 6290      7472 6F6C 
 6291               	.LASF196:
 6292 0643 436D 6448 	.string"CmdHeader"
 6292      6561 6465 
 6292      7200 
 6293               	.LASF371:
 6294 064d 5465 6D70 	.string"TempTime"
 6294      5469 6D65 
 6294      00
68K GAS   			page 145


 6295               	.LASF152:
 6296 0656 5365 636F 	.string"Seconds"
 6296      6E64 7300 
 6297               	.LASF173:
 6298 065e 4477 6F72 	.string"Dword"
 6298      6400 
 6299               	.LASF280:
 6300 0664 4D61 7844 	.string"MaxDelta"
 6300      656C 7461 
 6300      00
 6301               	.LASF243:
 6302 066d 5665 7273 	.string"VersionCount"
 6302      696F 6E43 
 6302      6F75 6E74 
 6302      00
 6303               	.LASF333:
 6304 067a 4552 4C6F 	.string"ERLog"
 6304      6700 
 6305               	.LASF31:
 6306 0680 5F6F 776E 	.string"_owner"
 6306      6572 00
 6307               	.LASF260:
 6308 0687 436D 6450 	.string"CmdPipe"
 6308      6970 6500 
 6309               	.LASF251:
 6310 068f 546F 6E65 	.string"ToneUnderLimit"
 6310      556E 6465 
 6310      724C 696D 
 6310      6974 00
 6311               	.LASF200:
 6312 069e 4174 546F 	.string"AtToneMET"
 6312      6E65 4D45 
 6312      5400 
 6313               	.LASF354:
 6314 06a8 4346 455F 	.string"CFE_TIME_SetSTCF"
 6314      5449 4D45 
 6314      5F53 6574 
 6314      5354 4346 
 6314      00
 6315               	.LASF244:
 6316 06b9 4C6F 6361 	.string"LocalIntCount"
 6316      6C49 6E74 
 6316      436F 756E 
 6316      7400 
 6317               	.LASF321:
 6318 06c7 4D65 7461 	.string"MetaData"
 6318      4461 7461 
 6318      00
 6319               	.LASF207:
 6320 06d0 4572 7243 	.string"ErrCounter"
 6320      6F75 6E74 
 6320      6572 00
 6321               	.LASF359:
 6322 06db 5265 6665 	.string"Reference"
 6322      7265 6E63 
 6322      6500 
 6323               	.LASF242:
68K GAS   			page 146


 6324 06e5 546F 6E65 	.string"ToneTaskCount"
 6324      5461 736B 
 6324      436F 756E 
 6324      7400 
 6325               	.LASF360:
 6326 06f3 4346 455F 	.string"CFE_TIME_SetState"
 6326      5449 4D45 
 6326      5F53 6574 
 6326      5374 6174 
 6326      6500 
 6327               	.LASF287:
 6328 0705 4C61 7374 	.string"LastAppId"
 6328      4170 7049 
 6328      6400 
 6329               	.LASF326:
 6330 070f 4C6F 6746 	.string"LogFullFlag"
 6330      756C 6C46 
 6330      6C61 6700 
 6331               	.LASF151:
 6332 071b 5F74 7A6E 	.string"_tzname"
 6332      616D 6500 
 6333               	.LASF39:
 6334 0723 5F6E 6573 	.string"_nest_level"
 6334      745F 6C65 
 6334      7665 6C00 
 6335               	.LASF163:
 6336 072f 436C 6F63 	.string"ClockSignal"
 6336      6B53 6967 
 6336      6E61 6C00 
 6337               	.LASF336:
 6338 073b 5379 7374 	.string"SystemLog"
 6338      656D 4C6F 
 6338      6700 
 6339               	.LASF80:
 6340 0745 5F63 6F6F 	.string"_cookie"
 6340      6B69 6500 
 6341               	.LASF54:
 6342 074d 5F77 6473 	.string"_wds"
 6342      00
 6343               	.LASF226:
 6344 0752 436C 6F63 	.string"ClockSource"
 6344      6B53 6F75 
 6344      7263 6500 
 6345               	.LASF225:
 6346 075e 436C 6F63 	.string"ClockFlyState"
 6346      6B46 6C79 
 6346      5374 6174 
 6346      6500 
 6347               	.LASF291:
 6348 076c 5265 7365 	.string"ResetSubtype"
 6348      7453 7562 
 6348      7479 7065 
 6348      00
 6349               	.LASF111:
 6350 0779 5F73 6967 	.string"_sig_func"
 6350      5F66 756E 
 6350      6300 
68K GAS   			page 147


 6351               	.LASF88:
 6352 0783 5F6F 6666 	.string"_offset"
 6352      7365 7400 
 6353               	.LASF379:
 6354 078b 7265 7365 	.string"resetAreaAddr"
 6354      7441 7265 
 6354      6141 6464 
 6354      7200 
 6355               	.LASF109:
 6356 0799 5F63 7674 	.string"_cvtbuf"
 6356      6275 6600 
 6357               	.LASF250:
 6358 07a1 546F 6E65 	.string"ToneOverLimit"
 6358      4F76 6572 
 6358      4C69 6D69 
 6358      7400 
 6359               	.LASF24:
 6360 07af 5F6E 6578 	.string"_next_ticket"
 6360      745F 7469 
 6360      636B 6574 
 6360      00
 6361               	.LASF168:
 6362 07bc 4346 455F 	.string"CFE_TIME_SynchCallbackPtr_t"
 6362      5449 4D45 
 6362      5F53 796E 
 6362      6368 4361 
 6362      6C6C 6261 
 6363               	.LASF338:
 6364 07d8 5379 7374 	.string"SystemLogMode"
 6364      656D 4C6F 
 6364      674D 6F64 
 6364      6500 
 6365               	.LASF106:
 6366 07e6 5F70 3573 	.string"_p5s"
 6366      00
 6367               	.LASF12:
 6368 07eb 6C6F 6E67 	.string"long unsigned int"
 6368      2075 6E73 
 6368      6967 6E65 
 6368      6420 696E 
 6368      7400 
 6369               	.LASF303:
 6370 07fd 5469 6D65 	.string"TimerUpper32"
 6370      7255 7070 
 6370      6572 3332 
 6370      00
 6371               	.LASF274:
 6372 080a 546F 6E65 	.string"ToneDataCmd"
 6372      4461 7461 
 6372      436D 6400 
 6373               	.LASF343:
 6374 0816 4556 535F 	.string"EVS_Log"
 6374      4C6F 6700 
 6375               	.LASF76:
 6376 081e 5F5F 7346 	.string"__sFILE"
 6376      494C 4500 
 6377               	.LASF102:
68K GAS   			page 148


 6378 0826 5F5F 7364 	.string"__sdidinit"
 6378      6964 696E 
 6378      6974 00
 6379               	.LASF92:
 6380 0831 5F66 6C61 	.string"_flags2"
 6380      6773 3200 
 6381               	.LASF294:
 6382 0839 4D61 7850 	.string"MaxProcessorResetCount"
 6382      726F 6365 
 6382      7373 6F72 
 6382      5265 7365 
 6382      7443 6F75 
 6383               	.LASF201:
 6384 0850 4174 546F 	.string"AtToneSTCF"
 6384      6E65 5354 
 6384      4346 00
 6385               	.LASF40:
 6386 085b 5F4C 4F43 	.string"_LOCK_RECURSIVE_T"
 6386      4B5F 5245 
 6386      4355 5253 
 6386      4956 455F 
 6386      5400 
 6387               	.LASF325:
 6388 086d 4C6F 6743 	.string"LogCount"
 6388      6F75 6E74 
 6388      00
 6389               	.LASF215:
 6390 0876 5375 6273 	.string"Subsecs1HzAdj"
 6390      6563 7331 
 6390      487A 4164 
 6390      6A00 
 6391               	.LASF94:
 6392 0884 5F65 7272 	.string"_errno"
 6392      6E6F 00
 6393               	.LASF166:
 6394 088b 4375 7272 	.string"CurrentDelay"
 6394      656E 7444 
 6394      656C 6179 
 6394      00
 6395               	.LASF132:
 6396 0898 5F73 6967 	.string"_signal_buf"
 6396      6E61 6C5F 
 6396      6275 6600 
 6397               	.LASF189:
 6398 08a4 4D65 7373 	.string"Message"
 6398      6167 6500 
 6399               	.LASF351:
 6400 08ac 4E65 7753 	.string"NewSTCF"
 6400      5443 4600 
 6401               	.LASF50:
 6402 08b4 5F42 6967 	.string"_Bigint"
 6402      696E 7400 
 6403               	.LASF264:
 6404 08bc 5065 6E64 	.string"PendingSTCF"
 6404      696E 6753 
 6404      5443 4600 
 6405               	.LASF52:
68K GAS   			page 149


 6406 08c8 5F6D 6178 	.string"_maxwds"
 6406      7764 7300 
 6407               	.LASF103:
 6408 08d0 5F5F 636C 	.string"__cleanup"
 6408      6561 6E75 
 6408      7000 
 6409               	.LASF277:
 6410 08da 546F 6E65 	.string"ToneSemaphore"
 6410      5365 6D61 
 6410      7068 6F72 
 6410      6500 
 6411               	.LASF327:
 6412 08e8 4C6F 674D 	.string"LogMode"
 6412      6F64 6500 
 6413               	.LASF256:
 6414 08f0 4346 455F 	.string"CFE_TIME_SynchCallbackRegEntry_t"
 6414      5449 4D45 
 6414      5F53 796E 
 6414      6368 4361 
 6414      6C6C 6261 
 6415               	.LASF162:
 6416 0911 4C65 6170 	.string"LeapSeconds"
 6416      5365 636F 
 6416      6E64 7300 
 6417               	.LASF188:
 6418 091d 5061 636B 	.string"PacketID"
 6418      6574 4944 
 6418      00
 6419               	.LASF317:
 6420 0926 4669 6C74 	.string"FilterTriggerMaskSize"
 6420      6572 5472 
 6420      6967 6765 
 6420      724D 6173 
 6420      6B53 697A 
 6421               	.LASF99:
 6422 093c 5F65 6D65 	.string"_emergency"
 6422      7267 656E 
 6422      6379 00
 6423               	.LASF195:
 6424 0947 4346 455F 	.string"CFE_EVS_Packet_t"
 6424      4556 535F 
 6424      5061 636B 
 6424      6574 5F74 
 6424      00
 6425               	.LASF7:
 6426 0958 6C6F 6E67 	.string"long long int"
 6426      206C 6F6E 
 6426      6720 696E 
 6426      7400 
 6427               	.LASF205:
 6428 0966 4346 455F 	.string"CFE_TIME_ToneDataCmd_t"
 6428      5449 4D45 
 6428      5F54 6F6E 
 6428      6544 6174 
 6428      6143 6D64 
 6429               	.LASF236:
 6430 097d 546F 6E65 	.string"ToneMatchCount"
68K GAS   			page 150


 6430      4D61 7463 
 6430      6843 6F75 
 6430      6E74 00
 6431               	.LASF306:
 6432 098c 5665 7273 	.string"Version"
 6432      696F 6E00 
 6433               	.LASF115:
 6434 0994 5F6E 696F 	.string"_niobs"
 6434      6273 00
 6435               	.LASF275:
 6436 099b 546F 6E65 	.string"ToneSignalCmd"
 6436      5369 676E 
 6436      616C 436D 
 6436      6400 
 6437               	.LASF335:
 6438 09a9 4552 4C6F 	.string"ERLogEntries"
 6438      6745 6E74 
 6438      7269 6573 
 6438      00
 6439               	.LASF112:
 6440 09b6 5F5F 7367 	.string"__sglue"
 6440      6C75 6500 
 6441               	.LASF227:
 6442 09be 5365 7276 	.string"ServerFlyState"
 6442      6572 466C 
 6442      7953 7461 
 6442      7465 00
 6443               	.LASF309:
 6444 09cd 5469 6D65 	.string"TimerLow32Rollover"
 6444      724C 6F77 
 6444      3332 526F 
 6444      6C6C 6F76 
 6444      6572 00
 6445               	.LASF141:
 6446 09e0 5F6E 6D61 	.string"_nmalloc"
 6446      6C6C 6F63 
 6446      00
 6447               	.LASF381:
 6448 09e9 4346 455F 	.string"CFE_TIME_QueryResetVars"
 6448      5449 4D45 
 6448      5F51 7565 
 6448      7279 5265 
 6448      7365 7456 
 6449               	.LASF125:
 6450 0a01 5F67 616D 	.string"_gamma_signgam"
 6450      6D61 5F73 
 6450      6967 6E67 
 6450      616D 00
 6451               	.LASF107:
 6452 0a10 5F66 7265 	.string"_freelist"
 6452      656C 6973 
 6452      7400 
 6453               	.LASF350:
 6454 0a1a 4346 455F 	.string"CFE_TIME_SetAdjust"
 6454      5449 4D45 
 6454      5F53 6574 
 6454      4164 6A75 
68K GAS   			page 151


 6454      7374 00
 6455               	.LASF116:
 6456 0a2d 5F69 6F62 	.string"_iobs"
 6456      7300 
 6457               	.LASF197:
 6458 0a33 4346 455F 	.string"CFE_TIME_1HzCmd_t"
 6458      5449 4D45 
 6458      5F31 487A 
 6458      436D 645F 
 6458      7400 
 6459               	.LASF114:
 6460 0a45 5F67 6C75 	.string"_glue"
 6460      6500 
 6461               	.LASF53:
 6462 0a4b 5F73 6967 	.string"_sign"
 6462      6E00 
 6463               	.LASF290:
 6464 0a51 5265 7365 	.string"ResetType"
 6464      7454 7970 
 6464      6500 
 6465               	.LASF320:
 6466 0a5b 4346 455F 	.string"CFE_ES_PerfMetaData_t"
 6466      4553 5F50 
 6466      6572 664D 
 6466      6574 6144 
 6466      6174 615F 
 6467               	.LASF282:
 6468 0a71 4346 455F 	.string"CFE_TIME_TaskData_t"
 6468      5449 4D45 
 6468      5F54 6173 
 6468      6B44 6174 
 6468      615F 7400 
 6469               	.LASF17:
 6470 0a85 7365 636F 	.string"seconds"
 6470      6E64 7300 
 6471               	.LASF364:
 6472 0a8d 436C 6F63 	.string"ClockState"
 6472      6B53 7461 
 6472      7465 00
 6473               	.LASF329:
 6474 0a98 4C6F 6745 	.string"LogEntry"
 6474      6E74 7279 
 6474      00
 6475               	.LASF246:
 6476 0aa1 5669 7274 	.string"VirtualMET"
 6476      7561 6C4D 
 6476      4554 00
 6477               	.LASF26:
 6478 0aac 756E 7369 	.string"unsigned int"
 6478      676E 6564 
 6478      2069 6E74 
 6478      00
 6479               	.LASF149:
 6480 0ab9 5F74 696D 	.string"_timezone"
 6480      657A 6F6E 
 6480      6500 
 6481               	.LASF292:
68K GAS   			page 152


 6482 0ac3 426F 6F74 	.string"BootSource"
 6482      536F 7572 
 6482      6365 00
 6483               	.LASF361:
 6484 0ace 4E65 7753 	.string"NewState"
 6484      7461 7465 
 6484      00
 6485               	.LASF305:
 6486 0ad7 4346 455F 	.string"CFE_ES_PerfDataEntry_t"
 6486      4553 5F50 
 6486      6572 6644 
 6486      6174 6145 
 6486      6E74 7279 
 6487               	.LASF139:
 6488 0aee 5F68 5F65 	.string"_h_errno"
 6488      7272 6E6F 
 6488      00
 6489               	.LASF340:
 6490 0af7 5065 7266 	.string"Perf"
 6490      00
 6491               	.LASF332:
 6492 0afc 4346 455F 	.string"CFE_ES_ResetVariables_t"
 6492      4553 5F52 
 6492      6573 6574 
 6492      5661 7269 
 6492      6162 6C65 
 6493               	.LASF137:
 6494 0b14 5F77 6372 	.string"_wcrtomb_state"
 6494      746F 6D62 
 6494      5F73 7461 
 6494      7465 00
 6495               	.LASF269:
 6496 0b23 4175 746F 	.string"AutoStartFly"
 6496      5374 6172 
 6496      7446 6C79 
 6496      00
 6497               	.LASF59:
 6498 0b30 5F5F 746D 	.string"__tm_mday"
 6498      5F6D 6461 
 6498      7900 
 6499               	.LASF110:
 6500 0b3a 5F6E 6577 	.string"_new"
 6500      00
 6501               	.LASF32:
 6502 0b3f 5F6E 616D 	.string"_name"
 6502      6500 
 6503               	.LASF85:
 6504 0b45 5F75 6275 	.string"_ubuf"
 6504      6600 
 6505               	.LASF179:
 6506 0b4b 5265 6C69 	.string"Reliability"
 6506      6162 696C 
 6506      6974 7900 
 6507               	.LASF97:
 6508 0b57 5F73 7464 	.string"_stderr"
 6508      6572 7200 
 6509               	.LASF358:
68K GAS   			page 153


 6510 0b5f 4E65 7754 	.string"NewTime"
 6510      696D 6500 
 6511               	.LASF130:
 6512 0b67 5F77 6374 	.string"_wctomb_state"
 6512      6F6D 625F 
 6512      7374 6174 
 6512      6500 
 6513               	.LASF91:
 6514 0b75 5F6D 6273 	.string"_mbstate"
 6514      7461 7465 
 6514      00
 6515               	.LASF126:
 6516 0b7e 5F72 616E 	.string"_rand_next"
 6516      645F 6E65 
 6516      7874 00
 6517               	.LASF77:
 6518 0b89 5F66 6C61 	.string"_flags"
 6518      6773 00
 6519               	.LASF70:
 6520 0b90 5F61 7465 	.string"_atexit"
 6520      7869 7400 
 6521               	.LASF153:
 6522 0b98 5375 6273 	.string"Subseconds"
 6522      6563 6F6E 
 6522      6473 00
 6523               	.LASF216:
 6524 0ba3 4346 455F 	.string"CFE_TIME_HkPacket_Payload_t"
 6524      5449 4D45 
 6524      5F48 6B50 
 6524      6163 6B65 
 6524      745F 5061 
 6525               	.LASF45:
 6526 0bbf 5F5F 636F 	.string"__count"
 6526      756E 7400 
 6527               	.LASF334:
 6528 0bc7 4552 4C6F 	.string"ERLogIndex"
 6528      6749 6E64 
 6528      6578 00
 6529               	.LASF248:
 6530 0bd2 4D61 7845 	.string"MaxElapsed"
 6530      6C61 7073 
 6530      6564 00
 6531               	.LASF217:
 6532 0bdd 4346 455F 	.string"CFE_TIME_HkPacket_t"
 6532      5449 4D45 
 6532      5F48 6B50 
 6532      6163 6B65 
 6532      745F 7400 
 6533               	.LASF198:
 6534 0bf1 4346 455F 	.string"CFE_TIME_ToneSignalCmd_t"
 6534      5449 4D45 
 6534      5F54 6F6E 
 6534      6553 6967 
 6534      6E61 6C43 
 6535               	.LASF62:
 6536 0c0a 5F5F 746D 	.string"__tm_wday"
 6536      5F77 6461 
68K GAS   			page 154


 6536      7900 
 6537               	.LASF266:
 6538 0c14 5065 6E64 	.string"PendingState"
 6538      696E 6753 
 6538      7461 7465 
 6538      00
 6539               	.LASF174:
 6540 0c21 4279 7465 	.string"Byte"
 6540      00
 6541               	.LASF369:
 6542 0c26 4346 455F 	.string"CFE_TIME_GetReference"
 6542      5449 4D45 
 6542      5F47 6574 
 6542      5265 6665 
 6542      7265 6E63 
 6543               	.LASF21:
 6544 0c3c 6C6F 6E67 	.string"long double"
 6544      2064 6F75 
 6544      626C 6500 
 6545               	.LASF63:
 6546 0c48 5F5F 746D 	.string"__tm_yday"
 6546      5F79 6461 
 6546      7900 
 6547               	.LASF255:
 6548 0c52 4346 455F 	.string"CFE_TIME_Reference_t"
 6548      5449 4D45 
 6548      5F52 6566 
 6548      6572 656E 
 6548      6365 5F74 
 6549               	.LASF37:
 6550 0c67 5F4D 7574 	.string"_Mutex_recursive_Control"
 6550      6578 5F72 
 6550      6563 7572 
 6550      7369 7665 
 6550      5F43 6F6E 
 6551               	.LASF311:
 6552 0c80 4D6F 6465 	.string"Mode"
 6552      00
 6553               	.LASF30:
 6554 0c85 5F68 6561 	.string"_heads"
 6554      6473 00
 6555               	.LASF118:
 6556 0c8c 5F73 6565 	.string"_seed"
 6556      6400 
 6557               	.LASF36:
 6558 0c92 5F51 7565 	.string"_Queue"
 6558      7565 00
 6559               	.LASF254:
 6560 0c99 4346 455F 	.string"CFE_TIME_DiagPacket_t"
 6560      5449 4D45 
 6560      5F44 6961 
 6560      6750 6163 
 6560      6B65 745F 
 6561               	.LASF272:
 6562 0caf 4C6F 6361 	.string"Local1HzCmd"
 6562      6C31 487A 
 6562      436D 6400 
68K GAS   			page 155


 6563               	.LASF331:
 6564 0cbb 4553 5F43 	.string"ES_CausedReset"
 6564      6175 7365 
 6564      6452 6573 
 6564      6574 00
 6565               	.LASF23:
 6566 0cca 5F66 706F 	.string"_fpos_t"
 6566      735F 7400 
 6567               	.LASF44:
 6568 0cd2 5F5F 7763 	.string"__wchb"
 6568      6862 00
 6569               	.LASF129:
 6570 0cd9 5F6D 6274 	.string"_mbtowc_state"
 6570      6F77 635F 
 6570      7374 6174 
 6570      6500 
 6571               	.LASF365:
 6572 0ce7 4346 455F 	.string"CFE_TIME_CalculateUTC"
 6572      5449 4D45 
 6572      5F43 616C 
 6572      6375 6C61 
 6572      7465 5554 
 6573               	.LASF237:
 6574 0cfd 546F 6E65 	.string"ToneMatchErrors"
 6574      4D61 7463 
 6574      6845 7272 
 6574      6F72 7300 
 6575               	.LASF13:
 6576 0d0d 6C6F 6E67 	.string"long long unsigned int"
 6576      206C 6F6E 
 6576      6720 756E 
 6576      7369 676E 
 6576      6564 2069 
 6577               	.LASF235:
 6578 0d24 546F 6E65 	.string"ToneDataLatch"
 6578      4461 7461 
 6578      4C61 7463 
 6578      6800 
 6579               	.LASF67:
 6580 0d32 5F64 736F 	.string"_dso_handle"
 6580      5F68 616E 
 6580      646C 6500 
 6581               	.LASF376:
 6582 0d3e 4346 455F 	.string"CFE_TIME_UpdateResetVars"
 6582      5449 4D45 
 6582      5F55 7064 
 6582      6174 6552 
 6582      6573 6574 
 6583               	.LASF377:
 6584 0d57 4C6F 6361 	.string"LocalResetVars"
 6584      6C52 6573 
 6584      6574 5661 
 6584      7273 00
 6585               	.LASF117:
 6586 0d66 5F72 616E 	.string"_rand48"
 6586      6434 3800 
 6587               	.LASF96:
68K GAS   			page 156


 6588 0d6e 5F73 7464 	.string"_stdout"
 6588      6F75 7400 
 6589               	.LASF310:
 6590 0d76 5374 6174 	.string"State"
 6590      6500 
 6591               	.LASF87:
 6592 0d7c 5F62 6C6B 	.string"_blksize"
 6592      7369 7A65 
 6592      00
 6593               	.LASF304:
 6594 0d85 5469 6D65 	.string"TimerLower32"
 6594      724C 6F77 
 6594      6572 3332 
 6594      00
 6595               	.LASF74:
 6596 0d92 5F62 6173 	.string"_base"
 6596      6500 
 6597               	.LASF315:
 6598 0d98 4461 7461 	.string"DataCount"
 6598      436F 756E 
 6598      7400 
 6599               	.LASF363:
 6600 0da2 4346 455F 	.string"CFE_TIME_CalculateState"
 6600      5449 4D45 
 6600      5F43 616C 
 6600      6375 6C61 
 6600      7465 5374 
 6601               	.LASF239:
 6602 0dba 546F 6E65 	.string"ToneDataCount"
 6602      4461 7461 
 6602      436F 756E 
 6602      7400 
 6603               	.LASF122:
 6604 0dc8 5F73 7472 	.string"_strtok_last"
 6604      746F 6B5F 
 6604      6C61 7374 
 6604      00
 6605               	.LASF352:
 6606 0dd5 4346 455F 	.string"CFE_TIME_SetLeaps"
 6606      5449 4D45 
 6606      5F53 6574 
 6606      4C65 6170 
 6606      7300 
 6607               	.LASF382:
 6608 0de7 4465 6653 	.string"DefSubsMET"
 6608      7562 734D 
 6608      4554 00
 6609               	.LASF135:
 6610 0df2 5F6D 6272 	.string"_mbrtowc_state"
 6610      746F 7763 
 6610      5F73 7461 
 6610      7465 00
 6611               	.LASF318:
 6612 0e01 4669 6C74 	.string"FilterMask"
 6612      6572 4D61 
 6612      736B 00
 6613               	.LASF18:
68K GAS   			page 157


 6614 0e0c 6D69 6372 	.string"microsecs"
 6614      6F73 6563 
 6614      7300 
 6615               	.LASF164:
 6616 0e16 4375 7272 	.string"CurrentMET"
 6616      656E 744D 
 6616      4554 00
 6617               	.LASF48:
 6618 0e21 5F66 6C6F 	.string"_flock_t"
 6618      636B 5F74 
 6618      00
 6619               	.LASF356:
 6620 0e2a 4E65 774D 	.string"NewMET"
 6620      4554 00
 6621               	.LASF245:
 6622 0e31 4C6F 6361 	.string"LocalTaskCount"
 6622      6C54 6173 
 6622      6B43 6F75 
 6622      6E74 00
 6623               	.LASF113:
 6624 0e40 5F5F 4649 	.string"__FILE"
 6624      4C45 00
 6625               	.LASF90:
 6626 0e47 5F6C 6F63 	.string"_lock"
 6626      6B00 
 6627               	.LASF345:
 6628 0e4d 4170 7049 	.string"AppId"
 6628      6400 
 6629               	.LASF47:
 6630 0e53 5F6D 6273 	.string"_mbstate_t"
 6630      7461 7465 
 6630      5F74 00
 6631               	.LASF349:
 6632 0e5e 4346 455F 	.string"CFE_TIME_Set1HzAdj"
 6632      5449 4D45 
 6632      5F53 6574 
 6632      3148 7A41 
 6632      646A 00
 6633               	.LASF241:
 6634 0e71 546F 6E65 	.string"ToneIntErrors"
 6634      496E 7445 
 6634      7272 6F72 
 6634      7300 
 6635               	.LASF127:
 6636 0e7f 5F72 3438 	.string"_r48"
 6636      00
 6637               	.LASF171:
 6638 0e84 4C65 6E67 	.string"Length"
 6638      7468 00
 6639               	.LASF42:
 6640 0e8b 7769 6E74 	.string"wint_t"
 6640      5F74 00
 6641               	.LASF2:
 6642 0e92 6F73 616C 	.string"osalbool"
 6642      626F 6F6C 
 6642      00
 6643               	.LASF51:
68K GAS   			page 158


 6644 0e9b 5F6E 6578 	.string"_next"
 6644      7400 
 6645               	.LASF89:
 6646 0ea1 5F64 6174 	.string"_data"
 6646      6100 
 6647               	.LASF204:
 6648 0ea7 4346 455F 	.string"CFE_TIME_ToneDataCmd_Payload_t"
 6648      5449 4D45 
 6648      5F54 6F6E 
 6648      6544 6174 
 6648      6143 6D64 
 6649               	.LASF284:
 6650 0ec6 4465 6275 	.string"DebugFlag"
 6650      6746 6C61 
 6650      6700 
 6651               	.LASF203:
 6652 0ed0 4174 546F 	.string"AtToneState"
 6652      6E65 5374 
 6652      6174 6500 
 6653               	.LASF270:
 6654 0edc 4973 546F 	.string"IsToneGood"
 6654      6E65 476F 
 6654      6F64 00
 6655               	.LASF279:
 6656 0ee7 546F 6E65 	.string"ToneTaskID"
 6656      5461 736B 
 6656      4944 00
 6657               	.LASF158:
 6658 0ef2 4346 455F 	.string"CFE_TIME_A_LT_B"
 6658      5449 4D45 
 6658      5F41 5F4C 
 6658      545F 4200 
 6659               	.LASF312:
 6660 0f02 5472 6967 	.string"TriggerCount"
 6660      6765 7243 
 6660      6F75 6E74 
 6660      00
 6661               	.LASF176:
 6662 0f0f 4346 455F 	.string"CFE_SB_PipeId_t"
 6662      5342 5F50 
 6662      6970 6549 
 6662      645F 7400 
 6663               	.LASF161:
 6664 0f1f 5369 676E 	.string"Signature"
 6664      6174 7572 
 6664      6500 
 6665               	.LASF337:
 6666 0f29 5379 7374 	.string"SystemLogIndex"
 6666      656D 4C6F 
 6666      6749 6E64 
 6666      6578 00
 6667               	.LASF38:
 6668 0f38 5F4D 7574 	.string"_Mutex"
 6668      6578 00
 6669               	.LASF314:
 6670 0f3f 4461 7461 	.string"DataEnd"
 6670      456E 6400 
68K GAS   			page 159


 6671               	.LASF240:
 6672 0f47 546F 6E65 	.string"ToneIntCount"
 6672      496E 7443 
 6672      6F75 6E74 
 6672      00
 6673               	.LASF366:
 6674 0f54 5469 6D65 	.string"TimeAsUTC"
 6674      4173 5554 
 6674      4300 
 6675               	.LASF293:
 6676 0f5e 5072 6F63 	.string"ProcessorResetCount"
 6676      6573 736F 
 6676      7252 6573 
 6676      6574 436F 
 6676      756E 7400 
 6677               	.LASF328:
 6678 0f72 4C6F 674F 	.string"LogOverflowCounter"
 6678      7665 7266 
 6678      6C6F 7743 
 6678      6F75 6E74 
 6678      6572 00
 6679               	.LASF8:
 6680 0f85 7569 6E74 	.string"uint8"
 6680      3800 
 6681               	.LASF390:
 6682 0f8b 2F68 6F6D 	.string"/home/simulink/cFS_FreeRTOS_seL4/build/cpu1/cfe/time"
 6682      652F 7369 
 6682      6D75 6C69 
 6682      6E6B 2F63 
 6682      4653 5F46 
 6683               	.LASF182:
 6684 0fc0 4170 704E 	.string"AppName"
 6684      616D 6500 
 6685               	.LASF324:
 6686 0fc8 4E65 7874 	.string"Next"
 6686      00
 6687               	.LASF302:
 6688 0fcd 4461 7461 	.string"Data"
 6688      00
 6689               	.LASF128:
 6690 0fd2 5F6D 626C 	.string"_mblen_state"
 6690      656E 5F73 
 6690      7461 7465 
 6690      00
 6691               	.LASF4:
 6692 0fdf 7368 6F72 	.string"short int"
 6692      7420 696E 
 6692      7400 
 6693               	.LASF184:
 6694 0fe9 4576 656E 	.string"EventType"
 6694      7454 7970 
 6694      6500 
 6695               	.LASF355:
 6696 0ff3 4346 455F 	.string"CFE_TIME_SetMET"
 6696      5449 4D45 
 6696      5F53 6574 
 6696      4D45 5400 
68K GAS   			page 160


 6697               	.LASF252:
 6698 1003 4461 7461 	.string"DataStoreStatus"
 6698      5374 6F72 
 6698      6553 7461 
 6698      7475 7300 
 6699               	.LASF148:
 6700 1013 7375 626F 	.string"suboptarg"
 6700      7074 6172 
 6700      6700 
 6701               	.LASF223:
 6702 101d 4375 7272 	.string"CurrentUTC"
 6702      656E 7455 
 6702      5443 00
 6703               	.LASF68:
 6704 1028 5F66 6E74 	.string"_fntypes"
 6704      7970 6573 
 6704      00
 6705               	.LASF61:
 6706 1031 5F5F 746D 	.string"__tm_year"
 6706      5F79 6561 
 6706      7200 
 6707               	.LASF183:
 6708 103b 4576 656E 	.string"EventID"
 6708      7449 4400 
 6709               	.LASF268:
 6710 1043 4578 7465 	.string"ExternalCount"
 6710      726E 616C 
 6710      436F 756E 
 6710      7400 
 6711               	.LASF221:
 6712 1051 4375 7272 	.string"CurrentLatch"
 6712      656E 744C 
 6712      6174 6368 
 6712      00
 6713               	.LASF367:
 6714 105e 4346 455F 	.string"CFE_TIME_CalculateTAI"
 6714      5449 4D45 
 6714      5F43 616C 
 6714      6375 6C61 
 6714      7465 5441 
 6715               	.LASF79:
 6716 1074 5F6C 6266 	.string"_lbfsize"
 6716      7369 7A65 
 6716      00
 6717               	.LASF98:
 6718 107d 5F69 6E63 	.string"_inc"
 6718      00
 6719               	.LASF71:
 6720 1082 5F69 6E64 	.string"_ind"
 6720      00
 6721               	.LASF247:
 6722 1087 4D69 6E45 	.string"MinElapsed"
 6722      6C61 7073 
 6722      6564 00
 6723               	.LASF20:
 6724 1092 5F5F 696E 	.string"__int64_t"
 6724      7436 345F 
68K GAS   			page 161


 6724      7400 
 6725               	.LASF313:
 6726 109c 4461 7461 	.string"DataStart"
 6726      5374 6172 
 6726      7400 
 6727               	.LASF3:
 6728 10a6 696E 7431 	.string"int16"
 6728      3600 
 6729               	.LASF73:
 6730 10ac 5F5F 7362 	.string"__sbuf"
 6730      7566 00
 6731               	.LASF69:
 6732 10b3 5F69 735F 	.string"_is_cxa"
 6732      6378 6100 
 6733               	.LASF154:
 6734 10bb 4346 455F 	.string"CFE_TIME_SysTime_t"
 6734      5449 4D45 
 6734      5F53 7973 
 6734      5469 6D65 
 6734      5F74 00
 6735               	.LASF383:
 6736 10ce 4465 6653 	.string"DefSubsSTCF"
 6736      7562 7353 
 6736      5443 4600 
 6737               	.LASF140:
 6738 10da 5F6E 6578 	.string"_nextf"
 6738      7466 00
 6739               	.LASF296:
 6740 10e1 5469 6D65 	.string"TimeCode"
 6740      436F 6465 
 6740      00
 6741               	.LASF210:
 6742 10ea 5365 636F 	.string"SecondsMET"
 6742      6E64 734D 
 6742      4554 00
 6743               	.LASF301:
 6744 10f5 4346 455F 	.string"CFE_ES_ERLog_t"
 6744      4553 5F45 
 6744      524C 6F67 
 6744      5F74 00
 6745               	.LASF384:
 6746 1104 7374 6174 	.string"status"
 6746      7573 00
 6747               	.LASF192:
 6748 110b 4346 455F 	.string"CFE_EVS_Packet_Payload_t"
 6748      4556 535F 
 6748      5061 636B 
 6748      6574 5F50 
 6748      6179 6C6F 
 6749               	.LASF224:
 6750 1124 436C 6F63 	.string"ClockSetState"
 6750      6B53 6574 
 6750      5374 6174 
 6750      6500 
 6751               	.LASF101:
 6752 1132 5F6C 6F63 	.string"_locale"
 6752      616C 6500 
68K GAS   			page 162


 6753               	.LASF49:
 6754 113a 5F5F 554C 	.string"__ULong"
 6754      6F6E 6700 
 6755               	.LASF386:
 6756 1142 4C61 7463 	.string"LatchTime"
 6756      6854 696D 
 6756      6500 
 6757               	.LASF228:
 6758 114c 466F 7263 	.string"Forced2Fly"
 6758      6564 3246 
 6758      6C79 00
 6759               	.LASF297:
 6760 1157 4465 7363 	.string"Description"
 6760      7269 7074 
 6760      696F 6E00 
 6761               	.LASF104:
 6762 1163 5F72 6573 	.string"_result"
 6762      756C 7400 
 6763               	.LASF29:
 6764 116b 5F4C 6F63 	.string"_Lock"
 6764      6B00 
 6765               	.LASF25:
 6766 1171 5F6E 6F77 	.string"_now_serving"
 6766      5F73 6572 
 6766      7669 6E67 
 6766      00
 6767               	.LASF230:
 6768 117e 4F6E 6548 	.string"OneHzDirection"
 6768      7A44 6972 
 6768      6563 7469 
 6768      6F6E 00
 6769               	.LASF258:
 6770 118d 4469 6167 	.string"DiagPacket"
 6770      5061 636B 
 6770      6574 00
 6771               	.LASF213:
 6772 1198 5375 6273 	.string"SubsecsSTCF"
 6772      6563 7353 
 6772      5443 4600 
 6773               	.LASF257:
 6774 11a4 486B 5061 	.string"HkPacket"
 6774      636B 6574 
 6774      00
 6775               	.LASF22:
 6776 11ad 5F6F 6666 	.string"_off_t"
 6776      5F74 00
 6777               	.LASF120:
 6778 11b4 5F61 6464 	.string"_add"
 6778      00
 6779               	.LASF388:
 6780 11b9 474E 5520 	.string"GNU C11 7.3.0 20180125 (RTEMS 5, RSB d2b25d131d55adcb38219f2cd8cbec2436ee78ab, Newlib 3.0.0) -malign-int -mcpu=528x -g -O0 -fomit-frame-pointer"
 6780      4331 3120 
 6780      372E 332E 
 6780      3020 3230 
 6780      3138 3031 
 6781               	.LASF10:
 6782 1249 7368 6F72 	.string"short unsigned int"
68K GAS   			page 163


 6782      7420 756E 
 6782      7369 676E 
 6782      6564 2069 
 6782      6E74 00
 6783               	.LASF58:
 6784 125c 5F5F 746D 	.string"__tm_hour"
 6784      5F68 6F75 
 6784      7200 
 6785               	.LASF289:
 6786 1266 4C6F 6745 	.string"LogEntryType"
 6786      6E74 7279 
 6786      5479 7065 
 6786      00
 6787               	.LASF273:
 6788 1273 4661 6B65 	.string"FakeToneCmd"
 6788      546F 6E65 
 6788      436D 6400 
 6789               	.LASF185:
 6790 127f 5370 6163 	.string"SpacecraftID"
 6790      6563 7261 
 6790      6674 4944 
 6790      00
 6791               	.LASF5:
 6792 128c 696E 7433 	.string"int32"
 6792      3200 
 6793               	.LASF170:
 6794 1292 5365 7175 	.string"Sequence"
 6794      656E 6365 
 6794      00
 6795               	.LASF136:
 6796 129b 5F6D 6273 	.string"_mbsrtowcs_state"
 6796      7274 6F77 
 6796      6373 5F73 
 6796      7461 7465 
 6796      00
 6797               	.LASF374:
 6798 12ac 5374 6174 	.string"StateFlags"
 6798      6546 6C61 
 6798      6773 00
 6799               	.LASF353:
 6800 12b7 4E65 774C 	.string"NewLeaps"
 6800      6561 7073 
 6800      00
 6801               	.LASF211:
 6802 12c0 5375 6273 	.string"SubsecsMET"
 6802      6563 734D 
 6802      4554 00
 6803               	.LASF187:
 6804 12cb 4346 455F 	.string"CFE_EVS_PacketID_t"
 6804      4556 535F 
 6804      5061 636B 
 6804      6574 4944 
 6804      5F74 00
 6805               	.LASF66:
 6806 12de 5F66 6E61 	.string"_fnargs"
 6806      7267 7300 
 6807               	.LASF64:
68K GAS   			page 164


 6808 12e6 5F5F 746D 	.string"__tm_isdst"
 6808      5F69 7364 
 6808      7374 00
 6809               	.LASF295:
 6810 12f1 4465 6275 	.string"DebugVars"
 6810      6756 6172 
 6810      7300 
 6811               	.LASF300:
 6812 12fb 436F 6E74 	.string"Context"
 6812      6578 7400 
 6813               	.LASF368:
 6814 1303 5469 6D65 	.string"TimeAsTAI"
 6814      4173 5441 
 6814      4900 
 6815               	.LASF285:
 6816 130d 5761 7463 	.string"WatchdogWriteFlag"
 6816      6864 6F67 
 6816      5772 6974 
 6816      6546 6C61 
 6816      6700 
 6817               	.LASF231:
 6818 131f 4465 6C61 	.string"DelayDirection"
 6818      7944 6972 
 6818      6563 7469 
 6818      6F6E 00
 6819               	.LASF150:
 6820 132e 5F64 6179 	.string"_daylight"
 6820      6C69 6768 
 6820      7400 
 6821               	.LASF177:
 6822 1338 4346 455F 	.string"CFE_SB_MsgPtr_t"
 6822      5342 5F4D 
 6822      7367 5074 
 6822      725F 7400 
 6823               	.LASF57:
 6824 1348 5F5F 746D 	.string"__tm_min"
 6824      5F6D 696E 
 6824      00
 6825               	.LASF341:
 6826 1351 5265 7365 	.string"ResetVars"
 6826      7456 6172 
 6826      7300 
 6827               	.LASF9:
 6828 135b 7569 6E74 	.string"uint16"
 6828      3136 00
 6829               	.LASF133:
 6830 1362 5F67 6574 	.string"_getdate_err"
 6830      6461 7465 
 6830      5F65 7272 
 6830      00
 6831               	.LASF180:
 6832 136f 4346 455F 	.string"CFE_SB_Qos_t"
 6832      5342 5F51 
 6832      6F73 5F74 
 6832      00
 6833               	.LASF219:
 6834 137c 4174 546F 	.string"AtToneLatch"
68K GAS   			page 165


 6834      6E65 4C61 
 6834      7463 6800 
 6835               	.ident"GCC: (GNU) 7.3.0 20180125 (RTEMS 5, RSB d2b25d131d55adcb38219f2cd8cbec2436ee78ab, Newlib 3.0.0)"
68K GAS   			page 166


DEFINED SYMBOLS
                            *ABS*:0000000000000000 cfe_time_utils.c
    {standard input}:9      .text:0000000000000000 CFE_TIME_LatchClock
    {standard input}:46     .text:0000000000000036 CFE_TIME_QueryResetVars
    {standard input}:211    .text:00000000000001b6 CFE_TIME_UpdateResetVars
    {standard input}:310    .text:000000000000028e CFE_TIME_InitData
    {standard input}:569    .text:000000000000051a CFE_TIME_GetStateFlags
    {standard input}:691    .text:000000000000061e CFE_TIME_GetHkData
    {standard input}:1180   .text:0000000000000ba8 CFE_TIME_CalculateState
    {standard input}:747    .text:00000000000006b6 CFE_TIME_GetDiagData
    {standard input}:955    .text:000000000000097c CFE_TIME_GetReference
    {standard input}:1108   .text:0000000000000b2e CFE_TIME_CalculateTAI
    {standard input}:1140   .text:0000000000000b62 CFE_TIME_CalculateUTC
    {standard input}:1223   .text:0000000000000be4 CFE_TIME_SetState
    {standard input}:1290   .text:0000000000000c60 CFE_TIME_SetTime
    {standard input}:1345   .text:0000000000000cd0 CFE_TIME_SetMET
    {standard input}:1387   .text:0000000000000d28 CFE_TIME_SetSTCF
    {standard input}:1422   .text:0000000000000d64 CFE_TIME_SetLeaps
    {standard input}:1457   .text:0000000000000d9e CFE_TIME_SetAdjust
    {standard input}:1534   .text:0000000000000e5a CFE_TIME_Set1HzAdj
    {standard input}:1574   .text:0000000000000ea8 CFE_TIME_CleanUpApp

UNDEFINED SYMBOLS
CFE_PSP_GetTime
CFE_TIME_Micro2SubSecs
CFE_PSP_GetResetArea
CFE_TIME_TaskData
CFE_SB_InitMsg
CFE_TIME_Compare
CFE_TIME_Subtract
CFE_TIME_Add
OS_IntLock
OS_IntUnlock
