68K GAS   			page 1


   1               	
   2               	.file"cfe_time_tone.c"
   3               	.text
   4               	.Ltext0:
   5               	.cfi_sections.debug_frame
   6               	.align2
   7               	.globlCFE_TIME_ToneSend
   8               	.typeCFE_TIME_ToneSend, @function
   9               	CFE_TIME_ToneSend:
  10               	.LFB59:
  11               	.file 1 "/home/simulink/cFS_FreeRTOS_seL4/cfe/fsw/cfe-core/src/time/cfe_time_tone.c"
   1:/home/simulink/cFS_FreeRTOS_seL4/cfe/fsw/cfe-core/src/time/cfe_time_tone.c **** /*
   2:/home/simulink/cFS_FreeRTOS_seL4/cfe/fsw/cfe-core/src/time/cfe_time_tone.c **** ** $Id: cfe_time_tone.c 1.11 2012/02/08 14:32:39GMT-05:00 jmdagost Exp  $
   3:/home/simulink/cFS_FreeRTOS_seL4/cfe/fsw/cfe-core/src/time/cfe_time_tone.c **** **
   4:/home/simulink/cFS_FreeRTOS_seL4/cfe/fsw/cfe-core/src/time/cfe_time_tone.c **** **
   5:/home/simulink/cFS_FreeRTOS_seL4/cfe/fsw/cfe-core/src/time/cfe_time_tone.c **** **
   6:/home/simulink/cFS_FreeRTOS_seL4/cfe/fsw/cfe-core/src/time/cfe_time_tone.c **** **      Copyright (c) 2004-2012, United States government as represented by the 
   7:/home/simulink/cFS_FreeRTOS_seL4/cfe/fsw/cfe-core/src/time/cfe_time_tone.c **** **      administrator of the National Aeronautics Space Administration.  
   8:/home/simulink/cFS_FreeRTOS_seL4/cfe/fsw/cfe-core/src/time/cfe_time_tone.c **** **      All rights reserved. This software(cFE) was created at NASA's Goddard 
   9:/home/simulink/cFS_FreeRTOS_seL4/cfe/fsw/cfe-core/src/time/cfe_time_tone.c **** **      Space Flight Center pursuant to government contracts.
  10:/home/simulink/cFS_FreeRTOS_seL4/cfe/fsw/cfe-core/src/time/cfe_time_tone.c **** **
  11:/home/simulink/cFS_FreeRTOS_seL4/cfe/fsw/cfe-core/src/time/cfe_time_tone.c **** **      This is governed by the NASA Open Source Agreement and may be used, 
  12:/home/simulink/cFS_FreeRTOS_seL4/cfe/fsw/cfe-core/src/time/cfe_time_tone.c **** **      distributed and modified only pursuant to the terms of that agreement.
  13:/home/simulink/cFS_FreeRTOS_seL4/cfe/fsw/cfe-core/src/time/cfe_time_tone.c **** ** 
  14:/home/simulink/cFS_FreeRTOS_seL4/cfe/fsw/cfe-core/src/time/cfe_time_tone.c **** **
  15:/home/simulink/cFS_FreeRTOS_seL4/cfe/fsw/cfe-core/src/time/cfe_time_tone.c **** **
  16:/home/simulink/cFS_FreeRTOS_seL4/cfe/fsw/cfe-core/src/time/cfe_time_tone.c **** **
  17:/home/simulink/cFS_FreeRTOS_seL4/cfe/fsw/cfe-core/src/time/cfe_time_tone.c **** ** Purpose:  cFE Time Services (TIME) library utilities source file
  18:/home/simulink/cFS_FreeRTOS_seL4/cfe/fsw/cfe-core/src/time/cfe_time_tone.c **** **
  19:/home/simulink/cFS_FreeRTOS_seL4/cfe/fsw/cfe-core/src/time/cfe_time_tone.c **** ** Author:   S.Walling/Microtel
  20:/home/simulink/cFS_FreeRTOS_seL4/cfe/fsw/cfe-core/src/time/cfe_time_tone.c **** **
  21:/home/simulink/cFS_FreeRTOS_seL4/cfe/fsw/cfe-core/src/time/cfe_time_tone.c **** ** Notes:    This module was created from a portion of the source file
  22:/home/simulink/cFS_FreeRTOS_seL4/cfe/fsw/cfe-core/src/time/cfe_time_tone.c **** **           "cfe_time_utils.c" because that file had grown too large.
  23:/home/simulink/cFS_FreeRTOS_seL4/cfe/fsw/cfe-core/src/time/cfe_time_tone.c **** **
  24:/home/simulink/cFS_FreeRTOS_seL4/cfe/fsw/cfe-core/src/time/cfe_time_tone.c **** **           This module contains functions related to the detection
  25:/home/simulink/cFS_FreeRTOS_seL4/cfe/fsw/cfe-core/src/time/cfe_time_tone.c **** **           and processing of the "time at the tone" event signal.
  26:/home/simulink/cFS_FreeRTOS_seL4/cfe/fsw/cfe-core/src/time/cfe_time_tone.c **** **
  27:/home/simulink/cFS_FreeRTOS_seL4/cfe/fsw/cfe-core/src/time/cfe_time_tone.c **** **           This module contains functions related to the detection
  28:/home/simulink/cFS_FreeRTOS_seL4/cfe/fsw/cfe-core/src/time/cfe_time_tone.c **** **           and processing of the local 1Hz interrupt.
  29:/home/simulink/cFS_FreeRTOS_seL4/cfe/fsw/cfe-core/src/time/cfe_time_tone.c **** **
  30:/home/simulink/cFS_FreeRTOS_seL4/cfe/fsw/cfe-core/src/time/cfe_time_tone.c **** ** $Log: cfe_time_tone.c  $
  31:/home/simulink/cFS_FreeRTOS_seL4/cfe/fsw/cfe-core/src/time/cfe_time_tone.c **** ** Revision 1.11 2012/02/08 14:32:39GMT-05:00 jmdagost 
  32:/home/simulink/cFS_FreeRTOS_seL4/cfe/fsw/cfe-core/src/time/cfe_time_tone.c **** ** Replaced additional ifdefs with if preprocessor statements (missed in previous attempt).
  33:/home/simulink/cFS_FreeRTOS_seL4/cfe/fsw/cfe-core/src/time/cfe_time_tone.c **** ** Revision 1.10 2012/01/13 12:21:35EST acudmore 
  34:/home/simulink/cFS_FreeRTOS_seL4/cfe/fsw/cfe-core/src/time/cfe_time_tone.c **** ** Changed license text to reflect open source
  35:/home/simulink/cFS_FreeRTOS_seL4/cfe/fsw/cfe-core/src/time/cfe_time_tone.c **** ** Revision 1.9 2011/11/30 15:10:05EST jmdagost 
  36:/home/simulink/cFS_FreeRTOS_seL4/cfe/fsw/cfe-core/src/time/cfe_time_tone.c **** ** Replaced ifdef/ifndef preprocessor tests with if...==TRUE/if...!=TRUE tests
  37:/home/simulink/cFS_FreeRTOS_seL4/cfe/fsw/cfe-core/src/time/cfe_time_tone.c **** ** Revision 1.8 2011/01/18 16:05:44EST lwalling 
  38:/home/simulink/cFS_FreeRTOS_seL4/cfe/fsw/cfe-core/src/time/cfe_time_tone.c **** ** Make sending 1hz command packet a configuration option
  39:/home/simulink/cFS_FreeRTOS_seL4/cfe/fsw/cfe-core/src/time/cfe_time_tone.c **** ** Revision 1.7 2010/10/04 17:04:52EDT jmdagost 
  40:/home/simulink/cFS_FreeRTOS_seL4/cfe/fsw/cfe-core/src/time/cfe_time_tone.c **** ** Cleaned up copyright symbol.
  41:/home/simulink/cFS_FreeRTOS_seL4/cfe/fsw/cfe-core/src/time/cfe_time_tone.c **** ** Revision 1.6 2009/06/11 17:32:03EDT lwalling 
  42:/home/simulink/cFS_FreeRTOS_seL4/cfe/fsw/cfe-core/src/time/cfe_time_tone.c **** ** Handle invalid time data due to unchanging time latch values
  43:/home/simulink/cFS_FreeRTOS_seL4/cfe/fsw/cfe-core/src/time/cfe_time_tone.c **** ** Revision 1.5 2009/06/10 09:23:05EDT acudmore 
  44:/home/simulink/cFS_FreeRTOS_seL4/cfe/fsw/cfe-core/src/time/cfe_time_tone.c **** ** Changed OS_Mem* and OS_BSP* calls to CFE_PSP_* calls
  45:/home/simulink/cFS_FreeRTOS_seL4/cfe/fsw/cfe-core/src/time/cfe_time_tone.c **** ** Revision 1.4 2009/05/26 11:53:31EDT lwalling 
  46:/home/simulink/cFS_FreeRTOS_seL4/cfe/fsw/cfe-core/src/time/cfe_time_tone.c **** ** Modify API interface to increment ExternalCount from external ToneSend functions
68K GAS   			page 2


  47:/home/simulink/cFS_FreeRTOS_seL4/cfe/fsw/cfe-core/src/time/cfe_time_tone.c **** ** Revision 1.3 2008/08/06 22:42:34EDT dkobe 
  48:/home/simulink/cFS_FreeRTOS_seL4/cfe/fsw/cfe-core/src/time/cfe_time_tone.c **** ** Added CFE_TIME_RegisterSynchCallback, CFE_TIME_UnregisterSynchCallback and CFE_TIME_CleanUpApp
  49:/home/simulink/cFS_FreeRTOS_seL4/cfe/fsw/cfe-core/src/time/cfe_time_tone.c **** ** Revision 1.2 2008/07/31 15:41:36EDT apcudmore 
  50:/home/simulink/cFS_FreeRTOS_seL4/cfe/fsw/cfe-core/src/time/cfe_time_tone.c **** ** Added execution counter API:
  51:/home/simulink/cFS_FreeRTOS_seL4/cfe/fsw/cfe-core/src/time/cfe_time_tone.c **** **   -- Added execution counter to ES internal task data
  52:/home/simulink/cFS_FreeRTOS_seL4/cfe/fsw/cfe-core/src/time/cfe_time_tone.c **** **   -- Added code to increment counter in RunLoop
  53:/home/simulink/cFS_FreeRTOS_seL4/cfe/fsw/cfe-core/src/time/cfe_time_tone.c **** **   -- Added code to report counter in GetInfo APIs
  54:/home/simulink/cFS_FreeRTOS_seL4/cfe/fsw/cfe-core/src/time/cfe_time_tone.c **** **   -- Added API to increment counter for child tasks
  55:/home/simulink/cFS_FreeRTOS_seL4/cfe/fsw/cfe-core/src/time/cfe_time_tone.c **** **   -- Added code to cFE Core apps to increment counters.
  56:/home/simulink/cFS_FreeRTOS_seL4/cfe/fsw/cfe-core/src/time/cfe_time_tone.c **** ** Revision 1.1 2008/04/17 08:05:39EDT ruperera 
  57:/home/simulink/cFS_FreeRTOS_seL4/cfe/fsw/cfe-core/src/time/cfe_time_tone.c **** ** Initial revision
  58:/home/simulink/cFS_FreeRTOS_seL4/cfe/fsw/cfe-core/src/time/cfe_time_tone.c **** ** Member added to project c:/MKSDATA/MKS-REPOSITORY/MKS-CFE-PROJECT/fsw/cfe-core/src/time/project.
  59:/home/simulink/cFS_FreeRTOS_seL4/cfe/fsw/cfe-core/src/time/cfe_time_tone.c **** ** Revision 1.16 2007/04/24 08:59:04EDT njyanchik 
  60:/home/simulink/cFS_FreeRTOS_seL4/cfe/fsw/cfe-core/src/time/cfe_time_tone.c **** ** I added the changes tha LRO requested. They are specified in the DCR text.
  61:/home/simulink/cFS_FreeRTOS_seL4/cfe/fsw/cfe-core/src/time/cfe_time_tone.c **** ** Revision 1.15 2007/04/09 14:56:52EDT rjmcgraw 
  62:/home/simulink/cFS_FreeRTOS_seL4/cfe/fsw/cfe-core/src/time/cfe_time_tone.c **** ** Changed performance ids to include CFE_
  63:/home/simulink/cFS_FreeRTOS_seL4/cfe/fsw/cfe-core/src/time/cfe_time_tone.c **** ** Revision 1.14 2007/04/04 08:14:52EDT njyanchik 
  64:/home/simulink/cFS_FreeRTOS_seL4/cfe/fsw/cfe-core/src/time/cfe_time_tone.c **** ** In DCR 3190, two API's were changed in the OSAL for locking out interrupts. This 
  65:/home/simulink/cFS_FreeRTOS_seL4/cfe/fsw/cfe-core/src/time/cfe_time_tone.c **** ** change package changes TIME's and ES's use of those APIs
  66:/home/simulink/cFS_FreeRTOS_seL4/cfe/fsw/cfe-core/src/time/cfe_time_tone.c **** ** Revision 1.13 2007/03/15 11:16:53EST njyanchik 
  67:/home/simulink/cFS_FreeRTOS_seL4/cfe/fsw/cfe-core/src/time/cfe_time_tone.c **** ** I changed the interrupt enable/disable pair to use a lock key that records the 
  68:/home/simulink/cFS_FreeRTOS_seL4/cfe/fsw/cfe-core/src/time/cfe_time_tone.c **** ** previous state of the interrupts before disabling, and then use that key to 
  69:/home/simulink/cFS_FreeRTOS_seL4/cfe/fsw/cfe-core/src/time/cfe_time_tone.c **** ** re-enable the interrupts. The CFE core applications that use this pair were also 
  70:/home/simulink/cFS_FreeRTOS_seL4/cfe/fsw/cfe-core/src/time/cfe_time_tone.c **** ** fixed for this API change.
  71:/home/simulink/cFS_FreeRTOS_seL4/cfe/fsw/cfe-core/src/time/cfe_time_tone.c **** ** Revision 1.12 2007/03/07 12:03:36EST njyanchik 
  72:/home/simulink/cFS_FreeRTOS_seL4/cfe/fsw/cfe-core/src/time/cfe_time_tone.c **** ** There were errors in the previous change package, so I fixed them
  73:/home/simulink/cFS_FreeRTOS_seL4/cfe/fsw/cfe-core/src/time/cfe_time_tone.c **** ** Revision 1.11 2007/03/07 10:54:23EST njyanchik 
  74:/home/simulink/cFS_FreeRTOS_seL4/cfe/fsw/cfe-core/src/time/cfe_time_tone.c **** ** I added a IsToneGood bit to the information that CFE_TIME_GetClockInfo function  
  75:/home/simulink/cFS_FreeRTOS_seL4/cfe/fsw/cfe-core/src/time/cfe_time_tone.c **** ** returns. The decison on a 'good' tone is made in the 1Hz ISR. If the tone is about
  76:/home/simulink/cFS_FreeRTOS_seL4/cfe/fsw/cfe-core/src/time/cfe_time_tone.c **** ** 1 second after the previous one, it is still considered good, otherwise, the tone 
  77:/home/simulink/cFS_FreeRTOS_seL4/cfe/fsw/cfe-core/src/time/cfe_time_tone.c **** ** is not good.
  78:/home/simulink/cFS_FreeRTOS_seL4/cfe/fsw/cfe-core/src/time/cfe_time_tone.c **** **
  79:/home/simulink/cFS_FreeRTOS_seL4/cfe/fsw/cfe-core/src/time/cfe_time_tone.c **** */
  80:/home/simulink/cFS_FreeRTOS_seL4/cfe/fsw/cfe-core/src/time/cfe_time_tone.c **** 
  81:/home/simulink/cFS_FreeRTOS_seL4/cfe/fsw/cfe-core/src/time/cfe_time_tone.c **** 
  82:/home/simulink/cFS_FreeRTOS_seL4/cfe/fsw/cfe-core/src/time/cfe_time_tone.c **** /*
  83:/home/simulink/cFS_FreeRTOS_seL4/cfe/fsw/cfe-core/src/time/cfe_time_tone.c **** ** Required header files...
  84:/home/simulink/cFS_FreeRTOS_seL4/cfe/fsw/cfe-core/src/time/cfe_time_tone.c **** */
  85:/home/simulink/cFS_FreeRTOS_seL4/cfe/fsw/cfe-core/src/time/cfe_time_tone.c **** #include "cfe_time_utils.h"
  86:/home/simulink/cFS_FreeRTOS_seL4/cfe/fsw/cfe-core/src/time/cfe_time_tone.c **** 
  87:/home/simulink/cFS_FreeRTOS_seL4/cfe/fsw/cfe-core/src/time/cfe_time_tone.c **** 
  88:/home/simulink/cFS_FreeRTOS_seL4/cfe/fsw/cfe-core/src/time/cfe_time_tone.c **** /* * * * * * * * * * * * * * * * * * * * * * * * * * * * * * * * * */
  89:/home/simulink/cFS_FreeRTOS_seL4/cfe/fsw/cfe-core/src/time/cfe_time_tone.c **** /*                                                                 */
  90:/home/simulink/cFS_FreeRTOS_seL4/cfe/fsw/cfe-core/src/time/cfe_time_tone.c **** /* CFE_TIME_ToneSend() -- Send "time at the tone" (local time)     */
  91:/home/simulink/cFS_FreeRTOS_seL4/cfe/fsw/cfe-core/src/time/cfe_time_tone.c **** /*                                                                 */
  92:/home/simulink/cFS_FreeRTOS_seL4/cfe/fsw/cfe-core/src/time/cfe_time_tone.c **** /* There is a presumption that this function will be called at     */
  93:/home/simulink/cFS_FreeRTOS_seL4/cfe/fsw/cfe-core/src/time/cfe_time_tone.c **** /*    the appropriate time (relative to the tone) such that the    */
  94:/home/simulink/cFS_FreeRTOS_seL4/cfe/fsw/cfe-core/src/time/cfe_time_tone.c **** /*    "time at the tone" data command will arrive within the       */
  95:/home/simulink/cFS_FreeRTOS_seL4/cfe/fsw/cfe-core/src/time/cfe_time_tone.c **** /*    specified window for tone and data packet verification.      */
  96:/home/simulink/cFS_FreeRTOS_seL4/cfe/fsw/cfe-core/src/time/cfe_time_tone.c **** /*                                                                 */
  97:/home/simulink/cFS_FreeRTOS_seL4/cfe/fsw/cfe-core/src/time/cfe_time_tone.c **** /* * * * * * * * * * * * * * * * * * * * * * * * * * * * * * * * * */
  98:/home/simulink/cFS_FreeRTOS_seL4/cfe/fsw/cfe-core/src/time/cfe_time_tone.c **** 
  99:/home/simulink/cFS_FreeRTOS_seL4/cfe/fsw/cfe-core/src/time/cfe_time_tone.c **** #if (CFE_TIME_CFG_SERVER == TRUE)
 100:/home/simulink/cFS_FreeRTOS_seL4/cfe/fsw/cfe-core/src/time/cfe_time_tone.c **** void CFE_TIME_ToneSend(void)
 101:/home/simulink/cFS_FreeRTOS_seL4/cfe/fsw/cfe-core/src/time/cfe_time_tone.c **** {
  12               	.loc 1 101 0
  13               	.cfi_startproc
68K GAS   			page 3


  14 0000 4FEF FFB8 	lea (-72,%sp),%sp
  15               	.cfi_def_cfa_offset 76
 102:/home/simulink/cFS_FreeRTOS_seL4/cfe/fsw/cfe-core/src/time/cfe_time_tone.c ****     CFE_TIME_Reference_t Reference;
 103:/home/simulink/cFS_FreeRTOS_seL4/cfe/fsw/cfe-core/src/time/cfe_time_tone.c ****     CFE_TIME_SysTime_t NewMET;
 104:/home/simulink/cFS_FreeRTOS_seL4/cfe/fsw/cfe-core/src/time/cfe_time_tone.c **** 
 105:/home/simulink/cFS_FreeRTOS_seL4/cfe/fsw/cfe-core/src/time/cfe_time_tone.c ****     /* Zero out the Reference variable because we pass it into
 106:/home/simulink/cFS_FreeRTOS_seL4/cfe/fsw/cfe-core/src/time/cfe_time_tone.c ****      * a function before using it
 107:/home/simulink/cFS_FreeRTOS_seL4/cfe/fsw/cfe-core/src/time/cfe_time_tone.c ****      * */
 108:/home/simulink/cFS_FreeRTOS_seL4/cfe/fsw/cfe-core/src/time/cfe_time_tone.c ****     CFE_PSP_MemSet(&Reference, 0 , sizeof(CFE_TIME_Reference_t));
  16               	.loc 1 108 0
  17 0004 4878 0040 	pea 64.w
  18               	.cfi_def_cfa_offset 80
  19 0008 42A7      	clr.l -(%sp)
  20               	.cfi_def_cfa_offset 84
  21 000a 200F      	move.l %sp,%d0
  22 000c 0680 0000 	add.l #16,%d0
  22      0010 
  23 0012 2F00      	move.l %d0,-(%sp)
  24               	.cfi_def_cfa_offset 88
  25 0014 4EB9 0000 	jsr CFE_PSP_MemSet
  25      0000 
  26 001a 4FEF 000C 	lea (12,%sp),%sp
  27               	.cfi_def_cfa_offset 76
 109:/home/simulink/cFS_FreeRTOS_seL4/cfe/fsw/cfe-core/src/time/cfe_time_tone.c **** 
 110:/home/simulink/cFS_FreeRTOS_seL4/cfe/fsw/cfe-core/src/time/cfe_time_tone.c ****     
 111:/home/simulink/cFS_FreeRTOS_seL4/cfe/fsw/cfe-core/src/time/cfe_time_tone.c ****     /*
 112:/home/simulink/cFS_FreeRTOS_seL4/cfe/fsw/cfe-core/src/time/cfe_time_tone.c ****     ** Get reference time values (local time, time at tone, etc.)...
 113:/home/simulink/cFS_FreeRTOS_seL4/cfe/fsw/cfe-core/src/time/cfe_time_tone.c ****     */
 114:/home/simulink/cFS_FreeRTOS_seL4/cfe/fsw/cfe-core/src/time/cfe_time_tone.c ****     CFE_TIME_GetReference(&Reference);
  28               	.loc 1 114 0
  29 001e 200F      	move.l %sp,%d0
  30 0020 5080      	addq.l #8,%d0
  31 0022 2F00      	move.l %d0,-(%sp)
  32               	.cfi_def_cfa_offset 80
  33 0024 4EB9 0000 	jsr CFE_TIME_GetReference
  33      0000 
  34 002a 588F      	addq.l #4,%sp
  35               	.cfi_def_cfa_offset 76
 115:/home/simulink/cFS_FreeRTOS_seL4/cfe/fsw/cfe-core/src/time/cfe_time_tone.c **** 
 116:/home/simulink/cFS_FreeRTOS_seL4/cfe/fsw/cfe-core/src/time/cfe_time_tone.c ****     /*
 117:/home/simulink/cFS_FreeRTOS_seL4/cfe/fsw/cfe-core/src/time/cfe_time_tone.c ****     ** Get the new MET from the appropriate source...
 118:/home/simulink/cFS_FreeRTOS_seL4/cfe/fsw/cfe-core/src/time/cfe_time_tone.c ****     */
 119:/home/simulink/cFS_FreeRTOS_seL4/cfe/fsw/cfe-core/src/time/cfe_time_tone.c ****     if (Reference.ClockFlyState == CFE_TIME_IS_FLY)
  36               	.loc 1 119 0
  37 002c 302F 001C 	move.w 28(%sp),%d0
  38 0030 3040      	move.w %d0,%a0
  39 0032 7001      	moveq #1,%d0
  40 0034 B088      	cmp.l %a0,%d0
  41 0036 6608      	jne .L2
 120:/home/simulink/cFS_FreeRTOS_seL4/cfe/fsw/cfe-core/src/time/cfe_time_tone.c ****     {
 121:/home/simulink/cFS_FreeRTOS_seL4/cfe/fsw/cfe-core/src/time/cfe_time_tone.c ****         /*
 122:/home/simulink/cFS_FreeRTOS_seL4/cfe/fsw/cfe-core/src/time/cfe_time_tone.c ****         ** At least one of the following conditions is true...
 123:/home/simulink/cFS_FreeRTOS_seL4/cfe/fsw/cfe-core/src/time/cfe_time_tone.c ****         **
 124:/home/simulink/cFS_FreeRTOS_seL4/cfe/fsw/cfe-core/src/time/cfe_time_tone.c ****         **  1) loss of tone signal
 125:/home/simulink/cFS_FreeRTOS_seL4/cfe/fsw/cfe-core/src/time/cfe_time_tone.c ****         **  2) loss of "time at the tone" data packet
 126:/home/simulink/cFS_FreeRTOS_seL4/cfe/fsw/cfe-core/src/time/cfe_time_tone.c ****         **  3) signal and packet not within valid window
 127:/home/simulink/cFS_FreeRTOS_seL4/cfe/fsw/cfe-core/src/time/cfe_time_tone.c ****         **  4) we were commanded into fly-wheel mode
68K GAS   			page 4


 128:/home/simulink/cFS_FreeRTOS_seL4/cfe/fsw/cfe-core/src/time/cfe_time_tone.c ****         **
 129:/home/simulink/cFS_FreeRTOS_seL4/cfe/fsw/cfe-core/src/time/cfe_time_tone.c ****         ** Set the new MET to our fly-wheel best guess...
 130:/home/simulink/cFS_FreeRTOS_seL4/cfe/fsw/cfe-core/src/time/cfe_time_tone.c ****         */
 131:/home/simulink/cFS_FreeRTOS_seL4/cfe/fsw/cfe-core/src/time/cfe_time_tone.c ****         NewMET.Seconds = Reference.CurrentMET.Seconds;
  42               	.loc 1 131 0
  43 0038 202F 0040 	move.l 64(%sp),%d0
  44 003c 2E80      	move.l %d0,(%sp)
  45 003e 6008      	jra .L3
  46               	.L2:
 132:/home/simulink/cFS_FreeRTOS_seL4/cfe/fsw/cfe-core/src/time/cfe_time_tone.c ****     }
 133:/home/simulink/cFS_FreeRTOS_seL4/cfe/fsw/cfe-core/src/time/cfe_time_tone.c ****     else
 134:/home/simulink/cFS_FreeRTOS_seL4/cfe/fsw/cfe-core/src/time/cfe_time_tone.c ****     {
 135:/home/simulink/cFS_FreeRTOS_seL4/cfe/fsw/cfe-core/src/time/cfe_time_tone.c ****         /*
 136:/home/simulink/cFS_FreeRTOS_seL4/cfe/fsw/cfe-core/src/time/cfe_time_tone.c ****         ** MET seconds is the count of tone interrupts...
 137:/home/simulink/cFS_FreeRTOS_seL4/cfe/fsw/cfe-core/src/time/cfe_time_tone.c ****         */
 138:/home/simulink/cFS_FreeRTOS_seL4/cfe/fsw/cfe-core/src/time/cfe_time_tone.c ****         #if (CFE_TIME_CFG_VIRTUAL == TRUE)
 139:/home/simulink/cFS_FreeRTOS_seL4/cfe/fsw/cfe-core/src/time/cfe_time_tone.c ****         NewMET.Seconds = CFE_TIME_TaskData.VirtualMET;
  47               	.loc 1 139 0
  48 0040 2039 0000 	move.l CFE_TIME_TaskData+420,%d0
  48      0000 
  49 0046 2E80      	move.l %d0,(%sp)
  50               	.L3:
 140:/home/simulink/cFS_FreeRTOS_seL4/cfe/fsw/cfe-core/src/time/cfe_time_tone.c ****         #endif
 141:/home/simulink/cFS_FreeRTOS_seL4/cfe/fsw/cfe-core/src/time/cfe_time_tone.c **** 
 142:/home/simulink/cFS_FreeRTOS_seL4/cfe/fsw/cfe-core/src/time/cfe_time_tone.c ****         /*
 143:/home/simulink/cFS_FreeRTOS_seL4/cfe/fsw/cfe-core/src/time/cfe_time_tone.c ****         ** Read MET seconds from a h/w register...
 144:/home/simulink/cFS_FreeRTOS_seL4/cfe/fsw/cfe-core/src/time/cfe_time_tone.c ****         */
 145:/home/simulink/cFS_FreeRTOS_seL4/cfe/fsw/cfe-core/src/time/cfe_time_tone.c ****         #if (CFE_TIME_CFG_VIRTUAL != TRUE)
 146:/home/simulink/cFS_FreeRTOS_seL4/cfe/fsw/cfe-core/src/time/cfe_time_tone.c ****         OS_GetLocalMET(&NewMET.Seconds);
 147:/home/simulink/cFS_FreeRTOS_seL4/cfe/fsw/cfe-core/src/time/cfe_time_tone.c ****         #endif
 148:/home/simulink/cFS_FreeRTOS_seL4/cfe/fsw/cfe-core/src/time/cfe_time_tone.c ****     }
 149:/home/simulink/cFS_FreeRTOS_seL4/cfe/fsw/cfe-core/src/time/cfe_time_tone.c **** 
 150:/home/simulink/cFS_FreeRTOS_seL4/cfe/fsw/cfe-core/src/time/cfe_time_tone.c ****     /*
 151:/home/simulink/cFS_FreeRTOS_seL4/cfe/fsw/cfe-core/src/time/cfe_time_tone.c ****     ** Add a second if the tone has not yet occurred...
 152:/home/simulink/cFS_FreeRTOS_seL4/cfe/fsw/cfe-core/src/time/cfe_time_tone.c ****     */
 153:/home/simulink/cFS_FreeRTOS_seL4/cfe/fsw/cfe-core/src/time/cfe_time_tone.c ****     #if (CFE_TIME_AT_TONE_WILL_BE == TRUE)
 154:/home/simulink/cFS_FreeRTOS_seL4/cfe/fsw/cfe-core/src/time/cfe_time_tone.c ****     NewMET.Seconds++;
 155:/home/simulink/cFS_FreeRTOS_seL4/cfe/fsw/cfe-core/src/time/cfe_time_tone.c ****     #endif
 156:/home/simulink/cFS_FreeRTOS_seL4/cfe/fsw/cfe-core/src/time/cfe_time_tone.c **** 
 157:/home/simulink/cFS_FreeRTOS_seL4/cfe/fsw/cfe-core/src/time/cfe_time_tone.c ****     /*
 158:/home/simulink/cFS_FreeRTOS_seL4/cfe/fsw/cfe-core/src/time/cfe_time_tone.c ****     ** Need to fix this if the tone is not 1Hz...
 159:/home/simulink/cFS_FreeRTOS_seL4/cfe/fsw/cfe-core/src/time/cfe_time_tone.c ****     */
 160:/home/simulink/cFS_FreeRTOS_seL4/cfe/fsw/cfe-core/src/time/cfe_time_tone.c ****     NewMET.Subseconds = 0;
  51               	.loc 1 160 0
  52 0048 42AF 0004 	clr.l 4(%sp)
 161:/home/simulink/cFS_FreeRTOS_seL4/cfe/fsw/cfe-core/src/time/cfe_time_tone.c **** 
 162:/home/simulink/cFS_FreeRTOS_seL4/cfe/fsw/cfe-core/src/time/cfe_time_tone.c ****     /*
 163:/home/simulink/cFS_FreeRTOS_seL4/cfe/fsw/cfe-core/src/time/cfe_time_tone.c ****     ** Remainder of time values are unchanged...
 164:/home/simulink/cFS_FreeRTOS_seL4/cfe/fsw/cfe-core/src/time/cfe_time_tone.c ****     */
 165:/home/simulink/cFS_FreeRTOS_seL4/cfe/fsw/cfe-core/src/time/cfe_time_tone.c ****     CFE_TIME_Copy(&CFE_TIME_TaskData.ToneDataCmd.Payload.AtToneMET, &NewMET);
  53               	.loc 1 165 0
  54 004c 2017      	move.l (%sp),%d0
  55 004e 23C0 0000 	move.l %d0,CFE_TIME_TaskData+488
  55      0000 
  56 0054 202F 0004 	move.l 4(%sp),%d0
  57 0058 23C0 0000 	move.l %d0,CFE_TIME_TaskData+492
  57      0000 
68K GAS   			page 5


 166:/home/simulink/cFS_FreeRTOS_seL4/cfe/fsw/cfe-core/src/time/cfe_time_tone.c ****     CFE_TIME_Copy(&CFE_TIME_TaskData.ToneDataCmd.Payload.AtToneSTCF, &Reference.AtToneSTCF);
  58               	.loc 1 166 0
  59 005e 202F 0010 	move.l 16(%sp),%d0
  60 0062 23C0 0000 	move.l %d0,CFE_TIME_TaskData+496
  60      0000 
  61 0068 202F 0014 	move.l 20(%sp),%d0
  62 006c 23C0 0000 	move.l %d0,CFE_TIME_TaskData+500
  62      0000 
 167:/home/simulink/cFS_FreeRTOS_seL4/cfe/fsw/cfe-core/src/time/cfe_time_tone.c ****     CFE_TIME_TaskData.ToneDataCmd.Payload.AtToneLeaps = Reference.AtToneLeaps;
  63               	.loc 1 167 0
  64 0072 302F 0018 	move.w 24(%sp),%d0
  65 0076 33C0 0000 	move.w %d0,CFE_TIME_TaskData+504
  65      0000 
 168:/home/simulink/cFS_FreeRTOS_seL4/cfe/fsw/cfe-core/src/time/cfe_time_tone.c **** 
 169:/home/simulink/cFS_FreeRTOS_seL4/cfe/fsw/cfe-core/src/time/cfe_time_tone.c ****     /*
 170:/home/simulink/cFS_FreeRTOS_seL4/cfe/fsw/cfe-core/src/time/cfe_time_tone.c ****     ** Current clock state is a combination of factors...
 171:/home/simulink/cFS_FreeRTOS_seL4/cfe/fsw/cfe-core/src/time/cfe_time_tone.c ****     */
 172:/home/simulink/cFS_FreeRTOS_seL4/cfe/fsw/cfe-core/src/time/cfe_time_tone.c ****     CFE_TIME_TaskData.ToneDataCmd.Payload.AtToneState = CFE_TIME_CalculateState(&Reference);
  66               	.loc 1 172 0
  67 007c 200F      	move.l %sp,%d0
  68 007e 5080      	addq.l #8,%d0
  69 0080 2F00      	move.l %d0,-(%sp)
  70               	.cfi_def_cfa_offset 80
  71 0082 4EB9 0000 	jsr CFE_TIME_CalculateState
  71      0000 
  72 0088 588F      	addq.l #4,%sp
  73               	.cfi_def_cfa_offset 76
  74 008a 33C0 0000 	move.w %d0,CFE_TIME_TaskData+506
  74      0000 
 173:/home/simulink/cFS_FreeRTOS_seL4/cfe/fsw/cfe-core/src/time/cfe_time_tone.c **** 
 174:/home/simulink/cFS_FreeRTOS_seL4/cfe/fsw/cfe-core/src/time/cfe_time_tone.c ****     /*
 175:/home/simulink/cFS_FreeRTOS_seL4/cfe/fsw/cfe-core/src/time/cfe_time_tone.c ****     ** Send "time at the tone" command data packet...
 176:/home/simulink/cFS_FreeRTOS_seL4/cfe/fsw/cfe-core/src/time/cfe_time_tone.c ****     */
 177:/home/simulink/cFS_FreeRTOS_seL4/cfe/fsw/cfe-core/src/time/cfe_time_tone.c ****     CFE_SB_SendMsg((CFE_SB_Msg_t *) &CFE_TIME_TaskData.ToneDataCmd);
  75               	.loc 1 177 0
  76 0090 4879 0000 	pea CFE_TIME_TaskData+480
  76      0000 
  77               	.cfi_def_cfa_offset 80
  78 0096 4EB9 0000 	jsr CFE_SB_SendMsg
  78      0000 
  79 009c 588F      	addq.l #4,%sp
  80               	.cfi_def_cfa_offset 76
 178:/home/simulink/cFS_FreeRTOS_seL4/cfe/fsw/cfe-core/src/time/cfe_time_tone.c **** 
 179:/home/simulink/cFS_FreeRTOS_seL4/cfe/fsw/cfe-core/src/time/cfe_time_tone.c ****     /*
 180:/home/simulink/cFS_FreeRTOS_seL4/cfe/fsw/cfe-core/src/time/cfe_time_tone.c ****     ** Count of "time at the tone" commands sent with internal data...
 181:/home/simulink/cFS_FreeRTOS_seL4/cfe/fsw/cfe-core/src/time/cfe_time_tone.c ****     */
 182:/home/simulink/cFS_FreeRTOS_seL4/cfe/fsw/cfe-core/src/time/cfe_time_tone.c ****     CFE_TIME_TaskData.InternalCount++;
  81               	.loc 1 182 0
  82 009e 2039 0000 	move.l CFE_TIME_TaskData+436,%d0
  82      0000 
  83 00a4 5280      	addq.l #1,%d0
  84 00a6 23C0 0000 	move.l %d0,CFE_TIME_TaskData+436
  84      0000 
 183:/home/simulink/cFS_FreeRTOS_seL4/cfe/fsw/cfe-core/src/time/cfe_time_tone.c **** 
 184:/home/simulink/cFS_FreeRTOS_seL4/cfe/fsw/cfe-core/src/time/cfe_time_tone.c ****     return;
  85               	.loc 1 184 0
  86 00ac 4E71      	nop
68K GAS   			page 6


 185:/home/simulink/cFS_FreeRTOS_seL4/cfe/fsw/cfe-core/src/time/cfe_time_tone.c **** 
 186:/home/simulink/cFS_FreeRTOS_seL4/cfe/fsw/cfe-core/src/time/cfe_time_tone.c **** } /* End of CFE_TIME_ToneSend() */
  87               	.loc 1 186 0
  88 00ae 4FEF 0048 	lea (72,%sp),%sp
  89 00b2 4E75      	rts
  90               	.cfi_endproc
  91               	.LFE59:
  92               	.sizeCFE_TIME_ToneSend, .-CFE_TIME_ToneSend
  93               	.align2
  94               	.globlCFE_TIME_ToneData
  95               	.typeCFE_TIME_ToneData, @function
  96               	CFE_TIME_ToneData:
  97               	.LFB60:
 187:/home/simulink/cFS_FreeRTOS_seL4/cfe/fsw/cfe-core/src/time/cfe_time_tone.c **** #endif /* CFE_TIME_CFG_SERVER */
 188:/home/simulink/cFS_FreeRTOS_seL4/cfe/fsw/cfe-core/src/time/cfe_time_tone.c **** 
 189:/home/simulink/cFS_FreeRTOS_seL4/cfe/fsw/cfe-core/src/time/cfe_time_tone.c **** 
 190:/home/simulink/cFS_FreeRTOS_seL4/cfe/fsw/cfe-core/src/time/cfe_time_tone.c **** /* * * * * * * * * * * * * * * * * * * * * * * * * * * * * * * * * */
 191:/home/simulink/cFS_FreeRTOS_seL4/cfe/fsw/cfe-core/src/time/cfe_time_tone.c **** /*                                                                 */
 192:/home/simulink/cFS_FreeRTOS_seL4/cfe/fsw/cfe-core/src/time/cfe_time_tone.c **** /* CFE_TIME_ToneSendMET() -- Send "time at tone" (external MET)    */
 193:/home/simulink/cFS_FreeRTOS_seL4/cfe/fsw/cfe-core/src/time/cfe_time_tone.c **** /*                                                                 */
 194:/home/simulink/cFS_FreeRTOS_seL4/cfe/fsw/cfe-core/src/time/cfe_time_tone.c **** /* There is a presumption that this function will be called at     */
 195:/home/simulink/cFS_FreeRTOS_seL4/cfe/fsw/cfe-core/src/time/cfe_time_tone.c **** /*    the appropriate time (relative to the tone) such that the    */
 196:/home/simulink/cFS_FreeRTOS_seL4/cfe/fsw/cfe-core/src/time/cfe_time_tone.c **** /*    "time at the tone" data command will arrive within the       */
 197:/home/simulink/cFS_FreeRTOS_seL4/cfe/fsw/cfe-core/src/time/cfe_time_tone.c **** /*    specified window for tone and data packet verification.      */
 198:/home/simulink/cFS_FreeRTOS_seL4/cfe/fsw/cfe-core/src/time/cfe_time_tone.c **** /*                                                                 */
 199:/home/simulink/cFS_FreeRTOS_seL4/cfe/fsw/cfe-core/src/time/cfe_time_tone.c **** /* * * * * * * * * * * * * * * * * * * * * * * * * * * * * * * * * */
 200:/home/simulink/cFS_FreeRTOS_seL4/cfe/fsw/cfe-core/src/time/cfe_time_tone.c **** 
 201:/home/simulink/cFS_FreeRTOS_seL4/cfe/fsw/cfe-core/src/time/cfe_time_tone.c **** #if (CFE_TIME_CFG_SRC_MET == TRUE)
 202:/home/simulink/cFS_FreeRTOS_seL4/cfe/fsw/cfe-core/src/time/cfe_time_tone.c **** int32 CFE_TIME_ToneSendMET(CFE_TIME_SysTime_t NewMET)
 203:/home/simulink/cFS_FreeRTOS_seL4/cfe/fsw/cfe-core/src/time/cfe_time_tone.c **** {
 204:/home/simulink/cFS_FreeRTOS_seL4/cfe/fsw/cfe-core/src/time/cfe_time_tone.c ****     CFE_TIME_Reference_t Reference;
 205:/home/simulink/cFS_FreeRTOS_seL4/cfe/fsw/cfe-core/src/time/cfe_time_tone.c ****     CFE_TIME_SysTime_t Expected;
 206:/home/simulink/cFS_FreeRTOS_seL4/cfe/fsw/cfe-core/src/time/cfe_time_tone.c ****     CFE_TIME_SysTime_t MinValid;
 207:/home/simulink/cFS_FreeRTOS_seL4/cfe/fsw/cfe-core/src/time/cfe_time_tone.c ****     CFE_TIME_SysTime_t MaxValid;
 208:/home/simulink/cFS_FreeRTOS_seL4/cfe/fsw/cfe-core/src/time/cfe_time_tone.c ****     CFE_TIME_Compare_t MinResult;
 209:/home/simulink/cFS_FreeRTOS_seL4/cfe/fsw/cfe-core/src/time/cfe_time_tone.c ****     CFE_TIME_Compare_t MaxResult;
 210:/home/simulink/cFS_FreeRTOS_seL4/cfe/fsw/cfe-core/src/time/cfe_time_tone.c **** 
 211:/home/simulink/cFS_FreeRTOS_seL4/cfe/fsw/cfe-core/src/time/cfe_time_tone.c ****     int16 ClockState;
 212:/home/simulink/cFS_FreeRTOS_seL4/cfe/fsw/cfe-core/src/time/cfe_time_tone.c ****     int32 Result = CFE_SUCCESS;
 213:/home/simulink/cFS_FreeRTOS_seL4/cfe/fsw/cfe-core/src/time/cfe_time_tone.c **** 
 214:/home/simulink/cFS_FreeRTOS_seL4/cfe/fsw/cfe-core/src/time/cfe_time_tone.c ****     /* Start Performance Monitoring */
 215:/home/simulink/cFS_FreeRTOS_seL4/cfe/fsw/cfe-core/src/time/cfe_time_tone.c ****     CFE_ES_PerfLogEntry(CFE_TIME_SENDMET_PERF_ID );
 216:/home/simulink/cFS_FreeRTOS_seL4/cfe/fsw/cfe-core/src/time/cfe_time_tone.c **** 
 217:/home/simulink/cFS_FreeRTOS_seL4/cfe/fsw/cfe-core/src/time/cfe_time_tone.c ****     /* Zero out the Reference variable because we pass it into
 218:/home/simulink/cFS_FreeRTOS_seL4/cfe/fsw/cfe-core/src/time/cfe_time_tone.c ****      * a function before using it
 219:/home/simulink/cFS_FreeRTOS_seL4/cfe/fsw/cfe-core/src/time/cfe_time_tone.c ****      * */
 220:/home/simulink/cFS_FreeRTOS_seL4/cfe/fsw/cfe-core/src/time/cfe_time_tone.c ****     CFE_PSP_MemSet(&Reference, 0 , sizeof(CFE_TIME_Reference_t));
 221:/home/simulink/cFS_FreeRTOS_seL4/cfe/fsw/cfe-core/src/time/cfe_time_tone.c ****     
 222:/home/simulink/cFS_FreeRTOS_seL4/cfe/fsw/cfe-core/src/time/cfe_time_tone.c ****     /*
 223:/home/simulink/cFS_FreeRTOS_seL4/cfe/fsw/cfe-core/src/time/cfe_time_tone.c ****     ** Ignore external time data if commanded to use local MET...
 224:/home/simulink/cFS_FreeRTOS_seL4/cfe/fsw/cfe-core/src/time/cfe_time_tone.c ****     */
 225:/home/simulink/cFS_FreeRTOS_seL4/cfe/fsw/cfe-core/src/time/cfe_time_tone.c ****     if (CFE_TIME_TaskData.ClockSource == CFE_TIME_USE_INTERN)
 226:/home/simulink/cFS_FreeRTOS_seL4/cfe/fsw/cfe-core/src/time/cfe_time_tone.c ****     {
 227:/home/simulink/cFS_FreeRTOS_seL4/cfe/fsw/cfe-core/src/time/cfe_time_tone.c ****         Result = CFE_TIME_INTERNAL_ONLY;
 228:/home/simulink/cFS_FreeRTOS_seL4/cfe/fsw/cfe-core/src/time/cfe_time_tone.c **** 
 229:/home/simulink/cFS_FreeRTOS_seL4/cfe/fsw/cfe-core/src/time/cfe_time_tone.c ****         /*
 230:/home/simulink/cFS_FreeRTOS_seL4/cfe/fsw/cfe-core/src/time/cfe_time_tone.c ****         ** Use internal clock but still send "time at the tone"...
68K GAS   			page 7


 231:/home/simulink/cFS_FreeRTOS_seL4/cfe/fsw/cfe-core/src/time/cfe_time_tone.c ****         */
 232:/home/simulink/cFS_FreeRTOS_seL4/cfe/fsw/cfe-core/src/time/cfe_time_tone.c ****         CFE_TIME_ToneSend();
 233:/home/simulink/cFS_FreeRTOS_seL4/cfe/fsw/cfe-core/src/time/cfe_time_tone.c ****     }
 234:/home/simulink/cFS_FreeRTOS_seL4/cfe/fsw/cfe-core/src/time/cfe_time_tone.c ****     else
 235:/home/simulink/cFS_FreeRTOS_seL4/cfe/fsw/cfe-core/src/time/cfe_time_tone.c ****     {
 236:/home/simulink/cFS_FreeRTOS_seL4/cfe/fsw/cfe-core/src/time/cfe_time_tone.c ****         /*
 237:/home/simulink/cFS_FreeRTOS_seL4/cfe/fsw/cfe-core/src/time/cfe_time_tone.c ****         ** Get reference time values (local time, time at tone, etc.)...
 238:/home/simulink/cFS_FreeRTOS_seL4/cfe/fsw/cfe-core/src/time/cfe_time_tone.c ****         */
 239:/home/simulink/cFS_FreeRTOS_seL4/cfe/fsw/cfe-core/src/time/cfe_time_tone.c ****         CFE_TIME_GetReference(&Reference);
 240:/home/simulink/cFS_FreeRTOS_seL4/cfe/fsw/cfe-core/src/time/cfe_time_tone.c **** 
 241:/home/simulink/cFS_FreeRTOS_seL4/cfe/fsw/cfe-core/src/time/cfe_time_tone.c ****         /*
 242:/home/simulink/cFS_FreeRTOS_seL4/cfe/fsw/cfe-core/src/time/cfe_time_tone.c ****         ** cFE defines MET as being synchronized to the tone signal...
 243:/home/simulink/cFS_FreeRTOS_seL4/cfe/fsw/cfe-core/src/time/cfe_time_tone.c ****         */
 244:/home/simulink/cFS_FreeRTOS_seL4/cfe/fsw/cfe-core/src/time/cfe_time_tone.c ****         Expected.Seconds = Reference.CurrentMET.Seconds;
 245:/home/simulink/cFS_FreeRTOS_seL4/cfe/fsw/cfe-core/src/time/cfe_time_tone.c ****         Expected.Subseconds = 0;
 246:/home/simulink/cFS_FreeRTOS_seL4/cfe/fsw/cfe-core/src/time/cfe_time_tone.c **** 
 247:/home/simulink/cFS_FreeRTOS_seL4/cfe/fsw/cfe-core/src/time/cfe_time_tone.c ****         /*
 248:/home/simulink/cFS_FreeRTOS_seL4/cfe/fsw/cfe-core/src/time/cfe_time_tone.c ****         ** Add a second if the tone has not yet occurred...
 249:/home/simulink/cFS_FreeRTOS_seL4/cfe/fsw/cfe-core/src/time/cfe_time_tone.c ****         */
 250:/home/simulink/cFS_FreeRTOS_seL4/cfe/fsw/cfe-core/src/time/cfe_time_tone.c ****         #if (CFE_TIME_AT_TONE_WILL_BE == TRUE)
 251:/home/simulink/cFS_FreeRTOS_seL4/cfe/fsw/cfe-core/src/time/cfe_time_tone.c ****         Expected.Seconds++;
 252:/home/simulink/cFS_FreeRTOS_seL4/cfe/fsw/cfe-core/src/time/cfe_time_tone.c ****         #endif
 253:/home/simulink/cFS_FreeRTOS_seL4/cfe/fsw/cfe-core/src/time/cfe_time_tone.c **** 
 254:/home/simulink/cFS_FreeRTOS_seL4/cfe/fsw/cfe-core/src/time/cfe_time_tone.c ****         /*
 255:/home/simulink/cFS_FreeRTOS_seL4/cfe/fsw/cfe-core/src/time/cfe_time_tone.c ****         ** Compute minimum and maximum values for valid MET...
 256:/home/simulink/cFS_FreeRTOS_seL4/cfe/fsw/cfe-core/src/time/cfe_time_tone.c ****         */
 257:/home/simulink/cFS_FreeRTOS_seL4/cfe/fsw/cfe-core/src/time/cfe_time_tone.c ****         MinValid = CFE_TIME_Subtract(Expected, CFE_TIME_TaskData.MaxDelta);
 258:/home/simulink/cFS_FreeRTOS_seL4/cfe/fsw/cfe-core/src/time/cfe_time_tone.c ****         MaxValid = CFE_TIME_Add(Expected, CFE_TIME_TaskData.MaxDelta);
 259:/home/simulink/cFS_FreeRTOS_seL4/cfe/fsw/cfe-core/src/time/cfe_time_tone.c **** 
 260:/home/simulink/cFS_FreeRTOS_seL4/cfe/fsw/cfe-core/src/time/cfe_time_tone.c ****         /*
 261:/home/simulink/cFS_FreeRTOS_seL4/cfe/fsw/cfe-core/src/time/cfe_time_tone.c ****         ** Compare new MET to minimum and maximum MET...
 262:/home/simulink/cFS_FreeRTOS_seL4/cfe/fsw/cfe-core/src/time/cfe_time_tone.c ****         */
 263:/home/simulink/cFS_FreeRTOS_seL4/cfe/fsw/cfe-core/src/time/cfe_time_tone.c ****         MinResult = CFE_TIME_Compare(NewMET, MinValid);
 264:/home/simulink/cFS_FreeRTOS_seL4/cfe/fsw/cfe-core/src/time/cfe_time_tone.c ****         MaxResult = CFE_TIME_Compare(NewMET, MaxValid);
 265:/home/simulink/cFS_FreeRTOS_seL4/cfe/fsw/cfe-core/src/time/cfe_time_tone.c **** 
 266:/home/simulink/cFS_FreeRTOS_seL4/cfe/fsw/cfe-core/src/time/cfe_time_tone.c ****         /*
 267:/home/simulink/cFS_FreeRTOS_seL4/cfe/fsw/cfe-core/src/time/cfe_time_tone.c ****         ** Ignore bad external time data only if clock state is valid...
 268:/home/simulink/cFS_FreeRTOS_seL4/cfe/fsw/cfe-core/src/time/cfe_time_tone.c ****         */
 269:/home/simulink/cFS_FreeRTOS_seL4/cfe/fsw/cfe-core/src/time/cfe_time_tone.c ****         if ((Reference.ClockSetState == CFE_TIME_WAS_SET) &&
 270:/home/simulink/cFS_FreeRTOS_seL4/cfe/fsw/cfe-core/src/time/cfe_time_tone.c ****            ((MinResult == CFE_TIME_A_LT_B) || (MaxResult == CFE_TIME_A_GT_B)))
 271:/home/simulink/cFS_FreeRTOS_seL4/cfe/fsw/cfe-core/src/time/cfe_time_tone.c ****         {
 272:/home/simulink/cFS_FreeRTOS_seL4/cfe/fsw/cfe-core/src/time/cfe_time_tone.c ****             Result = CFE_TIME_OUT_OF_RANGE;
 273:/home/simulink/cFS_FreeRTOS_seL4/cfe/fsw/cfe-core/src/time/cfe_time_tone.c **** 
 274:/home/simulink/cFS_FreeRTOS_seL4/cfe/fsw/cfe-core/src/time/cfe_time_tone.c ****             /*
 275:/home/simulink/cFS_FreeRTOS_seL4/cfe/fsw/cfe-core/src/time/cfe_time_tone.c ****             ** Use internal clock but still send "time at the tone"...
 276:/home/simulink/cFS_FreeRTOS_seL4/cfe/fsw/cfe-core/src/time/cfe_time_tone.c ****             */
 277:/home/simulink/cFS_FreeRTOS_seL4/cfe/fsw/cfe-core/src/time/cfe_time_tone.c ****             CFE_TIME_ToneSend();
 278:/home/simulink/cFS_FreeRTOS_seL4/cfe/fsw/cfe-core/src/time/cfe_time_tone.c ****         }
 279:/home/simulink/cFS_FreeRTOS_seL4/cfe/fsw/cfe-core/src/time/cfe_time_tone.c ****         else
 280:/home/simulink/cFS_FreeRTOS_seL4/cfe/fsw/cfe-core/src/time/cfe_time_tone.c ****         {
 281:/home/simulink/cFS_FreeRTOS_seL4/cfe/fsw/cfe-core/src/time/cfe_time_tone.c ****             ClockState = CFE_TIME_CalculateState(&Reference);
 282:/home/simulink/cFS_FreeRTOS_seL4/cfe/fsw/cfe-core/src/time/cfe_time_tone.c ****             /*
 283:/home/simulink/cFS_FreeRTOS_seL4/cfe/fsw/cfe-core/src/time/cfe_time_tone.c ****             ** Set "time at the tone" command data packet arguments...
 284:/home/simulink/cFS_FreeRTOS_seL4/cfe/fsw/cfe-core/src/time/cfe_time_tone.c ****             */
 285:/home/simulink/cFS_FreeRTOS_seL4/cfe/fsw/cfe-core/src/time/cfe_time_tone.c ****             CFE_TIME_TaskData.ToneDataCmd.Payload.AtToneMET   = NewMET;
 286:/home/simulink/cFS_FreeRTOS_seL4/cfe/fsw/cfe-core/src/time/cfe_time_tone.c ****             CFE_TIME_TaskData.ToneDataCmd.Payload.AtToneSTCF  = Reference.AtToneSTCF;
 287:/home/simulink/cFS_FreeRTOS_seL4/cfe/fsw/cfe-core/src/time/cfe_time_tone.c ****             CFE_TIME_TaskData.ToneDataCmd.Payload.AtToneLeaps = Reference.AtToneLeaps;
68K GAS   			page 8


 288:/home/simulink/cFS_FreeRTOS_seL4/cfe/fsw/cfe-core/src/time/cfe_time_tone.c ****             CFE_TIME_TaskData.ToneDataCmd.Payload.AtToneState = ClockState;
 289:/home/simulink/cFS_FreeRTOS_seL4/cfe/fsw/cfe-core/src/time/cfe_time_tone.c **** 
 290:/home/simulink/cFS_FreeRTOS_seL4/cfe/fsw/cfe-core/src/time/cfe_time_tone.c ****             /*
 291:/home/simulink/cFS_FreeRTOS_seL4/cfe/fsw/cfe-core/src/time/cfe_time_tone.c ****             ** Send "time at the tone" command data packet...
 292:/home/simulink/cFS_FreeRTOS_seL4/cfe/fsw/cfe-core/src/time/cfe_time_tone.c ****             */
 293:/home/simulink/cFS_FreeRTOS_seL4/cfe/fsw/cfe-core/src/time/cfe_time_tone.c ****             CFE_SB_SendMsg((CFE_SB_Msg_t *) &CFE_TIME_TaskData.ToneDataCmd);
 294:/home/simulink/cFS_FreeRTOS_seL4/cfe/fsw/cfe-core/src/time/cfe_time_tone.c **** 
 295:/home/simulink/cFS_FreeRTOS_seL4/cfe/fsw/cfe-core/src/time/cfe_time_tone.c ****             /*
 296:/home/simulink/cFS_FreeRTOS_seL4/cfe/fsw/cfe-core/src/time/cfe_time_tone.c ****             ** Count of "time at the tone" commands sent with external data...
 297:/home/simulink/cFS_FreeRTOS_seL4/cfe/fsw/cfe-core/src/time/cfe_time_tone.c ****             */
 298:/home/simulink/cFS_FreeRTOS_seL4/cfe/fsw/cfe-core/src/time/cfe_time_tone.c ****             CFE_TIME_TaskData.ExternalCount++;
 299:/home/simulink/cFS_FreeRTOS_seL4/cfe/fsw/cfe-core/src/time/cfe_time_tone.c ****         }
 300:/home/simulink/cFS_FreeRTOS_seL4/cfe/fsw/cfe-core/src/time/cfe_time_tone.c ****     }
 301:/home/simulink/cFS_FreeRTOS_seL4/cfe/fsw/cfe-core/src/time/cfe_time_tone.c **** 
 302:/home/simulink/cFS_FreeRTOS_seL4/cfe/fsw/cfe-core/src/time/cfe_time_tone.c ****     /* Exit performance monitoring */
 303:/home/simulink/cFS_FreeRTOS_seL4/cfe/fsw/cfe-core/src/time/cfe_time_tone.c ****     CFE_ES_PerfLogExit(CFE_TIME_SENDMET_PERF_ID);
 304:/home/simulink/cFS_FreeRTOS_seL4/cfe/fsw/cfe-core/src/time/cfe_time_tone.c ****     return(Result);
 305:/home/simulink/cFS_FreeRTOS_seL4/cfe/fsw/cfe-core/src/time/cfe_time_tone.c **** 
 306:/home/simulink/cFS_FreeRTOS_seL4/cfe/fsw/cfe-core/src/time/cfe_time_tone.c **** } /* End of CFE_TIME_ToneSendMET() */
 307:/home/simulink/cFS_FreeRTOS_seL4/cfe/fsw/cfe-core/src/time/cfe_time_tone.c **** #endif /* CFE_TIME_CFG_SRC_MET */
 308:/home/simulink/cFS_FreeRTOS_seL4/cfe/fsw/cfe-core/src/time/cfe_time_tone.c **** 
 309:/home/simulink/cFS_FreeRTOS_seL4/cfe/fsw/cfe-core/src/time/cfe_time_tone.c **** 
 310:/home/simulink/cFS_FreeRTOS_seL4/cfe/fsw/cfe-core/src/time/cfe_time_tone.c **** /* * * * * * * * * * * * * * * * * * * * * * * * * * * * * * * * * */
 311:/home/simulink/cFS_FreeRTOS_seL4/cfe/fsw/cfe-core/src/time/cfe_time_tone.c **** /*                                                                 */
 312:/home/simulink/cFS_FreeRTOS_seL4/cfe/fsw/cfe-core/src/time/cfe_time_tone.c **** /* CFE_TIME_ToneSendGPS() -- Send "time at tone" (external GPS)    */
 313:/home/simulink/cFS_FreeRTOS_seL4/cfe/fsw/cfe-core/src/time/cfe_time_tone.c **** /*                                                                 */
 314:/home/simulink/cFS_FreeRTOS_seL4/cfe/fsw/cfe-core/src/time/cfe_time_tone.c **** /* There is a presumption that this function will be called at     */
 315:/home/simulink/cFS_FreeRTOS_seL4/cfe/fsw/cfe-core/src/time/cfe_time_tone.c **** /*    the appropriate time (relative to the tone) such that the    */
 316:/home/simulink/cFS_FreeRTOS_seL4/cfe/fsw/cfe-core/src/time/cfe_time_tone.c **** /*    "time at the tone" data command will arrive within the       */
 317:/home/simulink/cFS_FreeRTOS_seL4/cfe/fsw/cfe-core/src/time/cfe_time_tone.c **** /*    specified window for tone and data packet verification.      */
 318:/home/simulink/cFS_FreeRTOS_seL4/cfe/fsw/cfe-core/src/time/cfe_time_tone.c **** /*                                                                 */
 319:/home/simulink/cFS_FreeRTOS_seL4/cfe/fsw/cfe-core/src/time/cfe_time_tone.c **** /* * * * * * * * * * * * * * * * * * * * * * * * * * * * * * * * * */
 320:/home/simulink/cFS_FreeRTOS_seL4/cfe/fsw/cfe-core/src/time/cfe_time_tone.c **** 
 321:/home/simulink/cFS_FreeRTOS_seL4/cfe/fsw/cfe-core/src/time/cfe_time_tone.c **** #if (CFE_TIME_CFG_SRC_GPS == TRUE)
 322:/home/simulink/cFS_FreeRTOS_seL4/cfe/fsw/cfe-core/src/time/cfe_time_tone.c **** int32 CFE_TIME_ToneSendGPS(CFE_TIME_SysTime_t NewTime, int16 NewLeaps)
 323:/home/simulink/cFS_FreeRTOS_seL4/cfe/fsw/cfe-core/src/time/cfe_time_tone.c **** {
 324:/home/simulink/cFS_FreeRTOS_seL4/cfe/fsw/cfe-core/src/time/cfe_time_tone.c ****     CFE_TIME_Reference_t Reference;
 325:/home/simulink/cFS_FreeRTOS_seL4/cfe/fsw/cfe-core/src/time/cfe_time_tone.c ****     CFE_TIME_SysTime_t NewSTCF;
 326:/home/simulink/cFS_FreeRTOS_seL4/cfe/fsw/cfe-core/src/time/cfe_time_tone.c ****     CFE_TIME_SysTime_t NewMET;
 327:/home/simulink/cFS_FreeRTOS_seL4/cfe/fsw/cfe-core/src/time/cfe_time_tone.c ****     CFE_TIME_SysTime_t MinValid;
 328:/home/simulink/cFS_FreeRTOS_seL4/cfe/fsw/cfe-core/src/time/cfe_time_tone.c ****     CFE_TIME_SysTime_t MaxValid;
 329:/home/simulink/cFS_FreeRTOS_seL4/cfe/fsw/cfe-core/src/time/cfe_time_tone.c ****     CFE_TIME_Compare_t MinResult;
 330:/home/simulink/cFS_FreeRTOS_seL4/cfe/fsw/cfe-core/src/time/cfe_time_tone.c ****     CFE_TIME_Compare_t MaxResult;
 331:/home/simulink/cFS_FreeRTOS_seL4/cfe/fsw/cfe-core/src/time/cfe_time_tone.c **** 
 332:/home/simulink/cFS_FreeRTOS_seL4/cfe/fsw/cfe-core/src/time/cfe_time_tone.c ****     int16 ClockState;
 333:/home/simulink/cFS_FreeRTOS_seL4/cfe/fsw/cfe-core/src/time/cfe_time_tone.c ****     int32 Result = CFE_SUCCESS;
 334:/home/simulink/cFS_FreeRTOS_seL4/cfe/fsw/cfe-core/src/time/cfe_time_tone.c **** 
 335:/home/simulink/cFS_FreeRTOS_seL4/cfe/fsw/cfe-core/src/time/cfe_time_tone.c ****     /* Zero out the Reference variable because we pass it into
 336:/home/simulink/cFS_FreeRTOS_seL4/cfe/fsw/cfe-core/src/time/cfe_time_tone.c ****      * a function before using it
 337:/home/simulink/cFS_FreeRTOS_seL4/cfe/fsw/cfe-core/src/time/cfe_time_tone.c ****      * */
 338:/home/simulink/cFS_FreeRTOS_seL4/cfe/fsw/cfe-core/src/time/cfe_time_tone.c ****     CFE_PSP_MemSet(&Reference, 0 , sizeof(CFE_TIME_Reference_t));
 339:/home/simulink/cFS_FreeRTOS_seL4/cfe/fsw/cfe-core/src/time/cfe_time_tone.c **** 
 340:/home/simulink/cFS_FreeRTOS_seL4/cfe/fsw/cfe-core/src/time/cfe_time_tone.c ****     
 341:/home/simulink/cFS_FreeRTOS_seL4/cfe/fsw/cfe-core/src/time/cfe_time_tone.c ****     /*
 342:/home/simulink/cFS_FreeRTOS_seL4/cfe/fsw/cfe-core/src/time/cfe_time_tone.c ****     ** Ignore external time data if commanded to use local MET...
 343:/home/simulink/cFS_FreeRTOS_seL4/cfe/fsw/cfe-core/src/time/cfe_time_tone.c ****     */
 344:/home/simulink/cFS_FreeRTOS_seL4/cfe/fsw/cfe-core/src/time/cfe_time_tone.c ****     if (CFE_TIME_TaskData.ClockSource == CFE_TIME_USE_INTERN)
68K GAS   			page 9


 345:/home/simulink/cFS_FreeRTOS_seL4/cfe/fsw/cfe-core/src/time/cfe_time_tone.c ****     {
 346:/home/simulink/cFS_FreeRTOS_seL4/cfe/fsw/cfe-core/src/time/cfe_time_tone.c ****         Result = CFE_TIME_INTERNAL_ONLY;
 347:/home/simulink/cFS_FreeRTOS_seL4/cfe/fsw/cfe-core/src/time/cfe_time_tone.c **** 
 348:/home/simulink/cFS_FreeRTOS_seL4/cfe/fsw/cfe-core/src/time/cfe_time_tone.c ****         /*
 349:/home/simulink/cFS_FreeRTOS_seL4/cfe/fsw/cfe-core/src/time/cfe_time_tone.c ****         ** Use internal clock but still send "time at the tone"...
 350:/home/simulink/cFS_FreeRTOS_seL4/cfe/fsw/cfe-core/src/time/cfe_time_tone.c ****         */
 351:/home/simulink/cFS_FreeRTOS_seL4/cfe/fsw/cfe-core/src/time/cfe_time_tone.c ****         CFE_TIME_ToneSend();
 352:/home/simulink/cFS_FreeRTOS_seL4/cfe/fsw/cfe-core/src/time/cfe_time_tone.c ****     }
 353:/home/simulink/cFS_FreeRTOS_seL4/cfe/fsw/cfe-core/src/time/cfe_time_tone.c ****     else
 354:/home/simulink/cFS_FreeRTOS_seL4/cfe/fsw/cfe-core/src/time/cfe_time_tone.c ****     {
 355:/home/simulink/cFS_FreeRTOS_seL4/cfe/fsw/cfe-core/src/time/cfe_time_tone.c ****         /*
 356:/home/simulink/cFS_FreeRTOS_seL4/cfe/fsw/cfe-core/src/time/cfe_time_tone.c ****         ** Get reference time values (local time, time at tone, etc.)...
 357:/home/simulink/cFS_FreeRTOS_seL4/cfe/fsw/cfe-core/src/time/cfe_time_tone.c ****         */
 358:/home/simulink/cFS_FreeRTOS_seL4/cfe/fsw/cfe-core/src/time/cfe_time_tone.c ****         CFE_TIME_GetReference(&Reference);
 359:/home/simulink/cFS_FreeRTOS_seL4/cfe/fsw/cfe-core/src/time/cfe_time_tone.c **** 
 360:/home/simulink/cFS_FreeRTOS_seL4/cfe/fsw/cfe-core/src/time/cfe_time_tone.c ****         /*
 361:/home/simulink/cFS_FreeRTOS_seL4/cfe/fsw/cfe-core/src/time/cfe_time_tone.c ****         ** cFE defines MET as being synchronized to the tone signal...
 362:/home/simulink/cFS_FreeRTOS_seL4/cfe/fsw/cfe-core/src/time/cfe_time_tone.c ****         */
 363:/home/simulink/cFS_FreeRTOS_seL4/cfe/fsw/cfe-core/src/time/cfe_time_tone.c ****         NewMET.Seconds = Reference.CurrentMET.Seconds;
 364:/home/simulink/cFS_FreeRTOS_seL4/cfe/fsw/cfe-core/src/time/cfe_time_tone.c ****         NewMET.Subseconds = 0;
 365:/home/simulink/cFS_FreeRTOS_seL4/cfe/fsw/cfe-core/src/time/cfe_time_tone.c **** 
 366:/home/simulink/cFS_FreeRTOS_seL4/cfe/fsw/cfe-core/src/time/cfe_time_tone.c ****         /*
 367:/home/simulink/cFS_FreeRTOS_seL4/cfe/fsw/cfe-core/src/time/cfe_time_tone.c ****         ** Add a second if the tone has not yet occurred...
 368:/home/simulink/cFS_FreeRTOS_seL4/cfe/fsw/cfe-core/src/time/cfe_time_tone.c ****         */
 369:/home/simulink/cFS_FreeRTOS_seL4/cfe/fsw/cfe-core/src/time/cfe_time_tone.c ****         #if (CFE_TIME_AT_TONE_WILL_BE == TRUE)
 370:/home/simulink/cFS_FreeRTOS_seL4/cfe/fsw/cfe-core/src/time/cfe_time_tone.c ****         NewMET.Seconds++;
 371:/home/simulink/cFS_FreeRTOS_seL4/cfe/fsw/cfe-core/src/time/cfe_time_tone.c ****         #endif
 372:/home/simulink/cFS_FreeRTOS_seL4/cfe/fsw/cfe-core/src/time/cfe_time_tone.c **** 
 373:/home/simulink/cFS_FreeRTOS_seL4/cfe/fsw/cfe-core/src/time/cfe_time_tone.c ****         /*
 374:/home/simulink/cFS_FreeRTOS_seL4/cfe/fsw/cfe-core/src/time/cfe_time_tone.c ****         ** Remove MET from the new time value (leaves STCF)...
 375:/home/simulink/cFS_FreeRTOS_seL4/cfe/fsw/cfe-core/src/time/cfe_time_tone.c ****         */
 376:/home/simulink/cFS_FreeRTOS_seL4/cfe/fsw/cfe-core/src/time/cfe_time_tone.c ****         NewSTCF = CFE_TIME_Subtract(NewTime, NewMET);
 377:/home/simulink/cFS_FreeRTOS_seL4/cfe/fsw/cfe-core/src/time/cfe_time_tone.c **** 
 378:/home/simulink/cFS_FreeRTOS_seL4/cfe/fsw/cfe-core/src/time/cfe_time_tone.c ****         /*
 379:/home/simulink/cFS_FreeRTOS_seL4/cfe/fsw/cfe-core/src/time/cfe_time_tone.c ****         ** Restore leap seconds if default time format is UTC...
 380:/home/simulink/cFS_FreeRTOS_seL4/cfe/fsw/cfe-core/src/time/cfe_time_tone.c ****         */
 381:/home/simulink/cFS_FreeRTOS_seL4/cfe/fsw/cfe-core/src/time/cfe_time_tone.c ****         #if (CFE_TIME_CFG_DEFAULT_UTC == TRUE)
 382:/home/simulink/cFS_FreeRTOS_seL4/cfe/fsw/cfe-core/src/time/cfe_time_tone.c ****         NewSTCF.Seconds += NewLeaps;
 383:/home/simulink/cFS_FreeRTOS_seL4/cfe/fsw/cfe-core/src/time/cfe_time_tone.c ****         #endif
 384:/home/simulink/cFS_FreeRTOS_seL4/cfe/fsw/cfe-core/src/time/cfe_time_tone.c **** 
 385:/home/simulink/cFS_FreeRTOS_seL4/cfe/fsw/cfe-core/src/time/cfe_time_tone.c ****         /*
 386:/home/simulink/cFS_FreeRTOS_seL4/cfe/fsw/cfe-core/src/time/cfe_time_tone.c ****         ** Compute minimum and maximum values for valid STCF...
 387:/home/simulink/cFS_FreeRTOS_seL4/cfe/fsw/cfe-core/src/time/cfe_time_tone.c ****         */
 388:/home/simulink/cFS_FreeRTOS_seL4/cfe/fsw/cfe-core/src/time/cfe_time_tone.c ****         MinValid = CFE_TIME_Subtract(Reference.AtToneSTCF, CFE_TIME_TaskData.MaxDelta);
 389:/home/simulink/cFS_FreeRTOS_seL4/cfe/fsw/cfe-core/src/time/cfe_time_tone.c ****         MaxValid = CFE_TIME_Add(Reference.AtToneSTCF, CFE_TIME_TaskData.MaxDelta);
 390:/home/simulink/cFS_FreeRTOS_seL4/cfe/fsw/cfe-core/src/time/cfe_time_tone.c **** 
 391:/home/simulink/cFS_FreeRTOS_seL4/cfe/fsw/cfe-core/src/time/cfe_time_tone.c ****         /*
 392:/home/simulink/cFS_FreeRTOS_seL4/cfe/fsw/cfe-core/src/time/cfe_time_tone.c ****         ** Compare new STCF to minimum and maximum STCF...
 393:/home/simulink/cFS_FreeRTOS_seL4/cfe/fsw/cfe-core/src/time/cfe_time_tone.c ****         */
 394:/home/simulink/cFS_FreeRTOS_seL4/cfe/fsw/cfe-core/src/time/cfe_time_tone.c ****         MinResult = CFE_TIME_Compare(NewSTCF, MinValid);
 395:/home/simulink/cFS_FreeRTOS_seL4/cfe/fsw/cfe-core/src/time/cfe_time_tone.c ****         MaxResult = CFE_TIME_Compare(NewSTCF, MaxValid);
 396:/home/simulink/cFS_FreeRTOS_seL4/cfe/fsw/cfe-core/src/time/cfe_time_tone.c **** 
 397:/home/simulink/cFS_FreeRTOS_seL4/cfe/fsw/cfe-core/src/time/cfe_time_tone.c ****         /*
 398:/home/simulink/cFS_FreeRTOS_seL4/cfe/fsw/cfe-core/src/time/cfe_time_tone.c ****         ** If state is valid then ignore bad external time data...
 399:/home/simulink/cFS_FreeRTOS_seL4/cfe/fsw/cfe-core/src/time/cfe_time_tone.c ****         */
 400:/home/simulink/cFS_FreeRTOS_seL4/cfe/fsw/cfe-core/src/time/cfe_time_tone.c ****         if ((Reference.ClockSetState == CFE_TIME_WAS_SET) &&
 401:/home/simulink/cFS_FreeRTOS_seL4/cfe/fsw/cfe-core/src/time/cfe_time_tone.c ****            ((MinResult == CFE_TIME_A_LT_B) || (MaxResult == CFE_TIME_A_GT_B)))
68K GAS   			page 10


 402:/home/simulink/cFS_FreeRTOS_seL4/cfe/fsw/cfe-core/src/time/cfe_time_tone.c ****         {
 403:/home/simulink/cFS_FreeRTOS_seL4/cfe/fsw/cfe-core/src/time/cfe_time_tone.c ****             Result = CFE_TIME_OUT_OF_RANGE;
 404:/home/simulink/cFS_FreeRTOS_seL4/cfe/fsw/cfe-core/src/time/cfe_time_tone.c **** 
 405:/home/simulink/cFS_FreeRTOS_seL4/cfe/fsw/cfe-core/src/time/cfe_time_tone.c ****             /*
 406:/home/simulink/cFS_FreeRTOS_seL4/cfe/fsw/cfe-core/src/time/cfe_time_tone.c ****             ** Use internal clock but still send "time at the tone"...
 407:/home/simulink/cFS_FreeRTOS_seL4/cfe/fsw/cfe-core/src/time/cfe_time_tone.c ****             */
 408:/home/simulink/cFS_FreeRTOS_seL4/cfe/fsw/cfe-core/src/time/cfe_time_tone.c ****             CFE_TIME_ToneSend();
 409:/home/simulink/cFS_FreeRTOS_seL4/cfe/fsw/cfe-core/src/time/cfe_time_tone.c ****         }
 410:/home/simulink/cFS_FreeRTOS_seL4/cfe/fsw/cfe-core/src/time/cfe_time_tone.c ****         else
 411:/home/simulink/cFS_FreeRTOS_seL4/cfe/fsw/cfe-core/src/time/cfe_time_tone.c ****         {
 412:/home/simulink/cFS_FreeRTOS_seL4/cfe/fsw/cfe-core/src/time/cfe_time_tone.c ****             ClockState = CFE_TIME_CalculateState(&Reference);
 413:/home/simulink/cFS_FreeRTOS_seL4/cfe/fsw/cfe-core/src/time/cfe_time_tone.c ****             /*
 414:/home/simulink/cFS_FreeRTOS_seL4/cfe/fsw/cfe-core/src/time/cfe_time_tone.c ****             ** Set "time at the tone" command data packet arguments...
 415:/home/simulink/cFS_FreeRTOS_seL4/cfe/fsw/cfe-core/src/time/cfe_time_tone.c ****             */
 416:/home/simulink/cFS_FreeRTOS_seL4/cfe/fsw/cfe-core/src/time/cfe_time_tone.c ****             CFE_TIME_TaskData.ToneDataCmd.Payload.AtToneMET   = NewMET;
 417:/home/simulink/cFS_FreeRTOS_seL4/cfe/fsw/cfe-core/src/time/cfe_time_tone.c ****             CFE_TIME_TaskData.ToneDataCmd.Payload.AtToneSTCF  = NewSTCF;
 418:/home/simulink/cFS_FreeRTOS_seL4/cfe/fsw/cfe-core/src/time/cfe_time_tone.c ****             CFE_TIME_TaskData.ToneDataCmd.Payload.AtToneLeaps = NewLeaps;
 419:/home/simulink/cFS_FreeRTOS_seL4/cfe/fsw/cfe-core/src/time/cfe_time_tone.c ****             CFE_TIME_TaskData.ToneDataCmd.Payload.AtToneState = ClockState;
 420:/home/simulink/cFS_FreeRTOS_seL4/cfe/fsw/cfe-core/src/time/cfe_time_tone.c **** 
 421:/home/simulink/cFS_FreeRTOS_seL4/cfe/fsw/cfe-core/src/time/cfe_time_tone.c ****             /*
 422:/home/simulink/cFS_FreeRTOS_seL4/cfe/fsw/cfe-core/src/time/cfe_time_tone.c ****             ** Send "time at the tone" command data packet...
 423:/home/simulink/cFS_FreeRTOS_seL4/cfe/fsw/cfe-core/src/time/cfe_time_tone.c ****             */
 424:/home/simulink/cFS_FreeRTOS_seL4/cfe/fsw/cfe-core/src/time/cfe_time_tone.c ****             CFE_SB_SendMsg((CFE_SB_Msg_t *) &CFE_TIME_TaskData.ToneDataCmd);
 425:/home/simulink/cFS_FreeRTOS_seL4/cfe/fsw/cfe-core/src/time/cfe_time_tone.c **** 
 426:/home/simulink/cFS_FreeRTOS_seL4/cfe/fsw/cfe-core/src/time/cfe_time_tone.c ****             /*
 427:/home/simulink/cFS_FreeRTOS_seL4/cfe/fsw/cfe-core/src/time/cfe_time_tone.c ****             ** Count of "time at the tone" commands sent with external data...
 428:/home/simulink/cFS_FreeRTOS_seL4/cfe/fsw/cfe-core/src/time/cfe_time_tone.c ****             */
 429:/home/simulink/cFS_FreeRTOS_seL4/cfe/fsw/cfe-core/src/time/cfe_time_tone.c ****             CFE_TIME_TaskData.ExternalCount++;
 430:/home/simulink/cFS_FreeRTOS_seL4/cfe/fsw/cfe-core/src/time/cfe_time_tone.c ****         }
 431:/home/simulink/cFS_FreeRTOS_seL4/cfe/fsw/cfe-core/src/time/cfe_time_tone.c ****     }
 432:/home/simulink/cFS_FreeRTOS_seL4/cfe/fsw/cfe-core/src/time/cfe_time_tone.c **** 
 433:/home/simulink/cFS_FreeRTOS_seL4/cfe/fsw/cfe-core/src/time/cfe_time_tone.c ****     return(Result);
 434:/home/simulink/cFS_FreeRTOS_seL4/cfe/fsw/cfe-core/src/time/cfe_time_tone.c **** 
 435:/home/simulink/cFS_FreeRTOS_seL4/cfe/fsw/cfe-core/src/time/cfe_time_tone.c **** } /* End of CFE_TIME_ToneSendGPS() */
 436:/home/simulink/cFS_FreeRTOS_seL4/cfe/fsw/cfe-core/src/time/cfe_time_tone.c **** #endif /* CFE_TIME_CFG_SRC_GPS */
 437:/home/simulink/cFS_FreeRTOS_seL4/cfe/fsw/cfe-core/src/time/cfe_time_tone.c **** 
 438:/home/simulink/cFS_FreeRTOS_seL4/cfe/fsw/cfe-core/src/time/cfe_time_tone.c **** 
 439:/home/simulink/cFS_FreeRTOS_seL4/cfe/fsw/cfe-core/src/time/cfe_time_tone.c **** /* * * * * * * * * * * * * * * * * * * * * * * * * * * * * * * * * */
 440:/home/simulink/cFS_FreeRTOS_seL4/cfe/fsw/cfe-core/src/time/cfe_time_tone.c **** /*                                                                 */
 441:/home/simulink/cFS_FreeRTOS_seL4/cfe/fsw/cfe-core/src/time/cfe_time_tone.c **** /* CFE_TIME_ToneSendTime() -- Send "time at tone" (external time)  */
 442:/home/simulink/cFS_FreeRTOS_seL4/cfe/fsw/cfe-core/src/time/cfe_time_tone.c **** /*                                                                 */
 443:/home/simulink/cFS_FreeRTOS_seL4/cfe/fsw/cfe-core/src/time/cfe_time_tone.c **** /* There is a presumption that this function will be called at     */
 444:/home/simulink/cFS_FreeRTOS_seL4/cfe/fsw/cfe-core/src/time/cfe_time_tone.c **** /*    the appropriate time (relative to the tone) such that the    */
 445:/home/simulink/cFS_FreeRTOS_seL4/cfe/fsw/cfe-core/src/time/cfe_time_tone.c **** /*    "time at the tone" data command will arrive within the       */
 446:/home/simulink/cFS_FreeRTOS_seL4/cfe/fsw/cfe-core/src/time/cfe_time_tone.c **** /*    specified window for tone and data packet verification.      */
 447:/home/simulink/cFS_FreeRTOS_seL4/cfe/fsw/cfe-core/src/time/cfe_time_tone.c **** /*                                                                 */
 448:/home/simulink/cFS_FreeRTOS_seL4/cfe/fsw/cfe-core/src/time/cfe_time_tone.c **** /* * * * * * * * * * * * * * * * * * * * * * * * * * * * * * * * * */
 449:/home/simulink/cFS_FreeRTOS_seL4/cfe/fsw/cfe-core/src/time/cfe_time_tone.c **** 
 450:/home/simulink/cFS_FreeRTOS_seL4/cfe/fsw/cfe-core/src/time/cfe_time_tone.c **** #if (CFE_TIME_CFG_SRC_TIME == TRUE)
 451:/home/simulink/cFS_FreeRTOS_seL4/cfe/fsw/cfe-core/src/time/cfe_time_tone.c **** int32 CFE_TIME_ToneSendTime(CFE_TIME_SysTime_t NewTime)
 452:/home/simulink/cFS_FreeRTOS_seL4/cfe/fsw/cfe-core/src/time/cfe_time_tone.c **** {
 453:/home/simulink/cFS_FreeRTOS_seL4/cfe/fsw/cfe-core/src/time/cfe_time_tone.c ****     CFE_TIME_Reference_t Reference;
 454:/home/simulink/cFS_FreeRTOS_seL4/cfe/fsw/cfe-core/src/time/cfe_time_tone.c ****     CFE_TIME_SysTime_t NewSTCF;
 455:/home/simulink/cFS_FreeRTOS_seL4/cfe/fsw/cfe-core/src/time/cfe_time_tone.c ****     CFE_TIME_SysTime_t NewMET;
 456:/home/simulink/cFS_FreeRTOS_seL4/cfe/fsw/cfe-core/src/time/cfe_time_tone.c ****     CFE_TIME_SysTime_t MinValid;
 457:/home/simulink/cFS_FreeRTOS_seL4/cfe/fsw/cfe-core/src/time/cfe_time_tone.c ****     CFE_TIME_SysTime_t MaxValid;
 458:/home/simulink/cFS_FreeRTOS_seL4/cfe/fsw/cfe-core/src/time/cfe_time_tone.c ****     CFE_TIME_Compare_t MinResult;
68K GAS   			page 11


 459:/home/simulink/cFS_FreeRTOS_seL4/cfe/fsw/cfe-core/src/time/cfe_time_tone.c ****     CFE_TIME_Compare_t MaxResult;
 460:/home/simulink/cFS_FreeRTOS_seL4/cfe/fsw/cfe-core/src/time/cfe_time_tone.c **** 
 461:/home/simulink/cFS_FreeRTOS_seL4/cfe/fsw/cfe-core/src/time/cfe_time_tone.c ****     int16 ClockState;
 462:/home/simulink/cFS_FreeRTOS_seL4/cfe/fsw/cfe-core/src/time/cfe_time_tone.c ****     int32 Result = CFE_SUCCESS;
 463:/home/simulink/cFS_FreeRTOS_seL4/cfe/fsw/cfe-core/src/time/cfe_time_tone.c **** 
 464:/home/simulink/cFS_FreeRTOS_seL4/cfe/fsw/cfe-core/src/time/cfe_time_tone.c ****     /* Zero out the Reference variable because we pass it into
 465:/home/simulink/cFS_FreeRTOS_seL4/cfe/fsw/cfe-core/src/time/cfe_time_tone.c ****      * a function before using it
 466:/home/simulink/cFS_FreeRTOS_seL4/cfe/fsw/cfe-core/src/time/cfe_time_tone.c ****      * */
 467:/home/simulink/cFS_FreeRTOS_seL4/cfe/fsw/cfe-core/src/time/cfe_time_tone.c ****     CFE_PSP_MemSet(&Reference, 0 , sizeof(CFE_TIME_Reference_t));
 468:/home/simulink/cFS_FreeRTOS_seL4/cfe/fsw/cfe-core/src/time/cfe_time_tone.c ****     
 469:/home/simulink/cFS_FreeRTOS_seL4/cfe/fsw/cfe-core/src/time/cfe_time_tone.c ****     /*
 470:/home/simulink/cFS_FreeRTOS_seL4/cfe/fsw/cfe-core/src/time/cfe_time_tone.c ****     ** Ignore external time data if commanded to use local MET...
 471:/home/simulink/cFS_FreeRTOS_seL4/cfe/fsw/cfe-core/src/time/cfe_time_tone.c ****     */
 472:/home/simulink/cFS_FreeRTOS_seL4/cfe/fsw/cfe-core/src/time/cfe_time_tone.c ****     if (CFE_TIME_TaskData.ClockSource == CFE_TIME_USE_INTERN)
 473:/home/simulink/cFS_FreeRTOS_seL4/cfe/fsw/cfe-core/src/time/cfe_time_tone.c ****     {
 474:/home/simulink/cFS_FreeRTOS_seL4/cfe/fsw/cfe-core/src/time/cfe_time_tone.c ****         Result = CFE_TIME_INTERNAL_ONLY;
 475:/home/simulink/cFS_FreeRTOS_seL4/cfe/fsw/cfe-core/src/time/cfe_time_tone.c **** 
 476:/home/simulink/cFS_FreeRTOS_seL4/cfe/fsw/cfe-core/src/time/cfe_time_tone.c ****         /*
 477:/home/simulink/cFS_FreeRTOS_seL4/cfe/fsw/cfe-core/src/time/cfe_time_tone.c ****         ** Use internal clock but still send "time at the tone"...
 478:/home/simulink/cFS_FreeRTOS_seL4/cfe/fsw/cfe-core/src/time/cfe_time_tone.c ****         */
 479:/home/simulink/cFS_FreeRTOS_seL4/cfe/fsw/cfe-core/src/time/cfe_time_tone.c ****         CFE_TIME_ToneSend();
 480:/home/simulink/cFS_FreeRTOS_seL4/cfe/fsw/cfe-core/src/time/cfe_time_tone.c ****     }
 481:/home/simulink/cFS_FreeRTOS_seL4/cfe/fsw/cfe-core/src/time/cfe_time_tone.c ****     else
 482:/home/simulink/cFS_FreeRTOS_seL4/cfe/fsw/cfe-core/src/time/cfe_time_tone.c ****     {
 483:/home/simulink/cFS_FreeRTOS_seL4/cfe/fsw/cfe-core/src/time/cfe_time_tone.c ****         /*
 484:/home/simulink/cFS_FreeRTOS_seL4/cfe/fsw/cfe-core/src/time/cfe_time_tone.c ****         ** Get reference time values (local time, time at tone, etc.)...
 485:/home/simulink/cFS_FreeRTOS_seL4/cfe/fsw/cfe-core/src/time/cfe_time_tone.c ****         */
 486:/home/simulink/cFS_FreeRTOS_seL4/cfe/fsw/cfe-core/src/time/cfe_time_tone.c ****         CFE_TIME_GetReference(&Reference);
 487:/home/simulink/cFS_FreeRTOS_seL4/cfe/fsw/cfe-core/src/time/cfe_time_tone.c **** 
 488:/home/simulink/cFS_FreeRTOS_seL4/cfe/fsw/cfe-core/src/time/cfe_time_tone.c ****         /*
 489:/home/simulink/cFS_FreeRTOS_seL4/cfe/fsw/cfe-core/src/time/cfe_time_tone.c ****         ** cFE defines MET as being synchronized to the tone signal...
 490:/home/simulink/cFS_FreeRTOS_seL4/cfe/fsw/cfe-core/src/time/cfe_time_tone.c ****         */
 491:/home/simulink/cFS_FreeRTOS_seL4/cfe/fsw/cfe-core/src/time/cfe_time_tone.c ****         NewMET.Seconds = Reference.CurrentMET.Seconds;
 492:/home/simulink/cFS_FreeRTOS_seL4/cfe/fsw/cfe-core/src/time/cfe_time_tone.c ****         NewMET.Subseconds = 0;
 493:/home/simulink/cFS_FreeRTOS_seL4/cfe/fsw/cfe-core/src/time/cfe_time_tone.c **** 
 494:/home/simulink/cFS_FreeRTOS_seL4/cfe/fsw/cfe-core/src/time/cfe_time_tone.c ****         /*
 495:/home/simulink/cFS_FreeRTOS_seL4/cfe/fsw/cfe-core/src/time/cfe_time_tone.c ****         ** Add a second if the tone has not yet occurred...
 496:/home/simulink/cFS_FreeRTOS_seL4/cfe/fsw/cfe-core/src/time/cfe_time_tone.c ****         */
 497:/home/simulink/cFS_FreeRTOS_seL4/cfe/fsw/cfe-core/src/time/cfe_time_tone.c ****         #if (CFE_TIME_AT_TONE_WILL_BE == TRUE)
 498:/home/simulink/cFS_FreeRTOS_seL4/cfe/fsw/cfe-core/src/time/cfe_time_tone.c ****         NewMET.Seconds++;
 499:/home/simulink/cFS_FreeRTOS_seL4/cfe/fsw/cfe-core/src/time/cfe_time_tone.c ****         #endif
 500:/home/simulink/cFS_FreeRTOS_seL4/cfe/fsw/cfe-core/src/time/cfe_time_tone.c **** 
 501:/home/simulink/cFS_FreeRTOS_seL4/cfe/fsw/cfe-core/src/time/cfe_time_tone.c ****         /*
 502:/home/simulink/cFS_FreeRTOS_seL4/cfe/fsw/cfe-core/src/time/cfe_time_tone.c ****         ** Remove MET from the new time value (leaves STCF)...
 503:/home/simulink/cFS_FreeRTOS_seL4/cfe/fsw/cfe-core/src/time/cfe_time_tone.c ****         */
 504:/home/simulink/cFS_FreeRTOS_seL4/cfe/fsw/cfe-core/src/time/cfe_time_tone.c ****         NewSTCF = CFE_TIME_Subtract(NewTime, NewMET);
 505:/home/simulink/cFS_FreeRTOS_seL4/cfe/fsw/cfe-core/src/time/cfe_time_tone.c **** 
 506:/home/simulink/cFS_FreeRTOS_seL4/cfe/fsw/cfe-core/src/time/cfe_time_tone.c ****         /*
 507:/home/simulink/cFS_FreeRTOS_seL4/cfe/fsw/cfe-core/src/time/cfe_time_tone.c ****         ** Restore leap seconds if default time format is UTC...
 508:/home/simulink/cFS_FreeRTOS_seL4/cfe/fsw/cfe-core/src/time/cfe_time_tone.c ****         */
 509:/home/simulink/cFS_FreeRTOS_seL4/cfe/fsw/cfe-core/src/time/cfe_time_tone.c ****         #if (CFE_TIME_CFG_DEFAULT_UTC == TRUE)
 510:/home/simulink/cFS_FreeRTOS_seL4/cfe/fsw/cfe-core/src/time/cfe_time_tone.c ****         NewSTCF.Seconds += Reference.AtToneLeaps;
 511:/home/simulink/cFS_FreeRTOS_seL4/cfe/fsw/cfe-core/src/time/cfe_time_tone.c ****         #endif
 512:/home/simulink/cFS_FreeRTOS_seL4/cfe/fsw/cfe-core/src/time/cfe_time_tone.c **** 
 513:/home/simulink/cFS_FreeRTOS_seL4/cfe/fsw/cfe-core/src/time/cfe_time_tone.c ****         /*
 514:/home/simulink/cFS_FreeRTOS_seL4/cfe/fsw/cfe-core/src/time/cfe_time_tone.c ****         ** Compute minimum and maximum values for valid STCF...
 515:/home/simulink/cFS_FreeRTOS_seL4/cfe/fsw/cfe-core/src/time/cfe_time_tone.c ****         */
68K GAS   			page 12


 516:/home/simulink/cFS_FreeRTOS_seL4/cfe/fsw/cfe-core/src/time/cfe_time_tone.c ****         MinValid = CFE_TIME_Subtract(Reference.AtToneSTCF, CFE_TIME_TaskData.MaxDelta);
 517:/home/simulink/cFS_FreeRTOS_seL4/cfe/fsw/cfe-core/src/time/cfe_time_tone.c ****         MaxValid = CFE_TIME_Add(Reference.AtToneSTCF, CFE_TIME_TaskData.MaxDelta);
 518:/home/simulink/cFS_FreeRTOS_seL4/cfe/fsw/cfe-core/src/time/cfe_time_tone.c **** 
 519:/home/simulink/cFS_FreeRTOS_seL4/cfe/fsw/cfe-core/src/time/cfe_time_tone.c ****         /*
 520:/home/simulink/cFS_FreeRTOS_seL4/cfe/fsw/cfe-core/src/time/cfe_time_tone.c ****         ** Compare new STCF to minimum and maximum STCF...
 521:/home/simulink/cFS_FreeRTOS_seL4/cfe/fsw/cfe-core/src/time/cfe_time_tone.c ****         */
 522:/home/simulink/cFS_FreeRTOS_seL4/cfe/fsw/cfe-core/src/time/cfe_time_tone.c ****         MinResult = CFE_TIME_Compare(NewSTCF, MinValid);
 523:/home/simulink/cFS_FreeRTOS_seL4/cfe/fsw/cfe-core/src/time/cfe_time_tone.c ****         MaxResult = CFE_TIME_Compare(NewSTCF, MaxValid);
 524:/home/simulink/cFS_FreeRTOS_seL4/cfe/fsw/cfe-core/src/time/cfe_time_tone.c **** 
 525:/home/simulink/cFS_FreeRTOS_seL4/cfe/fsw/cfe-core/src/time/cfe_time_tone.c ****         /*
 526:/home/simulink/cFS_FreeRTOS_seL4/cfe/fsw/cfe-core/src/time/cfe_time_tone.c ****         ** If state is valid then ignore bad external time data...
 527:/home/simulink/cFS_FreeRTOS_seL4/cfe/fsw/cfe-core/src/time/cfe_time_tone.c ****         */
 528:/home/simulink/cFS_FreeRTOS_seL4/cfe/fsw/cfe-core/src/time/cfe_time_tone.c ****         if ((Reference.ClockSetState == CFE_TIME_WAS_SET) &&
 529:/home/simulink/cFS_FreeRTOS_seL4/cfe/fsw/cfe-core/src/time/cfe_time_tone.c ****            ((MinResult == CFE_TIME_A_LT_B) || (MaxResult == CFE_TIME_A_GT_B)))
 530:/home/simulink/cFS_FreeRTOS_seL4/cfe/fsw/cfe-core/src/time/cfe_time_tone.c ****         {
 531:/home/simulink/cFS_FreeRTOS_seL4/cfe/fsw/cfe-core/src/time/cfe_time_tone.c ****             Result = CFE_TIME_OUT_OF_RANGE;
 532:/home/simulink/cFS_FreeRTOS_seL4/cfe/fsw/cfe-core/src/time/cfe_time_tone.c **** 
 533:/home/simulink/cFS_FreeRTOS_seL4/cfe/fsw/cfe-core/src/time/cfe_time_tone.c ****             /*
 534:/home/simulink/cFS_FreeRTOS_seL4/cfe/fsw/cfe-core/src/time/cfe_time_tone.c ****             ** Use internal clock but still send "time at the tone"...
 535:/home/simulink/cFS_FreeRTOS_seL4/cfe/fsw/cfe-core/src/time/cfe_time_tone.c ****             */
 536:/home/simulink/cFS_FreeRTOS_seL4/cfe/fsw/cfe-core/src/time/cfe_time_tone.c ****             CFE_TIME_ToneSend();
 537:/home/simulink/cFS_FreeRTOS_seL4/cfe/fsw/cfe-core/src/time/cfe_time_tone.c ****         }
 538:/home/simulink/cFS_FreeRTOS_seL4/cfe/fsw/cfe-core/src/time/cfe_time_tone.c ****         else
 539:/home/simulink/cFS_FreeRTOS_seL4/cfe/fsw/cfe-core/src/time/cfe_time_tone.c ****         {
 540:/home/simulink/cFS_FreeRTOS_seL4/cfe/fsw/cfe-core/src/time/cfe_time_tone.c ****             ClockState = CFE_TIME_CalculateState(&Reference);
 541:/home/simulink/cFS_FreeRTOS_seL4/cfe/fsw/cfe-core/src/time/cfe_time_tone.c ****             /*
 542:/home/simulink/cFS_FreeRTOS_seL4/cfe/fsw/cfe-core/src/time/cfe_time_tone.c ****             ** Set "time at the tone" command data packet arguments...
 543:/home/simulink/cFS_FreeRTOS_seL4/cfe/fsw/cfe-core/src/time/cfe_time_tone.c ****             */
 544:/home/simulink/cFS_FreeRTOS_seL4/cfe/fsw/cfe-core/src/time/cfe_time_tone.c ****             CFE_TIME_TaskData.ToneDataCmd.Payload.AtToneMET   = NewMET;
 545:/home/simulink/cFS_FreeRTOS_seL4/cfe/fsw/cfe-core/src/time/cfe_time_tone.c ****             CFE_TIME_TaskData.ToneDataCmd.Payload.AtToneSTCF  = NewSTCF;
 546:/home/simulink/cFS_FreeRTOS_seL4/cfe/fsw/cfe-core/src/time/cfe_time_tone.c ****             CFE_TIME_TaskData.ToneDataCmd.Payload.AtToneLeaps = Reference.AtToneLeaps;
 547:/home/simulink/cFS_FreeRTOS_seL4/cfe/fsw/cfe-core/src/time/cfe_time_tone.c ****             CFE_TIME_TaskData.ToneDataCmd.Payload.AtToneState = ClockState;
 548:/home/simulink/cFS_FreeRTOS_seL4/cfe/fsw/cfe-core/src/time/cfe_time_tone.c **** 
 549:/home/simulink/cFS_FreeRTOS_seL4/cfe/fsw/cfe-core/src/time/cfe_time_tone.c ****             /*
 550:/home/simulink/cFS_FreeRTOS_seL4/cfe/fsw/cfe-core/src/time/cfe_time_tone.c ****             ** Send "time at the tone" command data packet...
 551:/home/simulink/cFS_FreeRTOS_seL4/cfe/fsw/cfe-core/src/time/cfe_time_tone.c ****             */
 552:/home/simulink/cFS_FreeRTOS_seL4/cfe/fsw/cfe-core/src/time/cfe_time_tone.c ****             CFE_SB_SendMsg((CFE_SB_Msg_t *) &CFE_TIME_TaskData.ToneDataCmd);
 553:/home/simulink/cFS_FreeRTOS_seL4/cfe/fsw/cfe-core/src/time/cfe_time_tone.c **** 
 554:/home/simulink/cFS_FreeRTOS_seL4/cfe/fsw/cfe-core/src/time/cfe_time_tone.c ****             /*
 555:/home/simulink/cFS_FreeRTOS_seL4/cfe/fsw/cfe-core/src/time/cfe_time_tone.c ****             ** Count of "time at the tone" commands sent with external data...
 556:/home/simulink/cFS_FreeRTOS_seL4/cfe/fsw/cfe-core/src/time/cfe_time_tone.c ****             */
 557:/home/simulink/cFS_FreeRTOS_seL4/cfe/fsw/cfe-core/src/time/cfe_time_tone.c ****             CFE_TIME_TaskData.ExternalCount++;
 558:/home/simulink/cFS_FreeRTOS_seL4/cfe/fsw/cfe-core/src/time/cfe_time_tone.c ****         }
 559:/home/simulink/cFS_FreeRTOS_seL4/cfe/fsw/cfe-core/src/time/cfe_time_tone.c ****     }
 560:/home/simulink/cFS_FreeRTOS_seL4/cfe/fsw/cfe-core/src/time/cfe_time_tone.c **** 
 561:/home/simulink/cFS_FreeRTOS_seL4/cfe/fsw/cfe-core/src/time/cfe_time_tone.c ****     return(Result);
 562:/home/simulink/cFS_FreeRTOS_seL4/cfe/fsw/cfe-core/src/time/cfe_time_tone.c **** 
 563:/home/simulink/cFS_FreeRTOS_seL4/cfe/fsw/cfe-core/src/time/cfe_time_tone.c **** } /* End of CFE_TIME_ToneSendTime() */
 564:/home/simulink/cFS_FreeRTOS_seL4/cfe/fsw/cfe-core/src/time/cfe_time_tone.c **** #endif /* CFE_TIME_CFG_SRC_TIME */
 565:/home/simulink/cFS_FreeRTOS_seL4/cfe/fsw/cfe-core/src/time/cfe_time_tone.c **** 
 566:/home/simulink/cFS_FreeRTOS_seL4/cfe/fsw/cfe-core/src/time/cfe_time_tone.c **** 
 567:/home/simulink/cFS_FreeRTOS_seL4/cfe/fsw/cfe-core/src/time/cfe_time_tone.c **** /* * * * * * * * * * * * * * * * * * * * * * * * * * * * * * * * * */
 568:/home/simulink/cFS_FreeRTOS_seL4/cfe/fsw/cfe-core/src/time/cfe_time_tone.c **** /*                                                                 */
 569:/home/simulink/cFS_FreeRTOS_seL4/cfe/fsw/cfe-core/src/time/cfe_time_tone.c **** /* CFE_TIME_ToneData() -- process "time at tone" data packet       */
 570:/home/simulink/cFS_FreeRTOS_seL4/cfe/fsw/cfe-core/src/time/cfe_time_tone.c **** /*                                                                 */
 571:/home/simulink/cFS_FreeRTOS_seL4/cfe/fsw/cfe-core/src/time/cfe_time_tone.c **** /* * * * * * * * * * * * * * * * * * * * * * * * * * * * * * * * * */
 572:/home/simulink/cFS_FreeRTOS_seL4/cfe/fsw/cfe-core/src/time/cfe_time_tone.c **** 
68K GAS   			page 13


 573:/home/simulink/cFS_FreeRTOS_seL4/cfe/fsw/cfe-core/src/time/cfe_time_tone.c **** void CFE_TIME_ToneData(CFE_TIME_ToneDataCmd_Payload_t *ToneDataCmd)
 574:/home/simulink/cFS_FreeRTOS_seL4/cfe/fsw/cfe-core/src/time/cfe_time_tone.c **** {
  98               	.loc 1 574 0
  99               	.cfi_startproc
 575:/home/simulink/cFS_FreeRTOS_seL4/cfe/fsw/cfe-core/src/time/cfe_time_tone.c ****     /*
 576:/home/simulink/cFS_FreeRTOS_seL4/cfe/fsw/cfe-core/src/time/cfe_time_tone.c ****     ** Save the time when the data packet was received...
 577:/home/simulink/cFS_FreeRTOS_seL4/cfe/fsw/cfe-core/src/time/cfe_time_tone.c ****     */
 578:/home/simulink/cFS_FreeRTOS_seL4/cfe/fsw/cfe-core/src/time/cfe_time_tone.c ****     CFE_TIME_TaskData.ToneDataLatch   = CFE_TIME_LatchClock();
 100               	.loc 1 578 0
 101 00b4 4EB9 0000 	jsr CFE_TIME_LatchClock
 101      0000 
 102 00ba 23C0 0000 	move.l %d0,CFE_TIME_TaskData+384
 102      0000 
 103 00c0 23C1 0000 	move.l %d1,CFE_TIME_TaskData+388
 103      0000 
 579:/home/simulink/cFS_FreeRTOS_seL4/cfe/fsw/cfe-core/src/time/cfe_time_tone.c **** 
 580:/home/simulink/cFS_FreeRTOS_seL4/cfe/fsw/cfe-core/src/time/cfe_time_tone.c ****     /*
 581:/home/simulink/cFS_FreeRTOS_seL4/cfe/fsw/cfe-core/src/time/cfe_time_tone.c ****     ** Save the data packet (may be a while before the data is used)...
 582:/home/simulink/cFS_FreeRTOS_seL4/cfe/fsw/cfe-core/src/time/cfe_time_tone.c ****     */
 583:/home/simulink/cFS_FreeRTOS_seL4/cfe/fsw/cfe-core/src/time/cfe_time_tone.c ****     CFE_TIME_Copy(&CFE_TIME_TaskData.PendingMET, &ToneDataCmd->AtToneMET);
 104               	.loc 1 583 0
 105 00c6 206F 0004 	move.l 4(%sp),%a0
 106 00ca 2010      	move.l (%a0),%d0
 107 00cc 23C0 0000 	move.l %d0,CFE_TIME_TaskData+332
 107      0000 
 108 00d2 206F 0004 	move.l 4(%sp),%a0
 109 00d6 2028 0004 	move.l 4(%a0),%d0
 110 00da 23C0 0000 	move.l %d0,CFE_TIME_TaskData+336
 110      0000 
 584:/home/simulink/cFS_FreeRTOS_seL4/cfe/fsw/cfe-core/src/time/cfe_time_tone.c ****     CFE_TIME_Copy(&CFE_TIME_TaskData.PendingSTCF, &ToneDataCmd->AtToneSTCF);
 111               	.loc 1 584 0
 112 00e0 206F 0004 	move.l 4(%sp),%a0
 113 00e4 2028 0008 	move.l 8(%a0),%d0
 114 00e8 23C0 0000 	move.l %d0,CFE_TIME_TaskData+340
 114      0000 
 115 00ee 206F 0004 	move.l 4(%sp),%a0
 116 00f2 2028 000C 	move.l 12(%a0),%d0
 117 00f6 23C0 0000 	move.l %d0,CFE_TIME_TaskData+344
 117      0000 
 585:/home/simulink/cFS_FreeRTOS_seL4/cfe/fsw/cfe-core/src/time/cfe_time_tone.c ****     CFE_TIME_TaskData.PendingLeaps = ToneDataCmd->AtToneLeaps;
 118               	.loc 1 585 0
 119 00fc 206F 0004 	move.l 4(%sp),%a0
 120 0100 3028 0010 	move.w 16(%a0),%d0
 121 0104 33C0 0000 	move.w %d0,CFE_TIME_TaskData+348
 121      0000 
 586:/home/simulink/cFS_FreeRTOS_seL4/cfe/fsw/cfe-core/src/time/cfe_time_tone.c ****     CFE_TIME_TaskData.PendingState = ToneDataCmd->AtToneState;
 122               	.loc 1 586 0
 123 010a 206F 0004 	move.l 4(%sp),%a0
 124 010e 3028 0012 	move.w 18(%a0),%d0
 125 0112 33C0 0000 	move.w %d0,CFE_TIME_TaskData+350
 125      0000 
 587:/home/simulink/cFS_FreeRTOS_seL4/cfe/fsw/cfe-core/src/time/cfe_time_tone.c **** 
 588:/home/simulink/cFS_FreeRTOS_seL4/cfe/fsw/cfe-core/src/time/cfe_time_tone.c ****     /*
 589:/home/simulink/cFS_FreeRTOS_seL4/cfe/fsw/cfe-core/src/time/cfe_time_tone.c ****     ** If the data packet is designed to arrive after the tone...
 590:/home/simulink/cFS_FreeRTOS_seL4/cfe/fsw/cfe-core/src/time/cfe_time_tone.c ****     **
 591:/home/simulink/cFS_FreeRTOS_seL4/cfe/fsw/cfe-core/src/time/cfe_time_tone.c ****     ** Check to see if the most recent tone signal matches this
 592:/home/simulink/cFS_FreeRTOS_seL4/cfe/fsw/cfe-core/src/time/cfe_time_tone.c ****     **    data packet.  If so, we have a matched pair and can
68K GAS   			page 14


 593:/home/simulink/cFS_FreeRTOS_seL4/cfe/fsw/cfe-core/src/time/cfe_time_tone.c ****     **    now start using the new data to compute time.
 594:/home/simulink/cFS_FreeRTOS_seL4/cfe/fsw/cfe-core/src/time/cfe_time_tone.c ****     */
 595:/home/simulink/cFS_FreeRTOS_seL4/cfe/fsw/cfe-core/src/time/cfe_time_tone.c ****     #if (CFE_TIME_AT_TONE_WAS == TRUE)
 596:/home/simulink/cFS_FreeRTOS_seL4/cfe/fsw/cfe-core/src/time/cfe_time_tone.c ****     CFE_TIME_ToneVerify(CFE_TIME_TaskData.ToneSignalLatch,
 126               	.loc 1 596 0
 127 0118 2F39 0000 	move.l CFE_TIME_TaskData+388,-(%sp)
 127      0000 
 128 011e 2F39 0000 	move.l CFE_TIME_TaskData+384,-(%sp)
 128      0000 
 129               	.cfi_def_cfa_offset 12
 130 0124 2F39 0000 	move.l CFE_TIME_TaskData+380,-(%sp)
 130      0000 
 131 012a 2F39 0000 	move.l CFE_TIME_TaskData+376,-(%sp)
 131      0000 
 132               	.cfi_def_cfa_offset 20
 133 0130 4EB9 0000 	jsr CFE_TIME_ToneVerify
 133      0000 
 134 0136 4FEF 0010 	lea (16,%sp),%sp
 135               	.cfi_def_cfa_offset 4
 597:/home/simulink/cFS_FreeRTOS_seL4/cfe/fsw/cfe-core/src/time/cfe_time_tone.c ****                         CFE_TIME_TaskData.ToneDataLatch);
 598:/home/simulink/cFS_FreeRTOS_seL4/cfe/fsw/cfe-core/src/time/cfe_time_tone.c ****     #endif
 599:/home/simulink/cFS_FreeRTOS_seL4/cfe/fsw/cfe-core/src/time/cfe_time_tone.c **** 
 600:/home/simulink/cFS_FreeRTOS_seL4/cfe/fsw/cfe-core/src/time/cfe_time_tone.c ****     /*
 601:/home/simulink/cFS_FreeRTOS_seL4/cfe/fsw/cfe-core/src/time/cfe_time_tone.c ****     ** If the data packet is designed to arrive before the tone...
 602:/home/simulink/cFS_FreeRTOS_seL4/cfe/fsw/cfe-core/src/time/cfe_time_tone.c ****     **
 603:/home/simulink/cFS_FreeRTOS_seL4/cfe/fsw/cfe-core/src/time/cfe_time_tone.c ****     ** We don't really need to do anything except to save the time
 604:/home/simulink/cFS_FreeRTOS_seL4/cfe/fsw/cfe-core/src/time/cfe_time_tone.c ****     **    and contents of this data packet.  (above)
 605:/home/simulink/cFS_FreeRTOS_seL4/cfe/fsw/cfe-core/src/time/cfe_time_tone.c ****     **
 606:/home/simulink/cFS_FreeRTOS_seL4/cfe/fsw/cfe-core/src/time/cfe_time_tone.c ****     ** Note that we do not immediately start using the data packet
 607:/home/simulink/cFS_FreeRTOS_seL4/cfe/fsw/cfe-core/src/time/cfe_time_tone.c ****     **    values to compute current time.  We continue to use the
 608:/home/simulink/cFS_FreeRTOS_seL4/cfe/fsw/cfe-core/src/time/cfe_time_tone.c ****     **    old tone/data combo until we get a new matched pair.
 609:/home/simulink/cFS_FreeRTOS_seL4/cfe/fsw/cfe-core/src/time/cfe_time_tone.c ****     */
 610:/home/simulink/cFS_FreeRTOS_seL4/cfe/fsw/cfe-core/src/time/cfe_time_tone.c ****     #if (CFE_TIME_AT_TONE_WILL_BE == TRUE)
 611:/home/simulink/cFS_FreeRTOS_seL4/cfe/fsw/cfe-core/src/time/cfe_time_tone.c ****     #endif
 612:/home/simulink/cFS_FreeRTOS_seL4/cfe/fsw/cfe-core/src/time/cfe_time_tone.c **** 
 613:/home/simulink/cFS_FreeRTOS_seL4/cfe/fsw/cfe-core/src/time/cfe_time_tone.c ****     /*
 614:/home/simulink/cFS_FreeRTOS_seL4/cfe/fsw/cfe-core/src/time/cfe_time_tone.c ****     ** Maintain a count of tone data packets...
 615:/home/simulink/cFS_FreeRTOS_seL4/cfe/fsw/cfe-core/src/time/cfe_time_tone.c ****     */
 616:/home/simulink/cFS_FreeRTOS_seL4/cfe/fsw/cfe-core/src/time/cfe_time_tone.c ****     CFE_TIME_TaskData.ToneDataCount++;
 136               	.loc 1 616 0
 137 013a 2039 0000 	move.l CFE_TIME_TaskData+404,%d0
 137      0000 
 138 0140 5280      	addq.l #1,%d0
 139 0142 23C0 0000 	move.l %d0,CFE_TIME_TaskData+404
 139      0000 
 617:/home/simulink/cFS_FreeRTOS_seL4/cfe/fsw/cfe-core/src/time/cfe_time_tone.c **** 
 618:/home/simulink/cFS_FreeRTOS_seL4/cfe/fsw/cfe-core/src/time/cfe_time_tone.c ****     return;
 140               	.loc 1 618 0
 141 0148 4E71      	nop
 619:/home/simulink/cFS_FreeRTOS_seL4/cfe/fsw/cfe-core/src/time/cfe_time_tone.c **** 
 620:/home/simulink/cFS_FreeRTOS_seL4/cfe/fsw/cfe-core/src/time/cfe_time_tone.c **** } /* End of CFE_TIME_ToneData() */
 142               	.loc 1 620 0
 143 014a 4E75      	rts
 144               	.cfi_endproc
 145               	.LFE60:
 146               	.sizeCFE_TIME_ToneData, .-CFE_TIME_ToneData
 147               	.align2
68K GAS   			page 15


 148               	.globlCFE_TIME_ToneSignal
 149               	.typeCFE_TIME_ToneSignal, @function
 150               	CFE_TIME_ToneSignal:
 151               	.LFB61:
 621:/home/simulink/cFS_FreeRTOS_seL4/cfe/fsw/cfe-core/src/time/cfe_time_tone.c **** 
 622:/home/simulink/cFS_FreeRTOS_seL4/cfe/fsw/cfe-core/src/time/cfe_time_tone.c **** 
 623:/home/simulink/cFS_FreeRTOS_seL4/cfe/fsw/cfe-core/src/time/cfe_time_tone.c **** /* * * * * * * * * * * * * * * * * * * * * * * * * * * * * * * * * */
 624:/home/simulink/cFS_FreeRTOS_seL4/cfe/fsw/cfe-core/src/time/cfe_time_tone.c **** /*                                                                 */
 625:/home/simulink/cFS_FreeRTOS_seL4/cfe/fsw/cfe-core/src/time/cfe_time_tone.c **** /* CFE_TIME_ToneSignal() -- "tone signal" occurred recently        */
 626:/home/simulink/cFS_FreeRTOS_seL4/cfe/fsw/cfe-core/src/time/cfe_time_tone.c **** /*                                                                 */
 627:/home/simulink/cFS_FreeRTOS_seL4/cfe/fsw/cfe-core/src/time/cfe_time_tone.c **** /* This function is called upon receipt of a command indicating    */
 628:/home/simulink/cFS_FreeRTOS_seL4/cfe/fsw/cfe-core/src/time/cfe_time_tone.c **** /*    that a time at the tone signal was detected.  The mission    */
 629:/home/simulink/cFS_FreeRTOS_seL4/cfe/fsw/cfe-core/src/time/cfe_time_tone.c **** /*    dependent h/w or s/w that detected the tone signal latched   */
 630:/home/simulink/cFS_FreeRTOS_seL4/cfe/fsw/cfe-core/src/time/cfe_time_tone.c **** /*    the local clock and generated this command.  The use of a    */
 631:/home/simulink/cFS_FreeRTOS_seL4/cfe/fsw/cfe-core/src/time/cfe_time_tone.c **** /*    command announcing the tone signal ensures that this code    */
 632:/home/simulink/cFS_FreeRTOS_seL4/cfe/fsw/cfe-core/src/time/cfe_time_tone.c **** /*    is not called from within an interrupt handler.              */
 633:/home/simulink/cFS_FreeRTOS_seL4/cfe/fsw/cfe-core/src/time/cfe_time_tone.c **** /*                                                                 */
 634:/home/simulink/cFS_FreeRTOS_seL4/cfe/fsw/cfe-core/src/time/cfe_time_tone.c **** /* It is not a concern that some amount of time has elapsed since  */
 635:/home/simulink/cFS_FreeRTOS_seL4/cfe/fsw/cfe-core/src/time/cfe_time_tone.c **** /*    the tone actually occurred.  We are currently computing      */
 636:/home/simulink/cFS_FreeRTOS_seL4/cfe/fsw/cfe-core/src/time/cfe_time_tone.c **** /*    time as a delta (as measured on our local clock) from a      */
 637:/home/simulink/cFS_FreeRTOS_seL4/cfe/fsw/cfe-core/src/time/cfe_time_tone.c **** /*    previously latched tone.  It just doesn't matter if the      */
 638:/home/simulink/cFS_FreeRTOS_seL4/cfe/fsw/cfe-core/src/time/cfe_time_tone.c **** /*    size of the delta slightly exceeds a second.  The quality    */
 639:/home/simulink/cFS_FreeRTOS_seL4/cfe/fsw/cfe-core/src/time/cfe_time_tone.c **** /*    of our local clock will always be sufficient to measure      */
 640:/home/simulink/cFS_FreeRTOS_seL4/cfe/fsw/cfe-core/src/time/cfe_time_tone.c **** /*    time for a couple of seconds.                                */
 641:/home/simulink/cFS_FreeRTOS_seL4/cfe/fsw/cfe-core/src/time/cfe_time_tone.c **** /*                                                                 */
 642:/home/simulink/cFS_FreeRTOS_seL4/cfe/fsw/cfe-core/src/time/cfe_time_tone.c **** /* * * * * * * * * * * * * * * * * * * * * * * * * * * * * * * * * */
 643:/home/simulink/cFS_FreeRTOS_seL4/cfe/fsw/cfe-core/src/time/cfe_time_tone.c **** 
 644:/home/simulink/cFS_FreeRTOS_seL4/cfe/fsw/cfe-core/src/time/cfe_time_tone.c **** void CFE_TIME_ToneSignal(void)
 645:/home/simulink/cFS_FreeRTOS_seL4/cfe/fsw/cfe-core/src/time/cfe_time_tone.c **** {
 152               	.loc 1 645 0
 153               	.cfi_startproc
 646:/home/simulink/cFS_FreeRTOS_seL4/cfe/fsw/cfe-core/src/time/cfe_time_tone.c ****     /*
 647:/home/simulink/cFS_FreeRTOS_seL4/cfe/fsw/cfe-core/src/time/cfe_time_tone.c ****     ** If the data packet is designed to arrive after the tone signal...
 648:/home/simulink/cFS_FreeRTOS_seL4/cfe/fsw/cfe-core/src/time/cfe_time_tone.c ****     **
 649:/home/simulink/cFS_FreeRTOS_seL4/cfe/fsw/cfe-core/src/time/cfe_time_tone.c ****     ** We don't really need to do anything except latch the local clock
 650:/home/simulink/cFS_FreeRTOS_seL4/cfe/fsw/cfe-core/src/time/cfe_time_tone.c ****     **    at the moment of the tone.  And that has already happened at
 651:/home/simulink/cFS_FreeRTOS_seL4/cfe/fsw/cfe-core/src/time/cfe_time_tone.c ****     **    the time when the tone was detected.
 652:/home/simulink/cFS_FreeRTOS_seL4/cfe/fsw/cfe-core/src/time/cfe_time_tone.c ****     **
 653:/home/simulink/cFS_FreeRTOS_seL4/cfe/fsw/cfe-core/src/time/cfe_time_tone.c ****     ** Note that we do not immediately start using this latched value to
 654:/home/simulink/cFS_FreeRTOS_seL4/cfe/fsw/cfe-core/src/time/cfe_time_tone.c ****     **    compute current time.  We continue to use the old tone/data
 655:/home/simulink/cFS_FreeRTOS_seL4/cfe/fsw/cfe-core/src/time/cfe_time_tone.c ****     **    combo until we get a new matched pair.
 656:/home/simulink/cFS_FreeRTOS_seL4/cfe/fsw/cfe-core/src/time/cfe_time_tone.c ****     */
 657:/home/simulink/cFS_FreeRTOS_seL4/cfe/fsw/cfe-core/src/time/cfe_time_tone.c ****     #if (CFE_TIME_AT_TONE_WAS == TRUE)
 658:/home/simulink/cFS_FreeRTOS_seL4/cfe/fsw/cfe-core/src/time/cfe_time_tone.c ****     #endif
 659:/home/simulink/cFS_FreeRTOS_seL4/cfe/fsw/cfe-core/src/time/cfe_time_tone.c **** 
 660:/home/simulink/cFS_FreeRTOS_seL4/cfe/fsw/cfe-core/src/time/cfe_time_tone.c ****     /*
 661:/home/simulink/cFS_FreeRTOS_seL4/cfe/fsw/cfe-core/src/time/cfe_time_tone.c ****     ** If the data packet is designed to arrive before the tone signal...
 662:/home/simulink/cFS_FreeRTOS_seL4/cfe/fsw/cfe-core/src/time/cfe_time_tone.c ****     **
 663:/home/simulink/cFS_FreeRTOS_seL4/cfe/fsw/cfe-core/src/time/cfe_time_tone.c ****     ** Check to see if the most recent data packet matches this
 664:/home/simulink/cFS_FreeRTOS_seL4/cfe/fsw/cfe-core/src/time/cfe_time_tone.c ****     **    tone signal.  If so, we have a matched pair and can
 665:/home/simulink/cFS_FreeRTOS_seL4/cfe/fsw/cfe-core/src/time/cfe_time_tone.c ****     **    now start using the new data to compute time.
 666:/home/simulink/cFS_FreeRTOS_seL4/cfe/fsw/cfe-core/src/time/cfe_time_tone.c ****     */
 667:/home/simulink/cFS_FreeRTOS_seL4/cfe/fsw/cfe-core/src/time/cfe_time_tone.c ****     #if (CFE_TIME_AT_TONE_WILL_BE == TRUE)
 668:/home/simulink/cFS_FreeRTOS_seL4/cfe/fsw/cfe-core/src/time/cfe_time_tone.c ****     CFE_TIME_ToneVerify(CFE_TIME_TaskData.ToneDataLatch,
 669:/home/simulink/cFS_FreeRTOS_seL4/cfe/fsw/cfe-core/src/time/cfe_time_tone.c ****                         CFE_TIME_TaskData.ToneSignalLatch);
 670:/home/simulink/cFS_FreeRTOS_seL4/cfe/fsw/cfe-core/src/time/cfe_time_tone.c ****     #endif
 671:/home/simulink/cFS_FreeRTOS_seL4/cfe/fsw/cfe-core/src/time/cfe_time_tone.c **** 
68K GAS   			page 16


 672:/home/simulink/cFS_FreeRTOS_seL4/cfe/fsw/cfe-core/src/time/cfe_time_tone.c ****     /*
 673:/home/simulink/cFS_FreeRTOS_seL4/cfe/fsw/cfe-core/src/time/cfe_time_tone.c ****     ** Maintain a count of tone signal packets...
 674:/home/simulink/cFS_FreeRTOS_seL4/cfe/fsw/cfe-core/src/time/cfe_time_tone.c ****     */
 675:/home/simulink/cFS_FreeRTOS_seL4/cfe/fsw/cfe-core/src/time/cfe_time_tone.c ****     CFE_TIME_TaskData.ToneSignalCount++;
 154               	.loc 1 675 0
 155 014c 2039 0000 	move.l CFE_TIME_TaskData+400,%d0
 155      0000 
 156 0152 5280      	addq.l #1,%d0
 157 0154 23C0 0000 	move.l %d0,CFE_TIME_TaskData+400
 157      0000 
 676:/home/simulink/cFS_FreeRTOS_seL4/cfe/fsw/cfe-core/src/time/cfe_time_tone.c **** 
 677:/home/simulink/cFS_FreeRTOS_seL4/cfe/fsw/cfe-core/src/time/cfe_time_tone.c ****     return;
 158               	.loc 1 677 0
 159 015a 4E71      	nop
 678:/home/simulink/cFS_FreeRTOS_seL4/cfe/fsw/cfe-core/src/time/cfe_time_tone.c **** 
 679:/home/simulink/cFS_FreeRTOS_seL4/cfe/fsw/cfe-core/src/time/cfe_time_tone.c **** } /* End of CFE_TIME_ToneSignal() */
 160               	.loc 1 679 0
 161 015c 4E75      	rts
 162               	.cfi_endproc
 163               	.LFE61:
 164               	.sizeCFE_TIME_ToneSignal, .-CFE_TIME_ToneSignal
 165               	.align2
 166               	.globlCFE_TIME_ToneVerify
 167               	.typeCFE_TIME_ToneVerify, @function
 168               	CFE_TIME_ToneVerify:
 169               	.LFB62:
 680:/home/simulink/cFS_FreeRTOS_seL4/cfe/fsw/cfe-core/src/time/cfe_time_tone.c **** 
 681:/home/simulink/cFS_FreeRTOS_seL4/cfe/fsw/cfe-core/src/time/cfe_time_tone.c **** 
 682:/home/simulink/cFS_FreeRTOS_seL4/cfe/fsw/cfe-core/src/time/cfe_time_tone.c **** /* * * * * * * * * * * * * * * * * * * * * * * * * * * * * * * * * */
 683:/home/simulink/cFS_FreeRTOS_seL4/cfe/fsw/cfe-core/src/time/cfe_time_tone.c **** /*                                                                 */
 684:/home/simulink/cFS_FreeRTOS_seL4/cfe/fsw/cfe-core/src/time/cfe_time_tone.c **** /* CFE_TIME_ToneVerify() -- validate tone and data packet          */
 685:/home/simulink/cFS_FreeRTOS_seL4/cfe/fsw/cfe-core/src/time/cfe_time_tone.c **** /*                                                                 */
 686:/home/simulink/cFS_FreeRTOS_seL4/cfe/fsw/cfe-core/src/time/cfe_time_tone.c **** /*                                                                 */
 687:/home/simulink/cFS_FreeRTOS_seL4/cfe/fsw/cfe-core/src/time/cfe_time_tone.c **** /* If the data packet is designed to arrive after the tone, then   */
 688:/home/simulink/cFS_FreeRTOS_seL4/cfe/fsw/cfe-core/src/time/cfe_time_tone.c **** /*                                                                 */
 689:/home/simulink/cFS_FreeRTOS_seL4/cfe/fsw/cfe-core/src/time/cfe_time_tone.c **** /*    Time1 = local clock latched at the detection of the tone     */
 690:/home/simulink/cFS_FreeRTOS_seL4/cfe/fsw/cfe-core/src/time/cfe_time_tone.c **** /*    Time2 = local clock latched at the arrival of the packet     */
 691:/home/simulink/cFS_FreeRTOS_seL4/cfe/fsw/cfe-core/src/time/cfe_time_tone.c **** /*                                                                 */
 692:/home/simulink/cFS_FreeRTOS_seL4/cfe/fsw/cfe-core/src/time/cfe_time_tone.c **** /*                                                                 */
 693:/home/simulink/cFS_FreeRTOS_seL4/cfe/fsw/cfe-core/src/time/cfe_time_tone.c **** /* If the data packet is designed to arrive before the tone, then  */
 694:/home/simulink/cFS_FreeRTOS_seL4/cfe/fsw/cfe-core/src/time/cfe_time_tone.c **** /*                                                                 */
 695:/home/simulink/cFS_FreeRTOS_seL4/cfe/fsw/cfe-core/src/time/cfe_time_tone.c **** /*    Time1 = local clock latched at the arrival of the packet     */
 696:/home/simulink/cFS_FreeRTOS_seL4/cfe/fsw/cfe-core/src/time/cfe_time_tone.c **** /*    Time2 = local clock latched at the detection of the tone     */
 697:/home/simulink/cFS_FreeRTOS_seL4/cfe/fsw/cfe-core/src/time/cfe_time_tone.c **** /*                                                                 */
 698:/home/simulink/cFS_FreeRTOS_seL4/cfe/fsw/cfe-core/src/time/cfe_time_tone.c **** /*                                                                 */
 699:/home/simulink/cFS_FreeRTOS_seL4/cfe/fsw/cfe-core/src/time/cfe_time_tone.c **** /* In either case, Time1 occurred before Time2                     */
 700:/home/simulink/cFS_FreeRTOS_seL4/cfe/fsw/cfe-core/src/time/cfe_time_tone.c **** /*                                                                 */
 701:/home/simulink/cFS_FreeRTOS_seL4/cfe/fsw/cfe-core/src/time/cfe_time_tone.c **** /* * * * * * * * * * * * * * * * * * * * * * * * * * * * * * * * * */
 702:/home/simulink/cFS_FreeRTOS_seL4/cfe/fsw/cfe-core/src/time/cfe_time_tone.c **** 
 703:/home/simulink/cFS_FreeRTOS_seL4/cfe/fsw/cfe-core/src/time/cfe_time_tone.c **** void CFE_TIME_ToneVerify(CFE_TIME_SysTime_t Time1, CFE_TIME_SysTime_t Time2)
 704:/home/simulink/cFS_FreeRTOS_seL4/cfe/fsw/cfe-core/src/time/cfe_time_tone.c **** {
 170               	.loc 1 704 0
 171               	.cfi_startproc
 172 015e 4FEF FFF4 	lea (-12,%sp),%sp
 173               	.cfi_def_cfa_offset 16
 705:/home/simulink/cFS_FreeRTOS_seL4/cfe/fsw/cfe-core/src/time/cfe_time_tone.c ****     CFE_TIME_Compare_t result;
 706:/home/simulink/cFS_FreeRTOS_seL4/cfe/fsw/cfe-core/src/time/cfe_time_tone.c ****     CFE_TIME_SysTime_t elapsed;
68K GAS   			page 17


 707:/home/simulink/cFS_FreeRTOS_seL4/cfe/fsw/cfe-core/src/time/cfe_time_tone.c **** 
 708:/home/simulink/cFS_FreeRTOS_seL4/cfe/fsw/cfe-core/src/time/cfe_time_tone.c ****     static CFE_TIME_SysTime_t PrevTime1 = {0,0};
 709:/home/simulink/cFS_FreeRTOS_seL4/cfe/fsw/cfe-core/src/time/cfe_time_tone.c ****     static CFE_TIME_SysTime_t PrevTime2 = {0,0};
 710:/home/simulink/cFS_FreeRTOS_seL4/cfe/fsw/cfe-core/src/time/cfe_time_tone.c **** 
 711:/home/simulink/cFS_FreeRTOS_seL4/cfe/fsw/cfe-core/src/time/cfe_time_tone.c ****     /*
 712:/home/simulink/cFS_FreeRTOS_seL4/cfe/fsw/cfe-core/src/time/cfe_time_tone.c ****     ** It is possible to call this func with static time value...
 713:/home/simulink/cFS_FreeRTOS_seL4/cfe/fsw/cfe-core/src/time/cfe_time_tone.c ****     */
 714:/home/simulink/cFS_FreeRTOS_seL4/cfe/fsw/cfe-core/src/time/cfe_time_tone.c ****     result = CFE_TIME_Compare(PrevTime1, Time1);
 174               	.loc 1 714 0
 175 0162 2F2F 0014 	move.l 20(%sp),-(%sp)
 176 0166 2F2F 0014 	move.l 20(%sp),-(%sp)
 177               	.cfi_def_cfa_offset 24
 178 016a 2F39 0000 	move.l PrevTime1.5301+4,-(%sp)
 178      0000 
 179 0170 2F39 0000 	move.l PrevTime1.5301,-(%sp)
 179      0000 
 180               	.cfi_def_cfa_offset 32
 181 0176 4EB9 0000 	jsr CFE_TIME_Compare
 181      0000 
 182 017c 4FEF 0010 	lea (16,%sp),%sp
 183               	.cfi_def_cfa_offset 16
 184 0180 2F40 0008 	move.l %d0,8(%sp)
 715:/home/simulink/cFS_FreeRTOS_seL4/cfe/fsw/cfe-core/src/time/cfe_time_tone.c ****     if (result == CFE_TIME_EQUAL)
 185               	.loc 1 715 0
 186 0184 4AAF 0008 	tst.l 8(%sp)
 187 0188 6612      	jne .L10
 716:/home/simulink/cFS_FreeRTOS_seL4/cfe/fsw/cfe-core/src/time/cfe_time_tone.c ****     {
 717:/home/simulink/cFS_FreeRTOS_seL4/cfe/fsw/cfe-core/src/time/cfe_time_tone.c ****         CFE_TIME_TaskData.ToneMatchErrors++;
 188               	.loc 1 717 0
 189 018a 2039 0000 	move.l CFE_TIME_TaskData+396,%d0
 189      0000 
 190 0190 5280      	addq.l #1,%d0
 191 0192 23C0 0000 	move.l %d0,CFE_TIME_TaskData+396
 191      0000 
 192 0198 6000 0118 	jra .L11
 193               	.L10:
 718:/home/simulink/cFS_FreeRTOS_seL4/cfe/fsw/cfe-core/src/time/cfe_time_tone.c ****     }
 719:/home/simulink/cFS_FreeRTOS_seL4/cfe/fsw/cfe-core/src/time/cfe_time_tone.c ****     else
 720:/home/simulink/cFS_FreeRTOS_seL4/cfe/fsw/cfe-core/src/time/cfe_time_tone.c ****     {
 721:/home/simulink/cFS_FreeRTOS_seL4/cfe/fsw/cfe-core/src/time/cfe_time_tone.c ****         result = CFE_TIME_Compare(PrevTime2, Time2);
 194               	.loc 1 721 0
 195 019c 2F2F 001C 	move.l 28(%sp),-(%sp)
 196 01a0 2F2F 001C 	move.l 28(%sp),-(%sp)
 197               	.cfi_def_cfa_offset 24
 198 01a4 2F39 0000 	move.l PrevTime2.5302+4,-(%sp)
 198      0000 
 199 01aa 2F39 0000 	move.l PrevTime2.5302,-(%sp)
 199      0000 
 200               	.cfi_def_cfa_offset 32
 201 01b0 4EB9 0000 	jsr CFE_TIME_Compare
 201      0000 
 202 01b6 4FEF 0010 	lea (16,%sp),%sp
 203               	.cfi_def_cfa_offset 16
 204 01ba 2F40 0008 	move.l %d0,8(%sp)
 722:/home/simulink/cFS_FreeRTOS_seL4/cfe/fsw/cfe-core/src/time/cfe_time_tone.c ****         if (result == CFE_TIME_EQUAL)
 205               	.loc 1 722 0
 206 01be 4AAF 0008 	tst.l 8(%sp)
68K GAS   			page 18


 207 01c2 6612      	jne .L12
 723:/home/simulink/cFS_FreeRTOS_seL4/cfe/fsw/cfe-core/src/time/cfe_time_tone.c ****         {
 724:/home/simulink/cFS_FreeRTOS_seL4/cfe/fsw/cfe-core/src/time/cfe_time_tone.c ****             CFE_TIME_TaskData.ToneMatchErrors++;
 208               	.loc 1 724 0
 209 01c4 2039 0000 	move.l CFE_TIME_TaskData+396,%d0
 209      0000 
 210 01ca 5280      	addq.l #1,%d0
 211 01cc 23C0 0000 	move.l %d0,CFE_TIME_TaskData+396
 211      0000 
 212 01d2 6000 00DE 	jra .L11
 213               	.L12:
 725:/home/simulink/cFS_FreeRTOS_seL4/cfe/fsw/cfe-core/src/time/cfe_time_tone.c ****         }
 726:/home/simulink/cFS_FreeRTOS_seL4/cfe/fsw/cfe-core/src/time/cfe_time_tone.c ****         else
 727:/home/simulink/cFS_FreeRTOS_seL4/cfe/fsw/cfe-core/src/time/cfe_time_tone.c ****         {
 728:/home/simulink/cFS_FreeRTOS_seL4/cfe/fsw/cfe-core/src/time/cfe_time_tone.c ****             /*
 729:/home/simulink/cFS_FreeRTOS_seL4/cfe/fsw/cfe-core/src/time/cfe_time_tone.c ****             ** Compute elapsed time between tone and data packet...
 730:/home/simulink/cFS_FreeRTOS_seL4/cfe/fsw/cfe-core/src/time/cfe_time_tone.c ****             */
 731:/home/simulink/cFS_FreeRTOS_seL4/cfe/fsw/cfe-core/src/time/cfe_time_tone.c ****             result = CFE_TIME_Compare(Time1, Time2);
 214               	.loc 1 731 0
 215 01d6 2F2F 001C 	move.l 28(%sp),-(%sp)
 216 01da 2F2F 001C 	move.l 28(%sp),-(%sp)
 217               	.cfi_def_cfa_offset 24
 218 01de 2F2F 001C 	move.l 28(%sp),-(%sp)
 219 01e2 2F2F 001C 	move.l 28(%sp),-(%sp)
 220               	.cfi_def_cfa_offset 32
 221 01e6 4EB9 0000 	jsr CFE_TIME_Compare
 221      0000 
 222 01ec 4FEF 0010 	lea (16,%sp),%sp
 223               	.cfi_def_cfa_offset 16
 224 01f0 2F40 0008 	move.l %d0,8(%sp)
 732:/home/simulink/cFS_FreeRTOS_seL4/cfe/fsw/cfe-core/src/time/cfe_time_tone.c ****             if (result == CFE_TIME_A_GT_B)
 225               	.loc 1 732 0
 226 01f4 7001      	moveq #1,%d0
 227 01f6 B0AF 0008 	cmp.l 8(%sp),%d0
 228 01fa 6646      	jne .L13
 733:/home/simulink/cFS_FreeRTOS_seL4/cfe/fsw/cfe-core/src/time/cfe_time_tone.c ****             {
 734:/home/simulink/cFS_FreeRTOS_seL4/cfe/fsw/cfe-core/src/time/cfe_time_tone.c ****                 /*
 735:/home/simulink/cFS_FreeRTOS_seL4/cfe/fsw/cfe-core/src/time/cfe_time_tone.c ****                 ** Local clock has rolled over...
 736:/home/simulink/cFS_FreeRTOS_seL4/cfe/fsw/cfe-core/src/time/cfe_time_tone.c ****                 */
 737:/home/simulink/cFS_FreeRTOS_seL4/cfe/fsw/cfe-core/src/time/cfe_time_tone.c ****                 elapsed = CFE_TIME_Subtract(CFE_TIME_TaskData.MaxLocalClock, Time1);
 229               	.loc 1 737 0
 230 01fc 2F2F 0014 	move.l 20(%sp),-(%sp)
 231 0200 2F2F 0014 	move.l 20(%sp),-(%sp)
 232               	.cfi_def_cfa_offset 24
 233 0204 2F39 0000 	move.l CFE_TIME_TaskData+456,-(%sp)
 233      0000 
 234 020a 2F39 0000 	move.l CFE_TIME_TaskData+452,-(%sp)
 234      0000 
 235               	.cfi_def_cfa_offset 32
 236 0210 4EB9 0000 	jsr CFE_TIME_Subtract
 236      0000 
 237 0216 4FEF 0010 	lea (16,%sp),%sp
 238               	.cfi_def_cfa_offset 16
 239 021a 2E80      	move.l %d0,(%sp)
 240 021c 2F41 0004 	move.l %d1,4(%sp)
 738:/home/simulink/cFS_FreeRTOS_seL4/cfe/fsw/cfe-core/src/time/cfe_time_tone.c ****                 elapsed = CFE_TIME_Add(elapsed, Time2);
 241               	.loc 1 738 0
68K GAS   			page 19


 242 0220 2F2F 001C 	move.l 28(%sp),-(%sp)
 243 0224 2F2F 001C 	move.l 28(%sp),-(%sp)
 244               	.cfi_def_cfa_offset 24
 245 0228 2F2F 000C 	move.l 12(%sp),-(%sp)
 246 022c 2F2F 000C 	move.l 12(%sp),-(%sp)
 247               	.cfi_def_cfa_offset 32
 248 0230 4EB9 0000 	jsr CFE_TIME_Add
 248      0000 
 249 0236 4FEF 0010 	lea (16,%sp),%sp
 250               	.cfi_def_cfa_offset 16
 251 023a 2E80      	move.l %d0,(%sp)
 252 023c 2F41 0004 	move.l %d1,4(%sp)
 253 0240 6020      	jra .L14
 254               	.L13:
 739:/home/simulink/cFS_FreeRTOS_seL4/cfe/fsw/cfe-core/src/time/cfe_time_tone.c ****             }
 740:/home/simulink/cFS_FreeRTOS_seL4/cfe/fsw/cfe-core/src/time/cfe_time_tone.c ****             else
 741:/home/simulink/cFS_FreeRTOS_seL4/cfe/fsw/cfe-core/src/time/cfe_time_tone.c ****             {
 742:/home/simulink/cFS_FreeRTOS_seL4/cfe/fsw/cfe-core/src/time/cfe_time_tone.c ****                 /*
 743:/home/simulink/cFS_FreeRTOS_seL4/cfe/fsw/cfe-core/src/time/cfe_time_tone.c ****                 ** Normal case...
 744:/home/simulink/cFS_FreeRTOS_seL4/cfe/fsw/cfe-core/src/time/cfe_time_tone.c ****                 */
 745:/home/simulink/cFS_FreeRTOS_seL4/cfe/fsw/cfe-core/src/time/cfe_time_tone.c ****                 elapsed = CFE_TIME_Subtract(Time2, Time1);
 255               	.loc 1 745 0
 256 0242 2F2F 0014 	move.l 20(%sp),-(%sp)
 257 0246 2F2F 0014 	move.l 20(%sp),-(%sp)
 258               	.cfi_def_cfa_offset 24
 259 024a 2F2F 0024 	move.l 36(%sp),-(%sp)
 260 024e 2F2F 0024 	move.l 36(%sp),-(%sp)
 261               	.cfi_def_cfa_offset 32
 262 0252 4EB9 0000 	jsr CFE_TIME_Subtract
 262      0000 
 263 0258 4FEF 0010 	lea (16,%sp),%sp
 264               	.cfi_def_cfa_offset 16
 265 025c 2E80      	move.l %d0,(%sp)
 266 025e 2F41 0004 	move.l %d1,4(%sp)
 267               	.L14:
 746:/home/simulink/cFS_FreeRTOS_seL4/cfe/fsw/cfe-core/src/time/cfe_time_tone.c ****             }
 747:/home/simulink/cFS_FreeRTOS_seL4/cfe/fsw/cfe-core/src/time/cfe_time_tone.c **** 
 748:/home/simulink/cFS_FreeRTOS_seL4/cfe/fsw/cfe-core/src/time/cfe_time_tone.c ****             /*
 749:/home/simulink/cFS_FreeRTOS_seL4/cfe/fsw/cfe-core/src/time/cfe_time_tone.c ****             ** Ensure that time between packet and tone is within limits...
 750:/home/simulink/cFS_FreeRTOS_seL4/cfe/fsw/cfe-core/src/time/cfe_time_tone.c ****             */
 751:/home/simulink/cFS_FreeRTOS_seL4/cfe/fsw/cfe-core/src/time/cfe_time_tone.c ****             if ((elapsed.Seconds != 0) ||
 268               	.loc 1 751 0
 269 0262 2017      	move.l (%sp),%d0
 270 0264 4A80      	tst.l %d0
 271 0266 661C      	jne .L15
 752:/home/simulink/cFS_FreeRTOS_seL4/cfe/fsw/cfe-core/src/time/cfe_time_tone.c ****                 (elapsed.Subseconds < CFE_TIME_TaskData.MinElapsed) ||
 272               	.loc 1 752 0 discriminator 1
 273 0268 222F 0004 	move.l 4(%sp),%d1
 274 026c 2039 0000 	move.l CFE_TIME_TaskData+444,%d0
 274      0000 
 751:/home/simulink/cFS_FreeRTOS_seL4/cfe/fsw/cfe-core/src/time/cfe_time_tone.c ****                 (elapsed.Subseconds < CFE_TIME_TaskData.MinElapsed) ||
 275               	.loc 1 751 0 discriminator 1
 276 0272 B081      	cmp.l %d1,%d0
 277 0274 620E      	jhi .L15
 753:/home/simulink/cFS_FreeRTOS_seL4/cfe/fsw/cfe-core/src/time/cfe_time_tone.c ****                 (elapsed.Subseconds > CFE_TIME_TaskData.MaxElapsed))
 278               	.loc 1 753 0
 279 0276 222F 0004 	move.l 4(%sp),%d1
68K GAS   			page 20


 280 027a 2039 0000 	move.l CFE_TIME_TaskData+448,%d0
 280      0000 
 752:/home/simulink/cFS_FreeRTOS_seL4/cfe/fsw/cfe-core/src/time/cfe_time_tone.c ****                 (elapsed.Subseconds < CFE_TIME_TaskData.MinElapsed) ||
 281               	.loc 1 752 0
 282 0280 B081      	cmp.l %d1,%d0
 283 0282 6410      	jcc .L16
 284               	.L15:
 754:/home/simulink/cFS_FreeRTOS_seL4/cfe/fsw/cfe-core/src/time/cfe_time_tone.c ****             {
 755:/home/simulink/cFS_FreeRTOS_seL4/cfe/fsw/cfe-core/src/time/cfe_time_tone.c ****                 /*
 756:/home/simulink/cFS_FreeRTOS_seL4/cfe/fsw/cfe-core/src/time/cfe_time_tone.c ****                 ** Maintain count of tone vs data packet mis-matches...
 757:/home/simulink/cFS_FreeRTOS_seL4/cfe/fsw/cfe-core/src/time/cfe_time_tone.c ****                 */
 758:/home/simulink/cFS_FreeRTOS_seL4/cfe/fsw/cfe-core/src/time/cfe_time_tone.c ****                 CFE_TIME_TaskData.ToneMatchErrors++;
 285               	.loc 1 758 0
 286 0284 2039 0000 	move.l CFE_TIME_TaskData+396,%d0
 286      0000 
 287 028a 5280      	addq.l #1,%d0
 288 028c 23C0 0000 	move.l %d0,CFE_TIME_TaskData+396
 288      0000 
 289 0292 601E      	jra .L11
 290               	.L16:
 759:/home/simulink/cFS_FreeRTOS_seL4/cfe/fsw/cfe-core/src/time/cfe_time_tone.c ****             }
 760:/home/simulink/cFS_FreeRTOS_seL4/cfe/fsw/cfe-core/src/time/cfe_time_tone.c ****             else
 761:/home/simulink/cFS_FreeRTOS_seL4/cfe/fsw/cfe-core/src/time/cfe_time_tone.c ****             {
 762:/home/simulink/cFS_FreeRTOS_seL4/cfe/fsw/cfe-core/src/time/cfe_time_tone.c ****                 CFE_TIME_TaskData.ToneMatchCount++;
 291               	.loc 1 762 0
 292 0294 2039 0000 	move.l CFE_TIME_TaskData+392,%d0
 292      0000 
 293 029a 5280      	addq.l #1,%d0
 294 029c 23C0 0000 	move.l %d0,CFE_TIME_TaskData+392
 294      0000 
 763:/home/simulink/cFS_FreeRTOS_seL4/cfe/fsw/cfe-core/src/time/cfe_time_tone.c **** 
 764:/home/simulink/cFS_FreeRTOS_seL4/cfe/fsw/cfe-core/src/time/cfe_time_tone.c ****                 /*
 765:/home/simulink/cFS_FreeRTOS_seL4/cfe/fsw/cfe-core/src/time/cfe_time_tone.c ****                 ** Skip tone packet update if commanded into "flywheel" mode...
 766:/home/simulink/cFS_FreeRTOS_seL4/cfe/fsw/cfe-core/src/time/cfe_time_tone.c ****                 */
 767:/home/simulink/cFS_FreeRTOS_seL4/cfe/fsw/cfe-core/src/time/cfe_time_tone.c ****                 if (!CFE_TIME_TaskData.Forced2Fly)
 295               	.loc 1 767 0
 296 02a2 1039 0000 	move.b CFE_TIME_TaskData+460,%d0
 296      0000 
 297 02a8 4A00      	tst.b %d0
 298 02aa 6606      	jne .L11
 768:/home/simulink/cFS_FreeRTOS_seL4/cfe/fsw/cfe-core/src/time/cfe_time_tone.c ****                 {
 769:/home/simulink/cFS_FreeRTOS_seL4/cfe/fsw/cfe-core/src/time/cfe_time_tone.c ****                     /*
 770:/home/simulink/cFS_FreeRTOS_seL4/cfe/fsw/cfe-core/src/time/cfe_time_tone.c ****                     ** Process "matching" tone and data packet...
 771:/home/simulink/cFS_FreeRTOS_seL4/cfe/fsw/cfe-core/src/time/cfe_time_tone.c ****                     */
 772:/home/simulink/cFS_FreeRTOS_seL4/cfe/fsw/cfe-core/src/time/cfe_time_tone.c ****                     CFE_TIME_ToneUpdate();
 299               	.loc 1 772 0
 300 02ac 4EB9 0000 	jsr CFE_TIME_ToneUpdate
 300      0000 
 301               	.L11:
 773:/home/simulink/cFS_FreeRTOS_seL4/cfe/fsw/cfe-core/src/time/cfe_time_tone.c ****                 }
 774:/home/simulink/cFS_FreeRTOS_seL4/cfe/fsw/cfe-core/src/time/cfe_time_tone.c ****             }
 775:/home/simulink/cFS_FreeRTOS_seL4/cfe/fsw/cfe-core/src/time/cfe_time_tone.c ****         }
 776:/home/simulink/cFS_FreeRTOS_seL4/cfe/fsw/cfe-core/src/time/cfe_time_tone.c ****     }
 777:/home/simulink/cFS_FreeRTOS_seL4/cfe/fsw/cfe-core/src/time/cfe_time_tone.c **** 
 778:/home/simulink/cFS_FreeRTOS_seL4/cfe/fsw/cfe-core/src/time/cfe_time_tone.c ****     PrevTime1 = Time1;
 302               	.loc 1 778 0
 303 02b2 202F 0010 	move.l 16(%sp),%d0
68K GAS   			page 21


 304 02b6 222F 0014 	move.l 20(%sp),%d1
 305 02ba 23C0 0000 	move.l %d0,PrevTime1.5301
 305      0000 
 306 02c0 23C1 0000 	move.l %d1,PrevTime1.5301+4
 306      0000 
 779:/home/simulink/cFS_FreeRTOS_seL4/cfe/fsw/cfe-core/src/time/cfe_time_tone.c ****     PrevTime2 = Time2;
 307               	.loc 1 779 0
 308 02c6 202F 0018 	move.l 24(%sp),%d0
 309 02ca 222F 001C 	move.l 28(%sp),%d1
 310 02ce 23C0 0000 	move.l %d0,PrevTime2.5302
 310      0000 
 311 02d4 23C1 0000 	move.l %d1,PrevTime2.5302+4
 311      0000 
 780:/home/simulink/cFS_FreeRTOS_seL4/cfe/fsw/cfe-core/src/time/cfe_time_tone.c **** 
 781:/home/simulink/cFS_FreeRTOS_seL4/cfe/fsw/cfe-core/src/time/cfe_time_tone.c ****     return;
 312               	.loc 1 781 0
 313 02da 4E71      	nop
 782:/home/simulink/cFS_FreeRTOS_seL4/cfe/fsw/cfe-core/src/time/cfe_time_tone.c **** 
 783:/home/simulink/cFS_FreeRTOS_seL4/cfe/fsw/cfe-core/src/time/cfe_time_tone.c **** } /* End of CFE_TIME_ToneVerify() */
 314               	.loc 1 783 0
 315 02dc 4FEF 000C 	lea (12,%sp),%sp
 316 02e0 4E75      	rts
 317               	.cfi_endproc
 318               	.LFE62:
 319               	.sizeCFE_TIME_ToneVerify, .-CFE_TIME_ToneVerify
 320               	.section.rodata
 321               	.LC0:
 322 0000 5374 6F70 	.string"Stop FLYWHEEL"
 322      2046 4C59 
 322      5748 4545 
 322      4C00 
 323               	.text
 324               	.align2
 325               	.globlCFE_TIME_ToneUpdate
 326               	.typeCFE_TIME_ToneUpdate, @function
 327               	CFE_TIME_ToneUpdate:
 328               	.LFB63:
 784:/home/simulink/cFS_FreeRTOS_seL4/cfe/fsw/cfe-core/src/time/cfe_time_tone.c **** 
 785:/home/simulink/cFS_FreeRTOS_seL4/cfe/fsw/cfe-core/src/time/cfe_time_tone.c **** 
 786:/home/simulink/cFS_FreeRTOS_seL4/cfe/fsw/cfe-core/src/time/cfe_time_tone.c **** /* * * * * * * * * * * * * * * * * * * * * * * * * * * * * * * * * */
 787:/home/simulink/cFS_FreeRTOS_seL4/cfe/fsw/cfe-core/src/time/cfe_time_tone.c **** /*                                                                 */
 788:/home/simulink/cFS_FreeRTOS_seL4/cfe/fsw/cfe-core/src/time/cfe_time_tone.c **** /* CFE_TIME_ToneUpdate() -- process "matching" tone & data packet  */
 789:/home/simulink/cFS_FreeRTOS_seL4/cfe/fsw/cfe-core/src/time/cfe_time_tone.c **** /*                                                                 */
 790:/home/simulink/cFS_FreeRTOS_seL4/cfe/fsw/cfe-core/src/time/cfe_time_tone.c **** /* * * * * * * * * * * * * * * * * * * * * * * * * * * * * * * * * */
 791:/home/simulink/cFS_FreeRTOS_seL4/cfe/fsw/cfe-core/src/time/cfe_time_tone.c **** 
 792:/home/simulink/cFS_FreeRTOS_seL4/cfe/fsw/cfe-core/src/time/cfe_time_tone.c **** void CFE_TIME_ToneUpdate(void)
 793:/home/simulink/cFS_FreeRTOS_seL4/cfe/fsw/cfe-core/src/time/cfe_time_tone.c **** {
 329               	.loc 1 793 0
 330               	.cfi_startproc
 331 02e2 4FEF FFB8 	lea (-72,%sp),%sp
 332               	.cfi_def_cfa_offset 76
 794:/home/simulink/cFS_FreeRTOS_seL4/cfe/fsw/cfe-core/src/time/cfe_time_tone.c ****     CFE_TIME_Reference_t Reference;
 795:/home/simulink/cFS_FreeRTOS_seL4/cfe/fsw/cfe-core/src/time/cfe_time_tone.c ****     boolean NewFlywheelStatus = FALSE;
 333               	.loc 1 795 0
 334 02e6 4200      	clr.b %d0
 335 02e8 1F40 0047 	move.b %d0,71(%sp)
 796:/home/simulink/cFS_FreeRTOS_seL4/cfe/fsw/cfe-core/src/time/cfe_time_tone.c ****     int32 IntFlags;
68K GAS   			page 22


 797:/home/simulink/cFS_FreeRTOS_seL4/cfe/fsw/cfe-core/src/time/cfe_time_tone.c **** 
 798:/home/simulink/cFS_FreeRTOS_seL4/cfe/fsw/cfe-core/src/time/cfe_time_tone.c ****     /* Zero out the Reference before we send it into a function */
 799:/home/simulink/cFS_FreeRTOS_seL4/cfe/fsw/cfe-core/src/time/cfe_time_tone.c ****     CFE_PSP_MemSet(&Reference, 0 , sizeof(CFE_TIME_Reference_t));
 336               	.loc 1 799 0
 337 02ec 4878 0040 	pea 64.w
 338               	.cfi_def_cfa_offset 80
 339 02f0 42A7      	clr.l -(%sp)
 340               	.cfi_def_cfa_offset 84
 341 02f2 200F      	move.l %sp,%d0
 342 02f4 5080      	addq.l #8,%d0
 343 02f6 2F00      	move.l %d0,-(%sp)
 344               	.cfi_def_cfa_offset 88
 345 02f8 4EB9 0000 	jsr CFE_PSP_MemSet
 345      0000 
 346 02fe 4FEF 000C 	lea (12,%sp),%sp
 347               	.cfi_def_cfa_offset 76
 800:/home/simulink/cFS_FreeRTOS_seL4/cfe/fsw/cfe-core/src/time/cfe_time_tone.c ****     
 801:/home/simulink/cFS_FreeRTOS_seL4/cfe/fsw/cfe-core/src/time/cfe_time_tone.c ****     /*
 802:/home/simulink/cFS_FreeRTOS_seL4/cfe/fsw/cfe-core/src/time/cfe_time_tone.c ****     ** If we have been flywheeling, VirtualMET may be incorrect
 803:/home/simulink/cFS_FreeRTOS_seL4/cfe/fsw/cfe-core/src/time/cfe_time_tone.c ****     **  (e.g. missing tone signals -- VirtualMET is tone count)
 804:/home/simulink/cFS_FreeRTOS_seL4/cfe/fsw/cfe-core/src/time/cfe_time_tone.c ****     */
 805:/home/simulink/cFS_FreeRTOS_seL4/cfe/fsw/cfe-core/src/time/cfe_time_tone.c ****     if ((CFE_TIME_TaskData.ClockSource == CFE_TIME_USE_INTERN) &&
 348               	.loc 1 805 0
 349 0302 3039 0000 	move.w CFE_TIME_TaskData+324,%d0
 349      0000 
 350 0308 3040      	move.w %d0,%a0
 351 030a 7201      	moveq #1,%d1
 352 030c B288      	cmp.l %a0,%d1
 353 030e 661A      	jne .L19
 806:/home/simulink/cFS_FreeRTOS_seL4/cfe/fsw/cfe-core/src/time/cfe_time_tone.c ****         (CFE_TIME_TaskData.ClockFlyState == CFE_TIME_IS_FLY))
 354               	.loc 1 806 0 discriminator 1
 355 0310 3039 0000 	move.w CFE_TIME_TaskData+322,%d0
 355      0000 
 805:/home/simulink/cFS_FreeRTOS_seL4/cfe/fsw/cfe-core/src/time/cfe_time_tone.c ****         (CFE_TIME_TaskData.ClockFlyState == CFE_TIME_IS_FLY))
 356               	.loc 1 805 0 discriminator 1
 357 0316 3040      	move.w %d0,%a0
 358 0318 7001      	moveq #1,%d0
 359 031a B088      	cmp.l %a0,%d0
 360 031c 660C      	jne .L19
 807:/home/simulink/cFS_FreeRTOS_seL4/cfe/fsw/cfe-core/src/time/cfe_time_tone.c ****     {
 808:/home/simulink/cFS_FreeRTOS_seL4/cfe/fsw/cfe-core/src/time/cfe_time_tone.c ****         /*
 809:/home/simulink/cFS_FreeRTOS_seL4/cfe/fsw/cfe-core/src/time/cfe_time_tone.c ****         ** Get reference time (before locking out interrupts)...
 810:/home/simulink/cFS_FreeRTOS_seL4/cfe/fsw/cfe-core/src/time/cfe_time_tone.c ****         */
 811:/home/simulink/cFS_FreeRTOS_seL4/cfe/fsw/cfe-core/src/time/cfe_time_tone.c ****         CFE_TIME_GetReference(&Reference);
 361               	.loc 1 811 0
 362 031e 200F      	move.l %sp,%d0
 363 0320 2F00      	move.l %d0,-(%sp)
 364               	.cfi_def_cfa_offset 80
 365 0322 4EB9 0000 	jsr CFE_TIME_GetReference
 365      0000 
 366 0328 588F      	addq.l #4,%sp
 367               	.cfi_def_cfa_offset 76
 368               	.L19:
 812:/home/simulink/cFS_FreeRTOS_seL4/cfe/fsw/cfe-core/src/time/cfe_time_tone.c ****     }
 813:/home/simulink/cFS_FreeRTOS_seL4/cfe/fsw/cfe-core/src/time/cfe_time_tone.c **** 
 814:/home/simulink/cFS_FreeRTOS_seL4/cfe/fsw/cfe-core/src/time/cfe_time_tone.c ****     /*
 815:/home/simulink/cFS_FreeRTOS_seL4/cfe/fsw/cfe-core/src/time/cfe_time_tone.c ****     ** Ensure that the change is made without interruption...
68K GAS   			page 23


 816:/home/simulink/cFS_FreeRTOS_seL4/cfe/fsw/cfe-core/src/time/cfe_time_tone.c ****     */
 817:/home/simulink/cFS_FreeRTOS_seL4/cfe/fsw/cfe-core/src/time/cfe_time_tone.c ****     IntFlags = OS_IntLock();
 369               	.loc 1 817 0
 370 032a 4EB9 0000 	jsr OS_IntLock
 370      0000 
 371 0330 2F40 0040 	move.l %d0,64(%sp)
 818:/home/simulink/cFS_FreeRTOS_seL4/cfe/fsw/cfe-core/src/time/cfe_time_tone.c **** 
 819:/home/simulink/cFS_FreeRTOS_seL4/cfe/fsw/cfe-core/src/time/cfe_time_tone.c ****     #if (CFE_TIME_CFG_SERVER == TRUE)
 820:/home/simulink/cFS_FreeRTOS_seL4/cfe/fsw/cfe-core/src/time/cfe_time_tone.c ****     /*
 821:/home/simulink/cFS_FreeRTOS_seL4/cfe/fsw/cfe-core/src/time/cfe_time_tone.c ****     ** Time servers cannot always use the new time data from the
 822:/home/simulink/cFS_FreeRTOS_seL4/cfe/fsw/cfe-core/src/time/cfe_time_tone.c ****     **    packet (saved as "pending" when the packet arrived).
 823:/home/simulink/cFS_FreeRTOS_seL4/cfe/fsw/cfe-core/src/time/cfe_time_tone.c ****     **
 824:/home/simulink/cFS_FreeRTOS_seL4/cfe/fsw/cfe-core/src/time/cfe_time_tone.c ****     ** If the time source is "internal" then the time data came
 825:/home/simulink/cFS_FreeRTOS_seL4/cfe/fsw/cfe-core/src/time/cfe_time_tone.c ****     **    from the same values that we would be updating, hence
 826:/home/simulink/cFS_FreeRTOS_seL4/cfe/fsw/cfe-core/src/time/cfe_time_tone.c ****     **    there is no need to do the update.  And if there has
 827:/home/simulink/cFS_FreeRTOS_seL4/cfe/fsw/cfe-core/src/time/cfe_time_tone.c ****     **    been a command to set new values during the moment
 828:/home/simulink/cFS_FreeRTOS_seL4/cfe/fsw/cfe-core/src/time/cfe_time_tone.c ****     **    between making the time at the tone packet and now,
 829:/home/simulink/cFS_FreeRTOS_seL4/cfe/fsw/cfe-core/src/time/cfe_time_tone.c ****     **    then we would want to use the command values anyway.
 830:/home/simulink/cFS_FreeRTOS_seL4/cfe/fsw/cfe-core/src/time/cfe_time_tone.c ****     **
 831:/home/simulink/cFS_FreeRTOS_seL4/cfe/fsw/cfe-core/src/time/cfe_time_tone.c ****     ** If the time source is "external" then things get complex.
 832:/home/simulink/cFS_FreeRTOS_seL4/cfe/fsw/cfe-core/src/time/cfe_time_tone.c ****     **    If the external data is MET then we only want to take
 833:/home/simulink/cFS_FreeRTOS_seL4/cfe/fsw/cfe-core/src/time/cfe_time_tone.c ****     **    the MET from the packet.  But, if the external data
 834:/home/simulink/cFS_FreeRTOS_seL4/cfe/fsw/cfe-core/src/time/cfe_time_tone.c ****     **    is "time" then we only want to take the STCF from the
 835:/home/simulink/cFS_FreeRTOS_seL4/cfe/fsw/cfe-core/src/time/cfe_time_tone.c ****     **    packet.  And, if the external data is GPS then we
 836:/home/simulink/cFS_FreeRTOS_seL4/cfe/fsw/cfe-core/src/time/cfe_time_tone.c ****     **    need to take both the STCF and the leap seconds from
 837:/home/simulink/cFS_FreeRTOS_seL4/cfe/fsw/cfe-core/src/time/cfe_time_tone.c ****     **    the packet.  Also, by definition, we cannot have both
 838:/home/simulink/cFS_FreeRTOS_seL4/cfe/fsw/cfe-core/src/time/cfe_time_tone.c ****     **    external data and a local h/w MET - so we don't need
 839:/home/simulink/cFS_FreeRTOS_seL4/cfe/fsw/cfe-core/src/time/cfe_time_tone.c ****     **    to worry about updating a local MET to external time.
 840:/home/simulink/cFS_FreeRTOS_seL4/cfe/fsw/cfe-core/src/time/cfe_time_tone.c ****     */
 841:/home/simulink/cFS_FreeRTOS_seL4/cfe/fsw/cfe-core/src/time/cfe_time_tone.c ****     CFE_TIME_TaskData.AtToneLatch = CFE_TIME_TaskData.ToneSignalLatch;
 372               	.loc 1 841 0
 373 0334 2039 0000 	move.l CFE_TIME_TaskData+376,%d0
 373      0000 
 374 033a 2239 0000 	move.l CFE_TIME_TaskData+380,%d1
 374      0000 
 375 0340 23C0 0000 	move.l %d0,CFE_TIME_TaskData+312
 375      0000 
 376 0346 23C1 0000 	move.l %d1,CFE_TIME_TaskData+316
 376      0000 
 842:/home/simulink/cFS_FreeRTOS_seL4/cfe/fsw/cfe-core/src/time/cfe_time_tone.c **** 
 843:/home/simulink/cFS_FreeRTOS_seL4/cfe/fsw/cfe-core/src/time/cfe_time_tone.c ****     if (CFE_TIME_TaskData.ClockSource == CFE_TIME_USE_INTERN)
 377               	.loc 1 843 0
 378 034c 3039 0000 	move.w CFE_TIME_TaskData+324,%d0
 378      0000 
 379 0352 3040      	move.w %d0,%a0
 380 0354 7201      	moveq #1,%d1
 381 0356 B288      	cmp.l %a0,%d1
 382 0358 662A      	jne .L20
 844:/home/simulink/cFS_FreeRTOS_seL4/cfe/fsw/cfe-core/src/time/cfe_time_tone.c ****     {
 845:/home/simulink/cFS_FreeRTOS_seL4/cfe/fsw/cfe-core/src/time/cfe_time_tone.c ****         /*
 846:/home/simulink/cFS_FreeRTOS_seL4/cfe/fsw/cfe-core/src/time/cfe_time_tone.c ****         ** If we have been flywheeling, VirtualMET may be incorrect
 847:/home/simulink/cFS_FreeRTOS_seL4/cfe/fsw/cfe-core/src/time/cfe_time_tone.c ****         **  (flywheel state is changed later in this function)
 848:/home/simulink/cFS_FreeRTOS_seL4/cfe/fsw/cfe-core/src/time/cfe_time_tone.c ****         */
 849:/home/simulink/cFS_FreeRTOS_seL4/cfe/fsw/cfe-core/src/time/cfe_time_tone.c ****         if (CFE_TIME_TaskData.ClockFlyState == CFE_TIME_IS_FLY)
 383               	.loc 1 849 0
 384 035a 3039 0000 	move.w CFE_TIME_TaskData+322,%d0
 384      0000 
68K GAS   			page 24


 385 0360 3040      	move.w %d0,%a0
 386 0362 7001      	moveq #1,%d0
 387 0364 B088      	cmp.l %a0,%d0
 388 0366 660A      	jne .L21
 850:/home/simulink/cFS_FreeRTOS_seL4/cfe/fsw/cfe-core/src/time/cfe_time_tone.c ****         {
 851:/home/simulink/cFS_FreeRTOS_seL4/cfe/fsw/cfe-core/src/time/cfe_time_tone.c ****             CFE_TIME_TaskData.VirtualMET = Reference.CurrentMET.Seconds;
 389               	.loc 1 851 0
 390 0368 202F 0038 	move.l 56(%sp),%d0
 391 036c 23C0 0000 	move.l %d0,CFE_TIME_TaskData+420
 391      0000 
 392               	.L21:
 852:/home/simulink/cFS_FreeRTOS_seL4/cfe/fsw/cfe-core/src/time/cfe_time_tone.c ****         }
 853:/home/simulink/cFS_FreeRTOS_seL4/cfe/fsw/cfe-core/src/time/cfe_time_tone.c **** 
 854:/home/simulink/cFS_FreeRTOS_seL4/cfe/fsw/cfe-core/src/time/cfe_time_tone.c ****         /*
 855:/home/simulink/cFS_FreeRTOS_seL4/cfe/fsw/cfe-core/src/time/cfe_time_tone.c ****         ** Update "time at tone" to match virtual MET counter...
 856:/home/simulink/cFS_FreeRTOS_seL4/cfe/fsw/cfe-core/src/time/cfe_time_tone.c ****         **
 857:/home/simulink/cFS_FreeRTOS_seL4/cfe/fsw/cfe-core/src/time/cfe_time_tone.c ****         ** Note: It is OK to not bother with reading the h/w MET
 858:/home/simulink/cFS_FreeRTOS_seL4/cfe/fsw/cfe-core/src/time/cfe_time_tone.c ****         **       since we sync'ed them at the moment of the tone.
 859:/home/simulink/cFS_FreeRTOS_seL4/cfe/fsw/cfe-core/src/time/cfe_time_tone.c ****         */
 860:/home/simulink/cFS_FreeRTOS_seL4/cfe/fsw/cfe-core/src/time/cfe_time_tone.c ****         CFE_TIME_TaskData.AtToneMET.Seconds = CFE_TIME_TaskData.VirtualMET;
 393               	.loc 1 860 0
 394 0372 2039 0000 	move.l CFE_TIME_TaskData+420,%d0
 394      0000 
 395 0378 23C0 0000 	move.l %d0,CFE_TIME_TaskData+284
 395      0000 
 861:/home/simulink/cFS_FreeRTOS_seL4/cfe/fsw/cfe-core/src/time/cfe_time_tone.c ****         CFE_TIME_TaskData.AtToneMET.Subseconds = 0;
 396               	.loc 1 861 0
 397 037e 42B9 0000 	clr.l CFE_TIME_TaskData+288
 397      0000 
 398               	.L20:
 862:/home/simulink/cFS_FreeRTOS_seL4/cfe/fsw/cfe-core/src/time/cfe_time_tone.c ****     }
 863:/home/simulink/cFS_FreeRTOS_seL4/cfe/fsw/cfe-core/src/time/cfe_time_tone.c ****     else
 864:/home/simulink/cFS_FreeRTOS_seL4/cfe/fsw/cfe-core/src/time/cfe_time_tone.c ****     {
 865:/home/simulink/cFS_FreeRTOS_seL4/cfe/fsw/cfe-core/src/time/cfe_time_tone.c ****         /*
 866:/home/simulink/cFS_FreeRTOS_seL4/cfe/fsw/cfe-core/src/time/cfe_time_tone.c ****         ** Update "time at tone" with external MET data...
 867:/home/simulink/cFS_FreeRTOS_seL4/cfe/fsw/cfe-core/src/time/cfe_time_tone.c ****         */
 868:/home/simulink/cFS_FreeRTOS_seL4/cfe/fsw/cfe-core/src/time/cfe_time_tone.c ****         #if (CFE_TIME_CFG_SRC_MET == TRUE)
 869:/home/simulink/cFS_FreeRTOS_seL4/cfe/fsw/cfe-core/src/time/cfe_time_tone.c ****         CFE_TIME_TaskData.AtToneMET  = CFE_TIME_TaskData.PendingMET;
 870:/home/simulink/cFS_FreeRTOS_seL4/cfe/fsw/cfe-core/src/time/cfe_time_tone.c ****         CFE_TIME_TaskData.VirtualMET = CFE_TIME_TaskData.PendingMET.Seconds;
 871:/home/simulink/cFS_FreeRTOS_seL4/cfe/fsw/cfe-core/src/time/cfe_time_tone.c ****         #endif
 872:/home/simulink/cFS_FreeRTOS_seL4/cfe/fsw/cfe-core/src/time/cfe_time_tone.c **** 
 873:/home/simulink/cFS_FreeRTOS_seL4/cfe/fsw/cfe-core/src/time/cfe_time_tone.c ****         /*
 874:/home/simulink/cFS_FreeRTOS_seL4/cfe/fsw/cfe-core/src/time/cfe_time_tone.c ****         ** Update "time at tone" with external GPS data...
 875:/home/simulink/cFS_FreeRTOS_seL4/cfe/fsw/cfe-core/src/time/cfe_time_tone.c ****         **
 876:/home/simulink/cFS_FreeRTOS_seL4/cfe/fsw/cfe-core/src/time/cfe_time_tone.c ****         **  STCF = GPS time at the tone - local MET at the tone
 877:/home/simulink/cFS_FreeRTOS_seL4/cfe/fsw/cfe-core/src/time/cfe_time_tone.c ****         **  Leaps = GPS leaps
 878:/home/simulink/cFS_FreeRTOS_seL4/cfe/fsw/cfe-core/src/time/cfe_time_tone.c ****         **
 879:/home/simulink/cFS_FreeRTOS_seL4/cfe/fsw/cfe-core/src/time/cfe_time_tone.c ****         ** It is possible that a command changed the MET after it was used
 880:/home/simulink/cFS_FreeRTOS_seL4/cfe/fsw/cfe-core/src/time/cfe_time_tone.c ****         **    to calculate the pending STCF -- in which case the current
 881:/home/simulink/cFS_FreeRTOS_seL4/cfe/fsw/cfe-core/src/time/cfe_time_tone.c ****         **    time will jump next second when the STCF gets calculated
 882:/home/simulink/cFS_FreeRTOS_seL4/cfe/fsw/cfe-core/src/time/cfe_time_tone.c ****         **    again with the new MET value.  This (small) possibility can
 883:/home/simulink/cFS_FreeRTOS_seL4/cfe/fsw/cfe-core/src/time/cfe_time_tone.c ****         **    be prevented by switching to "internal" mode before sending
 884:/home/simulink/cFS_FreeRTOS_seL4/cfe/fsw/cfe-core/src/time/cfe_time_tone.c ****         **    set time commands...
 885:/home/simulink/cFS_FreeRTOS_seL4/cfe/fsw/cfe-core/src/time/cfe_time_tone.c ****         */
 886:/home/simulink/cFS_FreeRTOS_seL4/cfe/fsw/cfe-core/src/time/cfe_time_tone.c ****         #if (CFE_TIME_CFG_SRC_GPS == TRUE)
 887:/home/simulink/cFS_FreeRTOS_seL4/cfe/fsw/cfe-core/src/time/cfe_time_tone.c ****         CFE_TIME_TaskData.AtToneMET.Seconds = CFE_TIME_TaskData.VirtualMET;
 888:/home/simulink/cFS_FreeRTOS_seL4/cfe/fsw/cfe-core/src/time/cfe_time_tone.c ****         CFE_TIME_TaskData.AtToneMET.Subseconds = 0;
68K GAS   			page 25


 889:/home/simulink/cFS_FreeRTOS_seL4/cfe/fsw/cfe-core/src/time/cfe_time_tone.c ****         CFE_TIME_TaskData.AtToneSTCF  = CFE_TIME_TaskData.PendingSTCF;
 890:/home/simulink/cFS_FreeRTOS_seL4/cfe/fsw/cfe-core/src/time/cfe_time_tone.c ****         CFE_TIME_TaskData.AtToneLeaps = CFE_TIME_TaskData.PendingLeaps;
 891:/home/simulink/cFS_FreeRTOS_seL4/cfe/fsw/cfe-core/src/time/cfe_time_tone.c ****         #endif
 892:/home/simulink/cFS_FreeRTOS_seL4/cfe/fsw/cfe-core/src/time/cfe_time_tone.c **** 
 893:/home/simulink/cFS_FreeRTOS_seL4/cfe/fsw/cfe-core/src/time/cfe_time_tone.c ****         /*
 894:/home/simulink/cFS_FreeRTOS_seL4/cfe/fsw/cfe-core/src/time/cfe_time_tone.c ****         ** Update "time at tone" with external time data...
 895:/home/simulink/cFS_FreeRTOS_seL4/cfe/fsw/cfe-core/src/time/cfe_time_tone.c ****         **
 896:/home/simulink/cFS_FreeRTOS_seL4/cfe/fsw/cfe-core/src/time/cfe_time_tone.c ****         **  STCF = external time at the tone - local MET at the tone
 897:/home/simulink/cFS_FreeRTOS_seL4/cfe/fsw/cfe-core/src/time/cfe_time_tone.c ****         */
 898:/home/simulink/cFS_FreeRTOS_seL4/cfe/fsw/cfe-core/src/time/cfe_time_tone.c ****         #if (CFE_TIME_CFG_SRC_TIME == TRUE)
 899:/home/simulink/cFS_FreeRTOS_seL4/cfe/fsw/cfe-core/src/time/cfe_time_tone.c ****         CFE_TIME_TaskData.AtToneMET.Seconds = CFE_TIME_TaskData.VirtualMET;
 900:/home/simulink/cFS_FreeRTOS_seL4/cfe/fsw/cfe-core/src/time/cfe_time_tone.c ****         CFE_TIME_TaskData.AtToneMET.Subseconds = 0;
 901:/home/simulink/cFS_FreeRTOS_seL4/cfe/fsw/cfe-core/src/time/cfe_time_tone.c ****         CFE_TIME_TaskData.AtToneSTCF = CFE_TIME_TaskData.PendingSTCF;
 902:/home/simulink/cFS_FreeRTOS_seL4/cfe/fsw/cfe-core/src/time/cfe_time_tone.c ****         #endif
 903:/home/simulink/cFS_FreeRTOS_seL4/cfe/fsw/cfe-core/src/time/cfe_time_tone.c ****     }
 904:/home/simulink/cFS_FreeRTOS_seL4/cfe/fsw/cfe-core/src/time/cfe_time_tone.c **** 
 905:/home/simulink/cFS_FreeRTOS_seL4/cfe/fsw/cfe-core/src/time/cfe_time_tone.c ****     /*
 906:/home/simulink/cFS_FreeRTOS_seL4/cfe/fsw/cfe-core/src/time/cfe_time_tone.c ****     ** With a "time" update, this server cannot be "flywheeling"
 907:/home/simulink/cFS_FreeRTOS_seL4/cfe/fsw/cfe-core/src/time/cfe_time_tone.c ****     **  (we won't get this update if commanded to flywheel)
 908:/home/simulink/cFS_FreeRTOS_seL4/cfe/fsw/cfe-core/src/time/cfe_time_tone.c ****     */
 909:/home/simulink/cFS_FreeRTOS_seL4/cfe/fsw/cfe-core/src/time/cfe_time_tone.c ****     if (CFE_TIME_TaskData.ClockFlyState == CFE_TIME_IS_FLY)
 399               	.loc 1 909 0
 400 0384 3039 0000 	move.w CFE_TIME_TaskData+322,%d0
 400      0000 
 401 038a 3040      	move.w %d0,%a0
 402 038c 7201      	moveq #1,%d1
 403 038e B288      	cmp.l %a0,%d1
 404 0390 6616      	jne .L22
 910:/home/simulink/cFS_FreeRTOS_seL4/cfe/fsw/cfe-core/src/time/cfe_time_tone.c ****     {
 911:/home/simulink/cFS_FreeRTOS_seL4/cfe/fsw/cfe-core/src/time/cfe_time_tone.c ****         CFE_TIME_TaskData.ClockFlyState = CFE_TIME_NO_FLY;
 405               	.loc 1 911 0
 406 0392 4240      	clr.w %d0
 407 0394 33C0 0000 	move.w %d0,CFE_TIME_TaskData+322
 407      0000 
 912:/home/simulink/cFS_FreeRTOS_seL4/cfe/fsw/cfe-core/src/time/cfe_time_tone.c ****         CFE_TIME_TaskData.ServerFlyState = CFE_TIME_NO_FLY;
 408               	.loc 1 912 0
 409 039a 4241      	clr.w %d1
 410 039c 33C1 0000 	move.w %d1,CFE_TIME_TaskData+328
 410      0000 
 913:/home/simulink/cFS_FreeRTOS_seL4/cfe/fsw/cfe-core/src/time/cfe_time_tone.c ****         NewFlywheelStatus = TRUE;
 411               	.loc 1 913 0
 412 03a2 7001      	moveq #1,%d0
 413 03a4 1F40 0047 	move.b %d0,71(%sp)
 414               	.L22:
 914:/home/simulink/cFS_FreeRTOS_seL4/cfe/fsw/cfe-core/src/time/cfe_time_tone.c ****     }
 915:/home/simulink/cFS_FreeRTOS_seL4/cfe/fsw/cfe-core/src/time/cfe_time_tone.c ****     #endif /* CFE_TIME_CFG_SERVER */
 916:/home/simulink/cFS_FreeRTOS_seL4/cfe/fsw/cfe-core/src/time/cfe_time_tone.c **** 
 917:/home/simulink/cFS_FreeRTOS_seL4/cfe/fsw/cfe-core/src/time/cfe_time_tone.c ****     #if (CFE_TIME_CFG_CLIENT == TRUE)
 918:/home/simulink/cFS_FreeRTOS_seL4/cfe/fsw/cfe-core/src/time/cfe_time_tone.c ****     /*
 919:/home/simulink/cFS_FreeRTOS_seL4/cfe/fsw/cfe-core/src/time/cfe_time_tone.c ****     ** Set local clock latch time that matches the tone...
 920:/home/simulink/cFS_FreeRTOS_seL4/cfe/fsw/cfe-core/src/time/cfe_time_tone.c ****     */
 921:/home/simulink/cFS_FreeRTOS_seL4/cfe/fsw/cfe-core/src/time/cfe_time_tone.c ****     CFE_TIME_TaskData.AtToneLatch = CFE_TIME_TaskData.ToneSignalLatch;
 922:/home/simulink/cFS_FreeRTOS_seL4/cfe/fsw/cfe-core/src/time/cfe_time_tone.c **** 
 923:/home/simulink/cFS_FreeRTOS_seL4/cfe/fsw/cfe-core/src/time/cfe_time_tone.c ****     /*
 924:/home/simulink/cFS_FreeRTOS_seL4/cfe/fsw/cfe-core/src/time/cfe_time_tone.c ****     ** Time clients need all the "time at the tone" command data...
 925:/home/simulink/cFS_FreeRTOS_seL4/cfe/fsw/cfe-core/src/time/cfe_time_tone.c ****     */
 926:/home/simulink/cFS_FreeRTOS_seL4/cfe/fsw/cfe-core/src/time/cfe_time_tone.c ****     CFE_TIME_TaskData.AtToneMET   = CFE_TIME_TaskData.PendingMET;
68K GAS   			page 26


 927:/home/simulink/cFS_FreeRTOS_seL4/cfe/fsw/cfe-core/src/time/cfe_time_tone.c ****     CFE_TIME_TaskData.AtToneSTCF  = CFE_TIME_TaskData.PendingSTCF;
 928:/home/simulink/cFS_FreeRTOS_seL4/cfe/fsw/cfe-core/src/time/cfe_time_tone.c ****     CFE_TIME_TaskData.AtToneLeaps = CFE_TIME_TaskData.PendingLeaps;
 929:/home/simulink/cFS_FreeRTOS_seL4/cfe/fsw/cfe-core/src/time/cfe_time_tone.c **** 
 930:/home/simulink/cFS_FreeRTOS_seL4/cfe/fsw/cfe-core/src/time/cfe_time_tone.c ****     /*
 931:/home/simulink/cFS_FreeRTOS_seL4/cfe/fsw/cfe-core/src/time/cfe_time_tone.c ****     ** Convert the server clock state into its component parts...
 932:/home/simulink/cFS_FreeRTOS_seL4/cfe/fsw/cfe-core/src/time/cfe_time_tone.c ****     */
 933:/home/simulink/cFS_FreeRTOS_seL4/cfe/fsw/cfe-core/src/time/cfe_time_tone.c ****     if (CFE_TIME_TaskData.PendingState == CFE_TIME_INVALID)
 934:/home/simulink/cFS_FreeRTOS_seL4/cfe/fsw/cfe-core/src/time/cfe_time_tone.c ****     {
 935:/home/simulink/cFS_FreeRTOS_seL4/cfe/fsw/cfe-core/src/time/cfe_time_tone.c ****         CFE_TIME_TaskData.ClockSetState  = CFE_TIME_NOT_SET;
 936:/home/simulink/cFS_FreeRTOS_seL4/cfe/fsw/cfe-core/src/time/cfe_time_tone.c ****         CFE_TIME_TaskData.ServerFlyState = CFE_TIME_NO_FLY;
 937:/home/simulink/cFS_FreeRTOS_seL4/cfe/fsw/cfe-core/src/time/cfe_time_tone.c ****     }
 938:/home/simulink/cFS_FreeRTOS_seL4/cfe/fsw/cfe-core/src/time/cfe_time_tone.c ****     else
 939:/home/simulink/cFS_FreeRTOS_seL4/cfe/fsw/cfe-core/src/time/cfe_time_tone.c ****     {
 940:/home/simulink/cFS_FreeRTOS_seL4/cfe/fsw/cfe-core/src/time/cfe_time_tone.c ****         CFE_TIME_TaskData.ClockSetState = CFE_TIME_WAS_SET;
 941:/home/simulink/cFS_FreeRTOS_seL4/cfe/fsw/cfe-core/src/time/cfe_time_tone.c **** 
 942:/home/simulink/cFS_FreeRTOS_seL4/cfe/fsw/cfe-core/src/time/cfe_time_tone.c ****         /*
 943:/home/simulink/cFS_FreeRTOS_seL4/cfe/fsw/cfe-core/src/time/cfe_time_tone.c ****         ** If the server is fly-wheel then the client must also
 944:/home/simulink/cFS_FreeRTOS_seL4/cfe/fsw/cfe-core/src/time/cfe_time_tone.c ****         **    report fly-wheel (even if it is not)...
 945:/home/simulink/cFS_FreeRTOS_seL4/cfe/fsw/cfe-core/src/time/cfe_time_tone.c ****         */
 946:/home/simulink/cFS_FreeRTOS_seL4/cfe/fsw/cfe-core/src/time/cfe_time_tone.c ****         if (CFE_TIME_TaskData.PendingState == CFE_TIME_FLYWHEEL)
 947:/home/simulink/cFS_FreeRTOS_seL4/cfe/fsw/cfe-core/src/time/cfe_time_tone.c ****         {
 948:/home/simulink/cFS_FreeRTOS_seL4/cfe/fsw/cfe-core/src/time/cfe_time_tone.c ****             CFE_TIME_TaskData.ServerFlyState = CFE_TIME_IS_FLY;
 949:/home/simulink/cFS_FreeRTOS_seL4/cfe/fsw/cfe-core/src/time/cfe_time_tone.c ****         }
 950:/home/simulink/cFS_FreeRTOS_seL4/cfe/fsw/cfe-core/src/time/cfe_time_tone.c ****         else
 951:/home/simulink/cFS_FreeRTOS_seL4/cfe/fsw/cfe-core/src/time/cfe_time_tone.c ****         {
 952:/home/simulink/cFS_FreeRTOS_seL4/cfe/fsw/cfe-core/src/time/cfe_time_tone.c ****             CFE_TIME_TaskData.ServerFlyState = CFE_TIME_NO_FLY;
 953:/home/simulink/cFS_FreeRTOS_seL4/cfe/fsw/cfe-core/src/time/cfe_time_tone.c ****         }
 954:/home/simulink/cFS_FreeRTOS_seL4/cfe/fsw/cfe-core/src/time/cfe_time_tone.c ****     }
 955:/home/simulink/cFS_FreeRTOS_seL4/cfe/fsw/cfe-core/src/time/cfe_time_tone.c **** 
 956:/home/simulink/cFS_FreeRTOS_seL4/cfe/fsw/cfe-core/src/time/cfe_time_tone.c ****     /*
 957:/home/simulink/cFS_FreeRTOS_seL4/cfe/fsw/cfe-core/src/time/cfe_time_tone.c ****     ** With a "time" update, this client cannot be "flywheeling"...
 958:/home/simulink/cFS_FreeRTOS_seL4/cfe/fsw/cfe-core/src/time/cfe_time_tone.c ****     **  (we won't get this update if commanded to flywheel)
 959:/home/simulink/cFS_FreeRTOS_seL4/cfe/fsw/cfe-core/src/time/cfe_time_tone.c ****     */
 960:/home/simulink/cFS_FreeRTOS_seL4/cfe/fsw/cfe-core/src/time/cfe_time_tone.c ****     if (CFE_TIME_TaskData.ClockFlyState == CFE_TIME_IS_FLY)
 961:/home/simulink/cFS_FreeRTOS_seL4/cfe/fsw/cfe-core/src/time/cfe_time_tone.c ****     {
 962:/home/simulink/cFS_FreeRTOS_seL4/cfe/fsw/cfe-core/src/time/cfe_time_tone.c ****         CFE_TIME_TaskData.ClockFlyState = CFE_TIME_NO_FLY;
 963:/home/simulink/cFS_FreeRTOS_seL4/cfe/fsw/cfe-core/src/time/cfe_time_tone.c ****         NewFlywheelStatus = TRUE;
 964:/home/simulink/cFS_FreeRTOS_seL4/cfe/fsw/cfe-core/src/time/cfe_time_tone.c ****     }
 965:/home/simulink/cFS_FreeRTOS_seL4/cfe/fsw/cfe-core/src/time/cfe_time_tone.c ****     #endif /* CFE_TIME_CFG_CLIENT */
 966:/home/simulink/cFS_FreeRTOS_seL4/cfe/fsw/cfe-core/src/time/cfe_time_tone.c **** 
 967:/home/simulink/cFS_FreeRTOS_seL4/cfe/fsw/cfe-core/src/time/cfe_time_tone.c ****     /*
 968:/home/simulink/cFS_FreeRTOS_seL4/cfe/fsw/cfe-core/src/time/cfe_time_tone.c ****     ** Time has changed, force anyone reading time to retry...
 969:/home/simulink/cFS_FreeRTOS_seL4/cfe/fsw/cfe-core/src/time/cfe_time_tone.c ****     */
 970:/home/simulink/cFS_FreeRTOS_seL4/cfe/fsw/cfe-core/src/time/cfe_time_tone.c ****     CFE_TIME_TaskData.VersionCount++;
 415               	.loc 1 970 0
 416 03a8 2039 0000 	move.l CFE_TIME_TaskData+424,%d0
 416      0000 
 417 03ae 5280      	addq.l #1,%d0
 418 03b0 23C0 0000 	move.l %d0,CFE_TIME_TaskData+424
 418      0000 
 971:/home/simulink/cFS_FreeRTOS_seL4/cfe/fsw/cfe-core/src/time/cfe_time_tone.c **** 
 972:/home/simulink/cFS_FreeRTOS_seL4/cfe/fsw/cfe-core/src/time/cfe_time_tone.c ****     OS_IntUnlock(IntFlags);
 419               	.loc 1 972 0
 420 03b6 2F2F 0040 	move.l 64(%sp),-(%sp)
 421               	.cfi_def_cfa_offset 80
 422 03ba 4EB9 0000 	jsr OS_IntUnlock
 422      0000 
68K GAS   			page 27


 423 03c0 588F      	addq.l #4,%sp
 424               	.cfi_def_cfa_offset 76
 973:/home/simulink/cFS_FreeRTOS_seL4/cfe/fsw/cfe-core/src/time/cfe_time_tone.c **** 
 974:/home/simulink/cFS_FreeRTOS_seL4/cfe/fsw/cfe-core/src/time/cfe_time_tone.c ****     /*
 975:/home/simulink/cFS_FreeRTOS_seL4/cfe/fsw/cfe-core/src/time/cfe_time_tone.c ****     ** Wait until after interrupts are enabled to send event...
 976:/home/simulink/cFS_FreeRTOS_seL4/cfe/fsw/cfe-core/src/time/cfe_time_tone.c ****     */
 977:/home/simulink/cFS_FreeRTOS_seL4/cfe/fsw/cfe-core/src/time/cfe_time_tone.c ****     if (NewFlywheelStatus)
 425               	.loc 1 977 0
 426 03c2 4A2F 0047 	tst.b 71(%sp)
 427 03c6 671A      	jeq .L25
 978:/home/simulink/cFS_FreeRTOS_seL4/cfe/fsw/cfe-core/src/time/cfe_time_tone.c ****     {
 979:/home/simulink/cFS_FreeRTOS_seL4/cfe/fsw/cfe-core/src/time/cfe_time_tone.c ****         CFE_EVS_SendEvent(CFE_TIME_FLY_OFF_EID, CFE_EVS_INFORMATION,
 428               	.loc 1 979 0
 429 03c8 4879 0000 	pea .LC0
 429      0000 
 430               	.cfi_def_cfa_offset 80
 431 03ce 4878 0002 	pea 2.w
 432               	.cfi_def_cfa_offset 84
 433 03d2 4878 0015 	pea 21.w
 434               	.cfi_def_cfa_offset 88
 435 03d6 4EB9 0000 	jsr CFE_EVS_SendEvent
 435      0000 
 436 03dc 4FEF 000C 	lea (12,%sp),%sp
 437               	.cfi_def_cfa_offset 76
 980:/home/simulink/cFS_FreeRTOS_seL4/cfe/fsw/cfe-core/src/time/cfe_time_tone.c ****                          "Stop FLYWHEEL");
 981:/home/simulink/cFS_FreeRTOS_seL4/cfe/fsw/cfe-core/src/time/cfe_time_tone.c ****     }
 982:/home/simulink/cFS_FreeRTOS_seL4/cfe/fsw/cfe-core/src/time/cfe_time_tone.c **** 
 983:/home/simulink/cFS_FreeRTOS_seL4/cfe/fsw/cfe-core/src/time/cfe_time_tone.c ****     return;
 438               	.loc 1 983 0
 439 03e0 4E71      	nop
 440               	.L25:
 441 03e2 4E71      	nop
 984:/home/simulink/cFS_FreeRTOS_seL4/cfe/fsw/cfe-core/src/time/cfe_time_tone.c **** 
 985:/home/simulink/cFS_FreeRTOS_seL4/cfe/fsw/cfe-core/src/time/cfe_time_tone.c **** } /* End of CFE_TIME_ToneUpdate() */
 442               	.loc 1 985 0
 443 03e4 4FEF 0048 	lea (72,%sp),%sp
 444 03e8 4E75      	rts
 445               	.cfi_endproc
 446               	.LFE63:
 447               	.sizeCFE_TIME_ToneUpdate, .-CFE_TIME_ToneUpdate
 448               	.align2
 449               	.globlCFE_TIME_Local1HzTimerCallback
 450               	.typeCFE_TIME_Local1HzTimerCallback, @function
 451               	CFE_TIME_Local1HzTimerCallback:
 452               	.LFB64:
 986:/home/simulink/cFS_FreeRTOS_seL4/cfe/fsw/cfe-core/src/time/cfe_time_tone.c **** 
 987:/home/simulink/cFS_FreeRTOS_seL4/cfe/fsw/cfe-core/src/time/cfe_time_tone.c **** 
 988:/home/simulink/cFS_FreeRTOS_seL4/cfe/fsw/cfe-core/src/time/cfe_time_tone.c **** /* * * * * * * * * * * * * * * * * * * * * * * * * * * * * * * * * */
 989:/home/simulink/cFS_FreeRTOS_seL4/cfe/fsw/cfe-core/src/time/cfe_time_tone.c **** /*                                                                 */
 990:/home/simulink/cFS_FreeRTOS_seL4/cfe/fsw/cfe-core/src/time/cfe_time_tone.c **** /* CFE_TIME_Local1HzTimerCallback() -- 1Hz callback routine        */
 991:/home/simulink/cFS_FreeRTOS_seL4/cfe/fsw/cfe-core/src/time/cfe_time_tone.c **** /*                                                                 */
 992:/home/simulink/cFS_FreeRTOS_seL4/cfe/fsw/cfe-core/src/time/cfe_time_tone.c **** /* This is a wrapper around CFE_TIME_Local1HzISR that conforms to  */
 993:/home/simulink/cFS_FreeRTOS_seL4/cfe/fsw/cfe-core/src/time/cfe_time_tone.c **** /* the prototype of an OSAL Timer callback routine.                */
 994:/home/simulink/cFS_FreeRTOS_seL4/cfe/fsw/cfe-core/src/time/cfe_time_tone.c **** /*                                                                 */
 995:/home/simulink/cFS_FreeRTOS_seL4/cfe/fsw/cfe-core/src/time/cfe_time_tone.c **** /* * * * * * * * * * * * * * * * * * * * * * * * * * * * * * * * * */
 996:/home/simulink/cFS_FreeRTOS_seL4/cfe/fsw/cfe-core/src/time/cfe_time_tone.c **** 
 997:/home/simulink/cFS_FreeRTOS_seL4/cfe/fsw/cfe-core/src/time/cfe_time_tone.c **** void CFE_TIME_Local1HzTimerCallback(uint32 TimerId, void *Arg)
68K GAS   			page 28


 998:/home/simulink/cFS_FreeRTOS_seL4/cfe/fsw/cfe-core/src/time/cfe_time_tone.c **** {
 453               	.loc 1 998 0
 454               	.cfi_startproc
 999:/home/simulink/cFS_FreeRTOS_seL4/cfe/fsw/cfe-core/src/time/cfe_time_tone.c ****     CFE_TIME_Local1HzISR();
 455               	.loc 1 999 0
 456 03ea 4EB9 0000 	jsr CFE_TIME_Local1HzISR
 456      0000 
1000:/home/simulink/cFS_FreeRTOS_seL4/cfe/fsw/cfe-core/src/time/cfe_time_tone.c **** }
 457               	.loc 1 1000 0
 458 03f0 4E71      	nop
 459 03f2 4E75      	rts
 460               	.cfi_endproc
 461               	.LFE64:
 462               	.sizeCFE_TIME_Local1HzTimerCallback, .-CFE_TIME_Local1HzTimerCallback
 463               	.align2
 464               	.globlCFE_TIME_Tone1HzISR
 465               	.typeCFE_TIME_Tone1HzISR, @function
 466               	CFE_TIME_Tone1HzISR:
 467               	.LFB65:
1001:/home/simulink/cFS_FreeRTOS_seL4/cfe/fsw/cfe-core/src/time/cfe_time_tone.c **** 
1002:/home/simulink/cFS_FreeRTOS_seL4/cfe/fsw/cfe-core/src/time/cfe_time_tone.c **** 
1003:/home/simulink/cFS_FreeRTOS_seL4/cfe/fsw/cfe-core/src/time/cfe_time_tone.c **** 
1004:/home/simulink/cFS_FreeRTOS_seL4/cfe/fsw/cfe-core/src/time/cfe_time_tone.c **** /* * * * * * * * * * * * * * * * * * * * * * * * * * * * * * * * * */
1005:/home/simulink/cFS_FreeRTOS_seL4/cfe/fsw/cfe-core/src/time/cfe_time_tone.c **** /*                                                                 */
1006:/home/simulink/cFS_FreeRTOS_seL4/cfe/fsw/cfe-core/src/time/cfe_time_tone.c **** /* CFE_TIME_Tone1HzISR() -- Tone signal ISR                        */
1007:/home/simulink/cFS_FreeRTOS_seL4/cfe/fsw/cfe-core/src/time/cfe_time_tone.c **** /*                                                                 */
1008:/home/simulink/cFS_FreeRTOS_seL4/cfe/fsw/cfe-core/src/time/cfe_time_tone.c **** /* * * * * * * * * * * * * * * * * * * * * * * * * * * * * * * * * */
1009:/home/simulink/cFS_FreeRTOS_seL4/cfe/fsw/cfe-core/src/time/cfe_time_tone.c **** 
1010:/home/simulink/cFS_FreeRTOS_seL4/cfe/fsw/cfe-core/src/time/cfe_time_tone.c **** void CFE_TIME_Tone1HzISR(void)
1011:/home/simulink/cFS_FreeRTOS_seL4/cfe/fsw/cfe-core/src/time/cfe_time_tone.c **** {
 468               	.loc 1 1011 0
 469               	.cfi_startproc
 470 03f4 4FEF FFEC 	lea (-20,%sp),%sp
 471               	.cfi_def_cfa_offset 24
1012:/home/simulink/cFS_FreeRTOS_seL4/cfe/fsw/cfe-core/src/time/cfe_time_tone.c **** 
1013:/home/simulink/cFS_FreeRTOS_seL4/cfe/fsw/cfe-core/src/time/cfe_time_tone.c ****     CFE_TIME_SysTime_t ToneSignalLatch;
1014:/home/simulink/cFS_FreeRTOS_seL4/cfe/fsw/cfe-core/src/time/cfe_time_tone.c ****     CFE_TIME_SysTime_t Elapsed;
1015:/home/simulink/cFS_FreeRTOS_seL4/cfe/fsw/cfe-core/src/time/cfe_time_tone.c ****     CFE_TIME_Compare_t Result;
1016:/home/simulink/cFS_FreeRTOS_seL4/cfe/fsw/cfe-core/src/time/cfe_time_tone.c **** 
1017:/home/simulink/cFS_FreeRTOS_seL4/cfe/fsw/cfe-core/src/time/cfe_time_tone.c ****     /* Start Performance Monitoring */
1018:/home/simulink/cFS_FreeRTOS_seL4/cfe/fsw/cfe-core/src/time/cfe_time_tone.c ****     CFE_ES_PerfLogEntry(CFE_TIME_TONE1HZISR_PERF_ID);
 472               	.loc 1 1018 0
 473 03f8 42A7      	clr.l -(%sp)
 474               	.cfi_def_cfa_offset 28
 475 03fa 4878 0007 	pea 7.w
 476               	.cfi_def_cfa_offset 32
 477 03fe 4EB9 0000 	jsr CFE_ES_PerfLogAdd
 477      0000 
 478 0404 508F      	addq.l #8,%sp
 479               	.cfi_def_cfa_offset 24
1019:/home/simulink/cFS_FreeRTOS_seL4/cfe/fsw/cfe-core/src/time/cfe_time_tone.c **** 
1020:/home/simulink/cFS_FreeRTOS_seL4/cfe/fsw/cfe-core/src/time/cfe_time_tone.c ****     
1021:/home/simulink/cFS_FreeRTOS_seL4/cfe/fsw/cfe-core/src/time/cfe_time_tone.c ****     /*
1022:/home/simulink/cFS_FreeRTOS_seL4/cfe/fsw/cfe-core/src/time/cfe_time_tone.c ****     ** Latch the local clock when the tone signal occurred...
1023:/home/simulink/cFS_FreeRTOS_seL4/cfe/fsw/cfe-core/src/time/cfe_time_tone.c ****     */
1024:/home/simulink/cFS_FreeRTOS_seL4/cfe/fsw/cfe-core/src/time/cfe_time_tone.c ****     ToneSignalLatch = CFE_TIME_LatchClock();
 480               	.loc 1 1024 0
68K GAS   			page 29


 481 0406 4EB9 0000 	jsr CFE_TIME_LatchClock
 481      0000 
 482 040c 2F40 0008 	move.l %d0,8(%sp)
 483 0410 2F41 000C 	move.l %d1,12(%sp)
1025:/home/simulink/cFS_FreeRTOS_seL4/cfe/fsw/cfe-core/src/time/cfe_time_tone.c **** 
1026:/home/simulink/cFS_FreeRTOS_seL4/cfe/fsw/cfe-core/src/time/cfe_time_tone.c ****     /*
1027:/home/simulink/cFS_FreeRTOS_seL4/cfe/fsw/cfe-core/src/time/cfe_time_tone.c ****     ** Compute elapsed time since the previous tone signal...
1028:/home/simulink/cFS_FreeRTOS_seL4/cfe/fsw/cfe-core/src/time/cfe_time_tone.c ****     */
1029:/home/simulink/cFS_FreeRTOS_seL4/cfe/fsw/cfe-core/src/time/cfe_time_tone.c ****     Result = CFE_TIME_Compare(ToneSignalLatch,
 484               	.loc 1 1029 0
 485 0414 2F39 0000 	move.l CFE_TIME_TaskData+380,-(%sp)
 485      0000 
 486 041a 2F39 0000 	move.l CFE_TIME_TaskData+376,-(%sp)
 486      0000 
 487               	.cfi_def_cfa_offset 32
 488 0420 2F2F 0014 	move.l 20(%sp),-(%sp)
 489 0424 2F2F 0014 	move.l 20(%sp),-(%sp)
 490               	.cfi_def_cfa_offset 40
 491 0428 4EB9 0000 	jsr CFE_TIME_Compare
 491      0000 
 492 042e 4FEF 0010 	lea (16,%sp),%sp
 493               	.cfi_def_cfa_offset 24
 494 0432 2F40 0010 	move.l %d0,16(%sp)
1030:/home/simulink/cFS_FreeRTOS_seL4/cfe/fsw/cfe-core/src/time/cfe_time_tone.c ****                               CFE_TIME_TaskData.ToneSignalLatch);
1031:/home/simulink/cFS_FreeRTOS_seL4/cfe/fsw/cfe-core/src/time/cfe_time_tone.c **** 
1032:/home/simulink/cFS_FreeRTOS_seL4/cfe/fsw/cfe-core/src/time/cfe_time_tone.c ****     if (Result == CFE_TIME_A_LT_B)
 495               	.loc 1 1032 0
 496 0436 70FF      	moveq #-1,%d0
 497 0438 B0AF 0010 	cmp.l 16(%sp),%d0
 498 043c 664A      	jne .L28
1033:/home/simulink/cFS_FreeRTOS_seL4/cfe/fsw/cfe-core/src/time/cfe_time_tone.c ****     {
1034:/home/simulink/cFS_FreeRTOS_seL4/cfe/fsw/cfe-core/src/time/cfe_time_tone.c ****         /*
1035:/home/simulink/cFS_FreeRTOS_seL4/cfe/fsw/cfe-core/src/time/cfe_time_tone.c ****         ** Local clock has rolled over...
1036:/home/simulink/cFS_FreeRTOS_seL4/cfe/fsw/cfe-core/src/time/cfe_time_tone.c ****         */
1037:/home/simulink/cFS_FreeRTOS_seL4/cfe/fsw/cfe-core/src/time/cfe_time_tone.c ****         Elapsed = CFE_TIME_Subtract(CFE_TIME_TaskData.MaxLocalClock,
 499               	.loc 1 1037 0
 500 043e 2F39 0000 	move.l CFE_TIME_TaskData+380,-(%sp)
 500      0000 
 501 0444 2F39 0000 	move.l CFE_TIME_TaskData+376,-(%sp)
 501      0000 
 502               	.cfi_def_cfa_offset 32
 503 044a 2F39 0000 	move.l CFE_TIME_TaskData+456,-(%sp)
 503      0000 
 504 0450 2F39 0000 	move.l CFE_TIME_TaskData+452,-(%sp)
 504      0000 
 505               	.cfi_def_cfa_offset 40
 506 0456 4EB9 0000 	jsr CFE_TIME_Subtract
 506      0000 
 507 045c 4FEF 0010 	lea (16,%sp),%sp
 508               	.cfi_def_cfa_offset 24
 509 0460 2E80      	move.l %d0,(%sp)
 510 0462 2F41 0004 	move.l %d1,4(%sp)
1038:/home/simulink/cFS_FreeRTOS_seL4/cfe/fsw/cfe-core/src/time/cfe_time_tone.c ****                                     CFE_TIME_TaskData.ToneSignalLatch);
1039:/home/simulink/cFS_FreeRTOS_seL4/cfe/fsw/cfe-core/src/time/cfe_time_tone.c ****         Elapsed = CFE_TIME_Add(Elapsed, ToneSignalLatch);
 511               	.loc 1 1039 0
 512 0466 2F2F 000C 	move.l 12(%sp),-(%sp)
 513 046a 2F2F 000C 	move.l 12(%sp),-(%sp)
68K GAS   			page 30


 514               	.cfi_def_cfa_offset 32
 515 046e 2F2F 000C 	move.l 12(%sp),-(%sp)
 516 0472 2F2F 000C 	move.l 12(%sp),-(%sp)
 517               	.cfi_def_cfa_offset 40
 518 0476 4EB9 0000 	jsr CFE_TIME_Add
 518      0000 
 519 047c 4FEF 0010 	lea (16,%sp),%sp
 520               	.cfi_def_cfa_offset 24
 521 0480 2E80      	move.l %d0,(%sp)
 522 0482 2F41 0004 	move.l %d1,4(%sp)
 523 0486 6024      	jra .L29
 524               	.L28:
1040:/home/simulink/cFS_FreeRTOS_seL4/cfe/fsw/cfe-core/src/time/cfe_time_tone.c ****     }
1041:/home/simulink/cFS_FreeRTOS_seL4/cfe/fsw/cfe-core/src/time/cfe_time_tone.c ****     else
1042:/home/simulink/cFS_FreeRTOS_seL4/cfe/fsw/cfe-core/src/time/cfe_time_tone.c ****     {
1043:/home/simulink/cFS_FreeRTOS_seL4/cfe/fsw/cfe-core/src/time/cfe_time_tone.c ****         /*
1044:/home/simulink/cFS_FreeRTOS_seL4/cfe/fsw/cfe-core/src/time/cfe_time_tone.c ****         ** Normal case...
1045:/home/simulink/cFS_FreeRTOS_seL4/cfe/fsw/cfe-core/src/time/cfe_time_tone.c ****         */
1046:/home/simulink/cFS_FreeRTOS_seL4/cfe/fsw/cfe-core/src/time/cfe_time_tone.c ****         Elapsed = CFE_TIME_Subtract(ToneSignalLatch, CFE_TIME_TaskData.ToneSignalLatch);
 525               	.loc 1 1046 0
 526 0488 2F39 0000 	move.l CFE_TIME_TaskData+380,-(%sp)
 526      0000 
 527 048e 2F39 0000 	move.l CFE_TIME_TaskData+376,-(%sp)
 527      0000 
 528               	.cfi_def_cfa_offset 32
 529 0494 2F2F 0014 	move.l 20(%sp),-(%sp)
 530 0498 2F2F 0014 	move.l 20(%sp),-(%sp)
 531               	.cfi_def_cfa_offset 40
 532 049c 4EB9 0000 	jsr CFE_TIME_Subtract
 532      0000 
 533 04a2 4FEF 0010 	lea (16,%sp),%sp
 534               	.cfi_def_cfa_offset 24
 535 04a6 2E80      	move.l %d0,(%sp)
 536 04a8 2F41 0004 	move.l %d1,4(%sp)
 537               	.L29:
1047:/home/simulink/cFS_FreeRTOS_seL4/cfe/fsw/cfe-core/src/time/cfe_time_tone.c ****     }
1048:/home/simulink/cFS_FreeRTOS_seL4/cfe/fsw/cfe-core/src/time/cfe_time_tone.c **** 
1049:/home/simulink/cFS_FreeRTOS_seL4/cfe/fsw/cfe-core/src/time/cfe_time_tone.c ****     /*
1050:/home/simulink/cFS_FreeRTOS_seL4/cfe/fsw/cfe-core/src/time/cfe_time_tone.c ****     ** Verify that tone occurred ~1 second after previous tone...
1051:/home/simulink/cFS_FreeRTOS_seL4/cfe/fsw/cfe-core/src/time/cfe_time_tone.c ****     */
1052:/home/simulink/cFS_FreeRTOS_seL4/cfe/fsw/cfe-core/src/time/cfe_time_tone.c ****     if (((Elapsed.Seconds == 1) && (Elapsed.Subseconds < CFE_TIME_TaskData.ToneOverLimit)) ||
 538               	.loc 1 1052 0
 539 04ac 2017      	move.l (%sp),%d0
 540 04ae 7201      	moveq #1,%d1
 541 04b0 B280      	cmp.l %d0,%d1
 542 04b2 660E      	jne .L30
 543               	.loc 1 1052 0 is_stmt 0 discriminator 1
 544 04b4 222F 0004 	move.l 4(%sp),%d1
 545 04b8 2039 0000 	move.l CFE_TIME_TaskData+540,%d0
 545      0000 
 546 04be B081      	cmp.l %d1,%d0
 547 04c0 6214      	jhi .L31
 548               	.L30:
1053:/home/simulink/cFS_FreeRTOS_seL4/cfe/fsw/cfe-core/src/time/cfe_time_tone.c ****         ((Elapsed.Seconds == 0) && (Elapsed.Subseconds > CFE_TIME_TaskData.ToneUnderLimit)))
 549               	.loc 1 1053 0 is_stmt 1 discriminator 3
 550 04c2 2017      	move.l (%sp),%d0
1052:/home/simulink/cFS_FreeRTOS_seL4/cfe/fsw/cfe-core/src/time/cfe_time_tone.c ****         ((Elapsed.Seconds == 0) && (Elapsed.Subseconds > CFE_TIME_TaskData.ToneUnderLimit)))
68K GAS   			page 31


 551               	.loc 1 1052 0 discriminator 3
 552 04c4 4A80      	tst.l %d0
 553 04c6 6644      	jne .L32
 554               	.loc 1 1053 0
 555 04c8 222F 0004 	move.l 4(%sp),%d1
 556 04cc 2039 0000 	move.l CFE_TIME_TaskData+544,%d0
 556      0000 
 557 04d2 B081      	cmp.l %d1,%d0
 558 04d4 6436      	jcc .L32
 559               	.L31:
1054:/home/simulink/cFS_FreeRTOS_seL4/cfe/fsw/cfe-core/src/time/cfe_time_tone.c ****     {
1055:/home/simulink/cFS_FreeRTOS_seL4/cfe/fsw/cfe-core/src/time/cfe_time_tone.c ****         /*
1056:/home/simulink/cFS_FreeRTOS_seL4/cfe/fsw/cfe-core/src/time/cfe_time_tone.c ****         ** Maintain count of valid tone signal interrupts...
1057:/home/simulink/cFS_FreeRTOS_seL4/cfe/fsw/cfe-core/src/time/cfe_time_tone.c ****         **   (set to zero by reset command)
1058:/home/simulink/cFS_FreeRTOS_seL4/cfe/fsw/cfe-core/src/time/cfe_time_tone.c ****         */
1059:/home/simulink/cFS_FreeRTOS_seL4/cfe/fsw/cfe-core/src/time/cfe_time_tone.c ****         CFE_TIME_TaskData.ToneIntCount++;
 560               	.loc 1 1059 0
 561 04d6 2039 0000 	move.l CFE_TIME_TaskData+408,%d0
 561      0000 
 562 04dc 5280      	addq.l #1,%d0
 563 04de 23C0 0000 	move.l %d0,CFE_TIME_TaskData+408
 563      0000 
1060:/home/simulink/cFS_FreeRTOS_seL4/cfe/fsw/cfe-core/src/time/cfe_time_tone.c **** 
1061:/home/simulink/cFS_FreeRTOS_seL4/cfe/fsw/cfe-core/src/time/cfe_time_tone.c ****         /* Since the tone occured ~1 seonds after the previous one, we
1062:/home/simulink/cFS_FreeRTOS_seL4/cfe/fsw/cfe-core/src/time/cfe_time_tone.c ****         ** can mark this tone as 'good'
1063:/home/simulink/cFS_FreeRTOS_seL4/cfe/fsw/cfe-core/src/time/cfe_time_tone.c ****         */
1064:/home/simulink/cFS_FreeRTOS_seL4/cfe/fsw/cfe-core/src/time/cfe_time_tone.c ****         CFE_TIME_TaskData.IsToneGood = TRUE;
 564               	.loc 1 1064 0
 565 04e4 7001      	moveq #1,%d0
 566 04e6 13C0 0000 	move.b %d0,CFE_TIME_TaskData+462
 566      0000 
1065:/home/simulink/cFS_FreeRTOS_seL4/cfe/fsw/cfe-core/src/time/cfe_time_tone.c **** 
1066:/home/simulink/cFS_FreeRTOS_seL4/cfe/fsw/cfe-core/src/time/cfe_time_tone.c ****         /*
1067:/home/simulink/cFS_FreeRTOS_seL4/cfe/fsw/cfe-core/src/time/cfe_time_tone.c ****         ** Maintain virtual MET as count of valid tone signal interrupts...
1068:/home/simulink/cFS_FreeRTOS_seL4/cfe/fsw/cfe-core/src/time/cfe_time_tone.c ****         **   (not set to zero by reset command)
1069:/home/simulink/cFS_FreeRTOS_seL4/cfe/fsw/cfe-core/src/time/cfe_time_tone.c ****         */
1070:/home/simulink/cFS_FreeRTOS_seL4/cfe/fsw/cfe-core/src/time/cfe_time_tone.c ****         #if (CFE_TIME_CFG_VIRTUAL == TRUE)
1071:/home/simulink/cFS_FreeRTOS_seL4/cfe/fsw/cfe-core/src/time/cfe_time_tone.c ****         CFE_TIME_TaskData.VirtualMET++;
 567               	.loc 1 1071 0
 568 04ec 2039 0000 	move.l CFE_TIME_TaskData+420,%d0
 568      0000 
 569 04f2 5280      	addq.l #1,%d0
 570 04f4 23C0 0000 	move.l %d0,CFE_TIME_TaskData+420
 570      0000 
1072:/home/simulink/cFS_FreeRTOS_seL4/cfe/fsw/cfe-core/src/time/cfe_time_tone.c ****         #endif
1073:/home/simulink/cFS_FreeRTOS_seL4/cfe/fsw/cfe-core/src/time/cfe_time_tone.c **** 
1074:/home/simulink/cFS_FreeRTOS_seL4/cfe/fsw/cfe-core/src/time/cfe_time_tone.c ****         /*
1075:/home/simulink/cFS_FreeRTOS_seL4/cfe/fsw/cfe-core/src/time/cfe_time_tone.c ****         ** Maintain virtual MET as count read from h/w MET register...
1076:/home/simulink/cFS_FreeRTOS_seL4/cfe/fsw/cfe-core/src/time/cfe_time_tone.c ****         */
1077:/home/simulink/cFS_FreeRTOS_seL4/cfe/fsw/cfe-core/src/time/cfe_time_tone.c ****         #if (CFE_TIME_CFG_VIRTUAL != TRUE)
1078:/home/simulink/cFS_FreeRTOS_seL4/cfe/fsw/cfe-core/src/time/cfe_time_tone.c ****         OS_GetLocalMET(&CFE_TIME_TaskData.VirtualMET);
1079:/home/simulink/cFS_FreeRTOS_seL4/cfe/fsw/cfe-core/src/time/cfe_time_tone.c ****         #endif
1080:/home/simulink/cFS_FreeRTOS_seL4/cfe/fsw/cfe-core/src/time/cfe_time_tone.c **** 
1081:/home/simulink/cFS_FreeRTOS_seL4/cfe/fsw/cfe-core/src/time/cfe_time_tone.c ****         /*
1082:/home/simulink/cFS_FreeRTOS_seL4/cfe/fsw/cfe-core/src/time/cfe_time_tone.c ****         ** Enable tone task (we can't send a SB message from here)...
1083:/home/simulink/cFS_FreeRTOS_seL4/cfe/fsw/cfe-core/src/time/cfe_time_tone.c ****         */
1084:/home/simulink/cFS_FreeRTOS_seL4/cfe/fsw/cfe-core/src/time/cfe_time_tone.c ****         OS_BinSemGive(CFE_TIME_TaskData.ToneSemaphore);
68K GAS   			page 32


 571               	.loc 1 1084 0
 572 04fa 2039 0000 	move.l CFE_TIME_TaskData+520,%d0
 572      0000 
 573 0500 2F00      	move.l %d0,-(%sp)
 574               	.cfi_def_cfa_offset 28
 575 0502 4EB9 0000 	jsr OS_BinSemGive
 575      0000 
 576 0508 588F      	addq.l #4,%sp
 577               	.cfi_def_cfa_offset 24
 578 050a 6016      	jra .L33
 579               	.L32:
1085:/home/simulink/cFS_FreeRTOS_seL4/cfe/fsw/cfe-core/src/time/cfe_time_tone.c ****     }
1086:/home/simulink/cFS_FreeRTOS_seL4/cfe/fsw/cfe-core/src/time/cfe_time_tone.c ****     else
1087:/home/simulink/cFS_FreeRTOS_seL4/cfe/fsw/cfe-core/src/time/cfe_time_tone.c ****     {
1088:/home/simulink/cFS_FreeRTOS_seL4/cfe/fsw/cfe-core/src/time/cfe_time_tone.c ****         /*
1089:/home/simulink/cFS_FreeRTOS_seL4/cfe/fsw/cfe-core/src/time/cfe_time_tone.c ****         ** Maintain count of invalid tone signal interrupts...
1090:/home/simulink/cFS_FreeRTOS_seL4/cfe/fsw/cfe-core/src/time/cfe_time_tone.c ****         **   (set to zero by reset command)
1091:/home/simulink/cFS_FreeRTOS_seL4/cfe/fsw/cfe-core/src/time/cfe_time_tone.c ****         */
1092:/home/simulink/cFS_FreeRTOS_seL4/cfe/fsw/cfe-core/src/time/cfe_time_tone.c ****         CFE_TIME_TaskData.ToneIntErrors++;
 580               	.loc 1 1092 0
 581 050c 2039 0000 	move.l CFE_TIME_TaskData+412,%d0
 581      0000 
 582 0512 5280      	addq.l #1,%d0
 583 0514 23C0 0000 	move.l %d0,CFE_TIME_TaskData+412
 583      0000 
1093:/home/simulink/cFS_FreeRTOS_seL4/cfe/fsw/cfe-core/src/time/cfe_time_tone.c ****         
1094:/home/simulink/cFS_FreeRTOS_seL4/cfe/fsw/cfe-core/src/time/cfe_time_tone.c ****         /* Since the tone didn't occur ~1 seonds after the previous one, we
1095:/home/simulink/cFS_FreeRTOS_seL4/cfe/fsw/cfe-core/src/time/cfe_time_tone.c ****         ** can mark this tone as 'not good'
1096:/home/simulink/cFS_FreeRTOS_seL4/cfe/fsw/cfe-core/src/time/cfe_time_tone.c ****         */
1097:/home/simulink/cFS_FreeRTOS_seL4/cfe/fsw/cfe-core/src/time/cfe_time_tone.c ****         CFE_TIME_TaskData.IsToneGood = FALSE;
 584               	.loc 1 1097 0
 585 051a 4201      	clr.b %d1
 586 051c 13C1 0000 	move.b %d1,CFE_TIME_TaskData+462
 586      0000 
 587               	.L33:
1098:/home/simulink/cFS_FreeRTOS_seL4/cfe/fsw/cfe-core/src/time/cfe_time_tone.c ****     }
1099:/home/simulink/cFS_FreeRTOS_seL4/cfe/fsw/cfe-core/src/time/cfe_time_tone.c **** 
1100:/home/simulink/cFS_FreeRTOS_seL4/cfe/fsw/cfe-core/src/time/cfe_time_tone.c ****     /*
1101:/home/simulink/cFS_FreeRTOS_seL4/cfe/fsw/cfe-core/src/time/cfe_time_tone.c ****     ** Save local time latch of most recent tone signal...
1102:/home/simulink/cFS_FreeRTOS_seL4/cfe/fsw/cfe-core/src/time/cfe_time_tone.c ****     */
1103:/home/simulink/cFS_FreeRTOS_seL4/cfe/fsw/cfe-core/src/time/cfe_time_tone.c ****     CFE_TIME_TaskData.ToneSignalLatch = ToneSignalLatch;
 588               	.loc 1 1103 0
 589 0522 202F 0008 	move.l 8(%sp),%d0
 590 0526 222F 000C 	move.l 12(%sp),%d1
 591 052a 23C0 0000 	move.l %d0,CFE_TIME_TaskData+376
 591      0000 
 592 0530 23C1 0000 	move.l %d1,CFE_TIME_TaskData+380
 592      0000 
1104:/home/simulink/cFS_FreeRTOS_seL4/cfe/fsw/cfe-core/src/time/cfe_time_tone.c ****     
1105:/home/simulink/cFS_FreeRTOS_seL4/cfe/fsw/cfe-core/src/time/cfe_time_tone.c ****     /* Notify registered time synchronization applications */
1106:/home/simulink/cFS_FreeRTOS_seL4/cfe/fsw/cfe-core/src/time/cfe_time_tone.c ****     CFE_TIME_NotifyTimeSynchApps();
 593               	.loc 1 1106 0
 594 0536 4EB9 0000 	jsr CFE_TIME_NotifyTimeSynchApps
 594      0000 
1107:/home/simulink/cFS_FreeRTOS_seL4/cfe/fsw/cfe-core/src/time/cfe_time_tone.c **** 
1108:/home/simulink/cFS_FreeRTOS_seL4/cfe/fsw/cfe-core/src/time/cfe_time_tone.c ****     /* Exit performance monitoring */
1109:/home/simulink/cFS_FreeRTOS_seL4/cfe/fsw/cfe-core/src/time/cfe_time_tone.c ****     CFE_ES_PerfLogExit(CFE_TIME_TONE1HZISR_PERF_ID);
68K GAS   			page 33


 595               	.loc 1 1109 0
 596 053c 4878 0001 	pea 1.w
 597               	.cfi_def_cfa_offset 28
 598 0540 4878 0007 	pea 7.w
 599               	.cfi_def_cfa_offset 32
 600 0544 4EB9 0000 	jsr CFE_ES_PerfLogAdd
 600      0000 
 601 054a 508F      	addq.l #8,%sp
 602               	.cfi_def_cfa_offset 24
1110:/home/simulink/cFS_FreeRTOS_seL4/cfe/fsw/cfe-core/src/time/cfe_time_tone.c **** 
1111:/home/simulink/cFS_FreeRTOS_seL4/cfe/fsw/cfe-core/src/time/cfe_time_tone.c ****     return;
 603               	.loc 1 1111 0
 604 054c 4E71      	nop
1112:/home/simulink/cFS_FreeRTOS_seL4/cfe/fsw/cfe-core/src/time/cfe_time_tone.c **** 
1113:/home/simulink/cFS_FreeRTOS_seL4/cfe/fsw/cfe-core/src/time/cfe_time_tone.c **** } /* End of CFE_TIME_Tone1HzISR() */
 605               	.loc 1 1113 0
 606 054e 4FEF 0014 	lea (20,%sp),%sp
 607 0552 4E75      	rts
 608               	.cfi_endproc
 609               	.LFE65:
 610               	.sizeCFE_TIME_Tone1HzISR, .-CFE_TIME_Tone1HzISR
 611               	.align2
 612               	.globlCFE_TIME_Tone1HzTask
 613               	.typeCFE_TIME_Tone1HzTask, @function
 614               	CFE_TIME_Tone1HzTask:
 615               	.LFB66:
1114:/home/simulink/cFS_FreeRTOS_seL4/cfe/fsw/cfe-core/src/time/cfe_time_tone.c **** 
1115:/home/simulink/cFS_FreeRTOS_seL4/cfe/fsw/cfe-core/src/time/cfe_time_tone.c **** 
1116:/home/simulink/cFS_FreeRTOS_seL4/cfe/fsw/cfe-core/src/time/cfe_time_tone.c **** /* * * * * * * * * * * * * * * * * * * * * * * * * * * * * * * * * */
1117:/home/simulink/cFS_FreeRTOS_seL4/cfe/fsw/cfe-core/src/time/cfe_time_tone.c **** /*                                                                 */
1118:/home/simulink/cFS_FreeRTOS_seL4/cfe/fsw/cfe-core/src/time/cfe_time_tone.c **** /* CFE_TIME_Tone1HzTask() -- Tone 1Hz task                         */
1119:/home/simulink/cFS_FreeRTOS_seL4/cfe/fsw/cfe-core/src/time/cfe_time_tone.c **** /*                                                                 */
1120:/home/simulink/cFS_FreeRTOS_seL4/cfe/fsw/cfe-core/src/time/cfe_time_tone.c **** /* This task exists solely to generate the tone signal command.    */
1121:/home/simulink/cFS_FreeRTOS_seL4/cfe/fsw/cfe-core/src/time/cfe_time_tone.c **** /*                                                                 */
1122:/home/simulink/cFS_FreeRTOS_seL4/cfe/fsw/cfe-core/src/time/cfe_time_tone.c **** /* * * * * * * * * * * * * * * * * * * * * * * * * * * * * * * * * */
1123:/home/simulink/cFS_FreeRTOS_seL4/cfe/fsw/cfe-core/src/time/cfe_time_tone.c **** 
1124:/home/simulink/cFS_FreeRTOS_seL4/cfe/fsw/cfe-core/src/time/cfe_time_tone.c **** void CFE_TIME_Tone1HzTask(void)
1125:/home/simulink/cFS_FreeRTOS_seL4/cfe/fsw/cfe-core/src/time/cfe_time_tone.c **** {
 616               	.loc 1 1125 0
 617               	.cfi_startproc
 618 0554 598F      	subq.l #4,%sp
 619               	.cfi_def_cfa_offset 8
1126:/home/simulink/cFS_FreeRTOS_seL4/cfe/fsw/cfe-core/src/time/cfe_time_tone.c ****     int32 Result = CFE_ES_RegisterChildTask();
 620               	.loc 1 1126 0
 621 0556 4EB9 0000 	jsr CFE_ES_RegisterChildTask
 621      0000 
 622 055c 2E80      	move.l %d0,(%sp)
1127:/home/simulink/cFS_FreeRTOS_seL4/cfe/fsw/cfe-core/src/time/cfe_time_tone.c **** 
1128:/home/simulink/cFS_FreeRTOS_seL4/cfe/fsw/cfe-core/src/time/cfe_time_tone.c ****     while (Result == CFE_SUCCESS)
 623               	.loc 1 1128 0
 624 055e 6056      	jra .L36
 625               	.L38:
1129:/home/simulink/cFS_FreeRTOS_seL4/cfe/fsw/cfe-core/src/time/cfe_time_tone.c ****     {    
1130:/home/simulink/cFS_FreeRTOS_seL4/cfe/fsw/cfe-core/src/time/cfe_time_tone.c ****         /* Increment the Main task Execution Counter */
1131:/home/simulink/cFS_FreeRTOS_seL4/cfe/fsw/cfe-core/src/time/cfe_time_tone.c ****         CFE_ES_IncrementTaskCounter();
 626               	.loc 1 1131 0
 627 0560 4EB9 0000 	jsr CFE_ES_IncrementTaskCounter
68K GAS   			page 34


 627      0000 
1132:/home/simulink/cFS_FreeRTOS_seL4/cfe/fsw/cfe-core/src/time/cfe_time_tone.c **** 
1133:/home/simulink/cFS_FreeRTOS_seL4/cfe/fsw/cfe-core/src/time/cfe_time_tone.c ****         /*
1134:/home/simulink/cFS_FreeRTOS_seL4/cfe/fsw/cfe-core/src/time/cfe_time_tone.c ****         ** Pend on semaphore given by tone ISR (above)...
1135:/home/simulink/cFS_FreeRTOS_seL4/cfe/fsw/cfe-core/src/time/cfe_time_tone.c ****         */
1136:/home/simulink/cFS_FreeRTOS_seL4/cfe/fsw/cfe-core/src/time/cfe_time_tone.c ****         Result = OS_BinSemTake(CFE_TIME_TaskData.ToneSemaphore);
 628               	.loc 1 1136 0
 629 0566 2039 0000 	move.l CFE_TIME_TaskData+520,%d0
 629      0000 
 630 056c 2F00      	move.l %d0,-(%sp)
 631               	.cfi_def_cfa_offset 12
 632 056e 4EB9 0000 	jsr OS_BinSemTake
 632      0000 
 633 0574 588F      	addq.l #4,%sp
 634               	.cfi_def_cfa_offset 8
 635 0576 2E80      	move.l %d0,(%sp)
1137:/home/simulink/cFS_FreeRTOS_seL4/cfe/fsw/cfe-core/src/time/cfe_time_tone.c ****         
1138:/home/simulink/cFS_FreeRTOS_seL4/cfe/fsw/cfe-core/src/time/cfe_time_tone.c ****         /* Start Performance Monitoring */
1139:/home/simulink/cFS_FreeRTOS_seL4/cfe/fsw/cfe-core/src/time/cfe_time_tone.c ****         CFE_ES_PerfLogEntry(CFE_TIME_TONE1HZTASK_PERF_ID);
 636               	.loc 1 1139 0
 637 0578 42A7      	clr.l -(%sp)
 638               	.cfi_def_cfa_offset 12
 639 057a 4878 000B 	pea 11.w
 640               	.cfi_def_cfa_offset 16
 641 057e 4EB9 0000 	jsr CFE_ES_PerfLogAdd
 641      0000 
 642 0584 508F      	addq.l #8,%sp
 643               	.cfi_def_cfa_offset 8
1140:/home/simulink/cFS_FreeRTOS_seL4/cfe/fsw/cfe-core/src/time/cfe_time_tone.c **** 
1141:/home/simulink/cFS_FreeRTOS_seL4/cfe/fsw/cfe-core/src/time/cfe_time_tone.c ****         if (Result == CFE_SUCCESS)
 644               	.loc 1 1141 0
 645 0586 4A97      	tst.l (%sp)
 646 0588 661C      	jne .L37
1142:/home/simulink/cFS_FreeRTOS_seL4/cfe/fsw/cfe-core/src/time/cfe_time_tone.c ****         {
1143:/home/simulink/cFS_FreeRTOS_seL4/cfe/fsw/cfe-core/src/time/cfe_time_tone.c ****             /*
1144:/home/simulink/cFS_FreeRTOS_seL4/cfe/fsw/cfe-core/src/time/cfe_time_tone.c ****             ** Send tone signal command packet...
1145:/home/simulink/cFS_FreeRTOS_seL4/cfe/fsw/cfe-core/src/time/cfe_time_tone.c ****             */
1146:/home/simulink/cFS_FreeRTOS_seL4/cfe/fsw/cfe-core/src/time/cfe_time_tone.c ****             CFE_SB_SendMsg((CFE_SB_Msg_t *) &CFE_TIME_TaskData.ToneSignalCmd);
 647               	.loc 1 1146 0
 648 058a 4879 0000 	pea CFE_TIME_TaskData+508
 648      0000 
 649               	.cfi_def_cfa_offset 12
 650 0590 4EB9 0000 	jsr CFE_SB_SendMsg
 650      0000 
 651 0596 588F      	addq.l #4,%sp
 652               	.cfi_def_cfa_offset 8
1147:/home/simulink/cFS_FreeRTOS_seL4/cfe/fsw/cfe-core/src/time/cfe_time_tone.c **** 
1148:/home/simulink/cFS_FreeRTOS_seL4/cfe/fsw/cfe-core/src/time/cfe_time_tone.c ****             /*
1149:/home/simulink/cFS_FreeRTOS_seL4/cfe/fsw/cfe-core/src/time/cfe_time_tone.c ****             ** Maintain count of tone task wake-ups...
1150:/home/simulink/cFS_FreeRTOS_seL4/cfe/fsw/cfe-core/src/time/cfe_time_tone.c ****             */
1151:/home/simulink/cFS_FreeRTOS_seL4/cfe/fsw/cfe-core/src/time/cfe_time_tone.c ****             CFE_TIME_TaskData.ToneTaskCount++;
 653               	.loc 1 1151 0
 654 0598 2039 0000 	move.l CFE_TIME_TaskData+416,%d0
 654      0000 
 655 059e 5280      	addq.l #1,%d0
 656 05a0 23C0 0000 	move.l %d0,CFE_TIME_TaskData+416
 656      0000 
68K GAS   			page 35


 657               	.L37:
1152:/home/simulink/cFS_FreeRTOS_seL4/cfe/fsw/cfe-core/src/time/cfe_time_tone.c ****         }
1153:/home/simulink/cFS_FreeRTOS_seL4/cfe/fsw/cfe-core/src/time/cfe_time_tone.c **** 
1154:/home/simulink/cFS_FreeRTOS_seL4/cfe/fsw/cfe-core/src/time/cfe_time_tone.c ****         /* Exit performance monitoring */
1155:/home/simulink/cFS_FreeRTOS_seL4/cfe/fsw/cfe-core/src/time/cfe_time_tone.c ****         CFE_ES_PerfLogExit(CFE_TIME_TONE1HZTASK_PERF_ID);
 658               	.loc 1 1155 0
 659 05a6 4878 0001 	pea 1.w
 660               	.cfi_def_cfa_offset 12
 661 05aa 4878 000B 	pea 11.w
 662               	.cfi_def_cfa_offset 16
 663 05ae 4EB9 0000 	jsr CFE_ES_PerfLogAdd
 663      0000 
 664 05b4 508F      	addq.l #8,%sp
 665               	.cfi_def_cfa_offset 8
 666               	.L36:
1128:/home/simulink/cFS_FreeRTOS_seL4/cfe/fsw/cfe-core/src/time/cfe_time_tone.c ****     {    
 667               	.loc 1 1128 0
 668 05b6 4A97      	tst.l (%sp)
 669 05b8 67A6      	jeq .L38
1156:/home/simulink/cFS_FreeRTOS_seL4/cfe/fsw/cfe-core/src/time/cfe_time_tone.c ****     }
1157:/home/simulink/cFS_FreeRTOS_seL4/cfe/fsw/cfe-core/src/time/cfe_time_tone.c **** 
1158:/home/simulink/cFS_FreeRTOS_seL4/cfe/fsw/cfe-core/src/time/cfe_time_tone.c ****     /*
1159:/home/simulink/cFS_FreeRTOS_seL4/cfe/fsw/cfe-core/src/time/cfe_time_tone.c ****     ** This should never happen - but during development we
1160:/home/simulink/cFS_FreeRTOS_seL4/cfe/fsw/cfe-core/src/time/cfe_time_tone.c ****     **    had an error in the creation of the semaphore.
1161:/home/simulink/cFS_FreeRTOS_seL4/cfe/fsw/cfe-core/src/time/cfe_time_tone.c ****     */
1162:/home/simulink/cFS_FreeRTOS_seL4/cfe/fsw/cfe-core/src/time/cfe_time_tone.c ****     return;
 670               	.loc 1 1162 0
 671 05ba 4E71      	nop
1163:/home/simulink/cFS_FreeRTOS_seL4/cfe/fsw/cfe-core/src/time/cfe_time_tone.c **** 
1164:/home/simulink/cFS_FreeRTOS_seL4/cfe/fsw/cfe-core/src/time/cfe_time_tone.c **** } /* End of CFE_TIME_Tone1HzTask() */
 672               	.loc 1 1164 0
 673 05bc 588F      	addq.l #4,%sp
 674 05be 4E75      	rts
 675               	.cfi_endproc
 676               	.LFE66:
 677               	.sizeCFE_TIME_Tone1HzTask, .-CFE_TIME_Tone1HzTask
 678               	.align2
 679               	.globlCFE_TIME_Local1HzISR
 680               	.typeCFE_TIME_Local1HzISR, @function
 681               	CFE_TIME_Local1HzISR:
 682               	.LFB67:
1165:/home/simulink/cFS_FreeRTOS_seL4/cfe/fsw/cfe-core/src/time/cfe_time_tone.c **** 
1166:/home/simulink/cFS_FreeRTOS_seL4/cfe/fsw/cfe-core/src/time/cfe_time_tone.c **** 
1167:/home/simulink/cFS_FreeRTOS_seL4/cfe/fsw/cfe-core/src/time/cfe_time_tone.c **** /* * * * * * * * * * * * * * * * * * * * * * * * * * * * * * * * * */
1168:/home/simulink/cFS_FreeRTOS_seL4/cfe/fsw/cfe-core/src/time/cfe_time_tone.c **** /*                                                                 */
1169:/home/simulink/cFS_FreeRTOS_seL4/cfe/fsw/cfe-core/src/time/cfe_time_tone.c **** /* CFE_TIME_Local1HzISR() -- Local 1Hz interrupt (not the tone)    */
1170:/home/simulink/cFS_FreeRTOS_seL4/cfe/fsw/cfe-core/src/time/cfe_time_tone.c **** /*                                                                 */
1171:/home/simulink/cFS_FreeRTOS_seL4/cfe/fsw/cfe-core/src/time/cfe_time_tone.c **** /* * * * * * * * * * * * * * * * * * * * * * * * * * * * * * * * * */
1172:/home/simulink/cFS_FreeRTOS_seL4/cfe/fsw/cfe-core/src/time/cfe_time_tone.c **** 
1173:/home/simulink/cFS_FreeRTOS_seL4/cfe/fsw/cfe-core/src/time/cfe_time_tone.c **** void CFE_TIME_Local1HzISR(void)
1174:/home/simulink/cFS_FreeRTOS_seL4/cfe/fsw/cfe-core/src/time/cfe_time_tone.c **** {
 683               	.loc 1 1174 0
 684               	.cfi_startproc
 685 05c0 4FEF FFB8 	lea (-72,%sp),%sp
 686               	.cfi_def_cfa_offset 76
1175:/home/simulink/cFS_FreeRTOS_seL4/cfe/fsw/cfe-core/src/time/cfe_time_tone.c **** 
1176:/home/simulink/cFS_FreeRTOS_seL4/cfe/fsw/cfe-core/src/time/cfe_time_tone.c ****     CFE_TIME_Reference_t Reference;
68K GAS   			page 36


1177:/home/simulink/cFS_FreeRTOS_seL4/cfe/fsw/cfe-core/src/time/cfe_time_tone.c **** 
1178:/home/simulink/cFS_FreeRTOS_seL4/cfe/fsw/cfe-core/src/time/cfe_time_tone.c ****     /* Start Performance Monitoring */
1179:/home/simulink/cFS_FreeRTOS_seL4/cfe/fsw/cfe-core/src/time/cfe_time_tone.c ****     CFE_ES_PerfLogEntry(CFE_TIME_LOCAL1HZISR_PERF_ID);
 687               	.loc 1 1179 0
 688 05c4 42A7      	clr.l -(%sp)
 689               	.cfi_def_cfa_offset 80
 690 05c6 4878 0008 	pea 8.w
 691               	.cfi_def_cfa_offset 84
 692 05ca 4EB9 0000 	jsr CFE_ES_PerfLogAdd
 692      0000 
 693 05d0 508F      	addq.l #8,%sp
 694               	.cfi_def_cfa_offset 76
1180:/home/simulink/cFS_FreeRTOS_seL4/cfe/fsw/cfe-core/src/time/cfe_time_tone.c **** 
1181:/home/simulink/cFS_FreeRTOS_seL4/cfe/fsw/cfe-core/src/time/cfe_time_tone.c ****     
1182:/home/simulink/cFS_FreeRTOS_seL4/cfe/fsw/cfe-core/src/time/cfe_time_tone.c ****     /* Zero out the Reference variable because we pass it into
1183:/home/simulink/cFS_FreeRTOS_seL4/cfe/fsw/cfe-core/src/time/cfe_time_tone.c ****      * a function before using it
1184:/home/simulink/cFS_FreeRTOS_seL4/cfe/fsw/cfe-core/src/time/cfe_time_tone.c ****      * */
1185:/home/simulink/cFS_FreeRTOS_seL4/cfe/fsw/cfe-core/src/time/cfe_time_tone.c ****     CFE_PSP_MemSet(&Reference, 0 , sizeof(CFE_TIME_Reference_t));
 695               	.loc 1 1185 0
 696 05d2 4878 0040 	pea 64.w
 697               	.cfi_def_cfa_offset 80
 698 05d6 42A7      	clr.l -(%sp)
 699               	.cfi_def_cfa_offset 84
 700 05d8 200F      	move.l %sp,%d0
 701 05da 0680 0000 	add.l #16,%d0
 701      0010 
 702 05e0 2F00      	move.l %d0,-(%sp)
 703               	.cfi_def_cfa_offset 88
 704 05e2 4EB9 0000 	jsr CFE_PSP_MemSet
 704      0000 
 705 05e8 4FEF 000C 	lea (12,%sp),%sp
 706               	.cfi_def_cfa_offset 76
1186:/home/simulink/cFS_FreeRTOS_seL4/cfe/fsw/cfe-core/src/time/cfe_time_tone.c **** 
1187:/home/simulink/cFS_FreeRTOS_seL4/cfe/fsw/cfe-core/src/time/cfe_time_tone.c ****     /*
1188:/home/simulink/cFS_FreeRTOS_seL4/cfe/fsw/cfe-core/src/time/cfe_time_tone.c ****     ** Apply 1Hz adjustment to STCF...
1189:/home/simulink/cFS_FreeRTOS_seL4/cfe/fsw/cfe-core/src/time/cfe_time_tone.c ****     */
1190:/home/simulink/cFS_FreeRTOS_seL4/cfe/fsw/cfe-core/src/time/cfe_time_tone.c ****     #if (CFE_TIME_CFG_SERVER == TRUE)
1191:/home/simulink/cFS_FreeRTOS_seL4/cfe/fsw/cfe-core/src/time/cfe_time_tone.c ****     if ((CFE_TIME_TaskData.OneHzAdjust.Seconds != 0) ||
 707               	.loc 1 1191 0
 708 05ec 2039 0000 	move.l CFE_TIME_TaskData+360,%d0
 708      0000 
 709 05f2 4A80      	tst.l %d0
 710 05f4 660C      	jne .L41
1192:/home/simulink/cFS_FreeRTOS_seL4/cfe/fsw/cfe-core/src/time/cfe_time_tone.c ****         (CFE_TIME_TaskData.OneHzAdjust.Subseconds != 0))
 711               	.loc 1 1192 0 discriminator 1
 712 05f6 2039 0000 	move.l CFE_TIME_TaskData+364,%d0
 712      0000 
1191:/home/simulink/cFS_FreeRTOS_seL4/cfe/fsw/cfe-core/src/time/cfe_time_tone.c ****         (CFE_TIME_TaskData.OneHzAdjust.Subseconds != 0))
 713               	.loc 1 1191 0 discriminator 1
 714 05fc 4A80      	tst.l %d0
 715 05fe 6700 0082 	jeq .L42
 716               	.L41:
 717               	.LBB2:
1193:/home/simulink/cFS_FreeRTOS_seL4/cfe/fsw/cfe-core/src/time/cfe_time_tone.c ****     {
1194:/home/simulink/cFS_FreeRTOS_seL4/cfe/fsw/cfe-core/src/time/cfe_time_tone.c ****         CFE_TIME_SysTime_t NewSTCF;
1195:/home/simulink/cFS_FreeRTOS_seL4/cfe/fsw/cfe-core/src/time/cfe_time_tone.c **** 
1196:/home/simulink/cFS_FreeRTOS_seL4/cfe/fsw/cfe-core/src/time/cfe_time_tone.c ****         if (CFE_TIME_TaskData.OneHzDirection == CFE_TIME_ADD_ADJUST)
68K GAS   			page 37


 718               	.loc 1 1196 0
 719 0602 3039 0000 	move.w CFE_TIME_TaskData+370,%d0
 719      0000 
 720 0608 3040      	move.w %d0,%a0
 721 060a 7001      	moveq #1,%d0
 722 060c B088      	cmp.l %a0,%d0
 723 060e 662A      	jne .L43
1197:/home/simulink/cFS_FreeRTOS_seL4/cfe/fsw/cfe-core/src/time/cfe_time_tone.c ****         {
1198:/home/simulink/cFS_FreeRTOS_seL4/cfe/fsw/cfe-core/src/time/cfe_time_tone.c ****             NewSTCF = CFE_TIME_Add(CFE_TIME_TaskData.AtToneSTCF,
 724               	.loc 1 1198 0
 725 0610 2F39 0000 	move.l CFE_TIME_TaskData+364,-(%sp)
 725      0000 
 726 0616 2F39 0000 	move.l CFE_TIME_TaskData+360,-(%sp)
 726      0000 
 727               	.cfi_def_cfa_offset 84
 728 061c 2F39 0000 	move.l CFE_TIME_TaskData+296,-(%sp)
 728      0000 
 729 0622 2F39 0000 	move.l CFE_TIME_TaskData+292,-(%sp)
 729      0000 
 730               	.cfi_def_cfa_offset 92
 731 0628 4EB9 0000 	jsr CFE_TIME_Add
 731      0000 
 732 062e 4FEF 0010 	lea (16,%sp),%sp
 733               	.cfi_def_cfa_offset 76
 734 0632 2E80      	move.l %d0,(%sp)
 735 0634 2F41 0004 	move.l %d1,4(%sp)
 736 0638 6028      	jra .L44
 737               	.L43:
1199:/home/simulink/cFS_FreeRTOS_seL4/cfe/fsw/cfe-core/src/time/cfe_time_tone.c ****                                 CFE_TIME_TaskData.OneHzAdjust);
1200:/home/simulink/cFS_FreeRTOS_seL4/cfe/fsw/cfe-core/src/time/cfe_time_tone.c ****         }
1201:/home/simulink/cFS_FreeRTOS_seL4/cfe/fsw/cfe-core/src/time/cfe_time_tone.c ****         else
1202:/home/simulink/cFS_FreeRTOS_seL4/cfe/fsw/cfe-core/src/time/cfe_time_tone.c ****         {
1203:/home/simulink/cFS_FreeRTOS_seL4/cfe/fsw/cfe-core/src/time/cfe_time_tone.c ****             NewSTCF = CFE_TIME_Subtract(CFE_TIME_TaskData.AtToneSTCF,
 738               	.loc 1 1203 0
 739 063a 2F39 0000 	move.l CFE_TIME_TaskData+364,-(%sp)
 739      0000 
 740 0640 2F39 0000 	move.l CFE_TIME_TaskData+360,-(%sp)
 740      0000 
 741               	.cfi_def_cfa_offset 84
 742 0646 2F39 0000 	move.l CFE_TIME_TaskData+296,-(%sp)
 742      0000 
 743 064c 2F39 0000 	move.l CFE_TIME_TaskData+292,-(%sp)
 743      0000 
 744               	.cfi_def_cfa_offset 92
 745 0652 4EB9 0000 	jsr CFE_TIME_Subtract
 745      0000 
 746 0658 4FEF 0010 	lea (16,%sp),%sp
 747               	.cfi_def_cfa_offset 76
 748 065c 2E80      	move.l %d0,(%sp)
 749 065e 2F41 0004 	move.l %d1,4(%sp)
 750               	.L44:
1204:/home/simulink/cFS_FreeRTOS_seL4/cfe/fsw/cfe-core/src/time/cfe_time_tone.c ****                                      CFE_TIME_TaskData.OneHzAdjust);
1205:/home/simulink/cFS_FreeRTOS_seL4/cfe/fsw/cfe-core/src/time/cfe_time_tone.c ****         }
1206:/home/simulink/cFS_FreeRTOS_seL4/cfe/fsw/cfe-core/src/time/cfe_time_tone.c **** 
1207:/home/simulink/cFS_FreeRTOS_seL4/cfe/fsw/cfe-core/src/time/cfe_time_tone.c ****         CFE_TIME_TaskData.AtToneSTCF = NewSTCF;
 751               	.loc 1 1207 0
 752 0662 2017      	move.l (%sp),%d0
68K GAS   			page 38


 753 0664 222F 0004 	move.l 4(%sp),%d1
 754 0668 23C0 0000 	move.l %d0,CFE_TIME_TaskData+292
 754      0000 
 755 066e 23C1 0000 	move.l %d1,CFE_TIME_TaskData+296
 755      0000 
1208:/home/simulink/cFS_FreeRTOS_seL4/cfe/fsw/cfe-core/src/time/cfe_time_tone.c **** 
1209:/home/simulink/cFS_FreeRTOS_seL4/cfe/fsw/cfe-core/src/time/cfe_time_tone.c ****         /*
1210:/home/simulink/cFS_FreeRTOS_seL4/cfe/fsw/cfe-core/src/time/cfe_time_tone.c ****         ** Time has changed, force anyone reading time to retry...
1211:/home/simulink/cFS_FreeRTOS_seL4/cfe/fsw/cfe-core/src/time/cfe_time_tone.c ****         */
1212:/home/simulink/cFS_FreeRTOS_seL4/cfe/fsw/cfe-core/src/time/cfe_time_tone.c ****         CFE_TIME_TaskData.VersionCount++;
 756               	.loc 1 1212 0
 757 0674 2039 0000 	move.l CFE_TIME_TaskData+424,%d0
 757      0000 
 758 067a 5280      	addq.l #1,%d0
 759 067c 23C0 0000 	move.l %d0,CFE_TIME_TaskData+424
 759      0000 
 760               	.L42:
 761               	.LBE2:
1213:/home/simulink/cFS_FreeRTOS_seL4/cfe/fsw/cfe-core/src/time/cfe_time_tone.c ****     }
1214:/home/simulink/cFS_FreeRTOS_seL4/cfe/fsw/cfe-core/src/time/cfe_time_tone.c ****     #endif /* CFE_TIME_CFG_SERVER */
1215:/home/simulink/cFS_FreeRTOS_seL4/cfe/fsw/cfe-core/src/time/cfe_time_tone.c **** 
1216:/home/simulink/cFS_FreeRTOS_seL4/cfe/fsw/cfe-core/src/time/cfe_time_tone.c ****     /*
1217:/home/simulink/cFS_FreeRTOS_seL4/cfe/fsw/cfe-core/src/time/cfe_time_tone.c ****     ** Get reference time (calculates time since tone, etc.)...
1218:/home/simulink/cFS_FreeRTOS_seL4/cfe/fsw/cfe-core/src/time/cfe_time_tone.c ****     */
1219:/home/simulink/cFS_FreeRTOS_seL4/cfe/fsw/cfe-core/src/time/cfe_time_tone.c ****     CFE_TIME_GetReference(&Reference);
 762               	.loc 1 1219 0
 763 0682 200F      	move.l %sp,%d0
 764 0684 5080      	addq.l #8,%d0
 765 0686 2F00      	move.l %d0,-(%sp)
 766               	.cfi_def_cfa_offset 80
 767 0688 4EB9 0000 	jsr CFE_TIME_GetReference
 767      0000 
 768 068e 588F      	addq.l #4,%sp
 769               	.cfi_def_cfa_offset 76
1220:/home/simulink/cFS_FreeRTOS_seL4/cfe/fsw/cfe-core/src/time/cfe_time_tone.c **** 
1221:/home/simulink/cFS_FreeRTOS_seL4/cfe/fsw/cfe-core/src/time/cfe_time_tone.c ****     /*
1222:/home/simulink/cFS_FreeRTOS_seL4/cfe/fsw/cfe-core/src/time/cfe_time_tone.c ****     ** See if it has been long enough without receiving a time update
1223:/home/simulink/cFS_FreeRTOS_seL4/cfe/fsw/cfe-core/src/time/cfe_time_tone.c ****     **    to autonomously start "fly-wheel" mode...
1224:/home/simulink/cFS_FreeRTOS_seL4/cfe/fsw/cfe-core/src/time/cfe_time_tone.c ****     */
1225:/home/simulink/cFS_FreeRTOS_seL4/cfe/fsw/cfe-core/src/time/cfe_time_tone.c ****     if (CFE_TIME_TaskData.ClockFlyState == CFE_TIME_NO_FLY)
 770               	.loc 1 1225 0
 771 0690 3039 0000 	move.w CFE_TIME_TaskData+322,%d0
 771      0000 
 772 0696 4A40      	tst.w %d0
 773 0698 6630      	jne .L45
1226:/home/simulink/cFS_FreeRTOS_seL4/cfe/fsw/cfe-core/src/time/cfe_time_tone.c ****     {
1227:/home/simulink/cFS_FreeRTOS_seL4/cfe/fsw/cfe-core/src/time/cfe_time_tone.c ****         if (Reference.TimeSinceTone.Seconds >= CFE_TIME_CFG_START_FLY)
 774               	.loc 1 1227 0
 775 069a 202F 0038 	move.l 56(%sp),%d0
 776 069e 7201      	moveq #1,%d1
 777 06a0 B280      	cmp.l %d0,%d1
 778 06a2 6426      	jcc .L45
1228:/home/simulink/cFS_FreeRTOS_seL4/cfe/fsw/cfe-core/src/time/cfe_time_tone.c ****         {
1229:/home/simulink/cFS_FreeRTOS_seL4/cfe/fsw/cfe-core/src/time/cfe_time_tone.c ****             /*
1230:/home/simulink/cFS_FreeRTOS_seL4/cfe/fsw/cfe-core/src/time/cfe_time_tone.c ****             ** Change current state to "fly-wheel"...
1231:/home/simulink/cFS_FreeRTOS_seL4/cfe/fsw/cfe-core/src/time/cfe_time_tone.c ****             */
1232:/home/simulink/cFS_FreeRTOS_seL4/cfe/fsw/cfe-core/src/time/cfe_time_tone.c ****             CFE_TIME_TaskData.ClockFlyState = CFE_TIME_IS_FLY;
68K GAS   			page 39


 779               	.loc 1 1232 0
 780 06a4 7001      	moveq #1,%d0
 781 06a6 33C0 0000 	move.w %d0,CFE_TIME_TaskData+322
 781      0000 
1233:/home/simulink/cFS_FreeRTOS_seL4/cfe/fsw/cfe-core/src/time/cfe_time_tone.c ****             #if (CFE_TIME_CFG_SERVER == TRUE)
1234:/home/simulink/cFS_FreeRTOS_seL4/cfe/fsw/cfe-core/src/time/cfe_time_tone.c ****             CFE_TIME_TaskData.ServerFlyState = CFE_TIME_IS_FLY;
 782               	.loc 1 1234 0
 783 06ac 7201      	moveq #1,%d1
 784 06ae 33C1 0000 	move.w %d1,CFE_TIME_TaskData+328
 784      0000 
1235:/home/simulink/cFS_FreeRTOS_seL4/cfe/fsw/cfe-core/src/time/cfe_time_tone.c ****             #endif
1236:/home/simulink/cFS_FreeRTOS_seL4/cfe/fsw/cfe-core/src/time/cfe_time_tone.c **** 
1237:/home/simulink/cFS_FreeRTOS_seL4/cfe/fsw/cfe-core/src/time/cfe_time_tone.c ****             CFE_TIME_TaskData.AutoStartFly = TRUE;
 785               	.loc 1 1237 0
 786 06b4 7001      	moveq #1,%d0
 787 06b6 13C0 0000 	move.b %d0,CFE_TIME_TaskData+461
 787      0000 
1238:/home/simulink/cFS_FreeRTOS_seL4/cfe/fsw/cfe-core/src/time/cfe_time_tone.c **** 
1239:/home/simulink/cFS_FreeRTOS_seL4/cfe/fsw/cfe-core/src/time/cfe_time_tone.c ****             /*
1240:/home/simulink/cFS_FreeRTOS_seL4/cfe/fsw/cfe-core/src/time/cfe_time_tone.c ****             ** Force anyone currently reading time to retry...
1241:/home/simulink/cFS_FreeRTOS_seL4/cfe/fsw/cfe-core/src/time/cfe_time_tone.c ****             */
1242:/home/simulink/cFS_FreeRTOS_seL4/cfe/fsw/cfe-core/src/time/cfe_time_tone.c ****             CFE_TIME_TaskData.VersionCount++;
 788               	.loc 1 1242 0
 789 06bc 2039 0000 	move.l CFE_TIME_TaskData+424,%d0
 789      0000 
 790 06c2 5280      	addq.l #1,%d0
 791 06c4 23C0 0000 	move.l %d0,CFE_TIME_TaskData+424
 791      0000 
 792               	.L45:
1243:/home/simulink/cFS_FreeRTOS_seL4/cfe/fsw/cfe-core/src/time/cfe_time_tone.c ****         }
1244:/home/simulink/cFS_FreeRTOS_seL4/cfe/fsw/cfe-core/src/time/cfe_time_tone.c ****     }
1245:/home/simulink/cFS_FreeRTOS_seL4/cfe/fsw/cfe-core/src/time/cfe_time_tone.c **** 
1246:/home/simulink/cFS_FreeRTOS_seL4/cfe/fsw/cfe-core/src/time/cfe_time_tone.c ****     /*
1247:/home/simulink/cFS_FreeRTOS_seL4/cfe/fsw/cfe-core/src/time/cfe_time_tone.c ****     ** See if it has been long enough without receiving a time update
1248:/home/simulink/cFS_FreeRTOS_seL4/cfe/fsw/cfe-core/src/time/cfe_time_tone.c ****     **    (or since last doing this update) to autonomously update the
1249:/home/simulink/cFS_FreeRTOS_seL4/cfe/fsw/cfe-core/src/time/cfe_time_tone.c ****     **    MET at the tone and local clock latched at the tone...
1250:/home/simulink/cFS_FreeRTOS_seL4/cfe/fsw/cfe-core/src/time/cfe_time_tone.c ****     */
1251:/home/simulink/cFS_FreeRTOS_seL4/cfe/fsw/cfe-core/src/time/cfe_time_tone.c ****     if (CFE_TIME_TaskData.ClockFlyState == CFE_TIME_IS_FLY)
 793               	.loc 1 1251 0
 794 06ca 3039 0000 	move.w CFE_TIME_TaskData+322,%d0
 794      0000 
 795 06d0 3040      	move.w %d0,%a0
 796 06d2 7201      	moveq #1,%d1
 797 06d4 B288      	cmp.l %a0,%d1
 798 06d6 6640      	jne .L46
1252:/home/simulink/cFS_FreeRTOS_seL4/cfe/fsw/cfe-core/src/time/cfe_time_tone.c ****     {
1253:/home/simulink/cFS_FreeRTOS_seL4/cfe/fsw/cfe-core/src/time/cfe_time_tone.c ****         if (Reference.TimeSinceTone.Seconds >= CFE_TIME_CFG_LATCH_FLY)
 799               	.loc 1 1253 0
 800 06d8 202F 0038 	move.l 56(%sp),%d0
 801 06dc 7207      	moveq #7,%d1
 802 06de B280      	cmp.l %d0,%d1
 803 06e0 6436      	jcc .L46
1254:/home/simulink/cFS_FreeRTOS_seL4/cfe/fsw/cfe-core/src/time/cfe_time_tone.c ****         {
1255:/home/simulink/cFS_FreeRTOS_seL4/cfe/fsw/cfe-core/src/time/cfe_time_tone.c ****             /*
1256:/home/simulink/cFS_FreeRTOS_seL4/cfe/fsw/cfe-core/src/time/cfe_time_tone.c ****             ** Update MET at tone and local clock latched at tone...
1257:/home/simulink/cFS_FreeRTOS_seL4/cfe/fsw/cfe-core/src/time/cfe_time_tone.c ****             **
1258:/home/simulink/cFS_FreeRTOS_seL4/cfe/fsw/cfe-core/src/time/cfe_time_tone.c ****             ** This does not increase the accuracy of the local clock,
68K GAS   			page 40


1259:/home/simulink/cFS_FreeRTOS_seL4/cfe/fsw/cfe-core/src/time/cfe_time_tone.c ****             **    but it does avoid some problems.  It is not uncommon
1260:/home/simulink/cFS_FreeRTOS_seL4/cfe/fsw/cfe-core/src/time/cfe_time_tone.c ****             **    for a local clock to roll over after only a few
1261:/home/simulink/cFS_FreeRTOS_seL4/cfe/fsw/cfe-core/src/time/cfe_time_tone.c ****             **    seconds, so we try and keep the elapsed time since
1262:/home/simulink/cFS_FreeRTOS_seL4/cfe/fsw/cfe-core/src/time/cfe_time_tone.c ****             **    the "tone" to a relatively small number of seconds.
1263:/home/simulink/cFS_FreeRTOS_seL4/cfe/fsw/cfe-core/src/time/cfe_time_tone.c ****             **    We can handle a simple roll-over but need to prevent
1264:/home/simulink/cFS_FreeRTOS_seL4/cfe/fsw/cfe-core/src/time/cfe_time_tone.c ****             **    the local clock from completely wrapping around the
1265:/home/simulink/cFS_FreeRTOS_seL4/cfe/fsw/cfe-core/src/time/cfe_time_tone.c ****             **    time latched at the tone.
1266:/home/simulink/cFS_FreeRTOS_seL4/cfe/fsw/cfe-core/src/time/cfe_time_tone.c ****             */
1267:/home/simulink/cFS_FreeRTOS_seL4/cfe/fsw/cfe-core/src/time/cfe_time_tone.c ****             CFE_TIME_TaskData.AtToneMET    = Reference.CurrentMET;
 804               	.loc 1 1267 0
 805 06e2 202F 0040 	move.l 64(%sp),%d0
 806 06e6 222F 0044 	move.l 68(%sp),%d1
 807 06ea 23C0 0000 	move.l %d0,CFE_TIME_TaskData+284
 807      0000 
 808 06f0 23C1 0000 	move.l %d1,CFE_TIME_TaskData+288
 808      0000 
1268:/home/simulink/cFS_FreeRTOS_seL4/cfe/fsw/cfe-core/src/time/cfe_time_tone.c ****             CFE_TIME_TaskData.AtToneLatch  = Reference.CurrentLatch;
 809               	.loc 1 1268 0
 810 06f6 202F 0030 	move.l 48(%sp),%d0
 811 06fa 222F 0034 	move.l 52(%sp),%d1
 812 06fe 23C0 0000 	move.l %d0,CFE_TIME_TaskData+312
 812      0000 
 813 0704 23C1 0000 	move.l %d1,CFE_TIME_TaskData+316
 813      0000 
1269:/home/simulink/cFS_FreeRTOS_seL4/cfe/fsw/cfe-core/src/time/cfe_time_tone.c **** 
1270:/home/simulink/cFS_FreeRTOS_seL4/cfe/fsw/cfe-core/src/time/cfe_time_tone.c ****             /*
1271:/home/simulink/cFS_FreeRTOS_seL4/cfe/fsw/cfe-core/src/time/cfe_time_tone.c ****             ** Force anyone currently reading time to retry...
1272:/home/simulink/cFS_FreeRTOS_seL4/cfe/fsw/cfe-core/src/time/cfe_time_tone.c ****             */
1273:/home/simulink/cFS_FreeRTOS_seL4/cfe/fsw/cfe-core/src/time/cfe_time_tone.c ****             CFE_TIME_TaskData.VersionCount++;
 814               	.loc 1 1273 0
 815 070a 2039 0000 	move.l CFE_TIME_TaskData+424,%d0
 815      0000 
 816 0710 5280      	addq.l #1,%d0
 817 0712 23C0 0000 	move.l %d0,CFE_TIME_TaskData+424
 817      0000 
 818               	.L46:
1274:/home/simulink/cFS_FreeRTOS_seL4/cfe/fsw/cfe-core/src/time/cfe_time_tone.c ****         }
1275:/home/simulink/cFS_FreeRTOS_seL4/cfe/fsw/cfe-core/src/time/cfe_time_tone.c ****     }
1276:/home/simulink/cFS_FreeRTOS_seL4/cfe/fsw/cfe-core/src/time/cfe_time_tone.c **** 
1277:/home/simulink/cFS_FreeRTOS_seL4/cfe/fsw/cfe-core/src/time/cfe_time_tone.c ****     CFE_TIME_TaskData.LocalIntCount++;
 819               	.loc 1 1277 0
 820 0718 2039 0000 	move.l CFE_TIME_TaskData+428,%d0
 820      0000 
 821 071e 5280      	addq.l #1,%d0
 822 0720 23C0 0000 	move.l %d0,CFE_TIME_TaskData+428
 822      0000 
1278:/home/simulink/cFS_FreeRTOS_seL4/cfe/fsw/cfe-core/src/time/cfe_time_tone.c **** 
1279:/home/simulink/cFS_FreeRTOS_seL4/cfe/fsw/cfe-core/src/time/cfe_time_tone.c ****     /*
1280:/home/simulink/cFS_FreeRTOS_seL4/cfe/fsw/cfe-core/src/time/cfe_time_tone.c ****     ** Enable 1Hz task (we can't send a SB message from here)...
1281:/home/simulink/cFS_FreeRTOS_seL4/cfe/fsw/cfe-core/src/time/cfe_time_tone.c ****     */
1282:/home/simulink/cFS_FreeRTOS_seL4/cfe/fsw/cfe-core/src/time/cfe_time_tone.c ****     OS_BinSemGive(CFE_TIME_TaskData.LocalSemaphore);
 823               	.loc 1 1282 0
 824 0726 2039 0000 	move.l CFE_TIME_TaskData+516,%d0
 824      0000 
 825 072c 2F00      	move.l %d0,-(%sp)
 826               	.cfi_def_cfa_offset 80
 827 072e 4EB9 0000 	jsr OS_BinSemGive
68K GAS   			page 41


 827      0000 
 828 0734 588F      	addq.l #4,%sp
 829               	.cfi_def_cfa_offset 76
1283:/home/simulink/cFS_FreeRTOS_seL4/cfe/fsw/cfe-core/src/time/cfe_time_tone.c **** 
1284:/home/simulink/cFS_FreeRTOS_seL4/cfe/fsw/cfe-core/src/time/cfe_time_tone.c ****     /* Exit performance monitoring */
1285:/home/simulink/cFS_FreeRTOS_seL4/cfe/fsw/cfe-core/src/time/cfe_time_tone.c ****     CFE_ES_PerfLogExit(CFE_TIME_LOCAL1HZISR_PERF_ID);
 830               	.loc 1 1285 0
 831 0736 4878 0001 	pea 1.w
 832               	.cfi_def_cfa_offset 80
 833 073a 4878 0008 	pea 8.w
 834               	.cfi_def_cfa_offset 84
 835 073e 4EB9 0000 	jsr CFE_ES_PerfLogAdd
 835      0000 
 836 0744 508F      	addq.l #8,%sp
 837               	.cfi_def_cfa_offset 76
1286:/home/simulink/cFS_FreeRTOS_seL4/cfe/fsw/cfe-core/src/time/cfe_time_tone.c **** 
1287:/home/simulink/cFS_FreeRTOS_seL4/cfe/fsw/cfe-core/src/time/cfe_time_tone.c ****     return;
 838               	.loc 1 1287 0
 839 0746 4E71      	nop
1288:/home/simulink/cFS_FreeRTOS_seL4/cfe/fsw/cfe-core/src/time/cfe_time_tone.c **** 
1289:/home/simulink/cFS_FreeRTOS_seL4/cfe/fsw/cfe-core/src/time/cfe_time_tone.c **** } /* End of CFE_TIME_Local1HzISR() */
 840               	.loc 1 1289 0
 841 0748 4FEF 0048 	lea (72,%sp),%sp
 842 074c 4E75      	rts
 843               	.cfi_endproc
 844               	.LFE67:
 845               	.sizeCFE_TIME_Local1HzISR, .-CFE_TIME_Local1HzISR
 846               	.section.rodata
 847               	.LC1:
 848 000e 5374 6172 	.string"Start FLYWHEEL"
 848      7420 464C 
 848      5957 4845 
 848      454C 00
 849               	.text
 850               	.align2
 851               	.globlCFE_TIME_Local1HzTask
 852               	.typeCFE_TIME_Local1HzTask, @function
 853               	CFE_TIME_Local1HzTask:
 854               	.LFB68:
1290:/home/simulink/cFS_FreeRTOS_seL4/cfe/fsw/cfe-core/src/time/cfe_time_tone.c **** 
1291:/home/simulink/cFS_FreeRTOS_seL4/cfe/fsw/cfe-core/src/time/cfe_time_tone.c **** 
1292:/home/simulink/cFS_FreeRTOS_seL4/cfe/fsw/cfe-core/src/time/cfe_time_tone.c **** /* * * * * * * * * * * * * * * * * * * * * * * * * * * * * * * * * */
1293:/home/simulink/cFS_FreeRTOS_seL4/cfe/fsw/cfe-core/src/time/cfe_time_tone.c **** /*                                                                 */
1294:/home/simulink/cFS_FreeRTOS_seL4/cfe/fsw/cfe-core/src/time/cfe_time_tone.c **** /* CFE_TIME_Local1HzTask() -- Local 1Hz task (not the tone)        */
1295:/home/simulink/cFS_FreeRTOS_seL4/cfe/fsw/cfe-core/src/time/cfe_time_tone.c **** /*                                                                 */
1296:/home/simulink/cFS_FreeRTOS_seL4/cfe/fsw/cfe-core/src/time/cfe_time_tone.c **** /* This task exists solely to generate the 1Hz wake-up command.    */
1297:/home/simulink/cFS_FreeRTOS_seL4/cfe/fsw/cfe-core/src/time/cfe_time_tone.c **** /*                                                                 */
1298:/home/simulink/cFS_FreeRTOS_seL4/cfe/fsw/cfe-core/src/time/cfe_time_tone.c **** /* This is a temporary solution until a scheduler is implemented.  */
1299:/home/simulink/cFS_FreeRTOS_seL4/cfe/fsw/cfe-core/src/time/cfe_time_tone.c **** /*                                                                 */
1300:/home/simulink/cFS_FreeRTOS_seL4/cfe/fsw/cfe-core/src/time/cfe_time_tone.c **** /* * * * * * * * * * * * * * * * * * * * * * * * * * * * * * * * * */
1301:/home/simulink/cFS_FreeRTOS_seL4/cfe/fsw/cfe-core/src/time/cfe_time_tone.c **** 
1302:/home/simulink/cFS_FreeRTOS_seL4/cfe/fsw/cfe-core/src/time/cfe_time_tone.c **** void CFE_TIME_Local1HzTask(void)
1303:/home/simulink/cFS_FreeRTOS_seL4/cfe/fsw/cfe-core/src/time/cfe_time_tone.c **** {
 855               	.loc 1 1303 0
 856               	.cfi_startproc
 857 074e 598F      	subq.l #4,%sp
 858               	.cfi_def_cfa_offset 8
68K GAS   			page 42


1304:/home/simulink/cFS_FreeRTOS_seL4/cfe/fsw/cfe-core/src/time/cfe_time_tone.c ****     int32 Result = CFE_ES_RegisterChildTask();
 859               	.loc 1 1304 0
 860 0750 4EB9 0000 	jsr CFE_ES_RegisterChildTask
 860      0000 
 861 0756 2E80      	move.l %d0,(%sp)
1305:/home/simulink/cFS_FreeRTOS_seL4/cfe/fsw/cfe-core/src/time/cfe_time_tone.c **** 
1306:/home/simulink/cFS_FreeRTOS_seL4/cfe/fsw/cfe-core/src/time/cfe_time_tone.c ****     while (Result == CFE_SUCCESS)
 862               	.loc 1 1306 0
 863 0758 6000 0090 	jra .L49
 864               	.L52:
1307:/home/simulink/cFS_FreeRTOS_seL4/cfe/fsw/cfe-core/src/time/cfe_time_tone.c ****     {
1308:/home/simulink/cFS_FreeRTOS_seL4/cfe/fsw/cfe-core/src/time/cfe_time_tone.c ****     
1309:/home/simulink/cFS_FreeRTOS_seL4/cfe/fsw/cfe-core/src/time/cfe_time_tone.c ****         /* Increment the Main task Execution Counter */
1310:/home/simulink/cFS_FreeRTOS_seL4/cfe/fsw/cfe-core/src/time/cfe_time_tone.c ****         CFE_ES_IncrementTaskCounter();
 865               	.loc 1 1310 0
 866 075c 4EB9 0000 	jsr CFE_ES_IncrementTaskCounter
 866      0000 
1311:/home/simulink/cFS_FreeRTOS_seL4/cfe/fsw/cfe-core/src/time/cfe_time_tone.c **** 
1312:/home/simulink/cFS_FreeRTOS_seL4/cfe/fsw/cfe-core/src/time/cfe_time_tone.c ****         /*
1313:/home/simulink/cFS_FreeRTOS_seL4/cfe/fsw/cfe-core/src/time/cfe_time_tone.c ****         ** Pend on the 1HZ semaphore (given by local 1Hz ISR)...
1314:/home/simulink/cFS_FreeRTOS_seL4/cfe/fsw/cfe-core/src/time/cfe_time_tone.c ****         */
1315:/home/simulink/cFS_FreeRTOS_seL4/cfe/fsw/cfe-core/src/time/cfe_time_tone.c ****         Result = OS_BinSemTake(CFE_TIME_TaskData.LocalSemaphore);
 867               	.loc 1 1315 0
 868 0762 2039 0000 	move.l CFE_TIME_TaskData+516,%d0
 868      0000 
 869 0768 2F00      	move.l %d0,-(%sp)
 870               	.cfi_def_cfa_offset 12
 871 076a 4EB9 0000 	jsr OS_BinSemTake
 871      0000 
 872 0770 588F      	addq.l #4,%sp
 873               	.cfi_def_cfa_offset 8
 874 0772 2E80      	move.l %d0,(%sp)
1316:/home/simulink/cFS_FreeRTOS_seL4/cfe/fsw/cfe-core/src/time/cfe_time_tone.c ****                 
1317:/home/simulink/cFS_FreeRTOS_seL4/cfe/fsw/cfe-core/src/time/cfe_time_tone.c ****         /* Start Performance Monitoring */
1318:/home/simulink/cFS_FreeRTOS_seL4/cfe/fsw/cfe-core/src/time/cfe_time_tone.c ****         CFE_ES_PerfLogEntry(CFE_TIME_LOCAL1HZTASK_PERF_ID);
 875               	.loc 1 1318 0
 876 0774 42A7      	clr.l -(%sp)
 877               	.cfi_def_cfa_offset 12
 878 0776 4878 000A 	pea 10.w
 879               	.cfi_def_cfa_offset 16
 880 077a 4EB9 0000 	jsr CFE_ES_PerfLogAdd
 880      0000 
 881 0780 508F      	addq.l #8,%sp
 882               	.cfi_def_cfa_offset 8
1319:/home/simulink/cFS_FreeRTOS_seL4/cfe/fsw/cfe-core/src/time/cfe_time_tone.c **** 
1320:/home/simulink/cFS_FreeRTOS_seL4/cfe/fsw/cfe-core/src/time/cfe_time_tone.c ****         if (Result == CFE_SUCCESS)
 883               	.loc 1 1320 0
 884 0782 4A97      	tst.l (%sp)
 885 0784 6654      	jne .L50
1321:/home/simulink/cFS_FreeRTOS_seL4/cfe/fsw/cfe-core/src/time/cfe_time_tone.c ****         {
1322:/home/simulink/cFS_FreeRTOS_seL4/cfe/fsw/cfe-core/src/time/cfe_time_tone.c ****             /*
1323:/home/simulink/cFS_FreeRTOS_seL4/cfe/fsw/cfe-core/src/time/cfe_time_tone.c ****             ** Send "info" event if we just started flywheel mode...
1324:/home/simulink/cFS_FreeRTOS_seL4/cfe/fsw/cfe-core/src/time/cfe_time_tone.c ****             */
1325:/home/simulink/cFS_FreeRTOS_seL4/cfe/fsw/cfe-core/src/time/cfe_time_tone.c ****             if (CFE_TIME_TaskData.AutoStartFly)
 886               	.loc 1 1325 0
 887 0786 1039 0000 	move.b CFE_TIME_TaskData+461,%d0
 887      0000 
68K GAS   			page 43


 888 078c 4A00      	tst.b %d0
 889 078e 6720      	jeq .L51
1326:/home/simulink/cFS_FreeRTOS_seL4/cfe/fsw/cfe-core/src/time/cfe_time_tone.c ****             {
1327:/home/simulink/cFS_FreeRTOS_seL4/cfe/fsw/cfe-core/src/time/cfe_time_tone.c ****                 CFE_TIME_TaskData.AutoStartFly = FALSE;
 890               	.loc 1 1327 0
 891 0790 4200      	clr.b %d0
 892 0792 13C0 0000 	move.b %d0,CFE_TIME_TaskData+461
 892      0000 
1328:/home/simulink/cFS_FreeRTOS_seL4/cfe/fsw/cfe-core/src/time/cfe_time_tone.c **** 
1329:/home/simulink/cFS_FreeRTOS_seL4/cfe/fsw/cfe-core/src/time/cfe_time_tone.c ****                 CFE_EVS_SendEvent(CFE_TIME_FLY_ON_EID,
 893               	.loc 1 1329 0
 894 0798 4879 0000 	pea .LC1
 894      0000 
 895               	.cfi_def_cfa_offset 12
 896 079e 4878 0002 	pea 2.w
 897               	.cfi_def_cfa_offset 16
 898 07a2 4878 0014 	pea 20.w
 899               	.cfi_def_cfa_offset 20
 900 07a6 4EB9 0000 	jsr CFE_EVS_SendEvent
 900      0000 
 901 07ac 4FEF 000C 	lea (12,%sp),%sp
 902               	.cfi_def_cfa_offset 8
 903               	.L51:
1330:/home/simulink/cFS_FreeRTOS_seL4/cfe/fsw/cfe-core/src/time/cfe_time_tone.c ****                                   CFE_EVS_INFORMATION,
1331:/home/simulink/cFS_FreeRTOS_seL4/cfe/fsw/cfe-core/src/time/cfe_time_tone.c ****                                  "Start FLYWHEEL");
1332:/home/simulink/cFS_FreeRTOS_seL4/cfe/fsw/cfe-core/src/time/cfe_time_tone.c ****             }
1333:/home/simulink/cFS_FreeRTOS_seL4/cfe/fsw/cfe-core/src/time/cfe_time_tone.c **** 
1334:/home/simulink/cFS_FreeRTOS_seL4/cfe/fsw/cfe-core/src/time/cfe_time_tone.c ****             /*
1335:/home/simulink/cFS_FreeRTOS_seL4/cfe/fsw/cfe-core/src/time/cfe_time_tone.c ****             ** Send out a simulated tone signal (time server only)...
1336:/home/simulink/cFS_FreeRTOS_seL4/cfe/fsw/cfe-core/src/time/cfe_time_tone.c ****             */
1337:/home/simulink/cFS_FreeRTOS_seL4/cfe/fsw/cfe-core/src/time/cfe_time_tone.c ****             #if (CFE_TIME_CFG_SERVER == TRUE)
1338:/home/simulink/cFS_FreeRTOS_seL4/cfe/fsw/cfe-core/src/time/cfe_time_tone.c ****               #if (CFE_TIME_CFG_FAKE_TONE == TRUE)
1339:/home/simulink/cFS_FreeRTOS_seL4/cfe/fsw/cfe-core/src/time/cfe_time_tone.c ****             CFE_SB_SendMsg((CFE_SB_Msg_t *) &CFE_TIME_TaskData.FakeToneCmd);
 904               	.loc 1 1339 0
 905 07b0 4879 0000 	pea CFE_TIME_TaskData+472
 905      0000 
 906               	.cfi_def_cfa_offset 12
 907 07b6 4EB9 0000 	jsr CFE_SB_SendMsg
 907      0000 
 908 07bc 588F      	addq.l #4,%sp
 909               	.cfi_def_cfa_offset 8
1340:/home/simulink/cFS_FreeRTOS_seL4/cfe/fsw/cfe-core/src/time/cfe_time_tone.c ****               #endif
1341:/home/simulink/cFS_FreeRTOS_seL4/cfe/fsw/cfe-core/src/time/cfe_time_tone.c ****             #endif
1342:/home/simulink/cFS_FreeRTOS_seL4/cfe/fsw/cfe-core/src/time/cfe_time_tone.c **** 
1343:/home/simulink/cFS_FreeRTOS_seL4/cfe/fsw/cfe-core/src/time/cfe_time_tone.c ****             /*
1344:/home/simulink/cFS_FreeRTOS_seL4/cfe/fsw/cfe-core/src/time/cfe_time_tone.c ****             ** Send 1Hz (optional) timing packet...
1345:/home/simulink/cFS_FreeRTOS_seL4/cfe/fsw/cfe-core/src/time/cfe_time_tone.c ****             */
1346:/home/simulink/cFS_FreeRTOS_seL4/cfe/fsw/cfe-core/src/time/cfe_time_tone.c ****             #if (CFE_TIME_ENA_1HZ_CMD_PKT == TRUE)
1347:/home/simulink/cFS_FreeRTOS_seL4/cfe/fsw/cfe-core/src/time/cfe_time_tone.c ****             CFE_SB_SendMsg((CFE_SB_Msg_t *) &CFE_TIME_TaskData.Local1HzCmd);
 910               	.loc 1 1347 0
 911 07be 4879 0000 	pea CFE_TIME_TaskData+464
 911      0000 
 912               	.cfi_def_cfa_offset 12
 913 07c4 4EB9 0000 	jsr CFE_SB_SendMsg
 913      0000 
 914 07ca 588F      	addq.l #4,%sp
 915               	.cfi_def_cfa_offset 8
68K GAS   			page 44


1348:/home/simulink/cFS_FreeRTOS_seL4/cfe/fsw/cfe-core/src/time/cfe_time_tone.c ****             #endif
1349:/home/simulink/cFS_FreeRTOS_seL4/cfe/fsw/cfe-core/src/time/cfe_time_tone.c **** 
1350:/home/simulink/cFS_FreeRTOS_seL4/cfe/fsw/cfe-core/src/time/cfe_time_tone.c ****             CFE_TIME_TaskData.LocalTaskCount++;
 916               	.loc 1 1350 0
 917 07cc 2039 0000 	move.l CFE_TIME_TaskData+432,%d0
 917      0000 
 918 07d2 5280      	addq.l #1,%d0
 919 07d4 23C0 0000 	move.l %d0,CFE_TIME_TaskData+432
 919      0000 
 920               	.L50:
1351:/home/simulink/cFS_FreeRTOS_seL4/cfe/fsw/cfe-core/src/time/cfe_time_tone.c ****         }
1352:/home/simulink/cFS_FreeRTOS_seL4/cfe/fsw/cfe-core/src/time/cfe_time_tone.c **** 
1353:/home/simulink/cFS_FreeRTOS_seL4/cfe/fsw/cfe-core/src/time/cfe_time_tone.c ****         /* Exit performance monitoring */
1354:/home/simulink/cFS_FreeRTOS_seL4/cfe/fsw/cfe-core/src/time/cfe_time_tone.c ****         CFE_ES_PerfLogExit(CFE_TIME_LOCAL1HZTASK_PERF_ID);
 921               	.loc 1 1354 0
 922 07da 4878 0001 	pea 1.w
 923               	.cfi_def_cfa_offset 12
 924 07de 4878 000A 	pea 10.w
 925               	.cfi_def_cfa_offset 16
 926 07e2 4EB9 0000 	jsr CFE_ES_PerfLogAdd
 926      0000 
 927 07e8 508F      	addq.l #8,%sp
 928               	.cfi_def_cfa_offset 8
 929               	.L49:
1306:/home/simulink/cFS_FreeRTOS_seL4/cfe/fsw/cfe-core/src/time/cfe_time_tone.c ****     {
 930               	.loc 1 1306 0
 931 07ea 4A97      	tst.l (%sp)
 932 07ec 6700 FF6E 	jeq .L52
1355:/home/simulink/cFS_FreeRTOS_seL4/cfe/fsw/cfe-core/src/time/cfe_time_tone.c ****     }
1356:/home/simulink/cFS_FreeRTOS_seL4/cfe/fsw/cfe-core/src/time/cfe_time_tone.c **** 
1357:/home/simulink/cFS_FreeRTOS_seL4/cfe/fsw/cfe-core/src/time/cfe_time_tone.c ****     /*
1358:/home/simulink/cFS_FreeRTOS_seL4/cfe/fsw/cfe-core/src/time/cfe_time_tone.c ****     ** This should never happen - but during development we had an
1359:/home/simulink/cFS_FreeRTOS_seL4/cfe/fsw/cfe-core/src/time/cfe_time_tone.c ****     **    error in the creation of the semaphore.
1360:/home/simulink/cFS_FreeRTOS_seL4/cfe/fsw/cfe-core/src/time/cfe_time_tone.c ****     */
1361:/home/simulink/cFS_FreeRTOS_seL4/cfe/fsw/cfe-core/src/time/cfe_time_tone.c ****     return;
 933               	.loc 1 1361 0
 934 07f0 4E71      	nop
1362:/home/simulink/cFS_FreeRTOS_seL4/cfe/fsw/cfe-core/src/time/cfe_time_tone.c **** 
1363:/home/simulink/cFS_FreeRTOS_seL4/cfe/fsw/cfe-core/src/time/cfe_time_tone.c **** } /* End of CFE_TIME_Local1HzTask() */
 935               	.loc 1 1363 0
 936 07f2 588F      	addq.l #4,%sp
 937 07f4 4E75      	rts
 938               	.cfi_endproc
 939               	.LFE68:
 940               	.sizeCFE_TIME_Local1HzTask, .-CFE_TIME_Local1HzTask
 941               	.align2
 942               	.globlCFE_TIME_NotifyTimeSynchApps
 943               	.typeCFE_TIME_NotifyTimeSynchApps, @function
 944               	CFE_TIME_NotifyTimeSynchApps:
 945               	.LFB69:
1364:/home/simulink/cFS_FreeRTOS_seL4/cfe/fsw/cfe-core/src/time/cfe_time_tone.c **** 
1365:/home/simulink/cFS_FreeRTOS_seL4/cfe/fsw/cfe-core/src/time/cfe_time_tone.c **** 
1366:/home/simulink/cFS_FreeRTOS_seL4/cfe/fsw/cfe-core/src/time/cfe_time_tone.c **** 
1367:/home/simulink/cFS_FreeRTOS_seL4/cfe/fsw/cfe-core/src/time/cfe_time_tone.c **** /* * * * * * * * * * * * * * * * * * * * * * * * * * * * * * * * * */
1368:/home/simulink/cFS_FreeRTOS_seL4/cfe/fsw/cfe-core/src/time/cfe_time_tone.c **** /*                                                                 */
1369:/home/simulink/cFS_FreeRTOS_seL4/cfe/fsw/cfe-core/src/time/cfe_time_tone.c **** /* CFE_TIME_NotifyTimeSynchApps() -- Call App Synch Callback Funcs */
1370:/home/simulink/cFS_FreeRTOS_seL4/cfe/fsw/cfe-core/src/time/cfe_time_tone.c **** /*                                                                 */
68K GAS   			page 45


1371:/home/simulink/cFS_FreeRTOS_seL4/cfe/fsw/cfe-core/src/time/cfe_time_tone.c **** /* * * * * * * * * * * * * * * * * * * * * * * * * * * * * * * * * */
1372:/home/simulink/cFS_FreeRTOS_seL4/cfe/fsw/cfe-core/src/time/cfe_time_tone.c **** 
1373:/home/simulink/cFS_FreeRTOS_seL4/cfe/fsw/cfe-core/src/time/cfe_time_tone.c **** void CFE_TIME_NotifyTimeSynchApps(void)
1374:/home/simulink/cFS_FreeRTOS_seL4/cfe/fsw/cfe-core/src/time/cfe_time_tone.c **** {
 946               	.loc 1 1374 0
 947               	.cfi_startproc
 948 07f6 598F      	subq.l #4,%sp
 949               	.cfi_def_cfa_offset 8
1375:/home/simulink/cFS_FreeRTOS_seL4/cfe/fsw/cfe-core/src/time/cfe_time_tone.c ****     uint32      i = 0;
 950               	.loc 1 1375 0
 951 07f8 4297      	clr.l (%sp)
1376:/home/simulink/cFS_FreeRTOS_seL4/cfe/fsw/cfe-core/src/time/cfe_time_tone.c **** 
1377:/home/simulink/cFS_FreeRTOS_seL4/cfe/fsw/cfe-core/src/time/cfe_time_tone.c ****     /*
1378:/home/simulink/cFS_FreeRTOS_seL4/cfe/fsw/cfe-core/src/time/cfe_time_tone.c ****     ** Notify applications that have requested tone synchronization
1379:/home/simulink/cFS_FreeRTOS_seL4/cfe/fsw/cfe-core/src/time/cfe_time_tone.c ****     */
1380:/home/simulink/cFS_FreeRTOS_seL4/cfe/fsw/cfe-core/src/time/cfe_time_tone.c ****     if (CFE_TIME_TaskData.IsToneGood)
 952               	.loc 1 1380 0
 953 07fa 1039 0000 	move.b CFE_TIME_TaskData+462,%d0
 953      0000 
 954 0800 4A00      	tst.b %d0
 955 0802 6730      	jeq .L60
1381:/home/simulink/cFS_FreeRTOS_seL4/cfe/fsw/cfe-core/src/time/cfe_time_tone.c ****     {
1382:/home/simulink/cFS_FreeRTOS_seL4/cfe/fsw/cfe-core/src/time/cfe_time_tone.c ****         for (i=0; i<CFE_TIME_MAX_NUM_SYNCH_FUNCS; i++)
 956               	.loc 1 1382 0
 957 0804 4297      	clr.l (%sp)
 958 0806 6024      	jra .L56
 959               	.L58:
1383:/home/simulink/cFS_FreeRTOS_seL4/cfe/fsw/cfe-core/src/time/cfe_time_tone.c ****         {
1384:/home/simulink/cFS_FreeRTOS_seL4/cfe/fsw/cfe-core/src/time/cfe_time_tone.c ****             if (CFE_TIME_TaskData.SynchCallback[i].Ptr != NULL)
 960               	.loc 1 1384 0
 961 0808 2017      	move.l (%sp),%d0
 962 080a E788      	lsl.l #3,%d0
 963 080c 41F9 0000 	lea CFE_TIME_TaskData+556,%a0
 963      0000 
 964 0812 2030 0800 	move.l (%a0,%d0.l),%d0
 965 0816 4A80      	tst.l %d0
 966 0818 6710      	jeq .L57
1385:/home/simulink/cFS_FreeRTOS_seL4/cfe/fsw/cfe-core/src/time/cfe_time_tone.c ****             {
1386:/home/simulink/cFS_FreeRTOS_seL4/cfe/fsw/cfe-core/src/time/cfe_time_tone.c ****                 (CFE_TIME_TaskData.SynchCallback[i].Ptr)();
 967               	.loc 1 1386 0
 968 081a 2017      	move.l (%sp),%d0
 969 081c E788      	lsl.l #3,%d0
 970 081e 41F9 0000 	lea CFE_TIME_TaskData+556,%a0
 970      0000 
 971 0824 2070 0800 	move.l (%a0,%d0.l),%a0
 972 0828 4E90      	jsr (%a0)
 973               	.LVL0:
 974               	.L57:
1382:/home/simulink/cFS_FreeRTOS_seL4/cfe/fsw/cfe-core/src/time/cfe_time_tone.c ****         {
 975               	.loc 1 1382 0 discriminator 2
 976 082a 5297      	addq.l #1,(%sp)
 977               	.L56:
1382:/home/simulink/cFS_FreeRTOS_seL4/cfe/fsw/cfe-core/src/time/cfe_time_tone.c ****         {
 978               	.loc 1 1382 0 is_stmt 0 discriminator 1
 979 082c 7003      	moveq #3,%d0
 980 082e B097      	cmp.l (%sp),%d0
 981 0830 64D6      	jcc .L58
68K GAS   			page 46


1387:/home/simulink/cFS_FreeRTOS_seL4/cfe/fsw/cfe-core/src/time/cfe_time_tone.c ****             }
1388:/home/simulink/cFS_FreeRTOS_seL4/cfe/fsw/cfe-core/src/time/cfe_time_tone.c ****         }
1389:/home/simulink/cFS_FreeRTOS_seL4/cfe/fsw/cfe-core/src/time/cfe_time_tone.c ****     }
1390:/home/simulink/cFS_FreeRTOS_seL4/cfe/fsw/cfe-core/src/time/cfe_time_tone.c ****     
1391:/home/simulink/cFS_FreeRTOS_seL4/cfe/fsw/cfe-core/src/time/cfe_time_tone.c ****     return;
 982               	.loc 1 1391 0 is_stmt 1
 983 0832 4E71      	nop
 984               	.L60:
 985 0834 4E71      	nop
1392:/home/simulink/cFS_FreeRTOS_seL4/cfe/fsw/cfe-core/src/time/cfe_time_tone.c **** }
 986               	.loc 1 1392 0
 987 0836 588F      	addq.l #4,%sp
 988 0838 4E75      	rts
 989               	.cfi_endproc
 990               	.LFE69:
 991               	.sizeCFE_TIME_NotifyTimeSynchApps, .-CFE_TIME_NotifyTimeSynchApps
 992               	.localPrevTime1.5301
 993               	.commPrevTime1.5301,8,4
 994               	.localPrevTime2.5302
 995               	.commPrevTime2.5302,8,4
 996               	.Letext0:
 997               	.file 2 "/home/simulink/cFS_FreeRTOS_seL4/osal/src/os/inc/common_types.h"
 998               	.file 3 "/home/simulink/development/rtems/5/m68k-rtems5/include/machine/_default_types.h"
 999               	.file 4 "/home/simulink/development/rtems/5/m68k-rtems5/include/machine/_types.h"
 1000               	.file 5 "/home/simulink/development/rtems/5/m68k-rtems5/include/sys/lock.h"
 1001               	.file 6 "/home/simulink/development/rtems/5/m68k-rtems5/include/sys/_types.h"
 1002               	.file 7 "/home/simulink/development/rtems/5/lib/gcc/m68k-rtems5/7.3.0/include/stddef.h"
 1003               	.file 8 "/home/simulink/development/rtems/5/m68k-rtems5/include/sys/reent.h"
 1004               	.file 9 "/home/simulink/development/rtems/5/m68k-rtems5/include/stdlib.h"
 1005               	.file 10 "/home/simulink/development/rtems/5/m68k-rtems5/include/time.h"
 1006               	.file 11 "/home/simulink/cFS_FreeRTOS_seL4/cfe/fsw/cfe-core/src/inc/cfe_time.h"
 1007               	.file 12 "/home/simulink/cFS_FreeRTOS_seL4/cfe/fsw/cfe-core/src/inc/ccsds.h"
 1008               	.file 13 "/home/simulink/cFS_FreeRTOS_seL4/cfe/fsw/cfe-core/src/inc/cfe_sb.h"
 1009               	.file 14 "/home/simulink/cFS_FreeRTOS_seL4/cfe/fsw/cfe-core/src/inc/cfe_time_msg.h"
 1010               	.file 15 "/home/simulink/cFS_FreeRTOS_seL4/cfe/fsw/cfe-core/src/time/cfe_time_utils.h"
 1011               	.section.debug_info,"",@progbits
 1012               	.Ldebug_info0:
 1013 0000 0000 15D9 	.long0x15d9
 1014 0004 0004      	.word0x4
 1015 0006 0000 0000 	.long.Ldebug_abbrev0
 1016 000a 04        	.byte0x4
 1017 000b 01        	.uleb128 0x1
 1018 000c 0000 0000 	.long.LASF285
 1019 0010 0C        	.byte0xc
 1020 0011 0000 0000 	.long.LASF286
 1021 0015 0000 0000 	.long.LASF287
 1022 0019 0000 0000 	.long.Ltext0
 1023 001d 0000 083A 	.long.Letext0-.Ltext0
 1024 0021 0000 0000 	.long.Ldebug_line0
 1025 0025 02        	.uleb128 0x2
 1026 0026 0000 0000 	.long.LASF2
 1027 002a 02        	.byte0x2
 1028 002b E6        	.byte0xe6
 1029 002c 0000 0030 	.long0x30
 1030 0030 03        	.uleb128 0x3
 1031 0031 01        	.byte0x1
 1032 0032 08        	.byte0x8
68K GAS   			page 47


 1033 0033 0000 0000 	.long.LASF0
 1034 0037 03        	.uleb128 0x3
 1035 0038 01        	.byte0x1
 1036 0039 06        	.byte0x6
 1037 003a 0000 0000 	.long.LASF1
 1038 003e 02        	.uleb128 0x2
 1039 003f 0000 0000 	.long.LASF3
 1040 0043 02        	.byte0x2
 1041 0044 E8        	.byte0xe8
 1042 0045 0000 0049 	.long0x49
 1043 0049 03        	.uleb128 0x3
 1044 004a 02        	.byte0x2
 1045 004b 05        	.byte0x5
 1046 004c 0000 0000 	.long.LASF4
 1047 0050 02        	.uleb128 0x2
 1048 0051 0000 0000 	.long.LASF5
 1049 0055 02        	.byte0x2
 1050 0056 E9        	.byte0xe9
 1051 0057 0000 005B 	.long0x5b
 1052 005b 03        	.uleb128 0x3
 1053 005c 04        	.byte0x4
 1054 005d 05        	.byte0x5
 1055 005e 0000 0000 	.long.LASF6
 1056 0062 03        	.uleb128 0x3
 1057 0063 08        	.byte0x8
 1058 0064 05        	.byte0x5
 1059 0065 0000 0000 	.long.LASF7
 1060 0069 02        	.uleb128 0x2
 1061 006a 0000 0000 	.long.LASF8
 1062 006e 02        	.byte0x2
 1063 006f EB        	.byte0xeb
 1064 0070 0000 0030 	.long0x30
 1065 0074 02        	.uleb128 0x2
 1066 0075 0000 0000 	.long.LASF9
 1067 0079 02        	.byte0x2
 1068 007a EC        	.byte0xec
 1069 007b 0000 007F 	.long0x7f
 1070 007f 03        	.uleb128 0x3
 1071 0080 02        	.byte0x2
 1072 0081 07        	.byte0x7
 1073 0082 0000 0000 	.long.LASF10
 1074 0086 02        	.uleb128 0x2
 1075 0087 0000 0000 	.long.LASF11
 1076 008b 02        	.byte0x2
 1077 008c ED        	.byte0xed
 1078 008d 0000 0091 	.long0x91
 1079 0091 03        	.uleb128 0x3
 1080 0092 04        	.byte0x4
 1081 0093 07        	.byte0x7
 1082 0094 0000 0000 	.long.LASF12
 1083 0098 03        	.uleb128 0x3
 1084 0099 08        	.byte0x8
 1085 009a 07        	.byte0x7
 1086 009b 0000 0000 	.long.LASF13
 1087 009f 04        	.uleb128 0x4
 1088 00a0 0000 0000 	.long.LASF14
 1089 00a4 02        	.byte0x2
68K GAS   			page 48


 1090 00a5 0131      	.word0x131
 1091 00a7 0000 0025 	.long0x25
 1092 00ab 03        	.uleb128 0x3
 1093 00ac 01        	.byte0x1
 1094 00ad 06        	.byte0x6
 1095 00ae 0000 0000 	.long.LASF15
 1096 00b2 05        	.uleb128 0x5
 1097 00b3 0000 00AB 	.long0xab
 1098 00b7 06        	.uleb128 0x6
 1099 00b8 04        	.byte0x4
 1100 00b9 02        	.uleb128 0x2
 1101 00ba 0000 0000 	.long.LASF16
 1102 00be 03        	.byte0x3
 1103 00bf 67        	.byte0x67
 1104 00c0 0000 0062 	.long0x62
 1105 00c4 03        	.uleb128 0x3
 1106 00c5 08        	.byte0x8
 1107 00c6 04        	.byte0x4
 1108 00c7 0000 0000 	.long.LASF17
 1109 00cb 02        	.uleb128 0x2
 1110 00cc 0000 0000 	.long.LASF18
 1111 00d0 04        	.byte0x4
 1112 00d1 10        	.byte0x10
 1113 00d2 0000 00B9 	.long0xb9
 1114 00d6 02        	.uleb128 0x2
 1115 00d7 0000 0000 	.long.LASF19
 1116 00db 04        	.byte0x4
 1117 00dc 16        	.byte0x16
 1118 00dd 0000 00CB 	.long0xcb
 1119 00e1 07        	.uleb128 0x7
 1120 00e2 04        	.byte0x4
 1121 00e3 05        	.byte0x5
 1122 00e4 696E 7400 	.string"int"
 1123 00e8 08        	.uleb128 0x8
 1124 00e9 0000 0000 	.long.LASF23
 1125 00ed 08        	.byte0x8
 1126 00ee 05        	.byte0x5
 1127 00ef 28        	.byte0x28
 1128 00f0 0000 010D 	.long0x10d
 1129 00f4 09        	.uleb128 0x9
 1130 00f5 0000 0000 	.long.LASF20
 1131 00f9 05        	.byte0x5
 1132 00fa 29        	.byte0x29
 1133 00fb 0000 010D 	.long0x10d
 1134 00ff 00        	.byte0
 1135 0100 09        	.uleb128 0x9
 1136 0101 0000 0000 	.long.LASF21
 1137 0105 05        	.byte0x5
 1138 0106 2A        	.byte0x2a
 1139 0107 0000 010D 	.long0x10d
 1140 010b 04        	.byte0x4
 1141 010c 00        	.byte0
 1142 010d 03        	.uleb128 0x3
 1143 010e 04        	.byte0x4
 1144 010f 07        	.byte0x7
 1145 0110 0000 0000 	.long.LASF22
 1146 0114 08        	.uleb128 0x8
68K GAS   			page 49


 1147 0115 0000 0000 	.long.LASF24
 1148 0119 14        	.byte0x14
 1149 011a 05        	.byte0x5
 1150 011b 2D        	.byte0x2d
 1151 011c 0000 0151 	.long0x151
 1152 0120 09        	.uleb128 0x9
 1153 0121 0000 0000 	.long.LASF25
 1154 0125 05        	.byte0x5
 1155 0126 2E        	.byte0x2e
 1156 0127 0000 00E8 	.long0xe8
 1157 012b 00        	.byte0
 1158 012c 09        	.uleb128 0x9
 1159 012d 0000 0000 	.long.LASF26
 1160 0131 05        	.byte0x5
 1161 0132 2F        	.byte0x2f
 1162 0133 0000 0156 	.long0x156
 1163 0137 08        	.byte0x8
 1164 0138 09        	.uleb128 0x9
 1165 0139 0000 0000 	.long.LASF27
 1166 013d 05        	.byte0x5
 1167 013e 30        	.byte0x30
 1168 013f 0000 0161 	.long0x161
 1169 0143 0C        	.byte0xc
 1170 0144 09        	.uleb128 0x9
 1171 0145 0000 0000 	.long.LASF28
 1172 0149 05        	.byte0x5
 1173 014a 31        	.byte0x31
 1174 014b 0000 0167 	.long0x167
 1175 014f 10        	.byte0x10
 1176 0150 00        	.byte0
 1177 0151 0A        	.uleb128 0xa
 1178 0152 0000 0000 	.long.LASF29
 1179 0156 0B        	.uleb128 0xb
 1180 0157 04        	.byte0x4
 1181 0158 0000 0151 	.long0x151
 1182 015c 0A        	.uleb128 0xa
 1183 015d 0000 0000 	.long.LASF30
 1184 0161 0B        	.uleb128 0xb
 1185 0162 04        	.byte0x4
 1186 0163 0000 015C 	.long0x15c
 1187 0167 0B        	.uleb128 0xb
 1188 0168 04        	.byte0x4
 1189 0169 0000 00B2 	.long0xb2
 1190 016d 08        	.uleb128 0x8
 1191 016e 0000 0000 	.long.LASF31
 1192 0172 14        	.byte0x14
 1193 0173 05        	.byte0x5
 1194 0174 34        	.byte0x34
 1195 0175 0000 0186 	.long0x186
 1196 0179 09        	.uleb128 0x9
 1197 017a 0000 0000 	.long.LASF32
 1198 017e 05        	.byte0x5
 1199 017f 35        	.byte0x35
 1200 0180 0000 0114 	.long0x114
 1201 0184 00        	.byte0
 1202 0185 00        	.byte0
 1203 0186 08        	.uleb128 0x8
68K GAS   			page 50


 1204 0187 0000 0000 	.long.LASF33
 1205 018b 18        	.byte0x18
 1206 018c 05        	.byte0x5
 1207 018d 38        	.byte0x38
 1208 018e 0000 01AB 	.long0x1ab
 1209 0192 09        	.uleb128 0x9
 1210 0193 0000 0000 	.long.LASF34
 1211 0197 05        	.byte0x5
 1212 0198 39        	.byte0x39
 1213 0199 0000 016D 	.long0x16d
 1214 019d 00        	.byte0
 1215 019e 09        	.uleb128 0x9
 1216 019f 0000 0000 	.long.LASF35
 1217 01a3 05        	.byte0x5
 1218 01a4 3A        	.byte0x3a
 1219 01a5 0000 010D 	.long0x10d
 1220 01a9 14        	.byte0x14
 1221 01aa 00        	.byte0
 1222 01ab 04        	.uleb128 0x4
 1223 01ac 0000 0000 	.long.LASF36
 1224 01b0 05        	.byte0x5
 1225 01b1 0171      	.word0x171
 1226 01b3 0000 0186 	.long0x186
 1227 01b7 02        	.uleb128 0x2
 1228 01b8 0000 0000 	.long.LASF37
 1229 01bc 06        	.byte0x6
 1230 01bd 91        	.byte0x91
 1231 01be 0000 005B 	.long0x5b
 1232 01c2 04        	.uleb128 0x4
 1233 01c3 0000 0000 	.long.LASF38
 1234 01c7 07        	.byte0x7
 1235 01c8 0165      	.word0x165
 1236 01ca 0000 010D 	.long0x10d
 1237 01ce 0C        	.uleb128 0xc
 1238 01cf 04        	.byte0x4
 1239 01d0 06        	.byte0x6
 1240 01d1 A6        	.byte0xa6
 1241 01d2 0000 01ED 	.long0x1ed
 1242 01d6 0D        	.uleb128 0xd
 1243 01d7 0000 0000 	.long.LASF39
 1244 01db 06        	.byte0x6
 1245 01dc A8        	.byte0xa8
 1246 01dd 0000 01C2 	.long0x1c2
 1247 01e1 0D        	.uleb128 0xd
 1248 01e2 0000 0000 	.long.LASF40
 1249 01e6 06        	.byte0x6
 1250 01e7 A9        	.byte0xa9
 1251 01e8 0000 01ED 	.long0x1ed
 1252 01ec 00        	.byte0
 1253 01ed 0E        	.uleb128 0xe
 1254 01ee 0000 0030 	.long0x30
 1255 01f2 0000 01FD 	.long0x1fd
 1256 01f6 0F        	.uleb128 0xf
 1257 01f7 0000 0091 	.long0x91
 1258 01fb 03        	.byte0x3
 1259 01fc 00        	.byte0
 1260 01fd 10        	.uleb128 0x10
68K GAS   			page 51


 1261 01fe 08        	.byte0x8
 1262 01ff 06        	.byte0x6
 1263 0200 A3        	.byte0xa3
 1264 0201 0000 021E 	.long0x21e
 1265 0205 09        	.uleb128 0x9
 1266 0206 0000 0000 	.long.LASF41
 1267 020a 06        	.byte0x6
 1268 020b A5        	.byte0xa5
 1269 020c 0000 00E1 	.long0xe1
 1270 0210 00        	.byte0
 1271 0211 09        	.uleb128 0x9
 1272 0212 0000 0000 	.long.LASF42
 1273 0216 06        	.byte0x6
 1274 0217 AA        	.byte0xaa
 1275 0218 0000 01CE 	.long0x1ce
 1276 021c 04        	.byte0x4
 1277 021d 00        	.byte0
 1278 021e 02        	.uleb128 0x2
 1279 021f 0000 0000 	.long.LASF43
 1280 0223 06        	.byte0x6
 1281 0224 AB        	.byte0xab
 1282 0225 0000 01FD 	.long0x1fd
 1283 0229 02        	.uleb128 0x2
 1284 022a 0000 0000 	.long.LASF44
 1285 022e 06        	.byte0x6
 1286 022f AF        	.byte0xaf
 1287 0230 0000 01AB 	.long0x1ab
 1288 0234 02        	.uleb128 0x2
 1289 0235 0000 0000 	.long.LASF45
 1290 0239 08        	.byte0x8
 1291 023a 16        	.byte0x16
 1292 023b 0000 0091 	.long0x91
 1293 023f 08        	.uleb128 0x8
 1294 0240 0000 0000 	.long.LASF46
 1295 0244 18        	.byte0x18
 1296 0245 08        	.byte0x8
 1297 0246 2F        	.byte0x2f
 1298 0247 0000 0292 	.long0x292
 1299 024b 09        	.uleb128 0x9
 1300 024c 0000 0000 	.long.LASF47
 1301 0250 08        	.byte0x8
 1302 0251 31        	.byte0x31
 1303 0252 0000 0292 	.long0x292
 1304 0256 00        	.byte0
 1305 0257 11        	.uleb128 0x11
 1306 0258 5F6B 00   	.string"_k"
 1307 025b 08        	.byte0x8
 1308 025c 32        	.byte0x32
 1309 025d 0000 00E1 	.long0xe1
 1310 0261 04        	.byte0x4
 1311 0262 09        	.uleb128 0x9
 1312 0263 0000 0000 	.long.LASF48
 1313 0267 08        	.byte0x8
 1314 0268 32        	.byte0x32
 1315 0269 0000 00E1 	.long0xe1
 1316 026d 08        	.byte0x8
 1317 026e 09        	.uleb128 0x9
68K GAS   			page 52


 1318 026f 0000 0000 	.long.LASF49
 1319 0273 08        	.byte0x8
 1320 0274 32        	.byte0x32
 1321 0275 0000 00E1 	.long0xe1
 1322 0279 0C        	.byte0xc
 1323 027a 09        	.uleb128 0x9
 1324 027b 0000 0000 	.long.LASF50
 1325 027f 08        	.byte0x8
 1326 0280 32        	.byte0x32
 1327 0281 0000 00E1 	.long0xe1
 1328 0285 10        	.byte0x10
 1329 0286 11        	.uleb128 0x11
 1330 0287 5F78 00   	.string"_x"
 1331 028a 08        	.byte0x8
 1332 028b 33        	.byte0x33
 1333 028c 0000 0298 	.long0x298
 1334 0290 14        	.byte0x14
 1335 0291 00        	.byte0
 1336 0292 0B        	.uleb128 0xb
 1337 0293 04        	.byte0x4
 1338 0294 0000 023F 	.long0x23f
 1339 0298 0E        	.uleb128 0xe
 1340 0299 0000 0234 	.long0x234
 1341 029d 0000 02A8 	.long0x2a8
 1342 02a1 0F        	.uleb128 0xf
 1343 02a2 0000 0091 	.long0x91
 1344 02a6 00        	.byte0
 1345 02a7 00        	.byte0
 1346 02a8 08        	.uleb128 0x8
 1347 02a9 0000 0000 	.long.LASF51
 1348 02ad 24        	.byte0x24
 1349 02ae 08        	.byte0x8
 1350 02af 37        	.byte0x37
 1351 02b0 0000 0321 	.long0x321
 1352 02b4 09        	.uleb128 0x9
 1353 02b5 0000 0000 	.long.LASF52
 1354 02b9 08        	.byte0x8
 1355 02ba 39        	.byte0x39
 1356 02bb 0000 00E1 	.long0xe1
 1357 02bf 00        	.byte0
 1358 02c0 09        	.uleb128 0x9
 1359 02c1 0000 0000 	.long.LASF53
 1360 02c5 08        	.byte0x8
 1361 02c6 3A        	.byte0x3a
 1362 02c7 0000 00E1 	.long0xe1
 1363 02cb 04        	.byte0x4
 1364 02cc 09        	.uleb128 0x9
 1365 02cd 0000 0000 	.long.LASF54
 1366 02d1 08        	.byte0x8
 1367 02d2 3B        	.byte0x3b
 1368 02d3 0000 00E1 	.long0xe1
 1369 02d7 08        	.byte0x8
 1370 02d8 09        	.uleb128 0x9
 1371 02d9 0000 0000 	.long.LASF55
 1372 02dd 08        	.byte0x8
 1373 02de 3C        	.byte0x3c
 1374 02df 0000 00E1 	.long0xe1
68K GAS   			page 53


 1375 02e3 0C        	.byte0xc
 1376 02e4 09        	.uleb128 0x9
 1377 02e5 0000 0000 	.long.LASF56
 1378 02e9 08        	.byte0x8
 1379 02ea 3D        	.byte0x3d
 1380 02eb 0000 00E1 	.long0xe1
 1381 02ef 10        	.byte0x10
 1382 02f0 09        	.uleb128 0x9
 1383 02f1 0000 0000 	.long.LASF57
 1384 02f5 08        	.byte0x8
 1385 02f6 3E        	.byte0x3e
 1386 02f7 0000 00E1 	.long0xe1
 1387 02fb 14        	.byte0x14
 1388 02fc 09        	.uleb128 0x9
 1389 02fd 0000 0000 	.long.LASF58
 1390 0301 08        	.byte0x8
 1391 0302 3F        	.byte0x3f
 1392 0303 0000 00E1 	.long0xe1
 1393 0307 18        	.byte0x18
 1394 0308 09        	.uleb128 0x9
 1395 0309 0000 0000 	.long.LASF59
 1396 030d 08        	.byte0x8
 1397 030e 40        	.byte0x40
 1398 030f 0000 00E1 	.long0xe1
 1399 0313 1C        	.byte0x1c
 1400 0314 09        	.uleb128 0x9
 1401 0315 0000 0000 	.long.LASF60
 1402 0319 08        	.byte0x8
 1403 031a 41        	.byte0x41
 1404 031b 0000 00E1 	.long0xe1
 1405 031f 20        	.byte0x20
 1406 0320 00        	.byte0
 1407 0321 12        	.uleb128 0x12
 1408 0322 0000 0000 	.long.LASF61
 1409 0326 0108      	.word0x108
 1410 0328 08        	.byte0x8
 1411 0329 4A        	.byte0x4a
 1412 032a 0000 0361 	.long0x361
 1413 032e 09        	.uleb128 0x9
 1414 032f 0000 0000 	.long.LASF62
 1415 0333 08        	.byte0x8
 1416 0334 4B        	.byte0x4b
 1417 0335 0000 0361 	.long0x361
 1418 0339 00        	.byte0
 1419 033a 09        	.uleb128 0x9
 1420 033b 0000 0000 	.long.LASF63
 1421 033f 08        	.byte0x8
 1422 0340 4C        	.byte0x4c
 1423 0341 0000 0361 	.long0x361
 1424 0345 80        	.byte0x80
 1425 0346 13        	.uleb128 0x13
 1426 0347 0000 0000 	.long.LASF64
 1427 034b 08        	.byte0x8
 1428 034c 4E        	.byte0x4e
 1429 034d 0000 0234 	.long0x234
 1430 0351 0100      	.word0x100
 1431 0353 13        	.uleb128 0x13
68K GAS   			page 54


 1432 0354 0000 0000 	.long.LASF65
 1433 0358 08        	.byte0x8
 1434 0359 51        	.byte0x51
 1435 035a 0000 0234 	.long0x234
 1436 035e 0104      	.word0x104
 1437 0360 00        	.byte0
 1438 0361 0E        	.uleb128 0xe
 1439 0362 0000 00B7 	.long0xb7
 1440 0366 0000 0371 	.long0x371
 1441 036a 0F        	.uleb128 0xf
 1442 036b 0000 0091 	.long0x91
 1443 036f 1F        	.byte0x1f
 1444 0370 00        	.byte0
 1445 0371 12        	.uleb128 0x12
 1446 0372 0000 0000 	.long.LASF66
 1447 0376 0190      	.word0x190
 1448 0378 08        	.byte0x8
 1449 0379 5D        	.byte0x5d
 1450 037a 0000 03AF 	.long0x3af
 1451 037e 09        	.uleb128 0x9
 1452 037f 0000 0000 	.long.LASF47
 1453 0383 08        	.byte0x8
 1454 0384 5E        	.byte0x5e
 1455 0385 0000 03AF 	.long0x3af
 1456 0389 00        	.byte0
 1457 038a 09        	.uleb128 0x9
 1458 038b 0000 0000 	.long.LASF67
 1459 038f 08        	.byte0x8
 1460 0390 5F        	.byte0x5f
 1461 0391 0000 00E1 	.long0xe1
 1462 0395 04        	.byte0x4
 1463 0396 09        	.uleb128 0x9
 1464 0397 0000 0000 	.long.LASF68
 1465 039b 08        	.byte0x8
 1466 039c 61        	.byte0x61
 1467 039d 0000 03B5 	.long0x3b5
 1468 03a1 08        	.byte0x8
 1469 03a2 09        	.uleb128 0x9
 1470 03a3 0000 0000 	.long.LASF61
 1471 03a7 08        	.byte0x8
 1472 03a8 62        	.byte0x62
 1473 03a9 0000 0321 	.long0x321
 1474 03ad 88        	.byte0x88
 1475 03ae 00        	.byte0
 1476 03af 0B        	.uleb128 0xb
 1477 03b0 04        	.byte0x4
 1478 03b1 0000 0371 	.long0x371
 1479 03b5 0E        	.uleb128 0xe
 1480 03b6 0000 03C5 	.long0x3c5
 1481 03ba 0000 03C5 	.long0x3c5
 1482 03be 0F        	.uleb128 0xf
 1483 03bf 0000 0091 	.long0x91
 1484 03c3 1F        	.byte0x1f
 1485 03c4 00        	.byte0
 1486 03c5 0B        	.uleb128 0xb
 1487 03c6 04        	.byte0x4
 1488 03c7 0000 03CB 	.long0x3cb
68K GAS   			page 55


 1489 03cb 14        	.uleb128 0x14
 1490 03cc 08        	.uleb128 0x8
 1491 03cd 0000 0000 	.long.LASF69
 1492 03d1 08        	.byte0x8
 1493 03d2 08        	.byte0x8
 1494 03d3 75        	.byte0x75
 1495 03d4 0000 03F1 	.long0x3f1
 1496 03d8 09        	.uleb128 0x9
 1497 03d9 0000 0000 	.long.LASF70
 1498 03dd 08        	.byte0x8
 1499 03de 76        	.byte0x76
 1500 03df 0000 03F1 	.long0x3f1
 1501 03e3 00        	.byte0
 1502 03e4 09        	.uleb128 0x9
 1503 03e5 0000 0000 	.long.LASF71
 1504 03e9 08        	.byte0x8
 1505 03ea 77        	.byte0x77
 1506 03eb 0000 00E1 	.long0xe1
 1507 03ef 04        	.byte0x4
 1508 03f0 00        	.byte0
 1509 03f1 0B        	.uleb128 0xb
 1510 03f2 04        	.byte0x4
 1511 03f3 0000 0030 	.long0x30
 1512 03f7 08        	.uleb128 0x8
 1513 03f8 0000 0000 	.long.LASF72
 1514 03fc 80        	.byte0x80
 1515 03fd 08        	.byte0x8
 1516 03fe B5        	.byte0xb5
 1517 03ff 0000 0521 	.long0x521
 1518 0403 11        	.uleb128 0x11
 1519 0404 5F70 00   	.string"_p"
 1520 0407 08        	.byte0x8
 1521 0408 B6        	.byte0xb6
 1522 0409 0000 03F1 	.long0x3f1
 1523 040d 00        	.byte0
 1524 040e 11        	.uleb128 0x11
 1525 040f 5F72 00   	.string"_r"
 1526 0412 08        	.byte0x8
 1527 0413 B7        	.byte0xb7
 1528 0414 0000 00E1 	.long0xe1
 1529 0418 04        	.byte0x4
 1530 0419 11        	.uleb128 0x11
 1531 041a 5F77 00   	.string"_w"
 1532 041d 08        	.byte0x8
 1533 041e B8        	.byte0xb8
 1534 041f 0000 00E1 	.long0xe1
 1535 0423 08        	.byte0x8
 1536 0424 09        	.uleb128 0x9
 1537 0425 0000 0000 	.long.LASF73
 1538 0429 08        	.byte0x8
 1539 042a B9        	.byte0xb9
 1540 042b 0000 0049 	.long0x49
 1541 042f 0C        	.byte0xc
 1542 0430 09        	.uleb128 0x9
 1543 0431 0000 0000 	.long.LASF74
 1544 0435 08        	.byte0x8
 1545 0436 BA        	.byte0xba
68K GAS   			page 56


 1546 0437 0000 0049 	.long0x49
 1547 043b 0E        	.byte0xe
 1548 043c 11        	.uleb128 0x11
 1549 043d 5F62 6600 	.string"_bf"
 1550 0441 08        	.byte0x8
 1551 0442 BB        	.byte0xbb
 1552 0443 0000 03CC 	.long0x3cc
 1553 0447 10        	.byte0x10
 1554 0448 09        	.uleb128 0x9
 1555 0449 0000 0000 	.long.LASF75
 1556 044d 08        	.byte0x8
 1557 044e BC        	.byte0xbc
 1558 044f 0000 00E1 	.long0xe1
 1559 0453 18        	.byte0x18
 1560 0454 09        	.uleb128 0x9
 1561 0455 0000 0000 	.long.LASF76
 1562 0459 08        	.byte0x8
 1563 045a C3        	.byte0xc3
 1564 045b 0000 00B7 	.long0xb7
 1565 045f 1C        	.byte0x1c
 1566 0460 09        	.uleb128 0x9
 1567 0461 0000 0000 	.long.LASF77
 1568 0465 08        	.byte0x8
 1569 0466 C5        	.byte0xc5
 1570 0467 0000 0658 	.long0x658
 1571 046b 20        	.byte0x20
 1572 046c 09        	.uleb128 0x9
 1573 046d 0000 0000 	.long.LASF78
 1574 0471 08        	.byte0x8
 1575 0472 C7        	.byte0xc7
 1576 0473 0000 067C 	.long0x67c
 1577 0477 24        	.byte0x24
 1578 0478 09        	.uleb128 0x9
 1579 0479 0000 0000 	.long.LASF79
 1580 047d 08        	.byte0x8
 1581 047e CA        	.byte0xca
 1582 047f 0000 06A0 	.long0x6a0
 1583 0483 28        	.byte0x28
 1584 0484 09        	.uleb128 0x9
 1585 0485 0000 0000 	.long.LASF80
 1586 0489 08        	.byte0x8
 1587 048a CB        	.byte0xcb
 1588 048b 0000 06BA 	.long0x6ba
 1589 048f 2C        	.byte0x2c
 1590 0490 11        	.uleb128 0x11
 1591 0491 5F75 6200 	.string"_ub"
 1592 0495 08        	.byte0x8
 1593 0496 CE        	.byte0xce
 1594 0497 0000 03CC 	.long0x3cc
 1595 049b 30        	.byte0x30
 1596 049c 11        	.uleb128 0x11
 1597 049d 5F75 7000 	.string"_up"
 1598 04a1 08        	.byte0x8
 1599 04a2 CF        	.byte0xcf
 1600 04a3 0000 03F1 	.long0x3f1
 1601 04a7 38        	.byte0x38
 1602 04a8 11        	.uleb128 0x11
68K GAS   			page 57


 1603 04a9 5F75 7200 	.string"_ur"
 1604 04ad 08        	.byte0x8
 1605 04ae D0        	.byte0xd0
 1606 04af 0000 00E1 	.long0xe1
 1607 04b3 3C        	.byte0x3c
 1608 04b4 09        	.uleb128 0x9
 1609 04b5 0000 0000 	.long.LASF81
 1610 04b9 08        	.byte0x8
 1611 04ba D3        	.byte0xd3
 1612 04bb 0000 06C0 	.long0x6c0
 1613 04bf 40        	.byte0x40
 1614 04c0 09        	.uleb128 0x9
 1615 04c1 0000 0000 	.long.LASF82
 1616 04c5 08        	.byte0x8
 1617 04c6 D4        	.byte0xd4
 1618 04c7 0000 06D0 	.long0x6d0
 1619 04cb 43        	.byte0x43
 1620 04cc 11        	.uleb128 0x11
 1621 04cd 5F6C 6200 	.string"_lb"
 1622 04d1 08        	.byte0x8
 1623 04d2 D7        	.byte0xd7
 1624 04d3 0000 03CC 	.long0x3cc
 1625 04d7 44        	.byte0x44
 1626 04d8 09        	.uleb128 0x9
 1627 04d9 0000 0000 	.long.LASF83
 1628 04dd 08        	.byte0x8
 1629 04de DA        	.byte0xda
 1630 04df 0000 00E1 	.long0xe1
 1631 04e3 4C        	.byte0x4c
 1632 04e4 09        	.uleb128 0x9
 1633 04e5 0000 0000 	.long.LASF84
 1634 04e9 08        	.byte0x8
 1635 04ea DB        	.byte0xdb
 1636 04eb 0000 00CB 	.long0xcb
 1637 04ef 50        	.byte0x50
 1638 04f0 09        	.uleb128 0x9
 1639 04f1 0000 0000 	.long.LASF85
 1640 04f5 08        	.byte0x8
 1641 04f6 DE        	.byte0xde
 1642 04f7 0000 053F 	.long0x53f
 1643 04fb 58        	.byte0x58
 1644 04fc 09        	.uleb128 0x9
 1645 04fd 0000 0000 	.long.LASF86
 1646 0501 08        	.byte0x8
 1647 0502 E2        	.byte0xe2
 1648 0503 0000 0229 	.long0x229
 1649 0507 5C        	.byte0x5c
 1650 0508 09        	.uleb128 0x9
 1651 0509 0000 0000 	.long.LASF87
 1652 050d 08        	.byte0x8
 1653 050e E4        	.byte0xe4
 1654 050f 0000 021E 	.long0x21e
 1655 0513 74        	.byte0x74
 1656 0514 09        	.uleb128 0x9
 1657 0515 0000 0000 	.long.LASF88
 1658 0519 08        	.byte0x8
 1659 051a E5        	.byte0xe5
68K GAS   			page 58


 1660 051b 0000 00E1 	.long0xe1
 1661 051f 7C        	.byte0x7c
 1662 0520 00        	.byte0
 1663 0521 15        	.uleb128 0x15
 1664 0522 0000 01B7 	.long0x1b7
 1665 0526 0000 053F 	.long0x53f
 1666 052a 16        	.uleb128 0x16
 1667 052b 0000 053F 	.long0x53f
 1668 052f 16        	.uleb128 0x16
 1669 0530 0000 00B7 	.long0xb7
 1670 0534 16        	.uleb128 0x16
 1671 0535 0000 0652 	.long0x652
 1672 0539 16        	.uleb128 0x16
 1673 053a 0000 00E1 	.long0xe1
 1674 053e 00        	.byte0
 1675 053f 0B        	.uleb128 0xb
 1676 0540 04        	.byte0x4
 1677 0541 0000 054A 	.long0x54a
 1678 0545 05        	.uleb128 0x5
 1679 0546 0000 053F 	.long0x53f
 1680 054a 17        	.uleb128 0x17
 1681 054b 0000 0000 	.long.LASF89
 1682 054f 0158      	.word0x158
 1683 0551 08        	.byte0x8
 1684 0552 0239      	.word0x239
 1685 0554 0000 0652 	.long0x652
 1686 0558 18        	.uleb128 0x18
 1687 0559 0000 0000 	.long.LASF90
 1688 055d 08        	.byte0x8
 1689 055e 023B      	.word0x23b
 1690 0560 0000 00E1 	.long0xe1
 1691 0564 00        	.byte0
 1692 0565 18        	.uleb128 0x18
 1693 0566 0000 0000 	.long.LASF91
 1694 056a 08        	.byte0x8
 1695 056b 0240      	.word0x240
 1696 056d 0000 0727 	.long0x727
 1697 0571 04        	.byte0x4
 1698 0572 18        	.uleb128 0x18
 1699 0573 0000 0000 	.long.LASF92
 1700 0577 08        	.byte0x8
 1701 0578 0240      	.word0x240
 1702 057a 0000 0727 	.long0x727
 1703 057e 08        	.byte0x8
 1704 057f 18        	.uleb128 0x18
 1705 0580 0000 0000 	.long.LASF93
 1706 0584 08        	.byte0x8
 1707 0585 0240      	.word0x240
 1708 0587 0000 0727 	.long0x727
 1709 058b 0C        	.byte0xc
 1710 058c 18        	.uleb128 0x18
 1711 058d 0000 0000 	.long.LASF94
 1712 0591 08        	.byte0x8
 1713 0592 0242      	.word0x242
 1714 0594 0000 00E1 	.long0xe1
 1715 0598 10        	.byte0x10
 1716 0599 18        	.uleb128 0x18
68K GAS   			page 59


 1717 059a 0000 0000 	.long.LASF95
 1718 059e 08        	.byte0x8
 1719 059f 0243      	.word0x243
 1720 05a1 0000 0909 	.long0x909
 1721 05a5 14        	.byte0x14
 1722 05a6 18        	.uleb128 0x18
 1723 05a7 0000 0000 	.long.LASF96
 1724 05ab 08        	.byte0x8
 1725 05ac 0246      	.word0x246
 1726 05ae 0000 00E1 	.long0xe1
 1727 05b2 30        	.byte0x30
 1728 05b3 18        	.uleb128 0x18
 1729 05b4 0000 0000 	.long.LASF97
 1730 05b8 08        	.byte0x8
 1731 05b9 0247      	.word0x247
 1732 05bb 0000 091E 	.long0x91e
 1733 05bf 34        	.byte0x34
 1734 05c0 18        	.uleb128 0x18
 1735 05c1 0000 0000 	.long.LASF98
 1736 05c5 08        	.byte0x8
 1737 05c6 0249      	.word0x249
 1738 05c8 0000 00E1 	.long0xe1
 1739 05cc 38        	.byte0x38
 1740 05cd 18        	.uleb128 0x18
 1741 05ce 0000 0000 	.long.LASF99
 1742 05d2 08        	.byte0x8
 1743 05d3 024B      	.word0x24b
 1744 05d5 0000 092F 	.long0x92f
 1745 05d9 3C        	.byte0x3c
 1746 05da 18        	.uleb128 0x18
 1747 05db 0000 0000 	.long.LASF100
 1748 05df 08        	.byte0x8
 1749 05e0 024E      	.word0x24e
 1750 05e2 0000 0292 	.long0x292
 1751 05e6 40        	.byte0x40
 1752 05e7 18        	.uleb128 0x18
 1753 05e8 0000 0000 	.long.LASF101
 1754 05ec 08        	.byte0x8
 1755 05ed 024F      	.word0x24f
 1756 05ef 0000 00E1 	.long0xe1
 1757 05f3 44        	.byte0x44
 1758 05f4 18        	.uleb128 0x18
 1759 05f5 0000 0000 	.long.LASF102
 1760 05f9 08        	.byte0x8
 1761 05fa 0250      	.word0x250
 1762 05fc 0000 0292 	.long0x292
 1763 0600 48        	.byte0x48
 1764 0601 18        	.uleb128 0x18
 1765 0602 0000 0000 	.long.LASF103
 1766 0606 08        	.byte0x8
 1767 0607 0251      	.word0x251
 1768 0609 0000 0935 	.long0x935
 1769 060d 4C        	.byte0x4c
 1770 060e 18        	.uleb128 0x18
 1771 060f 0000 0000 	.long.LASF104
 1772 0613 08        	.byte0x8
 1773 0614 0254      	.word0x254
68K GAS   			page 60


 1774 0616 0000 00E1 	.long0xe1
 1775 061a 50        	.byte0x50
 1776 061b 18        	.uleb128 0x18
 1777 061c 0000 0000 	.long.LASF105
 1778 0620 08        	.byte0x8
 1779 0621 0255      	.word0x255
 1780 0623 0000 0652 	.long0x652
 1781 0627 54        	.byte0x54
 1782 0628 18        	.uleb128 0x18
 1783 0629 0000 0000 	.long.LASF106
 1784 062d 08        	.byte0x8
 1785 062e 0278      	.word0x278
 1786 0630 0000 08E7 	.long0x8e7
 1787 0634 58        	.byte0x58
 1788 0635 19        	.uleb128 0x19
 1789 0636 0000 0000 	.long.LASF107
 1790 063a 08        	.byte0x8
 1791 063b 0281      	.word0x281
 1792 063d 0000 0946 	.long0x946
 1793 0641 0148      	.word0x148
 1794 0643 19        	.uleb128 0x19
 1795 0644 0000 0000 	.long.LASF108
 1796 0648 08        	.byte0x8
 1797 0649 0286      	.word0x286
 1798 064b 0000 06EC 	.long0x6ec
 1799 064f 014C      	.word0x14c
 1800 0651 00        	.byte0
 1801 0652 0B        	.uleb128 0xb
 1802 0653 04        	.byte0x4
 1803 0654 0000 00AB 	.long0xab
 1804 0658 0B        	.uleb128 0xb
 1805 0659 04        	.byte0x4
 1806 065a 0000 0521 	.long0x521
 1807 065e 15        	.uleb128 0x15
 1808 065f 0000 01B7 	.long0x1b7
 1809 0663 0000 067C 	.long0x67c
 1810 0667 16        	.uleb128 0x16
 1811 0668 0000 053F 	.long0x53f
 1812 066c 16        	.uleb128 0x16
 1813 066d 0000 00B7 	.long0xb7
 1814 0671 16        	.uleb128 0x16
 1815 0672 0000 0167 	.long0x167
 1816 0676 16        	.uleb128 0x16
 1817 0677 0000 00E1 	.long0xe1
 1818 067b 00        	.byte0
 1819 067c 0B        	.uleb128 0xb
 1820 067d 04        	.byte0x4
 1821 067e 0000 065E 	.long0x65e
 1822 0682 15        	.uleb128 0x15
 1823 0683 0000 00D6 	.long0xd6
 1824 0687 0000 06A0 	.long0x6a0
 1825 068b 16        	.uleb128 0x16
 1826 068c 0000 053F 	.long0x53f
 1827 0690 16        	.uleb128 0x16
 1828 0691 0000 00B7 	.long0xb7
 1829 0695 16        	.uleb128 0x16
 1830 0696 0000 00D6 	.long0xd6
68K GAS   			page 61


 1831 069a 16        	.uleb128 0x16
 1832 069b 0000 00E1 	.long0xe1
 1833 069f 00        	.byte0
 1834 06a0 0B        	.uleb128 0xb
 1835 06a1 04        	.byte0x4
 1836 06a2 0000 0682 	.long0x682
 1837 06a6 15        	.uleb128 0x15
 1838 06a7 0000 00E1 	.long0xe1
 1839 06ab 0000 06BA 	.long0x6ba
 1840 06af 16        	.uleb128 0x16
 1841 06b0 0000 053F 	.long0x53f
 1842 06b4 16        	.uleb128 0x16
 1843 06b5 0000 00B7 	.long0xb7
 1844 06b9 00        	.byte0
 1845 06ba 0B        	.uleb128 0xb
 1846 06bb 04        	.byte0x4
 1847 06bc 0000 06A6 	.long0x6a6
 1848 06c0 0E        	.uleb128 0xe
 1849 06c1 0000 0030 	.long0x30
 1850 06c5 0000 06D0 	.long0x6d0
 1851 06c9 0F        	.uleb128 0xf
 1852 06ca 0000 0091 	.long0x91
 1853 06ce 02        	.byte0x2
 1854 06cf 00        	.byte0
 1855 06d0 0E        	.uleb128 0xe
 1856 06d1 0000 0030 	.long0x30
 1857 06d5 0000 06E0 	.long0x6e0
 1858 06d9 0F        	.uleb128 0xf
 1859 06da 0000 0091 	.long0x91
 1860 06de 00        	.byte0
 1861 06df 00        	.byte0
 1862 06e0 04        	.uleb128 0x4
 1863 06e1 0000 0000 	.long.LASF109
 1864 06e5 08        	.byte0x8
 1865 06e6 011F      	.word0x11f
 1866 06e8 0000 03F7 	.long0x3f7
 1867 06ec 1A        	.uleb128 0x1a
 1868 06ed 0000 0000 	.long.LASF110
 1869 06f1 0C        	.byte0xc
 1870 06f2 08        	.byte0x8
 1871 06f3 0123      	.word0x123
 1872 06f5 0000 0721 	.long0x721
 1873 06f9 18        	.uleb128 0x18
 1874 06fa 0000 0000 	.long.LASF47
 1875 06fe 08        	.byte0x8
 1876 06ff 0125      	.word0x125
 1877 0701 0000 0721 	.long0x721
 1878 0705 00        	.byte0
 1879 0706 18        	.uleb128 0x18
 1880 0707 0000 0000 	.long.LASF111
 1881 070b 08        	.byte0x8
 1882 070c 0126      	.word0x126
 1883 070e 0000 00E1 	.long0xe1
 1884 0712 04        	.byte0x4
 1885 0713 18        	.uleb128 0x18
 1886 0714 0000 0000 	.long.LASF112
 1887 0718 08        	.byte0x8
68K GAS   			page 62


 1888 0719 0127      	.word0x127
 1889 071b 0000 0727 	.long0x727
 1890 071f 08        	.byte0x8
 1891 0720 00        	.byte0
 1892 0721 0B        	.uleb128 0xb
 1893 0722 04        	.byte0x4
 1894 0723 0000 06EC 	.long0x6ec
 1895 0727 0B        	.uleb128 0xb
 1896 0728 04        	.byte0x4
 1897 0729 0000 06E0 	.long0x6e0
 1898 072d 1A        	.uleb128 0x1a
 1899 072e 0000 0000 	.long.LASF113
 1900 0732 0E        	.byte0xe
 1901 0733 08        	.byte0x8
 1902 0734 013F      	.word0x13f
 1903 0736 0000 0762 	.long0x762
 1904 073a 18        	.uleb128 0x18
 1905 073b 0000 0000 	.long.LASF114
 1906 073f 08        	.byte0x8
 1907 0740 0140      	.word0x140
 1908 0742 0000 0762 	.long0x762
 1909 0746 00        	.byte0
 1910 0747 18        	.uleb128 0x18
 1911 0748 0000 0000 	.long.LASF115
 1912 074c 08        	.byte0x8
 1913 074d 0141      	.word0x141
 1914 074f 0000 0762 	.long0x762
 1915 0753 06        	.byte0x6
 1916 0754 18        	.uleb128 0x18
 1917 0755 0000 0000 	.long.LASF116
 1918 0759 08        	.byte0x8
 1919 075a 0142      	.word0x142
 1920 075c 0000 007F 	.long0x7f
 1921 0760 0C        	.byte0xc
 1922 0761 00        	.byte0
 1923 0762 0E        	.uleb128 0xe
 1924 0763 0000 007F 	.long0x7f
 1925 0767 0000 0772 	.long0x772
 1926 076b 0F        	.uleb128 0xf
 1927 076c 0000 0091 	.long0x91
 1928 0770 02        	.byte0x2
 1929 0771 00        	.byte0
 1930 0772 1B        	.uleb128 0x1b
 1931 0773 CC        	.byte0xcc
 1932 0774 08        	.byte0x8
 1933 0775 0259      	.word0x259
 1934 0777 0000 0873 	.long0x873
 1935 077b 18        	.uleb128 0x18
 1936 077c 0000 0000 	.long.LASF117
 1937 0780 08        	.byte0x8
 1938 0781 025B      	.word0x25b
 1939 0783 0000 010D 	.long0x10d
 1940 0787 00        	.byte0
 1941 0788 18        	.uleb128 0x18
 1942 0789 0000 0000 	.long.LASF118
 1943 078d 08        	.byte0x8
 1944 078e 025C      	.word0x25c
68K GAS   			page 63


 1945 0790 0000 0652 	.long0x652
 1946 0794 04        	.byte0x4
 1947 0795 18        	.uleb128 0x18
 1948 0796 0000 0000 	.long.LASF119
 1949 079a 08        	.byte0x8
 1950 079b 025D      	.word0x25d
 1951 079d 0000 0873 	.long0x873
 1952 07a1 08        	.byte0x8
 1953 07a2 18        	.uleb128 0x18
 1954 07a3 0000 0000 	.long.LASF120
 1955 07a7 08        	.byte0x8
 1956 07a8 025E      	.word0x25e
 1957 07aa 0000 02A8 	.long0x2a8
 1958 07ae 24        	.byte0x24
 1959 07af 18        	.uleb128 0x18
 1960 07b0 0000 0000 	.long.LASF121
 1961 07b4 08        	.byte0x8
 1962 07b5 025F      	.word0x25f
 1963 07b7 0000 00E1 	.long0xe1
 1964 07bb 48        	.byte0x48
 1965 07bc 18        	.uleb128 0x18
 1966 07bd 0000 0000 	.long.LASF122
 1967 07c1 08        	.byte0x8
 1968 07c2 0260      	.word0x260
 1969 07c4 0000 0098 	.long0x98
 1970 07c8 4C        	.byte0x4c
 1971 07c9 18        	.uleb128 0x18
 1972 07ca 0000 0000 	.long.LASF123
 1973 07ce 08        	.byte0x8
 1974 07cf 0261      	.word0x261
 1975 07d1 0000 072D 	.long0x72d
 1976 07d5 54        	.byte0x54
 1977 07d6 18        	.uleb128 0x18
 1978 07d7 0000 0000 	.long.LASF124
 1979 07db 08        	.byte0x8
 1980 07dc 0262      	.word0x262
 1981 07de 0000 021E 	.long0x21e
 1982 07e2 64        	.byte0x64
 1983 07e3 18        	.uleb128 0x18
 1984 07e4 0000 0000 	.long.LASF125
 1985 07e8 08        	.byte0x8
 1986 07e9 0263      	.word0x263
 1987 07eb 0000 021E 	.long0x21e
 1988 07ef 6C        	.byte0x6c
 1989 07f0 18        	.uleb128 0x18
 1990 07f1 0000 0000 	.long.LASF126
 1991 07f5 08        	.byte0x8
 1992 07f6 0264      	.word0x264
 1993 07f8 0000 021E 	.long0x21e
 1994 07fc 74        	.byte0x74
 1995 07fd 18        	.uleb128 0x18
 1996 07fe 0000 0000 	.long.LASF127
 1997 0802 08        	.byte0x8
 1998 0803 0265      	.word0x265
 1999 0805 0000 0883 	.long0x883
 2000 0809 7C        	.byte0x7c
 2001 080a 18        	.uleb128 0x18
68K GAS   			page 64


 2002 080b 0000 0000 	.long.LASF128
 2003 080f 08        	.byte0x8
 2004 0810 0266      	.word0x266
 2005 0812 0000 0893 	.long0x893
 2006 0816 84        	.byte0x84
 2007 0817 18        	.uleb128 0x18
 2008 0818 0000 0000 	.long.LASF129
 2009 081c 08        	.byte0x8
 2010 081d 0267      	.word0x267
 2011 081f 0000 00E1 	.long0xe1
 2012 0823 9C        	.byte0x9c
 2013 0824 18        	.uleb128 0x18
 2014 0825 0000 0000 	.long.LASF130
 2015 0829 08        	.byte0x8
 2016 082a 0268      	.word0x268
 2017 082c 0000 021E 	.long0x21e
 2018 0830 A0        	.byte0xa0
 2019 0831 18        	.uleb128 0x18
 2020 0832 0000 0000 	.long.LASF131
 2021 0836 08        	.byte0x8
 2022 0837 0269      	.word0x269
 2023 0839 0000 021E 	.long0x21e
 2024 083d A8        	.byte0xa8
 2025 083e 18        	.uleb128 0x18
 2026 083f 0000 0000 	.long.LASF132
 2027 0843 08        	.byte0x8
 2028 0844 026A      	.word0x26a
 2029 0846 0000 021E 	.long0x21e
 2030 084a B0        	.byte0xb0
 2031 084b 18        	.uleb128 0x18
 2032 084c 0000 0000 	.long.LASF133
 2033 0850 08        	.byte0x8
 2034 0851 026B      	.word0x26b
 2035 0853 0000 021E 	.long0x21e
 2036 0857 B8        	.byte0xb8
 2037 0858 18        	.uleb128 0x18
 2038 0859 0000 0000 	.long.LASF134
 2039 085d 08        	.byte0x8
 2040 085e 026C      	.word0x26c
 2041 0860 0000 021E 	.long0x21e
 2042 0864 C0        	.byte0xc0
 2043 0865 18        	.uleb128 0x18
 2044 0866 0000 0000 	.long.LASF135
 2045 086a 08        	.byte0x8
 2046 086b 026D      	.word0x26d
 2047 086d 0000 00E1 	.long0xe1
 2048 0871 C8        	.byte0xc8
 2049 0872 00        	.byte0
 2050 0873 0E        	.uleb128 0xe
 2051 0874 0000 00AB 	.long0xab
 2052 0878 0000 0883 	.long0x883
 2053 087c 0F        	.uleb128 0xf
 2054 087d 0000 0091 	.long0x91
 2055 0881 19        	.byte0x19
 2056 0882 00        	.byte0
 2057 0883 0E        	.uleb128 0xe
 2058 0884 0000 00AB 	.long0xab
68K GAS   			page 65


 2059 0888 0000 0893 	.long0x893
 2060 088c 0F        	.uleb128 0xf
 2061 088d 0000 0091 	.long0x91
 2062 0891 07        	.byte0x7
 2063 0892 00        	.byte0
 2064 0893 0E        	.uleb128 0xe
 2065 0894 0000 00AB 	.long0xab
 2066 0898 0000 08A3 	.long0x8a3
 2067 089c 0F        	.uleb128 0xf
 2068 089d 0000 0091 	.long0x91
 2069 08a1 17        	.byte0x17
 2070 08a2 00        	.byte0
 2071 08a3 1B        	.uleb128 0x1b
 2072 08a4 F0        	.byte0xf0
 2073 08a5 08        	.byte0x8
 2074 08a6 0272      	.word0x272
 2075 08a8 0000 08C7 	.long0x8c7
 2076 08ac 18        	.uleb128 0x18
 2077 08ad 0000 0000 	.long.LASF136
 2078 08b1 08        	.byte0x8
 2079 08b2 0275      	.word0x275
 2080 08b4 0000 08C7 	.long0x8c7
 2081 08b8 00        	.byte0
 2082 08b9 18        	.uleb128 0x18
 2083 08ba 0000 0000 	.long.LASF137
 2084 08be 08        	.byte0x8
 2085 08bf 0276      	.word0x276
 2086 08c1 0000 08D7 	.long0x8d7
 2087 08c5 78        	.byte0x78
 2088 08c6 00        	.byte0
 2089 08c7 0E        	.uleb128 0xe
 2090 08c8 0000 03F1 	.long0x3f1
 2091 08cc 0000 08D7 	.long0x8d7
 2092 08d0 0F        	.uleb128 0xf
 2093 08d1 0000 0091 	.long0x91
 2094 08d5 1D        	.byte0x1d
 2095 08d6 00        	.byte0
 2096 08d7 0E        	.uleb128 0xe
 2097 08d8 0000 010D 	.long0x10d
 2098 08dc 0000 08E7 	.long0x8e7
 2099 08e0 0F        	.uleb128 0xf
 2100 08e1 0000 0091 	.long0x91
 2101 08e5 1D        	.byte0x1d
 2102 08e6 00        	.byte0
 2103 08e7 1C        	.uleb128 0x1c
 2104 08e8 F0        	.byte0xf0
 2105 08e9 08        	.byte0x8
 2106 08ea 0257      	.word0x257
 2107 08ec 0000 0909 	.long0x909
 2108 08f0 1D        	.uleb128 0x1d
 2109 08f1 0000 0000 	.long.LASF89
 2110 08f5 08        	.byte0x8
 2111 08f6 026E      	.word0x26e
 2112 08f8 0000 0772 	.long0x772
 2113 08fc 1D        	.uleb128 0x1d
 2114 08fd 0000 0000 	.long.LASF138
 2115 0901 08        	.byte0x8
68K GAS   			page 66


 2116 0902 0277      	.word0x277
 2117 0904 0000 08A3 	.long0x8a3
 2118 0908 00        	.byte0
 2119 0909 0E        	.uleb128 0xe
 2120 090a 0000 00AB 	.long0xab
 2121 090e 0000 0919 	.long0x919
 2122 0912 0F        	.uleb128 0xf
 2123 0913 0000 0091 	.long0x91
 2124 0917 18        	.byte0x18
 2125 0918 00        	.byte0
 2126 0919 0A        	.uleb128 0xa
 2127 091a 0000 0000 	.long.LASF139
 2128 091e 0B        	.uleb128 0xb
 2129 091f 04        	.byte0x4
 2130 0920 0000 0919 	.long0x919
 2131 0924 1E        	.uleb128 0x1e
 2132 0925 0000 092F 	.long0x92f
 2133 0929 16        	.uleb128 0x16
 2134 092a 0000 053F 	.long0x53f
 2135 092e 00        	.byte0
 2136 092f 0B        	.uleb128 0xb
 2137 0930 04        	.byte0x4
 2138 0931 0000 0924 	.long0x924
 2139 0935 0B        	.uleb128 0xb
 2140 0936 04        	.byte0x4
 2141 0937 0000 0292 	.long0x292
 2142 093b 1E        	.uleb128 0x1e
 2143 093c 0000 0946 	.long0x946
 2144 0940 16        	.uleb128 0x16
 2145 0941 0000 00E1 	.long0xe1
 2146 0945 00        	.byte0
 2147 0946 0B        	.uleb128 0xb
 2148 0947 04        	.byte0x4
 2149 0948 0000 094C 	.long0x94c
 2150 094c 0B        	.uleb128 0xb
 2151 094d 04        	.byte0x4
 2152 094e 0000 093B 	.long0x93b
 2153 0952 0E        	.uleb128 0xe
 2154 0953 0000 06E0 	.long0x6e0
 2155 0957 0000 0962 	.long0x962
 2156 095b 0F        	.uleb128 0xf
 2157 095c 0000 0091 	.long0x91
 2158 0960 02        	.byte0x2
 2159 0961 00        	.byte0
 2160 0962 1F        	.uleb128 0x1f
 2161 0963 0000 0000 	.long.LASF140
 2162 0967 08        	.byte0x8
 2163 0968 028D      	.word0x28d
 2164 096a 0000 0952 	.long0x952
 2165 096e 1F        	.uleb128 0x1f
 2166 096f 0000 0000 	.long.LASF141
 2167 0973 08        	.byte0x8
 2168 0974 0307      	.word0x307
 2169 0976 0000 053F 	.long0x53f
 2170 097a 1F        	.uleb128 0x1f
 2171 097b 0000 0000 	.long.LASF142
 2172 097f 08        	.byte0x8
68K GAS   			page 67


 2173 0980 0308      	.word0x308
 2174 0982 0000 0545 	.long0x545
 2175 0986 1F        	.uleb128 0x1f
 2176 0987 0000 0000 	.long.LASF143
 2177 098b 08        	.byte0x8
 2178 098c 031A      	.word0x31a
 2179 098e 0000 03AF 	.long0x3af
 2180 0992 20        	.uleb128 0x20
 2181 0993 0000 0000 	.long.LASF144
 2182 0997 09        	.byte0x9
 2183 0998 63        	.byte0x63
 2184 0999 0000 0652 	.long0x652
 2185 099d 20        	.uleb128 0x20
 2186 099e 0000 0000 	.long.LASF145
 2187 09a2 0A        	.byte0xa
 2188 09a3 9A        	.byte0x9a
 2189 09a4 0000 005B 	.long0x5b
 2190 09a8 20        	.uleb128 0x20
 2191 09a9 0000 0000 	.long.LASF146
 2192 09ad 0A        	.byte0xa
 2193 09ae 9B        	.byte0x9b
 2194 09af 0000 00E1 	.long0xe1
 2195 09b3 0E        	.uleb128 0xe
 2196 09b4 0000 0652 	.long0x652
 2197 09b8 0000 09C3 	.long0x9c3
 2198 09bc 0F        	.uleb128 0xf
 2199 09bd 0000 0091 	.long0x91
 2200 09c1 01        	.byte0x1
 2201 09c2 00        	.byte0
 2202 09c3 20        	.uleb128 0x20
 2203 09c4 0000 0000 	.long.LASF147
 2204 09c8 0A        	.byte0xa
 2205 09c9 9E        	.byte0x9e
 2206 09ca 0000 09B3 	.long0x9b3
 2207 09ce 0B        	.uleb128 0xb
 2208 09cf 04        	.byte0x4
 2209 09d0 0000 09D4 	.long0x9d4
 2210 09d4 21        	.uleb128 0x21
 2211 09d5 0000 0050 	.long0x50
 2212 09d9 10        	.uleb128 0x10
 2213 09da 08        	.byte0x8
 2214 09db 0B        	.byte0xb
 2215 09dc 4D        	.byte0x4d
 2216 09dd 0000 09FA 	.long0x9fa
 2217 09e1 09        	.uleb128 0x9
 2218 09e2 0000 0000 	.long.LASF148
 2219 09e6 0B        	.byte0xb
 2220 09e7 4F        	.byte0x4f
 2221 09e8 0000 0086 	.long0x86
 2222 09ec 00        	.byte0
 2223 09ed 09        	.uleb128 0x9
 2224 09ee 0000 0000 	.long.LASF149
 2225 09f2 0B        	.byte0xb
 2226 09f3 50        	.byte0x50
 2227 09f4 0000 0086 	.long0x86
 2228 09f8 04        	.byte0x4
 2229 09f9 00        	.byte0
68K GAS   			page 68


 2230 09fa 02        	.uleb128 0x2
 2231 09fb 0000 0000 	.long.LASF150
 2232 09ff 0B        	.byte0xb
 2233 0a00 51        	.byte0x51
 2234 0a01 0000 09D9 	.long0x9d9
 2235 0a05 22        	.uleb128 0x22
 2236 0a06 05        	.byte0x5
 2237 0a07 04        	.byte0x4
 2238 0a08 0000 00E1 	.long0xe1
 2239 0a0c 0B        	.byte0xb
 2240 0a0d 81        	.byte0x81
 2241 0a0e 0000 0A25 	.long0xa25
 2242 0a12 23        	.uleb128 0x23
 2243 0a13 0000 0000 	.long.LASF151
 2244 0a17 7F        	.sleb128 -1
 2245 0a18 24        	.uleb128 0x24
 2246 0a19 0000 0000 	.long.LASF152
 2247 0a1d 00        	.byte0
 2248 0a1e 24        	.uleb128 0x24
 2249 0a1f 0000 0000 	.long.LASF153
 2250 0a23 01        	.byte0x1
 2251 0a24 00        	.byte0
 2252 0a25 02        	.uleb128 0x2
 2253 0a26 0000 0000 	.long.LASF154
 2254 0a2a 0B        	.byte0xb
 2255 0a2b 85        	.byte0x85
 2256 0a2c 0000 0A05 	.long0xa05
 2257 0a30 02        	.uleb128 0x2
 2258 0a31 0000 0000 	.long.LASF155
 2259 0a35 0B        	.byte0xb
 2260 0a36 A5        	.byte0xa5
 2261 0a37 0000 09CE 	.long0x9ce
 2262 0a3b 10        	.uleb128 0x10
 2263 0a3c 06        	.byte0x6
 2264 0a3d 0C        	.byte0xc
 2265 0a3e 58        	.byte0x58
 2266 0a3f 0000 0A68 	.long0xa68
 2267 0a43 09        	.uleb128 0x9
 2268 0a44 0000 0000 	.long.LASF156
 2269 0a48 0C        	.byte0xc
 2270 0a49 5A        	.byte0x5a
 2271 0a4a 0000 0A68 	.long0xa68
 2272 0a4e 00        	.byte0
 2273 0a4f 09        	.uleb128 0x9
 2274 0a50 0000 0000 	.long.LASF157
 2275 0a54 0C        	.byte0xc
 2276 0a55 61        	.byte0x61
 2277 0a56 0000 0A68 	.long0xa68
 2278 0a5a 02        	.byte0x2
 2279 0a5b 09        	.uleb128 0x9
 2280 0a5c 0000 0000 	.long.LASF158
 2281 0a60 0C        	.byte0xc
 2282 0a61 66        	.byte0x66
 2283 0a62 0000 0A68 	.long0xa68
 2284 0a66 04        	.byte0x4
 2285 0a67 00        	.byte0
 2286 0a68 0E        	.uleb128 0xe
68K GAS   			page 69


 2287 0a69 0000 0069 	.long0x69
 2288 0a6d 0000 0A78 	.long0xa78
 2289 0a71 0F        	.uleb128 0xf
 2290 0a72 0000 0091 	.long0x91
 2291 0a76 01        	.byte0x1
 2292 0a77 00        	.byte0
 2293 0a78 02        	.uleb128 0x2
 2294 0a79 0000 0000 	.long.LASF159
 2295 0a7d 0C        	.byte0xc
 2296 0a7e 6A        	.byte0x6a
 2297 0a7f 0000 0A3B 	.long0xa3b
 2298 0a83 0E        	.uleb128 0xe
 2299 0a84 0000 0069 	.long0x69
 2300 0a88 0000 0A93 	.long0xa93
 2301 0a8c 0F        	.uleb128 0xf
 2302 0a8d 0000 0091 	.long0x91
 2303 0a91 05        	.byte0x5
 2304 0a92 00        	.byte0
 2305 0a93 0C        	.uleb128 0xc
 2306 0a94 08        	.byte0x8
 2307 0a95 0D        	.byte0xd
 2308 0a96 75        	.byte0x75
 2309 0a97 0000 0ABD 	.long0xabd
 2310 0a9b 25        	.uleb128 0x25
 2311 0a9c 4864 7200 	.string"Hdr"
 2312 0aa0 0D        	.byte0xd
 2313 0aa1 76        	.byte0x76
 2314 0aa2 0000 0A78 	.long0xa78
 2315 0aa6 0D        	.uleb128 0xd
 2316 0aa7 0000 0000 	.long.LASF160
 2317 0aab 0D        	.byte0xd
 2318 0aac 77        	.byte0x77
 2319 0aad 0000 0086 	.long0x86
 2320 0ab1 0D        	.uleb128 0xd
 2321 0ab2 0000 0000 	.long.LASF161
 2322 0ab6 0D        	.byte0xd
 2323 0ab7 78        	.byte0x78
 2324 0ab8 0000 0A83 	.long0xa83
 2325 0abc 00        	.byte0
 2326 0abd 02        	.uleb128 0x2
 2327 0abe 0000 0000 	.long.LASF162
 2328 0ac2 0D        	.byte0xd
 2329 0ac3 79        	.byte0x79
 2330 0ac4 0000 0A93 	.long0xa93
 2331 0ac8 02        	.uleb128 0x2
 2332 0ac9 0000 0000 	.long.LASF163
 2333 0acd 0D        	.byte0xd
 2334 0ace 98        	.byte0x98
 2335 0acf 0000 0069 	.long0x69
 2336 0ad3 02        	.uleb128 0x2
 2337 0ad4 0000 0000 	.long.LASF164
 2338 0ad8 0D        	.byte0xd
 2339 0ad9 A1        	.byte0xa1
 2340 0ada 0000 0ADE 	.long0xade
 2341 0ade 0B        	.uleb128 0xb
 2342 0adf 04        	.byte0x4
 2343 0ae0 0000 0ABD 	.long0xabd
68K GAS   			page 70


 2344 0ae4 10        	.uleb128 0x10
 2345 0ae5 02        	.byte0x2
 2346 0ae6 0D        	.byte0xd
 2347 0ae7 B1        	.byte0xb1
 2348 0ae8 0000 0B05 	.long0xb05
 2349 0aec 09        	.uleb128 0x9
 2350 0aed 0000 0000 	.long.LASF165
 2351 0af1 0D        	.byte0xd
 2352 0af2 B2        	.byte0xb2
 2353 0af3 0000 0069 	.long0x69
 2354 0af7 00        	.byte0
 2355 0af8 09        	.uleb128 0x9
 2356 0af9 0000 0000 	.long.LASF166
 2357 0afd 0D        	.byte0xd
 2358 0afe B3        	.byte0xb3
 2359 0aff 0000 0069 	.long0x69
 2360 0b03 01        	.byte0x1
 2361 0b04 00        	.byte0
 2362 0b05 02        	.uleb128 0x2
 2363 0b06 0000 0000 	.long.LASF167
 2364 0b0a 0D        	.byte0xd
 2365 0b0b B4        	.byte0xb4
 2366 0b0c 0000 0AE4 	.long0xae4
 2367 0b10 20        	.uleb128 0x20
 2368 0b11 0000 0000 	.long.LASF168
 2369 0b15 0D        	.byte0xd
 2370 0b16 B6        	.byte0xb6
 2371 0b17 0000 0B05 	.long0xb05
 2372 0b1b 0E        	.uleb128 0xe
 2373 0b1c 0000 0069 	.long0x69
 2374 0b20 0000 0B2B 	.long0xb2b
 2375 0b24 0F        	.uleb128 0xf
 2376 0b25 0000 0091 	.long0x91
 2377 0b29 07        	.byte0x7
 2378 0b2a 00        	.byte0
 2379 0b2b 0E        	.uleb128 0xe
 2380 0b2c 0000 0069 	.long0x69
 2381 0b30 0000 0B3B 	.long0xb3b
 2382 0b34 0F        	.uleb128 0xf
 2383 0b35 0000 0091 	.long0x91
 2384 0b39 0B        	.byte0xb
 2385 0b3a 00        	.byte0
 2386 0b3b 1B        	.uleb128 0x1b
 2387 0b3c 08        	.byte0x8
 2388 0b3d 0E        	.byte0xe
 2389 0b3e 038B      	.word0x38b
 2390 0b40 0000 0B52 	.long0xb52
 2391 0b44 18        	.uleb128 0x18
 2392 0b45 0000 0000 	.long.LASF169
 2393 0b49 0E        	.byte0xe
 2394 0b4a 038D      	.word0x38d
 2395 0b4c 0000 0B1B 	.long0xb1b
 2396 0b50 00        	.byte0
 2397 0b51 00        	.byte0
 2398 0b52 04        	.uleb128 0x4
 2399 0b53 0000 0000 	.long.LASF170
 2400 0b57 0E        	.byte0xe
68K GAS   			page 71


 2401 0b58 038F      	.word0x38f
 2402 0b5a 0000 0B3B 	.long0xb3b
 2403 0b5e 1B        	.uleb128 0x1b
 2404 0b5f 08        	.byte0x8
 2405 0b60 0E        	.byte0xe
 2406 0b61 0395      	.word0x395
 2407 0b63 0000 0B75 	.long0xb75
 2408 0b67 18        	.uleb128 0x18
 2409 0b68 0000 0000 	.long.LASF169
 2410 0b6c 0E        	.byte0xe
 2411 0b6d 0397      	.word0x397
 2412 0b6f 0000 0B1B 	.long0xb1b
 2413 0b73 00        	.byte0
 2414 0b74 00        	.byte0
 2415 0b75 04        	.uleb128 0x4
 2416 0b76 0000 0000 	.long.LASF171
 2417 0b7a 0E        	.byte0xe
 2418 0b7b 0399      	.word0x399
 2419 0b7d 0000 0B5E 	.long0xb5e
 2420 0b81 1B        	.uleb128 0x1b
 2421 0b82 08        	.byte0x8
 2422 0b83 0E        	.byte0xe
 2423 0b84 039F      	.word0x39f
 2424 0b86 0000 0B98 	.long0xb98
 2425 0b8a 18        	.uleb128 0x18
 2426 0b8b 0000 0000 	.long.LASF169
 2427 0b8f 0E        	.byte0xe
 2428 0b90 03A1      	.word0x3a1
 2429 0b92 0000 0B1B 	.long0xb1b
 2430 0b96 00        	.byte0
 2431 0b97 00        	.byte0
 2432 0b98 04        	.uleb128 0x4
 2433 0b99 0000 0000 	.long.LASF172
 2434 0b9d 0E        	.byte0xe
 2435 0b9e 03A3      	.word0x3a3
 2436 0ba0 0000 0B81 	.long0xb81
 2437 0ba4 1B        	.uleb128 0x1b
 2438 0ba5 14        	.byte0x14
 2439 0ba6 0E        	.byte0xe
 2440 0ba7 03A9      	.word0x3a9
 2441 0ba9 0000 0BE2 	.long0xbe2
 2442 0bad 18        	.uleb128 0x18
 2443 0bae 0000 0000 	.long.LASF173
 2444 0bb2 0E        	.byte0xe
 2445 0bb3 03AB      	.word0x3ab
 2446 0bb5 0000 09FA 	.long0x9fa
 2447 0bb9 00        	.byte0
 2448 0bba 18        	.uleb128 0x18
 2449 0bbb 0000 0000 	.long.LASF174
 2450 0bbf 0E        	.byte0xe
 2451 0bc0 03AC      	.word0x3ac
 2452 0bc2 0000 09FA 	.long0x9fa
 2453 0bc6 08        	.byte0x8
 2454 0bc7 18        	.uleb128 0x18
 2455 0bc8 0000 0000 	.long.LASF175
 2456 0bcc 0E        	.byte0xe
 2457 0bcd 03AD      	.word0x3ad
68K GAS   			page 72


 2458 0bcf 0000 003E 	.long0x3e
 2459 0bd3 10        	.byte0x10
 2460 0bd4 18        	.uleb128 0x18
 2461 0bd5 0000 0000 	.long.LASF176
 2462 0bd9 0E        	.byte0xe
 2463 0bda 03AE      	.word0x3ae
 2464 0bdc 0000 003E 	.long0x3e
 2465 0be0 12        	.byte0x12
 2466 0be1 00        	.byte0
 2467 0be2 04        	.uleb128 0x4
 2468 0be3 0000 0000 	.long.LASF177
 2469 0be7 0E        	.byte0xe
 2470 0be8 03AF      	.word0x3af
 2471 0bea 0000 0BA4 	.long0xba4
 2472 0bee 1B        	.uleb128 0x1b
 2473 0bef 1C        	.byte0x1c
 2474 0bf0 0E        	.byte0xe
 2475 0bf1 03B1      	.word0x3b1
 2476 0bf3 0000 0C12 	.long0xc12
 2477 0bf7 18        	.uleb128 0x18
 2478 0bf8 0000 0000 	.long.LASF169
 2479 0bfc 0E        	.byte0xe
 2480 0bfd 03B3      	.word0x3b3
 2481 0bff 0000 0B1B 	.long0xb1b
 2482 0c03 00        	.byte0
 2483 0c04 18        	.uleb128 0x18
 2484 0c05 0000 0000 	.long.LASF178
 2485 0c09 0E        	.byte0xe
 2486 0c0a 03B4      	.word0x3b4
 2487 0c0c 0000 0BE2 	.long0xbe2
 2488 0c10 08        	.byte0x8
 2489 0c11 00        	.byte0
 2490 0c12 04        	.uleb128 0x4
 2491 0c13 0000 0000 	.long.LASF179
 2492 0c17 0E        	.byte0xe
 2493 0c18 03B5      	.word0x3b5
 2494 0c1a 0000 0BEE 	.long0xbee
 2495 0c1e 1B        	.uleb128 0x1b
 2496 0c1f 20        	.byte0x20
 2497 0c20 0E        	.byte0xe
 2498 0c21 03BD      	.word0x3bd
 2499 0c23 0000 0CB7 	.long0xcb7
 2500 0c27 18        	.uleb128 0x18
 2501 0c28 0000 0000 	.long.LASF180
 2502 0c2c 0E        	.byte0xe
 2503 0c2d 03C2      	.word0x3c2
 2504 0c2f 0000 0069 	.long0x69
 2505 0c33 00        	.byte0
 2506 0c34 18        	.uleb128 0x18
 2507 0c35 0000 0000 	.long.LASF181
 2508 0c39 0E        	.byte0xe
 2509 0c3a 03C4      	.word0x3c4
 2510 0c3c 0000 0069 	.long0x69
 2511 0c40 01        	.byte0x1
 2512 0c41 18        	.uleb128 0x18
 2513 0c42 0000 0000 	.long.LASF182
 2514 0c46 0E        	.byte0xe
68K GAS   			page 73


 2515 0c47 03CA      	.word0x3ca
 2516 0c49 0000 0074 	.long0x74
 2517 0c4d 02        	.byte0x2
 2518 0c4e 18        	.uleb128 0x18
 2519 0c4f 0000 0000 	.long.LASF183
 2520 0c53 0E        	.byte0xe
 2521 0c54 03CC      	.word0x3cc
 2522 0c56 0000 003E 	.long0x3e
 2523 0c5a 04        	.byte0x4
 2524 0c5b 18        	.uleb128 0x18
 2525 0c5c 0000 0000 	.long.LASF184
 2526 0c60 0E        	.byte0xe
 2527 0c61 03D2      	.word0x3d2
 2528 0c63 0000 003E 	.long0x3e
 2529 0c67 06        	.byte0x6
 2530 0c68 18        	.uleb128 0x18
 2531 0c69 0000 0000 	.long.LASF185
 2532 0c6d 0E        	.byte0xe
 2533 0c6e 03D8      	.word0x3d8
 2534 0c70 0000 0086 	.long0x86
 2535 0c74 08        	.byte0x8
 2536 0c75 18        	.uleb128 0x18
 2537 0c76 0000 0000 	.long.LASF186
 2538 0c7a 0E        	.byte0xe
 2539 0c7b 03DA      	.word0x3da
 2540 0c7d 0000 0086 	.long0x86
 2541 0c81 0C        	.byte0xc
 2542 0c82 18        	.uleb128 0x18
 2543 0c83 0000 0000 	.long.LASF187
 2544 0c87 0E        	.byte0xe
 2545 0c88 03DD      	.word0x3dd
 2546 0c8a 0000 0086 	.long0x86
 2547 0c8e 10        	.byte0x10
 2548 0c8f 18        	.uleb128 0x18
 2549 0c90 0000 0000 	.long.LASF188
 2550 0c94 0E        	.byte0xe
 2551 0c95 03DF      	.word0x3df
 2552 0c97 0000 0086 	.long0x86
 2553 0c9b 14        	.byte0x14
 2554 0c9c 18        	.uleb128 0x18
 2555 0c9d 0000 0000 	.long.LASF189
 2556 0ca1 0E        	.byte0xe
 2557 0ca2 03E6      	.word0x3e6
 2558 0ca4 0000 0086 	.long0x86
 2559 0ca8 18        	.byte0x18
 2560 0ca9 18        	.uleb128 0x18
 2561 0caa 0000 0000 	.long.LASF190
 2562 0cae 0E        	.byte0xe
 2563 0caf 03E8      	.word0x3e8
 2564 0cb1 0000 0086 	.long0x86
 2565 0cb5 1C        	.byte0x1c
 2566 0cb6 00        	.byte0
 2567 0cb7 04        	.uleb128 0x4
 2568 0cb8 0000 0000 	.long.LASF191
 2569 0cbc 0E        	.byte0xe
 2570 0cbd 03F6      	.word0x3f6
 2571 0cbf 0000 0C1E 	.long0xc1e
68K GAS   			page 74


 2572 0cc3 1B        	.uleb128 0x1b
 2573 0cc4 2C        	.byte0x2c
 2574 0cc5 0E        	.byte0xe
 2575 0cc6 03F8      	.word0x3f8
 2576 0cc8 0000 0CE7 	.long0xce7
 2577 0ccc 18        	.uleb128 0x18
 2578 0ccd 0000 0000 	.long.LASF192
 2579 0cd1 0E        	.byte0xe
 2580 0cd2 03FA      	.word0x3fa
 2581 0cd4 0000 0B2B 	.long0xb2b
 2582 0cd8 00        	.byte0
 2583 0cd9 18        	.uleb128 0x18
 2584 0cda 0000 0000 	.long.LASF178
 2585 0cde 0E        	.byte0xe
 2586 0cdf 03FB      	.word0x3fb
 2587 0ce1 0000 0CB7 	.long0xcb7
 2588 0ce5 0C        	.byte0xc
 2589 0ce6 00        	.byte0
 2590 0ce7 04        	.uleb128 0x4
 2591 0ce8 0000 0000 	.long.LASF193
 2592 0cec 0E        	.byte0xe
 2593 0ced 03FC      	.word0x3fc
 2594 0cef 0000 0CC3 	.long0xcc3
 2595 0cf3 1B        	.uleb128 0x1b
 2596 0cf4 C8        	.byte0xc8
 2597 0cf5 0E        	.byte0xe
 2598 0cf6 0404      	.word0x404
 2599 0cf8 0000 0F1F 	.long0xf1f
 2600 0cfc 18        	.uleb128 0x18
 2601 0cfd 0000 0000 	.long.LASF173
 2602 0d01 0E        	.byte0xe
 2603 0d02 0409      	.word0x409
 2604 0d04 0000 09FA 	.long0x9fa
 2605 0d08 00        	.byte0
 2606 0d09 18        	.uleb128 0x18
 2607 0d0a 0000 0000 	.long.LASF174
 2608 0d0e 0E        	.byte0xe
 2609 0d0f 040B      	.word0x40b
 2610 0d11 0000 09FA 	.long0x9fa
 2611 0d15 08        	.byte0x8
 2612 0d16 18        	.uleb128 0x18
 2613 0d17 0000 0000 	.long.LASF194
 2614 0d1b 0E        	.byte0xe
 2615 0d1c 040D      	.word0x40d
 2616 0d1e 0000 09FA 	.long0x9fa
 2617 0d22 10        	.byte0x10
 2618 0d23 18        	.uleb128 0x18
 2619 0d24 0000 0000 	.long.LASF195
 2620 0d28 0E        	.byte0xe
 2621 0d29 040F      	.word0x40f
 2622 0d2b 0000 09FA 	.long0x9fa
 2623 0d2f 18        	.byte0x18
 2624 0d30 18        	.uleb128 0x18
 2625 0d31 0000 0000 	.long.LASF175
 2626 0d35 0E        	.byte0xe
 2627 0d36 0412      	.word0x412
 2628 0d38 0000 003E 	.long0x3e
68K GAS   			page 75


 2629 0d3c 20        	.byte0x20
 2630 0d3d 18        	.uleb128 0x18
 2631 0d3e 0000 0000 	.long.LASF183
 2632 0d42 0E        	.byte0xe
 2633 0d43 0414      	.word0x414
 2634 0d45 0000 003E 	.long0x3e
 2635 0d49 22        	.byte0x22
 2636 0d4a 18        	.uleb128 0x18
 2637 0d4b 0000 0000 	.long.LASF196
 2638 0d4f 0E        	.byte0xe
 2639 0d50 041A      	.word0x41a
 2640 0d52 0000 09FA 	.long0x9fa
 2641 0d56 24        	.byte0x24
 2642 0d57 18        	.uleb128 0x18
 2643 0d58 0000 0000 	.long.LASF197
 2644 0d5c 0E        	.byte0xe
 2645 0d5d 041C      	.word0x41c
 2646 0d5f 0000 09FA 	.long0x9fa
 2647 0d63 2C        	.byte0x2c
 2648 0d64 18        	.uleb128 0x18
 2649 0d65 0000 0000 	.long.LASF198
 2650 0d69 0E        	.byte0xe
 2651 0d6a 041E      	.word0x41e
 2652 0d6c 0000 09FA 	.long0x9fa
 2653 0d70 34        	.byte0x34
 2654 0d71 18        	.uleb128 0x18
 2655 0d72 0000 0000 	.long.LASF199
 2656 0d76 0E        	.byte0xe
 2657 0d77 0420      	.word0x420
 2658 0d79 0000 09FA 	.long0x9fa
 2659 0d7d 3C        	.byte0x3c
 2660 0d7e 18        	.uleb128 0x18
 2661 0d7f 0000 0000 	.long.LASF200
 2662 0d83 0E        	.byte0xe
 2663 0d84 0422      	.word0x422
 2664 0d86 0000 09FA 	.long0x9fa
 2665 0d8a 44        	.byte0x44
 2666 0d8b 18        	.uleb128 0x18
 2667 0d8c 0000 0000 	.long.LASF201
 2668 0d90 0E        	.byte0xe
 2669 0d91 0428      	.word0x428
 2670 0d93 0000 003E 	.long0x3e
 2671 0d97 4C        	.byte0x4c
 2672 0d98 18        	.uleb128 0x18
 2673 0d99 0000 0000 	.long.LASF202
 2674 0d9d 0E        	.byte0xe
 2675 0d9e 042A      	.word0x42a
 2676 0da0 0000 003E 	.long0x3e
 2677 0da4 4E        	.byte0x4e
 2678 0da5 18        	.uleb128 0x18
 2679 0da6 0000 0000 	.long.LASF203
 2680 0daa 0E        	.byte0xe
 2681 0dab 042C      	.word0x42c
 2682 0dad 0000 003E 	.long0x3e
 2683 0db1 50        	.byte0x50
 2684 0db2 18        	.uleb128 0x18
 2685 0db3 0000 0000 	.long.LASF204
68K GAS   			page 76


 2686 0db7 0E        	.byte0xe
 2687 0db8 042E      	.word0x42e
 2688 0dba 0000 003E 	.long0x3e
 2689 0dbe 52        	.byte0x52
 2690 0dbf 18        	.uleb128 0x18
 2691 0dc0 0000 0000 	.long.LASF205
 2692 0dc4 0E        	.byte0xe
 2693 0dc5 0430      	.word0x430
 2694 0dc7 0000 003E 	.long0x3e
 2695 0dcb 54        	.byte0x54
 2696 0dcc 18        	.uleb128 0x18
 2697 0dcd 0000 0000 	.long.LASF206
 2698 0dd1 0E        	.byte0xe
 2699 0dd2 0432      	.word0x432
 2700 0dd4 0000 003E 	.long0x3e
 2701 0dd8 56        	.byte0x56
 2702 0dd9 18        	.uleb128 0x18
 2703 0dda 0000 0000 	.long.LASF182
 2704 0dde 0E        	.byte0xe
 2705 0ddf 0438      	.word0x438
 2706 0de1 0000 0074 	.long0x74
 2707 0de5 58        	.byte0x58
 2708 0de6 18        	.uleb128 0x18
 2709 0de7 0000 0000 	.long.LASF207
 2710 0deb 0E        	.byte0xe
 2711 0dec 043E      	.word0x43e
 2712 0dee 0000 003E 	.long0x3e
 2713 0df2 5A        	.byte0x5a
 2714 0df3 18        	.uleb128 0x18
 2715 0df4 0000 0000 	.long.LASF208
 2716 0df8 0E        	.byte0xe
 2717 0df9 0440      	.word0x440
 2718 0dfb 0000 003E 	.long0x3e
 2719 0dff 5C        	.byte0x5c
 2720 0e00 18        	.uleb128 0x18
 2721 0e01 0000 0000 	.long.LASF209
 2722 0e05 0E        	.byte0xe
 2723 0e06 0442      	.word0x442
 2724 0e08 0000 003E 	.long0x3e
 2725 0e0c 5E        	.byte0x5e
 2726 0e0d 18        	.uleb128 0x18
 2727 0e0e 0000 0000 	.long.LASF210
 2728 0e12 0E        	.byte0xe
 2729 0e13 0448      	.word0x448
 2730 0e15 0000 09FA 	.long0x9fa
 2731 0e19 60        	.byte0x60
 2732 0e1a 18        	.uleb128 0x18
 2733 0e1b 0000 0000 	.long.LASF211
 2734 0e1f 0E        	.byte0xe
 2735 0e20 044A      	.word0x44a
 2736 0e22 0000 09FA 	.long0x9fa
 2737 0e26 68        	.byte0x68
 2738 0e27 18        	.uleb128 0x18
 2739 0e28 0000 0000 	.long.LASF212
 2740 0e2c 0E        	.byte0xe
 2741 0e2d 0450      	.word0x450
 2742 0e2f 0000 09FA 	.long0x9fa
68K GAS   			page 77


 2743 0e33 70        	.byte0x70
 2744 0e34 18        	.uleb128 0x18
 2745 0e35 0000 0000 	.long.LASF213
 2746 0e39 0E        	.byte0xe
 2747 0e3a 0452      	.word0x452
 2748 0e3c 0000 09FA 	.long0x9fa
 2749 0e40 78        	.byte0x78
 2750 0e41 18        	.uleb128 0x18
 2751 0e42 0000 0000 	.long.LASF214
 2752 0e46 0E        	.byte0xe
 2753 0e47 0458      	.word0x458
 2754 0e49 0000 0086 	.long0x86
 2755 0e4d 80        	.byte0x80
 2756 0e4e 18        	.uleb128 0x18
 2757 0e4f 0000 0000 	.long.LASF215
 2758 0e53 0E        	.byte0xe
 2759 0e54 045A      	.word0x45a
 2760 0e56 0000 0086 	.long0x86
 2761 0e5a 84        	.byte0x84
 2762 0e5b 18        	.uleb128 0x18
 2763 0e5c 0000 0000 	.long.LASF216
 2764 0e60 0E        	.byte0xe
 2765 0e61 045C      	.word0x45c
 2766 0e63 0000 0086 	.long0x86
 2767 0e67 88        	.byte0x88
 2768 0e68 18        	.uleb128 0x18
 2769 0e69 0000 0000 	.long.LASF217
 2770 0e6d 0E        	.byte0xe
 2771 0e6e 045E      	.word0x45e
 2772 0e70 0000 0086 	.long0x86
 2773 0e74 8C        	.byte0x8c
 2774 0e75 18        	.uleb128 0x18
 2775 0e76 0000 0000 	.long.LASF218
 2776 0e7a 0E        	.byte0xe
 2777 0e7b 0460      	.word0x460
 2778 0e7d 0000 0086 	.long0x86
 2779 0e81 90        	.byte0x90
 2780 0e82 18        	.uleb128 0x18
 2781 0e83 0000 0000 	.long.LASF219
 2782 0e87 0E        	.byte0xe
 2783 0e88 0462      	.word0x462
 2784 0e8a 0000 0086 	.long0x86
 2785 0e8e 94        	.byte0x94
 2786 0e8f 18        	.uleb128 0x18
 2787 0e90 0000 0000 	.long.LASF220
 2788 0e94 0E        	.byte0xe
 2789 0e95 0464      	.word0x464
 2790 0e97 0000 0086 	.long0x86
 2791 0e9b 98        	.byte0x98
 2792 0e9c 18        	.uleb128 0x18
 2793 0e9d 0000 0000 	.long.LASF221
 2794 0ea1 0E        	.byte0xe
 2795 0ea2 0466      	.word0x466
 2796 0ea4 0000 0086 	.long0x86
 2797 0ea8 9C        	.byte0x9c
 2798 0ea9 18        	.uleb128 0x18
 2799 0eaa 0000 0000 	.long.LASF222
68K GAS   			page 78


 2800 0eae 0E        	.byte0xe
 2801 0eaf 0468      	.word0x468
 2802 0eb1 0000 0086 	.long0x86
 2803 0eb5 A0        	.byte0xa0
 2804 0eb6 18        	.uleb128 0x18
 2805 0eb7 0000 0000 	.long.LASF223
 2806 0ebb 0E        	.byte0xe
 2807 0ebc 046A      	.word0x46a
 2808 0ebe 0000 0086 	.long0x86
 2809 0ec2 A4        	.byte0xa4
 2810 0ec3 18        	.uleb128 0x18
 2811 0ec4 0000 0000 	.long.LASF224
 2812 0ec8 0E        	.byte0xe
 2813 0ec9 0470      	.word0x470
 2814 0ecb 0000 0086 	.long0x86
 2815 0ecf A8        	.byte0xa8
 2816 0ed0 18        	.uleb128 0x18
 2817 0ed1 0000 0000 	.long.LASF225
 2818 0ed5 0E        	.byte0xe
 2819 0ed6 047C      	.word0x47c
 2820 0ed8 0000 0086 	.long0x86
 2821 0edc AC        	.byte0xac
 2822 0edd 18        	.uleb128 0x18
 2823 0ede 0000 0000 	.long.LASF226
 2824 0ee2 0E        	.byte0xe
 2825 0ee3 047E      	.word0x47e
 2826 0ee5 0000 0086 	.long0x86
 2827 0ee9 B0        	.byte0xb0
 2828 0eea 18        	.uleb128 0x18
 2829 0eeb 0000 0000 	.long.LASF227
 2830 0eef 0E        	.byte0xe
 2831 0ef0 0484      	.word0x484
 2832 0ef2 0000 09FA 	.long0x9fa
 2833 0ef6 B4        	.byte0xb4
 2834 0ef7 18        	.uleb128 0x18
 2835 0ef8 0000 0000 	.long.LASF228
 2836 0efc 0E        	.byte0xe
 2837 0efd 048A      	.word0x48a
 2838 0eff 0000 0086 	.long0x86
 2839 0f03 BC        	.byte0xbc
 2840 0f04 18        	.uleb128 0x18
 2841 0f05 0000 0000 	.long.LASF229
 2842 0f09 0E        	.byte0xe
 2843 0f0a 048C      	.word0x48c
 2844 0f0c 0000 0086 	.long0x86
 2845 0f10 C0        	.byte0xc0
 2846 0f11 18        	.uleb128 0x18
 2847 0f12 0000 0000 	.long.LASF230
 2848 0f16 0E        	.byte0xe
 2849 0f17 0492      	.word0x492
 2850 0f19 0000 0086 	.long0x86
 2851 0f1d C4        	.byte0xc4
 2852 0f1e 00        	.byte0
 2853 0f1f 04        	.uleb128 0x4
 2854 0f20 0000 0000 	.long.LASF231
 2855 0f24 0E        	.byte0xe
 2856 0f25 0494      	.word0x494
68K GAS   			page 79


 2857 0f27 0000 0CF3 	.long0xcf3
 2858 0f2b 1B        	.uleb128 0x1b
 2859 0f2c D4        	.byte0xd4
 2860 0f2d 0E        	.byte0xe
 2861 0f2e 0496      	.word0x496
 2862 0f30 0000 0F4F 	.long0xf4f
 2863 0f34 18        	.uleb128 0x18
 2864 0f35 0000 0000 	.long.LASF192
 2865 0f39 0E        	.byte0xe
 2866 0f3a 0498      	.word0x498
 2867 0f3c 0000 0B2B 	.long0xb2b
 2868 0f40 00        	.byte0
 2869 0f41 18        	.uleb128 0x18
 2870 0f42 0000 0000 	.long.LASF178
 2871 0f46 0E        	.byte0xe
 2872 0f47 0499      	.word0x499
 2873 0f49 0000 0F1F 	.long0xf1f
 2874 0f4d 0C        	.byte0xc
 2875 0f4e 00        	.byte0
 2876 0f4f 04        	.uleb128 0x4
 2877 0f50 0000 0000 	.long.LASF232
 2878 0f54 0E        	.byte0xe
 2879 0f55 049A      	.word0x49a
 2880 0f57 0000 0F2B 	.long0xf2b
 2881 0f5b 10        	.uleb128 0x10
 2882 0f5c 40        	.byte0x40
 2883 0f5d 0F        	.byte0xf
 2884 0f5e 7D        	.byte0x7d
 2885 0f5f 0000 0FDC 	.long0xfdc
 2886 0f63 09        	.uleb128 0x9
 2887 0f64 0000 0000 	.long.LASF173
 2888 0f68 0F        	.byte0xf
 2889 0f69 80        	.byte0x80
 2890 0f6a 0000 09FA 	.long0x9fa
 2891 0f6e 00        	.byte0
 2892 0f6f 09        	.uleb128 0x9
 2893 0f70 0000 0000 	.long.LASF174
 2894 0f74 0F        	.byte0xf
 2895 0f75 81        	.byte0x81
 2896 0f76 0000 09FA 	.long0x9fa
 2897 0f7a 08        	.byte0x8
 2898 0f7b 09        	.uleb128 0x9
 2899 0f7c 0000 0000 	.long.LASF175
 2900 0f80 0F        	.byte0xf
 2901 0f81 82        	.byte0x82
 2902 0f82 0000 003E 	.long0x3e
 2903 0f86 10        	.byte0x10
 2904 0f87 09        	.uleb128 0x9
 2905 0f88 0000 0000 	.long.LASF201
 2906 0f8c 0F        	.byte0xf
 2907 0f8d 83        	.byte0x83
 2908 0f8e 0000 003E 	.long0x3e
 2909 0f92 12        	.byte0x12
 2910 0f93 09        	.uleb128 0x9
 2911 0f94 0000 0000 	.long.LASF202
 2912 0f98 0F        	.byte0xf
 2913 0f99 84        	.byte0x84
68K GAS   			page 80


 2914 0f9a 0000 003E 	.long0x3e
 2915 0f9e 14        	.byte0x14
 2916 0f9f 09        	.uleb128 0x9
 2917 0fa0 0000 0000 	.long.LASF194
 2918 0fa4 0F        	.byte0xf
 2919 0fa5 85        	.byte0x85
 2920 0fa6 0000 09FA 	.long0x9fa
 2921 0faa 18        	.byte0x18
 2922 0fab 09        	.uleb128 0x9
 2923 0fac 0000 0000 	.long.LASF195
 2924 0fb0 0F        	.byte0xf
 2925 0fb1 86        	.byte0x86
 2926 0fb2 0000 09FA 	.long0x9fa
 2927 0fb6 20        	.byte0x20
 2928 0fb7 09        	.uleb128 0x9
 2929 0fb8 0000 0000 	.long.LASF197
 2930 0fbc 0F        	.byte0xf
 2931 0fbd 87        	.byte0x87
 2932 0fbe 0000 09FA 	.long0x9fa
 2933 0fc2 28        	.byte0x28
 2934 0fc3 09        	.uleb128 0x9
 2935 0fc4 0000 0000 	.long.LASF196
 2936 0fc8 0F        	.byte0xf
 2937 0fc9 88        	.byte0x88
 2938 0fca 0000 09FA 	.long0x9fa
 2939 0fce 30        	.byte0x30
 2940 0fcf 09        	.uleb128 0x9
 2941 0fd0 0000 0000 	.long.LASF198
 2942 0fd4 0F        	.byte0xf
 2943 0fd5 89        	.byte0x89
 2944 0fd6 0000 09FA 	.long0x9fa
 2945 0fda 38        	.byte0x38
 2946 0fdb 00        	.byte0
 2947 0fdc 02        	.uleb128 0x2
 2948 0fdd 0000 0000 	.long.LASF233
 2949 0fe1 0F        	.byte0xf
 2950 0fe2 8B        	.byte0x8b
 2951 0fe3 0000 0F5B 	.long0xf5b
 2952 0fe7 10        	.uleb128 0x10
 2953 0fe8 08        	.byte0x8
 2954 0fe9 0F        	.byte0xf
 2955 0fea 90        	.byte0x90
 2956 0feb 0000 1008 	.long0x1008
 2957 0fef 11        	.uleb128 0x11
 2958 0ff0 4170 7000 	.string"App"
 2959 0ff4 0F        	.byte0xf
 2960 0ff5 92        	.byte0x92
 2961 0ff6 0000 0086 	.long0x86
 2962 0ffa 00        	.byte0
 2963 0ffb 11        	.uleb128 0x11
 2964 0ffc 5074 7200 	.string"Ptr"
 2965 1000 0F        	.byte0xf
 2966 1001 93        	.byte0x93
 2967 1002 0000 0A30 	.long0xa30
 2968 1006 04        	.byte0x4
 2969 1007 00        	.byte0
 2970 1008 02        	.uleb128 0x2
68K GAS   			page 81


 2971 1009 0000 0000 	.long.LASF234
 2972 100d 0F        	.byte0xf
 2973 100e 94        	.byte0x94
 2974 100f 0000 0FE7 	.long0xfe7
 2975 1013 26        	.uleb128 0x26
 2976 1014 0248      	.word0x248
 2977 1016 0F        	.byte0xf
 2978 1017 9B        	.byte0x9b
 2979 1018 0000 1350 	.long0x1350
 2980 101c 09        	.uleb128 0x9
 2981 101d 0000 0000 	.long.LASF180
 2982 1021 0F        	.byte0xf
 2983 1022 A0        	.byte0xa0
 2984 1023 0000 0069 	.long0x69
 2985 1027 00        	.byte0
 2986 1028 09        	.uleb128 0x9
 2987 1029 0000 0000 	.long.LASF181
 2988 102d 0F        	.byte0xf
 2989 102e A1        	.byte0xa1
 2990 102f 0000 0069 	.long0x69
 2991 1033 01        	.byte0x1
 2992 1034 09        	.uleb128 0x9
 2993 1035 0000 0000 	.long.LASF235
 2994 1039 0F        	.byte0xf
 2995 103a A6        	.byte0xa6
 2996 103b 0000 0CE7 	.long0xce7
 2997 103f 04        	.byte0x4
 2998 1040 09        	.uleb128 0x9
 2999 1041 0000 0000 	.long.LASF236
 3000 1045 0F        	.byte0xf
 3001 1046 A7        	.byte0xa7
 3002 1047 0000 0F4F 	.long0xf4f
 3003 104b 30        	.byte0x30
 3004 104c 13        	.uleb128 0x13
 3005 104d 0000 0000 	.long.LASF237
 3006 1051 0F        	.byte0xf
 3007 1052 AC        	.byte0xac
 3008 1053 0000 0AD3 	.long0xad3
 3009 1057 0104      	.word0x104
 3010 1059 13        	.uleb128 0x13
 3011 105a 0000 0000 	.long.LASF238
 3012 105e 0F        	.byte0xf
 3013 105f AD        	.byte0xad
 3014 1060 0000 0AC8 	.long0xac8
 3015 1064 0108      	.word0x108
 3016 1066 13        	.uleb128 0x13
 3017 1067 0000 0000 	.long.LASF239
 3018 106b 0F        	.byte0xf
 3019 106c B2        	.byte0xb2
 3020 106d 0000 1350 	.long0x1350
 3021 1071 0109      	.word0x109
 3022 1073 13        	.uleb128 0x13
 3023 1074 0000 0000 	.long.LASF240
 3024 1078 0F        	.byte0xf
 3025 1079 B3        	.byte0xb3
 3026 107a 0000 0074 	.long0x74
 3027 107e 011A      	.word0x11a
68K GAS   			page 82


 3028 1080 13        	.uleb128 0x13
 3029 1081 0000 0000 	.long.LASF173
 3030 1085 0F        	.byte0xf
 3031 1086 B8        	.byte0xb8
 3032 1087 0000 09FA 	.long0x9fa
 3033 108b 011C      	.word0x11c
 3034 108d 13        	.uleb128 0x13
 3035 108e 0000 0000 	.long.LASF174
 3036 1092 0F        	.byte0xf
 3037 1093 B9        	.byte0xb9
 3038 1094 0000 09FA 	.long0x9fa
 3039 1098 0124      	.word0x124
 3040 109a 13        	.uleb128 0x13
 3041 109b 0000 0000 	.long.LASF175
 3042 109f 0F        	.byte0xf
 3043 10a0 BA        	.byte0xba
 3044 10a1 0000 003E 	.long0x3e
 3045 10a5 012C      	.word0x12c
 3046 10a7 13        	.uleb128 0x13
 3047 10a8 0000 0000 	.long.LASF194
 3048 10ac 0F        	.byte0xf
 3049 10ad BB        	.byte0xbb
 3050 10ae 0000 09FA 	.long0x9fa
 3051 10b2 0130      	.word0x130
 3052 10b4 13        	.uleb128 0x13
 3053 10b5 0000 0000 	.long.LASF195
 3054 10b9 0F        	.byte0xf
 3055 10ba BC        	.byte0xbc
 3056 10bb 0000 09FA 	.long0x9fa
 3057 10bf 0138      	.word0x138
 3058 10c1 13        	.uleb128 0x13
 3059 10c2 0000 0000 	.long.LASF201
 3060 10c6 0F        	.byte0xf
 3061 10c7 C0        	.byte0xc0
 3062 10c8 0000 003E 	.long0x3e
 3063 10cc 0140      	.word0x140
 3064 10ce 13        	.uleb128 0x13
 3065 10cf 0000 0000 	.long.LASF202
 3066 10d3 0F        	.byte0xf
 3067 10d4 C1        	.byte0xc1
 3068 10d5 0000 003E 	.long0x3e
 3069 10d9 0142      	.word0x142
 3070 10db 13        	.uleb128 0x13
 3071 10dc 0000 0000 	.long.LASF203
 3072 10e0 0F        	.byte0xf
 3073 10e1 C2        	.byte0xc2
 3074 10e2 0000 003E 	.long0x3e
 3075 10e6 0144      	.word0x144
 3076 10e8 13        	.uleb128 0x13
 3077 10e9 0000 0000 	.long.LASF204
 3078 10ed 0F        	.byte0xf
 3079 10ee C3        	.byte0xc3
 3080 10ef 0000 003E 	.long0x3e
 3081 10f3 0146      	.word0x146
 3082 10f5 13        	.uleb128 0x13
 3083 10f6 0000 0000 	.long.LASF205
 3084 10fa 0F        	.byte0xf
68K GAS   			page 83


 3085 10fb C4        	.byte0xc4
 3086 10fc 0000 003E 	.long0x3e
 3087 1100 0148      	.word0x148
 3088 1102 13        	.uleb128 0x13
 3089 1103 0000 0000 	.long.LASF241
 3090 1107 0F        	.byte0xf
 3091 1108 C9        	.byte0xc9
 3092 1109 0000 09FA 	.long0x9fa
 3093 110d 014C      	.word0x14c
 3094 110f 13        	.uleb128 0x13
 3095 1110 0000 0000 	.long.LASF242
 3096 1114 0F        	.byte0xf
 3097 1115 CA        	.byte0xca
 3098 1116 0000 09FA 	.long0x9fa
 3099 111a 0154      	.word0x154
 3100 111c 13        	.uleb128 0x13
 3101 111d 0000 0000 	.long.LASF243
 3102 1121 0F        	.byte0xf
 3103 1122 CB        	.byte0xcb
 3104 1123 0000 003E 	.long0x3e
 3105 1127 015C      	.word0x15c
 3106 1129 13        	.uleb128 0x13
 3107 112a 0000 0000 	.long.LASF244
 3108 112e 0F        	.byte0xf
 3109 112f CC        	.byte0xcc
 3110 1130 0000 003E 	.long0x3e
 3111 1134 015E      	.word0x15e
 3112 1136 13        	.uleb128 0x13
 3113 1137 0000 0000 	.long.LASF210
 3114 113b 0F        	.byte0xf
 3115 113c D1        	.byte0xd1
 3116 113d 0000 09FA 	.long0x9fa
 3117 1141 0160      	.word0x160
 3118 1143 13        	.uleb128 0x13
 3119 1144 0000 0000 	.long.LASF211
 3120 1148 0F        	.byte0xf
 3121 1149 D2        	.byte0xd2
 3122 114a 0000 09FA 	.long0x9fa
 3123 114e 0168      	.word0x168
 3124 1150 13        	.uleb128 0x13
 3125 1151 0000 0000 	.long.LASF207
 3126 1155 0F        	.byte0xf
 3127 1156 D4        	.byte0xd4
 3128 1157 0000 003E 	.long0x3e
 3129 115b 0170      	.word0x170
 3130 115d 13        	.uleb128 0x13
 3131 115e 0000 0000 	.long.LASF208
 3132 1162 0F        	.byte0xf
 3133 1163 D5        	.byte0xd5
 3134 1164 0000 003E 	.long0x3e
 3135 1168 0172      	.word0x172
 3136 116a 13        	.uleb128 0x13
 3137 116b 0000 0000 	.long.LASF209
 3138 116f 0F        	.byte0xf
 3139 1170 D6        	.byte0xd6
 3140 1171 0000 003E 	.long0x3e
 3141 1175 0174      	.word0x174
68K GAS   			page 84


 3142 1177 13        	.uleb128 0x13
 3143 1178 0000 0000 	.long.LASF212
 3144 117c 0F        	.byte0xf
 3145 117d DB        	.byte0xdb
 3146 117e 0000 09FA 	.long0x9fa
 3147 1182 0178      	.word0x178
 3148 1184 13        	.uleb128 0x13
 3149 1185 0000 0000 	.long.LASF213
 3150 1189 0F        	.byte0xf
 3151 118a DC        	.byte0xdc
 3152 118b 0000 09FA 	.long0x9fa
 3153 118f 0180      	.word0x180
 3154 1191 13        	.uleb128 0x13
 3155 1192 0000 0000 	.long.LASF214
 3156 1196 0F        	.byte0xf
 3157 1197 E1        	.byte0xe1
 3158 1198 0000 0086 	.long0x86
 3159 119c 0188      	.word0x188
 3160 119e 13        	.uleb128 0x13
 3161 119f 0000 0000 	.long.LASF215
 3162 11a3 0F        	.byte0xf
 3163 11a4 E2        	.byte0xe2
 3164 11a5 0000 0086 	.long0x86
 3165 11a9 018C      	.word0x18c
 3166 11ab 13        	.uleb128 0x13
 3167 11ac 0000 0000 	.long.LASF216
 3168 11b0 0F        	.byte0xf
 3169 11b1 E3        	.byte0xe3
 3170 11b2 0000 0086 	.long0x86
 3171 11b6 0190      	.word0x190
 3172 11b8 13        	.uleb128 0x13
 3173 11b9 0000 0000 	.long.LASF217
 3174 11bd 0F        	.byte0xf
 3175 11be E4        	.byte0xe4
 3176 11bf 0000 0086 	.long0x86
 3177 11c3 0194      	.word0x194
 3178 11c5 13        	.uleb128 0x13
 3179 11c6 0000 0000 	.long.LASF218
 3180 11ca 0F        	.byte0xf
 3181 11cb E5        	.byte0xe5
 3182 11cc 0000 0086 	.long0x86
 3183 11d0 0198      	.word0x198
 3184 11d2 13        	.uleb128 0x13
 3185 11d3 0000 0000 	.long.LASF219
 3186 11d7 0F        	.byte0xf
 3187 11d8 E6        	.byte0xe6
 3188 11d9 0000 0086 	.long0x86
 3189 11dd 019C      	.word0x19c
 3190 11df 13        	.uleb128 0x13
 3191 11e0 0000 0000 	.long.LASF220
 3192 11e4 0F        	.byte0xf
 3193 11e5 E7        	.byte0xe7
 3194 11e6 0000 0086 	.long0x86
 3195 11ea 01A0      	.word0x1a0
 3196 11ec 13        	.uleb128 0x13
 3197 11ed 0000 0000 	.long.LASF224
 3198 11f1 0F        	.byte0xf
68K GAS   			page 85


 3199 11f2 E8        	.byte0xe8
 3200 11f3 0000 0086 	.long0x86
 3201 11f7 01A4      	.word0x1a4
 3202 11f9 13        	.uleb128 0x13
 3203 11fa 0000 0000 	.long.LASF221
 3204 11fe 0F        	.byte0xf
 3205 11ff E9        	.byte0xe9
 3206 1200 0000 0086 	.long0x86
 3207 1204 01A8      	.word0x1a8
 3208 1206 13        	.uleb128 0x13
 3209 1207 0000 0000 	.long.LASF222
 3210 120b 0F        	.byte0xf
 3211 120c EA        	.byte0xea
 3212 120d 0000 0086 	.long0x86
 3213 1211 01AC      	.word0x1ac
 3214 1213 13        	.uleb128 0x13
 3215 1214 0000 0000 	.long.LASF223
 3216 1218 0F        	.byte0xf
 3217 1219 EB        	.byte0xeb
 3218 121a 0000 0086 	.long0x86
 3219 121e 01B0      	.word0x1b0
 3220 1220 13        	.uleb128 0x13
 3221 1221 0000 0000 	.long.LASF245
 3222 1225 0F        	.byte0xf
 3223 1226 EC        	.byte0xec
 3224 1227 0000 0086 	.long0x86
 3225 122b 01B4      	.word0x1b4
 3226 122d 13        	.uleb128 0x13
 3227 122e 0000 0000 	.long.LASF246
 3228 1232 0F        	.byte0xf
 3229 1233 ED        	.byte0xed
 3230 1234 0000 0086 	.long0x86
 3231 1238 01B8      	.word0x1b8
 3232 123a 13        	.uleb128 0x13
 3233 123b 0000 0000 	.long.LASF225
 3234 123f 0F        	.byte0xf
 3235 1240 F8        	.byte0xf8
 3236 1241 0000 0086 	.long0x86
 3237 1245 01BC      	.word0x1bc
 3238 1247 13        	.uleb128 0x13
 3239 1248 0000 0000 	.long.LASF226
 3240 124c 0F        	.byte0xf
 3241 124d F9        	.byte0xf9
 3242 124e 0000 0086 	.long0x86
 3243 1252 01C0      	.word0x1c0
 3244 1254 13        	.uleb128 0x13
 3245 1255 0000 0000 	.long.LASF227
 3246 1259 0F        	.byte0xf
 3247 125a FE        	.byte0xfe
 3248 125b 0000 09FA 	.long0x9fa
 3249 125f 01C4      	.word0x1c4
 3250 1261 19        	.uleb128 0x19
 3251 1262 0000 0000 	.long.LASF206
 3252 1266 0F        	.byte0xf
 3253 1267 0103      	.word0x103
 3254 1269 0000 009F 	.long0x9f
 3255 126d 01CC      	.word0x1cc
68K GAS   			page 86


 3256 126f 19        	.uleb128 0x19
 3257 1270 0000 0000 	.long.LASF247
 3258 1274 0F        	.byte0xf
 3259 1275 010A      	.word0x10a
 3260 1277 0000 009F 	.long0x9f
 3261 127b 01CD      	.word0x1cd
 3262 127d 19        	.uleb128 0x19
 3263 127e 0000 0000 	.long.LASF248
 3264 1282 0F        	.byte0xf
 3265 1283 010B      	.word0x10b
 3266 1285 0000 009F 	.long0x9f
 3267 1289 01CE      	.word0x1ce
 3268 128b 19        	.uleb128 0x19
 3269 128c 0000 0000 	.long.LASF249
 3270 1290 0F        	.byte0xf
 3271 1291 0110      	.word0x110
 3272 1293 0000 009F 	.long0x9f
 3273 1297 01CF      	.word0x1cf
 3274 1299 19        	.uleb128 0x19
 3275 129a 0000 0000 	.long.LASF250
 3276 129e 0F        	.byte0xf
 3277 129f 0116      	.word0x116
 3278 12a1 0000 0B52 	.long0xb52
 3279 12a5 01D0      	.word0x1d0
 3280 12a7 19        	.uleb128 0x19
 3281 12a8 0000 0000 	.long.LASF251
 3282 12ac 0F        	.byte0xf
 3283 12ad 011C      	.word0x11c
 3284 12af 0000 0B98 	.long0xb98
 3285 12b3 01D8      	.word0x1d8
 3286 12b5 19        	.uleb128 0x19
 3287 12b6 0000 0000 	.long.LASF252
 3288 12ba 0F        	.byte0xf
 3289 12bb 011D      	.word0x11d
 3290 12bd 0000 0C12 	.long0xc12
 3291 12c1 01E0      	.word0x1e0
 3292 12c3 19        	.uleb128 0x19
 3293 12c4 0000 0000 	.long.LASF253
 3294 12c8 0F        	.byte0xf
 3295 12c9 011E      	.word0x11e
 3296 12cb 0000 0B75 	.long0xb75
 3297 12cf 01FC      	.word0x1fc
 3298 12d1 19        	.uleb128 0x19
 3299 12d2 0000 0000 	.long.LASF254
 3300 12d6 0F        	.byte0xf
 3301 12d7 0123      	.word0x123
 3302 12d9 0000 0086 	.long0x86
 3303 12dd 0204      	.word0x204
 3304 12df 19        	.uleb128 0x19
 3305 12e0 0000 0000 	.long.LASF255
 3306 12e4 0F        	.byte0xf
 3307 12e5 0124      	.word0x124
 3308 12e7 0000 0086 	.long0x86
 3309 12eb 0208      	.word0x208
 3310 12ed 19        	.uleb128 0x19
 3311 12ee 0000 0000 	.long.LASF256
 3312 12f2 0F        	.byte0xf
68K GAS   			page 87


 3313 12f3 0128      	.word0x128
 3314 12f5 0000 0086 	.long0x86
 3315 12f9 020C      	.word0x20c
 3316 12fb 19        	.uleb128 0x19
 3317 12fc 0000 0000 	.long.LASF257
 3318 1300 0F        	.byte0xf
 3319 1301 0129      	.word0x129
 3320 1303 0000 0086 	.long0x86
 3321 1307 0210      	.word0x210
 3322 1309 19        	.uleb128 0x19
 3323 130a 0000 0000 	.long.LASF258
 3324 130e 0F        	.byte0xf
 3325 130f 012F      	.word0x12f
 3326 1311 0000 09FA 	.long0x9fa
 3327 1315 0214      	.word0x214
 3328 1317 19        	.uleb128 0x19
 3329 1318 0000 0000 	.long.LASF228
 3330 131c 0F        	.byte0xf
 3331 131d 0134      	.word0x134
 3332 131f 0000 0086 	.long0x86
 3333 1323 021C      	.word0x21c
 3334 1325 19        	.uleb128 0x19
 3335 1326 0000 0000 	.long.LASF229
 3336 132a 0F        	.byte0xf
 3337 132b 0135      	.word0x135
 3338 132d 0000 0086 	.long0x86
 3339 1331 0220      	.word0x220
 3340 1333 19        	.uleb128 0x19
 3341 1334 0000 0000 	.long.LASF230
 3342 1338 0F        	.byte0xf
 3343 1339 013A      	.word0x13a
 3344 133b 0000 0086 	.long0x86
 3345 133f 0224      	.word0x224
 3346 1341 19        	.uleb128 0x19
 3347 1342 0000 0000 	.long.LASF259
 3348 1346 0F        	.byte0xf
 3349 1347 013F      	.word0x13f
 3350 1349 0000 1360 	.long0x1360
 3351 134d 0228      	.word0x228
 3352 134f 00        	.byte0
 3353 1350 0E        	.uleb128 0xe
 3354 1351 0000 00AB 	.long0xab
 3355 1355 0000 1360 	.long0x1360
 3356 1359 0F        	.uleb128 0xf
 3357 135a 0000 0091 	.long0x91
 3358 135e 0F        	.byte0xf
 3359 135f 00        	.byte0
 3360 1360 0E        	.uleb128 0xe
 3361 1361 0000 1008 	.long0x1008
 3362 1365 0000 1370 	.long0x1370
 3363 1369 0F        	.uleb128 0xf
 3364 136a 0000 0091 	.long0x91
 3365 136e 03        	.byte0x3
 3366 136f 00        	.byte0
 3367 1370 04        	.uleb128 0x4
 3368 1371 0000 0000 	.long.LASF260
 3369 1375 0F        	.byte0xf
68K GAS   			page 88


 3370 1376 0141      	.word0x141
 3371 1378 0000 1013 	.long0x1013
 3372 137c 1F        	.uleb128 0x1f
 3373 137d 0000 0000 	.long.LASF261
 3374 1381 0F        	.byte0xf
 3375 1382 0146      	.word0x146
 3376 1384 0000 1370 	.long0x1370
 3377 1388 27        	.uleb128 0x27
 3378 1389 0000 0000 	.long.LASF262
 3379 138d 01        	.byte0x1
 3380 138e 055D      	.word0x55d
 3381 1390 0000 0000 	.long.LFB69
 3382 1394 0000 0044 	.long.LFE69-.LFB69
 3383 1398 01        	.uleb128 0x1
 3384 1399 9C        	.byte0x9c
 3385 139a 0000 13AC 	.long0x13ac
 3386 139e 28        	.uleb128 0x28
 3387 139f 6900      	.string"i"
 3388 13a1 01        	.byte0x1
 3389 13a2 055F      	.word0x55f
 3390 13a4 0000 0086 	.long0x86
 3391 13a8 02        	.uleb128 0x2
 3392 13a9 91        	.byte0x91
 3393 13aa 78        	.sleb128 -8
 3394 13ab 00        	.byte0
 3395 13ac 27        	.uleb128 0x27
 3396 13ad 0000 0000 	.long.LASF263
 3397 13b1 01        	.byte0x1
 3398 13b2 0516      	.word0x516
 3399 13b4 0000 0000 	.long.LFB68
 3400 13b8 0000 00A8 	.long.LFE68-.LFB68
 3401 13bc 01        	.uleb128 0x1
 3402 13bd 9C        	.byte0x9c
 3403 13be 0000 13D2 	.long0x13d2
 3404 13c2 29        	.uleb128 0x29
 3405 13c3 0000 0000 	.long.LASF264
 3406 13c7 01        	.byte0x1
 3407 13c8 0518      	.word0x518
 3408 13ca 0000 0050 	.long0x50
 3409 13ce 02        	.uleb128 0x2
 3410 13cf 91        	.byte0x91
 3411 13d0 78        	.sleb128 -8
 3412 13d1 00        	.byte0
 3413 13d2 27        	.uleb128 0x27
 3414 13d3 0000 0000 	.long.LASF265
 3415 13d7 01        	.byte0x1
 3416 13d8 0495      	.word0x495
 3417 13da 0000 0000 	.long.LFB67
 3418 13de 0000 018E 	.long.LFE67-.LFB67
 3419 13e2 01        	.uleb128 0x1
 3420 13e3 9C        	.byte0x9c
 3421 13e4 0000 1413 	.long0x1413
 3422 13e8 29        	.uleb128 0x29
 3423 13e9 0000 0000 	.long.LASF266
 3424 13ed 01        	.byte0x1
 3425 13ee 0498      	.word0x498
 3426 13f0 0000 0FDC 	.long0xfdc
68K GAS   			page 89


 3427 13f4 03        	.uleb128 0x3
 3428 13f5 91        	.byte0x91
 3429 13f6 BC7F      	.sleb128 -68
 3430 13f8 2A        	.uleb128 0x2a
 3431 13f9 0000 0000 	.long.LBB2
 3432 13fd 0000 0080 	.long.LBE2-.LBB2
 3433 1401 29        	.uleb128 0x29
 3434 1402 0000 0000 	.long.LASF267
 3435 1406 01        	.byte0x1
 3436 1407 04AA      	.word0x4aa
 3437 1409 0000 09FA 	.long0x9fa
 3438 140d 03        	.uleb128 0x3
 3439 140e 91        	.byte0x91
 3440 140f B47F      	.sleb128 -76
 3441 1411 00        	.byte0
 3442 1412 00        	.byte0
 3443 1413 27        	.uleb128 0x27
 3444 1414 0000 0000 	.long.LASF268
 3445 1418 01        	.byte0x1
 3446 1419 0464      	.word0x464
 3447 141b 0000 0000 	.long.LFB66
 3448 141f 0000 006C 	.long.LFE66-.LFB66
 3449 1423 01        	.uleb128 0x1
 3450 1424 9C        	.byte0x9c
 3451 1425 0000 1439 	.long0x1439
 3452 1429 29        	.uleb128 0x29
 3453 142a 0000 0000 	.long.LASF264
 3454 142e 01        	.byte0x1
 3455 142f 0466      	.word0x466
 3456 1431 0000 0050 	.long0x50
 3457 1435 02        	.uleb128 0x2
 3458 1436 91        	.byte0x91
 3459 1437 78        	.sleb128 -8
 3460 1438 00        	.byte0
 3461 1439 27        	.uleb128 0x27
 3462 143a 0000 0000 	.long.LASF269
 3463 143e 01        	.byte0x1
 3464 143f 03F2      	.word0x3f2
 3465 1441 0000 0000 	.long.LFB65
 3466 1445 0000 0160 	.long.LFE65-.LFB65
 3467 1449 01        	.uleb128 0x1
 3468 144a 9C        	.byte0x9c
 3469 144b 0000 147D 	.long0x147d
 3470 144f 29        	.uleb128 0x29
 3471 1450 0000 0000 	.long.LASF212
 3472 1454 01        	.byte0x1
 3473 1455 03F5      	.word0x3f5
 3474 1457 0000 09FA 	.long0x9fa
 3475 145b 02        	.uleb128 0x2
 3476 145c 91        	.byte0x91
 3477 145d 70        	.sleb128 -16
 3478 145e 29        	.uleb128 0x29
 3479 145f 0000 0000 	.long.LASF270
 3480 1463 01        	.byte0x1
 3481 1464 03F6      	.word0x3f6
 3482 1466 0000 09FA 	.long0x9fa
 3483 146a 02        	.uleb128 0x2
68K GAS   			page 90


 3484 146b 91        	.byte0x91
 3485 146c 68        	.sleb128 -24
 3486 146d 29        	.uleb128 0x29
 3487 146e 0000 0000 	.long.LASF264
 3488 1472 01        	.byte0x1
 3489 1473 03F7      	.word0x3f7
 3490 1475 0000 0A25 	.long0xa25
 3491 1479 02        	.uleb128 0x2
 3492 147a 91        	.byte0x91
 3493 147b 78        	.sleb128 -8
 3494 147c 00        	.byte0
 3495 147d 27        	.uleb128 0x27
 3496 147e 0000 0000 	.long.LASF271
 3497 1482 01        	.byte0x1
 3498 1483 03E5      	.word0x3e5
 3499 1485 0000 0000 	.long.LFB64
 3500 1489 0000 000A 	.long.LFE64-.LFB64
 3501 148d 01        	.uleb128 0x1
 3502 148e 9C        	.byte0x9c
 3503 148f 0000 14B2 	.long0x14b2
 3504 1493 2B        	.uleb128 0x2b
 3505 1494 0000 0000 	.long.LASF272
 3506 1498 01        	.byte0x1
 3507 1499 03E5      	.word0x3e5
 3508 149b 0000 0086 	.long0x86
 3509 149f 02        	.uleb128 0x2
 3510 14a0 91        	.byte0x91
 3511 14a1 00        	.sleb128 0
 3512 14a2 2C        	.uleb128 0x2c
 3513 14a3 4172 6700 	.string"Arg"
 3514 14a7 01        	.byte0x1
 3515 14a8 03E5      	.word0x3e5
 3516 14aa 0000 00B7 	.long0xb7
 3517 14ae 02        	.uleb128 0x2
 3518 14af 91        	.byte0x91
 3519 14b0 04        	.sleb128 4
 3520 14b1 00        	.byte0
 3521 14b2 27        	.uleb128 0x27
 3522 14b3 0000 0000 	.long.LASF273
 3523 14b7 01        	.byte0x1
 3524 14b8 0318      	.word0x318
 3525 14ba 0000 0000 	.long.LFB63
 3526 14be 0000 0108 	.long.LFE63-.LFB63
 3527 14c2 01        	.uleb128 0x1
 3528 14c3 9C        	.byte0x9c
 3529 14c4 0000 14F7 	.long0x14f7
 3530 14c8 29        	.uleb128 0x29
 3531 14c9 0000 0000 	.long.LASF266
 3532 14cd 01        	.byte0x1
 3533 14ce 031A      	.word0x31a
 3534 14d0 0000 0FDC 	.long0xfdc
 3535 14d4 03        	.uleb128 0x3
 3536 14d5 91        	.byte0x91
 3537 14d6 B47F      	.sleb128 -76
 3538 14d8 29        	.uleb128 0x29
 3539 14d9 0000 0000 	.long.LASF274
 3540 14dd 01        	.byte0x1
68K GAS   			page 91


 3541 14de 031B      	.word0x31b
 3542 14e0 0000 009F 	.long0x9f
 3543 14e4 02        	.uleb128 0x2
 3544 14e5 91        	.byte0x91
 3545 14e6 7B        	.sleb128 -5
 3546 14e7 29        	.uleb128 0x29
 3547 14e8 0000 0000 	.long.LASF275
 3548 14ec 01        	.byte0x1
 3549 14ed 031C      	.word0x31c
 3550 14ef 0000 0050 	.long0x50
 3551 14f3 02        	.uleb128 0x2
 3552 14f4 91        	.byte0x91
 3553 14f5 74        	.sleb128 -12
 3554 14f6 00        	.byte0
 3555 14f7 27        	.uleb128 0x27
 3556 14f8 0000 0000 	.long.LASF276
 3557 14fc 01        	.byte0x1
 3558 14fd 02BF      	.word0x2bf
 3559 14ff 0000 0000 	.long.LFB62
 3560 1503 0000 0184 	.long.LFE62-.LFB62
 3561 1507 01        	.uleb128 0x1
 3562 1508 9C        	.byte0x9c
 3563 1509 0000 156E 	.long0x156e
 3564 150d 2B        	.uleb128 0x2b
 3565 150e 0000 0000 	.long.LASF277
 3566 1512 01        	.byte0x1
 3567 1513 02BF      	.word0x2bf
 3568 1515 0000 09FA 	.long0x9fa
 3569 1519 02        	.uleb128 0x2
 3570 151a 91        	.byte0x91
 3571 151b 00        	.sleb128 0
 3572 151c 2B        	.uleb128 0x2b
 3573 151d 0000 0000 	.long.LASF278
 3574 1521 01        	.byte0x1
 3575 1522 02BF      	.word0x2bf
 3576 1524 0000 09FA 	.long0x9fa
 3577 1528 02        	.uleb128 0x2
 3578 1529 91        	.byte0x91
 3579 152a 08        	.sleb128 8
 3580 152b 29        	.uleb128 0x29
 3581 152c 0000 0000 	.long.LASF279
 3582 1530 01        	.byte0x1
 3583 1531 02C1      	.word0x2c1
 3584 1533 0000 0A25 	.long0xa25
 3585 1537 02        	.uleb128 0x2
 3586 1538 91        	.byte0x91
 3587 1539 78        	.sleb128 -8
 3588 153a 29        	.uleb128 0x29
 3589 153b 0000 0000 	.long.LASF280
 3590 153f 01        	.byte0x1
 3591 1540 02C2      	.word0x2c2
 3592 1542 0000 09FA 	.long0x9fa
 3593 1546 02        	.uleb128 0x2
 3594 1547 91        	.byte0x91
 3595 1548 70        	.sleb128 -16
 3596 1549 29        	.uleb128 0x29
 3597 154a 0000 0000 	.long.LASF281
68K GAS   			page 92


 3598 154e 01        	.byte0x1
 3599 154f 02C4      	.word0x2c4
 3600 1551 0000 09FA 	.long0x9fa
 3601 1555 05        	.uleb128 0x5
 3602 1556 03        	.byte0x3
 3603 1557 0000 0000 	.longPrevTime1.5301
 3604 155b 29        	.uleb128 0x29
 3605 155c 0000 0000 	.long.LASF282
 3606 1560 01        	.byte0x1
 3607 1561 02C5      	.word0x2c5
 3608 1563 0000 09FA 	.long0x9fa
 3609 1567 05        	.uleb128 0x5
 3610 1568 03        	.byte0x3
 3611 1569 0000 0000 	.longPrevTime2.5302
 3612 156d 00        	.byte0
 3613 156e 2D        	.uleb128 0x2d
 3614 156f 0000 0000 	.long.LASF288
 3615 1573 01        	.byte0x1
 3616 1574 0284      	.word0x284
 3617 1576 0000 0000 	.long.LFB61
 3618 157a 0000 0012 	.long.LFE61-.LFB61
 3619 157e 01        	.uleb128 0x1
 3620 157f 9C        	.byte0x9c
 3621 1580 27        	.uleb128 0x27
 3622 1581 0000 0000 	.long.LASF283
 3623 1585 01        	.byte0x1
 3624 1586 023D      	.word0x23d
 3625 1588 0000 0000 	.long.LFB60
 3626 158c 0000 0098 	.long.LFE60-.LFB60
 3627 1590 01        	.uleb128 0x1
 3628 1591 9C        	.byte0x9c
 3629 1592 0000 15A6 	.long0x15a6
 3630 1596 2B        	.uleb128 0x2b
 3631 1597 0000 0000 	.long.LASF252
 3632 159b 01        	.byte0x1
 3633 159c 023D      	.word0x23d
 3634 159e 0000 15A6 	.long0x15a6
 3635 15a2 02        	.uleb128 0x2
 3636 15a3 91        	.byte0x91
 3637 15a4 00        	.sleb128 0
 3638 15a5 00        	.byte0
 3639 15a6 0B        	.uleb128 0xb
 3640 15a7 04        	.byte0x4
 3641 15a8 0000 0BE2 	.long0xbe2
 3642 15ac 2E        	.uleb128 0x2e
 3643 15ad 0000 0000 	.long.LASF289
 3644 15b1 01        	.byte0x1
 3645 15b2 64        	.byte0x64
 3646 15b3 0000 0000 	.long.LFB59
 3647 15b7 0000 00B4 	.long.LFE59-.LFB59
 3648 15bb 01        	.uleb128 0x1
 3649 15bc 9C        	.byte0x9c
 3650 15bd 2F        	.uleb128 0x2f
 3651 15be 0000 0000 	.long.LASF266
 3652 15c2 01        	.byte0x1
 3653 15c3 66        	.byte0x66
 3654 15c4 0000 0FDC 	.long0xfdc
68K GAS   			page 93


 3655 15c8 03        	.uleb128 0x3
 3656 15c9 91        	.byte0x91
 3657 15ca BC7F      	.sleb128 -68
 3658 15cc 2F        	.uleb128 0x2f
 3659 15cd 0000 0000 	.long.LASF284
 3660 15d1 01        	.byte0x1
 3661 15d2 67        	.byte0x67
 3662 15d3 0000 09FA 	.long0x9fa
 3663 15d7 03        	.uleb128 0x3
 3664 15d8 91        	.byte0x91
 3665 15d9 B47F      	.sleb128 -76
 3666 15db 00        	.byte0
 3667 15dc 00        	.byte0
 3668               	.section.debug_abbrev,"",@progbits
 3669               	.Ldebug_abbrev0:
 3670 0000 01        	.uleb128 0x1
 3671 0001 11        	.uleb128 0x11
 3672 0002 01        	.byte0x1
 3673 0003 25        	.uleb128 0x25
 3674 0004 0E        	.uleb128 0xe
 3675 0005 13        	.uleb128 0x13
 3676 0006 0B        	.uleb128 0xb
 3677 0007 03        	.uleb128 0x3
 3678 0008 0E        	.uleb128 0xe
 3679 0009 1B        	.uleb128 0x1b
 3680 000a 0E        	.uleb128 0xe
 3681 000b 11        	.uleb128 0x11
 3682 000c 01        	.uleb128 0x1
 3683 000d 12        	.uleb128 0x12
 3684 000e 06        	.uleb128 0x6
 3685 000f 10        	.uleb128 0x10
 3686 0010 17        	.uleb128 0x17
 3687 0011 00        	.byte0
 3688 0012 00        	.byte0
 3689 0013 02        	.uleb128 0x2
 3690 0014 16        	.uleb128 0x16
 3691 0015 00        	.byte0
 3692 0016 03        	.uleb128 0x3
 3693 0017 0E        	.uleb128 0xe
 3694 0018 3A        	.uleb128 0x3a
 3695 0019 0B        	.uleb128 0xb
 3696 001a 3B        	.uleb128 0x3b
 3697 001b 0B        	.uleb128 0xb
 3698 001c 49        	.uleb128 0x49
 3699 001d 13        	.uleb128 0x13
 3700 001e 00        	.byte0
 3701 001f 00        	.byte0
 3702 0020 03        	.uleb128 0x3
 3703 0021 24        	.uleb128 0x24
 3704 0022 00        	.byte0
 3705 0023 0B        	.uleb128 0xb
 3706 0024 0B        	.uleb128 0xb
 3707 0025 3E        	.uleb128 0x3e
 3708 0026 0B        	.uleb128 0xb
 3709 0027 03        	.uleb128 0x3
 3710 0028 0E        	.uleb128 0xe
 3711 0029 00        	.byte0
68K GAS   			page 94


 3712 002a 00        	.byte0
 3713 002b 04        	.uleb128 0x4
 3714 002c 16        	.uleb128 0x16
 3715 002d 00        	.byte0
 3716 002e 03        	.uleb128 0x3
 3717 002f 0E        	.uleb128 0xe
 3718 0030 3A        	.uleb128 0x3a
 3719 0031 0B        	.uleb128 0xb
 3720 0032 3B        	.uleb128 0x3b
 3721 0033 05        	.uleb128 0x5
 3722 0034 49        	.uleb128 0x49
 3723 0035 13        	.uleb128 0x13
 3724 0036 00        	.byte0
 3725 0037 00        	.byte0
 3726 0038 05        	.uleb128 0x5
 3727 0039 26        	.uleb128 0x26
 3728 003a 00        	.byte0
 3729 003b 49        	.uleb128 0x49
 3730 003c 13        	.uleb128 0x13
 3731 003d 00        	.byte0
 3732 003e 00        	.byte0
 3733 003f 06        	.uleb128 0x6
 3734 0040 0F        	.uleb128 0xf
 3735 0041 00        	.byte0
 3736 0042 0B        	.uleb128 0xb
 3737 0043 0B        	.uleb128 0xb
 3738 0044 00        	.byte0
 3739 0045 00        	.byte0
 3740 0046 07        	.uleb128 0x7
 3741 0047 24        	.uleb128 0x24
 3742 0048 00        	.byte0
 3743 0049 0B        	.uleb128 0xb
 3744 004a 0B        	.uleb128 0xb
 3745 004b 3E        	.uleb128 0x3e
 3746 004c 0B        	.uleb128 0xb
 3747 004d 03        	.uleb128 0x3
 3748 004e 08        	.uleb128 0x8
 3749 004f 00        	.byte0
 3750 0050 00        	.byte0
 3751 0051 08        	.uleb128 0x8
 3752 0052 13        	.uleb128 0x13
 3753 0053 01        	.byte0x1
 3754 0054 03        	.uleb128 0x3
 3755 0055 0E        	.uleb128 0xe
 3756 0056 0B        	.uleb128 0xb
 3757 0057 0B        	.uleb128 0xb
 3758 0058 3A        	.uleb128 0x3a
 3759 0059 0B        	.uleb128 0xb
 3760 005a 3B        	.uleb128 0x3b
 3761 005b 0B        	.uleb128 0xb
 3762 005c 01        	.uleb128 0x1
 3763 005d 13        	.uleb128 0x13
 3764 005e 00        	.byte0
 3765 005f 00        	.byte0
 3766 0060 09        	.uleb128 0x9
 3767 0061 0D        	.uleb128 0xd
 3768 0062 00        	.byte0
68K GAS   			page 95


 3769 0063 03        	.uleb128 0x3
 3770 0064 0E        	.uleb128 0xe
 3771 0065 3A        	.uleb128 0x3a
 3772 0066 0B        	.uleb128 0xb
 3773 0067 3B        	.uleb128 0x3b
 3774 0068 0B        	.uleb128 0xb
 3775 0069 49        	.uleb128 0x49
 3776 006a 13        	.uleb128 0x13
 3777 006b 38        	.uleb128 0x38
 3778 006c 0B        	.uleb128 0xb
 3779 006d 00        	.byte0
 3780 006e 00        	.byte0
 3781 006f 0A        	.uleb128 0xa
 3782 0070 13        	.uleb128 0x13
 3783 0071 00        	.byte0
 3784 0072 03        	.uleb128 0x3
 3785 0073 0E        	.uleb128 0xe
 3786 0074 3C        	.uleb128 0x3c
 3787 0075 19        	.uleb128 0x19
 3788 0076 00        	.byte0
 3789 0077 00        	.byte0
 3790 0078 0B        	.uleb128 0xb
 3791 0079 0F        	.uleb128 0xf
 3792 007a 00        	.byte0
 3793 007b 0B        	.uleb128 0xb
 3794 007c 0B        	.uleb128 0xb
 3795 007d 49        	.uleb128 0x49
 3796 007e 13        	.uleb128 0x13
 3797 007f 00        	.byte0
 3798 0080 00        	.byte0
 3799 0081 0C        	.uleb128 0xc
 3800 0082 17        	.uleb128 0x17
 3801 0083 01        	.byte0x1
 3802 0084 0B        	.uleb128 0xb
 3803 0085 0B        	.uleb128 0xb
 3804 0086 3A        	.uleb128 0x3a
 3805 0087 0B        	.uleb128 0xb
 3806 0088 3B        	.uleb128 0x3b
 3807 0089 0B        	.uleb128 0xb
 3808 008a 01        	.uleb128 0x1
 3809 008b 13        	.uleb128 0x13
 3810 008c 00        	.byte0
 3811 008d 00        	.byte0
 3812 008e 0D        	.uleb128 0xd
 3813 008f 0D        	.uleb128 0xd
 3814 0090 00        	.byte0
 3815 0091 03        	.uleb128 0x3
 3816 0092 0E        	.uleb128 0xe
 3817 0093 3A        	.uleb128 0x3a
 3818 0094 0B        	.uleb128 0xb
 3819 0095 3B        	.uleb128 0x3b
 3820 0096 0B        	.uleb128 0xb
 3821 0097 49        	.uleb128 0x49
 3822 0098 13        	.uleb128 0x13
 3823 0099 00        	.byte0
 3824 009a 00        	.byte0
 3825 009b 0E        	.uleb128 0xe
68K GAS   			page 96


 3826 009c 01        	.uleb128 0x1
 3827 009d 01        	.byte0x1
 3828 009e 49        	.uleb128 0x49
 3829 009f 13        	.uleb128 0x13
 3830 00a0 01        	.uleb128 0x1
 3831 00a1 13        	.uleb128 0x13
 3832 00a2 00        	.byte0
 3833 00a3 00        	.byte0
 3834 00a4 0F        	.uleb128 0xf
 3835 00a5 21        	.uleb128 0x21
 3836 00a6 00        	.byte0
 3837 00a7 49        	.uleb128 0x49
 3838 00a8 13        	.uleb128 0x13
 3839 00a9 2F        	.uleb128 0x2f
 3840 00aa 0B        	.uleb128 0xb
 3841 00ab 00        	.byte0
 3842 00ac 00        	.byte0
 3843 00ad 10        	.uleb128 0x10
 3844 00ae 13        	.uleb128 0x13
 3845 00af 01        	.byte0x1
 3846 00b0 0B        	.uleb128 0xb
 3847 00b1 0B        	.uleb128 0xb
 3848 00b2 3A        	.uleb128 0x3a
 3849 00b3 0B        	.uleb128 0xb
 3850 00b4 3B        	.uleb128 0x3b
 3851 00b5 0B        	.uleb128 0xb
 3852 00b6 01        	.uleb128 0x1
 3853 00b7 13        	.uleb128 0x13
 3854 00b8 00        	.byte0
 3855 00b9 00        	.byte0
 3856 00ba 11        	.uleb128 0x11
 3857 00bb 0D        	.uleb128 0xd
 3858 00bc 00        	.byte0
 3859 00bd 03        	.uleb128 0x3
 3860 00be 08        	.uleb128 0x8
 3861 00bf 3A        	.uleb128 0x3a
 3862 00c0 0B        	.uleb128 0xb
 3863 00c1 3B        	.uleb128 0x3b
 3864 00c2 0B        	.uleb128 0xb
 3865 00c3 49        	.uleb128 0x49
 3866 00c4 13        	.uleb128 0x13
 3867 00c5 38        	.uleb128 0x38
 3868 00c6 0B        	.uleb128 0xb
 3869 00c7 00        	.byte0
 3870 00c8 00        	.byte0
 3871 00c9 12        	.uleb128 0x12
 3872 00ca 13        	.uleb128 0x13
 3873 00cb 01        	.byte0x1
 3874 00cc 03        	.uleb128 0x3
 3875 00cd 0E        	.uleb128 0xe
 3876 00ce 0B        	.uleb128 0xb
 3877 00cf 05        	.uleb128 0x5
 3878 00d0 3A        	.uleb128 0x3a
 3879 00d1 0B        	.uleb128 0xb
 3880 00d2 3B        	.uleb128 0x3b
 3881 00d3 0B        	.uleb128 0xb
 3882 00d4 01        	.uleb128 0x1
68K GAS   			page 97


 3883 00d5 13        	.uleb128 0x13
 3884 00d6 00        	.byte0
 3885 00d7 00        	.byte0
 3886 00d8 13        	.uleb128 0x13
 3887 00d9 0D        	.uleb128 0xd
 3888 00da 00        	.byte0
 3889 00db 03        	.uleb128 0x3
 3890 00dc 0E        	.uleb128 0xe
 3891 00dd 3A        	.uleb128 0x3a
 3892 00de 0B        	.uleb128 0xb
 3893 00df 3B        	.uleb128 0x3b
 3894 00e0 0B        	.uleb128 0xb
 3895 00e1 49        	.uleb128 0x49
 3896 00e2 13        	.uleb128 0x13
 3897 00e3 38        	.uleb128 0x38
 3898 00e4 05        	.uleb128 0x5
 3899 00e5 00        	.byte0
 3900 00e6 00        	.byte0
 3901 00e7 14        	.uleb128 0x14
 3902 00e8 15        	.uleb128 0x15
 3903 00e9 00        	.byte0
 3904 00ea 27        	.uleb128 0x27
 3905 00eb 19        	.uleb128 0x19
 3906 00ec 00        	.byte0
 3907 00ed 00        	.byte0
 3908 00ee 15        	.uleb128 0x15
 3909 00ef 15        	.uleb128 0x15
 3910 00f0 01        	.byte0x1
 3911 00f1 27        	.uleb128 0x27
 3912 00f2 19        	.uleb128 0x19
 3913 00f3 49        	.uleb128 0x49
 3914 00f4 13        	.uleb128 0x13
 3915 00f5 01        	.uleb128 0x1
 3916 00f6 13        	.uleb128 0x13
 3917 00f7 00        	.byte0
 3918 00f8 00        	.byte0
 3919 00f9 16        	.uleb128 0x16
 3920 00fa 05        	.uleb128 0x5
 3921 00fb 00        	.byte0
 3922 00fc 49        	.uleb128 0x49
 3923 00fd 13        	.uleb128 0x13
 3924 00fe 00        	.byte0
 3925 00ff 00        	.byte0
 3926 0100 17        	.uleb128 0x17
 3927 0101 13        	.uleb128 0x13
 3928 0102 01        	.byte0x1
 3929 0103 03        	.uleb128 0x3
 3930 0104 0E        	.uleb128 0xe
 3931 0105 0B        	.uleb128 0xb
 3932 0106 05        	.uleb128 0x5
 3933 0107 3A        	.uleb128 0x3a
 3934 0108 0B        	.uleb128 0xb
 3935 0109 3B        	.uleb128 0x3b
 3936 010a 05        	.uleb128 0x5
 3937 010b 01        	.uleb128 0x1
 3938 010c 13        	.uleb128 0x13
 3939 010d 00        	.byte0
68K GAS   			page 98


 3940 010e 00        	.byte0
 3941 010f 18        	.uleb128 0x18
 3942 0110 0D        	.uleb128 0xd
 3943 0111 00        	.byte0
 3944 0112 03        	.uleb128 0x3
 3945 0113 0E        	.uleb128 0xe
 3946 0114 3A        	.uleb128 0x3a
 3947 0115 0B        	.uleb128 0xb
 3948 0116 3B        	.uleb128 0x3b
 3949 0117 05        	.uleb128 0x5
 3950 0118 49        	.uleb128 0x49
 3951 0119 13        	.uleb128 0x13
 3952 011a 38        	.uleb128 0x38
 3953 011b 0B        	.uleb128 0xb
 3954 011c 00        	.byte0
 3955 011d 00        	.byte0
 3956 011e 19        	.uleb128 0x19
 3957 011f 0D        	.uleb128 0xd
 3958 0120 00        	.byte0
 3959 0121 03        	.uleb128 0x3
 3960 0122 0E        	.uleb128 0xe
 3961 0123 3A        	.uleb128 0x3a
 3962 0124 0B        	.uleb128 0xb
 3963 0125 3B        	.uleb128 0x3b
 3964 0126 05        	.uleb128 0x5
 3965 0127 49        	.uleb128 0x49
 3966 0128 13        	.uleb128 0x13
 3967 0129 38        	.uleb128 0x38
 3968 012a 05        	.uleb128 0x5
 3969 012b 00        	.byte0
 3970 012c 00        	.byte0
 3971 012d 1A        	.uleb128 0x1a
 3972 012e 13        	.uleb128 0x13
 3973 012f 01        	.byte0x1
 3974 0130 03        	.uleb128 0x3
 3975 0131 0E        	.uleb128 0xe
 3976 0132 0B        	.uleb128 0xb
 3977 0133 0B        	.uleb128 0xb
 3978 0134 3A        	.uleb128 0x3a
 3979 0135 0B        	.uleb128 0xb
 3980 0136 3B        	.uleb128 0x3b
 3981 0137 05        	.uleb128 0x5
 3982 0138 01        	.uleb128 0x1
 3983 0139 13        	.uleb128 0x13
 3984 013a 00        	.byte0
 3985 013b 00        	.byte0
 3986 013c 1B        	.uleb128 0x1b
 3987 013d 13        	.uleb128 0x13
 3988 013e 01        	.byte0x1
 3989 013f 0B        	.uleb128 0xb
 3990 0140 0B        	.uleb128 0xb
 3991 0141 3A        	.uleb128 0x3a
 3992 0142 0B        	.uleb128 0xb
 3993 0143 3B        	.uleb128 0x3b
 3994 0144 05        	.uleb128 0x5
 3995 0145 01        	.uleb128 0x1
 3996 0146 13        	.uleb128 0x13
68K GAS   			page 99


 3997 0147 00        	.byte0
 3998 0148 00        	.byte0
 3999 0149 1C        	.uleb128 0x1c
 4000 014a 17        	.uleb128 0x17
 4001 014b 01        	.byte0x1
 4002 014c 0B        	.uleb128 0xb
 4003 014d 0B        	.uleb128 0xb
 4004 014e 3A        	.uleb128 0x3a
 4005 014f 0B        	.uleb128 0xb
 4006 0150 3B        	.uleb128 0x3b
 4007 0151 05        	.uleb128 0x5
 4008 0152 01        	.uleb128 0x1
 4009 0153 13        	.uleb128 0x13
 4010 0154 00        	.byte0
 4011 0155 00        	.byte0
 4012 0156 1D        	.uleb128 0x1d
 4013 0157 0D        	.uleb128 0xd
 4014 0158 00        	.byte0
 4015 0159 03        	.uleb128 0x3
 4016 015a 0E        	.uleb128 0xe
 4017 015b 3A        	.uleb128 0x3a
 4018 015c 0B        	.uleb128 0xb
 4019 015d 3B        	.uleb128 0x3b
 4020 015e 05        	.uleb128 0x5
 4021 015f 49        	.uleb128 0x49
 4022 0160 13        	.uleb128 0x13
 4023 0161 00        	.byte0
 4024 0162 00        	.byte0
 4025 0163 1E        	.uleb128 0x1e
 4026 0164 15        	.uleb128 0x15
 4027 0165 01        	.byte0x1
 4028 0166 27        	.uleb128 0x27
 4029 0167 19        	.uleb128 0x19
 4030 0168 01        	.uleb128 0x1
 4031 0169 13        	.uleb128 0x13
 4032 016a 00        	.byte0
 4033 016b 00        	.byte0
 4034 016c 1F        	.uleb128 0x1f
 4035 016d 34        	.uleb128 0x34
 4036 016e 00        	.byte0
 4037 016f 03        	.uleb128 0x3
 4038 0170 0E        	.uleb128 0xe
 4039 0171 3A        	.uleb128 0x3a
 4040 0172 0B        	.uleb128 0xb
 4041 0173 3B        	.uleb128 0x3b
 4042 0174 05        	.uleb128 0x5
 4043 0175 49        	.uleb128 0x49
 4044 0176 13        	.uleb128 0x13
 4045 0177 3F        	.uleb128 0x3f
 4046 0178 19        	.uleb128 0x19
 4047 0179 3C        	.uleb128 0x3c
 4048 017a 19        	.uleb128 0x19
 4049 017b 00        	.byte0
 4050 017c 00        	.byte0
 4051 017d 20        	.uleb128 0x20
 4052 017e 34        	.uleb128 0x34
 4053 017f 00        	.byte0
68K GAS   			page 100


 4054 0180 03        	.uleb128 0x3
 4055 0181 0E        	.uleb128 0xe
 4056 0182 3A        	.uleb128 0x3a
 4057 0183 0B        	.uleb128 0xb
 4058 0184 3B        	.uleb128 0x3b
 4059 0185 0B        	.uleb128 0xb
 4060 0186 49        	.uleb128 0x49
 4061 0187 13        	.uleb128 0x13
 4062 0188 3F        	.uleb128 0x3f
 4063 0189 19        	.uleb128 0x19
 4064 018a 3C        	.uleb128 0x3c
 4065 018b 19        	.uleb128 0x19
 4066 018c 00        	.byte0
 4067 018d 00        	.byte0
 4068 018e 21        	.uleb128 0x21
 4069 018f 15        	.uleb128 0x15
 4070 0190 00        	.byte0
 4071 0191 27        	.uleb128 0x27
 4072 0192 19        	.uleb128 0x19
 4073 0193 49        	.uleb128 0x49
 4074 0194 13        	.uleb128 0x13
 4075 0195 00        	.byte0
 4076 0196 00        	.byte0
 4077 0197 22        	.uleb128 0x22
 4078 0198 04        	.uleb128 0x4
 4079 0199 01        	.byte0x1
 4080 019a 3E        	.uleb128 0x3e
 4081 019b 0B        	.uleb128 0xb
 4082 019c 0B        	.uleb128 0xb
 4083 019d 0B        	.uleb128 0xb
 4084 019e 49        	.uleb128 0x49
 4085 019f 13        	.uleb128 0x13
 4086 01a0 3A        	.uleb128 0x3a
 4087 01a1 0B        	.uleb128 0xb
 4088 01a2 3B        	.uleb128 0x3b
 4089 01a3 0B        	.uleb128 0xb
 4090 01a4 01        	.uleb128 0x1
 4091 01a5 13        	.uleb128 0x13
 4092 01a6 00        	.byte0
 4093 01a7 00        	.byte0
 4094 01a8 23        	.uleb128 0x23
 4095 01a9 28        	.uleb128 0x28
 4096 01aa 00        	.byte0
 4097 01ab 03        	.uleb128 0x3
 4098 01ac 0E        	.uleb128 0xe
 4099 01ad 1C        	.uleb128 0x1c
 4100 01ae 0D        	.uleb128 0xd
 4101 01af 00        	.byte0
 4102 01b0 00        	.byte0
 4103 01b1 24        	.uleb128 0x24
 4104 01b2 28        	.uleb128 0x28
 4105 01b3 00        	.byte0
 4106 01b4 03        	.uleb128 0x3
 4107 01b5 0E        	.uleb128 0xe
 4108 01b6 1C        	.uleb128 0x1c
 4109 01b7 0B        	.uleb128 0xb
 4110 01b8 00        	.byte0
68K GAS   			page 101


 4111 01b9 00        	.byte0
 4112 01ba 25        	.uleb128 0x25
 4113 01bb 0D        	.uleb128 0xd
 4114 01bc 00        	.byte0
 4115 01bd 03        	.uleb128 0x3
 4116 01be 08        	.uleb128 0x8
 4117 01bf 3A        	.uleb128 0x3a
 4118 01c0 0B        	.uleb128 0xb
 4119 01c1 3B        	.uleb128 0x3b
 4120 01c2 0B        	.uleb128 0xb
 4121 01c3 49        	.uleb128 0x49
 4122 01c4 13        	.uleb128 0x13
 4123 01c5 00        	.byte0
 4124 01c6 00        	.byte0
 4125 01c7 26        	.uleb128 0x26
 4126 01c8 13        	.uleb128 0x13
 4127 01c9 01        	.byte0x1
 4128 01ca 0B        	.uleb128 0xb
 4129 01cb 05        	.uleb128 0x5
 4130 01cc 3A        	.uleb128 0x3a
 4131 01cd 0B        	.uleb128 0xb
 4132 01ce 3B        	.uleb128 0x3b
 4133 01cf 0B        	.uleb128 0xb
 4134 01d0 01        	.uleb128 0x1
 4135 01d1 13        	.uleb128 0x13
 4136 01d2 00        	.byte0
 4137 01d3 00        	.byte0
 4138 01d4 27        	.uleb128 0x27
 4139 01d5 2E        	.uleb128 0x2e
 4140 01d6 01        	.byte0x1
 4141 01d7 3F        	.uleb128 0x3f
 4142 01d8 19        	.uleb128 0x19
 4143 01d9 03        	.uleb128 0x3
 4144 01da 0E        	.uleb128 0xe
 4145 01db 3A        	.uleb128 0x3a
 4146 01dc 0B        	.uleb128 0xb
 4147 01dd 3B        	.uleb128 0x3b
 4148 01de 05        	.uleb128 0x5
 4149 01df 27        	.uleb128 0x27
 4150 01e0 19        	.uleb128 0x19
 4151 01e1 11        	.uleb128 0x11
 4152 01e2 01        	.uleb128 0x1
 4153 01e3 12        	.uleb128 0x12
 4154 01e4 06        	.uleb128 0x6
 4155 01e5 40        	.uleb128 0x40
 4156 01e6 18        	.uleb128 0x18
 4157 01e7 9642      	.uleb128 0x2116
 4158 01e9 19        	.uleb128 0x19
 4159 01ea 01        	.uleb128 0x1
 4160 01eb 13        	.uleb128 0x13
 4161 01ec 00        	.byte0
 4162 01ed 00        	.byte0
 4163 01ee 28        	.uleb128 0x28
 4164 01ef 34        	.uleb128 0x34
 4165 01f0 00        	.byte0
 4166 01f1 03        	.uleb128 0x3
 4167 01f2 08        	.uleb128 0x8
68K GAS   			page 102


 4168 01f3 3A        	.uleb128 0x3a
 4169 01f4 0B        	.uleb128 0xb
 4170 01f5 3B        	.uleb128 0x3b
 4171 01f6 05        	.uleb128 0x5
 4172 01f7 49        	.uleb128 0x49
 4173 01f8 13        	.uleb128 0x13
 4174 01f9 02        	.uleb128 0x2
 4175 01fa 18        	.uleb128 0x18
 4176 01fb 00        	.byte0
 4177 01fc 00        	.byte0
 4178 01fd 29        	.uleb128 0x29
 4179 01fe 34        	.uleb128 0x34
 4180 01ff 00        	.byte0
 4181 0200 03        	.uleb128 0x3
 4182 0201 0E        	.uleb128 0xe
 4183 0202 3A        	.uleb128 0x3a
 4184 0203 0B        	.uleb128 0xb
 4185 0204 3B        	.uleb128 0x3b
 4186 0205 05        	.uleb128 0x5
 4187 0206 49        	.uleb128 0x49
 4188 0207 13        	.uleb128 0x13
 4189 0208 02        	.uleb128 0x2
 4190 0209 18        	.uleb128 0x18
 4191 020a 00        	.byte0
 4192 020b 00        	.byte0
 4193 020c 2A        	.uleb128 0x2a
 4194 020d 0B        	.uleb128 0xb
 4195 020e 01        	.byte0x1
 4196 020f 11        	.uleb128 0x11
 4197 0210 01        	.uleb128 0x1
 4198 0211 12        	.uleb128 0x12
 4199 0212 06        	.uleb128 0x6
 4200 0213 00        	.byte0
 4201 0214 00        	.byte0
 4202 0215 2B        	.uleb128 0x2b
 4203 0216 05        	.uleb128 0x5
 4204 0217 00        	.byte0
 4205 0218 03        	.uleb128 0x3
 4206 0219 0E        	.uleb128 0xe
 4207 021a 3A        	.uleb128 0x3a
 4208 021b 0B        	.uleb128 0xb
 4209 021c 3B        	.uleb128 0x3b
 4210 021d 05        	.uleb128 0x5
 4211 021e 49        	.uleb128 0x49
 4212 021f 13        	.uleb128 0x13
 4213 0220 02        	.uleb128 0x2
 4214 0221 18        	.uleb128 0x18
 4215 0222 00        	.byte0
 4216 0223 00        	.byte0
 4217 0224 2C        	.uleb128 0x2c
 4218 0225 05        	.uleb128 0x5
 4219 0226 00        	.byte0
 4220 0227 03        	.uleb128 0x3
 4221 0228 08        	.uleb128 0x8
 4222 0229 3A        	.uleb128 0x3a
 4223 022a 0B        	.uleb128 0xb
 4224 022b 3B        	.uleb128 0x3b
68K GAS   			page 103


 4225 022c 05        	.uleb128 0x5
 4226 022d 49        	.uleb128 0x49
 4227 022e 13        	.uleb128 0x13
 4228 022f 02        	.uleb128 0x2
 4229 0230 18        	.uleb128 0x18
 4230 0231 00        	.byte0
 4231 0232 00        	.byte0
 4232 0233 2D        	.uleb128 0x2d
 4233 0234 2E        	.uleb128 0x2e
 4234 0235 00        	.byte0
 4235 0236 3F        	.uleb128 0x3f
 4236 0237 19        	.uleb128 0x19
 4237 0238 03        	.uleb128 0x3
 4238 0239 0E        	.uleb128 0xe
 4239 023a 3A        	.uleb128 0x3a
 4240 023b 0B        	.uleb128 0xb
 4241 023c 3B        	.uleb128 0x3b
 4242 023d 05        	.uleb128 0x5
 4243 023e 27        	.uleb128 0x27
 4244 023f 19        	.uleb128 0x19
 4245 0240 11        	.uleb128 0x11
 4246 0241 01        	.uleb128 0x1
 4247 0242 12        	.uleb128 0x12
 4248 0243 06        	.uleb128 0x6
 4249 0244 40        	.uleb128 0x40
 4250 0245 18        	.uleb128 0x18
 4251 0246 9742      	.uleb128 0x2117
 4252 0248 19        	.uleb128 0x19
 4253 0249 00        	.byte0
 4254 024a 00        	.byte0
 4255 024b 2E        	.uleb128 0x2e
 4256 024c 2E        	.uleb128 0x2e
 4257 024d 01        	.byte0x1
 4258 024e 3F        	.uleb128 0x3f
 4259 024f 19        	.uleb128 0x19
 4260 0250 03        	.uleb128 0x3
 4261 0251 0E        	.uleb128 0xe
 4262 0252 3A        	.uleb128 0x3a
 4263 0253 0B        	.uleb128 0xb
 4264 0254 3B        	.uleb128 0x3b
 4265 0255 0B        	.uleb128 0xb
 4266 0256 27        	.uleb128 0x27
 4267 0257 19        	.uleb128 0x19
 4268 0258 11        	.uleb128 0x11
 4269 0259 01        	.uleb128 0x1
 4270 025a 12        	.uleb128 0x12
 4271 025b 06        	.uleb128 0x6
 4272 025c 40        	.uleb128 0x40
 4273 025d 18        	.uleb128 0x18
 4274 025e 9642      	.uleb128 0x2116
 4275 0260 19        	.uleb128 0x19
 4276 0261 00        	.byte0
 4277 0262 00        	.byte0
 4278 0263 2F        	.uleb128 0x2f
 4279 0264 34        	.uleb128 0x34
 4280 0265 00        	.byte0
 4281 0266 03        	.uleb128 0x3
68K GAS   			page 104


 4282 0267 0E        	.uleb128 0xe
 4283 0268 3A        	.uleb128 0x3a
 4284 0269 0B        	.uleb128 0xb
 4285 026a 3B        	.uleb128 0x3b
 4286 026b 0B        	.uleb128 0xb
 4287 026c 49        	.uleb128 0x49
 4288 026d 13        	.uleb128 0x13
 4289 026e 02        	.uleb128 0x2
 4290 026f 18        	.uleb128 0x18
 4291 0270 00        	.byte0
 4292 0271 00        	.byte0
 4293 0272 00        	.byte0
 4294               	.section.debug_aranges,"",@progbits
 4295 0000 0000 001C 	.long0x1c
 4296 0004 0002      	.word0x2
 4297 0006 0000 0000 	.long.Ldebug_info0
 4298 000a 04        	.byte0x4
 4299 000b 00        	.byte0
 4300 000c 0000      	.word0
 4301 000e 0000      	.word0
 4302 0010 0000 0000 	.long.Ltext0
 4303 0014 0000 083A 	.long.Letext0-.Ltext0
 4304 0018 0000 0000 	.long0
 4305 001c 0000 0000 	.long0
 4306               	.section.debug_line,"",@progbits
 4307               	.Ldebug_line0:
 4308 0000 0000 03BA 	.section.debug_str,"MS",@progbits,1
 4308      0002 0000 
 4308      0282 0201 
 4308      FB0E 0D00 
 4308      0101 0101 
 4309               	.LASF37:
 4310 0000 5F73 7369 	.string"_ssize_t"
 4310      7A65 5F74 
 4310      00
 4311               	.LASF139:
 4312 0009 5F5F 6C6F 	.string"__locale_t"
 4312      6361 6C65 
 4312      5F74 00
 4313               	.LASF42:
 4314 0014 5F5F 7661 	.string"__value"
 4314      6C75 6500 
 4315               	.LASF140:
 4316 001c 5F5F 7366 	.string"__sf"
 4316      00
 4317               	.LASF196:
 4318 0021 5469 6D65 	.string"TimeSinceTone"
 4318      5369 6E63 
 4318      6554 6F6E 
 4318      6500 
 4319               	.LASF159:
 4320 002f 4343 5344 	.string"CCSDS_PriHdr_t"
 4320      535F 5072 
 4320      6948 6472 
 4320      5F74 00
 4321               	.LASF77:
 4322 003e 5F72 6561 	.string"_read"
68K GAS   			page 105


 4322      6400 
 4323               	.LASF243:
 4324 0044 5065 6E64 	.string"PendingLeaps"
 4324      696E 674C 
 4324      6561 7073 
 4324      00
 4325               	.LASF211:
 4326 0051 4F6E 6548 	.string"OneHzAdjust"
 4326      7A41 646A 
 4326      7573 7400 
 4327               	.LASF78:
 4328 005d 5F77 7269 	.string"_write"
 4328      7465 00
 4329               	.LASF156:
 4330 0064 5374 7265 	.string"StreamId"
 4330      616D 4964 
 4330      00
 4331               	.LASF119:
 4332 006d 5F61 7363 	.string"_asctime_buf"
 4332      7469 6D65 
 4332      5F62 7566 
 4332      00
 4333               	.LASF237:
 4334 007a 4D73 6750 	.string"MsgPtr"
 4334      7472 00
 4335               	.LASF104:
 4336 0081 5F63 7674 	.string"_cvtlen"
 4336      6C65 6E00 
 4337               	.LASF180:
 4338 0089 436D 6443 	.string"CmdCounter"
 4338      6F75 6E74 
 4338      6572 00
 4339               	.LASF31:
 4340 0094 5F4D 7574 	.string"_Mutex_Control"
 4340      6578 5F43 
 4340      6F6E 7472 
 4340      6F6C 00
 4341               	.LASF254:
 4342 00a3 4C6F 6361 	.string"LocalSemaphore"
 4342      6C53 656D 
 4342      6170 686F 
 4342      7265 00
 4343               	.LASF143:
 4344 00b2 5F67 6C6F 	.string"_global_atexit"
 4344      6261 6C5F 
 4344      6174 6578 
 4344      6974 00
 4345               	.LASF240:
 4346 00c1 5069 7065 	.string"PipeDepth"
 4346      4465 7074 
 4346      6800 
 4347               	.LASF11:
 4348 00cb 7569 6E74 	.string"uint32"
 4348      3332 00
 4349               	.LASF138:
 4350 00d2 5F75 6E75 	.string"_unused"
 4350      7365 6400 
68K GAS   			page 106


 4351               	.LASF51:
 4352 00da 5F5F 746D 	.string"__tm"
 4352      00
 4353               	.LASF134:
 4354 00df 5F77 6373 	.string"_wcsrtombs_state"
 4354      7274 6F6D 
 4354      6273 5F73 
 4354      7461 7465 
 4354      00
 4355               	.LASF82:
 4356 00f0 5F6E 6275 	.string"_nbuf"
 4356      6600 
 4357               	.LASF52:
 4358 00f6 5F5F 746D 	.string"__tm_sec"
 4358      5F73 6563 
 4358      00
 4359               	.LASF30:
 4360 00ff 5F54 6872 	.string"_Thread_Control"
 4360      6561 645F 
 4360      436F 6E74 
 4360      726F 6C00 
 4361               	.LASF127:
 4362 010f 5F6C 3634 	.string"_l64a_buf"
 4362      615F 6275 
 4362      6600 
 4363               	.LASF207:
 4364 0119 4F6E 6554 	.string"OneTimeDirection"
 4364      696D 6544 
 4364      6972 6563 
 4364      7469 6F6E 
 4364      00
 4365               	.LASF91:
 4366 012a 5F73 7464 	.string"_stdin"
 4366      696E 00
 4367               	.LASF79:
 4368 0131 5F73 6565 	.string"_seek"
 4368      6B00 
 4369               	.LASF259:
 4370 0137 5379 6E63 	.string"SynchCallback"
 4370      6843 616C 
 4370      6C62 6163 
 4370      6B00 
 4371               	.LASF270:
 4372 0145 456C 6170 	.string"Elapsed"
 4372      7365 6400 
 4373               	.LASF115:
 4374 014d 5F6D 756C 	.string"_mult"
 4374      7400 
 4375               	.LASF265:
 4376 0153 4346 455F 	.string"CFE_TIME_Local1HzISR"
 4376      5449 4D45 
 4376      5F4C 6F63 
 4376      616C 3148 
 4376      7A49 5352 
 4377               	.LASF182:
 4378 0168 436C 6F63 	.string"ClockStateFlags"
 4378      6B53 7461 
68K GAS   			page 107


 4378      7465 466C 
 4378      6167 7300 
 4379               	.LASF39:
 4380 0178 5F5F 7763 	.string"__wch"
 4380      6800 
 4381               	.LASF194:
 4382 017e 4174 546F 	.string"AtToneDelay"
 4382      6E65 4465 
 4382      6C61 7900 
 4383               	.LASF74:
 4384 018a 5F66 696C 	.string"_file"
 4384      6500 
 4385               	.LASF279:
 4386 0190 7265 7375 	.string"result"
 4386      6C74 00
 4387               	.LASF61:
 4388 0197 5F6F 6E5F 	.string"_on_exit_args"
 4388      6578 6974 
 4388      5F61 7267 
 4388      7300 
 4389               	.LASF210:
 4390 01a5 4F6E 6554 	.string"OneTimeAdjust"
 4390      696D 6541 
 4390      646A 7573 
 4390      7400 
 4391               	.LASF130:
 4392 01b3 5F6D 6272 	.string"_mbrlen_state"
 4392      6C65 6E5F 
 4392      7374 6174 
 4392      6500 
 4393               	.LASF6:
 4394 01c1 6C6F 6E67 	.string"long int"
 4394      2069 6E74 
 4394      00
 4395               	.LASF189:
 4396 01ca 5365 636F 	.string"Seconds1HzAdj"
 4396      6E64 7331 
 4396      487A 4164 
 4396      6A00 
 4397               	.LASF141:
 4398 01d8 5F69 6D70 	.string"_impure_ptr"
 4398      7572 655F 
 4398      7074 7200 
 4399               	.LASF101:
 4400 01e4 5F72 6573 	.string"_result_k"
 4400      756C 745F 
 4400      6B00 
 4401               	.LASF175:
 4402 01ee 4174 546F 	.string"AtToneLeaps"
 4402      6E65 4C65 
 4402      6170 7300 
 4403               	.LASF71:
 4404 01fa 5F73 697A 	.string"_size"
 4404      6500 
 4405               	.LASF120:
 4406 0200 5F6C 6F63 	.string"_localtime_buf"
 4406      616C 7469 
68K GAS   			page 108


 4406      6D65 5F62 
 4406      7566 00
 4407               	.LASF227:
 4408 020f 4D61 784C 	.string"MaxLocalClock"
 4408      6F63 616C 
 4408      436C 6F63 
 4408      6B00 
 4409               	.LASF165:
 4410 021d 5072 696F 	.string"Priority"
 4410      7269 7479 
 4410      00
 4411               	.LASF168:
 4412 0226 4346 455F 	.string"CFE_SB_Default_Qos"
 4412      5342 5F44 
 4412      6566 6175 
 4412      6C74 5F51 
 4412      6F73 00
 4413               	.LASF56:
 4414 0239 5F5F 746D 	.string"__tm_mon"
 4414      5F6D 6F6E 
 4414      00
 4415               	.LASF199:
 4416 0242 4375 7272 	.string"CurrentTAI"
 4416      656E 7454 
 4416      4149 00
 4417               	.LASF241:
 4418 024d 5065 6E64 	.string"PendingMET"
 4418      696E 674D 
 4418      4554 00
 4419               	.LASF239:
 4420 0258 5069 7065 	.string"PipeName"
 4420      4E61 6D65 
 4420      00
 4421               	.LASF264:
 4422 0261 5265 7375 	.string"Result"
 4422      6C74 00
 4423               	.LASF192:
 4424 0268 546C 6D48 	.string"TlmHeader"
 4424      6561 6465 
 4424      7200 
 4425               	.LASF261:
 4426 0272 4346 455F 	.string"CFE_TIME_TaskData"
 4426      5449 4D45 
 4426      5F54 6173 
 4426      6B44 6174 
 4426      6100 
 4427               	.LASF187:
 4428 0284 5365 636F 	.string"SecondsSTCF"
 4428      6E64 7353 
 4428      5443 4600 
 4429               	.LASF117:
 4430 0290 5F75 6E75 	.string"_unused_rand"
 4430      7365 645F 
 4430      7261 6E64 
 4430      00
 4431               	.LASF1:
 4432 029d 7369 676E 	.string"signed char"
68K GAS   			page 109


 4432      6564 2063 
 4432      6861 7200 
 4433               	.LASF183:
 4434 02a9 436C 6F63 	.string"ClockStateAPI"
 4434      6B53 7461 
 4434      7465 4150 
 4434      4900 
 4435               	.LASF14:
 4436 02b7 626F 6F6C 	.string"boolean"
 4436      6561 6E00 
 4437               	.LASF162:
 4438 02bf 4346 455F 	.string"CFE_SB_Msg_t"
 4438      5342 5F4D 
 4438      7367 5F74 
 4438      00
 4439               	.LASF178:
 4440 02cc 5061 796C 	.string"Payload"
 4440      6F61 6400 
 4441               	.LASF275:
 4442 02d4 496E 7446 	.string"IntFlags"
 4442      6C61 6773 
 4442      00
 4443               	.LASF29:
 4444 02dd 5F54 6872 	.string"_Thread_queue_Heads"
 4444      6561 645F 
 4444      7175 6575 
 4444      655F 4865 
 4444      6164 7300 
 4445               	.LASF0:
 4446 02f1 756E 7369 	.string"unsigned char"
 4446      676E 6564 
 4446      2063 6861 
 4446      7200 
 4447               	.LASF256:
 4448 02ff 4C6F 6361 	.string"LocalTaskID"
 4448      6C54 6173 
 4448      6B49 4400 
 4449               	.LASF96:
 4450 030b 5F75 6E73 	.string"_unspecified_locale_info"
 4450      7065 6369 
 4450      6669 6564 
 4450      5F6C 6F63 
 4450      616C 655F 
 4451               	.LASF89:
 4452 0324 5F72 6565 	.string"_reent"
 4452      6E74 00
 4453               	.LASF142:
 4454 032b 5F67 6C6F 	.string"_global_impure_ptr"
 4454      6261 6C5F 
 4454      696D 7075 
 4454      7265 5F70 
 4454      7472 00
 4455               	.LASF231:
 4456 033e 4346 455F 	.string"CFE_TIME_DiagPacket_Payload_t"
 4456      5449 4D45 
 4456      5F44 6961 
 4456      6750 6163 
68K GAS   			page 110


 4456      6B65 745F 
 4457               	.LASF153:
 4458 035c 4346 455F 	.string"CFE_TIME_A_GT_B"
 4458      5449 4D45 
 4458      5F41 5F47 
 4458      545F 4200 
 4459               	.LASF212:
 4460 036c 546F 6E65 	.string"ToneSignalLatch"
 4460      5369 676E 
 4460      616C 4C61 
 4460      7463 6800 
 4461               	.LASF274:
 4462 037c 4E65 7746 	.string"NewFlywheelStatus"
 4462      6C79 7768 
 4462      6565 6C53 
 4462      7461 7475 
 4462      7300 
 4463               	.LASF24:
 4464 038e 5F54 6872 	.string"_Thread_queue_Queue"
 4464      6561 645F 
 4464      7175 6575 
 4464      655F 5175 
 4464      6575 6500 
 4465               	.LASF172:
 4466 03a2 4346 455F 	.string"CFE_TIME_FakeToneCmd_t"
 4466      5449 4D45 
 4466      5F46 616B 
 4466      6554 6F6E 
 4466      6543 6D64 
 4467               	.LASF15:
 4468 03b9 6368 6172 	.string"char"
 4468      00
 4469               	.LASF68:
 4470 03be 5F66 6E73 	.string"_fns"
 4470      00
 4471               	.LASF80:
 4472 03c3 5F63 6C6F 	.string"_close"
 4472      7365 00
 4473               	.LASF152:
 4474 03ca 4346 455F 	.string"CFE_TIME_EQUAL"
 4474      5449 4D45 
 4474      5F45 5155 
 4474      414C 00
 4475               	.LASF186:
 4476 03d9 5375 6273 	.string"SubsecsMET"
 4476      6563 734D 
 4476      4554 00
 4477               	.LASF260:
 4478 03e4 4346 455F 	.string"CFE_TIME_TaskData_t"
 4478      5449 4D45 
 4478      5F54 6173 
 4478      6B44 6174 
 4478      615F 7400 
 4479               	.LASF216:
 4480 03f8 546F 6E65 	.string"ToneSignalCount"
 4480      5369 676E 
 4480      616C 436F 
68K GAS   			page 111


 4480      756E 7400 
 4481               	.LASF245:
 4482 0408 496E 7465 	.string"InternalCount"
 4482      726E 616C 
 4482      436F 756E 
 4482      7400 
 4483               	.LASF23:
 4484 0416 5F54 6963 	.string"_Ticket_lock_Control"
 4484      6B65 745F 
 4484      6C6F 636B 
 4484      5F43 6F6E 
 4484      7472 6F6C 
 4485               	.LASF169:
 4486 042b 436D 6448 	.string"CmdHeader"
 4486      6561 6465 
 4486      7200 
 4487               	.LASF148:
 4488 0435 5365 636F 	.string"Seconds"
 4488      6E64 7300 
 4489               	.LASF160:
 4490 043d 4477 6F72 	.string"Dword"
 4490      6400 
 4491               	.LASF258:
 4492 0443 4D61 7844 	.string"MaxDelta"
 4492      656C 7461 
 4492      00
 4493               	.LASF221:
 4494 044c 5665 7273 	.string"VersionCount"
 4494      696F 6E43 
 4494      6F75 6E74 
 4494      00
 4495               	.LASF288:
 4496 0459 4346 455F 	.string"CFE_TIME_ToneSignal"
 4496      5449 4D45 
 4496      5F54 6F6E 
 4496      6553 6967 
 4496      6E61 6C00 
 4497               	.LASF27:
 4498 046d 5F6F 776E 	.string"_owner"
 4498      6572 00
 4499               	.LASF238:
 4500 0474 436D 6450 	.string"CmdPipe"
 4500      6970 6500 
 4501               	.LASF229:
 4502 047c 546F 6E65 	.string"ToneUnderLimit"
 4502      556E 6465 
 4502      724C 696D 
 4502      6974 00
 4503               	.LASF280:
 4504 048b 656C 6170 	.string"elapsed"
 4504      7365 6400 
 4505               	.LASF173:
 4506 0493 4174 546F 	.string"AtToneMET"
 4506      6E65 4D45 
 4506      5400 
 4507               	.LASF222:
 4508 049d 4C6F 6361 	.string"LocalIntCount"
68K GAS   			page 112


 4508      6C49 6E74 
 4508      436F 756E 
 4508      7400 
 4509               	.LASF181:
 4510 04ab 4572 7243 	.string"ErrCounter"
 4510      6F75 6E74 
 4510      6572 00
 4511               	.LASF266:
 4512 04b6 5265 6665 	.string"Reference"
 4512      7265 6E63 
 4512      6500 
 4513               	.LASF220:
 4514 04c0 546F 6E65 	.string"ToneTaskCount"
 4514      5461 736B 
 4514      436F 756E 
 4514      7400 
 4515               	.LASF147:
 4516 04ce 5F74 7A6E 	.string"_tzname"
 4516      616D 6500 
 4517               	.LASF268:
 4518 04d6 4346 455F 	.string"CFE_TIME_Tone1HzTask"
 4518      5449 4D45 
 4518      5F54 6F6E 
 4518      6531 487A 
 4518      5461 736B 
 4519               	.LASF35:
 4520 04eb 5F6E 6573 	.string"_nest_level"
 4520      745F 6C65 
 4520      7665 6C00 
 4521               	.LASF204:
 4522 04f7 436C 6F63 	.string"ClockSignal"
 4522      6B53 6967 
 4522      6E61 6C00 
 4523               	.LASF76:
 4524 0503 5F63 6F6F 	.string"_cookie"
 4524      6B69 6500 
 4525               	.LASF50:
 4526 050b 5F77 6473 	.string"_wds"
 4526      00
 4527               	.LASF203:
 4528 0510 436C 6F63 	.string"ClockSource"
 4528      6B53 6F75 
 4528      7263 6500 
 4529               	.LASF202:
 4530 051c 436C 6F63 	.string"ClockFlyState"
 4530      6B46 6C79 
 4530      5374 6174 
 4530      6500 
 4531               	.LASF107:
 4532 052a 5F73 6967 	.string"_sig_func"
 4532      5F66 756E 
 4532      6300 
 4533               	.LASF84:
 4534 0534 5F6F 6666 	.string"_offset"
 4534      7365 7400 
 4535               	.LASF105:
 4536 053c 5F63 7674 	.string"_cvtbuf"
68K GAS   			page 113


 4536      6275 6600 
 4537               	.LASF228:
 4538 0544 546F 6E65 	.string"ToneOverLimit"
 4538      4F76 6572 
 4538      4C69 6D69 
 4538      7400 
 4539               	.LASF20:
 4540 0552 5F6E 6578 	.string"_next_ticket"
 4540      745F 7469 
 4540      636B 6574 
 4540      00
 4541               	.LASF155:
 4542 055f 4346 455F 	.string"CFE_TIME_SynchCallbackPtr_t"
 4542      5449 4D45 
 4542      5F53 796E 
 4542      6368 4361 
 4542      6C6C 6261 
 4543               	.LASF102:
 4544 057b 5F70 3573 	.string"_p5s"
 4544      00
 4545               	.LASF12:
 4546 0580 6C6F 6E67 	.string"long unsigned int"
 4546      2075 6E73 
 4546      6967 6E65 
 4546      6420 696E 
 4546      7400 
 4547               	.LASF252:
 4548 0592 546F 6E65 	.string"ToneDataCmd"
 4548      4461 7461 
 4548      436D 6400 
 4549               	.LASF72:
 4550 059e 5F5F 7346 	.string"__sFILE"
 4550      494C 4500 
 4551               	.LASF98:
 4552 05a6 5F5F 7364 	.string"__sdidinit"
 4552      6964 696E 
 4552      6974 00
 4553               	.LASF88:
 4554 05b1 5F66 6C61 	.string"_flags2"
 4554      6773 3200 
 4555               	.LASF283:
 4556 05b9 4346 455F 	.string"CFE_TIME_ToneData"
 4556      5449 4D45 
 4556      5F54 6F6E 
 4556      6544 6174 
 4556      6100 
 4557               	.LASF263:
 4558 05cb 4346 455F 	.string"CFE_TIME_Local1HzTask"
 4558      5449 4D45 
 4558      5F4C 6F63 
 4558      616C 3148 
 4558      7A54 6173 
 4559               	.LASF174:
 4560 05e1 4174 546F 	.string"AtToneSTCF"
 4560      6E65 5354 
 4560      4346 00
 4561               	.LASF36:
68K GAS   			page 114


 4562 05ec 5F4C 4F43 	.string"_LOCK_RECURSIVE_T"
 4562      4B5F 5245 
 4562      4355 5253 
 4562      4956 455F 
 4562      5400 
 4563               	.LASF190:
 4564 05fe 5375 6273 	.string"Subsecs1HzAdj"
 4564      6563 7331 
 4564      487A 4164 
 4564      6A00 
 4565               	.LASF90:
 4566 060c 5F65 7272 	.string"_errno"
 4566      6E6F 00
 4567               	.LASF272:
 4568 0613 5469 6D65 	.string"TimerId"
 4568      7249 6400 
 4569               	.LASF128:
 4570 061b 5F73 6967 	.string"_signal_buf"
 4570      6E61 6C5F 
 4570      6275 6600 
 4571               	.LASF267:
 4572 0627 4E65 7753 	.string"NewSTCF"
 4572      5443 4600 
 4573               	.LASF46:
 4574 062f 5F42 6967 	.string"_Bigint"
 4574      696E 7400 
 4575               	.LASF242:
 4576 0637 5065 6E64 	.string"PendingSTCF"
 4576      696E 6753 
 4576      5443 4600 
 4577               	.LASF48:
 4578 0643 5F6D 6178 	.string"_maxwds"
 4578      7764 7300 
 4579               	.LASF99:
 4580 064b 5F5F 636C 	.string"__cleanup"
 4580      6561 6E75 
 4580      7000 
 4581               	.LASF255:
 4582 0655 546F 6E65 	.string"ToneSemaphore"
 4582      5365 6D61 
 4582      7068 6F72 
 4582      6500 
 4583               	.LASF234:
 4584 0663 4346 455F 	.string"CFE_TIME_SynchCallbackRegEntry_t"
 4584      5449 4D45 
 4584      5F53 796E 
 4584      6368 4361 
 4584      6C6C 6261 
 4585               	.LASF184:
 4586 0684 4C65 6170 	.string"LeapSeconds"
 4586      5365 636F 
 4586      6E64 7300 
 4587               	.LASF95:
 4588 0690 5F65 6D65 	.string"_emergency"
 4588      7267 656E 
 4588      6379 00
 4589               	.LASF7:
68K GAS   			page 115


 4590 069b 6C6F 6E67 	.string"long long int"
 4590      206C 6F6E 
 4590      6720 696E 
 4590      7400 
 4591               	.LASF179:
 4592 06a9 4346 455F 	.string"CFE_TIME_ToneDataCmd_t"
 4592      5449 4D45 
 4592      5F54 6F6E 
 4592      6544 6174 
 4592      6143 6D64 
 4593               	.LASF214:
 4594 06c0 546F 6E65 	.string"ToneMatchCount"
 4594      4D61 7463 
 4594      6843 6F75 
 4594      6E74 00
 4595               	.LASF111:
 4596 06cf 5F6E 696F 	.string"_niobs"
 4596      6273 00
 4597               	.LASF253:
 4598 06d6 546F 6E65 	.string"ToneSignalCmd"
 4598      5369 676E 
 4598      616C 436D 
 4598      6400 
 4599               	.LASF108:
 4600 06e4 5F5F 7367 	.string"__sglue"
 4600      6C75 6500 
 4601               	.LASF205:
 4602 06ec 5365 7276 	.string"ServerFlyState"
 4602      6572 466C 
 4602      7953 7461 
 4602      7465 00
 4603               	.LASF137:
 4604 06fb 5F6E 6D61 	.string"_nmalloc"
 4604      6C6C 6F63 
 4604      00
 4605               	.LASF121:
 4606 0704 5F67 616D 	.string"_gamma_signgam"
 4606      6D61 5F73 
 4606      6967 6E67 
 4606      616D 00
 4607               	.LASF103:
 4608 0713 5F66 7265 	.string"_freelist"
 4608      656C 6973 
 4608      7400 
 4609               	.LASF112:
 4610 071d 5F69 6F62 	.string"_iobs"
 4610      7300 
 4611               	.LASF170:
 4612 0723 4346 455F 	.string"CFE_TIME_1HzCmd_t"
 4612      5449 4D45 
 4612      5F31 487A 
 4612      436D 645F 
 4612      7400 
 4613               	.LASF110:
 4614 0735 5F67 6C75 	.string"_glue"
 4614      6500 
 4615               	.LASF49:
68K GAS   			page 116


 4616 073b 5F73 6967 	.string"_sign"
 4616      6E00 
 4617               	.LASF224:
 4618 0741 5669 7274 	.string"VirtualMET"
 4618      7561 6C4D 
 4618      4554 00
 4619               	.LASF22:
 4620 074c 756E 7369 	.string"unsigned int"
 4620      676E 6564 
 4620      2069 6E74 
 4620      00
 4621               	.LASF145:
 4622 0759 5F74 696D 	.string"_timezone"
 4622      657A 6F6E 
 4622      6500 
 4623               	.LASF135:
 4624 0763 5F68 5F65 	.string"_h_errno"
 4624      7272 6E6F 
 4624      00
 4625               	.LASF133:
 4626 076c 5F77 6372 	.string"_wcrtomb_state"
 4626      746F 6D62 
 4626      5F73 7461 
 4626      7465 00
 4627               	.LASF247:
 4628 077b 4175 746F 	.string"AutoStartFly"
 4628      5374 6172 
 4628      7446 6C79 
 4628      00
 4629               	.LASF55:
 4630 0788 5F5F 746D 	.string"__tm_mday"
 4630      5F6D 6461 
 4630      7900 
 4631               	.LASF106:
 4632 0792 5F6E 6577 	.string"_new"
 4632      00
 4633               	.LASF28:
 4634 0797 5F6E 616D 	.string"_name"
 4634      6500 
 4635               	.LASF81:
 4636 079d 5F75 6275 	.string"_ubuf"
 4636      6600 
 4637               	.LASF166:
 4638 07a3 5265 6C69 	.string"Reliability"
 4638      6162 696C 
 4638      6974 7900 
 4639               	.LASF93:
 4640 07af 5F73 7464 	.string"_stderr"
 4640      6572 7200 
 4641               	.LASF126:
 4642 07b7 5F77 6374 	.string"_wctomb_state"
 4642      6F6D 625F 
 4642      7374 6174 
 4642      6500 
 4643               	.LASF87:
 4644 07c5 5F6D 6273 	.string"_mbstate"
 4644      7461 7465 
68K GAS   			page 117


 4644      00
 4645               	.LASF269:
 4646 07ce 4346 455F 	.string"CFE_TIME_Tone1HzISR"
 4646      5449 4D45 
 4646      5F54 6F6E 
 4646      6531 487A 
 4646      4953 5200 
 4647               	.LASF122:
 4648 07e2 5F72 616E 	.string"_rand_next"
 4648      645F 6E65 
 4648      7874 00
 4649               	.LASF73:
 4650 07ed 5F66 6C61 	.string"_flags"
 4650      6773 00
 4651               	.LASF66:
 4652 07f4 5F61 7465 	.string"_atexit"
 4652      7869 7400 
 4653               	.LASF289:
 4654 07fc 4346 455F 	.string"CFE_TIME_ToneSend"
 4654      5449 4D45 
 4654      5F54 6F6E 
 4654      6553 656E 
 4654      6400 
 4655               	.LASF149:
 4656 080e 5375 6273 	.string"Subseconds"
 4656      6563 6F6E 
 4656      6473 00
 4657               	.LASF191:
 4658 0819 4346 455F 	.string"CFE_TIME_HkPacket_Payload_t"
 4658      5449 4D45 
 4658      5F48 6B50 
 4658      6163 6B65 
 4658      745F 5061 
 4659               	.LASF41:
 4660 0835 5F5F 636F 	.string"__count"
 4660      756E 7400 
 4661               	.LASF249:
 4662 083d 5370 6172 	.string"Spare"
 4662      6500 
 4663               	.LASF193:
 4664 0843 4346 455F 	.string"CFE_TIME_HkPacket_t"
 4664      5449 4D45 
 4664      5F48 6B50 
 4664      6163 6B65 
 4664      745F 7400 
 4665               	.LASF171:
 4666 0857 4346 455F 	.string"CFE_TIME_ToneSignalCmd_t"
 4666      5449 4D45 
 4666      5F54 6F6E 
 4666      6553 6967 
 4666      6E61 6C43 
 4667               	.LASF58:
 4668 0870 5F5F 746D 	.string"__tm_wday"
 4668      5F77 6461 
 4668      7900 
 4669               	.LASF244:
 4670 087a 5065 6E64 	.string"PendingState"
68K GAS   			page 118


 4670      696E 6753 
 4670      7461 7465 
 4670      00
 4671               	.LASF161:
 4672 0887 4279 7465 	.string"Byte"
 4672      00
 4673               	.LASF17:
 4674 088c 6C6F 6E67 	.string"long double"
 4674      2064 6F75 
 4674      626C 6500 
 4675               	.LASF59:
 4676 0898 5F5F 746D 	.string"__tm_yday"
 4676      5F79 6461 
 4676      7900 
 4677               	.LASF233:
 4678 08a2 4346 455F 	.string"CFE_TIME_Reference_t"
 4678      5449 4D45 
 4678      5F52 6566 
 4678      6572 656E 
 4678      6365 5F74 
 4679               	.LASF33:
 4680 08b7 5F4D 7574 	.string"_Mutex_recursive_Control"
 4680      6578 5F72 
 4680      6563 7572 
 4680      7369 7665 
 4680      5F43 6F6E 
 4681               	.LASF26:
 4682 08d0 5F68 6561 	.string"_heads"
 4682      6473 00
 4683               	.LASF114:
 4684 08d7 5F73 6565 	.string"_seed"
 4684      6400 
 4685               	.LASF281:
 4686 08dd 5072 6576 	.string"PrevTime1"
 4686      5469 6D65 
 4686      3100 
 4687               	.LASF282:
 4688 08e7 5072 6576 	.string"PrevTime2"
 4688      5469 6D65 
 4688      3200 
 4689               	.LASF32:
 4690 08f1 5F51 7565 	.string"_Queue"
 4690      7565 00
 4691               	.LASF232:
 4692 08f8 4346 455F 	.string"CFE_TIME_DiagPacket_t"
 4692      5449 4D45 
 4692      5F44 6961 
 4692      6750 6163 
 4692      6B65 745F 
 4693               	.LASF250:
 4694 090e 4C6F 6361 	.string"Local1HzCmd"
 4694      6C31 487A 
 4694      436D 6400 
 4695               	.LASF19:
 4696 091a 5F66 706F 	.string"_fpos_t"
 4696      735F 7400 
 4697               	.LASF40:
68K GAS   			page 119


 4698 0922 5F5F 7763 	.string"__wchb"
 4698      6862 00
 4699               	.LASF125:
 4700 0929 5F6D 6274 	.string"_mbtowc_state"
 4700      6F77 635F 
 4700      7374 6174 
 4700      6500 
 4701               	.LASF215:
 4702 0937 546F 6E65 	.string"ToneMatchErrors"
 4702      4D61 7463 
 4702      6845 7272 
 4702      6F72 7300 
 4703               	.LASF13:
 4704 0947 6C6F 6E67 	.string"long long unsigned int"
 4704      206C 6F6E 
 4704      6720 756E 
 4704      7369 676E 
 4704      6564 2069 
 4705               	.LASF213:
 4706 095e 546F 6E65 	.string"ToneDataLatch"
 4706      4461 7461 
 4706      4C61 7463 
 4706      6800 
 4707               	.LASF63:
 4708 096c 5F64 736F 	.string"_dso_handle"
 4708      5F68 616E 
 4708      646C 6500 
 4709               	.LASF113:
 4710 0978 5F72 616E 	.string"_rand48"
 4710      6434 3800 
 4711               	.LASF92:
 4712 0980 5F73 7464 	.string"_stdout"
 4712      6F75 7400 
 4713               	.LASF83:
 4714 0988 5F62 6C6B 	.string"_blksize"
 4714      7369 7A65 
 4714      00
 4715               	.LASF70:
 4716 0991 5F62 6173 	.string"_base"
 4716      6500 
 4717               	.LASF217:
 4718 0997 546F 6E65 	.string"ToneDataCount"
 4718      4461 7461 
 4718      436F 756E 
 4718      7400 
 4719               	.LASF118:
 4720 09a5 5F73 7472 	.string"_strtok_last"
 4720      746F 6B5F 
 4720      6C61 7374 
 4720      00
 4721               	.LASF131:
 4722 09b2 5F6D 6272 	.string"_mbrtowc_state"
 4722      746F 7763 
 4722      5F73 7461 
 4722      7465 00
 4723               	.LASF198:
 4724 09c1 4375 7272 	.string"CurrentMET"
68K GAS   			page 120


 4724      656E 744D 
 4724      4554 00
 4725               	.LASF44:
 4726 09cc 5F66 6C6F 	.string"_flock_t"
 4726      636B 5F74 
 4726      00
 4727               	.LASF284:
 4728 09d5 4E65 774D 	.string"NewMET"
 4728      4554 00
 4729               	.LASF223:
 4730 09dc 4C6F 6361 	.string"LocalTaskCount"
 4730      6C54 6173 
 4730      6B43 6F75 
 4730      6E74 00
 4731               	.LASF109:
 4732 09eb 5F5F 4649 	.string"__FILE"
 4732      4C45 00
 4733               	.LASF86:
 4734 09f2 5F6C 6F63 	.string"_lock"
 4734      6B00 
 4735               	.LASF43:
 4736 09f8 5F6D 6273 	.string"_mbstate_t"
 4736      7461 7465 
 4736      5F74 00
 4737               	.LASF219:
 4738 0a03 546F 6E65 	.string"ToneIntErrors"
 4738      496E 7445 
 4738      7272 6F72 
 4738      7300 
 4739               	.LASF123:
 4740 0a11 5F72 3438 	.string"_r48"
 4740      00
 4741               	.LASF158:
 4742 0a16 4C65 6E67 	.string"Length"
 4742      7468 00
 4743               	.LASF38:
 4744 0a1d 7769 6E74 	.string"wint_t"
 4744      5F74 00
 4745               	.LASF2:
 4746 0a24 6F73 616C 	.string"osalbool"
 4746      626F 6F6C 
 4746      00
 4747               	.LASF47:
 4748 0a2d 5F6E 6578 	.string"_next"
 4748      7400 
 4749               	.LASF85:
 4750 0a33 5F64 6174 	.string"_data"
 4750      6100 
 4751               	.LASF177:
 4752 0a39 4346 455F 	.string"CFE_TIME_ToneDataCmd_Payload_t"
 4752      5449 4D45 
 4752      5F54 6F6E 
 4752      6544 6174 
 4752      6143 6D64 
 4753               	.LASF176:
 4754 0a58 4174 546F 	.string"AtToneState"
 4754      6E65 5374 
68K GAS   			page 121


 4754      6174 6500 
 4755               	.LASF286:
 4756 0a64 2F68 6F6D 	.string"/home/simulink/cFS_FreeRTOS_seL4/cfe/fsw/cfe-core/src/time/cfe_time_tone.c"
 4756      652F 7369 
 4756      6D75 6C69 
 4756      6E6B 2F63 
 4756      4653 5F46 
 4757               	.LASF248:
 4758 0aaf 4973 546F 	.string"IsToneGood"
 4758      6E65 476F 
 4758      6F64 00
 4759               	.LASF257:
 4760 0aba 546F 6E65 	.string"ToneTaskID"
 4760      5461 736B 
 4760      4944 00
 4761               	.LASF151:
 4762 0ac5 4346 455F 	.string"CFE_TIME_A_LT_B"
 4762      5449 4D45 
 4762      5F41 5F4C 
 4762      545F 4200 
 4763               	.LASF163:
 4764 0ad5 4346 455F 	.string"CFE_SB_PipeId_t"
 4764      5342 5F50 
 4764      6970 6549 
 4764      645F 7400 
 4765               	.LASF226:
 4766 0ae5 4D61 7845 	.string"MaxElapsed"
 4766      6C61 7073 
 4766      6564 00
 4767               	.LASF34:
 4768 0af0 5F4D 7574 	.string"_Mutex"
 4768      6578 00
 4769               	.LASF218:
 4770 0af7 546F 6E65 	.string"ToneIntCount"
 4770      496E 7443 
 4770      6F75 6E74 
 4770      00
 4771               	.LASF8:
 4772 0b04 7569 6E74 	.string"uint8"
 4772      3800 
 4773               	.LASF287:
 4774 0b0a 2F68 6F6D 	.string"/home/simulink/cFS_FreeRTOS_seL4/build/cpu1/cfe/time"
 4774      652F 7369 
 4774      6D75 6C69 
 4774      6E6B 2F63 
 4774      4653 5F46 
 4775               	.LASF124:
 4776 0b3f 5F6D 626C 	.string"_mblen_state"
 4776      656E 5F73 
 4776      7461 7465 
 4776      00
 4777               	.LASF4:
 4778 0b4c 7368 6F72 	.string"short int"
 4778      7420 696E 
 4778      7400 
 4779               	.LASF276:
 4780 0b56 4346 455F 	.string"CFE_TIME_ToneVerify"
68K GAS   			page 122


 4780      5449 4D45 
 4780      5F54 6F6E 
 4780      6556 6572 
 4780      6966 7900 
 4781               	.LASF230:
 4782 0b6a 4461 7461 	.string"DataStoreStatus"
 4782      5374 6F72 
 4782      6553 7461 
 4782      7475 7300 
 4783               	.LASF144:
 4784 0b7a 7375 626F 	.string"suboptarg"
 4784      7074 6172 
 4784      6700 
 4785               	.LASF200:
 4786 0b84 4375 7272 	.string"CurrentUTC"
 4786      656E 7455 
 4786      5443 00
 4787               	.LASF64:
 4788 0b8f 5F66 6E74 	.string"_fntypes"
 4788      7970 6573 
 4788      00
 4789               	.LASF57:
 4790 0b98 5F5F 746D 	.string"__tm_year"
 4790      5F79 6561 
 4790      7200 
 4791               	.LASF246:
 4792 0ba2 4578 7465 	.string"ExternalCount"
 4792      726E 616C 
 4792      436F 756E 
 4792      7400 
 4793               	.LASF197:
 4794 0bb0 4375 7272 	.string"CurrentLatch"
 4794      656E 744C 
 4794      6174 6368 
 4794      00
 4795               	.LASF262:
 4796 0bbd 4346 455F 	.string"CFE_TIME_NotifyTimeSynchApps"
 4796      5449 4D45 
 4796      5F4E 6F74 
 4796      6966 7954 
 4796      696D 6553 
 4797               	.LASF75:
 4798 0bda 5F6C 6266 	.string"_lbfsize"
 4798      7369 7A65 
 4798      00
 4799               	.LASF94:
 4800 0be3 5F69 6E63 	.string"_inc"
 4800      00
 4801               	.LASF67:
 4802 0be8 5F69 6E64 	.string"_ind"
 4802      00
 4803               	.LASF225:
 4804 0bed 4D69 6E45 	.string"MinElapsed"
 4804      6C61 7073 
 4804      6564 00
 4805               	.LASF16:
 4806 0bf8 5F5F 696E 	.string"__int64_t"
68K GAS   			page 123


 4806      7436 345F 
 4806      7400 
 4807               	.LASF3:
 4808 0c02 696E 7431 	.string"int16"
 4808      3600 
 4809               	.LASF69:
 4810 0c08 5F5F 7362 	.string"__sbuf"
 4810      7566 00
 4811               	.LASF65:
 4812 0c0f 5F69 735F 	.string"_is_cxa"
 4812      6378 6100 
 4813               	.LASF150:
 4814 0c17 4346 455F 	.string"CFE_TIME_SysTime_t"
 4814      5449 4D45 
 4814      5F53 7973 
 4814      5469 6D65 
 4814      5F74 00
 4815               	.LASF136:
 4816 0c2a 5F6E 6578 	.string"_nextf"
 4816      7466 00
 4817               	.LASF185:
 4818 0c31 5365 636F 	.string"SecondsMET"
 4818      6E64 734D 
 4818      4554 00
 4819               	.LASF201:
 4820 0c3c 436C 6F63 	.string"ClockSetState"
 4820      6B53 6574 
 4820      5374 6174 
 4820      6500 
 4821               	.LASF97:
 4822 0c4a 5F6C 6F63 	.string"_locale"
 4822      616C 6500 
 4823               	.LASF45:
 4824 0c52 5F5F 554C 	.string"__ULong"
 4824      6F6E 6700 
 4825               	.LASF206:
 4826 0c5a 466F 7263 	.string"Forced2Fly"
 4826      6564 3246 
 4826      6C79 00
 4827               	.LASF277:
 4828 0c65 5469 6D65 	.string"Time1"
 4828      3100 
 4829               	.LASF278:
 4830 0c6b 5469 6D65 	.string"Time2"
 4830      3200 
 4831               	.LASF100:
 4832 0c71 5F72 6573 	.string"_result"
 4832      756C 7400 
 4833               	.LASF25:
 4834 0c79 5F4C 6F63 	.string"_Lock"
 4834      6B00 
 4835               	.LASF21:
 4836 0c7f 5F6E 6F77 	.string"_now_serving"
 4836      5F73 6572 
 4836      7669 6E67 
 4836      00
 4837               	.LASF208:
68K GAS   			page 124


 4838 0c8c 4F6E 6548 	.string"OneHzDirection"
 4838      7A44 6972 
 4838      6563 7469 
 4838      6F6E 00
 4839               	.LASF236:
 4840 0c9b 4469 6167 	.string"DiagPacket"
 4840      5061 636B 
 4840      6574 00
 4841               	.LASF188:
 4842 0ca6 5375 6273 	.string"SubsecsSTCF"
 4842      6563 7353 
 4842      5443 4600 
 4843               	.LASF235:
 4844 0cb2 486B 5061 	.string"HkPacket"
 4844      636B 6574 
 4844      00
 4845               	.LASF18:
 4846 0cbb 5F6F 6666 	.string"_off_t"
 4846      5F74 00
 4847               	.LASF116:
 4848 0cc2 5F61 6464 	.string"_add"
 4848      00
 4849               	.LASF285:
 4850 0cc7 474E 5520 	.string"GNU C11 7.3.0 20180125 (RTEMS 5, RSB d2b25d131d55adcb38219f2cd8cbec2436ee78ab, Newlib 3.0.0) -malign-int -mcpu=528x -g -O0 -fomit-frame-pointer"
 4850      4331 3120 
 4850      372E 332E 
 4850      3020 3230 
 4850      3138 3031 
 4851               	.LASF10:
 4852 0d57 7368 6F72 	.string"short unsigned int"
 4852      7420 756E 
 4852      7369 676E 
 4852      6564 2069 
 4852      6E74 00
 4853               	.LASF54:
 4854 0d6a 5F5F 746D 	.string"__tm_hour"
 4854      5F68 6F75 
 4854      7200 
 4855               	.LASF251:
 4856 0d74 4661 6B65 	.string"FakeToneCmd"
 4856      546F 6E65 
 4856      436D 6400 
 4857               	.LASF5:
 4858 0d80 696E 7433 	.string"int32"
 4858      3200 
 4859               	.LASF157:
 4860 0d86 5365 7175 	.string"Sequence"
 4860      656E 6365 
 4860      00
 4861               	.LASF132:
 4862 0d8f 5F6D 6273 	.string"_mbsrtowcs_state"
 4862      7274 6F77 
 4862      6373 5F73 
 4862      7461 7465 
 4862      00
 4863               	.LASF273:
 4864 0da0 4346 455F 	.string"CFE_TIME_ToneUpdate"
68K GAS   			page 125


 4864      5449 4D45 
 4864      5F54 6F6E 
 4864      6555 7064 
 4864      6174 6500 
 4865               	.LASF154:
 4866 0db4 4346 455F 	.string"CFE_TIME_Compare_t"
 4866      5449 4D45 
 4866      5F43 6F6D 
 4866      7061 7265 
 4866      5F74 00
 4867               	.LASF271:
 4868 0dc7 4346 455F 	.string"CFE_TIME_Local1HzTimerCallback"
 4868      5449 4D45 
 4868      5F4C 6F63 
 4868      616C 3148 
 4868      7A54 696D 
 4869               	.LASF62:
 4870 0de6 5F66 6E61 	.string"_fnargs"
 4870      7267 7300 
 4871               	.LASF60:
 4872 0dee 5F5F 746D 	.string"__tm_isdst"
 4872      5F69 7364 
 4872      7374 00
 4873               	.LASF209:
 4874 0df9 4465 6C61 	.string"DelayDirection"
 4874      7944 6972 
 4874      6563 7469 
 4874      6F6E 00
 4875               	.LASF146:
 4876 0e08 5F64 6179 	.string"_daylight"
 4876      6C69 6768 
 4876      7400 
 4877               	.LASF164:
 4878 0e12 4346 455F 	.string"CFE_SB_MsgPtr_t"
 4878      5342 5F4D 
 4878      7367 5074 
 4878      725F 7400 
 4879               	.LASF53:
 4880 0e22 5F5F 746D 	.string"__tm_min"
 4880      5F6D 696E 
 4880      00
 4881               	.LASF9:
 4882 0e2b 7569 6E74 	.string"uint16"
 4882      3136 00
 4883               	.LASF129:
 4884 0e32 5F67 6574 	.string"_getdate_err"
 4884      6461 7465 
 4884      5F65 7272 
 4884      00
 4885               	.LASF167:
 4886 0e3f 4346 455F 	.string"CFE_SB_Qos_t"
 4886      5342 5F51 
 4886      6F73 5F74 
 4886      00
 4887               	.LASF195:
 4888 0e4c 4174 546F 	.string"AtToneLatch"
 4888      6E65 4C61 
68K GAS   			page 126


 4888      7463 6800 
 4889               	.ident"GCC: (GNU) 7.3.0 20180125 (RTEMS 5, RSB d2b25d131d55adcb38219f2cd8cbec2436ee78ab, Newlib 3.0.0)"
68K GAS   			page 127


DEFINED SYMBOLS
                            *ABS*:0000000000000000 cfe_time_tone.c
    {standard input}:9      .text:0000000000000000 CFE_TIME_ToneSend
    {standard input}:96     .text:00000000000000b4 CFE_TIME_ToneData
    {standard input}:168    .text:000000000000015e CFE_TIME_ToneVerify
    {standard input}:150    .text:000000000000014c CFE_TIME_ToneSignal
    {standard input}:993    .bss:0000000000000000 PrevTime1.5301
    {standard input}:995    .bss:0000000000000008 PrevTime2.5302
    {standard input}:327    .text:00000000000002e2 CFE_TIME_ToneUpdate
    {standard input}:451    .text:00000000000003ea CFE_TIME_Local1HzTimerCallback
    {standard input}:681    .text:00000000000005c0 CFE_TIME_Local1HzISR
    {standard input}:466    .text:00000000000003f4 CFE_TIME_Tone1HzISR
    {standard input}:944    .text:00000000000007f6 CFE_TIME_NotifyTimeSynchApps
    {standard input}:614    .text:0000000000000554 CFE_TIME_Tone1HzTask
    {standard input}:853    .text:000000000000074e CFE_TIME_Local1HzTask

UNDEFINED SYMBOLS
CFE_PSP_MemSet
CFE_TIME_GetReference
CFE_TIME_TaskData
CFE_TIME_CalculateState
CFE_SB_SendMsg
CFE_TIME_LatchClock
CFE_TIME_Compare
CFE_TIME_Subtract
CFE_TIME_Add
OS_IntLock
OS_IntUnlock
CFE_EVS_SendEvent
CFE_ES_PerfLogAdd
OS_BinSemGive
CFE_ES_RegisterChildTask
CFE_ES_IncrementTaskCounter
OS_BinSemTake
