68K GAS   			page 1


   1               	
   2               	.file"cfe_time_task.c"
   3               	.text
   4               	.Ltext0:
   5               	.cfi_sections.debug_frame
   6               	.commCFE_TIME_TaskData,584,4
   7               	.align2
   8               	.globlCFE_TIME_EarlyInit
   9               	.typeCFE_TIME_EarlyInit, @function
  10               	CFE_TIME_EarlyInit:
  11               	.LFB59:
  12               	.file 1 "/home/simulink/cFS_FreeRTOS_seL4/cfe/fsw/cfe-core/src/time/cfe_time_task.c"
   1:/home/simulink/cFS_FreeRTOS_seL4/cfe/fsw/cfe-core/src/time/cfe_time_task.c **** /*
   2:/home/simulink/cFS_FreeRTOS_seL4/cfe/fsw/cfe-core/src/time/cfe_time_task.c **** ** $Id: cfe_time_task.c 1.8 2014/04/14 10:51:39GMT-05:00 lwalling Exp  $
   3:/home/simulink/cFS_FreeRTOS_seL4/cfe/fsw/cfe-core/src/time/cfe_time_task.c **** **
   4:/home/simulink/cFS_FreeRTOS_seL4/cfe/fsw/cfe-core/src/time/cfe_time_task.c **** **
   5:/home/simulink/cFS_FreeRTOS_seL4/cfe/fsw/cfe-core/src/time/cfe_time_task.c **** **      Copyright (c) 2004-2012, United States government as represented by the
   6:/home/simulink/cFS_FreeRTOS_seL4/cfe/fsw/cfe-core/src/time/cfe_time_task.c **** **      administrator of the National Aeronautics Space Administration.
   7:/home/simulink/cFS_FreeRTOS_seL4/cfe/fsw/cfe-core/src/time/cfe_time_task.c **** **      All rights reserved. This software(cFE) was created at NASA's Goddard
   8:/home/simulink/cFS_FreeRTOS_seL4/cfe/fsw/cfe-core/src/time/cfe_time_task.c **** **      Space Flight Center pursuant to government contracts.
   9:/home/simulink/cFS_FreeRTOS_seL4/cfe/fsw/cfe-core/src/time/cfe_time_task.c **** **
  10:/home/simulink/cFS_FreeRTOS_seL4/cfe/fsw/cfe-core/src/time/cfe_time_task.c **** **      This is governed by the NASA Open Source Agreement and may be used,
  11:/home/simulink/cFS_FreeRTOS_seL4/cfe/fsw/cfe-core/src/time/cfe_time_task.c **** **      distributed and modified only pursuant to the terms of that agreement.
  12:/home/simulink/cFS_FreeRTOS_seL4/cfe/fsw/cfe-core/src/time/cfe_time_task.c **** **
  13:/home/simulink/cFS_FreeRTOS_seL4/cfe/fsw/cfe-core/src/time/cfe_time_task.c **** **
  14:/home/simulink/cFS_FreeRTOS_seL4/cfe/fsw/cfe-core/src/time/cfe_time_task.c **** **
  15:/home/simulink/cFS_FreeRTOS_seL4/cfe/fsw/cfe-core/src/time/cfe_time_task.c **** **
  16:/home/simulink/cFS_FreeRTOS_seL4/cfe/fsw/cfe-core/src/time/cfe_time_task.c **** ** Subsystem: cFE TIME Task
  17:/home/simulink/cFS_FreeRTOS_seL4/cfe/fsw/cfe-core/src/time/cfe_time_task.c **** **
  18:/home/simulink/cFS_FreeRTOS_seL4/cfe/fsw/cfe-core/src/time/cfe_time_task.c **** ** Author: S. Walling (Microtel)
  19:/home/simulink/cFS_FreeRTOS_seL4/cfe/fsw/cfe-core/src/time/cfe_time_task.c **** **
  20:/home/simulink/cFS_FreeRTOS_seL4/cfe/fsw/cfe-core/src/time/cfe_time_task.c **** ** Notes:
  21:/home/simulink/cFS_FreeRTOS_seL4/cfe/fsw/cfe-core/src/time/cfe_time_task.c **** **
  22:/home/simulink/cFS_FreeRTOS_seL4/cfe/fsw/cfe-core/src/time/cfe_time_task.c **** ** $Log: cfe_time_task.c  $
  23:/home/simulink/cFS_FreeRTOS_seL4/cfe/fsw/cfe-core/src/time/cfe_time_task.c **** ** Revision 1.8 2014/04/14 10:51:39GMT-05:00 lwalling 
  24:/home/simulink/cFS_FreeRTOS_seL4/cfe/fsw/cfe-core/src/time/cfe_time_task.c **** ** Created platform config definitions for Time 1HZ and Time TONE task priorities and stack sizes
  25:/home/simulink/cFS_FreeRTOS_seL4/cfe/fsw/cfe-core/src/time/cfe_time_task.c **** ** Revision 1.7 2012/09/28 16:31:14EDT aschoeni 
  26:/home/simulink/cFS_FreeRTOS_seL4/cfe/fsw/cfe-core/src/time/cfe_time_task.c **** ** Removed Interrupt Enable fixme
  27:/home/simulink/cFS_FreeRTOS_seL4/cfe/fsw/cfe-core/src/time/cfe_time_task.c **** ** Revision 1.6 2012/01/18 16:33:35EST jmdagost 
  28:/home/simulink/cFS_FreeRTOS_seL4/cfe/fsw/cfe-core/src/time/cfe_time_task.c **** ** Updated no-op event msg to include cFE version numbers.
  29:/home/simulink/cFS_FreeRTOS_seL4/cfe/fsw/cfe-core/src/time/cfe_time_task.c **** ** Revision 1.5 2012/01/13 12:21:35EST acudmore 
  30:/home/simulink/cFS_FreeRTOS_seL4/cfe/fsw/cfe-core/src/time/cfe_time_task.c **** ** Changed license text to reflect open source
  31:/home/simulink/cFS_FreeRTOS_seL4/cfe/fsw/cfe-core/src/time/cfe_time_task.c **** ** Revision 1.4 2011/11/30 15:10:04EST jmdagost 
  32:/home/simulink/cFS_FreeRTOS_seL4/cfe/fsw/cfe-core/src/time/cfe_time_task.c **** ** Replaced ifdef/ifndef preprocessor tests with if...==TRUE/if...!=TRUE tests
  33:/home/simulink/cFS_FreeRTOS_seL4/cfe/fsw/cfe-core/src/time/cfe_time_task.c **** ** Revision 1.3 2009/06/08 16:13:07EDT lwalling 
  34:/home/simulink/cFS_FreeRTOS_seL4/cfe/fsw/cfe-core/src/time/cfe_time_task.c **** ** Change 1Hz adjust cmd arg from micro-seconds to sub-seconds
  35:/home/simulink/cFS_FreeRTOS_seL4/cfe/fsw/cfe-core/src/time/cfe_time_task.c **** ** Revision 1.2 2008/07/31 15:41:26EDT apcudmore 
  36:/home/simulink/cFS_FreeRTOS_seL4/cfe/fsw/cfe-core/src/time/cfe_time_task.c **** ** Added execution counter API:
  37:/home/simulink/cFS_FreeRTOS_seL4/cfe/fsw/cfe-core/src/time/cfe_time_task.c **** **   -- Added execution counter to ES internal task data
  38:/home/simulink/cFS_FreeRTOS_seL4/cfe/fsw/cfe-core/src/time/cfe_time_task.c **** **   -- Added code to increment counter in RunLoop
  39:/home/simulink/cFS_FreeRTOS_seL4/cfe/fsw/cfe-core/src/time/cfe_time_task.c **** **   -- Added code to report counter in GetInfo APIs
  40:/home/simulink/cFS_FreeRTOS_seL4/cfe/fsw/cfe-core/src/time/cfe_time_task.c **** **   -- Added API to increment counter for child tasks
  41:/home/simulink/cFS_FreeRTOS_seL4/cfe/fsw/cfe-core/src/time/cfe_time_task.c **** **   -- Added code to cFE Core apps to increment counters.
  42:/home/simulink/cFS_FreeRTOS_seL4/cfe/fsw/cfe-core/src/time/cfe_time_task.c **** ** Revision 1.1 2008/04/17 08:05:39EDT ruperera 
  43:/home/simulink/cFS_FreeRTOS_seL4/cfe/fsw/cfe-core/src/time/cfe_time_task.c **** ** Initial revision
  44:/home/simulink/cFS_FreeRTOS_seL4/cfe/fsw/cfe-core/src/time/cfe_time_task.c **** ** Member added to project c:/MKSDATA/MKS-REPOSITORY/MKS-CFE-PROJECT/fsw/cfe-core/src/time/project.
  45:/home/simulink/cFS_FreeRTOS_seL4/cfe/fsw/cfe-core/src/time/cfe_time_task.c **** ** Revision 1.28 2007/09/21 15:40:15EDT David Kobe (dlkobe) 
68K GAS   			page 2


  46:/home/simulink/cFS_FreeRTOS_seL4/cfe/fsw/cfe-core/src/time/cfe_time_task.c **** ** Modified pointer type definitions to eliminate Linux gcc compile warnings
  47:/home/simulink/cFS_FreeRTOS_seL4/cfe/fsw/cfe-core/src/time/cfe_time_task.c **** ** Revision 1.27 2007/07/18 10:23:55EDT njyanchik 
  48:/home/simulink/cFS_FreeRTOS_seL4/cfe/fsw/cfe-core/src/time/cfe_time_task.c **** ** I changed the 'Result' variable to 'Status in the ifdef.
  49:/home/simulink/cFS_FreeRTOS_seL4/cfe/fsw/cfe-core/src/time/cfe_time_task.c **** ** Revision 1.26 2007/05/15 11:00:14EDT rjmcgraw 
  50:/home/simulink/cFS_FreeRTOS_seL4/cfe/fsw/cfe-core/src/time/cfe_time_task.c **** ** DCR78:11 Exit main loop for CFE_SB_RcvMsg errors
  51:/home/simulink/cFS_FreeRTOS_seL4/cfe/fsw/cfe-core/src/time/cfe_time_task.c **** ** Revision 1.25 2007/04/27 16:59:26EDT rjmcgraw 
  52:/home/simulink/cFS_FreeRTOS_seL4/cfe/fsw/cfe-core/src/time/cfe_time_task.c **** ** DCR2987:4 Standardize task init error code
  53:/home/simulink/cFS_FreeRTOS_seL4/cfe/fsw/cfe-core/src/time/cfe_time_task.c **** ** Revision 1.24 2007/04/27 12:31:04EDT njyanchik 
  54:/home/simulink/cFS_FreeRTOS_seL4/cfe/fsw/cfe-core/src/time/cfe_time_task.c **** ** I changed EVS and TIME to not have a telemetry counter for SB pipe reads in the main loop. 
  55:/home/simulink/cFS_FreeRTOS_seL4/cfe/fsw/cfe-core/src/time/cfe_time_task.c **** ** Instead, I have added a syslog message to state the problem
  56:/home/simulink/cFS_FreeRTOS_seL4/cfe/fsw/cfe-core/src/time/cfe_time_task.c **** ** Revision 1.23 2007/04/13 16:22:05EDT apcudmore 
  57:/home/simulink/cFS_FreeRTOS_seL4/cfe/fsw/cfe-core/src/time/cfe_time_task.c **** ** Changed EarlyInit function prototype to return int32 status.
  58:/home/simulink/cFS_FreeRTOS_seL4/cfe/fsw/cfe-core/src/time/cfe_time_task.c **** ** Revision 1.22 2007/04/11 11:02:05EDT njyanchik 
  59:/home/simulink/cFS_FreeRTOS_seL4/cfe/fsw/cfe-core/src/time/cfe_time_task.c **** ** Remove the TaskDelay in the main loop for TIME. I also addeda counterin telemtry that will
  60:/home/simulink/cFS_FreeRTOS_seL4/cfe/fsw/cfe-core/src/time/cfe_time_task.c **** ** notify the ground of an error in reading the command pipe.
  61:/home/simulink/cFS_FreeRTOS_seL4/cfe/fsw/cfe-core/src/time/cfe_time_task.c **** ** Revision 1.21 2007/04/09 14:47:52EDT rjmcgraw 
  62:/home/simulink/cFS_FreeRTOS_seL4/cfe/fsw/cfe-core/src/time/cfe_time_task.c **** ** Changed names of performance ids to include CFE_
  63:/home/simulink/cFS_FreeRTOS_seL4/cfe/fsw/cfe-core/src/time/cfe_time_task.c **** ** Revision 1.20 2007/02/01 16:10:03EST rjmcgraw 
  64:/home/simulink/cFS_FreeRTOS_seL4/cfe/fsw/cfe-core/src/time/cfe_time_task.c **** ** Changed time and tone pkt subscriptions to local for server
  65:/home/simulink/cFS_FreeRTOS_seL4/cfe/fsw/cfe-core/src/time/cfe_time_task.c **** ** Revision 1.19 2006/11/01 11:33:17EST njyanchik 
  66:/home/simulink/cFS_FreeRTOS_seL4/cfe/fsw/cfe-core/src/time/cfe_time_task.c **** ** This change removes any references to the CDS in TIME. TIME now uses  the ES
  67:/home/simulink/cFS_FreeRTOS_seL4/cfe/fsw/cfe-core/src/time/cfe_time_task.c **** ** Reset Area to store its critial variables. this was due to an issue of trying to call
  68:/home/simulink/cFS_FreeRTOS_seL4/cfe/fsw/cfe-core/src/time/cfe_time_task.c **** ** CDS functions before apps were registered (in the EarlyInit call).
  69:/home/simulink/cFS_FreeRTOS_seL4/cfe/fsw/cfe-core/src/time/cfe_time_task.c **** ** Revision 1.18 2006/07/28 09:17:15GMT-05:00 njyanchik 
  70:/home/simulink/cFS_FreeRTOS_seL4/cfe/fsw/cfe-core/src/time/cfe_time_task.c **** ** Fix of LDRA errors
  71:/home/simulink/cFS_FreeRTOS_seL4/cfe/fsw/cfe-core/src/time/cfe_time_task.c **** ** Revision 1.17 2006/06/21 13:24:12EDT kkaudra 
  72:/home/simulink/cFS_FreeRTOS_seL4/cfe/fsw/cfe-core/src/time/cfe_time_task.c **** ** Removed cfe_es_perf.h
  73:/home/simulink/cFS_FreeRTOS_seL4/cfe/fsw/cfe-core/src/time/cfe_time_task.c **** ** Revision 1.16 2006/06/13 16:28:07EDT rjmcgraw 
  74:/home/simulink/cFS_FreeRTOS_seL4/cfe/fsw/cfe-core/src/time/cfe_time_task.c **** ** osperf to perf changes
  75:/home/simulink/cFS_FreeRTOS_seL4/cfe/fsw/cfe-core/src/time/cfe_time_task.c **** */
  76:/home/simulink/cFS_FreeRTOS_seL4/cfe/fsw/cfe-core/src/time/cfe_time_task.c **** 
  77:/home/simulink/cFS_FreeRTOS_seL4/cfe/fsw/cfe-core/src/time/cfe_time_task.c **** 
  78:/home/simulink/cFS_FreeRTOS_seL4/cfe/fsw/cfe-core/src/time/cfe_time_task.c **** /*
  79:/home/simulink/cFS_FreeRTOS_seL4/cfe/fsw/cfe-core/src/time/cfe_time_task.c **** ** Required header files...
  80:/home/simulink/cFS_FreeRTOS_seL4/cfe/fsw/cfe-core/src/time/cfe_time_task.c **** */
  81:/home/simulink/cFS_FreeRTOS_seL4/cfe/fsw/cfe-core/src/time/cfe_time_task.c **** #include "cfe_time_utils.h"
  82:/home/simulink/cFS_FreeRTOS_seL4/cfe/fsw/cfe-core/src/time/cfe_time_task.c **** #include "cfe_version.h"
  83:/home/simulink/cFS_FreeRTOS_seL4/cfe/fsw/cfe-core/src/time/cfe_time_task.c **** 
  84:/home/simulink/cFS_FreeRTOS_seL4/cfe/fsw/cfe-core/src/time/cfe_time_task.c **** /*
  85:/home/simulink/cFS_FreeRTOS_seL4/cfe/fsw/cfe-core/src/time/cfe_time_task.c **** ** Time task global data...
  86:/home/simulink/cFS_FreeRTOS_seL4/cfe/fsw/cfe-core/src/time/cfe_time_task.c **** */
  87:/home/simulink/cFS_FreeRTOS_seL4/cfe/fsw/cfe-core/src/time/cfe_time_task.c **** CFE_TIME_TaskData_t CFE_TIME_TaskData;
  88:/home/simulink/cFS_FreeRTOS_seL4/cfe/fsw/cfe-core/src/time/cfe_time_task.c **** 
  89:/home/simulink/cFS_FreeRTOS_seL4/cfe/fsw/cfe-core/src/time/cfe_time_task.c **** 
  90:/home/simulink/cFS_FreeRTOS_seL4/cfe/fsw/cfe-core/src/time/cfe_time_task.c **** /*
  91:/home/simulink/cFS_FreeRTOS_seL4/cfe/fsw/cfe-core/src/time/cfe_time_task.c **** ** Command handler for "HK request"...
  92:/home/simulink/cFS_FreeRTOS_seL4/cfe/fsw/cfe-core/src/time/cfe_time_task.c **** */
  93:/home/simulink/cFS_FreeRTOS_seL4/cfe/fsw/cfe-core/src/time/cfe_time_task.c **** void  CFE_TIME_HousekeepingCmd(void);
  94:/home/simulink/cFS_FreeRTOS_seL4/cfe/fsw/cfe-core/src/time/cfe_time_task.c **** 
  95:/home/simulink/cFS_FreeRTOS_seL4/cfe/fsw/cfe-core/src/time/cfe_time_task.c **** /*
  96:/home/simulink/cFS_FreeRTOS_seL4/cfe/fsw/cfe-core/src/time/cfe_time_task.c **** ** Command handler for "tone signal detected"...
  97:/home/simulink/cFS_FreeRTOS_seL4/cfe/fsw/cfe-core/src/time/cfe_time_task.c **** */
  98:/home/simulink/cFS_FreeRTOS_seL4/cfe/fsw/cfe-core/src/time/cfe_time_task.c **** void  CFE_TIME_ToneSignalCmd(void);
  99:/home/simulink/cFS_FreeRTOS_seL4/cfe/fsw/cfe-core/src/time/cfe_time_task.c **** 
 100:/home/simulink/cFS_FreeRTOS_seL4/cfe/fsw/cfe-core/src/time/cfe_time_task.c **** /*
 101:/home/simulink/cFS_FreeRTOS_seL4/cfe/fsw/cfe-core/src/time/cfe_time_task.c **** ** Command handler for "time at the tone"...
 102:/home/simulink/cFS_FreeRTOS_seL4/cfe/fsw/cfe-core/src/time/cfe_time_task.c **** */
68K GAS   			page 3


 103:/home/simulink/cFS_FreeRTOS_seL4/cfe/fsw/cfe-core/src/time/cfe_time_task.c **** void  CFE_TIME_ToneDataCmd(CFE_SB_MsgPayloadPtr_t Payload);
 104:/home/simulink/cFS_FreeRTOS_seL4/cfe/fsw/cfe-core/src/time/cfe_time_task.c **** 
 105:/home/simulink/cFS_FreeRTOS_seL4/cfe/fsw/cfe-core/src/time/cfe_time_task.c **** /*
 106:/home/simulink/cFS_FreeRTOS_seL4/cfe/fsw/cfe-core/src/time/cfe_time_task.c **** ** Command handler for "fake tone"...
 107:/home/simulink/cFS_FreeRTOS_seL4/cfe/fsw/cfe-core/src/time/cfe_time_task.c **** */
 108:/home/simulink/cFS_FreeRTOS_seL4/cfe/fsw/cfe-core/src/time/cfe_time_task.c **** #if (CFE_TIME_CFG_FAKE_TONE == TRUE)
 109:/home/simulink/cFS_FreeRTOS_seL4/cfe/fsw/cfe-core/src/time/cfe_time_task.c **** void CFE_TIME_FakeToneCmd(void);
 110:/home/simulink/cFS_FreeRTOS_seL4/cfe/fsw/cfe-core/src/time/cfe_time_task.c **** #endif
 111:/home/simulink/cFS_FreeRTOS_seL4/cfe/fsw/cfe-core/src/time/cfe_time_task.c **** 
 112:/home/simulink/cFS_FreeRTOS_seL4/cfe/fsw/cfe-core/src/time/cfe_time_task.c **** /*
 113:/home/simulink/cFS_FreeRTOS_seL4/cfe/fsw/cfe-core/src/time/cfe_time_task.c **** ** Command handler for "request time at the tone"...
 114:/home/simulink/cFS_FreeRTOS_seL4/cfe/fsw/cfe-core/src/time/cfe_time_task.c **** **
 115:/home/simulink/cFS_FreeRTOS_seL4/cfe/fsw/cfe-core/src/time/cfe_time_task.c **** ** Note: This command (sent by the scheduler) is used to
 116:/home/simulink/cFS_FreeRTOS_seL4/cfe/fsw/cfe-core/src/time/cfe_time_task.c **** **       signal that now is the right time (in relation
 117:/home/simulink/cFS_FreeRTOS_seL4/cfe/fsw/cfe-core/src/time/cfe_time_task.c **** **       to the "real" tone signal) for a Time Server to
 118:/home/simulink/cFS_FreeRTOS_seL4/cfe/fsw/cfe-core/src/time/cfe_time_task.c **** **       send the "time at the tone" data packet.  We do
 119:/home/simulink/cFS_FreeRTOS_seL4/cfe/fsw/cfe-core/src/time/cfe_time_task.c **** **       not need (or want) this command if we are not a
 120:/home/simulink/cFS_FreeRTOS_seL4/cfe/fsw/cfe-core/src/time/cfe_time_task.c **** **       Time Server, or if we are configured to operate
 121:/home/simulink/cFS_FreeRTOS_seL4/cfe/fsw/cfe-core/src/time/cfe_time_task.c **** **       in "fake tone" mode, or if we are configured to
 122:/home/simulink/cFS_FreeRTOS_seL4/cfe/fsw/cfe-core/src/time/cfe_time_task.c **** **       get time data from an external source.
 123:/home/simulink/cFS_FreeRTOS_seL4/cfe/fsw/cfe-core/src/time/cfe_time_task.c **** */
 124:/home/simulink/cFS_FreeRTOS_seL4/cfe/fsw/cfe-core/src/time/cfe_time_task.c **** #if (CFE_TIME_CFG_SERVER == TRUE)
 125:/home/simulink/cFS_FreeRTOS_seL4/cfe/fsw/cfe-core/src/time/cfe_time_task.c ****   #if (CFE_TIME_CFG_SOURCE != TRUE)
 126:/home/simulink/cFS_FreeRTOS_seL4/cfe/fsw/cfe-core/src/time/cfe_time_task.c ****     #if (CFE_TIME_CFG_FAKE_TONE != TRUE)
 127:/home/simulink/cFS_FreeRTOS_seL4/cfe/fsw/cfe-core/src/time/cfe_time_task.c **** void CFE_TIME_ToneSendCmd(void);
 128:/home/simulink/cFS_FreeRTOS_seL4/cfe/fsw/cfe-core/src/time/cfe_time_task.c ****     #endif
 129:/home/simulink/cFS_FreeRTOS_seL4/cfe/fsw/cfe-core/src/time/cfe_time_task.c ****   #endif
 130:/home/simulink/cFS_FreeRTOS_seL4/cfe/fsw/cfe-core/src/time/cfe_time_task.c **** #endif
 131:/home/simulink/cFS_FreeRTOS_seL4/cfe/fsw/cfe-core/src/time/cfe_time_task.c **** 
 132:/home/simulink/cFS_FreeRTOS_seL4/cfe/fsw/cfe-core/src/time/cfe_time_task.c **** /*
 133:/home/simulink/cFS_FreeRTOS_seL4/cfe/fsw/cfe-core/src/time/cfe_time_task.c **** ** Ground command handlers...
 134:/home/simulink/cFS_FreeRTOS_seL4/cfe/fsw/cfe-core/src/time/cfe_time_task.c **** */
 135:/home/simulink/cFS_FreeRTOS_seL4/cfe/fsw/cfe-core/src/time/cfe_time_task.c **** void CFE_TIME_NoopCmd(void);
 136:/home/simulink/cFS_FreeRTOS_seL4/cfe/fsw/cfe-core/src/time/cfe_time_task.c **** void CFE_TIME_ResetCmd(void);
 137:/home/simulink/cFS_FreeRTOS_seL4/cfe/fsw/cfe-core/src/time/cfe_time_task.c **** void CFE_TIME_DiagCmd(void);
 138:/home/simulink/cFS_FreeRTOS_seL4/cfe/fsw/cfe-core/src/time/cfe_time_task.c **** void CFE_TIME_SetStateCmd(CFE_SB_MsgPayloadPtr_t PayloadPtr);
 139:/home/simulink/cFS_FreeRTOS_seL4/cfe/fsw/cfe-core/src/time/cfe_time_task.c **** void CFE_TIME_SetSourceCmd(CFE_SB_MsgPayloadPtr_t PayloadPtr);
 140:/home/simulink/cFS_FreeRTOS_seL4/cfe/fsw/cfe-core/src/time/cfe_time_task.c **** void CFE_TIME_SetSignalCmd(CFE_SB_MsgPayloadPtr_t PayloadPtr);
 141:/home/simulink/cFS_FreeRTOS_seL4/cfe/fsw/cfe-core/src/time/cfe_time_task.c **** void CFE_TIME_SetDelayCmd(CFE_SB_MsgPayloadPtr_t PayloadPtr, int16 Direction);
 142:/home/simulink/cFS_FreeRTOS_seL4/cfe/fsw/cfe-core/src/time/cfe_time_task.c **** void CFE_TIME_SetTimeCmd(CFE_SB_MsgPayloadPtr_t PayloadPtr);
 143:/home/simulink/cFS_FreeRTOS_seL4/cfe/fsw/cfe-core/src/time/cfe_time_task.c **** void CFE_TIME_SetMETCmd(CFE_SB_MsgPayloadPtr_t PayloadPtr);
 144:/home/simulink/cFS_FreeRTOS_seL4/cfe/fsw/cfe-core/src/time/cfe_time_task.c **** void CFE_TIME_SetSTCFCmd(CFE_SB_MsgPayloadPtr_t PayloadPtr);
 145:/home/simulink/cFS_FreeRTOS_seL4/cfe/fsw/cfe-core/src/time/cfe_time_task.c **** void CFE_TIME_SetLeapsCmd(CFE_SB_MsgPayloadPtr_t PayloadPtr);
 146:/home/simulink/cFS_FreeRTOS_seL4/cfe/fsw/cfe-core/src/time/cfe_time_task.c **** void CFE_TIME_AdjustCmd(CFE_SB_MsgPayloadPtr_t PayloadPtr, int16 Direction);
 147:/home/simulink/cFS_FreeRTOS_seL4/cfe/fsw/cfe-core/src/time/cfe_time_task.c **** void CFE_TIME_1HzAdjCmd(CFE_SB_MsgPayloadPtr_t PayloadPtr, int16 Direction);
 148:/home/simulink/cFS_FreeRTOS_seL4/cfe/fsw/cfe-core/src/time/cfe_time_task.c **** 
 149:/home/simulink/cFS_FreeRTOS_seL4/cfe/fsw/cfe-core/src/time/cfe_time_task.c **** 
 150:/home/simulink/cFS_FreeRTOS_seL4/cfe/fsw/cfe-core/src/time/cfe_time_task.c **** /* * * * * * * * * * * * * * * * * * * * * * * * * * * * * * * * * */
 151:/home/simulink/cFS_FreeRTOS_seL4/cfe/fsw/cfe-core/src/time/cfe_time_task.c **** /*                                                                 */
 152:/home/simulink/cFS_FreeRTOS_seL4/cfe/fsw/cfe-core/src/time/cfe_time_task.c **** /* CFE_TIME_EarlyInit() -- API initialization before any tasks     */
 153:/home/simulink/cFS_FreeRTOS_seL4/cfe/fsw/cfe-core/src/time/cfe_time_task.c **** /*                                                                 */
 154:/home/simulink/cFS_FreeRTOS_seL4/cfe/fsw/cfe-core/src/time/cfe_time_task.c **** /* * * * * * * * * * * * * * * * * * * * * * * * * * * * * * * * * */
 155:/home/simulink/cFS_FreeRTOS_seL4/cfe/fsw/cfe-core/src/time/cfe_time_task.c **** 
 156:/home/simulink/cFS_FreeRTOS_seL4/cfe/fsw/cfe-core/src/time/cfe_time_task.c **** int32 CFE_TIME_EarlyInit(void)
 157:/home/simulink/cFS_FreeRTOS_seL4/cfe/fsw/cfe-core/src/time/cfe_time_task.c **** {
  13               	.loc 1 157 0
  14               	.cfi_startproc
68K GAS   			page 4


 158:/home/simulink/cFS_FreeRTOS_seL4/cfe/fsw/cfe-core/src/time/cfe_time_task.c ****     /*
 159:/home/simulink/cFS_FreeRTOS_seL4/cfe/fsw/cfe-core/src/time/cfe_time_task.c ****     ** Initialize global Time Services data...
 160:/home/simulink/cFS_FreeRTOS_seL4/cfe/fsw/cfe-core/src/time/cfe_time_task.c ****     */
 161:/home/simulink/cFS_FreeRTOS_seL4/cfe/fsw/cfe-core/src/time/cfe_time_task.c ****     CFE_TIME_InitData();
  15               	.loc 1 161 0
  16 0000 4EB9 0000 	jsr CFE_TIME_InitData
  16      0000 
 162:/home/simulink/cFS_FreeRTOS_seL4/cfe/fsw/cfe-core/src/time/cfe_time_task.c **** 
 163:/home/simulink/cFS_FreeRTOS_seL4/cfe/fsw/cfe-core/src/time/cfe_time_task.c ****     return ( CFE_SUCCESS);
  17               	.loc 1 163 0
  18 0006 4280      	clr.l %d0
 164:/home/simulink/cFS_FreeRTOS_seL4/cfe/fsw/cfe-core/src/time/cfe_time_task.c **** 
 165:/home/simulink/cFS_FreeRTOS_seL4/cfe/fsw/cfe-core/src/time/cfe_time_task.c **** } /* End of CFE_TIME_EarlyInit() */
  19               	.loc 1 165 0
  20 0008 4E75      	rts
  21               	.cfi_endproc
  22               	.LFE59:
  23               	.sizeCFE_TIME_EarlyInit, .-CFE_TIME_EarlyInit
  24               	.section.rodata
  25               	.LC0:
  26 0000 5449 4D45 	.string"TIME:Application Init Failed,RC=0x%08X\n"
  26      3A41 7070 
  26      6C69 6361 
  26      7469 6F6E 
  26      2049 6E69 
  27               	.LC1:
  28 0028 5449 4D45 	.string"TIME:Error reading cmd pipe,RC=0x%08X\n"
  28      3A45 7272 
  28      6F72 2072 
  28      6561 6469 
  28      6E67 2063 
  29               	.text
  30               	.align2
  31               	.globlCFE_TIME_TaskMain
  32               	.typeCFE_TIME_TaskMain, @function
  33               	CFE_TIME_TaskMain:
  34               	.LFB60:
 166:/home/simulink/cFS_FreeRTOS_seL4/cfe/fsw/cfe-core/src/time/cfe_time_task.c **** 
 167:/home/simulink/cFS_FreeRTOS_seL4/cfe/fsw/cfe-core/src/time/cfe_time_task.c **** 
 168:/home/simulink/cFS_FreeRTOS_seL4/cfe/fsw/cfe-core/src/time/cfe_time_task.c **** /* * * * * * * * * * * * * * * * * * * * * * * * * * * * * * * * * */
 169:/home/simulink/cFS_FreeRTOS_seL4/cfe/fsw/cfe-core/src/time/cfe_time_task.c **** /*                                                                 */
 170:/home/simulink/cFS_FreeRTOS_seL4/cfe/fsw/cfe-core/src/time/cfe_time_task.c **** /* CFE_TIME_TaskMain() -- Task entry point and main process loop   */
 171:/home/simulink/cFS_FreeRTOS_seL4/cfe/fsw/cfe-core/src/time/cfe_time_task.c **** /*                                                                 */
 172:/home/simulink/cFS_FreeRTOS_seL4/cfe/fsw/cfe-core/src/time/cfe_time_task.c **** /* * * * * * * * * * * * * * * * * * * * * * * * * * * * * * * * * */
 173:/home/simulink/cFS_FreeRTOS_seL4/cfe/fsw/cfe-core/src/time/cfe_time_task.c **** 
 174:/home/simulink/cFS_FreeRTOS_seL4/cfe/fsw/cfe-core/src/time/cfe_time_task.c **** void CFE_TIME_TaskMain(void)
 175:/home/simulink/cFS_FreeRTOS_seL4/cfe/fsw/cfe-core/src/time/cfe_time_task.c **** {
  35               	.loc 1 175 0
  36               	.cfi_startproc
  37 000a 598F      	subq.l #4,%sp
  38               	.cfi_def_cfa_offset 8
 176:/home/simulink/cFS_FreeRTOS_seL4/cfe/fsw/cfe-core/src/time/cfe_time_task.c ****     int32  Status;
 177:/home/simulink/cFS_FreeRTOS_seL4/cfe/fsw/cfe-core/src/time/cfe_time_task.c ****   
 178:/home/simulink/cFS_FreeRTOS_seL4/cfe/fsw/cfe-core/src/time/cfe_time_task.c ****     CFE_ES_PerfLogEntry(CFE_TIME_MAIN_PERF_ID);
  39               	.loc 1 178 0
  40 000c 42A7      	clr.l -(%sp)
  41               	.cfi_def_cfa_offset 12
68K GAS   			page 5


  42 000e 4878 0006 	pea 6.w
  43               	.cfi_def_cfa_offset 16
  44 0012 4EB9 0000 	jsr CFE_ES_PerfLogAdd
  44      0000 
  45 0018 508F      	addq.l #8,%sp
  46               	.cfi_def_cfa_offset 8
 179:/home/simulink/cFS_FreeRTOS_seL4/cfe/fsw/cfe-core/src/time/cfe_time_task.c ****   
 180:/home/simulink/cFS_FreeRTOS_seL4/cfe/fsw/cfe-core/src/time/cfe_time_task.c ****     Status = CFE_TIME_TaskInit();
  47               	.loc 1 180 0
  48 001a 4EB9 0000 	jsr CFE_TIME_TaskInit
  48      0000 
  49 0020 2E80      	move.l %d0,(%sp)
 181:/home/simulink/cFS_FreeRTOS_seL4/cfe/fsw/cfe-core/src/time/cfe_time_task.c ****     
 182:/home/simulink/cFS_FreeRTOS_seL4/cfe/fsw/cfe-core/src/time/cfe_time_task.c ****     if(Status != CFE_SUCCESS)
  50               	.loc 1 182 0
  51 0022 4A97      	tst.l (%sp)
  52 0024 672E      	jeq .L4
 183:/home/simulink/cFS_FreeRTOS_seL4/cfe/fsw/cfe-core/src/time/cfe_time_task.c ****     {
 184:/home/simulink/cFS_FreeRTOS_seL4/cfe/fsw/cfe-core/src/time/cfe_time_task.c ****       CFE_ES_WriteToSysLog("TIME:Application Init Failed,RC=0x%08X\n", (unsigned int)Status);
  53               	.loc 1 184 0
  54 0026 2017      	move.l (%sp),%d0
  55 0028 2F00      	move.l %d0,-(%sp)
  56               	.cfi_def_cfa_offset 12
  57 002a 4879 0000 	pea .LC0
  57      0000 
  58               	.cfi_def_cfa_offset 16
  59 0030 4EB9 0000 	jsr CFE_ES_WriteToSysLog
  59      0000 
  60 0036 508F      	addq.l #8,%sp
  61               	.cfi_def_cfa_offset 8
 185:/home/simulink/cFS_FreeRTOS_seL4/cfe/fsw/cfe-core/src/time/cfe_time_task.c ****       CFE_ES_PerfLogExit(CFE_TIME_MAIN_PERF_ID);
  62               	.loc 1 185 0
  63 0038 4878 0001 	pea 1.w
  64               	.cfi_def_cfa_offset 12
  65 003c 4878 0006 	pea 6.w
  66               	.cfi_def_cfa_offset 16
  67 0040 4EB9 0000 	jsr CFE_ES_PerfLogAdd
  67      0000 
  68 0046 508F      	addq.l #8,%sp
  69               	.cfi_def_cfa_offset 8
 186:/home/simulink/cFS_FreeRTOS_seL4/cfe/fsw/cfe-core/src/time/cfe_time_task.c ****       /* Note: CFE_ES_ExitApp will not return */      
 187:/home/simulink/cFS_FreeRTOS_seL4/cfe/fsw/cfe-core/src/time/cfe_time_task.c ****       CFE_ES_ExitApp(CFE_ES_RUNSTATUS_CORE_APP_INIT_ERROR);
  70               	.loc 1 187 0
  71 0048 4878 0008 	pea 8.w
  72               	.cfi_def_cfa_offset 12
  73 004c 4EB9 0000 	jsr CFE_ES_ExitApp
  73      0000 
  74 0052 588F      	addq.l #4,%sp
  75               	.cfi_def_cfa_offset 8
  76               	.L4:
 188:/home/simulink/cFS_FreeRTOS_seL4/cfe/fsw/cfe-core/src/time/cfe_time_task.c ****     }/* end if */
 189:/home/simulink/cFS_FreeRTOS_seL4/cfe/fsw/cfe-core/src/time/cfe_time_task.c ****   
 190:/home/simulink/cFS_FreeRTOS_seL4/cfe/fsw/cfe-core/src/time/cfe_time_task.c ****     /*
 191:/home/simulink/cFS_FreeRTOS_seL4/cfe/fsw/cfe-core/src/time/cfe_time_task.c ****      * Wait for other apps to start.
 192:/home/simulink/cFS_FreeRTOS_seL4/cfe/fsw/cfe-core/src/time/cfe_time_task.c ****      * It is important that the core apps are present before this starts receiving
 193:/home/simulink/cFS_FreeRTOS_seL4/cfe/fsw/cfe-core/src/time/cfe_time_task.c ****      * messages from the command pipe, as some of those handlers might depend on
 194:/home/simulink/cFS_FreeRTOS_seL4/cfe/fsw/cfe-core/src/time/cfe_time_task.c ****      * the other core apps.
68K GAS   			page 6


 195:/home/simulink/cFS_FreeRTOS_seL4/cfe/fsw/cfe-core/src/time/cfe_time_task.c ****      */
 196:/home/simulink/cFS_FreeRTOS_seL4/cfe/fsw/cfe-core/src/time/cfe_time_task.c ****     CFE_ES_WaitForStartupSync(CFE_CORE_MAX_STARTUP_MSEC);
  77               	.loc 1 196 0
  78 0054 4878 7530 	pea 30000.w
  79               	.cfi_def_cfa_offset 12
  80 0058 4EB9 0000 	jsr CFE_ES_WaitForStartupSync
  80      0000 
  81 005e 588F      	addq.l #4,%sp
  82               	.cfi_def_cfa_offset 8
 197:/home/simulink/cFS_FreeRTOS_seL4/cfe/fsw/cfe-core/src/time/cfe_time_task.c **** 
 198:/home/simulink/cFS_FreeRTOS_seL4/cfe/fsw/cfe-core/src/time/cfe_time_task.c ****     /* Main loop */
 199:/home/simulink/cFS_FreeRTOS_seL4/cfe/fsw/cfe-core/src/time/cfe_time_task.c ****     while (Status == CFE_SUCCESS)
  83               	.loc 1 199 0
  84 0060 6072      	jra .L5
  85               	.L7:
 200:/home/simulink/cFS_FreeRTOS_seL4/cfe/fsw/cfe-core/src/time/cfe_time_task.c ****     {
 201:/home/simulink/cFS_FreeRTOS_seL4/cfe/fsw/cfe-core/src/time/cfe_time_task.c ****     
 202:/home/simulink/cFS_FreeRTOS_seL4/cfe/fsw/cfe-core/src/time/cfe_time_task.c ****       /* Increment the Main task Execution Counter */
 203:/home/simulink/cFS_FreeRTOS_seL4/cfe/fsw/cfe-core/src/time/cfe_time_task.c ****       CFE_ES_IncrementTaskCounter();
  86               	.loc 1 203 0
  87 0062 4EB9 0000 	jsr CFE_ES_IncrementTaskCounter
  87      0000 
 204:/home/simulink/cFS_FreeRTOS_seL4/cfe/fsw/cfe-core/src/time/cfe_time_task.c **** 
 205:/home/simulink/cFS_FreeRTOS_seL4/cfe/fsw/cfe-core/src/time/cfe_time_task.c ****       CFE_ES_PerfLogExit(CFE_TIME_MAIN_PERF_ID);
  88               	.loc 1 205 0
  89 0068 4878 0001 	pea 1.w
  90               	.cfi_def_cfa_offset 12
  91 006c 4878 0006 	pea 6.w
  92               	.cfi_def_cfa_offset 16
  93 0070 4EB9 0000 	jsr CFE_ES_PerfLogAdd
  93      0000 
  94 0076 508F      	addq.l #8,%sp
  95               	.cfi_def_cfa_offset 8
 206:/home/simulink/cFS_FreeRTOS_seL4/cfe/fsw/cfe-core/src/time/cfe_time_task.c ****   
 207:/home/simulink/cFS_FreeRTOS_seL4/cfe/fsw/cfe-core/src/time/cfe_time_task.c ****       /* Pend on receipt of packet */
 208:/home/simulink/cFS_FreeRTOS_seL4/cfe/fsw/cfe-core/src/time/cfe_time_task.c ****       Status = CFE_SB_RcvMsg(&CFE_TIME_TaskData.MsgPtr,
 209:/home/simulink/cFS_FreeRTOS_seL4/cfe/fsw/cfe-core/src/time/cfe_time_task.c ****                               CFE_TIME_TaskData.CmdPipe,
  96               	.loc 1 209 0
  97 0078 1039 0000 	move.b CFE_TIME_TaskData+264,%d0
  97      0000 
 208:/home/simulink/cFS_FreeRTOS_seL4/cfe/fsw/cfe-core/src/time/cfe_time_task.c ****                               CFE_TIME_TaskData.CmdPipe,
  98               	.loc 1 208 0
  99 007e 1000      	move.b %d0,%d0
 100 0080 0280 0000 	and.l #255,%d0
 100      00FF 
 101 0086 4878 FFFF 	pea -1.w
 102               	.cfi_def_cfa_offset 12
 103 008a 2F00      	move.l %d0,-(%sp)
 104               	.cfi_def_cfa_offset 16
 105 008c 4879 0000 	pea CFE_TIME_TaskData+260
 105      0000 
 106               	.cfi_def_cfa_offset 20
 107 0092 4EB9 0000 	jsr CFE_SB_RcvMsg
 107      0000 
 108 0098 4FEF 000C 	lea (12,%sp),%sp
 109               	.cfi_def_cfa_offset 8
 110 009c 2E80      	move.l %d0,(%sp)
68K GAS   			page 7


 210:/home/simulink/cFS_FreeRTOS_seL4/cfe/fsw/cfe-core/src/time/cfe_time_task.c ****                               CFE_SB_PEND_FOREVER);
 211:/home/simulink/cFS_FreeRTOS_seL4/cfe/fsw/cfe-core/src/time/cfe_time_task.c ****   
 212:/home/simulink/cFS_FreeRTOS_seL4/cfe/fsw/cfe-core/src/time/cfe_time_task.c ****       CFE_ES_PerfLogEntry(CFE_TIME_MAIN_PERF_ID);
 111               	.loc 1 212 0
 112 009e 42A7      	clr.l -(%sp)
 113               	.cfi_def_cfa_offset 12
 114 00a0 4878 0006 	pea 6.w
 115               	.cfi_def_cfa_offset 16
 116 00a4 4EB9 0000 	jsr CFE_ES_PerfLogAdd
 116      0000 
 117 00aa 508F      	addq.l #8,%sp
 118               	.cfi_def_cfa_offset 8
 213:/home/simulink/cFS_FreeRTOS_seL4/cfe/fsw/cfe-core/src/time/cfe_time_task.c ****   
 214:/home/simulink/cFS_FreeRTOS_seL4/cfe/fsw/cfe-core/src/time/cfe_time_task.c ****       if (Status == CFE_SUCCESS)
 119               	.loc 1 214 0
 120 00ac 4A97      	tst.l (%sp)
 121 00ae 6612      	jne .L6
 215:/home/simulink/cFS_FreeRTOS_seL4/cfe/fsw/cfe-core/src/time/cfe_time_task.c ****       {
 216:/home/simulink/cFS_FreeRTOS_seL4/cfe/fsw/cfe-core/src/time/cfe_time_task.c ****           /* Process cmd pipe msg */
 217:/home/simulink/cFS_FreeRTOS_seL4/cfe/fsw/cfe-core/src/time/cfe_time_task.c ****           CFE_TIME_TaskPipe(CFE_TIME_TaskData.MsgPtr);
 122               	.loc 1 217 0
 123 00b0 2039 0000 	move.l CFE_TIME_TaskData+260,%d0
 123      0000 
 124 00b6 2F00      	move.l %d0,-(%sp)
 125               	.cfi_def_cfa_offset 12
 126 00b8 4EB9 0000 	jsr CFE_TIME_TaskPipe
 126      0000 
 127 00be 588F      	addq.l #4,%sp
 128               	.cfi_def_cfa_offset 8
 129 00c0 6012      	jra .L5
 130               	.L6:
 218:/home/simulink/cFS_FreeRTOS_seL4/cfe/fsw/cfe-core/src/time/cfe_time_task.c ****       }else{
 219:/home/simulink/cFS_FreeRTOS_seL4/cfe/fsw/cfe-core/src/time/cfe_time_task.c ****           CFE_ES_WriteToSysLog("TIME:Error reading cmd pipe,RC=0x%08X\n",(unsigned int)Status);
 131               	.loc 1 219 0
 132 00c2 2017      	move.l (%sp),%d0
 133 00c4 2F00      	move.l %d0,-(%sp)
 134               	.cfi_def_cfa_offset 12
 135 00c6 4879 0000 	pea .LC1
 135      0000 
 136               	.cfi_def_cfa_offset 16
 137 00cc 4EB9 0000 	jsr CFE_ES_WriteToSysLog
 137      0000 
 138 00d2 508F      	addq.l #8,%sp
 139               	.cfi_def_cfa_offset 8
 140               	.L5:
 199:/home/simulink/cFS_FreeRTOS_seL4/cfe/fsw/cfe-core/src/time/cfe_time_task.c ****     {
 141               	.loc 1 199 0
 142 00d4 4A97      	tst.l (%sp)
 143 00d6 678A      	jeq .L7
 220:/home/simulink/cFS_FreeRTOS_seL4/cfe/fsw/cfe-core/src/time/cfe_time_task.c ****       }/* end if */
 221:/home/simulink/cFS_FreeRTOS_seL4/cfe/fsw/cfe-core/src/time/cfe_time_task.c ****       
 222:/home/simulink/cFS_FreeRTOS_seL4/cfe/fsw/cfe-core/src/time/cfe_time_task.c ****     }/* end while */
 223:/home/simulink/cFS_FreeRTOS_seL4/cfe/fsw/cfe-core/src/time/cfe_time_task.c ****     
 224:/home/simulink/cFS_FreeRTOS_seL4/cfe/fsw/cfe-core/src/time/cfe_time_task.c ****     /* while loop exits only if CFE_SB_RcvMsg returns error */
 225:/home/simulink/cFS_FreeRTOS_seL4/cfe/fsw/cfe-core/src/time/cfe_time_task.c ****     CFE_ES_ExitApp(CFE_ES_RUNSTATUS_CORE_APP_RUNTIME_ERROR);
 144               	.loc 1 225 0
 145 00d8 4878 0009 	pea 9.w
68K GAS   			page 8


 146               	.cfi_def_cfa_offset 12
 147 00dc 4EB9 0000 	jsr CFE_ES_ExitApp
 147      0000 
 148 00e2 588F      	addq.l #4,%sp
 149               	.cfi_def_cfa_offset 8
 226:/home/simulink/cFS_FreeRTOS_seL4/cfe/fsw/cfe-core/src/time/cfe_time_task.c **** 
 227:/home/simulink/cFS_FreeRTOS_seL4/cfe/fsw/cfe-core/src/time/cfe_time_task.c **** } /* end CFE_TIME_TaskMain */
 150               	.loc 1 227 0
 151 00e4 4E71      	nop
 152 00e6 588F      	addq.l #4,%sp
 153 00e8 4E75      	rts
 154               	.cfi_endproc
 155               	.LFE60:
 156               	.sizeCFE_TIME_TaskMain, .-CFE_TIME_TaskMain
 157               	.section.rodata
 158               	.LC2:
 159 004f 5449 4D45 	.string"TIME:Call to CFE_ES_RegisterApp Failed:RC=0x%08X\n"
 159      3A43 616C 
 159      6C20 746F 
 159      2043 4645 
 159      5F45 535F 
 160               	.LC3:
 161 0081 5449 4D45 	.string"TIME:Call to CFE_EVS_Register Failed:RC=0x%08X\n"
 161      3A43 616C 
 161      6C20 746F 
 161      2043 4645 
 161      5F45 5653 
 162               	.LC4:
 163 00b1 5449 4D45 	.string"TIME_TONE_SEM"
 163      5F54 4F4E 
 163      455F 5345 
 163      4D00 
 164               	.LC5:
 165 00bf 5449 4D45 	.string"TIME:Error creating tone semaphore:RC=0x%08X\n"
 165      3A45 7272 
 165      6F72 2063 
 165      7265 6174 
 165      696E 6720 
 166               	.LC6:
 167 00ed 5449 4D45 	.string"TIME_1HZ_SEM"
 167      5F31 485A 
 167      5F53 454D 
 167      00
 168               	.LC7:
 169 00fa 5449 4D45 	.string"TIME:Error creating local semaphore:RC=0x%08X\n"
 169      3A45 7272 
 169      6F72 2063 
 169      7265 6174 
 169      696E 6720 
 170               	.LC8:
 171 0129 5449 4D45 	.string"TIME_TONE_TASK"
 171      5F54 4F4E 
 171      455F 5441 
 171      534B 00
 172               	.LC9:
 173 0138 5449 4D45 	.string"TIME:Error creating tone 1Hz child task:RC=0x%08X\n"
 173      3A45 7272 
68K GAS   			page 9


 173      6F72 2063 
 173      7265 6174 
 173      696E 6720 
 174               	.LC10:
 175 016b 5449 4D45 	.string"TIME_1HZ_TASK"
 175      5F31 485A 
 175      5F54 4153 
 175      4B00 
 176               	.LC11:
 177 0179 5449 4D45 	.string"TIME:Error creating local 1Hz child task:RC=0x%08X\n"
 177      3A45 7272 
 177      6F72 2063 
 177      7265 6174 
 177      696E 6720 
 178               	.LC12:
 179 01ad 5449 4D45 	.string"TIME:Error creating cmd pipe:RC=0x%08X\n"
 179      3A45 7272 
 179      6F72 2063 
 179      7265 6174 
 179      696E 6720 
 180               	.LC13:
 181 01d5 5449 4D45 	.string"TIME:Error subscribing to HK Request:RC=0x%08X\n"
 181      3A45 7272 
 181      6F72 2073 
 181      7562 7363 
 181      7269 6269 
 182               	.LC14:
 183 0205 5449 4D45 	.string"TIME:Error subscribing to tone cmd:RC=0x%08X\n"
 183      3A45 7272 
 183      6F72 2073 
 183      7562 7363 
 183      7269 6269 
 184               	.LC15:
 185 0233 5449 4D45 	.string"TIME:Error subscribing to time data cmd:RC=0x%08X\n"
 185      3A45 7272 
 185      6F72 2073 
 185      7562 7363 
 185      7269 6269 
 186               	.LC16:
 187 0266 5449 4D45 	.string"TIME:Error subscribing to fake tone signal cmds:RC=0x%08X\n"
 187      3A45 7272 
 187      6F72 2073 
 187      7562 7363 
 187      7269 6269 
 188               	.LC17:
 189 02a1 5449 4D45 	.string"TIME:Error subscribing to time task gnd cmds:RC=0x%08X\n"
 189      3A45 7272 
 189      6F72 2073 
 189      7562 7363 
 189      7269 6269 
 190               	.LC18:
 191 02d9 6346 4520 	.string"cFE TIME Initialized"
 191      5449 4D45 
 191      2049 6E69 
 191      7469 616C 
 191      697A 6564 
 192               	.LC19:
68K GAS   			page 10


 193 02ee 5449 4D45 	.string"TIME:Error sending init event:RC=0x%08X\n"
 193      3A45 7272 
 193      6F72 2073 
 193      656E 6469 
 193      6E67 2069 
 194               	.LC20:
 195 0317 6346 532D 	.string"cFS-Master"
 195      4D61 7374 
 195      6572 00
 196               	.LC21:
 197 0322 6346 532D 	.string"cFS-1Hz"
 197      3148 7A00 
 198               	.LC22:
 199 032a 5449 4D45 	.string"TIME:1Hz OS_TimerSet failed:RC=0x%08X\n"
 199      3A31 487A 
 199      204F 535F 
 199      5469 6D65 
 199      7253 6574 
 200               	.LC23:
 201 0351 5449 4D45 	.string"TIME:1Hz OS_TimerAdd failed:RC=0x%08X\n"
 201      3A31 487A 
 201      204F 535F 
 201      5469 6D65 
 201      7241 6464 
 202               	.text
 203               	.align2
 204               	.globlCFE_TIME_TaskInit
 205               	.typeCFE_TIME_TaskInit, @function
 206               	CFE_TIME_TaskInit:
 207               	.LFB61:
 228:/home/simulink/cFS_FreeRTOS_seL4/cfe/fsw/cfe-core/src/time/cfe_time_task.c **** 
 229:/home/simulink/cFS_FreeRTOS_seL4/cfe/fsw/cfe-core/src/time/cfe_time_task.c **** 
 230:/home/simulink/cFS_FreeRTOS_seL4/cfe/fsw/cfe-core/src/time/cfe_time_task.c **** /* * * * * * * * * * * * * * * * * * * * * * * * * * * * * * * * * */
 231:/home/simulink/cFS_FreeRTOS_seL4/cfe/fsw/cfe-core/src/time/cfe_time_task.c **** /*                                                                 */
 232:/home/simulink/cFS_FreeRTOS_seL4/cfe/fsw/cfe-core/src/time/cfe_time_task.c **** /* CFE_TIME_TaskInit() -- Time task initialization                 */
 233:/home/simulink/cFS_FreeRTOS_seL4/cfe/fsw/cfe-core/src/time/cfe_time_task.c **** /*                                                                 */
 234:/home/simulink/cFS_FreeRTOS_seL4/cfe/fsw/cfe-core/src/time/cfe_time_task.c **** /* * * * * * * * * * * * * * * * * * * * * * * * * * * * * * * * * */
 235:/home/simulink/cFS_FreeRTOS_seL4/cfe/fsw/cfe-core/src/time/cfe_time_task.c **** 
 236:/home/simulink/cFS_FreeRTOS_seL4/cfe/fsw/cfe-core/src/time/cfe_time_task.c **** int32 CFE_TIME_TaskInit(void)
 237:/home/simulink/cFS_FreeRTOS_seL4/cfe/fsw/cfe-core/src/time/cfe_time_task.c **** {
 208               	.loc 1 237 0
 209               	.cfi_startproc
 210 00ea 4FEF FFF4 	lea (-12,%sp),%sp
 211               	.cfi_def_cfa_offset 16
 238:/home/simulink/cFS_FreeRTOS_seL4/cfe/fsw/cfe-core/src/time/cfe_time_task.c ****     int32 Status = CFE_SUCCESS;
 212               	.loc 1 238 0
 213 00ee 42AF 0008 	clr.l 8(%sp)
 239:/home/simulink/cFS_FreeRTOS_seL4/cfe/fsw/cfe-core/src/time/cfe_time_task.c ****     uint32 TimeBaseId;
 240:/home/simulink/cFS_FreeRTOS_seL4/cfe/fsw/cfe-core/src/time/cfe_time_task.c ****     uint32 TimerId;
 241:/home/simulink/cFS_FreeRTOS_seL4/cfe/fsw/cfe-core/src/time/cfe_time_task.c **** 
 242:/home/simulink/cFS_FreeRTOS_seL4/cfe/fsw/cfe-core/src/time/cfe_time_task.c ****     Status = CFE_ES_RegisterApp();
 214               	.loc 1 242 0
 215 00f2 4EB9 0000 	jsr CFE_ES_RegisterApp
 215      0000 
 216 00f8 2F40 0008 	move.l %d0,8(%sp)
 243:/home/simulink/cFS_FreeRTOS_seL4/cfe/fsw/cfe-core/src/time/cfe_time_task.c ****     if(Status != CFE_SUCCESS)
 217               	.loc 1 243 0
68K GAS   			page 11


 218 00fc 4AAF 0008 	tst.l 8(%sp)
 219 0100 671C      	jeq .L9
 244:/home/simulink/cFS_FreeRTOS_seL4/cfe/fsw/cfe-core/src/time/cfe_time_task.c ****     {
 245:/home/simulink/cFS_FreeRTOS_seL4/cfe/fsw/cfe-core/src/time/cfe_time_task.c ****       CFE_ES_WriteToSysLog("TIME:Call to CFE_ES_RegisterApp Failed:RC=0x%08X\n",(unsigned int)Statu
 220               	.loc 1 245 0
 221 0102 202F 0008 	move.l 8(%sp),%d0
 222 0106 2F00      	move.l %d0,-(%sp)
 223               	.cfi_def_cfa_offset 20
 224 0108 4879 0000 	pea .LC2
 224      0000 
 225               	.cfi_def_cfa_offset 24
 226 010e 4EB9 0000 	jsr CFE_ES_WriteToSysLog
 226      0000 
 227 0114 508F      	addq.l #8,%sp
 228               	.cfi_def_cfa_offset 16
 246:/home/simulink/cFS_FreeRTOS_seL4/cfe/fsw/cfe-core/src/time/cfe_time_task.c ****       return Status;
 229               	.loc 1 246 0
 230 0116 202F 0008 	move.l 8(%sp),%d0
 231 011a 6000 03DC 	jra .L26
 232               	.L9:
 247:/home/simulink/cFS_FreeRTOS_seL4/cfe/fsw/cfe-core/src/time/cfe_time_task.c ****     }/* end if */
 248:/home/simulink/cFS_FreeRTOS_seL4/cfe/fsw/cfe-core/src/time/cfe_time_task.c ****     
 249:/home/simulink/cFS_FreeRTOS_seL4/cfe/fsw/cfe-core/src/time/cfe_time_task.c ****     Status = CFE_EVS_Register(NULL, 0, 0);
 233               	.loc 1 249 0
 234 011e 42A7      	clr.l -(%sp)
 235               	.cfi_def_cfa_offset 20
 236 0120 42A7      	clr.l -(%sp)
 237               	.cfi_def_cfa_offset 24
 238 0122 42A7      	clr.l -(%sp)
 239               	.cfi_def_cfa_offset 28
 240 0124 4EB9 0000 	jsr CFE_EVS_Register
 240      0000 
 241 012a 4FEF 000C 	lea (12,%sp),%sp
 242               	.cfi_def_cfa_offset 16
 243 012e 2F40 0008 	move.l %d0,8(%sp)
 250:/home/simulink/cFS_FreeRTOS_seL4/cfe/fsw/cfe-core/src/time/cfe_time_task.c ****     if(Status != CFE_SUCCESS)
 244               	.loc 1 250 0
 245 0132 4AAF 0008 	tst.l 8(%sp)
 246 0136 671C      	jeq .L11
 251:/home/simulink/cFS_FreeRTOS_seL4/cfe/fsw/cfe-core/src/time/cfe_time_task.c ****     {
 252:/home/simulink/cFS_FreeRTOS_seL4/cfe/fsw/cfe-core/src/time/cfe_time_task.c ****       CFE_ES_WriteToSysLog("TIME:Call to CFE_EVS_Register Failed:RC=0x%08X\n",(unsigned int)Status)
 247               	.loc 1 252 0
 248 0138 202F 0008 	move.l 8(%sp),%d0
 249 013c 2F00      	move.l %d0,-(%sp)
 250               	.cfi_def_cfa_offset 20
 251 013e 4879 0000 	pea .LC3
 251      0000 
 252               	.cfi_def_cfa_offset 24
 253 0144 4EB9 0000 	jsr CFE_ES_WriteToSysLog
 253      0000 
 254 014a 508F      	addq.l #8,%sp
 255               	.cfi_def_cfa_offset 16
 253:/home/simulink/cFS_FreeRTOS_seL4/cfe/fsw/cfe-core/src/time/cfe_time_task.c ****       return Status;
 256               	.loc 1 253 0
 257 014c 202F 0008 	move.l 8(%sp),%d0
 258 0150 6000 03A6 	jra .L26
 259               	.L11:
68K GAS   			page 12


 254:/home/simulink/cFS_FreeRTOS_seL4/cfe/fsw/cfe-core/src/time/cfe_time_task.c ****     }/* end if */
 255:/home/simulink/cFS_FreeRTOS_seL4/cfe/fsw/cfe-core/src/time/cfe_time_task.c ****     
 256:/home/simulink/cFS_FreeRTOS_seL4/cfe/fsw/cfe-core/src/time/cfe_time_task.c ****     Status = OS_BinSemCreate(&CFE_TIME_TaskData.ToneSemaphore,
 260               	.loc 1 256 0
 261 0154 42A7      	clr.l -(%sp)
 262               	.cfi_def_cfa_offset 20
 263 0156 42A7      	clr.l -(%sp)
 264               	.cfi_def_cfa_offset 24
 265 0158 4879 0000 	pea .LC4
 265      0000 
 266               	.cfi_def_cfa_offset 28
 267 015e 4879 0000 	pea CFE_TIME_TaskData+520
 267      0000 
 268               	.cfi_def_cfa_offset 32
 269 0164 4EB9 0000 	jsr OS_BinSemCreate
 269      0000 
 270 016a 4FEF 0010 	lea (16,%sp),%sp
 271               	.cfi_def_cfa_offset 16
 272 016e 2F40 0008 	move.l %d0,8(%sp)
 257:/home/simulink/cFS_FreeRTOS_seL4/cfe/fsw/cfe-core/src/time/cfe_time_task.c ****                               CFE_TIME_SEM_TONE_NAME,
 258:/home/simulink/cFS_FreeRTOS_seL4/cfe/fsw/cfe-core/src/time/cfe_time_task.c ****                               CFE_TIME_SEM_VALUE,
 259:/home/simulink/cFS_FreeRTOS_seL4/cfe/fsw/cfe-core/src/time/cfe_time_task.c ****                               CFE_TIME_SEM_OPTIONS);
 260:/home/simulink/cFS_FreeRTOS_seL4/cfe/fsw/cfe-core/src/time/cfe_time_task.c ****     if(Status != CFE_SUCCESS)
 273               	.loc 1 260 0
 274 0172 4AAF 0008 	tst.l 8(%sp)
 275 0176 671C      	jeq .L12
 261:/home/simulink/cFS_FreeRTOS_seL4/cfe/fsw/cfe-core/src/time/cfe_time_task.c ****     {
 262:/home/simulink/cFS_FreeRTOS_seL4/cfe/fsw/cfe-core/src/time/cfe_time_task.c ****       CFE_ES_WriteToSysLog("TIME:Error creating tone semaphore:RC=0x%08X\n",(unsigned int)Status);
 276               	.loc 1 262 0
 277 0178 202F 0008 	move.l 8(%sp),%d0
 278 017c 2F00      	move.l %d0,-(%sp)
 279               	.cfi_def_cfa_offset 20
 280 017e 4879 0000 	pea .LC5
 280      0000 
 281               	.cfi_def_cfa_offset 24
 282 0184 4EB9 0000 	jsr CFE_ES_WriteToSysLog
 282      0000 
 283 018a 508F      	addq.l #8,%sp
 284               	.cfi_def_cfa_offset 16
 263:/home/simulink/cFS_FreeRTOS_seL4/cfe/fsw/cfe-core/src/time/cfe_time_task.c ****       return Status;
 285               	.loc 1 263 0
 286 018c 202F 0008 	move.l 8(%sp),%d0
 287 0190 6000 0366 	jra .L26
 288               	.L12:
 264:/home/simulink/cFS_FreeRTOS_seL4/cfe/fsw/cfe-core/src/time/cfe_time_task.c ****     }/* end if */        
 265:/home/simulink/cFS_FreeRTOS_seL4/cfe/fsw/cfe-core/src/time/cfe_time_task.c ****     
 266:/home/simulink/cFS_FreeRTOS_seL4/cfe/fsw/cfe-core/src/time/cfe_time_task.c ****     Status = OS_BinSemCreate(&CFE_TIME_TaskData.LocalSemaphore,
 289               	.loc 1 266 0
 290 0194 42A7      	clr.l -(%sp)
 291               	.cfi_def_cfa_offset 20
 292 0196 42A7      	clr.l -(%sp)
 293               	.cfi_def_cfa_offset 24
 294 0198 4879 0000 	pea .LC6
 294      0000 
 295               	.cfi_def_cfa_offset 28
 296 019e 4879 0000 	pea CFE_TIME_TaskData+516
 296      0000 
68K GAS   			page 13


 297               	.cfi_def_cfa_offset 32
 298 01a4 4EB9 0000 	jsr OS_BinSemCreate
 298      0000 
 299 01aa 4FEF 0010 	lea (16,%sp),%sp
 300               	.cfi_def_cfa_offset 16
 301 01ae 2F40 0008 	move.l %d0,8(%sp)
 267:/home/simulink/cFS_FreeRTOS_seL4/cfe/fsw/cfe-core/src/time/cfe_time_task.c ****                               CFE_TIME_SEM_1HZ_NAME,
 268:/home/simulink/cFS_FreeRTOS_seL4/cfe/fsw/cfe-core/src/time/cfe_time_task.c ****                               CFE_TIME_SEM_VALUE,
 269:/home/simulink/cFS_FreeRTOS_seL4/cfe/fsw/cfe-core/src/time/cfe_time_task.c ****                               CFE_TIME_SEM_OPTIONS);
 270:/home/simulink/cFS_FreeRTOS_seL4/cfe/fsw/cfe-core/src/time/cfe_time_task.c ****     if(Status != CFE_SUCCESS)
 302               	.loc 1 270 0
 303 01b2 4AAF 0008 	tst.l 8(%sp)
 304 01b6 671C      	jeq .L13
 271:/home/simulink/cFS_FreeRTOS_seL4/cfe/fsw/cfe-core/src/time/cfe_time_task.c ****     {
 272:/home/simulink/cFS_FreeRTOS_seL4/cfe/fsw/cfe-core/src/time/cfe_time_task.c ****       CFE_ES_WriteToSysLog("TIME:Error creating local semaphore:RC=0x%08X\n",(unsigned int)Status);
 305               	.loc 1 272 0
 306 01b8 202F 0008 	move.l 8(%sp),%d0
 307 01bc 2F00      	move.l %d0,-(%sp)
 308               	.cfi_def_cfa_offset 20
 309 01be 4879 0000 	pea .LC7
 309      0000 
 310               	.cfi_def_cfa_offset 24
 311 01c4 4EB9 0000 	jsr CFE_ES_WriteToSysLog
 311      0000 
 312 01ca 508F      	addq.l #8,%sp
 313               	.cfi_def_cfa_offset 16
 273:/home/simulink/cFS_FreeRTOS_seL4/cfe/fsw/cfe-core/src/time/cfe_time_task.c ****       return Status;
 314               	.loc 1 273 0
 315 01cc 202F 0008 	move.l 8(%sp),%d0
 316 01d0 6000 0326 	jra .L26
 317               	.L13:
 274:/home/simulink/cFS_FreeRTOS_seL4/cfe/fsw/cfe-core/src/time/cfe_time_task.c ****     }/* end if */
 275:/home/simulink/cFS_FreeRTOS_seL4/cfe/fsw/cfe-core/src/time/cfe_time_task.c ****     
 276:/home/simulink/cFS_FreeRTOS_seL4/cfe/fsw/cfe-core/src/time/cfe_time_task.c ****     
 277:/home/simulink/cFS_FreeRTOS_seL4/cfe/fsw/cfe-core/src/time/cfe_time_task.c ****     Status = CFE_ES_CreateChildTask(&CFE_TIME_TaskData.ToneTaskID,
 318               	.loc 1 277 0
 319 01d4 42A7      	clr.l -(%sp)
 320               	.cfi_def_cfa_offset 20
 321 01d6 4878 0019 	pea 25.w
 322               	.cfi_def_cfa_offset 24
 323 01da 4878 1000 	pea 4096.w
 324               	.cfi_def_cfa_offset 28
 325 01de 42A7      	clr.l -(%sp)
 326               	.cfi_def_cfa_offset 32
 327 01e0 4879 0000 	pea CFE_TIME_Tone1HzTask
 327      0000 
 328               	.cfi_def_cfa_offset 36
 329 01e6 4879 0000 	pea .LC8
 329      0000 
 330               	.cfi_def_cfa_offset 40
 331 01ec 4879 0000 	pea CFE_TIME_TaskData+528
 331      0000 
 332               	.cfi_def_cfa_offset 44
 333 01f2 4EB9 0000 	jsr CFE_ES_CreateChildTask
 333      0000 
 334 01f8 4FEF 001C 	lea (28,%sp),%sp
 335               	.cfi_def_cfa_offset 16
68K GAS   			page 14


 336 01fc 2F40 0008 	move.l %d0,8(%sp)
 278:/home/simulink/cFS_FreeRTOS_seL4/cfe/fsw/cfe-core/src/time/cfe_time_task.c ****                                      CFE_TIME_TASK_TONE_NAME,
 279:/home/simulink/cFS_FreeRTOS_seL4/cfe/fsw/cfe-core/src/time/cfe_time_task.c ****                                      CFE_TIME_Tone1HzTask,
 280:/home/simulink/cFS_FreeRTOS_seL4/cfe/fsw/cfe-core/src/time/cfe_time_task.c ****                                      CFE_TIME_TASK_STACK_PTR,
 281:/home/simulink/cFS_FreeRTOS_seL4/cfe/fsw/cfe-core/src/time/cfe_time_task.c ****                                      CFE_TIME_TONE_TASK_STACK_SIZE,
 282:/home/simulink/cFS_FreeRTOS_seL4/cfe/fsw/cfe-core/src/time/cfe_time_task.c ****                                      CFE_TIME_TONE_TASK_PRIORITY,
 283:/home/simulink/cFS_FreeRTOS_seL4/cfe/fsw/cfe-core/src/time/cfe_time_task.c ****                                      CFE_TIME_TASK_FLAGS);
 284:/home/simulink/cFS_FreeRTOS_seL4/cfe/fsw/cfe-core/src/time/cfe_time_task.c ****     if(Status != CFE_SUCCESS)
 337               	.loc 1 284 0
 338 0200 4AAF 0008 	tst.l 8(%sp)
 339 0204 671C      	jeq .L14
 285:/home/simulink/cFS_FreeRTOS_seL4/cfe/fsw/cfe-core/src/time/cfe_time_task.c ****     {
 286:/home/simulink/cFS_FreeRTOS_seL4/cfe/fsw/cfe-core/src/time/cfe_time_task.c ****       CFE_ES_WriteToSysLog("TIME:Error creating tone 1Hz child task:RC=0x%08X\n",(unsigned int)Stat
 340               	.loc 1 286 0
 341 0206 202F 0008 	move.l 8(%sp),%d0
 342 020a 2F00      	move.l %d0,-(%sp)
 343               	.cfi_def_cfa_offset 20
 344 020c 4879 0000 	pea .LC9
 344      0000 
 345               	.cfi_def_cfa_offset 24
 346 0212 4EB9 0000 	jsr CFE_ES_WriteToSysLog
 346      0000 
 347 0218 508F      	addq.l #8,%sp
 348               	.cfi_def_cfa_offset 16
 287:/home/simulink/cFS_FreeRTOS_seL4/cfe/fsw/cfe-core/src/time/cfe_time_task.c ****       return Status;
 349               	.loc 1 287 0
 350 021a 202F 0008 	move.l 8(%sp),%d0
 351 021e 6000 02D8 	jra .L26
 352               	.L14:
 288:/home/simulink/cFS_FreeRTOS_seL4/cfe/fsw/cfe-core/src/time/cfe_time_task.c ****     }/* end if */
 289:/home/simulink/cFS_FreeRTOS_seL4/cfe/fsw/cfe-core/src/time/cfe_time_task.c ****     
 290:/home/simulink/cFS_FreeRTOS_seL4/cfe/fsw/cfe-core/src/time/cfe_time_task.c ****         
 291:/home/simulink/cFS_FreeRTOS_seL4/cfe/fsw/cfe-core/src/time/cfe_time_task.c ****     Status = CFE_ES_CreateChildTask(&CFE_TIME_TaskData.LocalTaskID,
 353               	.loc 1 291 0
 354 0222 42A7      	clr.l -(%sp)
 355               	.cfi_def_cfa_offset 20
 356 0224 4878 0019 	pea 25.w
 357               	.cfi_def_cfa_offset 24
 358 0228 4878 2000 	pea 8192.w
 359               	.cfi_def_cfa_offset 28
 360 022c 42A7      	clr.l -(%sp)
 361               	.cfi_def_cfa_offset 32
 362 022e 4879 0000 	pea CFE_TIME_Local1HzTask
 362      0000 
 363               	.cfi_def_cfa_offset 36
 364 0234 4879 0000 	pea .LC10
 364      0000 
 365               	.cfi_def_cfa_offset 40
 366 023a 4879 0000 	pea CFE_TIME_TaskData+524
 366      0000 
 367               	.cfi_def_cfa_offset 44
 368 0240 4EB9 0000 	jsr CFE_ES_CreateChildTask
 368      0000 
 369 0246 4FEF 001C 	lea (28,%sp),%sp
 370               	.cfi_def_cfa_offset 16
 371 024a 2F40 0008 	move.l %d0,8(%sp)
 292:/home/simulink/cFS_FreeRTOS_seL4/cfe/fsw/cfe-core/src/time/cfe_time_task.c ****                                      CFE_TIME_TASK_1HZ_NAME,
68K GAS   			page 15


 293:/home/simulink/cFS_FreeRTOS_seL4/cfe/fsw/cfe-core/src/time/cfe_time_task.c ****                                      CFE_TIME_Local1HzTask,
 294:/home/simulink/cFS_FreeRTOS_seL4/cfe/fsw/cfe-core/src/time/cfe_time_task.c ****                                      CFE_TIME_TASK_STACK_PTR,
 295:/home/simulink/cFS_FreeRTOS_seL4/cfe/fsw/cfe-core/src/time/cfe_time_task.c ****                                      CFE_TIME_1HZ_TASK_STACK_SIZE,
 296:/home/simulink/cFS_FreeRTOS_seL4/cfe/fsw/cfe-core/src/time/cfe_time_task.c ****                                      CFE_TIME_1HZ_TASK_PRIORITY,
 297:/home/simulink/cFS_FreeRTOS_seL4/cfe/fsw/cfe-core/src/time/cfe_time_task.c ****                                      CFE_TIME_TASK_FLAGS);
 298:/home/simulink/cFS_FreeRTOS_seL4/cfe/fsw/cfe-core/src/time/cfe_time_task.c ****     if(Status != CFE_SUCCESS)
 372               	.loc 1 298 0
 373 024e 4AAF 0008 	tst.l 8(%sp)
 374 0252 671C      	jeq .L15
 299:/home/simulink/cFS_FreeRTOS_seL4/cfe/fsw/cfe-core/src/time/cfe_time_task.c ****     {
 300:/home/simulink/cFS_FreeRTOS_seL4/cfe/fsw/cfe-core/src/time/cfe_time_task.c ****       CFE_ES_WriteToSysLog("TIME:Error creating local 1Hz child task:RC=0x%08X\n",(unsigned int)Sta
 375               	.loc 1 300 0
 376 0254 202F 0008 	move.l 8(%sp),%d0
 377 0258 2F00      	move.l %d0,-(%sp)
 378               	.cfi_def_cfa_offset 20
 379 025a 4879 0000 	pea .LC11
 379      0000 
 380               	.cfi_def_cfa_offset 24
 381 0260 4EB9 0000 	jsr CFE_ES_WriteToSysLog
 381      0000 
 382 0266 508F      	addq.l #8,%sp
 383               	.cfi_def_cfa_offset 16
 301:/home/simulink/cFS_FreeRTOS_seL4/cfe/fsw/cfe-core/src/time/cfe_time_task.c ****       return Status;
 384               	.loc 1 301 0
 385 0268 202F 0008 	move.l 8(%sp),%d0
 386 026c 6000 028A 	jra .L26
 387               	.L15:
 302:/home/simulink/cFS_FreeRTOS_seL4/cfe/fsw/cfe-core/src/time/cfe_time_task.c ****     }/* end if */
 303:/home/simulink/cFS_FreeRTOS_seL4/cfe/fsw/cfe-core/src/time/cfe_time_task.c **** 
 304:/home/simulink/cFS_FreeRTOS_seL4/cfe/fsw/cfe-core/src/time/cfe_time_task.c **** 
 305:/home/simulink/cFS_FreeRTOS_seL4/cfe/fsw/cfe-core/src/time/cfe_time_task.c ****     Status = CFE_SB_CreatePipe(&CFE_TIME_TaskData.CmdPipe,
 306:/home/simulink/cFS_FreeRTOS_seL4/cfe/fsw/cfe-core/src/time/cfe_time_task.c ****                                 CFE_TIME_TaskData.PipeDepth,
 388               	.loc 1 306 0
 389 0270 3039 0000 	move.w CFE_TIME_TaskData+282,%d0
 389      0000 
 305:/home/simulink/cFS_FreeRTOS_seL4/cfe/fsw/cfe-core/src/time/cfe_time_task.c ****                                 CFE_TIME_TaskData.PipeDepth,
 390               	.loc 1 305 0
 391 0276 3000      	move.w %d0,%d0
 392 0278 0280 0000 	and.l #65535,%d0
 392      FFFF 
 393 027e 4879 0000 	pea CFE_TIME_TaskData+265
 393      0000 
 394               	.cfi_def_cfa_offset 20
 395 0284 2F00      	move.l %d0,-(%sp)
 396               	.cfi_def_cfa_offset 24
 397 0286 4879 0000 	pea CFE_TIME_TaskData+264
 397      0000 
 398               	.cfi_def_cfa_offset 28
 399 028c 4EB9 0000 	jsr CFE_SB_CreatePipe
 399      0000 
 400 0292 4FEF 000C 	lea (12,%sp),%sp
 401               	.cfi_def_cfa_offset 16
 402 0296 2F40 0008 	move.l %d0,8(%sp)
 307:/home/simulink/cFS_FreeRTOS_seL4/cfe/fsw/cfe-core/src/time/cfe_time_task.c ****                                 CFE_TIME_TaskData.PipeName);
 308:/home/simulink/cFS_FreeRTOS_seL4/cfe/fsw/cfe-core/src/time/cfe_time_task.c ****     if(Status != CFE_SUCCESS)
 403               	.loc 1 308 0
 404 029a 4AAF 0008 	tst.l 8(%sp)
68K GAS   			page 16


 405 029e 671C      	jeq .L16
 309:/home/simulink/cFS_FreeRTOS_seL4/cfe/fsw/cfe-core/src/time/cfe_time_task.c ****     {
 310:/home/simulink/cFS_FreeRTOS_seL4/cfe/fsw/cfe-core/src/time/cfe_time_task.c ****       CFE_ES_WriteToSysLog("TIME:Error creating cmd pipe:RC=0x%08X\n",(unsigned int)Status);
 406               	.loc 1 310 0
 407 02a0 202F 0008 	move.l 8(%sp),%d0
 408 02a4 2F00      	move.l %d0,-(%sp)
 409               	.cfi_def_cfa_offset 20
 410 02a6 4879 0000 	pea .LC12
 410      0000 
 411               	.cfi_def_cfa_offset 24
 412 02ac 4EB9 0000 	jsr CFE_ES_WriteToSysLog
 412      0000 
 413 02b2 508F      	addq.l #8,%sp
 414               	.cfi_def_cfa_offset 16
 311:/home/simulink/cFS_FreeRTOS_seL4/cfe/fsw/cfe-core/src/time/cfe_time_task.c ****       return Status;
 415               	.loc 1 311 0
 416 02b4 202F 0008 	move.l 8(%sp),%d0
 417 02b8 6000 023E 	jra .L26
 418               	.L16:
 312:/home/simulink/cFS_FreeRTOS_seL4/cfe/fsw/cfe-core/src/time/cfe_time_task.c ****     }/* end if */
 313:/home/simulink/cFS_FreeRTOS_seL4/cfe/fsw/cfe-core/src/time/cfe_time_task.c **** 
 314:/home/simulink/cFS_FreeRTOS_seL4/cfe/fsw/cfe-core/src/time/cfe_time_task.c **** 
 315:/home/simulink/cFS_FreeRTOS_seL4/cfe/fsw/cfe-core/src/time/cfe_time_task.c ****     Status = CFE_SB_Subscribe(CFE_TIME_SEND_HK_MID,
 316:/home/simulink/cFS_FreeRTOS_seL4/cfe/fsw/cfe-core/src/time/cfe_time_task.c ****                               CFE_TIME_TaskData.CmdPipe);
 419               	.loc 1 316 0
 420 02bc 1039 0000 	move.b CFE_TIME_TaskData+264,%d0
 420      0000 
 315:/home/simulink/cFS_FreeRTOS_seL4/cfe/fsw/cfe-core/src/time/cfe_time_task.c ****                               CFE_TIME_TaskData.CmdPipe);
 421               	.loc 1 315 0
 422 02c2 1000      	move.b %d0,%d0
 423 02c4 0280 0000 	and.l #255,%d0
 423      00FF 
 424 02ca 2F00      	move.l %d0,-(%sp)
 425               	.cfi_def_cfa_offset 20
 426 02cc 4878 180D 	pea 6157.w
 427               	.cfi_def_cfa_offset 24
 428 02d0 4EB9 0000 	jsr CFE_SB_Subscribe
 428      0000 
 429 02d6 508F      	addq.l #8,%sp
 430               	.cfi_def_cfa_offset 16
 431 02d8 2F40 0008 	move.l %d0,8(%sp)
 317:/home/simulink/cFS_FreeRTOS_seL4/cfe/fsw/cfe-core/src/time/cfe_time_task.c ****     if(Status != CFE_SUCCESS)
 432               	.loc 1 317 0
 433 02dc 4AAF 0008 	tst.l 8(%sp)
 434 02e0 671C      	jeq .L17
 318:/home/simulink/cFS_FreeRTOS_seL4/cfe/fsw/cfe-core/src/time/cfe_time_task.c ****     {
 319:/home/simulink/cFS_FreeRTOS_seL4/cfe/fsw/cfe-core/src/time/cfe_time_task.c ****       CFE_ES_WriteToSysLog("TIME:Error subscribing to HK Request:RC=0x%08X\n",(unsigned int)Status)
 435               	.loc 1 319 0
 436 02e2 202F 0008 	move.l 8(%sp),%d0
 437 02e6 2F00      	move.l %d0,-(%sp)
 438               	.cfi_def_cfa_offset 20
 439 02e8 4879 0000 	pea .LC13
 439      0000 
 440               	.cfi_def_cfa_offset 24
 441 02ee 4EB9 0000 	jsr CFE_ES_WriteToSysLog
 441      0000 
 442 02f4 508F      	addq.l #8,%sp
68K GAS   			page 17


 443               	.cfi_def_cfa_offset 16
 320:/home/simulink/cFS_FreeRTOS_seL4/cfe/fsw/cfe-core/src/time/cfe_time_task.c ****       return Status;
 444               	.loc 1 320 0
 445 02f6 202F 0008 	move.l 8(%sp),%d0
 446 02fa 6000 01FC 	jra .L26
 447               	.L17:
 321:/home/simulink/cFS_FreeRTOS_seL4/cfe/fsw/cfe-core/src/time/cfe_time_task.c ****     }/* end if */
 322:/home/simulink/cFS_FreeRTOS_seL4/cfe/fsw/cfe-core/src/time/cfe_time_task.c **** 
 323:/home/simulink/cFS_FreeRTOS_seL4/cfe/fsw/cfe-core/src/time/cfe_time_task.c **** 
 324:/home/simulink/cFS_FreeRTOS_seL4/cfe/fsw/cfe-core/src/time/cfe_time_task.c ****     /*
 325:/home/simulink/cFS_FreeRTOS_seL4/cfe/fsw/cfe-core/src/time/cfe_time_task.c ****     ** Subscribe to time at the tone "signal" commands...
 326:/home/simulink/cFS_FreeRTOS_seL4/cfe/fsw/cfe-core/src/time/cfe_time_task.c ****     */
 327:/home/simulink/cFS_FreeRTOS_seL4/cfe/fsw/cfe-core/src/time/cfe_time_task.c ****     #if (CFE_TIME_CFG_CLIENT == TRUE)
 328:/home/simulink/cFS_FreeRTOS_seL4/cfe/fsw/cfe-core/src/time/cfe_time_task.c ****     Status = CFE_SB_Subscribe(CFE_TIME_TONE_CMD_MID,
 329:/home/simulink/cFS_FreeRTOS_seL4/cfe/fsw/cfe-core/src/time/cfe_time_task.c ****                               CFE_TIME_TaskData.CmdPipe);
 330:/home/simulink/cFS_FreeRTOS_seL4/cfe/fsw/cfe-core/src/time/cfe_time_task.c ****     #endif
 331:/home/simulink/cFS_FreeRTOS_seL4/cfe/fsw/cfe-core/src/time/cfe_time_task.c ****     
 332:/home/simulink/cFS_FreeRTOS_seL4/cfe/fsw/cfe-core/src/time/cfe_time_task.c ****     #if (CFE_TIME_CFG_SERVER == TRUE)
 333:/home/simulink/cFS_FreeRTOS_seL4/cfe/fsw/cfe-core/src/time/cfe_time_task.c ****     Status = CFE_SB_SubscribeLocal(CFE_TIME_TONE_CMD_MID,
 334:/home/simulink/cFS_FreeRTOS_seL4/cfe/fsw/cfe-core/src/time/cfe_time_task.c ****                               CFE_TIME_TaskData.CmdPipe,4);
 448               	.loc 1 334 0
 449 02fe 1039 0000 	move.b CFE_TIME_TaskData+264,%d0
 449      0000 
 333:/home/simulink/cFS_FreeRTOS_seL4/cfe/fsw/cfe-core/src/time/cfe_time_task.c ****                               CFE_TIME_TaskData.CmdPipe,4);
 450               	.loc 1 333 0
 451 0304 1000      	move.b %d0,%d0
 452 0306 0280 0000 	and.l #255,%d0
 452      00FF 
 453 030c 4878 0004 	pea 4.w
 454               	.cfi_def_cfa_offset 20
 455 0310 2F00      	move.l %d0,-(%sp)
 456               	.cfi_def_cfa_offset 24
 457 0312 4878 1810 	pea 6160.w
 458               	.cfi_def_cfa_offset 28
 459 0316 4EB9 0000 	jsr CFE_SB_SubscribeLocal
 459      0000 
 460 031c 4FEF 000C 	lea (12,%sp),%sp
 461               	.cfi_def_cfa_offset 16
 462 0320 2F40 0008 	move.l %d0,8(%sp)
 335:/home/simulink/cFS_FreeRTOS_seL4/cfe/fsw/cfe-core/src/time/cfe_time_task.c ****     #endif
 336:/home/simulink/cFS_FreeRTOS_seL4/cfe/fsw/cfe-core/src/time/cfe_time_task.c ****     if(Status != CFE_SUCCESS)
 463               	.loc 1 336 0
 464 0324 4AAF 0008 	tst.l 8(%sp)
 465 0328 671C      	jeq .L18
 337:/home/simulink/cFS_FreeRTOS_seL4/cfe/fsw/cfe-core/src/time/cfe_time_task.c ****     {
 338:/home/simulink/cFS_FreeRTOS_seL4/cfe/fsw/cfe-core/src/time/cfe_time_task.c ****       CFE_ES_WriteToSysLog("TIME:Error subscribing to tone cmd:RC=0x%08X\n",(unsigned int)Status);
 466               	.loc 1 338 0
 467 032a 202F 0008 	move.l 8(%sp),%d0
 468 032e 2F00      	move.l %d0,-(%sp)
 469               	.cfi_def_cfa_offset 20
 470 0330 4879 0000 	pea .LC14
 470      0000 
 471               	.cfi_def_cfa_offset 24
 472 0336 4EB9 0000 	jsr CFE_ES_WriteToSysLog
 472      0000 
 473 033c 508F      	addq.l #8,%sp
 474               	.cfi_def_cfa_offset 16
68K GAS   			page 18


 339:/home/simulink/cFS_FreeRTOS_seL4/cfe/fsw/cfe-core/src/time/cfe_time_task.c ****       return Status;
 475               	.loc 1 339 0
 476 033e 202F 0008 	move.l 8(%sp),%d0
 477 0342 6000 01B4 	jra .L26
 478               	.L18:
 340:/home/simulink/cFS_FreeRTOS_seL4/cfe/fsw/cfe-core/src/time/cfe_time_task.c ****     }/* end if */
 341:/home/simulink/cFS_FreeRTOS_seL4/cfe/fsw/cfe-core/src/time/cfe_time_task.c **** 
 342:/home/simulink/cFS_FreeRTOS_seL4/cfe/fsw/cfe-core/src/time/cfe_time_task.c **** 
 343:/home/simulink/cFS_FreeRTOS_seL4/cfe/fsw/cfe-core/src/time/cfe_time_task.c ****     /*
 344:/home/simulink/cFS_FreeRTOS_seL4/cfe/fsw/cfe-core/src/time/cfe_time_task.c ****     ** Subscribe to time at the tone "data" commands...
 345:/home/simulink/cFS_FreeRTOS_seL4/cfe/fsw/cfe-core/src/time/cfe_time_task.c ****     */
 346:/home/simulink/cFS_FreeRTOS_seL4/cfe/fsw/cfe-core/src/time/cfe_time_task.c ****     #if (CFE_TIME_CFG_CLIENT == TRUE)
 347:/home/simulink/cFS_FreeRTOS_seL4/cfe/fsw/cfe-core/src/time/cfe_time_task.c ****     Status = CFE_SB_Subscribe(CFE_TIME_DATA_CMD_MID,
 348:/home/simulink/cFS_FreeRTOS_seL4/cfe/fsw/cfe-core/src/time/cfe_time_task.c ****                               CFE_TIME_TaskData.CmdPipe);
 349:/home/simulink/cFS_FreeRTOS_seL4/cfe/fsw/cfe-core/src/time/cfe_time_task.c ****     #endif
 350:/home/simulink/cFS_FreeRTOS_seL4/cfe/fsw/cfe-core/src/time/cfe_time_task.c ****     
 351:/home/simulink/cFS_FreeRTOS_seL4/cfe/fsw/cfe-core/src/time/cfe_time_task.c ****     #if (CFE_TIME_CFG_SERVER == TRUE)
 352:/home/simulink/cFS_FreeRTOS_seL4/cfe/fsw/cfe-core/src/time/cfe_time_task.c ****     Status = CFE_SB_SubscribeLocal(CFE_TIME_DATA_CMD_MID,
 353:/home/simulink/cFS_FreeRTOS_seL4/cfe/fsw/cfe-core/src/time/cfe_time_task.c ****                               CFE_TIME_TaskData.CmdPipe,4);
 479               	.loc 1 353 0
 480 0346 1039 0000 	move.b CFE_TIME_TaskData+264,%d0
 480      0000 
 352:/home/simulink/cFS_FreeRTOS_seL4/cfe/fsw/cfe-core/src/time/cfe_time_task.c ****                               CFE_TIME_TaskData.CmdPipe,4);
 481               	.loc 1 352 0
 482 034c 1000      	move.b %d0,%d0
 483 034e 0280 0000 	and.l #255,%d0
 483      00FF 
 484 0354 4878 0004 	pea 4.w
 485               	.cfi_def_cfa_offset 20
 486 0358 2F00      	move.l %d0,-(%sp)
 487               	.cfi_def_cfa_offset 24
 488 035a 4878 1860 	pea 6240.w
 489               	.cfi_def_cfa_offset 28
 490 035e 4EB9 0000 	jsr CFE_SB_SubscribeLocal
 490      0000 
 491 0364 4FEF 000C 	lea (12,%sp),%sp
 492               	.cfi_def_cfa_offset 16
 493 0368 2F40 0008 	move.l %d0,8(%sp)
 354:/home/simulink/cFS_FreeRTOS_seL4/cfe/fsw/cfe-core/src/time/cfe_time_task.c ****     #endif
 355:/home/simulink/cFS_FreeRTOS_seL4/cfe/fsw/cfe-core/src/time/cfe_time_task.c ****     if(Status != CFE_SUCCESS)
 494               	.loc 1 355 0
 495 036c 4AAF 0008 	tst.l 8(%sp)
 496 0370 671C      	jeq .L19
 356:/home/simulink/cFS_FreeRTOS_seL4/cfe/fsw/cfe-core/src/time/cfe_time_task.c ****     {
 357:/home/simulink/cFS_FreeRTOS_seL4/cfe/fsw/cfe-core/src/time/cfe_time_task.c ****       CFE_ES_WriteToSysLog("TIME:Error subscribing to time data cmd:RC=0x%08X\n",(unsigned int)Stat
 497               	.loc 1 357 0
 498 0372 202F 0008 	move.l 8(%sp),%d0
 499 0376 2F00      	move.l %d0,-(%sp)
 500               	.cfi_def_cfa_offset 20
 501 0378 4879 0000 	pea .LC15
 501      0000 
 502               	.cfi_def_cfa_offset 24
 503 037e 4EB9 0000 	jsr CFE_ES_WriteToSysLog
 503      0000 
 504 0384 508F      	addq.l #8,%sp
 505               	.cfi_def_cfa_offset 16
 358:/home/simulink/cFS_FreeRTOS_seL4/cfe/fsw/cfe-core/src/time/cfe_time_task.c ****       return Status;
68K GAS   			page 19


 506               	.loc 1 358 0
 507 0386 202F 0008 	move.l 8(%sp),%d0
 508 038a 6000 016C 	jra .L26
 509               	.L19:
 359:/home/simulink/cFS_FreeRTOS_seL4/cfe/fsw/cfe-core/src/time/cfe_time_task.c ****     }/* end if */
 360:/home/simulink/cFS_FreeRTOS_seL4/cfe/fsw/cfe-core/src/time/cfe_time_task.c ****     
 361:/home/simulink/cFS_FreeRTOS_seL4/cfe/fsw/cfe-core/src/time/cfe_time_task.c ****     
 362:/home/simulink/cFS_FreeRTOS_seL4/cfe/fsw/cfe-core/src/time/cfe_time_task.c ****     /*
 363:/home/simulink/cFS_FreeRTOS_seL4/cfe/fsw/cfe-core/src/time/cfe_time_task.c ****     ** Subscribe to "fake" tone signal commands...
 364:/home/simulink/cFS_FreeRTOS_seL4/cfe/fsw/cfe-core/src/time/cfe_time_task.c ****     */
 365:/home/simulink/cFS_FreeRTOS_seL4/cfe/fsw/cfe-core/src/time/cfe_time_task.c ****     #if (CFE_TIME_CFG_FAKE_TONE == TRUE)
 366:/home/simulink/cFS_FreeRTOS_seL4/cfe/fsw/cfe-core/src/time/cfe_time_task.c **** 
 367:/home/simulink/cFS_FreeRTOS_seL4/cfe/fsw/cfe-core/src/time/cfe_time_task.c ****     #if (CFE_TIME_CFG_CLIENT == TRUE)
 368:/home/simulink/cFS_FreeRTOS_seL4/cfe/fsw/cfe-core/src/time/cfe_time_task.c ****     Status = CFE_SB_Subscribe(CFE_TIME_FAKE_CMD_MID,
 369:/home/simulink/cFS_FreeRTOS_seL4/cfe/fsw/cfe-core/src/time/cfe_time_task.c ****                               CFE_TIME_TaskData.CmdPipe);
 370:/home/simulink/cFS_FreeRTOS_seL4/cfe/fsw/cfe-core/src/time/cfe_time_task.c ****     #endif
 371:/home/simulink/cFS_FreeRTOS_seL4/cfe/fsw/cfe-core/src/time/cfe_time_task.c ****     
 372:/home/simulink/cFS_FreeRTOS_seL4/cfe/fsw/cfe-core/src/time/cfe_time_task.c ****     #if (CFE_TIME_CFG_SERVER == TRUE)
 373:/home/simulink/cFS_FreeRTOS_seL4/cfe/fsw/cfe-core/src/time/cfe_time_task.c ****     Status = CFE_SB_SubscribeLocal(CFE_TIME_FAKE_CMD_MID,
 374:/home/simulink/cFS_FreeRTOS_seL4/cfe/fsw/cfe-core/src/time/cfe_time_task.c ****                                    CFE_TIME_TaskData.CmdPipe,4);
 510               	.loc 1 374 0
 511 038e 1039 0000 	move.b CFE_TIME_TaskData+264,%d0
 511      0000 
 373:/home/simulink/cFS_FreeRTOS_seL4/cfe/fsw/cfe-core/src/time/cfe_time_task.c ****                                    CFE_TIME_TaskData.CmdPipe,4);
 512               	.loc 1 373 0
 513 0394 1000      	move.b %d0,%d0
 514 0396 0280 0000 	and.l #255,%d0
 514      00FF 
 515 039c 4878 0004 	pea 4.w
 516               	.cfi_def_cfa_offset 20
 517 03a0 2F00      	move.l %d0,-(%sp)
 518               	.cfi_def_cfa_offset 24
 519 03a2 4878 1861 	pea 6241.w
 520               	.cfi_def_cfa_offset 28
 521 03a6 4EB9 0000 	jsr CFE_SB_SubscribeLocal
 521      0000 
 522 03ac 4FEF 000C 	lea (12,%sp),%sp
 523               	.cfi_def_cfa_offset 16
 524 03b0 2F40 0008 	move.l %d0,8(%sp)
 375:/home/simulink/cFS_FreeRTOS_seL4/cfe/fsw/cfe-core/src/time/cfe_time_task.c ****     #endif
 376:/home/simulink/cFS_FreeRTOS_seL4/cfe/fsw/cfe-core/src/time/cfe_time_task.c ****     
 377:/home/simulink/cFS_FreeRTOS_seL4/cfe/fsw/cfe-core/src/time/cfe_time_task.c ****     if(Status != CFE_SUCCESS)
 525               	.loc 1 377 0
 526 03b4 4AAF 0008 	tst.l 8(%sp)
 527 03b8 671C      	jeq .L20
 378:/home/simulink/cFS_FreeRTOS_seL4/cfe/fsw/cfe-core/src/time/cfe_time_task.c ****     {
 379:/home/simulink/cFS_FreeRTOS_seL4/cfe/fsw/cfe-core/src/time/cfe_time_task.c ****       CFE_ES_WriteToSysLog("TIME:Error subscribing to fake tone signal cmds:RC=0x%08X\n",(unsigned 
 528               	.loc 1 379 0
 529 03ba 202F 0008 	move.l 8(%sp),%d0
 530 03be 2F00      	move.l %d0,-(%sp)
 531               	.cfi_def_cfa_offset 20
 532 03c0 4879 0000 	pea .LC16
 532      0000 
 533               	.cfi_def_cfa_offset 24
 534 03c6 4EB9 0000 	jsr CFE_ES_WriteToSysLog
 534      0000 
 535 03cc 508F      	addq.l #8,%sp
68K GAS   			page 20


 536               	.cfi_def_cfa_offset 16
 380:/home/simulink/cFS_FreeRTOS_seL4/cfe/fsw/cfe-core/src/time/cfe_time_task.c ****       return Status;
 537               	.loc 1 380 0
 538 03ce 202F 0008 	move.l 8(%sp),%d0
 539 03d2 6000 0124 	jra .L26
 540               	.L20:
 381:/home/simulink/cFS_FreeRTOS_seL4/cfe/fsw/cfe-core/src/time/cfe_time_task.c ****     }/* end if */    
 382:/home/simulink/cFS_FreeRTOS_seL4/cfe/fsw/cfe-core/src/time/cfe_time_task.c ****     #endif    
 383:/home/simulink/cFS_FreeRTOS_seL4/cfe/fsw/cfe-core/src/time/cfe_time_task.c ****     
 384:/home/simulink/cFS_FreeRTOS_seL4/cfe/fsw/cfe-core/src/time/cfe_time_task.c ****     
 385:/home/simulink/cFS_FreeRTOS_seL4/cfe/fsw/cfe-core/src/time/cfe_time_task.c ****     /*
 386:/home/simulink/cFS_FreeRTOS_seL4/cfe/fsw/cfe-core/src/time/cfe_time_task.c ****     ** Subscribe to time at the tone "request data" commands...
 387:/home/simulink/cFS_FreeRTOS_seL4/cfe/fsw/cfe-core/src/time/cfe_time_task.c ****     */
 388:/home/simulink/cFS_FreeRTOS_seL4/cfe/fsw/cfe-core/src/time/cfe_time_task.c ****     #if (CFE_TIME_CFG_SERVER == TRUE)
 389:/home/simulink/cFS_FreeRTOS_seL4/cfe/fsw/cfe-core/src/time/cfe_time_task.c ****       #if (CFE_TIME_CFG_SOURCE != TRUE)
 390:/home/simulink/cFS_FreeRTOS_seL4/cfe/fsw/cfe-core/src/time/cfe_time_task.c ****         #if (CFE_TIME_CFG_FAKE_TONE != TRUE)
 391:/home/simulink/cFS_FreeRTOS_seL4/cfe/fsw/cfe-core/src/time/cfe_time_task.c **** 
 392:/home/simulink/cFS_FreeRTOS_seL4/cfe/fsw/cfe-core/src/time/cfe_time_task.c ****         
 393:/home/simulink/cFS_FreeRTOS_seL4/cfe/fsw/cfe-core/src/time/cfe_time_task.c ****    Status = CFE_SB_Subscribe(CFE_TIME_SEND_CMD_MID,
 394:/home/simulink/cFS_FreeRTOS_seL4/cfe/fsw/cfe-core/src/time/cfe_time_task.c ****                                   CFE_TIME_TaskData.CmdPipe);
 395:/home/simulink/cFS_FreeRTOS_seL4/cfe/fsw/cfe-core/src/time/cfe_time_task.c ****         if(Status != CFE_SUCCESS)
 396:/home/simulink/cFS_FreeRTOS_seL4/cfe/fsw/cfe-core/src/time/cfe_time_task.c ****         {
 397:/home/simulink/cFS_FreeRTOS_seL4/cfe/fsw/cfe-core/src/time/cfe_time_task.c ****           CFE_ES_WriteToSysLog("TIME:Error subscribing to time at the tone request data cmds:RC=0x%
 398:/home/simulink/cFS_FreeRTOS_seL4/cfe/fsw/cfe-core/src/time/cfe_time_task.c ****           return Status;
 399:/home/simulink/cFS_FreeRTOS_seL4/cfe/fsw/cfe-core/src/time/cfe_time_task.c ****         }/* end if */
 400:/home/simulink/cFS_FreeRTOS_seL4/cfe/fsw/cfe-core/src/time/cfe_time_task.c **** 
 401:/home/simulink/cFS_FreeRTOS_seL4/cfe/fsw/cfe-core/src/time/cfe_time_task.c ****         #endif
 402:/home/simulink/cFS_FreeRTOS_seL4/cfe/fsw/cfe-core/src/time/cfe_time_task.c ****       #endif
 403:/home/simulink/cFS_FreeRTOS_seL4/cfe/fsw/cfe-core/src/time/cfe_time_task.c ****     #endif
 404:/home/simulink/cFS_FreeRTOS_seL4/cfe/fsw/cfe-core/src/time/cfe_time_task.c **** 
 405:/home/simulink/cFS_FreeRTOS_seL4/cfe/fsw/cfe-core/src/time/cfe_time_task.c ****     /*
 406:/home/simulink/cFS_FreeRTOS_seL4/cfe/fsw/cfe-core/src/time/cfe_time_task.c ****     ** Subscribe to Time task ground command packets...
 407:/home/simulink/cFS_FreeRTOS_seL4/cfe/fsw/cfe-core/src/time/cfe_time_task.c ****     */
 408:/home/simulink/cFS_FreeRTOS_seL4/cfe/fsw/cfe-core/src/time/cfe_time_task.c ****     Status = CFE_SB_Subscribe(CFE_TIME_CMD_MID,
 409:/home/simulink/cFS_FreeRTOS_seL4/cfe/fsw/cfe-core/src/time/cfe_time_task.c ****                               CFE_TIME_TaskData.CmdPipe);
 541               	.loc 1 409 0
 542 03d6 1039 0000 	move.b CFE_TIME_TaskData+264,%d0
 542      0000 
 408:/home/simulink/cFS_FreeRTOS_seL4/cfe/fsw/cfe-core/src/time/cfe_time_task.c ****                               CFE_TIME_TaskData.CmdPipe);
 543               	.loc 1 408 0
 544 03dc 1000      	move.b %d0,%d0
 545 03de 0280 0000 	and.l #255,%d0
 545      00FF 
 546 03e4 2F00      	move.l %d0,-(%sp)
 547               	.cfi_def_cfa_offset 20
 548 03e6 4878 1805 	pea 6149.w
 549               	.cfi_def_cfa_offset 24
 550 03ea 4EB9 0000 	jsr CFE_SB_Subscribe
 550      0000 
 551 03f0 508F      	addq.l #8,%sp
 552               	.cfi_def_cfa_offset 16
 553 03f2 2F40 0008 	move.l %d0,8(%sp)
 410:/home/simulink/cFS_FreeRTOS_seL4/cfe/fsw/cfe-core/src/time/cfe_time_task.c ****     if(Status != CFE_SUCCESS)
 554               	.loc 1 410 0
 555 03f6 4AAF 0008 	tst.l 8(%sp)
 556 03fa 671C      	jeq .L21
 411:/home/simulink/cFS_FreeRTOS_seL4/cfe/fsw/cfe-core/src/time/cfe_time_task.c ****     {
68K GAS   			page 21


 412:/home/simulink/cFS_FreeRTOS_seL4/cfe/fsw/cfe-core/src/time/cfe_time_task.c ****       CFE_ES_WriteToSysLog("TIME:Error subscribing to time task gnd cmds:RC=0x%08X\n",(unsigned int
 557               	.loc 1 412 0
 558 03fc 202F 0008 	move.l 8(%sp),%d0
 559 0400 2F00      	move.l %d0,-(%sp)
 560               	.cfi_def_cfa_offset 20
 561 0402 4879 0000 	pea .LC17
 561      0000 
 562               	.cfi_def_cfa_offset 24
 563 0408 4EB9 0000 	jsr CFE_ES_WriteToSysLog
 563      0000 
 564 040e 508F      	addq.l #8,%sp
 565               	.cfi_def_cfa_offset 16
 413:/home/simulink/cFS_FreeRTOS_seL4/cfe/fsw/cfe-core/src/time/cfe_time_task.c ****       return Status;
 566               	.loc 1 413 0
 567 0410 202F 0008 	move.l 8(%sp),%d0
 568 0414 6000 00E2 	jra .L26
 569               	.L21:
 414:/home/simulink/cFS_FreeRTOS_seL4/cfe/fsw/cfe-core/src/time/cfe_time_task.c ****     }/* end if */  
 415:/home/simulink/cFS_FreeRTOS_seL4/cfe/fsw/cfe-core/src/time/cfe_time_task.c **** 
 416:/home/simulink/cFS_FreeRTOS_seL4/cfe/fsw/cfe-core/src/time/cfe_time_task.c **** 
 417:/home/simulink/cFS_FreeRTOS_seL4/cfe/fsw/cfe-core/src/time/cfe_time_task.c ****     Status = CFE_EVS_SendEvent(CFE_TIME_INIT_EID,
 570               	.loc 1 417 0
 571 0418 4879 0000 	pea .LC18
 571      0000 
 572               	.cfi_def_cfa_offset 20
 573 041e 4878 0002 	pea 2.w
 574               	.cfi_def_cfa_offset 24
 575 0422 4878 0001 	pea 1.w
 576               	.cfi_def_cfa_offset 28
 577 0426 4EB9 0000 	jsr CFE_EVS_SendEvent
 577      0000 
 578 042c 4FEF 000C 	lea (12,%sp),%sp
 579               	.cfi_def_cfa_offset 16
 580 0430 2F40 0008 	move.l %d0,8(%sp)
 418:/home/simulink/cFS_FreeRTOS_seL4/cfe/fsw/cfe-core/src/time/cfe_time_task.c ****                                CFE_EVS_INFORMATION,
 419:/home/simulink/cFS_FreeRTOS_seL4/cfe/fsw/cfe-core/src/time/cfe_time_task.c ****                                "cFE TIME Initialized");
 420:/home/simulink/cFS_FreeRTOS_seL4/cfe/fsw/cfe-core/src/time/cfe_time_task.c ****     if(Status != CFE_SUCCESS)
 581               	.loc 1 420 0
 582 0434 4AAF 0008 	tst.l 8(%sp)
 583 0438 671C      	jeq .L22
 421:/home/simulink/cFS_FreeRTOS_seL4/cfe/fsw/cfe-core/src/time/cfe_time_task.c ****     {
 422:/home/simulink/cFS_FreeRTOS_seL4/cfe/fsw/cfe-core/src/time/cfe_time_task.c ****       CFE_ES_WriteToSysLog("TIME:Error sending init event:RC=0x%08X\n",(unsigned int)Status);
 584               	.loc 1 422 0
 585 043a 202F 0008 	move.l 8(%sp),%d0
 586 043e 2F00      	move.l %d0,-(%sp)
 587               	.cfi_def_cfa_offset 20
 588 0440 4879 0000 	pea .LC19
 588      0000 
 589               	.cfi_def_cfa_offset 24
 590 0446 4EB9 0000 	jsr CFE_ES_WriteToSysLog
 590      0000 
 591 044c 508F      	addq.l #8,%sp
 592               	.cfi_def_cfa_offset 16
 423:/home/simulink/cFS_FreeRTOS_seL4/cfe/fsw/cfe-core/src/time/cfe_time_task.c ****       return Status;
 593               	.loc 1 423 0
 594 044e 202F 0008 	move.l 8(%sp),%d0
 595 0452 6000 00A4 	jra .L26
68K GAS   			page 22


 596               	.L22:
 424:/home/simulink/cFS_FreeRTOS_seL4/cfe/fsw/cfe-core/src/time/cfe_time_task.c ****     }/* end if */
 425:/home/simulink/cFS_FreeRTOS_seL4/cfe/fsw/cfe-core/src/time/cfe_time_task.c **** 
 426:/home/simulink/cFS_FreeRTOS_seL4/cfe/fsw/cfe-core/src/time/cfe_time_task.c ****     /*
 427:/home/simulink/cFS_FreeRTOS_seL4/cfe/fsw/cfe-core/src/time/cfe_time_task.c ****     ** Select primary vs redundant tone interrupt signal...
 428:/home/simulink/cFS_FreeRTOS_seL4/cfe/fsw/cfe-core/src/time/cfe_time_task.c ****     */
 429:/home/simulink/cFS_FreeRTOS_seL4/cfe/fsw/cfe-core/src/time/cfe_time_task.c ****     #if (CFE_TIME_CFG_SIGNAL == TRUE)
 430:/home/simulink/cFS_FreeRTOS_seL4/cfe/fsw/cfe-core/src/time/cfe_time_task.c ****     OS_SelectTone(CFE_TIME_TaskData.ClockSignal);
 431:/home/simulink/cFS_FreeRTOS_seL4/cfe/fsw/cfe-core/src/time/cfe_time_task.c ****     #endif
 432:/home/simulink/cFS_FreeRTOS_seL4/cfe/fsw/cfe-core/src/time/cfe_time_task.c **** 
 433:/home/simulink/cFS_FreeRTOS_seL4/cfe/fsw/cfe-core/src/time/cfe_time_task.c ****     /*
 434:/home/simulink/cFS_FreeRTOS_seL4/cfe/fsw/cfe-core/src/time/cfe_time_task.c ****      * Check to see if the OSAL in use implements the TimeBase API
 435:/home/simulink/cFS_FreeRTOS_seL4/cfe/fsw/cfe-core/src/time/cfe_time_task.c ****      * and if the PSP has set up a system time base.  If so, then create
 436:/home/simulink/cFS_FreeRTOS_seL4/cfe/fsw/cfe-core/src/time/cfe_time_task.c ****      * a 1Hz callback based on that system time base.  This call should
 437:/home/simulink/cFS_FreeRTOS_seL4/cfe/fsw/cfe-core/src/time/cfe_time_task.c ****      * return OS_ERR_NOT_IMPLEMENTED if the OSAL does not support this,
 438:/home/simulink/cFS_FreeRTOS_seL4/cfe/fsw/cfe-core/src/time/cfe_time_task.c ****      * or OS_ERR_NAME_NOT_FOUND if the PSP didn't set this up.  Either
 439:/home/simulink/cFS_FreeRTOS_seL4/cfe/fsw/cfe-core/src/time/cfe_time_task.c ****      * way any error here means the PSP must use the "old way" and call
 440:/home/simulink/cFS_FreeRTOS_seL4/cfe/fsw/cfe-core/src/time/cfe_time_task.c ****      * the 1hz function directly.
 441:/home/simulink/cFS_FreeRTOS_seL4/cfe/fsw/cfe-core/src/time/cfe_time_task.c ****      */
 442:/home/simulink/cFS_FreeRTOS_seL4/cfe/fsw/cfe-core/src/time/cfe_time_task.c ****     Status = OS_TimeBaseGetIdByName(&TimeBaseId, "cFS-Master");
 597               	.loc 1 442 0
 598 0456 4879 0000 	pea .LC20
 598      0000 
 599               	.cfi_def_cfa_offset 20
 600 045c 200F      	move.l %sp,%d0
 601 045e 5080      	addq.l #8,%d0
 602 0460 2F00      	move.l %d0,-(%sp)
 603               	.cfi_def_cfa_offset 24
 604 0462 4EB9 0000 	jsr OS_TimeBaseGetIdByName
 604      0000 
 605 0468 508F      	addq.l #8,%sp
 606               	.cfi_def_cfa_offset 16
 607 046a 2F40 0008 	move.l %d0,8(%sp)
 443:/home/simulink/cFS_FreeRTOS_seL4/cfe/fsw/cfe-core/src/time/cfe_time_task.c ****     if (Status == OS_SUCCESS)
 608               	.loc 1 443 0
 609 046e 4AAF 0008 	tst.l 8(%sp)
 610 0472 6600 0082 	jne .L23
 444:/home/simulink/cFS_FreeRTOS_seL4/cfe/fsw/cfe-core/src/time/cfe_time_task.c ****     {
 445:/home/simulink/cFS_FreeRTOS_seL4/cfe/fsw/cfe-core/src/time/cfe_time_task.c ****         /* Create the 1Hz callback */
 446:/home/simulink/cFS_FreeRTOS_seL4/cfe/fsw/cfe-core/src/time/cfe_time_task.c ****         Status = OS_TimerAdd(&TimerId, "cFS-1Hz", TimeBaseId, CFE_TIME_Local1HzTimerCallback, NULL)
 611               	.loc 1 446 0
 612 0476 202F 0004 	move.l 4(%sp),%d0
 613 047a 42A7      	clr.l -(%sp)
 614               	.cfi_def_cfa_offset 20
 615 047c 4879 0000 	pea CFE_TIME_Local1HzTimerCallback
 615      0000 
 616               	.cfi_def_cfa_offset 24
 617 0482 2F00      	move.l %d0,-(%sp)
 618               	.cfi_def_cfa_offset 28
 619 0484 4879 0000 	pea .LC21
 619      0000 
 620               	.cfi_def_cfa_offset 32
 621 048a 200F      	move.l %sp,%d0
 622 048c 0680 0000 	add.l #16,%d0
 622      0010 
 623 0492 2F00      	move.l %d0,-(%sp)
 624               	.cfi_def_cfa_offset 36
68K GAS   			page 23


 625 0494 4EB9 0000 	jsr OS_TimerAdd
 625      0000 
 626 049a 4FEF 0014 	lea (20,%sp),%sp
 627               	.cfi_def_cfa_offset 16
 628 049e 2F40 0008 	move.l %d0,8(%sp)
 447:/home/simulink/cFS_FreeRTOS_seL4/cfe/fsw/cfe-core/src/time/cfe_time_task.c ****         if (Status == OS_SUCCESS)
 629               	.loc 1 447 0
 630 04a2 4AAF 0008 	tst.l 8(%sp)
 631 04a6 663A      	jne .L24
 448:/home/simulink/cFS_FreeRTOS_seL4/cfe/fsw/cfe-core/src/time/cfe_time_task.c ****         {
 449:/home/simulink/cFS_FreeRTOS_seL4/cfe/fsw/cfe-core/src/time/cfe_time_task.c ****             Status = OS_TimerSet(TimerId, 500000, 1000000);
 632               	.loc 1 449 0
 633 04a8 2017      	move.l (%sp),%d0
 634 04aa 2F3C 000F 	move.l #1000000,-(%sp)
 634      4240 
 635               	.cfi_def_cfa_offset 20
 636 04b0 2F3C 0007 	move.l #500000,-(%sp)
 636      A120 
 637               	.cfi_def_cfa_offset 24
 638 04b6 2F00      	move.l %d0,-(%sp)
 639               	.cfi_def_cfa_offset 28
 640 04b8 4EB9 0000 	jsr OS_TimerSet
 640      0000 
 641 04be 4FEF 000C 	lea (12,%sp),%sp
 642               	.cfi_def_cfa_offset 16
 643 04c2 2F40 0008 	move.l %d0,8(%sp)
 450:/home/simulink/cFS_FreeRTOS_seL4/cfe/fsw/cfe-core/src/time/cfe_time_task.c ****             if (Status != OS_SUCCESS)
 644               	.loc 1 450 0
 645 04c6 4AAF 0008 	tst.l 8(%sp)
 646 04ca 672A      	jeq .L23
 451:/home/simulink/cFS_FreeRTOS_seL4/cfe/fsw/cfe-core/src/time/cfe_time_task.c ****             {
 452:/home/simulink/cFS_FreeRTOS_seL4/cfe/fsw/cfe-core/src/time/cfe_time_task.c ****                 CFE_ES_WriteToSysLog("TIME:1Hz OS_TimerSet failed:RC=0x%08X\n",(unsigned int)Status
 647               	.loc 1 452 0
 648 04cc 202F 0008 	move.l 8(%sp),%d0
 649 04d0 2F00      	move.l %d0,-(%sp)
 650               	.cfi_def_cfa_offset 20
 651 04d2 4879 0000 	pea .LC22
 651      0000 
 652               	.cfi_def_cfa_offset 24
 653 04d8 4EB9 0000 	jsr CFE_ES_WriteToSysLog
 653      0000 
 654 04de 508F      	addq.l #8,%sp
 655               	.cfi_def_cfa_offset 16
 656 04e0 6014      	jra .L23
 657               	.L24:
 453:/home/simulink/cFS_FreeRTOS_seL4/cfe/fsw/cfe-core/src/time/cfe_time_task.c ****             }
 454:/home/simulink/cFS_FreeRTOS_seL4/cfe/fsw/cfe-core/src/time/cfe_time_task.c ****         }
 455:/home/simulink/cFS_FreeRTOS_seL4/cfe/fsw/cfe-core/src/time/cfe_time_task.c ****         else
 456:/home/simulink/cFS_FreeRTOS_seL4/cfe/fsw/cfe-core/src/time/cfe_time_task.c ****         {
 457:/home/simulink/cFS_FreeRTOS_seL4/cfe/fsw/cfe-core/src/time/cfe_time_task.c ****             CFE_ES_WriteToSysLog("TIME:1Hz OS_TimerAdd failed:RC=0x%08X\n",(unsigned int)Status);
 658               	.loc 1 457 0
 659 04e2 202F 0008 	move.l 8(%sp),%d0
 660 04e6 2F00      	move.l %d0,-(%sp)
 661               	.cfi_def_cfa_offset 20
 662 04e8 4879 0000 	pea .LC23
 662      0000 
 663               	.cfi_def_cfa_offset 24
68K GAS   			page 24


 664 04ee 4EB9 0000 	jsr CFE_ES_WriteToSysLog
 664      0000 
 665 04f4 508F      	addq.l #8,%sp
 666               	.cfi_def_cfa_offset 16
 667               	.L23:
 458:/home/simulink/cFS_FreeRTOS_seL4/cfe/fsw/cfe-core/src/time/cfe_time_task.c ****         }
 459:/home/simulink/cFS_FreeRTOS_seL4/cfe/fsw/cfe-core/src/time/cfe_time_task.c ****     }
 460:/home/simulink/cFS_FreeRTOS_seL4/cfe/fsw/cfe-core/src/time/cfe_time_task.c **** 
 461:/home/simulink/cFS_FreeRTOS_seL4/cfe/fsw/cfe-core/src/time/cfe_time_task.c **** 
 462:/home/simulink/cFS_FreeRTOS_seL4/cfe/fsw/cfe-core/src/time/cfe_time_task.c ****     return CFE_SUCCESS;
 668               	.loc 1 462 0
 669 04f6 4280      	clr.l %d0
 670               	.L26:
 463:/home/simulink/cFS_FreeRTOS_seL4/cfe/fsw/cfe-core/src/time/cfe_time_task.c **** 
 464:/home/simulink/cFS_FreeRTOS_seL4/cfe/fsw/cfe-core/src/time/cfe_time_task.c **** } /* End of CFE_TIME_TaskInit() */
 671               	.loc 1 464 0 discriminator 1
 672 04f8 4FEF 000C 	lea (12,%sp),%sp
 673 04fc 4E75      	rts
 674               	.cfi_endproc
 675               	.LFE61:
 676               	.sizeCFE_TIME_TaskInit, .-CFE_TIME_TaskInit
 677               	.section.rodata
 678               	.LC24:
 679 0378 496E 7661 	.string"Invalid command code -- ID = 0x%X, CC = %d"
 679      6C69 6420 
 679      636F 6D6D 
 679      616E 6420 
 679      636F 6465 
 680               	.LC25:
 681 03a3 496E 7661 	.string"Invalid message ID -- ID = 0x%X"
 681      6C69 6420 
 681      6D65 7373 
 681      6167 6520 
 681      4944 202D 
 682               	.text
 683               	.align2
 684               	.globlCFE_TIME_TaskPipe
 685               	.typeCFE_TIME_TaskPipe, @function
 686               	CFE_TIME_TaskPipe:
 687               	.LFB62:
 465:/home/simulink/cFS_FreeRTOS_seL4/cfe/fsw/cfe-core/src/time/cfe_time_task.c **** 
 466:/home/simulink/cFS_FreeRTOS_seL4/cfe/fsw/cfe-core/src/time/cfe_time_task.c **** 
 467:/home/simulink/cFS_FreeRTOS_seL4/cfe/fsw/cfe-core/src/time/cfe_time_task.c **** /* * * * * * * * * * * * * * * * * * * * * * * * * * * * * * * * * */
 468:/home/simulink/cFS_FreeRTOS_seL4/cfe/fsw/cfe-core/src/time/cfe_time_task.c **** /*                                                                 */
 469:/home/simulink/cFS_FreeRTOS_seL4/cfe/fsw/cfe-core/src/time/cfe_time_task.c **** /* CFE_TIME_TaskPipe() -- Process command pipe message             */
 470:/home/simulink/cFS_FreeRTOS_seL4/cfe/fsw/cfe-core/src/time/cfe_time_task.c **** /*                                                                 */
 471:/home/simulink/cFS_FreeRTOS_seL4/cfe/fsw/cfe-core/src/time/cfe_time_task.c **** /* * * * * * * * * * * * * * * * * * * * * * * * * * * * * * * * * */
 472:/home/simulink/cFS_FreeRTOS_seL4/cfe/fsw/cfe-core/src/time/cfe_time_task.c **** 
 473:/home/simulink/cFS_FreeRTOS_seL4/cfe/fsw/cfe-core/src/time/cfe_time_task.c **** void CFE_TIME_TaskPipe(CFE_SB_MsgPtr_t MessagePtr)
 474:/home/simulink/cFS_FreeRTOS_seL4/cfe/fsw/cfe-core/src/time/cfe_time_task.c **** {
 688               	.loc 1 474 0
 689               	.cfi_startproc
 690 04fe 4FEF FFF4 	lea (-12,%sp),%sp
 691               	.cfi_def_cfa_offset 16
 475:/home/simulink/cFS_FreeRTOS_seL4/cfe/fsw/cfe-core/src/time/cfe_time_task.c ****     CFE_SB_MsgId_t MessageID;
 476:/home/simulink/cFS_FreeRTOS_seL4/cfe/fsw/cfe-core/src/time/cfe_time_task.c ****     CFE_SB_MsgPayloadPtr_t Payload;
 477:/home/simulink/cFS_FreeRTOS_seL4/cfe/fsw/cfe-core/src/time/cfe_time_task.c ****     uint16 CommandCode;
68K GAS   			page 25


 478:/home/simulink/cFS_FreeRTOS_seL4/cfe/fsw/cfe-core/src/time/cfe_time_task.c **** 
 479:/home/simulink/cFS_FreeRTOS_seL4/cfe/fsw/cfe-core/src/time/cfe_time_task.c ****     MessageID = CFE_SB_GetMsgId(MessagePtr);
 692               	.loc 1 479 0
 693 0502 2F2F 0010 	move.l 16(%sp),-(%sp)
 694               	.cfi_def_cfa_offset 20
 695 0506 4EB9 0000 	jsr CFE_SB_GetMsgId
 695      0000 
 696 050c 588F      	addq.l #4,%sp
 697               	.cfi_def_cfa_offset 16
 698 050e 3F40 000A 	move.w %d0,10(%sp)
 480:/home/simulink/cFS_FreeRTOS_seL4/cfe/fsw/cfe-core/src/time/cfe_time_task.c ****     Payload = &MessagePtr->Byte[CFE_SB_CMD_HDR_SIZE];
 699               	.loc 1 480 0
 700 0512 202F 0010 	move.l 16(%sp),%d0
 701 0516 5080      	addq.l #8,%d0
 702 0518 2F40 0004 	move.l %d0,4(%sp)
 481:/home/simulink/cFS_FreeRTOS_seL4/cfe/fsw/cfe-core/src/time/cfe_time_task.c ****     switch (MessageID)
 703               	.loc 1 481 0
 704 051c 4280      	clr.l %d0
 705 051e 302F 000A 	move.w 10(%sp),%d0
 706 0522 0C80 0000 	cmp.l #6160,%d0
 706      1810 
 707 0528 673A      	jeq .L29
 708 052a 0C80 0000 	cmp.l #6160,%d0
 708      1810 
 709 0530 6E14      	jgt .L30
 710 0532 0C80 0000 	cmp.l #6149,%d0
 710      1805 
 711 0538 674E      	jeq .L31
 712 053a 0C80 0000 	cmp.l #6157,%d0
 712      180D 
 713 0540 6718      	jeq .L32
 714 0542 6000 01CE 	jra .L28
 715               	.L30:
 716 0546 0C80 0000 	cmp.l #6240,%d0
 716      1860 
 717 054c 6720      	jeq .L33
 718 054e 0C80 0000 	cmp.l #6241,%d0
 718      1861 
 719 0554 6728      	jeq .L34
 720 0556 6000 01BA 	jra .L28
 721               	.L32:
 482:/home/simulink/cFS_FreeRTOS_seL4/cfe/fsw/cfe-core/src/time/cfe_time_task.c ****     {
 483:/home/simulink/cFS_FreeRTOS_seL4/cfe/fsw/cfe-core/src/time/cfe_time_task.c ****         /*
 484:/home/simulink/cFS_FreeRTOS_seL4/cfe/fsw/cfe-core/src/time/cfe_time_task.c ****         ** Housekeeping telemetry request...
 485:/home/simulink/cFS_FreeRTOS_seL4/cfe/fsw/cfe-core/src/time/cfe_time_task.c ****         */
 486:/home/simulink/cFS_FreeRTOS_seL4/cfe/fsw/cfe-core/src/time/cfe_time_task.c ****         case CFE_TIME_SEND_HK_MID:
 487:/home/simulink/cFS_FreeRTOS_seL4/cfe/fsw/cfe-core/src/time/cfe_time_task.c ****             CFE_TIME_HousekeepingCmd();
 722               	.loc 1 487 0
 723 055a 4EB9 0000 	jsr CFE_TIME_HousekeepingCmd
 723      0000 
 488:/home/simulink/cFS_FreeRTOS_seL4/cfe/fsw/cfe-core/src/time/cfe_time_task.c ****             break;
 724               	.loc 1 488 0
 725 0560 6000 01D2 	jra .L35
 726               	.L29:
 489:/home/simulink/cFS_FreeRTOS_seL4/cfe/fsw/cfe-core/src/time/cfe_time_task.c **** 
 490:/home/simulink/cFS_FreeRTOS_seL4/cfe/fsw/cfe-core/src/time/cfe_time_task.c ****         /*
 491:/home/simulink/cFS_FreeRTOS_seL4/cfe/fsw/cfe-core/src/time/cfe_time_task.c ****         ** Time at the tone "signal"...
68K GAS   			page 26


 492:/home/simulink/cFS_FreeRTOS_seL4/cfe/fsw/cfe-core/src/time/cfe_time_task.c ****         */
 493:/home/simulink/cFS_FreeRTOS_seL4/cfe/fsw/cfe-core/src/time/cfe_time_task.c ****         case CFE_TIME_TONE_CMD_MID:
 494:/home/simulink/cFS_FreeRTOS_seL4/cfe/fsw/cfe-core/src/time/cfe_time_task.c ****             CFE_TIME_ToneSignalCmd();
 727               	.loc 1 494 0
 728 0564 4EB9 0000 	jsr CFE_TIME_ToneSignalCmd
 728      0000 
 495:/home/simulink/cFS_FreeRTOS_seL4/cfe/fsw/cfe-core/src/time/cfe_time_task.c ****             break;
 729               	.loc 1 495 0
 730 056a 6000 01C8 	jra .L35
 731               	.L33:
 496:/home/simulink/cFS_FreeRTOS_seL4/cfe/fsw/cfe-core/src/time/cfe_time_task.c **** 
 497:/home/simulink/cFS_FreeRTOS_seL4/cfe/fsw/cfe-core/src/time/cfe_time_task.c ****         /*
 498:/home/simulink/cFS_FreeRTOS_seL4/cfe/fsw/cfe-core/src/time/cfe_time_task.c ****         ** Time at the tone "data"...
 499:/home/simulink/cFS_FreeRTOS_seL4/cfe/fsw/cfe-core/src/time/cfe_time_task.c ****         */
 500:/home/simulink/cFS_FreeRTOS_seL4/cfe/fsw/cfe-core/src/time/cfe_time_task.c ****         case CFE_TIME_DATA_CMD_MID:
 501:/home/simulink/cFS_FreeRTOS_seL4/cfe/fsw/cfe-core/src/time/cfe_time_task.c ****             CFE_TIME_ToneDataCmd(Payload);
 732               	.loc 1 501 0
 733 056e 2F2F 0004 	move.l 4(%sp),-(%sp)
 734               	.cfi_def_cfa_offset 20
 735 0572 4EB9 0000 	jsr CFE_TIME_ToneDataCmd
 735      0000 
 736 0578 588F      	addq.l #4,%sp
 737               	.cfi_def_cfa_offset 16
 502:/home/simulink/cFS_FreeRTOS_seL4/cfe/fsw/cfe-core/src/time/cfe_time_task.c ****             break;
 738               	.loc 1 502 0
 739 057a 6000 01B8 	jra .L35
 740               	.L34:
 503:/home/simulink/cFS_FreeRTOS_seL4/cfe/fsw/cfe-core/src/time/cfe_time_task.c **** 
 504:/home/simulink/cFS_FreeRTOS_seL4/cfe/fsw/cfe-core/src/time/cfe_time_task.c ****         /*
 505:/home/simulink/cFS_FreeRTOS_seL4/cfe/fsw/cfe-core/src/time/cfe_time_task.c ****         ** Simulate time at the tone "signal"...
 506:/home/simulink/cFS_FreeRTOS_seL4/cfe/fsw/cfe-core/src/time/cfe_time_task.c ****         */
 507:/home/simulink/cFS_FreeRTOS_seL4/cfe/fsw/cfe-core/src/time/cfe_time_task.c ****         #if (CFE_TIME_CFG_FAKE_TONE == TRUE)
 508:/home/simulink/cFS_FreeRTOS_seL4/cfe/fsw/cfe-core/src/time/cfe_time_task.c ****         case CFE_TIME_FAKE_CMD_MID:
 509:/home/simulink/cFS_FreeRTOS_seL4/cfe/fsw/cfe-core/src/time/cfe_time_task.c ****             CFE_TIME_FakeToneCmd();
 741               	.loc 1 509 0
 742 057e 4EB9 0000 	jsr CFE_TIME_FakeToneCmd
 742      0000 
 510:/home/simulink/cFS_FreeRTOS_seL4/cfe/fsw/cfe-core/src/time/cfe_time_task.c ****             break;
 743               	.loc 1 510 0
 744 0584 6000 01AE 	jra .L35
 745               	.L31:
 511:/home/simulink/cFS_FreeRTOS_seL4/cfe/fsw/cfe-core/src/time/cfe_time_task.c ****         #endif
 512:/home/simulink/cFS_FreeRTOS_seL4/cfe/fsw/cfe-core/src/time/cfe_time_task.c **** 
 513:/home/simulink/cFS_FreeRTOS_seL4/cfe/fsw/cfe-core/src/time/cfe_time_task.c ****         /*
 514:/home/simulink/cFS_FreeRTOS_seL4/cfe/fsw/cfe-core/src/time/cfe_time_task.c ****         ** Request for time at the tone "data"...
 515:/home/simulink/cFS_FreeRTOS_seL4/cfe/fsw/cfe-core/src/time/cfe_time_task.c ****         */
 516:/home/simulink/cFS_FreeRTOS_seL4/cfe/fsw/cfe-core/src/time/cfe_time_task.c ****         #if (CFE_TIME_CFG_SERVER == TRUE)
 517:/home/simulink/cFS_FreeRTOS_seL4/cfe/fsw/cfe-core/src/time/cfe_time_task.c ****           #if (CFE_TIME_CFG_SOURCE != TRUE)
 518:/home/simulink/cFS_FreeRTOS_seL4/cfe/fsw/cfe-core/src/time/cfe_time_task.c ****             #if (CFE_TIME_CFG_FAKE_TONE != TRUE)
 519:/home/simulink/cFS_FreeRTOS_seL4/cfe/fsw/cfe-core/src/time/cfe_time_task.c ****         case CFE_TIME_SEND_CMD_MID:
 520:/home/simulink/cFS_FreeRTOS_seL4/cfe/fsw/cfe-core/src/time/cfe_time_task.c ****             CFE_TIME_ToneSendCmd();
 521:/home/simulink/cFS_FreeRTOS_seL4/cfe/fsw/cfe-core/src/time/cfe_time_task.c ****             break;
 522:/home/simulink/cFS_FreeRTOS_seL4/cfe/fsw/cfe-core/src/time/cfe_time_task.c ****             #endif
 523:/home/simulink/cFS_FreeRTOS_seL4/cfe/fsw/cfe-core/src/time/cfe_time_task.c ****           #endif
 524:/home/simulink/cFS_FreeRTOS_seL4/cfe/fsw/cfe-core/src/time/cfe_time_task.c ****         #endif
 525:/home/simulink/cFS_FreeRTOS_seL4/cfe/fsw/cfe-core/src/time/cfe_time_task.c **** 
 526:/home/simulink/cFS_FreeRTOS_seL4/cfe/fsw/cfe-core/src/time/cfe_time_task.c ****         /*
68K GAS   			page 27


 527:/home/simulink/cFS_FreeRTOS_seL4/cfe/fsw/cfe-core/src/time/cfe_time_task.c ****         ** Time task ground commands...
 528:/home/simulink/cFS_FreeRTOS_seL4/cfe/fsw/cfe-core/src/time/cfe_time_task.c ****         */
 529:/home/simulink/cFS_FreeRTOS_seL4/cfe/fsw/cfe-core/src/time/cfe_time_task.c ****         case CFE_TIME_CMD_MID:
 530:/home/simulink/cFS_FreeRTOS_seL4/cfe/fsw/cfe-core/src/time/cfe_time_task.c **** 
 531:/home/simulink/cFS_FreeRTOS_seL4/cfe/fsw/cfe-core/src/time/cfe_time_task.c ****             CommandCode = CFE_SB_GetCmdCode(MessagePtr);
 746               	.loc 1 531 0
 747 0588 2F2F 0010 	move.l 16(%sp),-(%sp)
 748               	.cfi_def_cfa_offset 20
 749 058c 4EB9 0000 	jsr CFE_SB_GetCmdCode
 749      0000 
 750 0592 588F      	addq.l #4,%sp
 751               	.cfi_def_cfa_offset 16
 752 0594 3F40 0002 	move.w %d0,2(%sp)
 532:/home/simulink/cFS_FreeRTOS_seL4/cfe/fsw/cfe-core/src/time/cfe_time_task.c ****             switch (CommandCode)
 753               	.loc 1 532 0
 754 0598 4280      	clr.l %d0
 755 059a 302F 0002 	move.w 2(%sp),%d0
 756 059e 720F      	moveq #15,%d1
 757 05a0 B280      	cmp.l %d0,%d1
 758 05a2 6500 0132 	jcs .L36
 759 05a6 D080      	add.l %d0,%d0
 760 05a8 2040      	move.l %d0,%a0
 761 05aa D1FC 0000 	add.l #.L38,%a0
 761      0000 
 762 05b0 3010      	move.w (%a0),%d0
 763 05b2 48C0      	ext.l %d0
 764 05b4 4EFB 0802 	jmp %pc@(2,%d0:l)
 765               	.balignw 2,0x284c
 766               	.swbeg&16
 767               	.L38:
 768 05b8 0020      	.word .L37-.L38
 769 05ba 002A      	.word .L39-.L38
 770 05bc 0034      	.word .L40-.L38
 771 05be 004E      	.word .L41-.L38
 772 05c0 003E      	.word .L42-.L38
 773 05c2 006E      	.word .L43-.L38
 774 05c4 0082      	.word .L44-.L38
 775 05c6 0096      	.word .L45-.L38
 776 05c8 00A6      	.word .L46-.L38
 777 05ca 00B6      	.word .L47-.L38
 778 05cc 00C6      	.word .L48-.L38
 779 05ce 00D6      	.word .L49-.L38
 780 05d0 00E8      	.word .L50-.L38
 781 05d2 00FA      	.word .L51-.L38
 782 05d4 010C      	.word .L52-.L38
 783 05d6 005E      	.word .L53-.L38
 784               	.L37:
 533:/home/simulink/cFS_FreeRTOS_seL4/cfe/fsw/cfe-core/src/time/cfe_time_task.c ****             {
 534:/home/simulink/cFS_FreeRTOS_seL4/cfe/fsw/cfe-core/src/time/cfe_time_task.c ****                 case CFE_TIME_NOOP_CC:
 535:/home/simulink/cFS_FreeRTOS_seL4/cfe/fsw/cfe-core/src/time/cfe_time_task.c ****                     CFE_TIME_NoopCmd();
 785               	.loc 1 535 0
 786 05d8 4EB9 0000 	jsr CFE_TIME_NoopCmd
 786      0000 
 536:/home/simulink/cFS_FreeRTOS_seL4/cfe/fsw/cfe-core/src/time/cfe_time_task.c ****                     break;
 787               	.loc 1 536 0
 788 05de 6000 0130 	jra .L54
 789               	.L39:
68K GAS   			page 28


 537:/home/simulink/cFS_FreeRTOS_seL4/cfe/fsw/cfe-core/src/time/cfe_time_task.c **** 
 538:/home/simulink/cFS_FreeRTOS_seL4/cfe/fsw/cfe-core/src/time/cfe_time_task.c ****                 case CFE_TIME_RESET_CC:
 539:/home/simulink/cFS_FreeRTOS_seL4/cfe/fsw/cfe-core/src/time/cfe_time_task.c ****                     CFE_TIME_ResetCmd();
 790               	.loc 1 539 0
 791 05e2 4EB9 0000 	jsr CFE_TIME_ResetCmd
 791      0000 
 540:/home/simulink/cFS_FreeRTOS_seL4/cfe/fsw/cfe-core/src/time/cfe_time_task.c ****                     break;
 792               	.loc 1 540 0
 793 05e8 6000 0126 	jra .L54
 794               	.L40:
 541:/home/simulink/cFS_FreeRTOS_seL4/cfe/fsw/cfe-core/src/time/cfe_time_task.c **** 
 542:/home/simulink/cFS_FreeRTOS_seL4/cfe/fsw/cfe-core/src/time/cfe_time_task.c ****                 case CFE_TIME_DIAG_TLM_CC:
 543:/home/simulink/cFS_FreeRTOS_seL4/cfe/fsw/cfe-core/src/time/cfe_time_task.c ****                     CFE_TIME_DiagCmd();
 795               	.loc 1 543 0
 796 05ec 4EB9 0000 	jsr CFE_TIME_DiagCmd
 796      0000 
 544:/home/simulink/cFS_FreeRTOS_seL4/cfe/fsw/cfe-core/src/time/cfe_time_task.c ****                     break;
 797               	.loc 1 544 0
 798 05f2 6000 011C 	jra .L54
 799               	.L42:
 545:/home/simulink/cFS_FreeRTOS_seL4/cfe/fsw/cfe-core/src/time/cfe_time_task.c **** 
 546:/home/simulink/cFS_FreeRTOS_seL4/cfe/fsw/cfe-core/src/time/cfe_time_task.c ****                 case CFE_TIME_SET_STATE_CC:
 547:/home/simulink/cFS_FreeRTOS_seL4/cfe/fsw/cfe-core/src/time/cfe_time_task.c ****                     CFE_TIME_SetStateCmd(Payload);
 800               	.loc 1 547 0
 801 05f6 2F2F 0004 	move.l 4(%sp),-(%sp)
 802               	.cfi_def_cfa_offset 20
 803 05fa 4EB9 0000 	jsr CFE_TIME_SetStateCmd
 803      0000 
 804 0600 588F      	addq.l #4,%sp
 805               	.cfi_def_cfa_offset 16
 548:/home/simulink/cFS_FreeRTOS_seL4/cfe/fsw/cfe-core/src/time/cfe_time_task.c ****                     break;
 806               	.loc 1 548 0
 807 0602 6000 010C 	jra .L54
 808               	.L41:
 549:/home/simulink/cFS_FreeRTOS_seL4/cfe/fsw/cfe-core/src/time/cfe_time_task.c **** 
 550:/home/simulink/cFS_FreeRTOS_seL4/cfe/fsw/cfe-core/src/time/cfe_time_task.c ****                 case CFE_TIME_SET_SOURCE_CC:
 551:/home/simulink/cFS_FreeRTOS_seL4/cfe/fsw/cfe-core/src/time/cfe_time_task.c ****                     CFE_TIME_SetSourceCmd(Payload);
 809               	.loc 1 551 0
 810 0606 2F2F 0004 	move.l 4(%sp),-(%sp)
 811               	.cfi_def_cfa_offset 20
 812 060a 4EB9 0000 	jsr CFE_TIME_SetSourceCmd
 812      0000 
 813 0610 588F      	addq.l #4,%sp
 814               	.cfi_def_cfa_offset 16
 552:/home/simulink/cFS_FreeRTOS_seL4/cfe/fsw/cfe-core/src/time/cfe_time_task.c ****                     break;
 815               	.loc 1 552 0
 816 0612 6000 00FC 	jra .L54
 817               	.L53:
 553:/home/simulink/cFS_FreeRTOS_seL4/cfe/fsw/cfe-core/src/time/cfe_time_task.c **** 
 554:/home/simulink/cFS_FreeRTOS_seL4/cfe/fsw/cfe-core/src/time/cfe_time_task.c ****                 case CFE_TIME_SET_SIGNAL_CC:
 555:/home/simulink/cFS_FreeRTOS_seL4/cfe/fsw/cfe-core/src/time/cfe_time_task.c ****                     CFE_TIME_SetSignalCmd(Payload);
 818               	.loc 1 555 0
 819 0616 2F2F 0004 	move.l 4(%sp),-(%sp)
 820               	.cfi_def_cfa_offset 20
 821 061a 4EB9 0000 	jsr CFE_TIME_SetSignalCmd
 821      0000 
 822 0620 588F      	addq.l #4,%sp
68K GAS   			page 29


 823               	.cfi_def_cfa_offset 16
 556:/home/simulink/cFS_FreeRTOS_seL4/cfe/fsw/cfe-core/src/time/cfe_time_task.c ****                     break;
 824               	.loc 1 556 0
 825 0622 6000 00EC 	jra .L54
 826               	.L43:
 557:/home/simulink/cFS_FreeRTOS_seL4/cfe/fsw/cfe-core/src/time/cfe_time_task.c **** 
 558:/home/simulink/cFS_FreeRTOS_seL4/cfe/fsw/cfe-core/src/time/cfe_time_task.c ****                 /*
 559:/home/simulink/cFS_FreeRTOS_seL4/cfe/fsw/cfe-core/src/time/cfe_time_task.c ****                 ** Time Clients process "tone delay" commands...
 560:/home/simulink/cFS_FreeRTOS_seL4/cfe/fsw/cfe-core/src/time/cfe_time_task.c ****                 */
 561:/home/simulink/cFS_FreeRTOS_seL4/cfe/fsw/cfe-core/src/time/cfe_time_task.c ****                 case CFE_TIME_ADD_DELAY_CC:
 562:/home/simulink/cFS_FreeRTOS_seL4/cfe/fsw/cfe-core/src/time/cfe_time_task.c ****                     CFE_TIME_SetDelayCmd(Payload, (int16) CFE_TIME_ADD_ADJUST);
 827               	.loc 1 562 0
 828 0626 4878 0001 	pea 1.w
 829               	.cfi_def_cfa_offset 20
 830 062a 2F2F 0008 	move.l 8(%sp),-(%sp)
 831               	.cfi_def_cfa_offset 24
 832 062e 4EB9 0000 	jsr CFE_TIME_SetDelayCmd
 832      0000 
 833 0634 508F      	addq.l #8,%sp
 834               	.cfi_def_cfa_offset 16
 563:/home/simulink/cFS_FreeRTOS_seL4/cfe/fsw/cfe-core/src/time/cfe_time_task.c ****                     break;
 835               	.loc 1 563 0
 836 0636 6000 00D8 	jra .L54
 837               	.L44:
 564:/home/simulink/cFS_FreeRTOS_seL4/cfe/fsw/cfe-core/src/time/cfe_time_task.c **** 
 565:/home/simulink/cFS_FreeRTOS_seL4/cfe/fsw/cfe-core/src/time/cfe_time_task.c ****                 case CFE_TIME_SUB_DELAY_CC:
 566:/home/simulink/cFS_FreeRTOS_seL4/cfe/fsw/cfe-core/src/time/cfe_time_task.c ****                     CFE_TIME_SetDelayCmd(Payload, (int16) CFE_TIME_SUB_ADJUST);
 838               	.loc 1 566 0
 839 063a 4878 0002 	pea 2.w
 840               	.cfi_def_cfa_offset 20
 841 063e 2F2F 0008 	move.l 8(%sp),-(%sp)
 842               	.cfi_def_cfa_offset 24
 843 0642 4EB9 0000 	jsr CFE_TIME_SetDelayCmd
 843      0000 
 844 0648 508F      	addq.l #8,%sp
 845               	.cfi_def_cfa_offset 16
 567:/home/simulink/cFS_FreeRTOS_seL4/cfe/fsw/cfe-core/src/time/cfe_time_task.c ****                     break;
 846               	.loc 1 567 0
 847 064a 6000 00C4 	jra .L54
 848               	.L45:
 568:/home/simulink/cFS_FreeRTOS_seL4/cfe/fsw/cfe-core/src/time/cfe_time_task.c **** 
 569:/home/simulink/cFS_FreeRTOS_seL4/cfe/fsw/cfe-core/src/time/cfe_time_task.c ****                 /*
 570:/home/simulink/cFS_FreeRTOS_seL4/cfe/fsw/cfe-core/src/time/cfe_time_task.c ****                 ** Time Servers process "set time" commands...
 571:/home/simulink/cFS_FreeRTOS_seL4/cfe/fsw/cfe-core/src/time/cfe_time_task.c ****                 */
 572:/home/simulink/cFS_FreeRTOS_seL4/cfe/fsw/cfe-core/src/time/cfe_time_task.c ****                 case CFE_TIME_SET_TIME_CC:
 573:/home/simulink/cFS_FreeRTOS_seL4/cfe/fsw/cfe-core/src/time/cfe_time_task.c ****                     CFE_TIME_SetTimeCmd(Payload);
 849               	.loc 1 573 0
 850 064e 2F2F 0004 	move.l 4(%sp),-(%sp)
 851               	.cfi_def_cfa_offset 20
 852 0652 4EB9 0000 	jsr CFE_TIME_SetTimeCmd
 852      0000 
 853 0658 588F      	addq.l #4,%sp
 854               	.cfi_def_cfa_offset 16
 574:/home/simulink/cFS_FreeRTOS_seL4/cfe/fsw/cfe-core/src/time/cfe_time_task.c ****                     break;
 855               	.loc 1 574 0
 856 065a 6000 00B4 	jra .L54
 857               	.L46:
68K GAS   			page 30


 575:/home/simulink/cFS_FreeRTOS_seL4/cfe/fsw/cfe-core/src/time/cfe_time_task.c **** 
 576:/home/simulink/cFS_FreeRTOS_seL4/cfe/fsw/cfe-core/src/time/cfe_time_task.c ****                 case CFE_TIME_SET_MET_CC:
 577:/home/simulink/cFS_FreeRTOS_seL4/cfe/fsw/cfe-core/src/time/cfe_time_task.c ****                     CFE_TIME_SetMETCmd(Payload);
 858               	.loc 1 577 0
 859 065e 2F2F 0004 	move.l 4(%sp),-(%sp)
 860               	.cfi_def_cfa_offset 20
 861 0662 4EB9 0000 	jsr CFE_TIME_SetMETCmd
 861      0000 
 862 0668 588F      	addq.l #4,%sp
 863               	.cfi_def_cfa_offset 16
 578:/home/simulink/cFS_FreeRTOS_seL4/cfe/fsw/cfe-core/src/time/cfe_time_task.c ****                     break;
 864               	.loc 1 578 0
 865 066a 6000 00A4 	jra .L54
 866               	.L47:
 579:/home/simulink/cFS_FreeRTOS_seL4/cfe/fsw/cfe-core/src/time/cfe_time_task.c **** 
 580:/home/simulink/cFS_FreeRTOS_seL4/cfe/fsw/cfe-core/src/time/cfe_time_task.c ****                 case CFE_TIME_SET_STCF_CC:
 581:/home/simulink/cFS_FreeRTOS_seL4/cfe/fsw/cfe-core/src/time/cfe_time_task.c ****                     CFE_TIME_SetSTCFCmd(Payload);
 867               	.loc 1 581 0
 868 066e 2F2F 0004 	move.l 4(%sp),-(%sp)
 869               	.cfi_def_cfa_offset 20
 870 0672 4EB9 0000 	jsr CFE_TIME_SetSTCFCmd
 870      0000 
 871 0678 588F      	addq.l #4,%sp
 872               	.cfi_def_cfa_offset 16
 582:/home/simulink/cFS_FreeRTOS_seL4/cfe/fsw/cfe-core/src/time/cfe_time_task.c ****                     break;
 873               	.loc 1 582 0
 874 067a 6000 0094 	jra .L54
 875               	.L48:
 583:/home/simulink/cFS_FreeRTOS_seL4/cfe/fsw/cfe-core/src/time/cfe_time_task.c **** 
 584:/home/simulink/cFS_FreeRTOS_seL4/cfe/fsw/cfe-core/src/time/cfe_time_task.c ****                 case CFE_TIME_SET_LEAPS_CC:
 585:/home/simulink/cFS_FreeRTOS_seL4/cfe/fsw/cfe-core/src/time/cfe_time_task.c ****                     CFE_TIME_SetLeapsCmd(Payload);
 876               	.loc 1 585 0
 877 067e 2F2F 0004 	move.l 4(%sp),-(%sp)
 878               	.cfi_def_cfa_offset 20
 879 0682 4EB9 0000 	jsr CFE_TIME_SetLeapsCmd
 879      0000 
 880 0688 588F      	addq.l #4,%sp
 881               	.cfi_def_cfa_offset 16
 586:/home/simulink/cFS_FreeRTOS_seL4/cfe/fsw/cfe-core/src/time/cfe_time_task.c ****                     break;
 882               	.loc 1 586 0
 883 068a 6000 0084 	jra .L54
 884               	.L49:
 587:/home/simulink/cFS_FreeRTOS_seL4/cfe/fsw/cfe-core/src/time/cfe_time_task.c **** 
 588:/home/simulink/cFS_FreeRTOS_seL4/cfe/fsw/cfe-core/src/time/cfe_time_task.c ****                 case CFE_TIME_ADD_ADJUST_CC:
 589:/home/simulink/cFS_FreeRTOS_seL4/cfe/fsw/cfe-core/src/time/cfe_time_task.c ****                     CFE_TIME_AdjustCmd(Payload, (int16) CFE_TIME_ADD_ADJUST);
 885               	.loc 1 589 0
 886 068e 4878 0001 	pea 1.w
 887               	.cfi_def_cfa_offset 20
 888 0692 2F2F 0008 	move.l 8(%sp),-(%sp)
 889               	.cfi_def_cfa_offset 24
 890 0696 4EB9 0000 	jsr CFE_TIME_AdjustCmd
 890      0000 
 891 069c 508F      	addq.l #8,%sp
 892               	.cfi_def_cfa_offset 16
 590:/home/simulink/cFS_FreeRTOS_seL4/cfe/fsw/cfe-core/src/time/cfe_time_task.c ****                     break;
 893               	.loc 1 590 0
 894 069e 6070      	jra .L54
68K GAS   			page 31


 895               	.L50:
 591:/home/simulink/cFS_FreeRTOS_seL4/cfe/fsw/cfe-core/src/time/cfe_time_task.c **** 
 592:/home/simulink/cFS_FreeRTOS_seL4/cfe/fsw/cfe-core/src/time/cfe_time_task.c ****                 case CFE_TIME_SUB_ADJUST_CC:
 593:/home/simulink/cFS_FreeRTOS_seL4/cfe/fsw/cfe-core/src/time/cfe_time_task.c ****                     CFE_TIME_AdjustCmd(Payload,  (int16) CFE_TIME_SUB_ADJUST);
 896               	.loc 1 593 0
 897 06a0 4878 0002 	pea 2.w
 898               	.cfi_def_cfa_offset 20
 899 06a4 2F2F 0008 	move.l 8(%sp),-(%sp)
 900               	.cfi_def_cfa_offset 24
 901 06a8 4EB9 0000 	jsr CFE_TIME_AdjustCmd
 901      0000 
 902 06ae 508F      	addq.l #8,%sp
 903               	.cfi_def_cfa_offset 16
 594:/home/simulink/cFS_FreeRTOS_seL4/cfe/fsw/cfe-core/src/time/cfe_time_task.c ****                     break;
 904               	.loc 1 594 0
 905 06b0 605E      	jra .L54
 906               	.L51:
 595:/home/simulink/cFS_FreeRTOS_seL4/cfe/fsw/cfe-core/src/time/cfe_time_task.c **** 
 596:/home/simulink/cFS_FreeRTOS_seL4/cfe/fsw/cfe-core/src/time/cfe_time_task.c ****                 case CFE_TIME_ADD_1HZADJ_CC:
 597:/home/simulink/cFS_FreeRTOS_seL4/cfe/fsw/cfe-core/src/time/cfe_time_task.c ****                     CFE_TIME_1HzAdjCmd(Payload, (int16) CFE_TIME_ADD_ADJUST);
 907               	.loc 1 597 0
 908 06b2 4878 0001 	pea 1.w
 909               	.cfi_def_cfa_offset 20
 910 06b6 2F2F 0008 	move.l 8(%sp),-(%sp)
 911               	.cfi_def_cfa_offset 24
 912 06ba 4EB9 0000 	jsr CFE_TIME_1HzAdjCmd
 912      0000 
 913 06c0 508F      	addq.l #8,%sp
 914               	.cfi_def_cfa_offset 16
 598:/home/simulink/cFS_FreeRTOS_seL4/cfe/fsw/cfe-core/src/time/cfe_time_task.c ****                     break;
 915               	.loc 1 598 0
 916 06c2 604C      	jra .L54
 917               	.L52:
 599:/home/simulink/cFS_FreeRTOS_seL4/cfe/fsw/cfe-core/src/time/cfe_time_task.c **** 
 600:/home/simulink/cFS_FreeRTOS_seL4/cfe/fsw/cfe-core/src/time/cfe_time_task.c ****                 case CFE_TIME_SUB_1HZADJ_CC:
 601:/home/simulink/cFS_FreeRTOS_seL4/cfe/fsw/cfe-core/src/time/cfe_time_task.c ****                     CFE_TIME_1HzAdjCmd(Payload, (int16) CFE_TIME_SUB_ADJUST);
 918               	.loc 1 601 0
 919 06c4 4878 0002 	pea 2.w
 920               	.cfi_def_cfa_offset 20
 921 06c8 2F2F 0008 	move.l 8(%sp),-(%sp)
 922               	.cfi_def_cfa_offset 24
 923 06cc 4EB9 0000 	jsr CFE_TIME_1HzAdjCmd
 923      0000 
 924 06d2 508F      	addq.l #8,%sp
 925               	.cfi_def_cfa_offset 16
 602:/home/simulink/cFS_FreeRTOS_seL4/cfe/fsw/cfe-core/src/time/cfe_time_task.c ****                     break;
 926               	.loc 1 602 0
 927 06d4 603A      	jra .L54
 928               	.L36:
 603:/home/simulink/cFS_FreeRTOS_seL4/cfe/fsw/cfe-core/src/time/cfe_time_task.c **** 
 604:/home/simulink/cFS_FreeRTOS_seL4/cfe/fsw/cfe-core/src/time/cfe_time_task.c ****                 default:
 605:/home/simulink/cFS_FreeRTOS_seL4/cfe/fsw/cfe-core/src/time/cfe_time_task.c **** 
 606:/home/simulink/cFS_FreeRTOS_seL4/cfe/fsw/cfe-core/src/time/cfe_time_task.c ****                     CFE_TIME_TaskData.ErrCounter++;
 929               	.loc 1 606 0
 930 06d6 1039 0000 	move.b CFE_TIME_TaskData+1,%d0
 930      0000 
 931 06dc 5280      	addq.l #1,%d0
68K GAS   			page 32


 932 06de 1000      	move.b %d0,%d0
 933 06e0 13C0 0000 	move.b %d0,CFE_TIME_TaskData+1
 933      0000 
 607:/home/simulink/cFS_FreeRTOS_seL4/cfe/fsw/cfe-core/src/time/cfe_time_task.c ****                     CFE_EVS_SendEvent(CFE_TIME_CC_ERR_EID, CFE_EVS_ERROR,
 934               	.loc 1 607 0
 935 06e6 4281      	clr.l %d1
 936 06e8 322F 0002 	move.w 2(%sp),%d1
 937 06ec 4280      	clr.l %d0
 938 06ee 302F 000A 	move.w 10(%sp),%d0
 939 06f2 2F01      	move.l %d1,-(%sp)
 940               	.cfi_def_cfa_offset 20
 941 06f4 2F00      	move.l %d0,-(%sp)
 942               	.cfi_def_cfa_offset 24
 943 06f6 4879 0000 	pea .LC24
 943      0000 
 944               	.cfi_def_cfa_offset 28
 945 06fc 4878 0003 	pea 3.w
 946               	.cfi_def_cfa_offset 32
 947 0700 4878 001B 	pea 27.w
 948               	.cfi_def_cfa_offset 36
 949 0704 4EB9 0000 	jsr CFE_EVS_SendEvent
 949      0000 
 950 070a 4FEF 0014 	lea (20,%sp),%sp
 951               	.cfi_def_cfa_offset 16
 608:/home/simulink/cFS_FreeRTOS_seL4/cfe/fsw/cfe-core/src/time/cfe_time_task.c ****                              "Invalid command code -- ID = 0x%X, CC = %d",
 609:/home/simulink/cFS_FreeRTOS_seL4/cfe/fsw/cfe-core/src/time/cfe_time_task.c ****                                       (unsigned int)MessageID, (int)CommandCode);
 610:/home/simulink/cFS_FreeRTOS_seL4/cfe/fsw/cfe-core/src/time/cfe_time_task.c ****                     break;
 952               	.loc 1 610 0
 953 070e 4E71      	nop
 954               	.L54:
 611:/home/simulink/cFS_FreeRTOS_seL4/cfe/fsw/cfe-core/src/time/cfe_time_task.c ****             } /* switch (CFE_TIME_CMD_MID -- command code)*/
 612:/home/simulink/cFS_FreeRTOS_seL4/cfe/fsw/cfe-core/src/time/cfe_time_task.c ****             break;
 955               	.loc 1 612 0
 956 0710 6022      	jra .L35
 957               	.L28:
 613:/home/simulink/cFS_FreeRTOS_seL4/cfe/fsw/cfe-core/src/time/cfe_time_task.c **** 
 614:/home/simulink/cFS_FreeRTOS_seL4/cfe/fsw/cfe-core/src/time/cfe_time_task.c ****         default:
 615:/home/simulink/cFS_FreeRTOS_seL4/cfe/fsw/cfe-core/src/time/cfe_time_task.c **** 
 616:/home/simulink/cFS_FreeRTOS_seL4/cfe/fsw/cfe-core/src/time/cfe_time_task.c ****             /*
 617:/home/simulink/cFS_FreeRTOS_seL4/cfe/fsw/cfe-core/src/time/cfe_time_task.c ****             ** Note: we only increment the command error counter when
 618:/home/simulink/cFS_FreeRTOS_seL4/cfe/fsw/cfe-core/src/time/cfe_time_task.c ****             **    processing CFE_TIME_CMD_MID commands...
 619:/home/simulink/cFS_FreeRTOS_seL4/cfe/fsw/cfe-core/src/time/cfe_time_task.c ****             */
 620:/home/simulink/cFS_FreeRTOS_seL4/cfe/fsw/cfe-core/src/time/cfe_time_task.c ****             CFE_EVS_SendEvent(CFE_TIME_ID_ERR_EID, CFE_EVS_ERROR,
 958               	.loc 1 620 0
 959 0712 4280      	clr.l %d0
 960 0714 302F 000A 	move.w 10(%sp),%d0
 961 0718 2F00      	move.l %d0,-(%sp)
 962               	.cfi_def_cfa_offset 20
 963 071a 4879 0000 	pea .LC25
 963      0000 
 964               	.cfi_def_cfa_offset 24
 965 0720 4878 0003 	pea 3.w
 966               	.cfi_def_cfa_offset 28
 967 0724 4878 001A 	pea 26.w
 968               	.cfi_def_cfa_offset 32
 969 0728 4EB9 0000 	jsr CFE_EVS_SendEvent
 969      0000 
68K GAS   			page 33


 970 072e 4FEF 0010 	lea (16,%sp),%sp
 971               	.cfi_def_cfa_offset 16
 621:/home/simulink/cFS_FreeRTOS_seL4/cfe/fsw/cfe-core/src/time/cfe_time_task.c ****                              "Invalid message ID -- ID = 0x%X",
 622:/home/simulink/cFS_FreeRTOS_seL4/cfe/fsw/cfe-core/src/time/cfe_time_task.c ****                               (unsigned int)MessageID);
 623:/home/simulink/cFS_FreeRTOS_seL4/cfe/fsw/cfe-core/src/time/cfe_time_task.c ****             break;
 972               	.loc 1 623 0
 973 0732 4E71      	nop
 974               	.L35:
 624:/home/simulink/cFS_FreeRTOS_seL4/cfe/fsw/cfe-core/src/time/cfe_time_task.c **** 
 625:/home/simulink/cFS_FreeRTOS_seL4/cfe/fsw/cfe-core/src/time/cfe_time_task.c ****     } /* switch (message ID) */
 626:/home/simulink/cFS_FreeRTOS_seL4/cfe/fsw/cfe-core/src/time/cfe_time_task.c **** 
 627:/home/simulink/cFS_FreeRTOS_seL4/cfe/fsw/cfe-core/src/time/cfe_time_task.c ****     return;
 975               	.loc 1 627 0
 976 0734 4E71      	nop
 628:/home/simulink/cFS_FreeRTOS_seL4/cfe/fsw/cfe-core/src/time/cfe_time_task.c **** 
 629:/home/simulink/cFS_FreeRTOS_seL4/cfe/fsw/cfe-core/src/time/cfe_time_task.c **** } /* End of CFE_TIME_TaskPipe() */
 977               	.loc 1 629 0
 978 0736 4FEF 000C 	lea (12,%sp),%sp
 979 073a 4E75      	rts
 980               	.cfi_endproc
 981               	.LFE62:
 982               	.sizeCFE_TIME_TaskPipe, .-CFE_TIME_TaskPipe
 983               	.align2
 984               	.globlCFE_TIME_HousekeepingCmd
 985               	.typeCFE_TIME_HousekeepingCmd, @function
 986               	CFE_TIME_HousekeepingCmd:
 987               	.LFB63:
 630:/home/simulink/cFS_FreeRTOS_seL4/cfe/fsw/cfe-core/src/time/cfe_time_task.c **** 
 631:/home/simulink/cFS_FreeRTOS_seL4/cfe/fsw/cfe-core/src/time/cfe_time_task.c **** 
 632:/home/simulink/cFS_FreeRTOS_seL4/cfe/fsw/cfe-core/src/time/cfe_time_task.c **** /* * * * * * * * * * * * * * * * * * * * * * * * * * * * * * * * * */
 633:/home/simulink/cFS_FreeRTOS_seL4/cfe/fsw/cfe-core/src/time/cfe_time_task.c **** /*                                                                 */
 634:/home/simulink/cFS_FreeRTOS_seL4/cfe/fsw/cfe-core/src/time/cfe_time_task.c **** /* CFE_TIME_HousekeepingCmd() -- On-board command (HK request)     */
 635:/home/simulink/cFS_FreeRTOS_seL4/cfe/fsw/cfe-core/src/time/cfe_time_task.c **** /*                                                                 */
 636:/home/simulink/cFS_FreeRTOS_seL4/cfe/fsw/cfe-core/src/time/cfe_time_task.c **** /* * * * * * * * * * * * * * * * * * * * * * * * * * * * * * * * * */
 637:/home/simulink/cFS_FreeRTOS_seL4/cfe/fsw/cfe-core/src/time/cfe_time_task.c **** 
 638:/home/simulink/cFS_FreeRTOS_seL4/cfe/fsw/cfe-core/src/time/cfe_time_task.c **** void CFE_TIME_HousekeepingCmd(void)
 639:/home/simulink/cFS_FreeRTOS_seL4/cfe/fsw/cfe-core/src/time/cfe_time_task.c **** {
 988               	.loc 1 639 0
 989               	.cfi_startproc
 990 073c 4FEF FFC0 	lea (-64,%sp),%sp
 991               	.cfi_def_cfa_offset 68
 640:/home/simulink/cFS_FreeRTOS_seL4/cfe/fsw/cfe-core/src/time/cfe_time_task.c ****     CFE_TIME_Reference_t Reference;
 641:/home/simulink/cFS_FreeRTOS_seL4/cfe/fsw/cfe-core/src/time/cfe_time_task.c **** 
 642:/home/simulink/cFS_FreeRTOS_seL4/cfe/fsw/cfe-core/src/time/cfe_time_task.c ****     /*
 643:/home/simulink/cFS_FreeRTOS_seL4/cfe/fsw/cfe-core/src/time/cfe_time_task.c ****     ** Get reference time values (local time, time at tone, etc.)...
 644:/home/simulink/cFS_FreeRTOS_seL4/cfe/fsw/cfe-core/src/time/cfe_time_task.c ****     */
 645:/home/simulink/cFS_FreeRTOS_seL4/cfe/fsw/cfe-core/src/time/cfe_time_task.c ****     CFE_TIME_GetReference(&Reference);
 992               	.loc 1 645 0
 993 0740 200F      	move.l %sp,%d0
 994 0742 2F00      	move.l %d0,-(%sp)
 995               	.cfi_def_cfa_offset 72
 996 0744 4EB9 0000 	jsr CFE_TIME_GetReference
 996      0000 
 997 074a 588F      	addq.l #4,%sp
 998               	.cfi_def_cfa_offset 68
 646:/home/simulink/cFS_FreeRTOS_seL4/cfe/fsw/cfe-core/src/time/cfe_time_task.c **** 
 647:/home/simulink/cFS_FreeRTOS_seL4/cfe/fsw/cfe-core/src/time/cfe_time_task.c ****     /*
68K GAS   			page 34


 648:/home/simulink/cFS_FreeRTOS_seL4/cfe/fsw/cfe-core/src/time/cfe_time_task.c ****     ** Update TIME portion of Critical Data Store...
 649:/home/simulink/cFS_FreeRTOS_seL4/cfe/fsw/cfe-core/src/time/cfe_time_task.c ****     */
 650:/home/simulink/cFS_FreeRTOS_seL4/cfe/fsw/cfe-core/src/time/cfe_time_task.c ****     CFE_TIME_UpdateResetVars(&Reference);
 999               	.loc 1 650 0
 1000 074c 200F      	move.l %sp,%d0
 1001 074e 2F00      	move.l %d0,-(%sp)
 1002               	.cfi_def_cfa_offset 72
 1003 0750 4EB9 0000 	jsr CFE_TIME_UpdateResetVars
 1003      0000 
 1004 0756 588F      	addq.l #4,%sp
 1005               	.cfi_def_cfa_offset 68
 651:/home/simulink/cFS_FreeRTOS_seL4/cfe/fsw/cfe-core/src/time/cfe_time_task.c **** 
 652:/home/simulink/cFS_FreeRTOS_seL4/cfe/fsw/cfe-core/src/time/cfe_time_task.c ****     /*
 653:/home/simulink/cFS_FreeRTOS_seL4/cfe/fsw/cfe-core/src/time/cfe_time_task.c ****     ** Collect housekeeping data from Time Services utilities...
 654:/home/simulink/cFS_FreeRTOS_seL4/cfe/fsw/cfe-core/src/time/cfe_time_task.c ****     */
 655:/home/simulink/cFS_FreeRTOS_seL4/cfe/fsw/cfe-core/src/time/cfe_time_task.c ****     CFE_TIME_GetHkData(&Reference);
 1006               	.loc 1 655 0
 1007 0758 200F      	move.l %sp,%d0
 1008 075a 2F00      	move.l %d0,-(%sp)
 1009               	.cfi_def_cfa_offset 72
 1010 075c 4EB9 0000 	jsr CFE_TIME_GetHkData
 1010      0000 
 1011 0762 588F      	addq.l #4,%sp
 1012               	.cfi_def_cfa_offset 68
 656:/home/simulink/cFS_FreeRTOS_seL4/cfe/fsw/cfe-core/src/time/cfe_time_task.c **** 
 657:/home/simulink/cFS_FreeRTOS_seL4/cfe/fsw/cfe-core/src/time/cfe_time_task.c ****     /*
 658:/home/simulink/cFS_FreeRTOS_seL4/cfe/fsw/cfe-core/src/time/cfe_time_task.c ****     ** Send housekeeping telemetry packet...
 659:/home/simulink/cFS_FreeRTOS_seL4/cfe/fsw/cfe-core/src/time/cfe_time_task.c ****     */
 660:/home/simulink/cFS_FreeRTOS_seL4/cfe/fsw/cfe-core/src/time/cfe_time_task.c ****     CFE_SB_TimeStampMsg((CFE_SB_Msg_t *) &CFE_TIME_TaskData.HkPacket);
 1013               	.loc 1 660 0
 1014 0764 4879 0000 	pea CFE_TIME_TaskData+4
 1014      0000 
 1015               	.cfi_def_cfa_offset 72
 1016 076a 4EB9 0000 	jsr CFE_SB_TimeStampMsg
 1016      0000 
 1017 0770 588F      	addq.l #4,%sp
 1018               	.cfi_def_cfa_offset 68
 661:/home/simulink/cFS_FreeRTOS_seL4/cfe/fsw/cfe-core/src/time/cfe_time_task.c ****     CFE_SB_SendMsg((CFE_SB_Msg_t *) &CFE_TIME_TaskData.HkPacket);
 1019               	.loc 1 661 0
 1020 0772 4879 0000 	pea CFE_TIME_TaskData+4
 1020      0000 
 1021               	.cfi_def_cfa_offset 72
 1022 0778 4EB9 0000 	jsr CFE_SB_SendMsg
 1022      0000 
 1023 077e 588F      	addq.l #4,%sp
 1024               	.cfi_def_cfa_offset 68
 662:/home/simulink/cFS_FreeRTOS_seL4/cfe/fsw/cfe-core/src/time/cfe_time_task.c **** 
 663:/home/simulink/cFS_FreeRTOS_seL4/cfe/fsw/cfe-core/src/time/cfe_time_task.c ****     /*
 664:/home/simulink/cFS_FreeRTOS_seL4/cfe/fsw/cfe-core/src/time/cfe_time_task.c ****     ** Note: we only increment the command execution counter when
 665:/home/simulink/cFS_FreeRTOS_seL4/cfe/fsw/cfe-core/src/time/cfe_time_task.c ****     **   processing CFE_TIME_CMD_MID commands...
 666:/home/simulink/cFS_FreeRTOS_seL4/cfe/fsw/cfe-core/src/time/cfe_time_task.c ****     */
 667:/home/simulink/cFS_FreeRTOS_seL4/cfe/fsw/cfe-core/src/time/cfe_time_task.c ****     return;
 1025               	.loc 1 667 0
 1026 0780 4E71      	nop
 668:/home/simulink/cFS_FreeRTOS_seL4/cfe/fsw/cfe-core/src/time/cfe_time_task.c **** 
 669:/home/simulink/cFS_FreeRTOS_seL4/cfe/fsw/cfe-core/src/time/cfe_time_task.c **** } /* End of CFE_TIME_HousekeepingCmd() */
 1027               	.loc 1 669 0
68K GAS   			page 35


 1028 0782 4FEF 0040 	lea (64,%sp),%sp
 1029 0786 4E75      	rts
 1030               	.cfi_endproc
 1031               	.LFE63:
 1032               	.sizeCFE_TIME_HousekeepingCmd, .-CFE_TIME_HousekeepingCmd
 1033               	.align2
 1034               	.globlCFE_TIME_ToneSignalCmd
 1035               	.typeCFE_TIME_ToneSignalCmd, @function
 1036               	CFE_TIME_ToneSignalCmd:
 1037               	.LFB64:
 670:/home/simulink/cFS_FreeRTOS_seL4/cfe/fsw/cfe-core/src/time/cfe_time_task.c **** 
 671:/home/simulink/cFS_FreeRTOS_seL4/cfe/fsw/cfe-core/src/time/cfe_time_task.c **** 
 672:/home/simulink/cFS_FreeRTOS_seL4/cfe/fsw/cfe-core/src/time/cfe_time_task.c **** /* * * * * * * * * * * * * * * * * * * * * * * * * * * * * * * * * */
 673:/home/simulink/cFS_FreeRTOS_seL4/cfe/fsw/cfe-core/src/time/cfe_time_task.c **** /*                                                                 */
 674:/home/simulink/cFS_FreeRTOS_seL4/cfe/fsw/cfe-core/src/time/cfe_time_task.c **** /* CFE_TIME_ToneSignalCmd() -- Time at tone command (signal)       */
 675:/home/simulink/cFS_FreeRTOS_seL4/cfe/fsw/cfe-core/src/time/cfe_time_task.c **** /*                                                                 */
 676:/home/simulink/cFS_FreeRTOS_seL4/cfe/fsw/cfe-core/src/time/cfe_time_task.c **** /* * * * * * * * * * * * * * * * * * * * * * * * * * * * * * * * * */
 677:/home/simulink/cFS_FreeRTOS_seL4/cfe/fsw/cfe-core/src/time/cfe_time_task.c **** 
 678:/home/simulink/cFS_FreeRTOS_seL4/cfe/fsw/cfe-core/src/time/cfe_time_task.c **** void CFE_TIME_ToneSignalCmd(void)
 679:/home/simulink/cFS_FreeRTOS_seL4/cfe/fsw/cfe-core/src/time/cfe_time_task.c **** {
 1038               	.loc 1 679 0
 1039               	.cfi_startproc
 680:/home/simulink/cFS_FreeRTOS_seL4/cfe/fsw/cfe-core/src/time/cfe_time_task.c ****     /*
 681:/home/simulink/cFS_FreeRTOS_seL4/cfe/fsw/cfe-core/src/time/cfe_time_task.c ****     ** Indication that tone signal occurred recently...
 682:/home/simulink/cFS_FreeRTOS_seL4/cfe/fsw/cfe-core/src/time/cfe_time_task.c ****     */
 683:/home/simulink/cFS_FreeRTOS_seL4/cfe/fsw/cfe-core/src/time/cfe_time_task.c ****     CFE_TIME_ToneSignal();
 1040               	.loc 1 683 0
 1041 0788 4EB9 0000 	jsr CFE_TIME_ToneSignal
 1041      0000 
 684:/home/simulink/cFS_FreeRTOS_seL4/cfe/fsw/cfe-core/src/time/cfe_time_task.c **** 
 685:/home/simulink/cFS_FreeRTOS_seL4/cfe/fsw/cfe-core/src/time/cfe_time_task.c ****     #if (CFE_TIME_CFG_SERVER == TRUE)
 686:/home/simulink/cFS_FreeRTOS_seL4/cfe/fsw/cfe-core/src/time/cfe_time_task.c ****       #if (CFE_TIME_CFG_FAKE_TONE == TRUE)
 687:/home/simulink/cFS_FreeRTOS_seL4/cfe/fsw/cfe-core/src/time/cfe_time_task.c ****     /*
 688:/home/simulink/cFS_FreeRTOS_seL4/cfe/fsw/cfe-core/src/time/cfe_time_task.c ****     ** If we are simulating the tone signal, and we are the time
 689:/home/simulink/cFS_FreeRTOS_seL4/cfe/fsw/cfe-core/src/time/cfe_time_task.c ****     **   server, and we have processed the simulated tone, then
 690:/home/simulink/cFS_FreeRTOS_seL4/cfe/fsw/cfe-core/src/time/cfe_time_task.c ****     **   send time at the tone data...
 691:/home/simulink/cFS_FreeRTOS_seL4/cfe/fsw/cfe-core/src/time/cfe_time_task.c ****     */
 692:/home/simulink/cFS_FreeRTOS_seL4/cfe/fsw/cfe-core/src/time/cfe_time_task.c ****     CFE_TIME_ToneSend();
 1042               	.loc 1 692 0
 1043 078e 4EB9 0000 	jsr CFE_TIME_ToneSend
 1043      0000 
 693:/home/simulink/cFS_FreeRTOS_seL4/cfe/fsw/cfe-core/src/time/cfe_time_task.c ****       #endif
 694:/home/simulink/cFS_FreeRTOS_seL4/cfe/fsw/cfe-core/src/time/cfe_time_task.c ****     #endif
 695:/home/simulink/cFS_FreeRTOS_seL4/cfe/fsw/cfe-core/src/time/cfe_time_task.c **** 
 696:/home/simulink/cFS_FreeRTOS_seL4/cfe/fsw/cfe-core/src/time/cfe_time_task.c ****     /*
 697:/home/simulink/cFS_FreeRTOS_seL4/cfe/fsw/cfe-core/src/time/cfe_time_task.c ****     ** Note: we only increment the command execution counter when
 698:/home/simulink/cFS_FreeRTOS_seL4/cfe/fsw/cfe-core/src/time/cfe_time_task.c ****     **   processing CFE_TIME_CMD_MID commands...
 699:/home/simulink/cFS_FreeRTOS_seL4/cfe/fsw/cfe-core/src/time/cfe_time_task.c ****     */
 700:/home/simulink/cFS_FreeRTOS_seL4/cfe/fsw/cfe-core/src/time/cfe_time_task.c ****     return;
 1044               	.loc 1 700 0
 1045 0794 4E71      	nop
 701:/home/simulink/cFS_FreeRTOS_seL4/cfe/fsw/cfe-core/src/time/cfe_time_task.c **** 
 702:/home/simulink/cFS_FreeRTOS_seL4/cfe/fsw/cfe-core/src/time/cfe_time_task.c **** } /* End of CFE_TIME_ToneSignalCmd() */
 1046               	.loc 1 702 0
 1047 0796 4E75      	rts
 1048               	.cfi_endproc
 1049               	.LFE64:
68K GAS   			page 36


 1050               	.sizeCFE_TIME_ToneSignalCmd, .-CFE_TIME_ToneSignalCmd
 1051               	.align2
 1052               	.globlCFE_TIME_ToneDataCmd
 1053               	.typeCFE_TIME_ToneDataCmd, @function
 1054               	CFE_TIME_ToneDataCmd:
 1055               	.LFB65:
 703:/home/simulink/cFS_FreeRTOS_seL4/cfe/fsw/cfe-core/src/time/cfe_time_task.c **** 
 704:/home/simulink/cFS_FreeRTOS_seL4/cfe/fsw/cfe-core/src/time/cfe_time_task.c **** 
 705:/home/simulink/cFS_FreeRTOS_seL4/cfe/fsw/cfe-core/src/time/cfe_time_task.c **** /* * * * * * * * * * * * * * * * * * * * * * * * * * * * * * * * * */
 706:/home/simulink/cFS_FreeRTOS_seL4/cfe/fsw/cfe-core/src/time/cfe_time_task.c **** /*                                                                 */
 707:/home/simulink/cFS_FreeRTOS_seL4/cfe/fsw/cfe-core/src/time/cfe_time_task.c **** /* CFE_TIME_ToneDataCmd() -- Time at tone command (data)           */
 708:/home/simulink/cFS_FreeRTOS_seL4/cfe/fsw/cfe-core/src/time/cfe_time_task.c **** /*                                                                 */
 709:/home/simulink/cFS_FreeRTOS_seL4/cfe/fsw/cfe-core/src/time/cfe_time_task.c **** /* * * * * * * * * * * * * * * * * * * * * * * * * * * * * * * * * */
 710:/home/simulink/cFS_FreeRTOS_seL4/cfe/fsw/cfe-core/src/time/cfe_time_task.c **** 
 711:/home/simulink/cFS_FreeRTOS_seL4/cfe/fsw/cfe-core/src/time/cfe_time_task.c **** void CFE_TIME_ToneDataCmd(CFE_SB_MsgPayloadPtr_t Payload)
 712:/home/simulink/cFS_FreeRTOS_seL4/cfe/fsw/cfe-core/src/time/cfe_time_task.c **** {
 1056               	.loc 1 712 0
 1057               	.cfi_startproc
 713:/home/simulink/cFS_FreeRTOS_seL4/cfe/fsw/cfe-core/src/time/cfe_time_task.c ****     /*
 714:/home/simulink/cFS_FreeRTOS_seL4/cfe/fsw/cfe-core/src/time/cfe_time_task.c ****     ** This command packet contains "time at the tone" data...
 715:/home/simulink/cFS_FreeRTOS_seL4/cfe/fsw/cfe-core/src/time/cfe_time_task.c ****     */
 716:/home/simulink/cFS_FreeRTOS_seL4/cfe/fsw/cfe-core/src/time/cfe_time_task.c ****     CFE_TIME_ToneData((CFE_TIME_ToneDataCmd_Payload_t *) Payload);
 1058               	.loc 1 716 0
 1059 0798 2F2F 0004 	move.l 4(%sp),-(%sp)
 1060               	.cfi_def_cfa_offset 8
 1061 079c 4EB9 0000 	jsr CFE_TIME_ToneData
 1061      0000 
 1062 07a2 588F      	addq.l #4,%sp
 1063               	.cfi_def_cfa_offset 4
 717:/home/simulink/cFS_FreeRTOS_seL4/cfe/fsw/cfe-core/src/time/cfe_time_task.c **** 
 718:/home/simulink/cFS_FreeRTOS_seL4/cfe/fsw/cfe-core/src/time/cfe_time_task.c ****     /*
 719:/home/simulink/cFS_FreeRTOS_seL4/cfe/fsw/cfe-core/src/time/cfe_time_task.c ****     ** Note: we only increment the command execution counter when
 720:/home/simulink/cFS_FreeRTOS_seL4/cfe/fsw/cfe-core/src/time/cfe_time_task.c ****     **   processing CFE_TIME_CMD_MID commands...
 721:/home/simulink/cFS_FreeRTOS_seL4/cfe/fsw/cfe-core/src/time/cfe_time_task.c ****     */
 722:/home/simulink/cFS_FreeRTOS_seL4/cfe/fsw/cfe-core/src/time/cfe_time_task.c ****     return;
 1064               	.loc 1 722 0
 1065 07a4 4E71      	nop
 723:/home/simulink/cFS_FreeRTOS_seL4/cfe/fsw/cfe-core/src/time/cfe_time_task.c **** 
 724:/home/simulink/cFS_FreeRTOS_seL4/cfe/fsw/cfe-core/src/time/cfe_time_task.c **** } /* End of CFE_TIME_ToneDataCmd() */
 1066               	.loc 1 724 0
 1067 07a6 4E75      	rts
 1068               	.cfi_endproc
 1069               	.LFE65:
 1070               	.sizeCFE_TIME_ToneDataCmd, .-CFE_TIME_ToneDataCmd
 1071               	.align2
 1072               	.globlCFE_TIME_FakeToneCmd
 1073               	.typeCFE_TIME_FakeToneCmd, @function
 1074               	CFE_TIME_FakeToneCmd:
 1075               	.LFB66:
 725:/home/simulink/cFS_FreeRTOS_seL4/cfe/fsw/cfe-core/src/time/cfe_time_task.c **** 
 726:/home/simulink/cFS_FreeRTOS_seL4/cfe/fsw/cfe-core/src/time/cfe_time_task.c **** 
 727:/home/simulink/cFS_FreeRTOS_seL4/cfe/fsw/cfe-core/src/time/cfe_time_task.c **** /* * * * * * * * * * * * * * * * * * * * * * * * * * * * * * * * * */
 728:/home/simulink/cFS_FreeRTOS_seL4/cfe/fsw/cfe-core/src/time/cfe_time_task.c **** /*                                                                 */
 729:/home/simulink/cFS_FreeRTOS_seL4/cfe/fsw/cfe-core/src/time/cfe_time_task.c **** /* CFE_TIME_FakeToneCmd() -- Simulated time at tone signal         */
 730:/home/simulink/cFS_FreeRTOS_seL4/cfe/fsw/cfe-core/src/time/cfe_time_task.c **** /*                                                                 */
 731:/home/simulink/cFS_FreeRTOS_seL4/cfe/fsw/cfe-core/src/time/cfe_time_task.c **** /* If we don't have a distributed tone signal and we are in a      */
 732:/home/simulink/cFS_FreeRTOS_seL4/cfe/fsw/cfe-core/src/time/cfe_time_task.c **** /*    lab environment where time accuracy isn't important, then    */
68K GAS   			page 37


 733:/home/simulink/cFS_FreeRTOS_seL4/cfe/fsw/cfe-core/src/time/cfe_time_task.c **** /*    we can use a SB message to signal the tone.                  */
 734:/home/simulink/cFS_FreeRTOS_seL4/cfe/fsw/cfe-core/src/time/cfe_time_task.c **** /*                                                                 */
 735:/home/simulink/cFS_FreeRTOS_seL4/cfe/fsw/cfe-core/src/time/cfe_time_task.c **** /* Both the time server and clients may be configured to use       */
 736:/home/simulink/cFS_FreeRTOS_seL4/cfe/fsw/cfe-core/src/time/cfe_time_task.c **** /*    the arrival time of the SB message as the tone (instead      */
 737:/home/simulink/cFS_FreeRTOS_seL4/cfe/fsw/cfe-core/src/time/cfe_time_task.c **** /*    of a discrete interrupt signal).                             */
 738:/home/simulink/cFS_FreeRTOS_seL4/cfe/fsw/cfe-core/src/time/cfe_time_task.c **** /*                                                                 */
 739:/home/simulink/cFS_FreeRTOS_seL4/cfe/fsw/cfe-core/src/time/cfe_time_task.c **** /* This way the actual time of the tone is closer to being in      */
 740:/home/simulink/cFS_FreeRTOS_seL4/cfe/fsw/cfe-core/src/time/cfe_time_task.c **** /*    sync and we can ignore the slight delays due to getting      */
 741:/home/simulink/cFS_FreeRTOS_seL4/cfe/fsw/cfe-core/src/time/cfe_time_task.c **** /*    the tone command from the SB message queue since it will     */
 742:/home/simulink/cFS_FreeRTOS_seL4/cfe/fsw/cfe-core/src/time/cfe_time_task.c **** /*    be the same for the server and clients.                      */
 743:/home/simulink/cFS_FreeRTOS_seL4/cfe/fsw/cfe-core/src/time/cfe_time_task.c **** /*                                                                 */
 744:/home/simulink/cFS_FreeRTOS_seL4/cfe/fsw/cfe-core/src/time/cfe_time_task.c **** /* This command is sent by the time server (might be us) while     */
 745:/home/simulink/cFS_FreeRTOS_seL4/cfe/fsw/cfe-core/src/time/cfe_time_task.c **** /*    processing its local 1Hz interrupt task.                     */
 746:/home/simulink/cFS_FreeRTOS_seL4/cfe/fsw/cfe-core/src/time/cfe_time_task.c **** /*                                                                 */
 747:/home/simulink/cFS_FreeRTOS_seL4/cfe/fsw/cfe-core/src/time/cfe_time_task.c **** /* * * * * * * * * * * * * * * * * * * * * * * * * * * * * * * * * */
 748:/home/simulink/cFS_FreeRTOS_seL4/cfe/fsw/cfe-core/src/time/cfe_time_task.c **** 
 749:/home/simulink/cFS_FreeRTOS_seL4/cfe/fsw/cfe-core/src/time/cfe_time_task.c **** #if (CFE_TIME_CFG_FAKE_TONE == TRUE)
 750:/home/simulink/cFS_FreeRTOS_seL4/cfe/fsw/cfe-core/src/time/cfe_time_task.c **** void CFE_TIME_FakeToneCmd(void)
 751:/home/simulink/cFS_FreeRTOS_seL4/cfe/fsw/cfe-core/src/time/cfe_time_task.c **** {
 1076               	.loc 1 751 0
 1077               	.cfi_startproc
 752:/home/simulink/cFS_FreeRTOS_seL4/cfe/fsw/cfe-core/src/time/cfe_time_task.c ****     /*
 753:/home/simulink/cFS_FreeRTOS_seL4/cfe/fsw/cfe-core/src/time/cfe_time_task.c ****     ** Fake the call-back from the "real" h/w ISR...
 754:/home/simulink/cFS_FreeRTOS_seL4/cfe/fsw/cfe-core/src/time/cfe_time_task.c ****     */
 755:/home/simulink/cFS_FreeRTOS_seL4/cfe/fsw/cfe-core/src/time/cfe_time_task.c ****     CFE_TIME_Tone1HzISR();
 1078               	.loc 1 755 0
 1079 07a8 4EB9 0000 	jsr CFE_TIME_Tone1HzISR
 1079      0000 
 756:/home/simulink/cFS_FreeRTOS_seL4/cfe/fsw/cfe-core/src/time/cfe_time_task.c **** 
 757:/home/simulink/cFS_FreeRTOS_seL4/cfe/fsw/cfe-core/src/time/cfe_time_task.c ****     /*
 758:/home/simulink/cFS_FreeRTOS_seL4/cfe/fsw/cfe-core/src/time/cfe_time_task.c ****     ** Note: we only increment the command execution counter when
 759:/home/simulink/cFS_FreeRTOS_seL4/cfe/fsw/cfe-core/src/time/cfe_time_task.c ****     **   processing CFE_TIME_CMD_MID commands...
 760:/home/simulink/cFS_FreeRTOS_seL4/cfe/fsw/cfe-core/src/time/cfe_time_task.c ****     */
 761:/home/simulink/cFS_FreeRTOS_seL4/cfe/fsw/cfe-core/src/time/cfe_time_task.c ****     return;
 1080               	.loc 1 761 0
 1081 07ae 4E71      	nop
 762:/home/simulink/cFS_FreeRTOS_seL4/cfe/fsw/cfe-core/src/time/cfe_time_task.c **** 
 763:/home/simulink/cFS_FreeRTOS_seL4/cfe/fsw/cfe-core/src/time/cfe_time_task.c **** } /* End of CFE_TIME_FakeToneCmd() */
 1082               	.loc 1 763 0
 1083 07b0 4E75      	rts
 1084               	.cfi_endproc
 1085               	.LFE66:
 1086               	.sizeCFE_TIME_FakeToneCmd, .-CFE_TIME_FakeToneCmd
 1087               	.section.rodata
 1088               	.LC26:
 1089 03c3 4E6F 2D6F 	.string"No-op command. cFE Version %d.%d.%d.%d"
 1089      7020 636F 
 1089      6D6D 616E 
 1089      642E 2063 
 1089      4645 2056 
 1090               	.text
 1091               	.align2
 1092               	.globlCFE_TIME_NoopCmd
 1093               	.typeCFE_TIME_NoopCmd, @function
 1094               	CFE_TIME_NoopCmd:
 1095               	.LFB67:
 764:/home/simulink/cFS_FreeRTOS_seL4/cfe/fsw/cfe-core/src/time/cfe_time_task.c **** #endif /* CFE_TIME_CFG_FAKE_TONE */
68K GAS   			page 38


 765:/home/simulink/cFS_FreeRTOS_seL4/cfe/fsw/cfe-core/src/time/cfe_time_task.c **** 
 766:/home/simulink/cFS_FreeRTOS_seL4/cfe/fsw/cfe-core/src/time/cfe_time_task.c **** 
 767:/home/simulink/cFS_FreeRTOS_seL4/cfe/fsw/cfe-core/src/time/cfe_time_task.c **** /* * * * * * * * * * * * * * * * * * * * * * * * * * * * * * * * * */
 768:/home/simulink/cFS_FreeRTOS_seL4/cfe/fsw/cfe-core/src/time/cfe_time_task.c **** /*                                                                 */
 769:/home/simulink/cFS_FreeRTOS_seL4/cfe/fsw/cfe-core/src/time/cfe_time_task.c **** /* CFE_TIME_ToneSendCmd() -- Time at tone command (send data)      */
 770:/home/simulink/cFS_FreeRTOS_seL4/cfe/fsw/cfe-core/src/time/cfe_time_task.c **** /*                                                                 */
 771:/home/simulink/cFS_FreeRTOS_seL4/cfe/fsw/cfe-core/src/time/cfe_time_task.c **** /* * * * * * * * * * * * * * * * * * * * * * * * * * * * * * * * * */
 772:/home/simulink/cFS_FreeRTOS_seL4/cfe/fsw/cfe-core/src/time/cfe_time_task.c **** 
 773:/home/simulink/cFS_FreeRTOS_seL4/cfe/fsw/cfe-core/src/time/cfe_time_task.c **** #if (CFE_TIME_CFG_SERVER == TRUE)
 774:/home/simulink/cFS_FreeRTOS_seL4/cfe/fsw/cfe-core/src/time/cfe_time_task.c ****   #if (CFE_TIME_CFG_SOURCE != TRUE)
 775:/home/simulink/cFS_FreeRTOS_seL4/cfe/fsw/cfe-core/src/time/cfe_time_task.c ****     #if (CFE_TIME_CFG_FAKE_TONE != TRUE)
 776:/home/simulink/cFS_FreeRTOS_seL4/cfe/fsw/cfe-core/src/time/cfe_time_task.c **** void CFE_TIME_ToneSendCmd(void)
 777:/home/simulink/cFS_FreeRTOS_seL4/cfe/fsw/cfe-core/src/time/cfe_time_task.c **** {
 778:/home/simulink/cFS_FreeRTOS_seL4/cfe/fsw/cfe-core/src/time/cfe_time_task.c ****     /*
 779:/home/simulink/cFS_FreeRTOS_seL4/cfe/fsw/cfe-core/src/time/cfe_time_task.c ****     ** Request for "time at tone" data packet (probably scheduler)...
 780:/home/simulink/cFS_FreeRTOS_seL4/cfe/fsw/cfe-core/src/time/cfe_time_task.c ****     */
 781:/home/simulink/cFS_FreeRTOS_seL4/cfe/fsw/cfe-core/src/time/cfe_time_task.c ****     CFE_TIME_ToneSend();
 782:/home/simulink/cFS_FreeRTOS_seL4/cfe/fsw/cfe-core/src/time/cfe_time_task.c **** 
 783:/home/simulink/cFS_FreeRTOS_seL4/cfe/fsw/cfe-core/src/time/cfe_time_task.c ****     /*
 784:/home/simulink/cFS_FreeRTOS_seL4/cfe/fsw/cfe-core/src/time/cfe_time_task.c ****     ** Note: we only increment the command execution counter when
 785:/home/simulink/cFS_FreeRTOS_seL4/cfe/fsw/cfe-core/src/time/cfe_time_task.c ****     **   processing CFE_TIME_CMD_MID commands...
 786:/home/simulink/cFS_FreeRTOS_seL4/cfe/fsw/cfe-core/src/time/cfe_time_task.c ****     */
 787:/home/simulink/cFS_FreeRTOS_seL4/cfe/fsw/cfe-core/src/time/cfe_time_task.c ****     return;
 788:/home/simulink/cFS_FreeRTOS_seL4/cfe/fsw/cfe-core/src/time/cfe_time_task.c **** 
 789:/home/simulink/cFS_FreeRTOS_seL4/cfe/fsw/cfe-core/src/time/cfe_time_task.c **** } /* End of CFE_TIME_SendCmd() */
 790:/home/simulink/cFS_FreeRTOS_seL4/cfe/fsw/cfe-core/src/time/cfe_time_task.c ****     #endif /* CFE_TIME_CFG_SERVER */
 791:/home/simulink/cFS_FreeRTOS_seL4/cfe/fsw/cfe-core/src/time/cfe_time_task.c ****   #endif /* not CFE_TIME_CFG_SOURCE */
 792:/home/simulink/cFS_FreeRTOS_seL4/cfe/fsw/cfe-core/src/time/cfe_time_task.c **** #endif /* not CFE_TIME_CFG_FAKE_TONE */
 793:/home/simulink/cFS_FreeRTOS_seL4/cfe/fsw/cfe-core/src/time/cfe_time_task.c **** 
 794:/home/simulink/cFS_FreeRTOS_seL4/cfe/fsw/cfe-core/src/time/cfe_time_task.c **** 
 795:/home/simulink/cFS_FreeRTOS_seL4/cfe/fsw/cfe-core/src/time/cfe_time_task.c **** /* * * * * * * * * * * * * * * * * * * * * * * * * * * * * * * * * */
 796:/home/simulink/cFS_FreeRTOS_seL4/cfe/fsw/cfe-core/src/time/cfe_time_task.c **** /*                                                                 */
 797:/home/simulink/cFS_FreeRTOS_seL4/cfe/fsw/cfe-core/src/time/cfe_time_task.c **** /* CFE_TIME_NoopCmd() -- Time task ground command (NO-OP)          */
 798:/home/simulink/cFS_FreeRTOS_seL4/cfe/fsw/cfe-core/src/time/cfe_time_task.c **** /*                                                                 */
 799:/home/simulink/cFS_FreeRTOS_seL4/cfe/fsw/cfe-core/src/time/cfe_time_task.c **** /* * * * * * * * * * * * * * * * * * * * * * * * * * * * * * * * * */
 800:/home/simulink/cFS_FreeRTOS_seL4/cfe/fsw/cfe-core/src/time/cfe_time_task.c **** 
 801:/home/simulink/cFS_FreeRTOS_seL4/cfe/fsw/cfe-core/src/time/cfe_time_task.c **** void CFE_TIME_NoopCmd(void)
 802:/home/simulink/cFS_FreeRTOS_seL4/cfe/fsw/cfe-core/src/time/cfe_time_task.c **** {
 1096               	.loc 1 802 0
 1097               	.cfi_startproc
 803:/home/simulink/cFS_FreeRTOS_seL4/cfe/fsw/cfe-core/src/time/cfe_time_task.c **** 
 804:/home/simulink/cFS_FreeRTOS_seL4/cfe/fsw/cfe-core/src/time/cfe_time_task.c ****     CFE_TIME_TaskData.CmdCounter++;
 1098               	.loc 1 804 0
 1099 07b2 1039 0000 	move.b CFE_TIME_TaskData,%d0
 1099      0000 
 1100 07b8 5280      	addq.l #1,%d0
 1101 07ba 1000      	move.b %d0,%d0
 1102 07bc 13C0 0000 	move.b %d0,CFE_TIME_TaskData
 1102      0000 
 805:/home/simulink/cFS_FreeRTOS_seL4/cfe/fsw/cfe-core/src/time/cfe_time_task.c **** 
 806:/home/simulink/cFS_FreeRTOS_seL4/cfe/fsw/cfe-core/src/time/cfe_time_task.c ****     CFE_EVS_SendEvent(CFE_TIME_NOOP_EID, CFE_EVS_INFORMATION,
 1103               	.loc 1 806 0
 1104 07c2 42A7      	clr.l -(%sp)
 1105               	.cfi_def_cfa_offset 8
 1106 07c4 42A7      	clr.l -(%sp)
 1107               	.cfi_def_cfa_offset 12
 1108 07c6 4878 0005 	pea 5.w
68K GAS   			page 39


 1109               	.cfi_def_cfa_offset 16
 1110 07ca 4878 0006 	pea 6.w
 1111               	.cfi_def_cfa_offset 20
 1112 07ce 4879 0000 	pea .LC26
 1112      0000 
 1113               	.cfi_def_cfa_offset 24
 1114 07d4 4878 0002 	pea 2.w
 1115               	.cfi_def_cfa_offset 28
 1116 07d8 4878 0004 	pea 4.w
 1117               	.cfi_def_cfa_offset 32
 1118 07dc 4EB9 0000 	jsr CFE_EVS_SendEvent
 1118      0000 
 1119 07e2 4FEF 001C 	lea (28,%sp),%sp
 1120               	.cfi_def_cfa_offset 4
 807:/home/simulink/cFS_FreeRTOS_seL4/cfe/fsw/cfe-core/src/time/cfe_time_task.c ****                      "No-op command. cFE Version %d.%d.%d.%d",
 808:/home/simulink/cFS_FreeRTOS_seL4/cfe/fsw/cfe-core/src/time/cfe_time_task.c ****                      CFE_MAJOR_VERSION,CFE_MINOR_VERSION,CFE_REVISION,CFE_MISSION_REV);
 809:/home/simulink/cFS_FreeRTOS_seL4/cfe/fsw/cfe-core/src/time/cfe_time_task.c **** 
 810:/home/simulink/cFS_FreeRTOS_seL4/cfe/fsw/cfe-core/src/time/cfe_time_task.c ****     return;
 1121               	.loc 1 810 0
 1122 07e6 4E71      	nop
 811:/home/simulink/cFS_FreeRTOS_seL4/cfe/fsw/cfe-core/src/time/cfe_time_task.c **** 
 812:/home/simulink/cFS_FreeRTOS_seL4/cfe/fsw/cfe-core/src/time/cfe_time_task.c **** } /* End of CFE_TIME_NoopCmd() */
 1123               	.loc 1 812 0
 1124 07e8 4E75      	rts
 1125               	.cfi_endproc
 1126               	.LFE67:
 1127               	.sizeCFE_TIME_NoopCmd, .-CFE_TIME_NoopCmd
 1128               	.section.rodata
 1129               	.LC27:
 1130 03ea 5265 7365 	.string"Reset Counters command"
 1130      7420 436F 
 1130      756E 7465 
 1130      7273 2063 
 1130      6F6D 6D61 
 1131               	.text
 1132               	.align2
 1133               	.globlCFE_TIME_ResetCmd
 1134               	.typeCFE_TIME_ResetCmd, @function
 1135               	CFE_TIME_ResetCmd:
 1136               	.LFB68:
 813:/home/simulink/cFS_FreeRTOS_seL4/cfe/fsw/cfe-core/src/time/cfe_time_task.c **** 
 814:/home/simulink/cFS_FreeRTOS_seL4/cfe/fsw/cfe-core/src/time/cfe_time_task.c **** 
 815:/home/simulink/cFS_FreeRTOS_seL4/cfe/fsw/cfe-core/src/time/cfe_time_task.c **** /* * * * * * * * * * * * * * * * * * * * * * * * * * * * * * * * * */
 816:/home/simulink/cFS_FreeRTOS_seL4/cfe/fsw/cfe-core/src/time/cfe_time_task.c **** /*                                                                 */
 817:/home/simulink/cFS_FreeRTOS_seL4/cfe/fsw/cfe-core/src/time/cfe_time_task.c **** /* CFE_TIME_ResetCmd() -- Time task ground command (reset counters)*/
 818:/home/simulink/cFS_FreeRTOS_seL4/cfe/fsw/cfe-core/src/time/cfe_time_task.c **** /*                                                                 */
 819:/home/simulink/cFS_FreeRTOS_seL4/cfe/fsw/cfe-core/src/time/cfe_time_task.c **** /* * * * * * * * * * * * * * * * * * * * * * * * * * * * * * * * * */
 820:/home/simulink/cFS_FreeRTOS_seL4/cfe/fsw/cfe-core/src/time/cfe_time_task.c **** 
 821:/home/simulink/cFS_FreeRTOS_seL4/cfe/fsw/cfe-core/src/time/cfe_time_task.c **** void CFE_TIME_ResetCmd(void)
 822:/home/simulink/cFS_FreeRTOS_seL4/cfe/fsw/cfe-core/src/time/cfe_time_task.c **** {
 1137               	.loc 1 822 0
 1138               	.cfi_startproc
 823:/home/simulink/cFS_FreeRTOS_seL4/cfe/fsw/cfe-core/src/time/cfe_time_task.c **** 
 824:/home/simulink/cFS_FreeRTOS_seL4/cfe/fsw/cfe-core/src/time/cfe_time_task.c ****     CFE_TIME_TaskData.CmdCounter = 0;
 1139               	.loc 1 824 0
 1140 07ea 4200      	clr.b %d0
 1141 07ec 13C0 0000 	move.b %d0,CFE_TIME_TaskData
68K GAS   			page 40


 1141      0000 
 825:/home/simulink/cFS_FreeRTOS_seL4/cfe/fsw/cfe-core/src/time/cfe_time_task.c ****     CFE_TIME_TaskData.ErrCounter = 0;
 1142               	.loc 1 825 0
 1143 07f2 4200      	clr.b %d0
 1144 07f4 13C0 0000 	move.b %d0,CFE_TIME_TaskData+1
 1144      0000 
 826:/home/simulink/cFS_FreeRTOS_seL4/cfe/fsw/cfe-core/src/time/cfe_time_task.c **** 
 827:/home/simulink/cFS_FreeRTOS_seL4/cfe/fsw/cfe-core/src/time/cfe_time_task.c ****     CFE_TIME_TaskData.ToneMatchCount  = 0;
 1145               	.loc 1 827 0
 1146 07fa 42B9 0000 	clr.l CFE_TIME_TaskData+392
 1146      0000 
 828:/home/simulink/cFS_FreeRTOS_seL4/cfe/fsw/cfe-core/src/time/cfe_time_task.c ****     CFE_TIME_TaskData.ToneMatchErrors = 0;
 1147               	.loc 1 828 0
 1148 0800 42B9 0000 	clr.l CFE_TIME_TaskData+396
 1148      0000 
 829:/home/simulink/cFS_FreeRTOS_seL4/cfe/fsw/cfe-core/src/time/cfe_time_task.c **** 
 830:/home/simulink/cFS_FreeRTOS_seL4/cfe/fsw/cfe-core/src/time/cfe_time_task.c ****     CFE_TIME_TaskData.ToneSignalCount = 0;
 1149               	.loc 1 830 0
 1150 0806 42B9 0000 	clr.l CFE_TIME_TaskData+400
 1150      0000 
 831:/home/simulink/cFS_FreeRTOS_seL4/cfe/fsw/cfe-core/src/time/cfe_time_task.c ****     CFE_TIME_TaskData.ToneDataCount   = 0;
 1151               	.loc 1 831 0
 1152 080c 42B9 0000 	clr.l CFE_TIME_TaskData+404
 1152      0000 
 832:/home/simulink/cFS_FreeRTOS_seL4/cfe/fsw/cfe-core/src/time/cfe_time_task.c **** 
 833:/home/simulink/cFS_FreeRTOS_seL4/cfe/fsw/cfe-core/src/time/cfe_time_task.c ****     CFE_TIME_TaskData.ToneIntCount    = 0;
 1153               	.loc 1 833 0
 1154 0812 42B9 0000 	clr.l CFE_TIME_TaskData+408
 1154      0000 
 834:/home/simulink/cFS_FreeRTOS_seL4/cfe/fsw/cfe-core/src/time/cfe_time_task.c ****     CFE_TIME_TaskData.ToneIntErrors   = 0;
 1155               	.loc 1 834 0
 1156 0818 42B9 0000 	clr.l CFE_TIME_TaskData+412
 1156      0000 
 835:/home/simulink/cFS_FreeRTOS_seL4/cfe/fsw/cfe-core/src/time/cfe_time_task.c ****     CFE_TIME_TaskData.ToneTaskCount   = 0;
 1157               	.loc 1 835 0
 1158 081e 42B9 0000 	clr.l CFE_TIME_TaskData+416
 1158      0000 
 836:/home/simulink/cFS_FreeRTOS_seL4/cfe/fsw/cfe-core/src/time/cfe_time_task.c **** 
 837:/home/simulink/cFS_FreeRTOS_seL4/cfe/fsw/cfe-core/src/time/cfe_time_task.c ****     CFE_TIME_TaskData.VersionCount    = 0;
 1159               	.loc 1 837 0
 1160 0824 42B9 0000 	clr.l CFE_TIME_TaskData+424
 1160      0000 
 838:/home/simulink/cFS_FreeRTOS_seL4/cfe/fsw/cfe-core/src/time/cfe_time_task.c **** 
 839:/home/simulink/cFS_FreeRTOS_seL4/cfe/fsw/cfe-core/src/time/cfe_time_task.c ****     CFE_TIME_TaskData.LocalIntCount   = 0;
 1161               	.loc 1 839 0
 1162 082a 42B9 0000 	clr.l CFE_TIME_TaskData+428
 1162      0000 
 840:/home/simulink/cFS_FreeRTOS_seL4/cfe/fsw/cfe-core/src/time/cfe_time_task.c ****     CFE_TIME_TaskData.LocalTaskCount  = 0;
 1163               	.loc 1 840 0
 1164 0830 42B9 0000 	clr.l CFE_TIME_TaskData+432
 1164      0000 
 841:/home/simulink/cFS_FreeRTOS_seL4/cfe/fsw/cfe-core/src/time/cfe_time_task.c **** 
 842:/home/simulink/cFS_FreeRTOS_seL4/cfe/fsw/cfe-core/src/time/cfe_time_task.c ****     CFE_TIME_TaskData.InternalCount   = 0;
 1165               	.loc 1 842 0
 1166 0836 42B9 0000 	clr.l CFE_TIME_TaskData+436
 1166      0000 
 843:/home/simulink/cFS_FreeRTOS_seL4/cfe/fsw/cfe-core/src/time/cfe_time_task.c ****     CFE_TIME_TaskData.ExternalCount   = 0;
68K GAS   			page 41


 1167               	.loc 1 843 0
 1168 083c 42B9 0000 	clr.l CFE_TIME_TaskData+440
 1168      0000 
 844:/home/simulink/cFS_FreeRTOS_seL4/cfe/fsw/cfe-core/src/time/cfe_time_task.c **** 
 845:/home/simulink/cFS_FreeRTOS_seL4/cfe/fsw/cfe-core/src/time/cfe_time_task.c ****     CFE_EVS_SendEvent(CFE_TIME_RESET_EID, CFE_EVS_DEBUG,
 1169               	.loc 1 845 0
 1170 0842 4879 0000 	pea .LC27
 1170      0000 
 1171               	.cfi_def_cfa_offset 8
 1172 0848 4878 0001 	pea 1.w
 1173               	.cfi_def_cfa_offset 12
 1174 084c 4878 0005 	pea 5.w
 1175               	.cfi_def_cfa_offset 16
 1176 0850 4EB9 0000 	jsr CFE_EVS_SendEvent
 1176      0000 
 1177 0856 4FEF 000C 	lea (12,%sp),%sp
 1178               	.cfi_def_cfa_offset 4
 846:/home/simulink/cFS_FreeRTOS_seL4/cfe/fsw/cfe-core/src/time/cfe_time_task.c ****                      "Reset Counters command");
 847:/home/simulink/cFS_FreeRTOS_seL4/cfe/fsw/cfe-core/src/time/cfe_time_task.c **** 
 848:/home/simulink/cFS_FreeRTOS_seL4/cfe/fsw/cfe-core/src/time/cfe_time_task.c ****     return;
 1179               	.loc 1 848 0
 1180 085a 4E71      	nop
 849:/home/simulink/cFS_FreeRTOS_seL4/cfe/fsw/cfe-core/src/time/cfe_time_task.c **** 
 850:/home/simulink/cFS_FreeRTOS_seL4/cfe/fsw/cfe-core/src/time/cfe_time_task.c **** } /* End of CFE_TIME_ResetCmd() */
 1181               	.loc 1 850 0
 1182 085c 4E75      	rts
 1183               	.cfi_endproc
 1184               	.LFE68:
 1185               	.sizeCFE_TIME_ResetCmd, .-CFE_TIME_ResetCmd
 1186               	.section.rodata
 1187               	.LC28:
 1188 0401 5265 7175 	.string"Request diagnostics command"
 1188      6573 7420 
 1188      6469 6167 
 1188      6E6F 7374 
 1188      6963 7320 
 1189               	.text
 1190               	.align2
 1191               	.globlCFE_TIME_DiagCmd
 1192               	.typeCFE_TIME_DiagCmd, @function
 1193               	CFE_TIME_DiagCmd:
 1194               	.LFB69:
 851:/home/simulink/cFS_FreeRTOS_seL4/cfe/fsw/cfe-core/src/time/cfe_time_task.c **** 
 852:/home/simulink/cFS_FreeRTOS_seL4/cfe/fsw/cfe-core/src/time/cfe_time_task.c **** 
 853:/home/simulink/cFS_FreeRTOS_seL4/cfe/fsw/cfe-core/src/time/cfe_time_task.c **** /* * * * * * * * * * * * * * * * * * * * * * * * * * * * * * * * * */
 854:/home/simulink/cFS_FreeRTOS_seL4/cfe/fsw/cfe-core/src/time/cfe_time_task.c **** /*                                                                 */
 855:/home/simulink/cFS_FreeRTOS_seL4/cfe/fsw/cfe-core/src/time/cfe_time_task.c **** /* CFE_TIME_DiagCmd() -- Time task ground command (diagnostics)    */
 856:/home/simulink/cFS_FreeRTOS_seL4/cfe/fsw/cfe-core/src/time/cfe_time_task.c **** /*                                                                 */
 857:/home/simulink/cFS_FreeRTOS_seL4/cfe/fsw/cfe-core/src/time/cfe_time_task.c **** /* * * * * * * * * * * * * * * * * * * * * * * * * * * * * * * * * */
 858:/home/simulink/cFS_FreeRTOS_seL4/cfe/fsw/cfe-core/src/time/cfe_time_task.c **** 
 859:/home/simulink/cFS_FreeRTOS_seL4/cfe/fsw/cfe-core/src/time/cfe_time_task.c **** void CFE_TIME_DiagCmd(void)
 860:/home/simulink/cFS_FreeRTOS_seL4/cfe/fsw/cfe-core/src/time/cfe_time_task.c **** {
 1195               	.loc 1 860 0
 1196               	.cfi_startproc
 861:/home/simulink/cFS_FreeRTOS_seL4/cfe/fsw/cfe-core/src/time/cfe_time_task.c ****     CFE_TIME_TaskData.CmdCounter++;
 1197               	.loc 1 861 0
 1198 085e 1039 0000 	move.b CFE_TIME_TaskData,%d0
68K GAS   			page 42


 1198      0000 
 1199 0864 5280      	addq.l #1,%d0
 1200 0866 1000      	move.b %d0,%d0
 1201 0868 13C0 0000 	move.b %d0,CFE_TIME_TaskData
 1201      0000 
 862:/home/simulink/cFS_FreeRTOS_seL4/cfe/fsw/cfe-core/src/time/cfe_time_task.c **** 
 863:/home/simulink/cFS_FreeRTOS_seL4/cfe/fsw/cfe-core/src/time/cfe_time_task.c ****     /*
 864:/home/simulink/cFS_FreeRTOS_seL4/cfe/fsw/cfe-core/src/time/cfe_time_task.c ****     ** Collect housekeeping data from Time Services utilities...
 865:/home/simulink/cFS_FreeRTOS_seL4/cfe/fsw/cfe-core/src/time/cfe_time_task.c ****     */
 866:/home/simulink/cFS_FreeRTOS_seL4/cfe/fsw/cfe-core/src/time/cfe_time_task.c ****     CFE_TIME_GetDiagData();
 1202               	.loc 1 866 0
 1203 086e 4EB9 0000 	jsr CFE_TIME_GetDiagData
 1203      0000 
 867:/home/simulink/cFS_FreeRTOS_seL4/cfe/fsw/cfe-core/src/time/cfe_time_task.c **** 
 868:/home/simulink/cFS_FreeRTOS_seL4/cfe/fsw/cfe-core/src/time/cfe_time_task.c ****     /*
 869:/home/simulink/cFS_FreeRTOS_seL4/cfe/fsw/cfe-core/src/time/cfe_time_task.c ****     ** Send housekeeping telemetry packet...
 870:/home/simulink/cFS_FreeRTOS_seL4/cfe/fsw/cfe-core/src/time/cfe_time_task.c ****     */
 871:/home/simulink/cFS_FreeRTOS_seL4/cfe/fsw/cfe-core/src/time/cfe_time_task.c ****     CFE_SB_TimeStampMsg((CFE_SB_Msg_t *) &CFE_TIME_TaskData.DiagPacket);
 1204               	.loc 1 871 0
 1205 0874 4879 0000 	pea CFE_TIME_TaskData+48
 1205      0000 
 1206               	.cfi_def_cfa_offset 8
 1207 087a 4EB9 0000 	jsr CFE_SB_TimeStampMsg
 1207      0000 
 1208 0880 588F      	addq.l #4,%sp
 1209               	.cfi_def_cfa_offset 4
 872:/home/simulink/cFS_FreeRTOS_seL4/cfe/fsw/cfe-core/src/time/cfe_time_task.c ****     CFE_SB_SendMsg((CFE_SB_Msg_t *) &CFE_TIME_TaskData.DiagPacket);
 1210               	.loc 1 872 0
 1211 0882 4879 0000 	pea CFE_TIME_TaskData+48
 1211      0000 
 1212               	.cfi_def_cfa_offset 8
 1213 0888 4EB9 0000 	jsr CFE_SB_SendMsg
 1213      0000 
 1214 088e 588F      	addq.l #4,%sp
 1215               	.cfi_def_cfa_offset 4
 873:/home/simulink/cFS_FreeRTOS_seL4/cfe/fsw/cfe-core/src/time/cfe_time_task.c **** 
 874:/home/simulink/cFS_FreeRTOS_seL4/cfe/fsw/cfe-core/src/time/cfe_time_task.c ****     CFE_EVS_SendEvent(CFE_TIME_DIAG_EID, CFE_EVS_DEBUG,
 1216               	.loc 1 874 0
 1217 0890 4879 0000 	pea .LC28
 1217      0000 
 1218               	.cfi_def_cfa_offset 8
 1219 0896 4878 0001 	pea 1.w
 1220               	.cfi_def_cfa_offset 12
 1221 089a 4878 0006 	pea 6.w
 1222               	.cfi_def_cfa_offset 16
 1223 089e 4EB9 0000 	jsr CFE_EVS_SendEvent
 1223      0000 
 1224 08a4 4FEF 000C 	lea (12,%sp),%sp
 1225               	.cfi_def_cfa_offset 4
 875:/home/simulink/cFS_FreeRTOS_seL4/cfe/fsw/cfe-core/src/time/cfe_time_task.c ****                      "Request diagnostics command");
 876:/home/simulink/cFS_FreeRTOS_seL4/cfe/fsw/cfe-core/src/time/cfe_time_task.c **** 
 877:/home/simulink/cFS_FreeRTOS_seL4/cfe/fsw/cfe-core/src/time/cfe_time_task.c ****     return;
 1226               	.loc 1 877 0
 1227 08a8 4E71      	nop
 878:/home/simulink/cFS_FreeRTOS_seL4/cfe/fsw/cfe-core/src/time/cfe_time_task.c **** 
 879:/home/simulink/cFS_FreeRTOS_seL4/cfe/fsw/cfe-core/src/time/cfe_time_task.c **** } /* End of CFE_TIME_DiagCmd() */
 1228               	.loc 1 879 0
68K GAS   			page 43


 1229 08aa 4E75      	rts
 1230               	.cfi_endproc
 1231               	.LFE69:
 1232               	.sizeCFE_TIME_DiagCmd, .-CFE_TIME_DiagCmd
 1233               	.section.rodata
 1234               	.LC29:
 1235 041d 494E 5641 	.string"INVALID"
 1235      4C49 4400 
 1236               	.LC30:
 1237 0425 5641 4C49 	.string"VALID"
 1237      4400 
 1238               	.LC31:
 1239 042b 464C 5957 	.string"FLYWHEEL"
 1239      4845 454C 
 1239      00
 1240               	.LC32:
 1241 0434 5365 7420 	.string"Set Clock State = %s"
 1241      436C 6F63 
 1241      6B20 5374 
 1241      6174 6520 
 1241      3D20 2573 
 1242               	.LC33:
 1243 0449 496E 7661 	.string"Invalid Clock State = 0x%X"
 1243      6C69 6420 
 1243      436C 6F63 
 1243      6B20 5374 
 1243      6174 6520 
 1244               	.text
 1245               	.align2
 1246               	.globlCFE_TIME_SetStateCmd
 1247               	.typeCFE_TIME_SetStateCmd, @function
 1248               	CFE_TIME_SetStateCmd:
 1249               	.LFB70:
 880:/home/simulink/cFS_FreeRTOS_seL4/cfe/fsw/cfe-core/src/time/cfe_time_task.c **** 
 881:/home/simulink/cFS_FreeRTOS_seL4/cfe/fsw/cfe-core/src/time/cfe_time_task.c **** 
 882:/home/simulink/cFS_FreeRTOS_seL4/cfe/fsw/cfe-core/src/time/cfe_time_task.c **** /* * * * * * * * * * * * * * * * * * * * * * * * * * * * * * * * * */
 883:/home/simulink/cFS_FreeRTOS_seL4/cfe/fsw/cfe-core/src/time/cfe_time_task.c **** /*                                                                 */
 884:/home/simulink/cFS_FreeRTOS_seL4/cfe/fsw/cfe-core/src/time/cfe_time_task.c **** /* CFE_TIME_SetStateCmd() -- Time task command (set clock state)   */
 885:/home/simulink/cFS_FreeRTOS_seL4/cfe/fsw/cfe-core/src/time/cfe_time_task.c **** /*                                                                 */
 886:/home/simulink/cFS_FreeRTOS_seL4/cfe/fsw/cfe-core/src/time/cfe_time_task.c **** /* * * * * * * * * * * * * * * * * * * * * * * * * * * * * * * * * */
 887:/home/simulink/cFS_FreeRTOS_seL4/cfe/fsw/cfe-core/src/time/cfe_time_task.c **** 
 888:/home/simulink/cFS_FreeRTOS_seL4/cfe/fsw/cfe-core/src/time/cfe_time_task.c **** void CFE_TIME_SetStateCmd(CFE_SB_MsgPayloadPtr_t Payload)
 889:/home/simulink/cFS_FreeRTOS_seL4/cfe/fsw/cfe-core/src/time/cfe_time_task.c **** {
 1250               	.loc 1 889 0
 1251               	.cfi_startproc
 1252 08ac 518F      	subq.l #8,%sp
 1253               	.cfi_def_cfa_offset 12
 890:/home/simulink/cFS_FreeRTOS_seL4/cfe/fsw/cfe-core/src/time/cfe_time_task.c ****     CFE_TIME_StateCmd_Payload_t *CommandPtr = (CFE_TIME_StateCmd_Payload_t *) Payload;
 1254               	.loc 1 890 0
 1255 08ae 2EAF 000C 	move.l 12(%sp),(%sp)
 891:/home/simulink/cFS_FreeRTOS_seL4/cfe/fsw/cfe-core/src/time/cfe_time_task.c ****     char *ClockStateText;
 892:/home/simulink/cFS_FreeRTOS_seL4/cfe/fsw/cfe-core/src/time/cfe_time_task.c **** 
 893:/home/simulink/cFS_FreeRTOS_seL4/cfe/fsw/cfe-core/src/time/cfe_time_task.c ****     /*
 894:/home/simulink/cFS_FreeRTOS_seL4/cfe/fsw/cfe-core/src/time/cfe_time_task.c ****     ** Verify command argument value (clock state)...
 895:/home/simulink/cFS_FreeRTOS_seL4/cfe/fsw/cfe-core/src/time/cfe_time_task.c ****     */
 896:/home/simulink/cFS_FreeRTOS_seL4/cfe/fsw/cfe-core/src/time/cfe_time_task.c ****     if ((CommandPtr->ClockState == CFE_TIME_INVALID) ||
 1256               	.loc 1 896 0
68K GAS   			page 44


 1257 08b2 2057      	move.l (%sp),%a0
 1258 08b4 3010      	move.w (%a0),%d0
 1259 08b6 3040      	move.w %d0,%a0
 1260 08b8 70FF      	moveq #-1,%d0
 1261 08ba B088      	cmp.l %a0,%d0
 1262 08bc 6714      	jeq .L71
 897:/home/simulink/cFS_FreeRTOS_seL4/cfe/fsw/cfe-core/src/time/cfe_time_task.c ****         (CommandPtr->ClockState == CFE_TIME_VALID)   ||
 1263               	.loc 1 897 0 discriminator 1
 1264 08be 2057      	move.l (%sp),%a0
 1265 08c0 3010      	move.w (%a0),%d0
 896:/home/simulink/cFS_FreeRTOS_seL4/cfe/fsw/cfe-core/src/time/cfe_time_task.c ****         (CommandPtr->ClockState == CFE_TIME_VALID)   ||
 1266               	.loc 1 896 0 discriminator 1
 1267 08c2 4A40      	tst.w %d0
 1268 08c4 670C      	jeq .L71
 898:/home/simulink/cFS_FreeRTOS_seL4/cfe/fsw/cfe-core/src/time/cfe_time_task.c ****         (CommandPtr->ClockState == CFE_TIME_FLYWHEEL))
 1269               	.loc 1 898 0
 1270 08c6 2057      	move.l (%sp),%a0
 1271 08c8 3010      	move.w (%a0),%d0
 897:/home/simulink/cFS_FreeRTOS_seL4/cfe/fsw/cfe-core/src/time/cfe_time_task.c ****         (CommandPtr->ClockState == CFE_TIME_VALID)   ||
 1272               	.loc 1 897 0
 1273 08ca 3040      	move.w %d0,%a0
 1274 08cc 7001      	moveq #1,%d0
 1275 08ce B088      	cmp.l %a0,%d0
 1276 08d0 6674      	jne .L72
 1277               	.L71:
 899:/home/simulink/cFS_FreeRTOS_seL4/cfe/fsw/cfe-core/src/time/cfe_time_task.c ****     {
 900:/home/simulink/cFS_FreeRTOS_seL4/cfe/fsw/cfe-core/src/time/cfe_time_task.c ****         CFE_TIME_SetState(CommandPtr->ClockState);
 1278               	.loc 1 900 0
 1279 08d2 2057      	move.l (%sp),%a0
 1280 08d4 3010      	move.w (%a0),%d0
 1281 08d6 3040      	move.w %d0,%a0
 1282 08d8 2F08      	move.l %a0,-(%sp)
 1283               	.cfi_def_cfa_offset 16
 1284 08da 4EB9 0000 	jsr CFE_TIME_SetState
 1284      0000 
 1285 08e0 588F      	addq.l #4,%sp
 1286               	.cfi_def_cfa_offset 12
 901:/home/simulink/cFS_FreeRTOS_seL4/cfe/fsw/cfe-core/src/time/cfe_time_task.c **** 
 902:/home/simulink/cFS_FreeRTOS_seL4/cfe/fsw/cfe-core/src/time/cfe_time_task.c ****         /*
 903:/home/simulink/cFS_FreeRTOS_seL4/cfe/fsw/cfe-core/src/time/cfe_time_task.c ****         ** Select appropriate text for event message...
 904:/home/simulink/cFS_FreeRTOS_seL4/cfe/fsw/cfe-core/src/time/cfe_time_task.c ****         */
 905:/home/simulink/cFS_FreeRTOS_seL4/cfe/fsw/cfe-core/src/time/cfe_time_task.c ****         if (CommandPtr->ClockState == CFE_TIME_INVALID)
 1287               	.loc 1 905 0
 1288 08e2 2057      	move.l (%sp),%a0
 1289 08e4 3010      	move.w (%a0),%d0
 1290 08e6 3040      	move.w %d0,%a0
 1291 08e8 70FF      	moveq #-1,%d0
 1292 08ea B088      	cmp.l %a0,%d0
 1293 08ec 660C      	jne .L73
 906:/home/simulink/cFS_FreeRTOS_seL4/cfe/fsw/cfe-core/src/time/cfe_time_task.c ****         {
 907:/home/simulink/cFS_FreeRTOS_seL4/cfe/fsw/cfe-core/src/time/cfe_time_task.c ****             ClockStateText = "INVALID";
 1294               	.loc 1 907 0
 1295 08ee 203C 0000 	move.l #.LC29,%d0
 1295      0000 
 1296 08f4 2F40 0004 	move.l %d0,4(%sp)
 1297 08f8 601E      	jra .L74
 1298               	.L73:
68K GAS   			page 45


 908:/home/simulink/cFS_FreeRTOS_seL4/cfe/fsw/cfe-core/src/time/cfe_time_task.c ****         }
 909:/home/simulink/cFS_FreeRTOS_seL4/cfe/fsw/cfe-core/src/time/cfe_time_task.c ****         else if (CommandPtr->ClockState == CFE_TIME_VALID)
 1299               	.loc 1 909 0
 1300 08fa 2057      	move.l (%sp),%a0
 1301 08fc 3010      	move.w (%a0),%d0
 1302 08fe 4A40      	tst.w %d0
 1303 0900 660C      	jne .L75
 910:/home/simulink/cFS_FreeRTOS_seL4/cfe/fsw/cfe-core/src/time/cfe_time_task.c ****         {
 911:/home/simulink/cFS_FreeRTOS_seL4/cfe/fsw/cfe-core/src/time/cfe_time_task.c ****             ClockStateText = "VALID";
 1304               	.loc 1 911 0
 1305 0902 203C 0000 	move.l #.LC30,%d0
 1305      0000 
 1306 0908 2F40 0004 	move.l %d0,4(%sp)
 1307 090c 600A      	jra .L74
 1308               	.L75:
 912:/home/simulink/cFS_FreeRTOS_seL4/cfe/fsw/cfe-core/src/time/cfe_time_task.c ****         }
 913:/home/simulink/cFS_FreeRTOS_seL4/cfe/fsw/cfe-core/src/time/cfe_time_task.c ****         else
 914:/home/simulink/cFS_FreeRTOS_seL4/cfe/fsw/cfe-core/src/time/cfe_time_task.c ****         {
 915:/home/simulink/cFS_FreeRTOS_seL4/cfe/fsw/cfe-core/src/time/cfe_time_task.c ****             ClockStateText = "FLYWHEEL";
 1309               	.loc 1 915 0
 1310 090e 203C 0000 	move.l #.LC31,%d0
 1310      0000 
 1311 0914 2F40 0004 	move.l %d0,4(%sp)
 1312               	.L74:
 916:/home/simulink/cFS_FreeRTOS_seL4/cfe/fsw/cfe-core/src/time/cfe_time_task.c ****         }
 917:/home/simulink/cFS_FreeRTOS_seL4/cfe/fsw/cfe-core/src/time/cfe_time_task.c **** 
 918:/home/simulink/cFS_FreeRTOS_seL4/cfe/fsw/cfe-core/src/time/cfe_time_task.c ****         CFE_TIME_TaskData.CmdCounter++;
 1313               	.loc 1 918 0
 1314 0918 1039 0000 	move.b CFE_TIME_TaskData,%d0
 1314      0000 
 1315 091e 5280      	addq.l #1,%d0
 1316 0920 1000      	move.b %d0,%d0
 1317 0922 13C0 0000 	move.b %d0,CFE_TIME_TaskData
 1317      0000 
 919:/home/simulink/cFS_FreeRTOS_seL4/cfe/fsw/cfe-core/src/time/cfe_time_task.c ****         CFE_EVS_SendEvent(CFE_TIME_STATE_EID, CFE_EVS_INFORMATION,
 1318               	.loc 1 919 0
 1319 0928 2F2F 0004 	move.l 4(%sp),-(%sp)
 1320               	.cfi_def_cfa_offset 16
 1321 092c 4879 0000 	pea .LC32
 1321      0000 
 1322               	.cfi_def_cfa_offset 20
 1323 0932 4878 0002 	pea 2.w
 1324               	.cfi_def_cfa_offset 24
 1325 0936 4878 0007 	pea 7.w
 1326               	.cfi_def_cfa_offset 28
 1327 093a 4EB9 0000 	jsr CFE_EVS_SendEvent
 1327      0000 
 1328 0940 4FEF 0010 	lea (16,%sp),%sp
 1329               	.cfi_def_cfa_offset 12
 1330 0944 6030      	jra .L76
 1331               	.L72:
 920:/home/simulink/cFS_FreeRTOS_seL4/cfe/fsw/cfe-core/src/time/cfe_time_task.c ****                          "Set Clock State = %s", ClockStateText);
 921:/home/simulink/cFS_FreeRTOS_seL4/cfe/fsw/cfe-core/src/time/cfe_time_task.c ****     }
 922:/home/simulink/cFS_FreeRTOS_seL4/cfe/fsw/cfe-core/src/time/cfe_time_task.c ****     else
 923:/home/simulink/cFS_FreeRTOS_seL4/cfe/fsw/cfe-core/src/time/cfe_time_task.c ****     {
 924:/home/simulink/cFS_FreeRTOS_seL4/cfe/fsw/cfe-core/src/time/cfe_time_task.c ****         CFE_TIME_TaskData.ErrCounter++;
 1332               	.loc 1 924 0
68K GAS   			page 46


 1333 0946 1039 0000 	move.b CFE_TIME_TaskData+1,%d0
 1333      0000 
 1334 094c 5280      	addq.l #1,%d0
 1335 094e 1000      	move.b %d0,%d0
 1336 0950 13C0 0000 	move.b %d0,CFE_TIME_TaskData+1
 1336      0000 
 925:/home/simulink/cFS_FreeRTOS_seL4/cfe/fsw/cfe-core/src/time/cfe_time_task.c ****         CFE_EVS_SendEvent(CFE_TIME_STATE_ERR_EID, CFE_EVS_ERROR,
 926:/home/simulink/cFS_FreeRTOS_seL4/cfe/fsw/cfe-core/src/time/cfe_time_task.c ****                          "Invalid Clock State = 0x%X", (unsigned int)CommandPtr->ClockState);
 1337               	.loc 1 926 0
 1338 0956 2057      	move.l (%sp),%a0
 1339 0958 3010      	move.w (%a0),%d0
 925:/home/simulink/cFS_FreeRTOS_seL4/cfe/fsw/cfe-core/src/time/cfe_time_task.c ****         CFE_EVS_SendEvent(CFE_TIME_STATE_ERR_EID, CFE_EVS_ERROR,
 1340               	.loc 1 925 0
 1341 095a 3040      	move.w %d0,%a0
 1342 095c 2F08      	move.l %a0,-(%sp)
 1343               	.cfi_def_cfa_offset 16
 1344 095e 4879 0000 	pea .LC33
 1344      0000 
 1345               	.cfi_def_cfa_offset 20
 1346 0964 4878 0003 	pea 3.w
 1347               	.cfi_def_cfa_offset 24
 1348 0968 4878 001E 	pea 30.w
 1349               	.cfi_def_cfa_offset 28
 1350 096c 4EB9 0000 	jsr CFE_EVS_SendEvent
 1350      0000 
 1351 0972 4FEF 0010 	lea (16,%sp),%sp
 1352               	.cfi_def_cfa_offset 12
 1353               	.L76:
 927:/home/simulink/cFS_FreeRTOS_seL4/cfe/fsw/cfe-core/src/time/cfe_time_task.c ****     }
 928:/home/simulink/cFS_FreeRTOS_seL4/cfe/fsw/cfe-core/src/time/cfe_time_task.c **** 
 929:/home/simulink/cFS_FreeRTOS_seL4/cfe/fsw/cfe-core/src/time/cfe_time_task.c ****     return;
 1354               	.loc 1 929 0
 1355 0976 4E71      	nop
 930:/home/simulink/cFS_FreeRTOS_seL4/cfe/fsw/cfe-core/src/time/cfe_time_task.c **** 
 931:/home/simulink/cFS_FreeRTOS_seL4/cfe/fsw/cfe-core/src/time/cfe_time_task.c **** } /* End of CFE_TIME_SetStateCmd() */
 1356               	.loc 1 931 0
 1357 0978 508F      	addq.l #8,%sp
 1358 097a 4E75      	rts
 1359               	.cfi_endproc
 1360               	.LFE70:
 1361               	.sizeCFE_TIME_SetStateCmd, .-CFE_TIME_SetStateCmd
 1362               	.section.rodata
 1363               	.LC34:
 1364 0464 5365 7420 	.string"Set Source commands invalid without CFE_TIME_CFG_SOURCE set to TRUE"
 1364      536F 7572 
 1364      6365 2063 
 1364      6F6D 6D61 
 1364      6E64 7320 
 1365               	.LC35:
 1366 04a8 496E 7661 	.string"Invalid Time Source = 0x%X"
 1366      6C69 6420 
 1366      5469 6D65 
 1366      2053 6F75 
 1366      7263 6520 
 1367               	.text
 1368               	.align2
 1369               	.globlCFE_TIME_SetSourceCmd
68K GAS   			page 47


 1370               	.typeCFE_TIME_SetSourceCmd, @function
 1371               	CFE_TIME_SetSourceCmd:
 1372               	.LFB71:
 932:/home/simulink/cFS_FreeRTOS_seL4/cfe/fsw/cfe-core/src/time/cfe_time_task.c **** 
 933:/home/simulink/cFS_FreeRTOS_seL4/cfe/fsw/cfe-core/src/time/cfe_time_task.c **** 
 934:/home/simulink/cFS_FreeRTOS_seL4/cfe/fsw/cfe-core/src/time/cfe_time_task.c **** /* * * * * * * * * * * * * * * * * * * * * * * * * * * * * * * * * */
 935:/home/simulink/cFS_FreeRTOS_seL4/cfe/fsw/cfe-core/src/time/cfe_time_task.c **** /*                                                                 */
 936:/home/simulink/cFS_FreeRTOS_seL4/cfe/fsw/cfe-core/src/time/cfe_time_task.c **** /* CFE_TIME_SetSourceCmd() -- Time task command (set time source)  */
 937:/home/simulink/cFS_FreeRTOS_seL4/cfe/fsw/cfe-core/src/time/cfe_time_task.c **** /*                                                                 */
 938:/home/simulink/cFS_FreeRTOS_seL4/cfe/fsw/cfe-core/src/time/cfe_time_task.c **** /* * * * * * * * * * * * * * * * * * * * * * * * * * * * * * * * * */
 939:/home/simulink/cFS_FreeRTOS_seL4/cfe/fsw/cfe-core/src/time/cfe_time_task.c **** 
 940:/home/simulink/cFS_FreeRTOS_seL4/cfe/fsw/cfe-core/src/time/cfe_time_task.c **** void CFE_TIME_SetSourceCmd(CFE_SB_MsgPayloadPtr_t Payload)
 941:/home/simulink/cFS_FreeRTOS_seL4/cfe/fsw/cfe-core/src/time/cfe_time_task.c **** {
 1373               	.loc 1 941 0
 1374               	.cfi_startproc
 1375 097c 598F      	subq.l #4,%sp
 1376               	.cfi_def_cfa_offset 8
 942:/home/simulink/cFS_FreeRTOS_seL4/cfe/fsw/cfe-core/src/time/cfe_time_task.c ****     CFE_TIME_SourceCmd_Payload_t *CommandPtr = (CFE_TIME_SourceCmd_Payload_t *) Payload;
 1377               	.loc 1 942 0
 1378 097e 2EAF 0008 	move.l 8(%sp),(%sp)
 943:/home/simulink/cFS_FreeRTOS_seL4/cfe/fsw/cfe-core/src/time/cfe_time_task.c **** 
 944:/home/simulink/cFS_FreeRTOS_seL4/cfe/fsw/cfe-core/src/time/cfe_time_task.c ****     #if (CFE_TIME_CFG_SOURCE == TRUE)
 945:/home/simulink/cFS_FreeRTOS_seL4/cfe/fsw/cfe-core/src/time/cfe_time_task.c ****     char *TimeSourceText;
 946:/home/simulink/cFS_FreeRTOS_seL4/cfe/fsw/cfe-core/src/time/cfe_time_task.c ****     #endif
 947:/home/simulink/cFS_FreeRTOS_seL4/cfe/fsw/cfe-core/src/time/cfe_time_task.c **** 
 948:/home/simulink/cFS_FreeRTOS_seL4/cfe/fsw/cfe-core/src/time/cfe_time_task.c ****     /*
 949:/home/simulink/cFS_FreeRTOS_seL4/cfe/fsw/cfe-core/src/time/cfe_time_task.c ****     ** Verify command argument value (time data source)...
 950:/home/simulink/cFS_FreeRTOS_seL4/cfe/fsw/cfe-core/src/time/cfe_time_task.c ****     */
 951:/home/simulink/cFS_FreeRTOS_seL4/cfe/fsw/cfe-core/src/time/cfe_time_task.c ****     if ((CommandPtr->TimeSource == CFE_TIME_USE_INTERN) ||
 1379               	.loc 1 951 0
 1380 0982 2057      	move.l (%sp),%a0
 1381 0984 3010      	move.w (%a0),%d0
 1382 0986 3040      	move.w %d0,%a0
 1383 0988 7001      	moveq #1,%d0
 1384 098a B088      	cmp.l %a0,%d0
 1385 098c 670C      	jeq .L79
 952:/home/simulink/cFS_FreeRTOS_seL4/cfe/fsw/cfe-core/src/time/cfe_time_task.c ****         (CommandPtr->TimeSource == CFE_TIME_USE_EXTERN))
 1386               	.loc 1 952 0 discriminator 1
 1387 098e 2057      	move.l (%sp),%a0
 1388 0990 3010      	move.w (%a0),%d0
 951:/home/simulink/cFS_FreeRTOS_seL4/cfe/fsw/cfe-core/src/time/cfe_time_task.c ****         (CommandPtr->TimeSource == CFE_TIME_USE_EXTERN))
 1389               	.loc 1 951 0 discriminator 1
 1390 0992 3040      	move.w %d0,%a0
 1391 0994 7002      	moveq #2,%d0
 1392 0996 B088      	cmp.l %a0,%d0
 1393 0998 662A      	jne .L80
 1394               	.L79:
 953:/home/simulink/cFS_FreeRTOS_seL4/cfe/fsw/cfe-core/src/time/cfe_time_task.c ****     {
 954:/home/simulink/cFS_FreeRTOS_seL4/cfe/fsw/cfe-core/src/time/cfe_time_task.c ****         #if (CFE_TIME_CFG_SOURCE == TRUE)
 955:/home/simulink/cFS_FreeRTOS_seL4/cfe/fsw/cfe-core/src/time/cfe_time_task.c ****         /*
 956:/home/simulink/cFS_FreeRTOS_seL4/cfe/fsw/cfe-core/src/time/cfe_time_task.c ****         ** Only systems configured to select source of time data...
 957:/home/simulink/cFS_FreeRTOS_seL4/cfe/fsw/cfe-core/src/time/cfe_time_task.c ****         */
 958:/home/simulink/cFS_FreeRTOS_seL4/cfe/fsw/cfe-core/src/time/cfe_time_task.c ****         CFE_TIME_TaskData.CmdCounter++;
 959:/home/simulink/cFS_FreeRTOS_seL4/cfe/fsw/cfe-core/src/time/cfe_time_task.c **** 
 960:/home/simulink/cFS_FreeRTOS_seL4/cfe/fsw/cfe-core/src/time/cfe_time_task.c ****         CFE_TIME_SetSource(CommandPtr->TimeSource);
 961:/home/simulink/cFS_FreeRTOS_seL4/cfe/fsw/cfe-core/src/time/cfe_time_task.c **** 
 962:/home/simulink/cFS_FreeRTOS_seL4/cfe/fsw/cfe-core/src/time/cfe_time_task.c ****         /*
68K GAS   			page 48


 963:/home/simulink/cFS_FreeRTOS_seL4/cfe/fsw/cfe-core/src/time/cfe_time_task.c ****         ** Select appropriate text for event message...
 964:/home/simulink/cFS_FreeRTOS_seL4/cfe/fsw/cfe-core/src/time/cfe_time_task.c ****         */
 965:/home/simulink/cFS_FreeRTOS_seL4/cfe/fsw/cfe-core/src/time/cfe_time_task.c ****         if (CommandPtr->TimeSource == CFE_TIME_USE_INTERN)
 966:/home/simulink/cFS_FreeRTOS_seL4/cfe/fsw/cfe-core/src/time/cfe_time_task.c ****         {
 967:/home/simulink/cFS_FreeRTOS_seL4/cfe/fsw/cfe-core/src/time/cfe_time_task.c ****             TimeSourceText = "INTERNAL";
 968:/home/simulink/cFS_FreeRTOS_seL4/cfe/fsw/cfe-core/src/time/cfe_time_task.c ****         }
 969:/home/simulink/cFS_FreeRTOS_seL4/cfe/fsw/cfe-core/src/time/cfe_time_task.c ****         else
 970:/home/simulink/cFS_FreeRTOS_seL4/cfe/fsw/cfe-core/src/time/cfe_time_task.c ****         {
 971:/home/simulink/cFS_FreeRTOS_seL4/cfe/fsw/cfe-core/src/time/cfe_time_task.c ****             TimeSourceText = "EXTERNAL";
 972:/home/simulink/cFS_FreeRTOS_seL4/cfe/fsw/cfe-core/src/time/cfe_time_task.c ****         }
 973:/home/simulink/cFS_FreeRTOS_seL4/cfe/fsw/cfe-core/src/time/cfe_time_task.c **** 
 974:/home/simulink/cFS_FreeRTOS_seL4/cfe/fsw/cfe-core/src/time/cfe_time_task.c ****         CFE_EVS_SendEvent(CFE_TIME_SOURCE_EID,
 975:/home/simulink/cFS_FreeRTOS_seL4/cfe/fsw/cfe-core/src/time/cfe_time_task.c ****                           CFE_EVS_INFORMATION,
 976:/home/simulink/cFS_FreeRTOS_seL4/cfe/fsw/cfe-core/src/time/cfe_time_task.c ****                          "Set Time Source = %s", TimeSourceText);
 977:/home/simulink/cFS_FreeRTOS_seL4/cfe/fsw/cfe-core/src/time/cfe_time_task.c **** 
 978:/home/simulink/cFS_FreeRTOS_seL4/cfe/fsw/cfe-core/src/time/cfe_time_task.c ****         #else /* not CFE_TIME_CFG_SOURCE */
 979:/home/simulink/cFS_FreeRTOS_seL4/cfe/fsw/cfe-core/src/time/cfe_time_task.c ****         /*
 980:/home/simulink/cFS_FreeRTOS_seL4/cfe/fsw/cfe-core/src/time/cfe_time_task.c ****         ** We want to know if disabled commands are being sent...
 981:/home/simulink/cFS_FreeRTOS_seL4/cfe/fsw/cfe-core/src/time/cfe_time_task.c ****         */
 982:/home/simulink/cFS_FreeRTOS_seL4/cfe/fsw/cfe-core/src/time/cfe_time_task.c ****         CFE_TIME_TaskData.ErrCounter++;
 1395               	.loc 1 982 0
 1396 099a 1039 0000 	move.b CFE_TIME_TaskData+1,%d0
 1396      0000 
 1397 09a0 5280      	addq.l #1,%d0
 1398 09a2 1000      	move.b %d0,%d0
 1399 09a4 13C0 0000 	move.b %d0,CFE_TIME_TaskData+1
 1399      0000 
 983:/home/simulink/cFS_FreeRTOS_seL4/cfe/fsw/cfe-core/src/time/cfe_time_task.c **** 
 984:/home/simulink/cFS_FreeRTOS_seL4/cfe/fsw/cfe-core/src/time/cfe_time_task.c ****         CFE_EVS_SendEvent(CFE_TIME_SOURCE_CFG_EID, CFE_EVS_ERROR,
 1400               	.loc 1 984 0
 1401 09aa 4879 0000 	pea .LC34
 1401      0000 
 1402               	.cfi_def_cfa_offset 12
 1403 09b0 4878 0003 	pea 3.w
 1404               	.cfi_def_cfa_offset 16
 1405 09b4 4878 0028 	pea 40.w
 1406               	.cfi_def_cfa_offset 20
 1407 09b8 4EB9 0000 	jsr CFE_EVS_SendEvent
 1407      0000 
 1408 09be 4FEF 000C 	lea (12,%sp),%sp
 1409               	.cfi_def_cfa_offset 8
 1410 09c2 6030      	jra .L81
 1411               	.L80:
 985:/home/simulink/cFS_FreeRTOS_seL4/cfe/fsw/cfe-core/src/time/cfe_time_task.c ****         "Set Source commands invalid without CFE_TIME_CFG_SOURCE set to TRUE");
 986:/home/simulink/cFS_FreeRTOS_seL4/cfe/fsw/cfe-core/src/time/cfe_time_task.c **** 
 987:/home/simulink/cFS_FreeRTOS_seL4/cfe/fsw/cfe-core/src/time/cfe_time_task.c ****         #endif /* CFE_TIME_CFG_SOURCE */
 988:/home/simulink/cFS_FreeRTOS_seL4/cfe/fsw/cfe-core/src/time/cfe_time_task.c ****     }
 989:/home/simulink/cFS_FreeRTOS_seL4/cfe/fsw/cfe-core/src/time/cfe_time_task.c ****     else
 990:/home/simulink/cFS_FreeRTOS_seL4/cfe/fsw/cfe-core/src/time/cfe_time_task.c ****     {
 991:/home/simulink/cFS_FreeRTOS_seL4/cfe/fsw/cfe-core/src/time/cfe_time_task.c ****         /*
 992:/home/simulink/cFS_FreeRTOS_seL4/cfe/fsw/cfe-core/src/time/cfe_time_task.c ****         ** Ground system database will prevent most of these errors...
 993:/home/simulink/cFS_FreeRTOS_seL4/cfe/fsw/cfe-core/src/time/cfe_time_task.c ****         */
 994:/home/simulink/cFS_FreeRTOS_seL4/cfe/fsw/cfe-core/src/time/cfe_time_task.c ****         CFE_TIME_TaskData.ErrCounter++;
 1412               	.loc 1 994 0
 1413 09c4 1039 0000 	move.b CFE_TIME_TaskData+1,%d0
 1413      0000 
 1414 09ca 5280      	addq.l #1,%d0
68K GAS   			page 49


 1415 09cc 1000      	move.b %d0,%d0
 1416 09ce 13C0 0000 	move.b %d0,CFE_TIME_TaskData+1
 1416      0000 
 995:/home/simulink/cFS_FreeRTOS_seL4/cfe/fsw/cfe-core/src/time/cfe_time_task.c **** 
 996:/home/simulink/cFS_FreeRTOS_seL4/cfe/fsw/cfe-core/src/time/cfe_time_task.c ****         CFE_EVS_SendEvent(CFE_TIME_SOURCE_ERR_EID, CFE_EVS_ERROR,
 997:/home/simulink/cFS_FreeRTOS_seL4/cfe/fsw/cfe-core/src/time/cfe_time_task.c ****                          "Invalid Time Source = 0x%X", (unsigned int)CommandPtr->TimeSource);
 1417               	.loc 1 997 0
 1418 09d4 2057      	move.l (%sp),%a0
 1419 09d6 3010      	move.w (%a0),%d0
 996:/home/simulink/cFS_FreeRTOS_seL4/cfe/fsw/cfe-core/src/time/cfe_time_task.c ****                          "Invalid Time Source = 0x%X", (unsigned int)CommandPtr->TimeSource);
 1420               	.loc 1 996 0
 1421 09d8 3040      	move.w %d0,%a0
 1422 09da 2F08      	move.l %a0,-(%sp)
 1423               	.cfi_def_cfa_offset 12
 1424 09dc 4879 0000 	pea .LC35
 1424      0000 
 1425               	.cfi_def_cfa_offset 16
 1426 09e2 4878 0003 	pea 3.w
 1427               	.cfi_def_cfa_offset 20
 1428 09e6 4878 001F 	pea 31.w
 1429               	.cfi_def_cfa_offset 24
 1430 09ea 4EB9 0000 	jsr CFE_EVS_SendEvent
 1430      0000 
 1431 09f0 4FEF 0010 	lea (16,%sp),%sp
 1432               	.cfi_def_cfa_offset 8
 1433               	.L81:
 998:/home/simulink/cFS_FreeRTOS_seL4/cfe/fsw/cfe-core/src/time/cfe_time_task.c ****     }
 999:/home/simulink/cFS_FreeRTOS_seL4/cfe/fsw/cfe-core/src/time/cfe_time_task.c **** 
1000:/home/simulink/cFS_FreeRTOS_seL4/cfe/fsw/cfe-core/src/time/cfe_time_task.c ****     return;
 1434               	.loc 1 1000 0
 1435 09f4 4E71      	nop
1001:/home/simulink/cFS_FreeRTOS_seL4/cfe/fsw/cfe-core/src/time/cfe_time_task.c **** 
1002:/home/simulink/cFS_FreeRTOS_seL4/cfe/fsw/cfe-core/src/time/cfe_time_task.c **** } /* End of CFE_TIME_SetSourceCmd() */
 1436               	.loc 1 1002 0
 1437 09f6 588F      	addq.l #4,%sp
 1438 09f8 4E75      	rts
 1439               	.cfi_endproc
 1440               	.LFE71:
 1441               	.sizeCFE_TIME_SetSourceCmd, .-CFE_TIME_SetSourceCmd
 1442               	.section.rodata
 1443               	.LC36:
 1444 04c3 5365 7420 	.string"Set Signal commands invalid without CFE_TIME_CFG_SIGNAL set to TRUE"
 1444      5369 676E 
 1444      616C 2063 
 1444      6F6D 6D61 
 1444      6E64 7320 
 1445               	.LC37:
 1446 0507 496E 7661 	.string"Invalid Tone Source = 0x%X"
 1446      6C69 6420 
 1446      546F 6E65 
 1446      2053 6F75 
 1446      7263 6520 
 1447               	.text
 1448               	.align2
 1449               	.globlCFE_TIME_SetSignalCmd
 1450               	.typeCFE_TIME_SetSignalCmd, @function
 1451               	CFE_TIME_SetSignalCmd:
68K GAS   			page 50


 1452               	.LFB72:
1003:/home/simulink/cFS_FreeRTOS_seL4/cfe/fsw/cfe-core/src/time/cfe_time_task.c **** 
1004:/home/simulink/cFS_FreeRTOS_seL4/cfe/fsw/cfe-core/src/time/cfe_time_task.c **** 
1005:/home/simulink/cFS_FreeRTOS_seL4/cfe/fsw/cfe-core/src/time/cfe_time_task.c **** /* * * * * * * * * * * * * * * * * * * * * * * * * * * * * * * * * */
1006:/home/simulink/cFS_FreeRTOS_seL4/cfe/fsw/cfe-core/src/time/cfe_time_task.c **** /*                                                                 */
1007:/home/simulink/cFS_FreeRTOS_seL4/cfe/fsw/cfe-core/src/time/cfe_time_task.c **** /* CFE_TIME_SetSignalCmd() -- Time task command (set tone source)  */
1008:/home/simulink/cFS_FreeRTOS_seL4/cfe/fsw/cfe-core/src/time/cfe_time_task.c **** /*                                                                 */
1009:/home/simulink/cFS_FreeRTOS_seL4/cfe/fsw/cfe-core/src/time/cfe_time_task.c **** /* * * * * * * * * * * * * * * * * * * * * * * * * * * * * * * * * */
1010:/home/simulink/cFS_FreeRTOS_seL4/cfe/fsw/cfe-core/src/time/cfe_time_task.c **** 
1011:/home/simulink/cFS_FreeRTOS_seL4/cfe/fsw/cfe-core/src/time/cfe_time_task.c **** void CFE_TIME_SetSignalCmd(CFE_SB_MsgPayloadPtr_t Payload)
1012:/home/simulink/cFS_FreeRTOS_seL4/cfe/fsw/cfe-core/src/time/cfe_time_task.c **** {
 1453               	.loc 1 1012 0
 1454               	.cfi_startproc
 1455 09fa 598F      	subq.l #4,%sp
 1456               	.cfi_def_cfa_offset 8
1013:/home/simulink/cFS_FreeRTOS_seL4/cfe/fsw/cfe-core/src/time/cfe_time_task.c ****     CFE_TIME_SignalCmd_Payload_t *CommandPtr = (CFE_TIME_SignalCmd_Payload_t *) Payload;
 1457               	.loc 1 1013 0
 1458 09fc 2EAF 0008 	move.l 8(%sp),(%sp)
1014:/home/simulink/cFS_FreeRTOS_seL4/cfe/fsw/cfe-core/src/time/cfe_time_task.c **** 
1015:/home/simulink/cFS_FreeRTOS_seL4/cfe/fsw/cfe-core/src/time/cfe_time_task.c ****     #if (CFE_TIME_CFG_SIGNAL == TRUE)
1016:/home/simulink/cFS_FreeRTOS_seL4/cfe/fsw/cfe-core/src/time/cfe_time_task.c ****     char *ToneSourceText;
1017:/home/simulink/cFS_FreeRTOS_seL4/cfe/fsw/cfe-core/src/time/cfe_time_task.c ****     #endif
1018:/home/simulink/cFS_FreeRTOS_seL4/cfe/fsw/cfe-core/src/time/cfe_time_task.c **** 
1019:/home/simulink/cFS_FreeRTOS_seL4/cfe/fsw/cfe-core/src/time/cfe_time_task.c ****     /*
1020:/home/simulink/cFS_FreeRTOS_seL4/cfe/fsw/cfe-core/src/time/cfe_time_task.c ****     ** Verify command argument value (tone source)...
1021:/home/simulink/cFS_FreeRTOS_seL4/cfe/fsw/cfe-core/src/time/cfe_time_task.c ****     */
1022:/home/simulink/cFS_FreeRTOS_seL4/cfe/fsw/cfe-core/src/time/cfe_time_task.c ****     if ((CommandPtr->ToneSource == CFE_TIME_TONE_PRI) ||
 1459               	.loc 1 1022 0
 1460 0a00 2057      	move.l (%sp),%a0
 1461 0a02 3010      	move.w (%a0),%d0
 1462 0a04 3040      	move.w %d0,%a0
 1463 0a06 7001      	moveq #1,%d0
 1464 0a08 B088      	cmp.l %a0,%d0
 1465 0a0a 670C      	jeq .L84
1023:/home/simulink/cFS_FreeRTOS_seL4/cfe/fsw/cfe-core/src/time/cfe_time_task.c ****         (CommandPtr->ToneSource == CFE_TIME_TONE_RED))
 1466               	.loc 1 1023 0 discriminator 1
 1467 0a0c 2057      	move.l (%sp),%a0
 1468 0a0e 3010      	move.w (%a0),%d0
1022:/home/simulink/cFS_FreeRTOS_seL4/cfe/fsw/cfe-core/src/time/cfe_time_task.c ****         (CommandPtr->ToneSource == CFE_TIME_TONE_RED))
 1469               	.loc 1 1022 0 discriminator 1
 1470 0a10 3040      	move.w %d0,%a0
 1471 0a12 7002      	moveq #2,%d0
 1472 0a14 B088      	cmp.l %a0,%d0
 1473 0a16 662A      	jne .L85
 1474               	.L84:
1024:/home/simulink/cFS_FreeRTOS_seL4/cfe/fsw/cfe-core/src/time/cfe_time_task.c ****     {
1025:/home/simulink/cFS_FreeRTOS_seL4/cfe/fsw/cfe-core/src/time/cfe_time_task.c ****         #if (CFE_TIME_CFG_SIGNAL == TRUE)
1026:/home/simulink/cFS_FreeRTOS_seL4/cfe/fsw/cfe-core/src/time/cfe_time_task.c ****         /*
1027:/home/simulink/cFS_FreeRTOS_seL4/cfe/fsw/cfe-core/src/time/cfe_time_task.c ****         ** Only systems configured to select tone signal...
1028:/home/simulink/cFS_FreeRTOS_seL4/cfe/fsw/cfe-core/src/time/cfe_time_task.c ****         */
1029:/home/simulink/cFS_FreeRTOS_seL4/cfe/fsw/cfe-core/src/time/cfe_time_task.c ****         CFE_TIME_TaskData.CmdCounter++;
1030:/home/simulink/cFS_FreeRTOS_seL4/cfe/fsw/cfe-core/src/time/cfe_time_task.c **** 
1031:/home/simulink/cFS_FreeRTOS_seL4/cfe/fsw/cfe-core/src/time/cfe_time_task.c ****         CFE_TIME_SetSignal(CommandPtr->ToneSource);
1032:/home/simulink/cFS_FreeRTOS_seL4/cfe/fsw/cfe-core/src/time/cfe_time_task.c **** 
1033:/home/simulink/cFS_FreeRTOS_seL4/cfe/fsw/cfe-core/src/time/cfe_time_task.c ****         /*
1034:/home/simulink/cFS_FreeRTOS_seL4/cfe/fsw/cfe-core/src/time/cfe_time_task.c ****         ** Select appropriate text for event message...
1035:/home/simulink/cFS_FreeRTOS_seL4/cfe/fsw/cfe-core/src/time/cfe_time_task.c ****         */
68K GAS   			page 51


1036:/home/simulink/cFS_FreeRTOS_seL4/cfe/fsw/cfe-core/src/time/cfe_time_task.c ****         if (CommandPtr->ToneSource == CFE_TIME_TONE_PRI)
1037:/home/simulink/cFS_FreeRTOS_seL4/cfe/fsw/cfe-core/src/time/cfe_time_task.c ****         {
1038:/home/simulink/cFS_FreeRTOS_seL4/cfe/fsw/cfe-core/src/time/cfe_time_task.c ****             ToneSourceText = "PRIMARY";
1039:/home/simulink/cFS_FreeRTOS_seL4/cfe/fsw/cfe-core/src/time/cfe_time_task.c ****         }
1040:/home/simulink/cFS_FreeRTOS_seL4/cfe/fsw/cfe-core/src/time/cfe_time_task.c ****         else
1041:/home/simulink/cFS_FreeRTOS_seL4/cfe/fsw/cfe-core/src/time/cfe_time_task.c ****         {
1042:/home/simulink/cFS_FreeRTOS_seL4/cfe/fsw/cfe-core/src/time/cfe_time_task.c ****             ToneSourceText = "REDUNDANT";
1043:/home/simulink/cFS_FreeRTOS_seL4/cfe/fsw/cfe-core/src/time/cfe_time_task.c ****         }
1044:/home/simulink/cFS_FreeRTOS_seL4/cfe/fsw/cfe-core/src/time/cfe_time_task.c **** 
1045:/home/simulink/cFS_FreeRTOS_seL4/cfe/fsw/cfe-core/src/time/cfe_time_task.c ****         CFE_EVS_SendEvent(CFE_TIME_SIGNAL_EID,
1046:/home/simulink/cFS_FreeRTOS_seL4/cfe/fsw/cfe-core/src/time/cfe_time_task.c ****                           CFE_EVS_INFORMATION,
1047:/home/simulink/cFS_FreeRTOS_seL4/cfe/fsw/cfe-core/src/time/cfe_time_task.c ****                          "Set Tone Source = %s", ToneSourceText);
1048:/home/simulink/cFS_FreeRTOS_seL4/cfe/fsw/cfe-core/src/time/cfe_time_task.c **** 
1049:/home/simulink/cFS_FreeRTOS_seL4/cfe/fsw/cfe-core/src/time/cfe_time_task.c ****         #else /* not CFE_TIME_CFG_SIGNAL */
1050:/home/simulink/cFS_FreeRTOS_seL4/cfe/fsw/cfe-core/src/time/cfe_time_task.c ****         /*
1051:/home/simulink/cFS_FreeRTOS_seL4/cfe/fsw/cfe-core/src/time/cfe_time_task.c ****         ** We want to know if disabled commands are being sent...
1052:/home/simulink/cFS_FreeRTOS_seL4/cfe/fsw/cfe-core/src/time/cfe_time_task.c ****         */
1053:/home/simulink/cFS_FreeRTOS_seL4/cfe/fsw/cfe-core/src/time/cfe_time_task.c ****         CFE_TIME_TaskData.ErrCounter++;
 1475               	.loc 1 1053 0
 1476 0a18 1039 0000 	move.b CFE_TIME_TaskData+1,%d0
 1476      0000 
 1477 0a1e 5280      	addq.l #1,%d0
 1478 0a20 1000      	move.b %d0,%d0
 1479 0a22 13C0 0000 	move.b %d0,CFE_TIME_TaskData+1
 1479      0000 
1054:/home/simulink/cFS_FreeRTOS_seL4/cfe/fsw/cfe-core/src/time/cfe_time_task.c **** 
1055:/home/simulink/cFS_FreeRTOS_seL4/cfe/fsw/cfe-core/src/time/cfe_time_task.c ****         CFE_EVS_SendEvent(CFE_TIME_SIGNAL_CFG_EID, CFE_EVS_ERROR,
 1480               	.loc 1 1055 0
 1481 0a28 4879 0000 	pea .LC36
 1481      0000 
 1482               	.cfi_def_cfa_offset 12
 1483 0a2e 4878 0003 	pea 3.w
 1484               	.cfi_def_cfa_offset 16
 1485 0a32 4878 0029 	pea 41.w
 1486               	.cfi_def_cfa_offset 20
 1487 0a36 4EB9 0000 	jsr CFE_EVS_SendEvent
 1487      0000 
 1488 0a3c 4FEF 000C 	lea (12,%sp),%sp
 1489               	.cfi_def_cfa_offset 8
 1490 0a40 6030      	jra .L86
 1491               	.L85:
1056:/home/simulink/cFS_FreeRTOS_seL4/cfe/fsw/cfe-core/src/time/cfe_time_task.c ****            "Set Signal commands invalid without CFE_TIME_CFG_SIGNAL set to TRUE");
1057:/home/simulink/cFS_FreeRTOS_seL4/cfe/fsw/cfe-core/src/time/cfe_time_task.c **** 
1058:/home/simulink/cFS_FreeRTOS_seL4/cfe/fsw/cfe-core/src/time/cfe_time_task.c ****         #endif /* CFE_TIME_CFG_SIGNAL */
1059:/home/simulink/cFS_FreeRTOS_seL4/cfe/fsw/cfe-core/src/time/cfe_time_task.c ****     }
1060:/home/simulink/cFS_FreeRTOS_seL4/cfe/fsw/cfe-core/src/time/cfe_time_task.c ****     else
1061:/home/simulink/cFS_FreeRTOS_seL4/cfe/fsw/cfe-core/src/time/cfe_time_task.c ****     {
1062:/home/simulink/cFS_FreeRTOS_seL4/cfe/fsw/cfe-core/src/time/cfe_time_task.c ****         /*
1063:/home/simulink/cFS_FreeRTOS_seL4/cfe/fsw/cfe-core/src/time/cfe_time_task.c ****         ** Ground system database will prevent most of these errors...
1064:/home/simulink/cFS_FreeRTOS_seL4/cfe/fsw/cfe-core/src/time/cfe_time_task.c ****         */
1065:/home/simulink/cFS_FreeRTOS_seL4/cfe/fsw/cfe-core/src/time/cfe_time_task.c ****         CFE_TIME_TaskData.ErrCounter++;
 1492               	.loc 1 1065 0
 1493 0a42 1039 0000 	move.b CFE_TIME_TaskData+1,%d0
 1493      0000 
 1494 0a48 5280      	addq.l #1,%d0
 1495 0a4a 1000      	move.b %d0,%d0
 1496 0a4c 13C0 0000 	move.b %d0,CFE_TIME_TaskData+1
68K GAS   			page 52


 1496      0000 
1066:/home/simulink/cFS_FreeRTOS_seL4/cfe/fsw/cfe-core/src/time/cfe_time_task.c **** 
1067:/home/simulink/cFS_FreeRTOS_seL4/cfe/fsw/cfe-core/src/time/cfe_time_task.c ****         CFE_EVS_SendEvent(CFE_TIME_SIGNAL_ERR_EID, CFE_EVS_ERROR,
1068:/home/simulink/cFS_FreeRTOS_seL4/cfe/fsw/cfe-core/src/time/cfe_time_task.c ****                          "Invalid Tone Source = 0x%X", (unsigned int)CommandPtr->ToneSource);
 1497               	.loc 1 1068 0
 1498 0a52 2057      	move.l (%sp),%a0
 1499 0a54 3010      	move.w (%a0),%d0
1067:/home/simulink/cFS_FreeRTOS_seL4/cfe/fsw/cfe-core/src/time/cfe_time_task.c ****                          "Invalid Tone Source = 0x%X", (unsigned int)CommandPtr->ToneSource);
 1500               	.loc 1 1067 0
 1501 0a56 3040      	move.w %d0,%a0
 1502 0a58 2F08      	move.l %a0,-(%sp)
 1503               	.cfi_def_cfa_offset 12
 1504 0a5a 4879 0000 	pea .LC37
 1504      0000 
 1505               	.cfi_def_cfa_offset 16
 1506 0a60 4878 0003 	pea 3.w
 1507               	.cfi_def_cfa_offset 20
 1508 0a64 4878 0020 	pea 32.w
 1509               	.cfi_def_cfa_offset 24
 1510 0a68 4EB9 0000 	jsr CFE_EVS_SendEvent
 1510      0000 
 1511 0a6e 4FEF 0010 	lea (16,%sp),%sp
 1512               	.cfi_def_cfa_offset 8
 1513               	.L86:
1069:/home/simulink/cFS_FreeRTOS_seL4/cfe/fsw/cfe-core/src/time/cfe_time_task.c ****     }
1070:/home/simulink/cFS_FreeRTOS_seL4/cfe/fsw/cfe-core/src/time/cfe_time_task.c **** 
1071:/home/simulink/cFS_FreeRTOS_seL4/cfe/fsw/cfe-core/src/time/cfe_time_task.c ****     return;
 1514               	.loc 1 1071 0
 1515 0a72 4E71      	nop
1072:/home/simulink/cFS_FreeRTOS_seL4/cfe/fsw/cfe-core/src/time/cfe_time_task.c **** 
1073:/home/simulink/cFS_FreeRTOS_seL4/cfe/fsw/cfe-core/src/time/cfe_time_task.c **** } /* End of CFE_TIME_SetSignalCmd() */
 1516               	.loc 1 1073 0
 1517 0a74 588F      	addq.l #4,%sp
 1518 0a76 4E75      	rts
 1519               	.cfi_endproc
 1520               	.LFE72:
 1521               	.sizeCFE_TIME_SetSignalCmd, .-CFE_TIME_SetSignalCmd
 1522               	.section.rodata
 1523               	.LC38:
 1524 0522 5365 7420 	.string"Set Delay commands invalid without CFE_TIME_CFG_CLIENT set to TRUE"
 1524      4465 6C61 
 1524      7920 636F 
 1524      6D6D 616E 
 1524      6473 2069 
 1525               	.LC39:
 1526 0565 496E 7661 	.string"Invalid Tone Delay -- secs = %u, usecs = %u"
 1526      6C69 6420 
 1526      546F 6E65 
 1526      2044 656C 
 1526      6179 202D 
 1527               	.text
 1528               	.align2
 1529               	.globlCFE_TIME_SetDelayCmd
 1530               	.typeCFE_TIME_SetDelayCmd, @function
 1531               	CFE_TIME_SetDelayCmd:
 1532               	.LFB73:
1074:/home/simulink/cFS_FreeRTOS_seL4/cfe/fsw/cfe-core/src/time/cfe_time_task.c **** 
68K GAS   			page 53


1075:/home/simulink/cFS_FreeRTOS_seL4/cfe/fsw/cfe-core/src/time/cfe_time_task.c **** 
1076:/home/simulink/cFS_FreeRTOS_seL4/cfe/fsw/cfe-core/src/time/cfe_time_task.c **** /* * * * * * * * * * * * * * * * * * * * * * * * * * * * * * * * * */
1077:/home/simulink/cFS_FreeRTOS_seL4/cfe/fsw/cfe-core/src/time/cfe_time_task.c **** /*                                                                 */
1078:/home/simulink/cFS_FreeRTOS_seL4/cfe/fsw/cfe-core/src/time/cfe_time_task.c **** /* CFE_TIME_SetDelayCmd() -- Time task ground command (tone delay) */
1079:/home/simulink/cFS_FreeRTOS_seL4/cfe/fsw/cfe-core/src/time/cfe_time_task.c **** /*                                                                 */
1080:/home/simulink/cFS_FreeRTOS_seL4/cfe/fsw/cfe-core/src/time/cfe_time_task.c **** /* * * * * * * * * * * * * * * * * * * * * * * * * * * * * * * * * */
1081:/home/simulink/cFS_FreeRTOS_seL4/cfe/fsw/cfe-core/src/time/cfe_time_task.c **** 
1082:/home/simulink/cFS_FreeRTOS_seL4/cfe/fsw/cfe-core/src/time/cfe_time_task.c **** void CFE_TIME_SetDelayCmd(CFE_SB_MsgPayloadPtr_t Payload, int16 Direction)
1083:/home/simulink/cFS_FreeRTOS_seL4/cfe/fsw/cfe-core/src/time/cfe_time_task.c **** {
 1533               	.loc 1 1083 0
 1534               	.cfi_startproc
 1535 0a78 518F      	subq.l #8,%sp
 1536               	.cfi_def_cfa_offset 12
 1537 0a7a 202F 0010 	move.l 16(%sp),%d0
 1538 0a7e 3000      	move.w %d0,%d0
 1539 0a80 3E80      	move.w %d0,(%sp)
1084:/home/simulink/cFS_FreeRTOS_seL4/cfe/fsw/cfe-core/src/time/cfe_time_task.c ****     CFE_TIME_TimeCmd_Payload_t *CommandPtr = (CFE_TIME_TimeCmd_Payload_t *) Payload;
 1540               	.loc 1 1084 0
 1541 0a82 2F6F 000C 	move.l 12(%sp),4(%sp)
 1541      0004 
1085:/home/simulink/cFS_FreeRTOS_seL4/cfe/fsw/cfe-core/src/time/cfe_time_task.c **** 
1086:/home/simulink/cFS_FreeRTOS_seL4/cfe/fsw/cfe-core/src/time/cfe_time_task.c ****     /*
1087:/home/simulink/cFS_FreeRTOS_seL4/cfe/fsw/cfe-core/src/time/cfe_time_task.c ****     ** Verify "micro-seconds" command argument...
1088:/home/simulink/cFS_FreeRTOS_seL4/cfe/fsw/cfe-core/src/time/cfe_time_task.c ****     */
1089:/home/simulink/cFS_FreeRTOS_seL4/cfe/fsw/cfe-core/src/time/cfe_time_task.c ****     if (CommandPtr->MicroSeconds < 1000000)
 1542               	.loc 1 1089 0
 1543 0a88 206F 0004 	move.l 4(%sp),%a0
 1544 0a8c 2028 0004 	move.l 4(%a0),%d0
 1545 0a90 0C80 000F 	cmp.l #999999,%d0
 1545      423F 
 1546 0a96 622A      	jhi .L89
1090:/home/simulink/cFS_FreeRTOS_seL4/cfe/fsw/cfe-core/src/time/cfe_time_task.c ****     {
1091:/home/simulink/cFS_FreeRTOS_seL4/cfe/fsw/cfe-core/src/time/cfe_time_task.c ****         #if (CFE_TIME_CFG_CLIENT == TRUE)
1092:/home/simulink/cFS_FreeRTOS_seL4/cfe/fsw/cfe-core/src/time/cfe_time_task.c **** 
1093:/home/simulink/cFS_FreeRTOS_seL4/cfe/fsw/cfe-core/src/time/cfe_time_task.c ****         CFE_TIME_SysTime_t Delay;
1094:/home/simulink/cFS_FreeRTOS_seL4/cfe/fsw/cfe-core/src/time/cfe_time_task.c **** 
1095:/home/simulink/cFS_FreeRTOS_seL4/cfe/fsw/cfe-core/src/time/cfe_time_task.c ****         Delay.Seconds = CommandPtr->Seconds;
1096:/home/simulink/cFS_FreeRTOS_seL4/cfe/fsw/cfe-core/src/time/cfe_time_task.c ****         Delay.Subseconds = CFE_TIME_Micro2SubSecs(CommandPtr->MicroSeconds);
1097:/home/simulink/cFS_FreeRTOS_seL4/cfe/fsw/cfe-core/src/time/cfe_time_task.c **** 
1098:/home/simulink/cFS_FreeRTOS_seL4/cfe/fsw/cfe-core/src/time/cfe_time_task.c ****         CFE_TIME_SetDelay(Delay, Direction);
1099:/home/simulink/cFS_FreeRTOS_seL4/cfe/fsw/cfe-core/src/time/cfe_time_task.c **** 
1100:/home/simulink/cFS_FreeRTOS_seL4/cfe/fsw/cfe-core/src/time/cfe_time_task.c ****         CFE_TIME_TaskData.CmdCounter++;
1101:/home/simulink/cFS_FreeRTOS_seL4/cfe/fsw/cfe-core/src/time/cfe_time_task.c ****         CFE_EVS_SendEvent(CFE_TIME_DELAY_EID, CFE_EVS_INFORMATION,
1102:/home/simulink/cFS_FreeRTOS_seL4/cfe/fsw/cfe-core/src/time/cfe_time_task.c ****            "Set Tone Delay -- secs = %u, usecs = %u, ssecs = 0x%X, dir = %d",
1103:/home/simulink/cFS_FreeRTOS_seL4/cfe/fsw/cfe-core/src/time/cfe_time_task.c ****            (unsigned int)CommandPtr->Seconds, (unsigned int)CommandPtr->MicroSeconds,
1104:/home/simulink/cFS_FreeRTOS_seL4/cfe/fsw/cfe-core/src/time/cfe_time_task.c ****                           (unsigned int)CFE_TIME_Micro2SubSecs(CommandPtr->MicroSeconds),
1105:/home/simulink/cFS_FreeRTOS_seL4/cfe/fsw/cfe-core/src/time/cfe_time_task.c ****                           (int)Direction);
1106:/home/simulink/cFS_FreeRTOS_seL4/cfe/fsw/cfe-core/src/time/cfe_time_task.c **** 
1107:/home/simulink/cFS_FreeRTOS_seL4/cfe/fsw/cfe-core/src/time/cfe_time_task.c ****         #else /* not CFE_TIME_CFG_CLIENT */
1108:/home/simulink/cFS_FreeRTOS_seL4/cfe/fsw/cfe-core/src/time/cfe_time_task.c ****         /*
1109:/home/simulink/cFS_FreeRTOS_seL4/cfe/fsw/cfe-core/src/time/cfe_time_task.c ****         ** We want to know if disabled commands are being sent...
1110:/home/simulink/cFS_FreeRTOS_seL4/cfe/fsw/cfe-core/src/time/cfe_time_task.c ****         */
1111:/home/simulink/cFS_FreeRTOS_seL4/cfe/fsw/cfe-core/src/time/cfe_time_task.c ****         CFE_TIME_TaskData.ErrCounter++;
 1547               	.loc 1 1111 0
 1548 0a98 1039 0000 	move.b CFE_TIME_TaskData+1,%d0
 1548      0000 
 1549 0a9e 5280      	addq.l #1,%d0
68K GAS   			page 54


 1550 0aa0 1000      	move.b %d0,%d0
 1551 0aa2 13C0 0000 	move.b %d0,CFE_TIME_TaskData+1
 1551      0000 
1112:/home/simulink/cFS_FreeRTOS_seL4/cfe/fsw/cfe-core/src/time/cfe_time_task.c **** 
1113:/home/simulink/cFS_FreeRTOS_seL4/cfe/fsw/cfe-core/src/time/cfe_time_task.c ****         CFE_EVS_SendEvent(CFE_TIME_DELAY_CFG_EID, CFE_EVS_ERROR,
 1552               	.loc 1 1113 0
 1553 0aa8 4879 0000 	pea .LC38
 1553      0000 
 1554               	.cfi_def_cfa_offset 16
 1555 0aae 4878 0003 	pea 3.w
 1556               	.cfi_def_cfa_offset 20
 1557 0ab2 4878 002A 	pea 42.w
 1558               	.cfi_def_cfa_offset 24
 1559 0ab6 4EB9 0000 	jsr CFE_EVS_SendEvent
 1559      0000 
 1560 0abc 4FEF 000C 	lea (12,%sp),%sp
 1561               	.cfi_def_cfa_offset 12
1114:/home/simulink/cFS_FreeRTOS_seL4/cfe/fsw/cfe-core/src/time/cfe_time_task.c ****         "Set Delay commands invalid without CFE_TIME_CFG_CLIENT set to TRUE");
1115:/home/simulink/cFS_FreeRTOS_seL4/cfe/fsw/cfe-core/src/time/cfe_time_task.c **** 
1116:/home/simulink/cFS_FreeRTOS_seL4/cfe/fsw/cfe-core/src/time/cfe_time_task.c ****         #endif /* CFE_TIME_CFG_CLIENT */
1117:/home/simulink/cFS_FreeRTOS_seL4/cfe/fsw/cfe-core/src/time/cfe_time_task.c ****     }
1118:/home/simulink/cFS_FreeRTOS_seL4/cfe/fsw/cfe-core/src/time/cfe_time_task.c ****     else
1119:/home/simulink/cFS_FreeRTOS_seL4/cfe/fsw/cfe-core/src/time/cfe_time_task.c ****     {
1120:/home/simulink/cFS_FreeRTOS_seL4/cfe/fsw/cfe-core/src/time/cfe_time_task.c ****         CFE_TIME_TaskData.ErrCounter++;
1121:/home/simulink/cFS_FreeRTOS_seL4/cfe/fsw/cfe-core/src/time/cfe_time_task.c ****         CFE_EVS_SendEvent(CFE_TIME_DELAY_ERR_EID, CFE_EVS_ERROR,
1122:/home/simulink/cFS_FreeRTOS_seL4/cfe/fsw/cfe-core/src/time/cfe_time_task.c ****                "Invalid Tone Delay -- secs = %u, usecs = %u",
1123:/home/simulink/cFS_FreeRTOS_seL4/cfe/fsw/cfe-core/src/time/cfe_time_task.c ****                (unsigned int)CommandPtr->Seconds, (unsigned int)CommandPtr->MicroSeconds);
1124:/home/simulink/cFS_FreeRTOS_seL4/cfe/fsw/cfe-core/src/time/cfe_time_task.c ****     }
1125:/home/simulink/cFS_FreeRTOS_seL4/cfe/fsw/cfe-core/src/time/cfe_time_task.c **** 
1126:/home/simulink/cFS_FreeRTOS_seL4/cfe/fsw/cfe-core/src/time/cfe_time_task.c ****     return;
 1562               	.loc 1 1126 0
 1563 0ac0 603C      	jra .L88
 1564               	.L89:
1120:/home/simulink/cFS_FreeRTOS_seL4/cfe/fsw/cfe-core/src/time/cfe_time_task.c ****         CFE_EVS_SendEvent(CFE_TIME_DELAY_ERR_EID, CFE_EVS_ERROR,
 1565               	.loc 1 1120 0
 1566 0ac2 1039 0000 	move.b CFE_TIME_TaskData+1,%d0
 1566      0000 
 1567 0ac8 5280      	addq.l #1,%d0
 1568 0aca 1000      	move.b %d0,%d0
 1569 0acc 13C0 0000 	move.b %d0,CFE_TIME_TaskData+1
 1569      0000 
1123:/home/simulink/cFS_FreeRTOS_seL4/cfe/fsw/cfe-core/src/time/cfe_time_task.c ****     }
 1570               	.loc 1 1123 0
 1571 0ad2 206F 0004 	move.l 4(%sp),%a0
 1572 0ad6 2228 0004 	move.l 4(%a0),%d1
 1573 0ada 206F 0004 	move.l 4(%sp),%a0
 1574 0ade 2010      	move.l (%a0),%d0
1121:/home/simulink/cFS_FreeRTOS_seL4/cfe/fsw/cfe-core/src/time/cfe_time_task.c ****                "Invalid Tone Delay -- secs = %u, usecs = %u",
 1575               	.loc 1 1121 0
 1576 0ae0 2F01      	move.l %d1,-(%sp)
 1577               	.cfi_def_cfa_offset 16
 1578 0ae2 2F00      	move.l %d0,-(%sp)
 1579               	.cfi_def_cfa_offset 20
 1580 0ae4 4879 0000 	pea .LC39
 1580      0000 
 1581               	.cfi_def_cfa_offset 24
 1582 0aea 4878 0003 	pea 3.w
68K GAS   			page 55


 1583               	.cfi_def_cfa_offset 28
 1584 0aee 4878 0021 	pea 33.w
 1585               	.cfi_def_cfa_offset 32
 1586 0af2 4EB9 0000 	jsr CFE_EVS_SendEvent
 1586      0000 
 1587 0af8 4FEF 0014 	lea (20,%sp),%sp
 1588               	.cfi_def_cfa_offset 12
 1589               	.loc 1 1126 0
 1590 0afc 4E71      	nop
 1591               	.L88:
1127:/home/simulink/cFS_FreeRTOS_seL4/cfe/fsw/cfe-core/src/time/cfe_time_task.c **** 
1128:/home/simulink/cFS_FreeRTOS_seL4/cfe/fsw/cfe-core/src/time/cfe_time_task.c **** } /* End of CFE_TIME_SetDelayCmd() */
 1592               	.loc 1 1128 0
 1593 0afe 508F      	addq.l #8,%sp
 1594 0b00 4E75      	rts
 1595               	.cfi_endproc
 1596               	.LFE73:
 1597               	.sizeCFE_TIME_SetDelayCmd, .-CFE_TIME_SetDelayCmd
 1598               	.section.rodata
 1599               	.LC40:
 1600 0591 5365 7420 	.string"Set Time -- secs = %u, usecs = %u, ssecs = 0x%X"
 1600      5469 6D65 
 1600      202D 2D20 
 1600      7365 6373 
 1600      203D 2025 
 1601               	.LC41:
 1602 05c1 496E 7661 	.string"Invalid Time -- secs = %u, usecs = %u"
 1602      6C69 6420 
 1602      5469 6D65 
 1602      202D 2D20 
 1602      7365 6373 
 1603               	.text
 1604               	.align2
 1605               	.globlCFE_TIME_SetTimeCmd
 1606               	.typeCFE_TIME_SetTimeCmd, @function
 1607               	CFE_TIME_SetTimeCmd:
 1608               	.LFB74:
1129:/home/simulink/cFS_FreeRTOS_seL4/cfe/fsw/cfe-core/src/time/cfe_time_task.c **** 
1130:/home/simulink/cFS_FreeRTOS_seL4/cfe/fsw/cfe-core/src/time/cfe_time_task.c **** 
1131:/home/simulink/cFS_FreeRTOS_seL4/cfe/fsw/cfe-core/src/time/cfe_time_task.c **** /* * * * * * * * * * * * * * * * * * * * * * * * * * * * * * * * * */
1132:/home/simulink/cFS_FreeRTOS_seL4/cfe/fsw/cfe-core/src/time/cfe_time_task.c **** /*                                                                 */
1133:/home/simulink/cFS_FreeRTOS_seL4/cfe/fsw/cfe-core/src/time/cfe_time_task.c **** /* CFE_TIME_SetTimeCmd() -- Time task ground command (calc STCF)   */
1134:/home/simulink/cFS_FreeRTOS_seL4/cfe/fsw/cfe-core/src/time/cfe_time_task.c **** /*                                                                 */
1135:/home/simulink/cFS_FreeRTOS_seL4/cfe/fsw/cfe-core/src/time/cfe_time_task.c **** /* * * * * * * * * * * * * * * * * * * * * * * * * * * * * * * * * */
1136:/home/simulink/cFS_FreeRTOS_seL4/cfe/fsw/cfe-core/src/time/cfe_time_task.c **** 
1137:/home/simulink/cFS_FreeRTOS_seL4/cfe/fsw/cfe-core/src/time/cfe_time_task.c **** void CFE_TIME_SetTimeCmd(CFE_SB_MsgPayloadPtr_t Payload)
1138:/home/simulink/cFS_FreeRTOS_seL4/cfe/fsw/cfe-core/src/time/cfe_time_task.c **** {
 1609               	.loc 1 1138 0
 1610               	.cfi_startproc
 1611 0b02 4FEF FFF4 	lea (-12,%sp),%sp
 1612               	.cfi_def_cfa_offset 16
1139:/home/simulink/cFS_FreeRTOS_seL4/cfe/fsw/cfe-core/src/time/cfe_time_task.c ****     CFE_TIME_TimeCmd_Payload_t *CommandPtr = (CFE_TIME_TimeCmd_Payload_t *) Payload;
 1613               	.loc 1 1139 0
 1614 0b06 2F6F 0010 	move.l 16(%sp),8(%sp)
 1614      0008 
1140:/home/simulink/cFS_FreeRTOS_seL4/cfe/fsw/cfe-core/src/time/cfe_time_task.c **** 
1141:/home/simulink/cFS_FreeRTOS_seL4/cfe/fsw/cfe-core/src/time/cfe_time_task.c ****     /*
68K GAS   			page 56


1142:/home/simulink/cFS_FreeRTOS_seL4/cfe/fsw/cfe-core/src/time/cfe_time_task.c ****     ** Verify "micro-seconds" command argument...
1143:/home/simulink/cFS_FreeRTOS_seL4/cfe/fsw/cfe-core/src/time/cfe_time_task.c ****     */
1144:/home/simulink/cFS_FreeRTOS_seL4/cfe/fsw/cfe-core/src/time/cfe_time_task.c ****     if (CommandPtr->MicroSeconds < 1000000)
 1615               	.loc 1 1144 0
 1616 0b0c 206F 0008 	move.l 8(%sp),%a0
 1617 0b10 2028 0004 	move.l 4(%a0),%d0
 1618 0b14 0C80 000F 	cmp.l #999999,%d0
 1618      423F 
 1619 0b1a 6200 0082 	jhi .L93
 1620               	.LBB2:
1145:/home/simulink/cFS_FreeRTOS_seL4/cfe/fsw/cfe-core/src/time/cfe_time_task.c ****     {
1146:/home/simulink/cFS_FreeRTOS_seL4/cfe/fsw/cfe-core/src/time/cfe_time_task.c ****         #if (CFE_TIME_CFG_SERVER == TRUE)
1147:/home/simulink/cFS_FreeRTOS_seL4/cfe/fsw/cfe-core/src/time/cfe_time_task.c **** 
1148:/home/simulink/cFS_FreeRTOS_seL4/cfe/fsw/cfe-core/src/time/cfe_time_task.c ****         CFE_TIME_SysTime_t NewTime;
1149:/home/simulink/cFS_FreeRTOS_seL4/cfe/fsw/cfe-core/src/time/cfe_time_task.c **** 
1150:/home/simulink/cFS_FreeRTOS_seL4/cfe/fsw/cfe-core/src/time/cfe_time_task.c ****         NewTime.Seconds = CommandPtr->Seconds;
 1621               	.loc 1 1150 0
 1622 0b1e 206F 0008 	move.l 8(%sp),%a0
 1623 0b22 2010      	move.l (%a0),%d0
 1624 0b24 2E80      	move.l %d0,(%sp)
1151:/home/simulink/cFS_FreeRTOS_seL4/cfe/fsw/cfe-core/src/time/cfe_time_task.c ****         NewTime.Subseconds = CFE_TIME_Micro2SubSecs(CommandPtr->MicroSeconds);
 1625               	.loc 1 1151 0
 1626 0b26 206F 0008 	move.l 8(%sp),%a0
 1627 0b2a 2028 0004 	move.l 4(%a0),%d0
 1628 0b2e 2F00      	move.l %d0,-(%sp)
 1629               	.cfi_def_cfa_offset 20
 1630 0b30 4EB9 0000 	jsr CFE_TIME_Micro2SubSecs
 1630      0000 
 1631 0b36 588F      	addq.l #4,%sp
 1632               	.cfi_def_cfa_offset 16
 1633 0b38 2F40 0004 	move.l %d0,4(%sp)
1152:/home/simulink/cFS_FreeRTOS_seL4/cfe/fsw/cfe-core/src/time/cfe_time_task.c **** 
1153:/home/simulink/cFS_FreeRTOS_seL4/cfe/fsw/cfe-core/src/time/cfe_time_task.c ****         CFE_TIME_SetTime(NewTime);
 1634               	.loc 1 1153 0
 1635 0b3c 2F2F 0004 	move.l 4(%sp),-(%sp)
 1636 0b40 2F2F 0004 	move.l 4(%sp),-(%sp)
 1637               	.cfi_def_cfa_offset 24
 1638 0b44 4EB9 0000 	jsr CFE_TIME_SetTime
 1638      0000 
 1639 0b4a 508F      	addq.l #8,%sp
 1640               	.cfi_def_cfa_offset 16
1154:/home/simulink/cFS_FreeRTOS_seL4/cfe/fsw/cfe-core/src/time/cfe_time_task.c **** 
1155:/home/simulink/cFS_FreeRTOS_seL4/cfe/fsw/cfe-core/src/time/cfe_time_task.c ****         CFE_TIME_TaskData.CmdCounter++;
 1641               	.loc 1 1155 0
 1642 0b4c 1039 0000 	move.b CFE_TIME_TaskData,%d0
 1642      0000 
 1643 0b52 5280      	addq.l #1,%d0
 1644 0b54 1000      	move.b %d0,%d0
 1645 0b56 13C0 0000 	move.b %d0,CFE_TIME_TaskData
 1645      0000 
1156:/home/simulink/cFS_FreeRTOS_seL4/cfe/fsw/cfe-core/src/time/cfe_time_task.c ****         CFE_EVS_SendEvent(CFE_TIME_TIME_EID, CFE_EVS_INFORMATION,
1157:/home/simulink/cFS_FreeRTOS_seL4/cfe/fsw/cfe-core/src/time/cfe_time_task.c ****                          "Set Time -- secs = %u, usecs = %u, ssecs = 0x%X",
1158:/home/simulink/cFS_FreeRTOS_seL4/cfe/fsw/cfe-core/src/time/cfe_time_task.c ****                           (unsigned int)CommandPtr->Seconds, (unsigned int)CommandPtr->MicroSeconds
1159:/home/simulink/cFS_FreeRTOS_seL4/cfe/fsw/cfe-core/src/time/cfe_time_task.c ****                           (unsigned int)CFE_TIME_Micro2SubSecs(CommandPtr->MicroSeconds));
 1646               	.loc 1 1159 0
 1647 0b5c 206F 0008 	move.l 8(%sp),%a0
 1648 0b60 2028 0004 	move.l 4(%a0),%d0
68K GAS   			page 57


 1649 0b64 2F00      	move.l %d0,-(%sp)
 1650               	.cfi_def_cfa_offset 20
 1651 0b66 4EB9 0000 	jsr CFE_TIME_Micro2SubSecs
 1651      0000 
 1652 0b6c 588F      	addq.l #4,%sp
 1653               	.cfi_def_cfa_offset 16
 1654 0b6e 2240      	move.l %d0,%a1
1158:/home/simulink/cFS_FreeRTOS_seL4/cfe/fsw/cfe-core/src/time/cfe_time_task.c ****                           (unsigned int)CFE_TIME_Micro2SubSecs(CommandPtr->MicroSeconds));
 1655               	.loc 1 1158 0
 1656 0b70 206F 0008 	move.l 8(%sp),%a0
 1657 0b74 2228 0004 	move.l 4(%a0),%d1
 1658 0b78 206F 0008 	move.l 8(%sp),%a0
 1659 0b7c 2010      	move.l (%a0),%d0
1156:/home/simulink/cFS_FreeRTOS_seL4/cfe/fsw/cfe-core/src/time/cfe_time_task.c ****         CFE_EVS_SendEvent(CFE_TIME_TIME_EID, CFE_EVS_INFORMATION,
 1660               	.loc 1 1156 0
 1661 0b7e 2F09      	move.l %a1,-(%sp)
 1662               	.cfi_def_cfa_offset 20
 1663 0b80 2F01      	move.l %d1,-(%sp)
 1664               	.cfi_def_cfa_offset 24
 1665 0b82 2F00      	move.l %d0,-(%sp)
 1666               	.cfi_def_cfa_offset 28
 1667 0b84 4879 0000 	pea .LC40
 1667      0000 
 1668               	.cfi_def_cfa_offset 32
 1669 0b8a 4878 0002 	pea 2.w
 1670               	.cfi_def_cfa_offset 36
 1671 0b8e 4878 000C 	pea 12.w
 1672               	.cfi_def_cfa_offset 40
 1673 0b92 4EB9 0000 	jsr CFE_EVS_SendEvent
 1673      0000 
 1674 0b98 4FEF 0018 	lea (24,%sp),%sp
 1675               	.cfi_def_cfa_offset 16
 1676               	.LBE2:
1160:/home/simulink/cFS_FreeRTOS_seL4/cfe/fsw/cfe-core/src/time/cfe_time_task.c **** 
1161:/home/simulink/cFS_FreeRTOS_seL4/cfe/fsw/cfe-core/src/time/cfe_time_task.c ****         #else /* not CFE_TIME_CFG_SERVER */
1162:/home/simulink/cFS_FreeRTOS_seL4/cfe/fsw/cfe-core/src/time/cfe_time_task.c ****         /*
1163:/home/simulink/cFS_FreeRTOS_seL4/cfe/fsw/cfe-core/src/time/cfe_time_task.c ****         ** We want to know if disabled commands are being sent...
1164:/home/simulink/cFS_FreeRTOS_seL4/cfe/fsw/cfe-core/src/time/cfe_time_task.c ****         */
1165:/home/simulink/cFS_FreeRTOS_seL4/cfe/fsw/cfe-core/src/time/cfe_time_task.c ****         CFE_TIME_TaskData.ErrCounter++;
1166:/home/simulink/cFS_FreeRTOS_seL4/cfe/fsw/cfe-core/src/time/cfe_time_task.c **** 
1167:/home/simulink/cFS_FreeRTOS_seL4/cfe/fsw/cfe-core/src/time/cfe_time_task.c ****         CFE_EVS_SendEvent(CFE_TIME_TIME_CFG_EID, CFE_EVS_ERROR,
1168:/home/simulink/cFS_FreeRTOS_seL4/cfe/fsw/cfe-core/src/time/cfe_time_task.c ****            "Set Time commands invalid without CFE_TIME_CFG_SERVER set to TRUE");
1169:/home/simulink/cFS_FreeRTOS_seL4/cfe/fsw/cfe-core/src/time/cfe_time_task.c **** 
1170:/home/simulink/cFS_FreeRTOS_seL4/cfe/fsw/cfe-core/src/time/cfe_time_task.c ****         #endif /* CFE_TIME_CFG_SERVER */
1171:/home/simulink/cFS_FreeRTOS_seL4/cfe/fsw/cfe-core/src/time/cfe_time_task.c ****     }
1172:/home/simulink/cFS_FreeRTOS_seL4/cfe/fsw/cfe-core/src/time/cfe_time_task.c ****     else
1173:/home/simulink/cFS_FreeRTOS_seL4/cfe/fsw/cfe-core/src/time/cfe_time_task.c ****     {
1174:/home/simulink/cFS_FreeRTOS_seL4/cfe/fsw/cfe-core/src/time/cfe_time_task.c ****         CFE_TIME_TaskData.ErrCounter++;
1175:/home/simulink/cFS_FreeRTOS_seL4/cfe/fsw/cfe-core/src/time/cfe_time_task.c ****         CFE_EVS_SendEvent(CFE_TIME_TIME_ERR_EID, CFE_EVS_ERROR,
1176:/home/simulink/cFS_FreeRTOS_seL4/cfe/fsw/cfe-core/src/time/cfe_time_task.c ****                          "Invalid Time -- secs = %u, usecs = %u",
1177:/home/simulink/cFS_FreeRTOS_seL4/cfe/fsw/cfe-core/src/time/cfe_time_task.c ****                          (unsigned int)CommandPtr->Seconds, (unsigned int)CommandPtr->MicroSeconds)
1178:/home/simulink/cFS_FreeRTOS_seL4/cfe/fsw/cfe-core/src/time/cfe_time_task.c ****     }
1179:/home/simulink/cFS_FreeRTOS_seL4/cfe/fsw/cfe-core/src/time/cfe_time_task.c **** 
1180:/home/simulink/cFS_FreeRTOS_seL4/cfe/fsw/cfe-core/src/time/cfe_time_task.c ****     return;
 1677               	.loc 1 1180 0
 1678 0b9c 603C      	jra .L92
 1679               	.L93:
68K GAS   			page 58


1174:/home/simulink/cFS_FreeRTOS_seL4/cfe/fsw/cfe-core/src/time/cfe_time_task.c ****         CFE_EVS_SendEvent(CFE_TIME_TIME_ERR_EID, CFE_EVS_ERROR,
 1680               	.loc 1 1174 0
 1681 0b9e 1039 0000 	move.b CFE_TIME_TaskData+1,%d0
 1681      0000 
 1682 0ba4 5280      	addq.l #1,%d0
 1683 0ba6 1000      	move.b %d0,%d0
 1684 0ba8 13C0 0000 	move.b %d0,CFE_TIME_TaskData+1
 1684      0000 
1177:/home/simulink/cFS_FreeRTOS_seL4/cfe/fsw/cfe-core/src/time/cfe_time_task.c ****     }
 1685               	.loc 1 1177 0
 1686 0bae 206F 0008 	move.l 8(%sp),%a0
 1687 0bb2 2228 0004 	move.l 4(%a0),%d1
 1688 0bb6 206F 0008 	move.l 8(%sp),%a0
 1689 0bba 2010      	move.l (%a0),%d0
1175:/home/simulink/cFS_FreeRTOS_seL4/cfe/fsw/cfe-core/src/time/cfe_time_task.c ****                          "Invalid Time -- secs = %u, usecs = %u",
 1690               	.loc 1 1175 0
 1691 0bbc 2F01      	move.l %d1,-(%sp)
 1692               	.cfi_def_cfa_offset 20
 1693 0bbe 2F00      	move.l %d0,-(%sp)
 1694               	.cfi_def_cfa_offset 24
 1695 0bc0 4879 0000 	pea .LC41
 1695      0000 
 1696               	.cfi_def_cfa_offset 28
 1697 0bc6 4878 0003 	pea 3.w
 1698               	.cfi_def_cfa_offset 32
 1699 0bca 4878 0022 	pea 34.w
 1700               	.cfi_def_cfa_offset 36
 1701 0bce 4EB9 0000 	jsr CFE_EVS_SendEvent
 1701      0000 
 1702 0bd4 4FEF 0014 	lea (20,%sp),%sp
 1703               	.cfi_def_cfa_offset 16
 1704               	.loc 1 1180 0
 1705 0bd8 4E71      	nop
 1706               	.L92:
1181:/home/simulink/cFS_FreeRTOS_seL4/cfe/fsw/cfe-core/src/time/cfe_time_task.c **** 
1182:/home/simulink/cFS_FreeRTOS_seL4/cfe/fsw/cfe-core/src/time/cfe_time_task.c **** } /* End of CFE_TIME_SetTimeCmd() */
 1707               	.loc 1 1182 0
 1708 0bda 4FEF 000C 	lea (12,%sp),%sp
 1709 0bde 4E75      	rts
 1710               	.cfi_endproc
 1711               	.LFE74:
 1712               	.sizeCFE_TIME_SetTimeCmd, .-CFE_TIME_SetTimeCmd
 1713               	.section.rodata
 1714               	.LC42:
 1715 05e7 5365 7420 	.string"Set MET -- secs = %u, usecs = %u, ssecs = 0x%X"
 1715      4D45 5420 
 1715      2D2D 2073 
 1715      6563 7320 
 1715      3D20 2575 
 1716               	.LC43:
 1717 0616 496E 7661 	.string"Invalid MET -- secs = %u, usecs = %u"
 1717      6C69 6420 
 1717      4D45 5420 
 1717      2D2D 2073 
 1717      6563 7320 
 1718               	.text
 1719               	.align2
68K GAS   			page 59


 1720               	.globlCFE_TIME_SetMETCmd
 1721               	.typeCFE_TIME_SetMETCmd, @function
 1722               	CFE_TIME_SetMETCmd:
 1723               	.LFB75:
1183:/home/simulink/cFS_FreeRTOS_seL4/cfe/fsw/cfe-core/src/time/cfe_time_task.c **** 
1184:/home/simulink/cFS_FreeRTOS_seL4/cfe/fsw/cfe-core/src/time/cfe_time_task.c **** 
1185:/home/simulink/cFS_FreeRTOS_seL4/cfe/fsw/cfe-core/src/time/cfe_time_task.c **** /* * * * * * * * * * * * * * * * * * * * * * * * * * * * * * * * * */
1186:/home/simulink/cFS_FreeRTOS_seL4/cfe/fsw/cfe-core/src/time/cfe_time_task.c **** /*                                                                 */
1187:/home/simulink/cFS_FreeRTOS_seL4/cfe/fsw/cfe-core/src/time/cfe_time_task.c **** /* CFE_TIME_SetMETCmd() -- Time task ground command (set MET)      */
1188:/home/simulink/cFS_FreeRTOS_seL4/cfe/fsw/cfe-core/src/time/cfe_time_task.c **** /*                                                                 */
1189:/home/simulink/cFS_FreeRTOS_seL4/cfe/fsw/cfe-core/src/time/cfe_time_task.c **** /* Note: This command will not have lasting effect if configured   */
1190:/home/simulink/cFS_FreeRTOS_seL4/cfe/fsw/cfe-core/src/time/cfe_time_task.c **** /*       to get external time of type MET.  Also, there cannot     */
1191:/home/simulink/cFS_FreeRTOS_seL4/cfe/fsw/cfe-core/src/time/cfe_time_task.c **** /*       be a local h/w MET and an external MET since both would   */
1192:/home/simulink/cFS_FreeRTOS_seL4/cfe/fsw/cfe-core/src/time/cfe_time_task.c **** /*       need to be synchronized to the same tone signal.          */
1193:/home/simulink/cFS_FreeRTOS_seL4/cfe/fsw/cfe-core/src/time/cfe_time_task.c **** /*                                                                 */
1194:/home/simulink/cFS_FreeRTOS_seL4/cfe/fsw/cfe-core/src/time/cfe_time_task.c **** /* * * * * * * * * * * * * * * * * * * * * * * * * * * * * * * * * */
1195:/home/simulink/cFS_FreeRTOS_seL4/cfe/fsw/cfe-core/src/time/cfe_time_task.c **** 
1196:/home/simulink/cFS_FreeRTOS_seL4/cfe/fsw/cfe-core/src/time/cfe_time_task.c **** void CFE_TIME_SetMETCmd(CFE_SB_MsgPayloadPtr_t Payload)
1197:/home/simulink/cFS_FreeRTOS_seL4/cfe/fsw/cfe-core/src/time/cfe_time_task.c **** {
 1724               	.loc 1 1197 0
 1725               	.cfi_startproc
 1726 0be0 4FEF FFF4 	lea (-12,%sp),%sp
 1727               	.cfi_def_cfa_offset 16
1198:/home/simulink/cFS_FreeRTOS_seL4/cfe/fsw/cfe-core/src/time/cfe_time_task.c ****     CFE_TIME_TimeCmd_Payload_t *CommandPtr = (CFE_TIME_TimeCmd_Payload_t *) Payload;
 1728               	.loc 1 1198 0
 1729 0be4 2F6F 0010 	move.l 16(%sp),8(%sp)
 1729      0008 
1199:/home/simulink/cFS_FreeRTOS_seL4/cfe/fsw/cfe-core/src/time/cfe_time_task.c **** 
1200:/home/simulink/cFS_FreeRTOS_seL4/cfe/fsw/cfe-core/src/time/cfe_time_task.c ****     /*
1201:/home/simulink/cFS_FreeRTOS_seL4/cfe/fsw/cfe-core/src/time/cfe_time_task.c ****     ** Verify "micro-seconds" command argument...
1202:/home/simulink/cFS_FreeRTOS_seL4/cfe/fsw/cfe-core/src/time/cfe_time_task.c ****     */
1203:/home/simulink/cFS_FreeRTOS_seL4/cfe/fsw/cfe-core/src/time/cfe_time_task.c ****     if (CommandPtr->MicroSeconds < 1000000)
 1730               	.loc 1 1203 0
 1731 0bea 206F 0008 	move.l 8(%sp),%a0
 1732 0bee 2028 0004 	move.l 4(%a0),%d0
 1733 0bf2 0C80 000F 	cmp.l #999999,%d0
 1733      423F 
 1734 0bf8 6200 0082 	jhi .L97
 1735               	.LBB3:
1204:/home/simulink/cFS_FreeRTOS_seL4/cfe/fsw/cfe-core/src/time/cfe_time_task.c ****     {
1205:/home/simulink/cFS_FreeRTOS_seL4/cfe/fsw/cfe-core/src/time/cfe_time_task.c ****         #if (CFE_TIME_CFG_SERVER == TRUE)
1206:/home/simulink/cFS_FreeRTOS_seL4/cfe/fsw/cfe-core/src/time/cfe_time_task.c **** 
1207:/home/simulink/cFS_FreeRTOS_seL4/cfe/fsw/cfe-core/src/time/cfe_time_task.c ****         CFE_TIME_SysTime_t NewMET;
1208:/home/simulink/cFS_FreeRTOS_seL4/cfe/fsw/cfe-core/src/time/cfe_time_task.c **** 
1209:/home/simulink/cFS_FreeRTOS_seL4/cfe/fsw/cfe-core/src/time/cfe_time_task.c ****         NewMET.Seconds = CommandPtr->Seconds;
 1736               	.loc 1 1209 0
 1737 0bfc 206F 0008 	move.l 8(%sp),%a0
 1738 0c00 2010      	move.l (%a0),%d0
 1739 0c02 2E80      	move.l %d0,(%sp)
1210:/home/simulink/cFS_FreeRTOS_seL4/cfe/fsw/cfe-core/src/time/cfe_time_task.c ****         NewMET.Subseconds = CFE_TIME_Micro2SubSecs(CommandPtr->MicroSeconds);
 1740               	.loc 1 1210 0
 1741 0c04 206F 0008 	move.l 8(%sp),%a0
 1742 0c08 2028 0004 	move.l 4(%a0),%d0
 1743 0c0c 2F00      	move.l %d0,-(%sp)
 1744               	.cfi_def_cfa_offset 20
 1745 0c0e 4EB9 0000 	jsr CFE_TIME_Micro2SubSecs
 1745      0000 
68K GAS   			page 60


 1746 0c14 588F      	addq.l #4,%sp
 1747               	.cfi_def_cfa_offset 16
 1748 0c16 2F40 0004 	move.l %d0,4(%sp)
1211:/home/simulink/cFS_FreeRTOS_seL4/cfe/fsw/cfe-core/src/time/cfe_time_task.c **** 
1212:/home/simulink/cFS_FreeRTOS_seL4/cfe/fsw/cfe-core/src/time/cfe_time_task.c ****         CFE_TIME_SetMET(NewMET);
 1749               	.loc 1 1212 0
 1750 0c1a 2F2F 0004 	move.l 4(%sp),-(%sp)
 1751 0c1e 2F2F 0004 	move.l 4(%sp),-(%sp)
 1752               	.cfi_def_cfa_offset 24
 1753 0c22 4EB9 0000 	jsr CFE_TIME_SetMET
 1753      0000 
 1754 0c28 508F      	addq.l #8,%sp
 1755               	.cfi_def_cfa_offset 16
1213:/home/simulink/cFS_FreeRTOS_seL4/cfe/fsw/cfe-core/src/time/cfe_time_task.c **** 
1214:/home/simulink/cFS_FreeRTOS_seL4/cfe/fsw/cfe-core/src/time/cfe_time_task.c ****         CFE_TIME_TaskData.CmdCounter++;
 1756               	.loc 1 1214 0
 1757 0c2a 1039 0000 	move.b CFE_TIME_TaskData,%d0
 1757      0000 
 1758 0c30 5280      	addq.l #1,%d0
 1759 0c32 1000      	move.b %d0,%d0
 1760 0c34 13C0 0000 	move.b %d0,CFE_TIME_TaskData
 1760      0000 
1215:/home/simulink/cFS_FreeRTOS_seL4/cfe/fsw/cfe-core/src/time/cfe_time_task.c ****         CFE_EVS_SendEvent(CFE_TIME_MET_EID, CFE_EVS_INFORMATION,
1216:/home/simulink/cFS_FreeRTOS_seL4/cfe/fsw/cfe-core/src/time/cfe_time_task.c ****                          "Set MET -- secs = %u, usecs = %u, ssecs = 0x%X",
1217:/home/simulink/cFS_FreeRTOS_seL4/cfe/fsw/cfe-core/src/time/cfe_time_task.c ****                           (unsigned int)CommandPtr->Seconds, (unsigned int)CommandPtr->MicroSeconds
1218:/home/simulink/cFS_FreeRTOS_seL4/cfe/fsw/cfe-core/src/time/cfe_time_task.c ****                           (unsigned int)CFE_TIME_Micro2SubSecs(CommandPtr->MicroSeconds));
 1761               	.loc 1 1218 0
 1762 0c3a 206F 0008 	move.l 8(%sp),%a0
 1763 0c3e 2028 0004 	move.l 4(%a0),%d0
 1764 0c42 2F00      	move.l %d0,-(%sp)
 1765               	.cfi_def_cfa_offset 20
 1766 0c44 4EB9 0000 	jsr CFE_TIME_Micro2SubSecs
 1766      0000 
 1767 0c4a 588F      	addq.l #4,%sp
 1768               	.cfi_def_cfa_offset 16
 1769 0c4c 2240      	move.l %d0,%a1
1217:/home/simulink/cFS_FreeRTOS_seL4/cfe/fsw/cfe-core/src/time/cfe_time_task.c ****                           (unsigned int)CFE_TIME_Micro2SubSecs(CommandPtr->MicroSeconds));
 1770               	.loc 1 1217 0
 1771 0c4e 206F 0008 	move.l 8(%sp),%a0
 1772 0c52 2228 0004 	move.l 4(%a0),%d1
 1773 0c56 206F 0008 	move.l 8(%sp),%a0
 1774 0c5a 2010      	move.l (%a0),%d0
1215:/home/simulink/cFS_FreeRTOS_seL4/cfe/fsw/cfe-core/src/time/cfe_time_task.c ****         CFE_EVS_SendEvent(CFE_TIME_MET_EID, CFE_EVS_INFORMATION,
 1775               	.loc 1 1215 0
 1776 0c5c 2F09      	move.l %a1,-(%sp)
 1777               	.cfi_def_cfa_offset 20
 1778 0c5e 2F01      	move.l %d1,-(%sp)
 1779               	.cfi_def_cfa_offset 24
 1780 0c60 2F00      	move.l %d0,-(%sp)
 1781               	.cfi_def_cfa_offset 28
 1782 0c62 4879 0000 	pea .LC42
 1782      0000 
 1783               	.cfi_def_cfa_offset 32
 1784 0c68 4878 0002 	pea 2.w
 1785               	.cfi_def_cfa_offset 36
 1786 0c6c 4878 000D 	pea 13.w
 1787               	.cfi_def_cfa_offset 40
68K GAS   			page 61


 1788 0c70 4EB9 0000 	jsr CFE_EVS_SendEvent
 1788      0000 
 1789 0c76 4FEF 0018 	lea (24,%sp),%sp
 1790               	.cfi_def_cfa_offset 16
 1791               	.LBE3:
1219:/home/simulink/cFS_FreeRTOS_seL4/cfe/fsw/cfe-core/src/time/cfe_time_task.c **** 
1220:/home/simulink/cFS_FreeRTOS_seL4/cfe/fsw/cfe-core/src/time/cfe_time_task.c ****         #else /* not CFE_TIME_CFG_SERVER */
1221:/home/simulink/cFS_FreeRTOS_seL4/cfe/fsw/cfe-core/src/time/cfe_time_task.c ****         /*
1222:/home/simulink/cFS_FreeRTOS_seL4/cfe/fsw/cfe-core/src/time/cfe_time_task.c ****         ** We want to know if disabled commands are being sent...
1223:/home/simulink/cFS_FreeRTOS_seL4/cfe/fsw/cfe-core/src/time/cfe_time_task.c ****         */
1224:/home/simulink/cFS_FreeRTOS_seL4/cfe/fsw/cfe-core/src/time/cfe_time_task.c ****         CFE_TIME_TaskData.ErrCounter++;
1225:/home/simulink/cFS_FreeRTOS_seL4/cfe/fsw/cfe-core/src/time/cfe_time_task.c **** 
1226:/home/simulink/cFS_FreeRTOS_seL4/cfe/fsw/cfe-core/src/time/cfe_time_task.c ****         CFE_EVS_SendEvent(CFE_TIME_MET_CFG_EID, CFE_EVS_ERROR,
1227:/home/simulink/cFS_FreeRTOS_seL4/cfe/fsw/cfe-core/src/time/cfe_time_task.c ****            "Set MET commands invalid without CFE_TIME_CFG_SERVER set to TRUE");
1228:/home/simulink/cFS_FreeRTOS_seL4/cfe/fsw/cfe-core/src/time/cfe_time_task.c **** 
1229:/home/simulink/cFS_FreeRTOS_seL4/cfe/fsw/cfe-core/src/time/cfe_time_task.c ****         #endif /* CFE_TIME_CFG_SERVER */
1230:/home/simulink/cFS_FreeRTOS_seL4/cfe/fsw/cfe-core/src/time/cfe_time_task.c ****     }
1231:/home/simulink/cFS_FreeRTOS_seL4/cfe/fsw/cfe-core/src/time/cfe_time_task.c ****     else
1232:/home/simulink/cFS_FreeRTOS_seL4/cfe/fsw/cfe-core/src/time/cfe_time_task.c ****     {
1233:/home/simulink/cFS_FreeRTOS_seL4/cfe/fsw/cfe-core/src/time/cfe_time_task.c ****         CFE_TIME_TaskData.ErrCounter++;
1234:/home/simulink/cFS_FreeRTOS_seL4/cfe/fsw/cfe-core/src/time/cfe_time_task.c ****         CFE_EVS_SendEvent(CFE_TIME_MET_ERR_EID, CFE_EVS_ERROR,
1235:/home/simulink/cFS_FreeRTOS_seL4/cfe/fsw/cfe-core/src/time/cfe_time_task.c ****                          "Invalid MET -- secs = %u, usecs = %u",
1236:/home/simulink/cFS_FreeRTOS_seL4/cfe/fsw/cfe-core/src/time/cfe_time_task.c ****                          (unsigned int)CommandPtr->Seconds, (unsigned int)CommandPtr->MicroSeconds)
1237:/home/simulink/cFS_FreeRTOS_seL4/cfe/fsw/cfe-core/src/time/cfe_time_task.c ****     }
1238:/home/simulink/cFS_FreeRTOS_seL4/cfe/fsw/cfe-core/src/time/cfe_time_task.c **** 
1239:/home/simulink/cFS_FreeRTOS_seL4/cfe/fsw/cfe-core/src/time/cfe_time_task.c ****     return;
 1792               	.loc 1 1239 0
 1793 0c7a 603C      	jra .L96
 1794               	.L97:
1233:/home/simulink/cFS_FreeRTOS_seL4/cfe/fsw/cfe-core/src/time/cfe_time_task.c ****         CFE_EVS_SendEvent(CFE_TIME_MET_ERR_EID, CFE_EVS_ERROR,
 1795               	.loc 1 1233 0
 1796 0c7c 1039 0000 	move.b CFE_TIME_TaskData+1,%d0
 1796      0000 
 1797 0c82 5280      	addq.l #1,%d0
 1798 0c84 1000      	move.b %d0,%d0
 1799 0c86 13C0 0000 	move.b %d0,CFE_TIME_TaskData+1
 1799      0000 
1236:/home/simulink/cFS_FreeRTOS_seL4/cfe/fsw/cfe-core/src/time/cfe_time_task.c ****     }
 1800               	.loc 1 1236 0
 1801 0c8c 206F 0008 	move.l 8(%sp),%a0
 1802 0c90 2228 0004 	move.l 4(%a0),%d1
 1803 0c94 206F 0008 	move.l 8(%sp),%a0
 1804 0c98 2010      	move.l (%a0),%d0
1234:/home/simulink/cFS_FreeRTOS_seL4/cfe/fsw/cfe-core/src/time/cfe_time_task.c ****                          "Invalid MET -- secs = %u, usecs = %u",
 1805               	.loc 1 1234 0
 1806 0c9a 2F01      	move.l %d1,-(%sp)
 1807               	.cfi_def_cfa_offset 20
 1808 0c9c 2F00      	move.l %d0,-(%sp)
 1809               	.cfi_def_cfa_offset 24
 1810 0c9e 4879 0000 	pea .LC43
 1810      0000 
 1811               	.cfi_def_cfa_offset 28
 1812 0ca4 4878 0003 	pea 3.w
 1813               	.cfi_def_cfa_offset 32
 1814 0ca8 4878 0023 	pea 35.w
 1815               	.cfi_def_cfa_offset 36
 1816 0cac 4EB9 0000 	jsr CFE_EVS_SendEvent
68K GAS   			page 62


 1816      0000 
 1817 0cb2 4FEF 0014 	lea (20,%sp),%sp
 1818               	.cfi_def_cfa_offset 16
 1819               	.loc 1 1239 0
 1820 0cb6 4E71      	nop
 1821               	.L96:
1240:/home/simulink/cFS_FreeRTOS_seL4/cfe/fsw/cfe-core/src/time/cfe_time_task.c **** 
1241:/home/simulink/cFS_FreeRTOS_seL4/cfe/fsw/cfe-core/src/time/cfe_time_task.c **** } /* End of CFE_TIME_SetMETCmd() */
 1822               	.loc 1 1241 0
 1823 0cb8 4FEF 000C 	lea (12,%sp),%sp
 1824 0cbc 4E75      	rts
 1825               	.cfi_endproc
 1826               	.LFE75:
 1827               	.sizeCFE_TIME_SetMETCmd, .-CFE_TIME_SetMETCmd
 1828               	.section.rodata
 1829               	.LC44:
 1830 063b 5365 7420 	.string"Set STCF -- secs = %u, usecs = %u, ssecs = 0x%X"
 1830      5354 4346 
 1830      202D 2D20 
 1830      7365 6373 
 1830      203D 2025 
 1831               	.LC45:
 1832 066b 496E 7661 	.string"Invalid STCF -- secs = %u, usecs = %u"
 1832      6C69 6420 
 1832      5354 4346 
 1832      202D 2D20 
 1832      7365 6373 
 1833               	.text
 1834               	.align2
 1835               	.globlCFE_TIME_SetSTCFCmd
 1836               	.typeCFE_TIME_SetSTCFCmd, @function
 1837               	CFE_TIME_SetSTCFCmd:
 1838               	.LFB76:
1242:/home/simulink/cFS_FreeRTOS_seL4/cfe/fsw/cfe-core/src/time/cfe_time_task.c **** 
1243:/home/simulink/cFS_FreeRTOS_seL4/cfe/fsw/cfe-core/src/time/cfe_time_task.c **** 
1244:/home/simulink/cFS_FreeRTOS_seL4/cfe/fsw/cfe-core/src/time/cfe_time_task.c **** /* * * * * * * * * * * * * * * * * * * * * * * * * * * * * * * * * */
1245:/home/simulink/cFS_FreeRTOS_seL4/cfe/fsw/cfe-core/src/time/cfe_time_task.c **** /*                                                                 */
1246:/home/simulink/cFS_FreeRTOS_seL4/cfe/fsw/cfe-core/src/time/cfe_time_task.c **** /* CFE_TIME_SetSTCFCmd() -- Time task ground command (set STCF)    */
1247:/home/simulink/cFS_FreeRTOS_seL4/cfe/fsw/cfe-core/src/time/cfe_time_task.c **** /*                                                                 */
1248:/home/simulink/cFS_FreeRTOS_seL4/cfe/fsw/cfe-core/src/time/cfe_time_task.c **** /* * * * * * * * * * * * * * * * * * * * * * * * * * * * * * * * * */
1249:/home/simulink/cFS_FreeRTOS_seL4/cfe/fsw/cfe-core/src/time/cfe_time_task.c **** 
1250:/home/simulink/cFS_FreeRTOS_seL4/cfe/fsw/cfe-core/src/time/cfe_time_task.c **** void CFE_TIME_SetSTCFCmd(CFE_SB_MsgPayloadPtr_t Payload)
1251:/home/simulink/cFS_FreeRTOS_seL4/cfe/fsw/cfe-core/src/time/cfe_time_task.c **** {
 1839               	.loc 1 1251 0
 1840               	.cfi_startproc
 1841 0cbe 4FEF FFF4 	lea (-12,%sp),%sp
 1842               	.cfi_def_cfa_offset 16
1252:/home/simulink/cFS_FreeRTOS_seL4/cfe/fsw/cfe-core/src/time/cfe_time_task.c ****     CFE_TIME_TimeCmd_Payload_t *CommandPtr = (CFE_TIME_TimeCmd_Payload_t *) Payload;
 1843               	.loc 1 1252 0
 1844 0cc2 2F6F 0010 	move.l 16(%sp),8(%sp)
 1844      0008 
1253:/home/simulink/cFS_FreeRTOS_seL4/cfe/fsw/cfe-core/src/time/cfe_time_task.c **** 
1254:/home/simulink/cFS_FreeRTOS_seL4/cfe/fsw/cfe-core/src/time/cfe_time_task.c ****     /*
1255:/home/simulink/cFS_FreeRTOS_seL4/cfe/fsw/cfe-core/src/time/cfe_time_task.c ****     ** Verify "micro-seconds" command argument...
1256:/home/simulink/cFS_FreeRTOS_seL4/cfe/fsw/cfe-core/src/time/cfe_time_task.c ****     */
1257:/home/simulink/cFS_FreeRTOS_seL4/cfe/fsw/cfe-core/src/time/cfe_time_task.c ****     if (CommandPtr->MicroSeconds < 1000000)
 1845               	.loc 1 1257 0
68K GAS   			page 63


 1846 0cc8 206F 0008 	move.l 8(%sp),%a0
 1847 0ccc 2028 0004 	move.l 4(%a0),%d0
 1848 0cd0 0C80 000F 	cmp.l #999999,%d0
 1848      423F 
 1849 0cd6 6200 0082 	jhi .L101
 1850               	.LBB4:
1258:/home/simulink/cFS_FreeRTOS_seL4/cfe/fsw/cfe-core/src/time/cfe_time_task.c ****     {
1259:/home/simulink/cFS_FreeRTOS_seL4/cfe/fsw/cfe-core/src/time/cfe_time_task.c ****         #if (CFE_TIME_CFG_SERVER == TRUE)
1260:/home/simulink/cFS_FreeRTOS_seL4/cfe/fsw/cfe-core/src/time/cfe_time_task.c **** 
1261:/home/simulink/cFS_FreeRTOS_seL4/cfe/fsw/cfe-core/src/time/cfe_time_task.c ****         CFE_TIME_SysTime_t NewSTCF;
1262:/home/simulink/cFS_FreeRTOS_seL4/cfe/fsw/cfe-core/src/time/cfe_time_task.c **** 
1263:/home/simulink/cFS_FreeRTOS_seL4/cfe/fsw/cfe-core/src/time/cfe_time_task.c ****         NewSTCF.Seconds = CommandPtr->Seconds;
 1851               	.loc 1 1263 0
 1852 0cda 206F 0008 	move.l 8(%sp),%a0
 1853 0cde 2010      	move.l (%a0),%d0
 1854 0ce0 2E80      	move.l %d0,(%sp)
1264:/home/simulink/cFS_FreeRTOS_seL4/cfe/fsw/cfe-core/src/time/cfe_time_task.c ****         NewSTCF.Subseconds = CFE_TIME_Micro2SubSecs(CommandPtr->MicroSeconds);
 1855               	.loc 1 1264 0
 1856 0ce2 206F 0008 	move.l 8(%sp),%a0
 1857 0ce6 2028 0004 	move.l 4(%a0),%d0
 1858 0cea 2F00      	move.l %d0,-(%sp)
 1859               	.cfi_def_cfa_offset 20
 1860 0cec 4EB9 0000 	jsr CFE_TIME_Micro2SubSecs
 1860      0000 
 1861 0cf2 588F      	addq.l #4,%sp
 1862               	.cfi_def_cfa_offset 16
 1863 0cf4 2F40 0004 	move.l %d0,4(%sp)
1265:/home/simulink/cFS_FreeRTOS_seL4/cfe/fsw/cfe-core/src/time/cfe_time_task.c **** 
1266:/home/simulink/cFS_FreeRTOS_seL4/cfe/fsw/cfe-core/src/time/cfe_time_task.c ****         CFE_TIME_SetSTCF(NewSTCF);
 1864               	.loc 1 1266 0
 1865 0cf8 2F2F 0004 	move.l 4(%sp),-(%sp)
 1866 0cfc 2F2F 0004 	move.l 4(%sp),-(%sp)
 1867               	.cfi_def_cfa_offset 24
 1868 0d00 4EB9 0000 	jsr CFE_TIME_SetSTCF
 1868      0000 
 1869 0d06 508F      	addq.l #8,%sp
 1870               	.cfi_def_cfa_offset 16
1267:/home/simulink/cFS_FreeRTOS_seL4/cfe/fsw/cfe-core/src/time/cfe_time_task.c **** 
1268:/home/simulink/cFS_FreeRTOS_seL4/cfe/fsw/cfe-core/src/time/cfe_time_task.c ****         CFE_TIME_TaskData.CmdCounter++;
 1871               	.loc 1 1268 0
 1872 0d08 1039 0000 	move.b CFE_TIME_TaskData,%d0
 1872      0000 
 1873 0d0e 5280      	addq.l #1,%d0
 1874 0d10 1000      	move.b %d0,%d0
 1875 0d12 13C0 0000 	move.b %d0,CFE_TIME_TaskData
 1875      0000 
1269:/home/simulink/cFS_FreeRTOS_seL4/cfe/fsw/cfe-core/src/time/cfe_time_task.c ****         CFE_EVS_SendEvent(CFE_TIME_STCF_EID, CFE_EVS_INFORMATION,
1270:/home/simulink/cFS_FreeRTOS_seL4/cfe/fsw/cfe-core/src/time/cfe_time_task.c ****                          "Set STCF -- secs = %u, usecs = %u, ssecs = 0x%X",
1271:/home/simulink/cFS_FreeRTOS_seL4/cfe/fsw/cfe-core/src/time/cfe_time_task.c ****                          (unsigned int)CommandPtr->Seconds, (unsigned int)CommandPtr->MicroSeconds,
1272:/home/simulink/cFS_FreeRTOS_seL4/cfe/fsw/cfe-core/src/time/cfe_time_task.c ****                          (unsigned int)CFE_TIME_Micro2SubSecs(CommandPtr->MicroSeconds));
 1876               	.loc 1 1272 0
 1877 0d18 206F 0008 	move.l 8(%sp),%a0
 1878 0d1c 2028 0004 	move.l 4(%a0),%d0
 1879 0d20 2F00      	move.l %d0,-(%sp)
 1880               	.cfi_def_cfa_offset 20
 1881 0d22 4EB9 0000 	jsr CFE_TIME_Micro2SubSecs
 1881      0000 
68K GAS   			page 64


 1882 0d28 588F      	addq.l #4,%sp
 1883               	.cfi_def_cfa_offset 16
 1884 0d2a 2240      	move.l %d0,%a1
1271:/home/simulink/cFS_FreeRTOS_seL4/cfe/fsw/cfe-core/src/time/cfe_time_task.c ****                          (unsigned int)CFE_TIME_Micro2SubSecs(CommandPtr->MicroSeconds));
 1885               	.loc 1 1271 0
 1886 0d2c 206F 0008 	move.l 8(%sp),%a0
 1887 0d30 2228 0004 	move.l 4(%a0),%d1
 1888 0d34 206F 0008 	move.l 8(%sp),%a0
 1889 0d38 2010      	move.l (%a0),%d0
1269:/home/simulink/cFS_FreeRTOS_seL4/cfe/fsw/cfe-core/src/time/cfe_time_task.c ****         CFE_EVS_SendEvent(CFE_TIME_STCF_EID, CFE_EVS_INFORMATION,
 1890               	.loc 1 1269 0
 1891 0d3a 2F09      	move.l %a1,-(%sp)
 1892               	.cfi_def_cfa_offset 20
 1893 0d3c 2F01      	move.l %d1,-(%sp)
 1894               	.cfi_def_cfa_offset 24
 1895 0d3e 2F00      	move.l %d0,-(%sp)
 1896               	.cfi_def_cfa_offset 28
 1897 0d40 4879 0000 	pea .LC44
 1897      0000 
 1898               	.cfi_def_cfa_offset 32
 1899 0d46 4878 0002 	pea 2.w
 1900               	.cfi_def_cfa_offset 36
 1901 0d4a 4878 000E 	pea 14.w
 1902               	.cfi_def_cfa_offset 40
 1903 0d4e 4EB9 0000 	jsr CFE_EVS_SendEvent
 1903      0000 
 1904 0d54 4FEF 0018 	lea (24,%sp),%sp
 1905               	.cfi_def_cfa_offset 16
 1906               	.LBE4:
1273:/home/simulink/cFS_FreeRTOS_seL4/cfe/fsw/cfe-core/src/time/cfe_time_task.c **** 
1274:/home/simulink/cFS_FreeRTOS_seL4/cfe/fsw/cfe-core/src/time/cfe_time_task.c ****         #else /* not CFE_TIME_CFG_SERVER */
1275:/home/simulink/cFS_FreeRTOS_seL4/cfe/fsw/cfe-core/src/time/cfe_time_task.c ****         /*
1276:/home/simulink/cFS_FreeRTOS_seL4/cfe/fsw/cfe-core/src/time/cfe_time_task.c ****         ** We want to know if disabled commands are being sent...
1277:/home/simulink/cFS_FreeRTOS_seL4/cfe/fsw/cfe-core/src/time/cfe_time_task.c ****         */
1278:/home/simulink/cFS_FreeRTOS_seL4/cfe/fsw/cfe-core/src/time/cfe_time_task.c ****         CFE_TIME_TaskData.ErrCounter++;
1279:/home/simulink/cFS_FreeRTOS_seL4/cfe/fsw/cfe-core/src/time/cfe_time_task.c **** 
1280:/home/simulink/cFS_FreeRTOS_seL4/cfe/fsw/cfe-core/src/time/cfe_time_task.c ****         CFE_EVS_SendEvent(CFE_TIME_STCF_CFG_EID, CFE_EVS_ERROR,
1281:/home/simulink/cFS_FreeRTOS_seL4/cfe/fsw/cfe-core/src/time/cfe_time_task.c ****            "Set STCF commands invalid without CFE_TIME_CFG_SERVER set to TRUE");
1282:/home/simulink/cFS_FreeRTOS_seL4/cfe/fsw/cfe-core/src/time/cfe_time_task.c **** 
1283:/home/simulink/cFS_FreeRTOS_seL4/cfe/fsw/cfe-core/src/time/cfe_time_task.c ****         #endif /* CFE_TIME_CFG_SERVER */
1284:/home/simulink/cFS_FreeRTOS_seL4/cfe/fsw/cfe-core/src/time/cfe_time_task.c ****     }
1285:/home/simulink/cFS_FreeRTOS_seL4/cfe/fsw/cfe-core/src/time/cfe_time_task.c ****     else
1286:/home/simulink/cFS_FreeRTOS_seL4/cfe/fsw/cfe-core/src/time/cfe_time_task.c ****     {
1287:/home/simulink/cFS_FreeRTOS_seL4/cfe/fsw/cfe-core/src/time/cfe_time_task.c ****         CFE_TIME_TaskData.ErrCounter++;
1288:/home/simulink/cFS_FreeRTOS_seL4/cfe/fsw/cfe-core/src/time/cfe_time_task.c ****         CFE_EVS_SendEvent(CFE_TIME_STCF_ERR_EID, CFE_EVS_ERROR,
1289:/home/simulink/cFS_FreeRTOS_seL4/cfe/fsw/cfe-core/src/time/cfe_time_task.c ****                          "Invalid STCF -- secs = %u, usecs = %u",
1290:/home/simulink/cFS_FreeRTOS_seL4/cfe/fsw/cfe-core/src/time/cfe_time_task.c ****                          (unsigned int)CommandPtr->Seconds, (unsigned int)CommandPtr->MicroSeconds)
1291:/home/simulink/cFS_FreeRTOS_seL4/cfe/fsw/cfe-core/src/time/cfe_time_task.c ****     }
1292:/home/simulink/cFS_FreeRTOS_seL4/cfe/fsw/cfe-core/src/time/cfe_time_task.c **** 
1293:/home/simulink/cFS_FreeRTOS_seL4/cfe/fsw/cfe-core/src/time/cfe_time_task.c ****     return;
 1907               	.loc 1 1293 0
 1908 0d58 603C      	jra .L100
 1909               	.L101:
1287:/home/simulink/cFS_FreeRTOS_seL4/cfe/fsw/cfe-core/src/time/cfe_time_task.c ****         CFE_EVS_SendEvent(CFE_TIME_STCF_ERR_EID, CFE_EVS_ERROR,
 1910               	.loc 1 1287 0
 1911 0d5a 1039 0000 	move.b CFE_TIME_TaskData+1,%d0
 1911      0000 
68K GAS   			page 65


 1912 0d60 5280      	addq.l #1,%d0
 1913 0d62 1000      	move.b %d0,%d0
 1914 0d64 13C0 0000 	move.b %d0,CFE_TIME_TaskData+1
 1914      0000 
1290:/home/simulink/cFS_FreeRTOS_seL4/cfe/fsw/cfe-core/src/time/cfe_time_task.c ****     }
 1915               	.loc 1 1290 0
 1916 0d6a 206F 0008 	move.l 8(%sp),%a0
 1917 0d6e 2228 0004 	move.l 4(%a0),%d1
 1918 0d72 206F 0008 	move.l 8(%sp),%a0
 1919 0d76 2010      	move.l (%a0),%d0
1288:/home/simulink/cFS_FreeRTOS_seL4/cfe/fsw/cfe-core/src/time/cfe_time_task.c ****                          "Invalid STCF -- secs = %u, usecs = %u",
 1920               	.loc 1 1288 0
 1921 0d78 2F01      	move.l %d1,-(%sp)
 1922               	.cfi_def_cfa_offset 20
 1923 0d7a 2F00      	move.l %d0,-(%sp)
 1924               	.cfi_def_cfa_offset 24
 1925 0d7c 4879 0000 	pea .LC45
 1925      0000 
 1926               	.cfi_def_cfa_offset 28
 1927 0d82 4878 0003 	pea 3.w
 1928               	.cfi_def_cfa_offset 32
 1929 0d86 4878 0024 	pea 36.w
 1930               	.cfi_def_cfa_offset 36
 1931 0d8a 4EB9 0000 	jsr CFE_EVS_SendEvent
 1931      0000 
 1932 0d90 4FEF 0014 	lea (20,%sp),%sp
 1933               	.cfi_def_cfa_offset 16
 1934               	.loc 1 1293 0
 1935 0d94 4E71      	nop
 1936               	.L100:
1294:/home/simulink/cFS_FreeRTOS_seL4/cfe/fsw/cfe-core/src/time/cfe_time_task.c **** 
1295:/home/simulink/cFS_FreeRTOS_seL4/cfe/fsw/cfe-core/src/time/cfe_time_task.c **** } /* End of CFE_TIME_SetSTCFCmd() */
 1937               	.loc 1 1295 0
 1938 0d96 4FEF 000C 	lea (12,%sp),%sp
 1939 0d9a 4E75      	rts
 1940               	.cfi_endproc
 1941               	.LFE76:
 1942               	.sizeCFE_TIME_SetSTCFCmd, .-CFE_TIME_SetSTCFCmd
 1943               	.section.rodata
 1944               	.LC46:
 1945 0691 5365 7420 	.string"Set Leap Seconds = %d"
 1945      4C65 6170 
 1945      2053 6563 
 1945      6F6E 6473 
 1945      203D 2025 
 1946               	.text
 1947               	.align2
 1948               	.globlCFE_TIME_SetLeapsCmd
 1949               	.typeCFE_TIME_SetLeapsCmd, @function
 1950               	CFE_TIME_SetLeapsCmd:
 1951               	.LFB77:
1296:/home/simulink/cFS_FreeRTOS_seL4/cfe/fsw/cfe-core/src/time/cfe_time_task.c **** 
1297:/home/simulink/cFS_FreeRTOS_seL4/cfe/fsw/cfe-core/src/time/cfe_time_task.c **** 
1298:/home/simulink/cFS_FreeRTOS_seL4/cfe/fsw/cfe-core/src/time/cfe_time_task.c **** /* * * * * * * * * * * * * * * * * * * * * * * * * * * * * * * * * */
1299:/home/simulink/cFS_FreeRTOS_seL4/cfe/fsw/cfe-core/src/time/cfe_time_task.c **** /*                                                                 */
1300:/home/simulink/cFS_FreeRTOS_seL4/cfe/fsw/cfe-core/src/time/cfe_time_task.c **** /* CFE_TIME_SetLeapsCmd() -- Time task ground command (set leaps)  */
1301:/home/simulink/cFS_FreeRTOS_seL4/cfe/fsw/cfe-core/src/time/cfe_time_task.c **** /*                                                                 */
68K GAS   			page 66


1302:/home/simulink/cFS_FreeRTOS_seL4/cfe/fsw/cfe-core/src/time/cfe_time_task.c **** /* * * * * * * * * * * * * * * * * * * * * * * * * * * * * * * * * */
1303:/home/simulink/cFS_FreeRTOS_seL4/cfe/fsw/cfe-core/src/time/cfe_time_task.c **** 
1304:/home/simulink/cFS_FreeRTOS_seL4/cfe/fsw/cfe-core/src/time/cfe_time_task.c **** void CFE_TIME_SetLeapsCmd(CFE_SB_MsgPayloadPtr_t Payload)
1305:/home/simulink/cFS_FreeRTOS_seL4/cfe/fsw/cfe-core/src/time/cfe_time_task.c **** {
 1952               	.loc 1 1305 0
 1953               	.cfi_startproc
 1954 0d9c 598F      	subq.l #4,%sp
 1955               	.cfi_def_cfa_offset 8
1306:/home/simulink/cFS_FreeRTOS_seL4/cfe/fsw/cfe-core/src/time/cfe_time_task.c ****     #if (CFE_TIME_CFG_SERVER == TRUE)
1307:/home/simulink/cFS_FreeRTOS_seL4/cfe/fsw/cfe-core/src/time/cfe_time_task.c **** 
1308:/home/simulink/cFS_FreeRTOS_seL4/cfe/fsw/cfe-core/src/time/cfe_time_task.c ****     CFE_TIME_LeapsCmd_Payload_t *CommandPtr = (CFE_TIME_LeapsCmd_Payload_t *) Payload;
 1956               	.loc 1 1308 0
 1957 0d9e 2EAF 0008 	move.l 8(%sp),(%sp)
1309:/home/simulink/cFS_FreeRTOS_seL4/cfe/fsw/cfe-core/src/time/cfe_time_task.c **** 
1310:/home/simulink/cFS_FreeRTOS_seL4/cfe/fsw/cfe-core/src/time/cfe_time_task.c ****     /*
1311:/home/simulink/cFS_FreeRTOS_seL4/cfe/fsw/cfe-core/src/time/cfe_time_task.c ****     ** No value checking (leaps may be positive or negative)...
1312:/home/simulink/cFS_FreeRTOS_seL4/cfe/fsw/cfe-core/src/time/cfe_time_task.c ****     */
1313:/home/simulink/cFS_FreeRTOS_seL4/cfe/fsw/cfe-core/src/time/cfe_time_task.c ****     CFE_TIME_SetLeaps(CommandPtr->LeapSeconds);
 1958               	.loc 1 1313 0
 1959 0da2 2057      	move.l (%sp),%a0
 1960 0da4 3010      	move.w (%a0),%d0
 1961 0da6 3040      	move.w %d0,%a0
 1962 0da8 2F08      	move.l %a0,-(%sp)
 1963               	.cfi_def_cfa_offset 12
 1964 0daa 4EB9 0000 	jsr CFE_TIME_SetLeaps
 1964      0000 
 1965 0db0 588F      	addq.l #4,%sp
 1966               	.cfi_def_cfa_offset 8
1314:/home/simulink/cFS_FreeRTOS_seL4/cfe/fsw/cfe-core/src/time/cfe_time_task.c **** 
1315:/home/simulink/cFS_FreeRTOS_seL4/cfe/fsw/cfe-core/src/time/cfe_time_task.c ****     CFE_TIME_TaskData.CmdCounter++;
 1967               	.loc 1 1315 0
 1968 0db2 1039 0000 	move.b CFE_TIME_TaskData,%d0
 1968      0000 
 1969 0db8 5280      	addq.l #1,%d0
 1970 0dba 1000      	move.b %d0,%d0
 1971 0dbc 13C0 0000 	move.b %d0,CFE_TIME_TaskData
 1971      0000 
1316:/home/simulink/cFS_FreeRTOS_seL4/cfe/fsw/cfe-core/src/time/cfe_time_task.c **** 
1317:/home/simulink/cFS_FreeRTOS_seL4/cfe/fsw/cfe-core/src/time/cfe_time_task.c ****     CFE_EVS_SendEvent(CFE_TIME_LEAPS_EID, CFE_EVS_INFORMATION,
1318:/home/simulink/cFS_FreeRTOS_seL4/cfe/fsw/cfe-core/src/time/cfe_time_task.c ****                      "Set Leap Seconds = %d", (int)CommandPtr->LeapSeconds);
 1972               	.loc 1 1318 0
 1973 0dc2 2057      	move.l (%sp),%a0
 1974 0dc4 3010      	move.w (%a0),%d0
1317:/home/simulink/cFS_FreeRTOS_seL4/cfe/fsw/cfe-core/src/time/cfe_time_task.c ****                      "Set Leap Seconds = %d", (int)CommandPtr->LeapSeconds);
 1975               	.loc 1 1317 0
 1976 0dc6 3040      	move.w %d0,%a0
 1977 0dc8 2F08      	move.l %a0,-(%sp)
 1978               	.cfi_def_cfa_offset 12
 1979 0dca 4879 0000 	pea .LC46
 1979      0000 
 1980               	.cfi_def_cfa_offset 16
 1981 0dd0 4878 0002 	pea 2.w
 1982               	.cfi_def_cfa_offset 20
 1983 0dd4 4878 0011 	pea 17.w
 1984               	.cfi_def_cfa_offset 24
 1985 0dd8 4EB9 0000 	jsr CFE_EVS_SendEvent
 1985      0000 
68K GAS   			page 67


 1986 0dde 4FEF 0010 	lea (16,%sp),%sp
 1987               	.cfi_def_cfa_offset 8
1319:/home/simulink/cFS_FreeRTOS_seL4/cfe/fsw/cfe-core/src/time/cfe_time_task.c **** 
1320:/home/simulink/cFS_FreeRTOS_seL4/cfe/fsw/cfe-core/src/time/cfe_time_task.c ****     #else /* not CFE_TIME_CFG_SERVER */
1321:/home/simulink/cFS_FreeRTOS_seL4/cfe/fsw/cfe-core/src/time/cfe_time_task.c ****     /*
1322:/home/simulink/cFS_FreeRTOS_seL4/cfe/fsw/cfe-core/src/time/cfe_time_task.c ****     ** We want to know if disabled commands are being sent...
1323:/home/simulink/cFS_FreeRTOS_seL4/cfe/fsw/cfe-core/src/time/cfe_time_task.c ****     */
1324:/home/simulink/cFS_FreeRTOS_seL4/cfe/fsw/cfe-core/src/time/cfe_time_task.c ****     CFE_TIME_TaskData.ErrCounter++;
1325:/home/simulink/cFS_FreeRTOS_seL4/cfe/fsw/cfe-core/src/time/cfe_time_task.c **** 
1326:/home/simulink/cFS_FreeRTOS_seL4/cfe/fsw/cfe-core/src/time/cfe_time_task.c ****     CFE_EVS_SendEvent(CFE_TIME_LEAPS_CFG_EID, CFE_EVS_ERROR,
1327:/home/simulink/cFS_FreeRTOS_seL4/cfe/fsw/cfe-core/src/time/cfe_time_task.c ****        "Set Leaps commands invalid without CFE_TIME_CFG_SERVER set to TRUE");
1328:/home/simulink/cFS_FreeRTOS_seL4/cfe/fsw/cfe-core/src/time/cfe_time_task.c **** 
1329:/home/simulink/cFS_FreeRTOS_seL4/cfe/fsw/cfe-core/src/time/cfe_time_task.c ****     #endif /* CFE_TIME_CFG_SERVER */
1330:/home/simulink/cFS_FreeRTOS_seL4/cfe/fsw/cfe-core/src/time/cfe_time_task.c **** 
1331:/home/simulink/cFS_FreeRTOS_seL4/cfe/fsw/cfe-core/src/time/cfe_time_task.c ****     return;
 1988               	.loc 1 1331 0
 1989 0de2 4E71      	nop
1332:/home/simulink/cFS_FreeRTOS_seL4/cfe/fsw/cfe-core/src/time/cfe_time_task.c **** 
1333:/home/simulink/cFS_FreeRTOS_seL4/cfe/fsw/cfe-core/src/time/cfe_time_task.c **** } /* End of CFE_TIME_SetLeapsCmd() */
 1990               	.loc 1 1333 0
 1991 0de4 588F      	addq.l #4,%sp
 1992 0de6 4E75      	rts
 1993               	.cfi_endproc
 1994               	.LFE77:
 1995               	.sizeCFE_TIME_SetLeapsCmd, .-CFE_TIME_SetLeapsCmd
 1996               	.section.rodata
 1997               	.LC47:
 1998 06a7 5354 4346 	.string"STCF Adjust -- secs = %u, usecs = %u, ssecs = 0x%X, dir[1=Pos, 2=Neg] = %d"
 1998      2041 646A 
 1998      7573 7420 
 1998      2D2D 2073 
 1998      6563 7320 
 1999               	.LC48:
 2000 06f2 496E 7661 	.string"Invalid STCF Adjust -- secs = %u, usecs = %u, dir[1=Pos, 2=Neg] = %d"
 2000      6C69 6420 
 2000      5354 4346 
 2000      2041 646A 
 2000      7573 7420 
 2001               	.text
 2002               	.align2
 2003               	.globlCFE_TIME_AdjustCmd
 2004               	.typeCFE_TIME_AdjustCmd, @function
 2005               	CFE_TIME_AdjustCmd:
 2006               	.LFB78:
1334:/home/simulink/cFS_FreeRTOS_seL4/cfe/fsw/cfe-core/src/time/cfe_time_task.c **** 
1335:/home/simulink/cFS_FreeRTOS_seL4/cfe/fsw/cfe-core/src/time/cfe_time_task.c **** 
1336:/home/simulink/cFS_FreeRTOS_seL4/cfe/fsw/cfe-core/src/time/cfe_time_task.c **** /* * * * * * * * * * * * * * * * * * * * * * * * * * * * * * * * * */
1337:/home/simulink/cFS_FreeRTOS_seL4/cfe/fsw/cfe-core/src/time/cfe_time_task.c **** /*                                                                 */
1338:/home/simulink/cFS_FreeRTOS_seL4/cfe/fsw/cfe-core/src/time/cfe_time_task.c **** /* CFE_TIME_AdjustCmd() -- Time task ground command (adjust STCF)  */
1339:/home/simulink/cFS_FreeRTOS_seL4/cfe/fsw/cfe-core/src/time/cfe_time_task.c **** /*                                                                 */
1340:/home/simulink/cFS_FreeRTOS_seL4/cfe/fsw/cfe-core/src/time/cfe_time_task.c **** /* * * * * * * * * * * * * * * * * * * * * * * * * * * * * * * * * */
1341:/home/simulink/cFS_FreeRTOS_seL4/cfe/fsw/cfe-core/src/time/cfe_time_task.c **** 
1342:/home/simulink/cFS_FreeRTOS_seL4/cfe/fsw/cfe-core/src/time/cfe_time_task.c **** void CFE_TIME_AdjustCmd(CFE_SB_MsgPayloadPtr_t Payload, int16 Direction)
1343:/home/simulink/cFS_FreeRTOS_seL4/cfe/fsw/cfe-core/src/time/cfe_time_task.c **** {
 2007               	.loc 1 1343 0
 2008               	.cfi_startproc
 2009 0de8 4FEF FFF0 	lea (-16,%sp),%sp
68K GAS   			page 68


 2010               	.cfi_def_cfa_offset 20
 2011 0dec 2F0A      	move.l %a2,-(%sp)
 2012               	.cfi_def_cfa_offset 24
 2013               	.cfi_offset 10, -24
 2014 0dee 202F 001C 	move.l 28(%sp),%d0
 2015 0df2 3000      	move.w %d0,%d0
 2016 0df4 3F40 0004 	move.w %d0,4(%sp)
1344:/home/simulink/cFS_FreeRTOS_seL4/cfe/fsw/cfe-core/src/time/cfe_time_task.c ****     CFE_TIME_TimeCmd_Payload_t *CommandPtr = (CFE_TIME_TimeCmd_Payload_t *) Payload;
 2017               	.loc 1 1344 0
 2018 0df8 2F6F 0018 	move.l 24(%sp),16(%sp)
 2018      0010 
1345:/home/simulink/cFS_FreeRTOS_seL4/cfe/fsw/cfe-core/src/time/cfe_time_task.c **** 
1346:/home/simulink/cFS_FreeRTOS_seL4/cfe/fsw/cfe-core/src/time/cfe_time_task.c ****     /*
1347:/home/simulink/cFS_FreeRTOS_seL4/cfe/fsw/cfe-core/src/time/cfe_time_task.c ****     ** Verify command arguments...
1348:/home/simulink/cFS_FreeRTOS_seL4/cfe/fsw/cfe-core/src/time/cfe_time_task.c ****     */
1349:/home/simulink/cFS_FreeRTOS_seL4/cfe/fsw/cfe-core/src/time/cfe_time_task.c ****     if (CommandPtr->MicroSeconds < 1000000)
 2019               	.loc 1 1349 0
 2020 0dfe 206F 0010 	move.l 16(%sp),%a0
 2021 0e02 2028 0004 	move.l 4(%a0),%d0
 2022 0e06 0C80 000F 	cmp.l #999999,%d0
 2022      423F 
 2023 0e0c 6200 0092 	jhi .L107
 2024               	.LBB5:
1350:/home/simulink/cFS_FreeRTOS_seL4/cfe/fsw/cfe-core/src/time/cfe_time_task.c ****     {
1351:/home/simulink/cFS_FreeRTOS_seL4/cfe/fsw/cfe-core/src/time/cfe_time_task.c ****         #if (CFE_TIME_CFG_SERVER == TRUE)
1352:/home/simulink/cFS_FreeRTOS_seL4/cfe/fsw/cfe-core/src/time/cfe_time_task.c **** 
1353:/home/simulink/cFS_FreeRTOS_seL4/cfe/fsw/cfe-core/src/time/cfe_time_task.c ****         CFE_TIME_SysTime_t Adjust;
1354:/home/simulink/cFS_FreeRTOS_seL4/cfe/fsw/cfe-core/src/time/cfe_time_task.c **** 
1355:/home/simulink/cFS_FreeRTOS_seL4/cfe/fsw/cfe-core/src/time/cfe_time_task.c ****         Adjust.Seconds = CommandPtr->Seconds;
 2025               	.loc 1 1355 0
 2026 0e10 206F 0010 	move.l 16(%sp),%a0
 2027 0e14 2010      	move.l (%a0),%d0
 2028 0e16 2F40 0008 	move.l %d0,8(%sp)
1356:/home/simulink/cFS_FreeRTOS_seL4/cfe/fsw/cfe-core/src/time/cfe_time_task.c ****         Adjust.Subseconds = CFE_TIME_Micro2SubSecs(CommandPtr->MicroSeconds);
 2029               	.loc 1 1356 0
 2030 0e1a 206F 0010 	move.l 16(%sp),%a0
 2031 0e1e 2028 0004 	move.l 4(%a0),%d0
 2032 0e22 2F00      	move.l %d0,-(%sp)
 2033               	.cfi_def_cfa_offset 28
 2034 0e24 4EB9 0000 	jsr CFE_TIME_Micro2SubSecs
 2034      0000 
 2035 0e2a 588F      	addq.l #4,%sp
 2036               	.cfi_def_cfa_offset 24
 2037 0e2c 2F40 000C 	move.l %d0,12(%sp)
1357:/home/simulink/cFS_FreeRTOS_seL4/cfe/fsw/cfe-core/src/time/cfe_time_task.c **** 
1358:/home/simulink/cFS_FreeRTOS_seL4/cfe/fsw/cfe-core/src/time/cfe_time_task.c ****         CFE_TIME_SetAdjust(Adjust, Direction);
 2038               	.loc 1 1358 0
 2039 0e30 306F 0004 	move.w 4(%sp),%a0
 2040 0e34 2F08      	move.l %a0,-(%sp)
 2041               	.cfi_def_cfa_offset 28
 2042 0e36 2F2F 0010 	move.l 16(%sp),-(%sp)
 2043 0e3a 2F2F 0010 	move.l 16(%sp),-(%sp)
 2044               	.cfi_def_cfa_offset 36
 2045 0e3e 4EB9 0000 	jsr CFE_TIME_SetAdjust
 2045      0000 
 2046 0e44 4FEF 000C 	lea (12,%sp),%sp
 2047               	.cfi_def_cfa_offset 24
68K GAS   			page 69


1359:/home/simulink/cFS_FreeRTOS_seL4/cfe/fsw/cfe-core/src/time/cfe_time_task.c **** 
1360:/home/simulink/cFS_FreeRTOS_seL4/cfe/fsw/cfe-core/src/time/cfe_time_task.c ****         CFE_TIME_TaskData.CmdCounter++;
 2048               	.loc 1 1360 0
 2049 0e48 1039 0000 	move.b CFE_TIME_TaskData,%d0
 2049      0000 
 2050 0e4e 5280      	addq.l #1,%d0
 2051 0e50 1000      	move.b %d0,%d0
 2052 0e52 13C0 0000 	move.b %d0,CFE_TIME_TaskData
 2052      0000 
1361:/home/simulink/cFS_FreeRTOS_seL4/cfe/fsw/cfe-core/src/time/cfe_time_task.c ****         CFE_EVS_SendEvent(CFE_TIME_DELTA_EID, CFE_EVS_INFORMATION,
 2053               	.loc 1 1361 0
 2054 0e58 346F 0004 	move.w 4(%sp),%a2
1362:/home/simulink/cFS_FreeRTOS_seL4/cfe/fsw/cfe-core/src/time/cfe_time_task.c ****            "STCF Adjust -- secs = %u, usecs = %u, ssecs = 0x%X, dir[1=Pos, 2=Neg] = %d",
1363:/home/simulink/cFS_FreeRTOS_seL4/cfe/fsw/cfe-core/src/time/cfe_time_task.c ****            (unsigned int)CommandPtr->Seconds, (unsigned int)CommandPtr->MicroSeconds,
1364:/home/simulink/cFS_FreeRTOS_seL4/cfe/fsw/cfe-core/src/time/cfe_time_task.c ****            (unsigned int)CFE_TIME_Micro2SubSecs(CommandPtr->MicroSeconds),
 2055               	.loc 1 1364 0
 2056 0e5c 206F 0010 	move.l 16(%sp),%a0
 2057 0e60 2028 0004 	move.l 4(%a0),%d0
 2058 0e64 2F00      	move.l %d0,-(%sp)
 2059               	.cfi_def_cfa_offset 28
 2060 0e66 4EB9 0000 	jsr CFE_TIME_Micro2SubSecs
 2060      0000 
 2061 0e6c 588F      	addq.l #4,%sp
 2062               	.cfi_def_cfa_offset 24
 2063 0e6e 2240      	move.l %d0,%a1
1363:/home/simulink/cFS_FreeRTOS_seL4/cfe/fsw/cfe-core/src/time/cfe_time_task.c ****            (unsigned int)CFE_TIME_Micro2SubSecs(CommandPtr->MicroSeconds),
 2064               	.loc 1 1363 0
 2065 0e70 206F 0010 	move.l 16(%sp),%a0
 2066 0e74 2228 0004 	move.l 4(%a0),%d1
 2067 0e78 206F 0010 	move.l 16(%sp),%a0
 2068 0e7c 2010      	move.l (%a0),%d0
1361:/home/simulink/cFS_FreeRTOS_seL4/cfe/fsw/cfe-core/src/time/cfe_time_task.c ****         CFE_EVS_SendEvent(CFE_TIME_DELTA_EID, CFE_EVS_INFORMATION,
 2069               	.loc 1 1361 0
 2070 0e7e 2F0A      	move.l %a2,-(%sp)
 2071               	.cfi_def_cfa_offset 28
 2072 0e80 2F09      	move.l %a1,-(%sp)
 2073               	.cfi_def_cfa_offset 32
 2074 0e82 2F01      	move.l %d1,-(%sp)
 2075               	.cfi_def_cfa_offset 36
 2076 0e84 2F00      	move.l %d0,-(%sp)
 2077               	.cfi_def_cfa_offset 40
 2078 0e86 4879 0000 	pea .LC47
 2078      0000 
 2079               	.cfi_def_cfa_offset 44
 2080 0e8c 4878 0002 	pea 2.w
 2081               	.cfi_def_cfa_offset 48
 2082 0e90 4878 000F 	pea 15.w
 2083               	.cfi_def_cfa_offset 52
 2084 0e94 4EB9 0000 	jsr CFE_EVS_SendEvent
 2084      0000 
 2085 0e9a 4FEF 001C 	lea (28,%sp),%sp
 2086               	.cfi_def_cfa_offset 24
 2087               	.LBE5:
1365:/home/simulink/cFS_FreeRTOS_seL4/cfe/fsw/cfe-core/src/time/cfe_time_task.c ****                           (int)Direction);
1366:/home/simulink/cFS_FreeRTOS_seL4/cfe/fsw/cfe-core/src/time/cfe_time_task.c **** 
1367:/home/simulink/cFS_FreeRTOS_seL4/cfe/fsw/cfe-core/src/time/cfe_time_task.c ****         #else /* not CFE_TIME_CFG_SERVER */
1368:/home/simulink/cFS_FreeRTOS_seL4/cfe/fsw/cfe-core/src/time/cfe_time_task.c ****         /*
68K GAS   			page 70


1369:/home/simulink/cFS_FreeRTOS_seL4/cfe/fsw/cfe-core/src/time/cfe_time_task.c ****         ** We want to know if disabled commands are being sent...
1370:/home/simulink/cFS_FreeRTOS_seL4/cfe/fsw/cfe-core/src/time/cfe_time_task.c ****         */
1371:/home/simulink/cFS_FreeRTOS_seL4/cfe/fsw/cfe-core/src/time/cfe_time_task.c ****         CFE_TIME_TaskData.ErrCounter++;
1372:/home/simulink/cFS_FreeRTOS_seL4/cfe/fsw/cfe-core/src/time/cfe_time_task.c **** 
1373:/home/simulink/cFS_FreeRTOS_seL4/cfe/fsw/cfe-core/src/time/cfe_time_task.c ****         CFE_EVS_SendEvent(CFE_TIME_DELTA_CFG_EID, CFE_EVS_ERROR,
1374:/home/simulink/cFS_FreeRTOS_seL4/cfe/fsw/cfe-core/src/time/cfe_time_task.c ****            "STCF Adjust commands invalid without CFE_TIME_CFG_SERVER set to TRUE");
1375:/home/simulink/cFS_FreeRTOS_seL4/cfe/fsw/cfe-core/src/time/cfe_time_task.c **** 
1376:/home/simulink/cFS_FreeRTOS_seL4/cfe/fsw/cfe-core/src/time/cfe_time_task.c ****         #endif /* CFE_TIME_CFG_SERVER */
1377:/home/simulink/cFS_FreeRTOS_seL4/cfe/fsw/cfe-core/src/time/cfe_time_task.c ****     }
1378:/home/simulink/cFS_FreeRTOS_seL4/cfe/fsw/cfe-core/src/time/cfe_time_task.c ****     else
1379:/home/simulink/cFS_FreeRTOS_seL4/cfe/fsw/cfe-core/src/time/cfe_time_task.c ****     {
1380:/home/simulink/cFS_FreeRTOS_seL4/cfe/fsw/cfe-core/src/time/cfe_time_task.c ****         CFE_TIME_TaskData.ErrCounter++;
1381:/home/simulink/cFS_FreeRTOS_seL4/cfe/fsw/cfe-core/src/time/cfe_time_task.c ****         CFE_EVS_SendEvent(CFE_TIME_DELTA_ERR_EID, CFE_EVS_ERROR,
1382:/home/simulink/cFS_FreeRTOS_seL4/cfe/fsw/cfe-core/src/time/cfe_time_task.c ****            "Invalid STCF Adjust -- secs = %u, usecs = %u, dir[1=Pos, 2=Neg] = %d",
1383:/home/simulink/cFS_FreeRTOS_seL4/cfe/fsw/cfe-core/src/time/cfe_time_task.c ****            (unsigned int)CommandPtr->Seconds, (unsigned int)CommandPtr->MicroSeconds, (int)Directio
1384:/home/simulink/cFS_FreeRTOS_seL4/cfe/fsw/cfe-core/src/time/cfe_time_task.c ****     }
1385:/home/simulink/cFS_FreeRTOS_seL4/cfe/fsw/cfe-core/src/time/cfe_time_task.c **** 
1386:/home/simulink/cFS_FreeRTOS_seL4/cfe/fsw/cfe-core/src/time/cfe_time_task.c ****     return;
 2088               	.loc 1 1386 0
 2089 0e9e 6042      	jra .L106
 2090               	.L107:
1380:/home/simulink/cFS_FreeRTOS_seL4/cfe/fsw/cfe-core/src/time/cfe_time_task.c ****         CFE_EVS_SendEvent(CFE_TIME_DELTA_ERR_EID, CFE_EVS_ERROR,
 2091               	.loc 1 1380 0
 2092 0ea0 1039 0000 	move.b CFE_TIME_TaskData+1,%d0
 2092      0000 
 2093 0ea6 5280      	addq.l #1,%d0
 2094 0ea8 1000      	move.b %d0,%d0
 2095 0eaa 13C0 0000 	move.b %d0,CFE_TIME_TaskData+1
 2095      0000 
1381:/home/simulink/cFS_FreeRTOS_seL4/cfe/fsw/cfe-core/src/time/cfe_time_task.c ****            "Invalid STCF Adjust -- secs = %u, usecs = %u, dir[1=Pos, 2=Neg] = %d",
 2096               	.loc 1 1381 0
 2097 0eb0 306F 0004 	move.w 4(%sp),%a0
1383:/home/simulink/cFS_FreeRTOS_seL4/cfe/fsw/cfe-core/src/time/cfe_time_task.c ****     }
 2098               	.loc 1 1383 0
 2099 0eb4 226F 0010 	move.l 16(%sp),%a1
 2100 0eb8 2229 0004 	move.l 4(%a1),%d1
 2101 0ebc 226F 0010 	move.l 16(%sp),%a1
 2102 0ec0 2011      	move.l (%a1),%d0
1381:/home/simulink/cFS_FreeRTOS_seL4/cfe/fsw/cfe-core/src/time/cfe_time_task.c ****            "Invalid STCF Adjust -- secs = %u, usecs = %u, dir[1=Pos, 2=Neg] = %d",
 2103               	.loc 1 1381 0
 2104 0ec2 2F08      	move.l %a0,-(%sp)
 2105               	.cfi_def_cfa_offset 28
 2106 0ec4 2F01      	move.l %d1,-(%sp)
 2107               	.cfi_def_cfa_offset 32
 2108 0ec6 2F00      	move.l %d0,-(%sp)
 2109               	.cfi_def_cfa_offset 36
 2110 0ec8 4879 0000 	pea .LC48
 2110      0000 
 2111               	.cfi_def_cfa_offset 40
 2112 0ece 4878 0003 	pea 3.w
 2113               	.cfi_def_cfa_offset 44
 2114 0ed2 4878 0025 	pea 37.w
 2115               	.cfi_def_cfa_offset 48
 2116 0ed6 4EB9 0000 	jsr CFE_EVS_SendEvent
 2116      0000 
 2117 0edc 4FEF 0018 	lea (24,%sp),%sp
 2118               	.cfi_def_cfa_offset 24
68K GAS   			page 71


 2119               	.loc 1 1386 0
 2120 0ee0 4E71      	nop
 2121               	.L106:
1387:/home/simulink/cFS_FreeRTOS_seL4/cfe/fsw/cfe-core/src/time/cfe_time_task.c **** 
1388:/home/simulink/cFS_FreeRTOS_seL4/cfe/fsw/cfe-core/src/time/cfe_time_task.c **** } /* End of CFE_TIME_AdjustCmd() */
 2122               	.loc 1 1388 0
 2123 0ee2 245F      	move.l (%sp)+,%a2
 2124 0ee4 4FEF 0010 	lea (16,%sp),%sp
 2125 0ee8 4E75      	rts
 2126               	.cfi_endproc
 2127               	.LFE78:
 2128               	.sizeCFE_TIME_AdjustCmd, .-CFE_TIME_AdjustCmd
 2129               	.section.rodata
 2130               	.LC49:
 2131 0737 5354 4346 	.string"STCF 1Hz Adjust -- secs = %d, ssecs = 0x%X, dir[1=Pos, 2=Neg] = %d"
 2131      2031 487A 
 2131      2041 646A 
 2131      7573 7420 
 2131      2D2D 2073 
 2132               	.text
 2133               	.align2
 2134               	.globlCFE_TIME_1HzAdjCmd
 2135               	.typeCFE_TIME_1HzAdjCmd, @function
 2136               	CFE_TIME_1HzAdjCmd:
 2137               	.LFB79:
1389:/home/simulink/cFS_FreeRTOS_seL4/cfe/fsw/cfe-core/src/time/cfe_time_task.c **** 
1390:/home/simulink/cFS_FreeRTOS_seL4/cfe/fsw/cfe-core/src/time/cfe_time_task.c **** 
1391:/home/simulink/cFS_FreeRTOS_seL4/cfe/fsw/cfe-core/src/time/cfe_time_task.c **** /* * * * * * * * * * * * * * * * * * * * * * * * * * * * * * * * * */
1392:/home/simulink/cFS_FreeRTOS_seL4/cfe/fsw/cfe-core/src/time/cfe_time_task.c **** /*                                                                 */
1393:/home/simulink/cFS_FreeRTOS_seL4/cfe/fsw/cfe-core/src/time/cfe_time_task.c **** /* CFE_TIME_1HzAdjCmd() -- Time task ground command (1Hz adjust)   */
1394:/home/simulink/cFS_FreeRTOS_seL4/cfe/fsw/cfe-core/src/time/cfe_time_task.c **** /*                                                                 */
1395:/home/simulink/cFS_FreeRTOS_seL4/cfe/fsw/cfe-core/src/time/cfe_time_task.c **** /* * * * * * * * * * * * * * * * * * * * * * * * * * * * * * * * * */
1396:/home/simulink/cFS_FreeRTOS_seL4/cfe/fsw/cfe-core/src/time/cfe_time_task.c **** 
1397:/home/simulink/cFS_FreeRTOS_seL4/cfe/fsw/cfe-core/src/time/cfe_time_task.c **** void CFE_TIME_1HzAdjCmd(CFE_SB_MsgPayloadPtr_t Payload, int16 Direction)
1398:/home/simulink/cFS_FreeRTOS_seL4/cfe/fsw/cfe-core/src/time/cfe_time_task.c **** {
 2138               	.loc 1 1398 0
 2139               	.cfi_startproc
 2140 0eea 4FEF FFF0 	lea (-16,%sp),%sp
 2141               	.cfi_def_cfa_offset 20
 2142 0eee 202F 0018 	move.l 24(%sp),%d0
 2143 0ef2 3000      	move.w %d0,%d0
 2144 0ef4 3E80      	move.w %d0,(%sp)
1399:/home/simulink/cFS_FreeRTOS_seL4/cfe/fsw/cfe-core/src/time/cfe_time_task.c ****     /*
1400:/home/simulink/cFS_FreeRTOS_seL4/cfe/fsw/cfe-core/src/time/cfe_time_task.c ****     ** 1Hz adjustments are only valid for "Time Servers"...
1401:/home/simulink/cFS_FreeRTOS_seL4/cfe/fsw/cfe-core/src/time/cfe_time_task.c ****     */
1402:/home/simulink/cFS_FreeRTOS_seL4/cfe/fsw/cfe-core/src/time/cfe_time_task.c ****     #if (CFE_TIME_CFG_SERVER == TRUE)
1403:/home/simulink/cFS_FreeRTOS_seL4/cfe/fsw/cfe-core/src/time/cfe_time_task.c **** 
1404:/home/simulink/cFS_FreeRTOS_seL4/cfe/fsw/cfe-core/src/time/cfe_time_task.c ****     CFE_TIME_1HzAdjCmd_Payload_t *CommandPtr = (CFE_TIME_1HzAdjCmd_Payload_t *) Payload;
 2145               	.loc 1 1404 0
 2146 0ef6 2F6F 0014 	move.l 20(%sp),12(%sp)
 2146      000C 
1405:/home/simulink/cFS_FreeRTOS_seL4/cfe/fsw/cfe-core/src/time/cfe_time_task.c ****     CFE_TIME_SysTime_t Adjust;
1406:/home/simulink/cFS_FreeRTOS_seL4/cfe/fsw/cfe-core/src/time/cfe_time_task.c **** 
1407:/home/simulink/cFS_FreeRTOS_seL4/cfe/fsw/cfe-core/src/time/cfe_time_task.c ****     CFE_TIME_Copy(&Adjust, CommandPtr);
 2147               	.loc 1 1407 0
 2148 0efc 206F 000C 	move.l 12(%sp),%a0
 2149 0f00 2010      	move.l (%a0),%d0
68K GAS   			page 72


 2150 0f02 2F40 0004 	move.l %d0,4(%sp)
 2151 0f06 206F 000C 	move.l 12(%sp),%a0
 2152 0f0a 2028 0004 	move.l 4(%a0),%d0
 2153 0f0e 2F40 0008 	move.l %d0,8(%sp)
1408:/home/simulink/cFS_FreeRTOS_seL4/cfe/fsw/cfe-core/src/time/cfe_time_task.c **** 
1409:/home/simulink/cFS_FreeRTOS_seL4/cfe/fsw/cfe-core/src/time/cfe_time_task.c ****     CFE_TIME_Set1HzAdj(Adjust, Direction);
 2154               	.loc 1 1409 0
 2155 0f12 3057      	move.w (%sp),%a0
 2156 0f14 2F08      	move.l %a0,-(%sp)
 2157               	.cfi_def_cfa_offset 24
 2158 0f16 2F2F 000C 	move.l 12(%sp),-(%sp)
 2159 0f1a 2F2F 000C 	move.l 12(%sp),-(%sp)
 2160               	.cfi_def_cfa_offset 32
 2161 0f1e 4EB9 0000 	jsr CFE_TIME_Set1HzAdj
 2161      0000 
 2162 0f24 4FEF 000C 	lea (12,%sp),%sp
 2163               	.cfi_def_cfa_offset 20
1410:/home/simulink/cFS_FreeRTOS_seL4/cfe/fsw/cfe-core/src/time/cfe_time_task.c **** 
1411:/home/simulink/cFS_FreeRTOS_seL4/cfe/fsw/cfe-core/src/time/cfe_time_task.c ****     CFE_TIME_TaskData.CmdCounter++;
 2164               	.loc 1 1411 0
 2165 0f28 1039 0000 	move.b CFE_TIME_TaskData,%d0
 2165      0000 
 2166 0f2e 5280      	addq.l #1,%d0
 2167 0f30 1000      	move.b %d0,%d0
 2168 0f32 13C0 0000 	move.b %d0,CFE_TIME_TaskData
 2168      0000 
1412:/home/simulink/cFS_FreeRTOS_seL4/cfe/fsw/cfe-core/src/time/cfe_time_task.c ****     CFE_EVS_SendEvent(CFE_TIME_1HZ_EID, CFE_EVS_INFORMATION,
 2169               	.loc 1 1412 0
 2170 0f38 3057      	move.w (%sp),%a0
1413:/home/simulink/cFS_FreeRTOS_seL4/cfe/fsw/cfe-core/src/time/cfe_time_task.c ****        "STCF 1Hz Adjust -- secs = %d, ssecs = 0x%X, dir[1=Pos, 2=Neg] = %d",
1414:/home/simulink/cFS_FreeRTOS_seL4/cfe/fsw/cfe-core/src/time/cfe_time_task.c ****                       (int)CommandPtr->Seconds, (unsigned int)CommandPtr->Subseconds, (int)Directio
 2171               	.loc 1 1414 0
 2172 0f3a 226F 000C 	move.l 12(%sp),%a1
 2173 0f3e 2229 0004 	move.l 4(%a1),%d1
 2174 0f42 226F 000C 	move.l 12(%sp),%a1
 2175 0f46 2011      	move.l (%a1),%d0
1412:/home/simulink/cFS_FreeRTOS_seL4/cfe/fsw/cfe-core/src/time/cfe_time_task.c ****     CFE_EVS_SendEvent(CFE_TIME_1HZ_EID, CFE_EVS_INFORMATION,
 2176               	.loc 1 1412 0
 2177 0f48 2F08      	move.l %a0,-(%sp)
 2178               	.cfi_def_cfa_offset 24
 2179 0f4a 2F01      	move.l %d1,-(%sp)
 2180               	.cfi_def_cfa_offset 28
 2181 0f4c 2F00      	move.l %d0,-(%sp)
 2182               	.cfi_def_cfa_offset 32
 2183 0f4e 4879 0000 	pea .LC49
 2183      0000 
 2184               	.cfi_def_cfa_offset 36
 2185 0f54 4878 0002 	pea 2.w
 2186               	.cfi_def_cfa_offset 40
 2187 0f58 4878 0010 	pea 16.w
 2188               	.cfi_def_cfa_offset 44
 2189 0f5c 4EB9 0000 	jsr CFE_EVS_SendEvent
 2189      0000 
 2190 0f62 4FEF 0018 	lea (24,%sp),%sp
 2191               	.cfi_def_cfa_offset 20
1415:/home/simulink/cFS_FreeRTOS_seL4/cfe/fsw/cfe-core/src/time/cfe_time_task.c **** 
1416:/home/simulink/cFS_FreeRTOS_seL4/cfe/fsw/cfe-core/src/time/cfe_time_task.c ****     #else /* not CFE_TIME_CFG_SERVER */
68K GAS   			page 73


1417:/home/simulink/cFS_FreeRTOS_seL4/cfe/fsw/cfe-core/src/time/cfe_time_task.c ****     /*
1418:/home/simulink/cFS_FreeRTOS_seL4/cfe/fsw/cfe-core/src/time/cfe_time_task.c ****     ** We want to know if disabled commands are being sent...
1419:/home/simulink/cFS_FreeRTOS_seL4/cfe/fsw/cfe-core/src/time/cfe_time_task.c ****     */
1420:/home/simulink/cFS_FreeRTOS_seL4/cfe/fsw/cfe-core/src/time/cfe_time_task.c ****     CFE_TIME_TaskData.ErrCounter++;
1421:/home/simulink/cFS_FreeRTOS_seL4/cfe/fsw/cfe-core/src/time/cfe_time_task.c **** 
1422:/home/simulink/cFS_FreeRTOS_seL4/cfe/fsw/cfe-core/src/time/cfe_time_task.c ****     CFE_EVS_SendEvent(CFE_TIME_1HZ_CFG_EID, CFE_EVS_ERROR,
1423:/home/simulink/cFS_FreeRTOS_seL4/cfe/fsw/cfe-core/src/time/cfe_time_task.c ****        "1Hz Adjust commands invalid without CFE_TIME_CFG_SERVER set to TRUE");
1424:/home/simulink/cFS_FreeRTOS_seL4/cfe/fsw/cfe-core/src/time/cfe_time_task.c **** 
1425:/home/simulink/cFS_FreeRTOS_seL4/cfe/fsw/cfe-core/src/time/cfe_time_task.c ****     #endif /* CFE_TIME_CFG_SERVER */
1426:/home/simulink/cFS_FreeRTOS_seL4/cfe/fsw/cfe-core/src/time/cfe_time_task.c **** 
1427:/home/simulink/cFS_FreeRTOS_seL4/cfe/fsw/cfe-core/src/time/cfe_time_task.c ****     return;
 2192               	.loc 1 1427 0
 2193 0f66 4E71      	nop
1428:/home/simulink/cFS_FreeRTOS_seL4/cfe/fsw/cfe-core/src/time/cfe_time_task.c **** 
1429:/home/simulink/cFS_FreeRTOS_seL4/cfe/fsw/cfe-core/src/time/cfe_time_task.c **** } /* End of CFE_TIME_1HzAdjCmd() */
 2194               	.loc 1 1429 0
 2195 0f68 4FEF 0010 	lea (16,%sp),%sp
 2196 0f6c 4E75      	rts
 2197               	.cfi_endproc
 2198               	.LFE79:
 2199               	.sizeCFE_TIME_1HzAdjCmd, .-CFE_TIME_1HzAdjCmd
 2200               	.Letext0:
 2201               	.file 2 "/home/simulink/cFS_FreeRTOS_seL4/osal/src/os/inc/common_types.h"
 2202               	.file 3 "/home/simulink/development/rtems/5/m68k-rtems5/include/machine/_default_types.h"
 2203               	.file 4 "/home/simulink/development/rtems/5/m68k-rtems5/include/machine/_types.h"
 2204               	.file 5 "/home/simulink/development/rtems/5/m68k-rtems5/include/sys/lock.h"
 2205               	.file 6 "/home/simulink/development/rtems/5/m68k-rtems5/include/sys/_types.h"
 2206               	.file 7 "/home/simulink/development/rtems/5/lib/gcc/m68k-rtems5/7.3.0/include/stddef.h"
 2207               	.file 8 "/home/simulink/development/rtems/5/m68k-rtems5/include/sys/reent.h"
 2208               	.file 9 "/home/simulink/development/rtems/5/m68k-rtems5/include/stdlib.h"
 2209               	.file 10 "/home/simulink/development/rtems/5/m68k-rtems5/include/time.h"
 2210               	.file 11 "/home/simulink/cFS_FreeRTOS_seL4/cfe/fsw/cfe-core/src/inc/cfe_time.h"
 2211               	.file 12 "/home/simulink/cFS_FreeRTOS_seL4/cfe/fsw/cfe-core/src/inc/ccsds.h"
 2212               	.file 13 "/home/simulink/cFS_FreeRTOS_seL4/cfe/fsw/cfe-core/src/inc/cfe_sb.h"
 2213               	.file 14 "/home/simulink/cFS_FreeRTOS_seL4/cfe/fsw/cfe-core/src/inc/cfe_time_msg.h"
 2214               	.file 15 "/home/simulink/cFS_FreeRTOS_seL4/cfe/fsw/cfe-core/src/time/cfe_time_utils.h"
 2215               	.section.debug_info,"",@progbits
 2216               	.Ldebug_info0:
 2217 0000 0000 18EB 	.long0x18eb
 2218 0004 0004      	.word0x4
 2219 0006 0000 0000 	.long.Ldebug_abbrev0
 2220 000a 04        	.byte0x4
 2221 000b 01        	.uleb128 0x1
 2222 000c 0000 0000 	.long.LASF306
 2223 0010 0C        	.byte0xc
 2224 0011 0000 0000 	.long.LASF307
 2225 0015 0000 0000 	.long.LASF308
 2226 0019 0000 0000 	.long.Ltext0
 2227 001d 0000 0F6E 	.long.Letext0-.Ltext0
 2228 0021 0000 0000 	.long.Ldebug_line0
 2229 0025 02        	.uleb128 0x2
 2230 0026 0000 0000 	.long.LASF2
 2231 002a 02        	.byte0x2
 2232 002b E6        	.byte0xe6
 2233 002c 0000 0030 	.long0x30
 2234 0030 03        	.uleb128 0x3
 2235 0031 01        	.byte0x1
68K GAS   			page 74


 2236 0032 08        	.byte0x8
 2237 0033 0000 0000 	.long.LASF0
 2238 0037 03        	.uleb128 0x3
 2239 0038 01        	.byte0x1
 2240 0039 06        	.byte0x6
 2241 003a 0000 0000 	.long.LASF1
 2242 003e 02        	.uleb128 0x2
 2243 003f 0000 0000 	.long.LASF3
 2244 0043 02        	.byte0x2
 2245 0044 E8        	.byte0xe8
 2246 0045 0000 0049 	.long0x49
 2247 0049 03        	.uleb128 0x3
 2248 004a 02        	.byte0x2
 2249 004b 05        	.byte0x5
 2250 004c 0000 0000 	.long.LASF4
 2251 0050 02        	.uleb128 0x2
 2252 0051 0000 0000 	.long.LASF5
 2253 0055 02        	.byte0x2
 2254 0056 E9        	.byte0xe9
 2255 0057 0000 005B 	.long0x5b
 2256 005b 03        	.uleb128 0x3
 2257 005c 04        	.byte0x4
 2258 005d 05        	.byte0x5
 2259 005e 0000 0000 	.long.LASF6
 2260 0062 03        	.uleb128 0x3
 2261 0063 08        	.byte0x8
 2262 0064 05        	.byte0x5
 2263 0065 0000 0000 	.long.LASF7
 2264 0069 02        	.uleb128 0x2
 2265 006a 0000 0000 	.long.LASF8
 2266 006e 02        	.byte0x2
 2267 006f EB        	.byte0xeb
 2268 0070 0000 0030 	.long0x30
 2269 0074 02        	.uleb128 0x2
 2270 0075 0000 0000 	.long.LASF9
 2271 0079 02        	.byte0x2
 2272 007a EC        	.byte0xec
 2273 007b 0000 007F 	.long0x7f
 2274 007f 03        	.uleb128 0x3
 2275 0080 02        	.byte0x2
 2276 0081 07        	.byte0x7
 2277 0082 0000 0000 	.long.LASF10
 2278 0086 02        	.uleb128 0x2
 2279 0087 0000 0000 	.long.LASF11
 2280 008b 02        	.byte0x2
 2281 008c ED        	.byte0xed
 2282 008d 0000 0091 	.long0x91
 2283 0091 03        	.uleb128 0x3
 2284 0092 04        	.byte0x4
 2285 0093 07        	.byte0x7
 2286 0094 0000 0000 	.long.LASF12
 2287 0098 03        	.uleb128 0x3
 2288 0099 08        	.byte0x8
 2289 009a 07        	.byte0x7
 2290 009b 0000 0000 	.long.LASF13
 2291 009f 04        	.uleb128 0x4
 2292 00a0 0000 0000 	.long.LASF14
68K GAS   			page 75


 2293 00a4 02        	.byte0x2
 2294 00a5 0131      	.word0x131
 2295 00a7 0000 0025 	.long0x25
 2296 00ab 03        	.uleb128 0x3
 2297 00ac 01        	.byte0x1
 2298 00ad 06        	.byte0x6
 2299 00ae 0000 0000 	.long.LASF15
 2300 00b2 05        	.uleb128 0x5
 2301 00b3 0000 00AB 	.long0xab
 2302 00b7 06        	.uleb128 0x6
 2303 00b8 04        	.byte0x4
 2304 00b9 02        	.uleb128 0x2
 2305 00ba 0000 0000 	.long.LASF16
 2306 00be 03        	.byte0x3
 2307 00bf 67        	.byte0x67
 2308 00c0 0000 0062 	.long0x62
 2309 00c4 03        	.uleb128 0x3
 2310 00c5 08        	.byte0x8
 2311 00c6 04        	.byte0x4
 2312 00c7 0000 0000 	.long.LASF17
 2313 00cb 02        	.uleb128 0x2
 2314 00cc 0000 0000 	.long.LASF18
 2315 00d0 04        	.byte0x4
 2316 00d1 10        	.byte0x10
 2317 00d2 0000 00B9 	.long0xb9
 2318 00d6 02        	.uleb128 0x2
 2319 00d7 0000 0000 	.long.LASF19
 2320 00db 04        	.byte0x4
 2321 00dc 16        	.byte0x16
 2322 00dd 0000 00CB 	.long0xcb
 2323 00e1 07        	.uleb128 0x7
 2324 00e2 04        	.byte0x4
 2325 00e3 05        	.byte0x5
 2326 00e4 696E 7400 	.string"int"
 2327 00e8 08        	.uleb128 0x8
 2328 00e9 0000 0000 	.long.LASF23
 2329 00ed 08        	.byte0x8
 2330 00ee 05        	.byte0x5
 2331 00ef 28        	.byte0x28
 2332 00f0 0000 010D 	.long0x10d
 2333 00f4 09        	.uleb128 0x9
 2334 00f5 0000 0000 	.long.LASF20
 2335 00f9 05        	.byte0x5
 2336 00fa 29        	.byte0x29
 2337 00fb 0000 010D 	.long0x10d
 2338 00ff 00        	.byte0
 2339 0100 09        	.uleb128 0x9
 2340 0101 0000 0000 	.long.LASF21
 2341 0105 05        	.byte0x5
 2342 0106 2A        	.byte0x2a
 2343 0107 0000 010D 	.long0x10d
 2344 010b 04        	.byte0x4
 2345 010c 00        	.byte0
 2346 010d 03        	.uleb128 0x3
 2347 010e 04        	.byte0x4
 2348 010f 07        	.byte0x7
 2349 0110 0000 0000 	.long.LASF22
68K GAS   			page 76


 2350 0114 08        	.uleb128 0x8
 2351 0115 0000 0000 	.long.LASF24
 2352 0119 14        	.byte0x14
 2353 011a 05        	.byte0x5
 2354 011b 2D        	.byte0x2d
 2355 011c 0000 0151 	.long0x151
 2356 0120 09        	.uleb128 0x9
 2357 0121 0000 0000 	.long.LASF25
 2358 0125 05        	.byte0x5
 2359 0126 2E        	.byte0x2e
 2360 0127 0000 00E8 	.long0xe8
 2361 012b 00        	.byte0
 2362 012c 09        	.uleb128 0x9
 2363 012d 0000 0000 	.long.LASF26
 2364 0131 05        	.byte0x5
 2365 0132 2F        	.byte0x2f
 2366 0133 0000 0156 	.long0x156
 2367 0137 08        	.byte0x8
 2368 0138 09        	.uleb128 0x9
 2369 0139 0000 0000 	.long.LASF27
 2370 013d 05        	.byte0x5
 2371 013e 30        	.byte0x30
 2372 013f 0000 0161 	.long0x161
 2373 0143 0C        	.byte0xc
 2374 0144 09        	.uleb128 0x9
 2375 0145 0000 0000 	.long.LASF28
 2376 0149 05        	.byte0x5
 2377 014a 31        	.byte0x31
 2378 014b 0000 0167 	.long0x167
 2379 014f 10        	.byte0x10
 2380 0150 00        	.byte0
 2381 0151 0A        	.uleb128 0xa
 2382 0152 0000 0000 	.long.LASF29
 2383 0156 0B        	.uleb128 0xb
 2384 0157 04        	.byte0x4
 2385 0158 0000 0151 	.long0x151
 2386 015c 0A        	.uleb128 0xa
 2387 015d 0000 0000 	.long.LASF30
 2388 0161 0B        	.uleb128 0xb
 2389 0162 04        	.byte0x4
 2390 0163 0000 015C 	.long0x15c
 2391 0167 0B        	.uleb128 0xb
 2392 0168 04        	.byte0x4
 2393 0169 0000 00B2 	.long0xb2
 2394 016d 08        	.uleb128 0x8
 2395 016e 0000 0000 	.long.LASF31
 2396 0172 14        	.byte0x14
 2397 0173 05        	.byte0x5
 2398 0174 34        	.byte0x34
 2399 0175 0000 0186 	.long0x186
 2400 0179 09        	.uleb128 0x9
 2401 017a 0000 0000 	.long.LASF32
 2402 017e 05        	.byte0x5
 2403 017f 35        	.byte0x35
 2404 0180 0000 0114 	.long0x114
 2405 0184 00        	.byte0
 2406 0185 00        	.byte0
68K GAS   			page 77


 2407 0186 08        	.uleb128 0x8
 2408 0187 0000 0000 	.long.LASF33
 2409 018b 18        	.byte0x18
 2410 018c 05        	.byte0x5
 2411 018d 38        	.byte0x38
 2412 018e 0000 01AB 	.long0x1ab
 2413 0192 09        	.uleb128 0x9
 2414 0193 0000 0000 	.long.LASF34
 2415 0197 05        	.byte0x5
 2416 0198 39        	.byte0x39
 2417 0199 0000 016D 	.long0x16d
 2418 019d 00        	.byte0
 2419 019e 09        	.uleb128 0x9
 2420 019f 0000 0000 	.long.LASF35
 2421 01a3 05        	.byte0x5
 2422 01a4 3A        	.byte0x3a
 2423 01a5 0000 010D 	.long0x10d
 2424 01a9 14        	.byte0x14
 2425 01aa 00        	.byte0
 2426 01ab 04        	.uleb128 0x4
 2427 01ac 0000 0000 	.long.LASF36
 2428 01b0 05        	.byte0x5
 2429 01b1 0171      	.word0x171
 2430 01b3 0000 0186 	.long0x186
 2431 01b7 02        	.uleb128 0x2
 2432 01b8 0000 0000 	.long.LASF37
 2433 01bc 06        	.byte0x6
 2434 01bd 91        	.byte0x91
 2435 01be 0000 005B 	.long0x5b
 2436 01c2 04        	.uleb128 0x4
 2437 01c3 0000 0000 	.long.LASF38
 2438 01c7 07        	.byte0x7
 2439 01c8 0165      	.word0x165
 2440 01ca 0000 010D 	.long0x10d
 2441 01ce 0C        	.uleb128 0xc
 2442 01cf 04        	.byte0x4
 2443 01d0 06        	.byte0x6
 2444 01d1 A6        	.byte0xa6
 2445 01d2 0000 01ED 	.long0x1ed
 2446 01d6 0D        	.uleb128 0xd
 2447 01d7 0000 0000 	.long.LASF39
 2448 01db 06        	.byte0x6
 2449 01dc A8        	.byte0xa8
 2450 01dd 0000 01C2 	.long0x1c2
 2451 01e1 0D        	.uleb128 0xd
 2452 01e2 0000 0000 	.long.LASF40
 2453 01e6 06        	.byte0x6
 2454 01e7 A9        	.byte0xa9
 2455 01e8 0000 01ED 	.long0x1ed
 2456 01ec 00        	.byte0
 2457 01ed 0E        	.uleb128 0xe
 2458 01ee 0000 0030 	.long0x30
 2459 01f2 0000 01FD 	.long0x1fd
 2460 01f6 0F        	.uleb128 0xf
 2461 01f7 0000 0091 	.long0x91
 2462 01fb 03        	.byte0x3
 2463 01fc 00        	.byte0
68K GAS   			page 78


 2464 01fd 10        	.uleb128 0x10
 2465 01fe 08        	.byte0x8
 2466 01ff 06        	.byte0x6
 2467 0200 A3        	.byte0xa3
 2468 0201 0000 021E 	.long0x21e
 2469 0205 09        	.uleb128 0x9
 2470 0206 0000 0000 	.long.LASF41
 2471 020a 06        	.byte0x6
 2472 020b A5        	.byte0xa5
 2473 020c 0000 00E1 	.long0xe1
 2474 0210 00        	.byte0
 2475 0211 09        	.uleb128 0x9
 2476 0212 0000 0000 	.long.LASF42
 2477 0216 06        	.byte0x6
 2478 0217 AA        	.byte0xaa
 2479 0218 0000 01CE 	.long0x1ce
 2480 021c 04        	.byte0x4
 2481 021d 00        	.byte0
 2482 021e 02        	.uleb128 0x2
 2483 021f 0000 0000 	.long.LASF43
 2484 0223 06        	.byte0x6
 2485 0224 AB        	.byte0xab
 2486 0225 0000 01FD 	.long0x1fd
 2487 0229 02        	.uleb128 0x2
 2488 022a 0000 0000 	.long.LASF44
 2489 022e 06        	.byte0x6
 2490 022f AF        	.byte0xaf
 2491 0230 0000 01AB 	.long0x1ab
 2492 0234 02        	.uleb128 0x2
 2493 0235 0000 0000 	.long.LASF45
 2494 0239 08        	.byte0x8
 2495 023a 16        	.byte0x16
 2496 023b 0000 0091 	.long0x91
 2497 023f 08        	.uleb128 0x8
 2498 0240 0000 0000 	.long.LASF46
 2499 0244 18        	.byte0x18
 2500 0245 08        	.byte0x8
 2501 0246 2F        	.byte0x2f
 2502 0247 0000 0292 	.long0x292
 2503 024b 09        	.uleb128 0x9
 2504 024c 0000 0000 	.long.LASF47
 2505 0250 08        	.byte0x8
 2506 0251 31        	.byte0x31
 2507 0252 0000 0292 	.long0x292
 2508 0256 00        	.byte0
 2509 0257 11        	.uleb128 0x11
 2510 0258 5F6B 00   	.string"_k"
 2511 025b 08        	.byte0x8
 2512 025c 32        	.byte0x32
 2513 025d 0000 00E1 	.long0xe1
 2514 0261 04        	.byte0x4
 2515 0262 09        	.uleb128 0x9
 2516 0263 0000 0000 	.long.LASF48
 2517 0267 08        	.byte0x8
 2518 0268 32        	.byte0x32
 2519 0269 0000 00E1 	.long0xe1
 2520 026d 08        	.byte0x8
68K GAS   			page 79


 2521 026e 09        	.uleb128 0x9
 2522 026f 0000 0000 	.long.LASF49
 2523 0273 08        	.byte0x8
 2524 0274 32        	.byte0x32
 2525 0275 0000 00E1 	.long0xe1
 2526 0279 0C        	.byte0xc
 2527 027a 09        	.uleb128 0x9
 2528 027b 0000 0000 	.long.LASF50
 2529 027f 08        	.byte0x8
 2530 0280 32        	.byte0x32
 2531 0281 0000 00E1 	.long0xe1
 2532 0285 10        	.byte0x10
 2533 0286 11        	.uleb128 0x11
 2534 0287 5F78 00   	.string"_x"
 2535 028a 08        	.byte0x8
 2536 028b 33        	.byte0x33
 2537 028c 0000 0298 	.long0x298
 2538 0290 14        	.byte0x14
 2539 0291 00        	.byte0
 2540 0292 0B        	.uleb128 0xb
 2541 0293 04        	.byte0x4
 2542 0294 0000 023F 	.long0x23f
 2543 0298 0E        	.uleb128 0xe
 2544 0299 0000 0234 	.long0x234
 2545 029d 0000 02A8 	.long0x2a8
 2546 02a1 0F        	.uleb128 0xf
 2547 02a2 0000 0091 	.long0x91
 2548 02a6 00        	.byte0
 2549 02a7 00        	.byte0
 2550 02a8 08        	.uleb128 0x8
 2551 02a9 0000 0000 	.long.LASF51
 2552 02ad 24        	.byte0x24
 2553 02ae 08        	.byte0x8
 2554 02af 37        	.byte0x37
 2555 02b0 0000 0321 	.long0x321
 2556 02b4 09        	.uleb128 0x9
 2557 02b5 0000 0000 	.long.LASF52
 2558 02b9 08        	.byte0x8
 2559 02ba 39        	.byte0x39
 2560 02bb 0000 00E1 	.long0xe1
 2561 02bf 00        	.byte0
 2562 02c0 09        	.uleb128 0x9
 2563 02c1 0000 0000 	.long.LASF53
 2564 02c5 08        	.byte0x8
 2565 02c6 3A        	.byte0x3a
 2566 02c7 0000 00E1 	.long0xe1
 2567 02cb 04        	.byte0x4
 2568 02cc 09        	.uleb128 0x9
 2569 02cd 0000 0000 	.long.LASF54
 2570 02d1 08        	.byte0x8
 2571 02d2 3B        	.byte0x3b
 2572 02d3 0000 00E1 	.long0xe1
 2573 02d7 08        	.byte0x8
 2574 02d8 09        	.uleb128 0x9
 2575 02d9 0000 0000 	.long.LASF55
 2576 02dd 08        	.byte0x8
 2577 02de 3C        	.byte0x3c
68K GAS   			page 80


 2578 02df 0000 00E1 	.long0xe1
 2579 02e3 0C        	.byte0xc
 2580 02e4 09        	.uleb128 0x9
 2581 02e5 0000 0000 	.long.LASF56
 2582 02e9 08        	.byte0x8
 2583 02ea 3D        	.byte0x3d
 2584 02eb 0000 00E1 	.long0xe1
 2585 02ef 10        	.byte0x10
 2586 02f0 09        	.uleb128 0x9
 2587 02f1 0000 0000 	.long.LASF57
 2588 02f5 08        	.byte0x8
 2589 02f6 3E        	.byte0x3e
 2590 02f7 0000 00E1 	.long0xe1
 2591 02fb 14        	.byte0x14
 2592 02fc 09        	.uleb128 0x9
 2593 02fd 0000 0000 	.long.LASF58
 2594 0301 08        	.byte0x8
 2595 0302 3F        	.byte0x3f
 2596 0303 0000 00E1 	.long0xe1
 2597 0307 18        	.byte0x18
 2598 0308 09        	.uleb128 0x9
 2599 0309 0000 0000 	.long.LASF59
 2600 030d 08        	.byte0x8
 2601 030e 40        	.byte0x40
 2602 030f 0000 00E1 	.long0xe1
 2603 0313 1C        	.byte0x1c
 2604 0314 09        	.uleb128 0x9
 2605 0315 0000 0000 	.long.LASF60
 2606 0319 08        	.byte0x8
 2607 031a 41        	.byte0x41
 2608 031b 0000 00E1 	.long0xe1
 2609 031f 20        	.byte0x20
 2610 0320 00        	.byte0
 2611 0321 12        	.uleb128 0x12
 2612 0322 0000 0000 	.long.LASF61
 2613 0326 0108      	.word0x108
 2614 0328 08        	.byte0x8
 2615 0329 4A        	.byte0x4a
 2616 032a 0000 0361 	.long0x361
 2617 032e 09        	.uleb128 0x9
 2618 032f 0000 0000 	.long.LASF62
 2619 0333 08        	.byte0x8
 2620 0334 4B        	.byte0x4b
 2621 0335 0000 0361 	.long0x361
 2622 0339 00        	.byte0
 2623 033a 09        	.uleb128 0x9
 2624 033b 0000 0000 	.long.LASF63
 2625 033f 08        	.byte0x8
 2626 0340 4C        	.byte0x4c
 2627 0341 0000 0361 	.long0x361
 2628 0345 80        	.byte0x80
 2629 0346 13        	.uleb128 0x13
 2630 0347 0000 0000 	.long.LASF64
 2631 034b 08        	.byte0x8
 2632 034c 4E        	.byte0x4e
 2633 034d 0000 0234 	.long0x234
 2634 0351 0100      	.word0x100
68K GAS   			page 81


 2635 0353 13        	.uleb128 0x13
 2636 0354 0000 0000 	.long.LASF65
 2637 0358 08        	.byte0x8
 2638 0359 51        	.byte0x51
 2639 035a 0000 0234 	.long0x234
 2640 035e 0104      	.word0x104
 2641 0360 00        	.byte0
 2642 0361 0E        	.uleb128 0xe
 2643 0362 0000 00B7 	.long0xb7
 2644 0366 0000 0371 	.long0x371
 2645 036a 0F        	.uleb128 0xf
 2646 036b 0000 0091 	.long0x91
 2647 036f 1F        	.byte0x1f
 2648 0370 00        	.byte0
 2649 0371 12        	.uleb128 0x12
 2650 0372 0000 0000 	.long.LASF66
 2651 0376 0190      	.word0x190
 2652 0378 08        	.byte0x8
 2653 0379 5D        	.byte0x5d
 2654 037a 0000 03AF 	.long0x3af
 2655 037e 09        	.uleb128 0x9
 2656 037f 0000 0000 	.long.LASF47
 2657 0383 08        	.byte0x8
 2658 0384 5E        	.byte0x5e
 2659 0385 0000 03AF 	.long0x3af
 2660 0389 00        	.byte0
 2661 038a 09        	.uleb128 0x9
 2662 038b 0000 0000 	.long.LASF67
 2663 038f 08        	.byte0x8
 2664 0390 5F        	.byte0x5f
 2665 0391 0000 00E1 	.long0xe1
 2666 0395 04        	.byte0x4
 2667 0396 09        	.uleb128 0x9
 2668 0397 0000 0000 	.long.LASF68
 2669 039b 08        	.byte0x8
 2670 039c 61        	.byte0x61
 2671 039d 0000 03B5 	.long0x3b5
 2672 03a1 08        	.byte0x8
 2673 03a2 09        	.uleb128 0x9
 2674 03a3 0000 0000 	.long.LASF61
 2675 03a7 08        	.byte0x8
 2676 03a8 62        	.byte0x62
 2677 03a9 0000 0321 	.long0x321
 2678 03ad 88        	.byte0x88
 2679 03ae 00        	.byte0
 2680 03af 0B        	.uleb128 0xb
 2681 03b0 04        	.byte0x4
 2682 03b1 0000 0371 	.long0x371
 2683 03b5 0E        	.uleb128 0xe
 2684 03b6 0000 03C5 	.long0x3c5
 2685 03ba 0000 03C5 	.long0x3c5
 2686 03be 0F        	.uleb128 0xf
 2687 03bf 0000 0091 	.long0x91
 2688 03c3 1F        	.byte0x1f
 2689 03c4 00        	.byte0
 2690 03c5 0B        	.uleb128 0xb
 2691 03c6 04        	.byte0x4
68K GAS   			page 82


 2692 03c7 0000 03CB 	.long0x3cb
 2693 03cb 14        	.uleb128 0x14
 2694 03cc 08        	.uleb128 0x8
 2695 03cd 0000 0000 	.long.LASF69
 2696 03d1 08        	.byte0x8
 2697 03d2 08        	.byte0x8
 2698 03d3 75        	.byte0x75
 2699 03d4 0000 03F1 	.long0x3f1
 2700 03d8 09        	.uleb128 0x9
 2701 03d9 0000 0000 	.long.LASF70
 2702 03dd 08        	.byte0x8
 2703 03de 76        	.byte0x76
 2704 03df 0000 03F1 	.long0x3f1
 2705 03e3 00        	.byte0
 2706 03e4 09        	.uleb128 0x9
 2707 03e5 0000 0000 	.long.LASF71
 2708 03e9 08        	.byte0x8
 2709 03ea 77        	.byte0x77
 2710 03eb 0000 00E1 	.long0xe1
 2711 03ef 04        	.byte0x4
 2712 03f0 00        	.byte0
 2713 03f1 0B        	.uleb128 0xb
 2714 03f2 04        	.byte0x4
 2715 03f3 0000 0030 	.long0x30
 2716 03f7 08        	.uleb128 0x8
 2717 03f8 0000 0000 	.long.LASF72
 2718 03fc 80        	.byte0x80
 2719 03fd 08        	.byte0x8
 2720 03fe B5        	.byte0xb5
 2721 03ff 0000 0521 	.long0x521
 2722 0403 11        	.uleb128 0x11
 2723 0404 5F70 00   	.string"_p"
 2724 0407 08        	.byte0x8
 2725 0408 B6        	.byte0xb6
 2726 0409 0000 03F1 	.long0x3f1
 2727 040d 00        	.byte0
 2728 040e 11        	.uleb128 0x11
 2729 040f 5F72 00   	.string"_r"
 2730 0412 08        	.byte0x8
 2731 0413 B7        	.byte0xb7
 2732 0414 0000 00E1 	.long0xe1
 2733 0418 04        	.byte0x4
 2734 0419 11        	.uleb128 0x11
 2735 041a 5F77 00   	.string"_w"
 2736 041d 08        	.byte0x8
 2737 041e B8        	.byte0xb8
 2738 041f 0000 00E1 	.long0xe1
 2739 0423 08        	.byte0x8
 2740 0424 09        	.uleb128 0x9
 2741 0425 0000 0000 	.long.LASF73
 2742 0429 08        	.byte0x8
 2743 042a B9        	.byte0xb9
 2744 042b 0000 0049 	.long0x49
 2745 042f 0C        	.byte0xc
 2746 0430 09        	.uleb128 0x9
 2747 0431 0000 0000 	.long.LASF74
 2748 0435 08        	.byte0x8
68K GAS   			page 83


 2749 0436 BA        	.byte0xba
 2750 0437 0000 0049 	.long0x49
 2751 043b 0E        	.byte0xe
 2752 043c 11        	.uleb128 0x11
 2753 043d 5F62 6600 	.string"_bf"
 2754 0441 08        	.byte0x8
 2755 0442 BB        	.byte0xbb
 2756 0443 0000 03CC 	.long0x3cc
 2757 0447 10        	.byte0x10
 2758 0448 09        	.uleb128 0x9
 2759 0449 0000 0000 	.long.LASF75
 2760 044d 08        	.byte0x8
 2761 044e BC        	.byte0xbc
 2762 044f 0000 00E1 	.long0xe1
 2763 0453 18        	.byte0x18
 2764 0454 09        	.uleb128 0x9
 2765 0455 0000 0000 	.long.LASF76
 2766 0459 08        	.byte0x8
 2767 045a C3        	.byte0xc3
 2768 045b 0000 00B7 	.long0xb7
 2769 045f 1C        	.byte0x1c
 2770 0460 09        	.uleb128 0x9
 2771 0461 0000 0000 	.long.LASF77
 2772 0465 08        	.byte0x8
 2773 0466 C5        	.byte0xc5
 2774 0467 0000 0658 	.long0x658
 2775 046b 20        	.byte0x20
 2776 046c 09        	.uleb128 0x9
 2777 046d 0000 0000 	.long.LASF78
 2778 0471 08        	.byte0x8
 2779 0472 C7        	.byte0xc7
 2780 0473 0000 067C 	.long0x67c
 2781 0477 24        	.byte0x24
 2782 0478 09        	.uleb128 0x9
 2783 0479 0000 0000 	.long.LASF79
 2784 047d 08        	.byte0x8
 2785 047e CA        	.byte0xca
 2786 047f 0000 06A0 	.long0x6a0
 2787 0483 28        	.byte0x28
 2788 0484 09        	.uleb128 0x9
 2789 0485 0000 0000 	.long.LASF80
 2790 0489 08        	.byte0x8
 2791 048a CB        	.byte0xcb
 2792 048b 0000 06BA 	.long0x6ba
 2793 048f 2C        	.byte0x2c
 2794 0490 11        	.uleb128 0x11
 2795 0491 5F75 6200 	.string"_ub"
 2796 0495 08        	.byte0x8
 2797 0496 CE        	.byte0xce
 2798 0497 0000 03CC 	.long0x3cc
 2799 049b 30        	.byte0x30
 2800 049c 11        	.uleb128 0x11
 2801 049d 5F75 7000 	.string"_up"
 2802 04a1 08        	.byte0x8
 2803 04a2 CF        	.byte0xcf
 2804 04a3 0000 03F1 	.long0x3f1
 2805 04a7 38        	.byte0x38
68K GAS   			page 84


 2806 04a8 11        	.uleb128 0x11
 2807 04a9 5F75 7200 	.string"_ur"
 2808 04ad 08        	.byte0x8
 2809 04ae D0        	.byte0xd0
 2810 04af 0000 00E1 	.long0xe1
 2811 04b3 3C        	.byte0x3c
 2812 04b4 09        	.uleb128 0x9
 2813 04b5 0000 0000 	.long.LASF81
 2814 04b9 08        	.byte0x8
 2815 04ba D3        	.byte0xd3
 2816 04bb 0000 06C0 	.long0x6c0
 2817 04bf 40        	.byte0x40
 2818 04c0 09        	.uleb128 0x9
 2819 04c1 0000 0000 	.long.LASF82
 2820 04c5 08        	.byte0x8
 2821 04c6 D4        	.byte0xd4
 2822 04c7 0000 06D0 	.long0x6d0
 2823 04cb 43        	.byte0x43
 2824 04cc 11        	.uleb128 0x11
 2825 04cd 5F6C 6200 	.string"_lb"
 2826 04d1 08        	.byte0x8
 2827 04d2 D7        	.byte0xd7
 2828 04d3 0000 03CC 	.long0x3cc
 2829 04d7 44        	.byte0x44
 2830 04d8 09        	.uleb128 0x9
 2831 04d9 0000 0000 	.long.LASF83
 2832 04dd 08        	.byte0x8
 2833 04de DA        	.byte0xda
 2834 04df 0000 00E1 	.long0xe1
 2835 04e3 4C        	.byte0x4c
 2836 04e4 09        	.uleb128 0x9
 2837 04e5 0000 0000 	.long.LASF84
 2838 04e9 08        	.byte0x8
 2839 04ea DB        	.byte0xdb
 2840 04eb 0000 00CB 	.long0xcb
 2841 04ef 50        	.byte0x50
 2842 04f0 09        	.uleb128 0x9
 2843 04f1 0000 0000 	.long.LASF85
 2844 04f5 08        	.byte0x8
 2845 04f6 DE        	.byte0xde
 2846 04f7 0000 053F 	.long0x53f
 2847 04fb 58        	.byte0x58
 2848 04fc 09        	.uleb128 0x9
 2849 04fd 0000 0000 	.long.LASF86
 2850 0501 08        	.byte0x8
 2851 0502 E2        	.byte0xe2
 2852 0503 0000 0229 	.long0x229
 2853 0507 5C        	.byte0x5c
 2854 0508 09        	.uleb128 0x9
 2855 0509 0000 0000 	.long.LASF87
 2856 050d 08        	.byte0x8
 2857 050e E4        	.byte0xe4
 2858 050f 0000 021E 	.long0x21e
 2859 0513 74        	.byte0x74
 2860 0514 09        	.uleb128 0x9
 2861 0515 0000 0000 	.long.LASF88
 2862 0519 08        	.byte0x8
68K GAS   			page 85


 2863 051a E5        	.byte0xe5
 2864 051b 0000 00E1 	.long0xe1
 2865 051f 7C        	.byte0x7c
 2866 0520 00        	.byte0
 2867 0521 15        	.uleb128 0x15
 2868 0522 0000 01B7 	.long0x1b7
 2869 0526 0000 053F 	.long0x53f
 2870 052a 16        	.uleb128 0x16
 2871 052b 0000 053F 	.long0x53f
 2872 052f 16        	.uleb128 0x16
 2873 0530 0000 00B7 	.long0xb7
 2874 0534 16        	.uleb128 0x16
 2875 0535 0000 0652 	.long0x652
 2876 0539 16        	.uleb128 0x16
 2877 053a 0000 00E1 	.long0xe1
 2878 053e 00        	.byte0
 2879 053f 0B        	.uleb128 0xb
 2880 0540 04        	.byte0x4
 2881 0541 0000 054A 	.long0x54a
 2882 0545 05        	.uleb128 0x5
 2883 0546 0000 053F 	.long0x53f
 2884 054a 17        	.uleb128 0x17
 2885 054b 0000 0000 	.long.LASF89
 2886 054f 0158      	.word0x158
 2887 0551 08        	.byte0x8
 2888 0552 0239      	.word0x239
 2889 0554 0000 0652 	.long0x652
 2890 0558 18        	.uleb128 0x18
 2891 0559 0000 0000 	.long.LASF90
 2892 055d 08        	.byte0x8
 2893 055e 023B      	.word0x23b
 2894 0560 0000 00E1 	.long0xe1
 2895 0564 00        	.byte0
 2896 0565 18        	.uleb128 0x18
 2897 0566 0000 0000 	.long.LASF91
 2898 056a 08        	.byte0x8
 2899 056b 0240      	.word0x240
 2900 056d 0000 0727 	.long0x727
 2901 0571 04        	.byte0x4
 2902 0572 18        	.uleb128 0x18
 2903 0573 0000 0000 	.long.LASF92
 2904 0577 08        	.byte0x8
 2905 0578 0240      	.word0x240
 2906 057a 0000 0727 	.long0x727
 2907 057e 08        	.byte0x8
 2908 057f 18        	.uleb128 0x18
 2909 0580 0000 0000 	.long.LASF93
 2910 0584 08        	.byte0x8
 2911 0585 0240      	.word0x240
 2912 0587 0000 0727 	.long0x727
 2913 058b 0C        	.byte0xc
 2914 058c 18        	.uleb128 0x18
 2915 058d 0000 0000 	.long.LASF94
 2916 0591 08        	.byte0x8
 2917 0592 0242      	.word0x242
 2918 0594 0000 00E1 	.long0xe1
 2919 0598 10        	.byte0x10
68K GAS   			page 86


 2920 0599 18        	.uleb128 0x18
 2921 059a 0000 0000 	.long.LASF95
 2922 059e 08        	.byte0x8
 2923 059f 0243      	.word0x243
 2924 05a1 0000 0909 	.long0x909
 2925 05a5 14        	.byte0x14
 2926 05a6 18        	.uleb128 0x18
 2927 05a7 0000 0000 	.long.LASF96
 2928 05ab 08        	.byte0x8
 2929 05ac 0246      	.word0x246
 2930 05ae 0000 00E1 	.long0xe1
 2931 05b2 30        	.byte0x30
 2932 05b3 18        	.uleb128 0x18
 2933 05b4 0000 0000 	.long.LASF97
 2934 05b8 08        	.byte0x8
 2935 05b9 0247      	.word0x247
 2936 05bb 0000 091E 	.long0x91e
 2937 05bf 34        	.byte0x34
 2938 05c0 18        	.uleb128 0x18
 2939 05c1 0000 0000 	.long.LASF98
 2940 05c5 08        	.byte0x8
 2941 05c6 0249      	.word0x249
 2942 05c8 0000 00E1 	.long0xe1
 2943 05cc 38        	.byte0x38
 2944 05cd 18        	.uleb128 0x18
 2945 05ce 0000 0000 	.long.LASF99
 2946 05d2 08        	.byte0x8
 2947 05d3 024B      	.word0x24b
 2948 05d5 0000 092F 	.long0x92f
 2949 05d9 3C        	.byte0x3c
 2950 05da 18        	.uleb128 0x18
 2951 05db 0000 0000 	.long.LASF100
 2952 05df 08        	.byte0x8
 2953 05e0 024E      	.word0x24e
 2954 05e2 0000 0292 	.long0x292
 2955 05e6 40        	.byte0x40
 2956 05e7 18        	.uleb128 0x18
 2957 05e8 0000 0000 	.long.LASF101
 2958 05ec 08        	.byte0x8
 2959 05ed 024F      	.word0x24f
 2960 05ef 0000 00E1 	.long0xe1
 2961 05f3 44        	.byte0x44
 2962 05f4 18        	.uleb128 0x18
 2963 05f5 0000 0000 	.long.LASF102
 2964 05f9 08        	.byte0x8
 2965 05fa 0250      	.word0x250
 2966 05fc 0000 0292 	.long0x292
 2967 0600 48        	.byte0x48
 2968 0601 18        	.uleb128 0x18
 2969 0602 0000 0000 	.long.LASF103
 2970 0606 08        	.byte0x8
 2971 0607 0251      	.word0x251
 2972 0609 0000 0935 	.long0x935
 2973 060d 4C        	.byte0x4c
 2974 060e 18        	.uleb128 0x18
 2975 060f 0000 0000 	.long.LASF104
 2976 0613 08        	.byte0x8
68K GAS   			page 87


 2977 0614 0254      	.word0x254
 2978 0616 0000 00E1 	.long0xe1
 2979 061a 50        	.byte0x50
 2980 061b 18        	.uleb128 0x18
 2981 061c 0000 0000 	.long.LASF105
 2982 0620 08        	.byte0x8
 2983 0621 0255      	.word0x255
 2984 0623 0000 0652 	.long0x652
 2985 0627 54        	.byte0x54
 2986 0628 18        	.uleb128 0x18
 2987 0629 0000 0000 	.long.LASF106
 2988 062d 08        	.byte0x8
 2989 062e 0278      	.word0x278
 2990 0630 0000 08E7 	.long0x8e7
 2991 0634 58        	.byte0x58
 2992 0635 19        	.uleb128 0x19
 2993 0636 0000 0000 	.long.LASF107
 2994 063a 08        	.byte0x8
 2995 063b 0281      	.word0x281
 2996 063d 0000 0946 	.long0x946
 2997 0641 0148      	.word0x148
 2998 0643 19        	.uleb128 0x19
 2999 0644 0000 0000 	.long.LASF108
 3000 0648 08        	.byte0x8
 3001 0649 0286      	.word0x286
 3002 064b 0000 06EC 	.long0x6ec
 3003 064f 014C      	.word0x14c
 3004 0651 00        	.byte0
 3005 0652 0B        	.uleb128 0xb
 3006 0653 04        	.byte0x4
 3007 0654 0000 00AB 	.long0xab
 3008 0658 0B        	.uleb128 0xb
 3009 0659 04        	.byte0x4
 3010 065a 0000 0521 	.long0x521
 3011 065e 15        	.uleb128 0x15
 3012 065f 0000 01B7 	.long0x1b7
 3013 0663 0000 067C 	.long0x67c
 3014 0667 16        	.uleb128 0x16
 3015 0668 0000 053F 	.long0x53f
 3016 066c 16        	.uleb128 0x16
 3017 066d 0000 00B7 	.long0xb7
 3018 0671 16        	.uleb128 0x16
 3019 0672 0000 0167 	.long0x167
 3020 0676 16        	.uleb128 0x16
 3021 0677 0000 00E1 	.long0xe1
 3022 067b 00        	.byte0
 3023 067c 0B        	.uleb128 0xb
 3024 067d 04        	.byte0x4
 3025 067e 0000 065E 	.long0x65e
 3026 0682 15        	.uleb128 0x15
 3027 0683 0000 00D6 	.long0xd6
 3028 0687 0000 06A0 	.long0x6a0
 3029 068b 16        	.uleb128 0x16
 3030 068c 0000 053F 	.long0x53f
 3031 0690 16        	.uleb128 0x16
 3032 0691 0000 00B7 	.long0xb7
 3033 0695 16        	.uleb128 0x16
68K GAS   			page 88


 3034 0696 0000 00D6 	.long0xd6
 3035 069a 16        	.uleb128 0x16
 3036 069b 0000 00E1 	.long0xe1
 3037 069f 00        	.byte0
 3038 06a0 0B        	.uleb128 0xb
 3039 06a1 04        	.byte0x4
 3040 06a2 0000 0682 	.long0x682
 3041 06a6 15        	.uleb128 0x15
 3042 06a7 0000 00E1 	.long0xe1
 3043 06ab 0000 06BA 	.long0x6ba
 3044 06af 16        	.uleb128 0x16
 3045 06b0 0000 053F 	.long0x53f
 3046 06b4 16        	.uleb128 0x16
 3047 06b5 0000 00B7 	.long0xb7
 3048 06b9 00        	.byte0
 3049 06ba 0B        	.uleb128 0xb
 3050 06bb 04        	.byte0x4
 3051 06bc 0000 06A6 	.long0x6a6
 3052 06c0 0E        	.uleb128 0xe
 3053 06c1 0000 0030 	.long0x30
 3054 06c5 0000 06D0 	.long0x6d0
 3055 06c9 0F        	.uleb128 0xf
 3056 06ca 0000 0091 	.long0x91
 3057 06ce 02        	.byte0x2
 3058 06cf 00        	.byte0
 3059 06d0 0E        	.uleb128 0xe
 3060 06d1 0000 0030 	.long0x30
 3061 06d5 0000 06E0 	.long0x6e0
 3062 06d9 0F        	.uleb128 0xf
 3063 06da 0000 0091 	.long0x91
 3064 06de 00        	.byte0
 3065 06df 00        	.byte0
 3066 06e0 04        	.uleb128 0x4
 3067 06e1 0000 0000 	.long.LASF109
 3068 06e5 08        	.byte0x8
 3069 06e6 011F      	.word0x11f
 3070 06e8 0000 03F7 	.long0x3f7
 3071 06ec 1A        	.uleb128 0x1a
 3072 06ed 0000 0000 	.long.LASF110
 3073 06f1 0C        	.byte0xc
 3074 06f2 08        	.byte0x8
 3075 06f3 0123      	.word0x123
 3076 06f5 0000 0721 	.long0x721
 3077 06f9 18        	.uleb128 0x18
 3078 06fa 0000 0000 	.long.LASF47
 3079 06fe 08        	.byte0x8
 3080 06ff 0125      	.word0x125
 3081 0701 0000 0721 	.long0x721
 3082 0705 00        	.byte0
 3083 0706 18        	.uleb128 0x18
 3084 0707 0000 0000 	.long.LASF111
 3085 070b 08        	.byte0x8
 3086 070c 0126      	.word0x126
 3087 070e 0000 00E1 	.long0xe1
 3088 0712 04        	.byte0x4
 3089 0713 18        	.uleb128 0x18
 3090 0714 0000 0000 	.long.LASF112
68K GAS   			page 89


 3091 0718 08        	.byte0x8
 3092 0719 0127      	.word0x127
 3093 071b 0000 0727 	.long0x727
 3094 071f 08        	.byte0x8
 3095 0720 00        	.byte0
 3096 0721 0B        	.uleb128 0xb
 3097 0722 04        	.byte0x4
 3098 0723 0000 06EC 	.long0x6ec
 3099 0727 0B        	.uleb128 0xb
 3100 0728 04        	.byte0x4
 3101 0729 0000 06E0 	.long0x6e0
 3102 072d 1A        	.uleb128 0x1a
 3103 072e 0000 0000 	.long.LASF113
 3104 0732 0E        	.byte0xe
 3105 0733 08        	.byte0x8
 3106 0734 013F      	.word0x13f
 3107 0736 0000 0762 	.long0x762
 3108 073a 18        	.uleb128 0x18
 3109 073b 0000 0000 	.long.LASF114
 3110 073f 08        	.byte0x8
 3111 0740 0140      	.word0x140
 3112 0742 0000 0762 	.long0x762
 3113 0746 00        	.byte0
 3114 0747 18        	.uleb128 0x18
 3115 0748 0000 0000 	.long.LASF115
 3116 074c 08        	.byte0x8
 3117 074d 0141      	.word0x141
 3118 074f 0000 0762 	.long0x762
 3119 0753 06        	.byte0x6
 3120 0754 18        	.uleb128 0x18
 3121 0755 0000 0000 	.long.LASF116
 3122 0759 08        	.byte0x8
 3123 075a 0142      	.word0x142
 3124 075c 0000 007F 	.long0x7f
 3125 0760 0C        	.byte0xc
 3126 0761 00        	.byte0
 3127 0762 0E        	.uleb128 0xe
 3128 0763 0000 007F 	.long0x7f
 3129 0767 0000 0772 	.long0x772
 3130 076b 0F        	.uleb128 0xf
 3131 076c 0000 0091 	.long0x91
 3132 0770 02        	.byte0x2
 3133 0771 00        	.byte0
 3134 0772 1B        	.uleb128 0x1b
 3135 0773 CC        	.byte0xcc
 3136 0774 08        	.byte0x8
 3137 0775 0259      	.word0x259
 3138 0777 0000 0873 	.long0x873
 3139 077b 18        	.uleb128 0x18
 3140 077c 0000 0000 	.long.LASF117
 3141 0780 08        	.byte0x8
 3142 0781 025B      	.word0x25b
 3143 0783 0000 010D 	.long0x10d
 3144 0787 00        	.byte0
 3145 0788 18        	.uleb128 0x18
 3146 0789 0000 0000 	.long.LASF118
 3147 078d 08        	.byte0x8
68K GAS   			page 90


 3148 078e 025C      	.word0x25c
 3149 0790 0000 0652 	.long0x652
 3150 0794 04        	.byte0x4
 3151 0795 18        	.uleb128 0x18
 3152 0796 0000 0000 	.long.LASF119
 3153 079a 08        	.byte0x8
 3154 079b 025D      	.word0x25d
 3155 079d 0000 0873 	.long0x873
 3156 07a1 08        	.byte0x8
 3157 07a2 18        	.uleb128 0x18
 3158 07a3 0000 0000 	.long.LASF120
 3159 07a7 08        	.byte0x8
 3160 07a8 025E      	.word0x25e
 3161 07aa 0000 02A8 	.long0x2a8
 3162 07ae 24        	.byte0x24
 3163 07af 18        	.uleb128 0x18
 3164 07b0 0000 0000 	.long.LASF121
 3165 07b4 08        	.byte0x8
 3166 07b5 025F      	.word0x25f
 3167 07b7 0000 00E1 	.long0xe1
 3168 07bb 48        	.byte0x48
 3169 07bc 18        	.uleb128 0x18
 3170 07bd 0000 0000 	.long.LASF122
 3171 07c1 08        	.byte0x8
 3172 07c2 0260      	.word0x260
 3173 07c4 0000 0098 	.long0x98
 3174 07c8 4C        	.byte0x4c
 3175 07c9 18        	.uleb128 0x18
 3176 07ca 0000 0000 	.long.LASF123
 3177 07ce 08        	.byte0x8
 3178 07cf 0261      	.word0x261
 3179 07d1 0000 072D 	.long0x72d
 3180 07d5 54        	.byte0x54
 3181 07d6 18        	.uleb128 0x18
 3182 07d7 0000 0000 	.long.LASF124
 3183 07db 08        	.byte0x8
 3184 07dc 0262      	.word0x262
 3185 07de 0000 021E 	.long0x21e
 3186 07e2 64        	.byte0x64
 3187 07e3 18        	.uleb128 0x18
 3188 07e4 0000 0000 	.long.LASF125
 3189 07e8 08        	.byte0x8
 3190 07e9 0263      	.word0x263
 3191 07eb 0000 021E 	.long0x21e
 3192 07ef 6C        	.byte0x6c
 3193 07f0 18        	.uleb128 0x18
 3194 07f1 0000 0000 	.long.LASF126
 3195 07f5 08        	.byte0x8
 3196 07f6 0264      	.word0x264
 3197 07f8 0000 021E 	.long0x21e
 3198 07fc 74        	.byte0x74
 3199 07fd 18        	.uleb128 0x18
 3200 07fe 0000 0000 	.long.LASF127
 3201 0802 08        	.byte0x8
 3202 0803 0265      	.word0x265
 3203 0805 0000 0883 	.long0x883
 3204 0809 7C        	.byte0x7c
68K GAS   			page 91


 3205 080a 18        	.uleb128 0x18
 3206 080b 0000 0000 	.long.LASF128
 3207 080f 08        	.byte0x8
 3208 0810 0266      	.word0x266
 3209 0812 0000 0893 	.long0x893
 3210 0816 84        	.byte0x84
 3211 0817 18        	.uleb128 0x18
 3212 0818 0000 0000 	.long.LASF129
 3213 081c 08        	.byte0x8
 3214 081d 0267      	.word0x267
 3215 081f 0000 00E1 	.long0xe1
 3216 0823 9C        	.byte0x9c
 3217 0824 18        	.uleb128 0x18
 3218 0825 0000 0000 	.long.LASF130
 3219 0829 08        	.byte0x8
 3220 082a 0268      	.word0x268
 3221 082c 0000 021E 	.long0x21e
 3222 0830 A0        	.byte0xa0
 3223 0831 18        	.uleb128 0x18
 3224 0832 0000 0000 	.long.LASF131
 3225 0836 08        	.byte0x8
 3226 0837 0269      	.word0x269
 3227 0839 0000 021E 	.long0x21e
 3228 083d A8        	.byte0xa8
 3229 083e 18        	.uleb128 0x18
 3230 083f 0000 0000 	.long.LASF132
 3231 0843 08        	.byte0x8
 3232 0844 026A      	.word0x26a
 3233 0846 0000 021E 	.long0x21e
 3234 084a B0        	.byte0xb0
 3235 084b 18        	.uleb128 0x18
 3236 084c 0000 0000 	.long.LASF133
 3237 0850 08        	.byte0x8
 3238 0851 026B      	.word0x26b
 3239 0853 0000 021E 	.long0x21e
 3240 0857 B8        	.byte0xb8
 3241 0858 18        	.uleb128 0x18
 3242 0859 0000 0000 	.long.LASF134
 3243 085d 08        	.byte0x8
 3244 085e 026C      	.word0x26c
 3245 0860 0000 021E 	.long0x21e
 3246 0864 C0        	.byte0xc0
 3247 0865 18        	.uleb128 0x18
 3248 0866 0000 0000 	.long.LASF135
 3249 086a 08        	.byte0x8
 3250 086b 026D      	.word0x26d
 3251 086d 0000 00E1 	.long0xe1
 3252 0871 C8        	.byte0xc8
 3253 0872 00        	.byte0
 3254 0873 0E        	.uleb128 0xe
 3255 0874 0000 00AB 	.long0xab
 3256 0878 0000 0883 	.long0x883
 3257 087c 0F        	.uleb128 0xf
 3258 087d 0000 0091 	.long0x91
 3259 0881 19        	.byte0x19
 3260 0882 00        	.byte0
 3261 0883 0E        	.uleb128 0xe
68K GAS   			page 92


 3262 0884 0000 00AB 	.long0xab
 3263 0888 0000 0893 	.long0x893
 3264 088c 0F        	.uleb128 0xf
 3265 088d 0000 0091 	.long0x91
 3266 0891 07        	.byte0x7
 3267 0892 00        	.byte0
 3268 0893 0E        	.uleb128 0xe
 3269 0894 0000 00AB 	.long0xab
 3270 0898 0000 08A3 	.long0x8a3
 3271 089c 0F        	.uleb128 0xf
 3272 089d 0000 0091 	.long0x91
 3273 08a1 17        	.byte0x17
 3274 08a2 00        	.byte0
 3275 08a3 1B        	.uleb128 0x1b
 3276 08a4 F0        	.byte0xf0
 3277 08a5 08        	.byte0x8
 3278 08a6 0272      	.word0x272
 3279 08a8 0000 08C7 	.long0x8c7
 3280 08ac 18        	.uleb128 0x18
 3281 08ad 0000 0000 	.long.LASF136
 3282 08b1 08        	.byte0x8
 3283 08b2 0275      	.word0x275
 3284 08b4 0000 08C7 	.long0x8c7
 3285 08b8 00        	.byte0
 3286 08b9 18        	.uleb128 0x18
 3287 08ba 0000 0000 	.long.LASF137
 3288 08be 08        	.byte0x8
 3289 08bf 0276      	.word0x276
 3290 08c1 0000 08D7 	.long0x8d7
 3291 08c5 78        	.byte0x78
 3292 08c6 00        	.byte0
 3293 08c7 0E        	.uleb128 0xe
 3294 08c8 0000 03F1 	.long0x3f1
 3295 08cc 0000 08D7 	.long0x8d7
 3296 08d0 0F        	.uleb128 0xf
 3297 08d1 0000 0091 	.long0x91
 3298 08d5 1D        	.byte0x1d
 3299 08d6 00        	.byte0
 3300 08d7 0E        	.uleb128 0xe
 3301 08d8 0000 010D 	.long0x10d
 3302 08dc 0000 08E7 	.long0x8e7
 3303 08e0 0F        	.uleb128 0xf
 3304 08e1 0000 0091 	.long0x91
 3305 08e5 1D        	.byte0x1d
 3306 08e6 00        	.byte0
 3307 08e7 1C        	.uleb128 0x1c
 3308 08e8 F0        	.byte0xf0
 3309 08e9 08        	.byte0x8
 3310 08ea 0257      	.word0x257
 3311 08ec 0000 0909 	.long0x909
 3312 08f0 1D        	.uleb128 0x1d
 3313 08f1 0000 0000 	.long.LASF89
 3314 08f5 08        	.byte0x8
 3315 08f6 026E      	.word0x26e
 3316 08f8 0000 0772 	.long0x772
 3317 08fc 1D        	.uleb128 0x1d
 3318 08fd 0000 0000 	.long.LASF138
68K GAS   			page 93


 3319 0901 08        	.byte0x8
 3320 0902 0277      	.word0x277
 3321 0904 0000 08A3 	.long0x8a3
 3322 0908 00        	.byte0
 3323 0909 0E        	.uleb128 0xe
 3324 090a 0000 00AB 	.long0xab
 3325 090e 0000 0919 	.long0x919
 3326 0912 0F        	.uleb128 0xf
 3327 0913 0000 0091 	.long0x91
 3328 0917 18        	.byte0x18
 3329 0918 00        	.byte0
 3330 0919 0A        	.uleb128 0xa
 3331 091a 0000 0000 	.long.LASF139
 3332 091e 0B        	.uleb128 0xb
 3333 091f 04        	.byte0x4
 3334 0920 0000 0919 	.long0x919
 3335 0924 1E        	.uleb128 0x1e
 3336 0925 0000 092F 	.long0x92f
 3337 0929 16        	.uleb128 0x16
 3338 092a 0000 053F 	.long0x53f
 3339 092e 00        	.byte0
 3340 092f 0B        	.uleb128 0xb
 3341 0930 04        	.byte0x4
 3342 0931 0000 0924 	.long0x924
 3343 0935 0B        	.uleb128 0xb
 3344 0936 04        	.byte0x4
 3345 0937 0000 0292 	.long0x292
 3346 093b 1E        	.uleb128 0x1e
 3347 093c 0000 0946 	.long0x946
 3348 0940 16        	.uleb128 0x16
 3349 0941 0000 00E1 	.long0xe1
 3350 0945 00        	.byte0
 3351 0946 0B        	.uleb128 0xb
 3352 0947 04        	.byte0x4
 3353 0948 0000 094C 	.long0x94c
 3354 094c 0B        	.uleb128 0xb
 3355 094d 04        	.byte0x4
 3356 094e 0000 093B 	.long0x93b
 3357 0952 0E        	.uleb128 0xe
 3358 0953 0000 06E0 	.long0x6e0
 3359 0957 0000 0962 	.long0x962
 3360 095b 0F        	.uleb128 0xf
 3361 095c 0000 0091 	.long0x91
 3362 0960 02        	.byte0x2
 3363 0961 00        	.byte0
 3364 0962 1F        	.uleb128 0x1f
 3365 0963 0000 0000 	.long.LASF140
 3366 0967 08        	.byte0x8
 3367 0968 028D      	.word0x28d
 3368 096a 0000 0952 	.long0x952
 3369 096e 1F        	.uleb128 0x1f
 3370 096f 0000 0000 	.long.LASF141
 3371 0973 08        	.byte0x8
 3372 0974 0307      	.word0x307
 3373 0976 0000 053F 	.long0x53f
 3374 097a 1F        	.uleb128 0x1f
 3375 097b 0000 0000 	.long.LASF142
68K GAS   			page 94


 3376 097f 08        	.byte0x8
 3377 0980 0308      	.word0x308
 3378 0982 0000 0545 	.long0x545
 3379 0986 1F        	.uleb128 0x1f
 3380 0987 0000 0000 	.long.LASF143
 3381 098b 08        	.byte0x8
 3382 098c 031A      	.word0x31a
 3383 098e 0000 03AF 	.long0x3af
 3384 0992 20        	.uleb128 0x20
 3385 0993 0000 0000 	.long.LASF144
 3386 0997 09        	.byte0x9
 3387 0998 63        	.byte0x63
 3388 0999 0000 0652 	.long0x652
 3389 099d 20        	.uleb128 0x20
 3390 099e 0000 0000 	.long.LASF145
 3391 09a2 0A        	.byte0xa
 3392 09a3 9A        	.byte0x9a
 3393 09a4 0000 005B 	.long0x5b
 3394 09a8 20        	.uleb128 0x20
 3395 09a9 0000 0000 	.long.LASF146
 3396 09ad 0A        	.byte0xa
 3397 09ae 9B        	.byte0x9b
 3398 09af 0000 00E1 	.long0xe1
 3399 09b3 0E        	.uleb128 0xe
 3400 09b4 0000 0652 	.long0x652
 3401 09b8 0000 09C3 	.long0x9c3
 3402 09bc 0F        	.uleb128 0xf
 3403 09bd 0000 0091 	.long0x91
 3404 09c1 01        	.byte0x1
 3405 09c2 00        	.byte0
 3406 09c3 20        	.uleb128 0x20
 3407 09c4 0000 0000 	.long.LASF147
 3408 09c8 0A        	.byte0xa
 3409 09c9 9E        	.byte0x9e
 3410 09ca 0000 09B3 	.long0x9b3
 3411 09ce 0B        	.uleb128 0xb
 3412 09cf 04        	.byte0x4
 3413 09d0 0000 09D4 	.long0x9d4
 3414 09d4 21        	.uleb128 0x21
 3415 09d5 0000 0050 	.long0x50
 3416 09d9 10        	.uleb128 0x10
 3417 09da 08        	.byte0x8
 3418 09db 0B        	.byte0xb
 3419 09dc 4D        	.byte0x4d
 3420 09dd 0000 09FA 	.long0x9fa
 3421 09e1 09        	.uleb128 0x9
 3422 09e2 0000 0000 	.long.LASF148
 3423 09e6 0B        	.byte0xb
 3424 09e7 4F        	.byte0x4f
 3425 09e8 0000 0086 	.long0x86
 3426 09ec 00        	.byte0
 3427 09ed 09        	.uleb128 0x9
 3428 09ee 0000 0000 	.long.LASF149
 3429 09f2 0B        	.byte0xb
 3430 09f3 50        	.byte0x50
 3431 09f4 0000 0086 	.long0x86
 3432 09f8 04        	.byte0x4
68K GAS   			page 95


 3433 09f9 00        	.byte0
 3434 09fa 02        	.uleb128 0x2
 3435 09fb 0000 0000 	.long.LASF150
 3436 09ff 0B        	.byte0xb
 3437 0a00 51        	.byte0x51
 3438 0a01 0000 09D9 	.long0x9d9
 3439 0a05 22        	.uleb128 0x22
 3440 0a06 05        	.byte0x5
 3441 0a07 04        	.byte0x4
 3442 0a08 0000 00E1 	.long0xe1
 3443 0a0c 0B        	.byte0xb
 3444 0a0d 65        	.byte0x65
 3445 0a0e 0000 0A25 	.long0xa25
 3446 0a12 23        	.uleb128 0x23
 3447 0a13 0000 0000 	.long.LASF151
 3448 0a17 7F        	.sleb128 -1
 3449 0a18 24        	.uleb128 0x24
 3450 0a19 0000 0000 	.long.LASF152
 3451 0a1d 00        	.byte0
 3452 0a1e 24        	.uleb128 0x24
 3453 0a1f 0000 0000 	.long.LASF153
 3454 0a23 01        	.byte0x1
 3455 0a24 00        	.byte0
 3456 0a25 02        	.uleb128 0x2
 3457 0a26 0000 0000 	.long.LASF154
 3458 0a2a 0B        	.byte0xb
 3459 0a2b A5        	.byte0xa5
 3460 0a2c 0000 09CE 	.long0x9ce
 3461 0a30 10        	.uleb128 0x10
 3462 0a31 06        	.byte0x6
 3463 0a32 0C        	.byte0xc
 3464 0a33 58        	.byte0x58
 3465 0a34 0000 0A5D 	.long0xa5d
 3466 0a38 09        	.uleb128 0x9
 3467 0a39 0000 0000 	.long.LASF155
 3468 0a3d 0C        	.byte0xc
 3469 0a3e 5A        	.byte0x5a
 3470 0a3f 0000 0A5D 	.long0xa5d
 3471 0a43 00        	.byte0
 3472 0a44 09        	.uleb128 0x9
 3473 0a45 0000 0000 	.long.LASF156
 3474 0a49 0C        	.byte0xc
 3475 0a4a 61        	.byte0x61
 3476 0a4b 0000 0A5D 	.long0xa5d
 3477 0a4f 02        	.byte0x2
 3478 0a50 09        	.uleb128 0x9
 3479 0a51 0000 0000 	.long.LASF157
 3480 0a55 0C        	.byte0xc
 3481 0a56 66        	.byte0x66
 3482 0a57 0000 0A5D 	.long0xa5d
 3483 0a5b 04        	.byte0x4
 3484 0a5c 00        	.byte0
 3485 0a5d 0E        	.uleb128 0xe
 3486 0a5e 0000 0069 	.long0x69
 3487 0a62 0000 0A6D 	.long0xa6d
 3488 0a66 0F        	.uleb128 0xf
 3489 0a67 0000 0091 	.long0x91
68K GAS   			page 96


 3490 0a6b 01        	.byte0x1
 3491 0a6c 00        	.byte0
 3492 0a6d 02        	.uleb128 0x2
 3493 0a6e 0000 0000 	.long.LASF158
 3494 0a72 0C        	.byte0xc
 3495 0a73 6A        	.byte0x6a
 3496 0a74 0000 0A30 	.long0xa30
 3497 0a78 0E        	.uleb128 0xe
 3498 0a79 0000 0069 	.long0x69
 3499 0a7d 0000 0A88 	.long0xa88
 3500 0a81 0F        	.uleb128 0xf
 3501 0a82 0000 0091 	.long0x91
 3502 0a86 05        	.byte0x5
 3503 0a87 00        	.byte0
 3504 0a88 0C        	.uleb128 0xc
 3505 0a89 08        	.byte0x8
 3506 0a8a 0D        	.byte0xd
 3507 0a8b 75        	.byte0x75
 3508 0a8c 0000 0AB2 	.long0xab2
 3509 0a90 25        	.uleb128 0x25
 3510 0a91 4864 7200 	.string"Hdr"
 3511 0a95 0D        	.byte0xd
 3512 0a96 76        	.byte0x76
 3513 0a97 0000 0A6D 	.long0xa6d
 3514 0a9b 0D        	.uleb128 0xd
 3515 0a9c 0000 0000 	.long.LASF159
 3516 0aa0 0D        	.byte0xd
 3517 0aa1 77        	.byte0x77
 3518 0aa2 0000 0086 	.long0x86
 3519 0aa6 0D        	.uleb128 0xd
 3520 0aa7 0000 0000 	.long.LASF160
 3521 0aab 0D        	.byte0xd
 3522 0aac 78        	.byte0x78
 3523 0aad 0000 0A78 	.long0xa78
 3524 0ab1 00        	.byte0
 3525 0ab2 02        	.uleb128 0x2
 3526 0ab3 0000 0000 	.long.LASF161
 3527 0ab7 0D        	.byte0xd
 3528 0ab8 79        	.byte0x79
 3529 0ab9 0000 0A88 	.long0xa88
 3530 0abd 02        	.uleb128 0x2
 3531 0abe 0000 0000 	.long.LASF162
 3532 0ac2 0D        	.byte0xd
 3533 0ac3 98        	.byte0x98
 3534 0ac4 0000 0069 	.long0x69
 3535 0ac8 02        	.uleb128 0x2
 3536 0ac9 0000 0000 	.long.LASF163
 3537 0acd 0D        	.byte0xd
 3538 0ace 9E        	.byte0x9e
 3539 0acf 0000 0074 	.long0x74
 3540 0ad3 02        	.uleb128 0x2
 3541 0ad4 0000 0000 	.long.LASF164
 3542 0ad8 0D        	.byte0xd
 3543 0ad9 A1        	.byte0xa1
 3544 0ada 0000 0ADE 	.long0xade
 3545 0ade 0B        	.uleb128 0xb
 3546 0adf 04        	.byte0x4
68K GAS   			page 97


 3547 0ae0 0000 0AB2 	.long0xab2
 3548 0ae4 02        	.uleb128 0x2
 3549 0ae5 0000 0000 	.long.LASF165
 3550 0ae9 0D        	.byte0xd
 3551 0aea A4        	.byte0xa4
 3552 0aeb 0000 0AEF 	.long0xaef
 3553 0aef 0B        	.uleb128 0xb
 3554 0af0 04        	.byte0x4
 3555 0af1 0000 0069 	.long0x69
 3556 0af5 10        	.uleb128 0x10
 3557 0af6 02        	.byte0x2
 3558 0af7 0D        	.byte0xd
 3559 0af8 B1        	.byte0xb1
 3560 0af9 0000 0B16 	.long0xb16
 3561 0afd 09        	.uleb128 0x9
 3562 0afe 0000 0000 	.long.LASF166
 3563 0b02 0D        	.byte0xd
 3564 0b03 B2        	.byte0xb2
 3565 0b04 0000 0069 	.long0x69
 3566 0b08 00        	.byte0
 3567 0b09 09        	.uleb128 0x9
 3568 0b0a 0000 0000 	.long.LASF167
 3569 0b0e 0D        	.byte0xd
 3570 0b0f B3        	.byte0xb3
 3571 0b10 0000 0069 	.long0x69
 3572 0b14 01        	.byte0x1
 3573 0b15 00        	.byte0
 3574 0b16 02        	.uleb128 0x2
 3575 0b17 0000 0000 	.long.LASF168
 3576 0b1b 0D        	.byte0xd
 3577 0b1c B4        	.byte0xb4
 3578 0b1d 0000 0AF5 	.long0xaf5
 3579 0b21 20        	.uleb128 0x20
 3580 0b22 0000 0000 	.long.LASF169
 3581 0b26 0D        	.byte0xd
 3582 0b27 B6        	.byte0xb6
 3583 0b28 0000 0B16 	.long0xb16
 3584 0b2c 0E        	.uleb128 0xe
 3585 0b2d 0000 0069 	.long0x69
 3586 0b31 0000 0B3C 	.long0xb3c
 3587 0b35 0F        	.uleb128 0xf
 3588 0b36 0000 0091 	.long0x91
 3589 0b3a 07        	.byte0x7
 3590 0b3b 00        	.byte0
 3591 0b3c 0E        	.uleb128 0xe
 3592 0b3d 0000 0069 	.long0x69
 3593 0b41 0000 0B4C 	.long0xb4c
 3594 0b45 0F        	.uleb128 0xf
 3595 0b46 0000 0091 	.long0x91
 3596 0b4a 0B        	.byte0xb
 3597 0b4b 00        	.byte0
 3598 0b4c 1B        	.uleb128 0x1b
 3599 0b4d 02        	.byte0x2
 3600 0b4e 0E        	.byte0xe
 3601 0b4f 0325      	.word0x325
 3602 0b51 0000 0B63 	.long0xb63
 3603 0b55 18        	.uleb128 0x18
68K GAS   			page 98


 3604 0b56 0000 0000 	.long.LASF170
 3605 0b5a 0E        	.byte0xe
 3606 0b5b 0327      	.word0x327
 3607 0b5d 0000 003E 	.long0x3e
 3608 0b61 00        	.byte0
 3609 0b62 00        	.byte0
 3610 0b63 04        	.uleb128 0x4
 3611 0b64 0000 0000 	.long.LASF171
 3612 0b68 0E        	.byte0xe
 3613 0b69 0328      	.word0x328
 3614 0b6b 0000 0B4C 	.long0xb4c
 3615 0b6f 1B        	.uleb128 0x1b
 3616 0b70 02        	.byte0x2
 3617 0b71 0E        	.byte0xe
 3618 0b72 0334      	.word0x334
 3619 0b74 0000 0B86 	.long0xb86
 3620 0b78 18        	.uleb128 0x18
 3621 0b79 0000 0000 	.long.LASF172
 3622 0b7d 0E        	.byte0xe
 3623 0b7e 0336      	.word0x336
 3624 0b80 0000 003E 	.long0x3e
 3625 0b84 00        	.byte0
 3626 0b85 00        	.byte0
 3627 0b86 04        	.uleb128 0x4
 3628 0b87 0000 0000 	.long.LASF173
 3629 0b8b 0E        	.byte0xe
 3630 0b8c 033A      	.word0x33a
 3631 0b8e 0000 0B6F 	.long0xb6f
 3632 0b92 1B        	.uleb128 0x1b
 3633 0b93 02        	.byte0x2
 3634 0b94 0E        	.byte0xe
 3635 0b95 0346      	.word0x346
 3636 0b97 0000 0BA9 	.long0xba9
 3637 0b9b 18        	.uleb128 0x18
 3638 0b9c 0000 0000 	.long.LASF174
 3639 0ba0 0E        	.byte0xe
 3640 0ba1 0348      	.word0x348
 3641 0ba3 0000 003E 	.long0x3e
 3642 0ba7 00        	.byte0
 3643 0ba8 00        	.byte0
 3644 0ba9 04        	.uleb128 0x4
 3645 0baa 0000 0000 	.long.LASF175
 3646 0bae 0E        	.byte0xe
 3647 0baf 034B      	.word0x34b
 3648 0bb1 0000 0B92 	.long0xb92
 3649 0bb5 1B        	.uleb128 0x1b
 3650 0bb6 02        	.byte0x2
 3651 0bb7 0E        	.byte0xe
 3652 0bb8 0357      	.word0x357
 3653 0bba 0000 0BCC 	.long0xbcc
 3654 0bbe 18        	.uleb128 0x18
 3655 0bbf 0000 0000 	.long.LASF176
 3656 0bc3 0E        	.byte0xe
 3657 0bc4 0359      	.word0x359
 3658 0bc6 0000 003E 	.long0x3e
 3659 0bca 00        	.byte0
 3660 0bcb 00        	.byte0
68K GAS   			page 99


 3661 0bcc 04        	.uleb128 0x4
 3662 0bcd 0000 0000 	.long.LASF177
 3663 0bd1 0E        	.byte0xe
 3664 0bd2 035C      	.word0x35c
 3665 0bd4 0000 0BB5 	.long0xbb5
 3666 0bd8 1B        	.uleb128 0x1b
 3667 0bd9 08        	.byte0x8
 3668 0bda 0E        	.byte0xe
 3669 0bdb 0369      	.word0x369
 3670 0bdd 0000 0BFC 	.long0xbfc
 3671 0be1 18        	.uleb128 0x18
 3672 0be2 0000 0000 	.long.LASF148
 3673 0be6 0E        	.byte0xe
 3674 0be7 036B      	.word0x36b
 3675 0be9 0000 0086 	.long0x86
 3676 0bed 00        	.byte0
 3677 0bee 18        	.uleb128 0x18
 3678 0bef 0000 0000 	.long.LASF178
 3679 0bf3 0E        	.byte0xe
 3680 0bf4 036C      	.word0x36c
 3681 0bf6 0000 0086 	.long0x86
 3682 0bfa 04        	.byte0x4
 3683 0bfb 00        	.byte0
 3684 0bfc 04        	.uleb128 0x4
 3685 0bfd 0000 0000 	.long.LASF179
 3686 0c01 0E        	.byte0xe
 3687 0c02 036D      	.word0x36d
 3688 0c04 0000 0BD8 	.long0xbd8
 3689 0c08 1B        	.uleb128 0x1b
 3690 0c09 08        	.byte0x8
 3691 0c0a 0E        	.byte0xe
 3692 0c0b 0379      	.word0x379
 3693 0c0d 0000 0C2C 	.long0xc2c
 3694 0c11 18        	.uleb128 0x18
 3695 0c12 0000 0000 	.long.LASF148
 3696 0c16 0E        	.byte0xe
 3697 0c17 037B      	.word0x37b
 3698 0c19 0000 0086 	.long0x86
 3699 0c1d 00        	.byte0
 3700 0c1e 18        	.uleb128 0x18
 3701 0c1f 0000 0000 	.long.LASF149
 3702 0c23 0E        	.byte0xe
 3703 0c24 037C      	.word0x37c
 3704 0c26 0000 0086 	.long0x86
 3705 0c2a 04        	.byte0x4
 3706 0c2b 00        	.byte0
 3707 0c2c 04        	.uleb128 0x4
 3708 0c2d 0000 0000 	.long.LASF180
 3709 0c31 0E        	.byte0xe
 3710 0c32 037E      	.word0x37e
 3711 0c34 0000 0C08 	.long0xc08
 3712 0c38 1B        	.uleb128 0x1b
 3713 0c39 08        	.byte0x8
 3714 0c3a 0E        	.byte0xe
 3715 0c3b 038B      	.word0x38b
 3716 0c3d 0000 0C4F 	.long0xc4f
 3717 0c41 18        	.uleb128 0x18
68K GAS   			page 100


 3718 0c42 0000 0000 	.long.LASF181
 3719 0c46 0E        	.byte0xe
 3720 0c47 038D      	.word0x38d
 3721 0c49 0000 0B2C 	.long0xb2c
 3722 0c4d 00        	.byte0
 3723 0c4e 00        	.byte0
 3724 0c4f 04        	.uleb128 0x4
 3725 0c50 0000 0000 	.long.LASF182
 3726 0c54 0E        	.byte0xe
 3727 0c55 038F      	.word0x38f
 3728 0c57 0000 0C38 	.long0xc38
 3729 0c5b 1B        	.uleb128 0x1b
 3730 0c5c 08        	.byte0x8
 3731 0c5d 0E        	.byte0xe
 3732 0c5e 0395      	.word0x395
 3733 0c60 0000 0C72 	.long0xc72
 3734 0c64 18        	.uleb128 0x18
 3735 0c65 0000 0000 	.long.LASF181
 3736 0c69 0E        	.byte0xe
 3737 0c6a 0397      	.word0x397
 3738 0c6c 0000 0B2C 	.long0xb2c
 3739 0c70 00        	.byte0
 3740 0c71 00        	.byte0
 3741 0c72 04        	.uleb128 0x4
 3742 0c73 0000 0000 	.long.LASF183
 3743 0c77 0E        	.byte0xe
 3744 0c78 0399      	.word0x399
 3745 0c7a 0000 0C5B 	.long0xc5b
 3746 0c7e 1B        	.uleb128 0x1b
 3747 0c7f 08        	.byte0x8
 3748 0c80 0E        	.byte0xe
 3749 0c81 039F      	.word0x39f
 3750 0c83 0000 0C95 	.long0xc95
 3751 0c87 18        	.uleb128 0x18
 3752 0c88 0000 0000 	.long.LASF181
 3753 0c8c 0E        	.byte0xe
 3754 0c8d 03A1      	.word0x3a1
 3755 0c8f 0000 0B2C 	.long0xb2c
 3756 0c93 00        	.byte0
 3757 0c94 00        	.byte0
 3758 0c95 04        	.uleb128 0x4
 3759 0c96 0000 0000 	.long.LASF184
 3760 0c9a 0E        	.byte0xe
 3761 0c9b 03A3      	.word0x3a3
 3762 0c9d 0000 0C7E 	.long0xc7e
 3763 0ca1 1B        	.uleb128 0x1b
 3764 0ca2 14        	.byte0x14
 3765 0ca3 0E        	.byte0xe
 3766 0ca4 03A9      	.word0x3a9
 3767 0ca6 0000 0CDF 	.long0xcdf
 3768 0caa 18        	.uleb128 0x18
 3769 0cab 0000 0000 	.long.LASF185
 3770 0caf 0E        	.byte0xe
 3771 0cb0 03AB      	.word0x3ab
 3772 0cb2 0000 09FA 	.long0x9fa
 3773 0cb6 00        	.byte0
 3774 0cb7 18        	.uleb128 0x18
68K GAS   			page 101


 3775 0cb8 0000 0000 	.long.LASF186
 3776 0cbc 0E        	.byte0xe
 3777 0cbd 03AC      	.word0x3ac
 3778 0cbf 0000 09FA 	.long0x9fa
 3779 0cc3 08        	.byte0x8
 3780 0cc4 18        	.uleb128 0x18
 3781 0cc5 0000 0000 	.long.LASF187
 3782 0cc9 0E        	.byte0xe
 3783 0cca 03AD      	.word0x3ad
 3784 0ccc 0000 003E 	.long0x3e
 3785 0cd0 10        	.byte0x10
 3786 0cd1 18        	.uleb128 0x18
 3787 0cd2 0000 0000 	.long.LASF188
 3788 0cd6 0E        	.byte0xe
 3789 0cd7 03AE      	.word0x3ae
 3790 0cd9 0000 003E 	.long0x3e
 3791 0cdd 12        	.byte0x12
 3792 0cde 00        	.byte0
 3793 0cdf 04        	.uleb128 0x4
 3794 0ce0 0000 0000 	.long.LASF189
 3795 0ce4 0E        	.byte0xe
 3796 0ce5 03AF      	.word0x3af
 3797 0ce7 0000 0CA1 	.long0xca1
 3798 0ceb 1B        	.uleb128 0x1b
 3799 0cec 1C        	.byte0x1c
 3800 0ced 0E        	.byte0xe
 3801 0cee 03B1      	.word0x3b1
 3802 0cf0 0000 0D0F 	.long0xd0f
 3803 0cf4 18        	.uleb128 0x18
 3804 0cf5 0000 0000 	.long.LASF181
 3805 0cf9 0E        	.byte0xe
 3806 0cfa 03B3      	.word0x3b3
 3807 0cfc 0000 0B2C 	.long0xb2c
 3808 0d00 00        	.byte0
 3809 0d01 18        	.uleb128 0x18
 3810 0d02 0000 0000 	.long.LASF190
 3811 0d06 0E        	.byte0xe
 3812 0d07 03B4      	.word0x3b4
 3813 0d09 0000 0CDF 	.long0xcdf
 3814 0d0d 08        	.byte0x8
 3815 0d0e 00        	.byte0
 3816 0d0f 04        	.uleb128 0x4
 3817 0d10 0000 0000 	.long.LASF191
 3818 0d14 0E        	.byte0xe
 3819 0d15 03B5      	.word0x3b5
 3820 0d17 0000 0CEB 	.long0xceb
 3821 0d1b 1B        	.uleb128 0x1b
 3822 0d1c 20        	.byte0x20
 3823 0d1d 0E        	.byte0xe
 3824 0d1e 03BD      	.word0x3bd
 3825 0d20 0000 0DB4 	.long0xdb4
 3826 0d24 18        	.uleb128 0x18
 3827 0d25 0000 0000 	.long.LASF192
 3828 0d29 0E        	.byte0xe
 3829 0d2a 03C2      	.word0x3c2
 3830 0d2c 0000 0069 	.long0x69
 3831 0d30 00        	.byte0
68K GAS   			page 102


 3832 0d31 18        	.uleb128 0x18
 3833 0d32 0000 0000 	.long.LASF193
 3834 0d36 0E        	.byte0xe
 3835 0d37 03C4      	.word0x3c4
 3836 0d39 0000 0069 	.long0x69
 3837 0d3d 01        	.byte0x1
 3838 0d3e 18        	.uleb128 0x18
 3839 0d3f 0000 0000 	.long.LASF194
 3840 0d43 0E        	.byte0xe
 3841 0d44 03CA      	.word0x3ca
 3842 0d46 0000 0074 	.long0x74
 3843 0d4a 02        	.byte0x2
 3844 0d4b 18        	.uleb128 0x18
 3845 0d4c 0000 0000 	.long.LASF195
 3846 0d50 0E        	.byte0xe
 3847 0d51 03CC      	.word0x3cc
 3848 0d53 0000 003E 	.long0x3e
 3849 0d57 04        	.byte0x4
 3850 0d58 18        	.uleb128 0x18
 3851 0d59 0000 0000 	.long.LASF170
 3852 0d5d 0E        	.byte0xe
 3853 0d5e 03D2      	.word0x3d2
 3854 0d60 0000 003E 	.long0x3e
 3855 0d64 06        	.byte0x6
 3856 0d65 18        	.uleb128 0x18
 3857 0d66 0000 0000 	.long.LASF196
 3858 0d6a 0E        	.byte0xe
 3859 0d6b 03D8      	.word0x3d8
 3860 0d6d 0000 0086 	.long0x86
 3861 0d71 08        	.byte0x8
 3862 0d72 18        	.uleb128 0x18
 3863 0d73 0000 0000 	.long.LASF197
 3864 0d77 0E        	.byte0xe
 3865 0d78 03DA      	.word0x3da
 3866 0d7a 0000 0086 	.long0x86
 3867 0d7e 0C        	.byte0xc
 3868 0d7f 18        	.uleb128 0x18
 3869 0d80 0000 0000 	.long.LASF198
 3870 0d84 0E        	.byte0xe
 3871 0d85 03DD      	.word0x3dd
 3872 0d87 0000 0086 	.long0x86
 3873 0d8b 10        	.byte0x10
 3874 0d8c 18        	.uleb128 0x18
 3875 0d8d 0000 0000 	.long.LASF199
 3876 0d91 0E        	.byte0xe
 3877 0d92 03DF      	.word0x3df
 3878 0d94 0000 0086 	.long0x86
 3879 0d98 14        	.byte0x14
 3880 0d99 18        	.uleb128 0x18
 3881 0d9a 0000 0000 	.long.LASF200
 3882 0d9e 0E        	.byte0xe
 3883 0d9f 03E6      	.word0x3e6
 3884 0da1 0000 0086 	.long0x86
 3885 0da5 18        	.byte0x18
 3886 0da6 18        	.uleb128 0x18
 3887 0da7 0000 0000 	.long.LASF201
 3888 0dab 0E        	.byte0xe
68K GAS   			page 103


 3889 0dac 03E8      	.word0x3e8
 3890 0dae 0000 0086 	.long0x86
 3891 0db2 1C        	.byte0x1c
 3892 0db3 00        	.byte0
 3893 0db4 04        	.uleb128 0x4
 3894 0db5 0000 0000 	.long.LASF202
 3895 0db9 0E        	.byte0xe
 3896 0dba 03F6      	.word0x3f6
 3897 0dbc 0000 0D1B 	.long0xd1b
 3898 0dc0 1B        	.uleb128 0x1b
 3899 0dc1 2C        	.byte0x2c
 3900 0dc2 0E        	.byte0xe
 3901 0dc3 03F8      	.word0x3f8
 3902 0dc5 0000 0DE4 	.long0xde4
 3903 0dc9 18        	.uleb128 0x18
 3904 0dca 0000 0000 	.long.LASF203
 3905 0dce 0E        	.byte0xe
 3906 0dcf 03FA      	.word0x3fa
 3907 0dd1 0000 0B3C 	.long0xb3c
 3908 0dd5 00        	.byte0
 3909 0dd6 18        	.uleb128 0x18
 3910 0dd7 0000 0000 	.long.LASF190
 3911 0ddb 0E        	.byte0xe
 3912 0ddc 03FB      	.word0x3fb
 3913 0dde 0000 0DB4 	.long0xdb4
 3914 0de2 0C        	.byte0xc
 3915 0de3 00        	.byte0
 3916 0de4 04        	.uleb128 0x4
 3917 0de5 0000 0000 	.long.LASF204
 3918 0de9 0E        	.byte0xe
 3919 0dea 03FC      	.word0x3fc
 3920 0dec 0000 0DC0 	.long0xdc0
 3921 0df0 1B        	.uleb128 0x1b
 3922 0df1 C8        	.byte0xc8
 3923 0df2 0E        	.byte0xe
 3924 0df3 0404      	.word0x404
 3925 0df5 0000 101C 	.long0x101c
 3926 0df9 18        	.uleb128 0x18
 3927 0dfa 0000 0000 	.long.LASF185
 3928 0dfe 0E        	.byte0xe
 3929 0dff 0409      	.word0x409
 3930 0e01 0000 09FA 	.long0x9fa
 3931 0e05 00        	.byte0
 3932 0e06 18        	.uleb128 0x18
 3933 0e07 0000 0000 	.long.LASF186
 3934 0e0b 0E        	.byte0xe
 3935 0e0c 040B      	.word0x40b
 3936 0e0e 0000 09FA 	.long0x9fa
 3937 0e12 08        	.byte0x8
 3938 0e13 18        	.uleb128 0x18
 3939 0e14 0000 0000 	.long.LASF205
 3940 0e18 0E        	.byte0xe
 3941 0e19 040D      	.word0x40d
 3942 0e1b 0000 09FA 	.long0x9fa
 3943 0e1f 10        	.byte0x10
 3944 0e20 18        	.uleb128 0x18
 3945 0e21 0000 0000 	.long.LASF206
68K GAS   			page 104


 3946 0e25 0E        	.byte0xe
 3947 0e26 040F      	.word0x40f
 3948 0e28 0000 09FA 	.long0x9fa
 3949 0e2c 18        	.byte0x18
 3950 0e2d 18        	.uleb128 0x18
 3951 0e2e 0000 0000 	.long.LASF187
 3952 0e32 0E        	.byte0xe
 3953 0e33 0412      	.word0x412
 3954 0e35 0000 003E 	.long0x3e
 3955 0e39 20        	.byte0x20
 3956 0e3a 18        	.uleb128 0x18
 3957 0e3b 0000 0000 	.long.LASF195
 3958 0e3f 0E        	.byte0xe
 3959 0e40 0414      	.word0x414
 3960 0e42 0000 003E 	.long0x3e
 3961 0e46 22        	.byte0x22
 3962 0e47 18        	.uleb128 0x18
 3963 0e48 0000 0000 	.long.LASF207
 3964 0e4c 0E        	.byte0xe
 3965 0e4d 041A      	.word0x41a
 3966 0e4f 0000 09FA 	.long0x9fa
 3967 0e53 24        	.byte0x24
 3968 0e54 18        	.uleb128 0x18
 3969 0e55 0000 0000 	.long.LASF208
 3970 0e59 0E        	.byte0xe
 3971 0e5a 041C      	.word0x41c
 3972 0e5c 0000 09FA 	.long0x9fa
 3973 0e60 2C        	.byte0x2c
 3974 0e61 18        	.uleb128 0x18
 3975 0e62 0000 0000 	.long.LASF209
 3976 0e66 0E        	.byte0xe
 3977 0e67 041E      	.word0x41e
 3978 0e69 0000 09FA 	.long0x9fa
 3979 0e6d 34        	.byte0x34
 3980 0e6e 18        	.uleb128 0x18
 3981 0e6f 0000 0000 	.long.LASF210
 3982 0e73 0E        	.byte0xe
 3983 0e74 0420      	.word0x420
 3984 0e76 0000 09FA 	.long0x9fa
 3985 0e7a 3C        	.byte0x3c
 3986 0e7b 18        	.uleb128 0x18
 3987 0e7c 0000 0000 	.long.LASF211
 3988 0e80 0E        	.byte0xe
 3989 0e81 0422      	.word0x422
 3990 0e83 0000 09FA 	.long0x9fa
 3991 0e87 44        	.byte0x44
 3992 0e88 18        	.uleb128 0x18
 3993 0e89 0000 0000 	.long.LASF212
 3994 0e8d 0E        	.byte0xe
 3995 0e8e 0428      	.word0x428
 3996 0e90 0000 003E 	.long0x3e
 3997 0e94 4C        	.byte0x4c
 3998 0e95 18        	.uleb128 0x18
 3999 0e96 0000 0000 	.long.LASF213
 4000 0e9a 0E        	.byte0xe
 4001 0e9b 042A      	.word0x42a
 4002 0e9d 0000 003E 	.long0x3e
68K GAS   			page 105


 4003 0ea1 4E        	.byte0x4e
 4004 0ea2 18        	.uleb128 0x18
 4005 0ea3 0000 0000 	.long.LASF214
 4006 0ea7 0E        	.byte0xe
 4007 0ea8 042C      	.word0x42c
 4008 0eaa 0000 003E 	.long0x3e
 4009 0eae 50        	.byte0x50
 4010 0eaf 18        	.uleb128 0x18
 4011 0eb0 0000 0000 	.long.LASF215
 4012 0eb4 0E        	.byte0xe
 4013 0eb5 042E      	.word0x42e
 4014 0eb7 0000 003E 	.long0x3e
 4015 0ebb 52        	.byte0x52
 4016 0ebc 18        	.uleb128 0x18
 4017 0ebd 0000 0000 	.long.LASF216
 4018 0ec1 0E        	.byte0xe
 4019 0ec2 0430      	.word0x430
 4020 0ec4 0000 003E 	.long0x3e
 4021 0ec8 54        	.byte0x54
 4022 0ec9 18        	.uleb128 0x18
 4023 0eca 0000 0000 	.long.LASF217
 4024 0ece 0E        	.byte0xe
 4025 0ecf 0432      	.word0x432
 4026 0ed1 0000 003E 	.long0x3e
 4027 0ed5 56        	.byte0x56
 4028 0ed6 18        	.uleb128 0x18
 4029 0ed7 0000 0000 	.long.LASF194
 4030 0edb 0E        	.byte0xe
 4031 0edc 0438      	.word0x438
 4032 0ede 0000 0074 	.long0x74
 4033 0ee2 58        	.byte0x58
 4034 0ee3 18        	.uleb128 0x18
 4035 0ee4 0000 0000 	.long.LASF218
 4036 0ee8 0E        	.byte0xe
 4037 0ee9 043E      	.word0x43e
 4038 0eeb 0000 003E 	.long0x3e
 4039 0eef 5A        	.byte0x5a
 4040 0ef0 18        	.uleb128 0x18
 4041 0ef1 0000 0000 	.long.LASF219
 4042 0ef5 0E        	.byte0xe
 4043 0ef6 0440      	.word0x440
 4044 0ef8 0000 003E 	.long0x3e
 4045 0efc 5C        	.byte0x5c
 4046 0efd 18        	.uleb128 0x18
 4047 0efe 0000 0000 	.long.LASF220
 4048 0f02 0E        	.byte0xe
 4049 0f03 0442      	.word0x442
 4050 0f05 0000 003E 	.long0x3e
 4051 0f09 5E        	.byte0x5e
 4052 0f0a 18        	.uleb128 0x18
 4053 0f0b 0000 0000 	.long.LASF221
 4054 0f0f 0E        	.byte0xe
 4055 0f10 0448      	.word0x448
 4056 0f12 0000 09FA 	.long0x9fa
 4057 0f16 60        	.byte0x60
 4058 0f17 18        	.uleb128 0x18
 4059 0f18 0000 0000 	.long.LASF222
68K GAS   			page 106


 4060 0f1c 0E        	.byte0xe
 4061 0f1d 044A      	.word0x44a
 4062 0f1f 0000 09FA 	.long0x9fa
 4063 0f23 68        	.byte0x68
 4064 0f24 18        	.uleb128 0x18
 4065 0f25 0000 0000 	.long.LASF223
 4066 0f29 0E        	.byte0xe
 4067 0f2a 0450      	.word0x450
 4068 0f2c 0000 09FA 	.long0x9fa
 4069 0f30 70        	.byte0x70
 4070 0f31 18        	.uleb128 0x18
 4071 0f32 0000 0000 	.long.LASF224
 4072 0f36 0E        	.byte0xe
 4073 0f37 0452      	.word0x452
 4074 0f39 0000 09FA 	.long0x9fa
 4075 0f3d 78        	.byte0x78
 4076 0f3e 18        	.uleb128 0x18
 4077 0f3f 0000 0000 	.long.LASF225
 4078 0f43 0E        	.byte0xe
 4079 0f44 0458      	.word0x458
 4080 0f46 0000 0086 	.long0x86
 4081 0f4a 80        	.byte0x80
 4082 0f4b 18        	.uleb128 0x18
 4083 0f4c 0000 0000 	.long.LASF226
 4084 0f50 0E        	.byte0xe
 4085 0f51 045A      	.word0x45a
 4086 0f53 0000 0086 	.long0x86
 4087 0f57 84        	.byte0x84
 4088 0f58 18        	.uleb128 0x18
 4089 0f59 0000 0000 	.long.LASF227
 4090 0f5d 0E        	.byte0xe
 4091 0f5e 045C      	.word0x45c
 4092 0f60 0000 0086 	.long0x86
 4093 0f64 88        	.byte0x88
 4094 0f65 18        	.uleb128 0x18
 4095 0f66 0000 0000 	.long.LASF228
 4096 0f6a 0E        	.byte0xe
 4097 0f6b 045E      	.word0x45e
 4098 0f6d 0000 0086 	.long0x86
 4099 0f71 8C        	.byte0x8c
 4100 0f72 18        	.uleb128 0x18
 4101 0f73 0000 0000 	.long.LASF229
 4102 0f77 0E        	.byte0xe
 4103 0f78 0460      	.word0x460
 4104 0f7a 0000 0086 	.long0x86
 4105 0f7e 90        	.byte0x90
 4106 0f7f 18        	.uleb128 0x18
 4107 0f80 0000 0000 	.long.LASF230
 4108 0f84 0E        	.byte0xe
 4109 0f85 0462      	.word0x462
 4110 0f87 0000 0086 	.long0x86
 4111 0f8b 94        	.byte0x94
 4112 0f8c 18        	.uleb128 0x18
 4113 0f8d 0000 0000 	.long.LASF231
 4114 0f91 0E        	.byte0xe
 4115 0f92 0464      	.word0x464
 4116 0f94 0000 0086 	.long0x86
68K GAS   			page 107


 4117 0f98 98        	.byte0x98
 4118 0f99 18        	.uleb128 0x18
 4119 0f9a 0000 0000 	.long.LASF232
 4120 0f9e 0E        	.byte0xe
 4121 0f9f 0466      	.word0x466
 4122 0fa1 0000 0086 	.long0x86
 4123 0fa5 9C        	.byte0x9c
 4124 0fa6 18        	.uleb128 0x18
 4125 0fa7 0000 0000 	.long.LASF233
 4126 0fab 0E        	.byte0xe
 4127 0fac 0468      	.word0x468
 4128 0fae 0000 0086 	.long0x86
 4129 0fb2 A0        	.byte0xa0
 4130 0fb3 18        	.uleb128 0x18
 4131 0fb4 0000 0000 	.long.LASF234
 4132 0fb8 0E        	.byte0xe
 4133 0fb9 046A      	.word0x46a
 4134 0fbb 0000 0086 	.long0x86
 4135 0fbf A4        	.byte0xa4
 4136 0fc0 18        	.uleb128 0x18
 4137 0fc1 0000 0000 	.long.LASF235
 4138 0fc5 0E        	.byte0xe
 4139 0fc6 0470      	.word0x470
 4140 0fc8 0000 0086 	.long0x86
 4141 0fcc A8        	.byte0xa8
 4142 0fcd 18        	.uleb128 0x18
 4143 0fce 0000 0000 	.long.LASF236
 4144 0fd2 0E        	.byte0xe
 4145 0fd3 047C      	.word0x47c
 4146 0fd5 0000 0086 	.long0x86
 4147 0fd9 AC        	.byte0xac
 4148 0fda 18        	.uleb128 0x18
 4149 0fdb 0000 0000 	.long.LASF237
 4150 0fdf 0E        	.byte0xe
 4151 0fe0 047E      	.word0x47e
 4152 0fe2 0000 0086 	.long0x86
 4153 0fe6 B0        	.byte0xb0
 4154 0fe7 18        	.uleb128 0x18
 4155 0fe8 0000 0000 	.long.LASF238
 4156 0fec 0E        	.byte0xe
 4157 0fed 0484      	.word0x484
 4158 0fef 0000 09FA 	.long0x9fa
 4159 0ff3 B4        	.byte0xb4
 4160 0ff4 18        	.uleb128 0x18
 4161 0ff5 0000 0000 	.long.LASF239
 4162 0ff9 0E        	.byte0xe
 4163 0ffa 048A      	.word0x48a
 4164 0ffc 0000 0086 	.long0x86
 4165 1000 BC        	.byte0xbc
 4166 1001 18        	.uleb128 0x18
 4167 1002 0000 0000 	.long.LASF240
 4168 1006 0E        	.byte0xe
 4169 1007 048C      	.word0x48c
 4170 1009 0000 0086 	.long0x86
 4171 100d C0        	.byte0xc0
 4172 100e 18        	.uleb128 0x18
 4173 100f 0000 0000 	.long.LASF241
68K GAS   			page 108


 4174 1013 0E        	.byte0xe
 4175 1014 0492      	.word0x492
 4176 1016 0000 0086 	.long0x86
 4177 101a C4        	.byte0xc4
 4178 101b 00        	.byte0
 4179 101c 04        	.uleb128 0x4
 4180 101d 0000 0000 	.long.LASF242
 4181 1021 0E        	.byte0xe
 4182 1022 0494      	.word0x494
 4183 1024 0000 0DF0 	.long0xdf0
 4184 1028 1B        	.uleb128 0x1b
 4185 1029 D4        	.byte0xd4
 4186 102a 0E        	.byte0xe
 4187 102b 0496      	.word0x496
 4188 102d 0000 104C 	.long0x104c
 4189 1031 18        	.uleb128 0x18
 4190 1032 0000 0000 	.long.LASF203
 4191 1036 0E        	.byte0xe
 4192 1037 0498      	.word0x498
 4193 1039 0000 0B3C 	.long0xb3c
 4194 103d 00        	.byte0
 4195 103e 18        	.uleb128 0x18
 4196 103f 0000 0000 	.long.LASF190
 4197 1043 0E        	.byte0xe
 4198 1044 0499      	.word0x499
 4199 1046 0000 101C 	.long0x101c
 4200 104a 0C        	.byte0xc
 4201 104b 00        	.byte0
 4202 104c 04        	.uleb128 0x4
 4203 104d 0000 0000 	.long.LASF243
 4204 1051 0E        	.byte0xe
 4205 1052 049A      	.word0x49a
 4206 1054 0000 1028 	.long0x1028
 4207 1058 10        	.uleb128 0x10
 4208 1059 40        	.byte0x40
 4209 105a 0F        	.byte0xf
 4210 105b 7D        	.byte0x7d
 4211 105c 0000 10D9 	.long0x10d9
 4212 1060 09        	.uleb128 0x9
 4213 1061 0000 0000 	.long.LASF185
 4214 1065 0F        	.byte0xf
 4215 1066 80        	.byte0x80
 4216 1067 0000 09FA 	.long0x9fa
 4217 106b 00        	.byte0
 4218 106c 09        	.uleb128 0x9
 4219 106d 0000 0000 	.long.LASF186
 4220 1071 0F        	.byte0xf
 4221 1072 81        	.byte0x81
 4222 1073 0000 09FA 	.long0x9fa
 4223 1077 08        	.byte0x8
 4224 1078 09        	.uleb128 0x9
 4225 1079 0000 0000 	.long.LASF187
 4226 107d 0F        	.byte0xf
 4227 107e 82        	.byte0x82
 4228 107f 0000 003E 	.long0x3e
 4229 1083 10        	.byte0x10
 4230 1084 09        	.uleb128 0x9
68K GAS   			page 109


 4231 1085 0000 0000 	.long.LASF212
 4232 1089 0F        	.byte0xf
 4233 108a 83        	.byte0x83
 4234 108b 0000 003E 	.long0x3e
 4235 108f 12        	.byte0x12
 4236 1090 09        	.uleb128 0x9
 4237 1091 0000 0000 	.long.LASF213
 4238 1095 0F        	.byte0xf
 4239 1096 84        	.byte0x84
 4240 1097 0000 003E 	.long0x3e
 4241 109b 14        	.byte0x14
 4242 109c 09        	.uleb128 0x9
 4243 109d 0000 0000 	.long.LASF205
 4244 10a1 0F        	.byte0xf
 4245 10a2 85        	.byte0x85
 4246 10a3 0000 09FA 	.long0x9fa
 4247 10a7 18        	.byte0x18
 4248 10a8 09        	.uleb128 0x9
 4249 10a9 0000 0000 	.long.LASF206
 4250 10ad 0F        	.byte0xf
 4251 10ae 86        	.byte0x86
 4252 10af 0000 09FA 	.long0x9fa
 4253 10b3 20        	.byte0x20
 4254 10b4 09        	.uleb128 0x9
 4255 10b5 0000 0000 	.long.LASF208
 4256 10b9 0F        	.byte0xf
 4257 10ba 87        	.byte0x87
 4258 10bb 0000 09FA 	.long0x9fa
 4259 10bf 28        	.byte0x28
 4260 10c0 09        	.uleb128 0x9
 4261 10c1 0000 0000 	.long.LASF207
 4262 10c5 0F        	.byte0xf
 4263 10c6 88        	.byte0x88
 4264 10c7 0000 09FA 	.long0x9fa
 4265 10cb 30        	.byte0x30
 4266 10cc 09        	.uleb128 0x9
 4267 10cd 0000 0000 	.long.LASF209
 4268 10d1 0F        	.byte0xf
 4269 10d2 89        	.byte0x89
 4270 10d3 0000 09FA 	.long0x9fa
 4271 10d7 38        	.byte0x38
 4272 10d8 00        	.byte0
 4273 10d9 02        	.uleb128 0x2
 4274 10da 0000 0000 	.long.LASF244
 4275 10de 0F        	.byte0xf
 4276 10df 8B        	.byte0x8b
 4277 10e0 0000 1058 	.long0x1058
 4278 10e4 10        	.uleb128 0x10
 4279 10e5 08        	.byte0x8
 4280 10e6 0F        	.byte0xf
 4281 10e7 90        	.byte0x90
 4282 10e8 0000 1105 	.long0x1105
 4283 10ec 11        	.uleb128 0x11
 4284 10ed 4170 7000 	.string"App"
 4285 10f1 0F        	.byte0xf
 4286 10f2 92        	.byte0x92
 4287 10f3 0000 0086 	.long0x86
68K GAS   			page 110


 4288 10f7 00        	.byte0
 4289 10f8 11        	.uleb128 0x11
 4290 10f9 5074 7200 	.string"Ptr"
 4291 10fd 0F        	.byte0xf
 4292 10fe 93        	.byte0x93
 4293 10ff 0000 0A25 	.long0xa25
 4294 1103 04        	.byte0x4
 4295 1104 00        	.byte0
 4296 1105 02        	.uleb128 0x2
 4297 1106 0000 0000 	.long.LASF245
 4298 110a 0F        	.byte0xf
 4299 110b 94        	.byte0x94
 4300 110c 0000 10E4 	.long0x10e4
 4301 1110 26        	.uleb128 0x26
 4302 1111 0248      	.word0x248
 4303 1113 0F        	.byte0xf
 4304 1114 9B        	.byte0x9b
 4305 1115 0000 144D 	.long0x144d
 4306 1119 09        	.uleb128 0x9
 4307 111a 0000 0000 	.long.LASF192
 4308 111e 0F        	.byte0xf
 4309 111f A0        	.byte0xa0
 4310 1120 0000 0069 	.long0x69
 4311 1124 00        	.byte0
 4312 1125 09        	.uleb128 0x9
 4313 1126 0000 0000 	.long.LASF193
 4314 112a 0F        	.byte0xf
 4315 112b A1        	.byte0xa1
 4316 112c 0000 0069 	.long0x69
 4317 1130 01        	.byte0x1
 4318 1131 09        	.uleb128 0x9
 4319 1132 0000 0000 	.long.LASF246
 4320 1136 0F        	.byte0xf
 4321 1137 A6        	.byte0xa6
 4322 1138 0000 0DE4 	.long0xde4
 4323 113c 04        	.byte0x4
 4324 113d 09        	.uleb128 0x9
 4325 113e 0000 0000 	.long.LASF247
 4326 1142 0F        	.byte0xf
 4327 1143 A7        	.byte0xa7
 4328 1144 0000 104C 	.long0x104c
 4329 1148 30        	.byte0x30
 4330 1149 13        	.uleb128 0x13
 4331 114a 0000 0000 	.long.LASF248
 4332 114e 0F        	.byte0xf
 4333 114f AC        	.byte0xac
 4334 1150 0000 0AD3 	.long0xad3
 4335 1154 0104      	.word0x104
 4336 1156 13        	.uleb128 0x13
 4337 1157 0000 0000 	.long.LASF249
 4338 115b 0F        	.byte0xf
 4339 115c AD        	.byte0xad
 4340 115d 0000 0ABD 	.long0xabd
 4341 1161 0108      	.word0x108
 4342 1163 13        	.uleb128 0x13
 4343 1164 0000 0000 	.long.LASF250
 4344 1168 0F        	.byte0xf
68K GAS   			page 111


 4345 1169 B2        	.byte0xb2
 4346 116a 0000 144D 	.long0x144d
 4347 116e 0109      	.word0x109
 4348 1170 13        	.uleb128 0x13
 4349 1171 0000 0000 	.long.LASF251
 4350 1175 0F        	.byte0xf
 4351 1176 B3        	.byte0xb3
 4352 1177 0000 0074 	.long0x74
 4353 117b 011A      	.word0x11a
 4354 117d 13        	.uleb128 0x13
 4355 117e 0000 0000 	.long.LASF185
 4356 1182 0F        	.byte0xf
 4357 1183 B8        	.byte0xb8
 4358 1184 0000 09FA 	.long0x9fa
 4359 1188 011C      	.word0x11c
 4360 118a 13        	.uleb128 0x13
 4361 118b 0000 0000 	.long.LASF186
 4362 118f 0F        	.byte0xf
 4363 1190 B9        	.byte0xb9
 4364 1191 0000 09FA 	.long0x9fa
 4365 1195 0124      	.word0x124
 4366 1197 13        	.uleb128 0x13
 4367 1198 0000 0000 	.long.LASF187
 4368 119c 0F        	.byte0xf
 4369 119d BA        	.byte0xba
 4370 119e 0000 003E 	.long0x3e
 4371 11a2 012C      	.word0x12c
 4372 11a4 13        	.uleb128 0x13
 4373 11a5 0000 0000 	.long.LASF205
 4374 11a9 0F        	.byte0xf
 4375 11aa BB        	.byte0xbb
 4376 11ab 0000 09FA 	.long0x9fa
 4377 11af 0130      	.word0x130
 4378 11b1 13        	.uleb128 0x13
 4379 11b2 0000 0000 	.long.LASF206
 4380 11b6 0F        	.byte0xf
 4381 11b7 BC        	.byte0xbc
 4382 11b8 0000 09FA 	.long0x9fa
 4383 11bc 0138      	.word0x138
 4384 11be 13        	.uleb128 0x13
 4385 11bf 0000 0000 	.long.LASF212
 4386 11c3 0F        	.byte0xf
 4387 11c4 C0        	.byte0xc0
 4388 11c5 0000 003E 	.long0x3e
 4389 11c9 0140      	.word0x140
 4390 11cb 13        	.uleb128 0x13
 4391 11cc 0000 0000 	.long.LASF213
 4392 11d0 0F        	.byte0xf
 4393 11d1 C1        	.byte0xc1
 4394 11d2 0000 003E 	.long0x3e
 4395 11d6 0142      	.word0x142
 4396 11d8 13        	.uleb128 0x13
 4397 11d9 0000 0000 	.long.LASF214
 4398 11dd 0F        	.byte0xf
 4399 11de C2        	.byte0xc2
 4400 11df 0000 003E 	.long0x3e
 4401 11e3 0144      	.word0x144
68K GAS   			page 112


 4402 11e5 13        	.uleb128 0x13
 4403 11e6 0000 0000 	.long.LASF215
 4404 11ea 0F        	.byte0xf
 4405 11eb C3        	.byte0xc3
 4406 11ec 0000 003E 	.long0x3e
 4407 11f0 0146      	.word0x146
 4408 11f2 13        	.uleb128 0x13
 4409 11f3 0000 0000 	.long.LASF216
 4410 11f7 0F        	.byte0xf
 4411 11f8 C4        	.byte0xc4
 4412 11f9 0000 003E 	.long0x3e
 4413 11fd 0148      	.word0x148
 4414 11ff 13        	.uleb128 0x13
 4415 1200 0000 0000 	.long.LASF252
 4416 1204 0F        	.byte0xf
 4417 1205 C9        	.byte0xc9
 4418 1206 0000 09FA 	.long0x9fa
 4419 120a 014C      	.word0x14c
 4420 120c 13        	.uleb128 0x13
 4421 120d 0000 0000 	.long.LASF253
 4422 1211 0F        	.byte0xf
 4423 1212 CA        	.byte0xca
 4424 1213 0000 09FA 	.long0x9fa
 4425 1217 0154      	.word0x154
 4426 1219 13        	.uleb128 0x13
 4427 121a 0000 0000 	.long.LASF254
 4428 121e 0F        	.byte0xf
 4429 121f CB        	.byte0xcb
 4430 1220 0000 003E 	.long0x3e
 4431 1224 015C      	.word0x15c
 4432 1226 13        	.uleb128 0x13
 4433 1227 0000 0000 	.long.LASF255
 4434 122b 0F        	.byte0xf
 4435 122c CC        	.byte0xcc
 4436 122d 0000 003E 	.long0x3e
 4437 1231 015E      	.word0x15e
 4438 1233 13        	.uleb128 0x13
 4439 1234 0000 0000 	.long.LASF221
 4440 1238 0F        	.byte0xf
 4441 1239 D1        	.byte0xd1
 4442 123a 0000 09FA 	.long0x9fa
 4443 123e 0160      	.word0x160
 4444 1240 13        	.uleb128 0x13
 4445 1241 0000 0000 	.long.LASF222
 4446 1245 0F        	.byte0xf
 4447 1246 D2        	.byte0xd2
 4448 1247 0000 09FA 	.long0x9fa
 4449 124b 0168      	.word0x168
 4450 124d 13        	.uleb128 0x13
 4451 124e 0000 0000 	.long.LASF218
 4452 1252 0F        	.byte0xf
 4453 1253 D4        	.byte0xd4
 4454 1254 0000 003E 	.long0x3e
 4455 1258 0170      	.word0x170
 4456 125a 13        	.uleb128 0x13
 4457 125b 0000 0000 	.long.LASF219
 4458 125f 0F        	.byte0xf
68K GAS   			page 113


 4459 1260 D5        	.byte0xd5
 4460 1261 0000 003E 	.long0x3e
 4461 1265 0172      	.word0x172
 4462 1267 13        	.uleb128 0x13
 4463 1268 0000 0000 	.long.LASF220
 4464 126c 0F        	.byte0xf
 4465 126d D6        	.byte0xd6
 4466 126e 0000 003E 	.long0x3e
 4467 1272 0174      	.word0x174
 4468 1274 13        	.uleb128 0x13
 4469 1275 0000 0000 	.long.LASF223
 4470 1279 0F        	.byte0xf
 4471 127a DB        	.byte0xdb
 4472 127b 0000 09FA 	.long0x9fa
 4473 127f 0178      	.word0x178
 4474 1281 13        	.uleb128 0x13
 4475 1282 0000 0000 	.long.LASF224
 4476 1286 0F        	.byte0xf
 4477 1287 DC        	.byte0xdc
 4478 1288 0000 09FA 	.long0x9fa
 4479 128c 0180      	.word0x180
 4480 128e 13        	.uleb128 0x13
 4481 128f 0000 0000 	.long.LASF225
 4482 1293 0F        	.byte0xf
 4483 1294 E1        	.byte0xe1
 4484 1295 0000 0086 	.long0x86
 4485 1299 0188      	.word0x188
 4486 129b 13        	.uleb128 0x13
 4487 129c 0000 0000 	.long.LASF226
 4488 12a0 0F        	.byte0xf
 4489 12a1 E2        	.byte0xe2
 4490 12a2 0000 0086 	.long0x86
 4491 12a6 018C      	.word0x18c
 4492 12a8 13        	.uleb128 0x13
 4493 12a9 0000 0000 	.long.LASF227
 4494 12ad 0F        	.byte0xf
 4495 12ae E3        	.byte0xe3
 4496 12af 0000 0086 	.long0x86
 4497 12b3 0190      	.word0x190
 4498 12b5 13        	.uleb128 0x13
 4499 12b6 0000 0000 	.long.LASF228
 4500 12ba 0F        	.byte0xf
 4501 12bb E4        	.byte0xe4
 4502 12bc 0000 0086 	.long0x86
 4503 12c0 0194      	.word0x194
 4504 12c2 13        	.uleb128 0x13
 4505 12c3 0000 0000 	.long.LASF229
 4506 12c7 0F        	.byte0xf
 4507 12c8 E5        	.byte0xe5
 4508 12c9 0000 0086 	.long0x86
 4509 12cd 0198      	.word0x198
 4510 12cf 13        	.uleb128 0x13
 4511 12d0 0000 0000 	.long.LASF230
 4512 12d4 0F        	.byte0xf
 4513 12d5 E6        	.byte0xe6
 4514 12d6 0000 0086 	.long0x86
 4515 12da 019C      	.word0x19c
68K GAS   			page 114


 4516 12dc 13        	.uleb128 0x13
 4517 12dd 0000 0000 	.long.LASF231
 4518 12e1 0F        	.byte0xf
 4519 12e2 E7        	.byte0xe7
 4520 12e3 0000 0086 	.long0x86
 4521 12e7 01A0      	.word0x1a0
 4522 12e9 13        	.uleb128 0x13
 4523 12ea 0000 0000 	.long.LASF235
 4524 12ee 0F        	.byte0xf
 4525 12ef E8        	.byte0xe8
 4526 12f0 0000 0086 	.long0x86
 4527 12f4 01A4      	.word0x1a4
 4528 12f6 13        	.uleb128 0x13
 4529 12f7 0000 0000 	.long.LASF232
 4530 12fb 0F        	.byte0xf
 4531 12fc E9        	.byte0xe9
 4532 12fd 0000 0086 	.long0x86
 4533 1301 01A8      	.word0x1a8
 4534 1303 13        	.uleb128 0x13
 4535 1304 0000 0000 	.long.LASF233
 4536 1308 0F        	.byte0xf
 4537 1309 EA        	.byte0xea
 4538 130a 0000 0086 	.long0x86
 4539 130e 01AC      	.word0x1ac
 4540 1310 13        	.uleb128 0x13
 4541 1311 0000 0000 	.long.LASF234
 4542 1315 0F        	.byte0xf
 4543 1316 EB        	.byte0xeb
 4544 1317 0000 0086 	.long0x86
 4545 131b 01B0      	.word0x1b0
 4546 131d 13        	.uleb128 0x13
 4547 131e 0000 0000 	.long.LASF256
 4548 1322 0F        	.byte0xf
 4549 1323 EC        	.byte0xec
 4550 1324 0000 0086 	.long0x86
 4551 1328 01B4      	.word0x1b4
 4552 132a 13        	.uleb128 0x13
 4553 132b 0000 0000 	.long.LASF257
 4554 132f 0F        	.byte0xf
 4555 1330 ED        	.byte0xed
 4556 1331 0000 0086 	.long0x86
 4557 1335 01B8      	.word0x1b8
 4558 1337 13        	.uleb128 0x13
 4559 1338 0000 0000 	.long.LASF236
 4560 133c 0F        	.byte0xf
 4561 133d F8        	.byte0xf8
 4562 133e 0000 0086 	.long0x86
 4563 1342 01BC      	.word0x1bc
 4564 1344 13        	.uleb128 0x13
 4565 1345 0000 0000 	.long.LASF237
 4566 1349 0F        	.byte0xf
 4567 134a F9        	.byte0xf9
 4568 134b 0000 0086 	.long0x86
 4569 134f 01C0      	.word0x1c0
 4570 1351 13        	.uleb128 0x13
 4571 1352 0000 0000 	.long.LASF238
 4572 1356 0F        	.byte0xf
68K GAS   			page 115


 4573 1357 FE        	.byte0xfe
 4574 1358 0000 09FA 	.long0x9fa
 4575 135c 01C4      	.word0x1c4
 4576 135e 19        	.uleb128 0x19
 4577 135f 0000 0000 	.long.LASF217
 4578 1363 0F        	.byte0xf
 4579 1364 0103      	.word0x103
 4580 1366 0000 009F 	.long0x9f
 4581 136a 01CC      	.word0x1cc
 4582 136c 19        	.uleb128 0x19
 4583 136d 0000 0000 	.long.LASF258
 4584 1371 0F        	.byte0xf
 4585 1372 010A      	.word0x10a
 4586 1374 0000 009F 	.long0x9f
 4587 1378 01CD      	.word0x1cd
 4588 137a 19        	.uleb128 0x19
 4589 137b 0000 0000 	.long.LASF259
 4590 137f 0F        	.byte0xf
 4591 1380 010B      	.word0x10b
 4592 1382 0000 009F 	.long0x9f
 4593 1386 01CE      	.word0x1ce
 4594 1388 19        	.uleb128 0x19
 4595 1389 0000 0000 	.long.LASF260
 4596 138d 0F        	.byte0xf
 4597 138e 0110      	.word0x110
 4598 1390 0000 009F 	.long0x9f
 4599 1394 01CF      	.word0x1cf
 4600 1396 19        	.uleb128 0x19
 4601 1397 0000 0000 	.long.LASF261
 4602 139b 0F        	.byte0xf
 4603 139c 0116      	.word0x116
 4604 139e 0000 0C4F 	.long0xc4f
 4605 13a2 01D0      	.word0x1d0
 4606 13a4 19        	.uleb128 0x19
 4607 13a5 0000 0000 	.long.LASF262
 4608 13a9 0F        	.byte0xf
 4609 13aa 011C      	.word0x11c
 4610 13ac 0000 0C95 	.long0xc95
 4611 13b0 01D8      	.word0x1d8
 4612 13b2 19        	.uleb128 0x19
 4613 13b3 0000 0000 	.long.LASF263
 4614 13b7 0F        	.byte0xf
 4615 13b8 011D      	.word0x11d
 4616 13ba 0000 0D0F 	.long0xd0f
 4617 13be 01E0      	.word0x1e0
 4618 13c0 19        	.uleb128 0x19
 4619 13c1 0000 0000 	.long.LASF264
 4620 13c5 0F        	.byte0xf
 4621 13c6 011E      	.word0x11e
 4622 13c8 0000 0C72 	.long0xc72
 4623 13cc 01FC      	.word0x1fc
 4624 13ce 19        	.uleb128 0x19
 4625 13cf 0000 0000 	.long.LASF265
 4626 13d3 0F        	.byte0xf
 4627 13d4 0123      	.word0x123
 4628 13d6 0000 0086 	.long0x86
 4629 13da 0204      	.word0x204
68K GAS   			page 116


 4630 13dc 19        	.uleb128 0x19
 4631 13dd 0000 0000 	.long.LASF266
 4632 13e1 0F        	.byte0xf
 4633 13e2 0124      	.word0x124
 4634 13e4 0000 0086 	.long0x86
 4635 13e8 0208      	.word0x208
 4636 13ea 19        	.uleb128 0x19
 4637 13eb 0000 0000 	.long.LASF267
 4638 13ef 0F        	.byte0xf
 4639 13f0 0128      	.word0x128
 4640 13f2 0000 0086 	.long0x86
 4641 13f6 020C      	.word0x20c
 4642 13f8 19        	.uleb128 0x19
 4643 13f9 0000 0000 	.long.LASF268
 4644 13fd 0F        	.byte0xf
 4645 13fe 0129      	.word0x129
 4646 1400 0000 0086 	.long0x86
 4647 1404 0210      	.word0x210
 4648 1406 19        	.uleb128 0x19
 4649 1407 0000 0000 	.long.LASF269
 4650 140b 0F        	.byte0xf
 4651 140c 012F      	.word0x12f
 4652 140e 0000 09FA 	.long0x9fa
 4653 1412 0214      	.word0x214
 4654 1414 19        	.uleb128 0x19
 4655 1415 0000 0000 	.long.LASF239
 4656 1419 0F        	.byte0xf
 4657 141a 0134      	.word0x134
 4658 141c 0000 0086 	.long0x86
 4659 1420 021C      	.word0x21c
 4660 1422 19        	.uleb128 0x19
 4661 1423 0000 0000 	.long.LASF240
 4662 1427 0F        	.byte0xf
 4663 1428 0135      	.word0x135
 4664 142a 0000 0086 	.long0x86
 4665 142e 0220      	.word0x220
 4666 1430 19        	.uleb128 0x19
 4667 1431 0000 0000 	.long.LASF241
 4668 1435 0F        	.byte0xf
 4669 1436 013A      	.word0x13a
 4670 1438 0000 0086 	.long0x86
 4671 143c 0224      	.word0x224
 4672 143e 19        	.uleb128 0x19
 4673 143f 0000 0000 	.long.LASF270
 4674 1443 0F        	.byte0xf
 4675 1444 013F      	.word0x13f
 4676 1446 0000 145D 	.long0x145d
 4677 144a 0228      	.word0x228
 4678 144c 00        	.byte0
 4679 144d 0E        	.uleb128 0xe
 4680 144e 0000 00AB 	.long0xab
 4681 1452 0000 145D 	.long0x145d
 4682 1456 0F        	.uleb128 0xf
 4683 1457 0000 0091 	.long0x91
 4684 145b 0F        	.byte0xf
 4685 145c 00        	.byte0
 4686 145d 0E        	.uleb128 0xe
68K GAS   			page 117


 4687 145e 0000 1105 	.long0x1105
 4688 1462 0000 146D 	.long0x146d
 4689 1466 0F        	.uleb128 0xf
 4690 1467 0000 0091 	.long0x91
 4691 146b 03        	.byte0x3
 4692 146c 00        	.byte0
 4693 146d 04        	.uleb128 0x4
 4694 146e 0000 0000 	.long.LASF271
 4695 1472 0F        	.byte0xf
 4696 1473 0141      	.word0x141
 4697 1475 0000 1110 	.long0x1110
 4698 1479 1F        	.uleb128 0x1f
 4699 147a 0000 0000 	.long.LASF272
 4700 147e 0F        	.byte0xf
 4701 147f 0146      	.word0x146
 4702 1481 0000 146D 	.long0x146d
 4703 1485 27        	.uleb128 0x27
 4704 1486 0000 1479 	.long0x1479
 4705 148a 01        	.byte0x1
 4706 148b 57        	.byte0x57
 4707 148c 05        	.uleb128 0x5
 4708 148d 03        	.byte0x3
 4709 148e 0000 0000 	.longCFE_TIME_TaskData
 4710 1492 28        	.uleb128 0x28
 4711 1493 0000 0000 	.long.LASF276
 4712 1497 01        	.byte0x1
 4713 1498 0575      	.word0x575
 4714 149a 0000 0000 	.long.LFB79
 4715 149e 0000 0084 	.long.LFE79-.LFB79
 4716 14a2 01        	.uleb128 0x1
 4717 14a3 9C        	.byte0x9c
 4718 14a4 0000 14E5 	.long0x14e5
 4719 14a8 29        	.uleb128 0x29
 4720 14a9 0000 0000 	.long.LASF190
 4721 14ad 01        	.byte0x1
 4722 14ae 0575      	.word0x575
 4723 14b0 0000 0AE4 	.long0xae4
 4724 14b4 02        	.uleb128 0x2
 4725 14b5 91        	.byte0x91
 4726 14b6 00        	.sleb128 0
 4727 14b7 29        	.uleb128 0x29
 4728 14b8 0000 0000 	.long.LASF273
 4729 14bc 01        	.byte0x1
 4730 14bd 0575      	.word0x575
 4731 14bf 0000 003E 	.long0x3e
 4732 14c3 02        	.uleb128 0x2
 4733 14c4 91        	.byte0x91
 4734 14c5 6C        	.sleb128 -20
 4735 14c6 2A        	.uleb128 0x2a
 4736 14c7 0000 0000 	.long.LASF274
 4737 14cb 01        	.byte0x1
 4738 14cc 057C      	.word0x57c
 4739 14ce 0000 14E5 	.long0x14e5
 4740 14d2 02        	.uleb128 0x2
 4741 14d3 91        	.byte0x91
 4742 14d4 78        	.sleb128 -8
 4743 14d5 2A        	.uleb128 0x2a
68K GAS   			page 118


 4744 14d6 0000 0000 	.long.LASF275
 4745 14da 01        	.byte0x1
 4746 14db 057D      	.word0x57d
 4747 14dd 0000 09FA 	.long0x9fa
 4748 14e1 02        	.uleb128 0x2
 4749 14e2 91        	.byte0x91
 4750 14e3 70        	.sleb128 -16
 4751 14e4 00        	.byte0
 4752 14e5 0B        	.uleb128 0xb
 4753 14e6 04        	.byte0x4
 4754 14e7 0000 0C2C 	.long0xc2c
 4755 14eb 28        	.uleb128 0x28
 4756 14ec 0000 0000 	.long.LASF277
 4757 14f0 01        	.byte0x1
 4758 14f1 053E      	.word0x53e
 4759 14f3 0000 0000 	.long.LFB78
 4760 14f7 0000 0102 	.long.LFE78-.LFB78
 4761 14fb 01        	.uleb128 0x1
 4762 14fc 9C        	.byte0x9c
 4763 14fd 0000 1548 	.long0x1548
 4764 1501 29        	.uleb128 0x29
 4765 1502 0000 0000 	.long.LASF190
 4766 1506 01        	.byte0x1
 4767 1507 053E      	.word0x53e
 4768 1509 0000 0AE4 	.long0xae4
 4769 150d 02        	.uleb128 0x2
 4770 150e 91        	.byte0x91
 4771 150f 00        	.sleb128 0
 4772 1510 29        	.uleb128 0x29
 4773 1511 0000 0000 	.long.LASF273
 4774 1515 01        	.byte0x1
 4775 1516 053E      	.word0x53e
 4776 1518 0000 003E 	.long0x3e
 4777 151c 02        	.uleb128 0x2
 4778 151d 91        	.byte0x91
 4779 151e 6C        	.sleb128 -20
 4780 151f 2A        	.uleb128 0x2a
 4781 1520 0000 0000 	.long.LASF274
 4782 1524 01        	.byte0x1
 4783 1525 0540      	.word0x540
 4784 1527 0000 1548 	.long0x1548
 4785 152b 02        	.uleb128 0x2
 4786 152c 91        	.byte0x91
 4787 152d 78        	.sleb128 -8
 4788 152e 2B        	.uleb128 0x2b
 4789 152f 0000 0000 	.long.LBB5
 4790 1533 0000 008E 	.long.LBE5-.LBB5
 4791 1537 2A        	.uleb128 0x2a
 4792 1538 0000 0000 	.long.LASF275
 4793 153c 01        	.byte0x1
 4794 153d 0549      	.word0x549
 4795 153f 0000 09FA 	.long0x9fa
 4796 1543 02        	.uleb128 0x2
 4797 1544 91        	.byte0x91
 4798 1545 70        	.sleb128 -16
 4799 1546 00        	.byte0
 4800 1547 00        	.byte0
68K GAS   			page 119


 4801 1548 0B        	.uleb128 0xb
 4802 1549 04        	.byte0x4
 4803 154a 0000 0BFC 	.long0xbfc
 4804 154e 28        	.uleb128 0x28
 4805 154f 0000 0000 	.long.LASF278
 4806 1553 01        	.byte0x1
 4807 1554 0518      	.word0x518
 4808 1556 0000 0000 	.long.LFB77
 4809 155a 0000 004C 	.long.LFE77-.LFB77
 4810 155e 01        	.uleb128 0x1
 4811 155f 9C        	.byte0x9c
 4812 1560 0000 1583 	.long0x1583
 4813 1564 29        	.uleb128 0x29
 4814 1565 0000 0000 	.long.LASF190
 4815 1569 01        	.byte0x1
 4816 156a 0518      	.word0x518
 4817 156c 0000 0AE4 	.long0xae4
 4818 1570 02        	.uleb128 0x2
 4819 1571 91        	.byte0x91
 4820 1572 00        	.sleb128 0
 4821 1573 2A        	.uleb128 0x2a
 4822 1574 0000 0000 	.long.LASF274
 4823 1578 01        	.byte0x1
 4824 1579 051C      	.word0x51c
 4825 157b 0000 1583 	.long0x1583
 4826 157f 02        	.uleb128 0x2
 4827 1580 91        	.byte0x91
 4828 1581 78        	.sleb128 -8
 4829 1582 00        	.byte0
 4830 1583 0B        	.uleb128 0xb
 4831 1584 04        	.byte0x4
 4832 1585 0000 0B63 	.long0xb63
 4833 1589 28        	.uleb128 0x28
 4834 158a 0000 0000 	.long.LASF279
 4835 158e 01        	.byte0x1
 4836 158f 04E2      	.word0x4e2
 4837 1591 0000 0000 	.long.LFB76
 4838 1595 0000 00DE 	.long.LFE76-.LFB76
 4839 1599 01        	.uleb128 0x1
 4840 159a 9C        	.byte0x9c
 4841 159b 0000 15D7 	.long0x15d7
 4842 159f 29        	.uleb128 0x29
 4843 15a0 0000 0000 	.long.LASF190
 4844 15a4 01        	.byte0x1
 4845 15a5 04E2      	.word0x4e2
 4846 15a7 0000 0AE4 	.long0xae4
 4847 15ab 02        	.uleb128 0x2
 4848 15ac 91        	.byte0x91
 4849 15ad 00        	.sleb128 0
 4850 15ae 2A        	.uleb128 0x2a
 4851 15af 0000 0000 	.long.LASF274
 4852 15b3 01        	.byte0x1
 4853 15b4 04E4      	.word0x4e4
 4854 15b6 0000 1548 	.long0x1548
 4855 15ba 02        	.uleb128 0x2
 4856 15bb 91        	.byte0x91
 4857 15bc 78        	.sleb128 -8
68K GAS   			page 120


 4858 15bd 2B        	.uleb128 0x2b
 4859 15be 0000 0000 	.long.LBB4
 4860 15c2 0000 007E 	.long.LBE4-.LBB4
 4861 15c6 2A        	.uleb128 0x2a
 4862 15c7 0000 0000 	.long.LASF280
 4863 15cb 01        	.byte0x1
 4864 15cc 04ED      	.word0x4ed
 4865 15ce 0000 09FA 	.long0x9fa
 4866 15d2 02        	.uleb128 0x2
 4867 15d3 91        	.byte0x91
 4868 15d4 70        	.sleb128 -16
 4869 15d5 00        	.byte0
 4870 15d6 00        	.byte0
 4871 15d7 28        	.uleb128 0x28
 4872 15d8 0000 0000 	.long.LASF281
 4873 15dc 01        	.byte0x1
 4874 15dd 04AC      	.word0x4ac
 4875 15df 0000 0000 	.long.LFB75
 4876 15e3 0000 00DE 	.long.LFE75-.LFB75
 4877 15e7 01        	.uleb128 0x1
 4878 15e8 9C        	.byte0x9c
 4879 15e9 0000 1625 	.long0x1625
 4880 15ed 29        	.uleb128 0x29
 4881 15ee 0000 0000 	.long.LASF190
 4882 15f2 01        	.byte0x1
 4883 15f3 04AC      	.word0x4ac
 4884 15f5 0000 0AE4 	.long0xae4
 4885 15f9 02        	.uleb128 0x2
 4886 15fa 91        	.byte0x91
 4887 15fb 00        	.sleb128 0
 4888 15fc 2A        	.uleb128 0x2a
 4889 15fd 0000 0000 	.long.LASF274
 4890 1601 01        	.byte0x1
 4891 1602 04AE      	.word0x4ae
 4892 1604 0000 1548 	.long0x1548
 4893 1608 02        	.uleb128 0x2
 4894 1609 91        	.byte0x91
 4895 160a 78        	.sleb128 -8
 4896 160b 2B        	.uleb128 0x2b
 4897 160c 0000 0000 	.long.LBB3
 4898 1610 0000 007E 	.long.LBE3-.LBB3
 4899 1614 2A        	.uleb128 0x2a
 4900 1615 0000 0000 	.long.LASF282
 4901 1619 01        	.byte0x1
 4902 161a 04B7      	.word0x4b7
 4903 161c 0000 09FA 	.long0x9fa
 4904 1620 02        	.uleb128 0x2
 4905 1621 91        	.byte0x91
 4906 1622 70        	.sleb128 -16
 4907 1623 00        	.byte0
 4908 1624 00        	.byte0
 4909 1625 28        	.uleb128 0x28
 4910 1626 0000 0000 	.long.LASF283
 4911 162a 01        	.byte0x1
 4912 162b 0471      	.word0x471
 4913 162d 0000 0000 	.long.LFB74
 4914 1631 0000 00DE 	.long.LFE74-.LFB74
68K GAS   			page 121


 4915 1635 01        	.uleb128 0x1
 4916 1636 9C        	.byte0x9c
 4917 1637 0000 1673 	.long0x1673
 4918 163b 29        	.uleb128 0x29
 4919 163c 0000 0000 	.long.LASF190
 4920 1640 01        	.byte0x1
 4921 1641 0471      	.word0x471
 4922 1643 0000 0AE4 	.long0xae4
 4923 1647 02        	.uleb128 0x2
 4924 1648 91        	.byte0x91
 4925 1649 00        	.sleb128 0
 4926 164a 2A        	.uleb128 0x2a
 4927 164b 0000 0000 	.long.LASF274
 4928 164f 01        	.byte0x1
 4929 1650 0473      	.word0x473
 4930 1652 0000 1548 	.long0x1548
 4931 1656 02        	.uleb128 0x2
 4932 1657 91        	.byte0x91
 4933 1658 78        	.sleb128 -8
 4934 1659 2B        	.uleb128 0x2b
 4935 165a 0000 0000 	.long.LBB2
 4936 165e 0000 007E 	.long.LBE2-.LBB2
 4937 1662 2A        	.uleb128 0x2a
 4938 1663 0000 0000 	.long.LASF284
 4939 1667 01        	.byte0x1
 4940 1668 047C      	.word0x47c
 4941 166a 0000 09FA 	.long0x9fa
 4942 166e 02        	.uleb128 0x2
 4943 166f 91        	.byte0x91
 4944 1670 70        	.sleb128 -16
 4945 1671 00        	.byte0
 4946 1672 00        	.byte0
 4947 1673 28        	.uleb128 0x28
 4948 1674 0000 0000 	.long.LASF285
 4949 1678 01        	.byte0x1
 4950 1679 043A      	.word0x43a
 4951 167b 0000 0000 	.long.LFB73
 4952 167f 0000 008A 	.long.LFE73-.LFB73
 4953 1683 01        	.uleb128 0x1
 4954 1684 9C        	.byte0x9c
 4955 1685 0000 16B7 	.long0x16b7
 4956 1689 29        	.uleb128 0x29
 4957 168a 0000 0000 	.long.LASF190
 4958 168e 01        	.byte0x1
 4959 168f 043A      	.word0x43a
 4960 1691 0000 0AE4 	.long0xae4
 4961 1695 02        	.uleb128 0x2
 4962 1696 91        	.byte0x91
 4963 1697 00        	.sleb128 0
 4964 1698 29        	.uleb128 0x29
 4965 1699 0000 0000 	.long.LASF273
 4966 169d 01        	.byte0x1
 4967 169e 043A      	.word0x43a
 4968 16a0 0000 003E 	.long0x3e
 4969 16a4 02        	.uleb128 0x2
 4970 16a5 91        	.byte0x91
 4971 16a6 74        	.sleb128 -12
68K GAS   			page 122


 4972 16a7 2A        	.uleb128 0x2a
 4973 16a8 0000 0000 	.long.LASF274
 4974 16ac 01        	.byte0x1
 4975 16ad 043C      	.word0x43c
 4976 16af 0000 1548 	.long0x1548
 4977 16b3 02        	.uleb128 0x2
 4978 16b4 91        	.byte0x91
 4979 16b5 78        	.sleb128 -8
 4980 16b6 00        	.byte0
 4981 16b7 28        	.uleb128 0x28
 4982 16b8 0000 0000 	.long.LASF286
 4983 16bc 01        	.byte0x1
 4984 16bd 03F3      	.word0x3f3
 4985 16bf 0000 0000 	.long.LFB72
 4986 16c3 0000 007E 	.long.LFE72-.LFB72
 4987 16c7 01        	.uleb128 0x1
 4988 16c8 9C        	.byte0x9c
 4989 16c9 0000 16EC 	.long0x16ec
 4990 16cd 29        	.uleb128 0x29
 4991 16ce 0000 0000 	.long.LASF190
 4992 16d2 01        	.byte0x1
 4993 16d3 03F3      	.word0x3f3
 4994 16d5 0000 0AE4 	.long0xae4
 4995 16d9 02        	.uleb128 0x2
 4996 16da 91        	.byte0x91
 4997 16db 00        	.sleb128 0
 4998 16dc 2A        	.uleb128 0x2a
 4999 16dd 0000 0000 	.long.LASF274
 5000 16e1 01        	.byte0x1
 5001 16e2 03F5      	.word0x3f5
 5002 16e4 0000 16EC 	.long0x16ec
 5003 16e8 02        	.uleb128 0x2
 5004 16e9 91        	.byte0x91
 5005 16ea 78        	.sleb128 -8
 5006 16eb 00        	.byte0
 5007 16ec 0B        	.uleb128 0xb
 5008 16ed 04        	.byte0x4
 5009 16ee 0000 0BCC 	.long0xbcc
 5010 16f2 28        	.uleb128 0x28
 5011 16f3 0000 0000 	.long.LASF287
 5012 16f7 01        	.byte0x1
 5013 16f8 03AC      	.word0x3ac
 5014 16fa 0000 0000 	.long.LFB71
 5015 16fe 0000 007E 	.long.LFE71-.LFB71
 5016 1702 01        	.uleb128 0x1
 5017 1703 9C        	.byte0x9c
 5018 1704 0000 1727 	.long0x1727
 5019 1708 29        	.uleb128 0x29
 5020 1709 0000 0000 	.long.LASF190
 5021 170d 01        	.byte0x1
 5022 170e 03AC      	.word0x3ac
 5023 1710 0000 0AE4 	.long0xae4
 5024 1714 02        	.uleb128 0x2
 5025 1715 91        	.byte0x91
 5026 1716 00        	.sleb128 0
 5027 1717 2A        	.uleb128 0x2a
 5028 1718 0000 0000 	.long.LASF274
68K GAS   			page 123


 5029 171c 01        	.byte0x1
 5030 171d 03AE      	.word0x3ae
 5031 171f 0000 1727 	.long0x1727
 5032 1723 02        	.uleb128 0x2
 5033 1724 91        	.byte0x91
 5034 1725 78        	.sleb128 -8
 5035 1726 00        	.byte0
 5036 1727 0B        	.uleb128 0xb
 5037 1728 04        	.byte0x4
 5038 1729 0000 0BA9 	.long0xba9
 5039 172d 28        	.uleb128 0x28
 5040 172e 0000 0000 	.long.LASF288
 5041 1732 01        	.byte0x1
 5042 1733 0378      	.word0x378
 5043 1735 0000 0000 	.long.LFB70
 5044 1739 0000 00D0 	.long.LFE70-.LFB70
 5045 173d 01        	.uleb128 0x1
 5046 173e 9C        	.byte0x9c
 5047 173f 0000 1771 	.long0x1771
 5048 1743 29        	.uleb128 0x29
 5049 1744 0000 0000 	.long.LASF190
 5050 1748 01        	.byte0x1
 5051 1749 0378      	.word0x378
 5052 174b 0000 0AE4 	.long0xae4
 5053 174f 02        	.uleb128 0x2
 5054 1750 91        	.byte0x91
 5055 1751 00        	.sleb128 0
 5056 1752 2A        	.uleb128 0x2a
 5057 1753 0000 0000 	.long.LASF274
 5058 1757 01        	.byte0x1
 5059 1758 037A      	.word0x37a
 5060 175a 0000 1771 	.long0x1771
 5061 175e 02        	.uleb128 0x2
 5062 175f 91        	.byte0x91
 5063 1760 74        	.sleb128 -12
 5064 1761 2A        	.uleb128 0x2a
 5065 1762 0000 0000 	.long.LASF289
 5066 1766 01        	.byte0x1
 5067 1767 037B      	.word0x37b
 5068 1769 0000 0652 	.long0x652
 5069 176d 02        	.uleb128 0x2
 5070 176e 91        	.byte0x91
 5071 176f 78        	.sleb128 -8
 5072 1770 00        	.byte0
 5073 1771 0B        	.uleb128 0xb
 5074 1772 04        	.byte0x4
 5075 1773 0000 0B86 	.long0xb86
 5076 1777 2C        	.uleb128 0x2c
 5077 1778 0000 0000 	.long.LASF290
 5078 177c 01        	.byte0x1
 5079 177d 035B      	.word0x35b
 5080 177f 0000 0000 	.long.LFB69
 5081 1783 0000 004E 	.long.LFE69-.LFB69
 5082 1787 01        	.uleb128 0x1
 5083 1788 9C        	.byte0x9c
 5084 1789 2C        	.uleb128 0x2c
 5085 178a 0000 0000 	.long.LASF291
68K GAS   			page 124


 5086 178e 01        	.byte0x1
 5087 178f 0335      	.word0x335
 5088 1791 0000 0000 	.long.LFB68
 5089 1795 0000 0074 	.long.LFE68-.LFB68
 5090 1799 01        	.uleb128 0x1
 5091 179a 9C        	.byte0x9c
 5092 179b 2C        	.uleb128 0x2c
 5093 179c 0000 0000 	.long.LASF292
 5094 17a0 01        	.byte0x1
 5095 17a1 0321      	.word0x321
 5096 17a3 0000 0000 	.long.LFB67
 5097 17a7 0000 0038 	.long.LFE67-.LFB67
 5098 17ab 01        	.uleb128 0x1
 5099 17ac 9C        	.byte0x9c
 5100 17ad 2C        	.uleb128 0x2c
 5101 17ae 0000 0000 	.long.LASF293
 5102 17b2 01        	.byte0x1
 5103 17b3 02EE      	.word0x2ee
 5104 17b5 0000 0000 	.long.LFB66
 5105 17b9 0000 000A 	.long.LFE66-.LFB66
 5106 17bd 01        	.uleb128 0x1
 5107 17be 9C        	.byte0x9c
 5108 17bf 28        	.uleb128 0x28
 5109 17c0 0000 0000 	.long.LASF294
 5110 17c4 01        	.byte0x1
 5111 17c5 02C7      	.word0x2c7
 5112 17c7 0000 0000 	.long.LFB65
 5113 17cb 0000 0010 	.long.LFE65-.LFB65
 5114 17cf 01        	.uleb128 0x1
 5115 17d0 9C        	.byte0x9c
 5116 17d1 0000 17E5 	.long0x17e5
 5117 17d5 29        	.uleb128 0x29
 5118 17d6 0000 0000 	.long.LASF190
 5119 17da 01        	.byte0x1
 5120 17db 02C7      	.word0x2c7
 5121 17dd 0000 0AE4 	.long0xae4
 5122 17e1 02        	.uleb128 0x2
 5123 17e2 91        	.byte0x91
 5124 17e3 00        	.sleb128 0
 5125 17e4 00        	.byte0
 5126 17e5 2C        	.uleb128 0x2c
 5127 17e6 0000 0000 	.long.LASF295
 5128 17ea 01        	.byte0x1
 5129 17eb 02A6      	.word0x2a6
 5130 17ed 0000 0000 	.long.LFB64
 5131 17f1 0000 0010 	.long.LFE64-.LFB64
 5132 17f5 01        	.uleb128 0x1
 5133 17f6 9C        	.byte0x9c
 5134 17f7 28        	.uleb128 0x28
 5135 17f8 0000 0000 	.long.LASF296
 5136 17fc 01        	.byte0x1
 5137 17fd 027E      	.word0x27e
 5138 17ff 0000 0000 	.long.LFB63
 5139 1803 0000 004C 	.long.LFE63-.LFB63
 5140 1807 01        	.uleb128 0x1
 5141 1808 9C        	.byte0x9c
 5142 1809 0000 181E 	.long0x181e
68K GAS   			page 125


 5143 180d 2A        	.uleb128 0x2a
 5144 180e 0000 0000 	.long.LASF297
 5145 1812 01        	.byte0x1
 5146 1813 0280      	.word0x280
 5147 1815 0000 10D9 	.long0x10d9
 5148 1819 03        	.uleb128 0x3
 5149 181a 91        	.byte0x91
 5150 181b BC7F      	.sleb128 -68
 5151 181d 00        	.byte0
 5152 181e 28        	.uleb128 0x28
 5153 181f 0000 0000 	.long.LASF298
 5154 1823 01        	.byte0x1
 5155 1824 01D9      	.word0x1d9
 5156 1826 0000 0000 	.long.LFB62
 5157 182a 0000 023E 	.long.LFE62-.LFB62
 5158 182e 01        	.uleb128 0x1
 5159 182f 9C        	.byte0x9c
 5160 1830 0000 1871 	.long0x1871
 5161 1834 29        	.uleb128 0x29
 5162 1835 0000 0000 	.long.LASF299
 5163 1839 01        	.byte0x1
 5164 183a 01D9      	.word0x1d9
 5165 183c 0000 0AD3 	.long0xad3
 5166 1840 02        	.uleb128 0x2
 5167 1841 91        	.byte0x91
 5168 1842 00        	.sleb128 0
 5169 1843 2A        	.uleb128 0x2a
 5170 1844 0000 0000 	.long.LASF300
 5171 1848 01        	.byte0x1
 5172 1849 01DB      	.word0x1db
 5173 184b 0000 0AC8 	.long0xac8
 5174 184f 02        	.uleb128 0x2
 5175 1850 91        	.byte0x91
 5176 1851 7A        	.sleb128 -6
 5177 1852 2A        	.uleb128 0x2a
 5178 1853 0000 0000 	.long.LASF190
 5179 1857 01        	.byte0x1
 5180 1858 01DC      	.word0x1dc
 5181 185a 0000 0AE4 	.long0xae4
 5182 185e 02        	.uleb128 0x2
 5183 185f 91        	.byte0x91
 5184 1860 74        	.sleb128 -12
 5185 1861 2A        	.uleb128 0x2a
 5186 1862 0000 0000 	.long.LASF301
 5187 1866 01        	.byte0x1
 5188 1867 01DD      	.word0x1dd
 5189 1869 0000 0074 	.long0x74
 5190 186d 02        	.uleb128 0x2
 5191 186e 91        	.byte0x91
 5192 186f 72        	.sleb128 -14
 5193 1870 00        	.byte0
 5194 1871 2D        	.uleb128 0x2d
 5195 1872 0000 0000 	.long.LASF309
 5196 1876 01        	.byte0x1
 5197 1877 EC        	.byte0xec
 5198 1878 0000 0050 	.long0x50
 5199 187c 0000 0000 	.long.LFB61
68K GAS   			page 126


 5200 1880 0000 0414 	.long.LFE61-.LFB61
 5201 1884 01        	.uleb128 0x1
 5202 1885 9C        	.byte0x9c
 5203 1886 0000 18B5 	.long0x18b5
 5204 188a 2E        	.uleb128 0x2e
 5205 188b 0000 0000 	.long.LASF302
 5206 188f 01        	.byte0x1
 5207 1890 EE        	.byte0xee
 5208 1891 0000 0050 	.long0x50
 5209 1895 02        	.uleb128 0x2
 5210 1896 91        	.byte0x91
 5211 1897 78        	.sleb128 -8
 5212 1898 2E        	.uleb128 0x2e
 5213 1899 0000 0000 	.long.LASF303
 5214 189d 01        	.byte0x1
 5215 189e EF        	.byte0xef
 5216 189f 0000 0086 	.long0x86
 5217 18a3 02        	.uleb128 0x2
 5218 18a4 91        	.byte0x91
 5219 18a5 74        	.sleb128 -12
 5220 18a6 2E        	.uleb128 0x2e
 5221 18a7 0000 0000 	.long.LASF304
 5222 18ab 01        	.byte0x1
 5223 18ac F0        	.byte0xf0
 5224 18ad 0000 0086 	.long0x86
 5225 18b1 02        	.uleb128 0x2
 5226 18b2 91        	.byte0x91
 5227 18b3 70        	.sleb128 -16
 5228 18b4 00        	.byte0
 5229 18b5 2F        	.uleb128 0x2f
 5230 18b6 0000 0000 	.long.LASF305
 5231 18ba 01        	.byte0x1
 5232 18bb AE        	.byte0xae
 5233 18bc 0000 0000 	.long.LFB60
 5234 18c0 0000 00E0 	.long.LFE60-.LFB60
 5235 18c4 01        	.uleb128 0x1
 5236 18c5 9C        	.byte0x9c
 5237 18c6 0000 18D9 	.long0x18d9
 5238 18ca 2E        	.uleb128 0x2e
 5239 18cb 0000 0000 	.long.LASF302
 5240 18cf 01        	.byte0x1
 5241 18d0 B0        	.byte0xb0
 5242 18d1 0000 0050 	.long0x50
 5243 18d5 02        	.uleb128 0x2
 5244 18d6 91        	.byte0x91
 5245 18d7 78        	.sleb128 -8
 5246 18d8 00        	.byte0
 5247 18d9 30        	.uleb128 0x30
 5248 18da 0000 0000 	.long.LASF310
 5249 18de 01        	.byte0x1
 5250 18df 9C        	.byte0x9c
 5251 18e0 0000 0050 	.long0x50
 5252 18e4 0000 0000 	.long.LFB59
 5253 18e8 0000 000A 	.long.LFE59-.LFB59
 5254 18ec 01        	.uleb128 0x1
 5255 18ed 9C        	.byte0x9c
 5256 18ee 00        	.byte0
68K GAS   			page 127


 5257               	.section.debug_abbrev,"",@progbits
 5258               	.Ldebug_abbrev0:
 5259 0000 01        	.uleb128 0x1
 5260 0001 11        	.uleb128 0x11
 5261 0002 01        	.byte0x1
 5262 0003 25        	.uleb128 0x25
 5263 0004 0E        	.uleb128 0xe
 5264 0005 13        	.uleb128 0x13
 5265 0006 0B        	.uleb128 0xb
 5266 0007 03        	.uleb128 0x3
 5267 0008 0E        	.uleb128 0xe
 5268 0009 1B        	.uleb128 0x1b
 5269 000a 0E        	.uleb128 0xe
 5270 000b 11        	.uleb128 0x11
 5271 000c 01        	.uleb128 0x1
 5272 000d 12        	.uleb128 0x12
 5273 000e 06        	.uleb128 0x6
 5274 000f 10        	.uleb128 0x10
 5275 0010 17        	.uleb128 0x17
 5276 0011 00        	.byte0
 5277 0012 00        	.byte0
 5278 0013 02        	.uleb128 0x2
 5279 0014 16        	.uleb128 0x16
 5280 0015 00        	.byte0
 5281 0016 03        	.uleb128 0x3
 5282 0017 0E        	.uleb128 0xe
 5283 0018 3A        	.uleb128 0x3a
 5284 0019 0B        	.uleb128 0xb
 5285 001a 3B        	.uleb128 0x3b
 5286 001b 0B        	.uleb128 0xb
 5287 001c 49        	.uleb128 0x49
 5288 001d 13        	.uleb128 0x13
 5289 001e 00        	.byte0
 5290 001f 00        	.byte0
 5291 0020 03        	.uleb128 0x3
 5292 0021 24        	.uleb128 0x24
 5293 0022 00        	.byte0
 5294 0023 0B        	.uleb128 0xb
 5295 0024 0B        	.uleb128 0xb
 5296 0025 3E        	.uleb128 0x3e
 5297 0026 0B        	.uleb128 0xb
 5298 0027 03        	.uleb128 0x3
 5299 0028 0E        	.uleb128 0xe
 5300 0029 00        	.byte0
 5301 002a 00        	.byte0
 5302 002b 04        	.uleb128 0x4
 5303 002c 16        	.uleb128 0x16
 5304 002d 00        	.byte0
 5305 002e 03        	.uleb128 0x3
 5306 002f 0E        	.uleb128 0xe
 5307 0030 3A        	.uleb128 0x3a
 5308 0031 0B        	.uleb128 0xb
 5309 0032 3B        	.uleb128 0x3b
 5310 0033 05        	.uleb128 0x5
 5311 0034 49        	.uleb128 0x49
 5312 0035 13        	.uleb128 0x13
 5313 0036 00        	.byte0
68K GAS   			page 128


 5314 0037 00        	.byte0
 5315 0038 05        	.uleb128 0x5
 5316 0039 26        	.uleb128 0x26
 5317 003a 00        	.byte0
 5318 003b 49        	.uleb128 0x49
 5319 003c 13        	.uleb128 0x13
 5320 003d 00        	.byte0
 5321 003e 00        	.byte0
 5322 003f 06        	.uleb128 0x6
 5323 0040 0F        	.uleb128 0xf
 5324 0041 00        	.byte0
 5325 0042 0B        	.uleb128 0xb
 5326 0043 0B        	.uleb128 0xb
 5327 0044 00        	.byte0
 5328 0045 00        	.byte0
 5329 0046 07        	.uleb128 0x7
 5330 0047 24        	.uleb128 0x24
 5331 0048 00        	.byte0
 5332 0049 0B        	.uleb128 0xb
 5333 004a 0B        	.uleb128 0xb
 5334 004b 3E        	.uleb128 0x3e
 5335 004c 0B        	.uleb128 0xb
 5336 004d 03        	.uleb128 0x3
 5337 004e 08        	.uleb128 0x8
 5338 004f 00        	.byte0
 5339 0050 00        	.byte0
 5340 0051 08        	.uleb128 0x8
 5341 0052 13        	.uleb128 0x13
 5342 0053 01        	.byte0x1
 5343 0054 03        	.uleb128 0x3
 5344 0055 0E        	.uleb128 0xe
 5345 0056 0B        	.uleb128 0xb
 5346 0057 0B        	.uleb128 0xb
 5347 0058 3A        	.uleb128 0x3a
 5348 0059 0B        	.uleb128 0xb
 5349 005a 3B        	.uleb128 0x3b
 5350 005b 0B        	.uleb128 0xb
 5351 005c 01        	.uleb128 0x1
 5352 005d 13        	.uleb128 0x13
 5353 005e 00        	.byte0
 5354 005f 00        	.byte0
 5355 0060 09        	.uleb128 0x9
 5356 0061 0D        	.uleb128 0xd
 5357 0062 00        	.byte0
 5358 0063 03        	.uleb128 0x3
 5359 0064 0E        	.uleb128 0xe
 5360 0065 3A        	.uleb128 0x3a
 5361 0066 0B        	.uleb128 0xb
 5362 0067 3B        	.uleb128 0x3b
 5363 0068 0B        	.uleb128 0xb
 5364 0069 49        	.uleb128 0x49
 5365 006a 13        	.uleb128 0x13
 5366 006b 38        	.uleb128 0x38
 5367 006c 0B        	.uleb128 0xb
 5368 006d 00        	.byte0
 5369 006e 00        	.byte0
 5370 006f 0A        	.uleb128 0xa
68K GAS   			page 129


 5371 0070 13        	.uleb128 0x13
 5372 0071 00        	.byte0
 5373 0072 03        	.uleb128 0x3
 5374 0073 0E        	.uleb128 0xe
 5375 0074 3C        	.uleb128 0x3c
 5376 0075 19        	.uleb128 0x19
 5377 0076 00        	.byte0
 5378 0077 00        	.byte0
 5379 0078 0B        	.uleb128 0xb
 5380 0079 0F        	.uleb128 0xf
 5381 007a 00        	.byte0
 5382 007b 0B        	.uleb128 0xb
 5383 007c 0B        	.uleb128 0xb
 5384 007d 49        	.uleb128 0x49
 5385 007e 13        	.uleb128 0x13
 5386 007f 00        	.byte0
 5387 0080 00        	.byte0
 5388 0081 0C        	.uleb128 0xc
 5389 0082 17        	.uleb128 0x17
 5390 0083 01        	.byte0x1
 5391 0084 0B        	.uleb128 0xb
 5392 0085 0B        	.uleb128 0xb
 5393 0086 3A        	.uleb128 0x3a
 5394 0087 0B        	.uleb128 0xb
 5395 0088 3B        	.uleb128 0x3b
 5396 0089 0B        	.uleb128 0xb
 5397 008a 01        	.uleb128 0x1
 5398 008b 13        	.uleb128 0x13
 5399 008c 00        	.byte0
 5400 008d 00        	.byte0
 5401 008e 0D        	.uleb128 0xd
 5402 008f 0D        	.uleb128 0xd
 5403 0090 00        	.byte0
 5404 0091 03        	.uleb128 0x3
 5405 0092 0E        	.uleb128 0xe
 5406 0093 3A        	.uleb128 0x3a
 5407 0094 0B        	.uleb128 0xb
 5408 0095 3B        	.uleb128 0x3b
 5409 0096 0B        	.uleb128 0xb
 5410 0097 49        	.uleb128 0x49
 5411 0098 13        	.uleb128 0x13
 5412 0099 00        	.byte0
 5413 009a 00        	.byte0
 5414 009b 0E        	.uleb128 0xe
 5415 009c 01        	.uleb128 0x1
 5416 009d 01        	.byte0x1
 5417 009e 49        	.uleb128 0x49
 5418 009f 13        	.uleb128 0x13
 5419 00a0 01        	.uleb128 0x1
 5420 00a1 13        	.uleb128 0x13
 5421 00a2 00        	.byte0
 5422 00a3 00        	.byte0
 5423 00a4 0F        	.uleb128 0xf
 5424 00a5 21        	.uleb128 0x21
 5425 00a6 00        	.byte0
 5426 00a7 49        	.uleb128 0x49
 5427 00a8 13        	.uleb128 0x13
68K GAS   			page 130


 5428 00a9 2F        	.uleb128 0x2f
 5429 00aa 0B        	.uleb128 0xb
 5430 00ab 00        	.byte0
 5431 00ac 00        	.byte0
 5432 00ad 10        	.uleb128 0x10
 5433 00ae 13        	.uleb128 0x13
 5434 00af 01        	.byte0x1
 5435 00b0 0B        	.uleb128 0xb
 5436 00b1 0B        	.uleb128 0xb
 5437 00b2 3A        	.uleb128 0x3a
 5438 00b3 0B        	.uleb128 0xb
 5439 00b4 3B        	.uleb128 0x3b
 5440 00b5 0B        	.uleb128 0xb
 5441 00b6 01        	.uleb128 0x1
 5442 00b7 13        	.uleb128 0x13
 5443 00b8 00        	.byte0
 5444 00b9 00        	.byte0
 5445 00ba 11        	.uleb128 0x11
 5446 00bb 0D        	.uleb128 0xd
 5447 00bc 00        	.byte0
 5448 00bd 03        	.uleb128 0x3
 5449 00be 08        	.uleb128 0x8
 5450 00bf 3A        	.uleb128 0x3a
 5451 00c0 0B        	.uleb128 0xb
 5452 00c1 3B        	.uleb128 0x3b
 5453 00c2 0B        	.uleb128 0xb
 5454 00c3 49        	.uleb128 0x49
 5455 00c4 13        	.uleb128 0x13
 5456 00c5 38        	.uleb128 0x38
 5457 00c6 0B        	.uleb128 0xb
 5458 00c7 00        	.byte0
 5459 00c8 00        	.byte0
 5460 00c9 12        	.uleb128 0x12
 5461 00ca 13        	.uleb128 0x13
 5462 00cb 01        	.byte0x1
 5463 00cc 03        	.uleb128 0x3
 5464 00cd 0E        	.uleb128 0xe
 5465 00ce 0B        	.uleb128 0xb
 5466 00cf 05        	.uleb128 0x5
 5467 00d0 3A        	.uleb128 0x3a
 5468 00d1 0B        	.uleb128 0xb
 5469 00d2 3B        	.uleb128 0x3b
 5470 00d3 0B        	.uleb128 0xb
 5471 00d4 01        	.uleb128 0x1
 5472 00d5 13        	.uleb128 0x13
 5473 00d6 00        	.byte0
 5474 00d7 00        	.byte0
 5475 00d8 13        	.uleb128 0x13
 5476 00d9 0D        	.uleb128 0xd
 5477 00da 00        	.byte0
 5478 00db 03        	.uleb128 0x3
 5479 00dc 0E        	.uleb128 0xe
 5480 00dd 3A        	.uleb128 0x3a
 5481 00de 0B        	.uleb128 0xb
 5482 00df 3B        	.uleb128 0x3b
 5483 00e0 0B        	.uleb128 0xb
 5484 00e1 49        	.uleb128 0x49
68K GAS   			page 131


 5485 00e2 13        	.uleb128 0x13
 5486 00e3 38        	.uleb128 0x38
 5487 00e4 05        	.uleb128 0x5
 5488 00e5 00        	.byte0
 5489 00e6 00        	.byte0
 5490 00e7 14        	.uleb128 0x14
 5491 00e8 15        	.uleb128 0x15
 5492 00e9 00        	.byte0
 5493 00ea 27        	.uleb128 0x27
 5494 00eb 19        	.uleb128 0x19
 5495 00ec 00        	.byte0
 5496 00ed 00        	.byte0
 5497 00ee 15        	.uleb128 0x15
 5498 00ef 15        	.uleb128 0x15
 5499 00f0 01        	.byte0x1
 5500 00f1 27        	.uleb128 0x27
 5501 00f2 19        	.uleb128 0x19
 5502 00f3 49        	.uleb128 0x49
 5503 00f4 13        	.uleb128 0x13
 5504 00f5 01        	.uleb128 0x1
 5505 00f6 13        	.uleb128 0x13
 5506 00f7 00        	.byte0
 5507 00f8 00        	.byte0
 5508 00f9 16        	.uleb128 0x16
 5509 00fa 05        	.uleb128 0x5
 5510 00fb 00        	.byte0
 5511 00fc 49        	.uleb128 0x49
 5512 00fd 13        	.uleb128 0x13
 5513 00fe 00        	.byte0
 5514 00ff 00        	.byte0
 5515 0100 17        	.uleb128 0x17
 5516 0101 13        	.uleb128 0x13
 5517 0102 01        	.byte0x1
 5518 0103 03        	.uleb128 0x3
 5519 0104 0E        	.uleb128 0xe
 5520 0105 0B        	.uleb128 0xb
 5521 0106 05        	.uleb128 0x5
 5522 0107 3A        	.uleb128 0x3a
 5523 0108 0B        	.uleb128 0xb
 5524 0109 3B        	.uleb128 0x3b
 5525 010a 05        	.uleb128 0x5
 5526 010b 01        	.uleb128 0x1
 5527 010c 13        	.uleb128 0x13
 5528 010d 00        	.byte0
 5529 010e 00        	.byte0
 5530 010f 18        	.uleb128 0x18
 5531 0110 0D        	.uleb128 0xd
 5532 0111 00        	.byte0
 5533 0112 03        	.uleb128 0x3
 5534 0113 0E        	.uleb128 0xe
 5535 0114 3A        	.uleb128 0x3a
 5536 0115 0B        	.uleb128 0xb
 5537 0116 3B        	.uleb128 0x3b
 5538 0117 05        	.uleb128 0x5
 5539 0118 49        	.uleb128 0x49
 5540 0119 13        	.uleb128 0x13
 5541 011a 38        	.uleb128 0x38
68K GAS   			page 132


 5542 011b 0B        	.uleb128 0xb
 5543 011c 00        	.byte0
 5544 011d 00        	.byte0
 5545 011e 19        	.uleb128 0x19
 5546 011f 0D        	.uleb128 0xd
 5547 0120 00        	.byte0
 5548 0121 03        	.uleb128 0x3
 5549 0122 0E        	.uleb128 0xe
 5550 0123 3A        	.uleb128 0x3a
 5551 0124 0B        	.uleb128 0xb
 5552 0125 3B        	.uleb128 0x3b
 5553 0126 05        	.uleb128 0x5
 5554 0127 49        	.uleb128 0x49
 5555 0128 13        	.uleb128 0x13
 5556 0129 38        	.uleb128 0x38
 5557 012a 05        	.uleb128 0x5
 5558 012b 00        	.byte0
 5559 012c 00        	.byte0
 5560 012d 1A        	.uleb128 0x1a
 5561 012e 13        	.uleb128 0x13
 5562 012f 01        	.byte0x1
 5563 0130 03        	.uleb128 0x3
 5564 0131 0E        	.uleb128 0xe
 5565 0132 0B        	.uleb128 0xb
 5566 0133 0B        	.uleb128 0xb
 5567 0134 3A        	.uleb128 0x3a
 5568 0135 0B        	.uleb128 0xb
 5569 0136 3B        	.uleb128 0x3b
 5570 0137 05        	.uleb128 0x5
 5571 0138 01        	.uleb128 0x1
 5572 0139 13        	.uleb128 0x13
 5573 013a 00        	.byte0
 5574 013b 00        	.byte0
 5575 013c 1B        	.uleb128 0x1b
 5576 013d 13        	.uleb128 0x13
 5577 013e 01        	.byte0x1
 5578 013f 0B        	.uleb128 0xb
 5579 0140 0B        	.uleb128 0xb
 5580 0141 3A        	.uleb128 0x3a
 5581 0142 0B        	.uleb128 0xb
 5582 0143 3B        	.uleb128 0x3b
 5583 0144 05        	.uleb128 0x5
 5584 0145 01        	.uleb128 0x1
 5585 0146 13        	.uleb128 0x13
 5586 0147 00        	.byte0
 5587 0148 00        	.byte0
 5588 0149 1C        	.uleb128 0x1c
 5589 014a 17        	.uleb128 0x17
 5590 014b 01        	.byte0x1
 5591 014c 0B        	.uleb128 0xb
 5592 014d 0B        	.uleb128 0xb
 5593 014e 3A        	.uleb128 0x3a
 5594 014f 0B        	.uleb128 0xb
 5595 0150 3B        	.uleb128 0x3b
 5596 0151 05        	.uleb128 0x5
 5597 0152 01        	.uleb128 0x1
 5598 0153 13        	.uleb128 0x13
68K GAS   			page 133


 5599 0154 00        	.byte0
 5600 0155 00        	.byte0
 5601 0156 1D        	.uleb128 0x1d
 5602 0157 0D        	.uleb128 0xd
 5603 0158 00        	.byte0
 5604 0159 03        	.uleb128 0x3
 5605 015a 0E        	.uleb128 0xe
 5606 015b 3A        	.uleb128 0x3a
 5607 015c 0B        	.uleb128 0xb
 5608 015d 3B        	.uleb128 0x3b
 5609 015e 05        	.uleb128 0x5
 5610 015f 49        	.uleb128 0x49
 5611 0160 13        	.uleb128 0x13
 5612 0161 00        	.byte0
 5613 0162 00        	.byte0
 5614 0163 1E        	.uleb128 0x1e
 5615 0164 15        	.uleb128 0x15
 5616 0165 01        	.byte0x1
 5617 0166 27        	.uleb128 0x27
 5618 0167 19        	.uleb128 0x19
 5619 0168 01        	.uleb128 0x1
 5620 0169 13        	.uleb128 0x13
 5621 016a 00        	.byte0
 5622 016b 00        	.byte0
 5623 016c 1F        	.uleb128 0x1f
 5624 016d 34        	.uleb128 0x34
 5625 016e 00        	.byte0
 5626 016f 03        	.uleb128 0x3
 5627 0170 0E        	.uleb128 0xe
 5628 0171 3A        	.uleb128 0x3a
 5629 0172 0B        	.uleb128 0xb
 5630 0173 3B        	.uleb128 0x3b
 5631 0174 05        	.uleb128 0x5
 5632 0175 49        	.uleb128 0x49
 5633 0176 13        	.uleb128 0x13
 5634 0177 3F        	.uleb128 0x3f
 5635 0178 19        	.uleb128 0x19
 5636 0179 3C        	.uleb128 0x3c
 5637 017a 19        	.uleb128 0x19
 5638 017b 00        	.byte0
 5639 017c 00        	.byte0
 5640 017d 20        	.uleb128 0x20
 5641 017e 34        	.uleb128 0x34
 5642 017f 00        	.byte0
 5643 0180 03        	.uleb128 0x3
 5644 0181 0E        	.uleb128 0xe
 5645 0182 3A        	.uleb128 0x3a
 5646 0183 0B        	.uleb128 0xb
 5647 0184 3B        	.uleb128 0x3b
 5648 0185 0B        	.uleb128 0xb
 5649 0186 49        	.uleb128 0x49
 5650 0187 13        	.uleb128 0x13
 5651 0188 3F        	.uleb128 0x3f
 5652 0189 19        	.uleb128 0x19
 5653 018a 3C        	.uleb128 0x3c
 5654 018b 19        	.uleb128 0x19
 5655 018c 00        	.byte0
68K GAS   			page 134


 5656 018d 00        	.byte0
 5657 018e 21        	.uleb128 0x21
 5658 018f 15        	.uleb128 0x15
 5659 0190 00        	.byte0
 5660 0191 27        	.uleb128 0x27
 5661 0192 19        	.uleb128 0x19
 5662 0193 49        	.uleb128 0x49
 5663 0194 13        	.uleb128 0x13
 5664 0195 00        	.byte0
 5665 0196 00        	.byte0
 5666 0197 22        	.uleb128 0x22
 5667 0198 04        	.uleb128 0x4
 5668 0199 01        	.byte0x1
 5669 019a 3E        	.uleb128 0x3e
 5670 019b 0B        	.uleb128 0xb
 5671 019c 0B        	.uleb128 0xb
 5672 019d 0B        	.uleb128 0xb
 5673 019e 49        	.uleb128 0x49
 5674 019f 13        	.uleb128 0x13
 5675 01a0 3A        	.uleb128 0x3a
 5676 01a1 0B        	.uleb128 0xb
 5677 01a2 3B        	.uleb128 0x3b
 5678 01a3 0B        	.uleb128 0xb
 5679 01a4 01        	.uleb128 0x1
 5680 01a5 13        	.uleb128 0x13
 5681 01a6 00        	.byte0
 5682 01a7 00        	.byte0
 5683 01a8 23        	.uleb128 0x23
 5684 01a9 28        	.uleb128 0x28
 5685 01aa 00        	.byte0
 5686 01ab 03        	.uleb128 0x3
 5687 01ac 0E        	.uleb128 0xe
 5688 01ad 1C        	.uleb128 0x1c
 5689 01ae 0D        	.uleb128 0xd
 5690 01af 00        	.byte0
 5691 01b0 00        	.byte0
 5692 01b1 24        	.uleb128 0x24
 5693 01b2 28        	.uleb128 0x28
 5694 01b3 00        	.byte0
 5695 01b4 03        	.uleb128 0x3
 5696 01b5 0E        	.uleb128 0xe
 5697 01b6 1C        	.uleb128 0x1c
 5698 01b7 0B        	.uleb128 0xb
 5699 01b8 00        	.byte0
 5700 01b9 00        	.byte0
 5701 01ba 25        	.uleb128 0x25
 5702 01bb 0D        	.uleb128 0xd
 5703 01bc 00        	.byte0
 5704 01bd 03        	.uleb128 0x3
 5705 01be 08        	.uleb128 0x8
 5706 01bf 3A        	.uleb128 0x3a
 5707 01c0 0B        	.uleb128 0xb
 5708 01c1 3B        	.uleb128 0x3b
 5709 01c2 0B        	.uleb128 0xb
 5710 01c3 49        	.uleb128 0x49
 5711 01c4 13        	.uleb128 0x13
 5712 01c5 00        	.byte0
68K GAS   			page 135


 5713 01c6 00        	.byte0
 5714 01c7 26        	.uleb128 0x26
 5715 01c8 13        	.uleb128 0x13
 5716 01c9 01        	.byte0x1
 5717 01ca 0B        	.uleb128 0xb
 5718 01cb 05        	.uleb128 0x5
 5719 01cc 3A        	.uleb128 0x3a
 5720 01cd 0B        	.uleb128 0xb
 5721 01ce 3B        	.uleb128 0x3b
 5722 01cf 0B        	.uleb128 0xb
 5723 01d0 01        	.uleb128 0x1
 5724 01d1 13        	.uleb128 0x13
 5725 01d2 00        	.byte0
 5726 01d3 00        	.byte0
 5727 01d4 27        	.uleb128 0x27
 5728 01d5 34        	.uleb128 0x34
 5729 01d6 00        	.byte0
 5730 01d7 47        	.uleb128 0x47
 5731 01d8 13        	.uleb128 0x13
 5732 01d9 3A        	.uleb128 0x3a
 5733 01da 0B        	.uleb128 0xb
 5734 01db 3B        	.uleb128 0x3b
 5735 01dc 0B        	.uleb128 0xb
 5736 01dd 02        	.uleb128 0x2
 5737 01de 18        	.uleb128 0x18
 5738 01df 00        	.byte0
 5739 01e0 00        	.byte0
 5740 01e1 28        	.uleb128 0x28
 5741 01e2 2E        	.uleb128 0x2e
 5742 01e3 01        	.byte0x1
 5743 01e4 3F        	.uleb128 0x3f
 5744 01e5 19        	.uleb128 0x19
 5745 01e6 03        	.uleb128 0x3
 5746 01e7 0E        	.uleb128 0xe
 5747 01e8 3A        	.uleb128 0x3a
 5748 01e9 0B        	.uleb128 0xb
 5749 01ea 3B        	.uleb128 0x3b
 5750 01eb 05        	.uleb128 0x5
 5751 01ec 27        	.uleb128 0x27
 5752 01ed 19        	.uleb128 0x19
 5753 01ee 11        	.uleb128 0x11
 5754 01ef 01        	.uleb128 0x1
 5755 01f0 12        	.uleb128 0x12
 5756 01f1 06        	.uleb128 0x6
 5757 01f2 40        	.uleb128 0x40
 5758 01f3 18        	.uleb128 0x18
 5759 01f4 9642      	.uleb128 0x2116
 5760 01f6 19        	.uleb128 0x19
 5761 01f7 01        	.uleb128 0x1
 5762 01f8 13        	.uleb128 0x13
 5763 01f9 00        	.byte0
 5764 01fa 00        	.byte0
 5765 01fb 29        	.uleb128 0x29
 5766 01fc 05        	.uleb128 0x5
 5767 01fd 00        	.byte0
 5768 01fe 03        	.uleb128 0x3
 5769 01ff 0E        	.uleb128 0xe
68K GAS   			page 136


 5770 0200 3A        	.uleb128 0x3a
 5771 0201 0B        	.uleb128 0xb
 5772 0202 3B        	.uleb128 0x3b
 5773 0203 05        	.uleb128 0x5
 5774 0204 49        	.uleb128 0x49
 5775 0205 13        	.uleb128 0x13
 5776 0206 02        	.uleb128 0x2
 5777 0207 18        	.uleb128 0x18
 5778 0208 00        	.byte0
 5779 0209 00        	.byte0
 5780 020a 2A        	.uleb128 0x2a
 5781 020b 34        	.uleb128 0x34
 5782 020c 00        	.byte0
 5783 020d 03        	.uleb128 0x3
 5784 020e 0E        	.uleb128 0xe
 5785 020f 3A        	.uleb128 0x3a
 5786 0210 0B        	.uleb128 0xb
 5787 0211 3B        	.uleb128 0x3b
 5788 0212 05        	.uleb128 0x5
 5789 0213 49        	.uleb128 0x49
 5790 0214 13        	.uleb128 0x13
 5791 0215 02        	.uleb128 0x2
 5792 0216 18        	.uleb128 0x18
 5793 0217 00        	.byte0
 5794 0218 00        	.byte0
 5795 0219 2B        	.uleb128 0x2b
 5796 021a 0B        	.uleb128 0xb
 5797 021b 01        	.byte0x1
 5798 021c 11        	.uleb128 0x11
 5799 021d 01        	.uleb128 0x1
 5800 021e 12        	.uleb128 0x12
 5801 021f 06        	.uleb128 0x6
 5802 0220 00        	.byte0
 5803 0221 00        	.byte0
 5804 0222 2C        	.uleb128 0x2c
 5805 0223 2E        	.uleb128 0x2e
 5806 0224 00        	.byte0
 5807 0225 3F        	.uleb128 0x3f
 5808 0226 19        	.uleb128 0x19
 5809 0227 03        	.uleb128 0x3
 5810 0228 0E        	.uleb128 0xe
 5811 0229 3A        	.uleb128 0x3a
 5812 022a 0B        	.uleb128 0xb
 5813 022b 3B        	.uleb128 0x3b
 5814 022c 05        	.uleb128 0x5
 5815 022d 27        	.uleb128 0x27
 5816 022e 19        	.uleb128 0x19
 5817 022f 11        	.uleb128 0x11
 5818 0230 01        	.uleb128 0x1
 5819 0231 12        	.uleb128 0x12
 5820 0232 06        	.uleb128 0x6
 5821 0233 40        	.uleb128 0x40
 5822 0234 18        	.uleb128 0x18
 5823 0235 9642      	.uleb128 0x2116
 5824 0237 19        	.uleb128 0x19
 5825 0238 00        	.byte0
 5826 0239 00        	.byte0
68K GAS   			page 137


 5827 023a 2D        	.uleb128 0x2d
 5828 023b 2E        	.uleb128 0x2e
 5829 023c 01        	.byte0x1
 5830 023d 3F        	.uleb128 0x3f
 5831 023e 19        	.uleb128 0x19
 5832 023f 03        	.uleb128 0x3
 5833 0240 0E        	.uleb128 0xe
 5834 0241 3A        	.uleb128 0x3a
 5835 0242 0B        	.uleb128 0xb
 5836 0243 3B        	.uleb128 0x3b
 5837 0244 0B        	.uleb128 0xb
 5838 0245 27        	.uleb128 0x27
 5839 0246 19        	.uleb128 0x19
 5840 0247 49        	.uleb128 0x49
 5841 0248 13        	.uleb128 0x13
 5842 0249 11        	.uleb128 0x11
 5843 024a 01        	.uleb128 0x1
 5844 024b 12        	.uleb128 0x12
 5845 024c 06        	.uleb128 0x6
 5846 024d 40        	.uleb128 0x40
 5847 024e 18        	.uleb128 0x18
 5848 024f 9642      	.uleb128 0x2116
 5849 0251 19        	.uleb128 0x19
 5850 0252 01        	.uleb128 0x1
 5851 0253 13        	.uleb128 0x13
 5852 0254 00        	.byte0
 5853 0255 00        	.byte0
 5854 0256 2E        	.uleb128 0x2e
 5855 0257 34        	.uleb128 0x34
 5856 0258 00        	.byte0
 5857 0259 03        	.uleb128 0x3
 5858 025a 0E        	.uleb128 0xe
 5859 025b 3A        	.uleb128 0x3a
 5860 025c 0B        	.uleb128 0xb
 5861 025d 3B        	.uleb128 0x3b
 5862 025e 0B        	.uleb128 0xb
 5863 025f 49        	.uleb128 0x49
 5864 0260 13        	.uleb128 0x13
 5865 0261 02        	.uleb128 0x2
 5866 0262 18        	.uleb128 0x18
 5867 0263 00        	.byte0
 5868 0264 00        	.byte0
 5869 0265 2F        	.uleb128 0x2f
 5870 0266 2E        	.uleb128 0x2e
 5871 0267 01        	.byte0x1
 5872 0268 3F        	.uleb128 0x3f
 5873 0269 19        	.uleb128 0x19
 5874 026a 03        	.uleb128 0x3
 5875 026b 0E        	.uleb128 0xe
 5876 026c 3A        	.uleb128 0x3a
 5877 026d 0B        	.uleb128 0xb
 5878 026e 3B        	.uleb128 0x3b
 5879 026f 0B        	.uleb128 0xb
 5880 0270 27        	.uleb128 0x27
 5881 0271 19        	.uleb128 0x19
 5882 0272 11        	.uleb128 0x11
 5883 0273 01        	.uleb128 0x1
68K GAS   			page 138


 5884 0274 12        	.uleb128 0x12
 5885 0275 06        	.uleb128 0x6
 5886 0276 40        	.uleb128 0x40
 5887 0277 18        	.uleb128 0x18
 5888 0278 9642      	.uleb128 0x2116
 5889 027a 19        	.uleb128 0x19
 5890 027b 01        	.uleb128 0x1
 5891 027c 13        	.uleb128 0x13
 5892 027d 00        	.byte0
 5893 027e 00        	.byte0
 5894 027f 30        	.uleb128 0x30
 5895 0280 2E        	.uleb128 0x2e
 5896 0281 00        	.byte0
 5897 0282 3F        	.uleb128 0x3f
 5898 0283 19        	.uleb128 0x19
 5899 0284 03        	.uleb128 0x3
 5900 0285 0E        	.uleb128 0xe
 5901 0286 3A        	.uleb128 0x3a
 5902 0287 0B        	.uleb128 0xb
 5903 0288 3B        	.uleb128 0x3b
 5904 0289 0B        	.uleb128 0xb
 5905 028a 27        	.uleb128 0x27
 5906 028b 19        	.uleb128 0x19
 5907 028c 49        	.uleb128 0x49
 5908 028d 13        	.uleb128 0x13
 5909 028e 11        	.uleb128 0x11
 5910 028f 01        	.uleb128 0x1
 5911 0290 12        	.uleb128 0x12
 5912 0291 06        	.uleb128 0x6
 5913 0292 40        	.uleb128 0x40
 5914 0293 18        	.uleb128 0x18
 5915 0294 9642      	.uleb128 0x2116
 5916 0296 19        	.uleb128 0x19
 5917 0297 00        	.byte0
 5918 0298 00        	.byte0
 5919 0299 00        	.byte0
 5920               	.section.debug_aranges,"",@progbits
 5921 0000 0000 001C 	.long0x1c
 5922 0004 0002      	.word0x2
 5923 0006 0000 0000 	.long.Ldebug_info0
 5924 000a 04        	.byte0x4
 5925 000b 00        	.byte0
 5926 000c 0000      	.word0
 5927 000e 0000      	.word0
 5928 0010 0000 0000 	.long.Ltext0
 5929 0014 0000 0F6E 	.long.Letext0-.Ltext0
 5930 0018 0000 0000 	.long0
 5931 001c 0000 0000 	.long0
 5932               	.section.debug_line,"",@progbits
 5933               	.Ldebug_line0:
 5934 0000 0000 0470 	.section.debug_str,"MS",@progbits,1
 5934      0002 0000 
 5934      0282 0201 
 5934      FB0E 0D00 
 5934      0101 0101 
 5935               	.LASF152:
 5936 0000 4346 455F 	.string"CFE_TIME_VALID"
68K GAS   			page 139


 5936      5449 4D45 
 5936      5F56 414C 
 5936      4944 00
 5937               	.LASF273:
 5938 000f 4469 7265 	.string"Direction"
 5938      6374 696F 
 5938      6E00 
 5939               	.LASF37:
 5940 0019 5F73 7369 	.string"_ssize_t"
 5940      7A65 5F74 
 5940      00
 5941               	.LASF139:
 5942 0022 5F5F 6C6F 	.string"__locale_t"
 5942      6361 6C65 
 5942      5F74 00
 5943               	.LASF42:
 5944 002d 5F5F 7661 	.string"__value"
 5944      6C75 6500 
 5945               	.LASF140:
 5946 0035 5F5F 7366 	.string"__sf"
 5946      00
 5947               	.LASF207:
 5948 003a 5469 6D65 	.string"TimeSinceTone"
 5948      5369 6E63 
 5948      6554 6F6E 
 5948      6500 
 5949               	.LASF158:
 5950 0048 4343 5344 	.string"CCSDS_PriHdr_t"
 5950      535F 5072 
 5950      6948 6472 
 5950      5F74 00
 5951               	.LASF77:
 5952 0057 5F72 6561 	.string"_read"
 5952      6400 
 5953               	.LASF254:
 5954 005d 5065 6E64 	.string"PendingLeaps"
 5954      696E 674C 
 5954      6561 7073 
 5954      00
 5955               	.LASF222:
 5956 006a 4F6E 6548 	.string"OneHzAdjust"
 5956      7A41 646A 
 5956      7573 7400 
 5957               	.LASF78:
 5958 0076 5F77 7269 	.string"_write"
 5958      7465 00
 5959               	.LASF155:
 5960 007d 5374 7265 	.string"StreamId"
 5960      616D 4964 
 5960      00
 5961               	.LASF119:
 5962 0086 5F61 7363 	.string"_asctime_buf"
 5962      7469 6D65 
 5962      5F62 7566 
 5962      00
 5963               	.LASF248:
 5964 0093 4D73 6750 	.string"MsgPtr"
68K GAS   			page 140


 5964      7472 00
 5965               	.LASF104:
 5966 009a 5F63 7674 	.string"_cvtlen"
 5966      6C65 6E00 
 5967               	.LASF151:
 5968 00a2 4346 455F 	.string"CFE_TIME_INVALID"
 5968      5449 4D45 
 5968      5F49 4E56 
 5968      414C 4944 
 5968      00
 5969               	.LASF192:
 5970 00b3 436D 6443 	.string"CmdCounter"
 5970      6F75 6E74 
 5970      6572 00
 5971               	.LASF31:
 5972 00be 5F4D 7574 	.string"_Mutex_Control"
 5972      6578 5F43 
 5972      6F6E 7472 
 5972      6F6C 00
 5973               	.LASF265:
 5974 00cd 4C6F 6361 	.string"LocalSemaphore"
 5974      6C53 656D 
 5974      6170 686F 
 5974      7265 00
 5975               	.LASF143:
 5976 00dc 5F67 6C6F 	.string"_global_atexit"
 5976      6261 6C5F 
 5976      6174 6578 
 5976      6974 00
 5977               	.LASF251:
 5978 00eb 5069 7065 	.string"PipeDepth"
 5978      4465 7074 
 5978      6800 
 5979               	.LASF11:
 5980 00f5 7569 6E74 	.string"uint32"
 5980      3332 00
 5981               	.LASF138:
 5982 00fc 5F75 6E75 	.string"_unused"
 5982      7365 6400 
 5983               	.LASF51:
 5984 0104 5F5F 746D 	.string"__tm"
 5984      00
 5985               	.LASF134:
 5986 0109 5F77 6373 	.string"_wcsrtombs_state"
 5986      7274 6F6D 
 5986      6273 5F73 
 5986      7461 7465 
 5986      00
 5987               	.LASF82:
 5988 011a 5F6E 6275 	.string"_nbuf"
 5988      6600 
 5989               	.LASF52:
 5990 0120 5F5F 746D 	.string"__tm_sec"
 5990      5F73 6563 
 5990      00
 5991               	.LASF30:
 5992 0129 5F54 6872 	.string"_Thread_Control"
68K GAS   			page 141


 5992      6561 645F 
 5992      436F 6E74 
 5992      726F 6C00 
 5993               	.LASF127:
 5994 0139 5F6C 3634 	.string"_l64a_buf"
 5994      615F 6275 
 5994      6600 
 5995               	.LASF218:
 5996 0143 4F6E 6554 	.string"OneTimeDirection"
 5996      696D 6544 
 5996      6972 6563 
 5996      7469 6F6E 
 5996      00
 5997               	.LASF293:
 5998 0154 4346 455F 	.string"CFE_TIME_FakeToneCmd"
 5998      5449 4D45 
 5998      5F46 616B 
 5998      6554 6F6E 
 5998      6543 6D64 
 5999               	.LASF91:
 6000 0169 5F73 7464 	.string"_stdin"
 6000      696E 00
 6001               	.LASF79:
 6002 0170 5F73 6565 	.string"_seek"
 6002      6B00 
 6003               	.LASF270:
 6004 0176 5379 6E63 	.string"SynchCallback"
 6004      6843 616C 
 6004      6C62 6163 
 6004      6B00 
 6005               	.LASF300:
 6006 0184 4D65 7373 	.string"MessageID"
 6006      6167 6549 
 6006      4400 
 6007               	.LASF115:
 6008 018e 5F6D 756C 	.string"_mult"
 6008      7400 
 6009               	.LASF303:
 6010 0194 5469 6D65 	.string"TimeBaseId"
 6010      4261 7365 
 6010      4964 00
 6011               	.LASF194:
 6012 019f 436C 6F63 	.string"ClockStateFlags"
 6012      6B53 7461 
 6012      7465 466C 
 6012      6167 7300 
 6013               	.LASF296:
 6014 01af 4346 455F 	.string"CFE_TIME_HousekeepingCmd"
 6014      5449 4D45 
 6014      5F48 6F75 
 6014      7365 6B65 
 6014      6570 696E 
 6015               	.LASF39:
 6016 01c8 5F5F 7763 	.string"__wch"
 6016      6800 
 6017               	.LASF205:
 6018 01ce 4174 546F 	.string"AtToneDelay"
68K GAS   			page 142


 6018      6E65 4465 
 6018      6C61 7900 
 6019               	.LASF74:
 6020 01da 5F66 696C 	.string"_file"
 6020      6500 
 6021               	.LASF276:
 6022 01e0 4346 455F 	.string"CFE_TIME_1HzAdjCmd"
 6022      5449 4D45 
 6022      5F31 487A 
 6022      4164 6A43 
 6022      6D64 00
 6023               	.LASF61:
 6024 01f3 5F6F 6E5F 	.string"_on_exit_args"
 6024      6578 6974 
 6024      5F61 7267 
 6024      7300 
 6025               	.LASF221:
 6026 0201 4F6E 6554 	.string"OneTimeAdjust"
 6026      696D 6541 
 6026      646A 7573 
 6026      7400 
 6027               	.LASF291:
 6028 020f 4346 455F 	.string"CFE_TIME_ResetCmd"
 6028      5449 4D45 
 6028      5F52 6573 
 6028      6574 436D 
 6028      6400 
 6029               	.LASF285:
 6030 0221 4346 455F 	.string"CFE_TIME_SetDelayCmd"
 6030      5449 4D45 
 6030      5F53 6574 
 6030      4465 6C61 
 6030      7943 6D64 
 6031               	.LASF171:
 6032 0236 4346 455F 	.string"CFE_TIME_LeapsCmd_Payload_t"
 6032      5449 4D45 
 6032      5F4C 6561 
 6032      7073 436D 
 6032      645F 5061 
 6033               	.LASF130:
 6034 0252 5F6D 6272 	.string"_mbrlen_state"
 6034      6C65 6E5F 
 6034      7374 6174 
 6034      6500 
 6035               	.LASF6:
 6036 0260 6C6F 6E67 	.string"long int"
 6036      2069 6E74 
 6036      00
 6037               	.LASF200:
 6038 0269 5365 636F 	.string"Seconds1HzAdj"
 6038      6E64 7331 
 6038      487A 4164 
 6038      6A00 
 6039               	.LASF141:
 6040 0277 5F69 6D70 	.string"_impure_ptr"
 6040      7572 655F 
 6040      7074 7200 
68K GAS   			page 143


 6041               	.LASF101:
 6042 0283 5F72 6573 	.string"_result_k"
 6042      756C 745F 
 6042      6B00 
 6043               	.LASF187:
 6044 028d 4174 546F 	.string"AtToneLeaps"
 6044      6E65 4C65 
 6044      6170 7300 
 6045               	.LASF71:
 6046 0299 5F73 697A 	.string"_size"
 6046      6500 
 6047               	.LASF120:
 6048 029f 5F6C 6F63 	.string"_localtime_buf"
 6048      616C 7469 
 6048      6D65 5F62 
 6048      7566 00
 6049               	.LASF238:
 6050 02ae 4D61 784C 	.string"MaxLocalClock"
 6050      6F63 616C 
 6050      436C 6F63 
 6050      6B00 
 6051               	.LASF166:
 6052 02bc 5072 696F 	.string"Priority"
 6052      7269 7479 
 6052      00
 6053               	.LASF56:
 6054 02c5 5F5F 746D 	.string"__tm_mon"
 6054      5F6D 6F6E 
 6054      00
 6055               	.LASF210:
 6056 02ce 4375 7272 	.string"CurrentTAI"
 6056      656E 7454 
 6056      4149 00
 6057               	.LASF252:
 6058 02d9 5065 6E64 	.string"PendingMET"
 6058      696E 674D 
 6058      4554 00
 6059               	.LASF250:
 6060 02e4 5069 7065 	.string"PipeName"
 6060      4E61 6D65 
 6060      00
 6061               	.LASF203:
 6062 02ed 546C 6D48 	.string"TlmHeader"
 6062      6561 6465 
 6062      7200 
 6063               	.LASF272:
 6064 02f7 4346 455F 	.string"CFE_TIME_TaskData"
 6064      5449 4D45 
 6064      5F54 6173 
 6064      6B44 6174 
 6064      6100 
 6065               	.LASF198:
 6066 0309 5365 636F 	.string"SecondsSTCF"
 6066      6E64 7353 
 6066      5443 4600 
 6067               	.LASF117:
 6068 0315 5F75 6E75 	.string"_unused_rand"
68K GAS   			page 144


 6068      7365 645F 
 6068      7261 6E64 
 6068      00
 6069               	.LASF1:
 6070 0322 7369 676E 	.string"signed char"
 6070      6564 2063 
 6070      6861 7200 
 6071               	.LASF195:
 6072 032e 436C 6F63 	.string"ClockStateAPI"
 6072      6B53 7461 
 6072      7465 4150 
 6072      4900 
 6073               	.LASF175:
 6074 033c 4346 455F 	.string"CFE_TIME_SourceCmd_Payload_t"
 6074      5449 4D45 
 6074      5F53 6F75 
 6074      7263 6543 
 6074      6D64 5F50 
 6075               	.LASF14:
 6076 0359 626F 6F6C 	.string"boolean"
 6076      6561 6E00 
 6077               	.LASF161:
 6078 0361 4346 455F 	.string"CFE_SB_Msg_t"
 6078      5342 5F4D 
 6078      7367 5F74 
 6078      00
 6079               	.LASF190:
 6080 036e 5061 796C 	.string"Payload"
 6080      6F61 6400 
 6081               	.LASF29:
 6082 0376 5F54 6872 	.string"_Thread_queue_Heads"
 6082      6561 645F 
 6082      7175 6575 
 6082      655F 4865 
 6082      6164 7300 
 6083               	.LASF179:
 6084 038a 4346 455F 	.string"CFE_TIME_TimeCmd_Payload_t"
 6084      5449 4D45 
 6084      5F54 696D 
 6084      6543 6D64 
 6084      5F50 6179 
 6085               	.LASF0:
 6086 03a5 756E 7369 	.string"unsigned char"
 6086      676E 6564 
 6086      2063 6861 
 6086      7200 
 6087               	.LASF267:
 6088 03b3 4C6F 6361 	.string"LocalTaskID"
 6088      6C54 6173 
 6088      6B49 4400 
 6089               	.LASF96:
 6090 03bf 5F75 6E73 	.string"_unspecified_locale_info"
 6090      7065 6369 
 6090      6669 6564 
 6090      5F6C 6F63 
 6090      616C 655F 
 6091               	.LASF89:
68K GAS   			page 145


 6092 03d8 5F72 6565 	.string"_reent"
 6092      6E74 00
 6093               	.LASF142:
 6094 03df 5F67 6C6F 	.string"_global_impure_ptr"
 6094      6261 6C5F 
 6094      696D 7075 
 6094      7265 5F70 
 6094      7472 00
 6095               	.LASF173:
 6096 03f2 4346 455F 	.string"CFE_TIME_StateCmd_Payload_t"
 6096      5449 4D45 
 6096      5F53 7461 
 6096      7465 436D 
 6096      645F 5061 
 6097               	.LASF242:
 6098 040e 4346 455F 	.string"CFE_TIME_DiagPacket_Payload_t"
 6098      5449 4D45 
 6098      5F44 6961 
 6098      6750 6163 
 6098      6B65 745F 
 6099               	.LASF223:
 6100 042c 546F 6E65 	.string"ToneSignalLatch"
 6100      5369 676E 
 6100      616C 4C61 
 6100      7463 6800 
 6101               	.LASF24:
 6102 043c 5F54 6872 	.string"_Thread_queue_Queue"
 6102      6561 645F 
 6102      7175 6575 
 6102      655F 5175 
 6102      6575 6500 
 6103               	.LASF184:
 6104 0450 4346 455F 	.string"CFE_TIME_FakeToneCmd_t"
 6104      5449 4D45 
 6104      5F46 616B 
 6104      6554 6F6E 
 6104      6543 6D64 
 6105               	.LASF15:
 6106 0467 6368 6172 	.string"char"
 6106      00
 6107               	.LASF68:
 6108 046c 5F66 6E73 	.string"_fns"
 6108      00
 6109               	.LASF153:
 6110 0471 4346 455F 	.string"CFE_TIME_FLYWHEEL"
 6110      5449 4D45 
 6110      5F46 4C59 
 6110      5748 4545 
 6110      4C00 
 6111               	.LASF80:
 6112 0483 5F63 6C6F 	.string"_close"
 6112      7365 00
 6113               	.LASF177:
 6114 048a 4346 455F 	.string"CFE_TIME_SignalCmd_Payload_t"
 6114      5449 4D45 
 6114      5F53 6967 
 6114      6E61 6C43 
68K GAS   			page 146


 6114      6D64 5F50 
 6115               	.LASF271:
 6116 04a7 4346 455F 	.string"CFE_TIME_TaskData_t"
 6116      5449 4D45 
 6116      5F54 6173 
 6116      6B44 6174 
 6116      615F 7400 
 6117               	.LASF227:
 6118 04bb 546F 6E65 	.string"ToneSignalCount"
 6118      5369 676E 
 6118      616C 436F 
 6118      756E 7400 
 6119               	.LASF256:
 6120 04cb 496E 7465 	.string"InternalCount"
 6120      726E 616C 
 6120      436F 756E 
 6120      7400 
 6121               	.LASF23:
 6122 04d9 5F54 6963 	.string"_Ticket_lock_Control"
 6122      6B65 745F 
 6122      6C6F 636B 
 6122      5F43 6F6E 
 6122      7472 6F6C 
 6123               	.LASF181:
 6124 04ee 436D 6448 	.string"CmdHeader"
 6124      6561 6465 
 6124      7200 
 6125               	.LASF148:
 6126 04f8 5365 636F 	.string"Seconds"
 6126      6E64 7300 
 6127               	.LASF159:
 6128 0500 4477 6F72 	.string"Dword"
 6128      6400 
 6129               	.LASF269:
 6130 0506 4D61 7844 	.string"MaxDelta"
 6130      656C 7461 
 6130      00
 6131               	.LASF232:
 6132 050f 5665 7273 	.string"VersionCount"
 6132      696F 6E43 
 6132      6F75 6E74 
 6132      00
 6133               	.LASF27:
 6134 051c 5F6F 776E 	.string"_owner"
 6134      6572 00
 6135               	.LASF249:
 6136 0523 436D 6450 	.string"CmdPipe"
 6136      6970 6500 
 6137               	.LASF178:
 6138 052b 4D69 6372 	.string"MicroSeconds"
 6138      6F53 6563 
 6138      6F6E 6473 
 6138      00
 6139               	.LASF240:
 6140 0538 546F 6E65 	.string"ToneUnderLimit"
 6140      556E 6465 
 6140      724C 696D 
68K GAS   			page 147


 6140      6974 00
 6141               	.LASF185:
 6142 0547 4174 546F 	.string"AtToneMET"
 6142      6E65 4D45 
 6142      5400 
 6143               	.LASF233:
 6144 0551 4C6F 6361 	.string"LocalIntCount"
 6144      6C49 6E74 
 6144      436F 756E 
 6144      7400 
 6145               	.LASF310:
 6146 055f 4346 455F 	.string"CFE_TIME_EarlyInit"
 6146      5449 4D45 
 6146      5F45 6172 
 6146      6C79 496E 
 6146      6974 00
 6147               	.LASF193:
 6148 0572 4572 7243 	.string"ErrCounter"
 6148      6F75 6E74 
 6148      6572 00
 6149               	.LASF297:
 6150 057d 5265 6665 	.string"Reference"
 6150      7265 6E63 
 6150      6500 
 6151               	.LASF286:
 6152 0587 4346 455F 	.string"CFE_TIME_SetSignalCmd"
 6152      5449 4D45 
 6152      5F53 6574 
 6152      5369 676E 
 6152      616C 436D 
 6153               	.LASF231:
 6154 059d 546F 6E65 	.string"ToneTaskCount"
 6154      5461 736B 
 6154      436F 756E 
 6154      7400 
 6155               	.LASF147:
 6156 05ab 5F74 7A6E 	.string"_tzname"
 6156      616D 6500 
 6157               	.LASF35:
 6158 05b3 5F6E 6573 	.string"_nest_level"
 6158      745F 6C65 
 6158      7665 6C00 
 6159               	.LASF215:
 6160 05bf 436C 6F63 	.string"ClockSignal"
 6160      6B53 6967 
 6160      6E61 6C00 
 6161               	.LASF76:
 6162 05cb 5F63 6F6F 	.string"_cookie"
 6162      6B69 6500 
 6163               	.LASF50:
 6164 05d3 5F77 6473 	.string"_wds"
 6164      00
 6165               	.LASF214:
 6166 05d8 436C 6F63 	.string"ClockSource"
 6166      6B53 6F75 
 6166      7263 6500 
 6167               	.LASF213:
68K GAS   			page 148


 6168 05e4 436C 6F63 	.string"ClockFlyState"
 6168      6B46 6C79 
 6168      5374 6174 
 6168      6500 
 6169               	.LASF107:
 6170 05f2 5F73 6967 	.string"_sig_func"
 6170      5F66 756E 
 6170      6300 
 6171               	.LASF84:
 6172 05fc 5F6F 6666 	.string"_offset"
 6172      7365 7400 
 6173               	.LASF105:
 6174 0604 5F63 7674 	.string"_cvtbuf"
 6174      6275 6600 
 6175               	.LASF239:
 6176 060c 546F 6E65 	.string"ToneOverLimit"
 6176      4F76 6572 
 6176      4C69 6D69 
 6176      7400 
 6177               	.LASF305:
 6178 061a 4346 455F 	.string"CFE_TIME_TaskMain"
 6178      5449 4D45 
 6178      5F54 6173 
 6178      6B4D 6169 
 6178      6E00 
 6179               	.LASF20:
 6180 062c 5F6E 6578 	.string"_next_ticket"
 6180      745F 7469 
 6180      636B 6574 
 6180      00
 6181               	.LASF154:
 6182 0639 4346 455F 	.string"CFE_TIME_SynchCallbackPtr_t"
 6182      5449 4D45 
 6182      5F53 796E 
 6182      6368 4361 
 6182      6C6C 6261 
 6183               	.LASF102:
 6184 0655 5F70 3573 	.string"_p5s"
 6184      00
 6185               	.LASF12:
 6186 065a 6C6F 6E67 	.string"long unsigned int"
 6186      2075 6E73 
 6186      6967 6E65 
 6186      6420 696E 
 6186      7400 
 6187               	.LASF292:
 6188 066c 4346 455F 	.string"CFE_TIME_NoopCmd"
 6188      5449 4D45 
 6188      5F4E 6F6F 
 6188      7043 6D64 
 6188      00
 6189               	.LASF263:
 6190 067d 546F 6E65 	.string"ToneDataCmd"
 6190      4461 7461 
 6190      436D 6400 
 6191               	.LASF72:
 6192 0689 5F5F 7346 	.string"__sFILE"
68K GAS   			page 149


 6192      494C 4500 
 6193               	.LASF98:
 6194 0691 5F5F 7364 	.string"__sdidinit"
 6194      6964 696E 
 6194      6974 00
 6195               	.LASF88:
 6196 069c 5F66 6C61 	.string"_flags2"
 6196      6773 3200 
 6197               	.LASF186:
 6198 06a4 4174 546F 	.string"AtToneSTCF"
 6198      6E65 5354 
 6198      4346 00
 6199               	.LASF290:
 6200 06af 4346 455F 	.string"CFE_TIME_DiagCmd"
 6200      5449 4D45 
 6200      5F44 6961 
 6200      6743 6D64 
 6200      00
 6201               	.LASF36:
 6202 06c0 5F4C 4F43 	.string"_LOCK_RECURSIVE_T"
 6202      4B5F 5245 
 6202      4355 5253 
 6202      4956 455F 
 6202      5400 
 6203               	.LASF201:
 6204 06d2 5375 6273 	.string"Subsecs1HzAdj"
 6204      6563 7331 
 6204      487A 4164 
 6204      6A00 
 6205               	.LASF90:
 6206 06e0 5F65 7272 	.string"_errno"
 6206      6E6F 00
 6207               	.LASF287:
 6208 06e7 4346 455F 	.string"CFE_TIME_SetSourceCmd"
 6208      5449 4D45 
 6208      5F53 6574 
 6208      536F 7572 
 6208      6365 436D 
 6209               	.LASF304:
 6210 06fd 5469 6D65 	.string"TimerId"
 6210      7249 6400 
 6211               	.LASF128:
 6212 0705 5F73 6967 	.string"_signal_buf"
 6212      6E61 6C5F 
 6212      6275 6600 
 6213               	.LASF278:
 6214 0711 4346 455F 	.string"CFE_TIME_SetLeapsCmd"
 6214      5449 4D45 
 6214      5F53 6574 
 6214      4C65 6170 
 6214      7343 6D64 
 6215               	.LASF280:
 6216 0726 4E65 7753 	.string"NewSTCF"
 6216      5443 4600 
 6217               	.LASF46:
 6218 072e 5F42 6967 	.string"_Bigint"
 6218      696E 7400 
68K GAS   			page 150


 6219               	.LASF253:
 6220 0736 5065 6E64 	.string"PendingSTCF"
 6220      696E 6753 
 6220      5443 4600 
 6221               	.LASF48:
 6222 0742 5F6D 6178 	.string"_maxwds"
 6222      7764 7300 
 6223               	.LASF99:
 6224 074a 5F5F 636C 	.string"__cleanup"
 6224      6561 6E75 
 6224      7000 
 6225               	.LASF266:
 6226 0754 546F 6E65 	.string"ToneSemaphore"
 6226      5365 6D61 
 6226      7068 6F72 
 6226      6500 
 6227               	.LASF245:
 6228 0762 4346 455F 	.string"CFE_TIME_SynchCallbackRegEntry_t"
 6228      5449 4D45 
 6228      5F53 796E 
 6228      6368 4361 
 6228      6C6C 6261 
 6229               	.LASF302:
 6230 0783 5374 6174 	.string"Status"
 6230      7573 00
 6231               	.LASF170:
 6232 078a 4C65 6170 	.string"LeapSeconds"
 6232      5365 636F 
 6232      6E64 7300 
 6233               	.LASF95:
 6234 0796 5F65 6D65 	.string"_emergency"
 6234      7267 656E 
 6234      6379 00
 6235               	.LASF7:
 6236 07a1 6C6F 6E67 	.string"long long int"
 6236      206C 6F6E 
 6236      6720 696E 
 6236      7400 
 6237               	.LASF191:
 6238 07af 4346 455F 	.string"CFE_TIME_ToneDataCmd_t"
 6238      5449 4D45 
 6238      5F54 6F6E 
 6238      6544 6174 
 6238      6143 6D64 
 6239               	.LASF225:
 6240 07c6 546F 6E65 	.string"ToneMatchCount"
 6240      4D61 7463 
 6240      6843 6F75 
 6240      6E74 00
 6241               	.LASF281:
 6242 07d5 4346 455F 	.string"CFE_TIME_SetMETCmd"
 6242      5449 4D45 
 6242      5F53 6574 
 6242      4D45 5443 
 6242      6D64 00
 6243               	.LASF111:
 6244 07e8 5F6E 696F 	.string"_niobs"
68K GAS   			page 151


 6244      6273 00
 6245               	.LASF264:
 6246 07ef 546F 6E65 	.string"ToneSignalCmd"
 6246      5369 676E 
 6246      616C 436D 
 6246      6400 
 6247               	.LASF108:
 6248 07fd 5F5F 7367 	.string"__sglue"
 6248      6C75 6500 
 6249               	.LASF216:
 6250 0805 5365 7276 	.string"ServerFlyState"
 6250      6572 466C 
 6250      7953 7461 
 6250      7465 00
 6251               	.LASF137:
 6252 0814 5F6E 6D61 	.string"_nmalloc"
 6252      6C6C 6F63 
 6252      00
 6253               	.LASF121:
 6254 081d 5F67 616D 	.string"_gamma_signgam"
 6254      6D61 5F73 
 6254      6967 6E67 
 6254      616D 00
 6255               	.LASF295:
 6256 082c 4346 455F 	.string"CFE_TIME_ToneSignalCmd"
 6256      5449 4D45 
 6256      5F54 6F6E 
 6256      6553 6967 
 6256      6E61 6C43 
 6257               	.LASF103:
 6258 0843 5F66 7265 	.string"_freelist"
 6258      656C 6973 
 6258      7400 
 6259               	.LASF112:
 6260 084d 5F69 6F62 	.string"_iobs"
 6260      7300 
 6261               	.LASF182:
 6262 0853 4346 455F 	.string"CFE_TIME_1HzCmd_t"
 6262      5449 4D45 
 6262      5F31 487A 
 6262      436D 645F 
 6262      7400 
 6263               	.LASF110:
 6264 0865 5F67 6C75 	.string"_glue"
 6264      6500 
 6265               	.LASF49:
 6266 086b 5F73 6967 	.string"_sign"
 6266      6E00 
 6267               	.LASF289:
 6268 0871 436C 6F63 	.string"ClockStateText"
 6268      6B53 7461 
 6268      7465 5465 
 6268      7874 00
 6269               	.LASF172:
 6270 0880 436C 6F63 	.string"ClockState"
 6270      6B53 7461 
 6270      7465 00
68K GAS   			page 152


 6271               	.LASF235:
 6272 088b 5669 7274 	.string"VirtualMET"
 6272      7561 6C4D 
 6272      4554 00
 6273               	.LASF22:
 6274 0896 756E 7369 	.string"unsigned int"
 6274      676E 6564 
 6274      2069 6E74 
 6274      00
 6275               	.LASF145:
 6276 08a3 5F74 696D 	.string"_timezone"
 6276      657A 6F6E 
 6276      6500 
 6277               	.LASF135:
 6278 08ad 5F68 5F65 	.string"_h_errno"
 6278      7272 6E6F 
 6278      00
 6279               	.LASF277:
 6280 08b6 4346 455F 	.string"CFE_TIME_AdjustCmd"
 6280      5449 4D45 
 6280      5F41 646A 
 6280      7573 7443 
 6280      6D64 00
 6281               	.LASF133:
 6282 08c9 5F77 6372 	.string"_wcrtomb_state"
 6282      746F 6D62 
 6282      5F73 7461 
 6282      7465 00
 6283               	.LASF258:
 6284 08d8 4175 746F 	.string"AutoStartFly"
 6284      5374 6172 
 6284      7446 6C79 
 6284      00
 6285               	.LASF55:
 6286 08e5 5F5F 746D 	.string"__tm_mday"
 6286      5F6D 6461 
 6286      7900 
 6287               	.LASF106:
 6288 08ef 5F6E 6577 	.string"_new"
 6288      00
 6289               	.LASF28:
 6290 08f4 5F6E 616D 	.string"_name"
 6290      6500 
 6291               	.LASF81:
 6292 08fa 5F75 6275 	.string"_ubuf"
 6292      6600 
 6293               	.LASF167:
 6294 0900 5265 6C69 	.string"Reliability"
 6294      6162 696C 
 6294      6974 7900 
 6295               	.LASF93:
 6296 090c 5F73 7464 	.string"_stderr"
 6296      6572 7200 
 6297               	.LASF284:
 6298 0914 4E65 7754 	.string"NewTime"
 6298      696D 6500 
 6299               	.LASF126:
68K GAS   			page 153


 6300 091c 5F77 6374 	.string"_wctomb_state"
 6300      6F6D 625F 
 6300      7374 6174 
 6300      6500 
 6301               	.LASF87:
 6302 092a 5F6D 6273 	.string"_mbstate"
 6302      7461 7465 
 6302      00
 6303               	.LASF122:
 6304 0933 5F72 616E 	.string"_rand_next"
 6304      645F 6E65 
 6304      7874 00
 6305               	.LASF73:
 6306 093e 5F66 6C61 	.string"_flags"
 6306      6773 00
 6307               	.LASF66:
 6308 0945 5F61 7465 	.string"_atexit"
 6308      7869 7400 
 6309               	.LASF288:
 6310 094d 4346 455F 	.string"CFE_TIME_SetStateCmd"
 6310      5449 4D45 
 6310      5F53 6574 
 6310      5374 6174 
 6310      6543 6D64 
 6311               	.LASF149:
 6312 0962 5375 6273 	.string"Subseconds"
 6312      6563 6F6E 
 6312      6473 00
 6313               	.LASF275:
 6314 096d 4164 6A75 	.string"Adjust"
 6314      7374 00
 6315               	.LASF202:
 6316 0974 4346 455F 	.string"CFE_TIME_HkPacket_Payload_t"
 6316      5449 4D45 
 6316      5F48 6B50 
 6316      6163 6B65 
 6316      745F 5061 
 6317               	.LASF41:
 6318 0990 5F5F 636F 	.string"__count"
 6318      756E 7400 
 6319               	.LASF260:
 6320 0998 5370 6172 	.string"Spare"
 6320      6500 
 6321               	.LASF204:
 6322 099e 4346 455F 	.string"CFE_TIME_HkPacket_t"
 6322      5449 4D45 
 6322      5F48 6B50 
 6322      6163 6B65 
 6322      745F 7400 
 6323               	.LASF183:
 6324 09b2 4346 455F 	.string"CFE_TIME_ToneSignalCmd_t"
 6324      5449 4D45 
 6324      5F54 6F6E 
 6324      6553 6967 
 6324      6E61 6C43 
 6325               	.LASF58:
 6326 09cb 5F5F 746D 	.string"__tm_wday"
68K GAS   			page 154


 6326      5F77 6461 
 6326      7900 
 6327               	.LASF255:
 6328 09d5 5065 6E64 	.string"PendingState"
 6328      696E 6753 
 6328      7461 7465 
 6328      00
 6329               	.LASF160:
 6330 09e2 4279 7465 	.string"Byte"
 6330      00
 6331               	.LASF17:
 6332 09e7 6C6F 6E67 	.string"long double"
 6332      2064 6F75 
 6332      626C 6500 
 6333               	.LASF59:
 6334 09f3 5F5F 746D 	.string"__tm_yday"
 6334      5F79 6461 
 6334      7900 
 6335               	.LASF244:
 6336 09fd 4346 455F 	.string"CFE_TIME_Reference_t"
 6336      5449 4D45 
 6336      5F52 6566 
 6336      6572 656E 
 6336      6365 5F74 
 6337               	.LASF33:
 6338 0a12 5F4D 7574 	.string"_Mutex_recursive_Control"
 6338      6578 5F72 
 6338      6563 7572 
 6338      7369 7665 
 6338      5F43 6F6E 
 6339               	.LASF26:
 6340 0a2b 5F68 6561 	.string"_heads"
 6340      6473 00
 6341               	.LASF114:
 6342 0a32 5F73 6565 	.string"_seed"
 6342      6400 
 6343               	.LASF32:
 6344 0a38 5F51 7565 	.string"_Queue"
 6344      7565 00
 6345               	.LASF301:
 6346 0a3f 436F 6D6D 	.string"CommandCode"
 6346      616E 6443 
 6346      6F64 6500 
 6347               	.LASF243:
 6348 0a4b 4346 455F 	.string"CFE_TIME_DiagPacket_t"
 6348      5449 4D45 
 6348      5F44 6961 
 6348      6750 6163 
 6348      6B65 745F 
 6349               	.LASF261:
 6350 0a61 4C6F 6361 	.string"Local1HzCmd"
 6350      6C31 487A 
 6350      436D 6400 
 6351               	.LASF19:
 6352 0a6d 5F66 706F 	.string"_fpos_t"
 6352      735F 7400 
 6353               	.LASF40:
68K GAS   			page 155


 6354 0a75 5F5F 7763 	.string"__wchb"
 6354      6862 00
 6355               	.LASF125:
 6356 0a7c 5F6D 6274 	.string"_mbtowc_state"
 6356      6F77 635F 
 6356      7374 6174 
 6356      6500 
 6357               	.LASF307:
 6358 0a8a 2F68 6F6D 	.string"/home/simulink/cFS_FreeRTOS_seL4/cfe/fsw/cfe-core/src/time/cfe_time_task.c"
 6358      652F 7369 
 6358      6D75 6C69 
 6358      6E6B 2F63 
 6358      4653 5F46 
 6359               	.LASF226:
 6360 0ad5 546F 6E65 	.string"ToneMatchErrors"
 6360      4D61 7463 
 6360      6845 7272 
 6360      6F72 7300 
 6361               	.LASF13:
 6362 0ae5 6C6F 6E67 	.string"long long unsigned int"
 6362      206C 6F6E 
 6362      6720 756E 
 6362      7369 676E 
 6362      6564 2069 
 6363               	.LASF224:
 6364 0afc 546F 6E65 	.string"ToneDataLatch"
 6364      4461 7461 
 6364      4C61 7463 
 6364      6800 
 6365               	.LASF63:
 6366 0b0a 5F64 736F 	.string"_dso_handle"
 6366      5F68 616E 
 6366      646C 6500 
 6367               	.LASF113:
 6368 0b16 5F72 616E 	.string"_rand48"
 6368      6434 3800 
 6369               	.LASF163:
 6370 0b1e 4346 455F 	.string"CFE_SB_MsgId_t"
 6370      5342 5F4D 
 6370      7367 4964 
 6370      5F74 00
 6371               	.LASF92:
 6372 0b2d 5F73 7464 	.string"_stdout"
 6372      6F75 7400 
 6373               	.LASF83:
 6374 0b35 5F62 6C6B 	.string"_blksize"
 6374      7369 7A65 
 6374      00
 6375               	.LASF70:
 6376 0b3e 5F62 6173 	.string"_base"
 6376      6500 
 6377               	.LASF228:
 6378 0b44 546F 6E65 	.string"ToneDataCount"
 6378      4461 7461 
 6378      436F 756E 
 6378      7400 
 6379               	.LASF118:
68K GAS   			page 156


 6380 0b52 5F73 7472 	.string"_strtok_last"
 6380      746F 6B5F 
 6380      6C61 7374 
 6380      00
 6381               	.LASF131:
 6382 0b5f 5F6D 6272 	.string"_mbrtowc_state"
 6382      746F 7763 
 6382      5F73 7461 
 6382      7465 00
 6383               	.LASF209:
 6384 0b6e 4375 7272 	.string"CurrentMET"
 6384      656E 744D 
 6384      4554 00
 6385               	.LASF44:
 6386 0b79 5F66 6C6F 	.string"_flock_t"
 6386      636B 5F74 
 6386      00
 6387               	.LASF282:
 6388 0b82 4E65 774D 	.string"NewMET"
 6388      4554 00
 6389               	.LASF234:
 6390 0b89 4C6F 6361 	.string"LocalTaskCount"
 6390      6C54 6173 
 6390      6B43 6F75 
 6390      6E74 00
 6391               	.LASF109:
 6392 0b98 5F5F 4649 	.string"__FILE"
 6392      4C45 00
 6393               	.LASF298:
 6394 0b9f 4346 455F 	.string"CFE_TIME_TaskPipe"
 6394      5449 4D45 
 6394      5F54 6173 
 6394      6B50 6970 
 6394      6500 
 6395               	.LASF86:
 6396 0bb1 5F6C 6F63 	.string"_lock"
 6396      6B00 
 6397               	.LASF43:
 6398 0bb7 5F6D 6273 	.string"_mbstate_t"
 6398      7461 7465 
 6398      5F74 00
 6399               	.LASF230:
 6400 0bc2 546F 6E65 	.string"ToneIntErrors"
 6400      496E 7445 
 6400      7272 6F72 
 6400      7300 
 6401               	.LASF123:
 6402 0bd0 5F72 3438 	.string"_r48"
 6402      00
 6403               	.LASF157:
 6404 0bd5 4C65 6E67 	.string"Length"
 6404      7468 00
 6405               	.LASF279:
 6406 0bdc 4346 455F 	.string"CFE_TIME_SetSTCFCmd"
 6406      5449 4D45 
 6406      5F53 6574 
 6406      5354 4346 
68K GAS   			page 157


 6406      436D 6400 
 6407               	.LASF38:
 6408 0bf0 7769 6E74 	.string"wint_t"
 6408      5F74 00
 6409               	.LASF2:
 6410 0bf7 6F73 616C 	.string"osalbool"
 6410      626F 6F6C 
 6410      00
 6411               	.LASF47:
 6412 0c00 5F6E 6578 	.string"_next"
 6412      7400 
 6413               	.LASF85:
 6414 0c06 5F64 6174 	.string"_data"
 6414      6100 
 6415               	.LASF189:
 6416 0c0c 4346 455F 	.string"CFE_TIME_ToneDataCmd_Payload_t"
 6416      5449 4D45 
 6416      5F54 6F6E 
 6416      6544 6174 
 6416      6143 6D64 
 6417               	.LASF188:
 6418 0c2b 4174 546F 	.string"AtToneState"
 6418      6E65 5374 
 6418      6174 6500 
 6419               	.LASF259:
 6420 0c37 4973 546F 	.string"IsToneGood"
 6420      6E65 476F 
 6420      6F64 00
 6421               	.LASF268:
 6422 0c42 546F 6E65 	.string"ToneTaskID"
 6422      5461 736B 
 6422      4944 00
 6423               	.LASF169:
 6424 0c4d 4346 455F 	.string"CFE_SB_Default_Qos"
 6424      5342 5F44 
 6424      6566 6175 
 6424      6C74 5F51 
 6424      6F73 00
 6425               	.LASF162:
 6426 0c60 4346 455F 	.string"CFE_SB_PipeId_t"
 6426      5342 5F50 
 6426      6970 6549 
 6426      645F 7400 
 6427               	.LASF237:
 6428 0c70 4D61 7845 	.string"MaxElapsed"
 6428      6C61 7073 
 6428      6564 00
 6429               	.LASF34:
 6430 0c7b 5F4D 7574 	.string"_Mutex"
 6430      6578 00
 6431               	.LASF229:
 6432 0c82 546F 6E65 	.string"ToneIntCount"
 6432      496E 7443 
 6432      6F75 6E74 
 6432      00
 6433               	.LASF165:
 6434 0c8f 4346 455F 	.string"CFE_SB_MsgPayloadPtr_t"
68K GAS   			page 158


 6434      5342 5F4D 
 6434      7367 5061 
 6434      796C 6F61 
 6434      6450 7472 
 6435               	.LASF8:
 6436 0ca6 7569 6E74 	.string"uint8"
 6436      3800 
 6437               	.LASF308:
 6438 0cac 2F68 6F6D 	.string"/home/simulink/cFS_FreeRTOS_seL4/build/cpu1/cfe/time"
 6438      652F 7369 
 6438      6D75 6C69 
 6438      6E6B 2F63 
 6438      4653 5F46 
 6439               	.LASF124:
 6440 0ce1 5F6D 626C 	.string"_mblen_state"
 6440      656E 5F73 
 6440      7461 7465 
 6440      00
 6441               	.LASF4:
 6442 0cee 7368 6F72 	.string"short int"
 6442      7420 696E 
 6442      7400 
 6443               	.LASF241:
 6444 0cf8 4461 7461 	.string"DataStoreStatus"
 6444      5374 6F72 
 6444      6553 7461 
 6444      7475 7300 
 6445               	.LASF283:
 6446 0d08 4346 455F 	.string"CFE_TIME_SetTimeCmd"
 6446      5449 4D45 
 6446      5F53 6574 
 6446      5469 6D65 
 6446      436D 6400 
 6447               	.LASF144:
 6448 0d1c 7375 626F 	.string"suboptarg"
 6448      7074 6172 
 6448      6700 
 6449               	.LASF211:
 6450 0d26 4375 7272 	.string"CurrentUTC"
 6450      656E 7455 
 6450      5443 00
 6451               	.LASF64:
 6452 0d31 5F66 6E74 	.string"_fntypes"
 6452      7970 6573 
 6452      00
 6453               	.LASF57:
 6454 0d3a 5F5F 746D 	.string"__tm_year"
 6454      5F79 6561 
 6454      7200 
 6455               	.LASF257:
 6456 0d44 4578 7465 	.string"ExternalCount"
 6456      726E 616C 
 6456      436F 756E 
 6456      7400 
 6457               	.LASF208:
 6458 0d52 4375 7272 	.string"CurrentLatch"
 6458      656E 744C 
68K GAS   			page 159


 6458      6174 6368 
 6458      00
 6459               	.LASF294:
 6460 0d5f 4346 455F 	.string"CFE_TIME_ToneDataCmd"
 6460      5449 4D45 
 6460      5F54 6F6E 
 6460      6544 6174 
 6460      6143 6D64 
 6461               	.LASF75:
 6462 0d74 5F6C 6266 	.string"_lbfsize"
 6462      7369 7A65 
 6462      00
 6463               	.LASF94:
 6464 0d7d 5F69 6E63 	.string"_inc"
 6464      00
 6465               	.LASF67:
 6466 0d82 5F69 6E64 	.string"_ind"
 6466      00
 6467               	.LASF236:
 6468 0d87 4D69 6E45 	.string"MinElapsed"
 6468      6C61 7073 
 6468      6564 00
 6469               	.LASF16:
 6470 0d92 5F5F 696E 	.string"__int64_t"
 6470      7436 345F 
 6470      7400 
 6471               	.LASF3:
 6472 0d9c 696E 7431 	.string"int16"
 6472      3600 
 6473               	.LASF69:
 6474 0da2 5F5F 7362 	.string"__sbuf"
 6474      7566 00
 6475               	.LASF65:
 6476 0da9 5F69 735F 	.string"_is_cxa"
 6476      6378 6100 
 6477               	.LASF150:
 6478 0db1 4346 455F 	.string"CFE_TIME_SysTime_t"
 6478      5449 4D45 
 6478      5F53 7973 
 6478      5469 6D65 
 6478      5F74 00
 6479               	.LASF136:
 6480 0dc4 5F6E 6578 	.string"_nextf"
 6480      7466 00
 6481               	.LASF196:
 6482 0dcb 5365 636F 	.string"SecondsMET"
 6482      6E64 734D 
 6482      4554 00
 6483               	.LASF299:
 6484 0dd6 4D65 7373 	.string"MessagePtr"
 6484      6167 6550 
 6484      7472 00
 6485               	.LASF212:
 6486 0de1 436C 6F63 	.string"ClockSetState"
 6486      6B53 6574 
 6486      5374 6174 
 6486      6500 
68K GAS   			page 160


 6487               	.LASF97:
 6488 0def 5F6C 6F63 	.string"_locale"
 6488      616C 6500 
 6489               	.LASF45:
 6490 0df7 5F5F 554C 	.string"__ULong"
 6490      6F6E 6700 
 6491               	.LASF217:
 6492 0dff 466F 7263 	.string"Forced2Fly"
 6492      6564 3246 
 6492      6C79 00
 6493               	.LASF100:
 6494 0e0a 5F72 6573 	.string"_result"
 6494      756C 7400 
 6495               	.LASF25:
 6496 0e12 5F4C 6F63 	.string"_Lock"
 6496      6B00 
 6497               	.LASF21:
 6498 0e18 5F6E 6F77 	.string"_now_serving"
 6498      5F73 6572 
 6498      7669 6E67 
 6498      00
 6499               	.LASF219:
 6500 0e25 4F6E 6548 	.string"OneHzDirection"
 6500      7A44 6972 
 6500      6563 7469 
 6500      6F6E 00
 6501               	.LASF247:
 6502 0e34 4469 6167 	.string"DiagPacket"
 6502      5061 636B 
 6502      6574 00
 6503               	.LASF199:
 6504 0e3f 5375 6273 	.string"SubsecsSTCF"
 6504      6563 7353 
 6504      5443 4600 
 6505               	.LASF246:
 6506 0e4b 486B 5061 	.string"HkPacket"
 6506      636B 6574 
 6506      00
 6507               	.LASF18:
 6508 0e54 5F6F 6666 	.string"_off_t"
 6508      5F74 00
 6509               	.LASF116:
 6510 0e5b 5F61 6464 	.string"_add"
 6510      00
 6511               	.LASF306:
 6512 0e60 474E 5520 	.string"GNU C11 7.3.0 20180125 (RTEMS 5, RSB d2b25d131d55adcb38219f2cd8cbec2436ee78ab, Newlib 3.0.0) -malign-int -mcpu=528x -g -O0 -fomit-frame-pointer"
 6512      4331 3120 
 6512      372E 332E 
 6512      3020 3230 
 6512      3138 3031 
 6513               	.LASF10:
 6514 0ef0 7368 6F72 	.string"short unsigned int"
 6514      7420 756E 
 6514      7369 676E 
 6514      6564 2069 
 6514      6E74 00
 6515               	.LASF54:
68K GAS   			page 161


 6516 0f03 5F5F 746D 	.string"__tm_hour"
 6516      5F68 6F75 
 6516      7200 
 6517               	.LASF262:
 6518 0f0d 4661 6B65 	.string"FakeToneCmd"
 6518      546F 6E65 
 6518      436D 6400 
 6519               	.LASF5:
 6520 0f19 696E 7433 	.string"int32"
 6520      3200 
 6521               	.LASF156:
 6522 0f1f 5365 7175 	.string"Sequence"
 6522      656E 6365 
 6522      00
 6523               	.LASF132:
 6524 0f28 5F6D 6273 	.string"_mbsrtowcs_state"
 6524      7274 6F77 
 6524      6373 5F73 
 6524      7461 7465 
 6524      00
 6525               	.LASF180:
 6526 0f39 4346 455F 	.string"CFE_TIME_1HzAdjCmd_Payload_t"
 6526      5449 4D45 
 6526      5F31 487A 
 6526      4164 6A43 
 6526      6D64 5F50 
 6527               	.LASF197:
 6528 0f56 5375 6273 	.string"SubsecsMET"
 6528      6563 734D 
 6528      4554 00
 6529               	.LASF176:
 6530 0f61 546F 6E65 	.string"ToneSource"
 6530      536F 7572 
 6530      6365 00
 6531               	.LASF274:
 6532 0f6c 436F 6D6D 	.string"CommandPtr"
 6532      616E 6450 
 6532      7472 00
 6533               	.LASF62:
 6534 0f77 5F66 6E61 	.string"_fnargs"
 6534      7267 7300 
 6535               	.LASF60:
 6536 0f7f 5F5F 746D 	.string"__tm_isdst"
 6536      5F69 7364 
 6536      7374 00
 6537               	.LASF220:
 6538 0f8a 4465 6C61 	.string"DelayDirection"
 6538      7944 6972 
 6538      6563 7469 
 6538      6F6E 00
 6539               	.LASF146:
 6540 0f99 5F64 6179 	.string"_daylight"
 6540      6C69 6768 
 6540      7400 
 6541               	.LASF164:
 6542 0fa3 4346 455F 	.string"CFE_SB_MsgPtr_t"
 6542      5342 5F4D 
68K GAS   			page 162


 6542      7367 5074 
 6542      725F 7400 
 6543               	.LASF53:
 6544 0fb3 5F5F 746D 	.string"__tm_min"
 6544      5F6D 696E 
 6544      00
 6545               	.LASF9:
 6546 0fbc 7569 6E74 	.string"uint16"
 6546      3136 00
 6547               	.LASF129:
 6548 0fc3 5F67 6574 	.string"_getdate_err"
 6548      6461 7465 
 6548      5F65 7272 
 6548      00
 6549               	.LASF168:
 6550 0fd0 4346 455F 	.string"CFE_SB_Qos_t"
 6550      5342 5F51 
 6550      6F73 5F74 
 6550      00
 6551               	.LASF206:
 6552 0fdd 4174 546F 	.string"AtToneLatch"
 6552      6E65 4C61 
 6552      7463 6800 
 6553               	.LASF309:
 6554 0fe9 4346 455F 	.string"CFE_TIME_TaskInit"
 6554      5449 4D45 
 6554      5F54 6173 
 6554      6B49 6E69 
 6554      7400 
 6555               	.LASF174:
 6556 0ffb 5469 6D65 	.string"TimeSource"
 6556      536F 7572 
 6556      6365 00
 6557               	.ident"GCC: (GNU) 7.3.0 20180125 (RTEMS 5, RSB d2b25d131d55adcb38219f2cd8cbec2436ee78ab, Newlib 3.0.0)"
68K GAS   			page 163


DEFINED SYMBOLS
                            *ABS*:0000000000000000 cfe_time_task.c
                            *COM*:0000000000000248 CFE_TIME_TaskData
    {standard input}:10     .text:0000000000000000 CFE_TIME_EarlyInit
    {standard input}:33     .text:000000000000000a CFE_TIME_TaskMain
    {standard input}:206    .text:00000000000000ea CFE_TIME_TaskInit
    {standard input}:686    .text:00000000000004fe CFE_TIME_TaskPipe
    {standard input}:986    .text:000000000000073c CFE_TIME_HousekeepingCmd
    {standard input}:1036   .text:0000000000000788 CFE_TIME_ToneSignalCmd
    {standard input}:1054   .text:0000000000000798 CFE_TIME_ToneDataCmd
    {standard input}:1074   .text:00000000000007a8 CFE_TIME_FakeToneCmd
    {standard input}:1094   .text:00000000000007b2 CFE_TIME_NoopCmd
    {standard input}:1135   .text:00000000000007ea CFE_TIME_ResetCmd
    {standard input}:1193   .text:000000000000085e CFE_TIME_DiagCmd
    {standard input}:1248   .text:00000000000008ac CFE_TIME_SetStateCmd
    {standard input}:1371   .text:000000000000097c CFE_TIME_SetSourceCmd
    {standard input}:1451   .text:00000000000009fa CFE_TIME_SetSignalCmd
    {standard input}:1531   .text:0000000000000a78 CFE_TIME_SetDelayCmd
    {standard input}:1607   .text:0000000000000b02 CFE_TIME_SetTimeCmd
    {standard input}:1722   .text:0000000000000be0 CFE_TIME_SetMETCmd
    {standard input}:1837   .text:0000000000000cbe CFE_TIME_SetSTCFCmd
    {standard input}:1950   .text:0000000000000d9c CFE_TIME_SetLeapsCmd
    {standard input}:2005   .text:0000000000000de8 CFE_TIME_AdjustCmd
    {standard input}:2136   .text:0000000000000eea CFE_TIME_1HzAdjCmd

UNDEFINED SYMBOLS
CFE_TIME_InitData
CFE_ES_PerfLogAdd
CFE_ES_WriteToSysLog
CFE_ES_ExitApp
CFE_ES_WaitForStartupSync
CFE_ES_IncrementTaskCounter
CFE_SB_RcvMsg
CFE_ES_RegisterApp
CFE_EVS_Register
OS_BinSemCreate
CFE_TIME_Tone1HzTask
CFE_ES_CreateChildTask
CFE_TIME_Local1HzTask
CFE_SB_CreatePipe
CFE_SB_Subscribe
CFE_SB_SubscribeLocal
CFE_EVS_SendEvent
OS_TimeBaseGetIdByName
CFE_TIME_Local1HzTimerCallback
OS_TimerAdd
OS_TimerSet
CFE_SB_GetMsgId
CFE_SB_GetCmdCode
CFE_TIME_GetReference
CFE_TIME_UpdateResetVars
CFE_TIME_GetHkData
CFE_SB_TimeStampMsg
CFE_SB_SendMsg
CFE_TIME_ToneSignal
CFE_TIME_ToneSend
CFE_TIME_ToneData
68K GAS   			page 164


CFE_TIME_Tone1HzISR
CFE_TIME_GetDiagData
CFE_TIME_SetState
CFE_TIME_Micro2SubSecs
CFE_TIME_SetTime
CFE_TIME_SetMET
CFE_TIME_SetSTCF
CFE_TIME_SetLeaps
CFE_TIME_SetAdjust
CFE_TIME_Set1HzAdj
